


Disassembly of section .text:

00000000000090a0 <_start>:
    90a0:	f3 0f 1e fa          	endbr64 
    90a4:	31 ed                	xor    %ebp,%ebp
    90a6:	49 89 d1             	mov    %rdx,%r9
    90a9:	5e                   	pop    %rsi
    90aa:	48 89 e2             	mov    %rsp,%rdx
    90ad:	48 83 e4 f0          	and    $0xfffffffffffffff0,%rsp
    90b1:	50                   	push   %rax
    90b2:	54                   	push   %rsp
    90b3:	4c 8d 05 06 c7 00 00 	lea    0xc706(%rip),%r8        # 157c0 <__libc_csu_fini>
    90ba:	48 8d 0d 8f c6 00 00 	lea    0xc68f(%rip),%rcx        # 15750 <__libc_csu_init>
    90c1:	48 8d 3d cb a2 00 00 	lea    0xa2cb(%rip),%rdi        # 13393 <main>
    90c8:	ff 15 12 1f 01 00    	callq  *0x11f12(%rip)        # 1afe0 <__libc_start_main@GLIBC_2.2.5>
    90ce:	f4                   	hlt    
    90cf:	90                   	nop

00000000000090d0 <deregister_tm_clones>:
    90d0:	48 8d 3d 31 5f 01 00 	lea    0x15f31(%rip),%rdi        # 1f008 <__TMC_END__>
    90d7:	48 8d 05 2a 5f 01 00 	lea    0x15f2a(%rip),%rax        # 1f008 <__TMC_END__>
    90de:	48 39 f8             	cmp    %rdi,%rax
    90e1:	74 15                	je     90f8 <deregister_tm_clones+0x28>
    90e3:	48 8b 05 ee 1e 01 00 	mov    0x11eee(%rip),%rax        # 1afd8 <_ITM_deregisterTMCloneTable>
    90ea:	48 85 c0             	test   %rax,%rax
    90ed:	74 09                	je     90f8 <deregister_tm_clones+0x28>
    90ef:	ff e0                	jmpq   *%rax
    90f1:	0f 1f 80 00 00 00 00 	nopl   0x0(%rax)
    90f8:	c3                   	retq   
    90f9:	0f 1f 80 00 00 00 00 	nopl   0x0(%rax)

0000000000009100 <register_tm_clones>:
    9100:	48 8d 3d 01 5f 01 00 	lea    0x15f01(%rip),%rdi        # 1f008 <__TMC_END__>
    9107:	48 8d 35 fa 5e 01 00 	lea    0x15efa(%rip),%rsi        # 1f008 <__TMC_END__>
    910e:	48 29 fe             	sub    %rdi,%rsi
    9111:	48 89 f0             	mov    %rsi,%rax
    9114:	48 c1 ee 3f          	shr    $0x3f,%rsi
    9118:	48 c1 f8 03          	sar    $0x3,%rax
    911c:	48 01 c6             	add    %rax,%rsi
    911f:	48 d1 fe             	sar    %rsi
    9122:	74 14                	je     9138 <register_tm_clones+0x38>
    9124:	48 8b 05 c5 1e 01 00 	mov    0x11ec5(%rip),%rax        # 1aff0 <_ITM_registerTMCloneTable>
    912b:	48 85 c0             	test   %rax,%rax
    912e:	74 08                	je     9138 <register_tm_clones+0x38>
    9130:	ff e0                	jmpq   *%rax
    9132:	66 0f 1f 44 00 00    	nopw   0x0(%rax,%rax,1)
    9138:	c3                   	retq   
    9139:	0f 1f 80 00 00 00 00 	nopl   0x0(%rax)

0000000000009140 <__do_global_dtors_aux>:
    9140:	f3 0f 1e fa          	endbr64 
    9144:	80 3d d5 5e 01 00 00 	cmpb   $0x0,0x15ed5(%rip)        # 1f020 <completed.8061>
    914b:	75 2b                	jne    9178 <__do_global_dtors_aux+0x38>
    914d:	55                   	push   %rbp
    914e:	48 83 3d a2 1e 01 00 	cmpq   $0x0,0x11ea2(%rip)        # 1aff8 <__cxa_finalize@GLIBC_2.2.5>
    9155:	00 
    9156:	48 89 e5             	mov    %rsp,%rbp
    9159:	74 0c                	je     9167 <__do_global_dtors_aux+0x27>
    915b:	48 8b 3d a6 1e 01 00 	mov    0x11ea6(%rip),%rdi        # 1b008 <__dso_handle>
    9162:	e8 f9 fe ff ff       	callq  9060 <__cxa_finalize@plt>
    9167:	e8 64 ff ff ff       	callq  90d0 <deregister_tm_clones>
    916c:	c6 05 ad 5e 01 00 01 	movb   $0x1,0x15ead(%rip)        # 1f020 <completed.8061>
    9173:	5d                   	pop    %rbp
    9174:	c3                   	retq   
    9175:	0f 1f 00             	nopl   (%rax)
    9178:	c3                   	retq   
    9179:	0f 1f 80 00 00 00 00 	nopl   0x0(%rax)

0000000000009180 <frame_dummy>:
    9180:	f3 0f 1e fa          	endbr64 
    9184:	e9 77 ff ff ff       	jmpq   9100 <register_tm_clones>

0000000000009189 <platform_main_begin>:
    9189:	f3 0f 1e fa          	endbr64 
    918d:	55                   	push   %rbp
    918e:	48 89 e5             	mov    %rsp,%rbp
    9191:	90                   	nop
    9192:	5d                   	pop    %rbp
    9193:	c3                   	retq   

0000000000009194 <platform_main_end>:
    9194:	f3 0f 1e fa          	endbr64 
    9198:	55                   	push   %rbp
    9199:	48 89 e5             	mov    %rsp,%rbp
    919c:	48 83 ec 10          	sub    $0x10,%rsp
    91a0:	89 7d fc             	mov    %edi,-0x4(%rbp)
    91a3:	89 75 f8             	mov    %esi,-0x8(%rbp)
    91a6:	8b 45 fc             	mov    -0x4(%rbp),%eax
    91a9:	89 c6                	mov    %eax,%esi
    91ab:	48 8d 3d 6e ce 00 00 	lea    0xce6e(%rip),%rdi        # 16020 <_IO_stdin_used+0x20>
    91b2:	b8 00 00 00 00       	mov    $0x0,%eax
    91b7:	e8 c4 fe ff ff       	callq  9080 <printf@plt>
    91bc:	90                   	nop
    91bd:	c9                   	leaveq 
    91be:	c3                   	retq   

00000000000091bf <safe_unary_minus_func_int8_t_s>:
    91bf:	f3 0f 1e fa          	endbr64 
    91c3:	55                   	push   %rbp
    91c4:	48 89 e5             	mov    %rsp,%rbp
    91c7:	89 f8                	mov    %edi,%eax
    91c9:	88 45 fc             	mov    %al,-0x4(%rbp)
    91cc:	0f b6 45 fc          	movzbl -0x4(%rbp),%eax
    91d0:	f7 d8                	neg    %eax
    91d2:	5d                   	pop    %rbp
    91d3:	c3                   	retq   

00000000000091d4 <safe_add_func_int8_t_s_s>:
    91d4:	f3 0f 1e fa          	endbr64 
    91d8:	55                   	push   %rbp
    91d9:	48 89 e5             	mov    %rsp,%rbp
    91dc:	89 fa                	mov    %edi,%edx
    91de:	89 f0                	mov    %esi,%eax
    91e0:	88 55 fc             	mov    %dl,-0x4(%rbp)
    91e3:	88 45 f8             	mov    %al,-0x8(%rbp)
    91e6:	0f b6 55 fc          	movzbl -0x4(%rbp),%edx
    91ea:	0f b6 45 f8          	movzbl -0x8(%rbp),%eax
    91ee:	01 d0                	add    %edx,%eax
    91f0:	5d                   	pop    %rbp
    91f1:	c3                   	retq   

00000000000091f2 <safe_sub_func_int8_t_s_s>:
    91f2:	f3 0f 1e fa          	endbr64 
    91f6:	55                   	push   %rbp
    91f7:	48 89 e5             	mov    %rsp,%rbp
    91fa:	89 fa                	mov    %edi,%edx
    91fc:	89 f0                	mov    %esi,%eax
    91fe:	88 55 fc             	mov    %dl,-0x4(%rbp)
    9201:	88 45 f8             	mov    %al,-0x8(%rbp)
    9204:	0f b6 55 fc          	movzbl -0x4(%rbp),%edx
    9208:	0f b6 45 f8          	movzbl -0x8(%rbp),%eax
    920c:	29 c2                	sub    %eax,%edx
    920e:	89 d0                	mov    %edx,%eax
    9210:	5d                   	pop    %rbp
    9211:	c3                   	retq   

0000000000009212 <safe_mul_func_int8_t_s_s>:
    9212:	f3 0f 1e fa          	endbr64 
    9216:	55                   	push   %rbp
    9217:	48 89 e5             	mov    %rsp,%rbp
    921a:	89 fa                	mov    %edi,%edx
    921c:	89 f0                	mov    %esi,%eax
    921e:	88 55 fc             	mov    %dl,-0x4(%rbp)
    9221:	88 45 f8             	mov    %al,-0x8(%rbp)
    9224:	0f b6 45 fc          	movzbl -0x4(%rbp),%eax
    9228:	0f b6 55 f8          	movzbl -0x8(%rbp),%edx
    922c:	0f af c2             	imul   %edx,%eax
    922f:	5d                   	pop    %rbp
    9230:	c3                   	retq   

0000000000009231 <safe_mod_func_int8_t_s_s>:
    9231:	f3 0f 1e fa          	endbr64 
    9235:	55                   	push   %rbp
    9236:	48 89 e5             	mov    %rsp,%rbp
    9239:	89 fa                	mov    %edi,%edx
    923b:	89 f0                	mov    %esi,%eax
    923d:	88 55 fc             	mov    %dl,-0x4(%rbp)
    9240:	88 45 f8             	mov    %al,-0x8(%rbp)
    9243:	80 7d f8 00          	cmpb   $0x0,-0x8(%rbp)
    9247:	74 1b                	je     9264 <safe_mod_func_int8_t_s_s+0x33>
    9249:	80 7d fc 80          	cmpb   $0x80,-0x4(%rbp)
    924d:	75 06                	jne    9255 <safe_mod_func_int8_t_s_s+0x24>
    924f:	80 7d f8 ff          	cmpb   $0xff,-0x8(%rbp)
    9253:	74 0f                	je     9264 <safe_mod_func_int8_t_s_s+0x33>
    9255:	0f be 45 fc          	movsbl -0x4(%rbp),%eax
    9259:	0f be 4d f8          	movsbl -0x8(%rbp),%ecx
    925d:	99                   	cltd   
    925e:	f7 f9                	idiv   %ecx
    9260:	89 d0                	mov    %edx,%eax
    9262:	eb 04                	jmp    9268 <safe_mod_func_int8_t_s_s+0x37>
    9264:	0f b6 45 fc          	movzbl -0x4(%rbp),%eax
    9268:	5d                   	pop    %rbp
    9269:	c3                   	retq   

000000000000926a <safe_div_func_int8_t_s_s>:
    926a:	f3 0f 1e fa          	endbr64 
    926e:	55                   	push   %rbp
    926f:	48 89 e5             	mov    %rsp,%rbp
    9272:	89 fa                	mov    %edi,%edx
    9274:	89 f0                	mov    %esi,%eax
    9276:	88 55 fc             	mov    %dl,-0x4(%rbp)
    9279:	88 45 f8             	mov    %al,-0x8(%rbp)
    927c:	80 7d f8 00          	cmpb   $0x0,-0x8(%rbp)
    9280:	74 19                	je     929b <safe_div_func_int8_t_s_s+0x31>
    9282:	80 7d fc 80          	cmpb   $0x80,-0x4(%rbp)
    9286:	75 06                	jne    928e <safe_div_func_int8_t_s_s+0x24>
    9288:	80 7d f8 ff          	cmpb   $0xff,-0x8(%rbp)
    928c:	74 0d                	je     929b <safe_div_func_int8_t_s_s+0x31>
    928e:	0f be 45 fc          	movsbl -0x4(%rbp),%eax
    9292:	0f be 4d f8          	movsbl -0x8(%rbp),%ecx
    9296:	99                   	cltd   
    9297:	f7 f9                	idiv   %ecx
    9299:	eb 04                	jmp    929f <safe_div_func_int8_t_s_s+0x35>
    929b:	0f b6 45 fc          	movzbl -0x4(%rbp),%eax
    929f:	5d                   	pop    %rbp
    92a0:	c3                   	retq   

00000000000092a1 <safe_lshift_func_int8_t_s_s>:
    92a1:	f3 0f 1e fa          	endbr64 
    92a5:	55                   	push   %rbp
    92a6:	48 89 e5             	mov    %rsp,%rbp
    92a9:	89 f8                	mov    %edi,%eax
    92ab:	89 75 f8             	mov    %esi,-0x8(%rbp)
    92ae:	88 45 fc             	mov    %al,-0x4(%rbp)
    92b1:	80 7d fc 00          	cmpb   $0x0,-0x4(%rbp)
    92b5:	78 31                	js     92e8 <safe_lshift_func_int8_t_s_s+0x47>
    92b7:	83 7d f8 00          	cmpl   $0x0,-0x8(%rbp)
    92bb:	78 2b                	js     92e8 <safe_lshift_func_int8_t_s_s+0x47>
    92bd:	83 7d f8 1f          	cmpl   $0x1f,-0x8(%rbp)
    92c1:	7f 25                	jg     92e8 <safe_lshift_func_int8_t_s_s+0x47>
    92c3:	0f be 55 fc          	movsbl -0x4(%rbp),%edx
    92c7:	8b 45 f8             	mov    -0x8(%rbp),%eax
    92ca:	be 7f 00 00 00       	mov    $0x7f,%esi
    92cf:	89 c1                	mov    %eax,%ecx
    92d1:	d3 fe                	sar    %cl,%esi
    92d3:	89 f0                	mov    %esi,%eax
    92d5:	39 c2                	cmp    %eax,%edx
    92d7:	7f 0f                	jg     92e8 <safe_lshift_func_int8_t_s_s+0x47>
    92d9:	0f be 55 fc          	movsbl -0x4(%rbp),%edx
    92dd:	8b 45 f8             	mov    -0x8(%rbp),%eax
    92e0:	89 c1                	mov    %eax,%ecx
    92e2:	d3 e2                	shl    %cl,%edx
    92e4:	89 d0                	mov    %edx,%eax
    92e6:	eb 04                	jmp    92ec <safe_lshift_func_int8_t_s_s+0x4b>
    92e8:	0f b6 45 fc          	movzbl -0x4(%rbp),%eax
    92ec:	5d                   	pop    %rbp
    92ed:	c3                   	retq   

00000000000092ee <safe_lshift_func_int8_t_s_u>:
    92ee:	f3 0f 1e fa          	endbr64 
    92f2:	55                   	push   %rbp
    92f3:	48 89 e5             	mov    %rsp,%rbp
    92f6:	89 f8                	mov    %edi,%eax
    92f8:	89 75 f8             	mov    %esi,-0x8(%rbp)
    92fb:	88 45 fc             	mov    %al,-0x4(%rbp)
    92fe:	80 7d fc 00          	cmpb   $0x0,-0x4(%rbp)
    9302:	78 2b                	js     932f <safe_lshift_func_int8_t_s_u+0x41>
    9304:	83 7d f8 1f          	cmpl   $0x1f,-0x8(%rbp)
    9308:	77 25                	ja     932f <safe_lshift_func_int8_t_s_u+0x41>
    930a:	0f be 55 fc          	movsbl -0x4(%rbp),%edx
    930e:	8b 45 f8             	mov    -0x8(%rbp),%eax
    9311:	be 7f 00 00 00       	mov    $0x7f,%esi
    9316:	89 c1                	mov    %eax,%ecx
    9318:	d3 fe                	sar    %cl,%esi
    931a:	89 f0                	mov    %esi,%eax
    931c:	39 c2                	cmp    %eax,%edx
    931e:	7f 0f                	jg     932f <safe_lshift_func_int8_t_s_u+0x41>
    9320:	0f be 55 fc          	movsbl -0x4(%rbp),%edx
    9324:	8b 45 f8             	mov    -0x8(%rbp),%eax
    9327:	89 c1                	mov    %eax,%ecx
    9329:	d3 e2                	shl    %cl,%edx
    932b:	89 d0                	mov    %edx,%eax
    932d:	eb 04                	jmp    9333 <safe_lshift_func_int8_t_s_u+0x45>
    932f:	0f b6 45 fc          	movzbl -0x4(%rbp),%eax
    9333:	5d                   	pop    %rbp
    9334:	c3                   	retq   

0000000000009335 <safe_rshift_func_int8_t_s_s>:
    9335:	f3 0f 1e fa          	endbr64 
    9339:	55                   	push   %rbp
    933a:	48 89 e5             	mov    %rsp,%rbp
    933d:	89 f8                	mov    %edi,%eax
    933f:	89 75 f8             	mov    %esi,-0x8(%rbp)
    9342:	88 45 fc             	mov    %al,-0x4(%rbp)
    9345:	80 7d fc 00          	cmpb   $0x0,-0x4(%rbp)
    9349:	78 1b                	js     9366 <safe_rshift_func_int8_t_s_s+0x31>
    934b:	83 7d f8 00          	cmpl   $0x0,-0x8(%rbp)
    934f:	78 15                	js     9366 <safe_rshift_func_int8_t_s_s+0x31>
    9351:	83 7d f8 1f          	cmpl   $0x1f,-0x8(%rbp)
    9355:	7f 0f                	jg     9366 <safe_rshift_func_int8_t_s_s+0x31>
    9357:	0f be 55 fc          	movsbl -0x4(%rbp),%edx
    935b:	8b 45 f8             	mov    -0x8(%rbp),%eax
    935e:	89 c1                	mov    %eax,%ecx
    9360:	d3 fa                	sar    %cl,%edx
    9362:	89 d0                	mov    %edx,%eax
    9364:	eb 04                	jmp    936a <safe_rshift_func_int8_t_s_s+0x35>
    9366:	0f b6 45 fc          	movzbl -0x4(%rbp),%eax
    936a:	5d                   	pop    %rbp
    936b:	c3                   	retq   

000000000000936c <safe_rshift_func_int8_t_s_u>:
    936c:	f3 0f 1e fa          	endbr64 
    9370:	55                   	push   %rbp
    9371:	48 89 e5             	mov    %rsp,%rbp
    9374:	89 f8                	mov    %edi,%eax
    9376:	89 75 f8             	mov    %esi,-0x8(%rbp)
    9379:	88 45 fc             	mov    %al,-0x4(%rbp)
    937c:	80 7d fc 00          	cmpb   $0x0,-0x4(%rbp)
    9380:	78 15                	js     9397 <safe_rshift_func_int8_t_s_u+0x2b>
    9382:	83 7d f8 1f          	cmpl   $0x1f,-0x8(%rbp)
    9386:	77 0f                	ja     9397 <safe_rshift_func_int8_t_s_u+0x2b>
    9388:	0f be 55 fc          	movsbl -0x4(%rbp),%edx
    938c:	8b 45 f8             	mov    -0x8(%rbp),%eax
    938f:	89 c1                	mov    %eax,%ecx
    9391:	d3 fa                	sar    %cl,%edx
    9393:	89 d0                	mov    %edx,%eax
    9395:	eb 04                	jmp    939b <safe_rshift_func_int8_t_s_u+0x2f>
    9397:	0f b6 45 fc          	movzbl -0x4(%rbp),%eax
    939b:	5d                   	pop    %rbp
    939c:	c3                   	retq   

000000000000939d <safe_unary_minus_func_int16_t_s>:
    939d:	f3 0f 1e fa          	endbr64 
    93a1:	55                   	push   %rbp
    93a2:	48 89 e5             	mov    %rsp,%rbp
    93a5:	89 f8                	mov    %edi,%eax
    93a7:	66 89 45 fc          	mov    %ax,-0x4(%rbp)
    93ab:	0f b7 45 fc          	movzwl -0x4(%rbp),%eax
    93af:	f7 d8                	neg    %eax
    93b1:	5d                   	pop    %rbp
    93b2:	c3                   	retq   

00000000000093b3 <safe_add_func_int16_t_s_s>:
    93b3:	f3 0f 1e fa          	endbr64 
    93b7:	55                   	push   %rbp
    93b8:	48 89 e5             	mov    %rsp,%rbp
    93bb:	89 fa                	mov    %edi,%edx
    93bd:	89 f0                	mov    %esi,%eax
    93bf:	66 89 55 fc          	mov    %dx,-0x4(%rbp)
    93c3:	66 89 45 f8          	mov    %ax,-0x8(%rbp)
    93c7:	0f b7 55 fc          	movzwl -0x4(%rbp),%edx
    93cb:	0f b7 45 f8          	movzwl -0x8(%rbp),%eax
    93cf:	01 d0                	add    %edx,%eax
    93d1:	5d                   	pop    %rbp
    93d2:	c3                   	retq   

00000000000093d3 <safe_sub_func_int16_t_s_s>:
    93d3:	f3 0f 1e fa          	endbr64 
    93d7:	55                   	push   %rbp
    93d8:	48 89 e5             	mov    %rsp,%rbp
    93db:	89 fa                	mov    %edi,%edx
    93dd:	89 f0                	mov    %esi,%eax
    93df:	66 89 55 fc          	mov    %dx,-0x4(%rbp)
    93e3:	66 89 45 f8          	mov    %ax,-0x8(%rbp)
    93e7:	0f b7 55 fc          	movzwl -0x4(%rbp),%edx
    93eb:	0f b7 45 f8          	movzwl -0x8(%rbp),%eax
    93ef:	29 c2                	sub    %eax,%edx
    93f1:	89 d0                	mov    %edx,%eax
    93f3:	5d                   	pop    %rbp
    93f4:	c3                   	retq   

00000000000093f5 <safe_mul_func_int16_t_s_s>:
    93f5:	f3 0f 1e fa          	endbr64 
    93f9:	55                   	push   %rbp
    93fa:	48 89 e5             	mov    %rsp,%rbp
    93fd:	89 fa                	mov    %edi,%edx
    93ff:	89 f0                	mov    %esi,%eax
    9401:	66 89 55 fc          	mov    %dx,-0x4(%rbp)
    9405:	66 89 45 f8          	mov    %ax,-0x8(%rbp)
    9409:	0f b7 55 fc          	movzwl -0x4(%rbp),%edx
    940d:	0f b7 45 f8          	movzwl -0x8(%rbp),%eax
    9411:	0f af c2             	imul   %edx,%eax
    9414:	5d                   	pop    %rbp
    9415:	c3                   	retq   

0000000000009416 <safe_mod_func_int16_t_s_s>:
    9416:	f3 0f 1e fa          	endbr64 
    941a:	55                   	push   %rbp
    941b:	48 89 e5             	mov    %rsp,%rbp
    941e:	89 fa                	mov    %edi,%edx
    9420:	89 f0                	mov    %esi,%eax
    9422:	66 89 55 fc          	mov    %dx,-0x4(%rbp)
    9426:	66 89 45 f8          	mov    %ax,-0x8(%rbp)
    942a:	66 83 7d f8 00       	cmpw   $0x0,-0x8(%rbp)
    942f:	74 1e                	je     944f <safe_mod_func_int16_t_s_s+0x39>
    9431:	66 81 7d fc 00 80    	cmpw   $0x8000,-0x4(%rbp)
    9437:	75 07                	jne    9440 <safe_mod_func_int16_t_s_s+0x2a>
    9439:	66 83 7d f8 ff       	cmpw   $0xffff,-0x8(%rbp)
    943e:	74 0f                	je     944f <safe_mod_func_int16_t_s_s+0x39>
    9440:	0f bf 45 fc          	movswl -0x4(%rbp),%eax
    9444:	0f bf 4d f8          	movswl -0x8(%rbp),%ecx
    9448:	99                   	cltd   
    9449:	f7 f9                	idiv   %ecx
    944b:	89 d0                	mov    %edx,%eax
    944d:	eb 04                	jmp    9453 <safe_mod_func_int16_t_s_s+0x3d>
    944f:	0f b7 45 fc          	movzwl -0x4(%rbp),%eax
    9453:	5d                   	pop    %rbp
    9454:	c3                   	retq   

0000000000009455 <safe_div_func_int16_t_s_s>:
    9455:	f3 0f 1e fa          	endbr64 
    9459:	55                   	push   %rbp
    945a:	48 89 e5             	mov    %rsp,%rbp
    945d:	89 fa                	mov    %edi,%edx
    945f:	89 f0                	mov    %esi,%eax
    9461:	66 89 55 fc          	mov    %dx,-0x4(%rbp)
    9465:	66 89 45 f8          	mov    %ax,-0x8(%rbp)
    9469:	66 83 7d f8 00       	cmpw   $0x0,-0x8(%rbp)
    946e:	74 1c                	je     948c <safe_div_func_int16_t_s_s+0x37>
    9470:	66 81 7d fc 00 80    	cmpw   $0x8000,-0x4(%rbp)
    9476:	75 07                	jne    947f <safe_div_func_int16_t_s_s+0x2a>
    9478:	66 83 7d f8 ff       	cmpw   $0xffff,-0x8(%rbp)
    947d:	74 0d                	je     948c <safe_div_func_int16_t_s_s+0x37>
    947f:	0f bf 45 fc          	movswl -0x4(%rbp),%eax
    9483:	0f bf 4d f8          	movswl -0x8(%rbp),%ecx
    9487:	99                   	cltd   
    9488:	f7 f9                	idiv   %ecx
    948a:	eb 04                	jmp    9490 <safe_div_func_int16_t_s_s+0x3b>
    948c:	0f b7 45 fc          	movzwl -0x4(%rbp),%eax
    9490:	5d                   	pop    %rbp
    9491:	c3                   	retq   

0000000000009492 <safe_lshift_func_int16_t_s_s>:
    9492:	f3 0f 1e fa          	endbr64 
    9496:	55                   	push   %rbp
    9497:	48 89 e5             	mov    %rsp,%rbp
    949a:	89 f8                	mov    %edi,%eax
    949c:	89 75 f8             	mov    %esi,-0x8(%rbp)
    949f:	66 89 45 fc          	mov    %ax,-0x4(%rbp)
    94a3:	66 83 7d fc 00       	cmpw   $0x0,-0x4(%rbp)
    94a8:	78 31                	js     94db <safe_lshift_func_int16_t_s_s+0x49>
    94aa:	83 7d f8 00          	cmpl   $0x0,-0x8(%rbp)
    94ae:	78 2b                	js     94db <safe_lshift_func_int16_t_s_s+0x49>
    94b0:	83 7d f8 1f          	cmpl   $0x1f,-0x8(%rbp)
    94b4:	7f 25                	jg     94db <safe_lshift_func_int16_t_s_s+0x49>
    94b6:	0f bf 55 fc          	movswl -0x4(%rbp),%edx
    94ba:	8b 45 f8             	mov    -0x8(%rbp),%eax
    94bd:	be ff 7f 00 00       	mov    $0x7fff,%esi
    94c2:	89 c1                	mov    %eax,%ecx
    94c4:	d3 fe                	sar    %cl,%esi
    94c6:	89 f0                	mov    %esi,%eax
    94c8:	39 c2                	cmp    %eax,%edx
    94ca:	7f 0f                	jg     94db <safe_lshift_func_int16_t_s_s+0x49>
    94cc:	0f bf 55 fc          	movswl -0x4(%rbp),%edx
    94d0:	8b 45 f8             	mov    -0x8(%rbp),%eax
    94d3:	89 c1                	mov    %eax,%ecx
    94d5:	d3 e2                	shl    %cl,%edx
    94d7:	89 d0                	mov    %edx,%eax
    94d9:	eb 04                	jmp    94df <safe_lshift_func_int16_t_s_s+0x4d>
    94db:	0f b7 45 fc          	movzwl -0x4(%rbp),%eax
    94df:	5d                   	pop    %rbp
    94e0:	c3                   	retq   

00000000000094e1 <safe_lshift_func_int16_t_s_u>:
    94e1:	f3 0f 1e fa          	endbr64 
    94e5:	55                   	push   %rbp
    94e6:	48 89 e5             	mov    %rsp,%rbp
    94e9:	89 f8                	mov    %edi,%eax
    94eb:	89 75 f8             	mov    %esi,-0x8(%rbp)
    94ee:	66 89 45 fc          	mov    %ax,-0x4(%rbp)
    94f2:	66 83 7d fc 00       	cmpw   $0x0,-0x4(%rbp)
    94f7:	78 2b                	js     9524 <safe_lshift_func_int16_t_s_u+0x43>
    94f9:	83 7d f8 1f          	cmpl   $0x1f,-0x8(%rbp)
    94fd:	77 25                	ja     9524 <safe_lshift_func_int16_t_s_u+0x43>
    94ff:	0f bf 55 fc          	movswl -0x4(%rbp),%edx
    9503:	8b 45 f8             	mov    -0x8(%rbp),%eax
    9506:	be ff 7f 00 00       	mov    $0x7fff,%esi
    950b:	89 c1                	mov    %eax,%ecx
    950d:	d3 fe                	sar    %cl,%esi
    950f:	89 f0                	mov    %esi,%eax
    9511:	39 c2                	cmp    %eax,%edx
    9513:	7f 0f                	jg     9524 <safe_lshift_func_int16_t_s_u+0x43>
    9515:	0f bf 55 fc          	movswl -0x4(%rbp),%edx
    9519:	8b 45 f8             	mov    -0x8(%rbp),%eax
    951c:	89 c1                	mov    %eax,%ecx
    951e:	d3 e2                	shl    %cl,%edx
    9520:	89 d0                	mov    %edx,%eax
    9522:	eb 04                	jmp    9528 <safe_lshift_func_int16_t_s_u+0x47>
    9524:	0f b7 45 fc          	movzwl -0x4(%rbp),%eax
    9528:	5d                   	pop    %rbp
    9529:	c3                   	retq   

000000000000952a <safe_rshift_func_int16_t_s_s>:
    952a:	f3 0f 1e fa          	endbr64 
    952e:	55                   	push   %rbp
    952f:	48 89 e5             	mov    %rsp,%rbp
    9532:	89 f8                	mov    %edi,%eax
    9534:	89 75 f8             	mov    %esi,-0x8(%rbp)
    9537:	66 89 45 fc          	mov    %ax,-0x4(%rbp)
    953b:	66 83 7d fc 00       	cmpw   $0x0,-0x4(%rbp)
    9540:	78 1b                	js     955d <safe_rshift_func_int16_t_s_s+0x33>
    9542:	83 7d f8 00          	cmpl   $0x0,-0x8(%rbp)
    9546:	78 15                	js     955d <safe_rshift_func_int16_t_s_s+0x33>
    9548:	83 7d f8 1f          	cmpl   $0x1f,-0x8(%rbp)
    954c:	7f 0f                	jg     955d <safe_rshift_func_int16_t_s_s+0x33>
    954e:	0f bf 55 fc          	movswl -0x4(%rbp),%edx
    9552:	8b 45 f8             	mov    -0x8(%rbp),%eax
    9555:	89 c1                	mov    %eax,%ecx
    9557:	d3 fa                	sar    %cl,%edx
    9559:	89 d0                	mov    %edx,%eax
    955b:	eb 04                	jmp    9561 <safe_rshift_func_int16_t_s_s+0x37>
    955d:	0f b7 45 fc          	movzwl -0x4(%rbp),%eax
    9561:	5d                   	pop    %rbp
    9562:	c3                   	retq   

0000000000009563 <safe_rshift_func_int16_t_s_u>:
    9563:	f3 0f 1e fa          	endbr64 
    9567:	55                   	push   %rbp
    9568:	48 89 e5             	mov    %rsp,%rbp
    956b:	89 f8                	mov    %edi,%eax
    956d:	89 75 f8             	mov    %esi,-0x8(%rbp)
    9570:	66 89 45 fc          	mov    %ax,-0x4(%rbp)
    9574:	66 83 7d fc 00       	cmpw   $0x0,-0x4(%rbp)
    9579:	78 15                	js     9590 <safe_rshift_func_int16_t_s_u+0x2d>
    957b:	83 7d f8 1f          	cmpl   $0x1f,-0x8(%rbp)
    957f:	77 0f                	ja     9590 <safe_rshift_func_int16_t_s_u+0x2d>
    9581:	0f bf 55 fc          	movswl -0x4(%rbp),%edx
    9585:	8b 45 f8             	mov    -0x8(%rbp),%eax
    9588:	89 c1                	mov    %eax,%ecx
    958a:	d3 fa                	sar    %cl,%edx
    958c:	89 d0                	mov    %edx,%eax
    958e:	eb 04                	jmp    9594 <safe_rshift_func_int16_t_s_u+0x31>
    9590:	0f b7 45 fc          	movzwl -0x4(%rbp),%eax
    9594:	5d                   	pop    %rbp
    9595:	c3                   	retq   

0000000000009596 <safe_unary_minus_func_int32_t_s>:
    9596:	f3 0f 1e fa          	endbr64 
    959a:	55                   	push   %rbp
    959b:	48 89 e5             	mov    %rsp,%rbp
    959e:	89 7d fc             	mov    %edi,-0x4(%rbp)
    95a1:	81 7d fc 00 00 00 80 	cmpl   $0x80000000,-0x4(%rbp)
    95a8:	74 07                	je     95b1 <safe_unary_minus_func_int32_t_s+0x1b>
    95aa:	8b 45 fc             	mov    -0x4(%rbp),%eax
    95ad:	f7 d8                	neg    %eax
    95af:	eb 03                	jmp    95b4 <safe_unary_minus_func_int32_t_s+0x1e>
    95b1:	8b 45 fc             	mov    -0x4(%rbp),%eax
    95b4:	5d                   	pop    %rbp
    95b5:	c3                   	retq   

00000000000095b6 <safe_add_func_int32_t_s_s>:
    95b6:	f3 0f 1e fa          	endbr64 
    95ba:	55                   	push   %rbp
    95bb:	48 89 e5             	mov    %rsp,%rbp
    95be:	89 7d fc             	mov    %edi,-0x4(%rbp)
    95c1:	89 75 f8             	mov    %esi,-0x8(%rbp)
    95c4:	83 7d fc 00          	cmpl   $0x0,-0x4(%rbp)
    95c8:	7e 13                	jle    95dd <safe_add_func_int32_t_s_s+0x27>
    95ca:	83 7d f8 00          	cmpl   $0x0,-0x8(%rbp)
    95ce:	7e 0d                	jle    95dd <safe_add_func_int32_t_s_s+0x27>
    95d0:	b8 ff ff ff 7f       	mov    $0x7fffffff,%eax
    95d5:	2b 45 f8             	sub    -0x8(%rbp),%eax
    95d8:	39 45 fc             	cmp    %eax,-0x4(%rbp)
    95db:	7f 23                	jg     9600 <safe_add_func_int32_t_s_s+0x4a>
    95dd:	83 7d fc 00          	cmpl   $0x0,-0x4(%rbp)
    95e1:	79 13                	jns    95f6 <safe_add_func_int32_t_s_s+0x40>
    95e3:	83 7d f8 00          	cmpl   $0x0,-0x8(%rbp)
    95e7:	79 0d                	jns    95f6 <safe_add_func_int32_t_s_s+0x40>
    95e9:	b8 00 00 00 80       	mov    $0x80000000,%eax
    95ee:	2b 45 f8             	sub    -0x8(%rbp),%eax
    95f1:	39 45 fc             	cmp    %eax,-0x4(%rbp)
    95f4:	7c 0a                	jl     9600 <safe_add_func_int32_t_s_s+0x4a>
    95f6:	8b 55 fc             	mov    -0x4(%rbp),%edx
    95f9:	8b 45 f8             	mov    -0x8(%rbp),%eax
    95fc:	01 d0                	add    %edx,%eax
    95fe:	eb 03                	jmp    9603 <safe_add_func_int32_t_s_s+0x4d>
    9600:	8b 45 fc             	mov    -0x4(%rbp),%eax
    9603:	5d                   	pop    %rbp
    9604:	c3                   	retq   

0000000000009605 <safe_sub_func_int32_t_s_s>:
    9605:	f3 0f 1e fa          	endbr64 
    9609:	55                   	push   %rbp
    960a:	48 89 e5             	mov    %rsp,%rbp
    960d:	89 7d fc             	mov    %edi,-0x4(%rbp)
    9610:	89 75 f8             	mov    %esi,-0x8(%rbp)
    9613:	8b 45 fc             	mov    -0x4(%rbp),%eax
    9616:	33 45 f8             	xor    -0x8(%rbp),%eax
    9619:	89 c2                	mov    %eax,%edx
    961b:	8b 45 fc             	mov    -0x4(%rbp),%eax
    961e:	33 45 f8             	xor    -0x8(%rbp),%eax
    9621:	25 00 00 00 80       	and    $0x80000000,%eax
    9626:	33 45 fc             	xor    -0x4(%rbp),%eax
    9629:	2b 45 f8             	sub    -0x8(%rbp),%eax
    962c:	33 45 f8             	xor    -0x8(%rbp),%eax
    962f:	21 d0                	and    %edx,%eax
    9631:	85 c0                	test   %eax,%eax
    9633:	78 08                	js     963d <safe_sub_func_int32_t_s_s+0x38>
    9635:	8b 45 fc             	mov    -0x4(%rbp),%eax
    9638:	2b 45 f8             	sub    -0x8(%rbp),%eax
    963b:	eb 03                	jmp    9640 <safe_sub_func_int32_t_s_s+0x3b>
    963d:	8b 45 fc             	mov    -0x4(%rbp),%eax
    9640:	5d                   	pop    %rbp
    9641:	c3                   	retq   

0000000000009642 <safe_mul_func_int32_t_s_s>:
    9642:	f3 0f 1e fa          	endbr64 
    9646:	55                   	push   %rbp
    9647:	48 89 e5             	mov    %rsp,%rbp
    964a:	89 7d fc             	mov    %edi,-0x4(%rbp)
    964d:	89 75 f8             	mov    %esi,-0x8(%rbp)
    9650:	83 7d fc 00          	cmpl   $0x0,-0x4(%rbp)
    9654:	7e 14                	jle    966a <safe_mul_func_int32_t_s_s+0x28>
    9656:	83 7d f8 00          	cmpl   $0x0,-0x8(%rbp)
    965a:	7e 0e                	jle    966a <safe_mul_func_int32_t_s_s+0x28>
    965c:	b8 ff ff ff 7f       	mov    $0x7fffffff,%eax
    9661:	99                   	cltd   
    9662:	f7 7d f8             	idivl  -0x8(%rbp)
    9665:	39 45 fc             	cmp    %eax,-0x4(%rbp)
    9668:	7f 5d                	jg     96c7 <safe_mul_func_int32_t_s_s+0x85>
    966a:	83 7d fc 00          	cmpl   $0x0,-0x4(%rbp)
    966e:	7e 14                	jle    9684 <safe_mul_func_int32_t_s_s+0x42>
    9670:	83 7d f8 00          	cmpl   $0x0,-0x8(%rbp)
    9674:	7f 0e                	jg     9684 <safe_mul_func_int32_t_s_s+0x42>
    9676:	b8 00 00 00 80       	mov    $0x80000000,%eax
    967b:	99                   	cltd   
    967c:	f7 7d fc             	idivl  -0x4(%rbp)
    967f:	39 45 f8             	cmp    %eax,-0x8(%rbp)
    9682:	7c 43                	jl     96c7 <safe_mul_func_int32_t_s_s+0x85>
    9684:	83 7d fc 00          	cmpl   $0x0,-0x4(%rbp)
    9688:	7f 14                	jg     969e <safe_mul_func_int32_t_s_s+0x5c>
    968a:	83 7d f8 00          	cmpl   $0x0,-0x8(%rbp)
    968e:	7e 0e                	jle    969e <safe_mul_func_int32_t_s_s+0x5c>
    9690:	b8 00 00 00 80       	mov    $0x80000000,%eax
    9695:	99                   	cltd   
    9696:	f7 7d f8             	idivl  -0x8(%rbp)
    9699:	39 45 fc             	cmp    %eax,-0x4(%rbp)
    969c:	7c 29                	jl     96c7 <safe_mul_func_int32_t_s_s+0x85>
    969e:	83 7d fc 00          	cmpl   $0x0,-0x4(%rbp)
    96a2:	7f 1a                	jg     96be <safe_mul_func_int32_t_s_s+0x7c>
    96a4:	83 7d f8 00          	cmpl   $0x0,-0x8(%rbp)
    96a8:	7f 14                	jg     96be <safe_mul_func_int32_t_s_s+0x7c>
    96aa:	83 7d fc 00          	cmpl   $0x0,-0x4(%rbp)
    96ae:	74 0e                	je     96be <safe_mul_func_int32_t_s_s+0x7c>
    96b0:	b8 ff ff ff 7f       	mov    $0x7fffffff,%eax
    96b5:	99                   	cltd   
    96b6:	f7 7d fc             	idivl  -0x4(%rbp)
    96b9:	39 45 f8             	cmp    %eax,-0x8(%rbp)
    96bc:	7c 09                	jl     96c7 <safe_mul_func_int32_t_s_s+0x85>
    96be:	8b 45 fc             	mov    -0x4(%rbp),%eax
    96c1:	0f af 45 f8          	imul   -0x8(%rbp),%eax
    96c5:	eb 03                	jmp    96ca <safe_mul_func_int32_t_s_s+0x88>
    96c7:	8b 45 fc             	mov    -0x4(%rbp),%eax
    96ca:	5d                   	pop    %rbp
    96cb:	c3                   	retq   

00000000000096cc <safe_mod_func_int32_t_s_s>:
    96cc:	f3 0f 1e fa          	endbr64 
    96d0:	55                   	push   %rbp
    96d1:	48 89 e5             	mov    %rsp,%rbp
    96d4:	89 7d fc             	mov    %edi,-0x4(%rbp)
    96d7:	89 75 f8             	mov    %esi,-0x8(%rbp)
    96da:	83 7d f8 00          	cmpl   $0x0,-0x8(%rbp)
    96de:	74 1a                	je     96fa <safe_mod_func_int32_t_s_s+0x2e>
    96e0:	81 7d fc 00 00 00 80 	cmpl   $0x80000000,-0x4(%rbp)
    96e7:	75 06                	jne    96ef <safe_mod_func_int32_t_s_s+0x23>
    96e9:	83 7d f8 ff          	cmpl   $0xffffffff,-0x8(%rbp)
    96ed:	74 0b                	je     96fa <safe_mod_func_int32_t_s_s+0x2e>
    96ef:	8b 45 fc             	mov    -0x4(%rbp),%eax
    96f2:	99                   	cltd   
    96f3:	f7 7d f8             	idivl  -0x8(%rbp)
    96f6:	89 d0                	mov    %edx,%eax
    96f8:	eb 03                	jmp    96fd <safe_mod_func_int32_t_s_s+0x31>
    96fa:	8b 45 fc             	mov    -0x4(%rbp),%eax
    96fd:	5d                   	pop    %rbp
    96fe:	c3                   	retq   

00000000000096ff <safe_div_func_int32_t_s_s>:
    96ff:	f3 0f 1e fa          	endbr64 
    9703:	55                   	push   %rbp
    9704:	48 89 e5             	mov    %rsp,%rbp
    9707:	89 7d fc             	mov    %edi,-0x4(%rbp)
    970a:	89 75 f8             	mov    %esi,-0x8(%rbp)
    970d:	83 7d f8 00          	cmpl   $0x0,-0x8(%rbp)
    9711:	74 18                	je     972b <safe_div_func_int32_t_s_s+0x2c>
    9713:	81 7d fc 00 00 00 80 	cmpl   $0x80000000,-0x4(%rbp)
    971a:	75 06                	jne    9722 <safe_div_func_int32_t_s_s+0x23>
    971c:	83 7d f8 ff          	cmpl   $0xffffffff,-0x8(%rbp)
    9720:	74 09                	je     972b <safe_div_func_int32_t_s_s+0x2c>
    9722:	8b 45 fc             	mov    -0x4(%rbp),%eax
    9725:	99                   	cltd   
    9726:	f7 7d f8             	idivl  -0x8(%rbp)
    9729:	eb 03                	jmp    972e <safe_div_func_int32_t_s_s+0x2f>
    972b:	8b 45 fc             	mov    -0x4(%rbp),%eax
    972e:	5d                   	pop    %rbp
    972f:	c3                   	retq   

0000000000009730 <safe_lshift_func_int32_t_s_s>:
    9730:	f3 0f 1e fa          	endbr64 
    9734:	55                   	push   %rbp
    9735:	48 89 e5             	mov    %rsp,%rbp
    9738:	89 7d fc             	mov    %edi,-0x4(%rbp)
    973b:	89 75 f8             	mov    %esi,-0x8(%rbp)
    973e:	83 7d fc 00          	cmpl   $0x0,-0x4(%rbp)
    9742:	78 2d                	js     9771 <safe_lshift_func_int32_t_s_s+0x41>
    9744:	83 7d f8 00          	cmpl   $0x0,-0x8(%rbp)
    9748:	78 27                	js     9771 <safe_lshift_func_int32_t_s_s+0x41>
    974a:	83 7d f8 1f          	cmpl   $0x1f,-0x8(%rbp)
    974e:	7f 21                	jg     9771 <safe_lshift_func_int32_t_s_s+0x41>
    9750:	8b 45 f8             	mov    -0x8(%rbp),%eax
    9753:	ba ff ff ff 7f       	mov    $0x7fffffff,%edx
    9758:	89 c1                	mov    %eax,%ecx
    975a:	d3 fa                	sar    %cl,%edx
    975c:	89 d0                	mov    %edx,%eax
    975e:	39 45 fc             	cmp    %eax,-0x4(%rbp)
    9761:	7f 0e                	jg     9771 <safe_lshift_func_int32_t_s_s+0x41>
    9763:	8b 45 f8             	mov    -0x8(%rbp),%eax
    9766:	8b 55 fc             	mov    -0x4(%rbp),%edx
    9769:	89 c1                	mov    %eax,%ecx
    976b:	d3 e2                	shl    %cl,%edx
    976d:	89 d0                	mov    %edx,%eax
    976f:	eb 03                	jmp    9774 <safe_lshift_func_int32_t_s_s+0x44>
    9771:	8b 45 fc             	mov    -0x4(%rbp),%eax
    9774:	5d                   	pop    %rbp
    9775:	c3                   	retq   

0000000000009776 <safe_lshift_func_int32_t_s_u>:
    9776:	f3 0f 1e fa          	endbr64 
    977a:	55                   	push   %rbp
    977b:	48 89 e5             	mov    %rsp,%rbp
    977e:	89 7d fc             	mov    %edi,-0x4(%rbp)
    9781:	89 75 f8             	mov    %esi,-0x8(%rbp)
    9784:	83 7d fc 00          	cmpl   $0x0,-0x4(%rbp)
    9788:	78 27                	js     97b1 <safe_lshift_func_int32_t_s_u+0x3b>
    978a:	83 7d f8 1f          	cmpl   $0x1f,-0x8(%rbp)
    978e:	77 21                	ja     97b1 <safe_lshift_func_int32_t_s_u+0x3b>
    9790:	8b 45 f8             	mov    -0x8(%rbp),%eax
    9793:	ba ff ff ff 7f       	mov    $0x7fffffff,%edx
    9798:	89 c1                	mov    %eax,%ecx
    979a:	d3 fa                	sar    %cl,%edx
    979c:	89 d0                	mov    %edx,%eax
    979e:	39 45 fc             	cmp    %eax,-0x4(%rbp)
    97a1:	7f 0e                	jg     97b1 <safe_lshift_func_int32_t_s_u+0x3b>
    97a3:	8b 45 f8             	mov    -0x8(%rbp),%eax
    97a6:	8b 55 fc             	mov    -0x4(%rbp),%edx
    97a9:	89 c1                	mov    %eax,%ecx
    97ab:	d3 e2                	shl    %cl,%edx
    97ad:	89 d0                	mov    %edx,%eax
    97af:	eb 03                	jmp    97b4 <safe_lshift_func_int32_t_s_u+0x3e>
    97b1:	8b 45 fc             	mov    -0x4(%rbp),%eax
    97b4:	5d                   	pop    %rbp
    97b5:	c3                   	retq   

00000000000097b6 <safe_rshift_func_int32_t_s_s>:
    97b6:	f3 0f 1e fa          	endbr64 
    97ba:	55                   	push   %rbp
    97bb:	48 89 e5             	mov    %rsp,%rbp
    97be:	89 7d fc             	mov    %edi,-0x4(%rbp)
    97c1:	89 75 f8             	mov    %esi,-0x8(%rbp)
    97c4:	83 7d fc 00          	cmpl   $0x0,-0x4(%rbp)
    97c8:	78 1a                	js     97e4 <safe_rshift_func_int32_t_s_s+0x2e>
    97ca:	83 7d f8 00          	cmpl   $0x0,-0x8(%rbp)
    97ce:	78 14                	js     97e4 <safe_rshift_func_int32_t_s_s+0x2e>
    97d0:	83 7d f8 1f          	cmpl   $0x1f,-0x8(%rbp)
    97d4:	7f 0e                	jg     97e4 <safe_rshift_func_int32_t_s_s+0x2e>
    97d6:	8b 45 f8             	mov    -0x8(%rbp),%eax
    97d9:	8b 55 fc             	mov    -0x4(%rbp),%edx
    97dc:	89 c1                	mov    %eax,%ecx
    97de:	d3 fa                	sar    %cl,%edx
    97e0:	89 d0                	mov    %edx,%eax
    97e2:	eb 03                	jmp    97e7 <safe_rshift_func_int32_t_s_s+0x31>
    97e4:	8b 45 fc             	mov    -0x4(%rbp),%eax
    97e7:	5d                   	pop    %rbp
    97e8:	c3                   	retq   

00000000000097e9 <safe_rshift_func_int32_t_s_u>:
    97e9:	f3 0f 1e fa          	endbr64 
    97ed:	55                   	push   %rbp
    97ee:	48 89 e5             	mov    %rsp,%rbp
    97f1:	89 7d fc             	mov    %edi,-0x4(%rbp)
    97f4:	89 75 f8             	mov    %esi,-0x8(%rbp)
    97f7:	83 7d fc 00          	cmpl   $0x0,-0x4(%rbp)
    97fb:	78 14                	js     9811 <safe_rshift_func_int32_t_s_u+0x28>
    97fd:	83 7d f8 1f          	cmpl   $0x1f,-0x8(%rbp)
    9801:	77 0e                	ja     9811 <safe_rshift_func_int32_t_s_u+0x28>
    9803:	8b 45 f8             	mov    -0x8(%rbp),%eax
    9806:	8b 55 fc             	mov    -0x4(%rbp),%edx
    9809:	89 c1                	mov    %eax,%ecx
    980b:	d3 fa                	sar    %cl,%edx
    980d:	89 d0                	mov    %edx,%eax
    980f:	eb 03                	jmp    9814 <safe_rshift_func_int32_t_s_u+0x2b>
    9811:	8b 45 fc             	mov    -0x4(%rbp),%eax
    9814:	5d                   	pop    %rbp
    9815:	c3                   	retq   

0000000000009816 <safe_unary_minus_func_int64_t_s>:
    9816:	f3 0f 1e fa          	endbr64 
    981a:	55                   	push   %rbp
    981b:	48 89 e5             	mov    %rsp,%rbp
    981e:	48 89 7d f8          	mov    %rdi,-0x8(%rbp)
    9822:	48 b8 00 00 00 00 00 	movabs $0x8000000000000000,%rax
    9829:	00 00 80 
    982c:	48 39 45 f8          	cmp    %rax,-0x8(%rbp)
    9830:	74 09                	je     983b <safe_unary_minus_func_int64_t_s+0x25>
    9832:	48 8b 45 f8          	mov    -0x8(%rbp),%rax
    9836:	48 f7 d8             	neg    %rax
    9839:	eb 04                	jmp    983f <safe_unary_minus_func_int64_t_s+0x29>
    983b:	48 8b 45 f8          	mov    -0x8(%rbp),%rax
    983f:	5d                   	pop    %rbp
    9840:	c3                   	retq   

0000000000009841 <safe_add_func_int64_t_s_s>:
    9841:	f3 0f 1e fa          	endbr64 
    9845:	55                   	push   %rbp
    9846:	48 89 e5             	mov    %rsp,%rbp
    9849:	48 89 7d f8          	mov    %rdi,-0x8(%rbp)
    984d:	48 89 75 f0          	mov    %rsi,-0x10(%rbp)
    9851:	48 83 7d f8 00       	cmpq   $0x0,-0x8(%rbp)
    9856:	7e 1b                	jle    9873 <safe_add_func_int64_t_s_s+0x32>
    9858:	48 83 7d f0 00       	cmpq   $0x0,-0x10(%rbp)
    985d:	7e 14                	jle    9873 <safe_add_func_int64_t_s_s+0x32>
    985f:	48 b8 ff ff ff ff ff 	movabs $0x7fffffffffffffff,%rax
    9866:	ff ff 7f 
    9869:	48 2b 45 f0          	sub    -0x10(%rbp),%rax
    986d:	48 39 45 f8          	cmp    %rax,-0x8(%rbp)
    9871:	7f 2f                	jg     98a2 <safe_add_func_int64_t_s_s+0x61>
    9873:	48 83 7d f8 00       	cmpq   $0x0,-0x8(%rbp)
    9878:	79 1b                	jns    9895 <safe_add_func_int64_t_s_s+0x54>
    987a:	48 83 7d f0 00       	cmpq   $0x0,-0x10(%rbp)
    987f:	79 14                	jns    9895 <safe_add_func_int64_t_s_s+0x54>
    9881:	48 b8 00 00 00 00 00 	movabs $0x8000000000000000,%rax
    9888:	00 00 80 
    988b:	48 2b 45 f0          	sub    -0x10(%rbp),%rax
    988f:	48 39 45 f8          	cmp    %rax,-0x8(%rbp)
    9893:	7c 0d                	jl     98a2 <safe_add_func_int64_t_s_s+0x61>
    9895:	48 8b 55 f8          	mov    -0x8(%rbp),%rdx
    9899:	48 8b 45 f0          	mov    -0x10(%rbp),%rax
    989d:	48 01 d0             	add    %rdx,%rax
    98a0:	eb 04                	jmp    98a6 <safe_add_func_int64_t_s_s+0x65>
    98a2:	48 8b 45 f8          	mov    -0x8(%rbp),%rax
    98a6:	5d                   	pop    %rbp
    98a7:	c3                   	retq   

00000000000098a8 <safe_sub_func_int64_t_s_s>:
    98a8:	f3 0f 1e fa          	endbr64 
    98ac:	55                   	push   %rbp
    98ad:	48 89 e5             	mov    %rsp,%rbp
    98b0:	48 89 7d f8          	mov    %rdi,-0x8(%rbp)
    98b4:	48 89 75 f0          	mov    %rsi,-0x10(%rbp)
    98b8:	48 8b 45 f8          	mov    -0x8(%rbp),%rax
    98bc:	48 33 45 f0          	xor    -0x10(%rbp),%rax
    98c0:	48 89 c2             	mov    %rax,%rdx
    98c3:	48 8b 45 f8          	mov    -0x8(%rbp),%rax
    98c7:	48 33 45 f0          	xor    -0x10(%rbp),%rax
    98cb:	48 b9 00 00 00 00 00 	movabs $0x8000000000000000,%rcx
    98d2:	00 00 80 
    98d5:	48 21 c8             	and    %rcx,%rax
    98d8:	48 33 45 f8          	xor    -0x8(%rbp),%rax
    98dc:	48 2b 45 f0          	sub    -0x10(%rbp),%rax
    98e0:	48 33 45 f0          	xor    -0x10(%rbp),%rax
    98e4:	48 21 d0             	and    %rdx,%rax
    98e7:	48 85 c0             	test   %rax,%rax
    98ea:	78 0a                	js     98f6 <safe_sub_func_int64_t_s_s+0x4e>
    98ec:	48 8b 45 f8          	mov    -0x8(%rbp),%rax
    98f0:	48 2b 45 f0          	sub    -0x10(%rbp),%rax
    98f4:	eb 04                	jmp    98fa <safe_sub_func_int64_t_s_s+0x52>
    98f6:	48 8b 45 f8          	mov    -0x8(%rbp),%rax
    98fa:	5d                   	pop    %rbp
    98fb:	c3                   	retq   

00000000000098fc <safe_mul_func_int64_t_s_s>:
    98fc:	f3 0f 1e fa          	endbr64 
    9900:	55                   	push   %rbp
    9901:	48 89 e5             	mov    %rsp,%rbp
    9904:	48 89 7d f8          	mov    %rdi,-0x8(%rbp)
    9908:	48 89 75 f0          	mov    %rsi,-0x10(%rbp)
    990c:	48 83 7d f8 00       	cmpq   $0x0,-0x8(%rbp)
    9911:	7e 1d                	jle    9930 <safe_mul_func_int64_t_s_s+0x34>
    9913:	48 83 7d f0 00       	cmpq   $0x0,-0x10(%rbp)
    9918:	7e 16                	jle    9930 <safe_mul_func_int64_t_s_s+0x34>
    991a:	48 b8 ff ff ff ff ff 	movabs $0x7fffffffffffffff,%rax
    9921:	ff ff 7f 
    9924:	48 99                	cqto   
    9926:	48 f7 7d f0          	idivq  -0x10(%rbp)
    992a:	48 39 45 f8          	cmp    %rax,-0x8(%rbp)
    992e:	7f 7e                	jg     99ae <safe_mul_func_int64_t_s_s+0xb2>
    9930:	48 83 7d f8 00       	cmpq   $0x0,-0x8(%rbp)
    9935:	7e 1d                	jle    9954 <safe_mul_func_int64_t_s_s+0x58>
    9937:	48 83 7d f0 00       	cmpq   $0x0,-0x10(%rbp)
    993c:	7f 16                	jg     9954 <safe_mul_func_int64_t_s_s+0x58>
    993e:	48 b8 00 00 00 00 00 	movabs $0x8000000000000000,%rax
    9945:	00 00 80 
    9948:	48 99                	cqto   
    994a:	48 f7 7d f8          	idivq  -0x8(%rbp)
    994e:	48 39 45 f0          	cmp    %rax,-0x10(%rbp)
    9952:	7c 5a                	jl     99ae <safe_mul_func_int64_t_s_s+0xb2>
    9954:	48 83 7d f8 00       	cmpq   $0x0,-0x8(%rbp)
    9959:	7f 1d                	jg     9978 <safe_mul_func_int64_t_s_s+0x7c>
    995b:	48 83 7d f0 00       	cmpq   $0x0,-0x10(%rbp)
    9960:	7e 16                	jle    9978 <safe_mul_func_int64_t_s_s+0x7c>
    9962:	48 b8 00 00 00 00 00 	movabs $0x8000000000000000,%rax
    9969:	00 00 80 
    996c:	48 99                	cqto   
    996e:	48 f7 7d f0          	idivq  -0x10(%rbp)
    9972:	48 39 45 f8          	cmp    %rax,-0x8(%rbp)
    9976:	7c 36                	jl     99ae <safe_mul_func_int64_t_s_s+0xb2>
    9978:	48 83 7d f8 00       	cmpq   $0x0,-0x8(%rbp)
    997d:	7f 24                	jg     99a3 <safe_mul_func_int64_t_s_s+0xa7>
    997f:	48 83 7d f0 00       	cmpq   $0x0,-0x10(%rbp)
    9984:	7f 1d                	jg     99a3 <safe_mul_func_int64_t_s_s+0xa7>
    9986:	48 83 7d f8 00       	cmpq   $0x0,-0x8(%rbp)
    998b:	74 16                	je     99a3 <safe_mul_func_int64_t_s_s+0xa7>
    998d:	48 b8 ff ff ff ff ff 	movabs $0x7fffffffffffffff,%rax
    9994:	ff ff 7f 
    9997:	48 99                	cqto   
    9999:	48 f7 7d f8          	idivq  -0x8(%rbp)
    999d:	48 39 45 f0          	cmp    %rax,-0x10(%rbp)
    99a1:	7c 0b                	jl     99ae <safe_mul_func_int64_t_s_s+0xb2>
    99a3:	48 8b 45 f8          	mov    -0x8(%rbp),%rax
    99a7:	48 0f af 45 f0       	imul   -0x10(%rbp),%rax
    99ac:	eb 04                	jmp    99b2 <safe_mul_func_int64_t_s_s+0xb6>
    99ae:	48 8b 45 f8          	mov    -0x8(%rbp),%rax
    99b2:	5d                   	pop    %rbp
    99b3:	c3                   	retq   

00000000000099b4 <safe_mod_func_int64_t_s_s>:
    99b4:	f3 0f 1e fa          	endbr64 
    99b8:	55                   	push   %rbp
    99b9:	48 89 e5             	mov    %rsp,%rbp
    99bc:	48 89 7d f8          	mov    %rdi,-0x8(%rbp)
    99c0:	48 89 75 f0          	mov    %rsi,-0x10(%rbp)
    99c4:	48 83 7d f0 00       	cmpq   $0x0,-0x10(%rbp)
    99c9:	74 26                	je     99f1 <safe_mod_func_int64_t_s_s+0x3d>
    99cb:	48 b8 00 00 00 00 00 	movabs $0x8000000000000000,%rax
    99d2:	00 00 80 
    99d5:	48 39 45 f8          	cmp    %rax,-0x8(%rbp)
    99d9:	75 07                	jne    99e2 <safe_mod_func_int64_t_s_s+0x2e>
    99db:	48 83 7d f0 ff       	cmpq   $0xffffffffffffffff,-0x10(%rbp)
    99e0:	74 0f                	je     99f1 <safe_mod_func_int64_t_s_s+0x3d>
    99e2:	48 8b 45 f8          	mov    -0x8(%rbp),%rax
    99e6:	48 99                	cqto   
    99e8:	48 f7 7d f0          	idivq  -0x10(%rbp)
    99ec:	48 89 d0             	mov    %rdx,%rax
    99ef:	eb 04                	jmp    99f5 <safe_mod_func_int64_t_s_s+0x41>
    99f1:	48 8b 45 f8          	mov    -0x8(%rbp),%rax
    99f5:	5d                   	pop    %rbp
    99f6:	c3                   	retq   

00000000000099f7 <safe_div_func_int64_t_s_s>:
    99f7:	f3 0f 1e fa          	endbr64 
    99fb:	55                   	push   %rbp
    99fc:	48 89 e5             	mov    %rsp,%rbp
    99ff:	48 89 7d f8          	mov    %rdi,-0x8(%rbp)
    9a03:	48 89 75 f0          	mov    %rsi,-0x10(%rbp)
    9a07:	48 83 7d f0 00       	cmpq   $0x0,-0x10(%rbp)
    9a0c:	74 23                	je     9a31 <safe_div_func_int64_t_s_s+0x3a>
    9a0e:	48 b8 00 00 00 00 00 	movabs $0x8000000000000000,%rax
    9a15:	00 00 80 
    9a18:	48 39 45 f8          	cmp    %rax,-0x8(%rbp)
    9a1c:	75 07                	jne    9a25 <safe_div_func_int64_t_s_s+0x2e>
    9a1e:	48 83 7d f0 ff       	cmpq   $0xffffffffffffffff,-0x10(%rbp)
    9a23:	74 0c                	je     9a31 <safe_div_func_int64_t_s_s+0x3a>
    9a25:	48 8b 45 f8          	mov    -0x8(%rbp),%rax
    9a29:	48 99                	cqto   
    9a2b:	48 f7 7d f0          	idivq  -0x10(%rbp)
    9a2f:	eb 04                	jmp    9a35 <safe_div_func_int64_t_s_s+0x3e>
    9a31:	48 8b 45 f8          	mov    -0x8(%rbp),%rax
    9a35:	5d                   	pop    %rbp
    9a36:	c3                   	retq   

0000000000009a37 <safe_lshift_func_int64_t_s_s>:
    9a37:	f3 0f 1e fa          	endbr64 
    9a3b:	55                   	push   %rbp
    9a3c:	48 89 e5             	mov    %rsp,%rbp
    9a3f:	48 89 7d f8          	mov    %rdi,-0x8(%rbp)
    9a43:	89 75 f4             	mov    %esi,-0xc(%rbp)
    9a46:	48 83 7d f8 00       	cmpq   $0x0,-0x8(%rbp)
    9a4b:	78 38                	js     9a85 <safe_lshift_func_int64_t_s_s+0x4e>
    9a4d:	83 7d f4 00          	cmpl   $0x0,-0xc(%rbp)
    9a51:	78 32                	js     9a85 <safe_lshift_func_int64_t_s_s+0x4e>
    9a53:	83 7d f4 1f          	cmpl   $0x1f,-0xc(%rbp)
    9a57:	7f 2c                	jg     9a85 <safe_lshift_func_int64_t_s_s+0x4e>
    9a59:	8b 45 f4             	mov    -0xc(%rbp),%eax
    9a5c:	48 ba ff ff ff ff ff 	movabs $0x7fffffffffffffff,%rdx
    9a63:	ff ff 7f 
    9a66:	89 c1                	mov    %eax,%ecx
    9a68:	48 d3 fa             	sar    %cl,%rdx
    9a6b:	48 89 d0             	mov    %rdx,%rax
    9a6e:	48 39 45 f8          	cmp    %rax,-0x8(%rbp)
    9a72:	7f 11                	jg     9a85 <safe_lshift_func_int64_t_s_s+0x4e>
    9a74:	8b 45 f4             	mov    -0xc(%rbp),%eax
    9a77:	48 8b 55 f8          	mov    -0x8(%rbp),%rdx
    9a7b:	89 c1                	mov    %eax,%ecx
    9a7d:	48 d3 e2             	shl    %cl,%rdx
    9a80:	48 89 d0             	mov    %rdx,%rax
    9a83:	eb 04                	jmp    9a89 <safe_lshift_func_int64_t_s_s+0x52>
    9a85:	48 8b 45 f8          	mov    -0x8(%rbp),%rax
    9a89:	5d                   	pop    %rbp
    9a8a:	c3                   	retq   

0000000000009a8b <safe_lshift_func_int64_t_s_u>:
    9a8b:	f3 0f 1e fa          	endbr64 
    9a8f:	55                   	push   %rbp
    9a90:	48 89 e5             	mov    %rsp,%rbp
    9a93:	48 89 7d f8          	mov    %rdi,-0x8(%rbp)
    9a97:	89 75 f4             	mov    %esi,-0xc(%rbp)
    9a9a:	48 83 7d f8 00       	cmpq   $0x0,-0x8(%rbp)
    9a9f:	78 32                	js     9ad3 <safe_lshift_func_int64_t_s_u+0x48>
    9aa1:	83 7d f4 1f          	cmpl   $0x1f,-0xc(%rbp)
    9aa5:	77 2c                	ja     9ad3 <safe_lshift_func_int64_t_s_u+0x48>
    9aa7:	8b 45 f4             	mov    -0xc(%rbp),%eax
    9aaa:	48 ba ff ff ff ff ff 	movabs $0x7fffffffffffffff,%rdx
    9ab1:	ff ff 7f 
    9ab4:	89 c1                	mov    %eax,%ecx
    9ab6:	48 d3 fa             	sar    %cl,%rdx
    9ab9:	48 89 d0             	mov    %rdx,%rax
    9abc:	48 39 45 f8          	cmp    %rax,-0x8(%rbp)
    9ac0:	7f 11                	jg     9ad3 <safe_lshift_func_int64_t_s_u+0x48>
    9ac2:	8b 45 f4             	mov    -0xc(%rbp),%eax
    9ac5:	48 8b 55 f8          	mov    -0x8(%rbp),%rdx
    9ac9:	89 c1                	mov    %eax,%ecx
    9acb:	48 d3 e2             	shl    %cl,%rdx
    9ace:	48 89 d0             	mov    %rdx,%rax
    9ad1:	eb 04                	jmp    9ad7 <safe_lshift_func_int64_t_s_u+0x4c>
    9ad3:	48 8b 45 f8          	mov    -0x8(%rbp),%rax
    9ad7:	5d                   	pop    %rbp
    9ad8:	c3                   	retq   

0000000000009ad9 <safe_rshift_func_int64_t_s_s>:
    9ad9:	f3 0f 1e fa          	endbr64 
    9add:	55                   	push   %rbp
    9ade:	48 89 e5             	mov    %rsp,%rbp
    9ae1:	48 89 7d f8          	mov    %rdi,-0x8(%rbp)
    9ae5:	89 75 f4             	mov    %esi,-0xc(%rbp)
    9ae8:	48 83 7d f8 00       	cmpq   $0x0,-0x8(%rbp)
    9aed:	78 1d                	js     9b0c <safe_rshift_func_int64_t_s_s+0x33>
    9aef:	83 7d f4 00          	cmpl   $0x0,-0xc(%rbp)
    9af3:	78 17                	js     9b0c <safe_rshift_func_int64_t_s_s+0x33>
    9af5:	83 7d f4 1f          	cmpl   $0x1f,-0xc(%rbp)
    9af9:	7f 11                	jg     9b0c <safe_rshift_func_int64_t_s_s+0x33>
    9afb:	8b 45 f4             	mov    -0xc(%rbp),%eax
    9afe:	48 8b 55 f8          	mov    -0x8(%rbp),%rdx
    9b02:	89 c1                	mov    %eax,%ecx
    9b04:	48 d3 fa             	sar    %cl,%rdx
    9b07:	48 89 d0             	mov    %rdx,%rax
    9b0a:	eb 04                	jmp    9b10 <safe_rshift_func_int64_t_s_s+0x37>
    9b0c:	48 8b 45 f8          	mov    -0x8(%rbp),%rax
    9b10:	5d                   	pop    %rbp
    9b11:	c3                   	retq   

0000000000009b12 <safe_rshift_func_int64_t_s_u>:
    9b12:	f3 0f 1e fa          	endbr64 
    9b16:	55                   	push   %rbp
    9b17:	48 89 e5             	mov    %rsp,%rbp
    9b1a:	48 89 7d f8          	mov    %rdi,-0x8(%rbp)
    9b1e:	89 75 f4             	mov    %esi,-0xc(%rbp)
    9b21:	48 83 7d f8 00       	cmpq   $0x0,-0x8(%rbp)
    9b26:	78 17                	js     9b3f <safe_rshift_func_int64_t_s_u+0x2d>
    9b28:	83 7d f4 1f          	cmpl   $0x1f,-0xc(%rbp)
    9b2c:	77 11                	ja     9b3f <safe_rshift_func_int64_t_s_u+0x2d>
    9b2e:	8b 45 f4             	mov    -0xc(%rbp),%eax
    9b31:	48 8b 55 f8          	mov    -0x8(%rbp),%rdx
    9b35:	89 c1                	mov    %eax,%ecx
    9b37:	48 d3 fa             	sar    %cl,%rdx
    9b3a:	48 89 d0             	mov    %rdx,%rax
    9b3d:	eb 04                	jmp    9b43 <safe_rshift_func_int64_t_s_u+0x31>
    9b3f:	48 8b 45 f8          	mov    -0x8(%rbp),%rax
    9b43:	5d                   	pop    %rbp
    9b44:	c3                   	retq   

0000000000009b45 <safe_unary_minus_func_uint8_t_u>:
    9b45:	f3 0f 1e fa          	endbr64 
    9b49:	55                   	push   %rbp
    9b4a:	48 89 e5             	mov    %rsp,%rbp
    9b4d:	89 f8                	mov    %edi,%eax
    9b4f:	88 45 fc             	mov    %al,-0x4(%rbp)
    9b52:	0f b6 45 fc          	movzbl -0x4(%rbp),%eax
    9b56:	f7 d8                	neg    %eax
    9b58:	5d                   	pop    %rbp
    9b59:	c3                   	retq   

0000000000009b5a <safe_add_func_uint8_t_u_u>:
    9b5a:	f3 0f 1e fa          	endbr64 
    9b5e:	55                   	push   %rbp
    9b5f:	48 89 e5             	mov    %rsp,%rbp
    9b62:	89 fa                	mov    %edi,%edx
    9b64:	89 f0                	mov    %esi,%eax
    9b66:	88 55 fc             	mov    %dl,-0x4(%rbp)
    9b69:	88 45 f8             	mov    %al,-0x8(%rbp)
    9b6c:	0f b6 55 fc          	movzbl -0x4(%rbp),%edx
    9b70:	0f b6 45 f8          	movzbl -0x8(%rbp),%eax
    9b74:	01 d0                	add    %edx,%eax
    9b76:	5d                   	pop    %rbp
    9b77:	c3                   	retq   

0000000000009b78 <safe_sub_func_uint8_t_u_u>:
    9b78:	f3 0f 1e fa          	endbr64 
    9b7c:	55                   	push   %rbp
    9b7d:	48 89 e5             	mov    %rsp,%rbp
    9b80:	89 fa                	mov    %edi,%edx
    9b82:	89 f0                	mov    %esi,%eax
    9b84:	88 55 fc             	mov    %dl,-0x4(%rbp)
    9b87:	88 45 f8             	mov    %al,-0x8(%rbp)
    9b8a:	0f b6 45 fc          	movzbl -0x4(%rbp),%eax
    9b8e:	2a 45 f8             	sub    -0x8(%rbp),%al
    9b91:	5d                   	pop    %rbp
    9b92:	c3                   	retq   

0000000000009b93 <safe_mul_func_uint8_t_u_u>:
    9b93:	f3 0f 1e fa          	endbr64 
    9b97:	55                   	push   %rbp
    9b98:	48 89 e5             	mov    %rsp,%rbp
    9b9b:	89 fa                	mov    %edi,%edx
    9b9d:	89 f0                	mov    %esi,%eax
    9b9f:	88 55 fc             	mov    %dl,-0x4(%rbp)
    9ba2:	88 45 f8             	mov    %al,-0x8(%rbp)
    9ba5:	0f b6 45 fc          	movzbl -0x4(%rbp),%eax
    9ba9:	f6 65 f8             	mulb   -0x8(%rbp)
    9bac:	5d                   	pop    %rbp
    9bad:	c3                   	retq   

0000000000009bae <safe_mod_func_uint8_t_u_u>:
    9bae:	f3 0f 1e fa          	endbr64 
    9bb2:	55                   	push   %rbp
    9bb3:	48 89 e5             	mov    %rsp,%rbp
    9bb6:	89 fa                	mov    %edi,%edx
    9bb8:	89 f0                	mov    %esi,%eax
    9bba:	88 55 fc             	mov    %dl,-0x4(%rbp)
    9bbd:	88 45 f8             	mov    %al,-0x8(%rbp)
    9bc0:	80 7d f8 00          	cmpb   $0x0,-0x8(%rbp)
    9bc4:	74 0f                	je     9bd5 <safe_mod_func_uint8_t_u_u+0x27>
    9bc6:	0f b6 45 fc          	movzbl -0x4(%rbp),%eax
    9bca:	0f b6 c0             	movzbl %al,%eax
    9bcd:	f6 75 f8             	divb   -0x8(%rbp)
    9bd0:	0f b6 c4             	movzbl %ah,%eax
    9bd3:	eb 04                	jmp    9bd9 <safe_mod_func_uint8_t_u_u+0x2b>
    9bd5:	0f b6 45 fc          	movzbl -0x4(%rbp),%eax
    9bd9:	5d                   	pop    %rbp
    9bda:	c3                   	retq   

0000000000009bdb <safe_div_func_uint8_t_u_u>:
    9bdb:	f3 0f 1e fa          	endbr64 
    9bdf:	55                   	push   %rbp
    9be0:	48 89 e5             	mov    %rsp,%rbp
    9be3:	89 fa                	mov    %edi,%edx
    9be5:	89 f0                	mov    %esi,%eax
    9be7:	88 55 fc             	mov    %dl,-0x4(%rbp)
    9bea:	88 45 f8             	mov    %al,-0x8(%rbp)
    9bed:	80 7d f8 00          	cmpb   $0x0,-0x8(%rbp)
    9bf1:	74 0c                	je     9bff <safe_div_func_uint8_t_u_u+0x24>
    9bf3:	0f b6 45 fc          	movzbl -0x4(%rbp),%eax
    9bf7:	0f b6 c0             	movzbl %al,%eax
    9bfa:	f6 75 f8             	divb   -0x8(%rbp)
    9bfd:	eb 04                	jmp    9c03 <safe_div_func_uint8_t_u_u+0x28>
    9bff:	0f b6 45 fc          	movzbl -0x4(%rbp),%eax
    9c03:	5d                   	pop    %rbp
    9c04:	c3                   	retq   

0000000000009c05 <safe_lshift_func_uint8_t_u_s>:
    9c05:	f3 0f 1e fa          	endbr64 
    9c09:	55                   	push   %rbp
    9c0a:	48 89 e5             	mov    %rsp,%rbp
    9c0d:	89 f8                	mov    %edi,%eax
    9c0f:	89 75 f8             	mov    %esi,-0x8(%rbp)
    9c12:	88 45 fc             	mov    %al,-0x4(%rbp)
    9c15:	83 7d f8 00          	cmpl   $0x0,-0x8(%rbp)
    9c19:	78 2b                	js     9c46 <safe_lshift_func_uint8_t_u_s+0x41>
    9c1b:	83 7d f8 1f          	cmpl   $0x1f,-0x8(%rbp)
    9c1f:	7f 25                	jg     9c46 <safe_lshift_func_uint8_t_u_s+0x41>
    9c21:	0f b6 55 fc          	movzbl -0x4(%rbp),%edx
    9c25:	8b 45 f8             	mov    -0x8(%rbp),%eax
    9c28:	be ff 00 00 00       	mov    $0xff,%esi
    9c2d:	89 c1                	mov    %eax,%ecx
    9c2f:	d3 fe                	sar    %cl,%esi
    9c31:	89 f0                	mov    %esi,%eax
    9c33:	39 c2                	cmp    %eax,%edx
    9c35:	7f 0f                	jg     9c46 <safe_lshift_func_uint8_t_u_s+0x41>
    9c37:	0f b6 55 fc          	movzbl -0x4(%rbp),%edx
    9c3b:	8b 45 f8             	mov    -0x8(%rbp),%eax
    9c3e:	89 c1                	mov    %eax,%ecx
    9c40:	d3 e2                	shl    %cl,%edx
    9c42:	89 d0                	mov    %edx,%eax
    9c44:	eb 04                	jmp    9c4a <safe_lshift_func_uint8_t_u_s+0x45>
    9c46:	0f b6 45 fc          	movzbl -0x4(%rbp),%eax
    9c4a:	5d                   	pop    %rbp
    9c4b:	c3                   	retq   

0000000000009c4c <safe_lshift_func_uint8_t_u_u>:
    9c4c:	f3 0f 1e fa          	endbr64 
    9c50:	55                   	push   %rbp
    9c51:	48 89 e5             	mov    %rsp,%rbp
    9c54:	89 f8                	mov    %edi,%eax
    9c56:	89 75 f8             	mov    %esi,-0x8(%rbp)
    9c59:	88 45 fc             	mov    %al,-0x4(%rbp)
    9c5c:	83 7d f8 1f          	cmpl   $0x1f,-0x8(%rbp)
    9c60:	77 25                	ja     9c87 <safe_lshift_func_uint8_t_u_u+0x3b>
    9c62:	0f b6 55 fc          	movzbl -0x4(%rbp),%edx
    9c66:	8b 45 f8             	mov    -0x8(%rbp),%eax
    9c69:	be ff 00 00 00       	mov    $0xff,%esi
    9c6e:	89 c1                	mov    %eax,%ecx
    9c70:	d3 fe                	sar    %cl,%esi
    9c72:	89 f0                	mov    %esi,%eax
    9c74:	39 c2                	cmp    %eax,%edx
    9c76:	7f 0f                	jg     9c87 <safe_lshift_func_uint8_t_u_u+0x3b>
    9c78:	0f b6 55 fc          	movzbl -0x4(%rbp),%edx
    9c7c:	8b 45 f8             	mov    -0x8(%rbp),%eax
    9c7f:	89 c1                	mov    %eax,%ecx
    9c81:	d3 e2                	shl    %cl,%edx
    9c83:	89 d0                	mov    %edx,%eax
    9c85:	eb 04                	jmp    9c8b <safe_lshift_func_uint8_t_u_u+0x3f>
    9c87:	0f b6 45 fc          	movzbl -0x4(%rbp),%eax
    9c8b:	5d                   	pop    %rbp
    9c8c:	c3                   	retq   

0000000000009c8d <safe_rshift_func_uint8_t_u_s>:
    9c8d:	f3 0f 1e fa          	endbr64 
    9c91:	55                   	push   %rbp
    9c92:	48 89 e5             	mov    %rsp,%rbp
    9c95:	89 f8                	mov    %edi,%eax
    9c97:	89 75 f8             	mov    %esi,-0x8(%rbp)
    9c9a:	88 45 fc             	mov    %al,-0x4(%rbp)
    9c9d:	83 7d f8 00          	cmpl   $0x0,-0x8(%rbp)
    9ca1:	78 15                	js     9cb8 <safe_rshift_func_uint8_t_u_s+0x2b>
    9ca3:	83 7d f8 1f          	cmpl   $0x1f,-0x8(%rbp)
    9ca7:	7f 0f                	jg     9cb8 <safe_rshift_func_uint8_t_u_s+0x2b>
    9ca9:	0f b6 55 fc          	movzbl -0x4(%rbp),%edx
    9cad:	8b 45 f8             	mov    -0x8(%rbp),%eax
    9cb0:	89 c1                	mov    %eax,%ecx
    9cb2:	d3 fa                	sar    %cl,%edx
    9cb4:	89 d0                	mov    %edx,%eax
    9cb6:	eb 04                	jmp    9cbc <safe_rshift_func_uint8_t_u_s+0x2f>
    9cb8:	0f b6 45 fc          	movzbl -0x4(%rbp),%eax
    9cbc:	5d                   	pop    %rbp
    9cbd:	c3                   	retq   

0000000000009cbe <safe_rshift_func_uint8_t_u_u>:
    9cbe:	f3 0f 1e fa          	endbr64 
    9cc2:	55                   	push   %rbp
    9cc3:	48 89 e5             	mov    %rsp,%rbp
    9cc6:	89 f8                	mov    %edi,%eax
    9cc8:	89 75 f8             	mov    %esi,-0x8(%rbp)
    9ccb:	88 45 fc             	mov    %al,-0x4(%rbp)
    9cce:	83 7d f8 1f          	cmpl   $0x1f,-0x8(%rbp)
    9cd2:	77 0f                	ja     9ce3 <safe_rshift_func_uint8_t_u_u+0x25>
    9cd4:	0f b6 55 fc          	movzbl -0x4(%rbp),%edx
    9cd8:	8b 45 f8             	mov    -0x8(%rbp),%eax
    9cdb:	89 c1                	mov    %eax,%ecx
    9cdd:	d3 fa                	sar    %cl,%edx
    9cdf:	89 d0                	mov    %edx,%eax
    9ce1:	eb 04                	jmp    9ce7 <safe_rshift_func_uint8_t_u_u+0x29>
    9ce3:	0f b6 45 fc          	movzbl -0x4(%rbp),%eax
    9ce7:	5d                   	pop    %rbp
    9ce8:	c3                   	retq   

0000000000009ce9 <safe_unary_minus_func_uint16_t_u>:
    9ce9:	f3 0f 1e fa          	endbr64 
    9ced:	55                   	push   %rbp
    9cee:	48 89 e5             	mov    %rsp,%rbp
    9cf1:	89 f8                	mov    %edi,%eax
    9cf3:	66 89 45 fc          	mov    %ax,-0x4(%rbp)
    9cf7:	0f b7 45 fc          	movzwl -0x4(%rbp),%eax
    9cfb:	f7 d8                	neg    %eax
    9cfd:	5d                   	pop    %rbp
    9cfe:	c3                   	retq   

0000000000009cff <safe_add_func_uint16_t_u_u>:
    9cff:	f3 0f 1e fa          	endbr64 
    9d03:	55                   	push   %rbp
    9d04:	48 89 e5             	mov    %rsp,%rbp
    9d07:	89 fa                	mov    %edi,%edx
    9d09:	89 f0                	mov    %esi,%eax
    9d0b:	66 89 55 fc          	mov    %dx,-0x4(%rbp)
    9d0f:	66 89 45 f8          	mov    %ax,-0x8(%rbp)
    9d13:	0f b7 55 fc          	movzwl -0x4(%rbp),%edx
    9d17:	0f b7 45 f8          	movzwl -0x8(%rbp),%eax
    9d1b:	01 d0                	add    %edx,%eax
    9d1d:	5d                   	pop    %rbp
    9d1e:	c3                   	retq   

0000000000009d1f <safe_sub_func_uint16_t_u_u>:
    9d1f:	f3 0f 1e fa          	endbr64 
    9d23:	55                   	push   %rbp
    9d24:	48 89 e5             	mov    %rsp,%rbp
    9d27:	89 fa                	mov    %edi,%edx
    9d29:	89 f0                	mov    %esi,%eax
    9d2b:	66 89 55 fc          	mov    %dx,-0x4(%rbp)
    9d2f:	66 89 45 f8          	mov    %ax,-0x8(%rbp)
    9d33:	0f b7 45 fc          	movzwl -0x4(%rbp),%eax
    9d37:	66 2b 45 f8          	sub    -0x8(%rbp),%ax
    9d3b:	5d                   	pop    %rbp
    9d3c:	c3                   	retq   

0000000000009d3d <safe_mul_func_uint16_t_u_u>:
    9d3d:	f3 0f 1e fa          	endbr64 
    9d41:	55                   	push   %rbp
    9d42:	48 89 e5             	mov    %rsp,%rbp
    9d45:	89 fa                	mov    %edi,%edx
    9d47:	89 f0                	mov    %esi,%eax
    9d49:	66 89 55 fc          	mov    %dx,-0x4(%rbp)
    9d4d:	66 89 45 f8          	mov    %ax,-0x8(%rbp)
    9d51:	0f b7 45 fc          	movzwl -0x4(%rbp),%eax
    9d55:	66 0f af 45 f8       	imul   -0x8(%rbp),%ax
    9d5a:	5d                   	pop    %rbp
    9d5b:	c3                   	retq   

0000000000009d5c <safe_mod_func_uint16_t_u_u>:
    9d5c:	f3 0f 1e fa          	endbr64 
    9d60:	55                   	push   %rbp
    9d61:	48 89 e5             	mov    %rsp,%rbp
    9d64:	89 fa                	mov    %edi,%edx
    9d66:	89 f0                	mov    %esi,%eax
    9d68:	66 89 55 fc          	mov    %dx,-0x4(%rbp)
    9d6c:	66 89 45 f8          	mov    %ax,-0x8(%rbp)
    9d70:	66 83 7d f8 00       	cmpw   $0x0,-0x8(%rbp)
    9d75:	74 11                	je     9d88 <safe_mod_func_uint16_t_u_u+0x2c>
    9d77:	0f b7 45 fc          	movzwl -0x4(%rbp),%eax
    9d7b:	ba 00 00 00 00       	mov    $0x0,%edx
    9d80:	66 f7 75 f8          	divw   -0x8(%rbp)
    9d84:	89 d0                	mov    %edx,%eax
    9d86:	eb 04                	jmp    9d8c <safe_mod_func_uint16_t_u_u+0x30>
    9d88:	0f b7 45 fc          	movzwl -0x4(%rbp),%eax
    9d8c:	5d                   	pop    %rbp
    9d8d:	c3                   	retq   

0000000000009d8e <safe_div_func_uint16_t_u_u>:
    9d8e:	f3 0f 1e fa          	endbr64 
    9d92:	55                   	push   %rbp
    9d93:	48 89 e5             	mov    %rsp,%rbp
    9d96:	89 fa                	mov    %edi,%edx
    9d98:	89 f0                	mov    %esi,%eax
    9d9a:	66 89 55 fc          	mov    %dx,-0x4(%rbp)
    9d9e:	66 89 45 f8          	mov    %ax,-0x8(%rbp)
    9da2:	66 83 7d f8 00       	cmpw   $0x0,-0x8(%rbp)
    9da7:	74 0f                	je     9db8 <safe_div_func_uint16_t_u_u+0x2a>
    9da9:	0f b7 45 fc          	movzwl -0x4(%rbp),%eax
    9dad:	ba 00 00 00 00       	mov    $0x0,%edx
    9db2:	66 f7 75 f8          	divw   -0x8(%rbp)
    9db6:	eb 04                	jmp    9dbc <safe_div_func_uint16_t_u_u+0x2e>
    9db8:	0f b7 45 fc          	movzwl -0x4(%rbp),%eax
    9dbc:	5d                   	pop    %rbp
    9dbd:	c3                   	retq   

0000000000009dbe <safe_lshift_func_uint16_t_u_s>:
    9dbe:	f3 0f 1e fa          	endbr64 
    9dc2:	55                   	push   %rbp
    9dc3:	48 89 e5             	mov    %rsp,%rbp
    9dc6:	89 f8                	mov    %edi,%eax
    9dc8:	89 75 f8             	mov    %esi,-0x8(%rbp)
    9dcb:	66 89 45 fc          	mov    %ax,-0x4(%rbp)
    9dcf:	83 7d f8 00          	cmpl   $0x0,-0x8(%rbp)
    9dd3:	78 2b                	js     9e00 <safe_lshift_func_uint16_t_u_s+0x42>
    9dd5:	83 7d f8 1f          	cmpl   $0x1f,-0x8(%rbp)
    9dd9:	7f 25                	jg     9e00 <safe_lshift_func_uint16_t_u_s+0x42>
    9ddb:	0f b7 55 fc          	movzwl -0x4(%rbp),%edx
    9ddf:	8b 45 f8             	mov    -0x8(%rbp),%eax
    9de2:	be ff ff 00 00       	mov    $0xffff,%esi
    9de7:	89 c1                	mov    %eax,%ecx
    9de9:	d3 fe                	sar    %cl,%esi
    9deb:	89 f0                	mov    %esi,%eax
    9ded:	39 c2                	cmp    %eax,%edx
    9def:	7f 0f                	jg     9e00 <safe_lshift_func_uint16_t_u_s+0x42>
    9df1:	0f b7 55 fc          	movzwl -0x4(%rbp),%edx
    9df5:	8b 45 f8             	mov    -0x8(%rbp),%eax
    9df8:	89 c1                	mov    %eax,%ecx
    9dfa:	d3 e2                	shl    %cl,%edx
    9dfc:	89 d0                	mov    %edx,%eax
    9dfe:	eb 04                	jmp    9e04 <safe_lshift_func_uint16_t_u_s+0x46>
    9e00:	0f b7 45 fc          	movzwl -0x4(%rbp),%eax
    9e04:	5d                   	pop    %rbp
    9e05:	c3                   	retq   

0000000000009e06 <safe_lshift_func_uint16_t_u_u>:
    9e06:	f3 0f 1e fa          	endbr64 
    9e0a:	55                   	push   %rbp
    9e0b:	48 89 e5             	mov    %rsp,%rbp
    9e0e:	89 f8                	mov    %edi,%eax
    9e10:	89 75 f8             	mov    %esi,-0x8(%rbp)
    9e13:	66 89 45 fc          	mov    %ax,-0x4(%rbp)
    9e17:	83 7d f8 1f          	cmpl   $0x1f,-0x8(%rbp)
    9e1b:	77 25                	ja     9e42 <safe_lshift_func_uint16_t_u_u+0x3c>
    9e1d:	0f b7 55 fc          	movzwl -0x4(%rbp),%edx
    9e21:	8b 45 f8             	mov    -0x8(%rbp),%eax
    9e24:	be ff ff 00 00       	mov    $0xffff,%esi
    9e29:	89 c1                	mov    %eax,%ecx
    9e2b:	d3 fe                	sar    %cl,%esi
    9e2d:	89 f0                	mov    %esi,%eax
    9e2f:	39 c2                	cmp    %eax,%edx
    9e31:	7f 0f                	jg     9e42 <safe_lshift_func_uint16_t_u_u+0x3c>
    9e33:	0f b7 55 fc          	movzwl -0x4(%rbp),%edx
    9e37:	8b 45 f8             	mov    -0x8(%rbp),%eax
    9e3a:	89 c1                	mov    %eax,%ecx
    9e3c:	d3 e2                	shl    %cl,%edx
    9e3e:	89 d0                	mov    %edx,%eax
    9e40:	eb 04                	jmp    9e46 <safe_lshift_func_uint16_t_u_u+0x40>
    9e42:	0f b7 45 fc          	movzwl -0x4(%rbp),%eax
    9e46:	5d                   	pop    %rbp
    9e47:	c3                   	retq   

0000000000009e48 <safe_rshift_func_uint16_t_u_s>:
    9e48:	f3 0f 1e fa          	endbr64 
    9e4c:	55                   	push   %rbp
    9e4d:	48 89 e5             	mov    %rsp,%rbp
    9e50:	89 f8                	mov    %edi,%eax
    9e52:	89 75 f8             	mov    %esi,-0x8(%rbp)
    9e55:	66 89 45 fc          	mov    %ax,-0x4(%rbp)
    9e59:	83 7d f8 00          	cmpl   $0x0,-0x8(%rbp)
    9e5d:	78 15                	js     9e74 <safe_rshift_func_uint16_t_u_s+0x2c>
    9e5f:	83 7d f8 1f          	cmpl   $0x1f,-0x8(%rbp)
    9e63:	7f 0f                	jg     9e74 <safe_rshift_func_uint16_t_u_s+0x2c>
    9e65:	0f b7 55 fc          	movzwl -0x4(%rbp),%edx
    9e69:	8b 45 f8             	mov    -0x8(%rbp),%eax
    9e6c:	89 c1                	mov    %eax,%ecx
    9e6e:	d3 fa                	sar    %cl,%edx
    9e70:	89 d0                	mov    %edx,%eax
    9e72:	eb 04                	jmp    9e78 <safe_rshift_func_uint16_t_u_s+0x30>
    9e74:	0f b7 45 fc          	movzwl -0x4(%rbp),%eax
    9e78:	5d                   	pop    %rbp
    9e79:	c3                   	retq   

0000000000009e7a <safe_rshift_func_uint16_t_u_u>:
    9e7a:	f3 0f 1e fa          	endbr64 
    9e7e:	55                   	push   %rbp
    9e7f:	48 89 e5             	mov    %rsp,%rbp
    9e82:	89 f8                	mov    %edi,%eax
    9e84:	89 75 f8             	mov    %esi,-0x8(%rbp)
    9e87:	66 89 45 fc          	mov    %ax,-0x4(%rbp)
    9e8b:	83 7d f8 1f          	cmpl   $0x1f,-0x8(%rbp)
    9e8f:	77 0f                	ja     9ea0 <safe_rshift_func_uint16_t_u_u+0x26>
    9e91:	0f b7 55 fc          	movzwl -0x4(%rbp),%edx
    9e95:	8b 45 f8             	mov    -0x8(%rbp),%eax
    9e98:	89 c1                	mov    %eax,%ecx
    9e9a:	d3 fa                	sar    %cl,%edx
    9e9c:	89 d0                	mov    %edx,%eax
    9e9e:	eb 04                	jmp    9ea4 <safe_rshift_func_uint16_t_u_u+0x2a>
    9ea0:	0f b7 45 fc          	movzwl -0x4(%rbp),%eax
    9ea4:	5d                   	pop    %rbp
    9ea5:	c3                   	retq   

0000000000009ea6 <safe_unary_minus_func_uint32_t_u>:
    9ea6:	f3 0f 1e fa          	endbr64 
    9eaa:	55                   	push   %rbp
    9eab:	48 89 e5             	mov    %rsp,%rbp
    9eae:	89 7d fc             	mov    %edi,-0x4(%rbp)
    9eb1:	8b 45 fc             	mov    -0x4(%rbp),%eax
    9eb4:	f7 d8                	neg    %eax
    9eb6:	5d                   	pop    %rbp
    9eb7:	c3                   	retq   

0000000000009eb8 <safe_add_func_uint32_t_u_u>:
    9eb8:	f3 0f 1e fa          	endbr64 
    9ebc:	55                   	push   %rbp
    9ebd:	48 89 e5             	mov    %rsp,%rbp
    9ec0:	89 7d fc             	mov    %edi,-0x4(%rbp)
    9ec3:	89 75 f8             	mov    %esi,-0x8(%rbp)
    9ec6:	8b 55 fc             	mov    -0x4(%rbp),%edx
    9ec9:	8b 45 f8             	mov    -0x8(%rbp),%eax
    9ecc:	01 d0                	add    %edx,%eax
    9ece:	5d                   	pop    %rbp
    9ecf:	c3                   	retq   

0000000000009ed0 <safe_sub_func_uint32_t_u_u>:
    9ed0:	f3 0f 1e fa          	endbr64 
    9ed4:	55                   	push   %rbp
    9ed5:	48 89 e5             	mov    %rsp,%rbp
    9ed8:	89 7d fc             	mov    %edi,-0x4(%rbp)
    9edb:	89 75 f8             	mov    %esi,-0x8(%rbp)
    9ede:	8b 45 fc             	mov    -0x4(%rbp),%eax
    9ee1:	2b 45 f8             	sub    -0x8(%rbp),%eax
    9ee4:	5d                   	pop    %rbp
    9ee5:	c3                   	retq   

0000000000009ee6 <safe_mul_func_uint32_t_u_u>:
    9ee6:	f3 0f 1e fa          	endbr64 
    9eea:	55                   	push   %rbp
    9eeb:	48 89 e5             	mov    %rsp,%rbp
    9eee:	89 7d fc             	mov    %edi,-0x4(%rbp)
    9ef1:	89 75 f8             	mov    %esi,-0x8(%rbp)
    9ef4:	8b 45 fc             	mov    -0x4(%rbp),%eax
    9ef7:	0f af 45 f8          	imul   -0x8(%rbp),%eax
    9efb:	5d                   	pop    %rbp
    9efc:	c3                   	retq   

0000000000009efd <safe_mod_func_uint32_t_u_u>:
    9efd:	f3 0f 1e fa          	endbr64 
    9f01:	55                   	push   %rbp
    9f02:	48 89 e5             	mov    %rsp,%rbp
    9f05:	89 7d fc             	mov    %edi,-0x4(%rbp)
    9f08:	89 75 f8             	mov    %esi,-0x8(%rbp)
    9f0b:	83 7d f8 00          	cmpl   $0x0,-0x8(%rbp)
    9f0f:	74 0f                	je     9f20 <safe_mod_func_uint32_t_u_u+0x23>
    9f11:	8b 45 fc             	mov    -0x4(%rbp),%eax
    9f14:	ba 00 00 00 00       	mov    $0x0,%edx
    9f19:	f7 75 f8             	divl   -0x8(%rbp)
    9f1c:	89 d0                	mov    %edx,%eax
    9f1e:	eb 03                	jmp    9f23 <safe_mod_func_uint32_t_u_u+0x26>
    9f20:	8b 45 fc             	mov    -0x4(%rbp),%eax
    9f23:	5d                   	pop    %rbp
    9f24:	c3                   	retq   

0000000000009f25 <safe_div_func_uint32_t_u_u>:
    9f25:	f3 0f 1e fa          	endbr64 
    9f29:	55                   	push   %rbp
    9f2a:	48 89 e5             	mov    %rsp,%rbp
    9f2d:	89 7d fc             	mov    %edi,-0x4(%rbp)
    9f30:	89 75 f8             	mov    %esi,-0x8(%rbp)
    9f33:	83 7d f8 00          	cmpl   $0x0,-0x8(%rbp)
    9f37:	74 0d                	je     9f46 <safe_div_func_uint32_t_u_u+0x21>
    9f39:	8b 45 fc             	mov    -0x4(%rbp),%eax
    9f3c:	ba 00 00 00 00       	mov    $0x0,%edx
    9f41:	f7 75 f8             	divl   -0x8(%rbp)
    9f44:	eb 03                	jmp    9f49 <safe_div_func_uint32_t_u_u+0x24>
    9f46:	8b 45 fc             	mov    -0x4(%rbp),%eax
    9f49:	5d                   	pop    %rbp
    9f4a:	c3                   	retq   

0000000000009f4b <safe_lshift_func_uint32_t_u_s>:
    9f4b:	f3 0f 1e fa          	endbr64 
    9f4f:	55                   	push   %rbp
    9f50:	48 89 e5             	mov    %rsp,%rbp
    9f53:	89 7d fc             	mov    %edi,-0x4(%rbp)
    9f56:	89 75 f8             	mov    %esi,-0x8(%rbp)
    9f59:	83 7d f8 00          	cmpl   $0x0,-0x8(%rbp)
    9f5d:	78 27                	js     9f86 <safe_lshift_func_uint32_t_u_s+0x3b>
    9f5f:	83 7d f8 1f          	cmpl   $0x1f,-0x8(%rbp)
    9f63:	7f 21                	jg     9f86 <safe_lshift_func_uint32_t_u_s+0x3b>
    9f65:	8b 45 f8             	mov    -0x8(%rbp),%eax
    9f68:	ba ff ff ff ff       	mov    $0xffffffff,%edx
    9f6d:	89 c1                	mov    %eax,%ecx
    9f6f:	d3 ea                	shr    %cl,%edx
    9f71:	89 d0                	mov    %edx,%eax
    9f73:	39 45 fc             	cmp    %eax,-0x4(%rbp)
    9f76:	77 0e                	ja     9f86 <safe_lshift_func_uint32_t_u_s+0x3b>
    9f78:	8b 45 f8             	mov    -0x8(%rbp),%eax
    9f7b:	8b 55 fc             	mov    -0x4(%rbp),%edx
    9f7e:	89 c1                	mov    %eax,%ecx
    9f80:	d3 e2                	shl    %cl,%edx
    9f82:	89 d0                	mov    %edx,%eax
    9f84:	eb 03                	jmp    9f89 <safe_lshift_func_uint32_t_u_s+0x3e>
    9f86:	8b 45 fc             	mov    -0x4(%rbp),%eax
    9f89:	5d                   	pop    %rbp
    9f8a:	c3                   	retq   

0000000000009f8b <safe_lshift_func_uint32_t_u_u>:
    9f8b:	f3 0f 1e fa          	endbr64 
    9f8f:	55                   	push   %rbp
    9f90:	48 89 e5             	mov    %rsp,%rbp
    9f93:	89 7d fc             	mov    %edi,-0x4(%rbp)
    9f96:	89 75 f8             	mov    %esi,-0x8(%rbp)
    9f99:	83 7d f8 1f          	cmpl   $0x1f,-0x8(%rbp)
    9f9d:	77 21                	ja     9fc0 <safe_lshift_func_uint32_t_u_u+0x35>
    9f9f:	8b 45 f8             	mov    -0x8(%rbp),%eax
    9fa2:	ba ff ff ff ff       	mov    $0xffffffff,%edx
    9fa7:	89 c1                	mov    %eax,%ecx
    9fa9:	d3 ea                	shr    %cl,%edx
    9fab:	89 d0                	mov    %edx,%eax
    9fad:	39 45 fc             	cmp    %eax,-0x4(%rbp)
    9fb0:	77 0e                	ja     9fc0 <safe_lshift_func_uint32_t_u_u+0x35>
    9fb2:	8b 45 f8             	mov    -0x8(%rbp),%eax
    9fb5:	8b 55 fc             	mov    -0x4(%rbp),%edx
    9fb8:	89 c1                	mov    %eax,%ecx
    9fba:	d3 e2                	shl    %cl,%edx
    9fbc:	89 d0                	mov    %edx,%eax
    9fbe:	eb 03                	jmp    9fc3 <safe_lshift_func_uint32_t_u_u+0x38>
    9fc0:	8b 45 fc             	mov    -0x4(%rbp),%eax
    9fc3:	5d                   	pop    %rbp
    9fc4:	c3                   	retq   

0000000000009fc5 <safe_rshift_func_uint32_t_u_s>:
    9fc5:	f3 0f 1e fa          	endbr64 
    9fc9:	55                   	push   %rbp
    9fca:	48 89 e5             	mov    %rsp,%rbp
    9fcd:	89 7d fc             	mov    %edi,-0x4(%rbp)
    9fd0:	89 75 f8             	mov    %esi,-0x8(%rbp)
    9fd3:	83 7d f8 00          	cmpl   $0x0,-0x8(%rbp)
    9fd7:	78 14                	js     9fed <safe_rshift_func_uint32_t_u_s+0x28>
    9fd9:	83 7d f8 1f          	cmpl   $0x1f,-0x8(%rbp)
    9fdd:	7f 0e                	jg     9fed <safe_rshift_func_uint32_t_u_s+0x28>
    9fdf:	8b 45 f8             	mov    -0x8(%rbp),%eax
    9fe2:	8b 55 fc             	mov    -0x4(%rbp),%edx
    9fe5:	89 c1                	mov    %eax,%ecx
    9fe7:	d3 ea                	shr    %cl,%edx
    9fe9:	89 d0                	mov    %edx,%eax
    9feb:	eb 03                	jmp    9ff0 <safe_rshift_func_uint32_t_u_s+0x2b>
    9fed:	8b 45 fc             	mov    -0x4(%rbp),%eax
    9ff0:	5d                   	pop    %rbp
    9ff1:	c3                   	retq   

0000000000009ff2 <safe_rshift_func_uint32_t_u_u>:
    9ff2:	f3 0f 1e fa          	endbr64 
    9ff6:	55                   	push   %rbp
    9ff7:	48 89 e5             	mov    %rsp,%rbp
    9ffa:	89 7d fc             	mov    %edi,-0x4(%rbp)
    9ffd:	89 75 f8             	mov    %esi,-0x8(%rbp)
    a000:	83 7d f8 1f          	cmpl   $0x1f,-0x8(%rbp)
    a004:	77 0e                	ja     a014 <safe_rshift_func_uint32_t_u_u+0x22>
    a006:	8b 45 f8             	mov    -0x8(%rbp),%eax
    a009:	8b 55 fc             	mov    -0x4(%rbp),%edx
    a00c:	89 c1                	mov    %eax,%ecx
    a00e:	d3 ea                	shr    %cl,%edx
    a010:	89 d0                	mov    %edx,%eax
    a012:	eb 03                	jmp    a017 <safe_rshift_func_uint32_t_u_u+0x25>
    a014:	8b 45 fc             	mov    -0x4(%rbp),%eax
    a017:	5d                   	pop    %rbp
    a018:	c3                   	retq   

000000000000a019 <safe_unary_minus_func_uint64_t_u>:
    a019:	f3 0f 1e fa          	endbr64 
    a01d:	55                   	push   %rbp
    a01e:	48 89 e5             	mov    %rsp,%rbp
    a021:	48 89 7d f8          	mov    %rdi,-0x8(%rbp)
    a025:	48 8b 45 f8          	mov    -0x8(%rbp),%rax
    a029:	48 f7 d8             	neg    %rax
    a02c:	5d                   	pop    %rbp
    a02d:	c3                   	retq   

000000000000a02e <safe_add_func_uint64_t_u_u>:
    a02e:	f3 0f 1e fa          	endbr64 
    a032:	55                   	push   %rbp
    a033:	48 89 e5             	mov    %rsp,%rbp
    a036:	48 89 7d f8          	mov    %rdi,-0x8(%rbp)
    a03a:	48 89 75 f0          	mov    %rsi,-0x10(%rbp)
    a03e:	48 8b 55 f8          	mov    -0x8(%rbp),%rdx
    a042:	48 8b 45 f0          	mov    -0x10(%rbp),%rax
    a046:	48 01 d0             	add    %rdx,%rax
    a049:	5d                   	pop    %rbp
    a04a:	c3                   	retq   

000000000000a04b <safe_sub_func_uint64_t_u_u>:
    a04b:	f3 0f 1e fa          	endbr64 
    a04f:	55                   	push   %rbp
    a050:	48 89 e5             	mov    %rsp,%rbp
    a053:	48 89 7d f8          	mov    %rdi,-0x8(%rbp)
    a057:	48 89 75 f0          	mov    %rsi,-0x10(%rbp)
    a05b:	48 8b 45 f8          	mov    -0x8(%rbp),%rax
    a05f:	48 2b 45 f0          	sub    -0x10(%rbp),%rax
    a063:	5d                   	pop    %rbp
    a064:	c3                   	retq   

000000000000a065 <safe_mul_func_uint64_t_u_u>:
    a065:	f3 0f 1e fa          	endbr64 
    a069:	55                   	push   %rbp
    a06a:	48 89 e5             	mov    %rsp,%rbp
    a06d:	48 89 7d f8          	mov    %rdi,-0x8(%rbp)
    a071:	48 89 75 f0          	mov    %rsi,-0x10(%rbp)
    a075:	48 8b 45 f8          	mov    -0x8(%rbp),%rax
    a079:	48 0f af 45 f0       	imul   -0x10(%rbp),%rax
    a07e:	5d                   	pop    %rbp
    a07f:	c3                   	retq   

000000000000a080 <safe_mod_func_uint64_t_u_u>:
    a080:	f3 0f 1e fa          	endbr64 
    a084:	55                   	push   %rbp
    a085:	48 89 e5             	mov    %rsp,%rbp
    a088:	48 89 7d f8          	mov    %rdi,-0x8(%rbp)
    a08c:	48 89 75 f0          	mov    %rsi,-0x10(%rbp)
    a090:	48 83 7d f0 00       	cmpq   $0x0,-0x10(%rbp)
    a095:	74 12                	je     a0a9 <safe_mod_func_uint64_t_u_u+0x29>
    a097:	48 8b 45 f8          	mov    -0x8(%rbp),%rax
    a09b:	ba 00 00 00 00       	mov    $0x0,%edx
    a0a0:	48 f7 75 f0          	divq   -0x10(%rbp)
    a0a4:	48 89 d0             	mov    %rdx,%rax
    a0a7:	eb 04                	jmp    a0ad <safe_mod_func_uint64_t_u_u+0x2d>
    a0a9:	48 8b 45 f8          	mov    -0x8(%rbp),%rax
    a0ad:	5d                   	pop    %rbp
    a0ae:	c3                   	retq   

000000000000a0af <safe_div_func_uint64_t_u_u>:
    a0af:	f3 0f 1e fa          	endbr64 
    a0b3:	55                   	push   %rbp
    a0b4:	48 89 e5             	mov    %rsp,%rbp
    a0b7:	48 89 7d f8          	mov    %rdi,-0x8(%rbp)
    a0bb:	48 89 75 f0          	mov    %rsi,-0x10(%rbp)
    a0bf:	48 83 7d f0 00       	cmpq   $0x0,-0x10(%rbp)
    a0c4:	74 0f                	je     a0d5 <safe_div_func_uint64_t_u_u+0x26>
    a0c6:	48 8b 45 f8          	mov    -0x8(%rbp),%rax
    a0ca:	ba 00 00 00 00       	mov    $0x0,%edx
    a0cf:	48 f7 75 f0          	divq   -0x10(%rbp)
    a0d3:	eb 04                	jmp    a0d9 <safe_div_func_uint64_t_u_u+0x2a>
    a0d5:	48 8b 45 f8          	mov    -0x8(%rbp),%rax
    a0d9:	5d                   	pop    %rbp
    a0da:	c3                   	retq   

000000000000a0db <safe_lshift_func_uint64_t_u_s>:
    a0db:	f3 0f 1e fa          	endbr64 
    a0df:	55                   	push   %rbp
    a0e0:	48 89 e5             	mov    %rsp,%rbp
    a0e3:	48 89 7d f8          	mov    %rdi,-0x8(%rbp)
    a0e7:	89 75 f4             	mov    %esi,-0xc(%rbp)
    a0ea:	83 7d f4 00          	cmpl   $0x0,-0xc(%rbp)
    a0ee:	78 2f                	js     a11f <safe_lshift_func_uint64_t_u_s+0x44>
    a0f0:	83 7d f4 1f          	cmpl   $0x1f,-0xc(%rbp)
    a0f4:	7f 29                	jg     a11f <safe_lshift_func_uint64_t_u_s+0x44>
    a0f6:	8b 45 f4             	mov    -0xc(%rbp),%eax
    a0f9:	48 c7 c2 ff ff ff ff 	mov    $0xffffffffffffffff,%rdx
    a100:	89 c1                	mov    %eax,%ecx
    a102:	48 d3 ea             	shr    %cl,%rdx
    a105:	48 89 d0             	mov    %rdx,%rax
    a108:	48 39 45 f8          	cmp    %rax,-0x8(%rbp)
    a10c:	77 11                	ja     a11f <safe_lshift_func_uint64_t_u_s+0x44>
    a10e:	8b 45 f4             	mov    -0xc(%rbp),%eax
    a111:	48 8b 55 f8          	mov    -0x8(%rbp),%rdx
    a115:	89 c1                	mov    %eax,%ecx
    a117:	48 d3 e2             	shl    %cl,%rdx
    a11a:	48 89 d0             	mov    %rdx,%rax
    a11d:	eb 04                	jmp    a123 <safe_lshift_func_uint64_t_u_s+0x48>
    a11f:	48 8b 45 f8          	mov    -0x8(%rbp),%rax
    a123:	5d                   	pop    %rbp
    a124:	c3                   	retq   

000000000000a125 <safe_lshift_func_uint64_t_u_u>:
    a125:	f3 0f 1e fa          	endbr64 
    a129:	55                   	push   %rbp
    a12a:	48 89 e5             	mov    %rsp,%rbp
    a12d:	48 89 7d f8          	mov    %rdi,-0x8(%rbp)
    a131:	89 75 f4             	mov    %esi,-0xc(%rbp)
    a134:	83 7d f4 1f          	cmpl   $0x1f,-0xc(%rbp)
    a138:	77 29                	ja     a163 <safe_lshift_func_uint64_t_u_u+0x3e>
    a13a:	8b 45 f4             	mov    -0xc(%rbp),%eax
    a13d:	48 c7 c2 ff ff ff ff 	mov    $0xffffffffffffffff,%rdx
    a144:	89 c1                	mov    %eax,%ecx
    a146:	48 d3 ea             	shr    %cl,%rdx
    a149:	48 89 d0             	mov    %rdx,%rax
    a14c:	48 39 45 f8          	cmp    %rax,-0x8(%rbp)
    a150:	77 11                	ja     a163 <safe_lshift_func_uint64_t_u_u+0x3e>
    a152:	8b 45 f4             	mov    -0xc(%rbp),%eax
    a155:	48 8b 55 f8          	mov    -0x8(%rbp),%rdx
    a159:	89 c1                	mov    %eax,%ecx
    a15b:	48 d3 e2             	shl    %cl,%rdx
    a15e:	48 89 d0             	mov    %rdx,%rax
    a161:	eb 04                	jmp    a167 <safe_lshift_func_uint64_t_u_u+0x42>
    a163:	48 8b 45 f8          	mov    -0x8(%rbp),%rax
    a167:	5d                   	pop    %rbp
    a168:	c3                   	retq   

000000000000a169 <safe_rshift_func_uint64_t_u_s>:
    a169:	f3 0f 1e fa          	endbr64 
    a16d:	55                   	push   %rbp
    a16e:	48 89 e5             	mov    %rsp,%rbp
    a171:	48 89 7d f8          	mov    %rdi,-0x8(%rbp)
    a175:	89 75 f4             	mov    %esi,-0xc(%rbp)
    a178:	83 7d f4 00          	cmpl   $0x0,-0xc(%rbp)
    a17c:	78 17                	js     a195 <safe_rshift_func_uint64_t_u_s+0x2c>
    a17e:	83 7d f4 1f          	cmpl   $0x1f,-0xc(%rbp)
    a182:	7f 11                	jg     a195 <safe_rshift_func_uint64_t_u_s+0x2c>
    a184:	8b 45 f4             	mov    -0xc(%rbp),%eax
    a187:	48 8b 55 f8          	mov    -0x8(%rbp),%rdx
    a18b:	89 c1                	mov    %eax,%ecx
    a18d:	48 d3 ea             	shr    %cl,%rdx
    a190:	48 89 d0             	mov    %rdx,%rax
    a193:	eb 04                	jmp    a199 <safe_rshift_func_uint64_t_u_s+0x30>
    a195:	48 8b 45 f8          	mov    -0x8(%rbp),%rax
    a199:	5d                   	pop    %rbp
    a19a:	c3                   	retq   

000000000000a19b <safe_rshift_func_uint64_t_u_u>:
    a19b:	f3 0f 1e fa          	endbr64 
    a19f:	55                   	push   %rbp
    a1a0:	48 89 e5             	mov    %rsp,%rbp
    a1a3:	48 89 7d f8          	mov    %rdi,-0x8(%rbp)
    a1a7:	89 75 f4             	mov    %esi,-0xc(%rbp)
    a1aa:	83 7d f4 1f          	cmpl   $0x1f,-0xc(%rbp)
    a1ae:	77 11                	ja     a1c1 <safe_rshift_func_uint64_t_u_u+0x26>
    a1b0:	8b 45 f4             	mov    -0xc(%rbp),%eax
    a1b3:	48 8b 55 f8          	mov    -0x8(%rbp),%rdx
    a1b7:	89 c1                	mov    %eax,%ecx
    a1b9:	48 d3 ea             	shr    %cl,%rdx
    a1bc:	48 89 d0             	mov    %rdx,%rax
    a1bf:	eb 04                	jmp    a1c5 <safe_rshift_func_uint64_t_u_u+0x2a>
    a1c1:	48 8b 45 f8          	mov    -0x8(%rbp),%rax
    a1c5:	5d                   	pop    %rbp
    a1c6:	c3                   	retq   

000000000000a1c7 <safe_add_func_float_f_f>:
    a1c7:	f3 0f 1e fa          	endbr64 
    a1cb:	55                   	push   %rbp
    a1cc:	48 89 e5             	mov    %rsp,%rbp
    a1cf:	f3 0f 11 45 fc       	movss  %xmm0,-0x4(%rbp)
    a1d4:	f3 0f 11 4d f8       	movss  %xmm1,-0x8(%rbp)
    a1d9:	f3 0f 10 4d fc       	movss  -0x4(%rbp),%xmm1
    a1de:	f3 0f 10 05 da d9 00 	movss  0xd9da(%rip),%xmm0        # 17bc0 <l_2049.4685+0x180>
    a1e5:	00 
    a1e6:	f3 0f 59 c8          	mulss  %xmm0,%xmm1
    a1ea:	f3 0f 10 55 f8       	movss  -0x8(%rbp),%xmm2
    a1ef:	f3 0f 10 05 c9 d9 00 	movss  0xd9c9(%rip),%xmm0        # 17bc0 <l_2049.4685+0x180>
    a1f6:	00 
    a1f7:	f3 0f 59 c2          	mulss  %xmm2,%xmm0
    a1fb:	f3 0f 58 c1          	addss  %xmm1,%xmm0
    a1ff:	f3 0f 10 0d c9 d9 00 	movss  0xd9c9(%rip),%xmm1        # 17bd0 <l_2049.4685+0x190>
    a206:	00 
    a207:	0f 54 c1             	andps  %xmm1,%xmm0
    a20a:	0f 2f 05 cf d9 00 00 	comiss 0xd9cf(%rip),%xmm0        # 17be0 <l_2049.4685+0x1a0>
    a211:	76 07                	jbe    a21a <safe_add_func_float_f_f+0x53>
    a213:	f3 0f 10 45 fc       	movss  -0x4(%rbp),%xmm0
    a218:	eb 0a                	jmp    a224 <safe_add_func_float_f_f+0x5d>
    a21a:	f3 0f 10 45 fc       	movss  -0x4(%rbp),%xmm0
    a21f:	f3 0f 58 45 f8       	addss  -0x8(%rbp),%xmm0
    a224:	5d                   	pop    %rbp
    a225:	c3                   	retq   

000000000000a226 <safe_sub_func_float_f_f>:
    a226:	f3 0f 1e fa          	endbr64 
    a22a:	55                   	push   %rbp
    a22b:	48 89 e5             	mov    %rsp,%rbp
    a22e:	f3 0f 11 45 fc       	movss  %xmm0,-0x4(%rbp)
    a233:	f3 0f 11 4d f8       	movss  %xmm1,-0x8(%rbp)
    a238:	f3 0f 10 4d fc       	movss  -0x4(%rbp),%xmm1
    a23d:	f3 0f 10 05 7b d9 00 	movss  0xd97b(%rip),%xmm0        # 17bc0 <l_2049.4685+0x180>
    a244:	00 
    a245:	f3 0f 59 c1          	mulss  %xmm1,%xmm0
    a249:	f3 0f 10 55 f8       	movss  -0x8(%rbp),%xmm2
    a24e:	f3 0f 10 0d 6a d9 00 	movss  0xd96a(%rip),%xmm1        # 17bc0 <l_2049.4685+0x180>
    a255:	00 
    a256:	f3 0f 59 ca          	mulss  %xmm2,%xmm1
    a25a:	f3 0f 5c c1          	subss  %xmm1,%xmm0
    a25e:	f3 0f 10 0d 6a d9 00 	movss  0xd96a(%rip),%xmm1        # 17bd0 <l_2049.4685+0x190>
    a265:	00 
    a266:	0f 54 c1             	andps  %xmm1,%xmm0
    a269:	0f 2f 05 70 d9 00 00 	comiss 0xd970(%rip),%xmm0        # 17be0 <l_2049.4685+0x1a0>
    a270:	76 07                	jbe    a279 <safe_sub_func_float_f_f+0x53>
    a272:	f3 0f 10 45 fc       	movss  -0x4(%rbp),%xmm0
    a277:	eb 0a                	jmp    a283 <safe_sub_func_float_f_f+0x5d>
    a279:	f3 0f 10 45 fc       	movss  -0x4(%rbp),%xmm0
    a27e:	f3 0f 5c 45 f8       	subss  -0x8(%rbp),%xmm0
    a283:	5d                   	pop    %rbp
    a284:	c3                   	retq   

000000000000a285 <safe_mul_func_float_f_f>:
    a285:	f3 0f 1e fa          	endbr64 
    a289:	55                   	push   %rbp
    a28a:	48 89 e5             	mov    %rsp,%rbp
    a28d:	f3 0f 11 45 fc       	movss  %xmm0,-0x4(%rbp)
    a292:	f3 0f 11 4d f8       	movss  %xmm1,-0x8(%rbp)
    a297:	f3 0f 10 4d fc       	movss  -0x4(%rbp),%xmm1
    a29c:	f3 0f 10 05 40 d9 00 	movss  0xd940(%rip),%xmm0        # 17be4 <l_2049.4685+0x1a4>
    a2a3:	00 
    a2a4:	f3 0f 59 c8          	mulss  %xmm0,%xmm1
    a2a8:	f3 0f 10 55 f8       	movss  -0x8(%rbp),%xmm2
    a2ad:	f3 0f 10 05 33 d9 00 	movss  0xd933(%rip),%xmm0        # 17be8 <l_2049.4685+0x1a8>
    a2b4:	00 
    a2b5:	f3 0f 59 c2          	mulss  %xmm2,%xmm0
    a2b9:	f3 0f 59 c1          	mulss  %xmm1,%xmm0
    a2bd:	f3 0f 10 0d 0b d9 00 	movss  0xd90b(%rip),%xmm1        # 17bd0 <l_2049.4685+0x190>
    a2c4:	00 
    a2c5:	0f 54 c1             	andps  %xmm1,%xmm0
    a2c8:	0f 2f 05 1d d9 00 00 	comiss 0xd91d(%rip),%xmm0        # 17bec <l_2049.4685+0x1ac>
    a2cf:	76 07                	jbe    a2d8 <safe_mul_func_float_f_f+0x53>
    a2d1:	f3 0f 10 45 fc       	movss  -0x4(%rbp),%xmm0
    a2d6:	eb 0a                	jmp    a2e2 <safe_mul_func_float_f_f+0x5d>
    a2d8:	f3 0f 10 45 fc       	movss  -0x4(%rbp),%xmm0
    a2dd:	f3 0f 59 45 f8       	mulss  -0x8(%rbp),%xmm0
    a2e2:	5d                   	pop    %rbp
    a2e3:	c3                   	retq   

000000000000a2e4 <safe_div_func_float_f_f>:
    a2e4:	f3 0f 1e fa          	endbr64 
    a2e8:	55                   	push   %rbp
    a2e9:	48 89 e5             	mov    %rsp,%rbp
    a2ec:	f3 0f 11 45 fc       	movss  %xmm0,-0x4(%rbp)
    a2f1:	f3 0f 11 4d f8       	movss  %xmm1,-0x8(%rbp)
    a2f6:	f3 0f 10 45 f8       	movss  -0x8(%rbp),%xmm0
    a2fb:	f3 0f 10 0d cd d8 00 	movss  0xd8cd(%rip),%xmm1        # 17bd0 <l_2049.4685+0x190>
    a302:	00 
    a303:	0f 54 c8             	andps  %xmm0,%xmm1
    a306:	f3 0f 10 05 e2 d8 00 	movss  0xd8e2(%rip),%xmm0        # 17bf0 <l_2049.4685+0x1b0>
    a30d:	00 
    a30e:	0f 2f c1             	comiss %xmm1,%xmm0
    a311:	0f 97 c0             	seta   %al
    a314:	83 f0 01             	xor    $0x1,%eax
    a317:	84 c0                	test   %al,%al
    a319:	75 56                	jne    a371 <safe_div_func_float_f_f+0x8d>
    a31b:	66 0f ef c0          	pxor   %xmm0,%xmm0
    a31f:	0f 2e 45 f8          	ucomiss -0x8(%rbp),%xmm0
    a323:	7a 0a                	jp     a32f <safe_div_func_float_f_f+0x4b>
    a325:	66 0f ef c0          	pxor   %xmm0,%xmm0
    a329:	0f 2e 45 f8          	ucomiss -0x8(%rbp),%xmm0
    a32d:	74 4e                	je     a37d <safe_div_func_float_f_f+0x99>
    a32f:	f3 0f 10 4d fc       	movss  -0x4(%rbp),%xmm1
    a334:	f3 0f 10 05 b8 d8 00 	movss  0xd8b8(%rip),%xmm0        # 17bf4 <l_2049.4685+0x1b4>
    a33b:	00 
    a33c:	f3 0f 59 c1          	mulss  %xmm1,%xmm0
    a340:	f3 0f 10 55 f8       	movss  -0x8(%rbp),%xmm2
    a345:	f3 0f 10 0d ab d8 00 	movss  0xd8ab(%rip),%xmm1        # 17bf8 <l_2049.4685+0x1b8>
    a34c:	00 
    a34d:	f3 0f 59 ca          	mulss  %xmm2,%xmm1
    a351:	f3 0f 5e c1          	divss  %xmm1,%xmm0
    a355:	f3 0f 10 0d 73 d8 00 	movss  0xd873(%rip),%xmm1        # 17bd0 <l_2049.4685+0x190>
    a35c:	00 
    a35d:	0f 54 c1             	andps  %xmm1,%xmm0
    a360:	0f 2f 05 95 d8 00 00 	comiss 0xd895(%rip),%xmm0        # 17bfc <l_2049.4685+0x1bc>
    a367:	0f 97 c0             	seta   %al
    a36a:	83 f0 01             	xor    $0x1,%eax
    a36d:	84 c0                	test   %al,%al
    a36f:	74 0c                	je     a37d <safe_div_func_float_f_f+0x99>
    a371:	f3 0f 10 45 fc       	movss  -0x4(%rbp),%xmm0
    a376:	f3 0f 5e 45 f8       	divss  -0x8(%rbp),%xmm0
    a37b:	eb 05                	jmp    a382 <safe_div_func_float_f_f+0x9e>
    a37d:	f3 0f 10 45 fc       	movss  -0x4(%rbp),%xmm0
    a382:	5d                   	pop    %rbp
    a383:	c3                   	retq   

000000000000a384 <safe_add_func_double_f_f>:
    a384:	f3 0f 1e fa          	endbr64 
    a388:	55                   	push   %rbp
    a389:	48 89 e5             	mov    %rsp,%rbp
    a38c:	f2 0f 11 45 f8       	movsd  %xmm0,-0x8(%rbp)
    a391:	f2 0f 11 4d f0       	movsd  %xmm1,-0x10(%rbp)
    a396:	f2 0f 10 4d f8       	movsd  -0x8(%rbp),%xmm1
    a39b:	f2 0f 10 05 5d d8 00 	movsd  0xd85d(%rip),%xmm0        # 17c00 <l_2049.4685+0x1c0>
    a3a2:	00 
    a3a3:	f2 0f 59 c8          	mulsd  %xmm0,%xmm1
    a3a7:	f2 0f 10 55 f0       	movsd  -0x10(%rbp),%xmm2
    a3ac:	f2 0f 10 05 4c d8 00 	movsd  0xd84c(%rip),%xmm0        # 17c00 <l_2049.4685+0x1c0>
    a3b3:	00 
    a3b4:	f2 0f 59 c2          	mulsd  %xmm2,%xmm0
    a3b8:	f2 0f 58 c1          	addsd  %xmm1,%xmm0
    a3bc:	f3 0f 7e 0d 4c d8 00 	movq   0xd84c(%rip),%xmm1        # 17c10 <l_2049.4685+0x1d0>
    a3c3:	00 
    a3c4:	66 0f 54 c1          	andpd  %xmm1,%xmm0
    a3c8:	66 0f 2f 05 50 d8 00 	comisd 0xd850(%rip),%xmm0        # 17c20 <l_2049.4685+0x1e0>
    a3cf:	00 
    a3d0:	76 07                	jbe    a3d9 <safe_add_func_double_f_f+0x55>
    a3d2:	f2 0f 10 45 f8       	movsd  -0x8(%rbp),%xmm0
    a3d7:	eb 0a                	jmp    a3e3 <safe_add_func_double_f_f+0x5f>
    a3d9:	f2 0f 10 45 f8       	movsd  -0x8(%rbp),%xmm0
    a3de:	f2 0f 58 45 f0       	addsd  -0x10(%rbp),%xmm0
    a3e3:	5d                   	pop    %rbp
    a3e4:	c3                   	retq   

000000000000a3e5 <safe_sub_func_double_f_f>:
    a3e5:	f3 0f 1e fa          	endbr64 
    a3e9:	55                   	push   %rbp
    a3ea:	48 89 e5             	mov    %rsp,%rbp
    a3ed:	f2 0f 11 45 f8       	movsd  %xmm0,-0x8(%rbp)
    a3f2:	f2 0f 11 4d f0       	movsd  %xmm1,-0x10(%rbp)
    a3f7:	f2 0f 10 4d f8       	movsd  -0x8(%rbp),%xmm1
    a3fc:	f2 0f 10 05 fc d7 00 	movsd  0xd7fc(%rip),%xmm0        # 17c00 <l_2049.4685+0x1c0>
    a403:	00 
    a404:	f2 0f 59 c1          	mulsd  %xmm1,%xmm0
    a408:	f2 0f 10 55 f0       	movsd  -0x10(%rbp),%xmm2
    a40d:	f2 0f 10 0d eb d7 00 	movsd  0xd7eb(%rip),%xmm1        # 17c00 <l_2049.4685+0x1c0>
    a414:	00 
    a415:	f2 0f 59 ca          	mulsd  %xmm2,%xmm1
    a419:	f2 0f 5c c1          	subsd  %xmm1,%xmm0
    a41d:	f3 0f 7e 0d eb d7 00 	movq   0xd7eb(%rip),%xmm1        # 17c10 <l_2049.4685+0x1d0>
    a424:	00 
    a425:	66 0f 54 c1          	andpd  %xmm1,%xmm0
    a429:	66 0f 2f 05 ef d7 00 	comisd 0xd7ef(%rip),%xmm0        # 17c20 <l_2049.4685+0x1e0>
    a430:	00 
    a431:	76 07                	jbe    a43a <safe_sub_func_double_f_f+0x55>
    a433:	f2 0f 10 45 f8       	movsd  -0x8(%rbp),%xmm0
    a438:	eb 0a                	jmp    a444 <safe_sub_func_double_f_f+0x5f>
    a43a:	f2 0f 10 45 f8       	movsd  -0x8(%rbp),%xmm0
    a43f:	f2 0f 5c 45 f0       	subsd  -0x10(%rbp),%xmm0
    a444:	5d                   	pop    %rbp
    a445:	c3                   	retq   

000000000000a446 <safe_mul_func_double_f_f>:
    a446:	f3 0f 1e fa          	endbr64 
    a44a:	55                   	push   %rbp
    a44b:	48 89 e5             	mov    %rsp,%rbp
    a44e:	f2 0f 11 45 f8       	movsd  %xmm0,-0x8(%rbp)
    a453:	f2 0f 11 4d f0       	movsd  %xmm1,-0x10(%rbp)
    a458:	f2 0f 10 4d f8       	movsd  -0x8(%rbp),%xmm1
    a45d:	f2 0f 10 05 c3 d7 00 	movsd  0xd7c3(%rip),%xmm0        # 17c28 <l_2049.4685+0x1e8>
    a464:	00 
    a465:	f2 0f 59 c8          	mulsd  %xmm0,%xmm1
    a469:	f2 0f 10 55 f0       	movsd  -0x10(%rbp),%xmm2
    a46e:	f2 0f 10 05 ba d7 00 	movsd  0xd7ba(%rip),%xmm0        # 17c30 <l_2049.4685+0x1f0>
    a475:	00 
    a476:	f2 0f 59 c2          	mulsd  %xmm2,%xmm0
    a47a:	f2 0f 59 c1          	mulsd  %xmm1,%xmm0
    a47e:	f3 0f 7e 0d 8a d7 00 	movq   0xd78a(%rip),%xmm1        # 17c10 <l_2049.4685+0x1d0>
    a485:	00 
    a486:	66 0f 54 c1          	andpd  %xmm1,%xmm0
    a48a:	66 0f 2f 05 a6 d7 00 	comisd 0xd7a6(%rip),%xmm0        # 17c38 <l_2049.4685+0x1f8>
    a491:	00 
    a492:	76 07                	jbe    a49b <safe_mul_func_double_f_f+0x55>
    a494:	f2 0f 10 45 f8       	movsd  -0x8(%rbp),%xmm0
    a499:	eb 0a                	jmp    a4a5 <safe_mul_func_double_f_f+0x5f>
    a49b:	f2 0f 10 45 f8       	movsd  -0x8(%rbp),%xmm0
    a4a0:	f2 0f 59 45 f0       	mulsd  -0x10(%rbp),%xmm0
    a4a5:	5d                   	pop    %rbp
    a4a6:	c3                   	retq   

000000000000a4a7 <safe_div_func_double_f_f>:
    a4a7:	f3 0f 1e fa          	endbr64 
    a4ab:	55                   	push   %rbp
    a4ac:	48 89 e5             	mov    %rsp,%rbp
    a4af:	f2 0f 11 45 f8       	movsd  %xmm0,-0x8(%rbp)
    a4b4:	f2 0f 11 4d f0       	movsd  %xmm1,-0x10(%rbp)
    a4b9:	f2 0f 10 45 f0       	movsd  -0x10(%rbp),%xmm0
    a4be:	f3 0f 7e 0d 4a d7 00 	movq   0xd74a(%rip),%xmm1        # 17c10 <l_2049.4685+0x1d0>
    a4c5:	00 
    a4c6:	66 0f 54 c8          	andpd  %xmm0,%xmm1
    a4ca:	f2 0f 10 05 6e d7 00 	movsd  0xd76e(%rip),%xmm0        # 17c40 <l_2049.4685+0x200>
    a4d1:	00 
    a4d2:	66 0f 2f c1          	comisd %xmm1,%xmm0
    a4d6:	0f 97 c0             	seta   %al
    a4d9:	83 f0 01             	xor    $0x1,%eax
    a4dc:	84 c0                	test   %al,%al
    a4de:	75 5a                	jne    a53a <safe_div_func_double_f_f+0x93>
    a4e0:	66 0f ef c0          	pxor   %xmm0,%xmm0
    a4e4:	66 0f 2e 45 f0       	ucomisd -0x10(%rbp),%xmm0
    a4e9:	7a 0b                	jp     a4f6 <safe_div_func_double_f_f+0x4f>
    a4eb:	66 0f ef c0          	pxor   %xmm0,%xmm0
    a4ef:	66 0f 2e 45 f0       	ucomisd -0x10(%rbp),%xmm0
    a4f4:	74 50                	je     a546 <safe_div_func_double_f_f+0x9f>
    a4f6:	f2 0f 10 4d f8       	movsd  -0x8(%rbp),%xmm1
    a4fb:	f2 0f 10 05 45 d7 00 	movsd  0xd745(%rip),%xmm0        # 17c48 <l_2049.4685+0x208>
    a502:	00 
    a503:	f2 0f 59 c1          	mulsd  %xmm1,%xmm0
    a507:	f2 0f 10 55 f0       	movsd  -0x10(%rbp),%xmm2
    a50c:	f2 0f 10 0d 3c d7 00 	movsd  0xd73c(%rip),%xmm1        # 17c50 <l_2049.4685+0x210>
    a513:	00 
    a514:	f2 0f 59 ca          	mulsd  %xmm2,%xmm1
    a518:	f2 0f 5e c1          	divsd  %xmm1,%xmm0
    a51c:	f3 0f 7e 0d ec d6 00 	movq   0xd6ec(%rip),%xmm1        # 17c10 <l_2049.4685+0x1d0>
    a523:	00 
    a524:	66 0f 54 c1          	andpd  %xmm1,%xmm0
    a528:	66 0f 2f 05 28 d7 00 	comisd 0xd728(%rip),%xmm0        # 17c58 <l_2049.4685+0x218>
    a52f:	00 
    a530:	0f 97 c0             	seta   %al
    a533:	83 f0 01             	xor    $0x1,%eax
    a536:	84 c0                	test   %al,%al
    a538:	74 0c                	je     a546 <safe_div_func_double_f_f+0x9f>
    a53a:	f2 0f 10 45 f8       	movsd  -0x8(%rbp),%xmm0
    a53f:	f2 0f 5e 45 f0       	divsd  -0x10(%rbp),%xmm0
    a544:	eb 05                	jmp    a54b <safe_div_func_double_f_f+0xa4>
    a546:	f2 0f 10 45 f8       	movsd  -0x8(%rbp),%xmm0
    a54b:	5d                   	pop    %rbp
    a54c:	c3                   	retq   

000000000000a54d <safe_convert_func_float_to_int32_t>:
    a54d:	f3 0f 1e fa          	endbr64 
    a551:	55                   	push   %rbp
    a552:	48 89 e5             	mov    %rsp,%rbp
    a555:	f3 0f 11 45 fc       	movss  %xmm0,-0x4(%rbp)
    a55a:	f3 0f 10 05 fe d6 00 	movss  0xd6fe(%rip),%xmm0        # 17c60 <l_2049.4685+0x220>
    a561:	00 
    a562:	0f 2f 45 fc          	comiss -0x4(%rbp),%xmm0
    a566:	0f 93 c0             	setae  %al
    a569:	83 f0 01             	xor    $0x1,%eax
    a56c:	84 c0                	test   %al,%al
    a56e:	74 21                	je     a591 <safe_convert_func_float_to_int32_t+0x44>
    a570:	f3 0f 10 45 fc       	movss  -0x4(%rbp),%xmm0
    a575:	0f 2f 05 e8 d6 00 00 	comiss 0xd6e8(%rip),%xmm0        # 17c64 <l_2049.4685+0x224>
    a57c:	0f 93 c0             	setae  %al
    a57f:	83 f0 01             	xor    $0x1,%eax
    a582:	84 c0                	test   %al,%al
    a584:	74 0b                	je     a591 <safe_convert_func_float_to_int32_t+0x44>
    a586:	f3 0f 10 45 fc       	movss  -0x4(%rbp),%xmm0
    a58b:	f3 0f 2c c0          	cvttss2si %xmm0,%eax
    a58f:	eb 05                	jmp    a596 <safe_convert_func_float_to_int32_t+0x49>
    a591:	b8 ff ff ff 7f       	mov    $0x7fffffff,%eax
    a596:	5d                   	pop    %rbp
    a597:	c3                   	retq   

000000000000a598 <crc32_gentab>:
    a598:	f3 0f 1e fa          	endbr64 
    a59c:	55                   	push   %rbp
    a59d:	48 89 e5             	mov    %rsp,%rbp
    a5a0:	c7 45 fc 20 83 b8 ed 	movl   $0xedb88320,-0x4(%rbp)
    a5a7:	c7 45 f4 00 00 00 00 	movl   $0x0,-0xc(%rbp)
    a5ae:	eb 51                	jmp    a601 <crc32_gentab+0x69>
    a5b0:	8b 45 f4             	mov    -0xc(%rbp),%eax
    a5b3:	89 45 f0             	mov    %eax,-0x10(%rbp)
    a5b6:	c7 45 f8 08 00 00 00 	movl   $0x8,-0x8(%rbp)
    a5bd:	eb 1e                	jmp    a5dd <crc32_gentab+0x45>
    a5bf:	8b 45 f0             	mov    -0x10(%rbp),%eax
    a5c2:	83 e0 01             	and    $0x1,%eax
    a5c5:	85 c0                	test   %eax,%eax
    a5c7:	74 0d                	je     a5d6 <crc32_gentab+0x3e>
    a5c9:	8b 45 f0             	mov    -0x10(%rbp),%eax
    a5cc:	d1 e8                	shr    %eax
    a5ce:	33 45 fc             	xor    -0x4(%rbp),%eax
    a5d1:	89 45 f0             	mov    %eax,-0x10(%rbp)
    a5d4:	eb 03                	jmp    a5d9 <crc32_gentab+0x41>
    a5d6:	d1 6d f0             	shrl   -0x10(%rbp)
    a5d9:	83 6d f8 01          	subl   $0x1,-0x8(%rbp)
    a5dd:	83 7d f8 00          	cmpl   $0x0,-0x8(%rbp)
    a5e1:	7f dc                	jg     a5bf <crc32_gentab+0x27>
    a5e3:	8b 45 f4             	mov    -0xc(%rbp),%eax
    a5e6:	48 98                	cltq   
    a5e8:	48 8d 0c 85 00 00 00 	lea    0x0(,%rax,4),%rcx
    a5ef:	00 
    a5f0:	48 8d 15 49 4a 01 00 	lea    0x14a49(%rip),%rdx        # 1f040 <crc32_tab>
    a5f7:	8b 45 f0             	mov    -0x10(%rbp),%eax
    a5fa:	89 04 11             	mov    %eax,(%rcx,%rdx,1)
    a5fd:	83 45 f4 01          	addl   $0x1,-0xc(%rbp)
    a601:	81 7d f4 ff 00 00 00 	cmpl   $0xff,-0xc(%rbp)
    a608:	7e a6                	jle    a5b0 <crc32_gentab+0x18>
    a60a:	90                   	nop
    a60b:	90                   	nop
    a60c:	5d                   	pop    %rbp
    a60d:	c3                   	retq   

000000000000a60e <crc32_byte>:
    a60e:	f3 0f 1e fa          	endbr64 
    a612:	55                   	push   %rbp
    a613:	48 89 e5             	mov    %rsp,%rbp
    a616:	89 f8                	mov    %edi,%eax
    a618:	88 45 fc             	mov    %al,-0x4(%rbp)
    a61b:	8b 05 ff 09 01 00    	mov    0x109ff(%rip),%eax        # 1b020 <crc32_context>
    a621:	c1 e8 08             	shr    $0x8,%eax
    a624:	89 c1                	mov    %eax,%ecx
    a626:	0f b6 55 fc          	movzbl -0x4(%rbp),%edx
    a62a:	8b 05 f0 09 01 00    	mov    0x109f0(%rip),%eax        # 1b020 <crc32_context>
    a630:	31 d0                	xor    %edx,%eax
    a632:	0f b6 c0             	movzbl %al,%eax
    a635:	89 c0                	mov    %eax,%eax
    a637:	48 8d 14 85 00 00 00 	lea    0x0(,%rax,4),%rdx
    a63e:	00 
    a63f:	48 8d 05 fa 49 01 00 	lea    0x149fa(%rip),%rax        # 1f040 <crc32_tab>
    a646:	8b 04 02             	mov    (%rdx,%rax,1),%eax
    a649:	31 c8                	xor    %ecx,%eax
    a64b:	89 05 cf 09 01 00    	mov    %eax,0x109cf(%rip)        # 1b020 <crc32_context>
    a651:	90                   	nop
    a652:	5d                   	pop    %rbp
    a653:	c3                   	retq   

000000000000a654 <crc32_8bytes>:
    a654:	f3 0f 1e fa          	endbr64 
    a658:	55                   	push   %rbp
    a659:	48 89 e5             	mov    %rsp,%rbp
    a65c:	48 83 ec 08          	sub    $0x8,%rsp
    a660:	48 89 7d f8          	mov    %rdi,-0x8(%rbp)
    a664:	48 8b 45 f8          	mov    -0x8(%rbp),%rax
    a668:	0f b6 c0             	movzbl %al,%eax
    a66b:	89 c7                	mov    %eax,%edi
    a66d:	e8 9c ff ff ff       	callq  a60e <crc32_byte>
    a672:	48 8b 45 f8          	mov    -0x8(%rbp),%rax
    a676:	48 c1 e8 08          	shr    $0x8,%rax
    a67a:	0f b6 c0             	movzbl %al,%eax
    a67d:	89 c7                	mov    %eax,%edi
    a67f:	e8 8a ff ff ff       	callq  a60e <crc32_byte>
    a684:	48 8b 45 f8          	mov    -0x8(%rbp),%rax
    a688:	48 c1 e8 10          	shr    $0x10,%rax
    a68c:	0f b6 c0             	movzbl %al,%eax
    a68f:	89 c7                	mov    %eax,%edi
    a691:	e8 78 ff ff ff       	callq  a60e <crc32_byte>
    a696:	48 8b 45 f8          	mov    -0x8(%rbp),%rax
    a69a:	48 c1 e8 18          	shr    $0x18,%rax
    a69e:	0f b6 c0             	movzbl %al,%eax
    a6a1:	89 c7                	mov    %eax,%edi
    a6a3:	e8 66 ff ff ff       	callq  a60e <crc32_byte>
    a6a8:	48 8b 45 f8          	mov    -0x8(%rbp),%rax
    a6ac:	48 c1 e8 20          	shr    $0x20,%rax
    a6b0:	0f b6 c0             	movzbl %al,%eax
    a6b3:	89 c7                	mov    %eax,%edi
    a6b5:	e8 54 ff ff ff       	callq  a60e <crc32_byte>
    a6ba:	48 8b 45 f8          	mov    -0x8(%rbp),%rax
    a6be:	48 c1 e8 28          	shr    $0x28,%rax
    a6c2:	0f b6 c0             	movzbl %al,%eax
    a6c5:	89 c7                	mov    %eax,%edi
    a6c7:	e8 42 ff ff ff       	callq  a60e <crc32_byte>
    a6cc:	48 8b 45 f8          	mov    -0x8(%rbp),%rax
    a6d0:	48 c1 e8 30          	shr    $0x30,%rax
    a6d4:	0f b6 c0             	movzbl %al,%eax
    a6d7:	89 c7                	mov    %eax,%edi
    a6d9:	e8 30 ff ff ff       	callq  a60e <crc32_byte>
    a6de:	48 8b 45 f8          	mov    -0x8(%rbp),%rax
    a6e2:	48 c1 e8 38          	shr    $0x38,%rax
    a6e6:	0f b6 c0             	movzbl %al,%eax
    a6e9:	89 c7                	mov    %eax,%edi
    a6eb:	e8 1e ff ff ff       	callq  a60e <crc32_byte>
    a6f0:	90                   	nop
    a6f1:	c9                   	leaveq 
    a6f2:	c3                   	retq   

000000000000a6f3 <transparent_crc>:
    a6f3:	f3 0f 1e fa          	endbr64 
    a6f7:	55                   	push   %rbp
    a6f8:	48 89 e5             	mov    %rsp,%rbp
    a6fb:	48 83 ec 20          	sub    $0x20,%rsp
    a6ff:	48 89 7d f8          	mov    %rdi,-0x8(%rbp)
    a703:	48 89 75 f0          	mov    %rsi,-0x10(%rbp)
    a707:	89 55 ec             	mov    %edx,-0x14(%rbp)
    a70a:	48 8b 45 f8          	mov    -0x8(%rbp),%rax
    a70e:	48 89 c7             	mov    %rax,%rdi
    a711:	e8 3e ff ff ff       	callq  a654 <crc32_8bytes>
    a716:	83 7d ec 00          	cmpl   $0x0,-0x14(%rbp)
    a71a:	74 22                	je     a73e <transparent_crc+0x4b>
    a71c:	8b 05 fe 08 01 00    	mov    0x108fe(%rip),%eax        # 1b020 <crc32_context>
    a722:	f7 d0                	not    %eax
    a724:	89 c2                	mov    %eax,%edx
    a726:	48 8b 45 f0          	mov    -0x10(%rbp),%rax
    a72a:	48 89 c6             	mov    %rax,%rsi
    a72d:	48 8d 3d fc b8 00 00 	lea    0xb8fc(%rip),%rdi        # 16030 <_IO_stdin_used+0x30>
    a734:	b8 00 00 00 00       	mov    $0x0,%eax
    a739:	e8 42 e9 ff ff       	callq  9080 <printf@plt>
    a73e:	90                   	nop
    a73f:	c9                   	leaveq 
    a740:	c3                   	retq   

000000000000a741 <transparent_crc_bytes>:
    a741:	f3 0f 1e fa          	endbr64 
    a745:	55                   	push   %rbp
    a746:	48 89 e5             	mov    %rsp,%rbp
    a749:	48 83 ec 30          	sub    $0x30,%rsp
    a74d:	48 89 7d e8          	mov    %rdi,-0x18(%rbp)
    a751:	89 75 e4             	mov    %esi,-0x1c(%rbp)
    a754:	48 89 55 d8          	mov    %rdx,-0x28(%rbp)
    a758:	89 4d e0             	mov    %ecx,-0x20(%rbp)
    a75b:	c7 45 fc 00 00 00 00 	movl   $0x0,-0x4(%rbp)
    a762:	eb 1e                	jmp    a782 <transparent_crc_bytes+0x41>
    a764:	8b 45 fc             	mov    -0x4(%rbp),%eax
    a767:	48 63 d0             	movslq %eax,%rdx
    a76a:	48 8b 45 e8          	mov    -0x18(%rbp),%rax
    a76e:	48 01 d0             	add    %rdx,%rax
    a771:	0f b6 00             	movzbl (%rax),%eax
    a774:	0f b6 c0             	movzbl %al,%eax
    a777:	89 c7                	mov    %eax,%edi
    a779:	e8 90 fe ff ff       	callq  a60e <crc32_byte>
    a77e:	83 45 fc 01          	addl   $0x1,-0x4(%rbp)
    a782:	8b 45 fc             	mov    -0x4(%rbp),%eax
    a785:	3b 45 e4             	cmp    -0x1c(%rbp),%eax
    a788:	7c da                	jl     a764 <transparent_crc_bytes+0x23>
    a78a:	83 7d e0 00          	cmpl   $0x0,-0x20(%rbp)
    a78e:	74 22                	je     a7b2 <transparent_crc_bytes+0x71>
    a790:	8b 05 8a 08 01 00    	mov    0x1088a(%rip),%eax        # 1b020 <crc32_context>
    a796:	f7 d0                	not    %eax
    a798:	89 c2                	mov    %eax,%edx
    a79a:	48 8b 45 d8          	mov    -0x28(%rbp),%rax
    a79e:	48 89 c6             	mov    %rax,%rsi
    a7a1:	48 8d 3d 88 b8 00 00 	lea    0xb888(%rip),%rdi        # 16030 <_IO_stdin_used+0x30>
    a7a8:	b8 00 00 00 00       	mov    $0x0,%eax
    a7ad:	e8 ce e8 ff ff       	callq  9080 <printf@plt>
    a7b2:	90                   	nop
    a7b3:	c9                   	leaveq 
    a7b4:	c3                   	retq   

000000000000a7b5 <func_1>:
    a7b5:	f3 0f 1e fa          	endbr64 
    a7b9:	55                   	push   %rbp
    a7ba:	48 89 e5             	mov    %rsp,%rbp
    a7bd:	48 81 ec b0 05 00 00 	sub    $0x5b0,%rsp
    a7c4:	64 48 8b 04 25 28 00 	mov    %fs:0x28,%rax
    a7cb:	00 00 
    a7cd:	48 89 45 f8          	mov    %rax,-0x8(%rbp)
    a7d1:	31 c0                	xor    %eax,%eax
    a7d3:	66 c7 85 5a fa ff ff 	movw   $0xbacd,-0x5a6(%rbp)
    a7da:	cd ba 
    a7dc:	c6 85 59 fa ff ff 89 	movb   $0x89,-0x5a7(%rbp)
    a7e3:	48 c7 85 a0 fa ff ff 	movq   $0x0,-0x560(%rbp)
    a7ea:	00 00 00 00 
    a7ee:	48 8d 05 6d b8 00 00 	lea    0xb86d(%rip),%rax        # 16062 <g_592+0x1>
    a7f5:	48 89 85 a8 fa ff ff 	mov    %rax,-0x558(%rbp)
    a7fc:	48 8d 05 21 08 01 00 	lea    0x10821(%rip),%rax        # 1b024 <g_17>
    a803:	48 89 85 b0 fa ff ff 	mov    %rax,-0x550(%rbp)
    a80a:	48 8d 05 7f 0e 01 00 	lea    0x10e7f(%rip),%rax        # 1b690 <g_611>
    a811:	48 89 85 b8 fa ff ff 	mov    %rax,-0x548(%rbp)
    a818:	48 8d 05 71 39 01 00 	lea    0x13971(%rip),%rax        # 1e190 <g_624>
    a81f:	48 89 85 c0 fa ff ff 	mov    %rax,-0x540(%rbp)
    a826:	48 c7 85 c8 fa ff ff 	movq   $0x0,-0x538(%rbp)
    a82d:	00 00 00 00 
    a831:	48 8d 05 78 4c 01 00 	lea    0x14c78(%rip),%rax        # 1f4b0 <g_1284>
    a838:	48 89 85 80 fa ff ff 	mov    %rax,-0x580(%rbp)
    a83f:	48 8d 85 80 fa ff ff 	lea    -0x580(%rbp),%rax
    a846:	48 89 85 d0 fa ff ff 	mov    %rax,-0x530(%rbp)
    a84d:	c7 85 64 fa ff ff 07 	movl   $0x7,-0x59c(%rbp)
    a854:	00 00 00 
    a857:	48 8d 05 9a 0f 01 00 	lea    0x10f9a(%rip),%rax        # 1b7f8 <g_1087>
    a85e:	48 89 85 d8 fa ff ff 	mov    %rax,-0x528(%rbp)
    a865:	48 8d 05 8c 0f 01 00 	lea    0x10f8c(%rip),%rax        # 1b7f8 <g_1087>
    a86c:	48 89 85 e0 fa ff ff 	mov    %rax,-0x520(%rbp)
    a873:	48 8d 05 7e 0f 01 00 	lea    0x10f7e(%rip),%rax        # 1b7f8 <g_1087>
    a87a:	48 89 85 e8 fa ff ff 	mov    %rax,-0x518(%rbp)
    a881:	48 8d 05 70 0f 01 00 	lea    0x10f70(%rip),%rax        # 1b7f8 <g_1087>
    a888:	48 89 85 f0 fa ff ff 	mov    %rax,-0x510(%rbp)
    a88f:	48 c7 85 f8 fa ff ff 	movq   $0x0,-0x508(%rbp)
    a896:	00 00 00 00 
    a89a:	48 c7 85 00 fb ff ff 	movq   $0x0,-0x500(%rbp)
    a8a1:	00 00 00 00 
    a8a5:	48 8d 05 4c 0f 01 00 	lea    0x10f4c(%rip),%rax        # 1b7f8 <g_1087>
    a8ac:	48 89 85 08 fb ff ff 	mov    %rax,-0x4f8(%rbp)
    a8b3:	48 b8 e0 fa 92 3d fa 	movabs $0x771126fa3d92fae0,%rax
    a8ba:	26 11 77 
    a8bd:	48 89 85 10 fb ff ff 	mov    %rax,-0x4f0(%rbp)
    a8c4:	c7 85 68 fa ff ff f5 	movl   $0x222e9ff5,-0x598(%rbp)
    a8cb:	9f 2e 22 
    a8ce:	c7 85 6c fa ff ff f9 	movl   $0xfffffff9,-0x594(%rbp)
    a8d5:	ff ff ff 
    a8d8:	c7 85 70 fa ff ff da 	movl   $0x53810bda,-0x590(%rbp)
    a8df:	0b 81 53 
    a8e2:	48 b8 dc 47 c0 f3 89 	movabs $0x22292189f3c047dc,%rax
    a8e9:	21 29 22 
    a8ec:	48 89 85 18 fb ff ff 	mov    %rax,-0x4e8(%rbp)
    a8f3:	48 c7 85 88 fa ff ff 	movq   $0x0,-0x578(%rbp)
    a8fa:	00 00 00 00 
    a8fe:	48 c7 85 20 fb ff ff 	movq   $0xfffffffffffffff8,-0x4e0(%rbp)
    a905:	f8 ff ff ff 
    a909:	48 b8 0c d4 ab 3d 1e 	movabs $0xf6f3c01e3dabd40c,%rax
    a910:	c0 f3 f6 
    a913:	48 89 85 90 fa ff ff 	mov    %rax,-0x570(%rbp)
    a91a:	48 8d 05 27 2f 01 00 	lea    0x12f27(%rip),%rax        # 1d848 <g_153>
    a921:	48 89 85 28 fb ff ff 	mov    %rax,-0x4d8(%rbp)
    a928:	c7 85 74 fa ff ff 3b 	movl   $0xbf9703b,-0x58c(%rbp)
    a92f:	70 f9 0b 
    a932:	c7 85 78 fa ff ff 2c 	movl   $0xdd3aec2c,-0x588(%rbp)
    a939:	ec 3a dd 
    a93c:	48 b8 2d e9 54 a5 93 	movabs $0x52cd4393a554e92d,%rax
    a943:	43 cd 52 
    a946:	48 89 85 30 fb ff ff 	mov    %rax,-0x4d0(%rbp)
    a94d:	c7 85 7c fa ff ff 06 	movl   $0x53c54306,-0x584(%rbp)
    a954:	43 c5 53 
    a957:	48 c7 85 38 fb ff ff 	movq   $0x0,-0x4c8(%rbp)
    a95e:	00 00 00 00 
    a962:	48 8d 05 77 2e 01 00 	lea    0x12e77(%rip),%rax        # 1d7e0 <g_61>
    a969:	48 89 85 98 fa ff ff 	mov    %rax,-0x568(%rbp)
    a970:	48 c7 85 90 fc ff ff 	movq   $0x0,-0x370(%rbp)
    a977:	00 00 00 00 
    a97b:	48 8d 85 98 fa ff ff 	lea    -0x568(%rbp),%rax
    a982:	48 89 85 98 fc ff ff 	mov    %rax,-0x368(%rbp)
    a989:	48 8d 85 98 fa ff ff 	lea    -0x568(%rbp),%rax
    a990:	48 89 85 a0 fc ff ff 	mov    %rax,-0x360(%rbp)
    a997:	48 8d 85 98 fa ff ff 	lea    -0x568(%rbp),%rax
    a99e:	48 89 85 a8 fc ff ff 	mov    %rax,-0x358(%rbp)
    a9a5:	48 8d 85 98 fa ff ff 	lea    -0x568(%rbp),%rax
    a9ac:	48 89 85 b0 fc ff ff 	mov    %rax,-0x350(%rbp)
    a9b3:	48 8d 85 98 fa ff ff 	lea    -0x568(%rbp),%rax
    a9ba:	48 89 85 b8 fc ff ff 	mov    %rax,-0x348(%rbp)
    a9c1:	48 8d 85 98 fa ff ff 	lea    -0x568(%rbp),%rax
    a9c8:	48 89 85 c0 fc ff ff 	mov    %rax,-0x340(%rbp)
    a9cf:	48 8d 85 98 fa ff ff 	lea    -0x568(%rbp),%rax
    a9d6:	48 89 85 c8 fc ff ff 	mov    %rax,-0x338(%rbp)
    a9dd:	48 c7 85 d0 fc ff ff 	movq   $0x0,-0x330(%rbp)
    a9e4:	00 00 00 00 
    a9e8:	48 c7 85 d8 fc ff ff 	movq   $0x0,-0x328(%rbp)
    a9ef:	00 00 00 00 
    a9f3:	48 8d 85 98 fa ff ff 	lea    -0x568(%rbp),%rax
    a9fa:	48 89 85 e0 fc ff ff 	mov    %rax,-0x320(%rbp)
    aa01:	48 8d 85 98 fa ff ff 	lea    -0x568(%rbp),%rax
    aa08:	48 89 85 e8 fc ff ff 	mov    %rax,-0x318(%rbp)
    aa0f:	48 c7 85 f0 fc ff ff 	movq   $0x0,-0x310(%rbp)
    aa16:	00 00 00 00 
    aa1a:	48 8d 85 98 fa ff ff 	lea    -0x568(%rbp),%rax
    aa21:	48 89 85 f8 fc ff ff 	mov    %rax,-0x308(%rbp)
    aa28:	48 8d 85 98 fa ff ff 	lea    -0x568(%rbp),%rax
    aa2f:	48 89 85 00 fd ff ff 	mov    %rax,-0x300(%rbp)
    aa36:	48 8d 85 98 fa ff ff 	lea    -0x568(%rbp),%rax
    aa3d:	48 89 85 08 fd ff ff 	mov    %rax,-0x2f8(%rbp)
    aa44:	48 8d 85 98 fa ff ff 	lea    -0x568(%rbp),%rax
    aa4b:	48 89 85 10 fd ff ff 	mov    %rax,-0x2f0(%rbp)
    aa52:	48 8d 85 98 fa ff ff 	lea    -0x568(%rbp),%rax
    aa59:	48 89 85 18 fd ff ff 	mov    %rax,-0x2e8(%rbp)
    aa60:	48 8d 85 98 fa ff ff 	lea    -0x568(%rbp),%rax
    aa67:	48 89 85 20 fd ff ff 	mov    %rax,-0x2e0(%rbp)
    aa6e:	48 8d 85 98 fa ff ff 	lea    -0x568(%rbp),%rax
    aa75:	48 89 85 28 fd ff ff 	mov    %rax,-0x2d8(%rbp)
    aa7c:	48 8d 85 98 fa ff ff 	lea    -0x568(%rbp),%rax
    aa83:	48 89 85 30 fd ff ff 	mov    %rax,-0x2d0(%rbp)
    aa8a:	48 8d 85 98 fa ff ff 	lea    -0x568(%rbp),%rax
    aa91:	48 89 85 38 fd ff ff 	mov    %rax,-0x2c8(%rbp)
    aa98:	48 8d 85 98 fa ff ff 	lea    -0x568(%rbp),%rax
    aa9f:	48 89 85 40 fd ff ff 	mov    %rax,-0x2c0(%rbp)
    aaa6:	48 8d 85 98 fa ff ff 	lea    -0x568(%rbp),%rax
    aaad:	48 89 85 48 fd ff ff 	mov    %rax,-0x2b8(%rbp)
    aab4:	48 c7 85 50 fd ff ff 	movq   $0x0,-0x2b0(%rbp)
    aabb:	00 00 00 00 
    aabf:	48 8d 85 98 fa ff ff 	lea    -0x568(%rbp),%rax
    aac6:	48 89 85 58 fd ff ff 	mov    %rax,-0x2a8(%rbp)
    aacd:	48 8d 85 98 fa ff ff 	lea    -0x568(%rbp),%rax
    aad4:	48 89 85 60 fd ff ff 	mov    %rax,-0x2a0(%rbp)
    aadb:	48 8d 85 98 fa ff ff 	lea    -0x568(%rbp),%rax
    aae2:	48 89 85 68 fd ff ff 	mov    %rax,-0x298(%rbp)
    aae9:	48 8d 85 98 fa ff ff 	lea    -0x568(%rbp),%rax
    aaf0:	48 89 85 70 fd ff ff 	mov    %rax,-0x290(%rbp)
    aaf7:	48 8d 85 98 fa ff ff 	lea    -0x568(%rbp),%rax
    aafe:	48 89 85 78 fd ff ff 	mov    %rax,-0x288(%rbp)
    ab05:	48 8d 85 98 fa ff ff 	lea    -0x568(%rbp),%rax
    ab0c:	48 89 85 80 fd ff ff 	mov    %rax,-0x280(%rbp)
    ab13:	48 c7 85 88 fd ff ff 	movq   $0x0,-0x278(%rbp)
    ab1a:	00 00 00 00 
    ab1e:	48 8d 85 98 fa ff ff 	lea    -0x568(%rbp),%rax
    ab25:	48 89 85 90 fd ff ff 	mov    %rax,-0x270(%rbp)
    ab2c:	48 8d 85 98 fa ff ff 	lea    -0x568(%rbp),%rax
    ab33:	48 89 85 98 fd ff ff 	mov    %rax,-0x268(%rbp)
    ab3a:	48 8d 85 98 fa ff ff 	lea    -0x568(%rbp),%rax
    ab41:	48 89 85 a0 fd ff ff 	mov    %rax,-0x260(%rbp)
    ab48:	48 c7 85 a8 fd ff ff 	movq   $0x0,-0x258(%rbp)
    ab4f:	00 00 00 00 
    ab53:	48 c7 85 b0 fd ff ff 	movq   $0x0,-0x250(%rbp)
    ab5a:	00 00 00 00 
    ab5e:	48 c7 85 b8 fd ff ff 	movq   $0x0,-0x248(%rbp)
    ab65:	00 00 00 00 
    ab69:	48 8d 85 98 fa ff ff 	lea    -0x568(%rbp),%rax
    ab70:	48 89 85 c0 fd ff ff 	mov    %rax,-0x240(%rbp)
    ab77:	48 8d 85 98 fa ff ff 	lea    -0x568(%rbp),%rax
    ab7e:	48 89 85 c8 fd ff ff 	mov    %rax,-0x238(%rbp)
    ab85:	48 c7 85 d0 fd ff ff 	movq   $0x0,-0x230(%rbp)
    ab8c:	00 00 00 00 
    ab90:	48 8d 85 98 fa ff ff 	lea    -0x568(%rbp),%rax
    ab97:	48 89 85 d8 fd ff ff 	mov    %rax,-0x228(%rbp)
    ab9e:	48 8d 85 98 fa ff ff 	lea    -0x568(%rbp),%rax
    aba5:	48 89 85 e0 fd ff ff 	mov    %rax,-0x220(%rbp)
    abac:	48 8d 85 98 fa ff ff 	lea    -0x568(%rbp),%rax
    abb3:	48 89 85 e8 fd ff ff 	mov    %rax,-0x218(%rbp)
    abba:	48 c7 85 f0 fd ff ff 	movq   $0x0,-0x210(%rbp)
    abc1:	00 00 00 00 
    abc5:	48 8d 85 98 fa ff ff 	lea    -0x568(%rbp),%rax
    abcc:	48 89 85 f8 fd ff ff 	mov    %rax,-0x208(%rbp)
    abd3:	48 c7 85 00 fe ff ff 	movq   $0x0,-0x200(%rbp)
    abda:	00 00 00 00 
    abde:	48 8d 85 98 fa ff ff 	lea    -0x568(%rbp),%rax
    abe5:	48 89 85 08 fe ff ff 	mov    %rax,-0x1f8(%rbp)
    abec:	48 c7 85 10 fe ff ff 	movq   $0x0,-0x1f0(%rbp)
    abf3:	00 00 00 00 
    abf7:	48 8d 85 98 fa ff ff 	lea    -0x568(%rbp),%rax
    abfe:	48 89 85 18 fe ff ff 	mov    %rax,-0x1e8(%rbp)
    ac05:	48 c7 85 20 fe ff ff 	movq   $0x0,-0x1e0(%rbp)
    ac0c:	00 00 00 00 
    ac10:	48 c7 85 28 fe ff ff 	movq   $0x0,-0x1d8(%rbp)
    ac17:	00 00 00 00 
    ac1b:	48 8d 85 98 fa ff ff 	lea    -0x568(%rbp),%rax
    ac22:	48 89 85 30 fe ff ff 	mov    %rax,-0x1d0(%rbp)
    ac29:	48 8d 85 98 fa ff ff 	lea    -0x568(%rbp),%rax
    ac30:	48 89 85 38 fe ff ff 	mov    %rax,-0x1c8(%rbp)
    ac37:	48 8d 85 98 fa ff ff 	lea    -0x568(%rbp),%rax
    ac3e:	48 89 85 40 fe ff ff 	mov    %rax,-0x1c0(%rbp)
    ac45:	48 8d 85 98 fa ff ff 	lea    -0x568(%rbp),%rax
    ac4c:	48 89 85 48 fe ff ff 	mov    %rax,-0x1b8(%rbp)
    ac53:	48 8d 85 98 fa ff ff 	lea    -0x568(%rbp),%rax
    ac5a:	48 89 85 50 fe ff ff 	mov    %rax,-0x1b0(%rbp)
    ac61:	48 8d 85 98 fa ff ff 	lea    -0x568(%rbp),%rax
    ac68:	48 89 85 58 fe ff ff 	mov    %rax,-0x1a8(%rbp)
    ac6f:	48 8d 85 98 fa ff ff 	lea    -0x568(%rbp),%rax
    ac76:	48 89 85 60 fe ff ff 	mov    %rax,-0x1a0(%rbp)
    ac7d:	48 c7 85 68 fe ff ff 	movq   $0x0,-0x198(%rbp)
    ac84:	00 00 00 00 
    ac88:	48 c7 85 70 fe ff ff 	movq   $0x0,-0x190(%rbp)
    ac8f:	00 00 00 00 
    ac93:	48 8d 85 98 fa ff ff 	lea    -0x568(%rbp),%rax
    ac9a:	48 89 85 78 fe ff ff 	mov    %rax,-0x188(%rbp)
    aca1:	48 8d 85 98 fa ff ff 	lea    -0x568(%rbp),%rax
    aca8:	48 89 85 80 fe ff ff 	mov    %rax,-0x180(%rbp)
    acaf:	48 c7 85 88 fe ff ff 	movq   $0x0,-0x178(%rbp)
    acb6:	00 00 00 00 
    acba:	48 8d 85 98 fa ff ff 	lea    -0x568(%rbp),%rax
    acc1:	48 89 85 90 fe ff ff 	mov    %rax,-0x170(%rbp)
    acc8:	48 8d 85 98 fa ff ff 	lea    -0x568(%rbp),%rax
    accf:	48 89 85 98 fe ff ff 	mov    %rax,-0x168(%rbp)
    acd6:	48 8d 85 98 fa ff ff 	lea    -0x568(%rbp),%rax
    acdd:	48 89 85 a0 fe ff ff 	mov    %rax,-0x160(%rbp)
    ace4:	48 8d 85 98 fa ff ff 	lea    -0x568(%rbp),%rax
    aceb:	48 89 85 a8 fe ff ff 	mov    %rax,-0x158(%rbp)
    acf2:	48 8d 85 98 fa ff ff 	lea    -0x568(%rbp),%rax
    acf9:	48 89 85 b0 fe ff ff 	mov    %rax,-0x150(%rbp)
    ad00:	48 8d 85 98 fa ff ff 	lea    -0x568(%rbp),%rax
    ad07:	48 89 85 b8 fe ff ff 	mov    %rax,-0x148(%rbp)
    ad0e:	48 8d 85 98 fa ff ff 	lea    -0x568(%rbp),%rax
    ad15:	48 89 85 c0 fe ff ff 	mov    %rax,-0x140(%rbp)
    ad1c:	48 8d 85 98 fa ff ff 	lea    -0x568(%rbp),%rax
    ad23:	48 89 85 c8 fe ff ff 	mov    %rax,-0x138(%rbp)
    ad2a:	48 8d 85 98 fa ff ff 	lea    -0x568(%rbp),%rax
    ad31:	48 89 85 d0 fe ff ff 	mov    %rax,-0x130(%rbp)
    ad38:	48 8d 85 98 fa ff ff 	lea    -0x568(%rbp),%rax
    ad3f:	48 89 85 d8 fe ff ff 	mov    %rax,-0x128(%rbp)
    ad46:	48 8d 85 98 fa ff ff 	lea    -0x568(%rbp),%rax
    ad4d:	48 89 85 e0 fe ff ff 	mov    %rax,-0x120(%rbp)
    ad54:	48 c7 85 e8 fe ff ff 	movq   $0x0,-0x118(%rbp)
    ad5b:	00 00 00 00 
    ad5f:	48 8d 85 98 fa ff ff 	lea    -0x568(%rbp),%rax
    ad66:	48 89 85 f0 fe ff ff 	mov    %rax,-0x110(%rbp)
    ad6d:	48 8d 85 98 fa ff ff 	lea    -0x568(%rbp),%rax
    ad74:	48 89 85 f8 fe ff ff 	mov    %rax,-0x108(%rbp)
    ad7b:	48 8d 85 98 fa ff ff 	lea    -0x568(%rbp),%rax
    ad82:	48 89 85 00 ff ff ff 	mov    %rax,-0x100(%rbp)
    ad89:	48 8d 85 98 fa ff ff 	lea    -0x568(%rbp),%rax
    ad90:	48 89 85 08 ff ff ff 	mov    %rax,-0xf8(%rbp)
    ad97:	48 8d 85 98 fa ff ff 	lea    -0x568(%rbp),%rax
    ad9e:	48 89 85 10 ff ff ff 	mov    %rax,-0xf0(%rbp)
    ada5:	48 8d 85 98 fa ff ff 	lea    -0x568(%rbp),%rax
    adac:	48 89 85 18 ff ff ff 	mov    %rax,-0xe8(%rbp)
    adb3:	48 c7 85 20 ff ff ff 	movq   $0x0,-0xe0(%rbp)
    adba:	00 00 00 00 
    adbe:	48 8d 85 98 fa ff ff 	lea    -0x568(%rbp),%rax
    adc5:	48 89 85 28 ff ff ff 	mov    %rax,-0xd8(%rbp)
    adcc:	48 8d 85 98 fa ff ff 	lea    -0x568(%rbp),%rax
    add3:	48 89 85 30 ff ff ff 	mov    %rax,-0xd0(%rbp)
    adda:	48 8d 85 98 fa ff ff 	lea    -0x568(%rbp),%rax
    ade1:	48 89 85 38 ff ff ff 	mov    %rax,-0xc8(%rbp)
    ade8:	48 c7 85 40 ff ff ff 	movq   $0x0,-0xc0(%rbp)
    adef:	00 00 00 00 
    adf3:	48 c7 85 48 ff ff ff 	movq   $0x0,-0xb8(%rbp)
    adfa:	00 00 00 00 
    adfe:	48 c7 85 50 ff ff ff 	movq   $0x0,-0xb0(%rbp)
    ae05:	00 00 00 00 
    ae09:	48 8d 85 98 fa ff ff 	lea    -0x568(%rbp),%rax
    ae10:	48 89 85 58 ff ff ff 	mov    %rax,-0xa8(%rbp)
    ae17:	48 8d 85 98 fa ff ff 	lea    -0x568(%rbp),%rax
    ae1e:	48 89 85 60 ff ff ff 	mov    %rax,-0xa0(%rbp)
    ae25:	48 c7 85 68 ff ff ff 	movq   $0x0,-0x98(%rbp)
    ae2c:	00 00 00 00 
    ae30:	48 8d 85 98 fa ff ff 	lea    -0x568(%rbp),%rax
    ae37:	48 89 85 70 ff ff ff 	mov    %rax,-0x90(%rbp)
    ae3e:	48 8d 85 98 fa ff ff 	lea    -0x568(%rbp),%rax
    ae45:	48 89 85 78 ff ff ff 	mov    %rax,-0x88(%rbp)
    ae4c:	48 c7 45 80 00 00 00 	movq   $0x0,-0x80(%rbp)
    ae53:	00 
    ae54:	48 c7 45 88 00 00 00 	movq   $0x0,-0x78(%rbp)
    ae5b:	00 
    ae5c:	48 8d 85 98 fa ff ff 	lea    -0x568(%rbp),%rax
    ae63:	48 89 45 90          	mov    %rax,-0x70(%rbp)
    ae67:	48 8d 85 98 fa ff ff 	lea    -0x568(%rbp),%rax
    ae6e:	48 89 45 98          	mov    %rax,-0x68(%rbp)
    ae72:	48 8d 85 98 fa ff ff 	lea    -0x568(%rbp),%rax
    ae79:	48 89 45 a0          	mov    %rax,-0x60(%rbp)
    ae7d:	48 8d 85 98 fa ff ff 	lea    -0x568(%rbp),%rax
    ae84:	48 89 45 a8          	mov    %rax,-0x58(%rbp)
    ae88:	48 8d 85 98 fa ff ff 	lea    -0x568(%rbp),%rax
    ae8f:	48 89 45 b0          	mov    %rax,-0x50(%rbp)
    ae93:	48 c7 45 b8 00 00 00 	movq   $0x0,-0x48(%rbp)
    ae9a:	00 
    ae9b:	48 8d 85 98 fa ff ff 	lea    -0x568(%rbp),%rax
    aea2:	48 89 45 c0          	mov    %rax,-0x40(%rbp)
    aea6:	48 8d 85 98 fa ff ff 	lea    -0x568(%rbp),%rax
    aead:	48 89 45 c8          	mov    %rax,-0x38(%rbp)
    aeb1:	48 8d 85 98 fa ff ff 	lea    -0x568(%rbp),%rax
    aeb8:	48 89 45 d0          	mov    %rax,-0x30(%rbp)
    aebc:	48 8d 85 98 fa ff ff 	lea    -0x568(%rbp),%rax
    aec3:	48 89 45 d8          	mov    %rax,-0x28(%rbp)
    aec7:	48 c7 45 e0 00 00 00 	movq   $0x0,-0x20(%rbp)
    aece:	00 
    aecf:	48 c7 45 e8 00 00 00 	movq   $0x0,-0x18(%rbp)
    aed6:	00 
    aed7:	48 8d 05 ca 0c 01 00 	lea    0x10cca(%rip),%rax        # 1bba8 <g_3455+0x28>
    aede:	48 89 85 40 fb ff ff 	mov    %rax,-0x4c0(%rbp)
    aee5:	66 c7 85 5c fa ff ff 	movw   $0x1,-0x5a4(%rbp)
    aeec:	01 00 
    aeee:	48 8d 05 8b 45 01 00 	lea    0x1458b(%rip),%rax        # 1f480 <g_652>
    aef5:	48 89 85 48 fb ff ff 	mov    %rax,-0x4b8(%rbp)
    aefc:	48 8d 95 a0 fb ff ff 	lea    -0x460(%rbp),%rdx
    af03:	b8 00 00 00 00       	mov    $0x0,%eax
    af08:	b9 1e 00 00 00       	mov    $0x1e,%ecx
    af0d:	48 89 d7             	mov    %rdx,%rdi
    af10:	f3 48 ab             	rep stos %rax,%es:(%rdi)
    af13:	48 8d 05 96 3c 01 00 	lea    0x13c96(%rip),%rax        # 1ebb0 <g_2348>
    af1a:	48 89 85 50 fb ff ff 	mov    %rax,-0x4b0(%rbp)
    af21:	48 8d 05 88 3c 01 00 	lea    0x13c88(%rip),%rax        # 1ebb0 <g_2348>
    af28:	48 89 85 58 fb ff ff 	mov    %rax,-0x4a8(%rbp)
    af2f:	48 8d 05 7a 3c 01 00 	lea    0x13c7a(%rip),%rax        # 1ebb0 <g_2348>
    af36:	48 89 85 60 fb ff ff 	mov    %rax,-0x4a0(%rbp)
    af3d:	48 8d 05 6c 3c 01 00 	lea    0x13c6c(%rip),%rax        # 1ebb0 <g_2348>
    af44:	48 89 85 68 fb ff ff 	mov    %rax,-0x498(%rbp)
    af4b:	66 c7 85 5e fa ff ff 	movw   $0xfff9,-0x5a2(%rbp)
    af52:	f9 ff 
    af54:	c7 85 60 fa ff ff 00 	movl   $0x0,-0x5a0(%rbp)
    af5b:	00 00 00 
    af5e:	eb 1b                	jmp    af7b <func_1+0x7c6>
    af60:	8b 85 60 fa ff ff    	mov    -0x5a0(%rbp),%eax
    af66:	48 98                	cltq   
    af68:	48 c7 84 c5 70 fb ff 	movq   $0xfffffffffffffff6,-0x490(%rbp,%rax,8)
    af6f:	ff f6 ff ff ff 
    af74:	83 85 60 fa ff ff 01 	addl   $0x1,-0x5a0(%rbp)
    af7b:	83 bd 60 fa ff ff 04 	cmpl   $0x4,-0x5a0(%rbp)
    af82:	7e dc                	jle    af60 <func_1+0x7ab>
    af84:	8b 05 9e 01 01 00    	mov    0x1019e(%rip),%eax        # 1b128 <g_376>
    af8a:	48 8b 75 f8          	mov    -0x8(%rbp),%rsi
    af8e:	64 48 33 34 25 28 00 	xor    %fs:0x28,%rsi
    af95:	00 00 
    af97:	74 05                	je     af9e <func_1+0x7e9>
    af99:	e8 d2 e0 ff ff       	callq  9070 <__stack_chk_fail@plt>
    af9e:	c9                   	leaveq 
    af9f:	c3                   	retq   

000000000000afa0 <func_2>:
    afa0:	f3 0f 1e fa          	endbr64 
    afa4:	55                   	push   %rbp
    afa5:	48 89 e5             	mov    %rsp,%rbp
    afa8:	41 55                	push   %r13
    afaa:	41 54                	push   %r12
    afac:	53                   	push   %rbx
    afad:	48 81 ec f8 0b 00 00 	sub    $0xbf8,%rsp
    afb4:	89 bd 0c f4 ff ff    	mov    %edi,-0xbf4(%rbp)
    afba:	89 f0                	mov    %esi,%eax
    afbc:	48 89 95 00 f4 ff ff 	mov    %rdx,-0xc00(%rbp)
    afc3:	89 8d fc f3 ff ff    	mov    %ecx,-0xc04(%rbp)
    afc9:	66 89 85 08 f4 ff ff 	mov    %ax,-0xbf8(%rbp)
    afd0:	64 48 8b 04 25 28 00 	mov    %fs:0x28,%rax
    afd7:	00 00 
    afd9:	48 89 45 d8          	mov    %rax,-0x28(%rbp)
    afdd:	31 c0                	xor    %eax,%eax
    afdf:	48 8d 05 ea 31 01 00 	lea    0x131ea(%rip),%rax        # 1e1d0 <g_880>
    afe6:	48 89 85 d8 f4 ff ff 	mov    %rax,-0xb28(%rbp)
    afed:	c7 85 28 f4 ff ff 0e 	movl   $0x83be080e,-0xbd8(%rbp)
    aff4:	08 be 83 
    aff7:	48 c7 85 e0 f4 ff ff 	movq   $0x0,-0xb20(%rbp)
    affe:	00 00 00 00 
    b002:	48 8d 05 d7 27 01 00 	lea    0x127d7(%rip),%rax        # 1d7e0 <g_61>
    b009:	48 89 85 f0 f6 ff ff 	mov    %rax,-0x910(%rbp)
    b010:	48 8d 85 e0 f4 ff ff 	lea    -0xb20(%rbp),%rax
    b017:	48 89 85 f8 f6 ff ff 	mov    %rax,-0x908(%rbp)
    b01e:	48 8d 85 e0 f4 ff ff 	lea    -0xb20(%rbp),%rax
    b025:	48 89 85 00 f7 ff ff 	mov    %rax,-0x900(%rbp)
    b02c:	48 8d 05 ad 27 01 00 	lea    0x127ad(%rip),%rax        # 1d7e0 <g_61>
    b033:	48 89 85 08 f7 ff ff 	mov    %rax,-0x8f8(%rbp)
    b03a:	48 8d 85 e0 f4 ff ff 	lea    -0xb20(%rbp),%rax
    b041:	48 89 85 10 f7 ff ff 	mov    %rax,-0x8f0(%rbp)
    b048:	48 8d 85 e0 f4 ff ff 	lea    -0xb20(%rbp),%rax
    b04f:	48 89 85 18 f7 ff ff 	mov    %rax,-0x8e8(%rbp)
    b056:	48 8d 05 83 27 01 00 	lea    0x12783(%rip),%rax        # 1d7e0 <g_61>
    b05d:	48 89 85 20 f7 ff ff 	mov    %rax,-0x8e0(%rbp)
    b064:	48 8d 85 e0 f4 ff ff 	lea    -0xb20(%rbp),%rax
    b06b:	48 89 85 28 f7 ff ff 	mov    %rax,-0x8d8(%rbp)
    b072:	48 8d 85 f0 f6 ff ff 	lea    -0x910(%rbp),%rax
    b079:	48 83 c0 38          	add    $0x38,%rax
    b07d:	48 89 85 40 f5 ff ff 	mov    %rax,-0xac0(%rbp)
    b084:	c7 85 50 f4 ff ff ff 	movl   $0xffffffff,-0xbb0(%rbp)
    b08b:	ff ff ff 
    b08e:	48 8d 05 fb 09 01 00 	lea    0x109fb(%rip),%rax        # 1ba90 <g_2213>
    b095:	48 89 85 10 f9 ff ff 	mov    %rax,-0x6f0(%rbp)
    b09c:	48 8d 05 ed 09 01 00 	lea    0x109ed(%rip),%rax        # 1ba90 <g_2213>
    b0a3:	48 89 85 18 f9 ff ff 	mov    %rax,-0x6e8(%rbp)
    b0aa:	48 8d 05 df 09 01 00 	lea    0x109df(%rip),%rax        # 1ba90 <g_2213>
    b0b1:	48 89 85 20 f9 ff ff 	mov    %rax,-0x6e0(%rbp)
    b0b8:	48 8d 05 d1 09 01 00 	lea    0x109d1(%rip),%rax        # 1ba90 <g_2213>
    b0bf:	48 89 85 28 f9 ff ff 	mov    %rax,-0x6d8(%rbp)
    b0c6:	48 8d 05 c3 09 01 00 	lea    0x109c3(%rip),%rax        # 1ba90 <g_2213>
    b0cd:	48 89 85 30 f9 ff ff 	mov    %rax,-0x6d0(%rbp)
    b0d4:	48 8d 05 b5 09 01 00 	lea    0x109b5(%rip),%rax        # 1ba90 <g_2213>
    b0db:	48 89 85 38 f9 ff ff 	mov    %rax,-0x6c8(%rbp)
    b0e2:	48 8d 05 a7 09 01 00 	lea    0x109a7(%rip),%rax        # 1ba90 <g_2213>
    b0e9:	48 89 85 40 f9 ff ff 	mov    %rax,-0x6c0(%rbp)
    b0f0:	48 8d 05 99 09 01 00 	lea    0x10999(%rip),%rax        # 1ba90 <g_2213>
    b0f7:	48 89 85 48 f9 ff ff 	mov    %rax,-0x6b8(%rbp)
    b0fe:	48 8d 05 8b 09 01 00 	lea    0x1098b(%rip),%rax        # 1ba90 <g_2213>
    b105:	48 89 85 50 f9 ff ff 	mov    %rax,-0x6b0(%rbp)
    b10c:	48 8d 05 7d 09 01 00 	lea    0x1097d(%rip),%rax        # 1ba90 <g_2213>
    b113:	48 89 85 58 f9 ff ff 	mov    %rax,-0x6a8(%rbp)
    b11a:	48 8d 05 6f 09 01 00 	lea    0x1096f(%rip),%rax        # 1ba90 <g_2213>
    b121:	48 89 85 60 f9 ff ff 	mov    %rax,-0x6a0(%rbp)
    b128:	48 8d 05 61 09 01 00 	lea    0x10961(%rip),%rax        # 1ba90 <g_2213>
    b12f:	48 89 85 68 f9 ff ff 	mov    %rax,-0x698(%rbp)
    b136:	48 8d 05 53 09 01 00 	lea    0x10953(%rip),%rax        # 1ba90 <g_2213>
    b13d:	48 89 85 70 f9 ff ff 	mov    %rax,-0x690(%rbp)
    b144:	48 8d 05 45 09 01 00 	lea    0x10945(%rip),%rax        # 1ba90 <g_2213>
    b14b:	48 89 85 78 f9 ff ff 	mov    %rax,-0x688(%rbp)
    b152:	48 8d 05 37 09 01 00 	lea    0x10937(%rip),%rax        # 1ba90 <g_2213>
    b159:	48 89 85 80 f9 ff ff 	mov    %rax,-0x680(%rbp)
    b160:	48 8d 05 29 09 01 00 	lea    0x10929(%rip),%rax        # 1ba90 <g_2213>
    b167:	48 89 85 88 f9 ff ff 	mov    %rax,-0x678(%rbp)
    b16e:	48 8d 05 1b 09 01 00 	lea    0x1091b(%rip),%rax        # 1ba90 <g_2213>
    b175:	48 89 85 90 f9 ff ff 	mov    %rax,-0x670(%rbp)
    b17c:	48 8d 05 0d 09 01 00 	lea    0x1090d(%rip),%rax        # 1ba90 <g_2213>
    b183:	48 89 85 98 f9 ff ff 	mov    %rax,-0x668(%rbp)
    b18a:	48 8d 05 ff 08 01 00 	lea    0x108ff(%rip),%rax        # 1ba90 <g_2213>
    b191:	48 89 85 a0 f9 ff ff 	mov    %rax,-0x660(%rbp)
    b198:	48 8d 05 f1 08 01 00 	lea    0x108f1(%rip),%rax        # 1ba90 <g_2213>
    b19f:	48 89 85 a8 f9 ff ff 	mov    %rax,-0x658(%rbp)
    b1a6:	48 8d 05 e3 08 01 00 	lea    0x108e3(%rip),%rax        # 1ba90 <g_2213>
    b1ad:	48 89 85 b0 f9 ff ff 	mov    %rax,-0x650(%rbp)
    b1b4:	48 8d 05 d5 08 01 00 	lea    0x108d5(%rip),%rax        # 1ba90 <g_2213>
    b1bb:	48 89 85 b8 f9 ff ff 	mov    %rax,-0x648(%rbp)
    b1c2:	48 8d 05 c7 08 01 00 	lea    0x108c7(%rip),%rax        # 1ba90 <g_2213>
    b1c9:	48 89 85 c0 f9 ff ff 	mov    %rax,-0x640(%rbp)
    b1d0:	48 8d 05 b9 08 01 00 	lea    0x108b9(%rip),%rax        # 1ba90 <g_2213>
    b1d7:	48 89 85 c8 f9 ff ff 	mov    %rax,-0x638(%rbp)
    b1de:	48 c7 85 48 f5 ff ff 	movq   $0x0,-0xab8(%rbp)
    b1e5:	00 00 00 00 
    b1e9:	48 8d 05 38 ff 00 00 	lea    0xff38(%rip),%rax        # 1b128 <g_376>
    b1f0:	48 89 85 50 f5 ff ff 	mov    %rax,-0xab0(%rbp)
    b1f7:	66 c7 85 22 f4 ff ff 	movw   $0xffff,-0xbde(%rbp)
    b1fe:	ff ff 
    b200:	48 8d 05 b1 42 01 00 	lea    0x142b1(%rip),%rax        # 1f4b8 <g_1301>
    b207:	48 89 85 e8 f4 ff ff 	mov    %rax,-0xb18(%rbp)
    b20e:	48 8d 85 e8 f4 ff ff 	lea    -0xb18(%rbp),%rax
    b215:	48 89 85 58 f5 ff ff 	mov    %rax,-0xaa8(%rbp)
    b21c:	66 c7 85 24 f4 ff ff 	movw   $0xc571,-0xbdc(%rbp)
    b223:	71 c5 
    b225:	c7 85 54 f4 ff ff 21 	movl   $0x78c02e21,-0xbac(%rbp)
    b22c:	2e c0 78 
    b22f:	48 8d 05 62 30 01 00 	lea    0x13062(%rip),%rax        # 1e298 <g_1056>
    b236:	48 89 85 f0 f4 ff ff 	mov    %rax,-0xb10(%rbp)
    b23d:	48 8d 05 54 04 01 00 	lea    0x10454(%rip),%rax        # 1b698 <g_626>
    b244:	48 89 85 f8 f4 ff ff 	mov    %rax,-0xb08(%rbp)
    b24b:	48 8d 85 80 f7 ff ff 	lea    -0x880(%rbp),%rax
    b252:	48 83 c0 40          	add    $0x40,%rax
    b256:	48 89 85 d0 fc ff ff 	mov    %rax,-0x330(%rbp)
    b25d:	48 c7 85 d8 fc ff ff 	movq   $0x0,-0x328(%rbp)
    b264:	00 00 00 00 
    b268:	48 8d 85 80 f7 ff ff 	lea    -0x880(%rbp),%rax
    b26f:	48 83 c0 18          	add    $0x18,%rax
    b273:	48 89 85 e0 fc ff ff 	mov    %rax,-0x320(%rbp)
    b27a:	48 c7 85 e8 fc ff ff 	movq   $0x0,-0x318(%rbp)
    b281:	00 00 00 00 
    b285:	48 8d 85 80 f7 ff ff 	lea    -0x880(%rbp),%rax
    b28c:	48 83 c0 08          	add    $0x8,%rax
    b290:	48 89 85 f0 fc ff ff 	mov    %rax,-0x310(%rbp)
    b297:	48 8d 85 80 f7 ff ff 	lea    -0x880(%rbp),%rax
    b29e:	48 83 c0 20          	add    $0x20,%rax
    b2a2:	48 89 85 f8 fc ff ff 	mov    %rax,-0x308(%rbp)
    b2a9:	48 8d 85 80 f7 ff ff 	lea    -0x880(%rbp),%rax
    b2b0:	48 83 c0 38          	add    $0x38,%rax
    b2b4:	48 89 85 00 fd ff ff 	mov    %rax,-0x300(%rbp)
    b2bb:	48 8d 85 80 f7 ff ff 	lea    -0x880(%rbp),%rax
    b2c2:	48 83 c0 08          	add    $0x8,%rax
    b2c6:	48 89 85 08 fd ff ff 	mov    %rax,-0x2f8(%rbp)
    b2cd:	48 8d 85 80 f7 ff ff 	lea    -0x880(%rbp),%rax
    b2d4:	48 83 c0 40          	add    $0x40,%rax
    b2d8:	48 89 85 10 fd ff ff 	mov    %rax,-0x2f0(%rbp)
    b2df:	48 c7 85 18 fd ff ff 	movq   $0x0,-0x2e8(%rbp)
    b2e6:	00 00 00 00 
    b2ea:	48 c7 85 20 fd ff ff 	movq   $0x0,-0x2e0(%rbp)
    b2f1:	00 00 00 00 
    b2f5:	48 8d 85 80 f7 ff ff 	lea    -0x880(%rbp),%rax
    b2fc:	48 83 c0 10          	add    $0x10,%rax
    b300:	48 89 85 28 fd ff ff 	mov    %rax,-0x2d8(%rbp)
    b307:	48 8d 85 80 f7 ff ff 	lea    -0x880(%rbp),%rax
    b30e:	48 83 c0 10          	add    $0x10,%rax
    b312:	48 89 85 30 fd ff ff 	mov    %rax,-0x2d0(%rbp)
    b319:	48 c7 85 38 fd ff ff 	movq   $0x0,-0x2c8(%rbp)
    b320:	00 00 00 00 
    b324:	48 8d 85 80 f7 ff ff 	lea    -0x880(%rbp),%rax
    b32b:	48 83 c0 10          	add    $0x10,%rax
    b32f:	48 89 85 40 fd ff ff 	mov    %rax,-0x2c0(%rbp)
    b336:	48 8d 85 80 f7 ff ff 	lea    -0x880(%rbp),%rax
    b33d:	48 83 c0 20          	add    $0x20,%rax
    b341:	48 89 85 48 fd ff ff 	mov    %rax,-0x2b8(%rbp)
    b348:	48 8d 85 80 f7 ff ff 	lea    -0x880(%rbp),%rax
    b34f:	48 83 c0 10          	add    $0x10,%rax
    b353:	48 89 85 50 fd ff ff 	mov    %rax,-0x2b0(%rbp)
    b35a:	48 8d 85 80 f7 ff ff 	lea    -0x880(%rbp),%rax
    b361:	48 83 c0 40          	add    $0x40,%rax
    b365:	48 89 85 58 fd ff ff 	mov    %rax,-0x2a8(%rbp)
    b36c:	48 c7 85 60 fd ff ff 	movq   $0x0,-0x2a0(%rbp)
    b373:	00 00 00 00 
    b377:	48 8d 85 80 f7 ff ff 	lea    -0x880(%rbp),%rax
    b37e:	48 83 c0 08          	add    $0x8,%rax
    b382:	48 89 85 68 fd ff ff 	mov    %rax,-0x298(%rbp)
    b389:	48 8d 85 80 f7 ff ff 	lea    -0x880(%rbp),%rax
    b390:	48 83 c0 20          	add    $0x20,%rax
    b394:	48 89 85 70 fd ff ff 	mov    %rax,-0x290(%rbp)
    b39b:	48 8d 85 80 f7 ff ff 	lea    -0x880(%rbp),%rax
    b3a2:	48 83 c0 08          	add    $0x8,%rax
    b3a6:	48 89 85 78 fd ff ff 	mov    %rax,-0x288(%rbp)
    b3ad:	48 8d 85 80 f7 ff ff 	lea    -0x880(%rbp),%rax
    b3b4:	48 83 c0 38          	add    $0x38,%rax
    b3b8:	48 89 85 80 fd ff ff 	mov    %rax,-0x280(%rbp)
    b3bf:	48 8d 85 80 f7 ff ff 	lea    -0x880(%rbp),%rax
    b3c6:	48 83 c0 18          	add    $0x18,%rax
    b3ca:	48 89 85 88 fd ff ff 	mov    %rax,-0x278(%rbp)
    b3d1:	48 8d 85 80 f7 ff ff 	lea    -0x880(%rbp),%rax
    b3d8:	48 83 c0 08          	add    $0x8,%rax
    b3dc:	48 89 85 90 fd ff ff 	mov    %rax,-0x270(%rbp)
    b3e3:	48 8d 85 80 f7 ff ff 	lea    -0x880(%rbp),%rax
    b3ea:	48 83 c0 18          	add    $0x18,%rax
    b3ee:	48 89 85 98 fd ff ff 	mov    %rax,-0x268(%rbp)
    b3f5:	48 8d 85 80 f7 ff ff 	lea    -0x880(%rbp),%rax
    b3fc:	48 83 c0 38          	add    $0x38,%rax
    b400:	48 89 85 a0 fd ff ff 	mov    %rax,-0x260(%rbp)
    b407:	48 8d 85 80 f7 ff ff 	lea    -0x880(%rbp),%rax
    b40e:	48 83 c0 08          	add    $0x8,%rax
    b412:	48 89 85 a8 fd ff ff 	mov    %rax,-0x258(%rbp)
    b419:	48 8d 85 80 f7 ff ff 	lea    -0x880(%rbp),%rax
    b420:	48 83 c0 20          	add    $0x20,%rax
    b424:	48 89 85 b0 fd ff ff 	mov    %rax,-0x250(%rbp)
    b42b:	48 8d 85 80 f7 ff ff 	lea    -0x880(%rbp),%rax
    b432:	48 83 c0 08          	add    $0x8,%rax
    b436:	48 89 85 b8 fd ff ff 	mov    %rax,-0x248(%rbp)
    b43d:	48 c7 85 c0 fd ff ff 	movq   $0x0,-0x240(%rbp)
    b444:	00 00 00 00 
    b448:	48 8d 85 80 f7 ff ff 	lea    -0x880(%rbp),%rax
    b44f:	48 83 c0 40          	add    $0x40,%rax
    b453:	48 89 85 c8 fd ff ff 	mov    %rax,-0x238(%rbp)
    b45a:	48 8d 85 80 f7 ff ff 	lea    -0x880(%rbp),%rax
    b461:	48 83 c0 10          	add    $0x10,%rax
    b465:	48 89 85 d0 fd ff ff 	mov    %rax,-0x230(%rbp)
    b46c:	48 8d 85 80 f7 ff ff 	lea    -0x880(%rbp),%rax
    b473:	48 83 c0 20          	add    $0x20,%rax
    b477:	48 89 85 d8 fd ff ff 	mov    %rax,-0x228(%rbp)
    b47e:	48 8d 85 80 f7 ff ff 	lea    -0x880(%rbp),%rax
    b485:	48 83 c0 10          	add    $0x10,%rax
    b489:	48 89 85 e0 fd ff ff 	mov    %rax,-0x220(%rbp)
    b490:	48 c7 85 e8 fd ff ff 	movq   $0x0,-0x218(%rbp)
    b497:	00 00 00 00 
    b49b:	48 8d 85 80 f7 ff ff 	lea    -0x880(%rbp),%rax
    b4a2:	48 83 c0 10          	add    $0x10,%rax
    b4a6:	48 89 85 f0 fd ff ff 	mov    %rax,-0x210(%rbp)
    b4ad:	48 8d 85 80 f7 ff ff 	lea    -0x880(%rbp),%rax
    b4b4:	48 83 c0 10          	add    $0x10,%rax
    b4b8:	48 89 85 f8 fd ff ff 	mov    %rax,-0x208(%rbp)
    b4bf:	48 c7 85 00 fe ff ff 	movq   $0x0,-0x200(%rbp)
    b4c6:	00 00 00 00 
    b4ca:	48 c7 85 08 fe ff ff 	movq   $0x0,-0x1f8(%rbp)
    b4d1:	00 00 00 00 
    b4d5:	48 8d 85 80 f7 ff ff 	lea    -0x880(%rbp),%rax
    b4dc:	48 83 c0 40          	add    $0x40,%rax
    b4e0:	48 89 85 10 fe ff ff 	mov    %rax,-0x1f0(%rbp)
    b4e7:	48 8d 85 80 f7 ff ff 	lea    -0x880(%rbp),%rax
    b4ee:	48 83 c0 08          	add    $0x8,%rax
    b4f2:	48 89 85 18 fe ff ff 	mov    %rax,-0x1e8(%rbp)
    b4f9:	48 8d 85 80 f7 ff ff 	lea    -0x880(%rbp),%rax
    b500:	48 83 c0 38          	add    $0x38,%rax
    b504:	48 89 85 20 fe ff ff 	mov    %rax,-0x1e0(%rbp)
    b50b:	48 8d 85 80 f7 ff ff 	lea    -0x880(%rbp),%rax
    b512:	48 83 c0 20          	add    $0x20,%rax
    b516:	48 89 85 28 fe ff ff 	mov    %rax,-0x1d8(%rbp)
    b51d:	48 8d 85 80 f7 ff ff 	lea    -0x880(%rbp),%rax
    b524:	48 83 c0 08          	add    $0x8,%rax
    b528:	48 89 85 30 fe ff ff 	mov    %rax,-0x1d0(%rbp)
    b52f:	48 c7 85 38 fe ff ff 	movq   $0x0,-0x1c8(%rbp)
    b536:	00 00 00 00 
    b53a:	48 8d 85 80 f7 ff ff 	lea    -0x880(%rbp),%rax
    b541:	48 83 c0 18          	add    $0x18,%rax
    b545:	48 89 85 40 fe ff ff 	mov    %rax,-0x1c0(%rbp)
    b54c:	48 c7 85 48 fe ff ff 	movq   $0x0,-0x1b8(%rbp)
    b553:	00 00 00 00 
    b557:	48 8d 85 80 f7 ff ff 	lea    -0x880(%rbp),%rax
    b55e:	48 83 c0 40          	add    $0x40,%rax
    b562:	48 89 85 50 fe ff ff 	mov    %rax,-0x1b0(%rbp)
    b569:	48 8d 85 80 f7 ff ff 	lea    -0x880(%rbp),%rax
    b570:	48 83 c0 38          	add    $0x38,%rax
    b574:	48 89 85 58 fe ff ff 	mov    %rax,-0x1a8(%rbp)
    b57b:	48 8d 85 80 f7 ff ff 	lea    -0x880(%rbp),%rax
    b582:	48 83 c0 08          	add    $0x8,%rax
    b586:	48 89 85 60 fe ff ff 	mov    %rax,-0x1a0(%rbp)
    b58d:	48 8d 85 80 f7 ff ff 	lea    -0x880(%rbp),%rax
    b594:	48 83 c0 10          	add    $0x10,%rax
    b598:	48 89 85 68 fe ff ff 	mov    %rax,-0x198(%rbp)
    b59f:	48 8d 85 80 f7 ff ff 	lea    -0x880(%rbp),%rax
    b5a6:	48 83 c0 08          	add    $0x8,%rax
    b5aa:	48 89 85 70 fe ff ff 	mov    %rax,-0x190(%rbp)
    b5b1:	48 8d 85 80 f7 ff ff 	lea    -0x880(%rbp),%rax
    b5b8:	48 83 c0 08          	add    $0x8,%rax
    b5bc:	48 89 85 78 fe ff ff 	mov    %rax,-0x188(%rbp)
    b5c3:	48 c7 85 80 fe ff ff 	movq   $0x0,-0x180(%rbp)
    b5ca:	00 00 00 00 
    b5ce:	48 8d 85 80 f7 ff ff 	lea    -0x880(%rbp),%rax
    b5d5:	48 83 c0 10          	add    $0x10,%rax
    b5d9:	48 89 85 88 fe ff ff 	mov    %rax,-0x178(%rbp)
    b5e0:	48 c7 85 90 fe ff ff 	movq   $0x0,-0x170(%rbp)
    b5e7:	00 00 00 00 
    b5eb:	48 8d 85 80 f7 ff ff 	lea    -0x880(%rbp),%rax
    b5f2:	48 83 c0 08          	add    $0x8,%rax
    b5f6:	48 89 85 98 fe ff ff 	mov    %rax,-0x168(%rbp)
    b5fd:	48 c7 85 a0 fe ff ff 	movq   $0x0,-0x160(%rbp)
    b604:	00 00 00 00 
    b608:	48 c7 85 a8 fe ff ff 	movq   $0x0,-0x158(%rbp)
    b60f:	00 00 00 00 
    b613:	48 8d 85 80 f7 ff ff 	lea    -0x880(%rbp),%rax
    b61a:	48 83 c0 08          	add    $0x8,%rax
    b61e:	48 89 85 b0 fe ff ff 	mov    %rax,-0x150(%rbp)
    b625:	48 c7 85 b8 fe ff ff 	movq   $0x0,-0x148(%rbp)
    b62c:	00 00 00 00 
    b630:	48 8d 85 80 f7 ff ff 	lea    -0x880(%rbp),%rax
    b637:	48 83 c0 10          	add    $0x10,%rax
    b63b:	48 89 85 c0 fe ff ff 	mov    %rax,-0x140(%rbp)
    b642:	48 c7 85 c8 fe ff ff 	movq   $0x0,-0x138(%rbp)
    b649:	00 00 00 00 
    b64d:	48 8d 85 80 f7 ff ff 	lea    -0x880(%rbp),%rax
    b654:	48 83 c0 08          	add    $0x8,%rax
    b658:	48 89 85 d0 fe ff ff 	mov    %rax,-0x130(%rbp)
    b65f:	48 8d 85 80 f7 ff ff 	lea    -0x880(%rbp),%rax
    b666:	48 83 c0 08          	add    $0x8,%rax
    b66a:	48 89 85 d8 fe ff ff 	mov    %rax,-0x128(%rbp)
    b671:	48 8d 85 80 f7 ff ff 	lea    -0x880(%rbp),%rax
    b678:	48 83 c0 10          	add    $0x10,%rax
    b67c:	48 89 85 e0 fe ff ff 	mov    %rax,-0x120(%rbp)
    b683:	48 8d 85 80 f7 ff ff 	lea    -0x880(%rbp),%rax
    b68a:	48 83 c0 08          	add    $0x8,%rax
    b68e:	48 89 85 e8 fe ff ff 	mov    %rax,-0x118(%rbp)
    b695:	48 8d 85 80 f7 ff ff 	lea    -0x880(%rbp),%rax
    b69c:	48 83 c0 38          	add    $0x38,%rax
    b6a0:	48 89 85 f0 fe ff ff 	mov    %rax,-0x110(%rbp)
    b6a7:	48 8d 85 80 f7 ff ff 	lea    -0x880(%rbp),%rax
    b6ae:	48 83 c0 40          	add    $0x40,%rax
    b6b2:	48 89 85 f8 fe ff ff 	mov    %rax,-0x108(%rbp)
    b6b9:	48 c7 85 00 ff ff ff 	movq   $0x0,-0x100(%rbp)
    b6c0:	00 00 00 00 
    b6c4:	48 8d 85 80 f7 ff ff 	lea    -0x880(%rbp),%rax
    b6cb:	48 83 c0 18          	add    $0x18,%rax
    b6cf:	48 89 85 08 ff ff ff 	mov    %rax,-0xf8(%rbp)
    b6d6:	48 c7 85 10 ff ff ff 	movq   $0x0,-0xf0(%rbp)
    b6dd:	00 00 00 00 
    b6e1:	48 8d 85 80 f7 ff ff 	lea    -0x880(%rbp),%rax
    b6e8:	48 83 c0 08          	add    $0x8,%rax
    b6ec:	48 89 85 18 ff ff ff 	mov    %rax,-0xe8(%rbp)
    b6f3:	48 8d 85 80 f7 ff ff 	lea    -0x880(%rbp),%rax
    b6fa:	48 83 c0 20          	add    $0x20,%rax
    b6fe:	48 89 85 20 ff ff ff 	mov    %rax,-0xe0(%rbp)
    b705:	48 8d 85 80 f7 ff ff 	lea    -0x880(%rbp),%rax
    b70c:	48 83 c0 38          	add    $0x38,%rax
    b710:	48 89 85 28 ff ff ff 	mov    %rax,-0xd8(%rbp)
    b717:	48 8d 85 80 f7 ff ff 	lea    -0x880(%rbp),%rax
    b71e:	48 83 c0 08          	add    $0x8,%rax
    b722:	48 89 85 30 ff ff ff 	mov    %rax,-0xd0(%rbp)
    b729:	48 8d 85 80 f7 ff ff 	lea    -0x880(%rbp),%rax
    b730:	48 83 c0 40          	add    $0x40,%rax
    b734:	48 89 85 38 ff ff ff 	mov    %rax,-0xc8(%rbp)
    b73b:	48 c7 85 40 ff ff ff 	movq   $0x0,-0xc0(%rbp)
    b742:	00 00 00 00 
    b746:	48 c7 85 48 ff ff ff 	movq   $0x0,-0xb8(%rbp)
    b74d:	00 00 00 00 
    b751:	48 8d 85 80 f7 ff ff 	lea    -0x880(%rbp),%rax
    b758:	48 83 c0 10          	add    $0x10,%rax
    b75c:	48 89 85 50 ff ff ff 	mov    %rax,-0xb0(%rbp)
    b763:	48 8d 85 80 f7 ff ff 	lea    -0x880(%rbp),%rax
    b76a:	48 83 c0 10          	add    $0x10,%rax
    b76e:	48 89 85 58 ff ff ff 	mov    %rax,-0xa8(%rbp)
    b775:	48 c7 85 60 ff ff ff 	movq   $0x0,-0xa0(%rbp)
    b77c:	00 00 00 00 
    b780:	48 8d 85 80 f7 ff ff 	lea    -0x880(%rbp),%rax
    b787:	48 83 c0 10          	add    $0x10,%rax
    b78b:	48 89 85 68 ff ff ff 	mov    %rax,-0x98(%rbp)
    b792:	48 8d 85 80 f7 ff ff 	lea    -0x880(%rbp),%rax
    b799:	48 83 c0 20          	add    $0x20,%rax
    b79d:	48 89 85 70 ff ff ff 	mov    %rax,-0x90(%rbp)
    b7a4:	48 8d 85 80 f7 ff ff 	lea    -0x880(%rbp),%rax
    b7ab:	48 83 c0 10          	add    $0x10,%rax
    b7af:	48 89 85 78 ff ff ff 	mov    %rax,-0x88(%rbp)
    b7b6:	48 8d 85 80 f7 ff ff 	lea    -0x880(%rbp),%rax
    b7bd:	48 83 c0 40          	add    $0x40,%rax
    b7c1:	48 89 45 80          	mov    %rax,-0x80(%rbp)
    b7c5:	48 c7 45 88 00 00 00 	movq   $0x0,-0x78(%rbp)
    b7cc:	00 
    b7cd:	48 8d 85 80 f7 ff ff 	lea    -0x880(%rbp),%rax
    b7d4:	48 83 c0 08          	add    $0x8,%rax
    b7d8:	48 89 45 90          	mov    %rax,-0x70(%rbp)
    b7dc:	48 8d 85 80 f7 ff ff 	lea    -0x880(%rbp),%rax
    b7e3:	48 83 c0 20          	add    $0x20,%rax
    b7e7:	48 89 45 98          	mov    %rax,-0x68(%rbp)
    b7eb:	48 8d 85 80 f7 ff ff 	lea    -0x880(%rbp),%rax
    b7f2:	48 83 c0 08          	add    $0x8,%rax
    b7f6:	48 89 45 a0          	mov    %rax,-0x60(%rbp)
    b7fa:	48 8d 85 80 f7 ff ff 	lea    -0x880(%rbp),%rax
    b801:	48 83 c0 38          	add    $0x38,%rax
    b805:	48 89 45 a8          	mov    %rax,-0x58(%rbp)
    b809:	48 8d 85 80 f7 ff ff 	lea    -0x880(%rbp),%rax
    b810:	48 83 c0 18          	add    $0x18,%rax
    b814:	48 89 45 b0          	mov    %rax,-0x50(%rbp)
    b818:	48 8d 85 80 f7 ff ff 	lea    -0x880(%rbp),%rax
    b81f:	48 83 c0 08          	add    $0x8,%rax
    b823:	48 89 45 b8          	mov    %rax,-0x48(%rbp)
    b827:	48 8d 85 80 f7 ff ff 	lea    -0x880(%rbp),%rax
    b82e:	48 83 c0 18          	add    $0x18,%rax
    b832:	48 89 45 c0          	mov    %rax,-0x40(%rbp)
    b836:	48 8d 85 80 f7 ff ff 	lea    -0x880(%rbp),%rax
    b83d:	48 83 c0 38          	add    $0x38,%rax
    b841:	48 89 45 c8          	mov    %rax,-0x38(%rbp)
    b845:	48 8d 85 d0 fc ff ff 	lea    -0x330(%rbp),%rax
    b84c:	48 05 c8 02 00 00    	add    $0x2c8,%rax
    b852:	48 89 85 00 f5 ff ff 	mov    %rax,-0xb00(%rbp)
    b859:	48 8d 85 00 f5 ff ff 	lea    -0xb00(%rbp),%rax
    b860:	48 89 85 60 f5 ff ff 	mov    %rax,-0xaa0(%rbp)
    b867:	c7 85 58 f4 ff ff 00 	movl   $0x0,-0xba8(%rbp)
    b86e:	00 00 00 
    b871:	c7 85 2c f4 ff ff fd 	movl   $0xeb0942fd,-0xbd4(%rbp)
    b878:	42 09 eb 
    b87b:	48 8d 05 4e 29 01 00 	lea    0x1294e(%rip),%rax        # 1e1d0 <g_880>
    b882:	48 89 85 68 f5 ff ff 	mov    %rax,-0xa98(%rbp)
    b889:	48 c7 85 70 f5 ff ff 	movq   $0x0,-0xa90(%rbp)
    b890:	00 00 00 00 
    b894:	c7 85 5c f4 ff ff 00 	movl   $0x0,-0xba4(%rbp)
    b89b:	00 00 00 
    b89e:	c6 85 1e f4 ff ff e0 	movb   $0xe0,-0xbe2(%rbp)
    b8a5:	c7 85 34 f4 ff ff 00 	movl   $0x0,-0xbcc(%rbp)
    b8ac:	00 00 00 
    b8af:	eb 1e                	jmp    b8cf <func_2+0x92f>
    b8b1:	8b 85 34 f4 ff ff    	mov    -0xbcc(%rbp),%eax
    b8b7:	48 98                	cltq   
    b8b9:	48 8d 95 f8 f4 ff ff 	lea    -0xb08(%rbp),%rdx
    b8c0:	48 89 94 c5 80 f7 ff 	mov    %rdx,-0x880(%rbp,%rax,8)
    b8c7:	ff 
    b8c8:	83 85 34 f4 ff ff 01 	addl   $0x1,-0xbcc(%rbp)
    b8cf:	83 bd 34 f4 ff ff 09 	cmpl   $0x9,-0xbcc(%rbp)
    b8d6:	7e d9                	jle    b8b1 <func_2+0x911>
    b8d8:	66 c7 05 4f f7 00 00 	movw   $0x0,0xf74f(%rip)        # 1b030 <g_66>
    b8df:	00 00 
    b8e1:	e9 68 01 00 00       	jmpq   ba4e <func_2+0xaae>
    b8e6:	48 8d 05 f3 01 01 00 	lea    0x101f3(%rip),%rax        # 1bae0 <g_2628>
    b8ed:	48 89 85 78 f6 ff ff 	mov    %rax,-0x988(%rbp)
    b8f4:	48 8d 05 0d ff 00 00 	lea    0xff0d(%rip),%rax        # 1b808 <g_1130>
    b8fb:	48 89 85 90 fa ff ff 	mov    %rax,-0x570(%rbp)
    b902:	48 8d 05 ff fe 00 00 	lea    0xfeff(%rip),%rax        # 1b808 <g_1130>
    b909:	48 89 85 98 fa ff ff 	mov    %rax,-0x568(%rbp)
    b910:	48 8d 05 f1 fe 00 00 	lea    0xfef1(%rip),%rax        # 1b808 <g_1130>
    b917:	48 89 85 a0 fa ff ff 	mov    %rax,-0x560(%rbp)
    b91e:	48 8d 05 e3 fe 00 00 	lea    0xfee3(%rip),%rax        # 1b808 <g_1130>
    b925:	48 89 85 a8 fa ff ff 	mov    %rax,-0x558(%rbp)
    b92c:	48 8d 05 d5 fe 00 00 	lea    0xfed5(%rip),%rax        # 1b808 <g_1130>
    b933:	48 89 85 b0 fa ff ff 	mov    %rax,-0x550(%rbp)
    b93a:	48 8d 05 c7 fe 00 00 	lea    0xfec7(%rip),%rax        # 1b808 <g_1130>
    b941:	48 89 85 b8 fa ff ff 	mov    %rax,-0x548(%rbp)
    b948:	48 8d 05 b9 fe 00 00 	lea    0xfeb9(%rip),%rax        # 1b808 <g_1130>
    b94f:	48 89 85 c0 fa ff ff 	mov    %rax,-0x540(%rbp)
    b956:	48 8d 05 ab fe 00 00 	lea    0xfeab(%rip),%rax        # 1b808 <g_1130>
    b95d:	48 89 85 c8 fa ff ff 	mov    %rax,-0x538(%rbp)
    b964:	48 8d 05 9d fe 00 00 	lea    0xfe9d(%rip),%rax        # 1b808 <g_1130>
    b96b:	48 89 85 d0 fa ff ff 	mov    %rax,-0x530(%rbp)
    b972:	48 8d 05 8f fe 00 00 	lea    0xfe8f(%rip),%rax        # 1b808 <g_1130>
    b979:	48 89 85 d8 fa ff ff 	mov    %rax,-0x528(%rbp)
    b980:	48 8d 05 81 fe 00 00 	lea    0xfe81(%rip),%rax        # 1b808 <g_1130>
    b987:	48 89 85 e0 fa ff ff 	mov    %rax,-0x520(%rbp)
    b98e:	48 8d 05 73 fe 00 00 	lea    0xfe73(%rip),%rax        # 1b808 <g_1130>
    b995:	48 89 85 e8 fa ff ff 	mov    %rax,-0x518(%rbp)
    b99c:	48 8d 85 d8 f4 ff ff 	lea    -0xb28(%rbp),%rax
    b9a3:	48 89 85 80 f6 ff ff 	mov    %rax,-0x980(%rbp)
    b9aa:	c7 85 38 f4 ff ff 00 	movl   $0x0,-0xbc8(%rbp)
    b9b1:	00 00 00 
    b9b4:	eb 1b                	jmp    b9d1 <func_2+0xa31>
    b9b6:	8b 85 38 f4 ff ff    	mov    -0xbc8(%rbp),%eax
    b9bc:	48 98                	cltq   
    b9be:	48 c7 84 c5 d0 f9 ff 	movq   $0x0,-0x630(%rbp,%rax,8)
    b9c5:	ff 00 00 00 00 
    b9ca:	83 85 38 f4 ff ff 01 	addl   $0x1,-0xbc8(%rbp)
    b9d1:	83 bd 38 f4 ff ff 03 	cmpl   $0x3,-0xbc8(%rbp)
    b9d8:	7e dc                	jle    b9b6 <func_2+0xa16>
    b9da:	48 8b 85 e0 f9 ff ff 	mov    -0x620(%rbp),%rax
    b9e1:	48 83 e8 01          	sub    $0x1,%rax
    b9e5:	48 89 85 e0 f9 ff ff 	mov    %rax,-0x620(%rbp)
    b9ec:	48 8b 05 6d 32 01 00 	mov    0x1326d(%rip),%rax        # 1ec60 <g_2718>
    b9f3:	48 c7 00 00 00 00 00 	movq   $0x0,(%rax)
    b9fa:	48 8b 08             	mov    (%rax),%rcx
    b9fd:	48 8b 95 d8 f4 ff ff 	mov    -0xb28(%rbp),%rdx
    ba04:	48 8b 85 80 f6 ff ff 	mov    -0x980(%rbp),%rax
    ba0b:	48 89 10             	mov    %rdx,(%rax)
    ba0e:	48 8b 85 80 f6 ff ff 	mov    -0x980(%rbp),%rax
    ba15:	48 8b 00             	mov    (%rax),%rax
    ba18:	48 39 c1             	cmp    %rax,%rcx
    ba1b:	0f 95 c0             	setne  %al
    ba1e:	0f b6 d0             	movzbl %al,%edx
    ba21:	8b 85 28 f4 ff ff    	mov    -0xbd8(%rbp),%eax
    ba27:	09 d0                	or     %edx,%eax
    ba29:	89 85 28 f4 ff ff    	mov    %eax,-0xbd8(%rbp)
    ba2f:	0f b7 05 fa f5 00 00 	movzwl 0xf5fa(%rip),%eax        # 1b030 <g_66>
    ba36:	0f be c0             	movsbl %al,%eax
    ba39:	be 03 00 00 00       	mov    $0x3,%esi
    ba3e:	89 c7                	mov    %eax,%edi
    ba40:	e8 ad d7 ff ff       	callq  91f2 <safe_sub_func_int8_t_s_s>
    ba45:	66 98                	cbtw   
    ba47:	66 89 05 e2 f5 00 00 	mov    %ax,0xf5e2(%rip)        # 1b030 <g_66>
    ba4e:	0f b7 05 db f5 00 00 	movzwl 0xf5db(%rip),%eax        # 1b030 <g_66>
    ba55:	66 83 f8 fd          	cmp    $0xfffd,%ax
    ba59:	0f 85 87 fe ff ff    	jne    b8e6 <func_2+0x946>
    ba5f:	48 8d 85 28 f4 ff ff 	lea    -0xbd8(%rbp),%rax
    ba66:	48 89 85 e0 f4 ff ff 	mov    %rax,-0xb20(%rbp)
    ba6d:	48 8b 05 8c 00 01 00 	mov    0x1008c(%rip),%rax        # 1bb00 <g_2775>
    ba74:	41 89 c4             	mov    %eax,%r12d
    ba77:	48 8b 85 40 f5 ff ff 	mov    -0xac0(%rbp),%rax
    ba7e:	48 8d 15 5b 1d 01 00 	lea    0x11d5b(%rip),%rdx        # 1d7e0 <g_61>
    ba85:	48 89 10             	mov    %rdx,(%rax)
    ba88:	48 8b 85 40 f5 ff ff 	mov    -0xac0(%rbp),%rax
    ba8f:	48 8b 10             	mov    (%rax),%rdx
    ba92:	48 8d 85 e0 f4 ff ff 	lea    -0xb20(%rbp),%rax
    ba99:	48 39 c2             	cmp    %rax,%rdx
    ba9c:	0f 95 c0             	setne  %al
    ba9f:	0f b6 d8             	movzbl %al,%ebx
    baa2:	48 8b 85 e0 f4 ff ff 	mov    -0xb20(%rbp),%rax
    baa9:	8b 00                	mov    (%rax),%eax
    baab:	48 98                	cltq   
    baad:	48 8b 95 e0 f4 ff ff 	mov    -0xb20(%rbp),%rdx
    bab4:	8b 12                	mov    (%rdx),%edx
    bab6:	33 95 50 f4 ff ff    	xor    -0xbb0(%rbp),%edx
    babc:	89 d2                	mov    %edx,%edx
    babe:	48 89 c6             	mov    %rax,%rsi
    bac1:	48 89 d7             	mov    %rdx,%rdi
    bac4:	e8 e6 e5 ff ff       	callq  a0af <safe_div_func_uint64_t_u_u>
    bac9:	0f b7 d0             	movzwl %ax,%edx
    bacc:	48 8b 05 fd 2f 01 00 	mov    0x12ffd(%rip),%rax        # 1ead0 <g_1758>
    bad3:	0f b7 00             	movzwl (%rax),%eax
    bad6:	0f b7 c0             	movzwl %ax,%eax
    bad9:	89 d6                	mov    %edx,%esi
    badb:	89 c7                	mov    %eax,%edi
    badd:	e8 5b e2 ff ff       	callq  9d3d <safe_mul_func_uint16_t_u_u>
    bae2:	0f b7 d0             	movzwl %ax,%edx
    bae5:	48 8b 85 e0 f4 ff ff 	mov    -0xb20(%rbp),%rax
    baec:	8b 00                	mov    (%rax),%eax
    baee:	09 d0                	or     %edx,%eax
    baf0:	83 f8 25             	cmp    $0x25,%eax
    baf3:	0f 9f c0             	setg   %al
    baf6:	0f b6 c0             	movzbl %al,%eax
    baf9:	48 89 c7             	mov    %rax,%rdi
    bafc:	e8 18 e5 ff ff       	callq  a019 <safe_unary_minus_func_uint64_t_u>
    bb01:	48 39 c3             	cmp    %rax,%rbx
    bb04:	0f 95 c0             	setne  %al
    bb07:	0f b6 d0             	movzbl %al,%edx
    bb0a:	48 8b 05 a7 30 01 00 	mov    0x130a7(%rip),%rax        # 1ebb8 <g_2347>
    bb11:	48 8b 00             	mov    (%rax),%rax
    bb14:	48 8b 00             	mov    (%rax),%rax
    bb17:	48 85 c0             	test   %rax,%rax
    bb1a:	75 0c                	jne    bb28 <func_2+0xb88>
    bb1c:	48 8b 85 d8 f4 ff ff 	mov    -0xb28(%rbp),%rax
    bb23:	48 85 c0             	test   %rax,%rax
    bb26:	74 07                	je     bb2f <func_2+0xb8f>
    bb28:	b8 01 00 00 00       	mov    $0x1,%eax
    bb2d:	eb 05                	jmp    bb34 <func_2+0xb94>
    bb2f:	b8 00 00 00 00       	mov    $0x0,%eax
    bb34:	83 e0 01             	and    $0x1,%eax
    bb37:	21 95 fc f3 ff ff    	and    %edx,-0xc04(%rbp)
    bb3d:	0f b7 95 08 f4 ff ff 	movzwl -0xbf8(%rbp),%edx
    bb44:	0f b7 d2             	movzwl %dx,%edx
    bb47:	39 95 fc f3 ff ff    	cmp    %edx,-0xc04(%rbp)
    bb4d:	0f 95 c2             	setne  %dl
    bb50:	09 d0                	or     %edx,%eax
    bb52:	89 c2                	mov    %eax,%edx
    bb54:	48 8b 85 50 f5 ff ff 	mov    -0xab0(%rbp),%rax
    bb5b:	88 10                	mov    %dl,(%rax)
    bb5d:	48 8b 85 50 f5 ff ff 	mov    -0xab0(%rbp),%rax
    bb64:	0f b6 00             	movzbl (%rax),%eax
    bb67:	0f be c0             	movsbl %al,%eax
    bb6a:	44 89 e6             	mov    %r12d,%esi
    bb6d:	89 c7                	mov    %eax,%edi
    bb6f:	e8 2d d7 ff ff       	callq  92a1 <safe_lshift_func_int8_t_s_s>
    bb74:	0f be d0             	movsbl %al,%edx
    bb77:	48 8b 05 02 26 01 00 	mov    0x12602(%rip),%rax        # 1e180 <g_425>
    bb7e:	0f b7 00             	movzwl (%rax),%eax
    bb81:	98                   	cwtl   
    bb82:	89 d6                	mov    %edx,%esi
    bb84:	89 c7                	mov    %eax,%edi
    bb86:	e8 9f d9 ff ff       	callq  952a <safe_rshift_func_int16_t_s_s>
    bb8b:	0f b6 d0             	movzbl %al,%edx
    bb8e:	48 8b 85 e0 f4 ff ff 	mov    -0xb20(%rbp),%rax
    bb95:	8b 00                	mov    (%rax),%eax
    bb97:	0f b6 c0             	movzbl %al,%eax
    bb9a:	89 d6                	mov    %edx,%esi
    bb9c:	89 c7                	mov    %eax,%edi
    bb9e:	e8 0b e0 ff ff       	callq  9bae <safe_mod_func_uint8_t_u_u>
    bba3:	0f b6 c0             	movzbl %al,%eax
    bba6:	66 21 85 22 f4 ff ff 	and    %ax,-0xbde(%rbp)
    bbad:	0f b7 85 08 f4 ff ff 	movzwl -0xbf8(%rbp),%eax
    bbb4:	0f b7 c0             	movzwl %ax,%eax
    bbb7:	39 85 fc f3 ff ff    	cmp    %eax,-0xc04(%rbp)
    bbbd:	0f 8f de 19 00 00    	jg     d5a1 <func_2+0x2601>
    bbc3:	c7 85 30 f4 ff ff 23 	movl   $0x4603ea23,-0xbd0(%rbp)
    bbca:	ea 03 46 
    bbcd:	48 8d 05 bc f4 00 00 	lea    0xf4bc(%rip),%rax        # 1b090 <g_183+0x10>
    bbd4:	48 89 85 28 f5 ff ff 	mov    %rax,-0xad8(%rbp)
    bbdb:	c6 85 1f f4 ff ff d3 	movb   $0xd3,-0xbe1(%rbp)
    bbe2:	c7 85 60 f4 ff ff 01 	movl   $0x1,-0xba0(%rbp)
    bbe9:	00 00 00 
    bbec:	48 c7 85 78 f5 ff ff 	movq   $0x7,-0xa88(%rbp)
    bbf3:	07 00 00 00 
    bbf7:	c7 85 d0 f7 ff ff fb 	movl   $0xfffffffb,-0x830(%rbp)
    bbfe:	ff ff ff 
    bc01:	c7 85 d4 f7 ff ff fb 	movl   $0xfffffffb,-0x82c(%rbp)
    bc08:	ff ff ff 
    bc0b:	c7 85 d8 f7 ff ff fb 	movl   $0xfffffffb,-0x828(%rbp)
    bc12:	ff ff ff 
    bc15:	c7 85 dc f7 ff ff fb 	movl   $0xfffffffb,-0x824(%rbp)
    bc1c:	ff ff ff 
    bc1f:	c7 85 e0 f7 ff ff fb 	movl   $0xfffffffb,-0x820(%rbp)
    bc26:	ff ff ff 
    bc29:	c7 85 e4 f7 ff ff fb 	movl   $0xfffffffb,-0x81c(%rbp)
    bc30:	ff ff ff 
    bc33:	c7 85 e8 f7 ff ff fb 	movl   $0xfffffffb,-0x818(%rbp)
    bc3a:	ff ff ff 
    bc3d:	c7 85 ec f7 ff ff fb 	movl   $0xfffffffb,-0x814(%rbp)
    bc44:	ff ff ff 
    bc47:	c7 85 f0 f7 ff ff fb 	movl   $0xfffffffb,-0x810(%rbp)
    bc4e:	ff ff ff 
    bc51:	c7 85 f4 f7 ff ff fb 	movl   $0xfffffffb,-0x80c(%rbp)
    bc58:	ff ff ff 
    bc5b:	c7 85 f8 f7 ff ff fb 	movl   $0xfffffffb,-0x808(%rbp)
    bc62:	ff ff ff 
    bc65:	c7 85 fc f7 ff ff fb 	movl   $0xfffffffb,-0x804(%rbp)
    bc6c:	ff ff ff 
    bc6f:	c7 85 00 f8 ff ff fb 	movl   $0xfffffffb,-0x800(%rbp)
    bc76:	ff ff ff 
    bc79:	c7 85 04 f8 ff ff fb 	movl   $0xfffffffb,-0x7fc(%rbp)
    bc80:	ff ff ff 
    bc83:	c7 85 08 f8 ff ff fb 	movl   $0xfffffffb,-0x7f8(%rbp)
    bc8a:	ff ff ff 
    bc8d:	c7 85 0c f8 ff ff fb 	movl   $0xfffffffb,-0x7f4(%rbp)
    bc94:	ff ff ff 
    bc97:	c7 85 10 f8 ff ff fb 	movl   $0xfffffffb,-0x7f0(%rbp)
    bc9e:	ff ff ff 
    bca1:	c7 85 14 f8 ff ff fb 	movl   $0xfffffffb,-0x7ec(%rbp)
    bca8:	ff ff ff 
    bcab:	c7 85 18 f8 ff ff fb 	movl   $0xfffffffb,-0x7e8(%rbp)
    bcb2:	ff ff ff 
    bcb5:	c7 85 1c f8 ff ff fb 	movl   $0xfffffffb,-0x7e4(%rbp)
    bcbc:	ff ff ff 
    bcbf:	c7 85 20 f8 ff ff fb 	movl   $0xfffffffb,-0x7e0(%rbp)
    bcc6:	ff ff ff 
    bcc9:	c7 85 24 f8 ff ff fb 	movl   $0xfffffffb,-0x7dc(%rbp)
    bcd0:	ff ff ff 
    bcd3:	c7 85 28 f8 ff ff fb 	movl   $0xfffffffb,-0x7d8(%rbp)
    bcda:	ff ff ff 
    bcdd:	c7 85 2c f8 ff ff fb 	movl   $0xfffffffb,-0x7d4(%rbp)
    bce4:	ff ff ff 
    bce7:	48 c7 85 08 f5 ff ff 	movq   $0x0,-0xaf8(%rbp)
    bcee:	00 00 00 00 
    bcf2:	48 8d 85 08 f5 ff ff 	lea    -0xaf8(%rbp),%rax
    bcf9:	48 89 85 30 f8 ff ff 	mov    %rax,-0x7d0(%rbp)
    bd00:	48 8d 85 08 f5 ff ff 	lea    -0xaf8(%rbp),%rax
    bd07:	48 89 85 38 f8 ff ff 	mov    %rax,-0x7c8(%rbp)
    bd0e:	48 8d 85 08 f5 ff ff 	lea    -0xaf8(%rbp),%rax
    bd15:	48 89 85 40 f8 ff ff 	mov    %rax,-0x7c0(%rbp)
    bd1c:	48 8d 85 08 f5 ff ff 	lea    -0xaf8(%rbp),%rax
    bd23:	48 89 85 48 f8 ff ff 	mov    %rax,-0x7b8(%rbp)
    bd2a:	48 8d 85 08 f5 ff ff 	lea    -0xaf8(%rbp),%rax
    bd31:	48 89 85 50 f8 ff ff 	mov    %rax,-0x7b0(%rbp)
    bd38:	48 c7 85 58 f8 ff ff 	movq   $0x0,-0x7a8(%rbp)
    bd3f:	00 00 00 00 
    bd43:	48 c7 85 60 f8 ff ff 	movq   $0x0,-0x7a0(%rbp)
    bd4a:	00 00 00 00 
    bd4e:	48 8d 85 08 f5 ff ff 	lea    -0xaf8(%rbp),%rax
    bd55:	48 89 85 68 f8 ff ff 	mov    %rax,-0x798(%rbp)
    bd5c:	48 c7 85 70 f8 ff ff 	movq   $0x0,-0x790(%rbp)
    bd63:	00 00 00 00 
    bd67:	48 8d 85 08 f5 ff ff 	lea    -0xaf8(%rbp),%rax
    bd6e:	48 89 85 78 f8 ff ff 	mov    %rax,-0x788(%rbp)
    bd75:	48 c7 85 80 f8 ff ff 	movq   $0x0,-0x780(%rbp)
    bd7c:	00 00 00 00 
    bd80:	48 c7 85 88 f8 ff ff 	movq   $0x0,-0x778(%rbp)
    bd87:	00 00 00 00 
    bd8b:	48 8d 85 30 f4 ff ff 	lea    -0xbd0(%rbp),%rax
    bd92:	48 89 85 10 f5 ff ff 	mov    %rax,-0xaf0(%rbp)
    bd99:	48 8d 85 10 f5 ff ff 	lea    -0xaf0(%rbp),%rax
    bda0:	48 89 85 18 f5 ff ff 	mov    %rax,-0xae8(%rbp)
    bda7:	48 8d 85 18 f5 ff ff 	lea    -0xae8(%rbp),%rax
    bdae:	48 89 85 80 f5 ff ff 	mov    %rax,-0xa80(%rbp)
    bdb5:	48 8d 05 14 24 01 00 	lea    0x12414(%rip),%rax        # 1e1d0 <g_880>
    bdbc:	48 89 85 88 f5 ff ff 	mov    %rax,-0xa78(%rbp)
    bdc3:	48 c7 85 30 f5 ff ff 	movq   $0xffffffffffffffff,-0xad0(%rbp)
    bdca:	ff ff ff ff 
    bdce:	c7 85 64 f4 ff ff fe 	movl   $0xffaf22fe,-0xb9c(%rbp)
    bdd5:	22 af ff 
    bdd8:	48 83 bd 58 f5 ff ff 	cmpq   $0x0,-0xaa8(%rbp)
    bddf:	00 
    bde0:	0f 84 97 0c 00 00    	je     ca7d <func_2+0x1add>
    bde6:	48 c7 85 98 f5 ff ff 	movq   $0xffffffffffffffff,-0xa68(%rbp)
    bded:	ff ff ff ff 
    bdf1:	48 8d 85 30 f4 ff ff 	lea    -0xbd0(%rbp),%rax
    bdf8:	48 89 85 20 f5 ff ff 	mov    %rax,-0xae0(%rbp)
    bdff:	48 8d 85 20 f5 ff ff 	lea    -0xae0(%rbp),%rax
    be06:	48 89 85 a0 f5 ff ff 	mov    %rax,-0xa60(%rbp)
    be0d:	c7 85 68 f4 ff ff 17 	movl   $0x25069217,-0xb98(%rbp)
    be14:	92 06 25 
    be17:	c7 85 6c f4 ff ff 95 	movl   $0x42fbf895,-0xb94(%rbp)
    be1e:	f8 fb 42 
    be21:	c7 85 70 f4 ff ff 95 	movl   $0x1b73b495,-0xb90(%rbp)
    be28:	b4 73 1b 
    be2b:	c7 85 74 f4 ff ff e9 	movl   $0x32429fe9,-0xb8c(%rbp)
    be32:	9f 42 32 
    be35:	48 8d 05 a4 2c 01 00 	lea    0x12ca4(%rip),%rax        # 1eae0 <g_1782>
    be3c:	48 89 85 a8 f5 ff ff 	mov    %rax,-0xa58(%rbp)
    be43:	48 8d 05 56 2d 01 00 	lea    0x12d56(%rip),%rax        # 1eba0 <g_2162>
    be4a:	48 89 85 b0 f5 ff ff 	mov    %rax,-0xa50(%rbp)
    be51:	48 b8 7f 01 8e 01 56 	movabs $0xee156856018e017f,%rax
    be58:	68 15 ee 
    be5b:	48 89 85 b8 f5 ff ff 	mov    %rax,-0xa48(%rbp)
    be62:	48 b8 f8 99 28 49 65 	movabs $0x86040465492899f8,%rax
    be69:	04 04 86 
    be6c:	48 89 85 c0 f5 ff ff 	mov    %rax,-0xa40(%rbp)
    be73:	c7 85 78 f4 ff ff 05 	movl   $0x50d96a05,-0xb88(%rbp)
    be7a:	6a d9 50 
    be7d:	c7 85 90 f8 ff ff fd 	movl   $0xfffffffd,-0x770(%rbp)
    be84:	ff ff ff 
    be87:	c7 85 94 f8 ff ff 31 	movl   $0x8633cd31,-0x76c(%rbp)
    be8e:	cd 33 86 
    be91:	c7 85 98 f8 ff ff 06 	movl   $0x6,-0x768(%rbp)
    be98:	00 00 00 
    be9b:	c7 85 9c f8 ff ff 31 	movl   $0x8633cd31,-0x764(%rbp)
    bea2:	cd 33 86 
    bea5:	c7 85 a0 f8 ff ff fd 	movl   $0xfffffffd,-0x760(%rbp)
    beac:	ff ff ff 
    beaf:	c7 85 a4 f8 ff ff ff 	movl   $0xffffffff,-0x75c(%rbp)
    beb6:	ff ff ff 
    beb9:	c7 85 a8 f8 ff ff fd 	movl   $0xfffffffd,-0x758(%rbp)
    bec0:	ff ff ff 
    bec3:	c7 85 ac f8 ff ff 31 	movl   $0x8633cd31,-0x754(%rbp)
    beca:	cd 33 86 
    becd:	c7 85 b0 f8 ff ff 06 	movl   $0x6,-0x750(%rbp)
    bed4:	00 00 00 
    bed7:	c7 85 b4 f8 ff ff 31 	movl   $0x8633cd31,-0x74c(%rbp)
    bede:	cd 33 86 
    bee1:	c7 85 b8 f8 ff ff fd 	movl   $0xfffffffd,-0x748(%rbp)
    bee8:	ff ff ff 
    beeb:	c7 85 bc f8 ff ff ff 	movl   $0xffffffff,-0x744(%rbp)
    bef2:	ff ff ff 
    bef5:	c7 85 c0 f8 ff ff fd 	movl   $0xfffffffd,-0x740(%rbp)
    befc:	ff ff ff 
    beff:	c7 85 c4 f8 ff ff 31 	movl   $0x8633cd31,-0x73c(%rbp)
    bf06:	cd 33 86 
    bf09:	c7 85 c8 f8 ff ff 06 	movl   $0x6,-0x738(%rbp)
    bf10:	00 00 00 
    bf13:	c7 85 cc f8 ff ff 31 	movl   $0x8633cd31,-0x734(%rbp)
    bf1a:	cd 33 86 
    bf1d:	c7 85 d0 f8 ff ff fd 	movl   $0xfffffffd,-0x730(%rbp)
    bf24:	ff ff ff 
    bf27:	c7 85 d4 f8 ff ff ff 	movl   $0xffffffff,-0x72c(%rbp)
    bf2e:	ff ff ff 
    bf31:	c7 85 d8 f8 ff ff fd 	movl   $0xfffffffd,-0x728(%rbp)
    bf38:	ff ff ff 
    bf3b:	c7 85 dc f8 ff ff 31 	movl   $0x8633cd31,-0x724(%rbp)
    bf42:	cd 33 86 
    bf45:	c7 85 e0 f8 ff ff 06 	movl   $0x6,-0x720(%rbp)
    bf4c:	00 00 00 
    bf4f:	c7 85 e4 f8 ff ff 31 	movl   $0x8633cd31,-0x71c(%rbp)
    bf56:	cd 33 86 
    bf59:	c7 85 e8 f8 ff ff fd 	movl   $0xfffffffd,-0x718(%rbp)
    bf60:	ff ff ff 
    bf63:	c7 85 ec f8 ff ff ff 	movl   $0xffffffff,-0x714(%rbp)
    bf6a:	ff ff ff 
    bf6d:	c7 85 f0 f8 ff ff fd 	movl   $0xfffffffd,-0x710(%rbp)
    bf74:	ff ff ff 
    bf77:	c7 85 f4 f8 ff ff 31 	movl   $0x8633cd31,-0x70c(%rbp)
    bf7e:	cd 33 86 
    bf81:	c7 85 f8 f8 ff ff 06 	movl   $0x6,-0x708(%rbp)
    bf88:	00 00 00 
    bf8b:	c7 85 fc f8 ff ff 31 	movl   $0x8633cd31,-0x704(%rbp)
    bf92:	cd 33 86 
    bf95:	c7 85 00 f9 ff ff fd 	movl   $0xfffffffd,-0x700(%rbp)
    bf9c:	ff ff ff 
    bf9f:	c7 85 04 f9 ff ff ff 	movl   $0xffffffff,-0x6fc(%rbp)
    bfa6:	ff ff ff 
    bfa9:	c7 85 3c f4 ff ff 3f 	movl   $0x4934cd3f,-0xbc4(%rbp)
    bfb0:	cd 34 49 
    bfb3:	0f b7 85 08 f4 ff ff 	movzwl -0xbf8(%rbp),%eax
    bfba:	66 85 c0             	test   %ax,%ax
    bfbd:	74 0c                	je     bfcb <func_2+0x102b>
    bfbf:	48 8b 85 98 f5 ff ff 	mov    -0xa68(%rbp),%rax
    bfc6:	e9 e4 15 00 00       	jmpq   d5af <func_2+0x260f>
    bfcb:	c7 85 7c f4 ff ff 39 	movl   $0x2362a739,-0xb84(%rbp)
    bfd2:	a7 62 23 
    bfd5:	c7 85 90 f6 ff ff b9 	movl   $0x620694b9,-0x970(%rbp)
    bfdc:	94 06 62 
    bfdf:	c7 85 94 f6 ff ff b9 	movl   $0x620694b9,-0x96c(%rbp)
    bfe6:	94 06 62 
    bfe9:	c7 85 98 f6 ff ff b9 	movl   $0x620694b9,-0x968(%rbp)
    bff0:	94 06 62 
    bff3:	c7 85 9c f6 ff ff b9 	movl   $0x620694b9,-0x964(%rbp)
    bffa:	94 06 62 
    bffd:	c7 85 80 f4 ff ff 65 	movl   $0x6a1b5165,-0xb80(%rbp)
    c004:	51 1b 6a 
    c007:	48 c7 85 c8 f5 ff ff 	movq   $0xfffffffffffffff6,-0xa38(%rbp)
    c00e:	f6 ff ff ff 
    c012:	66 c7 85 a0 f6 ff ff 	movw   $0xf518,-0x960(%rbp)
    c019:	18 f5 
    c01b:	66 c7 85 a2 f6 ff ff 	movw   $0xf518,-0x95e(%rbp)
    c022:	18 f5 
    c024:	66 c7 85 a4 f6 ff ff 	movw   $0xf518,-0x95c(%rbp)
    c02b:	18 f5 
    c02d:	66 c7 85 a6 f6 ff ff 	movw   $0xf518,-0x95a(%rbp)
    c034:	18 f5 
    c036:	66 c7 85 a8 f6 ff ff 	movw   $0xf518,-0x958(%rbp)
    c03d:	18 f5 
    c03f:	66 c7 85 aa f6 ff ff 	movw   $0xf518,-0x956(%rbp)
    c046:	18 f5 
    c048:	66 c7 85 ac f6 ff ff 	movw   $0xf518,-0x954(%rbp)
    c04f:	18 f5 
    c051:	66 c7 85 ae f6 ff ff 	movw   $0xf518,-0x952(%rbp)
    c058:	18 f5 
    c05a:	66 c7 85 b0 f6 ff ff 	movw   $0xf518,-0x950(%rbp)
    c061:	18 f5 
    c063:	66 c7 85 b2 f6 ff ff 	movw   $0xf518,-0x94e(%rbp)
    c06a:	18 f5 
    c06c:	c7 85 40 f4 ff ff 00 	movl   $0x0,-0xbc0(%rbp)
    c073:	00 00 00 
    c076:	eb 1e                	jmp    c096 <func_2+0x10f6>
    c078:	8b 85 40 f4 ff ff    	mov    -0xbc0(%rbp),%eax
    c07e:	48 98                	cltq   
    c080:	48 8d 15 a1 20 01 00 	lea    0x120a1(%rip),%rdx        # 1e128 <g_333>
    c087:	48 89 94 c5 c0 f6 ff 	mov    %rdx,-0x940(%rbp,%rax,8)
    c08e:	ff 
    c08f:	83 85 40 f4 ff ff 01 	addl   $0x1,-0xbc0(%rbp)
    c096:	83 bd 40 f4 ff ff 04 	cmpl   $0x4,-0xbc0(%rbp)
    c09d:	7e d9                	jle    c078 <func_2+0x10d8>
    c09f:	c7 85 40 f4 ff ff 00 	movl   $0x0,-0xbc0(%rbp)
    c0a6:	00 00 00 
    c0a9:	eb 1b                	jmp    c0c6 <func_2+0x1126>
    c0ab:	8b 85 40 f4 ff ff    	mov    -0xbc0(%rbp),%eax
    c0b1:	48 98                	cltq   
    c0b3:	48 c7 84 c5 30 f7 ff 	movq   $0x0,-0x8d0(%rbp,%rax,8)
    c0ba:	ff 00 00 00 00 
    c0bf:	83 85 40 f4 ff ff 01 	addl   $0x1,-0xbc0(%rbp)
    c0c6:	83 bd 40 f4 ff ff 08 	cmpl   $0x8,-0xbc0(%rbp)
    c0cd:	7e dc                	jle    c0ab <func_2+0x110b>
    c0cf:	90                   	nop
    c0d0:	48 8b 85 98 f5 ff ff 	mov    -0xa68(%rbp),%rax
    c0d7:	89 c2                	mov    %eax,%edx
    c0d9:	8b 85 30 f4 ff ff    	mov    -0xbd0(%rbp),%eax
    c0df:	31 d0                	xor    %edx,%eax
    c0e1:	89 85 30 f4 ff ff    	mov    %eax,-0xbd0(%rbp)
    c0e7:	c7 05 9f f9 00 00 f8 	movl   $0xfffffff8,0xf99f(%rip)        # 1ba90 <g_2213>
    c0ee:	ff ff ff 
    c0f1:	e9 65 09 00 00       	jmpq   ca5b <func_2+0x1abb>
    c0f6:	c7 85 84 f4 ff ff 01 	movl   $0x1,-0xb7c(%rbp)
    c0fd:	00 00 00 
    c100:	c7 85 88 f4 ff ff 40 	movl   $0x9e97e40,-0xb78(%rbp)
    c107:	7e e9 09 
    c10a:	c7 85 8c f4 ff ff f8 	movl   $0xfffffff8,-0xb74(%rbp)
    c111:	ff ff ff 
    c114:	c7 85 d0 f9 ff ff fd 	movl   $0xfffffffd,-0x630(%rbp)
    c11b:	ff ff ff 
    c11e:	c7 85 d4 f9 ff ff 05 	movl   $0x20c4a905,-0x62c(%rbp)
    c125:	a9 c4 20 
    c128:	c7 85 d8 f9 ff ff 04 	movl   $0x4,-0x628(%rbp)
    c12f:	00 00 00 
    c132:	c7 85 dc f9 ff ff 04 	movl   $0x4,-0x624(%rbp)
    c139:	00 00 00 
    c13c:	c7 85 e0 f9 ff ff 04 	movl   $0x4,-0x620(%rbp)
    c143:	00 00 00 
    c146:	c7 85 e4 f9 ff ff 05 	movl   $0x20c4a905,-0x61c(%rbp)
    c14d:	a9 c4 20 
    c150:	c7 85 e8 f9 ff ff fd 	movl   $0xfffffffd,-0x618(%rbp)
    c157:	ff ff ff 
    c15a:	c7 85 ec f9 ff ff 02 	movl   $0x2,-0x614(%rbp)
    c161:	00 00 00 
    c164:	c7 85 f0 f9 ff ff 05 	movl   $0x20c4a905,-0x610(%rbp)
    c16b:	a9 c4 20 
    c16e:	c7 85 f4 f9 ff ff 02 	movl   $0x2,-0x60c(%rbp)
    c175:	00 00 00 
    c178:	c7 85 f8 f9 ff ff fd 	movl   $0xfffffffd,-0x608(%rbp)
    c17f:	ff ff ff 
    c182:	c7 85 fc f9 ff ff 05 	movl   $0x20c4a905,-0x604(%rbp)
    c189:	a9 c4 20 
    c18c:	c7 85 00 fa ff ff 04 	movl   $0x4,-0x600(%rbp)
    c193:	00 00 00 
    c196:	c7 85 04 fa ff ff 04 	movl   $0x4,-0x5fc(%rbp)
    c19d:	00 00 00 
    c1a0:	c7 85 08 fa ff ff 04 	movl   $0x4,-0x5f8(%rbp)
    c1a7:	00 00 00 
    c1aa:	c7 85 0c fa ff ff 05 	movl   $0x20c4a905,-0x5f4(%rbp)
    c1b1:	a9 c4 20 
    c1b4:	c7 85 10 fa ff ff fd 	movl   $0xfffffffd,-0x5f0(%rbp)
    c1bb:	ff ff ff 
    c1be:	c7 85 14 fa ff ff 02 	movl   $0x2,-0x5ec(%rbp)
    c1c5:	00 00 00 
    c1c8:	c7 85 18 fa ff ff 05 	movl   $0x20c4a905,-0x5e8(%rbp)
    c1cf:	a9 c4 20 
    c1d2:	c7 85 1c fa ff ff 02 	movl   $0x2,-0x5e4(%rbp)
    c1d9:	00 00 00 
    c1dc:	c7 85 20 fa ff ff fd 	movl   $0xfffffffd,-0x5e0(%rbp)
    c1e3:	ff ff ff 
    c1e6:	c7 85 24 fa ff ff 05 	movl   $0x20c4a905,-0x5dc(%rbp)
    c1ed:	a9 c4 20 
    c1f0:	c7 85 28 fa ff ff 04 	movl   $0x4,-0x5d8(%rbp)
    c1f7:	00 00 00 
    c1fa:	c7 85 2c fa ff ff 04 	movl   $0x4,-0x5d4(%rbp)
    c201:	00 00 00 
    c204:	c7 85 30 fa ff ff 04 	movl   $0x4,-0x5d0(%rbp)
    c20b:	00 00 00 
    c20e:	c7 85 34 fa ff ff 05 	movl   $0x20c4a905,-0x5cc(%rbp)
    c215:	a9 c4 20 
    c218:	c7 85 38 fa ff ff fd 	movl   $0xfffffffd,-0x5c8(%rbp)
    c21f:	ff ff ff 
    c222:	c7 85 3c fa ff ff 02 	movl   $0x2,-0x5c4(%rbp)
    c229:	00 00 00 
    c22c:	c7 85 40 fa ff ff 05 	movl   $0x20c4a905,-0x5c0(%rbp)
    c233:	a9 c4 20 
    c236:	c7 85 44 fa ff ff 02 	movl   $0x2,-0x5bc(%rbp)
    c23d:	00 00 00 
    c240:	c7 85 48 fa ff ff fd 	movl   $0xfffffffd,-0x5b8(%rbp)
    c247:	ff ff ff 
    c24a:	c7 85 4c fa ff ff 05 	movl   $0x20c4a905,-0x5b4(%rbp)
    c251:	a9 c4 20 
    c254:	c7 85 50 fa ff ff 04 	movl   $0x4,-0x5b0(%rbp)
    c25b:	00 00 00 
    c25e:	c7 85 54 fa ff ff 04 	movl   $0x4,-0x5ac(%rbp)
    c265:	00 00 00 
    c268:	c7 85 58 fa ff ff 04 	movl   $0x4,-0x5a8(%rbp)
    c26f:	00 00 00 
    c272:	c7 85 5c fa ff ff 05 	movl   $0x20c4a905,-0x5a4(%rbp)
    c279:	a9 c4 20 
    c27c:	c7 85 60 fa ff ff fd 	movl   $0xfffffffd,-0x5a0(%rbp)
    c283:	ff ff ff 
    c286:	c7 85 64 fa ff ff 02 	movl   $0x2,-0x59c(%rbp)
    c28d:	00 00 00 
    c290:	c7 85 68 fa ff ff 05 	movl   $0x20c4a905,-0x598(%rbp)
    c297:	a9 c4 20 
    c29a:	c7 85 6c fa ff ff 02 	movl   $0x2,-0x594(%rbp)
    c2a1:	00 00 00 
    c2a4:	c7 85 70 fa ff ff fd 	movl   $0xfffffffd,-0x590(%rbp)
    c2ab:	ff ff ff 
    c2ae:	c7 85 74 fa ff ff 05 	movl   $0x20c4a905,-0x58c(%rbp)
    c2b5:	a9 c4 20 
    c2b8:	c7 85 78 fa ff ff 04 	movl   $0x4,-0x588(%rbp)
    c2bf:	00 00 00 
    c2c2:	c7 85 7c fa ff ff 04 	movl   $0x4,-0x584(%rbp)
    c2c9:	00 00 00 
    c2cc:	c7 85 80 fa ff ff 04 	movl   $0x4,-0x580(%rbp)
    c2d3:	00 00 00 
    c2d6:	c7 85 84 fa ff ff 05 	movl   $0x20c4a905,-0x57c(%rbp)
    c2dd:	a9 c4 20 
    c2e0:	c7 85 88 fa ff ff fd 	movl   $0xfffffffd,-0x578(%rbp)
    c2e7:	ff ff ff 
    c2ea:	c7 85 8c fa ff ff 02 	movl   $0x2,-0x574(%rbp)
    c2f1:	00 00 00 
    c2f4:	c7 85 90 f4 ff ff ff 	movl   $0xffffffff,-0xb70(%rbp)
    c2fb:	ff ff ff 
    c2fe:	48 8d 05 43 2b 01 00 	lea    0x12b43(%rip),%rax        # 1ee48 <g_2858+0x28>
    c305:	48 89 85 d0 f5 ff ff 	mov    %rax,-0xa30(%rbp)
    c30c:	48 8d 05 85 f3 00 00 	lea    0xf385(%rip),%rax        # 1b698 <g_626>
    c313:	48 89 85 d8 f5 ff ff 	mov    %rax,-0xa28(%rbp)
    c31a:	48 c7 85 e0 f5 ff ff 	movq   $0x1,-0xa20(%rbp)
    c321:	01 00 00 00 
    c325:	83 bd fc f3 ff ff 00 	cmpl   $0x0,-0xc04(%rbp)
    c32c:	0f 84 3a 01 00 00    	je     c46c <func_2+0x14cc>
    c332:	48 8d 05 97 27 01 00 	lea    0x12797(%rip),%rax        # 1ead0 <g_1758>
    c339:	48 89 85 f8 f5 ff ff 	mov    %rax,-0xa08(%rbp)
    c340:	48 c7 85 00 f6 ff ff 	movq   $0x0,-0xa00(%rbp)
    c347:	00 00 00 00 
    c34b:	48 c7 85 08 f6 ff ff 	movq   $0x0,-0x9f8(%rbp)
    c352:	00 00 00 00 
    c356:	48 c7 85 10 f6 ff ff 	movq   $0x0,-0x9f0(%rbp)
    c35d:	00 00 00 00 
    c361:	c7 85 a0 f4 ff ff 01 	movl   $0x1,-0xb60(%rbp)
    c368:	00 00 00 
    c36b:	44 0f be a5 1f f4 ff 	movsbl -0xbe1(%rbp),%r12d
    c372:	ff 
    c373:	8b 85 84 f4 ff ff    	mov    -0xb7c(%rbp),%eax
    c379:	48 63 d8             	movslq %eax,%rbx
    c37c:	48 8b 85 00 f4 ff ff 	mov    -0xc00(%rbp),%rax
    c383:	0f bf d0             	movswl %ax,%edx
    c386:	8b 05 7c f7 00 00    	mov    0xf77c(%rip),%eax        # 1bb08 <g_2806>
    c38c:	48 8b 85 00 f4 ff ff 	mov    -0xc00(%rbp),%rax
    c393:	98                   	cwtl   
    c394:	89 d6                	mov    %edx,%esi
    c396:	89 c7                	mov    %eax,%edi
    c398:	e8 58 d0 ff ff       	callq  93f5 <safe_mul_func_int16_t_s_s>
    c39d:	48 89 de             	mov    %rbx,%rsi
    c3a0:	bf 01 00 00 00       	mov    $0x1,%edi
    c3a5:	e8 0a d6 ff ff       	callq  99b4 <safe_mod_func_int64_t_s_s>
    c3aa:	0f be c0             	movsbl %al,%eax
    c3ad:	8b 95 fc f3 ff ff    	mov    -0xc04(%rbp),%edx
    c3b3:	89 d6                	mov    %edx,%esi
    c3b5:	89 c7                	mov    %eax,%edi
    c3b7:	e8 79 cf ff ff       	callq  9335 <safe_rshift_func_int8_t_s_s>
    c3bc:	0f be d0             	movsbl %al,%edx
    c3bf:	0f b7 85 08 f4 ff ff 	movzwl -0xbf8(%rbp),%eax
    c3c6:	0f b7 c0             	movzwl %ax,%eax
    c3c9:	09 d0                	or     %edx,%eax
    c3cb:	41 39 c4             	cmp    %eax,%r12d
    c3ce:	0f 9c c0             	setl   %al
    c3d1:	0f b6 d8             	movzbl %al,%ebx
    c3d4:	8b 85 7c f4 ff ff    	mov    -0xb84(%rbp),%eax
    c3da:	89 85 a0 f4 ff ff    	mov    %eax,-0xb60(%rbp)
    c3e0:	83 bd a0 f4 ff ff 00 	cmpl   $0x0,-0xb60(%rbp)
    c3e7:	75 13                	jne    c3fc <func_2+0x145c>
    c3e9:	48 8b 05 38 27 01 00 	mov    0x12738(%rip),%rax        # 1eb28 <g_1980>
    c3f0:	48 8b 00             	mov    (%rax),%rax
    c3f3:	48 39 85 a0 f5 ff ff 	cmp    %rax,-0xa60(%rbp)
    c3fa:	74 07                	je     c403 <func_2+0x1463>
    c3fc:	b8 01 00 00 00       	mov    $0x1,%eax
    c401:	eb 05                	jmp    c408 <func_2+0x1468>
    c403:	b8 00 00 00 00       	mov    $0x0,%eax
    c408:	0f b6 c0             	movzbl %al,%eax
    c40b:	48 8b 95 f8 f5 ff ff 	mov    -0xa08(%rbp),%rdx
    c412:	48 8d 8d 08 f4 ff ff 	lea    -0xbf8(%rbp),%rcx
    c419:	48 89 0a             	mov    %rcx,(%rdx)
    c41c:	89 c6                	mov    %eax,%esi
    c41e:	bf 01 00 00 00       	mov    $0x1,%edi
    c423:	e8 86 d7 ff ff       	callq  9bae <safe_mod_func_uint8_t_u_u>
    c428:	0f be c0             	movsbl %al,%eax
    c42b:	89 de                	mov    %ebx,%esi
    c42d:	89 c7                	mov    %eax,%edi
    c42f:	e8 be cd ff ff       	callq  91f2 <safe_sub_func_int8_t_s_s>
    c434:	0f b6 c0             	movzbl %al,%eax
    c437:	be b1 00 00 00       	mov    $0xb1,%esi
    c43c:	89 c7                	mov    %eax,%edi
    c43e:	e8 35 d7 ff ff       	callq  9b78 <safe_sub_func_uint8_t_u_u>
    c443:	0f b6 c0             	movzbl %al,%eax
    c446:	48 39 85 98 f5 ff ff 	cmp    %rax,-0xa68(%rbp)
    c44d:	0f 92 c0             	setb   %al
    c450:	0f b6 c8             	movzbl %al,%ecx
    c453:	48 8b 85 e0 f4 ff ff 	mov    -0xb20(%rbp),%rax
    c45a:	8b 10                	mov    (%rax),%edx
    c45c:	48 8b 85 e0 f4 ff ff 	mov    -0xb20(%rbp),%rax
    c463:	31 ca                	xor    %ecx,%edx
    c465:	89 10                	mov    %edx,(%rax)
    c467:	e9 10 01 00 00       	jmpq   c57c <func_2+0x15dc>
    c46c:	48 c7 85 e8 f5 ff ff 	movq   $0xfffffffffffffff8,-0xa18(%rbp)
    c473:	f8 ff ff ff 
    c477:	c7 85 94 f4 ff ff 2b 	movl   $0xc930ca2b,-0xb6c(%rbp)
    c47e:	ca 30 c9 
    c481:	c7 85 98 f4 ff ff d0 	movl   $0xa061ded0,-0xb68(%rbp)
    c488:	de 61 a0 
    c48b:	c7 85 9c f4 ff ff ff 	movl   $0xffffffff,-0xb64(%rbp)
    c492:	ff ff ff 
    c495:	48 8d 85 90 fa ff ff 	lea    -0x570(%rbp),%rax
    c49c:	48 8d 15 dd 9b 00 00 	lea    0x9bdd(%rip),%rdx        # 16080 <g_2652+0x14>
    c4a3:	b9 48 00 00 00       	mov    $0x48,%ecx
    c4a8:	48 89 c7             	mov    %rax,%rdi
    c4ab:	48 89 d6             	mov    %rdx,%rsi
    c4ae:	f3 48 a5             	rep movsq %ds:(%rsi),%es:(%rdi)
    c4b1:	48 b8 38 aa 61 f0 b3 	movabs $0x23d4acb3f061aa38,%rax
    c4b8:	ac d4 23 
    c4bb:	48 89 85 f0 f5 ff ff 	mov    %rax,-0xa10(%rbp)
    c4c2:	c7 85 44 f4 ff ff 00 	movl   $0x0,-0xbbc(%rbp)
    c4c9:	00 00 00 
    c4cc:	eb 1a                	jmp    c4e8 <func_2+0x1548>
    c4ce:	8b 85 44 f4 ff ff    	mov    -0xbbc(%rbp),%eax
    c4d4:	48 98                	cltq   
    c4d6:	c7 84 85 88 f6 ff ff 	movl   $0x1,-0x978(%rbp,%rax,4)
    c4dd:	01 00 00 00 
    c4e1:	83 85 44 f4 ff ff 01 	addl   $0x1,-0xbbc(%rbp)
    c4e8:	83 bd 44 f4 ff ff 01 	cmpl   $0x1,-0xbbc(%rbp)
    c4ef:	7e dd                	jle    c4ce <func_2+0x152e>
    c4f1:	48 83 bd 00 f4 ff ff 	cmpq   $0x0,-0xc00(%rbp)
    c4f8:	00 
    c4f9:	75 0d                	jne    c508 <func_2+0x1568>
    c4fb:	48 8b 05 26 26 01 00 	mov    0x12626(%rip),%rax        # 1eb28 <g_1980>
    c502:	48 8b 00             	mov    (%rax),%rax
    c505:	48 85 c0             	test   %rax,%rax
    c508:	83 bd fc f3 ff ff 00 	cmpl   $0x0,-0xc04(%rbp)
    c50f:	74 07                	je     c518 <func_2+0x1578>
    c511:	b8 01 00 00 00       	mov    $0x1,%eax
    c516:	eb 05                	jmp    c51d <func_2+0x157d>
    c518:	b8 00 00 00 00       	mov    $0x0,%eax
    c51d:	89 85 68 f4 ff ff    	mov    %eax,-0xb98(%rbp)
    c523:	83 bd 68 f4 ff ff 00 	cmpl   $0x0,-0xb98(%rbp)
    c52a:	74 0a                	je     c536 <func_2+0x1596>
    c52c:	0f b7 85 08 f4 ff ff 	movzwl -0xbf8(%rbp),%eax
    c533:	66 85 c0             	test   %ax,%ax
    c536:	0f b7 85 24 f4 ff ff 	movzwl -0xbdc(%rbp),%eax
    c53d:	0f b6 c0             	movzbl %al,%eax
    c540:	89 c6                	mov    %eax,%esi
    c542:	bf 01 00 00 00       	mov    $0x1,%edi
    c547:	e8 8f d6 ff ff       	callq  9bdb <safe_div_func_uint8_t_u_u>
    c54c:	48 83 bd e8 f5 ff ff 	cmpq   $0x0,-0xa18(%rbp)
    c553:	00 
    c554:	b9 01 00 00 00       	mov    $0x1,%ecx
    c559:	48 8b 85 e0 f4 ff ff 	mov    -0xb20(%rbp),%rax
    c560:	8b 10                	mov    (%rax),%edx
    c562:	48 8b 85 e0 f4 ff ff 	mov    -0xb20(%rbp),%rax
    c569:	31 ca                	xor    %ecx,%edx
    c56b:	89 10                	mov    %edx,(%rax)
    c56d:	48 83 85 f0 f5 ff ff 	addq   $0x1,-0xa10(%rbp)
    c574:	01 
    c575:	83 85 90 f4 ff ff 01 	addl   $0x1,-0xb70(%rbp)
    c57c:	48 8b 05 c5 12 01 00 	mov    0x112c5(%rip),%rax        # 1d848 <g_153>
    c583:	0f b6 00             	movzbl (%rax),%eax
    c586:	0f be d8             	movsbl %al,%ebx
    c589:	48 8b 05 80 f5 00 00 	mov    0xf580(%rip),%rax        # 1bb10 <g_2843>
    c590:	48 8b 85 28 f5 ff ff 	mov    -0xad8(%rbp),%rax
    c597:	8b 00                	mov    (%rax),%eax
    c599:	85 c0                	test   %eax,%eax
    c59b:	0f b7 85 08 f4 ff ff 	movzwl -0xbf8(%rbp),%eax
    c5a2:	0f b7 c0             	movzwl %ax,%eax
    c5a5:	be 00 00 00 00       	mov    $0x0,%esi
    c5aa:	89 c7                	mov    %eax,%edi
    c5ac:	e8 97 d8 ff ff       	callq  9e48 <safe_rshift_func_uint16_t_u_s>
    c5b1:	89 de                	mov    %ebx,%esi
    c5b3:	bf 00 00 00 00       	mov    $0x0,%edi
    c5b8:	e8 35 cc ff ff       	callq  91f2 <safe_sub_func_int8_t_s_s>
    c5bd:	89 c2                	mov    %eax,%edx
    c5bf:	48 8b 05 82 12 01 00 	mov    0x11282(%rip),%rax        # 1d848 <g_153>
    c5c6:	88 10                	mov    %dl,(%rax)
    c5c8:	0f b6 00             	movzbl (%rax),%eax
    c5cb:	0f be d0             	movsbl %al,%edx
    c5ce:	48 8b 85 50 f5 ff ff 	mov    -0xab0(%rbp),%rax
    c5d5:	0f b6 00             	movzbl (%rax),%eax
    c5d8:	89 c1                	mov    %eax,%ecx
    c5da:	48 8b 85 00 f4 ff ff 	mov    -0xc00(%rbp),%rax
    c5e1:	21 c8                	and    %ecx,%eax
    c5e3:	89 c1                	mov    %eax,%ecx
    c5e5:	48 8b 85 50 f5 ff ff 	mov    -0xab0(%rbp),%rax
    c5ec:	88 08                	mov    %cl,(%rax)
    c5ee:	48 8b 85 50 f5 ff ff 	mov    -0xab0(%rbp),%rax
    c5f5:	0f b6 00             	movzbl (%rax),%eax
    c5f8:	0f be c0             	movsbl %al,%eax
    c5fb:	89 d6                	mov    %edx,%esi
    c5fd:	89 c7                	mov    %eax,%edi
    c5ff:	e8 0e cc ff ff       	callq  9212 <safe_mul_func_int8_t_s_s>
    c604:	0f be c0             	movsbl %al,%eax
    c607:	89 85 e8 f7 ff ff    	mov    %eax,-0x818(%rbp)
    c60d:	48 83 bd a8 f5 ff ff 	cmpq   $0x0,-0xa58(%rbp)
    c614:	00 
    c615:	0f 95 c1             	setne  %cl
    c618:	48 83 bd b0 f5 ff ff 	cmpq   $0x0,-0xa50(%rbp)
    c61f:	00 
    c620:	0f 95 c0             	setne  %al
    c623:	0f b6 d0             	movzbl %al,%edx
    c626:	48 8b 05 83 25 01 00 	mov    0x12583(%rip),%rax        # 1ebb0 <g_2348>
    c62d:	48 8b 00             	mov    (%rax),%rax
    c630:	48 39 c2             	cmp    %rax,%rdx
    c633:	0f 95 c0             	setne  %al
    c636:	09 c8                	or     %ecx,%eax
    c638:	0f b6 d0             	movzbl %al,%edx
    c63b:	48 8b 0d 06 28 01 00 	mov    0x12806(%rip),%rcx        # 1ee48 <g_2858+0x28>
    c642:	48 8b 85 d0 f5 ff ff 	mov    -0xa30(%rbp),%rax
    c649:	48 89 08             	mov    %rcx,(%rax)
    c64c:	48 83 bd d8 f5 ff ff 	cmpq   $0x0,-0xa28(%rbp)
    c653:	00 
    c654:	0f 95 c0             	setne  %al
    c657:	0f b6 c0             	movzbl %al,%eax
    c65a:	89 d6                	mov    %edx,%esi
    c65c:	89 c7                	mov    %eax,%edi
    c65e:	e8 2f ce ff ff       	callq  9492 <safe_lshift_func_int16_t_s_s>
    c663:	be 04 00 00 00       	mov    $0x4,%esi
    c668:	bf 00 00 00 00       	mov    $0x0,%edi
    c66d:	e8 93 d5 ff ff       	callq  9c05 <safe_lshift_func_uint8_t_u_s>
    c672:	84 c0                	test   %al,%al
    c674:	75 0d                	jne    c683 <func_2+0x16e3>
    c676:	48 8b 85 28 f5 ff ff 	mov    -0xad8(%rbp),%rax
    c67d:	8b 00                	mov    (%rax),%eax
    c67f:	85 c0                	test   %eax,%eax
    c681:	74 07                	je     c68a <func_2+0x16ea>
    c683:	b8 01 00 00 00       	mov    $0x1,%eax
    c688:	eb 05                	jmp    c68f <func_2+0x16ef>
    c68a:	b8 00 00 00 00       	mov    $0x0,%eax
    c68f:	0f b7 d0             	movzwl %ax,%edx
    c692:	48 8b 85 58 f8 ff ff 	mov    -0x7a8(%rbp),%rax
    c699:	48 85 c0             	test   %rax,%rax
    c69c:	0f 95 c1             	setne  %cl
    c69f:	48 8b 05 2a 24 01 00 	mov    0x1242a(%rip),%rax        # 1ead0 <g_1758>
    c6a6:	0f b6 c9             	movzbl %cl,%ecx
    c6a9:	66 89 08             	mov    %cx,(%rax)
    c6ac:	0f b7 00             	movzwl (%rax),%eax
    c6af:	0f b7 c0             	movzwl %ax,%eax
    c6b2:	89 d6                	mov    %edx,%esi
    c6b4:	89 c7                	mov    %eax,%edi
    c6b6:	e8 44 d6 ff ff       	callq  9cff <safe_add_func_uint16_t_u_u>
    c6bb:	89 c2                	mov    %eax,%edx
    c6bd:	48 8b 85 50 f5 ff ff 	mov    -0xab0(%rbp),%rax
    c6c4:	0f b6 00             	movzbl (%rax),%eax
    c6c7:	09 c2                	or     %eax,%edx
    c6c9:	48 8b 85 50 f5 ff ff 	mov    -0xab0(%rbp),%rax
    c6d0:	88 10                	mov    %dl,(%rax)
    c6d2:	48 8b 85 50 f5 ff ff 	mov    -0xab0(%rbp),%rax
    c6d9:	0f b6 00             	movzbl (%rax),%eax
    c6dc:	84 c0                	test   %al,%al
    c6de:	0f 94 c0             	sete   %al
    c6e1:	0f b6 c0             	movzbl %al,%eax
    c6e4:	be 1d ed ff ff       	mov    $0xffffed1d,%esi
    c6e9:	89 c7                	mov    %eax,%edi
    c6eb:	e8 65 cd ff ff       	callq  9455 <safe_div_func_int16_t_s_s>
    c6f0:	66 85 c0             	test   %ax,%ax
    c6f3:	0f 84 37 01 00 00    	je     c830 <func_2+0x1890>
    c6f9:	48 8b 85 28 f5 ff ff 	mov    -0xad8(%rbp),%rax
    c700:	8b 18                	mov    (%rax),%ebx
    c702:	0f b7 05 17 f4 00 00 	movzwl 0xf417(%rip),%eax        # 1bb20 <g_2870>
    c709:	66 89 05 10 f4 00 00 	mov    %ax,0xf410(%rip)        # 1bb20 <g_2870>
    c710:	0f b7 05 09 f4 00 00 	movzwl 0xf409(%rip),%eax        # 1bb20 <g_2870>
    c717:	0f be c0             	movsbl %al,%eax
    c71a:	89 c6                	mov    %eax,%esi
    c71c:	bf 8a ff ff ff       	mov    $0xffffff8a,%edi
    c721:	e8 ae ca ff ff       	callq  91d4 <safe_add_func_int8_t_s_s>
    c726:	44 0f be e0          	movsbl %al,%r12d
    c72a:	48 8b 85 28 f5 ff ff 	mov    -0xad8(%rbp),%rax
    c731:	8b 00                	mov    (%rax),%eax
    c733:	0f b7 d0             	movzwl %ax,%edx
    c736:	48 8b 05 93 23 01 00 	mov    0x12393(%rip),%rax        # 1ead0 <g_1758>
    c73d:	0f b7 00             	movzwl (%rax),%eax
    c740:	0f b7 c0             	movzwl %ax,%eax
    c743:	89 d6                	mov    %edx,%esi
    c745:	89 c7                	mov    %eax,%edi
    c747:	e8 42 d6 ff ff       	callq  9d8e <safe_div_func_uint16_t_u_u>
    c74c:	66 85 c0             	test   %ax,%ax
    c74f:	74 10                	je     c761 <func_2+0x17c1>
    c751:	83 bd 0c f4 ff ff 00 	cmpl   $0x0,-0xbf4(%rbp)
    c758:	74 07                	je     c761 <func_2+0x17c1>
    c75a:	b8 01 00 00 00       	mov    $0x1,%eax
    c75f:	eb 05                	jmp    c766 <func_2+0x17c6>
    c761:	b8 00 00 00 00       	mov    $0x0,%eax
    c766:	3d be 8b e4 13       	cmp    $0x13e48bbe,%eax
    c76b:	0f 9f c0             	setg   %al
    c76e:	0f b6 c0             	movzbl %al,%eax
    c771:	41 39 c4             	cmp    %eax,%r12d
    c774:	0f 95 c0             	setne  %al
    c777:	0f b6 c0             	movzbl %al,%eax
    c77a:	39 c3                	cmp    %eax,%ebx
    c77c:	0f 95 c0             	setne  %al
    c77f:	0f b6 c8             	movzbl %al,%ecx
    c782:	48 8b 85 e0 f4 ff ff 	mov    -0xb20(%rbp),%rax
    c789:	8b 10                	mov    (%rax),%edx
    c78b:	48 8b 85 e0 f4 ff ff 	mov    -0xb20(%rbp),%rax
    c792:	09 ca                	or     %ecx,%edx
    c794:	89 10                	mov    %edx,(%rax)
    c796:	48 8b 05 33 23 01 00 	mov    0x12333(%rip),%rax        # 1ead0 <g_1758>
    c79d:	0f b7 00             	movzwl (%rax),%eax
    c7a0:	66 85 c0             	test   %ax,%ax
    c7a3:	74 7b                	je     c820 <func_2+0x1880>
    c7a5:	8b 05 81 f3 00 00    	mov    0xf381(%rip),%eax        # 1bb2c <g_2877+0x4>
    c7ab:	48 8b 95 38 f7 ff ff 	mov    -0x8c8(%rbp),%rdx
    c7b2:	48 8b 05 a7 24 01 00 	mov    0x124a7(%rip),%rax        # 1ec60 <g_2718>
    c7b9:	48 8b 00             	mov    (%rax),%rax
    c7bc:	48 39 c2             	cmp    %rax,%rdx
    c7bf:	48 8b 05 0a 23 01 00 	mov    0x1230a(%rip),%rax        # 1ead0 <g_1758>
    c7c6:	0f b7 00             	movzwl (%rax),%eax
    c7c9:	0f b7 c0             	movzwl %ax,%eax
    c7cc:	39 85 fc f3 ff ff    	cmp    %eax,-0xc04(%rbp)
    c7d2:	0f 9e c0             	setle  %al
    c7d5:	44 0f b6 e0          	movzbl %al,%r12d
    c7d9:	48 8b 85 00 f4 ff ff 	mov    -0xc00(%rbp),%rax
    c7e0:	0f b6 d8             	movzbl %al,%ebx
    c7e3:	8b 85 74 f4 ff ff    	mov    -0xb8c(%rbp),%eax
    c7e9:	48 63 d0             	movslq %eax,%rdx
    c7ec:	48 8b 85 b8 f5 ff ff 	mov    -0xa48(%rbp),%rax
    c7f3:	48 89 d6             	mov    %rdx,%rsi
    c7f6:	48 89 c7             	mov    %rax,%rdi
    c7f9:	e8 f9 d1 ff ff       	callq  99f7 <safe_div_func_int64_t_s_s>
    c7fe:	0f b6 c0             	movzbl %al,%eax
    c801:	89 de                	mov    %ebx,%esi
    c803:	89 c7                	mov    %eax,%edi
    c805:	e8 89 d3 ff ff       	callq  9b93 <safe_mul_func_uint8_t_u_u>
    c80a:	0f b6 c0             	movzbl %al,%eax
    c80d:	41 39 c4             	cmp    %eax,%r12d
    c810:	83 bd 54 f4 ff ff 00 	cmpl   $0x0,-0xbac(%rbp)
    c817:	74 07                	je     c820 <func_2+0x1880>
    c819:	b8 01 00 00 00       	mov    $0x1,%eax
    c81e:	eb 05                	jmp    c825 <func_2+0x1885>
    c820:	b8 00 00 00 00       	mov    $0x0,%eax
    c825:	89 85 fc f3 ff ff    	mov    %eax,-0xc04(%rbp)
    c82b:	e9 e2 01 00 00       	jmpq   ca12 <func_2+0x1a72>
    c830:	c7 85 a4 f4 ff ff cf 	movl   $0x3606c8cf,-0xb5c(%rbp)
    c837:	c8 06 36 
    c83a:	c7 85 a8 f4 ff ff ff 	movl   $0xffffffff,-0xb58(%rbp)
    c841:	ff ff ff 
    c844:	48 8d 85 f0 f4 ff ff 	lea    -0xb10(%rbp),%rax
    c84b:	48 89 85 18 f6 ff ff 	mov    %rax,-0x9e8(%rbp)
    c852:	c7 85 ac f4 ff ff 04 	movl   $0x4,-0xb54(%rbp)
    c859:	00 00 00 
    c85c:	c7 85 b0 f4 ff ff 52 	movl   $0xf23cc252,-0xb50(%rbp)
    c863:	c2 3c f2 
    c866:	c7 85 b4 f4 ff ff f9 	movl   $0xfffffff9,-0xb4c(%rbp)
    c86d:	ff ff ff 
    c870:	c7 85 b8 f4 ff ff ff 	movl   $0xffffffff,-0xb48(%rbp)
    c877:	ff ff ff 
    c87a:	c7 85 bc f4 ff ff 07 	movl   $0x7,-0xb44(%rbp)
    c881:	00 00 00 
    c884:	c7 85 90 fa ff ff a9 	movl   $0xfd9f2fa9,-0x570(%rbp)
    c88b:	2f 9f fd 
    c88e:	c7 85 94 fa ff ff ff 	movl   $0xffffffff,-0x56c(%rbp)
    c895:	ff ff ff 
    c898:	c7 85 98 fa ff ff 3e 	movl   $0xd2318d3e,-0x568(%rbp)
    c89f:	8d 31 d2 
    c8a2:	c7 85 9c fa ff ff ff 	movl   $0xffffffff,-0x564(%rbp)
    c8a9:	ff ff ff 
    c8ac:	c7 85 a0 fa ff ff a9 	movl   $0xfd9f2fa9,-0x560(%rbp)
    c8b3:	2f 9f fd 
    c8b6:	c7 85 a4 fa ff ff 9b 	movl   $0x7ed37b9b,-0x55c(%rbp)
    c8bd:	7b d3 7e 
    c8c0:	c7 85 a8 fa ff ff 09 	movl   $0x9,-0x558(%rbp)
    c8c7:	00 00 00 
    c8ca:	c7 85 ac fa ff ff f9 	movl   $0xfffffff9,-0x554(%rbp)
    c8d1:	ff ff ff 
    c8d4:	c7 85 b0 fa ff ff 05 	movl   $0x5,-0x550(%rbp)
    c8db:	00 00 00 
    c8de:	c7 85 b4 fa ff ff 3d 	movl   $0x9a03bb3d,-0x54c(%rbp)
    c8e5:	bb 03 9a 
    c8e8:	c7 85 b8 fa ff ff 05 	movl   $0x5,-0x548(%rbp)
    c8ef:	00 00 00 
    c8f2:	c7 85 bc fa ff ff f9 	movl   $0xfffffff9,-0x544(%rbp)
    c8f9:	ff ff ff 
    c8fc:	c7 85 c0 fa ff ff 09 	movl   $0x9,-0x540(%rbp)
    c903:	00 00 00 
    c906:	c7 85 c4 fa ff ff 9b 	movl   $0x7ed37b9b,-0x53c(%rbp)
    c90d:	7b d3 7e 
    c910:	c7 85 c8 fa ff ff a9 	movl   $0xfd9f2fa9,-0x538(%rbp)
    c917:	2f 9f fd 
    c91a:	c7 85 cc fa ff ff ff 	movl   $0xffffffff,-0x534(%rbp)
    c921:	ff ff ff 
    c924:	c7 85 d0 fa ff ff 3e 	movl   $0xd2318d3e,-0x530(%rbp)
    c92b:	8d 31 d2 
    c92e:	c7 85 d4 fa ff ff ff 	movl   $0xffffffff,-0x52c(%rbp)
    c935:	ff ff ff 
    c938:	c7 85 d8 fa ff ff a9 	movl   $0xfd9f2fa9,-0x528(%rbp)
    c93f:	2f 9f fd 
    c942:	c7 85 dc fa ff ff 9b 	movl   $0x7ed37b9b,-0x524(%rbp)
    c949:	7b d3 7e 
    c94c:	c7 85 e0 fa ff ff 09 	movl   $0x9,-0x520(%rbp)
    c953:	00 00 00 
    c956:	c7 85 e4 fa ff ff f9 	movl   $0xfffffff9,-0x51c(%rbp)
    c95d:	ff ff ff 
    c960:	c7 85 e8 fa ff ff 05 	movl   $0x5,-0x518(%rbp)
    c967:	00 00 00 
    c96a:	c7 85 ec fa ff ff 3d 	movl   $0x9a03bb3d,-0x514(%rbp)
    c971:	bb 03 9a 
    c974:	c7 85 f0 fa ff ff 05 	movl   $0x5,-0x510(%rbp)
    c97b:	00 00 00 
    c97e:	c7 85 f4 fa ff ff f9 	movl   $0xfffffff9,-0x50c(%rbp)
    c985:	ff ff ff 
    c988:	c7 85 f8 fa ff ff 09 	movl   $0x9,-0x508(%rbp)
    c98f:	00 00 00 
    c992:	c7 85 fc fa ff ff 9b 	movl   $0x7ed37b9b,-0x504(%rbp)
    c999:	7b d3 7e 
    c99c:	c7 85 00 fb ff ff a9 	movl   $0xfd9f2fa9,-0x500(%rbp)
    c9a3:	2f 9f fd 
    c9a6:	c7 85 04 fb ff ff ff 	movl   $0xffffffff,-0x4fc(%rbp)
    c9ad:	ff ff ff 
    c9b0:	c7 85 08 fb ff ff 3e 	movl   $0xd2318d3e,-0x4f8(%rbp)
    c9b7:	8d 31 d2 
    c9ba:	c7 85 0c fb ff ff ff 	movl   $0xffffffff,-0x4f4(%rbp)
    c9c1:	ff ff ff 
    c9c4:	c7 85 10 fb ff ff a9 	movl   $0xfd9f2fa9,-0x4f0(%rbp)
    c9cb:	2f 9f fd 
    c9ce:	c7 85 14 fb ff ff 9b 	movl   $0x7ed37b9b,-0x4ec(%rbp)
    c9d5:	7b d3 7e 
    c9d8:	c7 85 18 fb ff ff 09 	movl   $0x9,-0x4e8(%rbp)
    c9df:	00 00 00 
    c9e2:	83 85 a4 f4 ff ff 01 	addl   $0x1,-0xb5c(%rbp)
    c9e9:	0f b7 85 ae f6 ff ff 	movzwl -0x952(%rbp),%eax
    c9f0:	83 e8 01             	sub    $0x1,%eax
    c9f3:	66 89 85 ae f6 ff ff 	mov    %ax,-0x952(%rbp)
    c9fa:	48 8b 95 f0 f4 ff ff 	mov    -0xb10(%rbp),%rdx
    ca01:	48 8b 85 18 f6 ff ff 	mov    -0x9e8(%rbp),%rax
    ca08:	48 89 10             	mov    %rdx,(%rax)
    ca0b:	83 ad 3c f4 ff ff 01 	subl   $0x1,-0xbc4(%rbp)
    ca12:	48 c7 05 5b e6 00 00 	movq   $0x0,0xe65b(%rip)        # 1b078 <g_164>
    ca19:	00 00 00 00 
    ca1d:	eb 20                	jmp    ca3f <func_2+0x1a9f>
    ca1f:	83 bd 50 f4 ff ff 00 	cmpl   $0x0,-0xbb0(%rbp)
    ca26:	74 05                	je     ca2d <func_2+0x1a8d>
    ca28:	e9 a3 f6 ff ff       	jmpq   c0d0 <func_2+0x1130>
    ca2d:	48 8b 05 44 e6 00 00 	mov    0xe644(%rip),%rax        # 1b078 <g_164>
    ca34:	48 83 c0 01          	add    $0x1,%rax
    ca38:	48 89 05 39 e6 00 00 	mov    %rax,0xe639(%rip)        # 1b078 <g_164>
    ca3f:	48 8b 05 32 e6 00 00 	mov    0xe632(%rip),%rax        # 1b078 <g_164>
    ca46:	48 83 f8 11          	cmp    $0x11,%rax
    ca4a:	7f d3                	jg     ca1f <func_2+0x1a7f>
    ca4c:	8b 05 3e f0 00 00    	mov    0xf03e(%rip),%eax        # 1ba90 <g_2213>
    ca52:	83 e8 01             	sub    $0x1,%eax
    ca55:	89 05 35 f0 00 00    	mov    %eax,0xf035(%rip)        # 1ba90 <g_2213>
    ca5b:	8b 05 2f f0 00 00    	mov    0xf02f(%rip),%eax        # 1ba90 <g_2213>
    ca61:	83 f8 e2             	cmp    $0xffffffe2,%eax
    ca64:	0f 85 8c f6 ff ff    	jne    c0f6 <func_2+0x1156>
    ca6a:	0f b7 05 c7 f0 00 00 	movzwl 0xf0c7(%rip),%eax        # 1bb38 <g_2911>
    ca71:	83 e8 01             	sub    $0x1,%eax
    ca74:	66 89 05 bd f0 00 00 	mov    %ax,0xf0bd(%rip)        # 1bb38 <g_2911>
    ca7b:	eb 2f                	jmp    caac <func_2+0x1b0c>
    ca7d:	48 8d 05 9c 16 01 00 	lea    0x1169c(%rip),%rax        # 1e120 <g_329>
    ca84:	48 89 85 90 f5 ff ff 	mov    %rax,-0xa70(%rbp)
    ca8b:	48 8b 15 16 17 01 00 	mov    0x11716(%rip),%rdx        # 1e1a8 <g_713>
    ca92:	48 8b 05 0f 17 01 00 	mov    0x1170f(%rip),%rax        # 1e1a8 <g_713>
    ca99:	48 8b 12             	mov    (%rdx),%rdx
    ca9c:	48 89 10             	mov    %rdx,(%rax)
    ca9f:	48 8b 10             	mov    (%rax),%rdx
    caa2:	48 8b 85 90 f5 ff ff 	mov    -0xa70(%rbp),%rax
    caa9:	48 89 10             	mov    %rdx,(%rax)
    caac:	66 c7 05 7b e5 00 00 	movw   $0x0,0xe57b(%rip)        # 1b030 <g_66>
    cab3:	00 00 
    cab5:	90                   	nop
    cab6:	0f b7 05 73 e5 00 00 	movzwl 0xe573(%rip),%eax        # 1b030 <g_66>
    cabd:	66 83 f8 1b          	cmp    $0x1b,%ax
    cac1:	0f 8f e2 0a 00 00    	jg     d5a9 <func_2+0x2609>
    cac7:	c7 85 c0 f4 ff ff 00 	movl   $0x0,-0xb40(%rbp)
    cace:	00 00 00 
    cad1:	48 b8 d9 fc 4e 21 66 	movabs $0x634bcf66214efcd9,%rax
    cad8:	cf 4b 63 
    cadb:	48 89 85 20 f6 ff ff 	mov    %rax,-0x9e0(%rbp)
    cae2:	48 c7 85 28 f6 ff ff 	movq   $0x0,-0x9d8(%rbp)
    cae9:	00 00 00 00 
    caed:	48 8d 05 70 95 00 00 	lea    0x9570(%rip),%rax        # 16064 <g_592+0x3>
    caf4:	48 89 85 30 f6 ff ff 	mov    %rax,-0x9d0(%rbp)
    cafb:	48 8d 05 e2 ec 00 00 	lea    0xece2(%rip),%rax        # 1b7e4 <g_1007>
    cb02:	48 89 85 38 f6 ff ff 	mov    %rax,-0x9c8(%rbp)
    cb09:	c7 85 c4 f4 ff ff f6 	movl   $0xfffffff6,-0xb3c(%rbp)
    cb10:	ff ff ff 
    cb13:	c7 85 c8 f4 ff ff 01 	movl   $0x1,-0xb38(%rbp)
    cb1a:	00 00 00 
    cb1d:	c7 85 30 f7 ff ff 09 	movl   $0x9,-0x8d0(%rbp)
    cb24:	00 00 00 
    cb27:	c7 85 34 f7 ff ff 06 	movl   $0x6,-0x8cc(%rbp)
    cb2e:	00 00 00 
    cb31:	c7 85 38 f7 ff ff 1b 	movl   $0xefffc71b,-0x8c8(%rbp)
    cb38:	c7 ff ef 
    cb3b:	c7 85 3c f7 ff ff 83 	movl   $0xc3506583,-0x8c4(%rbp)
    cb42:	65 50 c3 
    cb45:	c7 85 40 f7 ff ff 1b 	movl   $0xefffc71b,-0x8c0(%rbp)
    cb4c:	c7 ff ef 
    cb4f:	c7 85 44 f7 ff ff 1b 	movl   $0xefffc71b,-0x8bc(%rbp)
    cb56:	c7 ff ef 
    cb59:	c7 85 48 f7 ff ff 1b 	movl   $0xefffc71b,-0x8b8(%rbp)
    cb60:	c7 ff ef 
    cb63:	c7 85 4c f7 ff ff 00 	movl   $0x0,-0x8b4(%rbp)
    cb6a:	00 00 00 
    cb6d:	c7 85 50 f7 ff ff 83 	movl   $0xc3506583,-0x8b0(%rbp)
    cb74:	65 50 c3 
    cb77:	c7 85 54 f7 ff ff 2f 	movl   $0xed1e3e2f,-0x8ac(%rbp)
    cb7e:	3e 1e ed 
    cb81:	c7 85 58 f7 ff ff 06 	movl   $0x6,-0x8a8(%rbp)
    cb88:	00 00 00 
    cb8b:	c7 85 5c f7 ff ff 09 	movl   $0x9,-0x8a4(%rbp)
    cb92:	00 00 00 
    cb95:	c7 85 60 f7 ff ff 09 	movl   $0x9,-0x8a0(%rbp)
    cb9c:	00 00 00 
    cb9f:	c7 85 64 f7 ff ff 06 	movl   $0x6,-0x89c(%rbp)
    cba6:	00 00 00 
    cba9:	c7 85 68 f7 ff ff 1b 	movl   $0xefffc71b,-0x898(%rbp)
    cbb0:	c7 ff ef 
    cbb3:	48 8b 05 16 1f 01 00 	mov    0x11f16(%rip),%rax        # 1ead0 <g_1758>
    cbba:	0f b7 00             	movzwl (%rax),%eax
    cbbd:	44 0f b7 e0          	movzwl %ax,%r12d
    cbc1:	8b 85 0c f4 ff ff    	mov    -0xbf4(%rbp),%eax
    cbc7:	0f b6 d0             	movzbl %al,%edx
    cbca:	48 8b 85 e0 f4 ff ff 	mov    -0xb20(%rbp),%rax
    cbd1:	8b 00                	mov    (%rax),%eax
    cbd3:	85 c0                	test   %eax,%eax
    cbd5:	0f 94 c0             	sete   %al
    cbd8:	0f b6 c0             	movzbl %al,%eax
    cbdb:	39 85 c0 f4 ff ff    	cmp    %eax,-0xb40(%rbp)
    cbe1:	0f 9c c0             	setl   %al
    cbe4:	0f b6 c0             	movzbl %al,%eax
    cbe7:	89 d6                	mov    %edx,%esi
    cbe9:	89 c7                	mov    %eax,%edi
    cbeb:	e8 a3 cf ff ff       	callq  9b93 <safe_mul_func_uint8_t_u_u>
    cbf0:	84 c0                	test   %al,%al
    cbf2:	75 59                	jne    cc4d <func_2+0x1cad>
    cbf4:	48 8b 05 d5 1e 01 00 	mov    0x11ed5(%rip),%rax        # 1ead0 <g_1758>
    cbfb:	0f b7 00             	movzwl (%rax),%eax
    cbfe:	0f b7 d8             	movzwl %ax,%ebx
    cc01:	48 8b 05 78 15 01 00 	mov    0x11578(%rip),%rax        # 1e180 <g_425>
    cc08:	0f b7 00             	movzwl (%rax),%eax
    cc0b:	0f b7 d0             	movzwl %ax,%edx
    cc0e:	48 8b 05 bb 1e 01 00 	mov    0x11ebb(%rip),%rax        # 1ead0 <g_1758>
    cc15:	0f b7 00             	movzwl (%rax),%eax
    cc18:	0f b7 c0             	movzwl %ax,%eax
    cc1b:	89 d6                	mov    %edx,%esi
    cc1d:	89 c7                	mov    %eax,%edi
    cc1f:	e8 6a d1 ff ff       	callq  9d8e <safe_div_func_uint16_t_u_u>
    cc24:	0f b7 d0             	movzwl %ax,%edx
    cc27:	48 8b 85 e0 f4 ff ff 	mov    -0xb20(%rbp),%rax
    cc2e:	8b 00                	mov    (%rax),%eax
    cc30:	39 c2                	cmp    %eax,%edx
    cc32:	0f 9e c0             	setle  %al
    cc35:	0f b6 c0             	movzbl %al,%eax
    cc38:	39 85 c0 f4 ff ff    	cmp    %eax,-0xb40(%rbp)
    cc3e:	0f 9e c0             	setle  %al
    cc41:	0f b6 c0             	movzbl %al,%eax
    cc44:	89 de                	mov    %ebx,%esi
    cc46:	89 c7                	mov    %eax,%edi
    cc48:	e8 94 c8 ff ff       	callq  94e1 <safe_lshift_func_int16_t_s_u>
    cc4d:	b8 01 00 00 00       	mov    $0x1,%eax
    cc52:	98                   	cwtl   
    cc53:	be 05 00 00 00       	mov    $0x5,%esi
    cc58:	89 c7                	mov    %eax,%edi
    cc5a:	e8 82 c8 ff ff       	callq  94e1 <safe_lshift_func_int16_t_s_u>
    cc5f:	98                   	cwtl   
    cc60:	be 0b 00 00 00       	mov    $0xb,%esi
    cc65:	89 c7                	mov    %eax,%edi
    cc67:	e8 be c8 ff ff       	callq  952a <safe_rshift_func_int16_t_s_s>
    cc6c:	66 85 c0             	test   %ax,%ax
    cc6f:	75 07                	jne    cc78 <func_2+0x1cd8>
    cc71:	b8 8c 58 e0 18       	mov    $0x18e0588c,%eax
    cc76:	eb 05                	jmp    cc7d <func_2+0x1cdd>
    cc78:	b8 8d 58 e0 18       	mov    $0x18e0588d,%eax
    cc7d:	4c 39 e0             	cmp    %r12,%rax
    cc80:	7f 0c                	jg     cc8e <func_2+0x1cee>
    cc82:	48 ba f8 f2 10 e5 36 	movabs $0xd7f0a436e510f2f8,%rdx
    cc89:	a4 f0 d7 
    cc8c:	eb 0a                	jmp    cc98 <func_2+0x1cf8>
    cc8e:	48 ba f9 f2 10 e5 36 	movabs $0xd7f0a436e510f2f9,%rdx
    cc95:	a4 f0 d7 
    cc98:	48 8b 85 50 f5 ff ff 	mov    -0xab0(%rbp),%rax
    cc9f:	0f b6 00             	movzbl (%rax),%eax
    cca2:	89 c1                	mov    %eax,%ecx
    cca4:	89 d0                	mov    %edx,%eax
    cca6:	31 c8                	xor    %ecx,%eax
    cca8:	89 c2                	mov    %eax,%edx
    ccaa:	48 8b 85 50 f5 ff ff 	mov    -0xab0(%rbp),%rax
    ccb1:	88 10                	mov    %dl,(%rax)
    ccb3:	48 8b 85 50 f5 ff ff 	mov    -0xab0(%rbp),%rax
    ccba:	0f b6 00             	movzbl (%rax),%eax
    ccbd:	0f be c0             	movsbl %al,%eax
    ccc0:	be 04 00 00 00       	mov    $0x4,%esi
    ccc5:	89 c7                	mov    %eax,%edi
    ccc7:	e8 69 c6 ff ff       	callq  9335 <safe_rshift_func_int8_t_s_s>
    cccc:	66 98                	cbtw   
    ccce:	0f b7 c0             	movzwl %ax,%eax
    ccd1:	be 09 00 00 00       	mov    $0x9,%esi
    ccd6:	89 c7                	mov    %eax,%edi
    ccd8:	e8 29 d1 ff ff       	callq  9e06 <safe_lshift_func_uint16_t_u_u>
    ccdd:	8b 85 fc f3 ff ff    	mov    -0xc04(%rbp),%eax
    cce3:	89 c6                	mov    %eax,%esi
    cce5:	bf 01 00 00 00       	mov    $0x1,%edi
    ccea:	e8 3b c8 ff ff       	callq  952a <safe_rshift_func_int16_t_s_s>
    ccef:	66 83 f8 01          	cmp    $0x1,%ax
    ccf3:	0f 97 c0             	seta   %al
    ccf6:	0f b6 c0             	movzbl %al,%eax
    ccf9:	09 85 60 f4 ff ff    	or     %eax,-0xba0(%rbp)
    ccff:	8b 85 60 f4 ff ff    	mov    -0xba0(%rbp),%eax
    cd05:	0f be c0             	movsbl %al,%eax
    cd08:	be 02 00 00 00       	mov    $0x2,%esi
    cd0d:	89 c7                	mov    %eax,%edi
    cd0f:	e8 21 c6 ff ff       	callq  9335 <safe_rshift_func_int8_t_s_s>
    cd14:	84 c0                	test   %al,%al
    cd16:	0f 84 3d 04 00 00    	je     d159 <func_2+0x21b9>
    cd1c:	48 8d 05 e5 20 01 00 	lea    0x120e5(%rip),%rax        # 1ee08 <g_2859>
    cd23:	48 89 85 40 f6 ff ff 	mov    %rax,-0x9c0(%rbp)
    cd2a:	48 c7 85 48 f6 ff ff 	movq   $0x0,-0x9b8(%rbp)
    cd31:	00 00 00 00 
    cd35:	c7 85 90 fa ff ff 7d 	movl   $0x7287927d,-0x570(%rbp)
    cd3c:	92 87 72 
    cd3f:	c7 85 94 fa ff ff 7d 	movl   $0x7287927d,-0x56c(%rbp)
    cd46:	92 87 72 
    cd49:	c7 85 98 fa ff ff 7d 	movl   $0x7287927d,-0x568(%rbp)
    cd50:	92 87 72 
    cd53:	c7 85 9c fa ff ff 7d 	movl   $0x7287927d,-0x564(%rbp)
    cd5a:	92 87 72 
    cd5d:	c7 85 a0 fa ff ff 7d 	movl   $0x7287927d,-0x560(%rbp)
    cd64:	92 87 72 
    cd67:	c7 85 a4 fa ff ff 7d 	movl   $0x7287927d,-0x55c(%rbp)
    cd6e:	92 87 72 
    cd71:	c7 85 a8 fa ff ff 7d 	movl   $0x7287927d,-0x558(%rbp)
    cd78:	92 87 72 
    cd7b:	c7 85 ac fa ff ff 7d 	movl   $0x7287927d,-0x554(%rbp)
    cd82:	92 87 72 
    cd85:	c7 85 b0 fa ff ff 7d 	movl   $0x7287927d,-0x550(%rbp)
    cd8c:	92 87 72 
    cd8f:	c7 85 b4 fa ff ff 7d 	movl   $0x7287927d,-0x54c(%rbp)
    cd96:	92 87 72 
    cd99:	48 81 8d 20 f6 ff ff 	orq    $0x1010370,-0x9e0(%rbp)
    cda0:	70 03 01 01 
    cda4:	48 83 bd 60 f5 ff ff 	cmpq   $0x0,-0xaa0(%rbp)
    cdab:	00 
    cdac:	0f 95 c0             	setne  %al
    cdaf:	44 0f b6 e0          	movzbl %al,%r12d
    cdb3:	48 8b 85 28 f5 ff ff 	mov    -0xad8(%rbp),%rax
    cdba:	8b 00                	mov    (%rax),%eax
    cdbc:	0f be d8             	movsbl %al,%ebx
    cdbf:	48 8b 85 28 f5 ff ff 	mov    -0xad8(%rbp),%rax
    cdc6:	8b 00                	mov    (%rax),%eax
    cdc8:	85 c0                	test   %eax,%eax
    cdca:	75 32                	jne    cdfe <func_2+0x1e5e>
    cdcc:	48 83 bd 40 f6 ff ff 	cmpq   $0x0,-0x9c0(%rbp)
    cdd3:	00 
    cdd4:	0f 95 c2             	setne  %dl
    cdd7:	48 8b 05 aa 13 01 00 	mov    0x113aa(%rip),%rax        # 1e188 <g_424>
    cdde:	48 8b 00             	mov    (%rax),%rax
    cde1:	0f b6 d2             	movzbl %dl,%edx
    cde4:	66 89 10             	mov    %dx,(%rax)
    cde7:	0f b7 00             	movzwl (%rax),%eax
    cdea:	0f bf d0             	movswl %ax,%edx
    cded:	48 8b 05 dc 1c 01 00 	mov    0x11cdc(%rip),%rax        # 1ead0 <g_1758>
    cdf4:	0f b7 00             	movzwl (%rax),%eax
    cdf7:	0f b7 c0             	movzwl %ax,%eax
    cdfa:	39 c2                	cmp    %eax,%edx
    cdfc:	7e 07                	jle    ce05 <func_2+0x1e65>
    cdfe:	b8 01 00 00 00       	mov    $0x1,%eax
    ce03:	eb 05                	jmp    ce0a <func_2+0x1e6a>
    ce05:	b8 00 00 00 00       	mov    $0x0,%eax
    ce0a:	0f b6 c0             	movzbl %al,%eax
    ce0d:	8b 95 58 f4 ff ff    	mov    -0xba8(%rbp),%edx
    ce13:	89 d6                	mov    %edx,%esi
    ce15:	89 c7                	mov    %eax,%edi
    ce17:	e8 71 ce ff ff       	callq  9c8d <safe_rshift_func_uint8_t_u_s>
    ce1c:	89 de                	mov    %ebx,%esi
    ce1e:	bf 01 00 00 00       	mov    $0x1,%edi
    ce23:	e8 ac c3 ff ff       	callq  91d4 <safe_add_func_int8_t_s_s>
    ce28:	0f be d0             	movsbl %al,%edx
    ce2b:	48 8b 85 88 f5 ff ff 	mov    -0xa78(%rbp),%rax
    ce32:	48 3b 85 28 f6 ff ff 	cmp    -0x9d8(%rbp),%rax
    ce39:	0f 95 c0             	setne  %al
    ce3c:	0f b6 c0             	movzbl %al,%eax
    ce3f:	89 d6                	mov    %edx,%esi
    ce41:	89 c7                	mov    %eax,%edi
    ce43:	e8 0d c6 ff ff       	callq  9455 <safe_div_func_int16_t_s_s>
    ce48:	0f bf d0             	movswl %ax,%edx
    ce4b:	8b 85 2c f4 ff ff    	mov    -0xbd4(%rbp),%eax
    ce51:	39 c2                	cmp    %eax,%edx
    ce53:	0f 93 c0             	setae  %al
    ce56:	0f b6 d0             	movzbl %al,%edx
    ce59:	48 8b 05 70 1c 01 00 	mov    0x11c70(%rip),%rax        # 1ead0 <g_1758>
    ce60:	0f b7 00             	movzwl (%rax),%eax
    ce63:	0f b7 c0             	movzwl %ax,%eax
    ce66:	39 c2                	cmp    %eax,%edx
    ce68:	0f 95 c0             	setne  %al
    ce6b:	0f b6 c0             	movzbl %al,%eax
    ce6e:	41 39 c4             	cmp    %eax,%r12d
    ce71:	0f 9f c0             	setg   %al
    ce74:	0f b6 d0             	movzbl %al,%edx
    ce77:	8b 85 fc f3 ff ff    	mov    -0xc04(%rbp),%eax
    ce7d:	89 d6                	mov    %edx,%esi
    ce7f:	89 c7                	mov    %eax,%edi
    ce81:	e8 60 d0 ff ff       	callq  9ee6 <safe_mul_func_uint32_t_u_u>
    ce86:	89 85 04 f8 ff ff    	mov    %eax,-0x7fc(%rbp)
    ce8c:	48 83 bd 00 f4 ff ff 	cmpq   $0x0,-0xc00(%rbp)
    ce93:	00 
    ce94:	0f 84 94 00 00 00    	je     cf2e <func_2+0x1f8e>
    ce9a:	c7 05 44 26 01 00 f7 	movl   $0xfffffff7,0x12644(%rip)        # 1f4e8 <g_2648>
    cea1:	ff ff ff 
    cea4:	eb 2d                	jmp    ced3 <func_2+0x1f33>
    cea6:	48 8b 85 e0 f4 ff ff 	mov    -0xb20(%rbp),%rax
    cead:	8b 08                	mov    (%rax),%ecx
    ceaf:	0f b7 85 08 f4 ff ff 	movzwl -0xbf8(%rbp),%eax
    ceb6:	0f b7 d0             	movzwl %ax,%edx
    ceb9:	48 8b 85 e0 f4 ff ff 	mov    -0xb20(%rbp),%rax
    cec0:	09 ca                	or     %ecx,%edx
    cec2:	89 10                	mov    %edx,(%rax)
    cec4:	8b 05 1e 26 01 00    	mov    0x1261e(%rip),%eax        # 1f4e8 <g_2648>
    ceca:	83 c0 01             	add    $0x1,%eax
    cecd:	89 05 15 26 01 00    	mov    %eax,0x12615(%rip)        # 1f4e8 <g_2648>
    ced3:	8b 05 0f 26 01 00    	mov    0x1260f(%rip),%eax        # 1f4e8 <g_2648>
    ced9:	83 f8 2f             	cmp    $0x2f,%eax
    cedc:	75 c8                	jne    cea6 <func_2+0x1f06>
    cede:	66 c7 05 69 25 01 00 	movw   $0x0,0x12569(%rip)        # 1f450 <g_120>
    cee5:	00 00 
    cee7:	eb 33                	jmp    cf1c <func_2+0x1f7c>
    cee9:	48 83 bd 00 f4 ff ff 	cmpq   $0x0,-0xc00(%rbp)
    cef0:	00 
    cef1:	0f 85 71 02 00 00    	jne    d168 <func_2+0x21c8>
    cef7:	48 83 bd 48 f6 ff ff 	cmpq   $0x0,-0x9b8(%rbp)
    cefe:	00 
    ceff:	0f 95 c0             	setne  %al
    cf02:	0f b6 c0             	movzbl %al,%eax
    cf05:	89 85 fc f3 ff ff    	mov    %eax,-0xc04(%rbp)
    cf0b:	0f b7 05 3e 25 01 00 	movzwl 0x1253e(%rip),%eax        # 1f450 <g_120>
    cf12:	83 c0 01             	add    $0x1,%eax
    cf15:	66 89 05 34 25 01 00 	mov    %ax,0x12534(%rip)        # 1f450 <g_120>
    cf1c:	0f b7 05 2d 25 01 00 	movzwl 0x1252d(%rip),%eax        # 1f450 <g_120>
    cf23:	66 83 f8 07          	cmp    $0x7,%ax
    cf27:	76 c0                	jbe    cee9 <func_2+0x1f49>
    cf29:	e9 3b 02 00 00       	jmpq   d169 <func_2+0x21c9>
    cf2e:	48 b8 65 7a f9 49 b2 	movabs $0x515d37b249f97a65,%rax
    cf35:	37 5d 51 
    cf38:	48 89 85 38 f5 ff ff 	mov    %rax,-0xac8(%rbp)
    cf3f:	48 c7 85 50 f6 ff ff 	movq   $0x0,-0x9b0(%rbp)
    cf46:	00 00 00 00 
    cf4a:	48 b8 40 b5 76 4f f0 	movabs $0xf6ad28f04f76b540,%rax
    cf51:	28 ad f6 
    cf54:	48 89 85 20 f5 ff ff 	mov    %rax,-0xae0(%rbp)
    cf5b:	c6 05 3e e7 00 00 00 	movb   $0x0,0xe73e(%rip)        # 1b6a0 <g_639>
    cf62:	e9 e1 01 00 00       	jmpq   d148 <func_2+0x21a8>
    cf67:	c6 85 20 f4 ff ff 01 	movb   $0x1,-0xbe0(%rbp)
    cf6e:	48 8d 05 2b eb 00 00 	lea    0xeb2b(%rip),%rax        # 1baa0 <g_2512>
    cf75:	48 89 85 58 f6 ff ff 	mov    %rax,-0x9a8(%rbp)
    cf7c:	48 83 85 38 f5 ff ff 	addq   $0x1,-0xac8(%rbp)
    cf83:	01 
    cf84:	0f b6 85 20 f4 ff ff 	movzbl -0xbe0(%rbp),%eax
    cf8b:	be 08 00 00 00       	mov    $0x8,%esi
    cf90:	89 c7                	mov    %eax,%edi
    cf92:	e8 fb c4 ff ff       	callq  9492 <safe_lshift_func_int16_t_s_s>
    cf97:	89 c2                	mov    %eax,%edx
    cf99:	48 8b 85 e0 f4 ff ff 	mov    -0xb20(%rbp),%rax
    cfa0:	0f bf d2             	movswl %dx,%edx
    cfa3:	89 10                	mov    %edx,(%rax)
    cfa5:	48 8b 15 04 1c 01 00 	mov    0x11c04(%rip),%rdx        # 1ebb0 <g_2348>
    cfac:	48 8b 02             	mov    (%rdx),%rax
    cfaf:	48 8d 48 ff          	lea    -0x1(%rax),%rcx
    cfb3:	48 89 0a             	mov    %rcx,(%rdx)
    cfb6:	48 85 c0             	test   %rax,%rax
    cfb9:	0f 84 2a 01 00 00    	je     d0e9 <func_2+0x2149>
    cfbf:	48 8b 05 0a 1b 01 00 	mov    0x11b0a(%rip),%rax        # 1ead0 <g_1758>
    cfc6:	0f b7 00             	movzwl (%rax),%eax
    cfc9:	0f bf d8             	movswl %ax,%ebx
    cfcc:	48 83 bd 50 f6 ff ff 	cmpq   $0x0,-0x9b0(%rbp)
    cfd3:	00 
    cfd4:	0f 95 c2             	setne  %dl
    cfd7:	48 8b 05 6a 08 01 00 	mov    0x1086a(%rip),%rax        # 1d848 <g_153>
    cfde:	88 10                	mov    %dl,(%rax)
    cfe0:	0f b6 00             	movzbl (%rax),%eax
    cfe3:	0f b6 d0             	movzbl %al,%edx
    cfe6:	0f b7 85 08 f4 ff ff 	movzwl -0xbf8(%rbp),%eax
    cfed:	66 83 f8 ff          	cmp    $0xffff,%ax
    cff1:	0f 95 c0             	setne  %al
    cff4:	0f b6 c0             	movzbl %al,%eax
    cff7:	21 d0                	and    %edx,%eax
    cff9:	f7 d0                	not    %eax
    cffb:	41 89 c5             	mov    %eax,%r13d
    cffe:	8b 05 38 eb 00 00    	mov    0xeb38(%rip),%eax        # 1bb3c <g_2984>
    d004:	4c 63 e0             	movslq %eax,%r12
    d007:	48 8b 05 ea 07 01 00 	mov    0x107ea(%rip),%rax        # 1d7f8 <g_102>
    d00e:	48 8b 00             	mov    (%rax),%rax
    d011:	48 8b 38             	mov    (%rax),%rdi
    d014:	48 8b 05 9d 1a 01 00 	mov    0x11a9d(%rip),%rax        # 1eab8 <g_1562>
    d01b:	48 8b 00             	mov    (%rax),%rax
    d01e:	48 89 85 20 f5 ff ff 	mov    %rax,-0xae0(%rbp)
    d025:	0f b7 85 08 f4 ff ff 	movzwl -0xbf8(%rbp),%eax
    d02c:	0f b6 f0             	movzbl %al,%esi
    d02f:	48 8b 05 9a 1a 01 00 	mov    0x11a9a(%rip),%rax        # 1ead0 <g_1758>
    d036:	0f b7 10             	movzwl (%rax),%edx
    d039:	0f b7 85 08 f4 ff ff 	movzwl -0xbf8(%rbp),%eax
    d040:	21 d0                	and    %edx,%eax
    d042:	0f b7 c0             	movzwl %ax,%eax
    d045:	48 8b 8d 20 f5 ff ff 	mov    -0xae0(%rbp),%rcx
    d04c:	48 8b 95 30 f6 ff ff 	mov    -0x9d0(%rbp),%rdx
    d053:	49 89 f8             	mov    %rdi,%r8
    d056:	89 c7                	mov    %eax,%edi
    d058:	e8 30 2f 00 00       	callq  ff8d <func_36>
    d05d:	4c 89 e6             	mov    %r12,%rsi
    d060:	bf 00 00 00 00       	mov    $0x0,%edi
    d065:	e8 c4 cf ff ff       	callq  a02e <safe_add_func_uint64_t_u_u>
    d06a:	48 85 c0             	test   %rax,%rax
    d06d:	74 10                	je     d07f <func_2+0x20df>
    d06f:	83 bd 0c f4 ff ff 00 	cmpl   $0x0,-0xbf4(%rbp)
    d076:	74 07                	je     d07f <func_2+0x20df>
    d078:	b8 01 00 00 00       	mov    $0x1,%eax
    d07d:	eb 05                	jmp    d084 <func_2+0x20e4>
    d07f:	b8 00 00 00 00       	mov    $0x0,%eax
    d084:	44 39 e8             	cmp    %r13d,%eax
    d087:	0f 95 c0             	setne  %al
    d08a:	0f b6 c0             	movzbl %al,%eax
    d08d:	89 de                	mov    %ebx,%esi
    d08f:	89 c7                	mov    %eax,%edi
    d091:	e8 1d c3 ff ff       	callq  93b3 <safe_add_func_int16_t_s_s>
    d096:	8b 95 90 fa ff ff    	mov    -0x570(%rbp),%edx
    d09c:	21 c2                	and    %eax,%edx
    d09e:	0f b6 05 6b e7 00 00 	movzbl 0xe76b(%rip),%eax        # 1b810 <g_1186>
    d0a5:	0f b6 c0             	movzbl %al,%eax
    d0a8:	09 c2                	or     %eax,%edx
    d0aa:	48 8b 05 1f 1a 01 00 	mov    0x11a1f(%rip),%rax        # 1ead0 <g_1758>
    d0b1:	66 89 10             	mov    %dx,(%rax)
    d0b4:	0f b7 10             	movzwl (%rax),%edx
    d0b7:	48 8b 85 58 f6 ff ff 	mov    -0x9a8(%rbp),%rax
    d0be:	0f b7 00             	movzwl (%rax),%eax
    d0c1:	09 c2                	or     %eax,%edx
    d0c3:	48 8b 85 58 f6 ff ff 	mov    -0x9a8(%rbp),%rax
    d0ca:	66 89 10             	mov    %dx,(%rax)
    d0cd:	48 8b 85 58 f6 ff ff 	mov    -0x9a8(%rbp),%rax
    d0d4:	0f b7 00             	movzwl (%rax),%eax
    d0d7:	0f b7 c0             	movzwl %ax,%eax
    d0da:	39 85 fc f3 ff ff    	cmp    %eax,-0xc04(%rbp)
    d0e0:	74 07                	je     d0e9 <func_2+0x2149>
    d0e2:	b8 01 00 00 00       	mov    $0x1,%eax
    d0e7:	eb 05                	jmp    d0ee <func_2+0x214e>
    d0e9:	b8 00 00 00 00       	mov    $0x0,%eax
    d0ee:	48 98                	cltq   
    d0f0:	48 39 85 00 f4 ff ff 	cmp    %rax,-0xc00(%rbp)
    d0f7:	0f 95 c0             	setne  %al
    d0fa:	0f b6 d0             	movzbl %al,%edx
    d0fd:	0f b6 85 20 f4 ff ff 	movzbl -0xbe0(%rbp),%eax
    d104:	39 c2                	cmp    %eax,%edx
    d106:	0f 9e c0             	setle  %al
    d109:	0f b6 c0             	movzbl %al,%eax
    d10c:	89 85 fc f3 ff ff    	mov    %eax,-0xc04(%rbp)
    d112:	8b 8d fc f3 ff ff    	mov    -0xc04(%rbp),%ecx
    d118:	48 8b 85 e0 f4 ff ff 	mov    -0xb20(%rbp),%rax
    d11f:	8b 10                	mov    (%rax),%edx
    d121:	48 8b 85 e0 f4 ff ff 	mov    -0xb20(%rbp),%rax
    d128:	09 ca                	or     %ecx,%edx
    d12a:	89 10                	mov    %edx,(%rax)
    d12c:	0f b6 05 6d e5 00 00 	movzbl 0xe56d(%rip),%eax        # 1b6a0 <g_639>
    d133:	0f be c0             	movsbl %al,%eax
    d136:	be 09 00 00 00       	mov    $0x9,%esi
    d13b:	89 c7                	mov    %eax,%edi
    d13d:	e8 74 c4 ff ff       	callq  95b6 <safe_add_func_int32_t_s_s>
    d142:	88 05 58 e5 00 00    	mov    %al,0xe558(%rip)        # 1b6a0 <g_639>
    d148:	0f b6 05 51 e5 00 00 	movzbl 0xe551(%rip),%eax        # 1b6a0 <g_639>
    d14f:	3c 13                	cmp    $0x13,%al
    d151:	0f 85 10 fe ff ff    	jne    cf67 <func_2+0x1fc7>
    d157:	eb 10                	jmp    d169 <func_2+0x21c9>
    d159:	0f b7 85 08 f4 ff ff 	movzwl -0xbf8(%rbp),%eax
    d160:	0f b7 c0             	movzwl %ax,%eax
    d163:	e9 47 04 00 00       	jmpq   d5af <func_2+0x260f>
    d168:	90                   	nop
    d169:	66 c7 05 ae e9 00 00 	movw   $0x0,0xe9ae(%rip)        # 1bb20 <g_2870>
    d170:	00 00 
    d172:	e9 0e 04 00 00       	jmpq   d585 <func_2+0x25e5>
    d177:	c6 85 21 f4 ff ff 15 	movb   $0x15,-0xbdf(%rbp)
    d17e:	c7 85 cc f4 ff ff 00 	movl   $0x0,-0xb34(%rbp)
    d185:	00 00 00 
    d188:	c7 85 d0 f4 ff ff fb 	movl   $0xfffffffb,-0xb30(%rbp)
    d18f:	ff ff ff 
    d192:	48 b8 5e 11 54 49 d1 	movabs $0x7c7461d14954115e,%rax
    d199:	61 74 7c 
    d19c:	48 89 85 60 f6 ff ff 	mov    %rax,-0x9a0(%rbp)
    d1a3:	48 8d 85 90 fa ff ff 	lea    -0x570(%rbp),%rax
    d1aa:	48 8d 15 0f 91 00 00 	lea    0x910f(%rip),%rdx        # 162c0 <g_2652+0x254>
    d1b1:	b9 28 00 00 00       	mov    $0x28,%ecx
    d1b6:	48 89 c7             	mov    %rax,%rdi
    d1b9:	48 89 d6             	mov    %rdx,%rsi
    d1bc:	f3 48 a5             	rep movsq %ds:(%rsi),%es:(%rdi)
    d1bf:	48 89 f2             	mov    %rsi,%rdx
    d1c2:	48 89 f8             	mov    %rdi,%rax
    d1c5:	8b 0a                	mov    (%rdx),%ecx
    d1c7:	89 08                	mov    %ecx,(%rax)
    d1c9:	48 8d 40 04          	lea    0x4(%rax),%rax
    d1cd:	48 8d 52 04          	lea    0x4(%rdx),%rdx
    d1d1:	c7 85 48 f4 ff ff 00 	movl   $0x0,-0xbb8(%rbp)
    d1d8:	00 00 00 
    d1db:	eb 50                	jmp    d22d <func_2+0x228d>
    d1dd:	c7 85 4c f4 ff ff 00 	movl   $0x0,-0xbb4(%rbp)
    d1e4:	00 00 00 
    d1e7:	eb 34                	jmp    d21d <func_2+0x227d>
    d1e9:	8b 85 4c f4 ff ff    	mov    -0xbb4(%rbp),%eax
    d1ef:	48 63 c8             	movslq %eax,%rcx
    d1f2:	8b 85 48 f4 ff ff    	mov    -0xbb8(%rbp),%eax
    d1f8:	48 63 d0             	movslq %eax,%rdx
    d1fb:	48 89 d0             	mov    %rdx,%rax
    d1fe:	48 c1 e0 02          	shl    $0x2,%rax
    d202:	48 01 d0             	add    %rdx,%rax
    d205:	48 01 c0             	add    %rax,%rax
    d208:	48 01 c8             	add    %rcx,%rax
    d20b:	c7 84 85 90 f8 ff ff 	movl   $0xc938bc09,-0x770(%rbp,%rax,4)
    d212:	09 bc 38 c9 
    d216:	83 85 4c f4 ff ff 01 	addl   $0x1,-0xbb4(%rbp)
    d21d:	83 bd 4c f4 ff ff 09 	cmpl   $0x9,-0xbb4(%rbp)
    d224:	7e c3                	jle    d1e9 <func_2+0x2249>
    d226:	83 85 48 f4 ff ff 01 	addl   $0x1,-0xbb8(%rbp)
    d22d:	83 bd 48 f4 ff ff 01 	cmpl   $0x1,-0xbb8(%rbp)
    d234:	7e a7                	jle    d1dd <func_2+0x223d>
    d236:	66 c7 05 c9 e5 00 00 	movw   $0x0,0xe5c9(%rip)        # 1b808 <g_1130>
    d23d:	00 00 
    d23f:	e9 ed 02 00 00       	jmpq   d531 <func_2+0x2591>
    d244:	48 8d 05 99 e5 00 00 	lea    0xe599(%rip),%rax        # 1b7e4 <g_1007>
    d24b:	48 89 85 d0 f9 ff ff 	mov    %rax,-0x630(%rbp)
    d252:	48 8d 05 8b e5 00 00 	lea    0xe58b(%rip),%rax        # 1b7e4 <g_1007>
    d259:	48 89 85 d8 f9 ff ff 	mov    %rax,-0x628(%rbp)
    d260:	48 8d 05 7d e5 00 00 	lea    0xe57d(%rip),%rax        # 1b7e4 <g_1007>
    d267:	48 89 85 e0 f9 ff ff 	mov    %rax,-0x620(%rbp)
    d26e:	48 8d 05 6f e5 00 00 	lea    0xe56f(%rip),%rax        # 1b7e4 <g_1007>
    d275:	48 89 85 e8 f9 ff ff 	mov    %rax,-0x618(%rbp)
    d27c:	48 8d 05 61 e5 00 00 	lea    0xe561(%rip),%rax        # 1b7e4 <g_1007>
    d283:	48 89 85 f0 f9 ff ff 	mov    %rax,-0x610(%rbp)
    d28a:	48 8d 05 53 e5 00 00 	lea    0xe553(%rip),%rax        # 1b7e4 <g_1007>
    d291:	48 89 85 f8 f9 ff ff 	mov    %rax,-0x608(%rbp)
    d298:	48 8d 05 45 e5 00 00 	lea    0xe545(%rip),%rax        # 1b7e4 <g_1007>
    d29f:	48 89 85 00 fa ff ff 	mov    %rax,-0x600(%rbp)
    d2a6:	48 8d 05 37 e5 00 00 	lea    0xe537(%rip),%rax        # 1b7e4 <g_1007>
    d2ad:	48 89 85 08 fa ff ff 	mov    %rax,-0x5f8(%rbp)
    d2b4:	48 8d 05 29 e5 00 00 	lea    0xe529(%rip),%rax        # 1b7e4 <g_1007>
    d2bb:	48 89 85 10 fa ff ff 	mov    %rax,-0x5f0(%rbp)
    d2c2:	48 8d 05 1b e5 00 00 	lea    0xe51b(%rip),%rax        # 1b7e4 <g_1007>
    d2c9:	48 89 85 18 fa ff ff 	mov    %rax,-0x5e8(%rbp)
    d2d0:	48 8d 05 0d e5 00 00 	lea    0xe50d(%rip),%rax        # 1b7e4 <g_1007>
    d2d7:	48 89 85 20 fa ff ff 	mov    %rax,-0x5e0(%rbp)
    d2de:	48 8d 05 ff e4 00 00 	lea    0xe4ff(%rip),%rax        # 1b7e4 <g_1007>
    d2e5:	48 89 85 28 fa ff ff 	mov    %rax,-0x5d8(%rbp)
    d2ec:	48 8d 05 f1 e4 00 00 	lea    0xe4f1(%rip),%rax        # 1b7e4 <g_1007>
    d2f3:	48 89 85 30 fa ff ff 	mov    %rax,-0x5d0(%rbp)
    d2fa:	48 8d 05 e3 e4 00 00 	lea    0xe4e3(%rip),%rax        # 1b7e4 <g_1007>
    d301:	48 89 85 38 fa ff ff 	mov    %rax,-0x5c8(%rbp)
    d308:	48 8d 05 d5 e4 00 00 	lea    0xe4d5(%rip),%rax        # 1b7e4 <g_1007>
    d30f:	48 89 85 40 fa ff ff 	mov    %rax,-0x5c0(%rbp)
    d316:	48 8d 05 c7 e4 00 00 	lea    0xe4c7(%rip),%rax        # 1b7e4 <g_1007>
    d31d:	48 89 85 48 fa ff ff 	mov    %rax,-0x5b8(%rbp)
    d324:	48 8d 05 b9 e4 00 00 	lea    0xe4b9(%rip),%rax        # 1b7e4 <g_1007>
    d32b:	48 89 85 50 fa ff ff 	mov    %rax,-0x5b0(%rbp)
    d332:	48 8d 05 ab e4 00 00 	lea    0xe4ab(%rip),%rax        # 1b7e4 <g_1007>
    d339:	48 89 85 58 fa ff ff 	mov    %rax,-0x5a8(%rbp)
    d340:	48 8d 85 2c f4 ff ff 	lea    -0xbd4(%rbp),%rax
    d347:	48 89 85 68 f6 ff ff 	mov    %rax,-0x998(%rbp)
    d34e:	c7 85 d4 f4 ff ff 01 	movl   $0x1,-0xb2c(%rbp)
    d355:	00 00 00 
    d358:	66 c7 85 26 f4 ff ff 	movw   $0x8,-0xbda(%rbp)
    d35f:	08 00 
    d361:	48 8d 05 39 e6 00 00 	lea    0xe639(%rip),%rax        # 1b9a1 <g_2173+0x1>
    d368:	48 89 85 70 f6 ff ff 	mov    %rax,-0x990(%rbp)
    d36f:	83 bd fc f3 ff ff 00 	cmpl   $0x0,-0xc04(%rbp)
    d376:	0f 84 be 00 00 00    	je     d43a <func_2+0x249a>
    d37c:	48 8b 05 c5 04 01 00 	mov    0x104c5(%rip),%rax        # 1d848 <g_153>
    d383:	0f b6 00             	movzbl (%rax),%eax
    d386:	0f b6 d8             	movzbl %al,%ebx
    d389:	0f b7 85 08 f4 ff ff 	movzwl -0xbf8(%rbp),%eax
    d390:	44 0f b7 e0          	movzwl %ax,%r12d
    d394:	0f b7 85 08 f4 ff ff 	movzwl -0xbf8(%rbp),%eax
    d39b:	0f b7 c0             	movzwl %ax,%eax
    d39e:	be 02 00 00 00       	mov    $0x2,%esi
    d3a3:	89 c7                	mov    %eax,%edi
    d3a5:	e8 93 c9 ff ff       	callq  9d3d <safe_mul_func_uint16_t_u_u>
    d3aa:	0f b7 c0             	movzwl %ax,%eax
    d3ad:	48 be b2 75 78 32 c2 	movabs $0x9ffd17c2327875b2,%rsi
    d3b4:	17 fd 9f 
    d3b7:	48 89 c7             	mov    %rax,%rdi
    d3ba:	e8 82 c4 ff ff       	callq  9841 <safe_add_func_int64_t_s_s>
    d3bf:	0f be c0             	movsbl %al,%eax
    d3c2:	44 89 e6             	mov    %r12d,%esi
    d3c5:	89 c7                	mov    %eax,%edi
    d3c7:	e8 69 bf ff ff       	callq  9335 <safe_rshift_func_int8_t_s_s>
    d3cc:	48 8b 95 68 f6 ff ff 	mov    -0x998(%rbp),%rdx
    d3d3:	8b 12                	mov    (%rdx),%edx
    d3d5:	0f be c0             	movsbl %al,%eax
    d3d8:	09 c2                	or     %eax,%edx
    d3da:	48 8b 85 68 f6 ff ff 	mov    -0x998(%rbp),%rax
    d3e1:	89 10                	mov    %edx,(%rax)
    d3e3:	48 8b 85 68 f6 ff ff 	mov    -0x998(%rbp),%rax
    d3ea:	8b 10                	mov    (%rax),%edx
    d3ec:	8b 85 fc f3 ff ff    	mov    -0xc04(%rbp),%eax
    d3f2:	39 c2                	cmp    %eax,%edx
    d3f4:	74 07                	je     d3fd <func_2+0x245d>
    d3f6:	83 bd 0c f4 ff ff 00 	cmpl   $0x0,-0xbf4(%rbp)
    d3fd:	8b 85 0c f4 ff ff    	mov    -0xbf4(%rbp),%eax
    d403:	89 c2                	mov    %eax,%edx
    d405:	48 8b 05 b4 0d 01 00 	mov    0x10db4(%rip),%rax        # 1e1c0 <g_800>
    d40c:	8b 00                	mov    (%rax),%eax
    d40e:	21 d0                	and    %edx,%eax
    d410:	0f b6 c0             	movzbl %al,%eax
    d413:	89 de                	mov    %ebx,%esi
    d415:	89 c7                	mov    %eax,%edi
    d417:	e8 77 c7 ff ff       	callq  9b93 <safe_mul_func_uint8_t_u_u>
    d41c:	89 c2                	mov    %eax,%edx
    d41e:	48 8b 05 ab 16 01 00 	mov    0x116ab(%rip),%rax        # 1ead0 <g_1758>
    d425:	0f b6 d2             	movzbl %dl,%edx
    d428:	66 89 10             	mov    %dx,(%rax)
    d42b:	0f b7 00             	movzwl (%rax),%eax
    d42e:	66 85 c0             	test   %ax,%ax
    d431:	74 07                	je     d43a <func_2+0x249a>
    d433:	b8 01 00 00 00       	mov    $0x1,%eax
    d438:	eb 05                	jmp    d43f <func_2+0x249f>
    d43a:	b8 00 00 00 00       	mov    $0x0,%eax
    d43f:	88 85 21 f4 ff ff    	mov    %al,-0xbdf(%rbp)
    d445:	0f b6 85 21 f4 ff ff 	movzbl -0xbdf(%rbp),%eax
    d44c:	39 85 fc f3 ff ff    	cmp    %eax,-0xc04(%rbp)
    d452:	0f 9c c0             	setl   %al
    d455:	89 c2                	mov    %eax,%edx
    d457:	48 8b 85 20 f6 ff ff 	mov    -0x9e0(%rbp),%rax
    d45e:	21 d0                	and    %edx,%eax
    d460:	0f be c0             	movsbl %al,%eax
    d463:	be 00 00 00 00       	mov    $0x0,%esi
    d468:	89 c7                	mov    %eax,%edi
    d46a:	e8 7f be ff ff       	callq  92ee <safe_lshift_func_int8_t_s_u>
    d46f:	84 c0                	test   %al,%al
    d471:	75 0b                	jne    d47e <func_2+0x24de>
    d473:	48 8b 85 28 f5 ff ff 	mov    -0xad8(%rbp),%rax
    d47a:	8b 00                	mov    (%rax),%eax
    d47c:	85 c0                	test   %eax,%eax
    d47e:	8b 85 fc f3 ff ff    	mov    -0xc04(%rbp),%eax
    d484:	83 f0 01             	xor    $0x1,%eax
    d487:	89 c2                	mov    %eax,%edx
    d489:	8b 85 cc f4 ff ff    	mov    -0xb34(%rbp),%eax
    d48f:	89 c6                	mov    %eax,%esi
    d491:	89 d7                	mov    %edx,%edi
    d493:	e8 1e c1 ff ff       	callq  95b6 <safe_add_func_int32_t_s_s>
    d498:	0f b6 d0             	movzbl %al,%edx
    d49b:	48 8b 85 18 fa ff ff 	mov    -0x5e8(%rbp),%rax
    d4a2:	48 39 85 38 f6 ff ff 	cmp    %rax,-0x9c8(%rbp)
    d4a9:	0f 95 c0             	setne  %al
    d4ac:	0f b6 c0             	movzbl %al,%eax
    d4af:	89 d6                	mov    %edx,%esi
    d4b1:	89 c7                	mov    %eax,%edi
    d4b3:	e8 c0 c6 ff ff       	callq  9b78 <safe_sub_func_uint8_t_u_u>
    d4b8:	0f b6 c0             	movzbl %al,%eax
    d4bb:	39 85 0c f4 ff ff    	cmp    %eax,-0xbf4(%rbp)
    d4c1:	0f 96 c0             	setbe  %al
    d4c4:	0f b6 c0             	movzbl %al,%eax
    d4c7:	48 39 85 00 f4 ff ff 	cmp    %rax,-0xc00(%rbp)
    d4ce:	0f 92 c0             	setb   %al
    d4d1:	0f b6 c0             	movzbl %al,%eax
    d4d4:	48 39 85 00 f4 ff ff 	cmp    %rax,-0xc00(%rbp)
    d4db:	0f 95 c0             	setne  %al
    d4de:	0f b6 c0             	movzbl %al,%eax
    d4e1:	39 85 fc f3 ff ff    	cmp    %eax,-0xc04(%rbp)
    d4e7:	0f 9e c0             	setle  %al
    d4ea:	0f b6 c0             	movzbl %al,%eax
    d4ed:	39 85 d4 f4 ff ff    	cmp    %eax,-0xb2c(%rbp)
    d4f3:	0f 9f c0             	setg   %al
    d4f6:	0f b6 d0             	movzbl %al,%edx
    d4f9:	48 8b 05 b0 16 01 00 	mov    0x116b0(%rip),%rax        # 1ebb0 <g_2348>
    d500:	48 8b 00             	mov    (%rax),%rax
    d503:	48 39 c2             	cmp    %rax,%rdx
    d506:	0f 93 c0             	setae  %al
    d509:	0f b6 c8             	movzbl %al,%ecx
    d50c:	48 8b 85 e0 f4 ff ff 	mov    -0xb20(%rbp),%rax
    d513:	8b 10                	mov    (%rax),%edx
    d515:	48 8b 85 e0 f4 ff ff 	mov    -0xb20(%rbp),%rax
    d51c:	21 ca                	and    %ecx,%edx
    d51e:	89 10                	mov    %edx,(%rax)
    d520:	0f b7 05 e1 e2 00 00 	movzwl 0xe2e1(%rip),%eax        # 1b808 <g_1130>
    d527:	83 c0 01             	add    $0x1,%eax
    d52a:	66 89 05 d7 e2 00 00 	mov    %ax,0xe2d7(%rip)        # 1b808 <g_1130>
    d531:	0f b7 05 d0 e2 00 00 	movzwl 0xe2d0(%rip),%eax        # 1b808 <g_1130>
    d538:	66 83 f8 04          	cmp    $0x4,%ax
    d53c:	0f 86 02 fd ff ff    	jbe    d244 <func_2+0x22a4>
    d542:	48 83 ad 30 f5 ff ff 	subq   $0x1,-0xad0(%rbp)
    d549:	01 
    d54a:	48 8b 85 e0 f4 ff ff 	mov    -0xb20(%rbp),%rax
    d551:	8b 08                	mov    (%rax),%ecx
    d553:	8b 95 68 f7 ff ff    	mov    -0x898(%rbp),%edx
    d559:	48 8b 85 e0 f4 ff ff 	mov    -0xb20(%rbp),%rax
    d560:	21 ca                	and    %ecx,%edx
    d562:	89 10                	mov    %edx,(%rax)
    d564:	0f b6 85 1e f4 ff ff 	movzbl -0xbe2(%rbp),%eax
    d56b:	83 c0 01             	add    $0x1,%eax
    d56e:	88 85 1e f4 ff ff    	mov    %al,-0xbe2(%rbp)
    d574:	0f b7 05 a5 e5 00 00 	movzwl 0xe5a5(%rip),%eax        # 1bb20 <g_2870>
    d57b:	83 c0 01             	add    $0x1,%eax
    d57e:	66 89 05 9b e5 00 00 	mov    %ax,0xe59b(%rip)        # 1bb20 <g_2870>
    d585:	0f b7 05 94 e5 00 00 	movzwl 0xe594(%rip),%eax        # 1bb20 <g_2870>
    d58c:	66 83 f8 04          	cmp    $0x4,%ax
    d590:	0f 86 e1 fb ff ff    	jbe    d177 <func_2+0x21d7>
    d596:	48 8b 85 28 f5 ff ff 	mov    -0xad8(%rbp),%rax
    d59d:	8b 00                	mov    (%rax),%eax
    d59f:	eb 0e                	jmp    d5af <func_2+0x260f>
    d5a1:	8b 85 0c f4 ff ff    	mov    -0xbf4(%rbp),%eax
    d5a7:	eb 06                	jmp    d5af <func_2+0x260f>
    d5a9:	8b 85 fc f3 ff ff    	mov    -0xc04(%rbp),%eax
    d5af:	48 8b 5d d8          	mov    -0x28(%rbp),%rbx
    d5b3:	64 48 33 1c 25 28 00 	xor    %fs:0x28,%rbx
    d5ba:	00 00 
    d5bc:	74 05                	je     d5c3 <func_2+0x2623>
    d5be:	e8 ad ba ff ff       	callq  9070 <__stack_chk_fail@plt>
    d5c3:	48 81 c4 f8 0b 00 00 	add    $0xbf8,%rsp
    d5ca:	5b                   	pop    %rbx
    d5cb:	41 5c                	pop    %r12
    d5cd:	41 5d                	pop    %r13
    d5cf:	5d                   	pop    %rbp
    d5d0:	c3                   	retq   

000000000000d5d1 <func_8>:
    d5d1:	f3 0f 1e fa          	endbr64 
    d5d5:	55                   	push   %rbp
    d5d6:	48 89 e5             	mov    %rsp,%rbp
    d5d9:	48 81 ec a0 00 00 00 	sub    $0xa0,%rsp
    d5e0:	89 bd 7c ff ff ff    	mov    %edi,-0x84(%rbp)
    d5e6:	48 89 b5 70 ff ff ff 	mov    %rsi,-0x90(%rbp)
    d5ed:	48 89 95 68 ff ff ff 	mov    %rdx,-0x98(%rbp)
    d5f4:	64 48 8b 04 25 28 00 	mov    %fs:0x28,%rax
    d5fb:	00 00 
    d5fd:	48 89 45 f8          	mov    %rax,-0x8(%rbp)
    d601:	31 c0                	xor    %eax,%eax
    d603:	48 c7 45 88 00 00 00 	movq   $0x0,-0x78(%rbp)
    d60a:	00 
    d60b:	c7 45 84 23 02 80 4c 	movl   $0x4c800223,-0x7c(%rbp)
    d612:	48 c7 45 a0 f7 ff ff 	movq   $0xfffffffffffffff7,-0x60(%rbp)
    d619:	ff 
    d61a:	48 c7 45 a8 f7 ff ff 	movq   $0xfffffffffffffff7,-0x58(%rbp)
    d621:	ff 
    d622:	48 c7 45 b0 f7 ff ff 	movq   $0xfffffffffffffff7,-0x50(%rbp)
    d629:	ff 
    d62a:	48 c7 45 b8 f7 ff ff 	movq   $0xfffffffffffffff7,-0x48(%rbp)
    d631:	ff 
    d632:	48 c7 45 c0 f7 ff ff 	movq   $0xfffffffffffffff7,-0x40(%rbp)
    d639:	ff 
    d63a:	48 c7 45 c8 f7 ff ff 	movq   $0xfffffffffffffff7,-0x38(%rbp)
    d641:	ff 
    d642:	48 c7 45 d0 f7 ff ff 	movq   $0xfffffffffffffff7,-0x30(%rbp)
    d649:	ff 
    d64a:	48 c7 45 d8 f7 ff ff 	movq   $0xfffffffffffffff7,-0x28(%rbp)
    d651:	ff 
    d652:	48 c7 45 e0 f7 ff ff 	movq   $0xfffffffffffffff7,-0x20(%rbp)
    d659:	ff 
    d65a:	48 c7 45 e8 f7 ff ff 	movq   $0xfffffffffffffff7,-0x18(%rbp)
    d661:	ff 
    d662:	c7 45 80 00 00 00 00 	movl   $0x0,-0x80(%rbp)
    d669:	eb 15                	jmp    d680 <func_8+0xaf>
    d66b:	8b 45 80             	mov    -0x80(%rbp),%eax
    d66e:	48 98                	cltq   
    d670:	48 8d 15 19 e4 00 00 	lea    0xe419(%rip),%rdx        # 1ba90 <g_2213>
    d677:	48 89 54 c5 90       	mov    %rdx,-0x70(%rbp,%rax,8)
    d67c:	83 45 80 01          	addl   $0x1,-0x80(%rbp)
    d680:	83 7d 80 01          	cmpl   $0x1,-0x80(%rbp)
    d684:	7e e5                	jle    d66b <func_8+0x9a>
    d686:	83 6d 84 01          	subl   $0x1,-0x7c(%rbp)
    d68a:	48 8b 45 d8          	mov    -0x28(%rbp),%rax
    d68e:	48 8b 4d f8          	mov    -0x8(%rbp),%rcx
    d692:	64 48 33 0c 25 28 00 	xor    %fs:0x28,%rcx
    d699:	00 00 
    d69b:	74 05                	je     d6a2 <func_8+0xd1>
    d69d:	e8 ce b9 ff ff       	callq  9070 <__stack_chk_fail@plt>
    d6a2:	c9                   	leaveq 
    d6a3:	c3                   	retq   

000000000000d6a4 <func_12>:
    d6a4:	f3 0f 1e fa          	endbr64 
    d6a8:	55                   	push   %rbp
    d6a9:	48 89 e5             	mov    %rsp,%rbp
    d6ac:	41 55                	push   %r13
    d6ae:	41 54                	push   %r12
    d6b0:	53                   	push   %rbx
    d6b1:	48 81 ec b8 04 00 00 	sub    $0x4b8,%rsp
    d6b8:	89 bd 4c fb ff ff    	mov    %edi,-0x4b4(%rbp)
    d6be:	48 89 b5 40 fb ff ff 	mov    %rsi,-0x4c0(%rbp)
    d6c5:	48 89 95 38 fb ff ff 	mov    %rdx,-0x4c8(%rbp)
    d6cc:	89 c8                	mov    %ecx,%eax
    d6ce:	66 89 85 48 fb ff ff 	mov    %ax,-0x4b8(%rbp)
    d6d5:	64 48 8b 04 25 28 00 	mov    %fs:0x28,%rax
    d6dc:	00 00 
    d6de:	48 89 45 d8          	mov    %rax,-0x28(%rbp)
    d6e2:	31 c0                	xor    %eax,%eax
    d6e4:	c7 85 78 fb ff ff 05 	movl   $0x5,-0x488(%rbp)
    d6eb:	00 00 00 
    d6ee:	48 8d 05 8b e1 00 00 	lea    0xe18b(%rip),%rax        # 1b880 <g_1459>
    d6f5:	48 89 85 f0 fb ff ff 	mov    %rax,-0x410(%rbp)
    d6fc:	c7 85 7c fb ff ff fa 	movl   $0xfffffffa,-0x484(%rbp)
    d703:	ff ff ff 
    d706:	48 c7 85 f8 fb ff ff 	movq   $0x0,-0x408(%rbp)
    d70d:	00 00 00 00 
    d711:	48 8d 05 d0 df 00 00 	lea    0xdfd0(%rip),%rax        # 1b6e8 <g_744>
    d718:	48 89 85 00 fc ff ff 	mov    %rax,-0x400(%rbp)
    d71f:	48 c7 85 08 fc ff ff 	movq   $0x0,-0x3f8(%rbp)
    d726:	00 00 00 00 
    d72a:	48 8d 05 65 e2 00 00 	lea    0xe265(%rip),%rax        # 1b996 <g_2170>
    d731:	48 89 85 10 fc ff ff 	mov    %rax,-0x3f0(%rbp)
    d738:	48 8d 05 59 0b 01 00 	lea    0x10b59(%rip),%rax        # 1e298 <g_1056>
    d73f:	48 89 85 18 fc ff ff 	mov    %rax,-0x3e8(%rbp)
    d746:	48 8d 85 40 fe ff ff 	lea    -0x1c0(%rbp),%rax
    d74d:	48 8d 15 cc 8c 00 00 	lea    0x8ccc(%rip),%rdx        # 16420 <g_2652+0x3b4>
    d754:	b9 32 00 00 00       	mov    $0x32,%ecx
    d759:	48 89 c7             	mov    %rax,%rdi
    d75c:	48 89 d6             	mov    %rdx,%rsi
    d75f:	f3 48 a5             	rep movsq %ds:(%rsi),%es:(%rdi)
    d762:	c7 85 80 fb ff ff f6 	movl   $0xfffffff6,-0x480(%rbp)
    d769:	ff ff ff 
    d76c:	48 b8 ec 51 ed 73 03 	movabs $0x9b67dd0373ed51ec,%rax
    d773:	dd 67 9b 
    d776:	48 89 85 d8 fb ff ff 	mov    %rax,-0x428(%rbp)
    d77d:	c7 85 5c fb ff ff 00 	movl   $0x0,-0x4a4(%rbp)
    d784:	00 00 00 
    d787:	eb 78                	jmp    d801 <func_12+0x15d>
    d789:	c7 85 58 fb ff ff 00 	movl   $0x0,-0x4a8(%rbp)
    d790:	00 00 00 
    d793:	eb 5c                	jmp    d7f1 <func_12+0x14d>
    d795:	c7 85 60 fb ff ff 00 	movl   $0x0,-0x4a0(%rbp)
    d79c:	00 00 00 
    d79f:	eb 40                	jmp    d7e1 <func_12+0x13d>
    d7a1:	8b 85 60 fb ff ff    	mov    -0x4a0(%rbp),%eax
    d7a7:	48 63 c8             	movslq %eax,%rcx
    d7aa:	8b 85 5c fb ff ff    	mov    -0x4a4(%rbp),%eax
    d7b0:	48 63 d0             	movslq %eax,%rdx
    d7b3:	8b 85 58 fb ff ff    	mov    -0x4a8(%rbp),%eax
    d7b9:	48 63 f0             	movslq %eax,%rsi
    d7bc:	48 89 d0             	mov    %rdx,%rax
    d7bf:	48 01 c0             	add    %rax,%rax
    d7c2:	48 01 d0             	add    %rdx,%rax
    d7c5:	48 01 f0             	add    %rsi,%rax
    d7c8:	48 01 c0             	add    %rax,%rax
    d7cb:	48 01 c8             	add    %rcx,%rax
    d7ce:	48 c7 84 c5 90 fc ff 	movq   $0x0,-0x370(%rbp,%rax,8)
    d7d5:	ff 00 00 00 00 
    d7da:	83 85 60 fb ff ff 01 	addl   $0x1,-0x4a0(%rbp)
    d7e1:	83 bd 60 fb ff ff 01 	cmpl   $0x1,-0x4a0(%rbp)
    d7e8:	7e b7                	jle    d7a1 <func_12+0xfd>
    d7ea:	83 85 58 fb ff ff 01 	addl   $0x1,-0x4a8(%rbp)
    d7f1:	83 bd 58 fb ff ff 02 	cmpl   $0x2,-0x4a8(%rbp)
    d7f8:	7e 9b                	jle    d795 <func_12+0xf1>
    d7fa:	83 85 5c fb ff ff 01 	addl   $0x1,-0x4a4(%rbp)
    d801:	83 bd 5c fb ff ff 00 	cmpl   $0x0,-0x4a4(%rbp)
    d808:	0f 8e 7b ff ff ff    	jle    d789 <func_12+0xe5>
    d80e:	0f b7 85 48 fb ff ff 	movzwl -0x4b8(%rbp),%eax
    d815:	83 bd 78 fb ff ff 00 	cmpl   $0x0,-0x488(%rbp)
    d81c:	0f 95 c2             	setne  %dl
    d81f:	0f b6 d2             	movzbl %dl,%edx
    d822:	89 95 7c fb ff ff    	mov    %edx,-0x484(%rbp)
    d828:	89 c6                	mov    %eax,%esi
    d82a:	bf ff 00 00 00       	mov    $0xff,%edi
    d82f:	e8 18 c4 ff ff       	callq  9c4c <safe_lshift_func_uint8_t_u_u>
    d834:	0f be c0             	movsbl %al,%eax
    d837:	be 07 00 00 00       	mov    $0x7,%esi
    d83c:	89 c7                	mov    %eax,%edi
    d83e:	e8 f2 ba ff ff       	callq  9335 <safe_rshift_func_int8_t_s_s>
    d843:	48 8b 95 40 fb ff ff 	mov    -0x4c0(%rbp),%rdx
    d84a:	0f b6 12             	movzbl (%rdx),%edx
    d84d:	38 d0                	cmp    %dl,%al
    d84f:	0f 9c c0             	setl   %al
    d852:	0f b6 c0             	movzbl %al,%eax
    d855:	39 85 4c fb ff ff    	cmp    %eax,-0x4b4(%rbp)
    d85b:	0f 96 c2             	setbe  %dl
    d85e:	48 8b 05 6b 12 01 00 	mov    0x1126b(%rip),%rax        # 1ead0 <g_1758>
    d865:	0f b6 d2             	movzbl %dl,%edx
    d868:	66 89 10             	mov    %dx,(%rax)
    d86b:	0f b7 00             	movzwl (%rax),%eax
    d86e:	0f b7 c0             	movzwl %ax,%eax
    d871:	f7 d0                	not    %eax
    d873:	89 c2                	mov    %eax,%edx
    d875:	48 8b 85 00 fc ff ff 	mov    -0x400(%rbp),%rax
    d87c:	89 10                	mov    %edx,(%rax)
    d87e:	48 8b 85 00 fc ff ff 	mov    -0x400(%rbp),%rax
    d885:	8b 10                	mov    (%rax),%edx
    d887:	8b 05 37 e2 00 00    	mov    0xe237(%rip),%eax        # 1bac4 <g_2586+0x4>
    d88d:	31 d0                	xor    %edx,%eax
    d88f:	89 05 2f e2 00 00    	mov    %eax,0xe22f(%rip)        # 1bac4 <g_2586+0x4>
    d895:	8b 05 29 e2 00 00    	mov    0xe229(%rip),%eax        # 1bac4 <g_2586+0x4>
    d89b:	89 c2                	mov    %eax,%edx
    d89d:	48 8b 05 f4 dd 00 00 	mov    0xddf4(%rip),%rax        # 1b698 <g_626>
    d8a4:	48 21 c2             	and    %rax,%rdx
    d8a7:	48 8b 85 10 fc ff ff 	mov    -0x3f0(%rbp),%rax
    d8ae:	0f b6 00             	movzbl (%rax),%eax
    d8b1:	09 c2                	or     %eax,%edx
    d8b3:	48 8b 85 10 fc ff ff 	mov    -0x3f0(%rbp),%rax
    d8ba:	88 10                	mov    %dl,(%rax)
    d8bc:	48 8b 85 10 fc ff ff 	mov    -0x3f0(%rbp),%rax
    d8c3:	0f b6 00             	movzbl (%rax),%eax
    d8c6:	84 c0                	test   %al,%al
    d8c8:	74 15                	je     d8df <func_12+0x23b>
    d8ca:	48 8b 85 40 fb ff ff 	mov    -0x4c0(%rbp),%rax
    d8d1:	0f b6 00             	movzbl (%rax),%eax
    d8d4:	84 c0                	test   %al,%al
    d8d6:	74 07                	je     d8df <func_12+0x23b>
    d8d8:	ba 01 00 00 00       	mov    $0x1,%edx
    d8dd:	eb 05                	jmp    d8e4 <func_12+0x240>
    d8df:	ba 00 00 00 00       	mov    $0x0,%edx
    d8e4:	0f b7 85 48 fb ff ff 	movzwl -0x4b8(%rbp),%eax
    d8eb:	39 c2                	cmp    %eax,%edx
    d8ed:	0f 95 c0             	setne  %al
    d8f0:	0f b6 c0             	movzbl %al,%eax
    d8f3:	be 01 00 00 00       	mov    $0x1,%esi
    d8f8:	89 c7                	mov    %eax,%edi
    d8fa:	e8 f3 b8 ff ff       	callq  91f2 <safe_sub_func_int8_t_s_s>
    d8ff:	66 98                	cbtw   
    d901:	0f b7 c0             	movzwl %ax,%eax
    d904:	89 c6                	mov    %eax,%esi
    d906:	bf 00 00 00 00       	mov    $0x0,%edi
    d90b:	e8 2d c4 ff ff       	callq  9d3d <safe_mul_func_uint16_t_u_u>
    d910:	ba 01 00 00 00       	mov    $0x1,%edx
    d915:	0f b7 85 48 fb ff ff 	movzwl -0x4b8(%rbp),%eax
    d91c:	39 c2                	cmp    %eax,%edx
    d91e:	7d 0c                	jge    d92c <func_12+0x288>
    d920:	0f b7 05 2d db 00 00 	movzwl 0xdb2d(%rip),%eax        # 1b454 <g_553>
    d927:	66 85 c0             	test   %ax,%ax
    d92a:	74 07                	je     d933 <func_12+0x28f>
    d92c:	ba 01 00 00 00       	mov    $0x1,%edx
    d931:	eb 05                	jmp    d938 <func_12+0x294>
    d933:	ba 00 00 00 00       	mov    $0x0,%edx
    d938:	0f b7 85 48 fb ff ff 	movzwl -0x4b8(%rbp),%eax
    d93f:	09 d0                	or     %edx,%eax
    d941:	85 c0                	test   %eax,%eax
    d943:	0f 84 af 0b 00 00    	je     e4f8 <func_12+0xe54>
    d949:	c7 85 c0 fc ff ff cc 	movl   $0xbaf285cc,-0x340(%rbp)
    d950:	85 f2 ba 
    d953:	c7 85 c4 fc ff ff ad 	movl   $0xf6e27bad,-0x33c(%rbp)
    d95a:	7b e2 f6 
    d95d:	c7 85 c8 fc ff ff cc 	movl   $0xbaf285cc,-0x338(%rbp)
    d964:	85 f2 ba 
    d967:	c7 85 cc fc ff ff 00 	movl   $0x0,-0x334(%rbp)
    d96e:	00 00 00 
    d971:	c7 85 d0 fc ff ff 07 	movl   $0x7,-0x330(%rbp)
    d978:	00 00 00 
    d97b:	c7 85 d4 fc ff ff 08 	movl   $0x8,-0x32c(%rbp)
    d982:	00 00 00 
    d985:	c7 85 d8 fc ff ff 00 	movl   $0x0,-0x328(%rbp)
    d98c:	00 00 00 
    d98f:	c7 85 dc fc ff ff 00 	movl   $0x0,-0x324(%rbp)
    d996:	00 00 00 
    d999:	c7 85 e0 fc ff ff 07 	movl   $0x7,-0x320(%rbp)
    d9a0:	00 00 00 
    d9a3:	c7 85 e4 fc ff ff cc 	movl   $0xbaf285cc,-0x31c(%rbp)
    d9aa:	85 f2 ba 
    d9ad:	c7 85 e8 fc ff ff 07 	movl   $0x7,-0x318(%rbp)
    d9b4:	00 00 00 
    d9b7:	c7 85 ec fc ff ff 07 	movl   $0x7,-0x314(%rbp)
    d9be:	00 00 00 
    d9c1:	c7 85 f0 fc ff ff 07 	movl   $0x7,-0x310(%rbp)
    d9c8:	00 00 00 
    d9cb:	c7 85 f4 fc ff ff ad 	movl   $0xf6e27bad,-0x30c(%rbp)
    d9d2:	7b e2 f6 
    d9d5:	c7 85 f8 fc ff ff 08 	movl   $0x8,-0x308(%rbp)
    d9dc:	00 00 00 
    d9df:	48 8d 05 6a de 00 00 	lea    0xde6a(%rip),%rax        # 1b850 <g_1291+0x30>
    d9e6:	48 89 85 e0 fb ff ff 	mov    %rax,-0x420(%rbp)
    d9ed:	66 c7 85 50 fb ff ff 	movw   $0xffff,-0x4b0(%rbp)
    d9f4:	ff ff 
    d9f6:	c7 85 84 fb ff ff 00 	movl   $0x0,-0x47c(%rbp)
    d9fd:	00 00 00 
    da00:	c6 05 49 d6 00 00 1c 	movb   $0x1c,0xd649(%rip)        # 1b050 <g_91>
    da07:	e9 db 0a 00 00       	jmpq   e4e7 <func_12+0xe43>
    da0c:	c7 85 88 fb ff ff 91 	movl   $0x37880d91,-0x478(%rbp)
    da13:	0d 88 37 
    da16:	c7 85 8c fb ff ff 1c 	movl   $0xf1ad761c,-0x474(%rbp)
    da1d:	76 ad f1 
    da20:	48 8d 05 a9 07 01 00 	lea    0x107a9(%rip),%rax        # 1e1d0 <g_880>
    da27:	48 89 85 20 fc ff ff 	mov    %rax,-0x3e0(%rbp)
    da2e:	c7 85 64 fb ff ff 00 	movl   $0x0,-0x49c(%rbp)
    da35:	00 00 00 
    da38:	eb 1a                	jmp    da54 <func_12+0x3b0>
    da3a:	8b 85 64 fb ff ff    	mov    -0x49c(%rbp),%eax
    da40:	48 98                	cltq   
    da42:	c7 84 85 50 fc ff ff 	movl   $0x0,-0x3b0(%rbp,%rax,4)
    da49:	00 00 00 00 
    da4d:	83 85 64 fb ff ff 01 	addl   $0x1,-0x49c(%rbp)
    da54:	83 bd 64 fb ff ff 04 	cmpl   $0x4,-0x49c(%rbp)
    da5b:	7e dd                	jle    da3a <func_12+0x396>
    da5d:	66 c7 05 22 de 00 00 	movw   $0x0,0xde22(%rip)        # 1b888 <g_1634>
    da64:	00 00 
    da66:	e9 5d 09 00 00       	jmpq   e3c8 <func_12+0xd24>
    da6b:	c7 85 90 fb ff ff 00 	movl   $0x0,-0x470(%rbp)
    da72:	00 00 00 
    da75:	c7 85 94 fb ff ff 7c 	movl   $0xcc75fb7c,-0x46c(%rbp)
    da7c:	fb 75 cc 
    da7f:	c7 85 98 fb ff ff 0d 	movl   $0x3ee9850d,-0x468(%rbp)
    da86:	85 e9 3e 
    da89:	c7 85 9c fb ff ff ff 	movl   $0xffffffff,-0x464(%rbp)
    da90:	ff ff ff 
    da93:	c7 85 a0 fb ff ff 75 	movl   $0x6f06d75,-0x460(%rbp)
    da9a:	6d f0 06 
    da9d:	c7 85 a4 fb ff ff 03 	movl   $0x3,-0x45c(%rbp)
    daa4:	00 00 00 
    daa7:	c7 85 a8 fb ff ff fb 	movl   $0xfffffffb,-0x458(%rbp)
    daae:	ff ff ff 
    dab1:	c7 85 ac fb ff ff b5 	movl   $0x521064b5,-0x454(%rbp)
    dab8:	64 10 52 
    dabb:	c7 85 b0 fb ff ff 15 	movl   $0xc6e7f15,-0x450(%rbp)
    dac2:	7f 6e 0c 
    dac5:	c7 85 b4 fb ff ff 01 	movl   $0x1,-0x44c(%rbp)
    dacc:	00 00 00 
    dacf:	c7 85 b8 fb ff ff fd 	movl   $0xfffffffd,-0x448(%rbp)
    dad6:	ff ff ff 
    dad9:	c7 85 bc fb ff ff 00 	movl   $0x0,-0x444(%rbp)
    dae0:	00 00 00 
    dae3:	66 c7 85 52 fb ff ff 	movw   $0x1,-0x4ae(%rbp)
    daea:	01 00 
    daec:	c7 85 68 fb ff ff 00 	movl   $0x0,-0x498(%rbp)
    daf3:	00 00 00 
    daf6:	eb 21                	jmp    db19 <func_12+0x475>
    daf8:	8b 85 68 fb ff ff    	mov    -0x498(%rbp),%eax
    dafe:	48 98                	cltq   
    db00:	48 bb 06 c0 65 1c ee 	movabs $0xcae1beee1c65c006,%rbx
    db07:	be e1 ca 
    db0a:	48 89 9c c5 70 fc ff 	mov    %rbx,-0x390(%rbp,%rax,8)
    db11:	ff 
    db12:	83 85 68 fb ff ff 01 	addl   $0x1,-0x498(%rbp)
    db19:	83 bd 68 fb ff ff 02 	cmpl   $0x2,-0x498(%rbp)
    db20:	7e d6                	jle    daf8 <func_12+0x454>
    db22:	c7 85 68 fb ff ff 00 	movl   $0x0,-0x498(%rbp)
    db29:	00 00 00 
    db2c:	eb 1a                	jmp    db48 <func_12+0x4a4>
    db2e:	8b 85 68 fb ff ff    	mov    -0x498(%rbp),%eax
    db34:	48 98                	cltq   
    db36:	c7 84 85 44 fc ff ff 	movl   $0xdbee29c7,-0x3bc(%rbp,%rax,4)
    db3d:	c7 29 ee db 
    db41:	83 85 68 fb ff ff 01 	addl   $0x1,-0x498(%rbp)
    db48:	83 bd 68 fb ff ff 00 	cmpl   $0x0,-0x498(%rbp)
    db4f:	7e dd                	jle    db2e <func_12+0x48a>
    db51:	83 85 90 fb ff ff 01 	addl   $0x1,-0x470(%rbp)
    db58:	bf 00 00 00 00       	mov    $0x0,%edi
    db5d:	e8 87 c1 ff ff       	callq  9ce9 <safe_unary_minus_func_uint16_t_u>
    db62:	0f b7 c0             	movzwl %ax,%eax
    db65:	89 85 88 fb ff ff    	mov    %eax,-0x478(%rbp)
    db6b:	83 bd 88 fb ff ff ff 	cmpl   $0xffffffff,-0x478(%rbp)
    db72:	0f 84 6f 04 00 00    	je     dfe7 <func_12+0x943>
    db78:	66 c7 85 56 fb ff ff 	movw   $0xe04d,-0x4aa(%rbp)
    db7f:	4d e0 
    db81:	48 8d 05 20 19 01 00 	lea    0x11920(%rip),%rax        # 1f4a8 <g_1223>
    db88:	48 89 85 30 fc ff ff 	mov    %rax,-0x3d0(%rbp)
    db8f:	48 c7 85 e8 fb ff ff 	movq   $0x0,-0x418(%rbp)
    db96:	00 00 00 00 
    db9a:	48 8d 85 e8 fb ff ff 	lea    -0x418(%rbp),%rax
    dba1:	48 89 85 38 fc ff ff 	mov    %rax,-0x3c8(%rbp)
    dba8:	c7 85 c8 fb ff ff 01 	movl   $0x1,-0x438(%rbp)
    dbaf:	00 00 00 
    dbb2:	c7 85 cc fb ff ff 02 	movl   $0x2,-0x434(%rbp)
    dbb9:	00 00 00 
    dbbc:	c7 85 6c fb ff ff 00 	movl   $0x0,-0x494(%rbp)
    dbc3:	00 00 00 
    dbc6:	eb 1a                	jmp    dbe2 <func_12+0x53e>
    dbc8:	8b 85 6c fb ff ff    	mov    -0x494(%rbp),%eax
    dbce:	48 98                	cltq   
    dbd0:	c7 84 85 48 fc ff ff 	movl   $0x8,-0x3b8(%rbp,%rax,4)
    dbd7:	08 00 00 00 
    dbdb:	83 85 6c fb ff ff 01 	addl   $0x1,-0x494(%rbp)
    dbe2:	83 bd 6c fb ff ff 01 	cmpl   $0x1,-0x494(%rbp)
    dbe9:	7e dd                	jle    dbc8 <func_12+0x524>
    dbeb:	0f b6 05 b6 de 00 00 	movzbl 0xdeb6(%rip),%eax        # 1baa8 <g_2531>
    dbf2:	0f b6 d8             	movzbl %al,%ebx
    dbf5:	8b 85 94 fb ff ff    	mov    -0x46c(%rbp),%eax
    dbfb:	4c 63 e0             	movslq %eax,%r12
    dbfe:	48 8b 05 43 fc 00 00 	mov    0xfc43(%rip),%rax        # 1d848 <g_153>
    dc05:	0f b6 00             	movzbl (%rax),%eax
    dc08:	84 c0                	test   %al,%al
    dc0a:	75 0a                	jne    dc16 <func_12+0x572>
    dc0c:	66 83 bd 48 fb ff ff 	cmpw   $0x0,-0x4b8(%rbp)
    dc13:	00 
    dc14:	74 07                	je     dc1d <func_12+0x579>
    dc16:	b8 01 00 00 00       	mov    $0x1,%eax
    dc1b:	eb 05                	jmp    dc22 <func_12+0x57e>
    dc1d:	b8 00 00 00 00       	mov    $0x0,%eax
    dc22:	0f b7 d0             	movzwl %ax,%edx
    dc25:	0f b7 85 48 fb ff ff 	movzwl -0x4b8(%rbp),%eax
    dc2c:	89 d6                	mov    %edx,%esi
    dc2e:	89 c7                	mov    %eax,%edi
    dc30:	e8 27 c1 ff ff       	callq  9d5c <safe_mod_func_uint16_t_u_u>
    dc35:	0f b7 c0             	movzwl %ax,%eax
    dc38:	89 c6                	mov    %eax,%esi
    dc3a:	bf 00 00 00 00       	mov    $0x0,%edi
    dc3f:	e8 74 c2 ff ff       	callq  9eb8 <safe_add_func_uint32_t_u_u>
    dc44:	34 ab                	xor    $0xab,%al
    dc46:	89 c2                	mov    %eax,%edx
    dc48:	48 8b 05 f9 fb 00 00 	mov    0xfbf9(%rip),%rax        # 1d848 <g_153>
    dc4f:	0f b6 00             	movzbl (%rax),%eax
    dc52:	0f b6 c0             	movzbl %al,%eax
    dc55:	09 d0                	or     %edx,%eax
    dc57:	be 01 00 00 00       	mov    $0x1,%esi
    dc5c:	89 c7                	mov    %eax,%edi
    dc5e:	e8 c2 c2 ff ff       	callq  9f25 <safe_div_func_uint32_t_u_u>
    dc63:	0f be c0             	movsbl %al,%eax
    dc66:	be fe ff ff ff       	mov    $0xfffffffe,%esi
    dc6b:	89 c7                	mov    %eax,%edi
    dc6d:	e8 a0 b5 ff ff       	callq  9212 <safe_mul_func_int8_t_s_s>
    dc72:	48 8b 85 f0 fb ff ff 	mov    -0x410(%rbp),%rax
    dc79:	c7 00 40 a5 40 37    	movl   $0x3740a540,(%rax)
    dc7f:	48 8b 85 f0 fb ff ff 	mov    -0x410(%rbp),%rax
    dc86:	8b 10                	mov    (%rax),%edx
    dc88:	8b 85 4c fb ff ff    	mov    -0x4b4(%rbp),%eax
    dc8e:	89 c1                	mov    %eax,%ecx
    dc90:	0f b7 85 56 fb ff ff 	movzwl -0x4aa(%rbp),%eax
    dc97:	09 c8                	or     %ecx,%eax
    dc99:	66 89 85 56 fb ff ff 	mov    %ax,-0x4aa(%rbp)
    dca0:	48 0f bf 85 56 fb ff 	movswq -0x4aa(%rbp),%rax
    dca7:	ff 
    dca8:	48 3d f7 ff 00 00    	cmp    $0xfff7,%rax
    dcae:	0f 96 c0             	setbe  %al
    dcb1:	0f b6 c0             	movzbl %al,%eax
    dcb4:	21 d0                	and    %edx,%eax
    dcb6:	83 f8 04             	cmp    $0x4,%eax
    dcb9:	0f 95 c0             	setne  %al
    dcbc:	0f b6 c0             	movzbl %al,%eax
    dcbf:	48 39 85 38 fb ff ff 	cmp    %rax,-0x4c8(%rbp)
    dcc6:	74 07                	je     dccf <func_12+0x62b>
    dcc8:	b8 04 00 00 00       	mov    $0x4,%eax
    dccd:	eb 05                	jmp    dcd4 <func_12+0x630>
    dccf:	b8 05 00 00 00       	mov    $0x5,%eax
    dcd4:	4c 89 e6             	mov    %r12,%rsi
    dcd7:	48 89 c7             	mov    %rax,%rdi
    dcda:	e8 d5 bc ff ff       	callq  99b4 <safe_mod_func_int64_t_s_s>
    dcdf:	0f b7 c0             	movzwl %ax,%eax
    dce2:	89 de                	mov    %ebx,%esi
    dce4:	89 c7                	mov    %eax,%edi
    dce6:	e8 52 c0 ff ff       	callq  9d3d <safe_mul_func_uint16_t_u_u>
    dceb:	0f be c0             	movsbl %al,%eax
    dcee:	be fb ff ff ff       	mov    $0xfffffffb,%esi
    dcf3:	89 c7                	mov    %eax,%edi
    dcf5:	e8 70 b5 ff ff       	callq  926a <safe_div_func_int8_t_s_s>
    dcfa:	48 8b 15 cf 0d 01 00 	mov    0x10dcf(%rip),%rdx        # 1ead0 <g_1758>
    dd01:	48 8b 05 c8 0d 01 00 	mov    0x10dc8(%rip),%rax        # 1ead0 <g_1758>
    dd08:	0f b7 12             	movzwl (%rdx),%edx
    dd0b:	66 89 10             	mov    %dx,(%rax)
    dd0e:	0f b7 00             	movzwl (%rax),%eax
    dd11:	0f b7 c0             	movzwl %ax,%eax
    dd14:	be 01 00 00 00       	mov    $0x1,%esi
    dd19:	89 c7                	mov    %eax,%edi
    dd1b:	e8 5a c1 ff ff       	callq  9e7a <safe_rshift_func_uint16_t_u_u>
    dd20:	0f b7 c0             	movzwl %ax,%eax
    dd23:	48 39 85 38 fb ff ff 	cmp    %rax,-0x4c8(%rbp)
    dd2a:	0f 9e c0             	setle  %al
    dd2d:	0f b6 c0             	movzbl %al,%eax
    dd30:	89 c6                	mov    %eax,%esi
    dd32:	bf 03 00 00 00       	mov    $0x3,%edi
    dd37:	e8 c3 bf ff ff       	callq  9cff <safe_add_func_uint16_t_u_u>
    dd3c:	66 85 c0             	test   %ax,%ax
    dd3f:	74 11                	je     dd52 <func_12+0x6ae>
    dd41:	8b 85 f8 fc ff ff    	mov    -0x308(%rbp),%eax
    dd47:	85 c0                	test   %eax,%eax
    dd49:	74 07                	je     dd52 <func_12+0x6ae>
    dd4b:	ba 01 00 00 00       	mov    $0x1,%edx
    dd50:	eb 05                	jmp    dd57 <func_12+0x6b3>
    dd52:	ba 00 00 00 00       	mov    $0x0,%edx
    dd57:	48 8b 85 00 fc ff ff 	mov    -0x400(%rbp),%rax
    dd5e:	8b 00                	mov    (%rax),%eax
    dd60:	21 c2                	and    %eax,%edx
    dd62:	48 8b 85 00 fc ff ff 	mov    -0x400(%rbp),%rax
    dd69:	89 10                	mov    %edx,(%rax)
    dd6b:	c7 85 d0 fb ff ff fb 	movl   $0xfffffffb,-0x430(%rbp)
    dd72:	ff ff ff 
    dd75:	c7 85 70 fb ff ff 00 	movl   $0x0,-0x490(%rbp)
    dd7c:	00 00 00 
    dd7f:	eb 45                	jmp    ddc6 <func_12+0x722>
    dd81:	c7 85 74 fb ff ff 00 	movl   $0x0,-0x48c(%rbp)
    dd88:	00 00 00 
    dd8b:	eb 29                	jmp    ddb6 <func_12+0x712>
    dd8d:	8b 85 74 fb ff ff    	mov    -0x48c(%rbp),%eax
    dd93:	48 98                	cltq   
    dd95:	8b 95 70 fb ff ff    	mov    -0x490(%rbp),%edx
    dd9b:	48 63 d2             	movslq %edx,%rdx
    dd9e:	48 c1 e2 02          	shl    $0x2,%rdx
    dda2:	48 01 d0             	add    %rdx,%rax
    dda5:	66 c7 84 45 00 fd ff 	movw   $0xffff,-0x300(%rbp,%rax,2)
    ddac:	ff ff ff 
    ddaf:	83 85 74 fb ff ff 01 	addl   $0x1,-0x48c(%rbp)
    ddb6:	83 bd 74 fb ff ff 03 	cmpl   $0x3,-0x48c(%rbp)
    ddbd:	7e ce                	jle    dd8d <func_12+0x6e9>
    ddbf:	83 85 70 fb ff ff 01 	addl   $0x1,-0x490(%rbp)
    ddc6:	83 bd 70 fb ff ff 03 	cmpl   $0x3,-0x490(%rbp)
    ddcd:	7e b2                	jle    dd81 <func_12+0x6dd>
    ddcf:	48 8b 85 40 fb ff ff 	mov    -0x4c0(%rbp),%rax
    ddd6:	0f b6 10             	movzbl (%rax),%edx
    ddd9:	48 8b 85 40 fb ff ff 	mov    -0x4c0(%rbp),%rax
    dde0:	88 10                	mov    %dl,(%rax)
    dde2:	0f b6 05 b7 d8 00 00 	movzbl 0xd8b7(%rip),%eax        # 1b6a0 <g_639>
    dde9:	0f b6 d8             	movzbl %al,%ebx
    ddec:	0f b7 85 48 fb ff ff 	movzwl -0x4b8(%rbp),%eax
    ddf3:	83 c8 01             	or     $0x1,%eax
    ddf6:	0f b7 d0             	movzwl %ax,%edx
    ddf9:	0f bf 85 56 fb ff ff 	movswl -0x4aa(%rbp),%eax
    de00:	39 c2                	cmp    %eax,%edx
    de02:	8b 85 88 fb ff ff    	mov    -0x478(%rbp),%eax
    de08:	44 0f be e0          	movsbl %al,%r12d
    de0c:	8b 85 90 fb ff ff    	mov    -0x470(%rbp),%eax
    de12:	44 0f b7 e8          	movzwl %ax,%r13d
    de16:	48 8b 85 38 fb ff ff 	mov    -0x4c8(%rbp),%rax
    de1d:	0f be d0             	movsbl %al,%edx
    de20:	8b 85 d0 fb ff ff    	mov    -0x430(%rbp),%eax
    de26:	c1 e8 1f             	shr    $0x1f,%eax
    de29:	0f b6 c0             	movzbl %al,%eax
    de2c:	89 d6                	mov    %edx,%esi
    de2e:	89 c7                	mov    %eax,%edi
    de30:	e8 35 b4 ff ff       	callq  926a <safe_div_func_int8_t_s_s>
    de35:	66 98                	cbtw   
    de37:	0f b7 c0             	movzwl %ax,%eax
    de3a:	44 89 ee             	mov    %r13d,%esi
    de3d:	89 c7                	mov    %eax,%edi
    de3f:	e8 18 bf ff ff       	callq  9d5c <safe_mod_func_uint16_t_u_u>
    de44:	66 39 85 48 fb ff ff 	cmp    %ax,-0x4b8(%rbp)
    de4b:	0f 97 c0             	seta   %al
    de4e:	0f b6 c0             	movzbl %al,%eax
    de51:	44 89 e6             	mov    %r12d,%esi
    de54:	89 c7                	mov    %eax,%edi
    de56:	e8 0f b4 ff ff       	callq  926a <safe_div_func_int8_t_s_s>
    de5b:	48 8b 95 40 fb ff ff 	mov    -0x4c0(%rbp),%rdx
    de62:	0f b6 12             	movzbl (%rdx),%edx
    de65:	38 d0                	cmp    %dl,%al
    de67:	89 de                	mov    %ebx,%esi
    de69:	bf 01 00 00 00       	mov    $0x1,%edi
    de6e:	e8 92 b7 ff ff       	callq  9605 <safe_sub_func_int32_t_s_s>
    de73:	0f be d0             	movsbl %al,%edx
    de76:	0f b7 85 48 fb ff ff 	movzwl -0x4b8(%rbp),%eax
    de7d:	89 c1                	mov    %eax,%ecx
    de7f:	8b 85 94 fb ff ff    	mov    -0x46c(%rbp),%eax
    de85:	21 c8                	and    %ecx,%eax
    de87:	0f be c0             	movsbl %al,%eax
    de8a:	89 d6                	mov    %edx,%esi
    de8c:	89 c7                	mov    %eax,%edi
    de8e:	e8 5f b3 ff ff       	callq  91f2 <safe_sub_func_int8_t_s_s>
    de93:	0f be c0             	movsbl %al,%eax
    de96:	09 85 98 fb ff ff    	or     %eax,-0x468(%rbp)
    de9c:	48 8b 05 dd 02 01 00 	mov    0x102dd(%rip),%rax        # 1e180 <g_425>
    dea3:	66 c7 00 00 00       	movw   $0x0,(%rax)
    dea8:	48 8b 05 39 0c 01 00 	mov    0x10c39(%rip),%rax        # 1eae8 <g_1781>
    deaf:	48 8b 10             	mov    (%rax),%rdx
    deb2:	48 8b 05 27 0c 01 00 	mov    0x10c27(%rip),%rax        # 1eae0 <g_1782>
    deb9:	48 8b 12             	mov    (%rdx),%rdx
    debc:	48 89 10             	mov    %rdx,(%rax)
    debf:	48 8b 00             	mov    (%rax),%rax
    dec2:	48 39 85 30 fc ff ff 	cmp    %rax,-0x3d0(%rbp)
    dec9:	48 8d 05 18 0c 01 00 	lea    0x10c18(%rip),%rax        # 1eae8 <g_1781>
    ded0:	48 39 85 38 fc ff ff 	cmp    %rax,-0x3c8(%rbp)
    ded7:	0f 95 c0             	setne  %al
    deda:	0f b6 c0             	movzbl %al,%eax
    dedd:	be e3 cf 08 c1       	mov    $0xc108cfe3,%esi
    dee2:	89 c7                	mov    %eax,%edi
    dee4:	e8 14 c0 ff ff       	callq  9efd <safe_mod_func_uint32_t_u_u>
    dee9:	48 8b 05 d0 02 01 00 	mov    0x102d0(%rip),%rax        # 1e1c0 <g_800>
    def0:	48 8b 9d 38 fb ff ff 	mov    -0x4c8(%rbp),%rbx
    def7:	48 8b 05 12 03 01 00 	mov    0x10312(%rip),%rax        # 1e210 <g_966>
    defe:	48 8b 00             	mov    (%rax),%rax
    df01:	0f b6 00             	movzbl (%rax),%eax
    df04:	0f b6 c0             	movzbl %al,%eax
    df07:	be 1c 00 00 00       	mov    $0x1c,%esi
    df0c:	89 c7                	mov    %eax,%edi
    df0e:	e8 80 bc ff ff       	callq  9b93 <safe_mul_func_uint8_t_u_u>
    df13:	0f b6 c0             	movzbl %al,%eax
    df16:	48 89 de             	mov    %rbx,%rsi
    df19:	48 89 c7             	mov    %rax,%rdi
    df1c:	e8 2a c1 ff ff       	callq  a04b <safe_sub_func_uint64_t_u_u>
    df21:	8b 95 c4 fc ff ff    	mov    -0x33c(%rbp),%edx
    df27:	48 63 d2             	movslq %edx,%rdx
    df2a:	48 39 d0             	cmp    %rdx,%rax
    df2d:	0f b7 85 16 fd ff ff 	movzwl -0x2ea(%rbp),%eax
    df34:	0f bf d0             	movswl %ax,%edx
    df37:	0f b7 85 48 fb ff ff 	movzwl -0x4b8(%rbp),%eax
    df3e:	39 c2                	cmp    %eax,%edx
    df40:	0f 9c c0             	setl   %al
    df43:	0f b6 c0             	movzbl %al,%eax
    df46:	89 05 9c 15 01 00    	mov    %eax,0x1159c(%rip)        # 1f4e8 <g_2648>
    df4c:	83 bd 4c fb ff ff 00 	cmpl   $0x0,-0x4b4(%rbp)
    df53:	0f 85 5e 04 00 00    	jne    e3b7 <func_12+0xd13>
    df59:	c6 05 36 da 00 00 00 	movb   $0x0,0xda36(%rip)        # 1b996 <g_2170>
    df60:	eb 75                	jmp    dfd7 <func_12+0x933>
    df62:	8b 85 cc fb ff ff    	mov    -0x434(%rbp),%eax
    df68:	0f be c0             	movsbl %al,%eax
    df6b:	be 07 00 00 00       	mov    $0x7,%esi
    df70:	89 c7                	mov    %eax,%edi
    df72:	e8 f5 b3 ff ff       	callq  936c <safe_rshift_func_int8_t_s_u>
    df77:	48 8b 95 00 fc ff ff 	mov    -0x400(%rbp),%rdx
    df7e:	8b 12                	mov    (%rdx),%edx
    df80:	0f be c0             	movsbl %al,%eax
    df83:	21 c2                	and    %eax,%edx
    df85:	48 8b 85 00 fc ff ff 	mov    -0x400(%rbp),%rax
    df8c:	89 10                	mov    %edx,(%rax)
    df8e:	83 bd 4c fb ff ff 00 	cmpl   $0x0,-0x4b4(%rbp)
    df95:	0f 85 18 04 00 00    	jne    e3b3 <func_12+0xd0f>
    df9b:	8b 95 4c fb ff ff    	mov    -0x4b4(%rbp),%edx
    dfa1:	48 8b 85 00 fc ff ff 	mov    -0x400(%rbp),%rax
    dfa8:	89 10                	mov    %edx,(%rax)
    dfaa:	48 8b 05 df 02 01 00 	mov    0x102df(%rip),%rax        # 1e290 <g_1039>
    dfb1:	8b 00                	mov    (%rax),%eax
    dfb3:	85 c0                	test   %eax,%eax
    dfb5:	0f 85 fb 03 00 00    	jne    e3b6 <func_12+0xd12>
    dfbb:	0f b6 05 d4 d9 00 00 	movzbl 0xd9d4(%rip),%eax        # 1b996 <g_2170>
    dfc2:	0f be c0             	movsbl %al,%eax
    dfc5:	be 09 00 00 00       	mov    $0x9,%esi
    dfca:	89 c7                	mov    %eax,%edi
    dfcc:	e8 02 b4 ff ff       	callq  93d3 <safe_sub_func_int16_t_s_s>
    dfd1:	88 05 bf d9 00 00    	mov    %al,0xd9bf(%rip)        # 1b996 <g_2170>
    dfd7:	0f b6 05 b8 d9 00 00 	movzbl 0xd9b8(%rip),%eax        # 1b996 <g_2170>
    dfde:	3c e3                	cmp    $0xe3,%al
    dfe0:	7c 80                	jl     df62 <func_12+0x8be>
    dfe2:	e9 d0 03 00 00       	jmpq   e3b7 <func_12+0xd13>
    dfe7:	66 c7 85 54 fb ff ff 	movw   $0x2e0b,-0x4ac(%rbp)
    dfee:	0b 2e 
    dff0:	c7 85 c0 fb ff ff ff 	movl   $0xffffffff,-0x440(%rbp)
    dff7:	ff ff ff 
    dffa:	c7 85 c4 fb ff ff fb 	movl   $0xfffffffb,-0x43c(%rbp)
    e001:	ff ff ff 
    e004:	48 8d 85 00 fd ff ff 	lea    -0x300(%rbp),%rax
    e00b:	48 8d 15 ae 85 00 00 	lea    0x85ae(%rip),%rdx        # 165c0 <g_2652+0x554>
    e012:	b9 28 00 00 00       	mov    $0x28,%ecx
    e017:	48 89 c7             	mov    %rax,%rdi
    e01a:	48 89 d6             	mov    %rdx,%rsi
    e01d:	f3 48 a5             	rep movsq %ds:(%rsi),%es:(%rdi)
    e020:	8b 85 c0 fb ff ff    	mov    -0x440(%rbp),%eax
    e026:	48 63 f0             	movslq %eax,%rsi
    e029:	48 8b 05 90 0a 01 00 	mov    0x10a90(%rip),%rax        # 1eac0 <g_1561>
    e030:	48 8b 08             	mov    (%rax),%rcx
    e033:	8b 85 c4 fc ff ff    	mov    -0x33c(%rbp),%eax
    e039:	0f b6 c0             	movzbl %al,%eax
    e03c:	66 c7 85 54 fb ff ff 	movw   $0x15ad,-0x4ac(%rbp)
    e043:	ad 15 
    e045:	48 8b 95 40 fb ff ff 	mov    -0x4c0(%rbp),%rdx
    e04c:	49 89 f0             	mov    %rsi,%r8
    e04f:	48 8b 09             	mov    (%rcx),%rcx
    e052:	89 c6                	mov    %eax,%esi
    e054:	bf ad 15 00 00       	mov    $0x15ad,%edi
    e059:	e8 2f 1f 00 00       	callq  ff8d <func_36>
    e05e:	48 8d 05 33 02 01 00 	lea    0x10233(%rip),%rax        # 1e298 <g_1056>
    e065:	48 39 85 18 fc ff ff 	cmp    %rax,-0x3e8(%rbp)
    e06c:	0f 95 c0             	setne  %al
    e06f:	0f b6 c0             	movzbl %al,%eax
    e072:	be 07 00 00 00       	mov    $0x7,%esi
    e077:	89 c7                	mov    %eax,%edi
    e079:	e8 88 bd ff ff       	callq  9e06 <safe_lshift_func_uint16_t_u_u>
    e07e:	0f b7 d0             	movzwl %ax,%edx
    e081:	48 8b 85 40 fb ff ff 	mov    -0x4c0(%rbp),%rax
    e088:	0f b6 00             	movzbl (%rax),%eax
    e08b:	0f be c0             	movsbl %al,%eax
    e08e:	89 d6                	mov    %edx,%esi
    e090:	89 c7                	mov    %eax,%edi
    e092:	e8 d5 b2 ff ff       	callq  936c <safe_rshift_func_int8_t_s_u>
    e097:	0f be d0             	movsbl %al,%edx
    e09a:	0f b7 85 48 fb ff ff 	movzwl -0x4b8(%rbp),%eax
    e0a1:	39 c2                	cmp    %eax,%edx
    e0a3:	7d 09                	jge    e0ae <func_12+0xa0a>
    e0a5:	83 bd 4c fb ff ff 00 	cmpl   $0x0,-0x4b4(%rbp)
    e0ac:	74 07                	je     e0b5 <func_12+0xa11>
    e0ae:	b8 01 00 00 00       	mov    $0x1,%eax
    e0b3:	eb 05                	jmp    e0ba <func_12+0xa16>
    e0b5:	b8 00 00 00 00       	mov    $0x0,%eax
    e0ba:	48 98                	cltq   
    e0bc:	48 0b 85 38 fb ff ff 	or     -0x4c8(%rbp),%rax
    e0c3:	48 89 c2             	mov    %rax,%rdx
    e0c6:	48 8b 85 00 fc ff ff 	mov    -0x400(%rbp),%rax
    e0cd:	8b 00                	mov    (%rax),%eax
    e0cf:	09 c2                	or     %eax,%edx
    e0d1:	48 8b 85 00 fc ff ff 	mov    -0x400(%rbp),%rax
    e0d8:	89 10                	mov    %edx,(%rax)
    e0da:	8b 85 c4 fc ff ff    	mov    -0x33c(%rbp),%eax
    e0e0:	48 63 d8             	movslq %eax,%rbx
    e0e3:	48 8b 85 f0 fb ff ff 	mov    -0x410(%rbp),%rax
    e0ea:	8b 00                	mov    (%rax),%eax
    e0ec:	8d 50 01             	lea    0x1(%rax),%edx
    e0ef:	48 8b 85 f0 fb ff ff 	mov    -0x410(%rbp),%rax
    e0f6:	89 10                	mov    %edx,(%rax)
    e0f8:	66 83 bd 54 fb ff ff 	cmpw   $0x0,-0x4ac(%rbp)
    e0ff:	00 
    e100:	75 16                	jne    e118 <func_12+0xa74>
    e102:	48 8b 05 c7 09 01 00 	mov    0x109c7(%rip),%rax        # 1ead0 <g_1758>
    e109:	0f b7 10             	movzwl (%rax),%edx
    e10c:	83 ea 01             	sub    $0x1,%edx
    e10f:	66 89 10             	mov    %dx,(%rax)
    e112:	0f b7 00             	movzwl (%rax),%eax
    e115:	66 85 c0             	test   %ax,%ax
    e118:	48 8b 05 89 00 01 00 	mov    0x10089(%rip),%rax        # 1e1a8 <g_713>
    e11f:	be 01 00 00 00       	mov    $0x1,%esi
    e124:	bf 9c 12 00 00       	mov    $0x129c,%edi
    e129:	e8 c7 b2 ff ff       	callq  93f5 <safe_mul_func_int16_t_s_s>
    e12e:	83 c8 01             	or     $0x1,%eax
    e131:	48 0f bf c0          	movswq %ax,%rax
    e135:	48 89 de             	mov    %rbx,%rsi
    e138:	48 89 c7             	mov    %rax,%rdi
    e13b:	e8 40 bf ff ff       	callq  a080 <safe_mod_func_uint64_t_u_u>
    e140:	98                   	cwtl   
    e141:	be 0d 00 00 00       	mov    $0xd,%esi
    e146:	89 c7                	mov    %eax,%edi
    e148:	e8 45 b3 ff ff       	callq  9492 <safe_lshift_func_int16_t_s_s>
    e14d:	48 8b 95 00 fc ff ff 	mov    -0x400(%rbp),%rdx
    e154:	8b 12                	mov    (%rdx),%edx
    e156:	98                   	cwtl   
    e157:	09 c2                	or     %eax,%edx
    e159:	48 8b 85 00 fc ff ff 	mov    -0x400(%rbp),%rax
    e160:	89 10                	mov    %edx,(%rax)
    e162:	48 8b 05 37 01 01 00 	mov    0x10137(%rip),%rax        # 1e2a0 <g_1131>
    e169:	48 8b 95 00 fc ff ff 	mov    -0x400(%rbp),%rdx
    e170:	8b 12                	mov    (%rdx),%edx
    e172:	89 10                	mov    %edx,(%rax)
    e174:	8b 45 bc             	mov    -0x44(%rbp),%eax
    e177:	83 e8 01             	sub    $0x1,%eax
    e17a:	89 45 bc             	mov    %eax,-0x44(%rbp)
    e17d:	bf 00 00 00 00       	mov    $0x0,%edi
    e182:	e8 0f b4 ff ff       	callq  9596 <safe_unary_minus_func_int32_t_s>
    e187:	85 c0                	test   %eax,%eax
    e189:	0f 84 19 01 00 00    	je     e2a8 <func_12+0xc04>
    e18f:	48 8b 05 f2 00 01 00 	mov    0x100f2(%rip),%rax        # 1e288 <g_1009>
    e196:	48 8b 85 40 fb ff ff 	mov    -0x4c0(%rbp),%rax
    e19d:	0f b6 00             	movzbl (%rax),%eax
    e1a0:	0f be d8             	movsbl %al,%ebx
    e1a3:	48 8b 85 40 fb ff ff 	mov    -0x4c0(%rbp),%rax
    e1aa:	0f b6 00             	movzbl (%rax),%eax
    e1ad:	84 c0                	test   %al,%al
    e1af:	0f 85 87 00 00 00    	jne    e23c <func_12+0xb98>
    e1b5:	8b 85 80 fb ff ff    	mov    -0x480(%rbp),%eax
    e1bb:	0f bf d0             	movswl %ax,%edx
    e1be:	48 8b 85 38 fb ff ff 	mov    -0x4c8(%rbp),%rax
    e1c5:	98                   	cwtl   
    e1c6:	89 d6                	mov    %edx,%esi
    e1c8:	89 c7                	mov    %eax,%edi
    e1ca:	e8 26 b2 ff ff       	callq  93f5 <safe_mul_func_int16_t_s_s>
    e1cf:	ba 01 00 00 00       	mov    $0x1,%edx
    e1d4:	48 8b 05 6d f6 00 00 	mov    0xf66d(%rip),%rax        # 1d848 <g_153>
    e1db:	0f b6 00             	movzbl (%rax),%eax
    e1de:	0f b6 c0             	movzbl %al,%eax
    e1e1:	09 d0                	or     %edx,%eax
    e1e3:	85 c0                	test   %eax,%eax
    e1e5:	74 07                	je     e1ee <func_12+0xb4a>
    e1e7:	b8 01 00 00 00       	mov    $0x1,%eax
    e1ec:	eb 05                	jmp    e1f3 <func_12+0xb4f>
    e1ee:	b8 00 00 00 00       	mov    $0x0,%eax
    e1f3:	89 c2                	mov    %eax,%edx
    e1f5:	0f b7 85 48 fb ff ff 	movzwl -0x4b8(%rbp),%eax
    e1fc:	0f b6 c0             	movzbl %al,%eax
    e1ff:	89 d6                	mov    %edx,%esi
    e201:	89 c7                	mov    %eax,%edi
    e203:	e8 b6 ba ff ff       	callq  9cbe <safe_rshift_func_uint8_t_u_u>
    e208:	0f b6 d0             	movzbl %al,%edx
    e20b:	0f b7 85 48 fb ff ff 	movzwl -0x4b8(%rbp),%eax
    e212:	89 d6                	mov    %edx,%esi
    e214:	89 c7                	mov    %eax,%edi
    e216:	e8 0a bd ff ff       	callq  9f25 <safe_div_func_uint32_t_u_u>
    e21b:	8b 95 b8 fb ff ff    	mov    -0x448(%rbp),%edx
    e221:	21 d0                	and    %edx,%eax
    e223:	89 85 b8 fb ff ff    	mov    %eax,-0x448(%rbp)
    e229:	48 8b 85 40 fb ff ff 	mov    -0x4c0(%rbp),%rax
    e230:	0f b6 00             	movzbl (%rax),%eax
    e233:	0f be c0             	movsbl %al,%eax
    e236:	39 85 b8 fb ff ff    	cmp    %eax,-0x448(%rbp)
    e23c:	8b 85 44 fc ff ff    	mov    -0x3bc(%rbp),%eax
    e242:	39 85 c4 fb ff ff    	cmp    %eax,-0x43c(%rbp)
    e248:	0f 9c c0             	setl   %al
    e24b:	0f b6 d0             	movzbl %al,%edx
    e24e:	48 8b 85 10 fc ff ff 	mov    -0x3f0(%rbp),%rax
    e255:	0f b6 00             	movzbl (%rax),%eax
    e258:	09 c2                	or     %eax,%edx
    e25a:	48 8b 85 10 fc ff ff 	mov    -0x3f0(%rbp),%rax
    e261:	88 10                	mov    %dl,(%rax)
    e263:	48 8b 85 10 fc ff ff 	mov    -0x3f0(%rbp),%rax
    e26a:	0f b6 00             	movzbl (%rax),%eax
    e26d:	0f be c0             	movsbl %al,%eax
    e270:	89 85 cc fc ff ff    	mov    %eax,-0x334(%rbp)
    e276:	8b 85 cc fc ff ff    	mov    -0x334(%rbp),%eax
    e27c:	0f be c0             	movsbl %al,%eax
    e27f:	89 de                	mov    %ebx,%esi
    e281:	89 c7                	mov    %eax,%edi
    e283:	e8 19 b0 ff ff       	callq  92a1 <safe_lshift_func_int8_t_s_s>
    e288:	48 8b 85 00 fc ff ff 	mov    -0x400(%rbp),%rax
    e28f:	c7 00 65 4f 7e 2a    	movl   $0x2a7e4f65,(%rax)
    e295:	66 83 a5 52 fb ff ff 	andw   $0x2,-0x4ae(%rbp)
    e29c:	02 
    e29d:	8b 85 c4 fc ff ff    	mov    -0x33c(%rbp),%eax
    e2a3:	e9 0a 03 00 00       	jmpq   e5b2 <func_12+0xf0e>
    e2a8:	48 8d 05 b1 09 01 00 	lea    0x109b1(%rip),%rax        # 1ec60 <g_2718>
    e2af:	48 89 85 28 fc ff ff 	mov    %rax,-0x3d8(%rbp)
    e2b6:	48 8b 05 73 08 01 00 	mov    0x10873(%rip),%rax        # 1eb30 <g_2017>
    e2bd:	8b 08                	mov    (%rax),%ecx
    e2bf:	8b 95 2c fd ff ff    	mov    -0x2d4(%rbp),%edx
    e2c5:	85 d2                	test   %edx,%edx
    e2c7:	0f 9e c2             	setle  %dl
    e2ca:	0f b6 d2             	movzbl %dl,%edx
    e2cd:	31 ca                	xor    %ecx,%edx
    e2cf:	89 10                	mov    %edx,(%rax)
    e2d1:	8b 9d c4 fc ff ff    	mov    -0x33c(%rbp),%ebx
    e2d7:	48 8b 85 38 fb ff ff 	mov    -0x4c8(%rbp),%rax
    e2de:	0f b7 d0             	movzwl %ax,%edx
    e2e1:	48 8b 0d 78 09 01 00 	mov    0x10978(%rip),%rcx        # 1ec60 <g_2718>
    e2e8:	48 8b 85 28 fc ff ff 	mov    -0x3d8(%rbp),%rax
    e2ef:	48 89 08             	mov    %rcx,(%rax)
    e2f2:	48 8b 85 28 fc ff ff 	mov    -0x3d8(%rbp),%rax
    e2f9:	48 8b 00             	mov    (%rax),%rax
    e2fc:	48 89 05 d5 09 01 00 	mov    %rax,0x109d5(%rip)        # 1ecd8 <g_2721+0x58>
    e303:	48 8b 05 ce 09 01 00 	mov    0x109ce(%rip),%rax        # 1ecd8 <g_2721+0x58>
    e30a:	48 8d 0d a7 fc 00 00 	lea    0xfca7(%rip),%rcx        # 1dfb8 <g_299+0x78>
    e311:	48 39 c8             	cmp    %rcx,%rax
    e314:	0f 95 c0             	setne  %al
    e317:	0f b6 c0             	movzbl %al,%eax
    e31a:	89 d6                	mov    %edx,%esi
    e31c:	89 c7                	mov    %eax,%edi
    e31e:	e8 1a ba ff ff       	callq  9d3d <safe_mul_func_uint16_t_u_u>
    e323:	0f b7 c0             	movzwl %ax,%eax
    e326:	0b 85 c0 fb ff ff    	or     -0x440(%rbp),%eax
    e32c:	39 c3                	cmp    %eax,%ebx
    e32e:	0f 9c c0             	setl   %al
    e331:	0f b6 d0             	movzbl %al,%edx
    e334:	0f b7 85 48 fb ff ff 	movzwl -0x4b8(%rbp),%eax
    e33b:	39 c2                	cmp    %eax,%edx
    e33d:	0f 95 c0             	setne  %al
    e340:	0f b6 c0             	movzbl %al,%eax
    e343:	48 39 85 38 fb ff ff 	cmp    %rax,-0x4c8(%rbp)
    e34a:	0f 9d c0             	setge  %al
    e34d:	0f b6 d0             	movzbl %al,%edx
    e350:	0f b7 85 48 fb ff ff 	movzwl -0x4b8(%rbp),%eax
    e357:	39 c2                	cmp    %eax,%edx
    e359:	0f 9d c0             	setge  %al
    e35c:	0f b6 d0             	movzbl %al,%edx
    e35f:	8b 85 5c fc ff ff    	mov    -0x3a4(%rbp),%eax
    e365:	39 c2                	cmp    %eax,%edx
    e367:	0f 9d c0             	setge  %al
    e36a:	0f b6 c0             	movzbl %al,%eax
    e36d:	be 08 00 00 00       	mov    $0x8,%esi
    e372:	48 89 c7             	mov    %rax,%rdi
    e375:	e8 b4 bc ff ff       	callq  a02e <safe_add_func_uint64_t_u_u>
    e37a:	83 e0 01             	and    $0x1,%eax
    e37d:	89 c2                	mov    %eax,%edx
    e37f:	48 8b 85 00 fc ff ff 	mov    -0x400(%rbp),%rax
    e386:	89 10                	mov    %edx,(%rax)
    e388:	48 8b 85 00 fc ff ff 	mov    -0x400(%rbp),%rax
    e38f:	8b 00                	mov    (%rax),%eax
    e391:	85 c0                	test   %eax,%eax
    e393:	75 0a                	jne    e39f <func_12+0xcfb>
    e395:	66 83 bd 48 fb ff ff 	cmpw   $0x0,-0x4b8(%rbp)
    e39c:	00 
    e39d:	74 07                	je     e3a6 <func_12+0xd02>
    e39f:	b8 01 00 00 00       	mov    $0x1,%eax
    e3a4:	eb 05                	jmp    e3ab <func_12+0xd07>
    e3a6:	b8 00 00 00 00       	mov    $0x0,%eax
    e3ab:	31 85 a0 fb ff ff    	xor    %eax,-0x460(%rbp)
    e3b1:	eb 04                	jmp    e3b7 <func_12+0xd13>
    e3b3:	90                   	nop
    e3b4:	eb 01                	jmp    e3b7 <func_12+0xd13>
    e3b6:	90                   	nop
    e3b7:	0f b7 05 ca d4 00 00 	movzwl 0xd4ca(%rip),%eax        # 1b888 <g_1634>
    e3be:	83 c0 01             	add    $0x1,%eax
    e3c1:	66 89 05 c0 d4 00 00 	mov    %ax,0xd4c0(%rip)        # 1b888 <g_1634>
    e3c8:	0f b7 05 b9 d4 00 00 	movzwl 0xd4b9(%rip),%eax        # 1b888 <g_1634>
    e3cf:	66 83 f8 16          	cmp    $0x16,%ax
    e3d3:	0f 87 92 f6 ff ff    	ja     da6b <func_12+0x3c7>
    e3d9:	48 8b 85 38 fb ff ff 	mov    -0x4c8(%rbp),%rax
    e3e0:	0f b7 d8             	movzwl %ax,%ebx
    e3e3:	48 8b 05 06 d7 00 00 	mov    0xd706(%rip),%rax        # 1baf0 <g_2725>
    e3ea:	48 8b 05 07 d7 00 00 	mov    0xd707(%rip),%rax        # 1baf8 <g_2728>
    e3f1:	48 8b 85 40 fb ff ff 	mov    -0x4c0(%rbp),%rax
    e3f8:	0f b6 00             	movzbl (%rax),%eax
    e3fb:	44 0f be e0          	movsbl %al,%r12d
    e3ff:	8b 95 4c fb ff ff    	mov    -0x4b4(%rbp),%edx
    e405:	0f b7 85 50 fb ff ff 	movzwl -0x4b0(%rbp),%eax
    e40c:	83 c8 01             	or     $0x1,%eax
    e40f:	98                   	cwtl   
    e410:	89 d6                	mov    %edx,%esi
    e412:	89 c7                	mov    %eax,%edi
    e414:	e8 ec b1 ff ff       	callq  9605 <safe_sub_func_int32_t_s_s>
    e419:	8b 95 c4 fc ff ff    	mov    -0x33c(%rbp),%edx
    e41f:	39 d0                	cmp    %edx,%eax
    e421:	0f 9c c0             	setl   %al
    e424:	0f b6 c0             	movzbl %al,%eax
    e427:	44 89 e6             	mov    %r12d,%esi
    e42a:	89 c7                	mov    %eax,%edi
    e42c:	e8 5c b8 ff ff       	callq  9c8d <safe_rshift_func_uint8_t_u_s>
    e431:	0f b6 c0             	movzbl %al,%eax
    e434:	66 23 85 48 fb ff ff 	and    -0x4b8(%rbp),%ax
    e43b:	0f b7 c0             	movzwl %ax,%eax
    e43e:	be 0a 00 00 00       	mov    $0xa,%esi
    e443:	89 c7                	mov    %eax,%edi
    e445:	e8 30 ba ff ff       	callq  9e7a <safe_rshift_func_uint16_t_u_u>
    e44a:	0f b7 c0             	movzwl %ax,%eax
    e44d:	89 05 71 d6 00 00    	mov    %eax,0xd671(%rip)        # 1bac4 <g_2586+0x4>
    e453:	48 8b 05 ce 06 01 00 	mov    0x106ce(%rip),%rax        # 1eb28 <g_1980>
    e45a:	48 8b 10             	mov    (%rax),%rdx
    e45d:	48 8b 05 c4 06 01 00 	mov    0x106c4(%rip),%rax        # 1eb28 <g_1980>
    e464:	48 8b 00             	mov    (%rax),%rax
    e467:	48 39 c2             	cmp    %rax,%rdx
    e46a:	0f 95 c0             	setne  %al
    e46d:	0f b6 d0             	movzbl %al,%edx
    e470:	48 8b 05 59 06 01 00 	mov    0x10659(%rip),%rax        # 1ead0 <g_1758>
    e477:	0f b7 00             	movzwl (%rax),%eax
    e47a:	0f b7 c0             	movzwl %ax,%eax
    e47d:	39 c2                	cmp    %eax,%edx
    e47f:	0f 9e c0             	setle  %al
    e482:	0f b6 c0             	movzbl %al,%eax
    e485:	89 85 cc fc ff ff    	mov    %eax,-0x334(%rbp)
    e48b:	8b 95 cc fc ff ff    	mov    -0x334(%rbp),%edx
    e491:	8b 85 60 fc ff ff    	mov    -0x3a0(%rbp),%eax
    e497:	39 c2                	cmp    %eax,%edx
    e499:	0f 9c c0             	setl   %al
    e49c:	0f b6 c0             	movzbl %al,%eax
    e49f:	89 de                	mov    %ebx,%esi
    e4a1:	89 c7                	mov    %eax,%edi
    e4a3:	e8 95 b8 ff ff       	callq  9d3d <safe_mul_func_uint16_t_u_u>
    e4a8:	8b 85 4c fb ff ff    	mov    -0x4b4(%rbp),%eax
    e4ae:	83 f0 01             	xor    $0x1,%eax
    e4b1:	89 85 84 fb ff ff    	mov    %eax,-0x47c(%rbp)
    e4b7:	8b 95 5c fc ff ff    	mov    -0x3a4(%rbp),%edx
    e4bd:	8b 85 c4 fc ff ff    	mov    -0x33c(%rbp),%eax
    e4c3:	21 d0                	and    %edx,%eax
    e4c5:	89 85 5c fc ff ff    	mov    %eax,-0x3a4(%rbp)
    e4cb:	0f b6 05 7e cb 00 00 	movzbl 0xcb7e(%rip),%eax        # 1b050 <g_91>
    e4d2:	0f b6 c0             	movzbl %al,%eax
    e4d5:	be 07 00 00 00       	mov    $0x7,%esi
    e4da:	89 c7                	mov    %eax,%edi
    e4dc:	e8 1e b8 ff ff       	callq  9cff <safe_add_func_uint16_t_u_u>
    e4e1:	88 05 69 cb 00 00    	mov    %al,0xcb69(%rip)        # 1b050 <g_91>
    e4e7:	0f b6 05 62 cb 00 00 	movzbl 0xcb62(%rip),%eax        # 1b050 <g_91>
    e4ee:	3c 27                	cmp    $0x27,%al
    e4f0:	0f 85 16 f5 ff ff    	jne    da0c <func_12+0x368>
    e4f6:	eb 17                	jmp    e50f <func_12+0xe6b>
    e4f8:	48 8b 85 00 fc ff ff 	mov    -0x400(%rbp),%rax
    e4ff:	8b 00                	mov    (%rax),%eax
    e501:	83 f0 fc             	xor    $0xfffffffc,%eax
    e504:	89 c2                	mov    %eax,%edx
    e506:	48 8b 85 00 fc ff ff 	mov    -0x400(%rbp),%rax
    e50d:	89 10                	mov    %edx,(%rax)
    e50f:	48 c7 05 7e d1 00 00 	movq   $0xfffffffffffffffa,0xd17e(%rip)        # 1b698 <g_626>
    e516:	fa ff ff ff 
    e51a:	eb 7c                	jmp    e598 <func_12+0xef4>
    e51c:	c7 85 d4 fb ff ff ff 	movl   $0xffffffff,-0x42c(%rbp)
    e523:	ff ff ff 
    e526:	8b 95 4c fb ff ff    	mov    -0x4b4(%rbp),%edx
    e52c:	8b 85 d4 fb ff ff    	mov    -0x42c(%rbp),%eax
    e532:	98                   	cwtl   
    e533:	89 d6                	mov    %edx,%esi
    e535:	89 c7                	mov    %eax,%edi
    e537:	e8 ee af ff ff       	callq  952a <safe_rshift_func_int16_t_s_s>
    e53c:	98                   	cwtl   
    e53d:	89 c7                	mov    %eax,%edi
    e53f:	e8 52 b0 ff ff       	callq  9596 <safe_unary_minus_func_int32_t_s>
    e544:	48 8b 95 00 fc ff ff 	mov    -0x400(%rbp),%rdx
    e54b:	8b 12                	mov    (%rdx),%edx
    e54d:	31 c2                	xor    %eax,%edx
    e54f:	48 8b 85 00 fc ff ff 	mov    -0x400(%rbp),%rax
    e556:	89 10                	mov    %edx,(%rax)
    e558:	48 8b 05 f9 06 01 00 	mov    0x106f9(%rip),%rax        # 1ec58 <g_2502>
    e55f:	48 8b 00             	mov    (%rax),%rax
    e562:	48 8b 00             	mov    (%rax),%rax
    e565:	48 8b 10             	mov    (%rax),%rdx
    e568:	48 8d 05 59 05 01 00 	lea    0x10559(%rip),%rax        # 1eac8 <g_1594>
    e56f:	48 8b 00             	mov    (%rax),%rax
    e572:	48 8b 12             	mov    (%rdx),%rdx
    e575:	48 89 10             	mov    %rdx,(%rax)
    e578:	48 8b 05 19 d1 00 00 	mov    0xd119(%rip),%rax        # 1b698 <g_626>
    e57f:	0f b6 c0             	movzbl %al,%eax
    e582:	be 07 00 00 00       	mov    $0x7,%esi
    e587:	89 c7                	mov    %eax,%edi
    e589:	e8 cc b5 ff ff       	callq  9b5a <safe_add_func_uint8_t_u_u>
    e58e:	0f b6 c0             	movzbl %al,%eax
    e591:	48 89 05 00 d1 00 00 	mov    %rax,0xd100(%rip)        # 1b698 <g_626>
    e598:	48 8b 05 f9 d0 00 00 	mov    0xd0f9(%rip),%rax        # 1b698 <g_626>
    e59f:	48 83 f8 ff          	cmp    $0xffffffffffffffff,%rax
    e5a3:	0f 8c 73 ff ff ff    	jl     e51c <func_12+0xe78>
    e5a9:	48 8b 85 00 fc ff ff 	mov    -0x400(%rbp),%rax
    e5b0:	8b 00                	mov    (%rax),%eax
    e5b2:	48 8b 5d d8          	mov    -0x28(%rbp),%rbx
    e5b6:	64 48 33 1c 25 28 00 	xor    %fs:0x28,%rbx
    e5bd:	00 00 
    e5bf:	74 05                	je     e5c6 <func_12+0xf22>
    e5c1:	e8 aa aa ff ff       	callq  9070 <__stack_chk_fail@plt>
    e5c6:	48 81 c4 b8 04 00 00 	add    $0x4b8,%rsp
    e5cd:	5b                   	pop    %rbx
    e5ce:	41 5c                	pop    %r12
    e5d0:	41 5d                	pop    %r13
    e5d2:	5d                   	pop    %rbp
    e5d3:	c3                   	retq   

000000000000e5d4 <func_18>:
    e5d4:	f3 0f 1e fa          	endbr64 
    e5d8:	55                   	push   %rbp
    e5d9:	48 89 e5             	mov    %rsp,%rbp
    e5dc:	48 81 ec 30 0c 00 00 	sub    $0xc30,%rsp
    e5e3:	48 89 bd e8 f3 ff ff 	mov    %rdi,-0xc18(%rbp)
    e5ea:	48 89 b5 e0 f3 ff ff 	mov    %rsi,-0xc20(%rbp)
    e5f1:	48 89 95 d8 f3 ff ff 	mov    %rdx,-0xc28(%rbp)
    e5f8:	64 48 8b 04 25 28 00 	mov    %fs:0x28,%rax
    e5ff:	00 00 
    e601:	48 89 45 f8          	mov    %rax,-0x8(%rbp)
    e605:	31 c0                	xor    %eax,%eax
    e607:	c7 85 fc f3 ff ff 74 	movl   $0xe8b58c74,-0xc04(%rbp)
    e60e:	8c b5 e8 
    e611:	48 c7 85 18 f4 ff ff 	movq   $0x1,-0xbe8(%rbp)
    e618:	01 00 00 00 
    e61c:	48 8d 05 c5 d0 00 00 	lea    0xd0c5(%rip),%rax        # 1b6e8 <g_744>
    e623:	48 89 85 20 f5 ff ff 	mov    %rax,-0xae0(%rbp)
    e62a:	48 8d 05 b7 d0 00 00 	lea    0xd0b7(%rip),%rax        # 1b6e8 <g_744>
    e631:	48 89 85 28 f5 ff ff 	mov    %rax,-0xad8(%rbp)
    e638:	48 8d 05 a9 d0 00 00 	lea    0xd0a9(%rip),%rax        # 1b6e8 <g_744>
    e63f:	48 89 85 30 f5 ff ff 	mov    %rax,-0xad0(%rbp)
    e646:	48 8d 05 9b d0 00 00 	lea    0xd09b(%rip),%rax        # 1b6e8 <g_744>
    e64d:	48 89 85 38 f5 ff ff 	mov    %rax,-0xac8(%rbp)
    e654:	48 8d 05 8d d0 00 00 	lea    0xd08d(%rip),%rax        # 1b6e8 <g_744>
    e65b:	48 89 85 40 f5 ff ff 	mov    %rax,-0xac0(%rbp)
    e662:	48 c7 85 38 f4 ff ff 	movq   $0x0,-0xbc8(%rbp)
    e669:	00 00 00 00 
    e66d:	48 8d 85 e0 f6 ff ff 	lea    -0x920(%rbp),%rax
    e674:	48 8d 15 85 80 00 00 	lea    0x8085(%rip),%rdx        # 16700 <g_2652+0x694>
    e67b:	b9 5a 00 00 00       	mov    $0x5a,%ecx
    e680:	48 89 c7             	mov    %rax,%rdi
    e683:	48 89 d6             	mov    %rdx,%rsi
    e686:	f3 48 a5             	rep movsq %ds:(%rsi),%es:(%rdi)
    e689:	c7 85 0c f4 ff ff f6 	movl   $0x81d007f6,-0xbf4(%rbp)
    e690:	07 d0 81 
    e693:	48 c7 85 20 f4 ff ff 	movq   $0x0,-0xbe0(%rbp)
    e69a:	00 00 00 00 
    e69e:	48 8d 85 20 f4 ff ff 	lea    -0xbe0(%rbp),%rax
    e6a5:	48 89 85 40 f4 ff ff 	mov    %rax,-0xbc0(%rbp)
    e6ac:	c6 85 f7 f3 ff ff 00 	movb   $0x0,-0xc09(%rbp)
    e6b3:	48 8d 05 d7 d2 00 00 	lea    0xd2d7(%rip),%rax        # 1b991 <g_2166>
    e6ba:	48 89 85 48 f4 ff ff 	mov    %rax,-0xbb8(%rbp)
    e6c1:	66 c7 85 f8 f3 ff ff 	movw   $0x7cce,-0xc08(%rbp)
    e6c8:	ce 7c 
    e6ca:	48 8d 85 50 f5 ff ff 	lea    -0xab0(%rbp),%rax
    e6d1:	48 8d 15 e8 d6 00 00 	lea    0xd6e8(%rip),%rdx        # 1bdc0 <g_3673+0x20>
    e6d8:	b9 31 00 00 00       	mov    $0x31,%ecx
    e6dd:	48 89 c7             	mov    %rax,%rdi
    e6e0:	48 89 d6             	mov    %rdx,%rsi
    e6e3:	f3 48 a5             	rep movsq %ds:(%rsi),%es:(%rdi)
    e6e6:	66 c7 85 fa f3 ff ff 	movw   $0xffff,-0xc06(%rbp)
    e6ed:	ff ff 
    e6ef:	48 c7 85 50 f4 ff ff 	movq   $0x0,-0xbb0(%rbp)
    e6f6:	00 00 00 00 
    e6fa:	c7 85 00 f4 ff ff 00 	movl   $0x0,-0xc00(%rbp)
    e701:	00 00 00 
    e704:	eb 54                	jmp    e75a <func_18+0x186>
    e706:	c7 85 04 f4 ff ff 00 	movl   $0x0,-0xbfc(%rbp)
    e70d:	00 00 00 
    e710:	eb 38                	jmp    e74a <func_18+0x176>
    e712:	8b 85 04 f4 ff ff    	mov    -0xbfc(%rbp),%eax
    e718:	48 63 c8             	movslq %eax,%rcx
    e71b:	8b 85 00 f4 ff ff    	mov    -0xc00(%rbp),%eax
    e721:	48 63 d0             	movslq %eax,%rdx
    e724:	48 89 d0             	mov    %rdx,%rax
    e727:	48 01 c0             	add    %rax,%rax
    e72a:	48 01 d0             	add    %rdx,%rax
    e72d:	48 01 c8             	add    %rcx,%rax
    e730:	48 8d 95 50 f5 ff ff 	lea    -0xab0(%rbp),%rdx
    e737:	48 83 ea 80          	sub    $0xffffffffffffff80,%rdx
    e73b:	48 89 94 c5 e0 f4 ff 	mov    %rdx,-0xb20(%rbp,%rax,8)
    e742:	ff 
    e743:	83 85 04 f4 ff ff 01 	addl   $0x1,-0xbfc(%rbp)
    e74a:	83 bd 04 f4 ff ff 02 	cmpl   $0x2,-0xbfc(%rbp)
    e751:	7e bf                	jle    e712 <func_18+0x13e>
    e753:	83 85 00 f4 ff ff 01 	addl   $0x1,-0xc00(%rbp)
    e75a:	83 bd 00 f4 ff ff 00 	cmpl   $0x0,-0xc00(%rbp)
    e761:	7e a3                	jle    e706 <func_18+0x132>
    e763:	66 c7 05 ec cc 00 00 	movw   $0xfffc,0xccec(%rip)        # 1b458 <g_576>
    e76a:	fc ff 
    e76c:	e9 e3 01 00 00       	jmpq   e954 <func_18+0x380>
    e771:	48 8d 05 08 0d 01 00 	lea    0x10d08(%rip),%rax        # 1f480 <g_652>
    e778:	48 89 85 28 f4 ff ff 	mov    %rax,-0xbd8(%rbp)
    e77f:	48 8d 85 28 f4 ff ff 	lea    -0xbd8(%rbp),%rax
    e786:	48 89 85 58 f4 ff ff 	mov    %rax,-0xba8(%rbp)
    e78d:	48 8d 05 74 d0 00 00 	lea    0xd074(%rip),%rax        # 1b808 <g_1130>
    e794:	48 89 85 60 f4 ff ff 	mov    %rax,-0xba0(%rbp)
    e79b:	48 8d 05 46 cf 00 00 	lea    0xcf46(%rip),%rax        # 1b6e8 <g_744>
    e7a2:	48 89 85 68 f4 ff ff 	mov    %rax,-0xb98(%rbp)
    e7a9:	48 8d 05 58 d0 00 00 	lea    0xd058(%rip),%rax        # 1b808 <g_1130>
    e7b0:	48 89 85 70 f4 ff ff 	mov    %rax,-0xb90(%rbp)
    e7b7:	48 c7 85 78 f4 ff ff 	movq   $0x0,-0xb88(%rbp)
    e7be:	00 00 00 00 
    e7c2:	48 8d 05 1f cf 00 00 	lea    0xcf1f(%rip),%rax        # 1b6e8 <g_744>
    e7c9:	48 89 85 80 f4 ff ff 	mov    %rax,-0xb80(%rbp)
    e7d0:	48 8d 05 f1 0c 01 00 	lea    0x10cf1(%rip),%rax        # 1f4c8 <g_1752>
    e7d7:	48 89 85 88 f4 ff ff 	mov    %rax,-0xb78(%rbp)
    e7de:	48 8d 85 b0 f9 ff ff 	lea    -0x650(%rbp),%rax
    e7e5:	48 8d 15 74 d7 00 00 	lea    0xd774(%rip),%rdx        # 1bf60 <g_3673+0x1c0>
    e7ec:	b9 c8 00 00 00       	mov    $0xc8,%ecx
    e7f1:	48 89 c7             	mov    %rax,%rdi
    e7f4:	48 89 d6             	mov    %rdx,%rsi
    e7f7:	f3 48 a5             	rep movsq %ds:(%rsi),%es:(%rdi)
    e7fa:	48 8d 05 37 f0 00 00 	lea    0xf037(%rip),%rax        # 1d838 <g_111>
    e801:	48 89 85 90 f4 ff ff 	mov    %rax,-0xb70(%rbp)
    e808:	c7 85 10 f4 ff ff 05 	movl   $0x5,-0xbf0(%rbp)
    e80f:	00 00 00 
    e812:	48 c7 85 98 f4 ff ff 	movq   $0x0,-0xb68(%rbp)
    e819:	00 00 00 00 
    e81d:	48 8d 05 24 c8 00 00 	lea    0xc824(%rip),%rax        # 1b048 <g_81>
    e824:	48 89 85 a0 f4 ff ff 	mov    %rax,-0xb60(%rbp)
    e82b:	48 c7 85 a8 f4 ff ff 	movq   $0x0,-0xb58(%rbp)
    e832:	00 00 00 00 
    e836:	48 c7 85 00 f5 ff ff 	movq   $0x1,-0xb00(%rbp)
    e83d:	01 00 00 00 
    e841:	48 c7 85 08 f5 ff ff 	movq   $0x1,-0xaf8(%rbp)
    e848:	01 00 00 00 
    e84c:	48 c7 85 10 f5 ff ff 	movq   $0x1,-0xaf0(%rbp)
    e853:	01 00 00 00 
    e857:	48 8d 05 72 f9 00 00 	lea    0xf972(%rip),%rax        # 1e1d0 <g_880>
    e85e:	48 89 85 b0 f4 ff ff 	mov    %rax,-0xb50(%rbp)
    e865:	48 c7 85 30 f4 ff ff 	movq   $0x0,-0xbd0(%rbp)
    e86c:	00 00 00 00 
    e870:	48 8d 85 30 f4 ff ff 	lea    -0xbd0(%rbp),%rax
    e877:	48 89 85 b8 f4 ff ff 	mov    %rax,-0xb48(%rbp)
    e87e:	c7 85 14 f4 ff ff 27 	movl   $0xd1205f27,-0xbec(%rbp)
    e885:	5f 20 d1 
    e888:	48 8d 05 21 03 01 00 	lea    0x10321(%rip),%rax        # 1ebb0 <g_2348>
    e88f:	48 89 85 c0 f4 ff ff 	mov    %rax,-0xb40(%rbp)
    e896:	c7 85 08 f4 ff ff 00 	movl   $0x0,-0xbf8(%rbp)
    e89d:	00 00 00 
    e8a0:	eb 14                	jmp    e8b6 <func_18+0x2e2>
    e8a2:	8b 85 08 f4 ff ff    	mov    -0xbf8(%rbp),%eax
    e8a8:	48 98                	cltq   
    e8aa:	c6 44 05 f5 12       	movb   $0x12,-0xb(%rbp,%rax,1)
    e8af:	83 85 08 f4 ff ff 01 	addl   $0x1,-0xbf8(%rbp)
    e8b6:	83 bd 08 f4 ff ff 02 	cmpl   $0x2,-0xbf8(%rbp)
    e8bd:	7e e3                	jle    e8a2 <func_18+0x2ce>
    e8bf:	c7 85 08 f4 ff ff 00 	movl   $0x0,-0xbf8(%rbp)
    e8c6:	00 00 00 
    e8c9:	eb 1a                	jmp    e8e5 <func_18+0x311>
    e8cb:	8b 85 08 f4 ff ff    	mov    -0xbf8(%rbp),%eax
    e8d1:	48 98                	cltq   
    e8d3:	c7 84 85 d4 f4 ff ff 	movl   $0xfffffff7,-0xb2c(%rbp,%rax,4)
    e8da:	f7 ff ff ff 
    e8de:	83 85 08 f4 ff ff 01 	addl   $0x1,-0xbf8(%rbp)
    e8e5:	83 bd 08 f4 ff ff 02 	cmpl   $0x2,-0xbf8(%rbp)
    e8ec:	7e dd                	jle    e8cb <func_18+0x2f7>
    e8ee:	c7 85 08 f4 ff ff 00 	movl   $0x0,-0xbf8(%rbp)
    e8f5:	00 00 00 
    e8f8:	eb 1a                	jmp    e914 <func_18+0x340>
    e8fa:	8b 85 08 f4 ff ff    	mov    -0xbf8(%rbp),%eax
    e900:	48 98                	cltq   
    e902:	c7 84 85 cc f4 ff ff 	movl   $0xffffffff,-0xb34(%rbp,%rax,4)
    e909:	ff ff ff ff 
    e90d:	83 85 08 f4 ff ff 01 	addl   $0x1,-0xbf8(%rbp)
    e914:	83 bd 08 f4 ff ff 01 	cmpl   $0x1,-0xbf8(%rbp)
    e91b:	7e dd                	jle    e8fa <func_18+0x326>
    e91d:	48 8b 05 7c 01 01 00 	mov    0x1017c(%rip),%rax        # 1eaa0 <g_1256>
    e924:	b8 01 00 00 00       	mov    $0x1,%eax
    e929:	89 c2                	mov    %eax,%edx
    e92b:	8b 85 fc f3 ff ff    	mov    -0xc04(%rbp),%eax
    e931:	09 d0                	or     %edx,%eax
    e933:	89 85 fc f3 ff ff    	mov    %eax,-0xc04(%rbp)
    e939:	0f b7 05 18 cb 00 00 	movzwl 0xcb18(%rip),%eax        # 1b458 <g_576>
    e940:	98                   	cwtl   
    e941:	be 03 00 00 00       	mov    $0x3,%esi
    e946:	89 c7                	mov    %eax,%edi
    e948:	e8 66 aa ff ff       	callq  93b3 <safe_add_func_int16_t_s_s>
    e94d:	66 89 05 04 cb 00 00 	mov    %ax,0xcb04(%rip)        # 1b458 <g_576>
    e954:	0f b7 05 fd ca 00 00 	movzwl 0xcafd(%rip),%eax        # 1b458 <g_576>
    e95b:	66 83 f8 11          	cmp    $0x11,%ax
    e95f:	0f 85 0c fe ff ff    	jne    e771 <func_18+0x19d>
    e965:	48 8d 85 fc f3 ff ff 	lea    -0xc04(%rbp),%rax
    e96c:	48 89 85 30 f5 ff ff 	mov    %rax,-0xad0(%rbp)
    e973:	48 8b 85 48 f4 ff ff 	mov    -0xbb8(%rbp),%rax
    e97a:	48 8b 4d f8          	mov    -0x8(%rbp),%rcx
    e97e:	64 48 33 0c 25 28 00 	xor    %fs:0x28,%rcx
    e985:	00 00 
    e987:	74 05                	je     e98e <func_18+0x3ba>
    e989:	e8 e2 a6 ff ff       	callq  9070 <__stack_chk_fail@plt>
    e98e:	c9                   	leaveq 
    e98f:	c3                   	retq   

000000000000e990 <func_22>:
    e990:	f3 0f 1e fa          	endbr64 
    e994:	55                   	push   %rbp
    e995:	48 89 e5             	mov    %rsp,%rbp
    e998:	41 56                	push   %r14
    e99a:	41 55                	push   %r13
    e99c:	41 54                	push   %r12
    e99e:	53                   	push   %rbx
    e99f:	48 81 ec c0 02 00 00 	sub    $0x2c0,%rsp
    e9a6:	89 bd 2c fd ff ff    	mov    %edi,-0x2d4(%rbp)
    e9ac:	89 f0                	mov    %esi,%eax
    e9ae:	66 89 85 28 fd ff ff 	mov    %ax,-0x2d8(%rbp)
    e9b5:	64 48 8b 04 25 28 00 	mov    %fs:0x28,%rax
    e9bc:	00 00 
    e9be:	48 89 45 d8          	mov    %rax,-0x28(%rbp)
    e9c2:	31 c0                	xor    %eax,%eax
    e9c4:	66 c7 85 42 fd ff ff 	movw   $0xffff,-0x2be(%rbp)
    e9cb:	ff ff 
    e9cd:	48 c7 85 48 fe ff ff 	movq   $0x0,-0x1b8(%rbp)
    e9d4:	00 00 00 00 
    e9d8:	48 c7 85 50 fe ff ff 	movq   $0x0,-0x1b0(%rbp)
    e9df:	00 00 00 00 
    e9e3:	48 8d 05 6e ca 00 00 	lea    0xca6e(%rip),%rax        # 1b458 <g_576>
    e9ea:	48 89 85 88 fd ff ff 	mov    %rax,-0x278(%rbp)
    e9f1:	48 8d 85 88 fd ff ff 	lea    -0x278(%rbp),%rax
    e9f8:	48 89 85 90 fd ff ff 	mov    %rax,-0x270(%rbp)
    e9ff:	48 8d 85 90 fd ff ff 	lea    -0x270(%rbp),%rax
    ea06:	48 89 85 98 fd ff ff 	mov    %rax,-0x268(%rbp)
    ea0d:	48 8d 85 98 fd ff ff 	lea    -0x268(%rbp),%rax
    ea14:	48 89 85 58 fe ff ff 	mov    %rax,-0x1a8(%rbp)
    ea1b:	48 8d 05 4a c6 00 00 	lea    0xc64a(%rip),%rax        # 1b06c <g_157+0x4>
    ea22:	48 89 85 60 fe ff ff 	mov    %rax,-0x1a0(%rbp)
    ea29:	c7 85 78 fd ff ff 01 	movl   $0x1,-0x288(%rbp)
    ea30:	00 00 00 
    ea33:	c7 85 44 fd ff ff 01 	movl   $0x1,-0x2bc(%rbp)
    ea3a:	00 00 00 
    ea3d:	c7 85 7c fd ff ff df 	movl   $0x86d5e3df,-0x284(%rbp)
    ea44:	e3 d5 86 
    ea47:	c7 85 80 fd ff ff ff 	movl   $0xffffffff,-0x280(%rbp)
    ea4e:	ff ff ff 
    ea51:	c7 85 84 fd ff ff b5 	movl   $0xf48a5b5,-0x27c(%rbp)
    ea58:	a5 48 0f 
    ea5b:	48 c7 85 68 fe ff ff 	movq   $0x0,-0x198(%rbp)
    ea62:	00 00 00 00 
    ea66:	0f bf 95 42 fd ff ff 	movswl -0x2be(%rbp),%edx
    ea6d:	0f b7 85 28 fd ff ff 	movzwl -0x2d8(%rbp),%eax
    ea74:	98                   	cwtl   
    ea75:	89 d6                	mov    %edx,%esi
    ea77:	89 c7                	mov    %eax,%edi
    ea79:	e8 35 a9 ff ff       	callq  93b3 <safe_add_func_int16_t_s_s>
    ea7e:	66 85 c0             	test   %ax,%ax
    ea81:	0f 84 09 08 00 00    	je     f290 <func_22+0x900>
    ea87:	48 8d 05 df c5 00 00 	lea    0xc5df(%rip),%rax        # 1b06d <g_157+0x5>
    ea8e:	48 89 85 30 fe ff ff 	mov    %rax,-0x1d0(%rbp)
    ea95:	c6 85 3b fd ff ff 8e 	movb   $0x8e,-0x2c5(%rbp)
    ea9c:	48 8d 05 41 cd 00 00 	lea    0xcd41(%rip),%rax        # 1b7e4 <g_1007>
    eaa3:	48 89 85 a0 fd ff ff 	mov    %rax,-0x260(%rbp)
    eaaa:	48 8d 85 a0 fd ff ff 	lea    -0x260(%rbp),%rax
    eab1:	48 89 85 a8 fd ff ff 	mov    %rax,-0x258(%rbp)
    eab8:	48 8d 05 f9 ff 00 00 	lea    0xfff9(%rip),%rax        # 1eab8 <g_1562>
    eabf:	48 89 85 38 fe ff ff 	mov    %rax,-0x1c8(%rbp)
    eac6:	48 8d 05 53 ed 00 00 	lea    0xed53(%rip),%rax        # 1d820 <g_112>
    eacd:	48 89 85 40 fe ff ff 	mov    %rax,-0x1c0(%rbp)
    ead4:	c7 85 48 fd ff ff 01 	movl   $0x1,-0x2b8(%rbp)
    eadb:	00 00 00 
    eade:	c7 85 5c fd ff ff aa 	movl   $0xbcda76aa,-0x2a4(%rbp)
    eae5:	76 da bc 
    eae8:	c7 85 60 fd ff ff 16 	movl   $0xa334b916,-0x2a0(%rbp)
    eaef:	b9 34 a3 
    eaf2:	c7 85 64 fd ff ff 7b 	movl   $0x9b76d17b,-0x29c(%rbp)
    eaf9:	d1 76 9b 
    eafc:	c7 85 68 fd ff ff fe 	movl   $0xfffffffe,-0x298(%rbp)
    eb03:	ff ff ff 
    eb06:	c7 85 6c fd ff ff 01 	movl   $0x1,-0x294(%rbp)
    eb0d:	00 00 00 
    eb10:	c7 85 4c fd ff ff 09 	movl   $0x9,-0x2b4(%rbp)
    eb17:	00 00 00 
    eb1a:	48 8d 05 ff f5 00 00 	lea    0xf5ff(%rip),%rax        # 1e120 <g_329>
    eb21:	48 89 85 a0 fe ff ff 	mov    %rax,-0x160(%rbp)
    eb28:	48 8d 05 71 f6 00 00 	lea    0xf671(%rip),%rax        # 1e1a0 <g_714>
    eb2f:	48 89 85 a8 fe ff ff 	mov    %rax,-0x158(%rbp)
    eb36:	48 8d 05 e3 f5 00 00 	lea    0xf5e3(%rip),%rax        # 1e120 <g_329>
    eb3d:	48 89 85 b0 fe ff ff 	mov    %rax,-0x150(%rbp)
    eb44:	48 8d 05 d5 f5 00 00 	lea    0xf5d5(%rip),%rax        # 1e120 <g_329>
    eb4b:	48 89 85 b8 fe ff ff 	mov    %rax,-0x148(%rbp)
    eb52:	48 8d 05 47 f6 00 00 	lea    0xf647(%rip),%rax        # 1e1a0 <g_714>
    eb59:	48 89 85 c0 fe ff ff 	mov    %rax,-0x140(%rbp)
    eb60:	48 8d 05 b9 f5 00 00 	lea    0xf5b9(%rip),%rax        # 1e120 <g_329>
    eb67:	48 89 85 c8 fe ff ff 	mov    %rax,-0x138(%rbp)
    eb6e:	48 8d 05 ab f5 00 00 	lea    0xf5ab(%rip),%rax        # 1e120 <g_329>
    eb75:	48 89 85 d0 fe ff ff 	mov    %rax,-0x130(%rbp)
    eb7c:	0f b6 9d 3b fd ff ff 	movzbl -0x2c5(%rbp),%ebx
    eb83:	48 8b 05 8e f6 00 00 	mov    0xf68e(%rip),%rax        # 1e218 <g_965>
    eb8a:	48 8b 00             	mov    (%rax),%rax
    eb8d:	48 8b 00             	mov    (%rax),%rax
    eb90:	48 85 c0             	test   %rax,%rax
    eb93:	0f 95 c0             	setne  %al
    eb96:	0f b6 d0             	movzbl %al,%edx
    eb99:	8b 85 2c fd ff ff    	mov    -0x2d4(%rbp),%eax
    eb9f:	39 c2                	cmp    %eax,%edx
    eba1:	0f 9f c0             	setg   %al
    eba4:	44 0f b6 f0          	movzbl %al,%r14d
    eba8:	4c 0f bf a5 42 fd ff 	movswq -0x2be(%rbp),%r12
    ebaf:	ff 
    ebb0:	0f b7 85 28 fd ff ff 	movzwl -0x2d8(%rbp),%eax
    ebb7:	44 0f b6 e8          	movzbl %al,%r13d
    ebbb:	0f b7 85 28 fd ff ff 	movzwl -0x2d8(%rbp),%eax
    ebc2:	98                   	cwtl   
    ebc3:	89 c6                	mov    %eax,%esi
    ebc5:	bf 01 00 00 00       	mov    $0x1,%edi
    ebca:	e8 fd aa ff ff       	callq  96cc <safe_mod_func_int32_t_s_s>
    ebcf:	0f b6 c0             	movzbl %al,%eax
    ebd2:	44 89 ee             	mov    %r13d,%esi
    ebd5:	89 c7                	mov    %eax,%edi
    ebd7:	e8 b7 af ff ff       	callq  9b93 <safe_mul_func_uint8_t_u_u>
    ebdc:	b8 01 00 00 00       	mov    $0x1,%eax
    ebe1:	0f be c0             	movsbl %al,%eax
    ebe4:	be f9 ff ff ff       	mov    $0xfffffff9,%esi
    ebe9:	89 c7                	mov    %eax,%edi
    ebeb:	e8 41 a6 ff ff       	callq  9231 <safe_mod_func_int8_t_s_s>
    ebf0:	48 0f be c0          	movsbq %al,%rax
    ebf4:	4c 89 e6             	mov    %r12,%rsi
    ebf7:	48 89 c7             	mov    %rax,%rdi
    ebfa:	e8 2f b4 ff ff       	callq  a02e <safe_add_func_uint64_t_u_u>
    ebff:	48 8b 85 30 fe ff ff 	mov    -0x1d0(%rbp),%rax
    ec06:	0f b6 00             	movzbl (%rax),%eax
    ec09:	44 89 f2             	mov    %r14d,%edx
    ec0c:	21 c2                	and    %eax,%edx
    ec0e:	48 8b 85 30 fe ff ff 	mov    -0x1d0(%rbp),%rax
    ec15:	88 10                	mov    %dl,(%rax)
    ec17:	48 8b 85 30 fe ff ff 	mov    -0x1d0(%rbp),%rax
    ec1e:	0f b6 00             	movzbl (%rax),%eax
    ec21:	84 c0                	test   %al,%al
    ec23:	0f 9f c0             	setg   %al
    ec26:	0f b6 c0             	movzbl %al,%eax
    ec29:	89 de                	mov    %ebx,%esi
    ec2b:	89 c7                	mov    %eax,%edi
    ec2d:	e8 bc a6 ff ff       	callq  92ee <safe_lshift_func_int8_t_s_u>
    ec32:	48 c7 85 f0 fd ff ff 	movq   $0x0,-0x210(%rbp)
    ec39:	00 00 00 00 
    ec3d:	48 8d 05 c4 cb 00 00 	lea    0xcbc4(%rip),%rax        # 1b808 <g_1130>
    ec44:	48 89 85 f8 fd ff ff 	mov    %rax,-0x208(%rbp)
    ec4b:	48 8d 05 36 c4 00 00 	lea    0xc436(%rip),%rax        # 1b088 <g_183+0x8>
    ec52:	48 89 85 00 fe ff ff 	mov    %rax,-0x200(%rbp)
    ec59:	48 c7 85 08 fe ff ff 	movq   $0x0,-0x1f8(%rbp)
    ec60:	00 00 00 00 
    ec64:	66 c7 85 3e fd ff ff 	movw   $0xc41d,-0x2c2(%rbp)
    ec6b:	1d c4 
    ec6d:	48 c7 85 b0 fd ff ff 	movq   $0x0,-0x250(%rbp)
    ec74:	00 00 00 00 
    ec78:	48 8d 85 b0 fd ff ff 	lea    -0x250(%rbp),%rax
    ec7f:	48 89 85 b8 fd ff ff 	mov    %rax,-0x248(%rbp)
    ec86:	48 8d 85 b8 fd ff ff 	lea    -0x248(%rbp),%rax
    ec8d:	48 89 85 10 fe ff ff 	mov    %rax,-0x1f0(%rbp)
    ec94:	c7 85 50 fd ff ff 00 	movl   $0x0,-0x2b0(%rbp)
    ec9b:	00 00 00 
    ec9e:	eb 1e                	jmp    ecbe <func_22+0x32e>
    eca0:	8b 85 50 fd ff ff    	mov    -0x2b0(%rbp),%eax
    eca6:	48 98                	cltq   
    eca8:	48 8d 95 48 fd ff ff 	lea    -0x2b8(%rbp),%rdx
    ecaf:	48 89 94 c5 70 fe ff 	mov    %rdx,-0x190(%rbp,%rax,8)
    ecb6:	ff 
    ecb7:	83 85 50 fd ff ff 01 	addl   $0x1,-0x2b0(%rbp)
    ecbe:	83 bd 50 fd ff ff 05 	cmpl   $0x5,-0x2b0(%rbp)
    ecc5:	7e d9                	jle    eca0 <func_22+0x310>
    ecc7:	66 83 85 3e fd ff ff 	addw   $0x1,-0x2c2(%rbp)
    ecce:	01 
    eccf:	48 c7 05 be c3 00 00 	movq   $0x0,0xc3be(%rip)        # 1b098 <g_189>
    ecd6:	00 00 00 00 
    ecda:	e9 78 01 00 00       	jmpq   ee57 <func_22+0x4c7>
    ecdf:	48 8d 05 5a c3 00 00 	lea    0xc35a(%rip),%rax        # 1b040 <g_76>
    ece6:	48 89 85 c0 fd ff ff 	mov    %rax,-0x240(%rbp)
    eced:	48 8d 85 c0 fd ff ff 	lea    -0x240(%rbp),%rax
    ecf4:	48 89 85 d8 fd ff ff 	mov    %rax,-0x228(%rbp)
    ecfb:	48 8b 85 d8 fd ff ff 	mov    -0x228(%rbp),%rax
    ed02:	48 c7 00 00 00 00 00 	movq   $0x0,(%rax)
    ed09:	66 c7 05 76 cb 00 00 	movw   $0x0,0xcb76(%rip)        # 1b888 <g_1634>
    ed10:	00 00 
    ed12:	90                   	nop
    ed13:	0f b7 05 6e cb 00 00 	movzwl 0xcb6e(%rip),%eax        # 1b888 <g_1634>
    ed1a:	66 85 c0             	test   %ax,%ax
    ed1d:	0f 85 22 01 00 00    	jne    ee45 <func_22+0x4b5>
    ed23:	66 c7 85 3c fd ff ff 	movw   $0xd8ca,-0x2c4(%rbp)
    ed2a:	ca d8 
    ed2c:	c6 85 3a fd ff ff 29 	movb   $0x29,-0x2c6(%rbp)
    ed33:	48 8d 95 e0 fe ff ff 	lea    -0x120(%rbp),%rdx
    ed3a:	b8 00 00 00 00       	mov    $0x0,%eax
    ed3f:	b9 10 00 00 00       	mov    $0x10,%ecx
    ed44:	48 89 d7             	mov    %rdx,%rdi
    ed47:	f3 48 ab             	rep stos %rax,%es:(%rdi)
    ed4a:	48 8d 05 1c c3 00 00 	lea    0xc31c(%rip),%rax        # 1b06d <g_157+0x5>
    ed51:	48 89 85 d0 fd ff ff 	mov    %rax,-0x230(%rbp)
    ed58:	c6 05 51 07 01 00 00 	movb   $0x0,0x10751(%rip)        # 1f4b0 <g_1284>
    ed5f:	e9 c6 00 00 00       	jmpq   ee2a <func_22+0x49a>
    ed64:	48 8d 05 75 ea 00 00 	lea    0xea75(%rip),%rax        # 1d7e0 <g_61>
    ed6b:	48 89 85 c8 fd ff ff 	mov    %rax,-0x238(%rbp)
    ed72:	8b 05 10 cc 00 00    	mov    0xcc10(%rip),%eax        # 1b988 <g_1975>
    ed78:	48 8b 15 19 c3 00 00 	mov    0xc319(%rip),%rdx        # 1b098 <g_189>
    ed7f:	0f b7 05 02 cb 00 00 	movzwl 0xcb02(%rip),%eax        # 1b888 <g_1634>
    ed86:	0f b7 c0             	movzwl %ax,%eax
    ed89:	83 c0 08             	add    $0x8,%eax
    ed8c:	48 63 c8             	movslq %eax,%rcx
    ed8f:	48 89 d0             	mov    %rdx,%rax
    ed92:	48 c1 e0 02          	shl    $0x2,%rax
    ed96:	48 01 d0             	add    %rdx,%rax
    ed99:	48 01 c0             	add    %rax,%rax
    ed9c:	48 01 c8             	add    %rcx,%rax
    ed9f:	48 8d 14 c5 00 00 00 	lea    0x0(,%rax,8),%rdx
    eda6:	00 
    eda7:	48 8d 05 b2 c6 00 00 	lea    0xc6b2(%rip),%rax        # 1b460 <g_606>
    edae:	48 8b 1c 02          	mov    (%rdx,%rax,1),%rbx
    edb2:	8b 05 b8 ca 00 00    	mov    0xcab8(%rip),%eax        # 1b870 <g_1326>
    edb8:	41 89 c4             	mov    %eax,%r12d
    edbb:	48 8b 85 a0 fd ff ff 	mov    -0x260(%rbp),%rax
    edc2:	c7 00 c6 78 57 a8    	movl   $0xa85778c6,(%rax)
    edc8:	be 02 00 00 00       	mov    $0x2,%esi
    edcd:	bf ff ff ff ff       	mov    $0xffffffff,%edi
    edd2:	e8 ca a4 ff ff       	callq  92a1 <safe_lshift_func_int8_t_s_s>
    edd7:	48 0f be c0          	movsbq %al,%rax
    eddb:	4c 89 e6             	mov    %r12,%rsi
    edde:	48 89 c7             	mov    %rax,%rdi
    ede1:	e8 48 b2 ff ff       	callq  a02e <safe_add_func_uint64_t_u_u>
    ede6:	83 bd 7c fd ff ff 00 	cmpl   $0x0,-0x284(%rbp)
    eded:	7e 07                	jle    edf6 <func_22+0x466>
    edef:	b8 01 00 00 00       	mov    $0x1,%eax
    edf4:	eb 05                	jmp    edfb <func_22+0x46b>
    edf6:	b8 00 00 00 00       	mov    $0x0,%eax
    edfb:	3d 74 44 24 27       	cmp    $0x27244474,%eax
    ee00:	0f 9f c0             	setg   %al
    ee03:	0f b6 c0             	movzbl %al,%eax
    ee06:	48 39 c3             	cmp    %rax,%rbx
    ee09:	48 8b 95 50 ff ff ff 	mov    -0xb0(%rbp),%rdx
    ee10:	48 8b 85 c8 fd ff ff 	mov    -0x238(%rbp),%rax
    ee17:	48 89 10             	mov    %rdx,(%rax)
    ee1a:	0f b6 05 8f 06 01 00 	movzbl 0x1068f(%rip),%eax        # 1f4b0 <g_1284>
    ee21:	83 e8 01             	sub    $0x1,%eax
    ee24:	88 05 86 06 01 00    	mov    %al,0x10686(%rip)        # 1f4b0 <g_1284>
    ee2a:	0f b6 05 7f 06 01 00 	movzbl 0x1067f(%rip),%eax        # 1f4b0 <g_1284>
    ee31:	84 c0                	test   %al,%al
    ee33:	0f 89 2b ff ff ff    	jns    ed64 <func_22+0x3d4>
    ee39:	48 8b 85 d0 fd ff ff 	mov    -0x230(%rbp),%rax
    ee40:	e9 74 04 00 00       	jmpq   f2b9 <func_22+0x929>
    ee45:	48 8b 05 4c c2 00 00 	mov    0xc24c(%rip),%rax        # 1b098 <g_189>
    ee4c:	48 83 c0 01          	add    $0x1,%rax
    ee50:	48 89 05 41 c2 00 00 	mov    %rax,0xc241(%rip)        # 1b098 <g_189>
    ee57:	48 8b 05 3a c2 00 00 	mov    0xc23a(%rip),%rax        # 1b098 <g_189>
    ee5e:	48 83 f8 06          	cmp    $0x6,%rax
    ee62:	0f 86 77 fe ff ff    	jbe    ecdf <func_22+0x34f>
    ee68:	c7 85 44 fd ff ff 00 	movl   $0x0,-0x2bc(%rbp)
    ee6f:	00 00 00 
    ee72:	e9 98 01 00 00       	jmpq   f00f <func_22+0x67f>
    ee77:	c7 85 58 fd ff ff ff 	movl   $0xffffffff,-0x2a8(%rbp)
    ee7e:	ff ff ff 
    ee81:	48 8d 05 20 06 01 00 	lea    0x10620(%rip),%rax        # 1f4a8 <g_1223>
    ee88:	48 89 85 b8 fd ff ff 	mov    %rax,-0x248(%rbp)
    ee8f:	48 8d 85 b8 fd ff ff 	lea    -0x248(%rbp),%rax
    ee96:	48 89 85 c0 fd ff ff 	mov    %rax,-0x240(%rbp)
    ee9d:	48 c7 05 f0 c7 00 00 	movq   $0x0,0xc7f0(%rip)        # 1b698 <g_626>
    eea4:	00 00 00 00 
    eea8:	e9 42 01 00 00       	jmpq   efef <func_22+0x65f>
    eead:	48 c7 85 e0 fd ff ff 	movq   $0x0,-0x220(%rbp)
    eeb4:	00 00 00 00 
    eeb8:	c7 85 54 fd ff ff 45 	movl   $0x68a54145,-0x2ac(%rbp)
    eebf:	41 a5 68 
    eec2:	48 8d 85 c0 fd ff ff 	lea    -0x240(%rbp),%rax
    eec9:	48 89 85 e8 fd ff ff 	mov    %rax,-0x218(%rbp)
    eed0:	c7 85 54 fd ff ff 95 	movl   $0xa7148d95,-0x2ac(%rbp)
    eed7:	8d 14 a7 
    eeda:	48 83 bd 68 fe ff ff 	cmpq   $0x0,-0x198(%rbp)
    eee1:	00 
    eee2:	0f 95 c0             	setne  %al
    eee5:	0f b6 c0             	movzbl %al,%eax
    eee8:	8b 95 58 fd ff ff    	mov    -0x2a8(%rbp),%edx
    eeee:	89 d6                	mov    %edx,%esi
    eef0:	89 c7                	mov    %eax,%edi
    eef2:	e8 d5 a7 ff ff       	callq  96cc <safe_mod_func_int32_t_s_s>
    eef7:	0f b6 95 3b fd ff ff 	movzbl -0x2c5(%rbp),%edx
    eefe:	39 d0                	cmp    %edx,%eax
    ef00:	0f 9f c0             	setg   %al
    ef03:	0f b6 c0             	movzbl %al,%eax
    ef06:	be 06 00 00 00       	mov    $0x6,%esi
    ef0b:	89 c7                	mov    %eax,%edi
    ef0d:	e8 ac ad ff ff       	callq  9cbe <safe_rshift_func_uint8_t_u_u>
    ef12:	0f b6 c8             	movzbl %al,%ecx
    ef15:	48 8b 95 c0 fd ff ff 	mov    -0x240(%rbp),%rdx
    ef1c:	48 8b 85 e8 fd ff ff 	mov    -0x218(%rbp),%rax
    ef23:	48 89 10             	mov    %rdx,(%rax)
    ef26:	48 8b 85 e8 fd ff ff 	mov    -0x218(%rbp),%rax
    ef2d:	48 8b 10             	mov    (%rax),%rdx
    ef30:	48 8d 85 b8 fd ff ff 	lea    -0x248(%rbp),%rax
    ef37:	48 39 c2             	cmp    %rax,%rdx
    ef3a:	0f 95 c0             	setne  %al
    ef3d:	0f b6 c0             	movzbl %al,%eax
    ef40:	39 c1                	cmp    %eax,%ecx
    ef42:	0f 95 c0             	setne  %al
    ef45:	44 0f b6 e0          	movzbl %al,%r12d
    ef49:	8b 85 2c fd ff ff    	mov    -0x2d4(%rbp),%eax
    ef4f:	0f be d8             	movsbl %al,%ebx
    ef52:	8b 85 2c fd ff ff    	mov    -0x2d4(%rbp),%eax
    ef58:	0f be c0             	movsbl %al,%eax
    ef5b:	be 04 00 00 00       	mov    $0x4,%esi
    ef60:	89 c7                	mov    %eax,%edi
    ef62:	e8 05 a4 ff ff       	callq  936c <safe_rshift_func_int8_t_s_u>
    ef67:	3c ff                	cmp    $0xff,%al
    ef69:	0f 94 c0             	sete   %al
    ef6c:	0f b6 c0             	movzbl %al,%eax
    ef6f:	89 de                	mov    %ebx,%esi
    ef71:	89 c7                	mov    %eax,%edi
    ef73:	e8 9a a2 ff ff       	callq  9212 <safe_mul_func_int8_t_s_s>
    ef78:	48 0f be c0          	movsbq %al,%rax
    ef7c:	48 be 48 45 b2 b1 7c 	movabs $0x7ad9b47cb1b24548,%rsi
    ef83:	b4 d9 7a 
    ef86:	48 89 c7             	mov    %rax,%rdi
    ef89:	e8 b3 a8 ff ff       	callq  9841 <safe_add_func_int64_t_s_s>
    ef8e:	48 85 c0             	test   %rax,%rax
    ef91:	0f 95 c0             	setne  %al
    ef94:	0f b6 c0             	movzbl %al,%eax
    ef97:	be 09 00 00 00       	mov    $0x9,%esi
    ef9c:	89 c7                	mov    %eax,%edi
    ef9e:	e8 3e a5 ff ff       	callq  94e1 <safe_lshift_func_int16_t_s_u>
    efa3:	98                   	cwtl   
    efa4:	41 39 c4             	cmp    %eax,%r12d
    efa7:	0f 9c c0             	setl   %al
    efaa:	0f b6 c0             	movzbl %al,%eax
    efad:	be 04 00 00 00       	mov    $0x4,%esi
    efb2:	89 c7                	mov    %eax,%edi
    efb4:	e8 35 a3 ff ff       	callq  92ee <safe_lshift_func_int8_t_s_u>
    efb9:	48 8b 05 80 e8 00 00 	mov    0xe880(%rip),%rax        # 1d840 <g_151>
    efc0:	0f b6 00             	movzbl (%rax),%eax
    efc3:	83 c8 01             	or     $0x1,%eax
    efc6:	89 c2                	mov    %eax,%edx
    efc8:	48 8b 05 61 fb 00 00 	mov    0xfb61(%rip),%rax        # 1eb30 <g_2017>
    efcf:	0f b6 d2             	movzbl %dl,%edx
    efd2:	89 10                	mov    %edx,(%rax)
    efd4:	48 8b 05 bd c6 00 00 	mov    0xc6bd(%rip),%rax        # 1b698 <g_626>
    efdb:	be 01 00 00 00       	mov    $0x1,%esi
    efe0:	48 89 c7             	mov    %rax,%rdi
    efe3:	e8 63 b0 ff ff       	callq  a04b <safe_sub_func_uint64_t_u_u>
    efe8:	48 89 05 a9 c6 00 00 	mov    %rax,0xc6a9(%rip)        # 1b698 <g_626>
    efef:	48 8b 05 a2 c6 00 00 	mov    0xc6a2(%rip),%rax        # 1b698 <g_626>
    eff6:	48 83 f8 f7          	cmp    $0xfffffffffffffff7,%rax
    effa:	0f 8d ad fe ff ff    	jge    eead <func_22+0x51d>
    f000:	8b 85 44 fd ff ff    	mov    -0x2bc(%rbp),%eax
    f006:	83 e8 01             	sub    $0x1,%eax
    f009:	89 85 44 fd ff ff    	mov    %eax,-0x2bc(%rbp)
    f00f:	8b 85 44 fd ff ff    	mov    -0x2bc(%rbp),%eax
    f015:	83 f8 ee             	cmp    $0xffffffee,%eax
    f018:	0f 8c 59 fe ff ff    	jl     ee77 <func_22+0x4e7>
    f01e:	c6 05 03 c1 00 00 e6 	movb   $0xe6,0xc103(%rip)        # 1b128 <g_376>
    f025:	e9 55 02 00 00       	jmpq   f27f <func_22+0x8ef>
    f02a:	c7 85 70 fd ff ff 00 	movl   $0x0,-0x290(%rbp)
    f031:	00 00 00 
    f034:	66 c7 85 40 fd ff ff 	movw   $0x0,-0x2c0(%rbp)
    f03b:	00 00 
    f03d:	c7 85 74 fd ff ff fb 	movl   $0xfffffffb,-0x28c(%rbp)
    f044:	ff ff ff 
    f047:	0f b7 85 28 fd ff ff 	movzwl -0x2d8(%rbp),%eax
    f04e:	66 85 c0             	test   %ax,%ax
    f051:	0f 85 5a 02 00 00    	jne    f2b1 <func_22+0x921>
    f057:	66 c7 05 68 04 01 00 	movw   $0x0,0x10468(%rip)        # 1f4c8 <g_1752>
    f05e:	00 00 
    f060:	e9 ed 01 00 00       	jmpq   f252 <func_22+0x8c2>
    f065:	48 8d 85 4c fd ff ff 	lea    -0x2b4(%rbp),%rax
    f06c:	48 89 85 18 fe ff ff 	mov    %rax,-0x1e8(%rbp)
    f073:	48 8d 05 56 c4 00 00 	lea    0xc456(%rip),%rax        # 1b4d0 <g_606+0x70>
    f07a:	48 89 85 20 fe ff ff 	mov    %rax,-0x1e0(%rbp)
    f081:	48 8b 85 18 fe ff ff 	mov    -0x1e8(%rbp),%rax
    f088:	8b 10                	mov    (%rax),%edx
    f08a:	8b 85 44 fd ff ff    	mov    -0x2bc(%rbp),%eax
    f090:	83 f8 ff             	cmp    $0xffffffff,%eax
    f093:	0f 95 c0             	setne  %al
    f096:	0f b6 c0             	movzbl %al,%eax
    f099:	21 c2                	and    %eax,%edx
    f09b:	48 8b 85 18 fe ff ff 	mov    -0x1e8(%rbp),%rax
    f0a2:	89 10                	mov    %edx,(%rax)
    f0a4:	48 8d 85 2c fd ff ff 	lea    -0x2d4(%rbp),%rax
    f0ab:	48 89 85 18 fe ff ff 	mov    %rax,-0x1e8(%rbp)
    f0b2:	8b 85 2c fd ff ff    	mov    -0x2d4(%rbp),%eax
    f0b8:	41 89 c6             	mov    %eax,%r14d
    f0bb:	8b 85 78 fd ff ff    	mov    -0x288(%rbp),%eax
    f0c1:	48 63 d8             	movslq %eax,%rbx
    f0c4:	0f b7 85 28 fd ff ff 	movzwl -0x2d8(%rbp),%eax
    f0cb:	44 0f bf e0          	movswl %ax,%r12d
    f0cf:	48 8b 85 d0 fe ff ff 	mov    -0x130(%rbp),%rax
    f0d6:	48 85 c0             	test   %rax,%rax
    f0d9:	0f 95 c0             	setne  %al
    f0dc:	44 0f b6 e8          	movzbl %al,%r13d
    f0e0:	8b 85 2c fd ff ff    	mov    -0x2d4(%rbp),%eax
    f0e6:	0f bf d0             	movswl %ax,%edx
    f0e9:	8b 85 70 fd ff ff    	mov    -0x290(%rbp),%eax
    f0ef:	98                   	cwtl   
    f0f0:	89 d6                	mov    %edx,%esi
    f0f2:	89 c7                	mov    %eax,%edi
    f0f4:	e8 ba a2 ff ff       	callq  93b3 <safe_add_func_int16_t_s_s>
    f0f9:	98                   	cwtl   
    f0fa:	41 39 c5             	cmp    %eax,%r13d
    f0fd:	0f 9e c0             	setle  %al
    f100:	0f b6 d0             	movzbl %al,%edx
    f103:	48 8b 85 18 fe ff ff 	mov    -0x1e8(%rbp),%rax
    f10a:	8b 00                	mov    (%rax),%eax
    f10c:	31 d0                	xor    %edx,%eax
    f10e:	41 39 c4             	cmp    %eax,%r12d
    f111:	0f 95 c0             	setne  %al
    f114:	0f b6 c0             	movzbl %al,%eax
    f117:	48 89 de             	mov    %rbx,%rsi
    f11a:	48 89 c7             	mov    %rax,%rdi
    f11d:	e8 d5 a8 ff ff       	callq  99f7 <safe_div_func_int64_t_s_s>
    f122:	48 ba 03 f8 d2 ce b1 	movabs $0x2437a2b1ced2f803,%rdx
    f129:	a2 37 24 
    f12c:	48 09 c2             	or     %rax,%rdx
    f12f:	8b 85 2c fd ff ff    	mov    -0x2d4(%rbp),%eax
    f135:	48 98                	cltq   
    f137:	48 39 c2             	cmp    %rax,%rdx
    f13a:	0f 9c c0             	setl   %al
    f13d:	0f b6 c0             	movzbl %al,%eax
    f140:	0b 85 70 fd ff ff    	or     -0x290(%rbp),%eax
    f146:	83 f8 3e             	cmp    $0x3e,%eax
    f149:	74 07                	je     f152 <func_22+0x7c2>
    f14b:	b8 f9 ff 00 00       	mov    $0xfff9,%eax
    f150:	eb 05                	jmp    f157 <func_22+0x7c7>
    f152:	b8 f8 ff 00 00       	mov    $0xfff8,%eax
    f157:	44 89 f6             	mov    %r14d,%esi
    f15a:	89 c7                	mov    %eax,%edi
    f15c:	e8 6f ad ff ff       	callq  9ed0 <safe_sub_func_uint32_t_u_u>
    f161:	8b 95 2c fd ff ff    	mov    -0x2d4(%rbp),%edx
    f167:	39 d0                	cmp    %edx,%eax
    f169:	0f 96 c0             	setbe  %al
    f16c:	0f b6 c0             	movzbl %al,%eax
    f16f:	23 85 70 fd ff ff    	and    -0x290(%rbp),%eax
    f175:	83 f8 08             	cmp    $0x8,%eax
    f178:	0f 96 c0             	setbe  %al
    f17b:	0f b6 d0             	movzbl %al,%edx
    f17e:	48 8b 05 0b f0 00 00 	mov    0xf00b(%rip),%rax        # 1e190 <g_624>
    f185:	0f b6 00             	movzbl (%rax),%eax
    f188:	66 98                	cbtw   
    f18a:	09 d0                	or     %edx,%eax
    f18c:	0f b7 d0             	movzwl %ax,%edx
    f18f:	48 8b 05 3a f9 00 00 	mov    0xf93a(%rip),%rax        # 1ead0 <g_1758>
    f196:	0f b7 00             	movzwl (%rax),%eax
    f199:	0f b7 c0             	movzwl %ax,%eax
    f19c:	89 d6                	mov    %edx,%esi
    f19e:	89 c7                	mov    %eax,%edi
    f1a0:	e8 b7 ab ff ff       	callq  9d5c <safe_mod_func_uint16_t_u_u>
    f1a5:	0f b6 d0             	movzbl %al,%edx
    f1a8:	0f b6 05 79 bf 00 00 	movzbl 0xbf79(%rip),%eax        # 1b128 <g_376>
    f1af:	0f b6 c0             	movzbl %al,%eax
    f1b2:	89 d6                	mov    %edx,%esi
    f1b4:	89 c7                	mov    %eax,%edi
    f1b6:	e8 d8 a9 ff ff       	callq  9b93 <safe_mul_func_uint8_t_u_u>
    f1bb:	0f b6 d0             	movzbl %al,%edx
    f1be:	0f bf 85 40 fd ff ff 	movswl -0x2c0(%rbp),%eax
    f1c5:	39 c2                	cmp    %eax,%edx
    f1c7:	0f 9c c0             	setl   %al
    f1ca:	0f b6 d0             	movzbl %al,%edx
    f1cd:	0f b7 85 28 fd ff ff 	movzwl -0x2d8(%rbp),%eax
    f1d4:	98                   	cwtl   
    f1d5:	39 c2                	cmp    %eax,%edx
    f1d7:	0f 95 c0             	setne  %al
    f1da:	0f b6 c8             	movzbl %al,%ecx
    f1dd:	48 8b 85 20 fe ff ff 	mov    -0x1e0(%rbp),%rax
    f1e4:	48 8b 10             	mov    (%rax),%rdx
    f1e7:	48 63 c1             	movslq %ecx,%rax
    f1ea:	48 21 c2             	and    %rax,%rdx
    f1ed:	48 8b 85 20 fe ff ff 	mov    -0x1e0(%rbp),%rax
    f1f4:	48 89 10             	mov    %rdx,(%rax)
    f1f7:	48 8b 85 20 fe ff ff 	mov    -0x1e0(%rbp),%rax
    f1fe:	48 8b 00             	mov    (%rax),%rax
    f201:	48 be 63 94 67 ff 1f 	movabs $0x65cb31fff679463,%rsi
    f208:	b3 5c 06 
    f20b:	48 89 c7             	mov    %rax,%rdi
    f20e:	e8 38 ae ff ff       	callq  a04b <safe_sub_func_uint64_t_u_u>
    f213:	48 85 c0             	test   %rax,%rax
    f216:	0f 95 c0             	setne  %al
    f219:	0f b6 c0             	movzbl %al,%eax
    f21c:	21 85 74 fd ff ff    	and    %eax,-0x28c(%rbp)
    f222:	48 8b 85 18 fe ff ff 	mov    -0x1e8(%rbp),%rax
    f229:	8b 10                	mov    (%rax),%edx
    f22b:	48 8b 85 18 fe ff ff 	mov    -0x1e8(%rbp),%rax
    f232:	89 10                	mov    %edx,(%rax)
    f234:	0f b7 05 8d 02 01 00 	movzwl 0x1028d(%rip),%eax        # 1f4c8 <g_1752>
    f23b:	0f b7 c0             	movzwl %ax,%eax
    f23e:	be 05 00 00 00       	mov    $0x5,%esi
    f243:	48 89 c7             	mov    %rax,%rdi
    f246:	e8 e3 ad ff ff       	callq  a02e <safe_add_func_uint64_t_u_u>
    f24b:	66 89 05 76 02 01 00 	mov    %ax,0x10276(%rip)        # 1f4c8 <g_1752>
    f252:	0f b7 05 6f 02 01 00 	movzwl 0x1026f(%rip),%eax        # 1f4c8 <g_1752>
    f259:	66 83 f8 26          	cmp    $0x26,%ax
    f25d:	0f 87 02 fe ff ff    	ja     f065 <func_22+0x6d5>
    f263:	0f b6 05 be be 00 00 	movzbl 0xbebe(%rip),%eax        # 1b128 <g_376>
    f26a:	0f be c0             	movsbl %al,%eax
    f26d:	be 01 00 00 00       	mov    $0x1,%esi
    f272:	89 c7                	mov    %eax,%edi
    f274:	e8 79 9f ff ff       	callq  91f2 <safe_sub_func_int8_t_s_s>
    f279:	88 05 a9 be 00 00    	mov    %al,0xbea9(%rip)        # 1b128 <g_376>
    f27f:	0f b6 05 a2 be 00 00 	movzbl 0xbea2(%rip),%eax        # 1b128 <g_376>
    f286:	3c e4                	cmp    $0xe4,%al
    f288:	0f 8c 9c fd ff ff    	jl     f02a <func_22+0x69a>
    f28e:	eb 22                	jmp    f2b2 <func_22+0x922>
    f290:	48 8d 85 44 fd ff ff 	lea    -0x2bc(%rbp),%rax
    f297:	48 89 85 28 fe ff ff 	mov    %rax,-0x1d8(%rbp)
    f29e:	48 8b 05 93 f8 00 00 	mov    0xf893(%rip),%rax        # 1eb38 <g_2042>
    f2a5:	48 8b 95 28 fe ff ff 	mov    -0x1d8(%rbp),%rdx
    f2ac:	48 89 10             	mov    %rdx,(%rax)
    f2af:	eb 01                	jmp    f2b2 <func_22+0x922>
    f2b1:	90                   	nop
    f2b2:	48 8b 85 60 fe ff ff 	mov    -0x1a0(%rbp),%rax
    f2b9:	48 8b 4d d8          	mov    -0x28(%rbp),%rcx
    f2bd:	64 48 33 0c 25 28 00 	xor    %fs:0x28,%rcx
    f2c4:	00 00 
    f2c6:	74 05                	je     f2cd <func_22+0x93d>
    f2c8:	e8 a3 9d ff ff       	callq  9070 <__stack_chk_fail@plt>
    f2cd:	48 81 c4 c0 02 00 00 	add    $0x2c0,%rsp
    f2d4:	5b                   	pop    %rbx
    f2d5:	41 5c                	pop    %r12
    f2d7:	41 5d                	pop    %r13
    f2d9:	41 5e                	pop    %r14
    f2db:	5d                   	pop    %rbp
    f2dc:	c3                   	retq   

000000000000f2dd <func_25>:
    f2dd:	f3 0f 1e fa          	endbr64 
    f2e1:	55                   	push   %rbp
    f2e2:	48 89 e5             	mov    %rsp,%rbp
    f2e5:	48 81 ec 50 08 00 00 	sub    $0x850,%rsp
    f2ec:	89 bd cc f7 ff ff    	mov    %edi,-0x834(%rbp)
    f2f2:	48 89 b5 c0 f7 ff ff 	mov    %rsi,-0x840(%rbp)
    f2f9:	89 95 c8 f7 ff ff    	mov    %edx,-0x838(%rbp)
    f2ff:	48 89 8d b8 f7 ff ff 	mov    %rcx,-0x848(%rbp)
    f306:	4c 89 85 b0 f7 ff ff 	mov    %r8,-0x850(%rbp)
    f30d:	64 48 8b 04 25 28 00 	mov    %fs:0x28,%rax
    f314:	00 00 
    f316:	48 89 45 f8          	mov    %rax,-0x8(%rbp)
    f31a:	31 c0                	xor    %eax,%eax
    f31c:	48 8d 85 70 f9 ff ff 	lea    -0x690(%rbp),%rax
    f323:	48 8d 15 b6 76 00 00 	lea    0x76b6(%rip),%rdx        # 169e0 <g_2652+0x974>
    f32a:	b9 3f 00 00 00       	mov    $0x3f,%ecx
    f32f:	48 89 c7             	mov    %rax,%rdi
    f332:	48 89 d6             	mov    %rdx,%rsi
    f335:	f3 48 a5             	rep movsq %ds:(%rsi),%es:(%rdi)
    f338:	48 8d 05 39 ee 00 00 	lea    0xee39(%rip),%rax        # 1e178 <g_375+0x18>
    f33f:	48 89 85 38 f8 ff ff 	mov    %rax,-0x7c8(%rbp)
    f346:	48 c7 85 40 f8 ff ff 	movq   $0x0,-0x7c0(%rbp)
    f34d:	00 00 00 00 
    f351:	c7 85 ec f7 ff ff 01 	movl   $0x1,-0x814(%rbp)
    f358:	00 00 00 
    f35b:	c7 85 f0 f7 ff ff 01 	movl   $0x1,-0x810(%rbp)
    f362:	00 00 00 
    f365:	c7 85 f4 f7 ff ff ef 	movl   $0xc46d90ef,-0x80c(%rbp)
    f36c:	90 6d c4 
    f36f:	c7 85 f8 f7 ff ff 00 	movl   $0x0,-0x808(%rbp)
    f376:	00 00 00 
    f379:	c6 85 df f7 ff ff ff 	movb   $0xff,-0x821(%rbp)
    f380:	c7 85 fc f7 ff ff 00 	movl   $0x0,-0x804(%rbp)
    f387:	00 00 00 
    f38a:	66 c7 85 e2 f7 ff ff 	movw   $0x257f,-0x81e(%rbp)
    f391:	7f 25 
    f393:	48 8d 05 5e c4 00 00 	lea    0xc45e(%rip),%rax        # 1b7f8 <g_1087>
    f39a:	48 89 85 48 f8 ff ff 	mov    %rax,-0x7b8(%rbp)
    f3a1:	48 8d 05 a3 c0 00 00 	lea    0xc0a3(%rip),%rax        # 1b44b <g_477>
    f3a8:	48 89 85 d0 f8 ff ff 	mov    %rax,-0x730(%rbp)
    f3af:	48 8d 05 95 c0 00 00 	lea    0xc095(%rip),%rax        # 1b44b <g_477>
    f3b6:	48 89 85 d8 f8 ff ff 	mov    %rax,-0x728(%rbp)
    f3bd:	48 8d 05 87 c0 00 00 	lea    0xc087(%rip),%rax        # 1b44b <g_477>
    f3c4:	48 89 85 e0 f8 ff ff 	mov    %rax,-0x720(%rbp)
    f3cb:	48 8d 05 79 c0 00 00 	lea    0xc079(%rip),%rax        # 1b44b <g_477>
    f3d2:	48 89 85 e8 f8 ff ff 	mov    %rax,-0x718(%rbp)
    f3d9:	48 8d 05 6b c0 00 00 	lea    0xc06b(%rip),%rax        # 1b44b <g_477>
    f3e0:	48 89 85 f0 f8 ff ff 	mov    %rax,-0x710(%rbp)
    f3e7:	c7 85 00 f8 ff ff 01 	movl   $0x1,-0x800(%rbp)
    f3ee:	00 00 00 
    f3f1:	c7 85 04 f8 ff ff 00 	movl   $0x0,-0x7fc(%rbp)
    f3f8:	00 00 00 
    f3fb:	48 8d 05 96 c2 00 00 	lea    0xc296(%rip),%rax        # 1b698 <g_626>
    f402:	48 89 85 50 f8 ff ff 	mov    %rax,-0x7b0(%rbp)
    f409:	48 c7 85 18 f8 ff ff 	movq   $0x0,-0x7e8(%rbp)
    f410:	00 00 00 00 
    f414:	48 8d 05 b5 bf 00 00 	lea    0xbfb5(%rip),%rax        # 1b3d0 <g_406+0x290>
    f41b:	48 89 85 20 f8 ff ff 	mov    %rax,-0x7e0(%rbp)
    f422:	48 c7 85 70 fd ff ff 	movq   $0x0,-0x290(%rbp)
    f429:	00 00 00 00 
    f42d:	48 8d 85 20 f8 ff ff 	lea    -0x7e0(%rbp),%rax
    f434:	48 89 85 78 fd ff ff 	mov    %rax,-0x288(%rbp)
    f43b:	48 8d 85 20 f8 ff ff 	lea    -0x7e0(%rbp),%rax
    f442:	48 89 85 80 fd ff ff 	mov    %rax,-0x280(%rbp)
    f449:	48 c7 85 88 fd ff ff 	movq   $0x0,-0x278(%rbp)
    f450:	00 00 00 00 
    f454:	48 8d 85 20 f8 ff ff 	lea    -0x7e0(%rbp),%rax
    f45b:	48 89 85 90 fd ff ff 	mov    %rax,-0x270(%rbp)
    f462:	48 8d 85 20 f8 ff ff 	lea    -0x7e0(%rbp),%rax
    f469:	48 89 85 98 fd ff ff 	mov    %rax,-0x268(%rbp)
    f470:	48 8d 85 20 f8 ff ff 	lea    -0x7e0(%rbp),%rax
    f477:	48 89 85 a0 fd ff ff 	mov    %rax,-0x260(%rbp)
    f47e:	48 8d 85 20 f8 ff ff 	lea    -0x7e0(%rbp),%rax
    f485:	48 89 85 a8 fd ff ff 	mov    %rax,-0x258(%rbp)
    f48c:	48 8d 85 20 f8 ff ff 	lea    -0x7e0(%rbp),%rax
    f493:	48 89 85 b0 fd ff ff 	mov    %rax,-0x250(%rbp)
    f49a:	48 8d 85 20 f8 ff ff 	lea    -0x7e0(%rbp),%rax
    f4a1:	48 89 85 b8 fd ff ff 	mov    %rax,-0x248(%rbp)
    f4a8:	48 8d 85 20 f8 ff ff 	lea    -0x7e0(%rbp),%rax
    f4af:	48 89 85 c0 fd ff ff 	mov    %rax,-0x240(%rbp)
    f4b6:	48 8d 85 20 f8 ff ff 	lea    -0x7e0(%rbp),%rax
    f4bd:	48 89 85 c8 fd ff ff 	mov    %rax,-0x238(%rbp)
    f4c4:	48 8d 85 20 f8 ff ff 	lea    -0x7e0(%rbp),%rax
    f4cb:	48 89 85 d0 fd ff ff 	mov    %rax,-0x230(%rbp)
    f4d2:	48 8d 85 20 f8 ff ff 	lea    -0x7e0(%rbp),%rax
    f4d9:	48 89 85 d8 fd ff ff 	mov    %rax,-0x228(%rbp)
    f4e0:	48 8d 85 20 f8 ff ff 	lea    -0x7e0(%rbp),%rax
    f4e7:	48 89 85 e0 fd ff ff 	mov    %rax,-0x220(%rbp)
    f4ee:	48 8d 85 20 f8 ff ff 	lea    -0x7e0(%rbp),%rax
    f4f5:	48 89 85 e8 fd ff ff 	mov    %rax,-0x218(%rbp)
    f4fc:	48 8d 85 20 f8 ff ff 	lea    -0x7e0(%rbp),%rax
    f503:	48 89 85 f0 fd ff ff 	mov    %rax,-0x210(%rbp)
    f50a:	48 c7 85 f8 fd ff ff 	movq   $0x0,-0x208(%rbp)
    f511:	00 00 00 00 
    f515:	48 8d 85 20 f8 ff ff 	lea    -0x7e0(%rbp),%rax
    f51c:	48 89 85 00 fe ff ff 	mov    %rax,-0x200(%rbp)
    f523:	48 8d 85 20 f8 ff ff 	lea    -0x7e0(%rbp),%rax
    f52a:	48 89 85 08 fe ff ff 	mov    %rax,-0x1f8(%rbp)
    f531:	48 8d 85 20 f8 ff ff 	lea    -0x7e0(%rbp),%rax
    f538:	48 89 85 10 fe ff ff 	mov    %rax,-0x1f0(%rbp)
    f53f:	48 8d 85 20 f8 ff ff 	lea    -0x7e0(%rbp),%rax
    f546:	48 89 85 18 fe ff ff 	mov    %rax,-0x1e8(%rbp)
    f54d:	48 8d 85 20 f8 ff ff 	lea    -0x7e0(%rbp),%rax
    f554:	48 89 85 20 fe ff ff 	mov    %rax,-0x1e0(%rbp)
    f55b:	48 8d 85 20 f8 ff ff 	lea    -0x7e0(%rbp),%rax
    f562:	48 89 85 28 fe ff ff 	mov    %rax,-0x1d8(%rbp)
    f569:	48 c7 85 30 fe ff ff 	movq   $0x0,-0x1d0(%rbp)
    f570:	00 00 00 00 
    f574:	48 8d 85 20 f8 ff ff 	lea    -0x7e0(%rbp),%rax
    f57b:	48 89 85 38 fe ff ff 	mov    %rax,-0x1c8(%rbp)
    f582:	48 8d 85 20 f8 ff ff 	lea    -0x7e0(%rbp),%rax
    f589:	48 89 85 40 fe ff ff 	mov    %rax,-0x1c0(%rbp)
    f590:	48 c7 85 48 fe ff ff 	movq   $0x0,-0x1b8(%rbp)
    f597:	00 00 00 00 
    f59b:	48 8d 85 20 f8 ff ff 	lea    -0x7e0(%rbp),%rax
    f5a2:	48 89 85 50 fe ff ff 	mov    %rax,-0x1b0(%rbp)
    f5a9:	48 8d 85 20 f8 ff ff 	lea    -0x7e0(%rbp),%rax
    f5b0:	48 89 85 58 fe ff ff 	mov    %rax,-0x1a8(%rbp)
    f5b7:	48 c7 85 60 fe ff ff 	movq   $0x0,-0x1a0(%rbp)
    f5be:	00 00 00 00 
    f5c2:	48 8d 85 20 f8 ff ff 	lea    -0x7e0(%rbp),%rax
    f5c9:	48 89 85 68 fe ff ff 	mov    %rax,-0x198(%rbp)
    f5d0:	48 8d 85 20 f8 ff ff 	lea    -0x7e0(%rbp),%rax
    f5d7:	48 89 85 70 fe ff ff 	mov    %rax,-0x190(%rbp)
    f5de:	48 8d 85 20 f8 ff ff 	lea    -0x7e0(%rbp),%rax
    f5e5:	48 89 85 78 fe ff ff 	mov    %rax,-0x188(%rbp)
    f5ec:	48 8d 85 20 f8 ff ff 	lea    -0x7e0(%rbp),%rax
    f5f3:	48 89 85 80 fe ff ff 	mov    %rax,-0x180(%rbp)
    f5fa:	48 8d 85 20 f8 ff ff 	lea    -0x7e0(%rbp),%rax
    f601:	48 89 85 88 fe ff ff 	mov    %rax,-0x178(%rbp)
    f608:	48 8d 85 20 f8 ff ff 	lea    -0x7e0(%rbp),%rax
    f60f:	48 89 85 90 fe ff ff 	mov    %rax,-0x170(%rbp)
    f616:	48 8d 85 20 f8 ff ff 	lea    -0x7e0(%rbp),%rax
    f61d:	48 89 85 98 fe ff ff 	mov    %rax,-0x168(%rbp)
    f624:	48 8d 85 20 f8 ff ff 	lea    -0x7e0(%rbp),%rax
    f62b:	48 89 85 a0 fe ff ff 	mov    %rax,-0x160(%rbp)
    f632:	48 8d 85 20 f8 ff ff 	lea    -0x7e0(%rbp),%rax
    f639:	48 89 85 a8 fe ff ff 	mov    %rax,-0x158(%rbp)
    f640:	48 8d 85 20 f8 ff ff 	lea    -0x7e0(%rbp),%rax
    f647:	48 89 85 b0 fe ff ff 	mov    %rax,-0x150(%rbp)
    f64e:	48 8d 85 20 f8 ff ff 	lea    -0x7e0(%rbp),%rax
    f655:	48 89 85 b8 fe ff ff 	mov    %rax,-0x148(%rbp)
    f65c:	48 8d 85 20 f8 ff ff 	lea    -0x7e0(%rbp),%rax
    f663:	48 89 85 c0 fe ff ff 	mov    %rax,-0x140(%rbp)
    f66a:	48 8d 85 20 f8 ff ff 	lea    -0x7e0(%rbp),%rax
    f671:	48 89 85 c8 fe ff ff 	mov    %rax,-0x138(%rbp)
    f678:	48 c7 85 d0 fe ff ff 	movq   $0x0,-0x130(%rbp)
    f67f:	00 00 00 00 
    f683:	48 8d 85 20 f8 ff ff 	lea    -0x7e0(%rbp),%rax
    f68a:	48 89 85 d8 fe ff ff 	mov    %rax,-0x128(%rbp)
    f691:	48 8d 85 20 f8 ff ff 	lea    -0x7e0(%rbp),%rax
    f698:	48 89 85 e0 fe ff ff 	mov    %rax,-0x120(%rbp)
    f69f:	48 8d 85 20 f8 ff ff 	lea    -0x7e0(%rbp),%rax
    f6a6:	48 89 85 e8 fe ff ff 	mov    %rax,-0x118(%rbp)
    f6ad:	48 8d 85 20 f8 ff ff 	lea    -0x7e0(%rbp),%rax
    f6b4:	48 89 85 f0 fe ff ff 	mov    %rax,-0x110(%rbp)
    f6bb:	48 8d 85 20 f8 ff ff 	lea    -0x7e0(%rbp),%rax
    f6c2:	48 89 85 f8 fe ff ff 	mov    %rax,-0x108(%rbp)
    f6c9:	48 8d 85 20 f8 ff ff 	lea    -0x7e0(%rbp),%rax
    f6d0:	48 89 85 00 ff ff ff 	mov    %rax,-0x100(%rbp)
    f6d7:	48 c7 85 08 ff ff ff 	movq   $0x0,-0xf8(%rbp)
    f6de:	00 00 00 00 
    f6e2:	48 8d 85 20 f8 ff ff 	lea    -0x7e0(%rbp),%rax
    f6e9:	48 89 85 10 ff ff ff 	mov    %rax,-0xf0(%rbp)
    f6f0:	48 8d 85 20 f8 ff ff 	lea    -0x7e0(%rbp),%rax
    f6f7:	48 89 85 18 ff ff ff 	mov    %rax,-0xe8(%rbp)
    f6fe:	48 c7 85 20 ff ff ff 	movq   $0x0,-0xe0(%rbp)
    f705:	00 00 00 00 
    f709:	48 8d 85 20 f8 ff ff 	lea    -0x7e0(%rbp),%rax
    f710:	48 89 85 28 ff ff ff 	mov    %rax,-0xd8(%rbp)
    f717:	48 8d 85 20 f8 ff ff 	lea    -0x7e0(%rbp),%rax
    f71e:	48 89 85 30 ff ff ff 	mov    %rax,-0xd0(%rbp)
    f725:	48 c7 85 38 ff ff ff 	movq   $0x0,-0xc8(%rbp)
    f72c:	00 00 00 00 
    f730:	48 8d 85 20 f8 ff ff 	lea    -0x7e0(%rbp),%rax
    f737:	48 89 85 40 ff ff ff 	mov    %rax,-0xc0(%rbp)
    f73e:	48 8d 85 20 f8 ff ff 	lea    -0x7e0(%rbp),%rax
    f745:	48 89 85 48 ff ff ff 	mov    %rax,-0xb8(%rbp)
    f74c:	48 8d 85 20 f8 ff ff 	lea    -0x7e0(%rbp),%rax
    f753:	48 89 85 50 ff ff ff 	mov    %rax,-0xb0(%rbp)
    f75a:	48 8d 85 20 f8 ff ff 	lea    -0x7e0(%rbp),%rax
    f761:	48 89 85 58 ff ff ff 	mov    %rax,-0xa8(%rbp)
    f768:	48 8d 85 20 f8 ff ff 	lea    -0x7e0(%rbp),%rax
    f76f:	48 89 85 60 ff ff ff 	mov    %rax,-0xa0(%rbp)
    f776:	48 8d 85 20 f8 ff ff 	lea    -0x7e0(%rbp),%rax
    f77d:	48 89 85 68 ff ff ff 	mov    %rax,-0x98(%rbp)
    f784:	48 8d 85 20 f8 ff ff 	lea    -0x7e0(%rbp),%rax
    f78b:	48 89 85 70 ff ff ff 	mov    %rax,-0x90(%rbp)
    f792:	48 8d 85 20 f8 ff ff 	lea    -0x7e0(%rbp),%rax
    f799:	48 89 85 78 ff ff ff 	mov    %rax,-0x88(%rbp)
    f7a0:	48 8d 85 20 f8 ff ff 	lea    -0x7e0(%rbp),%rax
    f7a7:	48 89 45 80          	mov    %rax,-0x80(%rbp)
    f7ab:	48 8d 85 20 f8 ff ff 	lea    -0x7e0(%rbp),%rax
    f7b2:	48 89 45 88          	mov    %rax,-0x78(%rbp)
    f7b6:	48 8d 85 20 f8 ff ff 	lea    -0x7e0(%rbp),%rax
    f7bd:	48 89 45 90          	mov    %rax,-0x70(%rbp)
    f7c1:	48 8d 85 20 f8 ff ff 	lea    -0x7e0(%rbp),%rax
    f7c8:	48 89 45 98          	mov    %rax,-0x68(%rbp)
    f7cc:	48 8d 85 20 f8 ff ff 	lea    -0x7e0(%rbp),%rax
    f7d3:	48 89 45 a0          	mov    %rax,-0x60(%rbp)
    f7d7:	48 c7 45 a8 00 00 00 	movq   $0x0,-0x58(%rbp)
    f7de:	00 
    f7df:	48 8d 85 20 f8 ff ff 	lea    -0x7e0(%rbp),%rax
    f7e6:	48 89 45 b0          	mov    %rax,-0x50(%rbp)
    f7ea:	48 8d 85 20 f8 ff ff 	lea    -0x7e0(%rbp),%rax
    f7f1:	48 89 45 b8          	mov    %rax,-0x48(%rbp)
    f7f5:	48 8d 85 20 f8 ff ff 	lea    -0x7e0(%rbp),%rax
    f7fc:	48 89 45 c0          	mov    %rax,-0x40(%rbp)
    f800:	48 8d 85 20 f8 ff ff 	lea    -0x7e0(%rbp),%rax
    f807:	48 89 45 c8          	mov    %rax,-0x38(%rbp)
    f80b:	48 8d 85 20 f8 ff ff 	lea    -0x7e0(%rbp),%rax
    f812:	48 89 45 d0          	mov    %rax,-0x30(%rbp)
    f816:	48 8d 85 20 f8 ff ff 	lea    -0x7e0(%rbp),%rax
    f81d:	48 89 45 d8          	mov    %rax,-0x28(%rbp)
    f821:	48 c7 45 e0 00 00 00 	movq   $0x0,-0x20(%rbp)
    f828:	00 
    f829:	48 8d 85 20 f8 ff ff 	lea    -0x7e0(%rbp),%rax
    f830:	48 89 45 e8          	mov    %rax,-0x18(%rbp)
    f834:	48 8d 85 20 f8 ff ff 	lea    -0x7e0(%rbp),%rax
    f83b:	48 89 45 f0          	mov    %rax,-0x10(%rbp)
    f83f:	48 8d 85 70 fd ff ff 	lea    -0x290(%rbp),%rax
    f846:	48 83 c0 08          	add    $0x8,%rax
    f84a:	48 89 85 28 f8 ff ff 	mov    %rax,-0x7d8(%rbp)
    f851:	48 c7 85 00 f9 ff ff 	movq   $0x0,-0x700(%rbp)
    f858:	00 00 00 00 
    f85c:	48 c7 85 08 f9 ff ff 	movq   $0x0,-0x6f8(%rbp)
    f863:	00 00 00 00 
    f867:	48 c7 85 10 f9 ff ff 	movq   $0x0,-0x6f0(%rbp)
    f86e:	00 00 00 00 
    f872:	48 c7 85 18 f9 ff ff 	movq   $0x0,-0x6e8(%rbp)
    f879:	00 00 00 00 
    f87d:	48 8d 85 28 f8 ff ff 	lea    -0x7d8(%rbp),%rax
    f884:	48 89 85 20 f9 ff ff 	mov    %rax,-0x6e0(%rbp)
    f88b:	48 c7 85 28 f9 ff ff 	movq   $0x0,-0x6d8(%rbp)
    f892:	00 00 00 00 
    f896:	48 8d 05 cb bf 00 00 	lea    0xbfcb(%rip),%rax        # 1b868 <g_1295>
    f89d:	48 89 85 58 f8 ff ff 	mov    %rax,-0x7a8(%rbp)
    f8a4:	48 8d 85 30 f9 ff ff 	lea    -0x6d0(%rbp),%rax
    f8ab:	48 83 c0 08          	add    $0x8,%rax
    f8af:	48 89 85 60 f8 ff ff 	mov    %rax,-0x7a0(%rbp)
    f8b6:	48 8d 85 70 fd ff ff 	lea    -0x290(%rbp),%rax
    f8bd:	48 05 08 01 00 00    	add    $0x108,%rax
    f8c3:	48 89 85 30 f8 ff ff 	mov    %rax,-0x7d0(%rbp)
    f8ca:	48 8d 85 30 f8 ff ff 	lea    -0x7d0(%rbp),%rax
    f8d1:	48 89 85 68 f8 ff ff 	mov    %rax,-0x798(%rbp)
    f8d8:	c7 85 08 f8 ff ff fa 	movl   $0xfffffffa,-0x7f8(%rbp)
    f8df:	ff ff ff 
    f8e2:	48 8d 85 70 fb ff ff 	lea    -0x490(%rbp),%rax
    f8e9:	48 8d 15 f0 72 00 00 	lea    0x72f0(%rip),%rdx        # 16be0 <g_2652+0xb74>
    f8f0:	b9 3f 00 00 00       	mov    $0x3f,%ecx
    f8f5:	48 89 c7             	mov    %rax,%rdi
    f8f8:	48 89 d6             	mov    %rdx,%rsi
    f8fb:	f3 48 a5             	rep movsq %ds:(%rsi),%es:(%rdi)
    f8fe:	66 c7 85 e4 f7 ff ff 	movw   $0xffff,-0x81c(%rbp)
    f905:	ff ff 
    f907:	48 c7 85 70 f8 ff ff 	movq   $0x0,-0x790(%rbp)
    f90e:	00 00 00 00 
    f912:	66 c7 85 e6 f7 ff ff 	movw   $0x4d74,-0x81a(%rbp)
    f919:	74 4d 
    f91b:	c7 85 0c f8 ff ff 6e 	movl   $0x88ad966e,-0x7f4(%rbp)
    f922:	96 ad 88 
    f925:	c7 85 10 f8 ff ff 6a 	movl   $0x8ab09d6a,-0x7f0(%rbp)
    f92c:	9d b0 8a 
    f92f:	48 c7 85 78 f8 ff ff 	movq   $0x0,-0x788(%rbp)
    f936:	00 00 00 00 
    f93a:	c7 85 14 f8 ff ff 06 	movl   $0x6,-0x7ec(%rbp)
    f941:	00 00 00 
    f944:	48 8d 05 55 bd 00 00 	lea    0xbd55(%rip),%rax        # 1b6a0 <g_639>
    f94b:	48 89 85 80 f8 ff ff 	mov    %rax,-0x780(%rbp)
    f952:	c6 85 e0 f7 ff ff 04 	movb   $0x4,-0x820(%rbp)
    f959:	48 8d 05 80 f1 00 00 	lea    0xf180(%rip),%rax        # 1eae0 <g_1782>
    f960:	48 89 85 88 f8 ff ff 	mov    %rax,-0x778(%rbp)
    f967:	c6 85 e1 f7 ff ff cf 	movb   $0xcf,-0x81f(%rbp)
    f96e:	c7 85 e8 f7 ff ff 00 	movl   $0x0,-0x818(%rbp)
    f975:	00 00 00 
    f978:	eb 1e                	jmp    f998 <func_25+0x6bb>
    f97a:	8b 85 e8 f7 ff ff    	mov    -0x818(%rbp),%eax
    f980:	48 98                	cltq   
    f982:	48 8d 15 7f be 00 00 	lea    0xbe7f(%rip),%rdx        # 1b808 <g_1130>
    f989:	48 89 94 c5 b0 f8 ff 	mov    %rdx,-0x750(%rbp,%rax,8)
    f990:	ff 
    f991:	83 85 e8 f7 ff ff 01 	addl   $0x1,-0x818(%rbp)
    f998:	83 bd e8 f7 ff ff 02 	cmpl   $0x2,-0x818(%rbp)
    f99f:	7e d9                	jle    f97a <func_25+0x69d>
    f9a1:	c7 85 e8 f7 ff ff 00 	movl   $0x0,-0x818(%rbp)
    f9a8:	00 00 00 
    f9ab:	eb 1b                	jmp    f9c8 <func_25+0x6eb>
    f9ad:	8b 85 e8 f7 ff ff    	mov    -0x818(%rbp),%eax
    f9b3:	48 98                	cltq   
    f9b5:	48 c7 84 c5 30 f9 ff 	movq   $0x0,-0x6d0(%rbp,%rax,8)
    f9bc:	ff 00 00 00 00 
    f9c1:	83 85 e8 f7 ff ff 01 	addl   $0x1,-0x818(%rbp)
    f9c8:	83 bd e8 f7 ff ff 07 	cmpl   $0x7,-0x818(%rbp)
    f9cf:	7e dc                	jle    f9ad <func_25+0x6d0>
    f9d1:	c7 85 e8 f7 ff ff 00 	movl   $0x0,-0x818(%rbp)
    f9d8:	00 00 00 
    f9db:	eb 1a                	jmp    f9f7 <func_25+0x71a>
    f9dd:	8b 85 e8 f7 ff ff    	mov    -0x818(%rbp),%eax
    f9e3:	48 98                	cltq   
    f9e5:	c7 84 85 94 f8 ff ff 	movl   $0xbfbf4bcf,-0x76c(%rbp,%rax,4)
    f9ec:	cf 4b bf bf 
    f9f0:	83 85 e8 f7 ff ff 01 	addl   $0x1,-0x818(%rbp)
    f9f7:	83 bd e8 f7 ff ff 02 	cmpl   $0x2,-0x818(%rbp)
    f9fe:	7e dd                	jle    f9dd <func_25+0x700>
    fa00:	c7 85 e8 f7 ff ff 00 	movl   $0x0,-0x818(%rbp)
    fa07:	00 00 00 
    fa0a:	eb 19                	jmp    fa25 <func_25+0x748>
    fa0c:	8b 85 e8 f7 ff ff    	mov    -0x818(%rbp),%eax
    fa12:	48 98                	cltq   
    fa14:	66 c7 84 45 a2 f8 ff 	movw   $0x1d86,-0x75e(%rbp,%rax,2)
    fa1b:	ff 86 1d 
    fa1e:	83 85 e8 f7 ff ff 01 	addl   $0x1,-0x818(%rbp)
    fa25:	83 bd e8 f7 ff ff 06 	cmpl   $0x6,-0x818(%rbp)
    fa2c:	7e de                	jle    fa0c <func_25+0x72f>
    fa2e:	8b 85 cc f7 ff ff    	mov    -0x834(%rbp),%eax
    fa34:	48 8b 4d f8          	mov    -0x8(%rbp),%rcx
    fa38:	64 48 33 0c 25 28 00 	xor    %fs:0x28,%rcx
    fa3f:	00 00 
    fa41:	74 05                	je     fa48 <func_25+0x76b>
    fa43:	e8 28 96 ff ff       	callq  9070 <__stack_chk_fail@plt>
    fa48:	c9                   	leaveq 
    fa49:	c3                   	retq   

000000000000fa4a <func_31>:
    fa4a:	f3 0f 1e fa          	endbr64 
    fa4e:	55                   	push   %rbp
    fa4f:	48 89 e5             	mov    %rsp,%rbp
    fa52:	48 81 ec b0 03 00 00 	sub    $0x3b0,%rsp
    fa59:	89 f8                	mov    %edi,%eax
    fa5b:	89 b5 68 fc ff ff    	mov    %esi,-0x398(%rbp)
    fa61:	48 89 95 60 fc ff ff 	mov    %rdx,-0x3a0(%rbp)
    fa68:	48 89 8d 58 fc ff ff 	mov    %rcx,-0x3a8(%rbp)
    fa6f:	66 89 85 6c fc ff ff 	mov    %ax,-0x394(%rbp)
    fa76:	64 48 8b 04 25 28 00 	mov    %fs:0x28,%rax
    fa7d:	00 00 
    fa7f:	48 89 45 f8          	mov    %rax,-0x8(%rbp)
    fa83:	31 c0                	xor    %eax,%eax
    fa85:	48 8d 05 14 bc 00 00 	lea    0xbc14(%rip),%rax        # 1b6a0 <g_639>
    fa8c:	48 89 85 d8 fc ff ff 	mov    %rax,-0x328(%rbp)
    fa93:	c7 85 90 fc ff ff 02 	movl   $0x2,-0x370(%rbp)
    fa9a:	00 00 00 
    fa9d:	48 b8 8c a7 83 fb 4e 	movabs $0x68b464efb83a78c,%rax
    faa4:	46 8b 06 
    faa7:	48 89 85 e0 fc ff ff 	mov    %rax,-0x320(%rbp)
    faae:	48 8d 05 eb bb 00 00 	lea    0xbbeb(%rip),%rax        # 1b6a0 <g_639>
    fab5:	48 89 85 e8 fc ff ff 	mov    %rax,-0x318(%rbp)
    fabc:	c7 85 94 fc ff ff 8b 	movl   $0xe9b71e8b,-0x36c(%rbp)
    fac3:	1e b7 e9 
    fac6:	48 8d 05 d7 bb 00 00 	lea    0xbbd7(%rip),%rax        # 1b6a4 <g_654>
    facd:	48 89 85 f0 fc ff ff 	mov    %rax,-0x310(%rbp)
    fad4:	c7 85 98 fc ff ff 04 	movl   $0x4,-0x368(%rbp)
    fadb:	00 00 00 
    fade:	c7 85 9c fc ff ff f6 	movl   $0xfffffff6,-0x364(%rbp)
    fae5:	ff ff ff 
    fae8:	c7 85 40 fd ff ff 08 	movl   $0x8,-0x2c0(%rbp)
    faef:	00 00 00 
    faf2:	c7 85 44 fd ff ff 08 	movl   $0x8,-0x2bc(%rbp)
    faf9:	00 00 00 
    fafc:	c7 85 48 fd ff ff 08 	movl   $0x8,-0x2b8(%rbp)
    fb03:	00 00 00 
    fb06:	c7 85 4c fd ff ff 08 	movl   $0x8,-0x2b4(%rbp)
    fb0d:	00 00 00 
    fb10:	48 c7 85 c0 fc ff ff 	movq   $0xfffffffffffffff7,-0x340(%rbp)
    fb17:	f7 ff ff ff 
    fb1b:	48 c7 85 f8 fc ff ff 	movq   $0x0,-0x308(%rbp)
    fb22:	00 00 00 00 
    fb26:	c7 85 a0 fc ff ff fa 	movl   $0xed8400fa,-0x360(%rbp)
    fb2d:	00 84 ed 
    fb30:	48 8d 05 21 65 00 00 	lea    0x6521(%rip),%rax        # 16058 <g_563>
    fb37:	48 89 85 e0 fd ff ff 	mov    %rax,-0x220(%rbp)
    fb3e:	48 8d 05 33 b5 00 00 	lea    0xb533(%rip),%rax        # 1b078 <g_164>
    fb45:	48 89 85 e8 fd ff ff 	mov    %rax,-0x218(%rbp)
    fb4c:	48 8d 05 e5 b4 00 00 	lea    0xb4e5(%rip),%rax        # 1b038 <g_73>
    fb53:	48 89 85 f0 fd ff ff 	mov    %rax,-0x210(%rbp)
    fb5a:	48 8d 05 d7 b4 00 00 	lea    0xb4d7(%rip),%rax        # 1b038 <g_73>
    fb61:	48 89 85 f8 fd ff ff 	mov    %rax,-0x208(%rbp)
    fb68:	48 8d 05 c9 b4 00 00 	lea    0xb4c9(%rip),%rax        # 1b038 <g_73>
    fb6f:	48 89 85 00 fe ff ff 	mov    %rax,-0x200(%rbp)
    fb76:	48 8d 05 fb b4 00 00 	lea    0xb4fb(%rip),%rax        # 1b078 <g_164>
    fb7d:	48 89 85 08 fe ff ff 	mov    %rax,-0x1f8(%rbp)
    fb84:	48 8d 05 cd 64 00 00 	lea    0x64cd(%rip),%rax        # 16058 <g_563>
    fb8b:	48 89 85 10 fe ff ff 	mov    %rax,-0x1f0(%rbp)
    fb92:	48 8d 05 af b4 00 00 	lea    0xb4af(%rip),%rax        # 1b048 <g_81>
    fb99:	48 89 85 18 fe ff ff 	mov    %rax,-0x1e8(%rbp)
    fba0:	48 8d 05 d1 b4 00 00 	lea    0xb4d1(%rip),%rax        # 1b078 <g_164>
    fba7:	48 89 85 20 fe ff ff 	mov    %rax,-0x1e0(%rbp)
    fbae:	48 8d 05 93 b4 00 00 	lea    0xb493(%rip),%rax        # 1b048 <g_81>
    fbb5:	48 89 85 28 fe ff ff 	mov    %rax,-0x1d8(%rbp)
    fbbc:	48 8d 85 e0 fd ff ff 	lea    -0x220(%rbp),%rax
    fbc3:	48 83 c0 30          	add    $0x30,%rax
    fbc7:	48 89 85 00 fd ff ff 	mov    %rax,-0x300(%rbp)
    fbce:	c7 85 7c fc ff ff 00 	movl   $0x0,-0x384(%rbp)
    fbd5:	00 00 00 
    fbd8:	eb 6e                	jmp    fc48 <func_31+0x1fe>
    fbda:	c7 85 80 fc ff ff 00 	movl   $0x0,-0x380(%rbp)
    fbe1:	00 00 00 
    fbe4:	eb 52                	jmp    fc38 <func_31+0x1ee>
    fbe6:	c7 85 84 fc ff ff 00 	movl   $0x0,-0x37c(%rbp)
    fbed:	00 00 00 
    fbf0:	eb 36                	jmp    fc28 <func_31+0x1de>
    fbf2:	8b 85 84 fc ff ff    	mov    -0x37c(%rbp),%eax
    fbf8:	48 63 d0             	movslq %eax,%rdx
    fbfb:	8b 85 80 fc ff ff    	mov    -0x380(%rbp),%eax
    fc01:	48 98                	cltq   
    fc03:	8b 8d 7c fc ff ff    	mov    -0x384(%rbp),%ecx
    fc09:	48 63 c9             	movslq %ecx,%rcx
    fc0c:	48 01 c9             	add    %rcx,%rcx
    fc0f:	48 01 ca             	add    %rcx,%rdx
    fc12:	48 01 d0             	add    %rdx,%rax
    fc15:	48 c7 84 c5 50 fd ff 	movq   $0x0,-0x2b0(%rbp,%rax,8)
    fc1c:	ff 00 00 00 00 
    fc21:	83 85 84 fc ff ff 01 	addl   $0x1,-0x37c(%rbp)
    fc28:	83 bd 84 fc ff ff 00 	cmpl   $0x0,-0x37c(%rbp)
    fc2f:	7e c1                	jle    fbf2 <func_31+0x1a8>
    fc31:	83 85 80 fc ff ff 01 	addl   $0x1,-0x380(%rbp)
    fc38:	83 bd 80 fc ff ff 01 	cmpl   $0x1,-0x380(%rbp)
    fc3f:	7e a5                	jle    fbe6 <func_31+0x19c>
    fc41:	83 85 7c fc ff ff 01 	addl   $0x1,-0x384(%rbp)
    fc48:	83 bd 7c fc ff ff 00 	cmpl   $0x0,-0x384(%rbp)
    fc4f:	7e 89                	jle    fbda <func_31+0x190>
    fc51:	48 8d 05 d0 b4 00 00 	lea    0xb4d0(%rip),%rax        # 1b128 <g_376>
    fc58:	48 89 85 d8 fc ff ff 	mov    %rax,-0x328(%rbp)
    fc5f:	66 c7 85 6c fc ff ff 	movw   $0x0,-0x394(%rbp)
    fc66:	00 00 
    fc68:	e9 e7 01 00 00       	jmpq   fe54 <func_31+0x40a>
    fc6d:	48 8d 05 14 e5 00 00 	lea    0xe514(%rip),%rax        # 1e188 <g_424>
    fc74:	48 89 85 c8 fc ff ff 	mov    %rax,-0x338(%rbp)
    fc7b:	48 8d 05 22 ba 00 00 	lea    0xba22(%rip),%rax        # 1b6a4 <g_654>
    fc82:	48 89 85 18 fd ff ff 	mov    %rax,-0x2e8(%rbp)
    fc89:	48 8d 05 b4 b7 00 00 	lea    0xb7b4(%rip),%rax        # 1b444 <g_413>
    fc90:	48 89 85 b0 fd ff ff 	mov    %rax,-0x250(%rbp)
    fc97:	48 8d 05 a6 b7 00 00 	lea    0xb7a6(%rip),%rax        # 1b444 <g_413>
    fc9e:	48 89 85 b8 fd ff ff 	mov    %rax,-0x248(%rbp)
    fca5:	48 8d 05 98 b7 00 00 	lea    0xb798(%rip),%rax        # 1b444 <g_413>
    fcac:	48 89 85 c0 fd ff ff 	mov    %rax,-0x240(%rbp)
    fcb3:	48 8d 05 8a b7 00 00 	lea    0xb78a(%rip),%rax        # 1b444 <g_413>
    fcba:	48 89 85 c8 fd ff ff 	mov    %rax,-0x238(%rbp)
    fcc1:	48 8d 05 7c b7 00 00 	lea    0xb77c(%rip),%rax        # 1b444 <g_413>
    fcc8:	48 89 85 d0 fd ff ff 	mov    %rax,-0x230(%rbp)
    fccf:	c7 85 a8 fc ff ff 02 	movl   $0x4c95d802,-0x358(%rbp)
    fcd6:	d8 95 4c 
    fcd9:	48 c7 85 d0 fc ff ff 	movq   $0x0,-0x330(%rbp)
    fce0:	00 00 00 00 
    fce4:	48 8d 85 d0 fc ff ff 	lea    -0x330(%rbp),%rax
    fceb:	48 89 85 20 fd ff ff 	mov    %rax,-0x2e0(%rbp)
    fcf2:	48 c7 85 28 fd ff ff 	movq   $0x0,-0x2d8(%rbp)
    fcf9:	00 00 00 00 
    fcfd:	c7 85 ac fc ff ff 08 	movl   $0x8,-0x354(%rbp)
    fd04:	00 00 00 
    fd07:	c7 85 b0 fc ff ff 30 	movl   $0x28bfe230,-0x350(%rbp)
    fd0e:	e2 bf 28 
    fd11:	c7 85 b4 fc ff ff f7 	movl   $0xfffffff7,-0x34c(%rbp)
    fd18:	ff ff ff 
    fd1b:	48 c7 85 30 fd ff ff 	movq   $0x0,-0x2d0(%rbp)
    fd22:	00 00 00 00 
    fd26:	48 c7 85 38 fd ff ff 	movq   $0x0,-0x2c8(%rbp)
    fd2d:	00 00 00 00 
    fd31:	66 c7 85 7a fc ff ff 	movw   $0xffff,-0x386(%rbp)
    fd38:	ff ff 
    fd3a:	c7 85 b8 fc ff ff 04 	movl   $0x4,-0x348(%rbp)
    fd41:	00 00 00 
    fd44:	c7 85 bc fc ff ff 50 	movl   $0xa81ddb50,-0x344(%rbp)
    fd4b:	db 1d a8 
    fd4e:	c7 85 80 fd ff ff f6 	movl   $0xfffffff6,-0x280(%rbp)
    fd55:	ff ff ff 
    fd58:	c7 85 84 fd ff ff f6 	movl   $0xfffffff6,-0x27c(%rbp)
    fd5f:	ff ff ff 
    fd62:	c7 85 88 fd ff ff f6 	movl   $0xfffffff6,-0x278(%rbp)
    fd69:	ff ff ff 
    fd6c:	c7 85 8c fd ff ff f6 	movl   $0xfffffff6,-0x274(%rbp)
    fd73:	ff ff ff 
    fd76:	c7 85 90 fd ff ff f6 	movl   $0xfffffff6,-0x270(%rbp)
    fd7d:	ff ff ff 
    fd80:	c7 85 94 fd ff ff f6 	movl   $0xfffffff6,-0x26c(%rbp)
    fd87:	ff ff ff 
    fd8a:	c7 85 98 fd ff ff f6 	movl   $0xfffffff6,-0x268(%rbp)
    fd91:	ff ff ff 
    fd94:	c7 85 9c fd ff ff f6 	movl   $0xfffffff6,-0x264(%rbp)
    fd9b:	ff ff ff 
    fd9e:	c7 85 a0 fd ff ff f6 	movl   $0xfffffff6,-0x260(%rbp)
    fda5:	ff ff ff 
    fda8:	c7 85 88 fc ff ff 00 	movl   $0x0,-0x378(%rbp)
    fdaf:	00 00 00 
    fdb2:	eb 1e                	jmp    fdd2 <func_31+0x388>
    fdb4:	8b 85 88 fc ff ff    	mov    -0x378(%rbp),%eax
    fdba:	48 98                	cltq   
    fdbc:	48 8d 95 c8 fc ff ff 	lea    -0x338(%rbp),%rdx
    fdc3:	48 89 94 c5 60 fd ff 	mov    %rdx,-0x2a0(%rbp,%rax,8)
    fdca:	ff 
    fdcb:	83 85 88 fc ff ff 01 	addl   $0x1,-0x378(%rbp)
    fdd2:	83 bd 88 fc ff ff 03 	cmpl   $0x3,-0x378(%rbp)
    fdd9:	7e d9                	jle    fdb4 <func_31+0x36a>
    fddb:	c7 85 88 fc ff ff 00 	movl   $0x0,-0x378(%rbp)
    fde2:	00 00 00 
    fde5:	eb 53                	jmp    fe3a <func_31+0x3f0>
    fde7:	c7 85 8c fc ff ff 00 	movl   $0x0,-0x374(%rbp)
    fdee:	00 00 00 
    fdf1:	eb 37                	jmp    fe2a <func_31+0x3e0>
    fdf3:	8b 85 8c fc ff ff    	mov    -0x374(%rbp),%eax
    fdf9:	48 63 c8             	movslq %eax,%rcx
    fdfc:	8b 85 88 fc ff ff    	mov    -0x378(%rbp),%eax
    fe02:	48 63 d0             	movslq %eax,%rdx
    fe05:	48 89 d0             	mov    %rdx,%rax
    fe08:	48 01 c0             	add    %rax,%rax
    fe0b:	48 01 d0             	add    %rdx,%rax
    fe0e:	48 01 c0             	add    %rax,%rax
    fe11:	48 01 c8             	add    %rcx,%rax
    fe14:	48 8d 15 75 e3 00 00 	lea    0xe375(%rip),%rdx        # 1e190 <g_624>
    fe1b:	48 89 94 c5 30 fe ff 	mov    %rdx,-0x1d0(%rbp,%rax,8)
    fe22:	ff 
    fe23:	83 85 8c fc ff ff 01 	addl   $0x1,-0x374(%rbp)
    fe2a:	83 bd 8c fc ff ff 05 	cmpl   $0x5,-0x374(%rbp)
    fe31:	7e c0                	jle    fdf3 <func_31+0x3a9>
    fe33:	83 85 88 fc ff ff 01 	addl   $0x1,-0x378(%rbp)
    fe3a:	83 bd 88 fc ff ff 00 	cmpl   $0x0,-0x378(%rbp)
    fe41:	7e a4                	jle    fde7 <func_31+0x39d>
    fe43:	0f b7 85 6c fc ff ff 	movzwl -0x394(%rbp),%eax
    fe4a:	83 c0 01             	add    $0x1,%eax
    fe4d:	66 89 85 6c fc ff ff 	mov    %ax,-0x394(%rbp)
    fe54:	66 83 bd 6c fc ff ff 	cmpw   $0x3,-0x394(%rbp)
    fe5b:	03 
    fe5c:	0f 8e 0b fe ff ff    	jle    fc6d <func_31+0x223>
    fe62:	83 bd a0 fc ff ff 00 	cmpl   $0x0,-0x360(%rbp)
    fe69:	74 6a                	je     fed5 <func_31+0x48b>
    fe6b:	48 8d 05 d6 d9 00 00 	lea    0xd9d6(%rip),%rax        # 1d848 <g_153>
    fe72:	48 89 85 d0 fc ff ff 	mov    %rax,-0x330(%rbp)
    fe79:	48 8d 85 d0 fc ff ff 	lea    -0x330(%rbp),%rax
    fe80:	48 89 85 10 fd ff ff 	mov    %rax,-0x2f0(%rbp)
    fe87:	c7 85 a4 fc ff ff fa 	movl   $0xfffffffa,-0x35c(%rbp)
    fe8e:	ff ff ff 
    fe91:	48 8b 15 18 e3 00 00 	mov    0xe318(%rip),%rdx        # 1e1b0 <g_716>
    fe98:	48 8b 05 69 e3 00 00 	mov    0xe369(%rip),%rax        # 1e208 <g_962>
    fe9f:	48 8b 12             	mov    (%rdx),%rdx
    fea2:	48 89 10             	mov    %rdx,(%rax)
    fea5:	48 8b 95 d0 fc ff ff 	mov    -0x330(%rbp),%rdx
    feac:	48 8b 85 10 fd ff ff 	mov    -0x2f0(%rbp),%rax
    feb3:	48 89 10             	mov    %rdx,(%rax)
    feb6:	48 8b 05 5b e3 00 00 	mov    0xe35b(%rip),%rax        # 1e218 <g_965>
    febd:	48 8b 95 10 fd ff ff 	mov    -0x2f0(%rbp),%rdx
    fec4:	48 8b 12             	mov    (%rdx),%rdx
    fec7:	48 89 10             	mov    %rdx,(%rax)
    feca:	8b 85 a4 fc ff ff    	mov    -0x35c(%rbp),%eax
    fed0:	e9 a2 00 00 00       	jmpq   ff77 <func_31+0x52d>
    fed5:	48 8d 85 30 fe ff ff 	lea    -0x1d0(%rbp),%rax
    fedc:	48 8d 15 bd c6 00 00 	lea    0xc6bd(%rip),%rdx        # 1c5a0 <g_3673+0x800>
    fee3:	b9 38 00 00 00       	mov    $0x38,%ecx
    fee8:	48 89 c7             	mov    %rax,%rdi
    feeb:	48 89 d6             	mov    %rdx,%rsi
    feee:	f3 48 a5             	rep movsq %ds:(%rsi),%es:(%rdi)
    fef1:	48 c7 85 d8 fc ff ff 	movq   $0x0,-0x328(%rbp)
    fef8:	00 00 00 00 
    fefc:	c6 05 4d b1 00 00 13 	movb   $0x13,0xb14d(%rip)        # 1b050 <g_91>
    ff03:	eb 61                	jmp    ff66 <func_31+0x51c>
    ff05:	48 8d 85 40 fd ff ff 	lea    -0x2c0(%rbp),%rax
    ff0c:	48 83 c0 0c          	add    $0xc,%rax
    ff10:	48 89 85 08 fd ff ff 	mov    %rax,-0x2f8(%rbp)
    ff17:	48 8b 85 08 fd ff ff 	mov    -0x2f8(%rbp),%rax
    ff1e:	8b 10                	mov    (%rax),%edx
    ff20:	48 8b 45 80          	mov    -0x80(%rbp),%rax
    ff24:	48 39 85 00 fd ff ff 	cmp    %rax,-0x300(%rbp)
    ff2b:	0f 95 c0             	setne  %al
    ff2e:	0f b6 c0             	movzbl %al,%eax
    ff31:	21 c2                	and    %eax,%edx
    ff33:	48 8b 85 08 fd ff ff 	mov    -0x2f8(%rbp),%rax
    ff3a:	89 10                	mov    %edx,(%rax)
    ff3c:	48 8b 85 50 fd ff ff 	mov    -0x2b0(%rbp),%rax
    ff43:	48 89 05 de e2 00 00 	mov    %rax,0xe2de(%rip)        # 1e228 <g_975>
    ff4a:	0f b6 05 ff b0 00 00 	movzbl 0xb0ff(%rip),%eax        # 1b050 <g_91>
    ff51:	0f b6 c0             	movzbl %al,%eax
    ff54:	be 06 00 00 00       	mov    $0x6,%esi
    ff59:	89 c7                	mov    %eax,%edi
    ff5b:	e8 58 9f ff ff       	callq  9eb8 <safe_add_func_uint32_t_u_u>
    ff60:	88 05 ea b0 00 00    	mov    %al,0xb0ea(%rip)        # 1b050 <g_91>
    ff66:	0f b6 05 e3 b0 00 00 	movzbl 0xb0e3(%rip),%eax        # 1b050 <g_91>
    ff6d:	3c 1c                	cmp    $0x1c,%al
    ff6f:	77 94                	ja     ff05 <func_31+0x4bb>
    ff71:	8b 85 a0 fc ff ff    	mov    -0x360(%rbp),%eax
    ff77:	48 8b 75 f8          	mov    -0x8(%rbp),%rsi
    ff7b:	64 48 33 34 25 28 00 	xor    %fs:0x28,%rsi
    ff82:	00 00 
    ff84:	74 05                	je     ff8b <func_31+0x541>
    ff86:	e8 e5 90 ff ff       	callq  9070 <__stack_chk_fail@plt>
    ff8b:	c9                   	leaveq 
    ff8c:	c3                   	retq   

000000000000ff8d <func_36>:
    ff8d:	f3 0f 1e fa          	endbr64 
    ff91:	55                   	push   %rbp
    ff92:	48 89 e5             	mov    %rsp,%rbp
    ff95:	53                   	push   %rbx
    ff96:	48 83 ec 40          	sub    $0x40,%rsp
    ff9a:	89 7d d4             	mov    %edi,-0x2c(%rbp)
    ff9d:	89 f0                	mov    %esi,%eax
    ff9f:	48 89 55 c8          	mov    %rdx,-0x38(%rbp)
    ffa3:	48 89 4d c0          	mov    %rcx,-0x40(%rbp)
    ffa7:	4c 89 45 b8          	mov    %r8,-0x48(%rbp)
    ffab:	88 45 d0             	mov    %al,-0x30(%rbp)
    ffae:	48 b8 e2 df 71 4d 84 	movabs $0xd8920a844d71dfe2,%rax
    ffb5:	0a 92 d8 
    ffb8:	48 89 45 d8          	mov    %rax,-0x28(%rbp)
    ffbc:	48 8d 05 8d f4 00 00 	lea    0xf48d(%rip),%rax        # 1f450 <g_120>
    ffc3:	48 89 45 e0          	mov    %rax,-0x20(%rbp)
    ffc7:	48 c7 45 e8 00 00 00 	movq   $0x0,-0x18(%rbp)
    ffce:	00 
    ffcf:	48 8d 05 52 b0 00 00 	lea    0xb052(%rip),%rax        # 1b028 <g_59>
    ffd6:	48 89 45 f0          	mov    %rax,-0x10(%rbp)
    ffda:	8b 45 d4             	mov    -0x2c(%rbp),%eax
    ffdd:	89 c2                	mov    %eax,%edx
    ffdf:	48 8b 45 d8          	mov    -0x28(%rbp),%rax
    ffe3:	31 d0                	xor    %edx,%eax
    ffe5:	0f be c0             	movsbl %al,%eax
    ffe8:	be 03 00 00 00       	mov    $0x3,%esi
    ffed:	89 c7                	mov    %eax,%edi
    ffef:	e8 fa 92 ff ff       	callq  92ee <safe_lshift_func_int8_t_s_u>
    fff4:	48 0f be c0          	movsbq %al,%rax
    fff8:	83 e0 01             	and    $0x1,%eax
    fffb:	48 89 c3             	mov    %rax,%rbx
    fffe:	48 83 7d e8 00       	cmpq   $0x0,-0x18(%rbp)
   10003:	0f 95 c0             	setne  %al
   10006:	0f b6 c0             	movzbl %al,%eax
   10009:	48 8b 55 d8          	mov    -0x28(%rbp),%rdx
   1000d:	89 c6                	mov    %eax,%esi
   1000f:	89 d7                	mov    %edx,%edi
   10011:	e8 ef 95 ff ff       	callq  9605 <safe_sub_func_int32_t_s_s>
   10016:	48 98                	cltq   
   10018:	48 89 de             	mov    %rbx,%rsi
   1001b:	48 89 c7             	mov    %rax,%rdi
   1001e:	e8 28 a0 ff ff       	callq  a04b <safe_sub_func_uint64_t_u_u>
   10023:	48 8b 55 f0          	mov    -0x10(%rbp),%rdx
   10027:	8b 12                	mov    (%rdx),%edx
   10029:	31 d0                	xor    %edx,%eax
   1002b:	89 c2                	mov    %eax,%edx
   1002d:	48 8b 45 f0          	mov    -0x10(%rbp),%rax
   10031:	89 10                	mov    %edx,(%rax)
   10033:	48 8b 45 f0          	mov    -0x10(%rbp),%rax
   10037:	8b 55 d4             	mov    -0x2c(%rbp),%edx
   1003a:	89 10                	mov    %edx,(%rax)
   1003c:	48 8b 05 dd e0 00 00 	mov    0xe0dd(%rip),%rax        # 1e120 <g_329>
   10043:	48 8b 00             	mov    (%rax),%rax
   10046:	48 83 c4 40          	add    $0x40,%rsp
   1004a:	5b                   	pop    %rbx
   1004b:	5d                   	pop    %rbp
   1004c:	c3                   	retq   

000000000001004d <func_42>:
   1004d:	f3 0f 1e fa          	endbr64 
   10051:	55                   	push   %rbp
   10052:	48 89 e5             	mov    %rsp,%rbp
   10055:	41 57                	push   %r15
   10057:	41 56                	push   %r14
   10059:	41 55                	push   %r13
   1005b:	41 54                	push   %r12
   1005d:	53                   	push   %rbx
   1005e:	48 81 ec 00 10 00 00 	sub    $0x1000,%rsp
   10065:	48 83 0c 24 00       	orq    $0x0,(%rsp)
   1006a:	48 81 ec 98 0a 00 00 	sub    $0xa98,%rsp
   10071:	89 bd 5c e5 ff ff    	mov    %edi,-0x1aa4(%rbp)
   10077:	89 b5 58 e5 ff ff    	mov    %esi,-0x1aa8(%rbp)
   1007d:	89 95 54 e5 ff ff    	mov    %edx,-0x1aac(%rbp)
   10083:	89 8d 50 e5 ff ff    	mov    %ecx,-0x1ab0(%rbp)
   10089:	44 89 85 4c e5 ff ff 	mov    %r8d,-0x1ab4(%rbp)
   10090:	64 48 8b 04 25 28 00 	mov    %fs:0x28,%rax
   10097:	00 00 
   10099:	48 89 45 c8          	mov    %rax,-0x38(%rbp)
   1009d:	31 c0                	xor    %eax,%eax
   1009f:	48 8d 05 7e af 00 00 	lea    0xaf7e(%rip),%rax        # 1b024 <g_17>
   100a6:	48 89 85 30 e6 ff ff 	mov    %rax,-0x19d0(%rbp)
   100ad:	48 8d 05 74 af 00 00 	lea    0xaf74(%rip),%rax        # 1b028 <g_59>
   100b4:	48 89 85 30 ea ff ff 	mov    %rax,-0x15d0(%rbp)
   100bb:	48 8d 05 66 af 00 00 	lea    0xaf66(%rip),%rax        # 1b028 <g_59>
   100c2:	48 89 85 38 ea ff ff 	mov    %rax,-0x15c8(%rbp)
   100c9:	48 8d 05 58 af 00 00 	lea    0xaf58(%rip),%rax        # 1b028 <g_59>
   100d0:	48 89 85 40 ea ff ff 	mov    %rax,-0x15c0(%rbp)
   100d7:	48 8d 05 4a af 00 00 	lea    0xaf4a(%rip),%rax        # 1b028 <g_59>
   100de:	48 89 85 48 ea ff ff 	mov    %rax,-0x15b8(%rbp)
   100e5:	48 8d 05 3c af 00 00 	lea    0xaf3c(%rip),%rax        # 1b028 <g_59>
   100ec:	48 89 85 50 ea ff ff 	mov    %rax,-0x15b0(%rbp)
   100f3:	48 8d 05 2e af 00 00 	lea    0xaf2e(%rip),%rax        # 1b028 <g_59>
   100fa:	48 89 85 58 ea ff ff 	mov    %rax,-0x15a8(%rbp)
   10101:	48 8d 05 20 af 00 00 	lea    0xaf20(%rip),%rax        # 1b028 <g_59>
   10108:	48 89 85 60 ea ff ff 	mov    %rax,-0x15a0(%rbp)
   1010f:	48 8d 05 12 af 00 00 	lea    0xaf12(%rip),%rax        # 1b028 <g_59>
   10116:	48 89 85 68 ea ff ff 	mov    %rax,-0x1598(%rbp)
   1011d:	48 8d 05 04 af 00 00 	lea    0xaf04(%rip),%rax        # 1b028 <g_59>
   10124:	48 89 85 70 ea ff ff 	mov    %rax,-0x1590(%rbp)
   1012b:	48 8d 05 f6 ae 00 00 	lea    0xaef6(%rip),%rax        # 1b028 <g_59>
   10132:	48 89 85 78 ea ff ff 	mov    %rax,-0x1588(%rbp)
   10139:	48 8d 05 e8 ae 00 00 	lea    0xaee8(%rip),%rax        # 1b028 <g_59>
   10140:	48 89 85 80 ea ff ff 	mov    %rax,-0x1580(%rbp)
   10147:	48 8d 05 da ae 00 00 	lea    0xaeda(%rip),%rax        # 1b028 <g_59>
   1014e:	48 89 85 88 ea ff ff 	mov    %rax,-0x1578(%rbp)
   10155:	48 8d 05 cc ae 00 00 	lea    0xaecc(%rip),%rax        # 1b028 <g_59>
   1015c:	48 89 85 90 ea ff ff 	mov    %rax,-0x1570(%rbp)
   10163:	48 8d 05 be ae 00 00 	lea    0xaebe(%rip),%rax        # 1b028 <g_59>
   1016a:	48 89 85 98 ea ff ff 	mov    %rax,-0x1568(%rbp)
   10171:	48 8d 05 b0 ae 00 00 	lea    0xaeb0(%rip),%rax        # 1b028 <g_59>
   10178:	48 89 85 a0 ea ff ff 	mov    %rax,-0x1560(%rbp)
   1017f:	48 8d 05 a2 ae 00 00 	lea    0xaea2(%rip),%rax        # 1b028 <g_59>
   10186:	48 89 85 a8 ea ff ff 	mov    %rax,-0x1558(%rbp)
   1018d:	48 8d 85 90 f0 ff ff 	lea    -0xf70(%rbp),%rax
   10194:	48 8d 15 c5 c5 00 00 	lea    0xc5c5(%rip),%rdx        # 1c760 <g_3673+0x9c0>
   1019b:	b9 5a 00 00 00       	mov    $0x5a,%ecx
   101a0:	48 89 c7             	mov    %rax,%rdi
   101a3:	48 89 d6             	mov    %rdx,%rsi
   101a6:	f3 48 a5             	rep movsq %ds:(%rsi),%es:(%rdi)
   101a9:	48 8d 05 88 ae 00 00 	lea    0xae88(%rip),%rax        # 1b038 <g_73>
   101b0:	48 89 85 38 e6 ff ff 	mov    %rax,-0x19c8(%rbp)
   101b7:	48 8d 85 38 e6 ff ff 	lea    -0x19c8(%rbp),%rax
   101be:	48 89 85 40 e6 ff ff 	mov    %rax,-0x19c0(%rbp)
   101c5:	48 c7 85 48 e6 ff ff 	movq   $0x5,-0x19b8(%rbp)
   101cc:	05 00 00 00 
   101d0:	48 8d 05 89 f2 00 00 	lea    0xf289(%rip),%rax        # 1f460 <g_224>
   101d7:	48 89 85 50 e6 ff ff 	mov    %rax,-0x19b0(%rbp)
   101de:	c7 85 74 e5 ff ff e6 	movl   $0x9ee9ffe6,-0x1a8c(%rbp)
   101e5:	ff e9 9e 
   101e8:	48 8d 85 70 eb ff ff 	lea    -0x1490(%rbp),%rax
   101ef:	48 8d 15 4a c8 00 00 	lea    0xc84a(%rip),%rdx        # 1ca40 <g_3673+0xca0>
   101f6:	b9 24 00 00 00       	mov    $0x24,%ecx
   101fb:	48 89 c7             	mov    %rax,%rdi
   101fe:	48 89 d6             	mov    %rdx,%rsi
   10201:	f3 48 a5             	rep movsq %ds:(%rsi),%es:(%rdi)
   10204:	48 8d 85 70 eb ff ff 	lea    -0x1490(%rbp),%rax
   1020b:	48 05 98 00 00 00    	add    $0x98,%rax
   10211:	48 89 85 e8 e6 ff ff 	mov    %rax,-0x1918(%rbp)
   10218:	48 8d 05 59 ae 00 00 	lea    0xae59(%rip),%rax        # 1b078 <g_164>
   1021f:	48 89 85 58 e6 ff ff 	mov    %rax,-0x19a8(%rbp)
   10226:	48 8d 05 f3 d5 00 00 	lea    0xd5f3(%rip),%rax        # 1d820 <g_112>
   1022d:	48 89 85 d8 e6 ff ff 	mov    %rax,-0x1928(%rbp)
   10234:	c7 85 88 e5 ff ff 04 	movl   $0x4,-0x1a78(%rbp)
   1023b:	00 00 00 
   1023e:	48 8d 05 fb ad 00 00 	lea    0xadfb(%rip),%rax        # 1b040 <g_76>
   10245:	48 89 85 60 e6 ff ff 	mov    %rax,-0x19a0(%rbp)
   1024c:	48 8d 85 60 e6 ff ff 	lea    -0x19a0(%rbp),%rax
   10253:	48 89 85 e0 e6 ff ff 	mov    %rax,-0x1920(%rbp)
   1025a:	c7 85 8c e5 ff ff fd 	movl   $0x4de5cfd,-0x1a74(%rbp)
   10261:	5c de 04 
   10264:	48 8d 85 60 f3 ff ff 	lea    -0xca0(%rbp),%rax
   1026b:	48 8d 15 ee c8 00 00 	lea    0xc8ee(%rip),%rdx        # 1cb60 <g_3673+0xdc0>
   10272:	b9 6c 00 00 00       	mov    $0x6c,%ecx
   10277:	48 89 c7             	mov    %rax,%rdi
   1027a:	48 89 d6             	mov    %rdx,%rsi
   1027d:	f3 48 a5             	rep movsq %ds:(%rsi),%es:(%rdi)
   10280:	48 8d 85 60 f3 ff ff 	lea    -0xca0(%rbp),%rax
   10287:	48 05 30 03 00 00    	add    $0x330,%rax
   1028d:	48 89 85 90 ec ff ff 	mov    %rax,-0x1370(%rbp)
   10294:	48 8d 85 60 f3 ff ff 	lea    -0xca0(%rbp),%rax
   1029b:	48 05 30 03 00 00    	add    $0x330,%rax
   102a1:	48 89 85 98 ec ff ff 	mov    %rax,-0x1368(%rbp)
   102a8:	48 8d 85 60 f3 ff ff 	lea    -0xca0(%rbp),%rax
   102af:	48 05 30 03 00 00    	add    $0x330,%rax
   102b5:	48 89 85 a0 ec ff ff 	mov    %rax,-0x1360(%rbp)
   102bc:	48 8d 85 60 f3 ff ff 	lea    -0xca0(%rbp),%rax
   102c3:	48 05 30 03 00 00    	add    $0x330,%rax
   102c9:	48 89 85 a8 ec ff ff 	mov    %rax,-0x1358(%rbp)
   102d0:	48 8d 85 60 f3 ff ff 	lea    -0xca0(%rbp),%rax
   102d7:	48 05 30 03 00 00    	add    $0x330,%rax
   102dd:	48 89 85 b0 ec ff ff 	mov    %rax,-0x1350(%rbp)
   102e4:	48 8d 85 60 f3 ff ff 	lea    -0xca0(%rbp),%rax
   102eb:	48 05 30 03 00 00    	add    $0x330,%rax
   102f1:	48 89 85 b8 ec ff ff 	mov    %rax,-0x1348(%rbp)
   102f8:	48 8d 85 60 f3 ff ff 	lea    -0xca0(%rbp),%rax
   102ff:	48 05 30 03 00 00    	add    $0x330,%rax
   10305:	48 89 85 c0 ec ff ff 	mov    %rax,-0x1340(%rbp)
   1030c:	48 8d 85 60 f3 ff ff 	lea    -0xca0(%rbp),%rax
   10313:	48 05 30 03 00 00    	add    $0x330,%rax
   10319:	48 89 85 c8 ec ff ff 	mov    %rax,-0x1338(%rbp)
   10320:	48 8d 85 60 f3 ff ff 	lea    -0xca0(%rbp),%rax
   10327:	48 05 50 02 00 00    	add    $0x250,%rax
   1032d:	48 89 85 d0 ec ff ff 	mov    %rax,-0x1330(%rbp)
   10334:	48 8d 85 60 f3 ff ff 	lea    -0xca0(%rbp),%rax
   1033b:	48 05 30 03 00 00    	add    $0x330,%rax
   10341:	48 89 85 d8 ec ff ff 	mov    %rax,-0x1328(%rbp)
   10348:	48 8d 85 60 f3 ff ff 	lea    -0xca0(%rbp),%rax
   1034f:	48 05 50 02 00 00    	add    $0x250,%rax
   10355:	48 89 85 e0 ec ff ff 	mov    %rax,-0x1320(%rbp)
   1035c:	48 8d 85 60 f3 ff ff 	lea    -0xca0(%rbp),%rax
   10363:	48 05 30 03 00 00    	add    $0x330,%rax
   10369:	48 89 85 e8 ec ff ff 	mov    %rax,-0x1318(%rbp)
   10370:	48 8d 85 60 f3 ff ff 	lea    -0xca0(%rbp),%rax
   10377:	48 05 50 02 00 00    	add    $0x250,%rax
   1037d:	48 89 85 f0 ec ff ff 	mov    %rax,-0x1310(%rbp)
   10384:	48 8d 85 60 f3 ff ff 	lea    -0xca0(%rbp),%rax
   1038b:	48 05 30 03 00 00    	add    $0x330,%rax
   10391:	48 89 85 f8 ec ff ff 	mov    %rax,-0x1308(%rbp)
   10398:	48 8d 85 60 f3 ff ff 	lea    -0xca0(%rbp),%rax
   1039f:	48 05 30 03 00 00    	add    $0x330,%rax
   103a5:	48 89 85 00 ed ff ff 	mov    %rax,-0x1300(%rbp)
   103ac:	48 8d 85 60 f3 ff ff 	lea    -0xca0(%rbp),%rax
   103b3:	48 05 30 03 00 00    	add    $0x330,%rax
   103b9:	48 89 85 08 ed ff ff 	mov    %rax,-0x12f8(%rbp)
   103c0:	48 8d 85 60 f3 ff ff 	lea    -0xca0(%rbp),%rax
   103c7:	48 05 30 03 00 00    	add    $0x330,%rax
   103cd:	48 89 85 10 ed ff ff 	mov    %rax,-0x12f0(%rbp)
   103d4:	48 8d 85 60 f3 ff ff 	lea    -0xca0(%rbp),%rax
   103db:	48 05 30 03 00 00    	add    $0x330,%rax
   103e1:	48 89 85 18 ed ff ff 	mov    %rax,-0x12e8(%rbp)
   103e8:	48 8d 85 60 f3 ff ff 	lea    -0xca0(%rbp),%rax
   103ef:	48 05 30 03 00 00    	add    $0x330,%rax
   103f5:	48 89 85 20 ed ff ff 	mov    %rax,-0x12e0(%rbp)
   103fc:	48 8d 85 60 f3 ff ff 	lea    -0xca0(%rbp),%rax
   10403:	48 05 30 03 00 00    	add    $0x330,%rax
   10409:	48 89 85 28 ed ff ff 	mov    %rax,-0x12d8(%rbp)
   10410:	48 8d 85 60 f3 ff ff 	lea    -0xca0(%rbp),%rax
   10417:	48 05 30 03 00 00    	add    $0x330,%rax
   1041d:	48 89 85 30 ed ff ff 	mov    %rax,-0x12d0(%rbp)
   10424:	48 8d 85 60 f3 ff ff 	lea    -0xca0(%rbp),%rax
   1042b:	48 05 30 03 00 00    	add    $0x330,%rax
   10431:	48 89 85 38 ed ff ff 	mov    %rax,-0x12c8(%rbp)
   10438:	48 8d 85 60 f3 ff ff 	lea    -0xca0(%rbp),%rax
   1043f:	48 05 50 02 00 00    	add    $0x250,%rax
   10445:	48 89 85 40 ed ff ff 	mov    %rax,-0x12c0(%rbp)
   1044c:	48 8d 85 60 f3 ff ff 	lea    -0xca0(%rbp),%rax
   10453:	48 05 30 03 00 00    	add    $0x330,%rax
   10459:	48 89 85 48 ed ff ff 	mov    %rax,-0x12b8(%rbp)
   10460:	48 8d 85 60 f3 ff ff 	lea    -0xca0(%rbp),%rax
   10467:	48 05 50 02 00 00    	add    $0x250,%rax
   1046d:	48 89 85 50 ed ff ff 	mov    %rax,-0x12b0(%rbp)
   10474:	48 8d 85 60 f3 ff ff 	lea    -0xca0(%rbp),%rax
   1047b:	48 05 30 03 00 00    	add    $0x330,%rax
   10481:	48 89 85 58 ed ff ff 	mov    %rax,-0x12a8(%rbp)
   10488:	48 8d 85 60 f3 ff ff 	lea    -0xca0(%rbp),%rax
   1048f:	48 05 50 02 00 00    	add    $0x250,%rax
   10495:	48 89 85 60 ed ff ff 	mov    %rax,-0x12a0(%rbp)
   1049c:	48 8d 85 60 f3 ff ff 	lea    -0xca0(%rbp),%rax
   104a3:	48 05 30 03 00 00    	add    $0x330,%rax
   104a9:	48 89 85 68 ed ff ff 	mov    %rax,-0x1298(%rbp)
   104b0:	48 8d 85 60 f3 ff ff 	lea    -0xca0(%rbp),%rax
   104b7:	48 05 30 03 00 00    	add    $0x330,%rax
   104bd:	48 89 85 70 ed ff ff 	mov    %rax,-0x1290(%rbp)
   104c4:	48 8d 85 60 f3 ff ff 	lea    -0xca0(%rbp),%rax
   104cb:	48 05 30 03 00 00    	add    $0x330,%rax
   104d1:	48 89 85 78 ed ff ff 	mov    %rax,-0x1288(%rbp)
   104d8:	48 8d 85 60 f3 ff ff 	lea    -0xca0(%rbp),%rax
   104df:	48 05 30 03 00 00    	add    $0x330,%rax
   104e5:	48 89 85 80 ed ff ff 	mov    %rax,-0x1280(%rbp)
   104ec:	48 8d 85 60 f3 ff ff 	lea    -0xca0(%rbp),%rax
   104f3:	48 05 30 03 00 00    	add    $0x330,%rax
   104f9:	48 89 85 88 ed ff ff 	mov    %rax,-0x1278(%rbp)
   10500:	48 8d 85 60 f3 ff ff 	lea    -0xca0(%rbp),%rax
   10507:	48 05 30 03 00 00    	add    $0x330,%rax
   1050d:	48 89 85 90 ed ff ff 	mov    %rax,-0x1270(%rbp)
   10514:	48 8d 85 60 f3 ff ff 	lea    -0xca0(%rbp),%rax
   1051b:	48 05 30 03 00 00    	add    $0x330,%rax
   10521:	48 89 85 98 ed ff ff 	mov    %rax,-0x1268(%rbp)
   10528:	48 8d 85 60 f3 ff ff 	lea    -0xca0(%rbp),%rax
   1052f:	48 05 30 03 00 00    	add    $0x330,%rax
   10535:	48 89 85 a0 ed ff ff 	mov    %rax,-0x1260(%rbp)
   1053c:	48 8d 85 60 f3 ff ff 	lea    -0xca0(%rbp),%rax
   10543:	48 05 30 03 00 00    	add    $0x330,%rax
   10549:	48 89 85 a8 ed ff ff 	mov    %rax,-0x1258(%rbp)
   10550:	48 8d 85 60 f3 ff ff 	lea    -0xca0(%rbp),%rax
   10557:	48 05 50 02 00 00    	add    $0x250,%rax
   1055d:	48 89 85 b0 ed ff ff 	mov    %rax,-0x1250(%rbp)
   10564:	48 8d 85 60 f3 ff ff 	lea    -0xca0(%rbp),%rax
   1056b:	48 05 30 03 00 00    	add    $0x330,%rax
   10571:	48 89 85 b8 ed ff ff 	mov    %rax,-0x1248(%rbp)
   10578:	48 8d 85 60 f3 ff ff 	lea    -0xca0(%rbp),%rax
   1057f:	48 05 50 02 00 00    	add    $0x250,%rax
   10585:	48 89 85 c0 ed ff ff 	mov    %rax,-0x1240(%rbp)
   1058c:	48 8d 85 60 f3 ff ff 	lea    -0xca0(%rbp),%rax
   10593:	48 05 30 03 00 00    	add    $0x330,%rax
   10599:	48 89 85 c8 ed ff ff 	mov    %rax,-0x1238(%rbp)
   105a0:	48 8d 85 60 f3 ff ff 	lea    -0xca0(%rbp),%rax
   105a7:	48 05 50 02 00 00    	add    $0x250,%rax
   105ad:	48 89 85 d0 ed ff ff 	mov    %rax,-0x1230(%rbp)
   105b4:	48 8d 85 60 f3 ff ff 	lea    -0xca0(%rbp),%rax
   105bb:	48 05 30 03 00 00    	add    $0x330,%rax
   105c1:	48 89 85 d8 ed ff ff 	mov    %rax,-0x1228(%rbp)
   105c8:	48 8d 85 60 f3 ff ff 	lea    -0xca0(%rbp),%rax
   105cf:	48 05 30 03 00 00    	add    $0x330,%rax
   105d5:	48 89 85 e0 ed ff ff 	mov    %rax,-0x1220(%rbp)
   105dc:	48 8d 85 60 f3 ff ff 	lea    -0xca0(%rbp),%rax
   105e3:	48 05 30 03 00 00    	add    $0x330,%rax
   105e9:	48 89 85 e8 ed ff ff 	mov    %rax,-0x1218(%rbp)
   105f0:	48 8d 85 60 f3 ff ff 	lea    -0xca0(%rbp),%rax
   105f7:	48 05 30 03 00 00    	add    $0x330,%rax
   105fd:	48 89 85 f0 ed ff ff 	mov    %rax,-0x1210(%rbp)
   10604:	48 8d 85 60 f3 ff ff 	lea    -0xca0(%rbp),%rax
   1060b:	48 05 30 03 00 00    	add    $0x330,%rax
   10611:	48 89 85 f8 ed ff ff 	mov    %rax,-0x1208(%rbp)
   10618:	48 8d 85 60 f3 ff ff 	lea    -0xca0(%rbp),%rax
   1061f:	48 05 30 03 00 00    	add    $0x330,%rax
   10625:	48 89 85 00 ee ff ff 	mov    %rax,-0x1200(%rbp)
   1062c:	48 8d 85 60 f3 ff ff 	lea    -0xca0(%rbp),%rax
   10633:	48 05 30 03 00 00    	add    $0x330,%rax
   10639:	48 89 85 08 ee ff ff 	mov    %rax,-0x11f8(%rbp)
   10640:	48 8d 85 60 f3 ff ff 	lea    -0xca0(%rbp),%rax
   10647:	48 05 30 03 00 00    	add    $0x330,%rax
   1064d:	48 89 85 10 ee ff ff 	mov    %rax,-0x11f0(%rbp)
   10654:	48 8d 85 60 f3 ff ff 	lea    -0xca0(%rbp),%rax
   1065b:	48 05 30 03 00 00    	add    $0x330,%rax
   10661:	48 89 85 18 ee ff ff 	mov    %rax,-0x11e8(%rbp)
   10668:	48 8d 85 60 f3 ff ff 	lea    -0xca0(%rbp),%rax
   1066f:	48 05 50 02 00 00    	add    $0x250,%rax
   10675:	48 89 85 20 ee ff ff 	mov    %rax,-0x11e0(%rbp)
   1067c:	48 8d 85 60 f3 ff ff 	lea    -0xca0(%rbp),%rax
   10683:	48 05 30 03 00 00    	add    $0x330,%rax
   10689:	48 89 85 28 ee ff ff 	mov    %rax,-0x11d8(%rbp)
   10690:	48 8d 85 60 f3 ff ff 	lea    -0xca0(%rbp),%rax
   10697:	48 05 50 02 00 00    	add    $0x250,%rax
   1069d:	48 89 85 30 ee ff ff 	mov    %rax,-0x11d0(%rbp)
   106a4:	48 8d 85 60 f3 ff ff 	lea    -0xca0(%rbp),%rax
   106ab:	48 05 30 03 00 00    	add    $0x330,%rax
   106b1:	48 89 85 38 ee ff ff 	mov    %rax,-0x11c8(%rbp)
   106b8:	48 8d 85 60 f3 ff ff 	lea    -0xca0(%rbp),%rax
   106bf:	48 05 50 02 00 00    	add    $0x250,%rax
   106c5:	48 89 85 40 ee ff ff 	mov    %rax,-0x11c0(%rbp)
   106cc:	48 8d 85 60 f3 ff ff 	lea    -0xca0(%rbp),%rax
   106d3:	48 05 30 03 00 00    	add    $0x330,%rax
   106d9:	48 89 85 48 ee ff ff 	mov    %rax,-0x11b8(%rbp)
   106e0:	48 8d 85 60 f3 ff ff 	lea    -0xca0(%rbp),%rax
   106e7:	48 05 30 03 00 00    	add    $0x330,%rax
   106ed:	48 89 85 50 ee ff ff 	mov    %rax,-0x11b0(%rbp)
   106f4:	48 8d 85 60 f3 ff ff 	lea    -0xca0(%rbp),%rax
   106fb:	48 05 30 03 00 00    	add    $0x330,%rax
   10701:	48 89 85 58 ee ff ff 	mov    %rax,-0x11a8(%rbp)
   10708:	48 8d 85 60 f3 ff ff 	lea    -0xca0(%rbp),%rax
   1070f:	48 05 30 03 00 00    	add    $0x330,%rax
   10715:	48 89 85 60 ee ff ff 	mov    %rax,-0x11a0(%rbp)
   1071c:	48 8d 85 60 f3 ff ff 	lea    -0xca0(%rbp),%rax
   10723:	48 05 30 03 00 00    	add    $0x330,%rax
   10729:	48 89 85 68 ee ff ff 	mov    %rax,-0x1198(%rbp)
   10730:	48 8d 85 60 f3 ff ff 	lea    -0xca0(%rbp),%rax
   10737:	48 05 30 03 00 00    	add    $0x330,%rax
   1073d:	48 89 85 70 ee ff ff 	mov    %rax,-0x1190(%rbp)
   10744:	48 8d 85 60 f3 ff ff 	lea    -0xca0(%rbp),%rax
   1074b:	48 05 30 03 00 00    	add    $0x330,%rax
   10751:	48 89 85 78 ee ff ff 	mov    %rax,-0x1188(%rbp)
   10758:	48 8d 85 60 f3 ff ff 	lea    -0xca0(%rbp),%rax
   1075f:	48 05 30 03 00 00    	add    $0x330,%rax
   10765:	48 89 85 80 ee ff ff 	mov    %rax,-0x1180(%rbp)
   1076c:	48 c7 85 90 e9 ff ff 	movq   $0x0,-0x1670(%rbp)
   10773:	00 00 00 00 
   10777:	48 c7 85 98 e9 ff ff 	movq   $0x0,-0x1668(%rbp)
   1077e:	00 00 00 00 
   10782:	48 c7 85 a0 e9 ff ff 	movq   $0x0,-0x1660(%rbp)
   10789:	00 00 00 00 
   1078d:	48 c7 85 a8 e9 ff ff 	movq   $0x0,-0x1658(%rbp)
   10794:	00 00 00 00 
   10798:	48 c7 85 b0 e9 ff ff 	movq   $0x0,-0x1650(%rbp)
   1079f:	00 00 00 00 
   107a3:	48 c7 85 b8 e9 ff ff 	movq   $0x0,-0x1648(%rbp)
   107aa:	00 00 00 00 
   107ae:	48 c7 85 c0 e9 ff ff 	movq   $0x0,-0x1640(%rbp)
   107b5:	00 00 00 00 
   107b9:	48 c7 85 c8 e9 ff ff 	movq   $0x0,-0x1638(%rbp)
   107c0:	00 00 00 00 
   107c4:	48 8d 85 90 e9 ff ff 	lea    -0x1670(%rbp),%rax
   107cb:	48 83 c0 28          	add    $0x28,%rax
   107cf:	48 89 85 68 e6 ff ff 	mov    %rax,-0x1998(%rbp)
   107d6:	c7 85 78 e5 ff ff 63 	movl   $0x206b5163,-0x1a88(%rbp)
   107dd:	51 6b 20 
   107e0:	48 c7 85 a8 e6 ff ff 	movq   $0x0,-0x1958(%rbp)
   107e7:	00 00 00 00 
   107eb:	c6 85 64 e5 ff ff c5 	movb   $0xc5,-0x1a9c(%rbp)
   107f2:	48 8d 05 6d 58 00 00 	lea    0x586d(%rip),%rax        # 16066 <g_615>
   107f9:	48 89 85 b0 e6 ff ff 	mov    %rax,-0x1950(%rbp)
   10800:	48 c7 85 b8 e6 ff ff 	movq   $0x0,-0x1948(%rbp)
   10807:	00 00 00 00 
   1080b:	48 8d 05 86 ac 00 00 	lea    0xac86(%rip),%rax        # 1b498 <g_606+0x38>
   10812:	48 89 85 c0 e6 ff ff 	mov    %rax,-0x1940(%rbp)
   10819:	48 c7 85 c8 e6 ff ff 	movq   $0xfffffffffffffff8,-0x1938(%rbp)
   10820:	f8 ff ff ff 
   10824:	c7 85 7c e5 ff ff f9 	movl   $0xfffffff9,-0x1a84(%rbp)
   1082b:	ff ff ff 
   1082e:	c7 85 80 e5 ff ff 00 	movl   $0x0,-0x1a80(%rbp)
   10835:	00 00 00 
   10838:	eb 1e                	jmp    10858 <func_42+0x80b>
   1083a:	8b 85 80 e5 ff ff    	mov    -0x1a80(%rbp),%eax
   10840:	48 98                	cltq   
   10842:	48 8d 15 26 a8 00 00 	lea    0xa826(%rip),%rdx        # 1b06f <g_157+0x7>
   10849:	48 89 94 c5 c8 e8 ff 	mov    %rdx,-0x1738(%rbp,%rax,8)
   10850:	ff 
   10851:	83 85 80 e5 ff ff 01 	addl   $0x1,-0x1a80(%rbp)
   10858:	83 bd 80 e5 ff ff 00 	cmpl   $0x0,-0x1a80(%rbp)
   1085f:	7e d9                	jle    1083a <func_42+0x7ed>
   10861:	48 8b 85 30 e6 ff ff 	mov    -0x19d0(%rbp),%rax
   10868:	48 85 c0             	test   %rax,%rax
   1086b:	0f 84 8b 03 00 00    	je     10bfc <func_42+0xbaf>
   10871:	48 8d 05 b0 a7 00 00 	lea    0xa7b0(%rip),%rax        # 1b028 <g_59>
   10878:	48 89 85 e8 e7 ff ff 	mov    %rax,-0x1818(%rbp)
   1087f:	48 8b 85 40 ea ff ff 	mov    -0x15c0(%rbp),%rax
   10886:	48 89 85 e8 e7 ff ff 	mov    %rax,-0x1818(%rbp)
   1088d:	48 8b 85 e8 e7 ff ff 	mov    -0x1818(%rbp),%rax
   10894:	8b 00                	mov    (%rax),%eax
   10896:	33 85 50 e5 ff ff    	xor    -0x1ab0(%rbp),%eax
   1089c:	89 c2                	mov    %eax,%edx
   1089e:	48 8b 85 e8 e7 ff ff 	mov    -0x1818(%rbp),%rax
   108a5:	89 10                	mov    %edx,(%rax)
   108a7:	8b 05 7b a7 00 00    	mov    0xa77b(%rip),%eax        # 1b028 <g_59>
   108ad:	85 c0                	test   %eax,%eax
   108af:	74 02                	je     108b3 <func_42+0x866>
   108b1:	eb cc                	jmp    1087f <func_42+0x832>
   108b3:	66 c7 05 70 a7 00 00 	movw   $0x0,0xa770(%rip)        # 1b02c <g_63>
   108ba:	00 00 
   108bc:	e9 26 03 00 00       	jmpq   10be7 <func_42+0xb9a>
   108c1:	c7 85 fc e5 ff ff 14 	movl   $0x6680214,-0x1a04(%rbp)
   108c8:	02 68 06 
   108cb:	48 8d 05 66 a7 00 00 	lea    0xa766(%rip),%rax        # 1b038 <g_73>
   108d2:	48 89 85 f0 e7 ff ff 	mov    %rax,-0x1810(%rbp)
   108d9:	48 c7 85 f8 e7 ff ff 	movq   $0x0,-0x1808(%rbp)
   108e0:	00 00 00 00 
   108e4:	48 8d 05 66 a7 00 00 	lea    0xa766(%rip),%rax        # 1b051 <g_100>
   108eb:	48 89 85 00 e8 ff ff 	mov    %rax,-0x1800(%rbp)
   108f2:	c7 85 d8 e5 ff ff 92 	movl   $0xed0e3492,-0x1a28(%rbp)
   108f9:	34 0e ed 
   108fc:	c7 85 54 e5 ff ff 00 	movl   $0x0,-0x1aac(%rbp)
   10903:	00 00 00 
   10906:	e9 9a 00 00 00       	jmpq   109a5 <func_42+0x958>
   1090b:	48 c7 85 30 e8 ff ff 	movq   $0x0,-0x17d0(%rbp)
   10912:	00 00 00 00 
   10916:	c7 85 dc e5 ff ff 00 	movl   $0x0,-0x1a24(%rbp)
   1091d:	00 00 00 
   10920:	eb 1b                	jmp    1093d <func_42+0x8f0>
   10922:	8b 85 dc e5 ff ff    	mov    -0x1a24(%rbp),%eax
   10928:	48 98                	cltq   
   1092a:	48 c7 84 c5 c0 f6 ff 	movq   $0x0,-0x940(%rbp,%rax,8)
   10931:	ff 00 00 00 00 
   10936:	83 85 dc e5 ff ff 01 	addl   $0x1,-0x1a24(%rbp)
   1093d:	83 bd dc e5 ff ff 03 	cmpl   $0x3,-0x1a24(%rbp)
   10944:	7e dc                	jle    10922 <func_42+0x8d5>
   10946:	c7 85 dc e5 ff ff 00 	movl   $0x0,-0x1a24(%rbp)
   1094d:	00 00 00 
   10950:	eb 22                	jmp    10974 <func_42+0x927>
   10952:	8b 85 dc e5 ff ff    	mov    -0x1a24(%rbp),%eax
   10958:	48 98                	cltq   
   1095a:	48 8d 95 c0 f6 ff ff 	lea    -0x940(%rbp),%rdx
   10961:	48 83 c2 18          	add    $0x18,%rdx
   10965:	48 89 94 c5 20 fa ff 	mov    %rdx,-0x5e0(%rbp,%rax,8)
   1096c:	ff 
   1096d:	83 85 dc e5 ff ff 01 	addl   $0x1,-0x1a24(%rbp)
   10974:	83 bd dc e5 ff ff 07 	cmpl   $0x7,-0x1a24(%rbp)
   1097b:	7e d5                	jle    10952 <func_42+0x905>
   1097d:	48 8d 85 4c e5 ff ff 	lea    -0x1ab4(%rbp),%rax
   10984:	48 89 85 30 f3 ff ff 	mov    %rax,-0xcd0(%rbp)
   1098b:	48 c7 85 40 e6 ff ff 	movq   $0x0,-0x19c0(%rbp)
   10992:	00 00 00 00 
   10996:	8b 85 54 e5 ff ff    	mov    -0x1aac(%rbp),%eax
   1099c:	83 c0 01             	add    $0x1,%eax
   1099f:	89 85 54 e5 ff ff    	mov    %eax,-0x1aac(%rbp)
   109a5:	8b 85 54 e5 ff ff    	mov    -0x1aac(%rbp),%eax
   109ab:	85 c0                	test   %eax,%eax
   109ad:	0f 84 58 ff ff ff    	je     1090b <func_42+0x8be>
   109b3:	c7 05 6b a6 00 00 00 	movl   $0x0,0xa66b(%rip)        # 1b028 <g_59>
   109ba:	00 00 00 
   109bd:	e9 05 02 00 00       	jmpq   10bc7 <func_42+0xb7a>
   109c2:	48 c7 85 08 e8 ff ff 	movq   $0x0,-0x17f8(%rbp)
   109c9:	00 00 00 00 
   109cd:	48 8d 05 7c a6 00 00 	lea    0xa67c(%rip),%rax        # 1b050 <g_91>
   109d4:	48 89 85 10 e8 ff ff 	mov    %rax,-0x17f0(%rbp)
   109db:	48 8d 05 56 a6 00 00 	lea    0xa656(%rip),%rax        # 1b038 <g_73>
   109e2:	48 89 85 18 e8 ff ff 	mov    %rax,-0x17e8(%rbp)
   109e9:	c7 85 00 e6 ff ff 01 	movl   $0x1,-0x1a00(%rbp)
   109f0:	00 00 00 
   109f3:	48 c7 85 20 e8 ff ff 	movq   $0x0,-0x17e0(%rbp)
   109fa:	00 00 00 00 
   109fe:	48 8d 05 4c a6 00 00 	lea    0xa64c(%rip),%rax        # 1b051 <g_100>
   10a05:	48 89 85 28 e8 ff ff 	mov    %rax,-0x17d8(%rbp)
   10a0c:	48 8b 85 e8 e7 ff ff 	mov    -0x1818(%rbp),%rax
   10a13:	8b 00                	mov    (%rax),%eax
   10a15:	41 89 c5             	mov    %eax,%r13d
   10a18:	8b 05 0a a6 00 00    	mov    0xa60a(%rip),%eax        # 1b028 <g_59>
   10a1e:	0f be d8             	movsbl %al,%ebx
   10a21:	8b 85 54 e5 ff ff    	mov    -0x1aac(%rbp),%eax
   10a27:	41 89 c6             	mov    %eax,%r14d
   10a2a:	8b 85 fc e5 ff ff    	mov    -0x1a04(%rbp),%eax
   10a30:	44 0f b7 e0          	movzwl %ax,%r12d
   10a34:	48 8b 85 10 e8 ff ff 	mov    -0x17f0(%rbp),%rax
   10a3b:	c6 00 fb             	movb   $0xfb,(%rax)
   10a3e:	8b 85 fc e5 ff ff    	mov    -0x1a04(%rbp),%eax
   10a44:	0f be d0             	movsbl %al,%edx
   10a47:	0f b7 05 de a5 00 00 	movzwl 0xa5de(%rip),%eax        # 1b02c <g_63>
   10a4e:	0f be c0             	movsbl %al,%eax
   10a51:	89 d6                	mov    %edx,%esi
   10a53:	89 c7                	mov    %eax,%edi
   10a55:	e8 b8 87 ff ff       	callq  9212 <safe_mul_func_int8_t_s_s>
   10a5a:	83 bd 50 e5 ff ff 01 	cmpl   $0x1,-0x1ab0(%rbp)
   10a61:	7f 12                	jg     10a75 <func_42+0xa28>
   10a63:	0f b6 05 e6 a5 00 00 	movzbl 0xa5e6(%rip),%eax        # 1b050 <g_91>
   10a6a:	84 c0                	test   %al,%al
   10a6c:	74 07                	je     10a75 <func_42+0xa28>
   10a6e:	b8 01 00 00 00       	mov    $0x1,%eax
   10a73:	eb 05                	jmp    10a7a <func_42+0xa2d>
   10a75:	b8 00 00 00 00       	mov    $0x0,%eax
   10a7a:	0f b7 c0             	movzwl %ax,%eax
   10a7d:	be 04 00 00 00       	mov    $0x4,%esi
   10a82:	89 c7                	mov    %eax,%edi
   10a84:	e8 f1 93 ff ff       	callq  9e7a <safe_rshift_func_uint16_t_u_u>
   10a89:	0f b7 c0             	movzwl %ax,%eax
   10a8c:	44 89 e6             	mov    %r12d,%esi
   10a8f:	89 c7                	mov    %eax,%edi
   10a91:	e8 f8 92 ff ff       	callq  9d8e <safe_div_func_uint16_t_u_u>
   10a96:	0f b6 c0             	movzbl %al,%eax
   10a99:	44 89 f6             	mov    %r14d,%esi
   10a9c:	89 c7                	mov    %eax,%edi
   10a9e:	e8 ea 91 ff ff       	callq  9c8d <safe_rshift_func_uint8_t_u_s>
   10aa3:	0f b6 c0             	movzbl %al,%eax
   10aa6:	39 85 fc e5 ff ff    	cmp    %eax,-0x1a04(%rbp)
   10aac:	77 10                	ja     10abe <func_42+0xa71>
   10aae:	83 bd 00 e6 ff ff 00 	cmpl   $0x0,-0x1a00(%rbp)
   10ab5:	74 07                	je     10abe <func_42+0xa71>
   10ab7:	b9 01 00 00 00       	mov    $0x1,%ecx
   10abc:	eb 05                	jmp    10ac3 <func_42+0xa76>
   10abe:	b9 00 00 00 00       	mov    $0x0,%ecx
   10ac3:	48 8b 85 28 e8 ff ff 	mov    -0x17d8(%rbp),%rax
   10aca:	0f b6 00             	movzbl (%rax),%eax
   10acd:	89 c2                	mov    %eax,%edx
   10acf:	89 c8                	mov    %ecx,%eax
   10ad1:	21 d0                	and    %edx,%eax
   10ad3:	89 c2                	mov    %eax,%edx
   10ad5:	48 8b 85 28 e8 ff ff 	mov    -0x17d8(%rbp),%rax
   10adc:	88 10                	mov    %dl,(%rax)
   10ade:	48 83 bd f8 e7 ff ff 	cmpq   $0x0,-0x1808(%rbp)
   10ae5:	00 
   10ae6:	0f 95 c0             	setne  %al
   10ae9:	0f b6 c0             	movzbl %al,%eax
   10aec:	89 de                	mov    %ebx,%esi
   10aee:	89 c7                	mov    %eax,%edi
   10af0:	e8 fd 86 ff ff       	callq  91f2 <safe_sub_func_int8_t_s_s>
   10af5:	0f be c0             	movsbl %al,%eax
   10af8:	44 89 ee             	mov    %r13d,%esi
   10afb:	89 c7                	mov    %eax,%edi
   10afd:	e8 ce 93 ff ff       	callq  9ed0 <safe_sub_func_uint32_t_u_u>
   10b02:	83 f8 02             	cmp    $0x2,%eax
   10b05:	0f 97 c0             	seta   %al
   10b08:	0f b6 c0             	movzbl %al,%eax
   10b0b:	89 85 00 e6 ff ff    	mov    %eax,-0x1a00(%rbp)
   10b11:	48 8b 05 00 cd 00 00 	mov    0xcd00(%rip),%rax        # 1d818 <g_106>
   10b18:	48 8b 15 d9 cc 00 00 	mov    0xccd9(%rip),%rdx        # 1d7f8 <g_102>
   10b1f:	48 89 10             	mov    %rdx,(%rax)
   10b22:	c7 85 50 e5 ff ff 00 	movl   $0x0,-0x1ab0(%rbp)
   10b29:	00 00 00 
   10b2c:	eb 5f                	jmp    10b8d <func_42+0xb40>
   10b2e:	48 c7 85 48 e6 ff ff 	movq   $0x0,-0x19b8(%rbp)
   10b35:	00 00 00 00 
   10b39:	eb 3e                	jmp    10b79 <func_42+0xb2c>
   10b3b:	48 8b 8d 48 e6 ff ff 	mov    -0x19b8(%rbp),%rcx
   10b42:	8b 85 50 e5 ff ff    	mov    -0x1ab0(%rbp),%eax
   10b48:	48 63 d0             	movslq %eax,%rdx
   10b4b:	48 89 d0             	mov    %rdx,%rax
   10b4e:	48 c1 e0 03          	shl    $0x3,%rax
   10b52:	48 01 d0             	add    %rdx,%rax
   10b55:	48 01 c8             	add    %rcx,%rax
   10b58:	48 8d 15 c9 a4 00 00 	lea    0xa4c9(%rip),%rdx        # 1b028 <g_59>
   10b5f:	48 89 94 c5 90 f0 ff 	mov    %rdx,-0xf70(%rbp,%rax,8)
   10b66:	ff 
   10b67:	48 8b 85 48 e6 ff ff 	mov    -0x19b8(%rbp),%rax
   10b6e:	48 83 c0 01          	add    $0x1,%rax
   10b72:	48 89 85 48 e6 ff ff 	mov    %rax,-0x19b8(%rbp)
   10b79:	48 8b 85 48 e6 ff ff 	mov    -0x19b8(%rbp),%rax
   10b80:	48 83 f8 08          	cmp    $0x8,%rax
   10b84:	7e b5                	jle    10b3b <func_42+0xaee>
   10b86:	83 85 50 e5 ff ff 01 	addl   $0x1,-0x1ab0(%rbp)
   10b8d:	83 bd 50 e5 ff ff 09 	cmpl   $0x9,-0x1ab0(%rbp)
   10b94:	7e 98                	jle    10b2e <func_42+0xae1>
   10b96:	48 83 bd 00 e8 ff ff 	cmpq   $0x0,-0x1800(%rbp)
   10b9d:	00 
   10b9e:	0f 95 c0             	setne  %al
   10ba1:	0f b6 d0             	movzbl %al,%edx
   10ba4:	8b 85 4c e5 ff ff    	mov    -0x1ab4(%rbp),%eax
   10baa:	39 c2                	cmp    %eax,%edx
   10bac:	0f 9d c0             	setge  %al
   10baf:	0f b6 c0             	movzbl %al,%eax
   10bb2:	31 85 d8 e5 ff ff    	xor    %eax,-0x1a28(%rbp)
   10bb8:	8b 05 6a a4 00 00    	mov    0xa46a(%rip),%eax        # 1b028 <g_59>
   10bbe:	83 e8 01             	sub    $0x1,%eax
   10bc1:	89 05 61 a4 00 00    	mov    %eax,0xa461(%rip)        # 1b028 <g_59>
   10bc7:	8b 05 5b a4 00 00    	mov    0xa45b(%rip),%eax        # 1b028 <g_59>
   10bcd:	83 f8 ef             	cmp    $0xffffffef,%eax
   10bd0:	0f 8d ec fd ff ff    	jge    109c2 <func_42+0x975>
   10bd6:	0f b7 05 4f a4 00 00 	movzwl 0xa44f(%rip),%eax        # 1b02c <g_63>
   10bdd:	83 e8 01             	sub    $0x1,%eax
   10be0:	66 89 05 45 a4 00 00 	mov    %ax,0xa445(%rip)        # 1b02c <g_63>
   10be7:	0f b7 05 3e a4 00 00 	movzwl 0xa43e(%rip),%eax        # 1b02c <g_63>
   10bee:	66 85 c0             	test   %ax,%ax
   10bf1:	0f 89 ca fc ff ff    	jns    108c1 <func_42+0x874>
   10bf7:	e9 25 10 00 00       	jmpq   11c21 <func_42+0x1bd4>
   10bfc:	48 8d 05 45 a4 00 00 	lea    0xa445(%rip),%rax        # 1b048 <g_81>
   10c03:	48 89 85 80 e6 ff ff 	mov    %rax,-0x1980(%rbp)
   10c0a:	48 8d 85 80 e6 ff ff 	lea    -0x1980(%rbp),%rax
   10c11:	48 89 85 88 e6 ff ff 	mov    %rax,-0x1978(%rbp)
   10c18:	48 8d 85 88 e6 ff ff 	lea    -0x1978(%rbp),%rax
   10c1f:	48 89 85 d0 e9 ff ff 	mov    %rax,-0x1630(%rbp)
   10c26:	48 8d 85 88 e6 ff ff 	lea    -0x1978(%rbp),%rax
   10c2d:	48 89 85 d8 e9 ff ff 	mov    %rax,-0x1628(%rbp)
   10c34:	48 8d 05 15 a4 00 00 	lea    0xa415(%rip),%rax        # 1b050 <g_91>
   10c3b:	48 89 85 90 e6 ff ff 	mov    %rax,-0x1970(%rbp)
   10c42:	48 8d 85 90 e6 ff ff 	lea    -0x1970(%rbp),%rax
   10c49:	48 89 85 d0 e6 ff ff 	mov    %rax,-0x1930(%rbp)
   10c50:	c7 85 78 e6 ff ff 16 	movl   $0x540ec616,-0x1988(%rbp)
   10c57:	c6 0e 54 
   10c5a:	c7 85 84 e5 ff ff 01 	movl   $0x1,-0x1a7c(%rbp)
   10c61:	00 00 00 
   10c64:	c7 85 c0 f6 ff ff 00 	movl   $0x0,-0x940(%rbp)
   10c6b:	00 00 00 
   10c6e:	c7 85 c4 f6 ff ff 01 	movl   $0x1,-0x93c(%rbp)
   10c75:	00 00 00 
   10c78:	c7 85 c8 f6 ff ff 60 	movl   $0xe0c07d60,-0x938(%rbp)
   10c7f:	7d c0 e0 
   10c82:	c7 85 cc f6 ff ff 10 	movl   $0xa32b3d10,-0x934(%rbp)
   10c89:	3d 2b a3 
   10c8c:	c7 85 d0 f6 ff ff fb 	movl   $0xfffffffb,-0x930(%rbp)
   10c93:	ff ff ff 
   10c96:	c7 85 d4 f6 ff ff 10 	movl   $0xa32b3d10,-0x92c(%rbp)
   10c9d:	3d 2b a3 
   10ca0:	c7 85 d8 f6 ff ff 00 	movl   $0x0,-0x928(%rbp)
   10ca7:	00 00 00 
   10caa:	c7 85 dc f6 ff ff 49 	movl   $0x42b1b449,-0x924(%rbp)
   10cb1:	b4 b1 42 
   10cb4:	c7 85 e0 f6 ff ff 60 	movl   $0xe0c07d60,-0x920(%rbp)
   10cbb:	7d c0 e0 
   10cbe:	c7 85 e4 f6 ff ff 74 	movl   $0x27cabe74,-0x91c(%rbp)
   10cc5:	be ca 27 
   10cc8:	c7 85 e8 f6 ff ff 74 	movl   $0x27cabe74,-0x918(%rbp)
   10ccf:	be ca 27 
   10cd2:	c7 85 ec f6 ff ff 09 	movl   $0x9,-0x914(%rbp)
   10cd9:	00 00 00 
   10cdc:	c7 85 f0 f6 ff ff 01 	movl   $0x1,-0x910(%rbp)
   10ce3:	00 00 00 
   10ce6:	c7 85 f4 f6 ff ff 49 	movl   $0x42b1b449,-0x90c(%rbp)
   10ced:	b4 b1 42 
   10cf0:	c7 85 f8 f6 ff ff 00 	movl   $0x0,-0x908(%rbp)
   10cf7:	00 00 00 
   10cfa:	c7 85 fc f6 ff ff 09 	movl   $0x9,-0x904(%rbp)
   10d01:	00 00 00 
   10d04:	c7 85 00 f7 ff ff fb 	movl   $0xfffffffb,-0x900(%rbp)
   10d0b:	ff ff ff 
   10d0e:	c7 85 04 f7 ff ff fc 	movl   $0x577bf9fc,-0x8fc(%rbp)
   10d15:	f9 7b 57 
   10d18:	c7 85 08 f7 ff ff 01 	movl   $0x1,-0x8f8(%rbp)
   10d1f:	00 00 00 
   10d22:	c7 85 0c f7 ff ff 01 	movl   $0x1,-0x8f4(%rbp)
   10d29:	00 00 00 
   10d2c:	c7 85 10 f7 ff ff 01 	movl   $0x1,-0x8f0(%rbp)
   10d33:	00 00 00 
   10d36:	c7 85 14 f7 ff ff 74 	movl   $0x27cabe74,-0x8ec(%rbp)
   10d3d:	be ca 27 
   10d40:	c7 85 18 f7 ff ff 09 	movl   $0x9,-0x8e8(%rbp)
   10d47:	00 00 00 
   10d4a:	c7 85 1c f7 ff ff fc 	movl   $0x577bf9fc,-0x8e4(%rbp)
   10d51:	f9 7b 57 
   10d54:	c7 85 20 f7 ff ff 00 	movl   $0x0,-0x8e0(%rbp)
   10d5b:	00 00 00 
   10d5e:	c7 85 24 f7 ff ff ff 	movl   $0xffffffff,-0x8dc(%rbp)
   10d65:	ff ff ff 
   10d68:	c7 85 28 f7 ff ff 00 	movl   $0x0,-0x8d8(%rbp)
   10d6f:	00 00 00 
   10d72:	c7 85 2c f7 ff ff 10 	movl   $0xa32b3d10,-0x8d4(%rbp)
   10d79:	3d 2b a3 
   10d7c:	c7 85 30 f7 ff ff 09 	movl   $0x9,-0x8d0(%rbp)
   10d83:	00 00 00 
   10d86:	c7 85 34 f7 ff ff 09 	movl   $0x9,-0x8cc(%rbp)
   10d8d:	00 00 00 
   10d90:	c7 85 38 f7 ff ff 00 	movl   $0x0,-0x8c8(%rbp)
   10d97:	00 00 00 
   10d9a:	c7 85 3c f7 ff ff 01 	movl   $0x1,-0x8c4(%rbp)
   10da1:	00 00 00 
   10da4:	c7 85 40 f7 ff ff 60 	movl   $0xe0c07d60,-0x8c0(%rbp)
   10dab:	7d c0 e0 
   10dae:	c7 85 44 f7 ff ff 10 	movl   $0xa32b3d10,-0x8bc(%rbp)
   10db5:	3d 2b a3 
   10db8:	c7 85 48 f7 ff ff fb 	movl   $0xfffffffb,-0x8b8(%rbp)
   10dbf:	ff ff ff 
   10dc2:	c7 85 4c f7 ff ff 10 	movl   $0xa32b3d10,-0x8b4(%rbp)
   10dc9:	3d 2b a3 
   10dcc:	c7 85 50 f7 ff ff 00 	movl   $0x0,-0x8b0(%rbp)
   10dd3:	00 00 00 
   10dd6:	c7 85 54 f7 ff ff 49 	movl   $0x42b1b449,-0x8ac(%rbp)
   10ddd:	b4 b1 42 
   10de0:	c7 85 58 f7 ff ff 60 	movl   $0xe0c07d60,-0x8a8(%rbp)
   10de7:	7d c0 e0 
   10dea:	c7 85 5c f7 ff ff 74 	movl   $0x27cabe74,-0x8a4(%rbp)
   10df1:	be ca 27 
   10df4:	c7 85 60 f7 ff ff 74 	movl   $0x27cabe74,-0x8a0(%rbp)
   10dfb:	be ca 27 
   10dfe:	c7 85 64 f7 ff ff 09 	movl   $0x9,-0x89c(%rbp)
   10e05:	00 00 00 
   10e08:	c7 85 68 f7 ff ff 01 	movl   $0x1,-0x898(%rbp)
   10e0f:	00 00 00 
   10e12:	c7 85 6c f7 ff ff 49 	movl   $0x42b1b449,-0x894(%rbp)
   10e19:	b4 b1 42 
   10e1c:	c7 85 70 f7 ff ff 00 	movl   $0x0,-0x890(%rbp)
   10e23:	00 00 00 
   10e26:	c7 85 74 f7 ff ff 09 	movl   $0x9,-0x88c(%rbp)
   10e2d:	00 00 00 
   10e30:	c7 85 78 f7 ff ff fb 	movl   $0xfffffffb,-0x888(%rbp)
   10e37:	ff ff ff 
   10e3a:	c7 85 7c f7 ff ff fc 	movl   $0x577bf9fc,-0x884(%rbp)
   10e41:	f9 7b 57 
   10e44:	c7 85 80 f7 ff ff 01 	movl   $0x1,-0x880(%rbp)
   10e4b:	00 00 00 
   10e4e:	c7 85 84 f7 ff ff 01 	movl   $0x1,-0x87c(%rbp)
   10e55:	00 00 00 
   10e58:	c7 85 88 f7 ff ff 01 	movl   $0x1,-0x878(%rbp)
   10e5f:	00 00 00 
   10e62:	c7 85 8c f7 ff ff 74 	movl   $0x27cabe74,-0x874(%rbp)
   10e69:	be ca 27 
   10e6c:	c7 85 90 f7 ff ff 09 	movl   $0x9,-0x870(%rbp)
   10e73:	00 00 00 
   10e76:	c7 85 94 f7 ff ff fc 	movl   $0x577bf9fc,-0x86c(%rbp)
   10e7d:	f9 7b 57 
   10e80:	c7 85 98 f7 ff ff 00 	movl   $0x0,-0x868(%rbp)
   10e87:	00 00 00 
   10e8a:	c7 85 9c f7 ff ff ff 	movl   $0xffffffff,-0x864(%rbp)
   10e91:	ff ff ff 
   10e94:	c7 85 a0 f7 ff ff 00 	movl   $0x0,-0x860(%rbp)
   10e9b:	00 00 00 
   10e9e:	c7 85 a4 f7 ff ff 10 	movl   $0xa32b3d10,-0x85c(%rbp)
   10ea5:	3d 2b a3 
   10ea8:	c7 85 a8 f7 ff ff 09 	movl   $0x9,-0x858(%rbp)
   10eaf:	00 00 00 
   10eb2:	c7 85 ac f7 ff ff 09 	movl   $0x9,-0x854(%rbp)
   10eb9:	00 00 00 
   10ebc:	48 8d 85 30 ea ff ff 	lea    -0x15d0(%rbp),%rax
   10ec3:	48 83 c0 40          	add    $0x40,%rax
   10ec7:	48 89 85 f8 e6 ff ff 	mov    %rax,-0x1908(%rbp)
   10ece:	c7 85 e0 e5 ff ff f0 	movl   $0x776b1af0,-0x1a20(%rbp)
   10ed5:	1a 6b 77 
   10ed8:	48 8d 05 4d a1 00 00 	lea    0xa14d(%rip),%rax        # 1b02c <g_63>
   10edf:	48 89 85 00 e7 ff ff 	mov    %rax,-0x1900(%rbp)
   10ee6:	c6 85 65 e5 ff ff e4 	movb   $0xe4,-0x1a9b(%rbp)
   10eed:	48 8d 05 34 a1 00 00 	lea    0xa134(%rip),%rax        # 1b028 <g_59>
   10ef4:	48 89 85 08 e7 ff ff 	mov    %rax,-0x18f8(%rbp)
   10efb:	48 c7 85 10 e7 ff ff 	movq   $0x0,-0x18f0(%rbp)
   10f02:	00 00 00 00 
   10f06:	c7 85 e4 e5 ff ff e2 	movl   $0xbb794be2,-0x1a1c(%rbp)
   10f0d:	4b 79 bb 
   10f10:	66 c7 85 6c e5 ff ff 	movw   $0x5f32,-0x1a94(%rbp)
   10f17:	32 5f 
   10f19:	c7 85 d0 e5 ff ff 00 	movl   $0x0,-0x1a30(%rbp)
   10f20:	00 00 00 
   10f23:	e9 80 00 00 00       	jmpq   10fa8 <func_42+0xf5b>
   10f28:	c7 85 d4 e5 ff ff 00 	movl   $0x0,-0x1a2c(%rbp)
   10f2f:	00 00 00 
   10f32:	eb 64                	jmp    10f98 <func_42+0xf4b>
   10f34:	c7 85 c8 e5 ff ff 00 	movl   $0x0,-0x1a38(%rbp)
   10f3b:	00 00 00 
   10f3e:	eb 48                	jmp    10f88 <func_42+0xf3b>
   10f40:	8b 85 c8 e5 ff ff    	mov    -0x1a38(%rbp),%eax
   10f46:	48 63 f0             	movslq %eax,%rsi
   10f49:	8b 85 d0 e5 ff ff    	mov    -0x1a30(%rbp),%eax
   10f4f:	48 63 d0             	movslq %eax,%rdx
   10f52:	8b 85 d4 e5 ff ff    	mov    -0x1a2c(%rbp),%eax
   10f58:	48 63 c8             	movslq %eax,%rcx
   10f5b:	48 89 d0             	mov    %rdx,%rax
   10f5e:	48 01 c0             	add    %rax,%rax
   10f61:	48 01 d0             	add    %rdx,%rax
   10f64:	48 01 c0             	add    %rax,%rax
   10f67:	48 89 ca             	mov    %rcx,%rdx
   10f6a:	48 01 d2             	add    %rdx,%rdx
   10f6d:	48 01 ca             	add    %rcx,%rdx
   10f70:	48 01 d0             	add    %rdx,%rax
   10f73:	48 01 f0             	add    %rsi,%rax
   10f76:	c7 84 85 90 ee ff ff 	movl   $0x1,-0x1170(%rbp,%rax,4)
   10f7d:	01 00 00 00 
   10f81:	83 85 c8 e5 ff ff 01 	addl   $0x1,-0x1a38(%rbp)
   10f88:	83 bd c8 e5 ff ff 02 	cmpl   $0x2,-0x1a38(%rbp)
   10f8f:	7e af                	jle    10f40 <func_42+0xef3>
   10f91:	83 85 d4 e5 ff ff 01 	addl   $0x1,-0x1a2c(%rbp)
   10f98:	83 bd d4 e5 ff ff 01 	cmpl   $0x1,-0x1a2c(%rbp)
   10f9f:	7e 93                	jle    10f34 <func_42+0xee7>
   10fa1:	83 85 d0 e5 ff ff 01 	addl   $0x1,-0x1a30(%rbp)
   10fa8:	83 bd d0 e5 ff ff 00 	cmpl   $0x0,-0x1a30(%rbp)
   10faf:	0f 8e 73 ff ff ff    	jle    10f28 <func_42+0xedb>
   10fb5:	48 c7 85 48 e6 ff ff 	movq   $0x11,-0x19b8(%rbp)
   10fbc:	11 00 00 00 
   10fc0:	e9 04 02 00 00       	jmpq   111c9 <func_42+0x117c>
   10fc5:	48 c7 85 a8 e7 ff ff 	movq   $0x0,-0x1858(%rbp)
   10fcc:	00 00 00 00 
   10fd0:	48 8d 05 61 c8 00 00 	lea    0xc861(%rip),%rax        # 1d838 <g_111>
   10fd7:	48 89 85 b0 e7 ff ff 	mov    %rax,-0x1850(%rbp)
   10fde:	48 8d 05 6b e4 00 00 	lea    0xe46b(%rip),%rax        # 1f450 <g_120>
   10fe5:	48 89 85 b8 e7 ff ff 	mov    %rax,-0x1848(%rbp)
   10fec:	48 8d 05 4d a0 00 00 	lea    0xa04d(%rip),%rax        # 1b040 <g_76>
   10ff3:	48 89 85 c0 e7 ff ff 	mov    %rax,-0x1840(%rbp)
   10ffa:	48 8d 05 2b a0 00 00 	lea    0xa02b(%rip),%rax        # 1b02c <g_63>
   11001:	48 89 85 c8 e7 ff ff 	mov    %rax,-0x1838(%rbp)
   11008:	48 8d 05 39 c8 00 00 	lea    0xc839(%rip),%rax        # 1d848 <g_153>
   1100f:	48 89 85 a0 e6 ff ff 	mov    %rax,-0x1960(%rbp)
   11016:	48 8d 85 a0 e6 ff ff 	lea    -0x1960(%rbp),%rax
   1101d:	48 89 85 d0 e7 ff ff 	mov    %rax,-0x1830(%rbp)
   11024:	c7 85 f4 e5 ff ff 7d 	movl   $0xb1b4a57d,-0x1a0c(%rbp)
   1102b:	a5 b4 b1 
   1102e:	48 8d 05 ab c7 00 00 	lea    0xc7ab(%rip),%rax        # 1d7e0 <g_61>
   11035:	48 89 85 d8 e7 ff ff 	mov    %rax,-0x1828(%rbp)
   1103c:	c7 85 cc e5 ff ff 00 	movl   $0x0,-0x1a34(%rbp)
   11043:	00 00 00 
   11046:	eb 1e                	jmp    11066 <func_42+0x1019>
   11048:	8b 85 cc e5 ff ff    	mov    -0x1a34(%rbp),%eax
   1104e:	48 98                	cltq   
   11050:	48 8d 15 18 a0 00 00 	lea    0xa018(%rip),%rdx        # 1b06f <g_157+0x7>
   11057:	48 89 94 c5 b0 ea ff 	mov    %rdx,-0x1550(%rbp,%rax,8)
   1105e:	ff 
   1105f:	83 85 cc e5 ff ff 01 	addl   $0x1,-0x1a34(%rbp)
   11066:	83 bd cc e5 ff ff 00 	cmpl   $0x0,-0x1a34(%rbp)
   1106d:	7e d9                	jle    11048 <func_42+0xffb>
   1106f:	48 8b 15 c2 c7 00 00 	mov    0xc7c2(%rip),%rdx        # 1d838 <g_111>
   11076:	48 8b 85 b0 e7 ff ff 	mov    -0x1850(%rbp),%rax
   1107d:	48 89 10             	mov    %rdx,(%rax)
   11080:	48 8b 85 b0 e7 ff ff 	mov    -0x1850(%rbp),%rax
   11087:	48 8b 10             	mov    (%rax),%rdx
   1108a:	48 8b 85 d0 e9 ff ff 	mov    -0x1630(%rbp),%rax
   11091:	48 39 c2             	cmp    %rax,%rdx
   11094:	0f 95 c0             	setne  %al
   11097:	0f b6 d0             	movzbl %al,%edx
   1109a:	48 8b 85 b8 e7 ff ff 	mov    -0x1848(%rbp),%rax
   110a1:	0f b7 00             	movzwl (%rax),%eax
   110a4:	8d 48 ff             	lea    -0x1(%rax),%ecx
   110a7:	48 8b 85 b8 e7 ff ff 	mov    -0x1848(%rbp),%rax
   110ae:	66 89 08             	mov    %cx,(%rax)
   110b1:	48 8b 85 b8 e7 ff ff 	mov    -0x1848(%rbp),%rax
   110b8:	0f b7 00             	movzwl (%rax),%eax
   110bb:	0f b7 c0             	movzwl %ax,%eax
   110be:	31 d0                	xor    %edx,%eax
   110c0:	83 e0 01             	and    $0x1,%eax
   110c3:	85 c0                	test   %eax,%eax
   110c5:	74 56                	je     1111d <func_42+0x10d0>
   110c7:	48 8d 05 82 9f 00 00 	lea    0x9f82(%rip),%rax        # 1b050 <g_91>
   110ce:	48 89 85 e0 e7 ff ff 	mov    %rax,-0x1820(%rbp)
   110d5:	48 8d 85 90 e6 ff ff 	lea    -0x1970(%rbp),%rax
   110dc:	48 89 85 20 fa ff ff 	mov    %rax,-0x5e0(%rbp)
   110e3:	48 8d 85 90 e6 ff ff 	lea    -0x1970(%rbp),%rax
   110ea:	48 89 85 28 fa ff ff 	mov    %rax,-0x5d8(%rbp)
   110f1:	48 8d 85 90 e6 ff ff 	lea    -0x1970(%rbp),%rax
   110f8:	48 89 85 30 fa ff ff 	mov    %rax,-0x5d0(%rbp)
   110ff:	48 8d 85 90 e6 ff ff 	lea    -0x1970(%rbp),%rax
   11106:	48 89 85 38 fa ff ff 	mov    %rax,-0x5c8(%rbp)
   1110d:	48 8b 85 d0 e6 ff ff 	mov    -0x1930(%rbp),%rax
   11114:	48 89 85 38 fa ff ff 	mov    %rax,-0x5c8(%rbp)
   1111b:	eb 72                	jmp    1118f <func_42+0x1142>
   1111d:	c7 85 f8 e5 ff ff f9 	movl   $0xfffffff9,-0x1a08(%rbp)
   11124:	ff ff ff 
   11127:	c7 85 c0 e5 ff ff fa 	movl   $0xfffffffa,-0x1a40(%rbp)
   1112e:	ff ff ff 
   11131:	c7 85 f8 e5 ff ff 01 	movl   $0x1,-0x1a08(%rbp)
   11138:	00 00 00 
   1113b:	66 c7 05 e8 9e 00 00 	movw   $0x0,0x9ee8(%rip)        # 1b02c <g_63>
   11142:	00 00 
   11144:	eb 3c                	jmp    11182 <func_42+0x1135>
   11146:	c6 05 03 9f 00 00 00 	movb   $0x0,0x9f03(%rip)        # 1b050 <g_91>
   1114d:	eb 10                	jmp    1115f <func_42+0x1112>
   1114f:	0f b6 05 fa 9e 00 00 	movzbl 0x9efa(%rip),%eax        # 1b050 <g_91>
   11156:	83 c0 01             	add    $0x1,%eax
   11159:	88 05 f1 9e 00 00    	mov    %al,0x9ef1(%rip)        # 1b050 <g_91>
   1115f:	0f b6 05 ea 9e 00 00 	movzbl 0x9eea(%rip),%eax        # 1b050 <g_91>
   11166:	84 c0                	test   %al,%al
   11168:	74 e5                	je     1114f <func_42+0x1102>
   1116a:	83 bd 5c e5 ff ff 00 	cmpl   $0x0,-0x1aa4(%rbp)
   11171:	0f b7 05 b4 9e 00 00 	movzwl 0x9eb4(%rip),%eax        # 1b02c <g_63>
   11178:	83 e8 01             	sub    $0x1,%eax
   1117b:	66 89 05 aa 9e 00 00 	mov    %ax,0x9eaa(%rip)        # 1b02c <g_63>
   11182:	0f b7 05 a3 9e 00 00 	movzwl 0x9ea3(%rip),%eax        # 1b02c <g_63>
   11189:	66 83 f8 fd          	cmp    $0xfffd,%ax
   1118d:	7d b7                	jge    11146 <func_42+0x10f9>
   1118f:	8b 05 cb 9e 00 00    	mov    0x9ecb(%rip),%eax        # 1b060 <g_131>
   11195:	b8 01 00 00 00       	mov    $0x1,%eax
   1119a:	48 63 d0             	movslq %eax,%rdx
   1119d:	48 8b 05 d4 9e 00 00 	mov    0x9ed4(%rip),%rax        # 1b078 <g_164>
   111a4:	48 21 d0             	and    %rdx,%rax
   111a7:	48 89 05 ca 9e 00 00 	mov    %rax,0x9eca(%rip)        # 1b078 <g_164>
   111ae:	48 8b 85 48 e6 ff ff 	mov    -0x19b8(%rbp),%rax
   111b5:	be 01 00 00 00       	mov    $0x1,%esi
   111ba:	48 89 c7             	mov    %rax,%rdi
   111bd:	e8 89 8e ff ff       	callq  a04b <safe_sub_func_uint64_t_u_u>
   111c2:	48 89 85 48 e6 ff ff 	mov    %rax,-0x19b8(%rbp)
   111c9:	48 8b 85 48 e6 ff ff 	mov    -0x19b8(%rbp),%rax
   111d0:	48 83 f8 0f          	cmp    $0xf,%rax
   111d4:	0f 8e eb fd ff ff    	jle    10fc5 <func_42+0xf78>
   111da:	48 8b 85 f8 e6 ff ff 	mov    -0x1908(%rbp),%rax
   111e1:	48 8d 95 78 e6 ff ff 	lea    -0x1988(%rbp),%rdx
   111e8:	48 89 10             	mov    %rdx,(%rax)
   111eb:	8b 85 58 e5 ff ff    	mov    -0x1aa8(%rbp),%eax
   111f1:	48 63 d0             	movslq %eax,%rdx
   111f4:	48 8b 85 40 e6 ff ff 	mov    -0x19c0(%rbp),%rax
   111fb:	48 8b 00             	mov    (%rax),%rax
   111fe:	48 c7 00 01 00 00 00 	movq   $0x1,(%rax)
   11205:	48 8b 00             	mov    (%rax),%rax
   11208:	48 89 d6             	mov    %rdx,%rsi
   1120b:	48 89 c7             	mov    %rax,%rdi
   1120e:	e8 2e 86 ff ff       	callq  9841 <safe_add_func_int64_t_s_s>
   11213:	48 85 c0             	test   %rax,%rax
   11216:	74 39                	je     11251 <func_42+0x1204>
   11218:	c7 85 f0 e5 ff ff 3f 	movl   $0xb50db93f,-0x1a10(%rbp)
   1121f:	b9 0d b5 
   11222:	c7 85 f0 e5 ff ff fb 	movl   $0xfffffffb,-0x1a10(%rbp)
   11229:	ff ff ff 
   1122c:	48 8b 85 f8 e6 ff ff 	mov    -0x1908(%rbp),%rax
   11233:	48 8b 00             	mov    (%rax),%rax
   11236:	8b 08                	mov    (%rax),%ecx
   11238:	8b 95 4c e5 ff ff    	mov    -0x1ab4(%rbp),%edx
   1123e:	48 8b 85 f8 e6 ff ff 	mov    -0x1908(%rbp),%rax
   11245:	48 8b 00             	mov    (%rax),%rax
   11248:	31 ca                	xor    %ecx,%edx
   1124a:	89 10                	mov    %edx,(%rax)
   1124c:	e9 c8 09 00 00       	jmpq   11c19 <func_42+0x1bcc>
   11251:	c7 85 c4 e5 ff ff 7e 	movl   $0x6f2a087e,-0x1a3c(%rbp)
   11258:	08 2a 6f 
   1125b:	48 8d 85 48 e6 ff ff 	lea    -0x19b8(%rbp),%rax
   11262:	48 89 85 18 e7 ff ff 	mov    %rax,-0x18e8(%rbp)
   11269:	48 c7 85 98 e6 ff ff 	movq   $0x1,-0x1968(%rbp)
   11270:	01 00 00 00 
   11274:	48 8d 05 cd e1 00 00 	lea    0xe1cd(%rip),%rax        # 1f448 <g_113>
   1127b:	48 89 85 a0 e6 ff ff 	mov    %rax,-0x1960(%rbp)
   11282:	48 8d 85 a0 e6 ff ff 	lea    -0x1960(%rbp),%rax
   11289:	48 89 85 20 e7 ff ff 	mov    %rax,-0x18e0(%rbp)
   11290:	c7 85 b4 e5 ff ff fc 	movl   $0xfffffffc,-0x1a4c(%rbp)
   11297:	ff ff ff 
   1129a:	48 8d 85 30 ea ff ff 	lea    -0x15d0(%rbp),%rax
   112a1:	48 83 c0 10          	add    $0x10,%rax
   112a5:	48 89 85 28 e7 ff ff 	mov    %rax,-0x18d8(%rbp)
   112ac:	c6 85 70 e6 ff ff ff 	movb   $0xff,-0x1990(%rbp)
   112b3:	48 b8 97 d4 cf ca ab 	movabs $0xb34dccabcacfd497,%rax
   112ba:	cc 4d b3 
   112bd:	48 89 85 30 e7 ff ff 	mov    %rax,-0x18d0(%rbp)
   112c4:	48 8d 05 59 9d 00 00 	lea    0x9d59(%rip),%rax        # 1b024 <g_17>
   112cb:	48 89 85 38 e7 ff ff 	mov    %rax,-0x18c8(%rbp)
   112d2:	f3 0f 1e fa          	endbr64 
   112d6:	48 8b 85 f8 e6 ff ff 	mov    -0x1908(%rbp),%rax
   112dd:	48 8b 00             	mov    (%rax),%rax
   112e0:	8b 10                	mov    (%rax),%edx
   112e2:	48 8b 85 f8 e6 ff ff 	mov    -0x1908(%rbp),%rax
   112e9:	48 8b 00             	mov    (%rax),%rax
   112ec:	81 e2 97 bb dc dc    	and    $0xdcdcbb97,%edx
   112f2:	89 10                	mov    %edx,(%rax)
   112f4:	8b 05 86 9d 00 00    	mov    0x9d86(%rip),%eax        # 1b080 <g_183>
   112fa:	85 c0                	test   %eax,%eax
   112fc:	0f 95 c0             	setne  %al
   112ff:	0f b6 c0             	movzbl %al,%eax
   11302:	33 85 c4 e5 ff ff    	xor    -0x1a3c(%rbp),%eax
   11308:	f7 d0                	not    %eax
   1130a:	89 c2                	mov    %eax,%edx
   1130c:	8b 85 58 e5 ff ff    	mov    -0x1aa8(%rbp),%eax
   11312:	39 c2                	cmp    %eax,%edx
   11314:	0f 96 c0             	setbe  %al
   11317:	0f b6 c0             	movzbl %al,%eax
   1131a:	89 c7                	mov    %eax,%edi
   1131c:	e8 85 8b ff ff       	callq  9ea6 <safe_unary_minus_func_uint32_t_u>
   11321:	89 c2                	mov    %eax,%edx
   11323:	48 8b 85 38 e6 ff ff 	mov    -0x19c8(%rbp),%rax
   1132a:	89 d2                	mov    %edx,%edx
   1132c:	48 89 10             	mov    %rdx,(%rax)
   1132f:	48 8b 00             	mov    (%rax),%rax
   11332:	48 85 c0             	test   %rax,%rax
   11335:	75 0a                	jne    11341 <func_42+0x12f4>
   11337:	8b 85 54 e5 ff ff    	mov    -0x1aac(%rbp),%eax
   1133d:	85 c0                	test   %eax,%eax
   1133f:	74 07                	je     11348 <func_42+0x12fb>
   11341:	b8 01 00 00 00       	mov    $0x1,%eax
   11346:	eb 05                	jmp    1134d <func_42+0x1300>
   11348:	b8 00 00 00 00       	mov    $0x0,%eax
   1134d:	0f be d8             	movsbl %al,%ebx
   11350:	48 8b 85 f8 e6 ff ff 	mov    -0x1908(%rbp),%rax
   11357:	48 8b 00             	mov    (%rax),%rax
   1135a:	8b 95 c4 e5 ff ff    	mov    -0x1a3c(%rbp),%edx
   11360:	89 10                	mov    %edx,(%rax)
   11362:	8b 00                	mov    (%rax),%eax
   11364:	41 89 c4             	mov    %eax,%r12d
   11367:	8b 85 58 e5 ff ff    	mov    -0x1aa8(%rbp),%eax
   1136d:	0f b7 c0             	movzwl %ax,%eax
   11370:	be 03 00 00 00       	mov    $0x3,%esi
   11375:	89 c7                	mov    %eax,%edi
   11377:	e8 fe 8a ff ff       	callq  9e7a <safe_rshift_func_uint16_t_u_u>
   1137c:	44 31 e0             	xor    %r12d,%eax
   1137f:	0f be c0             	movsbl %al,%eax
   11382:	89 de                	mov    %ebx,%esi
   11384:	89 c7                	mov    %eax,%edi
   11386:	e8 a6 7e ff ff       	callq  9231 <safe_mod_func_int8_t_s_s>
   1138b:	48 0f be d0          	movsbq %al,%rdx
   1138f:	48 8b 85 18 e7 ff ff 	mov    -0x18e8(%rbp),%rax
   11396:	48 89 10             	mov    %rdx,(%rax)
   11399:	48 8b 85 18 e7 ff ff 	mov    -0x18e8(%rbp),%rax
   113a0:	48 8b 00             	mov    (%rax),%rax
   113a3:	48 89 c6             	mov    %rax,%rsi
   113a6:	48 bf dd 9b 00 c1 e1 	movabs $0x83796ee1c1009bdd,%rdi
   113ad:	6e 79 83 
   113b0:	e8 8c 84 ff ff       	callq  9841 <safe_add_func_int64_t_s_s>
   113b5:	0f b6 15 95 9c 00 00 	movzbl 0x9c95(%rip),%edx        # 1b051 <g_100>
   113bc:	0f b6 d2             	movzbl %dl,%edx
   113bf:	48 39 d0             	cmp    %rdx,%rax
   113c2:	0f 95 c0             	setne  %al
   113c5:	0f b6 d0             	movzbl %al,%edx
   113c8:	8b 85 c4 e5 ff ff    	mov    -0x1a3c(%rbp),%eax
   113ce:	89 d6                	mov    %edx,%esi
   113d0:	89 c7                	mov    %eax,%edi
   113d2:	e8 df 81 ff ff       	callq  95b6 <safe_add_func_int32_t_s_s>
   113d7:	be 10 8d 6e 55       	mov    $0x556e8d10,%esi
   113dc:	89 c7                	mov    %eax,%edi
   113de:	e8 d5 8a ff ff       	callq  9eb8 <safe_add_func_uint32_t_u_u>
   113e3:	66 c7 85 6a e5 ff ff 	movw   $0xbf53,-0x1a96(%rbp)
   113ea:	53 bf 
   113ec:	48 8d 05 39 9c 00 00 	lea    0x9c39(%rip),%rax        # 1b02c <g_63>
   113f3:	48 89 85 40 e7 ff ff 	mov    %rax,-0x18c0(%rbp)
   113fa:	c7 85 b8 e5 ff ff 00 	movl   $0x0,-0x1a48(%rbp)
   11401:	00 00 00 
   11404:	eb 1a                	jmp    11420 <func_42+0x13d3>
   11406:	8b 85 b8 e5 ff ff    	mov    -0x1a48(%rbp),%eax
   1140c:	48 98                	cltq   
   1140e:	c7 84 85 b0 ea ff ff 	movl   $0x0,-0x1550(%rbp,%rax,4)
   11415:	00 00 00 00 
   11419:	83 85 b8 e5 ff ff 01 	addl   $0x1,-0x1a48(%rbp)
   11420:	83 bd b8 e5 ff ff 04 	cmpl   $0x4,-0x1a48(%rbp)
   11427:	7e dd                	jle    11406 <func_42+0x13b9>
   11429:	c7 85 c4 e5 ff ff f3 	movl   $0xfffffff3,-0x1a3c(%rbp)
   11430:	ff ff ff 
   11433:	e9 b1 02 00 00       	jmpq   116e9 <func_42+0x169c>
   11438:	48 8d 05 59 9c 00 00 	lea    0x9c59(%rip),%rax        # 1b098 <g_189>
   1143f:	48 89 85 88 e7 ff ff 	mov    %rax,-0x1878(%rbp)
   11446:	48 8d 85 90 f0 ff ff 	lea    -0xf70(%rbp),%rax
   1144d:	48 05 a0 02 00 00    	add    $0x2a0,%rax
   11453:	48 89 85 90 e7 ff ff 	mov    %rax,-0x1870(%rbp)
   1145a:	48 8b 85 88 e7 ff ff 	mov    -0x1878(%rbp),%rax
   11461:	48 8b 00             	mov    (%rax),%rax
   11464:	48 8d 48 01          	lea    0x1(%rax),%rcx
   11468:	48 8b 95 88 e7 ff ff 	mov    -0x1878(%rbp),%rdx
   1146f:	48 89 0a             	mov    %rcx,(%rdx)
   11472:	48 f7 d0             	not    %rax
   11475:	89 c2                	mov    %eax,%edx
   11477:	0f b7 85 6a e5 ff ff 	movzwl -0x1a96(%rbp),%eax
   1147e:	09 d0                	or     %edx,%eax
   11480:	66 89 85 6a e5 ff ff 	mov    %ax,-0x1a96(%rbp)
   11487:	48 8b 85 90 e7 ff ff 	mov    -0x1870(%rbp),%rax
   1148e:	48 8d 95 4c e5 ff ff 	lea    -0x1ab4(%rbp),%rdx
   11495:	48 89 10             	mov    %rdx,(%rax)
   11498:	66 c7 85 6a e5 ff ff 	movw   $0xffe8,-0x1a96(%rbp)
   1149f:	e8 ff 
   114a1:	e9 1c 02 00 00       	jmpq   116c2 <func_42+0x1675>
   114a6:	48 8d 05 f3 9b 00 00 	lea    0x9bf3(%rip),%rax        # 1b0a0 <g_198>
   114ad:	48 89 85 20 fa ff ff 	mov    %rax,-0x5e0(%rbp)
   114b4:	48 8d 05 e5 9b 00 00 	lea    0x9be5(%rip),%rax        # 1b0a0 <g_198>
   114bb:	48 89 85 28 fa ff ff 	mov    %rax,-0x5d8(%rbp)
   114c2:	48 8d 05 d7 9b 00 00 	lea    0x9bd7(%rip),%rax        # 1b0a0 <g_198>
   114c9:	48 89 85 30 fa ff ff 	mov    %rax,-0x5d0(%rbp)
   114d0:	48 8d 05 c9 9b 00 00 	lea    0x9bc9(%rip),%rax        # 1b0a0 <g_198>
   114d7:	48 89 85 38 fa ff ff 	mov    %rax,-0x5c8(%rbp)
   114de:	48 8d 05 bb 9b 00 00 	lea    0x9bbb(%rip),%rax        # 1b0a0 <g_198>
   114e5:	48 89 85 40 fa ff ff 	mov    %rax,-0x5c0(%rbp)
   114ec:	48 8d 05 ad 9b 00 00 	lea    0x9bad(%rip),%rax        # 1b0a0 <g_198>
   114f3:	48 89 85 48 fa ff ff 	mov    %rax,-0x5b8(%rbp)
   114fa:	48 8d 85 20 fa ff ff 	lea    -0x5e0(%rbp),%rax
   11501:	48 83 c0 18          	add    $0x18,%rax
   11505:	48 89 85 98 e7 ff ff 	mov    %rax,-0x1868(%rbp)
   1150c:	c7 85 ec e5 ff ff 7c 	movl   $0x4e85f7c,-0x1a14(%rbp)
   11513:	5f e8 04 
   11516:	48 8d 85 50 e6 ff ff 	lea    -0x19b0(%rbp),%rax
   1151d:	48 89 85 a0 e7 ff ff 	mov    %rax,-0x1860(%rbp)
   11524:	48 8b 85 98 e7 ff ff 	mov    -0x1868(%rbp),%rax
   1152b:	48 c7 00 00 00 00 00 	movq   $0x0,(%rax)
   11532:	be 09 00 00 00       	mov    $0x9,%esi
   11537:	bf 05 00 00 00       	mov    $0x5,%edi
   1153c:	e8 07 89 ff ff       	callq  9e48 <safe_rshift_func_uint16_t_u_s>
   11541:	0f b7 05 f8 9a 00 00 	movzwl 0x9af8(%rip),%eax        # 1b040 <g_76>
   11548:	66 89 85 4a e5 ff ff 	mov    %ax,-0x1ab6(%rbp)
   1154f:	48 8b 05 f2 c2 00 00 	mov    0xc2f2(%rip),%rax        # 1d848 <g_153>
   11556:	0f b6 00             	movzbl (%rax),%eax
   11559:	0f b6 d8             	movzbl %al,%ebx
   1155c:	0f b7 05 fd 9a 00 00 	movzwl 0x9afd(%rip),%eax        # 1b060 <g_131>
   11563:	44 0f b7 e0          	movzwl %ax,%r12d
   11567:	8b 95 c4 e5 ff ff    	mov    -0x1a3c(%rbp),%edx
   1156d:	8b 05 b5 9a 00 00    	mov    0x9ab5(%rip),%eax        # 1b028 <g_59>
   11573:	48 98                	cltq   
   11575:	48 89 d6             	mov    %rdx,%rsi
   11578:	48 89 c7             	mov    %rax,%rdi
   1157b:	e8 ae 8a ff ff       	callq  a02e <safe_add_func_uint64_t_u_u>
   11580:	49 89 c7             	mov    %rax,%r15
   11583:	8b 85 ec e5 ff ff    	mov    -0x1a14(%rbp),%eax
   11589:	44 0f be e8          	movsbl %al,%r13d
   1158d:	48 8b 85 80 e6 ff ff 	mov    -0x1980(%rbp),%rax
   11594:	48 85 c0             	test   %rax,%rax
   11597:	0f 95 c0             	setne  %al
   1159a:	0f b6 d0             	movzbl %al,%edx
   1159d:	48 8b 85 88 e7 ff ff 	mov    -0x1878(%rbp),%rax
   115a4:	48 89 10             	mov    %rdx,(%rax)
   115a7:	48 8b 85 f8 e6 ff ff 	mov    -0x1908(%rbp),%rax
   115ae:	48 8b 00             	mov    (%rax),%rax
   115b1:	8b 00                	mov    (%rax),%eax
   115b3:	4c 63 f0             	movslq %eax,%r14
   115b6:	48 8b 85 f8 e6 ff ff 	mov    -0x1908(%rbp),%rax
   115bd:	48 8b 00             	mov    (%rax),%rax
   115c0:	8b 10                	mov    (%rax),%edx
   115c2:	0f b7 85 6a e5 ff ff 	movzwl -0x1a96(%rbp),%eax
   115c9:	0f b7 c0             	movzwl %ax,%eax
   115cc:	89 d6                	mov    %edx,%esi
   115ce:	89 c7                	mov    %eax,%edi
   115d0:	e8 73 88 ff ff       	callq  9e48 <safe_rshift_func_uint16_t_u_s>
   115d5:	0f b7 c0             	movzwl %ax,%eax
   115d8:	4c 89 f6             	mov    %r14,%rsi
   115db:	48 89 c7             	mov    %rax,%rdi
   115de:	e8 5e 82 ff ff       	callq  9841 <safe_add_func_int64_t_s_s>
   115e3:	be d9 49 00 00       	mov    $0x49d9,%esi
   115e8:	bf 48 c6 00 00       	mov    $0xc648,%edi
   115ed:	e8 14 88 ff ff       	callq  9e06 <safe_lshift_func_uint16_t_u_u>
   115f2:	0f b7 c0             	movzwl %ax,%eax
   115f5:	f7 d0                	not    %eax
   115f7:	89 85 b4 ea ff ff    	mov    %eax,-0x154c(%rbp)
   115fd:	8b 85 b4 ea ff ff    	mov    -0x154c(%rbp),%eax
   11603:	3d e0 02 00 00       	cmp    $0x2e0,%eax
   11608:	0f 9f c0             	setg   %al
   1160b:	0f b6 d0             	movzbl %al,%edx
   1160e:	48 8b 85 18 e7 ff ff 	mov    -0x18e8(%rbp),%rax
   11615:	48 89 10             	mov    %rdx,(%rax)
   11618:	44 89 ee             	mov    %r13d,%esi
   1161b:	bf 6f 00 00 00       	mov    $0x6f,%edi
   11620:	e8 45 7c ff ff       	callq  926a <safe_div_func_int8_t_s_s>
   11625:	0f be c0             	movsbl %al,%eax
   11628:	39 85 ec e5 ff ff    	cmp    %eax,-0x1a14(%rbp)
   1162e:	0f 9c c0             	setl   %al
   11631:	0f b6 c0             	movzbl %al,%eax
   11634:	49 39 c7             	cmp    %rax,%r15
   11637:	0f 92 c0             	setb   %al
   1163a:	0f b6 c0             	movzbl %al,%eax
   1163d:	be 08 00 00 00       	mov    $0x8,%esi
   11642:	89 c7                	mov    %eax,%edi
   11644:	e8 1a 7f ff ff       	callq  9563 <safe_rshift_func_int16_t_s_u>
   11649:	48 8b 85 f8 e6 ff ff 	mov    -0x1908(%rbp),%rax
   11650:	48 8b 00             	mov    (%rax),%rax
   11653:	8b 00                	mov    (%rax),%eax
   11655:	39 85 50 e5 ff ff    	cmp    %eax,-0x1ab0(%rbp)
   1165b:	0f 9e c0             	setle  %al
   1165e:	0f b6 c0             	movzbl %al,%eax
   11661:	be 07 00 00 00       	mov    $0x7,%esi
   11666:	89 c7                	mov    %eax,%edi
   11668:	e8 df 85 ff ff       	callq  9c4c <safe_lshift_func_uint8_t_u_u>
   1166d:	0f b6 c0             	movzbl %al,%eax
   11670:	44 89 e6             	mov    %r12d,%esi
   11673:	89 c7                	mov    %eax,%edi
   11675:	e8 14 87 ff ff       	callq  9d8e <safe_div_func_uint16_t_u_u>
   1167a:	0f be c0             	movsbl %al,%eax
   1167d:	89 de                	mov    %ebx,%esi
   1167f:	89 c7                	mov    %eax,%edi
   11681:	e8 e6 7c ff ff       	callq  936c <safe_rshift_func_int8_t_s_u>
   11686:	66 98                	cbtw   
   11688:	66 39 85 4a e5 ff ff 	cmp    %ax,-0x1ab6(%rbp)
   1168f:	48 8b 95 50 e6 ff ff 	mov    -0x19b0(%rbp),%rdx
   11696:	48 8b 85 a0 e7 ff ff 	mov    -0x1860(%rbp),%rax
   1169d:	48 89 10             	mov    %rdx,(%rax)
   116a0:	8b 85 4c e5 ff ff    	mov    -0x1ab4(%rbp),%eax
   116a6:	85 c0                	test   %eax,%eax
   116a8:	0f bf 85 6a e5 ff ff 	movswl -0x1a96(%rbp),%eax
   116af:	be 02 00 00 00       	mov    $0x2,%esi
   116b4:	89 c7                	mov    %eax,%edi
   116b6:	e8 fb 7e ff ff       	callq  95b6 <safe_add_func_int32_t_s_s>
   116bb:	66 89 85 6a e5 ff ff 	mov    %ax,-0x1a96(%rbp)
   116c2:	66 83 bd 6a e5 ff ff 	cmpw   $0xfff0,-0x1a96(%rbp)
   116c9:	f0 
   116ca:	0f 85 d6 fd ff ff    	jne    114a6 <func_42+0x1459>
   116d0:	8b 85 c4 e5 ff ff    	mov    -0x1a3c(%rbp),%eax
   116d6:	be 04 00 00 00       	mov    $0x4,%esi
   116db:	48 89 c7             	mov    %rax,%rdi
   116de:	e8 4b 89 ff ff       	callq  a02e <safe_add_func_uint64_t_u_u>
   116e3:	89 85 c4 e5 ff ff    	mov    %eax,-0x1a3c(%rbp)
   116e9:	83 bd c4 e5 ff ff 26 	cmpl   $0x26,-0x1a3c(%rbp)
   116f0:	0f 85 42 fd ff ff    	jne    11438 <func_42+0x13eb>
   116f6:	66 c7 85 6a e5 ff ff 	movw   $0x6,-0x1a96(%rbp)
   116fd:	06 00 
   116ff:	e9 f1 01 00 00       	jmpq   118f5 <func_42+0x18a8>
   11704:	c7 85 bc e5 ff ff 00 	movl   $0x0,-0x1a44(%rbp)
   1170b:	00 00 00 
   1170e:	eb 1a                	jmp    1172a <func_42+0x16dd>
   11710:	8b 85 bc e5 ff ff    	mov    -0x1a44(%rbp),%eax
   11716:	48 98                	cltq   
   11718:	c7 84 85 20 fa ff ff 	movl   $0xaf4e41d6,-0x5e0(%rbp,%rax,4)
   1171f:	d6 41 4e af 
   11723:	83 85 bc e5 ff ff 01 	addl   $0x1,-0x1a44(%rbp)
   1172a:	83 bd bc e5 ff ff 04 	cmpl   $0x4,-0x1a44(%rbp)
   11731:	7e dd                	jle    11710 <func_42+0x16c3>
   11733:	83 bd 5c e5 ff ff 00 	cmpl   $0x0,-0x1aa4(%rbp)
   1173a:	0f 85 c5 01 00 00    	jne    11905 <func_42+0x18b8>
   11740:	66 c7 05 e7 98 00 00 	movw   $0x0,0x98e7(%rip)        # 1b030 <g_66>
   11747:	00 00 
   11749:	e9 58 01 00 00       	jmpq   118a6 <func_42+0x1859>
   1174e:	48 b8 4c c1 18 cf 9e 	movabs $0x56cbf89ecf18c14c,%rax
   11755:	f8 cb 56 
   11758:	48 89 85 48 e7 ff ff 	mov    %rax,-0x18b8(%rbp)
   1175f:	48 8d 05 da 98 00 00 	lea    0x98da(%rip),%rax        # 1b040 <g_76>
   11766:	48 89 85 50 e7 ff ff 	mov    %rax,-0x18b0(%rbp)
   1176d:	48 8d 05 b8 98 00 00 	lea    0x98b8(%rip),%rax        # 1b02c <g_63>
   11774:	48 89 85 58 e7 ff ff 	mov    %rax,-0x18a8(%rbp)
   1177b:	0f b6 05 e9 98 00 00 	movzbl 0x98e9(%rip),%eax        # 1b06b <g_157+0x3>
   11782:	0f be d0             	movsbl %al,%edx
   11785:	0f bf 8d 6a e5 ff ff 	movswl -0x1a96(%rbp),%ecx
   1178c:	48 8b 05 85 c0 00 00 	mov    0xc085(%rip),%rax        # 1d818 <g_106>
   11793:	48 8b 00             	mov    (%rax),%rax
   11796:	48 85 c0             	test   %rax,%rax
   11799:	0f 95 c0             	setne  %al
   1179c:	0f b6 c0             	movzbl %al,%eax
   1179f:	39 c1                	cmp    %eax,%ecx
   117a1:	0f 9d c0             	setge  %al
   117a4:	0f b6 c8             	movzbl %al,%ecx
   117a7:	48 8b 85 50 e7 ff ff 	mov    -0x18b0(%rbp),%rax
   117ae:	66 89 08             	mov    %cx,(%rax)
   117b1:	48 8b 85 50 e7 ff ff 	mov    -0x18b0(%rbp),%rax
   117b8:	0f b7 00             	movzwl (%rax),%eax
   117bb:	98                   	cwtl   
   117bc:	89 85 74 e5 ff ff    	mov    %eax,-0x1a8c(%rbp)
   117c2:	8b 85 74 e5 ff ff    	mov    -0x1a8c(%rbp),%eax
   117c8:	89 c1                	mov    %eax,%ecx
   117ca:	48 8b 85 58 e7 ff ff 	mov    -0x18a8(%rbp),%rax
   117d1:	66 89 08             	mov    %cx,(%rax)
   117d4:	48 8b 85 58 e7 ff ff 	mov    -0x18a8(%rbp),%rax
   117db:	0f b7 00             	movzwl (%rax),%eax
   117de:	98                   	cwtl   
   117df:	89 d6                	mov    %edx,%esi
   117e1:	89 c7                	mov    %eax,%edi
   117e3:	e8 aa 7c ff ff       	callq  9492 <safe_lshift_func_int16_t_s_s>
   117e8:	48 83 bd 20 e7 ff ff 	cmpq   $0x0,-0x18e0(%rbp)
   117ef:	00 
   117f0:	0f 95 c0             	setne  %al
   117f3:	0f b6 d8             	movzbl %al,%ebx
   117f6:	0f b6 05 a3 98 00 00 	movzbl 0x98a3(%rip),%eax        # 1b0a0 <g_198>
   117fd:	0f be d0             	movsbl %al,%edx
   11800:	8b 85 50 e5 ff ff    	mov    -0x1ab0(%rbp),%eax
   11806:	89 d6                	mov    %edx,%esi
   11808:	89 c7                	mov    %eax,%edi
   1180a:	e8 a9 86 ff ff       	callq  9eb8 <safe_add_func_uint32_t_u_u>
   1180f:	21 d8                	and    %ebx,%eax
   11811:	89 c2                	mov    %eax,%edx
   11813:	48 8b 85 50 e7 ff ff 	mov    -0x18b0(%rbp),%rax
   1181a:	66 89 10             	mov    %dx,(%rax)
   1181d:	48 8b 85 50 e7 ff ff 	mov    -0x18b0(%rbp),%rax
   11824:	0f b7 00             	movzwl (%rax),%eax
   11827:	98                   	cwtl   
   11828:	89 c7                	mov    %eax,%edi
   1182a:	e8 6e 7b ff ff       	callq  939d <safe_unary_minus_func_int16_t_s>
   1182f:	0f be c0             	movsbl %al,%eax
   11832:	be 04 00 00 00       	mov    $0x4,%esi
   11837:	89 c7                	mov    %eax,%edi
   11839:	e8 f7 7a ff ff       	callq  9335 <safe_rshift_func_int8_t_s_s>
   1183e:	48 83 bd 48 e7 ff ff 	cmpq   $0x1,-0x18b8(%rbp)
   11845:	01 
   11846:	0f 9f c0             	setg   %al
   11849:	0f b6 d0             	movzbl %al,%edx
   1184c:	48 8b 85 f8 e6 ff ff 	mov    -0x1908(%rbp),%rax
   11853:	48 8b 00             	mov    (%rax),%rax
   11856:	8b 00                	mov    (%rax),%eax
   11858:	21 d0                	and    %edx,%eax
   1185a:	0f b7 c0             	movzwl %ax,%eax
   1185d:	be ce 93 00 00       	mov    $0x93ce,%esi
   11862:	89 c7                	mov    %eax,%edi
   11864:	e8 d4 84 ff ff       	callq  9d3d <safe_mul_func_uint16_t_u_u>
   11869:	8b 85 b4 ea ff ff    	mov    -0x154c(%rbp),%eax
   1186f:	89 85 2c fa ff ff    	mov    %eax,-0x5d4(%rbp)
   11875:	8b 95 2c fa ff ff    	mov    -0x5d4(%rbp),%edx
   1187b:	8b 85 b4 e5 ff ff    	mov    -0x1a4c(%rbp),%eax
   11881:	09 d0                	or     %edx,%eax
   11883:	89 85 b4 e5 ff ff    	mov    %eax,-0x1a4c(%rbp)
   11889:	8b 85 b4 e5 ff ff    	mov    -0x1a4c(%rbp),%eax
   1188f:	09 85 e0 e5 ff ff    	or     %eax,-0x1a20(%rbp)
   11895:	0f b7 05 94 97 00 00 	movzwl 0x9794(%rip),%eax        # 1b030 <g_66>
   1189c:	83 c0 01             	add    $0x1,%eax
   1189f:	66 89 05 8a 97 00 00 	mov    %ax,0x978a(%rip)        # 1b030 <g_66>
   118a6:	0f b7 05 83 97 00 00 	movzwl 0x9783(%rip),%eax        # 1b030 <g_66>
   118ad:	66 83 f8 03          	cmp    $0x3,%ax
   118b1:	0f 85 97 fe ff ff    	jne    1174e <func_42+0x1701>
   118b7:	48 8b 85 f8 e6 ff ff 	mov    -0x1908(%rbp),%rax
   118be:	48 8b 00             	mov    (%rax),%rax
   118c1:	8b 10                	mov    (%rax),%edx
   118c3:	48 8b 85 f8 e6 ff ff 	mov    -0x1908(%rbp),%rax
   118ca:	48 8b 00             	mov    (%rax),%rax
   118cd:	81 f2 e4 e9 3c 1e    	xor    $0x1e3ce9e4,%edx
   118d3:	89 10                	mov    %edx,(%rax)
   118d5:	0f b7 85 6a e5 ff ff 	movzwl -0x1a96(%rbp),%eax
   118dc:	0f b6 c0             	movzbl %al,%eax
   118df:	be 03 00 00 00       	mov    $0x3,%esi
   118e4:	89 c7                	mov    %eax,%edi
   118e6:	e8 8d 82 ff ff       	callq  9b78 <safe_sub_func_uint8_t_u_u>
   118eb:	0f b6 c0             	movzbl %al,%eax
   118ee:	66 89 85 6a e5 ff ff 	mov    %ax,-0x1a96(%rbp)
   118f5:	66 83 bd 6a e5 ff ff 	cmpw   $0xffe7,-0x1a96(%rbp)
   118fc:	e7 
   118fd:	0f 8c 01 fe ff ff    	jl     11704 <func_42+0x16b7>
   11903:	eb 01                	jmp    11906 <func_42+0x18b9>
   11905:	90                   	nop
   11906:	c6 05 43 97 00 00 05 	movb   $0x5,0x9743(%rip)        # 1b050 <g_91>
   1190d:	e9 32 01 00 00       	jmpq   11a44 <func_42+0x19f7>
   11912:	66 c7 85 6a e5 ff ff 	movw   $0x0,-0x1a96(%rbp)
   11919:	00 00 
   1191b:	e9 a8 00 00 00       	jmpq   119c8 <func_42+0x197b>
   11920:	66 c7 05 17 97 00 00 	movw   $0x0,0x9717(%rip)        # 1b040 <g_76>
   11927:	00 00 
   11929:	eb 7b                	jmp    119a6 <func_42+0x1959>
   1192b:	c7 05 6b 97 00 00 00 	movl   $0x0,0x976b(%rip)        # 1b0a0 <g_198>
   11932:	00 00 00 
   11935:	eb 53                	jmp    1198a <func_42+0x193d>
   11937:	0f bf 95 6a e5 ff ff 	movswl -0x1a96(%rbp),%edx
   1193e:	0f b7 05 fb 96 00 00 	movzwl 0x96fb(%rip),%eax        # 1b040 <g_76>
   11945:	98                   	cwtl   
   11946:	8b 0d 54 97 00 00    	mov    0x9754(%rip),%ecx        # 1b0a0 <g_198>
   1194c:	89 ce                	mov    %ecx,%esi
   1194e:	48 63 d2             	movslq %edx,%rdx
   11951:	48 63 c8             	movslq %eax,%rcx
   11954:	48 89 d0             	mov    %rdx,%rax
   11957:	48 01 c0             	add    %rax,%rax
   1195a:	48 01 d0             	add    %rdx,%rax
   1195d:	48 c1 e0 02          	shl    $0x2,%rax
   11961:	48 89 ca             	mov    %rcx,%rdx
   11964:	48 01 d2             	add    %rdx,%rdx
   11967:	48 01 ca             	add    %rcx,%rdx
   1196a:	48 01 d0             	add    %rdx,%rax
   1196d:	48 01 f0             	add    %rsi,%rax
   11970:	c7 84 85 c0 f6 ff ff 	movl   $0x2b18033,-0x940(%rbp,%rax,4)
   11977:	33 80 b1 02 
   1197b:	8b 05 1f 97 00 00    	mov    0x971f(%rip),%eax        # 1b0a0 <g_198>
   11981:	83 c0 01             	add    $0x1,%eax
   11984:	89 05 16 97 00 00    	mov    %eax,0x9716(%rip)        # 1b0a0 <g_198>
   1198a:	8b 05 10 97 00 00    	mov    0x9710(%rip),%eax        # 1b0a0 <g_198>
   11990:	83 f8 02             	cmp    $0x2,%eax
   11993:	76 a2                	jbe    11937 <func_42+0x18ea>
   11995:	0f b7 05 a4 96 00 00 	movzwl 0x96a4(%rip),%eax        # 1b040 <g_76>
   1199c:	83 c0 01             	add    $0x1,%eax
   1199f:	66 89 05 9a 96 00 00 	mov    %ax,0x969a(%rip)        # 1b040 <g_76>
   119a6:	0f b7 05 93 96 00 00 	movzwl 0x9693(%rip),%eax        # 1b040 <g_76>
   119ad:	66 83 f8 03          	cmp    $0x3,%ax
   119b1:	0f 8e 74 ff ff ff    	jle    1192b <func_42+0x18de>
   119b7:	0f b7 85 6a e5 ff ff 	movzwl -0x1a96(%rbp),%eax
   119be:	83 c0 01             	add    $0x1,%eax
   119c1:	66 89 85 6a e5 ff ff 	mov    %ax,-0x1a96(%rbp)
   119c8:	66 83 bd 6a e5 ff ff 	cmpw   $0x4,-0x1a96(%rbp)
   119cf:	04 
   119d0:	0f 8e 4a ff ff ff    	jle    11920 <func_42+0x18d3>
   119d6:	c7 85 b4 e5 ff ff 1a 	movl   $0x1a,-0x1a4c(%rbp)
   119dd:	00 00 00 
   119e0:	eb 46                	jmp    11a28 <func_42+0x19db>
   119e2:	48 c7 85 80 e7 ff ff 	movq   $0x0,-0x1880(%rbp)
   119e9:	00 00 00 00 
   119ed:	48 8b 85 f8 e6 ff ff 	mov    -0x1908(%rbp),%rax
   119f4:	48 8b 00             	mov    (%rax),%rax
   119f7:	8b 00                	mov    (%rax),%eax
   119f9:	85 c0                	test   %eax,%eax
   119fb:	75 36                	jne    11a33 <func_42+0x19e6>
   119fd:	48 8b 85 40 e7 ff ff 	mov    -0x18c0(%rbp),%rax
   11a04:	48 89 85 00 e7 ff ff 	mov    %rax,-0x1900(%rbp)
   11a0b:	8b 85 54 e5 ff ff    	mov    -0x1aac(%rbp),%eax
   11a11:	85 c0                	test   %eax,%eax
   11a13:	75 0b                	jne    11a20 <func_42+0x19d3>
   11a15:	0f b6 85 98 e6 ff ff 	movzbl -0x1968(%rbp),%eax
   11a1c:	84 c0                	test   %al,%al
   11a1e:	eb 01                	jmp    11a21 <func_42+0x19d4>
   11a20:	90                   	nop
   11a21:	83 ad b4 e5 ff ff 01 	subl   $0x1,-0x1a4c(%rbp)
   11a28:	83 bd b4 e5 ff ff e3 	cmpl   $0xffffffe3,-0x1a4c(%rbp)
   11a2f:	7d b1                	jge    119e2 <func_42+0x1995>
   11a31:	eb 01                	jmp    11a34 <func_42+0x19e7>
   11a33:	90                   	nop
   11a34:	0f b6 05 15 96 00 00 	movzbl 0x9615(%rip),%eax        # 1b050 <g_91>
   11a3b:	83 c0 01             	add    $0x1,%eax
   11a3e:	88 05 0c 96 00 00    	mov    %al,0x960c(%rip)        # 1b050 <g_91>
   11a44:	0f b6 05 05 96 00 00 	movzbl 0x9605(%rip),%eax        # 1b050 <g_91>
   11a4b:	3c 19                	cmp    $0x19,%al
   11a4d:	0f 86 bf fe ff ff    	jbe    11912 <func_42+0x18c5>
   11a53:	48 8b 85 f8 e6 ff ff 	mov    -0x1908(%rbp),%rax
   11a5a:	48 8b 00             	mov    (%rax),%rax
   11a5d:	c7 00 ff ff ff ff    	movl   $0xffffffff,(%rax)
   11a63:	48 c7 85 48 e6 ff ff 	movq   $0x0,-0x19b8(%rbp)
   11a6a:	00 00 00 00 
   11a6e:	e9 92 01 00 00       	jmpq   11c05 <func_42+0x1bb8>
   11a73:	48 8d 85 30 e6 ff ff 	lea    -0x19d0(%rbp),%rax
   11a7a:	48 89 85 60 e7 ff ff 	mov    %rax,-0x18a0(%rbp)
   11a81:	48 8d 05 e8 95 00 00 	lea    0x95e8(%rip),%rax        # 1b070 <g_162>
   11a88:	48 89 85 68 e7 ff ff 	mov    %rax,-0x1898(%rbp)
   11a8f:	c7 85 e8 e5 ff ff 00 	movl   $0x0,-0x1a18(%rbp)
   11a96:	00 00 00 
   11a99:	48 c7 85 70 e7 ff ff 	movq   $0x0,-0x1890(%rbp)
   11aa0:	00 00 00 00 
   11aa4:	48 8d 85 70 e6 ff ff 	lea    -0x1990(%rbp),%rax
   11aab:	48 89 85 78 e7 ff ff 	mov    %rax,-0x1888(%rbp)
   11ab2:	48 8d 85 20 fa ff ff 	lea    -0x5e0(%rbp),%rax
   11ab9:	48 8d 15 00 b4 00 00 	lea    0xb400(%rip),%rdx        # 1cec0 <g_3673+0x1120>
   11ac0:	b9 46 00 00 00       	mov    $0x46,%ecx
   11ac5:	48 89 c7             	mov    %rax,%rdi
   11ac8:	48 89 d6             	mov    %rdx,%rsi
   11acb:	f3 48 a5             	rep movsq %ds:(%rsi),%es:(%rdi)
   11ace:	c6 85 66 e5 ff ff 76 	movb   $0x76,-0x1a9a(%rbp)
   11ad5:	48 8b 95 30 e6 ff ff 	mov    -0x19d0(%rbp),%rdx
   11adc:	48 8b 85 60 e7 ff ff 	mov    -0x18a0(%rbp),%rax
   11ae3:	48 89 10             	mov    %rdx,(%rax)
   11ae6:	8b 9d 5c e5 ff ff    	mov    -0x1aa4(%rbp),%ebx
   11aec:	48 8b 85 28 e7 ff ff 	mov    -0x18d8(%rbp),%rax
   11af3:	48 8b 00             	mov    (%rax),%rax
   11af6:	44 8b 20             	mov    (%rax),%r12d
   11af9:	48 8b 85 08 e7 ff ff 	mov    -0x18f8(%rbp),%rax
   11b00:	8b 00                	mov    (%rax),%eax
   11b02:	89 c2                	mov    %eax,%edx
   11b04:	48 8b 85 68 e7 ff ff 	mov    -0x1898(%rbp),%rax
   11b0b:	89 10                	mov    %edx,(%rax)
   11b0d:	48 8b 85 68 e7 ff ff 	mov    -0x1898(%rbp),%rax
   11b14:	8b 00                	mov    (%rax),%eax
   11b16:	83 f8 ff             	cmp    $0xffffffff,%eax
   11b19:	0f 95 c0             	setne  %al
   11b1c:	0f b6 c0             	movzbl %al,%eax
   11b1f:	89 c6                	mov    %eax,%esi
   11b21:	bf 01 00 00 00       	mov    $0x1,%edi
   11b26:	e8 da 80 ff ff       	callq  9c05 <safe_lshift_func_uint8_t_u_s>
   11b2b:	48 83 bd 38 e7 ff ff 	cmpq   $0x0,-0x18c8(%rbp)
   11b32:	00 
   11b33:	0f 95 c0             	setne  %al
   11b36:	0f b6 c0             	movzbl %al,%eax
   11b39:	89 c7                	mov    %eax,%edi
   11b3b:	e8 66 83 ff ff       	callq  9ea6 <safe_unary_minus_func_uint32_t_u>
   11b40:	83 c8 01             	or     $0x1,%eax
   11b43:	44 89 e6             	mov    %r12d,%esi
   11b46:	89 c7                	mov    %eax,%edi
   11b48:	e8 69 7a ff ff       	callq  95b6 <safe_add_func_int32_t_s_s>
   11b4d:	39 85 e8 e5 ff ff    	cmp    %eax,-0x1a18(%rbp)
   11b53:	0f 95 c2             	setne  %dl
   11b56:	48 8b 85 d0 e6 ff ff 	mov    -0x1930(%rbp),%rax
   11b5d:	48 8b 00             	mov    (%rax),%rax
   11b60:	88 10                	mov    %dl,(%rax)
   11b62:	0f b6 10             	movzbl (%rax),%edx
   11b65:	48 8b 85 78 e7 ff ff 	mov    -0x1888(%rbp),%rax
   11b6c:	0f b6 00             	movzbl (%rax),%eax
   11b6f:	21 c2                	and    %eax,%edx
   11b71:	48 8b 85 78 e7 ff ff 	mov    -0x1888(%rbp),%rax
   11b78:	88 10                	mov    %dl,(%rax)
   11b7a:	48 8b 85 78 e7 ff ff 	mov    -0x1888(%rbp),%rax
   11b81:	0f b6 00             	movzbl (%rax),%eax
   11b84:	0f b6 c0             	movzbl %al,%eax
   11b87:	89 de                	mov    %ebx,%esi
   11b89:	89 c7                	mov    %eax,%edi
   11b8b:	e8 fd 80 ff ff       	callq  9c8d <safe_rshift_func_uint8_t_u_s>
   11b90:	8b 05 aa 98 00 00    	mov    0x98aa(%rip),%eax        # 1b440 <g_411>
   11b96:	c7 85 e8 e5 ff ff 01 	movl   $0x1,-0x1a18(%rbp)
   11b9d:	00 00 00 
   11ba0:	8b 85 e8 e5 ff ff    	mov    -0x1a18(%rbp),%eax
   11ba6:	89 c6                	mov    %eax,%esi
   11ba8:	bf b4 99 ad 7a       	mov    $0x7aad99b4,%edi
   11bad:	e8 06 83 ff ff       	callq  9eb8 <safe_add_func_uint32_t_u_u>
   11bb2:	0f b6 c0             	movzbl %al,%eax
   11bb5:	be 02 00 00 00       	mov    $0x2,%esi
   11bba:	89 c7                	mov    %eax,%edi
   11bbc:	e8 44 80 ff ff       	callq  9c05 <safe_lshift_func_uint8_t_u_s>
   11bc1:	0f b6 c0             	movzbl %al,%eax
   11bc4:	8b 95 5c e5 ff ff    	mov    -0x1aa4(%rbp),%edx
   11bca:	89 d6                	mov    %edx,%esi
   11bcc:	89 c7                	mov    %eax,%edi
   11bce:	e8 e5 82 ff ff       	callq  9eb8 <safe_add_func_uint32_t_u_u>
   11bd3:	48 8b 85 f8 e6 ff ff 	mov    -0x1908(%rbp),%rax
   11bda:	48 8b 00             	mov    (%rax),%rax
   11bdd:	0f be 95 66 e5 ff ff 	movsbl -0x1a9a(%rbp),%edx
   11be4:	89 10                	mov    %edx,(%rax)
   11be6:	48 8b 05 3b c5 00 00 	mov    0xc53b(%rip),%rax        # 1e128 <g_333>
   11bed:	8b 00                	mov    (%rax),%eax
   11bef:	85 c0                	test   %eax,%eax
   11bf1:	75 25                	jne    11c18 <func_42+0x1bcb>
   11bf3:	48 8b 85 48 e6 ff ff 	mov    -0x19b8(%rbp),%rax
   11bfa:	48 83 c0 01          	add    $0x1,%rax
   11bfe:	48 89 85 48 e6 ff ff 	mov    %rax,-0x19b8(%rbp)
   11c05:	48 8b 85 48 e6 ff ff 	mov    -0x19b8(%rbp),%rax
   11c0c:	48 83 f8 16          	cmp    $0x16,%rax
   11c10:	0f 8f 5d fe ff ff    	jg     11a73 <func_42+0x1a26>
   11c16:	eb 01                	jmp    11c19 <func_42+0x1bcc>
   11c18:	90                   	nop
   11c19:	66 83 85 6c e5 ff ff 	addw   $0x1,-0x1a94(%rbp)
   11c20:	01 
   11c21:	66 c7 05 02 94 00 00 	movw   $0xffff,0x9402(%rip)        # 1b02c <g_63>
   11c28:	ff ff 
   11c2a:	e9 07 16 00 00       	jmpq   13236 <func_42+0x31e9>
   11c2f:	48 8d 85 60 e6 ff ff 	lea    -0x19a0(%rbp),%rax
   11c36:	48 89 85 38 e8 ff ff 	mov    %rax,-0x17c8(%rbp)
   11c3d:	48 8d 05 44 c5 00 00 	lea    0xc544(%rip),%rax        # 1e188 <g_424>
   11c44:	48 89 85 40 e8 ff ff 	mov    %rax,-0x17c0(%rbp)
   11c4b:	48 8d 05 fe d7 00 00 	lea    0xd7fe(%rip),%rax        # 1f450 <g_120>
   11c52:	48 89 85 48 e8 ff ff 	mov    %rax,-0x17b8(%rbp)
   11c59:	c7 85 a0 e5 ff ff 01 	movl   $0x1,-0x1a60(%rbp)
   11c60:	00 00 00 
   11c63:	48 c7 85 50 e8 ff ff 	movq   $0x0,-0x17b0(%rbp)
   11c6a:	00 00 00 00 
   11c6e:	48 8d 05 23 94 00 00 	lea    0x9423(%rip),%rax        # 1b098 <g_189>
   11c75:	48 89 85 58 e8 ff ff 	mov    %rax,-0x17a8(%rbp)
   11c7c:	48 c7 85 60 e8 ff ff 	movq   $0x0,-0x17a0(%rbp)
   11c83:	00 00 00 00 
   11c87:	48 8d 85 30 ea ff ff 	lea    -0x15d0(%rbp),%rax
   11c8e:	48 83 c0 70          	add    $0x70,%rax
   11c92:	48 89 85 68 e8 ff ff 	mov    %rax,-0x1798(%rbp)
   11c99:	48 b8 2b 36 e8 a0 a5 	movabs $0x9193b4a5a0e8362b,%rax
   11ca0:	b4 93 91 
   11ca3:	48 89 85 70 e6 ff ff 	mov    %rax,-0x1990(%rbp)
   11caa:	c7 85 04 e6 ff ff 03 	movl   $0xb1ea3303,-0x19fc(%rbp)
   11cb1:	33 ea b1 
   11cb4:	c7 85 08 e6 ff ff 55 	movl   $0x30a29255,-0x19f8(%rbp)
   11cbb:	92 a2 30 
   11cbe:	c7 85 0c e6 ff ff 01 	movl   $0x1,-0x19f4(%rbp)
   11cc5:	00 00 00 
   11cc8:	c7 85 10 e6 ff ff 00 	movl   $0x0,-0x19f0(%rbp)
   11ccf:	00 00 00 
   11cd2:	c7 85 a4 e5 ff ff ff 	movl   $0xffffffff,-0x1a5c(%rbp)
   11cd9:	ff ff ff 
   11cdc:	c7 85 f0 e8 ff ff 06 	movl   $0xb1769106,-0x1710(%rbp)
   11ce3:	91 76 b1 
   11ce6:	c7 85 f4 e8 ff ff 00 	movl   $0x0,-0x170c(%rbp)
   11ced:	00 00 00 
   11cf0:	c7 85 f8 e8 ff ff 06 	movl   $0xb1769106,-0x1708(%rbp)
   11cf7:	91 76 b1 
   11cfa:	c7 85 fc e8 ff ff 00 	movl   $0x0,-0x1704(%rbp)
   11d01:	00 00 00 
   11d04:	c7 85 00 e9 ff ff 06 	movl   $0xb1769106,-0x1700(%rbp)
   11d0b:	91 76 b1 
   11d0e:	c7 85 04 e9 ff ff 00 	movl   $0x0,-0x16fc(%rbp)
   11d15:	00 00 00 
   11d18:	c7 85 08 e9 ff ff 06 	movl   $0xb1769106,-0x16f8(%rbp)
   11d1f:	91 76 b1 
   11d22:	c7 85 0c e9 ff ff 00 	movl   $0x0,-0x16f4(%rbp)
   11d29:	00 00 00 
   11d2c:	48 c7 85 70 e8 ff ff 	movq   $0xfffffffffffffff7,-0x1790(%rbp)
   11d33:	f7 ff ff ff 
   11d37:	48 8d 05 fa 92 00 00 	lea    0x92fa(%rip),%rax        # 1b038 <g_73>
   11d3e:	48 89 85 78 e6 ff ff 	mov    %rax,-0x1988(%rbp)
   11d45:	48 8d 85 78 e6 ff ff 	lea    -0x1988(%rbp),%rax
   11d4c:	48 89 85 80 e6 ff ff 	mov    %rax,-0x1980(%rbp)
   11d53:	48 8d 85 80 e6 ff ff 	lea    -0x1980(%rbp),%rax
   11d5a:	48 89 85 88 e6 ff ff 	mov    %rax,-0x1978(%rbp)
   11d61:	48 8d 95 b0 ea ff ff 	lea    -0x1550(%rbp),%rdx
   11d68:	b8 00 00 00 00       	mov    $0x0,%eax
   11d6d:	b9 18 00 00 00       	mov    $0x18,%ecx
   11d72:	48 89 d7             	mov    %rdx,%rdi
   11d75:	f3 48 ab             	rep stos %rax,%es:(%rdi)
   11d78:	48 8d 85 88 e6 ff ff 	lea    -0x1978(%rbp),%rax
   11d7f:	48 89 85 10 eb ff ff 	mov    %rax,-0x14f0(%rbp)
   11d86:	48 8d 85 88 e6 ff ff 	lea    -0x1978(%rbp),%rax
   11d8d:	48 89 85 20 eb ff ff 	mov    %rax,-0x14e0(%rbp)
   11d94:	48 8d 85 88 e6 ff ff 	lea    -0x1978(%rbp),%rax
   11d9b:	48 89 85 38 eb ff ff 	mov    %rax,-0x14c8(%rbp)
   11da2:	48 8d 85 88 e6 ff ff 	lea    -0x1978(%rbp),%rax
   11da9:	48 89 85 48 eb ff ff 	mov    %rax,-0x14b8(%rbp)
   11db0:	c6 85 67 e5 ff ff a8 	movb   $0xa8,-0x1a99(%rbp)
   11db7:	c7 85 a8 e5 ff ff 00 	movl   $0x0,-0x1a58(%rbp)
   11dbe:	00 00 00 
   11dc1:	eb 22                	jmp    11de5 <func_42+0x1d98>
   11dc3:	8b 85 a8 e5 ff ff    	mov    -0x1a58(%rbp),%eax
   11dc9:	48 98                	cltq   
   11dcb:	48 8d 95 b0 ea ff ff 	lea    -0x1550(%rbp),%rdx
   11dd2:	48 83 c2 60          	add    $0x60,%rdx
   11dd6:	48 89 94 c5 d0 e8 ff 	mov    %rdx,-0x1730(%rbp,%rax,8)
   11ddd:	ff 
   11dde:	83 85 a8 e5 ff ff 01 	addl   $0x1,-0x1a58(%rbp)
   11de5:	83 bd a8 e5 ff ff 02 	cmpl   $0x2,-0x1a58(%rbp)
   11dec:	7e d5                	jle    11dc3 <func_42+0x1d76>
   11dee:	48 8b 05 e3 92 00 00 	mov    0x92e3(%rip),%rax        # 1b0d8 <g_320+0x18>
   11df5:	8b 85 50 e5 ff ff    	mov    -0x1ab0(%rbp),%eax
   11dfb:	0f b7 d8             	movzwl %ax,%ebx
   11dfe:	8b 85 a0 e5 ff ff    	mov    -0x1a60(%rbp),%eax
   11e04:	0f be d0             	movsbl %al,%edx
   11e07:	8b 85 4c e5 ff ff    	mov    -0x1ab4(%rbp),%eax
   11e0d:	83 f8 59             	cmp    $0x59,%eax
   11e10:	0f 9f c0             	setg   %al
   11e13:	0f b6 c0             	movzbl %al,%eax
   11e16:	89 d6                	mov    %edx,%esi
   11e18:	89 c7                	mov    %eax,%edi
   11e1a:	e8 12 74 ff ff       	callq  9231 <safe_mod_func_int8_t_s_s>
   11e1f:	8b 05 1b 96 00 00    	mov    0x961b(%rip),%eax        # 1b440 <g_411>
   11e25:	0f b7 c0             	movzwl %ax,%eax
   11e28:	89 de                	mov    %ebx,%esi
   11e2a:	89 c7                	mov    %eax,%edi
   11e2c:	e8 5d 7f ff ff       	callq  9d8e <safe_div_func_uint16_t_u_u>
   11e31:	0f b7 d0             	movzwl %ax,%edx
   11e34:	8b 85 4c e5 ff ff    	mov    -0x1ab4(%rbp),%eax
   11e3a:	39 c2                	cmp    %eax,%edx
   11e3c:	0f 95 c0             	setne  %al
   11e3f:	0f b6 c0             	movzbl %al,%eax
   11e42:	39 85 5c e5 ff ff    	cmp    %eax,-0x1aa4(%rbp)
   11e48:	0f 95 c0             	setne  %al
   11e4b:	0f b6 d0             	movzbl %al,%edx
   11e4e:	48 8b 85 58 e8 ff ff 	mov    -0x17a8(%rbp),%rax
   11e55:	48 89 10             	mov    %rdx,(%rax)
   11e58:	8b 85 4c e5 ff ff    	mov    -0x1ab4(%rbp),%eax
   11e5e:	85 c0                	test   %eax,%eax
   11e60:	75 0a                	jne    11e6c <func_42+0x1e1f>
   11e62:	48 8b 05 cf 91 00 00 	mov    0x91cf(%rip),%rax        # 1b038 <g_73>
   11e69:	48 85 c0             	test   %rax,%rax
   11e6c:	0f b7 05 d5 95 00 00 	movzwl 0x95d5(%rip),%eax        # 1b448 <g_435>
   11e73:	48 8b 85 38 e6 ff ff 	mov    -0x19c8(%rbp),%rax
   11e7a:	8b 95 50 e5 ff ff    	mov    -0x1ab0(%rbp),%edx
   11e80:	48 63 d2             	movslq %edx,%rdx
   11e83:	48 89 10             	mov    %rdx,(%rax)
   11e86:	48 8b 08             	mov    (%rax),%rcx
   11e89:	48 8b 85 58 e6 ff ff 	mov    -0x19a8(%rbp),%rax
   11e90:	48 8b 10             	mov    (%rax),%rdx
   11e93:	48 8b 85 58 e6 ff ff 	mov    -0x19a8(%rbp),%rax
   11e9a:	48 09 ca             	or     %rcx,%rdx
   11e9d:	48 89 10             	mov    %rdx,(%rax)
   11ea0:	48 8b 00             	mov    (%rax),%rax
   11ea3:	48 83 f8 01          	cmp    $0x1,%rax
   11ea7:	0f 96 c0             	setbe  %al
   11eaa:	0f b6 d0             	movzbl %al,%edx
   11ead:	48 8b 0d d4 c2 00 00 	mov    0xc2d4(%rip),%rcx        # 1e188 <g_424>
   11eb4:	48 8b 85 40 e8 ff ff 	mov    -0x17c0(%rbp),%rax
   11ebb:	48 89 08             	mov    %rcx,(%rax)
   11ebe:	48 8b 85 40 e8 ff ff 	mov    -0x17c0(%rbp),%rax
   11ec5:	48 8b 00             	mov    (%rax),%rax
   11ec8:	48 39 85 38 e8 ff ff 	cmp    %rax,-0x17c8(%rbp)
   11ecf:	0f 95 c0             	setne  %al
   11ed2:	0f b6 c8             	movzbl %al,%ecx
   11ed5:	48 8b 85 48 e8 ff ff 	mov    -0x17b8(%rbp),%rax
   11edc:	66 89 08             	mov    %cx,(%rax)
   11edf:	48 8b 85 48 e8 ff ff 	mov    -0x17b8(%rbp),%rax
   11ee6:	0f b7 00             	movzwl (%rax),%eax
   11ee9:	0f b7 c0             	movzwl %ax,%eax
   11eec:	89 d6                	mov    %edx,%esi
   11eee:	89 c7                	mov    %eax,%edi
   11ef0:	e8 0a 7e ff ff       	callq  9cff <safe_add_func_uint16_t_u_u>
   11ef5:	0f b7 d0             	movzwl %ax,%edx
   11ef8:	0f b6 05 61 d5 00 00 	movzbl 0xd561(%rip),%eax        # 1f460 <g_224>
   11eff:	0f b6 c0             	movzbl %al,%eax
   11f02:	09 d0                	or     %edx,%eax
   11f04:	85 c0                	test   %eax,%eax
   11f06:	0f 84 fd 0e 00 00    	je     12e09 <func_42+0x2dbc>
   11f0c:	48 8d 05 35 91 00 00 	lea    0x9135(%rip),%rax        # 1b048 <g_81>
   11f13:	48 89 85 98 e8 ff ff 	mov    %rax,-0x1768(%rbp)
   11f1a:	c7 85 30 e9 ff ff a0 	movl   $0xb5af01a0,-0x16d0(%rbp)
   11f21:	01 af b5 
   11f24:	c7 85 34 e9 ff ff 06 	movl   $0x6,-0x16cc(%rbp)
   11f2b:	00 00 00 
   11f2e:	c7 85 38 e9 ff ff a0 	movl   $0xb5af01a0,-0x16c8(%rbp)
   11f35:	01 af b5 
   11f38:	c7 85 3c e9 ff ff ff 	movl   $0xffffffff,-0x16c4(%rbp)
   11f3f:	ff ff ff 
   11f42:	c7 85 40 e9 ff ff ff 	movl   $0xffffffff,-0x16c0(%rbp)
   11f49:	ff ff ff 
   11f4c:	c7 85 44 e9 ff ff a0 	movl   $0xb5af01a0,-0x16bc(%rbp)
   11f53:	01 af b5 
   11f56:	c7 85 48 e9 ff ff 06 	movl   $0x6,-0x16b8(%rbp)
   11f5d:	00 00 00 
   11f60:	c7 85 4c e9 ff ff a0 	movl   $0xb5af01a0,-0x16b4(%rbp)
   11f67:	01 af b5 
   11f6a:	c7 85 50 e9 ff ff a0 	movl   $0xb5af01a0,-0x16b0(%rbp)
   11f71:	01 af b5 
   11f74:	c7 85 54 e9 ff ff a0 	movl   $0xb5af01a0,-0x16ac(%rbp)
   11f7b:	01 af b5 
   11f7e:	c7 85 1c e6 ff ff 00 	movl   $0x0,-0x19e4(%rbp)
   11f85:	00 00 00 
   11f88:	48 c7 85 f0 e6 ff ff 	movq   $0xfffffffffffffffe,-0x1910(%rbp)
   11f8f:	fe ff ff ff 
   11f93:	48 8d 05 c6 d4 00 00 	lea    0xd4c6(%rip),%rax        # 1f460 <g_224>
   11f9a:	48 89 85 90 e6 ff ff 	mov    %rax,-0x1970(%rbp)
   11fa1:	c7 85 5c e5 ff ff 00 	movl   $0x0,-0x1aa4(%rbp)
   11fa8:	00 00 00 
   11fab:	e9 9f 08 00 00       	jmpq   1284f <func_42+0x2802>
   11fb0:	48 c7 85 b0 e8 ff ff 	movq   $0x0,-0x1750(%rbp)
   11fb7:	00 00 00 00 
   11fbb:	c7 85 d0 e9 ff ff a4 	movl   $0x8aae45a4,-0x1630(%rbp)
   11fc2:	45 ae 8a 
   11fc5:	c7 85 d4 e9 ff ff f6 	movl   $0xfffffff6,-0x162c(%rbp)
   11fcc:	ff ff ff 
   11fcf:	c7 85 d8 e9 ff ff a4 	movl   $0x8aae45a4,-0x1628(%rbp)
   11fd6:	45 ae 8a 
   11fd9:	c7 85 dc e9 ff ff 5d 	movl   $0x10c7025d,-0x1624(%rbp)
   11fe0:	02 c7 10 
   11fe3:	c7 85 e0 e9 ff ff f9 	movl   $0xfffffff9,-0x1620(%rbp)
   11fea:	ff ff ff 
   11fed:	c7 85 e4 e9 ff ff f9 	movl   $0xfffffff9,-0x161c(%rbp)
   11ff4:	ff ff ff 
   11ff7:	c7 85 e8 e9 ff ff fc 	movl   $0xfffffffc,-0x1618(%rbp)
   11ffe:	ff ff ff 
   12001:	c7 85 ec e9 ff ff f6 	movl   $0xfffffff6,-0x1614(%rbp)
   12008:	ff ff ff 
   1200b:	c7 85 f0 e9 ff ff fc 	movl   $0xfffffffc,-0x1610(%rbp)
   12012:	ff ff ff 
   12015:	c7 85 f4 e9 ff ff 5d 	movl   $0x10c7025d,-0x160c(%rbp)
   1201c:	02 c7 10 
   1201f:	c7 85 f8 e9 ff ff 5d 	movl   $0x10c7025d,-0x1608(%rbp)
   12026:	02 c7 10 
   12029:	c7 85 fc e9 ff ff f9 	movl   $0xfffffff9,-0x1604(%rbp)
   12030:	ff ff ff 
   12033:	c7 85 00 ea ff ff a4 	movl   $0x8aae45a4,-0x1600(%rbp)
   1203a:	45 ae 8a 
   1203d:	c7 85 04 ea ff ff f6 	movl   $0xfffffff6,-0x15fc(%rbp)
   12044:	ff ff ff 
   12047:	c7 85 08 ea ff ff a4 	movl   $0x8aae45a4,-0x15f8(%rbp)
   1204e:	45 ae 8a 
   12051:	c7 85 0c ea ff ff 5d 	movl   $0x10c7025d,-0x15f4(%rbp)
   12058:	02 c7 10 
   1205b:	c7 85 10 ea ff ff f9 	movl   $0xfffffff9,-0x15f0(%rbp)
   12062:	ff ff ff 
   12065:	c7 85 14 ea ff ff f9 	movl   $0xfffffff9,-0x15ec(%rbp)
   1206c:	ff ff ff 
   1206f:	c7 85 18 ea ff ff fc 	movl   $0xfffffffc,-0x15e8(%rbp)
   12076:	ff ff ff 
   12079:	c7 85 1c ea ff ff f6 	movl   $0xfffffff6,-0x15e4(%rbp)
   12080:	ff ff ff 
   12083:	c7 85 20 ea ff ff fc 	movl   $0xfffffffc,-0x15e0(%rbp)
   1208a:	ff ff ff 
   1208d:	48 c7 85 b8 e8 ff ff 	movq   $0x0,-0x1748(%rbp)
   12094:	00 00 00 00 
   12098:	c7 85 ac e5 ff ff 68 	movl   $0x7f0c868,-0x1a54(%rbp)
   1209f:	c8 f0 07 
   120a2:	c7 85 2c e6 ff ff 88 	movl   $0xb1141d88,-0x19d4(%rbp)
   120a9:	1d 14 b1 
   120ac:	48 8d 85 c0 f6 ff ff 	lea    -0x940(%rbp),%rax
   120b3:	48 8d 15 26 4d 00 00 	lea    0x4d26(%rip),%rdx        # 16de0 <g_2652+0xd74>
   120ba:	b9 6c 00 00 00       	mov    $0x6c,%ecx
   120bf:	48 89 c7             	mov    %rax,%rdi
   120c2:	48 89 d6             	mov    %rdx,%rsi
   120c5:	f3 48 a5             	rep movsq %ds:(%rsi),%es:(%rdi)
   120c8:	66 c7 85 72 e5 ff ff 	movw   $0xecd9,-0x1a8e(%rbp)
   120cf:	d9 ec 
   120d1:	48 8b 85 b0 e8 ff ff 	mov    -0x1750(%rbp),%rax
   120d8:	48 3b 85 60 e8 ff ff 	cmp    -0x17a0(%rbp),%rax
   120df:	0f 95 c0             	setne  %al
   120e2:	0f b6 d8             	movzbl %al,%ebx
   120e5:	48 8b 05 84 d3 00 00 	mov    0xd384(%rip),%rax        # 1f470 <g_444>
   120ec:	48 8b 85 d8 e6 ff ff 	mov    -0x1928(%rbp),%rax
   120f3:	48 8b 00             	mov    (%rax),%rax
   120f6:	48 8b 00             	mov    (%rax),%rax
   120f9:	48 39 85 98 e8 ff ff 	cmp    %rax,-0x1768(%rbp)
   12100:	0f 95 c0             	setne  %al
   12103:	0f b6 c0             	movzbl %al,%eax
   12106:	8b 95 4c e5 ff ff    	mov    -0x1ab4(%rbp),%edx
   1210c:	89 c6                	mov    %eax,%esi
   1210e:	89 d7                	mov    %edx,%edi
   12110:	e8 bb 7d ff ff       	callq  9ed0 <safe_sub_func_uint32_t_u_u>
   12115:	85 c0                	test   %eax,%eax
   12117:	74 33                	je     1214c <func_42+0x20ff>
   12119:	8b 95 4c e5 ff ff    	mov    -0x1ab4(%rbp),%edx
   1211f:	0f b7 0d 3a 8f 00 00 	movzwl 0x8f3a(%rip),%ecx        # 1b060 <g_131>
   12126:	0f b6 05 3b 8f 00 00 	movzbl 0x8f3b(%rip),%eax        # 1b068 <g_157>
   1212d:	66 98                	cbtw   
   1212f:	66 39 c1             	cmp    %ax,%cx
   12132:	0f 9c c0             	setl   %al
   12135:	0f b6 c0             	movzbl %al,%eax
   12138:	89 d6                	mov    %edx,%esi
   1213a:	89 c7                	mov    %eax,%edi
   1213c:	e8 f4 71 ff ff       	callq  9335 <safe_rshift_func_int8_t_s_s>
   12141:	84 c0                	test   %al,%al
   12143:	74 07                	je     1214c <func_42+0x20ff>
   12145:	b8 01 00 00 00       	mov    $0x1,%eax
   1214a:	eb 05                	jmp    12151 <func_42+0x2104>
   1214c:	b8 00 00 00 00       	mov    $0x0,%eax
   12151:	89 c6                	mov    %eax,%esi
   12153:	bf aa 1a af b9       	mov    $0xb9af1aaa,%edi
   12158:	e8 a0 7d ff ff       	callq  9efd <safe_mod_func_uint32_t_u_u>
   1215d:	0f be c0             	movsbl %al,%eax
   12160:	be 01 00 00 00       	mov    $0x1,%esi
   12165:	89 c7                	mov    %eax,%edi
   12167:	e8 a6 70 ff ff       	callq  9212 <safe_mul_func_int8_t_s_s>
   1216c:	0f be c0             	movsbl %al,%eax
   1216f:	39 c3                	cmp    %eax,%ebx
   12171:	0f 9c c0             	setl   %al
   12174:	0f b6 c0             	movzbl %al,%eax
   12177:	39 85 50 e5 ff ff    	cmp    %eax,-0x1ab0(%rbp)
   1217d:	0f 9d c0             	setge  %al
   12180:	0f b6 c0             	movzbl %al,%eax
   12183:	89 85 d0 e9 ff ff    	mov    %eax,-0x1630(%rbp)
   12189:	8b 9d 4c e5 ff ff    	mov    -0x1ab4(%rbp),%ebx
   1218f:	8b 85 58 e5 ff ff    	mov    -0x1aa8(%rbp),%eax
   12195:	0f be d0             	movsbl %al,%edx
   12198:	48 8d 85 90 f0 ff ff 	lea    -0xf70(%rbp),%rax
   1219f:	48 05 38 02 00 00    	add    $0x238,%rax
   121a5:	48 39 85 68 e8 ff ff 	cmp    %rax,-0x1798(%rbp)
   121ac:	0f 95 c0             	setne  %al
   121af:	0f b6 c0             	movzbl %al,%eax
   121b2:	89 d6                	mov    %edx,%esi
   121b4:	89 c7                	mov    %eax,%edi
   121b6:	e8 57 70 ff ff       	callq  9212 <safe_mul_func_int8_t_s_s>
   121bb:	3c 01                	cmp    $0x1,%al
   121bd:	0f 9f c0             	setg   %al
   121c0:	0f b6 c0             	movzbl %al,%eax
   121c3:	39 85 a0 e5 ff ff    	cmp    %eax,-0x1a60(%rbp)
   121c9:	0f 95 c0             	setne  %al
   121cc:	0f b6 d0             	movzbl %al,%edx
   121cf:	8b 85 0c ea ff ff    	mov    -0x15f4(%rbp),%eax
   121d5:	39 c2                	cmp    %eax,%edx
   121d7:	0f 9c c0             	setl   %al
   121da:	0f b6 c0             	movzbl %al,%eax
   121dd:	89 de                	mov    %ebx,%esi
   121df:	89 c7                	mov    %eax,%edi
   121e1:	e8 ac 72 ff ff       	callq  9492 <safe_lshift_func_int16_t_s_s>
   121e6:	98                   	cwtl   
   121e7:	0b 85 a0 e5 ff ff    	or     -0x1a60(%rbp),%eax
   121ed:	0b 85 5c e5 ff ff    	or     -0x1aa4(%rbp),%eax
   121f3:	89 c2                	mov    %eax,%edx
   121f5:	8b 85 ac e5 ff ff    	mov    -0x1a54(%rbp),%eax
   121fb:	21 d0                	and    %edx,%eax
   121fd:	89 85 ac e5 ff ff    	mov    %eax,-0x1a54(%rbp)
   12203:	66 c7 05 34 8e 00 00 	movw   $0x0,0x8e34(%rip)        # 1b040 <g_76>
   1220a:	00 00 
   1220c:	e9 27 06 00 00       	jmpq   12838 <func_42+0x27eb>
   12211:	48 8d 05 57 8e 00 00 	lea    0x8e57(%rip),%rax        # 1b06f <g_157+0x7>
   12218:	48 89 85 98 e6 ff ff 	mov    %rax,-0x1968(%rbp)
   1221f:	c7 85 60 e9 ff ff 26 	movl   $0x32486526,-0x16a0(%rbp)
   12226:	65 48 32 
   12229:	c7 85 64 e9 ff ff 24 	movl   $0xd038f224,-0x169c(%rbp)
   12230:	f2 38 d0 
   12233:	c7 85 68 e9 ff ff 26 	movl   $0x32486526,-0x1698(%rbp)
   1223a:	65 48 32 
   1223d:	c7 85 6c e9 ff ff 26 	movl   $0x32486526,-0x1694(%rbp)
   12244:	65 48 32 
   12247:	c7 85 70 e9 ff ff 24 	movl   $0xd038f224,-0x1690(%rbp)
   1224e:	f2 38 d0 
   12251:	c7 85 74 e9 ff ff 24 	movl   $0xd038f224,-0x168c(%rbp)
   12258:	f2 38 d0 
   1225b:	c7 85 78 e9 ff ff 26 	movl   $0x32486526,-0x1688(%rbp)
   12262:	65 48 32 
   12265:	c7 85 7c e9 ff ff 26 	movl   $0x32486526,-0x1684(%rbp)
   1226c:	65 48 32 
   1226f:	c7 85 80 e9 ff ff 24 	movl   $0xd038f224,-0x1680(%rbp)
   12276:	f2 38 d0 
   12279:	c7 85 84 e9 ff ff 26 	movl   $0x32486526,-0x167c(%rbp)
   12280:	65 48 32 
   12283:	48 8d 85 20 fa ff ff 	lea    -0x5e0(%rbp),%rax
   1228a:	48 8d 15 6f ae 00 00 	lea    0xae6f(%rip),%rdx        # 1d100 <g_3673+0x1360>
   12291:	b9 b4 00 00 00       	mov    $0xb4,%ecx
   12296:	48 89 c7             	mov    %rax,%rdi
   12299:	48 89 d6             	mov    %rdx,%rsi
   1229c:	f3 48 a5             	rep movsq %ds:(%rsi),%es:(%rdi)
   1229f:	48 8d 05 a4 91 00 00 	lea    0x91a4(%rip),%rax        # 1b44a <g_475>
   122a6:	48 89 85 c0 e8 ff ff 	mov    %rax,-0x1740(%rbp)
   122ad:	48 8d 05 97 91 00 00 	lea    0x9197(%rip),%rax        # 1b44b <g_477>
   122b4:	48 89 85 10 e9 ff ff 	mov    %rax,-0x16f0(%rbp)
   122bb:	48 8d 05 89 91 00 00 	lea    0x9189(%rip),%rax        # 1b44b <g_477>
   122c2:	48 89 85 18 e9 ff ff 	mov    %rax,-0x16e8(%rbp)
   122c9:	48 8d 05 7b 91 00 00 	lea    0x917b(%rip),%rax        # 1b44b <g_477>
   122d0:	48 89 85 20 e9 ff ff 	mov    %rax,-0x16e0(%rbp)
   122d7:	48 8d 05 6d 91 00 00 	lea    0x916d(%rip),%rax        # 1b44b <g_477>
   122de:	48 89 85 28 e9 ff ff 	mov    %rax,-0x16d8(%rbp)
   122e5:	48 8d 05 3c 8e 00 00 	lea    0x8e3c(%rip),%rax        # 1b128 <g_376>
   122ec:	48 89 85 a0 e6 ff ff 	mov    %rax,-0x1960(%rbp)
   122f3:	c6 85 69 e5 ff ff 01 	movb   $0x1,-0x1a97(%rbp)
   122fa:	48 8d 85 74 e5 ff ff 	lea    -0x1a8c(%rbp),%rax
   12301:	48 89 85 90 ee ff ff 	mov    %rax,-0x1170(%rbp)
   12308:	48 8d 85 74 e5 ff ff 	lea    -0x1a8c(%rbp),%rax
   1230f:	48 89 85 98 ee ff ff 	mov    %rax,-0x1168(%rbp)
   12316:	48 8d 85 74 e5 ff ff 	lea    -0x1a8c(%rbp),%rax
   1231d:	48 89 85 a0 ee ff ff 	mov    %rax,-0x1160(%rbp)
   12324:	48 8d 85 74 e5 ff ff 	lea    -0x1a8c(%rbp),%rax
   1232b:	48 89 85 a8 ee ff ff 	mov    %rax,-0x1158(%rbp)
   12332:	48 8d 85 74 e5 ff ff 	lea    -0x1a8c(%rbp),%rax
   12339:	48 89 85 b0 ee ff ff 	mov    %rax,-0x1150(%rbp)
   12340:	48 8d 85 74 e5 ff ff 	lea    -0x1a8c(%rbp),%rax
   12347:	48 89 85 b8 ee ff ff 	mov    %rax,-0x1148(%rbp)
   1234e:	48 8d 85 74 e5 ff ff 	lea    -0x1a8c(%rbp),%rax
   12355:	48 89 85 c0 ee ff ff 	mov    %rax,-0x1140(%rbp)
   1235c:	48 8d 85 74 e5 ff ff 	lea    -0x1a8c(%rbp),%rax
   12363:	48 89 85 c8 ee ff ff 	mov    %rax,-0x1138(%rbp)
   1236a:	48 8d 85 74 e5 ff ff 	lea    -0x1a8c(%rbp),%rax
   12371:	48 89 85 d0 ee ff ff 	mov    %rax,-0x1130(%rbp)
   12378:	48 8d 85 74 e5 ff ff 	lea    -0x1a8c(%rbp),%rax
   1237f:	48 89 85 d8 ee ff ff 	mov    %rax,-0x1128(%rbp)
   12386:	48 8d 85 74 e5 ff ff 	lea    -0x1a8c(%rbp),%rax
   1238d:	48 89 85 e0 ee ff ff 	mov    %rax,-0x1120(%rbp)
   12394:	48 c7 85 e8 ee ff ff 	movq   $0x0,-0x1118(%rbp)
   1239b:	00 00 00 00 
   1239f:	48 8d 85 74 e5 ff ff 	lea    -0x1a8c(%rbp),%rax
   123a6:	48 89 85 f0 ee ff ff 	mov    %rax,-0x1110(%rbp)
   123ad:	48 c7 85 f8 ee ff ff 	movq   $0x0,-0x1108(%rbp)
   123b4:	00 00 00 00 
   123b8:	48 8d 85 74 e5 ff ff 	lea    -0x1a8c(%rbp),%rax
   123bf:	48 89 85 00 ef ff ff 	mov    %rax,-0x1100(%rbp)
   123c6:	48 8d 85 74 e5 ff ff 	lea    -0x1a8c(%rbp),%rax
   123cd:	48 89 85 08 ef ff ff 	mov    %rax,-0x10f8(%rbp)
   123d4:	48 8d 85 74 e5 ff ff 	lea    -0x1a8c(%rbp),%rax
   123db:	48 89 85 10 ef ff ff 	mov    %rax,-0x10f0(%rbp)
   123e2:	48 c7 85 18 ef ff ff 	movq   $0x0,-0x10e8(%rbp)
   123e9:	00 00 00 00 
   123ed:	48 8d 85 74 e5 ff ff 	lea    -0x1a8c(%rbp),%rax
   123f4:	48 89 85 20 ef ff ff 	mov    %rax,-0x10e0(%rbp)
   123fb:	48 8d 85 74 e5 ff ff 	lea    -0x1a8c(%rbp),%rax
   12402:	48 89 85 28 ef ff ff 	mov    %rax,-0x10d8(%rbp)
   12409:	48 8d 85 74 e5 ff ff 	lea    -0x1a8c(%rbp),%rax
   12410:	48 89 85 30 ef ff ff 	mov    %rax,-0x10d0(%rbp)
   12417:	48 8d 85 74 e5 ff ff 	lea    -0x1a8c(%rbp),%rax
   1241e:	48 89 85 38 ef ff ff 	mov    %rax,-0x10c8(%rbp)
   12425:	48 8d 85 74 e5 ff ff 	lea    -0x1a8c(%rbp),%rax
   1242c:	48 89 85 40 ef ff ff 	mov    %rax,-0x10c0(%rbp)
   12433:	48 8d 85 74 e5 ff ff 	lea    -0x1a8c(%rbp),%rax
   1243a:	48 89 85 48 ef ff ff 	mov    %rax,-0x10b8(%rbp)
   12441:	48 8d 85 74 e5 ff ff 	lea    -0x1a8c(%rbp),%rax
   12448:	48 89 85 50 ef ff ff 	mov    %rax,-0x10b0(%rbp)
   1244f:	48 8d 85 74 e5 ff ff 	lea    -0x1a8c(%rbp),%rax
   12456:	48 89 85 58 ef ff ff 	mov    %rax,-0x10a8(%rbp)
   1245d:	48 8d 85 74 e5 ff ff 	lea    -0x1a8c(%rbp),%rax
   12464:	48 89 85 60 ef ff ff 	mov    %rax,-0x10a0(%rbp)
   1246b:	48 8d 85 74 e5 ff ff 	lea    -0x1a8c(%rbp),%rax
   12472:	48 89 85 68 ef ff ff 	mov    %rax,-0x1098(%rbp)
   12479:	48 8d 85 74 e5 ff ff 	lea    -0x1a8c(%rbp),%rax
   12480:	48 89 85 70 ef ff ff 	mov    %rax,-0x1090(%rbp)
   12487:	48 c7 85 78 ef ff ff 	movq   $0x0,-0x1088(%rbp)
   1248e:	00 00 00 00 
   12492:	48 8d 85 74 e5 ff ff 	lea    -0x1a8c(%rbp),%rax
   12499:	48 89 85 80 ef ff ff 	mov    %rax,-0x1080(%rbp)
   124a0:	48 c7 85 88 ef ff ff 	movq   $0x0,-0x1078(%rbp)
   124a7:	00 00 00 00 
   124ab:	48 8d 85 74 e5 ff ff 	lea    -0x1a8c(%rbp),%rax
   124b2:	48 89 85 90 ef ff ff 	mov    %rax,-0x1070(%rbp)
   124b9:	48 8d 85 74 e5 ff ff 	lea    -0x1a8c(%rbp),%rax
   124c0:	48 89 85 98 ef ff ff 	mov    %rax,-0x1068(%rbp)
   124c7:	48 8d 85 74 e5 ff ff 	lea    -0x1a8c(%rbp),%rax
   124ce:	48 89 85 a0 ef ff ff 	mov    %rax,-0x1060(%rbp)
   124d5:	48 c7 85 a8 ef ff ff 	movq   $0x0,-0x1058(%rbp)
   124dc:	00 00 00 00 
   124e0:	48 8d 85 74 e5 ff ff 	lea    -0x1a8c(%rbp),%rax
   124e7:	48 89 85 b0 ef ff ff 	mov    %rax,-0x1050(%rbp)
   124ee:	48 8d 85 74 e5 ff ff 	lea    -0x1a8c(%rbp),%rax
   124f5:	48 89 85 b8 ef ff ff 	mov    %rax,-0x1048(%rbp)
   124fc:	48 8d 85 74 e5 ff ff 	lea    -0x1a8c(%rbp),%rax
   12503:	48 89 85 c0 ef ff ff 	mov    %rax,-0x1040(%rbp)
   1250a:	48 8d 85 74 e5 ff ff 	lea    -0x1a8c(%rbp),%rax
   12511:	48 89 85 c8 ef ff ff 	mov    %rax,-0x1038(%rbp)
   12518:	48 8d 85 74 e5 ff ff 	lea    -0x1a8c(%rbp),%rax
   1251f:	48 89 85 d0 ef ff ff 	mov    %rax,-0x1030(%rbp)
   12526:	48 8d 85 74 e5 ff ff 	lea    -0x1a8c(%rbp),%rax
   1252d:	48 89 85 d8 ef ff ff 	mov    %rax,-0x1028(%rbp)
   12534:	48 8d 85 74 e5 ff ff 	lea    -0x1a8c(%rbp),%rax
   1253b:	48 89 85 e0 ef ff ff 	mov    %rax,-0x1020(%rbp)
   12542:	48 8d 85 74 e5 ff ff 	lea    -0x1a8c(%rbp),%rax
   12549:	48 89 85 e8 ef ff ff 	mov    %rax,-0x1018(%rbp)
   12550:	48 8d 85 74 e5 ff ff 	lea    -0x1a8c(%rbp),%rax
   12557:	48 89 85 f0 ef ff ff 	mov    %rax,-0x1010(%rbp)
   1255e:	48 8d 85 74 e5 ff ff 	lea    -0x1a8c(%rbp),%rax
   12565:	48 89 85 f8 ef ff ff 	mov    %rax,-0x1008(%rbp)
   1256c:	48 8d 85 74 e5 ff ff 	lea    -0x1a8c(%rbp),%rax
   12573:	48 89 85 00 f0 ff ff 	mov    %rax,-0x1000(%rbp)
   1257a:	48 c7 85 08 f0 ff ff 	movq   $0x0,-0xff8(%rbp)
   12581:	00 00 00 00 
   12585:	48 8d 85 74 e5 ff ff 	lea    -0x1a8c(%rbp),%rax
   1258c:	48 89 85 10 f0 ff ff 	mov    %rax,-0xff0(%rbp)
   12593:	48 c7 85 18 f0 ff ff 	movq   $0x0,-0xfe8(%rbp)
   1259a:	00 00 00 00 
   1259e:	48 8d 85 74 e5 ff ff 	lea    -0x1a8c(%rbp),%rax
   125a5:	48 89 85 20 f0 ff ff 	mov    %rax,-0xfe0(%rbp)
   125ac:	48 8d 85 74 e5 ff ff 	lea    -0x1a8c(%rbp),%rax
   125b3:	48 89 85 28 f0 ff ff 	mov    %rax,-0xfd8(%rbp)
   125ba:	48 8d 85 74 e5 ff ff 	lea    -0x1a8c(%rbp),%rax
   125c1:	48 89 85 30 f0 ff ff 	mov    %rax,-0xfd0(%rbp)
   125c8:	48 c7 85 38 f0 ff ff 	movq   $0x0,-0xfc8(%rbp)
   125cf:	00 00 00 00 
   125d3:	48 8d 85 74 e5 ff ff 	lea    -0x1a8c(%rbp),%rax
   125da:	48 89 85 40 f0 ff ff 	mov    %rax,-0xfc0(%rbp)
   125e1:	48 8d 85 74 e5 ff ff 	lea    -0x1a8c(%rbp),%rax
   125e8:	48 89 85 48 f0 ff ff 	mov    %rax,-0xfb8(%rbp)
   125ef:	48 8d 85 74 e5 ff ff 	lea    -0x1a8c(%rbp),%rax
   125f6:	48 89 85 50 f0 ff ff 	mov    %rax,-0xfb0(%rbp)
   125fd:	48 8d 85 74 e5 ff ff 	lea    -0x1a8c(%rbp),%rax
   12604:	48 89 85 58 f0 ff ff 	mov    %rax,-0xfa8(%rbp)
   1260b:	48 8d 85 74 e5 ff ff 	lea    -0x1a8c(%rbp),%rax
   12612:	48 89 85 60 f0 ff ff 	mov    %rax,-0xfa0(%rbp)
   12619:	48 8d 85 74 e5 ff ff 	lea    -0x1a8c(%rbp),%rax
   12620:	48 89 85 68 f0 ff ff 	mov    %rax,-0xf98(%rbp)
   12627:	48 8d 85 74 e5 ff ff 	lea    -0x1a8c(%rbp),%rax
   1262e:	48 89 85 70 f0 ff ff 	mov    %rax,-0xf90(%rbp)
   12635:	48 8d 85 74 e5 ff ff 	lea    -0x1a8c(%rbp),%rax
   1263c:	48 89 85 78 f0 ff ff 	mov    %rax,-0xf88(%rbp)
   12643:	48 8d 85 74 e5 ff ff 	lea    -0x1a8c(%rbp),%rax
   1264a:	48 89 85 80 f0 ff ff 	mov    %rax,-0xf80(%rbp)
   12651:	8b 85 a8 f9 ff ff    	mov    -0x658(%rbp),%eax
   12657:	0f be d8             	movsbl %al,%ebx
   1265a:	8b 95 30 e9 ff ff    	mov    -0x16d0(%rbp),%edx
   12660:	48 8b 85 98 e6 ff ff 	mov    -0x1968(%rbp),%rax
   12667:	88 10                	mov    %dl,(%rax)
   12669:	8b 85 64 e9 ff ff    	mov    -0x169c(%rbp),%eax
   1266f:	83 c8 75             	or     $0x75,%eax
   12672:	0f b6 c0             	movzbl %al,%eax
   12675:	be 04 00 00 00       	mov    $0x4,%esi
   1267a:	89 c7                	mov    %eax,%edi
   1267c:	e8 3d 76 ff ff       	callq  9cbe <safe_rshift_func_uint8_t_u_u>
   12681:	0f b6 c0             	movzbl %al,%eax
   12684:	89 c6                	mov    %eax,%esi
   12686:	bf ff ff ff ff       	mov    $0xffffffff,%edi
   1268b:	e8 51 6e ff ff       	callq  94e1 <safe_lshift_func_int16_t_s_u>
   12690:	0f bf d0             	movswl %ax,%edx
   12693:	8b 85 54 e5 ff ff    	mov    -0x1aac(%rbp),%eax
   12699:	39 c2                	cmp    %eax,%edx
   1269b:	0f 96 c0             	setbe  %al
   1269e:	0f b6 c0             	movzbl %al,%eax
   126a1:	be 0b 00 00 00       	mov    $0xb,%esi
   126a6:	89 c7                	mov    %eax,%edi
   126a8:	e8 cd 77 ff ff       	callq  9e7a <safe_rshift_func_uint16_t_u_u>
   126ad:	0f b7 c0             	movzwl %ax,%eax
   126b0:	48 8b 15 91 b1 00 00 	mov    0xb191(%rip),%rdx        # 1d848 <g_153>
   126b7:	c6 02 01             	movb   $0x1,(%rdx)
   126ba:	89 c6                	mov    %eax,%esi
   126bc:	bf 01 00 00 00       	mov    $0x1,%edi
   126c1:	e8 f8 75 ff ff       	callq  9cbe <safe_rshift_func_uint8_t_u_u>
   126c6:	b8 01 00 00 00       	mov    $0x1,%eax
   126cb:	66 89 05 fe 8c 00 00 	mov    %ax,0x8cfe(%rip)        # 1b3d0 <g_406+0x290>
   126d2:	0f b7 05 f7 8c 00 00 	movzwl 0x8cf7(%rip),%eax        # 1b3d0 <g_406+0x290>
   126d9:	0f bf d0             	movswl %ax,%edx
   126dc:	8b 05 ae 89 00 00    	mov    0x89ae(%rip),%eax        # 1b090 <g_183+0x10>
   126e2:	39 c2                	cmp    %eax,%edx
   126e4:	0f 95 c0             	setne  %al
   126e7:	89 c2                	mov    %eax,%edx
   126e9:	48 8b 85 c0 e8 ff ff 	mov    -0x1740(%rbp),%rax
   126f0:	88 10                	mov    %dl,(%rax)
   126f2:	48 8b 85 c0 e8 ff ff 	mov    -0x1740(%rbp),%rax
   126f9:	0f b6 00             	movzbl (%rax),%eax
   126fc:	0f b6 c0             	movzbl %al,%eax
   126ff:	89 85 2c e6 ff ff    	mov    %eax,-0x19d4(%rbp)
   12705:	8b 85 2c e6 ff ff    	mov    -0x19d4(%rbp),%eax
   1270b:	89 85 30 e9 ff ff    	mov    %eax,-0x16d0(%rbp)
   12711:	8b 85 30 e9 ff ff    	mov    -0x16d0(%rbp),%eax
   12717:	39 85 5c e5 ff ff    	cmp    %eax,-0x1aa4(%rbp)
   1271d:	0f 92 c2             	setb   %dl
   12720:	48 8b 85 a0 e6 ff ff 	mov    -0x1960(%rbp),%rax
   12727:	88 10                	mov    %dl,(%rax)
   12729:	0f b6 00             	movzbl (%rax),%eax
   1272c:	0f be c0             	movsbl %al,%eax
   1272f:	89 de                	mov    %ebx,%esi
   12731:	89 c7                	mov    %eax,%edi
   12733:	e8 f9 6a ff ff       	callq  9231 <safe_mod_func_int8_t_s_s>
   12738:	0f be c0             	movsbl %al,%eax
   1273b:	89 c7                	mov    %eax,%edi
   1273d:	e8 54 6e ff ff       	callq  9596 <safe_unary_minus_func_int32_t_s>
   12742:	89 c7                	mov    %eax,%edi
   12744:	e8 4d 6e ff ff       	callq  9596 <safe_unary_minus_func_int32_t_s>
   12749:	39 85 58 e5 ff ff    	cmp    %eax,-0x1aa8(%rbp)
   1274f:	75 09                	jne    1275a <func_42+0x270d>
   12751:	80 bd 69 e5 ff ff 00 	cmpb   $0x0,-0x1a97(%rbp)
   12758:	74 07                	je     12761 <func_42+0x2714>
   1275a:	b8 01 00 00 00       	mov    $0x1,%eax
   1275f:	eb 05                	jmp    12766 <func_42+0x2719>
   12761:	b8 00 00 00 00       	mov    $0x0,%eax
   12766:	0f b7 c0             	movzwl %ax,%eax
   12769:	be 75 4c 00 00       	mov    $0x4c75,%esi
   1276e:	89 c7                	mov    %eax,%edi
   12770:	e8 c8 75 ff ff       	callq  9d3d <safe_mul_func_uint16_t_u_u>
   12775:	66 85 c0             	test   %ax,%ax
   12778:	75 08                	jne    12782 <func_42+0x2735>
   1277a:	8b 85 d0 e9 ff ff    	mov    -0x1630(%rbp),%eax
   12780:	85 c0                	test   %eax,%eax
   12782:	c7 85 1c e6 ff ff 01 	movl   $0x1,-0x19e4(%rbp)
   12789:	00 00 00 
   1278c:	8b 05 ba 8c 00 00    	mov    0x8cba(%rip),%eax        # 1b44c <g_483>
   12792:	48 8b 85 a0 e6 ff ff 	mov    -0x1960(%rbp),%rax
   12799:	c6 00 01             	movb   $0x1,(%rax)
   1279c:	c7 85 a0 e5 ff ff 2a 	movl   $0xf27982a,-0x1a60(%rbp)
   127a3:	98 27 0f 
   127a6:	48 8b 05 db b9 00 00 	mov    0xb9db(%rip),%rax        # 1e188 <g_424>
   127ad:	48 8b 10             	mov    (%rax),%rdx
   127b0:	48 8b 85 40 fa ff ff 	mov    -0x5c0(%rbp),%rax
   127b7:	48 39 c2             	cmp    %rax,%rdx
   127ba:	0f 95 c0             	setne  %al
   127bd:	0f b6 c0             	movzbl %al,%eax
   127c0:	be 01 00 00 00       	mov    $0x1,%esi
   127c5:	89 c7                	mov    %eax,%edi
   127c7:	e8 39 74 ff ff       	callq  9c05 <safe_lshift_func_uint8_t_u_s>
   127cc:	0f b6 d0             	movzbl %al,%edx
   127cf:	8b 05 6b 8c 00 00    	mov    0x8c6b(%rip),%eax        # 1b440 <g_411>
   127d5:	39 c2                	cmp    %eax,%edx
   127d7:	7f 11                	jg     127ea <func_42+0x279d>
   127d9:	66 83 bd 72 e5 ff ff 	cmpw   $0x0,-0x1a8e(%rbp)
   127e0:	00 
   127e1:	74 07                	je     127ea <func_42+0x279d>
   127e3:	b8 01 00 00 00       	mov    $0x1,%eax
   127e8:	eb 05                	jmp    127ef <func_42+0x27a2>
   127ea:	b8 00 00 00 00       	mov    $0x0,%eax
   127ef:	3b 85 58 e5 ff ff    	cmp    -0x1aa8(%rbp),%eax
   127f5:	0f 95 c2             	setne  %dl
   127f8:	48 8b 85 58 e6 ff ff 	mov    -0x19a8(%rbp),%rax
   127ff:	0f b6 d2             	movzbl %dl,%edx
   12802:	48 89 10             	mov    %rdx,(%rax)
   12805:	48 8b 10             	mov    (%rax),%rdx
   12808:	8b 85 50 e5 ff ff    	mov    -0x1ab0(%rbp),%eax
   1280e:	48 98                	cltq   
   12810:	48 39 c2             	cmp    %rax,%rdx
   12813:	8b 05 87 88 00 00    	mov    0x8887(%rip),%eax        # 1b0a0 <g_198>
   12819:	85 c0                	test   %eax,%eax
   1281b:	0f 9f c0             	setg   %al
   1281e:	0f b6 c0             	movzbl %al,%eax
   12821:	31 85 ac e5 ff ff    	xor    %eax,-0x1a54(%rbp)
   12827:	0f b7 05 12 88 00 00 	movzwl 0x8812(%rip),%eax        # 1b040 <g_76>
   1282e:	83 e8 01             	sub    $0x1,%eax
   12831:	66 89 05 08 88 00 00 	mov    %ax,0x8808(%rip)        # 1b040 <g_76>
   12838:	0f b7 05 01 88 00 00 	movzwl 0x8801(%rip),%eax        # 1b040 <g_76>
   1283f:	66 85 c0             	test   %ax,%ax
   12842:	0f 89 c9 f9 ff ff    	jns    12211 <func_42+0x21c4>
   12848:	83 85 5c e5 ff ff 01 	addl   $0x1,-0x1aa4(%rbp)
   1284f:	83 bd 5c e5 ff ff 00 	cmpl   $0x0,-0x1aa4(%rbp)
   12856:	0f 84 54 f7 ff ff    	je     11fb0 <func_42+0x1f63>
   1285c:	c7 85 5c e5 ff ff 00 	movl   $0x0,-0x1aa4(%rbp)
   12863:	00 00 00 
   12866:	e9 85 05 00 00       	jmpq   12df0 <func_42+0x2da3>
   1286b:	c7 85 20 fa ff ff ff 	movl   $0xffffffff,-0x5e0(%rbp)
   12872:	ff ff ff 
   12875:	c7 85 24 fa ff ff e0 	movl   $0xa8831e0,-0x5dc(%rbp)
   1287c:	31 88 0a 
   1287f:	c7 85 28 fa ff ff f7 	movl   $0xfffffff7,-0x5d8(%rbp)
   12886:	ff ff ff 
   12889:	c7 85 2c fa ff ff e0 	movl   $0xa8831e0,-0x5d4(%rbp)
   12890:	31 88 0a 
   12893:	c7 85 30 fa ff ff ff 	movl   $0xffffffff,-0x5d0(%rbp)
   1289a:	ff ff ff 
   1289d:	c7 85 34 fa ff ff fc 	movl   $0xfffffffc,-0x5cc(%rbp)
   128a4:	ff ff ff 
   128a7:	c7 85 38 fa ff ff fc 	movl   $0xfffffffc,-0x5c8(%rbp)
   128ae:	ff ff ff 
   128b1:	c7 85 3c fa ff ff ff 	movl   $0xffffffff,-0x5c4(%rbp)
   128b8:	ff ff ff 
   128bb:	c7 85 40 fa ff ff e0 	movl   $0xa8831e0,-0x5c0(%rbp)
   128c2:	31 88 0a 
   128c5:	c7 85 44 fa ff ff f7 	movl   $0xfffffff7,-0x5bc(%rbp)
   128cc:	ff ff ff 
   128cf:	c7 85 48 fa ff ff e0 	movl   $0xa8831e0,-0x5b8(%rbp)
   128d6:	31 88 0a 
   128d9:	c7 85 4c fa ff ff ff 	movl   $0xffffffff,-0x5b4(%rbp)
   128e0:	ff ff ff 
   128e3:	c7 85 50 fa ff ff fc 	movl   $0xfffffffc,-0x5b0(%rbp)
   128ea:	ff ff ff 
   128ed:	c7 85 54 fa ff ff fc 	movl   $0xfffffffc,-0x5ac(%rbp)
   128f4:	ff ff ff 
   128f7:	c7 85 58 fa ff ff ff 	movl   $0xffffffff,-0x5a8(%rbp)
   128fe:	ff ff ff 
   12901:	c7 85 5c fa ff ff e0 	movl   $0xa8831e0,-0x5a4(%rbp)
   12908:	31 88 0a 
   1290b:	c7 85 60 fa ff ff f7 	movl   $0xfffffff7,-0x5a0(%rbp)
   12912:	ff ff ff 
   12915:	c7 85 64 fa ff ff e0 	movl   $0xa8831e0,-0x59c(%rbp)
   1291c:	31 88 0a 
   1291f:	c7 85 68 fa ff ff ff 	movl   $0xffffffff,-0x598(%rbp)
   12926:	ff ff ff 
   12929:	c7 85 6c fa ff ff fc 	movl   $0xfffffffc,-0x594(%rbp)
   12930:	ff ff ff 
   12933:	c7 85 70 fa ff ff fc 	movl   $0xfffffffc,-0x590(%rbp)
   1293a:	ff ff ff 
   1293d:	c7 85 74 fa ff ff ff 	movl   $0xffffffff,-0x58c(%rbp)
   12944:	ff ff ff 
   12947:	c7 85 78 fa ff ff e0 	movl   $0xa8831e0,-0x588(%rbp)
   1294e:	31 88 0a 
   12951:	c7 85 7c fa ff ff f7 	movl   $0xfffffff7,-0x584(%rbp)
   12958:	ff ff ff 
   1295b:	c7 85 80 fa ff ff e0 	movl   $0xa8831e0,-0x580(%rbp)
   12962:	31 88 0a 
   12965:	c7 85 84 fa ff ff ff 	movl   $0xffffffff,-0x57c(%rbp)
   1296c:	ff ff ff 
   1296f:	c7 85 88 fa ff ff fc 	movl   $0xfffffffc,-0x578(%rbp)
   12976:	ff ff ff 
   12979:	c7 85 8c fa ff ff fc 	movl   $0xfffffffc,-0x574(%rbp)
   12980:	ff ff ff 
   12983:	c7 85 90 fa ff ff ff 	movl   $0xffffffff,-0x570(%rbp)
   1298a:	ff ff ff 
   1298d:	c7 85 94 fa ff ff e0 	movl   $0xa8831e0,-0x56c(%rbp)
   12994:	31 88 0a 
   12997:	c7 85 98 fa ff ff f7 	movl   $0xfffffff7,-0x568(%rbp)
   1299e:	ff ff ff 
   129a1:	c7 85 9c fa ff ff e0 	movl   $0xa8831e0,-0x564(%rbp)
   129a8:	31 88 0a 
   129ab:	c7 85 a0 fa ff ff ff 	movl   $0xffffffff,-0x560(%rbp)
   129b2:	ff ff ff 
   129b5:	c7 85 a4 fa ff ff fc 	movl   $0xfffffffc,-0x55c(%rbp)
   129bc:	ff ff ff 
   129bf:	c7 85 a8 fa ff ff fc 	movl   $0xfffffffc,-0x558(%rbp)
   129c6:	ff ff ff 
   129c9:	c7 85 ac fa ff ff ff 	movl   $0xffffffff,-0x554(%rbp)
   129d0:	ff ff ff 
   129d3:	c7 85 b0 fa ff ff e0 	movl   $0xa8831e0,-0x550(%rbp)
   129da:	31 88 0a 
   129dd:	c7 85 b4 fa ff ff f7 	movl   $0xfffffff7,-0x54c(%rbp)
   129e4:	ff ff ff 
   129e7:	c7 85 b8 fa ff ff e0 	movl   $0xa8831e0,-0x548(%rbp)
   129ee:	31 88 0a 
   129f1:	c7 85 bc fa ff ff ff 	movl   $0xffffffff,-0x544(%rbp)
   129f8:	ff ff ff 
   129fb:	c7 85 c0 fa ff ff fc 	movl   $0xfffffffc,-0x540(%rbp)
   12a02:	ff ff ff 
   12a05:	c7 85 c4 fa ff ff fc 	movl   $0xfffffffc,-0x53c(%rbp)
   12a0c:	ff ff ff 
   12a0f:	c7 85 c8 fa ff ff ff 	movl   $0xffffffff,-0x538(%rbp)
   12a16:	ff ff ff 
   12a19:	c7 85 cc fa ff ff e0 	movl   $0xa8831e0,-0x534(%rbp)
   12a20:	31 88 0a 
   12a23:	c7 85 d0 fa ff ff f7 	movl   $0xfffffff7,-0x530(%rbp)
   12a2a:	ff ff ff 
   12a2d:	c7 85 d4 fa ff ff e0 	movl   $0xa8831e0,-0x52c(%rbp)
   12a34:	31 88 0a 
   12a37:	c7 85 d8 fa ff ff ff 	movl   $0xffffffff,-0x528(%rbp)
   12a3e:	ff ff ff 
   12a41:	c7 85 dc fa ff ff fc 	movl   $0xfffffffc,-0x524(%rbp)
   12a48:	ff ff ff 
   12a4b:	c7 85 b0 e5 ff ff 01 	movl   $0x1,-0x1a50(%rbp)
   12a52:	00 00 00 
   12a55:	48 8d 05 cc 86 00 00 	lea    0x86cc(%rip),%rax        # 1b128 <g_376>
   12a5c:	48 89 85 a0 e8 ff ff 	mov    %rax,-0x1760(%rbp)
   12a63:	c7 85 20 e6 ff ff fc 	movl   $0xfffffffc,-0x19e0(%rbp)
   12a6a:	ff ff ff 
   12a6d:	c7 85 24 e6 ff ff 00 	movl   $0x0,-0x19dc(%rbp)
   12a74:	00 00 00 
   12a77:	c7 85 98 e5 ff ff 44 	movl   $0x9d737644,-0x1a68(%rbp)
   12a7e:	76 73 9d 
   12a81:	66 c7 85 c0 f6 ff ff 	movw   $0xfff7,-0x940(%rbp)
   12a88:	f7 ff 
   12a8a:	66 c7 85 c2 f6 ff ff 	movw   $0xfff7,-0x93e(%rbp)
   12a91:	f7 ff 
   12a93:	66 c7 85 c4 f6 ff ff 	movw   $0xfff7,-0x93c(%rbp)
   12a9a:	f7 ff 
   12a9c:	66 c7 85 c6 f6 ff ff 	movw   $0xfff7,-0x93a(%rbp)
   12aa3:	f7 ff 
   12aa5:	66 c7 85 c8 f6 ff ff 	movw   $0xfff7,-0x938(%rbp)
   12aac:	f7 ff 
   12aae:	66 c7 85 ca f6 ff ff 	movw   $0xfff7,-0x936(%rbp)
   12ab5:	f7 ff 
   12ab7:	c7 85 9c e5 ff ff 00 	movl   $0x0,-0x1a64(%rbp)
   12abe:	00 00 00 
   12ac1:	eb 1a                	jmp    12add <func_42+0x2a90>
   12ac3:	8b 85 9c e5 ff ff    	mov    -0x1a64(%rbp),%eax
   12ac9:	48 98                	cltq   
   12acb:	c7 84 85 90 ee ff ff 	movl   $0x155211b6,-0x1170(%rbp,%rax,4)
   12ad2:	b6 11 52 15 
   12ad6:	83 85 9c e5 ff ff 01 	addl   $0x1,-0x1a64(%rbp)
   12add:	83 bd 9c e5 ff ff 01 	cmpl   $0x1,-0x1a64(%rbp)
   12ae4:	7e dd                	jle    12ac3 <func_42+0x2a76>
   12ae6:	c7 85 50 e5 ff ff 00 	movl   $0x0,-0x1ab0(%rbp)
   12aed:	00 00 00 
   12af0:	e9 91 00 00 00       	jmpq   12b86 <func_42+0x2b39>
   12af5:	66 c7 85 6e e5 ff ff 	movw   $0x4ca6,-0x1a92(%rbp)
   12afc:	a6 4c 
   12afe:	66 83 a5 6e e5 ff ff 	andw   $0xfff8,-0x1a92(%rbp)
   12b05:	f8 
   12b06:	8b 85 20 fa ff ff    	mov    -0x5e0(%rbp),%eax
   12b0c:	83 c0 01             	add    $0x1,%eax
   12b0f:	89 85 20 fa ff ff    	mov    %eax,-0x5e0(%rbp)
   12b15:	c7 05 51 85 00 00 f4 	movl   $0xfffffff4,0x8551(%rip)        # 1b070 <g_162>
   12b1c:	ff ff ff 
   12b1f:	90                   	nop
   12b20:	8b 05 4a 85 00 00    	mov    0x854a(%rip),%eax        # 1b070 <g_162>
   12b26:	83 f8 14             	cmp    $0x14,%eax
   12b29:	77 22                	ja     12b4d <func_42+0x2b00>
   12b2b:	83 bd 04 e6 ff ff 00 	cmpl   $0x0,-0x19fc(%rbp)
   12b32:	75 18                	jne    12b4c <func_42+0x2aff>
   12b34:	8b 85 5c e5 ff ff    	mov    -0x1aa4(%rbp),%eax
   12b3a:	89 85 b0 e5 ff ff    	mov    %eax,-0x1a50(%rbp)
   12b40:	48 8d 05 dd 84 00 00 	lea    0x84dd(%rip),%rax        # 1b024 <g_17>
   12b47:	e9 21 08 00 00       	jmpq   1336d <func_42+0x3320>
   12b4c:	90                   	nop
   12b4d:	66 83 bd 6e e5 ff ff 	cmpw   $0x0,-0x1a92(%rbp)
   12b54:	00 
   12b55:	74 0b                	je     12b62 <func_42+0x2b15>
   12b57:	83 bd 50 e5 ff ff 00 	cmpl   $0x0,-0x1ab0(%rbp)
   12b5e:	74 0e                	je     12b6e <func_42+0x2b21>
   12b60:	eb 31                	jmp    12b93 <func_42+0x2b46>
   12b62:	48 8b 85 a0 e8 ff ff 	mov    -0x1760(%rbp),%rax
   12b69:	e9 ff 07 00 00       	jmpq   1336d <func_42+0x3320>
   12b6e:	8b 85 50 e5 ff ff    	mov    -0x1ab0(%rbp),%eax
   12b74:	be 01 00 00 00       	mov    $0x1,%esi
   12b79:	89 c7                	mov    %eax,%edi
   12b7b:	e8 85 6a ff ff       	callq  9605 <safe_sub_func_int32_t_s_s>
   12b80:	89 85 50 e5 ff ff    	mov    %eax,-0x1ab0(%rbp)
   12b86:	83 bd 50 e5 ff ff e3 	cmpl   $0xffffffe3,-0x1ab0(%rbp)
   12b8d:	0f 85 62 ff ff ff    	jne    12af5 <func_42+0x2aa8>
   12b93:	c7 85 b0 e5 ff ff 15 	movl   $0x15,-0x1a50(%rbp)
   12b9a:	00 00 00 
   12b9d:	eb 5a                	jmp    12bf9 <func_42+0x2bac>
   12b9f:	66 c7 85 70 e5 ff ff 	movw   $0xfffc,-0x1a90(%rbp)
   12ba6:	fc ff 
   12ba8:	c6 05 a1 84 00 00 00 	movb   $0x0,0x84a1(%rip)        # 1b050 <g_91>
   12baf:	90                   	nop
   12bb0:	0f b6 05 99 84 00 00 	movzbl 0x8499(%rip),%eax        # 1b050 <g_91>
   12bb7:	3c 04                	cmp    $0x4,%al
   12bb9:	77 2f                	ja     12bea <func_42+0x2b9d>
   12bbb:	0f b6 05 8e 84 00 00 	movzbl 0x848e(%rip),%eax        # 1b050 <g_91>
   12bc2:	0f b6 c0             	movzbl %al,%eax
   12bc5:	48 98                	cltq   
   12bc7:	48 8d 14 85 00 00 00 	lea    0x0(,%rax,4),%rdx
   12bce:	00 
   12bcf:	48 8d 05 aa 84 00 00 	lea    0x84aa(%rip),%rax        # 1b080 <g_183>
   12bd6:	8b 04 02             	mov    (%rdx,%rax,1),%eax
   12bd9:	85 c0                	test   %eax,%eax
   12bdb:	75 0c                	jne    12be9 <func_42+0x2b9c>
   12bdd:	48 8d 05 89 84 00 00 	lea    0x8489(%rip),%rax        # 1b06d <g_157+0x5>
   12be4:	e9 84 07 00 00       	jmpq   1336d <func_42+0x3320>
   12be9:	90                   	nop
   12bea:	66 83 bd 70 e5 ff ff 	cmpw   $0x0,-0x1a90(%rbp)
   12bf1:	00 
   12bf2:	83 ad b0 e5 ff ff 01 	subl   $0x1,-0x1a50(%rbp)
   12bf9:	83 bd b0 e5 ff ff f7 	cmpl   $0xfffffff7,-0x1a50(%rbp)
   12c00:	75 9d                	jne    12b9f <func_42+0x2b52>
   12c02:	0f b7 85 c4 f6 ff ff 	movzwl -0x93c(%rbp),%eax
   12c09:	83 c0 01             	add    $0x1,%eax
   12c0c:	66 89 85 c4 f6 ff ff 	mov    %ax,-0x93c(%rbp)
   12c13:	48 c7 85 f0 e6 ff ff 	movq   $0xffffffffffffffee,-0x1910(%rbp)
   12c1a:	ee ff ff ff 
   12c1e:	e9 b8 01 00 00       	jmpq   12ddb <func_42+0x2d8e>
   12c23:	c7 85 28 e6 ff ff f6 	movl   $0xfffffff6,-0x19d8(%rbp)
   12c2a:	ff ff ff 
   12c2d:	48 8d 85 90 e6 ff ff 	lea    -0x1970(%rbp),%rax
   12c34:	48 89 85 a8 e8 ff ff 	mov    %rax,-0x1758(%rbp)
   12c3b:	8b 85 50 e5 ff ff    	mov    -0x1ab0(%rbp),%eax
   12c41:	0f b6 d8             	movzbl %al,%ebx
   12c44:	48 8b 05 fd ab 00 00 	mov    0xabfd(%rip),%rax        # 1d848 <g_153>
   12c4b:	0f b6 00             	movzbl (%rax),%eax
   12c4e:	44 0f b6 e0          	movzbl %al,%r12d
   12c52:	8b 85 4c e5 ff ff    	mov    -0x1ab4(%rbp),%eax
   12c58:	44 0f b7 e8          	movzwl %ax,%r13d
   12c5c:	44 8b b5 54 e5 ff ff 	mov    -0x1aac(%rbp),%r14d
   12c63:	0f b6 05 e6 83 00 00 	movzbl 0x83e6(%rip),%eax        # 1b050 <g_91>
   12c6a:	44 0f b6 f8          	movzbl %al,%r15d
   12c6e:	48 8b 95 90 e6 ff ff 	mov    -0x1970(%rbp),%rdx
   12c75:	48 8b 85 a8 e8 ff ff 	mov    -0x1758(%rbp),%rax
   12c7c:	48 89 10             	mov    %rdx,(%rax)
   12c7f:	48 8b 85 a8 e8 ff ff 	mov    -0x1758(%rbp),%rax
   12c86:	48 8b 00             	mov    (%rax),%rax
   12c89:	48 8d 15 d0 c7 00 00 	lea    0xc7d0(%rip),%rdx        # 1f460 <g_224>
   12c90:	48 39 d0             	cmp    %rdx,%rax
   12c93:	0f 95 c0             	setne  %al
   12c96:	0f b6 d0             	movzbl %al,%edx
   12c99:	8b 85 5c e5 ff ff    	mov    -0x1aa4(%rbp),%eax
   12c9f:	98                   	cwtl   
   12ca0:	89 d6                	mov    %edx,%esi
   12ca2:	89 c7                	mov    %eax,%edi
   12ca4:	e8 0a 67 ff ff       	callq  93b3 <safe_add_func_int16_t_s_s>
   12ca9:	66 89 85 4a e5 ff ff 	mov    %ax,-0x1ab6(%rbp)
   12cb0:	8b 85 54 e5 ff ff    	mov    -0x1aac(%rbp),%eax
   12cb6:	89 85 44 e5 ff ff    	mov    %eax,-0x1abc(%rbp)
   12cbc:	be 00 00 00 00       	mov    $0x0,%esi
   12cc1:	bf 01 00 00 00       	mov    $0x1,%edi
   12cc6:	e8 80 73 ff ff       	callq  a04b <safe_sub_func_uint64_t_u_u>
   12ccb:	48 85 c0             	test   %rax,%rax
   12cce:	8b 95 30 e9 ff ff    	mov    -0x16d0(%rbp),%edx
   12cd4:	48 8b 85 a0 e8 ff ff 	mov    -0x1760(%rbp),%rax
   12cdb:	0f b6 00             	movzbl (%rax),%eax
   12cde:	31 c2                	xor    %eax,%edx
   12ce0:	48 8b 85 a0 e8 ff ff 	mov    -0x1760(%rbp),%rax
   12ce7:	88 10                	mov    %dl,(%rax)
   12ce9:	48 8b 85 a0 e8 ff ff 	mov    -0x1760(%rbp),%rax
   12cf0:	0f b6 00             	movzbl (%rax),%eax
   12cf3:	84 c0                	test   %al,%al
   12cf5:	74 07                	je     12cfe <func_42+0x2cb1>
   12cf7:	b8 01 00 00 00       	mov    $0x1,%eax
   12cfc:	eb 05                	jmp    12d03 <func_42+0x2cb6>
   12cfe:	b8 00 00 00 00       	mov    $0x0,%eax
   12d03:	39 85 5c e5 ff ff    	cmp    %eax,-0x1aa4(%rbp)
   12d09:	0f 95 c0             	setne  %al
   12d0c:	0f b6 c0             	movzbl %al,%eax
   12d0f:	8b b5 44 e5 ff ff    	mov    -0x1abc(%rbp),%esi
   12d15:	89 c7                	mov    %eax,%edi
   12d17:	e8 76 67 ff ff       	callq  9492 <safe_lshift_func_int16_t_s_s>
   12d1c:	66 39 85 4a e5 ff ff 	cmp    %ax,-0x1ab6(%rbp)
   12d23:	0f 9c c0             	setl   %al
   12d26:	0f b6 c0             	movzbl %al,%eax
   12d29:	be bc 8a ff ff       	mov    $0xffff8abc,%esi
   12d2e:	89 c7                	mov    %eax,%edi
   12d30:	e8 20 67 ff ff       	callq  9455 <safe_div_func_int16_t_s_s>
   12d35:	0f b7 c0             	movzwl %ax,%eax
   12d38:	44 89 fe             	mov    %r15d,%esi
   12d3b:	89 c7                	mov    %eax,%edi
   12d3d:	e8 4c 70 ff ff       	callq  9d8e <safe_div_func_uint16_t_u_u>
   12d42:	0f b7 d0             	movzwl %ax,%edx
   12d45:	8b 05 05 87 00 00    	mov    0x8705(%rip),%eax        # 1b450 <g_515>
   12d4b:	39 c2                	cmp    %eax,%edx
   12d4d:	0f 9d c0             	setge  %al
   12d50:	0f b6 c0             	movzbl %al,%eax
   12d53:	39 85 b0 e5 ff ff    	cmp    %eax,-0x1a50(%rbp)
   12d59:	0f 9f c0             	setg   %al
   12d5c:	0f b6 c0             	movzbl %al,%eax
   12d5f:	44 89 f6             	mov    %r14d,%esi
   12d62:	89 c7                	mov    %eax,%edi
   12d64:	e8 67 71 ff ff       	callq  9ed0 <safe_sub_func_uint32_t_u_u>
   12d69:	44 89 ee             	mov    %r13d,%esi
   12d6c:	bf aa 5e 00 00       	mov    $0x5eaa,%edi
   12d71:	e8 18 70 ff ff       	callq  9d8e <safe_div_func_uint16_t_u_u>
   12d76:	89 c2                	mov    %eax,%edx
   12d78:	8b 85 28 e6 ff ff    	mov    -0x19d8(%rbp),%eax
   12d7e:	31 d0                	xor    %edx,%eax
   12d80:	0f b6 c0             	movzbl %al,%eax
   12d83:	44 89 e6             	mov    %r12d,%esi
   12d86:	89 c7                	mov    %eax,%edi
   12d88:	e8 31 6f ff ff       	callq  9cbe <safe_rshift_func_uint8_t_u_u>
   12d8d:	0f b6 c0             	movzbl %al,%eax
   12d90:	33 85 5c e5 ff ff    	xor    -0x1aa4(%rbp),%eax
   12d96:	89 c2                	mov    %eax,%edx
   12d98:	8b 85 54 e5 ff ff    	mov    -0x1aac(%rbp),%eax
   12d9e:	39 c2                	cmp    %eax,%edx
   12da0:	0f 95 c0             	setne  %al
   12da3:	0f b6 c0             	movzbl %al,%eax
   12da6:	31 85 98 e5 ff ff    	xor    %eax,-0x1a68(%rbp)
   12dac:	8b 85 98 e5 ff ff    	mov    -0x1a68(%rbp),%eax
   12db2:	0f b6 c0             	movzbl %al,%eax
   12db5:	89 de                	mov    %ebx,%esi
   12db7:	89 c7                	mov    %eax,%edi
   12db9:	e8 d5 6d ff ff       	callq  9b93 <safe_mul_func_uint8_t_u_u>
   12dbe:	0f b6 15 9b c6 00 00 	movzbl 0xc69b(%rip),%edx        # 1f460 <g_224>
   12dc5:	38 d0                	cmp    %dl,%al
   12dc7:	0f 93 c0             	setae  %al
   12dca:	0f b6 c0             	movzbl %al,%eax
   12dcd:	31 85 a4 e5 ff ff    	xor    %eax,-0x1a5c(%rbp)
   12dd3:	48 83 85 f0 e6 ff ff 	addq   $0x1,-0x1910(%rbp)
   12dda:	01 
   12ddb:	48 83 bd f0 e6 ff ff 	cmpq   $0xffffffffffffffff,-0x1910(%rbp)
   12de2:	ff 
   12de3:	0f 8c 3a fe ff ff    	jl     12c23 <func_42+0x2bd6>
   12de9:	83 85 5c e5 ff ff 01 	addl   $0x1,-0x1aa4(%rbp)
   12df0:	83 bd 5c e5 ff ff 2e 	cmpl   $0x2e,-0x1aa4(%rbp)
   12df7:	0f 85 6e fa ff ff    	jne    1286b <func_42+0x281e>
   12dfd:	48 8b 85 30 e6 ff ff 	mov    -0x19d0(%rbp),%rax
   12e04:	e9 64 05 00 00       	jmpq   1336d <func_42+0x3320>
   12e09:	48 c7 85 70 e8 ff ff 	movq   $0x2,-0x1790(%rbp)
   12e10:	02 00 00 00 
   12e14:	8b 1d 86 82 00 00    	mov    0x8286(%rip),%ebx        # 1b0a0 <g_198>
   12e1a:	8b 05 58 c6 00 00    	mov    0xc658(%rip),%eax        # 1f478 <g_570>
   12e20:	41 89 c5             	mov    %eax,%r13d
   12e23:	8b 85 58 e5 ff ff    	mov    -0x1aa8(%rbp),%eax
   12e29:	4c 63 e0             	movslq %eax,%r12
   12e2c:	8b 85 4c e5 ff ff    	mov    -0x1ab4(%rbp),%eax
   12e32:	85 c0                	test   %eax,%eax
   12e34:	0f 85 95 00 00 00    	jne    12ecf <func_42+0x2e82>
   12e3a:	8b 95 58 e5 ff ff    	mov    -0x1aa8(%rbp),%edx
   12e40:	8b 85 50 e5 ff ff    	mov    -0x1ab0(%rbp),%eax
   12e46:	98                   	cwtl   
   12e47:	89 d6                	mov    %edx,%esi
   12e49:	89 c7                	mov    %eax,%edi
   12e4b:	e8 13 67 ff ff       	callq  9563 <safe_rshift_func_int16_t_s_u>
   12e50:	98                   	cwtl   
   12e51:	39 85 50 e5 ff ff    	cmp    %eax,-0x1ab0(%rbp)
   12e57:	0f 9e c0             	setle  %al
   12e5a:	0f b6 c0             	movzbl %al,%eax
   12e5d:	8b 95 54 e5 ff ff    	mov    -0x1aac(%rbp),%edx
   12e63:	89 c6                	mov    %eax,%esi
   12e65:	89 d7                	mov    %edx,%edi
   12e67:	e8 99 67 ff ff       	callq  9605 <safe_sub_func_int32_t_s_s>
   12e6c:	98                   	cwtl   
   12e6d:	be 0a 00 00 00       	mov    $0xa,%esi
   12e72:	89 c7                	mov    %eax,%edi
   12e74:	e8 68 66 ff ff       	callq  94e1 <safe_lshift_func_int16_t_s_u>
   12e79:	98                   	cwtl   
   12e7a:	33 85 50 e5 ff ff    	xor    -0x1ab0(%rbp),%eax
   12e80:	48 63 d0             	movslq %eax,%rdx
   12e83:	8b 05 cb 85 00 00    	mov    0x85cb(%rip),%eax        # 1b454 <g_553>
   12e89:	48 8b 85 e0 ea ff ff 	mov    -0x1520(%rbp),%rax
   12e90:	48 89 85 68 e6 ff ff 	mov    %rax,-0x1998(%rbp)
   12e97:	48 8b 85 68 e6 ff ff 	mov    -0x1998(%rbp),%rax
   12e9e:	48 85 c0             	test   %rax,%rax
   12ea1:	0f 95 c0             	setne  %al
   12ea4:	0f b6 c8             	movzbl %al,%ecx
   12ea7:	48 8b 85 58 e8 ff ff 	mov    -0x17a8(%rbp),%rax
   12eae:	48 89 08             	mov    %rcx,(%rax)
   12eb1:	48 8b 85 58 e8 ff ff 	mov    -0x17a8(%rbp),%rax
   12eb8:	48 8b 00             	mov    (%rax),%rax
   12ebb:	48 89 d6             	mov    %rdx,%rsi
   12ebe:	48 89 c7             	mov    %rax,%rdi
   12ec1:	e8 85 71 ff ff       	callq  a04b <safe_sub_func_uint64_t_u_u>
   12ec6:	83 bd 50 e5 ff ff 01 	cmpl   $0x1,-0x1ab0(%rbp)
   12ecd:	7f 07                	jg     12ed6 <func_42+0x2e89>
   12ecf:	b8 01 00 00 00       	mov    $0x1,%eax
   12ed4:	eb 05                	jmp    12edb <func_42+0x2e8e>
   12ed6:	b8 00 00 00 00       	mov    $0x0,%eax
   12edb:	33 85 50 e5 ff ff    	xor    -0x1ab0(%rbp),%eax
   12ee1:	48 98                	cltq   
   12ee3:	4c 89 e6             	mov    %r12,%rsi
   12ee6:	48 89 c7             	mov    %rax,%rdi
   12ee9:	e8 5d 71 ff ff       	callq  a04b <safe_sub_func_uint64_t_u_u>
   12eee:	0f b6 95 70 e6 ff ff 	movzbl -0x1990(%rbp),%edx
   12ef5:	0f b6 d2             	movzbl %dl,%edx
   12ef8:	48 31 d0             	xor    %rdx,%rax
   12efb:	4c 89 ee             	mov    %r13,%rsi
   12efe:	48 89 c7             	mov    %rax,%rdi
   12f01:	e8 a2 69 ff ff       	callq  98a8 <safe_sub_func_int64_t_s_s>
   12f06:	48 8b 15 1b b2 00 00 	mov    0xb21b(%rip),%rdx        # 1e128 <g_333>
   12f0d:	8b 12                	mov    (%rdx),%edx
   12f0f:	48 63 d2             	movslq %edx,%rdx
   12f12:	48 39 d0             	cmp    %rdx,%rax
   12f15:	0f 9f c0             	setg   %al
   12f18:	0f b6 c0             	movzbl %al,%eax
   12f1b:	89 de                	mov    %ebx,%esi
   12f1d:	89 c7                	mov    %eax,%edi
   12f1f:	e8 db 67 ff ff       	callq  96ff <safe_div_func_int32_t_s_s>
   12f24:	85 c0                	test   %eax,%eax
   12f26:	0f 84 a6 02 00 00    	je     131d2 <func_42+0x3185>
   12f2c:	48 8d 05 3c 81 00 00 	lea    0x813c(%rip),%rax        # 1b06f <g_157+0x7>
   12f33:	48 89 85 90 e6 ff ff 	mov    %rax,-0x1970(%rbp)
   12f3a:	48 8d 85 90 ee ff ff 	lea    -0x1170(%rbp),%rax
   12f41:	48 83 c0 30          	add    $0x30,%rax
   12f45:	48 89 85 98 e6 ff ff 	mov    %rax,-0x1968(%rbp)
   12f4c:	48 8d 85 98 e6 ff ff 	lea    -0x1968(%rbp),%rax
   12f53:	48 89 85 a0 e6 ff ff 	mov    %rax,-0x1960(%rbp)
   12f5a:	48 8d 85 a0 e6 ff ff 	lea    -0x1960(%rbp),%rax
   12f61:	48 89 85 80 e8 ff ff 	mov    %rax,-0x1780(%rbp)
   12f68:	c7 85 90 e5 ff ff 00 	movl   $0x0,-0x1a70(%rbp)
   12f6f:	00 00 00 
   12f72:	eb 1e                	jmp    12f92 <func_42+0x2f45>
   12f74:	8b 85 90 e5 ff ff    	mov    -0x1a70(%rbp),%eax
   12f7a:	48 98                	cltq   
   12f7c:	48 8d 15 e1 30 00 00 	lea    0x30e1(%rip),%rdx        # 16064 <g_592+0x3>
   12f83:	48 89 94 c5 c0 f6 ff 	mov    %rdx,-0x940(%rbp,%rax,8)
   12f8a:	ff 
   12f8b:	83 85 90 e5 ff ff 01 	addl   $0x1,-0x1a70(%rbp)
   12f92:	83 bd 90 e5 ff ff 08 	cmpl   $0x8,-0x1a70(%rbp)
   12f99:	7e d9                	jle    12f74 <func_42+0x2f27>
   12f9b:	c7 85 90 e5 ff ff 00 	movl   $0x0,-0x1a70(%rbp)
   12fa2:	00 00 00 
   12fa5:	eb 1e                	jmp    12fc5 <func_42+0x2f78>
   12fa7:	8b 85 90 e5 ff ff    	mov    -0x1a70(%rbp),%eax
   12fad:	48 98                	cltq   
   12faf:	48 8d 95 58 e6 ff ff 	lea    -0x19a8(%rbp),%rdx
   12fb6:	48 89 94 c5 90 ee ff 	mov    %rdx,-0x1170(%rbp,%rax,8)
   12fbd:	ff 
   12fbe:	83 85 90 e5 ff ff 01 	addl   $0x1,-0x1a70(%rbp)
   12fc5:	83 bd 90 e5 ff ff 07 	cmpl   $0x7,-0x1a70(%rbp)
   12fcc:	7e d9                	jle    12fa7 <func_42+0x2f5a>
   12fce:	48 8b 05 63 a8 00 00 	mov    0xa863(%rip),%rax        # 1d838 <g_111>
   12fd5:	48 8b 95 d8 e6 ff ff 	mov    -0x1928(%rbp),%rdx
   12fdc:	48 8b 12             	mov    (%rdx),%rdx
   12fdf:	48 89 10             	mov    %rdx,(%rax)
   12fe2:	48 c7 05 5b 80 00 00 	movq   $0x0,0x805b(%rip)        # 1b048 <g_81>
   12fe9:	00 00 00 00 
   12fed:	90                   	nop
   12fee:	48 8b 05 53 80 00 00 	mov    0x8053(%rip),%rax        # 1b048 <g_81>
   12ff5:	48 85 c0             	test   %rax,%rax
   12ff8:	0f 88 cb 01 00 00    	js     131c9 <func_42+0x317c>
   12ffe:	48 8d 85 90 e6 ff ff 	lea    -0x1970(%rbp),%rax
   13005:	48 89 85 88 e8 ff ff 	mov    %rax,-0x1778(%rbp)
   1300c:	48 8d 85 20 fa ff ff 	lea    -0x5e0(%rbp),%rax
   13013:	48 8d 15 86 a6 00 00 	lea    0xa686(%rip),%rdx        # 1d6a0 <g_3673+0x1900>
   1301a:	b9 28 00 00 00       	mov    $0x28,%ecx
   1301f:	48 89 c7             	mov    %rax,%rdi
   13022:	48 89 d6             	mov    %rdx,%rsi
   13025:	f3 48 a5             	rep movsq %ds:(%rsi),%es:(%rdi)
   13028:	c7 85 18 e6 ff ff f2 	movl   $0x693693f2,-0x19e8(%rbp)
   1302f:	93 36 69 
   13032:	c6 85 68 e5 ff ff d5 	movb   $0xd5,-0x1a98(%rbp)
   13039:	48 8d 05 e8 b0 00 00 	lea    0xb0e8(%rip),%rax        # 1e128 <g_333>
   13040:	48 89 85 90 e8 ff ff 	mov    %rax,-0x1770(%rbp)
   13047:	c7 85 94 e5 ff ff 00 	movl   $0x0,-0x1a6c(%rbp)
   1304e:	00 00 00 
   13051:	eb 1e                	jmp    13071 <func_42+0x3024>
   13053:	8b 85 94 e5 ff ff    	mov    -0x1a6c(%rbp),%eax
   13059:	48 98                	cltq   
   1305b:	48 8d 15 ee c3 00 00 	lea    0xc3ee(%rip),%rdx        # 1f450 <g_120>
   13062:	48 89 94 c5 d0 e9 ff 	mov    %rdx,-0x1630(%rbp,%rax,8)
   13069:	ff 
   1306a:	83 85 94 e5 ff ff 01 	addl   $0x1,-0x1a6c(%rbp)
   13071:	83 bd 94 e5 ff ff 03 	cmpl   $0x3,-0x1a6c(%rbp)
   13078:	7e d9                	jle    13053 <func_42+0x3006>
   1307a:	c7 85 94 e5 ff ff 00 	movl   $0x0,-0x1a6c(%rbp)
   13081:	00 00 00 
   13084:	eb 25                	jmp    130ab <func_42+0x305e>
   13086:	8b 85 94 e5 ff ff    	mov    -0x1a6c(%rbp),%eax
   1308c:	48 98                	cltq   
   1308e:	48 8d 95 20 fa ff ff 	lea    -0x5e0(%rbp),%rdx
   13095:	48 81 c2 28 01 00 00 	add    $0x128,%rdx
   1309c:	48 89 94 c5 60 e9 ff 	mov    %rdx,-0x16a0(%rbp,%rax,8)
   130a3:	ff 
   130a4:	83 85 94 e5 ff ff 01 	addl   $0x1,-0x1a6c(%rbp)
   130ab:	83 bd 94 e5 ff ff 02 	cmpl   $0x2,-0x1a6c(%rbp)
   130b2:	7e d2                	jle    13086 <func_42+0x3039>
   130b4:	0f b7 05 71 7f 00 00 	movzwl 0x7f71(%rip),%eax        # 1b02c <g_63>
   130bb:	0f bf d8             	movswl %ax,%ebx
   130be:	48 c7 85 d8 f6 ff ff 	movq   $0x0,-0x928(%rbp)
   130c5:	00 00 00 00 
   130c9:	48 8b 95 90 e6 ff ff 	mov    -0x1970(%rbp),%rdx
   130d0:	48 8b 85 88 e8 ff ff 	mov    -0x1778(%rbp),%rax
   130d7:	48 89 10             	mov    %rdx,(%rax)
   130da:	48 8b 85 88 e8 ff ff 	mov    -0x1778(%rbp),%rax
   130e1:	48 8b 00             	mov    (%rax),%rax
   130e4:	48 85 c0             	test   %rax,%rax
   130e7:	74 07                	je     130f0 <func_42+0x30a3>
   130e9:	ba f7 ff ff ff       	mov    $0xfffffff7,%edx
   130ee:	eb 05                	jmp    130f5 <func_42+0x30a8>
   130f0:	ba f6 ff ff ff       	mov    $0xfffffff6,%edx
   130f5:	8b 85 54 e5 ff ff    	mov    -0x1aac(%rbp),%eax
   130fb:	98                   	cwtl   
   130fc:	89 d6                	mov    %edx,%esi
   130fe:	89 c7                	mov    %eax,%edi
   13100:	e8 50 63 ff ff       	callq  9455 <safe_div_func_int16_t_s_s>
   13105:	98                   	cwtl   
   13106:	89 85 a4 e5 ff ff    	mov    %eax,-0x1a5c(%rbp)
   1310c:	8b 85 a4 e5 ff ff    	mov    -0x1a5c(%rbp),%eax
   13112:	89 de                	mov    %ebx,%esi
   13114:	89 c7                	mov    %eax,%edi
   13116:	e8 b1 65 ff ff       	callq  96cc <safe_mod_func_int32_t_s_s>
   1311b:	8b 95 4c e5 ff ff    	mov    -0x1ab4(%rbp),%edx
   13121:	39 d0                	cmp    %edx,%eax
   13123:	8b 85 18 e6 ff ff    	mov    -0x19e8(%rbp),%eax
   13129:	34 f9                	xor    $0xf9,%al
   1312b:	98                   	cwtl   
   1312c:	be 00 00 00 00       	mov    $0x0,%esi
   13131:	89 c7                	mov    %eax,%edi
   13133:	e8 5a 63 ff ff       	callq  9492 <safe_lshift_func_int16_t_s_s>
   13138:	0f bf c8             	movswl %ax,%ecx
   1313b:	48 8b 85 e8 e9 ff ff 	mov    -0x1618(%rbp),%rax
   13142:	48 85 c0             	test   %rax,%rax
   13145:	75 1b                	jne    13162 <func_42+0x3115>
   13147:	48 8b 15 fa a6 00 00 	mov    0xa6fa(%rip),%rdx        # 1d848 <g_153>
   1314e:	0f b6 02             	movzbl (%rdx),%eax
   13151:	8d 70 01             	lea    0x1(%rax),%esi
   13154:	40 88 32             	mov    %sil,(%rdx)
   13157:	84 c0                	test   %al,%al
   13159:	74 07                	je     13162 <func_42+0x3115>
   1315b:	b8 01 00 00 00       	mov    $0x1,%eax
   13160:	eb 05                	jmp    13167 <func_42+0x311a>
   13162:	b8 00 00 00 00       	mov    $0x0,%eax
   13167:	98                   	cwtl   
   13168:	89 ce                	mov    %ecx,%esi
   1316a:	89 c7                	mov    %eax,%edi
   1316c:	e8 84 62 ff ff       	callq  93f5 <safe_mul_func_int16_t_s_s>
   13171:	0f be c0             	movsbl %al,%eax
   13174:	be 06 00 00 00       	mov    $0x6,%esi
   13179:	89 c7                	mov    %eax,%edi
   1317b:	e8 ec 61 ff ff       	callq  936c <safe_rshift_func_int8_t_s_u>
   13180:	0f be c0             	movsbl %al,%eax
   13183:	39 85 5c e5 ff ff    	cmp    %eax,-0x1aa4(%rbp)
   13189:	0f 96 c0             	setbe  %al
   1318c:	0f b6 c0             	movzbl %al,%eax
   1318f:	39 85 5c e5 ff ff    	cmp    %eax,-0x1aa4(%rbp)
   13195:	0f 92 c0             	setb   %al
   13198:	0f b6 c0             	movzbl %al,%eax
   1319b:	89 c2                	mov    %eax,%edx
   1319d:	0f b6 85 68 e5 ff ff 	movzbl -0x1a98(%rbp),%eax
   131a4:	21 d0                	and    %edx,%eax
   131a6:	88 85 68 e5 ff ff    	mov    %al,-0x1a98(%rbp)
   131ac:	48 8b 85 90 e8 ff ff 	mov    -0x1770(%rbp),%rax
   131b3:	48 8d 95 4c e5 ff ff 	lea    -0x1ab4(%rbp),%rdx
   131ba:	48 89 10             	mov    %rdx,(%rax)
   131bd:	48 8d 05 ab 7e 00 00 	lea    0x7eab(%rip),%rax        # 1b06f <g_157+0x7>
   131c4:	e9 a4 01 00 00       	jmpq   1336d <func_42+0x3320>
   131c9:	48 8b 05 08 7f 00 00 	mov    0x7f08(%rip),%rax        # 1b0d8 <g_320+0x18>
   131d0:	eb 42                	jmp    13214 <func_42+0x31c7>
   131d2:	48 b8 b0 d1 ff 70 d2 	movabs $0x1c61aad270ffd1b0,%rax
   131d9:	aa 61 1c 
   131dc:	48 89 85 78 e8 ff ff 	mov    %rax,-0x1788(%rbp)
   131e3:	c7 85 14 e6 ff ff fc 	movl   $0xfffffffc,-0x19ec(%rbp)
   131ea:	ff ff ff 
   131ed:	0f b6 85 67 e5 ff ff 	movzbl -0x1a99(%rbp),%eax
   131f4:	83 e8 01             	sub    $0x1,%eax
   131f7:	88 85 67 e5 ff ff    	mov    %al,-0x1a99(%rbp)
   131fd:	48 8b 05 2c 83 00 00 	mov    0x832c(%rip),%rax        # 1b530 <g_606+0xd0>
   13204:	89 c2                	mov    %eax,%edx
   13206:	8b 85 a4 e5 ff ff    	mov    -0x1a5c(%rbp),%eax
   1320c:	21 d0                	and    %edx,%eax
   1320e:	89 85 a4 e5 ff ff    	mov    %eax,-0x1a5c(%rbp)
   13214:	83 bd a0 e5 ff ff 00 	cmpl   $0x0,-0x1a60(%rbp)
   1321b:	0f b7 05 0a 7e 00 00 	movzwl 0x7e0a(%rip),%eax        # 1b02c <g_63>
   13222:	98                   	cwtl   
   13223:	be 01 00 00 00       	mov    $0x1,%esi
   13228:	89 c7                	mov    %eax,%edi
   1322a:	e8 a4 61 ff ff       	callq  93d3 <safe_sub_func_int16_t_s_s>
   1322f:	66 89 05 f6 7d 00 00 	mov    %ax,0x7df6(%rip)        # 1b02c <g_63>
   13236:	0f b7 05 ef 7d 00 00 	movzwl 0x7def(%rip),%eax        # 1b02c <g_63>
   1323d:	66 83 f8 f5          	cmp    $0xfff5,%ax
   13241:	0f 8d e8 e9 ff ff    	jge    11c2f <func_42+0x1be2>
   13247:	8b 85 4c e5 ff ff    	mov    -0x1ab4(%rbp),%eax
   1324d:	0f be d0             	movsbl %al,%edx
   13250:	0f b6 05 12 7e 00 00 	movzbl 0x7e12(%rip),%eax        # 1b069 <g_157+0x1>
   13257:	8b 8d 58 e5 ff ff    	mov    -0x1aa8(%rbp),%ecx
   1325d:	21 c8                	and    %ecx,%eax
   1325f:	88 05 04 7e 00 00    	mov    %al,0x7e04(%rip)        # 1b069 <g_157+0x1>
   13265:	0f b6 05 fd 7d 00 00 	movzbl 0x7dfd(%rip),%eax        # 1b069 <g_157+0x1>
   1326c:	0f be c0             	movsbl %al,%eax
   1326f:	89 05 1b 84 00 00    	mov    %eax,0x841b(%rip)        # 1b690 <g_611>
   13275:	48 8d 05 d4 c1 00 00 	lea    0xc1d4(%rip),%rax        # 1f450 <g_120>
   1327c:	48 89 85 b0 e6 ff ff 	mov    %rax,-0x1950(%rbp)
   13283:	48 8b 85 c0 e6 ff ff 	mov    -0x1940(%rbp),%rax
   1328a:	48 c7 00 01 00 00 00 	movq   $0x1,(%rax)
   13291:	48 8b 85 c0 e6 ff ff 	mov    -0x1940(%rbp),%rax
   13298:	48 8b 00             	mov    (%rax),%rax
   1329b:	48 83 c8 01          	or     $0x1,%rax
   1329f:	48 89 c1             	mov    %rax,%rcx
   132a2:	8b 85 5c e5 ff ff    	mov    -0x1aa4(%rbp),%eax
   132a8:	48 39 c1             	cmp    %rax,%rcx
   132ab:	0f b6 05 8e 81 00 00 	movzbl 0x818e(%rip),%eax        # 1b440 <g_411>
   132b2:	bf 00 00 00 00       	mov    $0x0,%edi
   132b7:	48 8b 85 60 e6 ff ff 	mov    -0x19a0(%rbp),%rax
   132be:	0f b7 30             	movzwl (%rax),%esi
   132c1:	48 8b 05 c0 ae 00 00 	mov    0xaec0(%rip),%rax        # 1e188 <g_424>
   132c8:	48 8b 00             	mov    (%rax),%rax
   132cb:	0f b7 08             	movzwl (%rax),%ecx
   132ce:	48 8b 85 60 e6 ff ff 	mov    -0x19a0(%rbp),%rax
   132d5:	21 f1                	and    %esi,%ecx
   132d7:	66 89 08             	mov    %cx,(%rax)
   132da:	0f b6 05 8e 7d 00 00 	movzbl 0x7d8e(%rip),%eax        # 1b06f <g_157+0x7>
   132e1:	89 f9                	mov    %edi,%ecx
   132e3:	31 c8                	xor    %ecx,%eax
   132e5:	88 05 84 7d 00 00    	mov    %al,0x7d84(%rip)        # 1b06f <g_157+0x7>
   132eb:	8b 85 50 e5 ff ff    	mov    -0x1ab0(%rbp),%eax
   132f1:	89 05 81 c1 00 00    	mov    %eax,0xc181(%rip)        # 1f478 <g_570>
   132f7:	8b 05 7b c1 00 00    	mov    0xc17b(%rip),%eax        # 1f478 <g_570>
   132fd:	f7 d0                	not    %eax
   132ff:	89 c1                	mov    %eax,%ecx
   13301:	8b 85 50 e5 ff ff    	mov    -0x1ab0(%rbp),%eax
   13307:	39 c1                	cmp    %eax,%ecx
   13309:	74 07                	je     13312 <func_42+0x32c5>
   1330b:	83 bd 58 e5 ff ff 00 	cmpl   $0x0,-0x1aa8(%rbp)
   13312:	48 8b 85 c8 e6 ff ff 	mov    -0x1938(%rbp),%rax
   13319:	0f be c0             	movsbl %al,%eax
   1331c:	89 d6                	mov    %edx,%esi
   1331e:	89 c7                	mov    %eax,%edi
   13320:	e8 0c 5f ff ff       	callq  9231 <safe_mod_func_int8_t_s_s>
   13325:	0f be c0             	movsbl %al,%eax
   13328:	89 85 7c e5 ff ff    	mov    %eax,-0x1a84(%rbp)
   1332e:	8b 85 50 e5 ff ff    	mov    -0x1ab0(%rbp),%eax
   13334:	3b 85 58 e5 ff ff    	cmp    -0x1aa8(%rbp),%eax
   1333a:	0f 95 c0             	setne  %al
   1333d:	0f b6 c0             	movzbl %al,%eax
   13340:	be 03 00 00 00       	mov    $0x3,%esi
   13345:	89 c7                	mov    %eax,%edi
   13347:	e8 e9 5f ff ff       	callq  9335 <safe_rshift_func_int8_t_s_s>
   1334c:	0f be d0             	movsbl %al,%edx
   1334f:	48 8b 05 d2 ad 00 00 	mov    0xadd2(%rip),%rax        # 1e128 <g_333>
   13356:	8b 00                	mov    (%rax),%eax
   13358:	39 c2                	cmp    %eax,%edx
   1335a:	0f 95 c0             	setne  %al
   1335d:	0f b6 c0             	movzbl %al,%eax
   13360:	89 05 2e 83 00 00    	mov    %eax,0x832e(%rip)        # 1b694 <g_622>
   13366:	48 8d 05 02 7d 00 00 	lea    0x7d02(%rip),%rax        # 1b06f <g_157+0x7>
   1336d:	48 8b 5d c8          	mov    -0x38(%rbp),%rbx
   13371:	64 48 33 1c 25 28 00 	xor    %fs:0x28,%rbx
   13378:	00 00 
   1337a:	74 05                	je     13381 <func_42+0x3334>
   1337c:	e8 ef 5c ff ff       	callq  9070 <__stack_chk_fail@plt>
   13381:	48 81 c4 98 1a 00 00 	add    $0x1a98,%rsp
   13388:	5b                   	pop    %rbx
   13389:	41 5c                	pop    %r12
   1338b:	41 5d                	pop    %r13
   1338d:	41 5e                	pop    %r14
   1338f:	41 5f                	pop    %r15
   13391:	5d                   	pop    %rbp
   13392:	c3                   	retq   

0000000000013393 <main>:
   13393:	f3 0f 1e fa          	endbr64 
   13397:	55                   	push   %rbp
   13398:	48 89 e5             	mov    %rsp,%rbp
   1339b:	48 83 ec 20          	sub    $0x20,%rsp
   1339f:	89 7d ec             	mov    %edi,-0x14(%rbp)
   133a2:	48 89 75 e0          	mov    %rsi,-0x20(%rbp)
   133a6:	c7 45 fc 00 00 00 00 	movl   $0x0,-0x4(%rbp)
   133ad:	83 7d ec 02          	cmpl   $0x2,-0x14(%rbp)
   133b1:	74 25                	je     133d8 <main+0x45>
   133b3:	48 8b 45 e0          	mov    -0x20(%rbp),%rax
   133b7:	48 83 c0 08          	add    $0x8,%rax
   133bb:	48 8b 00             	mov    (%rax),%rax
   133be:	48 8d 35 7b 3d 00 00 	lea    0x3d7b(%rip),%rsi        # 17140 <g_2652+0x10d4>
   133c5:	48 89 c7             	mov    %rax,%rdi
   133c8:	e8 c3 5c ff ff       	callq  9090 <strcmp@plt>
   133cd:	85 c0                	test   %eax,%eax
   133cf:	74 07                	je     133d8 <main+0x45>
   133d1:	c7 45 fc 01 00 00 00 	movl   $0x1,-0x4(%rbp)
   133d8:	e8 ac 5d ff ff       	callq  9189 <platform_main_begin>
   133dd:	e8 b6 71 ff ff       	callq  a598 <crc32_gentab>
   133e2:	e8 ce 73 ff ff       	callq  a7b5 <func_1>
   133e7:	0f b6 05 36 7c 00 00 	movzbl 0x7c36(%rip),%eax        # 1b024 <g_17>
   133ee:	48 0f be c0          	movsbq %al,%rax
   133f2:	8b 55 fc             	mov    -0x4(%rbp),%edx
   133f5:	48 8d 35 46 3d 00 00 	lea    0x3d46(%rip),%rsi        # 17142 <g_2652+0x10d6>
   133fc:	48 89 c7             	mov    %rax,%rdi
   133ff:	e8 ef 72 ff ff       	callq  a6f3 <transparent_crc>
   13404:	8b 05 1e 7c 00 00    	mov    0x7c1e(%rip),%eax        # 1b028 <g_59>
   1340a:	48 98                	cltq   
   1340c:	8b 55 fc             	mov    -0x4(%rbp),%edx
   1340f:	48 8d 35 31 3d 00 00 	lea    0x3d31(%rip),%rsi        # 17147 <g_2652+0x10db>
   13416:	48 89 c7             	mov    %rax,%rdi
   13419:	e8 d5 72 ff ff       	callq  a6f3 <transparent_crc>
   1341e:	0f b7 05 07 7c 00 00 	movzwl 0x7c07(%rip),%eax        # 1b02c <g_63>
   13425:	48 0f bf c0          	movswq %ax,%rax
   13429:	8b 55 fc             	mov    -0x4(%rbp),%edx
   1342c:	48 8d 35 19 3d 00 00 	lea    0x3d19(%rip),%rsi        # 1714c <g_2652+0x10e0>
   13433:	48 89 c7             	mov    %rax,%rdi
   13436:	e8 b8 72 ff ff       	callq  a6f3 <transparent_crc>
   1343b:	0f b7 05 ea 7b 00 00 	movzwl 0x7bea(%rip),%eax        # 1b02c <g_63>
   13442:	48 0f bf c0          	movswq %ax,%rax
   13446:	8b 55 fc             	mov    -0x4(%rbp),%edx
   13449:	48 8d 35 04 3d 00 00 	lea    0x3d04(%rip),%rsi        # 17154 <g_2652+0x10e8>
   13450:	48 89 c7             	mov    %rax,%rdi
   13453:	e8 9b 72 ff ff       	callq  a6f3 <transparent_crc>
   13458:	0f b7 05 d1 7b 00 00 	movzwl 0x7bd1(%rip),%eax        # 1b030 <g_66>
   1345f:	48 0f bf c0          	movswq %ax,%rax
   13463:	8b 55 fc             	mov    -0x4(%rbp),%edx
   13466:	48 8d 35 ef 3c 00 00 	lea    0x3cef(%rip),%rsi        # 1715c <g_2652+0x10f0>
   1346d:	48 89 c7             	mov    %rax,%rdi
   13470:	e8 7e 72 ff ff       	callq  a6f3 <transparent_crc>
   13475:	48 8b 05 bc 7b 00 00 	mov    0x7bbc(%rip),%rax        # 1b038 <g_73>
   1347c:	48 89 c1             	mov    %rax,%rcx
   1347f:	8b 45 fc             	mov    -0x4(%rbp),%eax
   13482:	89 c2                	mov    %eax,%edx
   13484:	48 8d 35 d6 3c 00 00 	lea    0x3cd6(%rip),%rsi        # 17161 <g_2652+0x10f5>
   1348b:	48 89 cf             	mov    %rcx,%rdi
   1348e:	e8 60 72 ff ff       	callq  a6f3 <transparent_crc>
   13493:	0f b7 05 a6 7b 00 00 	movzwl 0x7ba6(%rip),%eax        # 1b040 <g_76>
   1349a:	48 0f bf c0          	movswq %ax,%rax
   1349e:	8b 55 fc             	mov    -0x4(%rbp),%edx
   134a1:	48 8d 35 be 3c 00 00 	lea    0x3cbe(%rip),%rsi        # 17166 <g_2652+0x10fa>
   134a8:	48 89 c7             	mov    %rax,%rdi
   134ab:	e8 43 72 ff ff       	callq  a6f3 <transparent_crc>
   134b0:	0f b7 05 89 7b 00 00 	movzwl 0x7b89(%rip),%eax        # 1b040 <g_76>
   134b7:	48 0f bf c0          	movswq %ax,%rax
   134bb:	8b 55 fc             	mov    -0x4(%rbp),%edx
   134be:	48 8d 35 a9 3c 00 00 	lea    0x3ca9(%rip),%rsi        # 1716e <g_2652+0x1102>
   134c5:	48 89 c7             	mov    %rax,%rdi
   134c8:	e8 26 72 ff ff       	callq  a6f3 <transparent_crc>
   134cd:	48 8b 05 74 7b 00 00 	mov    0x7b74(%rip),%rax        # 1b048 <g_81>
   134d4:	48 89 c1             	mov    %rax,%rcx
   134d7:	8b 45 fc             	mov    -0x4(%rbp),%eax
   134da:	89 c2                	mov    %eax,%edx
   134dc:	48 8d 35 93 3c 00 00 	lea    0x3c93(%rip),%rsi        # 17176 <g_2652+0x110a>
   134e3:	48 89 cf             	mov    %rcx,%rdi
   134e6:	e8 08 72 ff ff       	callq  a6f3 <transparent_crc>
   134eb:	0f b6 05 5e 7b 00 00 	movzbl 0x7b5e(%rip),%eax        # 1b050 <g_91>
   134f2:	0f b6 c0             	movzbl %al,%eax
   134f5:	8b 55 fc             	mov    -0x4(%rbp),%edx
   134f8:	48 8d 35 7f 3c 00 00 	lea    0x3c7f(%rip),%rsi        # 1717e <g_2652+0x1112>
   134ff:	48 89 c7             	mov    %rax,%rdi
   13502:	e8 ec 71 ff ff       	callq  a6f3 <transparent_crc>
   13507:	0f b6 05 43 7b 00 00 	movzbl 0x7b43(%rip),%eax        # 1b051 <g_100>
   1350e:	0f b6 c0             	movzbl %al,%eax
   13511:	8b 55 fc             	mov    -0x4(%rbp),%edx
   13514:	48 8d 35 68 3c 00 00 	lea    0x3c68(%rip),%rsi        # 17183 <g_2652+0x1117>
   1351b:	48 89 c7             	mov    %rax,%rdi
   1351e:	e8 d0 71 ff ff       	callq  a6f3 <transparent_crc>
   13523:	48 8b 05 2e 7b 00 00 	mov    0x7b2e(%rip),%rax        # 1b058 <g_104>
   1352a:	48 89 c1             	mov    %rax,%rcx
   1352d:	8b 45 fc             	mov    -0x4(%rbp),%eax
   13530:	89 c2                	mov    %eax,%edx
   13532:	48 8d 35 50 3c 00 00 	lea    0x3c50(%rip),%rsi        # 17189 <g_2652+0x111d>
   13539:	48 89 cf             	mov    %rcx,%rdi
   1353c:	e8 b2 71 ff ff       	callq  a6f3 <transparent_crc>
   13541:	0f b7 05 08 bf 00 00 	movzwl 0xbf08(%rip),%eax        # 1f450 <g_120>
   13548:	0f b7 c0             	movzwl %ax,%eax
   1354b:	8b 55 fc             	mov    -0x4(%rbp),%edx
   1354e:	48 8d 35 3a 3c 00 00 	lea    0x3c3a(%rip),%rsi        # 1718f <g_2652+0x1123>
   13555:	48 89 c7             	mov    %rax,%rdi
   13558:	e8 96 71 ff ff       	callq  a6f3 <transparent_crc>
   1355d:	0f b7 05 fc 7a 00 00 	movzwl 0x7afc(%rip),%eax        # 1b060 <g_131>
   13564:	48 0f bf c0          	movswq %ax,%rax
   13568:	8b 55 fc             	mov    -0x4(%rbp),%edx
   1356b:	48 8d 35 23 3c 00 00 	lea    0x3c23(%rip),%rsi        # 17195 <g_2652+0x1129>
   13572:	48 89 c7             	mov    %rax,%rdi
   13575:	e8 79 71 ff ff       	callq  a6f3 <transparent_crc>
   1357a:	0f b7 05 df 7a 00 00 	movzwl 0x7adf(%rip),%eax        # 1b060 <g_131>
   13581:	48 0f bf c0          	movswq %ax,%rax
   13585:	8b 55 fc             	mov    -0x4(%rbp),%edx
   13588:	48 8d 35 0f 3c 00 00 	lea    0x3c0f(%rip),%rsi        # 1719e <g_2652+0x1132>
   1358f:	48 89 c7             	mov    %rax,%rdi
   13592:	e8 5c 71 ff ff       	callq  a6f3 <transparent_crc>
   13597:	c7 45 f0 00 00 00 00 	movl   $0x0,-0x10(%rbp)
   1359e:	eb 6b                	jmp    1360b <main+0x278>
   135a0:	c7 45 f4 00 00 00 00 	movl   $0x0,-0xc(%rbp)
   135a7:	eb 58                	jmp    13601 <main+0x26e>
   135a9:	8b 45 f4             	mov    -0xc(%rbp),%eax
   135ac:	48 98                	cltq   
   135ae:	8b 55 f0             	mov    -0x10(%rbp),%edx
   135b1:	48 63 d2             	movslq %edx,%rdx
   135b4:	48 c1 e2 02          	shl    $0x2,%rdx
   135b8:	48 01 c2             	add    %rax,%rdx
   135bb:	48 8d 05 a6 7a 00 00 	lea    0x7aa6(%rip),%rax        # 1b068 <g_157>
   135c2:	48 01 d0             	add    %rdx,%rax
   135c5:	0f b6 00             	movzbl (%rax),%eax
   135c8:	48 0f be c0          	movsbq %al,%rax
   135cc:	8b 55 fc             	mov    -0x4(%rbp),%edx
   135cf:	48 8d 35 d1 3b 00 00 	lea    0x3bd1(%rip),%rsi        # 171a7 <g_2652+0x113b>
   135d6:	48 89 c7             	mov    %rax,%rdi
   135d9:	e8 15 71 ff ff       	callq  a6f3 <transparent_crc>
   135de:	83 7d fc 00          	cmpl   $0x0,-0x4(%rbp)
   135e2:	74 19                	je     135fd <main+0x26a>
   135e4:	8b 55 f4             	mov    -0xc(%rbp),%edx
   135e7:	8b 45 f0             	mov    -0x10(%rbp),%eax
   135ea:	89 c6                	mov    %eax,%esi
   135ec:	48 8d 3d c0 3b 00 00 	lea    0x3bc0(%rip),%rdi        # 171b3 <g_2652+0x1147>
   135f3:	b8 00 00 00 00       	mov    $0x0,%eax
   135f8:	e8 83 5a ff ff       	callq  9080 <printf@plt>
   135fd:	83 45 f4 01          	addl   $0x1,-0xc(%rbp)
   13601:	83 7d f4 03          	cmpl   $0x3,-0xc(%rbp)
   13605:	7e a2                	jle    135a9 <main+0x216>
   13607:	83 45 f0 01          	addl   $0x1,-0x10(%rbp)
   1360b:	83 7d f0 01          	cmpl   $0x1,-0x10(%rbp)
   1360f:	7e 8f                	jle    135a0 <main+0x20d>
   13611:	8b 05 59 7a 00 00    	mov    0x7a59(%rip),%eax        # 1b070 <g_162>
   13617:	89 c1                	mov    %eax,%ecx
   13619:	8b 45 fc             	mov    -0x4(%rbp),%eax
   1361c:	89 c2                	mov    %eax,%edx
   1361e:	48 8d 35 a0 3b 00 00 	lea    0x3ba0(%rip),%rsi        # 171c5 <g_2652+0x1159>
   13625:	48 89 cf             	mov    %rcx,%rdi
   13628:	e8 c6 70 ff ff       	callq  a6f3 <transparent_crc>
   1362d:	48 8b 05 44 7a 00 00 	mov    0x7a44(%rip),%rax        # 1b078 <g_164>
   13634:	48 89 c1             	mov    %rax,%rcx
   13637:	8b 45 fc             	mov    -0x4(%rbp),%eax
   1363a:	89 c2                	mov    %eax,%edx
   1363c:	48 8d 35 88 3b 00 00 	lea    0x3b88(%rip),%rsi        # 171cb <g_2652+0x115f>
   13643:	48 89 cf             	mov    %rcx,%rdi
   13646:	e8 a8 70 ff ff       	callq  a6f3 <transparent_crc>
   1364b:	b8 ff ff ff ff       	mov    $0xffffffff,%eax
   13650:	48 0f bf c0          	movswq %ax,%rax
   13654:	8b 55 fc             	mov    -0x4(%rbp),%edx
   13657:	48 8d 35 73 3b 00 00 	lea    0x3b73(%rip),%rsi        # 171d1 <g_2652+0x1165>
   1365e:	48 89 c7             	mov    %rax,%rdi
   13661:	e8 8d 70 ff ff       	callq  a6f3 <transparent_crc>
   13666:	b8 ff ff ff ff       	mov    $0xffffffff,%eax
   1366b:	48 0f bf c0          	movswq %ax,%rax
   1366f:	8b 55 fc             	mov    -0x4(%rbp),%edx
   13672:	48 8d 35 61 3b 00 00 	lea    0x3b61(%rip),%rsi        # 171da <g_2652+0x116e>
   13679:	48 89 c7             	mov    %rax,%rdi
   1367c:	e8 72 70 ff ff       	callq  a6f3 <transparent_crc>
   13681:	c7 45 f0 00 00 00 00 	movl   $0x0,-0x10(%rbp)
   13688:	eb 4b                	jmp    136d5 <main+0x342>
   1368a:	8b 45 f0             	mov    -0x10(%rbp),%eax
   1368d:	48 98                	cltq   
   1368f:	48 8d 14 85 00 00 00 	lea    0x0(,%rax,4),%rdx
   13696:	00 
   13697:	48 8d 05 e2 79 00 00 	lea    0x79e2(%rip),%rax        # 1b080 <g_183>
   1369e:	8b 04 02             	mov    (%rdx,%rax,1),%eax
   136a1:	48 98                	cltq   
   136a3:	8b 55 fc             	mov    -0x4(%rbp),%edx
   136a6:	48 8d 35 36 3b 00 00 	lea    0x3b36(%rip),%rsi        # 171e3 <g_2652+0x1177>
   136ad:	48 89 c7             	mov    %rax,%rdi
   136b0:	e8 3e 70 ff ff       	callq  a6f3 <transparent_crc>
   136b5:	83 7d fc 00          	cmpl   $0x0,-0x4(%rbp)
   136b9:	74 16                	je     136d1 <main+0x33e>
   136bb:	8b 45 f0             	mov    -0x10(%rbp),%eax
   136be:	89 c6                	mov    %eax,%esi
   136c0:	48 8d 3d 25 3b 00 00 	lea    0x3b25(%rip),%rdi        # 171ec <g_2652+0x1180>
   136c7:	b8 00 00 00 00       	mov    $0x0,%eax
   136cc:	e8 af 59 ff ff       	callq  9080 <printf@plt>
   136d1:	83 45 f0 01          	addl   $0x1,-0x10(%rbp)
   136d5:	83 7d f0 04          	cmpl   $0x4,-0x10(%rbp)
   136d9:	7e af                	jle    1368a <main+0x2f7>
   136db:	48 8b 05 b6 79 00 00 	mov    0x79b6(%rip),%rax        # 1b098 <g_189>
   136e2:	8b 55 fc             	mov    -0x4(%rbp),%edx
   136e5:	48 8d 35 0e 3b 00 00 	lea    0x3b0e(%rip),%rsi        # 171fa <g_2652+0x118e>
   136ec:	48 89 c7             	mov    %rax,%rdi
   136ef:	e8 ff 6f ff ff       	callq  a6f3 <transparent_crc>
   136f4:	8b 05 a6 79 00 00    	mov    0x79a6(%rip),%eax        # 1b0a0 <g_198>
   136fa:	89 c1                	mov    %eax,%ecx
   136fc:	8b 45 fc             	mov    -0x4(%rbp),%eax
   136ff:	89 c2                	mov    %eax,%edx
   13701:	48 8d 35 f8 3a 00 00 	lea    0x3af8(%rip),%rsi        # 17200 <g_2652+0x1194>
   13708:	48 89 cf             	mov    %rcx,%rdi
   1370b:	e8 e3 6f ff ff       	callq  a6f3 <transparent_crc>
   13710:	8b 05 8a 79 00 00    	mov    0x798a(%rip),%eax        # 1b0a0 <g_198>
   13716:	48 98                	cltq   
   13718:	8b 55 fc             	mov    -0x4(%rbp),%edx
   1371b:	48 8d 35 e7 3a 00 00 	lea    0x3ae7(%rip),%rsi        # 17209 <g_2652+0x119d>
   13722:	48 89 c7             	mov    %rax,%rdi
   13725:	e8 c9 6f ff ff       	callq  a6f3 <transparent_crc>
   1372a:	0f b6 05 6f 79 00 00 	movzbl 0x796f(%rip),%eax        # 1b0a0 <g_198>
   13731:	0f b6 c0             	movzbl %al,%eax
   13734:	8b 55 fc             	mov    -0x4(%rbp),%edx
   13737:	48 8d 35 d4 3a 00 00 	lea    0x3ad4(%rip),%rsi        # 17212 <g_2652+0x11a6>
   1373e:	48 89 c7             	mov    %rax,%rdi
   13741:	e8 ad 6f ff ff       	callq  a6f3 <transparent_crc>
   13746:	8b 05 54 79 00 00    	mov    0x7954(%rip),%eax        # 1b0a0 <g_198>
   1374c:	48 98                	cltq   
   1374e:	8b 55 fc             	mov    -0x4(%rbp),%edx
   13751:	48 8d 35 c3 3a 00 00 	lea    0x3ac3(%rip),%rsi        # 1721b <g_2652+0x11af>
   13758:	48 89 c7             	mov    %rax,%rdi
   1375b:	e8 93 6f ff ff       	callq  a6f3 <transparent_crc>
   13760:	0f b6 05 39 79 00 00 	movzbl 0x7939(%rip),%eax        # 1b0a0 <g_198>
   13767:	48 0f be c0          	movsbq %al,%rax
   1376b:	8b 55 fc             	mov    -0x4(%rbp),%edx
   1376e:	48 8d 35 af 3a 00 00 	lea    0x3aaf(%rip),%rsi        # 17224 <g_2652+0x11b8>
   13775:	48 89 c7             	mov    %rax,%rdi
   13778:	e8 76 6f ff ff       	callq  a6f3 <transparent_crc>
   1377d:	48 8b 05 dc bc 00 00 	mov    0xbcdc(%rip),%rax        # 1f460 <g_224>
   13784:	8b 55 fc             	mov    -0x4(%rbp),%edx
   13787:	48 8d 35 9f 3a 00 00 	lea    0x3a9f(%rip),%rsi        # 1722d <g_2652+0x11c1>
   1378e:	48 89 c7             	mov    %rax,%rdi
   13791:	e8 5d 6f ff ff       	callq  a6f3 <transparent_crc>
   13796:	0f b6 05 c3 bc 00 00 	movzbl 0xbcc3(%rip),%eax        # 1f460 <g_224>
   1379d:	0f b6 c0             	movzbl %al,%eax
   137a0:	8b 55 fc             	mov    -0x4(%rbp),%edx
   137a3:	48 8d 35 8c 3a 00 00 	lea    0x3a8c(%rip),%rsi        # 17236 <g_2652+0x11ca>
   137aa:	48 89 c7             	mov    %rax,%rdi
   137ad:	e8 41 6f ff ff       	callq  a6f3 <transparent_crc>
   137b2:	c7 45 f0 00 00 00 00 	movl   $0x0,-0x10(%rbp)
   137b9:	eb 4d                	jmp    13808 <main+0x475>
   137bb:	8b 45 f0             	mov    -0x10(%rbp),%eax
   137be:	48 98                	cltq   
   137c0:	48 8d 14 c5 00 00 00 	lea    0x0(,%rax,8),%rdx
   137c7:	00 
   137c8:	48 8d 05 f1 78 00 00 	lea    0x78f1(%rip),%rax        # 1b0c0 <g_320>
   137cf:	0f b7 04 02          	movzwl (%rdx,%rax,1),%eax
   137d3:	0f b7 c0             	movzwl %ax,%eax
   137d6:	8b 55 fc             	mov    -0x4(%rbp),%edx
   137d9:	48 8d 35 5f 3a 00 00 	lea    0x3a5f(%rip),%rsi        # 1723f <g_2652+0x11d3>
   137e0:	48 89 c7             	mov    %rax,%rdi
   137e3:	e8 0b 6f ff ff       	callq  a6f3 <transparent_crc>
   137e8:	83 7d fc 00          	cmpl   $0x0,-0x4(%rbp)
   137ec:	74 16                	je     13804 <main+0x471>
   137ee:	8b 45 f0             	mov    -0x10(%rbp),%eax
   137f1:	89 c6                	mov    %eax,%esi
   137f3:	48 8d 3d f2 39 00 00 	lea    0x39f2(%rip),%rdi        # 171ec <g_2652+0x1180>
   137fa:	b8 00 00 00 00       	mov    $0x0,%eax
   137ff:	e8 7c 58 ff ff       	callq  9080 <printf@plt>
   13804:	83 45 f0 01          	addl   $0x1,-0x10(%rbp)
   13808:	83 7d f0 04          	cmpl   $0x4,-0x10(%rbp)
   1380c:	7e ad                	jle    137bb <main+0x428>
   1380e:	48 8b 05 d3 78 00 00 	mov    0x78d3(%rip),%rax        # 1b0e8 <g_330>
   13815:	8b 55 fc             	mov    -0x4(%rbp),%edx
   13818:	48 8d 35 2c 3a 00 00 	lea    0x3a2c(%rip),%rsi        # 1724b <g_2652+0x11df>
   1381f:	48 89 c7             	mov    %rax,%rdi
   13822:	e8 cc 6e ff ff       	callq  a6f3 <transparent_crc>
   13827:	0f b6 05 ba 78 00 00 	movzbl 0x78ba(%rip),%eax        # 1b0e8 <g_330>
   1382e:	0f b6 c0             	movzbl %al,%eax
   13831:	8b 55 fc             	mov    -0x4(%rbp),%edx
   13834:	48 8d 35 19 3a 00 00 	lea    0x3a19(%rip),%rsi        # 17254 <g_2652+0x11e8>
   1383b:	48 89 c7             	mov    %rax,%rdi
   1383e:	e8 b0 6e ff ff       	callq  a6f3 <transparent_crc>
   13843:	c7 45 f0 00 00 00 00 	movl   $0x0,-0x10(%rbp)
   1384a:	eb 7c                	jmp    138c8 <main+0x535>
   1384c:	8b 45 f0             	mov    -0x10(%rbp),%eax
   1384f:	48 98                	cltq   
   13851:	48 8d 14 85 00 00 00 	lea    0x0(,%rax,4),%rdx
   13858:	00 
   13859:	48 8d 05 a0 78 00 00 	lea    0x78a0(%rip),%rax        # 1b100 <g_355>
   13860:	0f b7 04 02          	movzwl (%rdx,%rax,1),%eax
   13864:	48 0f bf c0          	movswq %ax,%rax
   13868:	8b 55 fc             	mov    -0x4(%rbp),%edx
   1386b:	48 8d 35 eb 39 00 00 	lea    0x39eb(%rip),%rsi        # 1725d <g_2652+0x11f1>
   13872:	48 89 c7             	mov    %rax,%rdi
   13875:	e8 79 6e ff ff       	callq  a6f3 <transparent_crc>
   1387a:	8b 45 f0             	mov    -0x10(%rbp),%eax
   1387d:	48 98                	cltq   
   1387f:	48 8d 14 85 00 00 00 	lea    0x0(,%rax,4),%rdx
   13886:	00 
   13887:	48 8d 05 72 78 00 00 	lea    0x7872(%rip),%rax        # 1b100 <g_355>
   1388e:	0f b7 04 02          	movzwl (%rdx,%rax,1),%eax
   13892:	48 0f bf c0          	movswq %ax,%rax
   13896:	8b 55 fc             	mov    -0x4(%rbp),%edx
   13899:	48 8d 35 c9 39 00 00 	lea    0x39c9(%rip),%rsi        # 17269 <g_2652+0x11fd>
   138a0:	48 89 c7             	mov    %rax,%rdi
   138a3:	e8 4b 6e ff ff       	callq  a6f3 <transparent_crc>
   138a8:	83 7d fc 00          	cmpl   $0x0,-0x4(%rbp)
   138ac:	74 16                	je     138c4 <main+0x531>
   138ae:	8b 45 f0             	mov    -0x10(%rbp),%eax
   138b1:	89 c6                	mov    %eax,%esi
   138b3:	48 8d 3d 32 39 00 00 	lea    0x3932(%rip),%rdi        # 171ec <g_2652+0x1180>
   138ba:	b8 00 00 00 00       	mov    $0x0,%eax
   138bf:	e8 bc 57 ff ff       	callq  9080 <printf@plt>
   138c4:	83 45 f0 01          	addl   $0x1,-0x10(%rbp)
   138c8:	83 7d f0 09          	cmpl   $0x9,-0x10(%rbp)
   138cc:	0f 8e 7a ff ff ff    	jle    1384c <main+0x4b9>
   138d2:	8b 05 50 78 00 00    	mov    0x7850(%rip),%eax        # 1b128 <g_376>
   138d8:	89 c1                	mov    %eax,%ecx
   138da:	8b 45 fc             	mov    -0x4(%rbp),%eax
   138dd:	89 c2                	mov    %eax,%edx
   138df:	48 8d 35 8f 39 00 00 	lea    0x398f(%rip),%rsi        # 17275 <g_2652+0x1209>
   138e6:	48 89 cf             	mov    %rcx,%rdi
   138e9:	e8 05 6e ff ff       	callq  a6f3 <transparent_crc>
   138ee:	8b 05 34 78 00 00    	mov    0x7834(%rip),%eax        # 1b128 <g_376>
   138f4:	48 98                	cltq   
   138f6:	8b 55 fc             	mov    -0x4(%rbp),%edx
   138f9:	48 8d 35 7e 39 00 00 	lea    0x397e(%rip),%rsi        # 1727e <g_2652+0x1212>
   13900:	48 89 c7             	mov    %rax,%rdi
   13903:	e8 eb 6d ff ff       	callq  a6f3 <transparent_crc>
   13908:	0f b6 05 19 78 00 00 	movzbl 0x7819(%rip),%eax        # 1b128 <g_376>
   1390f:	0f b6 c0             	movzbl %al,%eax
   13912:	8b 55 fc             	mov    -0x4(%rbp),%edx
   13915:	48 8d 35 6b 39 00 00 	lea    0x396b(%rip),%rsi        # 17287 <g_2652+0x121b>
   1391c:	48 89 c7             	mov    %rax,%rdi
   1391f:	e8 cf 6d ff ff       	callq  a6f3 <transparent_crc>
   13924:	8b 05 fe 77 00 00    	mov    0x77fe(%rip),%eax        # 1b128 <g_376>
   1392a:	48 98                	cltq   
   1392c:	8b 55 fc             	mov    -0x4(%rbp),%edx
   1392f:	48 8d 35 5a 39 00 00 	lea    0x395a(%rip),%rsi        # 17290 <g_2652+0x1224>
   13936:	48 89 c7             	mov    %rax,%rdi
   13939:	e8 b5 6d ff ff       	callq  a6f3 <transparent_crc>
   1393e:	0f b6 05 e3 77 00 00 	movzbl 0x77e3(%rip),%eax        # 1b128 <g_376>
   13945:	48 0f be c0          	movsbq %al,%rax
   13949:	8b 55 fc             	mov    -0x4(%rbp),%edx
   1394c:	48 8d 35 46 39 00 00 	lea    0x3946(%rip),%rsi        # 17299 <g_2652+0x122d>
   13953:	48 89 c7             	mov    %rax,%rdi
   13956:	e8 98 6d ff ff       	callq  a6f3 <transparent_crc>
   1395b:	c7 45 f0 00 00 00 00 	movl   $0x0,-0x10(%rbp)
   13962:	e9 18 01 00 00       	jmpq   13a7f <main+0x6ec>
   13967:	c7 45 f4 00 00 00 00 	movl   $0x0,-0xc(%rbp)
   1396e:	e9 fe 00 00 00       	jmpq   13a71 <main+0x6de>
   13973:	c7 45 f8 00 00 00 00 	movl   $0x0,-0x8(%rbp)
   1397a:	e9 e4 00 00 00       	jmpq   13a63 <main+0x6d0>
   1397f:	8b 45 f8             	mov    -0x8(%rbp),%eax
   13982:	48 63 f0             	movslq %eax,%rsi
   13985:	8b 45 f0             	mov    -0x10(%rbp),%eax
   13988:	48 98                	cltq   
   1398a:	8b 55 f4             	mov    -0xc(%rbp),%edx
   1398d:	48 63 ca             	movslq %edx,%rcx
   13990:	48 89 c2             	mov    %rax,%rdx
   13993:	48 01 d2             	add    %rdx,%rdx
   13996:	48 01 c2             	add    %rax,%rdx
   13999:	48 89 d0             	mov    %rdx,%rax
   1399c:	48 c1 e0 04          	shl    $0x4,%rax
   139a0:	48 89 c2             	mov    %rax,%rdx
   139a3:	48 89 c8             	mov    %rcx,%rax
   139a6:	48 01 c0             	add    %rax,%rax
   139a9:	48 01 c8             	add    %rcx,%rax
   139ac:	48 01 c0             	add    %rax,%rax
   139af:	48 01 d0             	add    %rdx,%rax
   139b2:	48 01 f0             	add    %rsi,%rax
   139b5:	48 8d 14 85 00 00 00 	lea    0x0(,%rax,4),%rdx
   139bc:	00 
   139bd:	48 8d 05 7c 77 00 00 	lea    0x777c(%rip),%rax        # 1b140 <g_406>
   139c4:	0f b7 04 02          	movzwl (%rdx,%rax,1),%eax
   139c8:	48 0f bf c0          	movswq %ax,%rax
   139cc:	8b 55 fc             	mov    -0x4(%rbp),%edx
   139cf:	48 8d 35 cc 38 00 00 	lea    0x38cc(%rip),%rsi        # 172a2 <g_2652+0x1236>
   139d6:	48 89 c7             	mov    %rax,%rdi
   139d9:	e8 15 6d ff ff       	callq  a6f3 <transparent_crc>
   139de:	8b 45 f8             	mov    -0x8(%rbp),%eax
   139e1:	48 63 f0             	movslq %eax,%rsi
   139e4:	8b 45 f0             	mov    -0x10(%rbp),%eax
   139e7:	48 98                	cltq   
   139e9:	8b 55 f4             	mov    -0xc(%rbp),%edx
   139ec:	48 63 ca             	movslq %edx,%rcx
   139ef:	48 89 c2             	mov    %rax,%rdx
   139f2:	48 01 d2             	add    %rdx,%rdx
   139f5:	48 01 c2             	add    %rax,%rdx
   139f8:	48 89 d0             	mov    %rdx,%rax
   139fb:	48 c1 e0 04          	shl    $0x4,%rax
   139ff:	48 89 c2             	mov    %rax,%rdx
   13a02:	48 89 c8             	mov    %rcx,%rax
   13a05:	48 01 c0             	add    %rax,%rax
   13a08:	48 01 c8             	add    %rcx,%rax
   13a0b:	48 01 c0             	add    %rax,%rax
   13a0e:	48 01 d0             	add    %rdx,%rax
   13a11:	48 01 f0             	add    %rsi,%rax
   13a14:	48 8d 14 85 00 00 00 	lea    0x0(,%rax,4),%rdx
   13a1b:	00 
   13a1c:	48 8d 05 1d 77 00 00 	lea    0x771d(%rip),%rax        # 1b140 <g_406>
   13a23:	0f b7 04 02          	movzwl (%rdx,%rax,1),%eax
   13a27:	48 0f bf c0          	movswq %ax,%rax
   13a2b:	8b 55 fc             	mov    -0x4(%rbp),%edx
   13a2e:	48 8d 35 7f 38 00 00 	lea    0x387f(%rip),%rsi        # 172b4 <g_2652+0x1248>
   13a35:	48 89 c7             	mov    %rax,%rdi
   13a38:	e8 b6 6c ff ff       	callq  a6f3 <transparent_crc>
   13a3d:	83 7d fc 00          	cmpl   $0x0,-0x4(%rbp)
   13a41:	74 1c                	je     13a5f <main+0x6cc>
   13a43:	8b 4d f8             	mov    -0x8(%rbp),%ecx
   13a46:	8b 55 f4             	mov    -0xc(%rbp),%edx
   13a49:	8b 45 f0             	mov    -0x10(%rbp),%eax
   13a4c:	89 c6                	mov    %eax,%esi
   13a4e:	48 8d 3d 71 38 00 00 	lea    0x3871(%rip),%rdi        # 172c6 <g_2652+0x125a>
   13a55:	b8 00 00 00 00       	mov    $0x0,%eax
   13a5a:	e8 21 56 ff ff       	callq  9080 <printf@plt>
   13a5f:	83 45 f8 01          	addl   $0x1,-0x8(%rbp)
   13a63:	83 7d f8 05          	cmpl   $0x5,-0x8(%rbp)
   13a67:	0f 8e 12 ff ff ff    	jle    1397f <main+0x5ec>
   13a6d:	83 45 f4 01          	addl   $0x1,-0xc(%rbp)
   13a71:	83 7d f4 07          	cmpl   $0x7,-0xc(%rbp)
   13a75:	0f 8e f8 fe ff ff    	jle    13973 <main+0x5e0>
   13a7b:	83 45 f0 01          	addl   $0x1,-0x10(%rbp)
   13a7f:	83 7d f0 03          	cmpl   $0x3,-0x10(%rbp)
   13a83:	0f 8e de fe ff ff    	jle    13967 <main+0x5d4>
   13a89:	8b 05 b1 79 00 00    	mov    0x79b1(%rip),%eax        # 1b440 <g_411>
   13a8f:	89 c1                	mov    %eax,%ecx
   13a91:	8b 45 fc             	mov    -0x4(%rbp),%eax
   13a94:	89 c2                	mov    %eax,%edx
   13a96:	48 8d 35 3f 38 00 00 	lea    0x383f(%rip),%rsi        # 172dc <g_2652+0x1270>
   13a9d:	48 89 cf             	mov    %rcx,%rdi
   13aa0:	e8 4e 6c ff ff       	callq  a6f3 <transparent_crc>
   13aa5:	8b 05 95 79 00 00    	mov    0x7995(%rip),%eax        # 1b440 <g_411>
   13aab:	48 98                	cltq   
   13aad:	8b 55 fc             	mov    -0x4(%rbp),%edx
   13ab0:	48 8d 35 2e 38 00 00 	lea    0x382e(%rip),%rsi        # 172e5 <g_2652+0x1279>
   13ab7:	48 89 c7             	mov    %rax,%rdi
   13aba:	e8 34 6c ff ff       	callq  a6f3 <transparent_crc>
   13abf:	0f b6 05 7a 79 00 00 	movzbl 0x797a(%rip),%eax        # 1b440 <g_411>
   13ac6:	0f b6 c0             	movzbl %al,%eax
   13ac9:	8b 55 fc             	mov    -0x4(%rbp),%edx
   13acc:	48 8d 35 1b 38 00 00 	lea    0x381b(%rip),%rsi        # 172ee <g_2652+0x1282>
   13ad3:	48 89 c7             	mov    %rax,%rdi
   13ad6:	e8 18 6c ff ff       	callq  a6f3 <transparent_crc>
   13adb:	8b 05 5f 79 00 00    	mov    0x795f(%rip),%eax        # 1b440 <g_411>
   13ae1:	48 98                	cltq   
   13ae3:	8b 55 fc             	mov    -0x4(%rbp),%edx
   13ae6:	48 8d 35 0a 38 00 00 	lea    0x380a(%rip),%rsi        # 172f7 <g_2652+0x128b>
   13aed:	48 89 c7             	mov    %rax,%rdi
   13af0:	e8 fe 6b ff ff       	callq  a6f3 <transparent_crc>
   13af5:	0f b6 05 44 79 00 00 	movzbl 0x7944(%rip),%eax        # 1b440 <g_411>
   13afc:	48 0f be c0          	movsbq %al,%rax
   13b00:	8b 55 fc             	mov    -0x4(%rbp),%edx
   13b03:	48 8d 35 f6 37 00 00 	lea    0x37f6(%rip),%rsi        # 17300 <g_2652+0x1294>
   13b0a:	48 89 c7             	mov    %rax,%rdi
   13b0d:	e8 e1 6b ff ff       	callq  a6f3 <transparent_crc>
   13b12:	8b 05 2c 79 00 00    	mov    0x792c(%rip),%eax        # 1b444 <g_413>
   13b18:	89 c1                	mov    %eax,%ecx
   13b1a:	8b 45 fc             	mov    -0x4(%rbp),%eax
   13b1d:	89 c2                	mov    %eax,%edx
   13b1f:	48 8d 35 e3 37 00 00 	lea    0x37e3(%rip),%rsi        # 17309 <g_2652+0x129d>
   13b26:	48 89 cf             	mov    %rcx,%rdi
   13b29:	e8 c5 6b ff ff       	callq  a6f3 <transparent_crc>
   13b2e:	0f b7 05 13 79 00 00 	movzwl 0x7913(%rip),%eax        # 1b448 <g_435>
   13b35:	0f b7 c0             	movzwl %ax,%eax
   13b38:	8b 55 fc             	mov    -0x4(%rbp),%edx
   13b3b:	48 8d 35 cd 37 00 00 	lea    0x37cd(%rip),%rsi        # 1730f <g_2652+0x12a3>
   13b42:	48 89 c7             	mov    %rax,%rdi
   13b45:	e8 a9 6b ff ff       	callq  a6f3 <transparent_crc>
   13b4a:	0f b7 05 1f b9 00 00 	movzwl 0xb91f(%rip),%eax        # 1f470 <g_444>
   13b51:	0f b7 c0             	movzwl %ax,%eax
   13b54:	8b 55 fc             	mov    -0x4(%rbp),%edx
   13b57:	48 8d 35 b7 37 00 00 	lea    0x37b7(%rip),%rsi        # 17315 <g_2652+0x12a9>
   13b5e:	48 89 c7             	mov    %rax,%rdi
   13b61:	e8 8d 6b ff ff       	callq  a6f3 <transparent_crc>
   13b66:	0f b6 05 dd 78 00 00 	movzbl 0x78dd(%rip),%eax        # 1b44a <g_475>
   13b6d:	0f b6 c0             	movzbl %al,%eax
   13b70:	8b 55 fc             	mov    -0x4(%rbp),%edx
   13b73:	48 8d 35 a4 37 00 00 	lea    0x37a4(%rip),%rsi        # 1731e <g_2652+0x12b2>
   13b7a:	48 89 c7             	mov    %rax,%rdi
   13b7d:	e8 71 6b ff ff       	callq  a6f3 <transparent_crc>
   13b82:	0f b6 05 c2 78 00 00 	movzbl 0x78c2(%rip),%eax        # 1b44b <g_477>
   13b89:	0f b6 c0             	movzbl %al,%eax
   13b8c:	8b 55 fc             	mov    -0x4(%rbp),%edx
   13b8f:	48 8d 35 8e 37 00 00 	lea    0x378e(%rip),%rsi        # 17324 <g_2652+0x12b8>
   13b96:	48 89 c7             	mov    %rax,%rdi
   13b99:	e8 55 6b ff ff       	callq  a6f3 <transparent_crc>
   13b9e:	0f b7 05 a7 78 00 00 	movzwl 0x78a7(%rip),%eax        # 1b44c <g_483>
   13ba5:	48 0f bf c0          	movswq %ax,%rax
   13ba9:	8b 55 fc             	mov    -0x4(%rbp),%edx
   13bac:	48 8d 35 77 37 00 00 	lea    0x3777(%rip),%rsi        # 1732a <g_2652+0x12be>
   13bb3:	48 89 c7             	mov    %rax,%rdi
   13bb6:	e8 38 6b ff ff       	callq  a6f3 <transparent_crc>
   13bbb:	0f b7 05 8a 78 00 00 	movzwl 0x788a(%rip),%eax        # 1b44c <g_483>
   13bc2:	48 0f bf c0          	movswq %ax,%rax
   13bc6:	8b 55 fc             	mov    -0x4(%rbp),%edx
   13bc9:	48 8d 35 63 37 00 00 	lea    0x3763(%rip),%rsi        # 17333 <g_2652+0x12c7>
   13bd0:	48 89 c7             	mov    %rax,%rdi
   13bd3:	e8 1b 6b ff ff       	callq  a6f3 <transparent_crc>
   13bd8:	8b 05 72 78 00 00    	mov    0x7872(%rip),%eax        # 1b450 <g_515>
   13bde:	48 98                	cltq   
   13be0:	8b 55 fc             	mov    -0x4(%rbp),%edx
   13be3:	48 8d 35 52 37 00 00 	lea    0x3752(%rip),%rsi        # 1733c <g_2652+0x12d0>
   13bea:	48 89 c7             	mov    %rax,%rdi
   13bed:	e8 01 6b ff ff       	callq  a6f3 <transparent_crc>
   13bf2:	0f b7 05 5b 78 00 00 	movzwl 0x785b(%rip),%eax        # 1b454 <g_553>
   13bf9:	48 0f bf c0          	movswq %ax,%rax
   13bfd:	8b 55 fc             	mov    -0x4(%rbp),%edx
   13c00:	48 8d 35 3b 37 00 00 	lea    0x373b(%rip),%rsi        # 17342 <g_2652+0x12d6>
   13c07:	48 89 c7             	mov    %rax,%rdi
   13c0a:	e8 e4 6a ff ff       	callq  a6f3 <transparent_crc>
   13c0f:	0f b7 05 3e 78 00 00 	movzwl 0x783e(%rip),%eax        # 1b454 <g_553>
   13c16:	48 0f bf c0          	movswq %ax,%rax
   13c1a:	8b 55 fc             	mov    -0x4(%rbp),%edx
   13c1d:	48 8d 35 27 37 00 00 	lea    0x3727(%rip),%rsi        # 1734b <g_2652+0x12df>
   13c24:	48 89 c7             	mov    %rax,%rdi
   13c27:	e8 c7 6a ff ff       	callq  a6f3 <transparent_crc>
   13c2c:	48 b8 93 4e 7d 47 92 	movabs $0x9a9ecb92477d4e93,%rax
   13c33:	cb 9e 9a 
   13c36:	48 89 c1             	mov    %rax,%rcx
   13c39:	8b 45 fc             	mov    -0x4(%rbp),%eax
   13c3c:	89 c2                	mov    %eax,%edx
   13c3e:	48 8d 35 0f 37 00 00 	lea    0x370f(%rip),%rsi        # 17354 <g_2652+0x12e8>
   13c45:	48 89 cf             	mov    %rcx,%rdi
   13c48:	e8 a6 6a ff ff       	callq  a6f3 <transparent_crc>
   13c4d:	8b 05 25 b8 00 00    	mov    0xb825(%rip),%eax        # 1f478 <g_570>
   13c53:	89 c1                	mov    %eax,%ecx
   13c55:	8b 45 fc             	mov    -0x4(%rbp),%eax
   13c58:	89 c2                	mov    %eax,%edx
   13c5a:	48 8d 35 f9 36 00 00 	lea    0x36f9(%rip),%rsi        # 1735a <g_2652+0x12ee>
   13c61:	48 89 cf             	mov    %rcx,%rdi
   13c64:	e8 8a 6a ff ff       	callq  a6f3 <transparent_crc>
   13c69:	0f b7 05 e8 77 00 00 	movzwl 0x77e8(%rip),%eax        # 1b458 <g_576>
   13c70:	48 0f bf c0          	movswq %ax,%rax
   13c74:	8b 55 fc             	mov    -0x4(%rbp),%edx
   13c77:	48 8d 35 e2 36 00 00 	lea    0x36e2(%rip),%rsi        # 17360 <g_2652+0x12f4>
   13c7e:	48 89 c7             	mov    %rax,%rdi
   13c81:	e8 6d 6a ff ff       	callq  a6f3 <transparent_crc>
   13c86:	0f b7 05 cb 77 00 00 	movzwl 0x77cb(%rip),%eax        # 1b458 <g_576>
   13c8d:	48 0f bf c0          	movswq %ax,%rax
   13c91:	8b 55 fc             	mov    -0x4(%rbp),%edx
   13c94:	48 8d 35 ce 36 00 00 	lea    0x36ce(%rip),%rsi        # 17369 <g_2652+0x12fd>
   13c9b:	48 89 c7             	mov    %rax,%rdi
   13c9e:	e8 50 6a ff ff       	callq  a6f3 <transparent_crc>
   13ca3:	b8 ff ff ff ff       	mov    $0xffffffff,%eax
   13ca8:	48 0f be c0          	movsbq %al,%rax
   13cac:	8b 55 fc             	mov    -0x4(%rbp),%edx
   13caf:	48 8d 35 bc 36 00 00 	lea    0x36bc(%rip),%rsi        # 17372 <g_2652+0x1306>
   13cb6:	48 89 c7             	mov    %rax,%rdi
   13cb9:	e8 35 6a ff ff       	callq  a6f3 <transparent_crc>
   13cbe:	c7 45 f0 00 00 00 00 	movl   $0x0,-0x10(%rbp)
   13cc5:	eb 46                	jmp    13d0d <main+0x97a>
   13cc7:	8b 45 f0             	mov    -0x10(%rbp),%eax
   13cca:	48 98                	cltq   
   13ccc:	48 8d 15 8e 23 00 00 	lea    0x238e(%rip),%rdx        # 16061 <g_592>
   13cd3:	0f b6 04 10          	movzbl (%rax,%rdx,1),%eax
   13cd7:	48 0f be c0          	movsbq %al,%rax
   13cdb:	8b 55 fc             	mov    -0x4(%rbp),%edx
   13cde:	48 8d 35 93 36 00 00 	lea    0x3693(%rip),%rsi        # 17378 <g_2652+0x130c>
   13ce5:	48 89 c7             	mov    %rax,%rdi
   13ce8:	e8 06 6a ff ff       	callq  a6f3 <transparent_crc>
   13ced:	83 7d fc 00          	cmpl   $0x0,-0x4(%rbp)
   13cf1:	74 16                	je     13d09 <main+0x976>
   13cf3:	8b 45 f0             	mov    -0x10(%rbp),%eax
   13cf6:	89 c6                	mov    %eax,%esi
   13cf8:	48 8d 3d ed 34 00 00 	lea    0x34ed(%rip),%rdi        # 171ec <g_2652+0x1180>
   13cff:	b8 00 00 00 00       	mov    $0x0,%eax
   13d04:	e8 77 53 ff ff       	callq  9080 <printf@plt>
   13d09:	83 45 f0 01          	addl   $0x1,-0x10(%rbp)
   13d0d:	83 7d f0 03          	cmpl   $0x3,-0x10(%rbp)
   13d11:	7e b4                	jle    13cc7 <main+0x934>
   13d13:	c7 45 f0 00 00 00 00 	movl   $0x0,-0x10(%rbp)
   13d1a:	eb 77                	jmp    13d93 <main+0xa00>
   13d1c:	c7 45 f4 00 00 00 00 	movl   $0x0,-0xc(%rbp)
   13d23:	eb 64                	jmp    13d89 <main+0x9f6>
   13d25:	8b 45 f4             	mov    -0xc(%rbp),%eax
   13d28:	48 63 c8             	movslq %eax,%rcx
   13d2b:	8b 45 f0             	mov    -0x10(%rbp),%eax
   13d2e:	48 63 d0             	movslq %eax,%rdx
   13d31:	48 89 d0             	mov    %rdx,%rax
   13d34:	48 c1 e0 02          	shl    $0x2,%rax
   13d38:	48 01 d0             	add    %rdx,%rax
   13d3b:	48 01 c0             	add    %rax,%rax
   13d3e:	48 01 c8             	add    %rcx,%rax
   13d41:	48 8d 14 c5 00 00 00 	lea    0x0(,%rax,8),%rdx
   13d48:	00 
   13d49:	48 8d 05 10 77 00 00 	lea    0x7710(%rip),%rax        # 1b460 <g_606>
   13d50:	48 8b 04 02          	mov    (%rdx,%rax,1),%rax
   13d54:	8b 55 fc             	mov    -0x4(%rbp),%edx
   13d57:	48 8d 35 23 36 00 00 	lea    0x3623(%rip),%rsi        # 17381 <g_2652+0x1315>
   13d5e:	48 89 c7             	mov    %rax,%rdi
   13d61:	e8 8d 69 ff ff       	callq  a6f3 <transparent_crc>
   13d66:	83 7d fc 00          	cmpl   $0x0,-0x4(%rbp)
   13d6a:	74 19                	je     13d85 <main+0x9f2>
   13d6c:	8b 55 f4             	mov    -0xc(%rbp),%edx
   13d6f:	8b 45 f0             	mov    -0x10(%rbp),%eax
   13d72:	89 c6                	mov    %eax,%esi
   13d74:	48 8d 3d 38 34 00 00 	lea    0x3438(%rip),%rdi        # 171b3 <g_2652+0x1147>
   13d7b:	b8 00 00 00 00       	mov    $0x0,%eax
   13d80:	e8 fb 52 ff ff       	callq  9080 <printf@plt>
   13d85:	83 45 f4 01          	addl   $0x1,-0xc(%rbp)
   13d89:	83 7d f4 09          	cmpl   $0x9,-0xc(%rbp)
   13d8d:	7e 96                	jle    13d25 <main+0x992>
   13d8f:	83 45 f0 01          	addl   $0x1,-0x10(%rbp)
   13d93:	83 7d f0 06          	cmpl   $0x6,-0x10(%rbp)
   13d97:	7e 83                	jle    13d1c <main+0x989>
   13d99:	8b 05 f1 78 00 00    	mov    0x78f1(%rip),%eax        # 1b690 <g_611>
   13d9f:	89 c1                	mov    %eax,%ecx
   13da1:	8b 45 fc             	mov    -0x4(%rbp),%eax
   13da4:	89 c2                	mov    %eax,%edx
   13da6:	48 8d 35 e0 35 00 00 	lea    0x35e0(%rip),%rsi        # 1738d <g_2652+0x1321>
   13dad:	48 89 cf             	mov    %rcx,%rdi
   13db0:	e8 3e 69 ff ff       	callq  a6f3 <transparent_crc>
   13db5:	b8 8e cd ff ff       	mov    $0xffffcd8e,%eax
   13dba:	0f b7 c0             	movzwl %ax,%eax
   13dbd:	8b 55 fc             	mov    -0x4(%rbp),%edx
   13dc0:	48 8d 35 cc 35 00 00 	lea    0x35cc(%rip),%rsi        # 17393 <g_2652+0x1327>
   13dc7:	48 89 c7             	mov    %rax,%rdi
   13dca:	e8 24 69 ff ff       	callq  a6f3 <transparent_crc>
   13dcf:	8b 05 bf 78 00 00    	mov    0x78bf(%rip),%eax        # 1b694 <g_622>
   13dd5:	89 c1                	mov    %eax,%ecx
   13dd7:	8b 45 fc             	mov    -0x4(%rbp),%eax
   13dda:	89 c2                	mov    %eax,%edx
   13ddc:	48 8d 35 b6 35 00 00 	lea    0x35b6(%rip),%rsi        # 17399 <g_2652+0x132d>
   13de3:	48 89 cf             	mov    %rcx,%rdi
   13de6:	e8 08 69 ff ff       	callq  a6f3 <transparent_crc>
   13deb:	48 8b 05 a6 78 00 00 	mov    0x78a6(%rip),%rax        # 1b698 <g_626>
   13df2:	48 89 c1             	mov    %rax,%rcx
   13df5:	8b 45 fc             	mov    -0x4(%rbp),%eax
   13df8:	89 c2                	mov    %eax,%edx
   13dfa:	48 8d 35 9e 35 00 00 	lea    0x359e(%rip),%rsi        # 1739f <g_2652+0x1333>
   13e01:	48 89 cf             	mov    %rcx,%rdi
   13e04:	e8 ea 68 ff ff       	callq  a6f3 <transparent_crc>
   13e09:	8b 05 91 78 00 00    	mov    0x7891(%rip),%eax        # 1b6a0 <g_639>
   13e0f:	89 c1                	mov    %eax,%ecx
   13e11:	8b 45 fc             	mov    -0x4(%rbp),%eax
   13e14:	89 c2                	mov    %eax,%edx
   13e16:	48 8d 35 8b 35 00 00 	lea    0x358b(%rip),%rsi        # 173a8 <g_2652+0x133c>
   13e1d:	48 89 cf             	mov    %rcx,%rdi
   13e20:	e8 ce 68 ff ff       	callq  a6f3 <transparent_crc>
   13e25:	8b 05 75 78 00 00    	mov    0x7875(%rip),%eax        # 1b6a0 <g_639>
   13e2b:	48 98                	cltq   
   13e2d:	8b 55 fc             	mov    -0x4(%rbp),%edx
   13e30:	48 8d 35 7a 35 00 00 	lea    0x357a(%rip),%rsi        # 173b1 <g_2652+0x1345>
   13e37:	48 89 c7             	mov    %rax,%rdi
   13e3a:	e8 b4 68 ff ff       	callq  a6f3 <transparent_crc>
   13e3f:	0f b6 05 5a 78 00 00 	movzbl 0x785a(%rip),%eax        # 1b6a0 <g_639>
   13e46:	0f b6 c0             	movzbl %al,%eax
   13e49:	8b 55 fc             	mov    -0x4(%rbp),%edx
   13e4c:	48 8d 35 67 35 00 00 	lea    0x3567(%rip),%rsi        # 173ba <g_2652+0x134e>
   13e53:	48 89 c7             	mov    %rax,%rdi
   13e56:	e8 98 68 ff ff       	callq  a6f3 <transparent_crc>
   13e5b:	8b 05 3f 78 00 00    	mov    0x783f(%rip),%eax        # 1b6a0 <g_639>
   13e61:	48 98                	cltq   
   13e63:	8b 55 fc             	mov    -0x4(%rbp),%edx
   13e66:	48 8d 35 56 35 00 00 	lea    0x3556(%rip),%rsi        # 173c3 <g_2652+0x1357>
   13e6d:	48 89 c7             	mov    %rax,%rdi
   13e70:	e8 7e 68 ff ff       	callq  a6f3 <transparent_crc>
   13e75:	0f b6 05 24 78 00 00 	movzbl 0x7824(%rip),%eax        # 1b6a0 <g_639>
   13e7c:	48 0f be c0          	movsbq %al,%rax
   13e80:	8b 55 fc             	mov    -0x4(%rbp),%edx
   13e83:	48 8d 35 42 35 00 00 	lea    0x3542(%rip),%rsi        # 173cc <g_2652+0x1360>
   13e8a:	48 89 c7             	mov    %rax,%rdi
   13e8d:	e8 61 68 ff ff       	callq  a6f3 <transparent_crc>
   13e92:	0f b7 05 0b 78 00 00 	movzwl 0x780b(%rip),%eax        # 1b6a4 <g_654>
   13e99:	0f b7 c0             	movzwl %ax,%eax
   13e9c:	8b 55 fc             	mov    -0x4(%rbp),%edx
   13e9f:	48 8d 35 2f 35 00 00 	lea    0x352f(%rip),%rsi        # 173d5 <g_2652+0x1369>
   13ea6:	48 89 c7             	mov    %rax,%rdi
   13ea9:	e8 45 68 ff ff       	callq  a6f3 <transparent_crc>
   13eae:	c7 45 f0 00 00 00 00 	movl   $0x0,-0x10(%rbp)
   13eb5:	e9 fe 00 00 00       	jmpq   13fb8 <main+0xc25>
   13eba:	8b 45 f0             	mov    -0x10(%rbp),%eax
   13ebd:	48 98                	cltq   
   13ebf:	48 8d 14 85 00 00 00 	lea    0x0(,%rax,4),%rdx
   13ec6:	00 
   13ec7:	48 8d 05 f2 77 00 00 	lea    0x77f2(%rip),%rax        # 1b6c0 <g_715>
   13ece:	8b 04 02             	mov    (%rdx,%rax,1),%eax
   13ed1:	89 c1                	mov    %eax,%ecx
   13ed3:	8b 45 fc             	mov    -0x4(%rbp),%eax
   13ed6:	89 c2                	mov    %eax,%edx
   13ed8:	48 8d 35 fc 34 00 00 	lea    0x34fc(%rip),%rsi        # 173db <g_2652+0x136f>
   13edf:	48 89 cf             	mov    %rcx,%rdi
   13ee2:	e8 0c 68 ff ff       	callq  a6f3 <transparent_crc>
   13ee7:	8b 45 f0             	mov    -0x10(%rbp),%eax
   13eea:	48 98                	cltq   
   13eec:	48 8d 14 85 00 00 00 	lea    0x0(,%rax,4),%rdx
   13ef3:	00 
   13ef4:	48 8d 05 c5 77 00 00 	lea    0x77c5(%rip),%rax        # 1b6c0 <g_715>
   13efb:	8b 04 02             	mov    (%rdx,%rax,1),%eax
   13efe:	48 98                	cltq   
   13f00:	8b 55 fc             	mov    -0x4(%rbp),%edx
   13f03:	48 8d 35 dd 34 00 00 	lea    0x34dd(%rip),%rsi        # 173e7 <g_2652+0x137b>
   13f0a:	48 89 c7             	mov    %rax,%rdi
   13f0d:	e8 e1 67 ff ff       	callq  a6f3 <transparent_crc>
   13f12:	8b 45 f0             	mov    -0x10(%rbp),%eax
   13f15:	48 98                	cltq   
   13f17:	48 8d 14 85 00 00 00 	lea    0x0(,%rax,4),%rdx
   13f1e:	00 
   13f1f:	48 8d 05 9a 77 00 00 	lea    0x779a(%rip),%rax        # 1b6c0 <g_715>
   13f26:	0f b6 04 02          	movzbl (%rdx,%rax,1),%eax
   13f2a:	0f b6 c0             	movzbl %al,%eax
   13f2d:	8b 55 fc             	mov    -0x4(%rbp),%edx
   13f30:	48 8d 35 bc 34 00 00 	lea    0x34bc(%rip),%rsi        # 173f3 <g_2652+0x1387>
   13f37:	48 89 c7             	mov    %rax,%rdi
   13f3a:	e8 b4 67 ff ff       	callq  a6f3 <transparent_crc>
   13f3f:	8b 45 f0             	mov    -0x10(%rbp),%eax
   13f42:	48 98                	cltq   
   13f44:	48 8d 14 85 00 00 00 	lea    0x0(,%rax,4),%rdx
   13f4b:	00 
   13f4c:	48 8d 05 6d 77 00 00 	lea    0x776d(%rip),%rax        # 1b6c0 <g_715>
   13f53:	8b 04 02             	mov    (%rdx,%rax,1),%eax
   13f56:	48 98                	cltq   
   13f58:	8b 55 fc             	mov    -0x4(%rbp),%edx
   13f5b:	48 8d 35 9d 34 00 00 	lea    0x349d(%rip),%rsi        # 173ff <g_2652+0x1393>
   13f62:	48 89 c7             	mov    %rax,%rdi
   13f65:	e8 89 67 ff ff       	callq  a6f3 <transparent_crc>
   13f6a:	8b 45 f0             	mov    -0x10(%rbp),%eax
   13f6d:	48 98                	cltq   
   13f6f:	48 8d 14 85 00 00 00 	lea    0x0(,%rax,4),%rdx
   13f76:	00 
   13f77:	48 8d 05 42 77 00 00 	lea    0x7742(%rip),%rax        # 1b6c0 <g_715>
   13f7e:	0f b6 04 02          	movzbl (%rdx,%rax,1),%eax
   13f82:	48 0f be c0          	movsbq %al,%rax
   13f86:	8b 55 fc             	mov    -0x4(%rbp),%edx
   13f89:	48 8d 35 7b 34 00 00 	lea    0x347b(%rip),%rsi        # 1740b <g_2652+0x139f>
   13f90:	48 89 c7             	mov    %rax,%rdi
   13f93:	e8 5b 67 ff ff       	callq  a6f3 <transparent_crc>
   13f98:	83 7d fc 00          	cmpl   $0x0,-0x4(%rbp)
   13f9c:	74 16                	je     13fb4 <main+0xc21>
   13f9e:	8b 45 f0             	mov    -0x10(%rbp),%eax
   13fa1:	89 c6                	mov    %eax,%esi
   13fa3:	48 8d 3d 42 32 00 00 	lea    0x3242(%rip),%rdi        # 171ec <g_2652+0x1180>
   13faa:	b8 00 00 00 00       	mov    $0x0,%eax
   13faf:	e8 cc 50 ff ff       	callq  9080 <printf@plt>
   13fb4:	83 45 f0 01          	addl   $0x1,-0x10(%rbp)
   13fb8:	83 7d f0 08          	cmpl   $0x8,-0x10(%rbp)
   13fbc:	0f 8e f8 fe ff ff    	jle    13eba <main+0xb27>
   13fc2:	0f b7 05 1f 77 00 00 	movzwl 0x771f(%rip),%eax        # 1b6e8 <g_744>
   13fc9:	0f b7 c0             	movzwl %ax,%eax
   13fcc:	8b 55 fc             	mov    -0x4(%rbp),%edx
   13fcf:	48 8d 35 41 34 00 00 	lea    0x3441(%rip),%rsi        # 17417 <g_2652+0x13ab>
   13fd6:	48 89 c7             	mov    %rax,%rdi
   13fd9:	e8 15 67 ff ff       	callq  a6f3 <transparent_crc>
   13fde:	c7 45 f0 00 00 00 00 	movl   $0x0,-0x10(%rbp)
   13fe5:	e9 26 01 00 00       	jmpq   14110 <main+0xd7d>
   13fea:	c7 45 f4 00 00 00 00 	movl   $0x0,-0xc(%rbp)
   13ff1:	e9 0c 01 00 00       	jmpq   14102 <main+0xd6f>
   13ff6:	c7 45 f8 00 00 00 00 	movl   $0x0,-0x8(%rbp)
   13ffd:	e9 f2 00 00 00       	jmpq   140f4 <main+0xd61>
   14002:	8b 45 f8             	mov    -0x8(%rbp),%eax
   14005:	48 63 f0             	movslq %eax,%rsi
   14008:	8b 45 f0             	mov    -0x10(%rbp),%eax
   1400b:	48 63 d0             	movslq %eax,%rdx
   1400e:	8b 45 f4             	mov    -0xc(%rbp),%eax
   14011:	48 63 c8             	movslq %eax,%rcx
   14014:	48 89 d0             	mov    %rdx,%rax
   14017:	48 c1 e0 02          	shl    $0x2,%rax
   1401b:	48 01 d0             	add    %rdx,%rax
   1401e:	48 8d 14 85 00 00 00 	lea    0x0(,%rax,4),%rdx
   14025:	00 
   14026:	48 01 d0             	add    %rdx,%rax
   14029:	48 01 c0             	add    %rax,%rax
   1402c:	48 89 ca             	mov    %rcx,%rdx
   1402f:	48 c1 e2 02          	shl    $0x2,%rdx
   14033:	48 01 ca             	add    %rcx,%rdx
   14036:	48 01 d2             	add    %rdx,%rdx
   14039:	48 01 d0             	add    %rdx,%rax
   1403c:	48 01 f0             	add    %rsi,%rax
   1403f:	48 8d 14 85 00 00 00 	lea    0x0(,%rax,4),%rdx
   14046:	00 
   14047:	48 8d 05 b2 76 00 00 	lea    0x76b2(%rip),%rax        # 1b700 <g_745>
   1404e:	0f b7 04 02          	movzwl (%rdx,%rax,1),%eax
   14052:	48 0f bf c0          	movswq %ax,%rax
   14056:	8b 55 fc             	mov    -0x4(%rbp),%edx
   14059:	48 8d 35 c0 33 00 00 	lea    0x33c0(%rip),%rsi        # 17420 <g_2652+0x13b4>
   14060:	48 89 c7             	mov    %rax,%rdi
   14063:	e8 8b 66 ff ff       	callq  a6f3 <transparent_crc>
   14068:	8b 45 f8             	mov    -0x8(%rbp),%eax
   1406b:	48 63 f0             	movslq %eax,%rsi
   1406e:	8b 45 f0             	mov    -0x10(%rbp),%eax
   14071:	48 63 d0             	movslq %eax,%rdx
   14074:	8b 45 f4             	mov    -0xc(%rbp),%eax
   14077:	48 63 c8             	movslq %eax,%rcx
   1407a:	48 89 d0             	mov    %rdx,%rax
   1407d:	48 c1 e0 02          	shl    $0x2,%rax
   14081:	48 01 d0             	add    %rdx,%rax
   14084:	48 8d 14 85 00 00 00 	lea    0x0(,%rax,4),%rdx
   1408b:	00 
   1408c:	48 01 d0             	add    %rdx,%rax
   1408f:	48 01 c0             	add    %rax,%rax
   14092:	48 89 ca             	mov    %rcx,%rdx
   14095:	48 c1 e2 02          	shl    $0x2,%rdx
   14099:	48 01 ca             	add    %rcx,%rdx
   1409c:	48 01 d2             	add    %rdx,%rdx
   1409f:	48 01 d0             	add    %rdx,%rax
   140a2:	48 01 f0             	add    %rsi,%rax
   140a5:	48 8d 14 85 00 00 00 	lea    0x0(,%rax,4),%rdx
   140ac:	00 
   140ad:	48 8d 05 4c 76 00 00 	lea    0x764c(%rip),%rax        # 1b700 <g_745>
   140b4:	0f b7 04 02          	movzwl (%rdx,%rax,1),%eax
   140b8:	48 0f bf c0          	movswq %ax,%rax
   140bc:	8b 55 fc             	mov    -0x4(%rbp),%edx
   140bf:	48 8d 35 6c 33 00 00 	lea    0x336c(%rip),%rsi        # 17432 <g_2652+0x13c6>
   140c6:	48 89 c7             	mov    %rax,%rdi
   140c9:	e8 25 66 ff ff       	callq  a6f3 <transparent_crc>
   140ce:	83 7d fc 00          	cmpl   $0x0,-0x4(%rbp)
   140d2:	74 1c                	je     140f0 <main+0xd5d>
   140d4:	8b 4d f8             	mov    -0x8(%rbp),%ecx
   140d7:	8b 55 f4             	mov    -0xc(%rbp),%edx
   140da:	8b 45 f0             	mov    -0x10(%rbp),%eax
   140dd:	89 c6                	mov    %eax,%esi
   140df:	48 8d 3d e0 31 00 00 	lea    0x31e0(%rip),%rdi        # 172c6 <g_2652+0x125a>
   140e6:	b8 00 00 00 00       	mov    $0x0,%eax
   140eb:	e8 90 4f ff ff       	callq  9080 <printf@plt>
   140f0:	83 45 f8 01          	addl   $0x1,-0x8(%rbp)
   140f4:	83 7d f8 09          	cmpl   $0x9,-0x8(%rbp)
   140f8:	0f 8e 04 ff ff ff    	jle    14002 <main+0xc6f>
   140fe:	83 45 f4 01          	addl   $0x1,-0xc(%rbp)
   14102:	83 7d f4 04          	cmpl   $0x4,-0xc(%rbp)
   14106:	0f 8e ea fe ff ff    	jle    13ff6 <main+0xc63>
   1410c:	83 45 f0 01          	addl   $0x1,-0x10(%rbp)
   14110:	83 7d f0 00          	cmpl   $0x0,-0x10(%rbp)
   14114:	0f 8e d0 fe ff ff    	jle    13fea <main+0xc57>
   1411a:	0f b7 05 a7 76 00 00 	movzwl 0x76a7(%rip),%eax        # 1b7c8 <g_861>
   14121:	48 0f bf c0          	movswq %ax,%rax
   14125:	8b 55 fc             	mov    -0x4(%rbp),%edx
   14128:	48 8d 35 15 33 00 00 	lea    0x3315(%rip),%rsi        # 17444 <g_2652+0x13d8>
   1412f:	48 89 c7             	mov    %rax,%rdi
   14132:	e8 bc 65 ff ff       	callq  a6f3 <transparent_crc>
   14137:	0f b7 05 8a 76 00 00 	movzwl 0x768a(%rip),%eax        # 1b7c8 <g_861>
   1413e:	48 0f bf c0          	movswq %ax,%rax
   14142:	8b 55 fc             	mov    -0x4(%rbp),%edx
   14145:	48 8d 35 01 33 00 00 	lea    0x3301(%rip),%rsi        # 1744d <g_2652+0x13e1>
   1414c:	48 89 c7             	mov    %rax,%rdi
   1414f:	e8 9f 65 ff ff       	callq  a6f3 <transparent_crc>
   14154:	0f b6 05 71 76 00 00 	movzbl 0x7671(%rip),%eax        # 1b7cc <g_922>
   1415b:	0f b6 c0             	movzbl %al,%eax
   1415e:	8b 55 fc             	mov    -0x4(%rbp),%edx
   14161:	48 8d 35 ee 32 00 00 	lea    0x32ee(%rip),%rsi        # 17456 <g_2652+0x13ea>
   14168:	48 89 c7             	mov    %rax,%rdi
   1416b:	e8 83 65 ff ff       	callq  a6f3 <transparent_crc>
   14170:	c7 45 f0 00 00 00 00 	movl   $0x0,-0x10(%rbp)
   14177:	e9 fe 00 00 00       	jmpq   1427a <main+0xee7>
   1417c:	8b 45 f0             	mov    -0x10(%rbp),%eax
   1417f:	48 98                	cltq   
   14181:	48 8d 14 85 00 00 00 	lea    0x0(,%rax,4),%rdx
   14188:	00 
   14189:	48 8d 05 40 76 00 00 	lea    0x7640(%rip),%rax        # 1b7d0 <g_940>
   14190:	8b 04 02             	mov    (%rdx,%rax,1),%eax
   14193:	89 c1                	mov    %eax,%ecx
   14195:	8b 45 fc             	mov    -0x4(%rbp),%eax
   14198:	89 c2                	mov    %eax,%edx
   1419a:	48 8d 35 bb 32 00 00 	lea    0x32bb(%rip),%rsi        # 1745c <g_2652+0x13f0>
   141a1:	48 89 cf             	mov    %rcx,%rdi
   141a4:	e8 4a 65 ff ff       	callq  a6f3 <transparent_crc>
   141a9:	8b 45 f0             	mov    -0x10(%rbp),%eax
   141ac:	48 98                	cltq   
   141ae:	48 8d 14 85 00 00 00 	lea    0x0(,%rax,4),%rdx
   141b5:	00 
   141b6:	48 8d 05 13 76 00 00 	lea    0x7613(%rip),%rax        # 1b7d0 <g_940>
   141bd:	8b 04 02             	mov    (%rdx,%rax,1),%eax
   141c0:	48 98                	cltq   
   141c2:	8b 55 fc             	mov    -0x4(%rbp),%edx
   141c5:	48 8d 35 9c 32 00 00 	lea    0x329c(%rip),%rsi        # 17468 <g_2652+0x13fc>
   141cc:	48 89 c7             	mov    %rax,%rdi
   141cf:	e8 1f 65 ff ff       	callq  a6f3 <transparent_crc>
   141d4:	8b 45 f0             	mov    -0x10(%rbp),%eax
   141d7:	48 98                	cltq   
   141d9:	48 8d 14 85 00 00 00 	lea    0x0(,%rax,4),%rdx
   141e0:	00 
   141e1:	48 8d 05 e8 75 00 00 	lea    0x75e8(%rip),%rax        # 1b7d0 <g_940>
   141e8:	0f b6 04 02          	movzbl (%rdx,%rax,1),%eax
   141ec:	0f b6 c0             	movzbl %al,%eax
   141ef:	8b 55 fc             	mov    -0x4(%rbp),%edx
   141f2:	48 8d 35 7b 32 00 00 	lea    0x327b(%rip),%rsi        # 17474 <g_2652+0x1408>
   141f9:	48 89 c7             	mov    %rax,%rdi
   141fc:	e8 f2 64 ff ff       	callq  a6f3 <transparent_crc>
   14201:	8b 45 f0             	mov    -0x10(%rbp),%eax
   14204:	48 98                	cltq   
   14206:	48 8d 14 85 00 00 00 	lea    0x0(,%rax,4),%rdx
   1420d:	00 
   1420e:	48 8d 05 bb 75 00 00 	lea    0x75bb(%rip),%rax        # 1b7d0 <g_940>
   14215:	8b 04 02             	mov    (%rdx,%rax,1),%eax
   14218:	48 98                	cltq   
   1421a:	8b 55 fc             	mov    -0x4(%rbp),%edx
   1421d:	48 8d 35 5c 32 00 00 	lea    0x325c(%rip),%rsi        # 17480 <g_2652+0x1414>
   14224:	48 89 c7             	mov    %rax,%rdi
   14227:	e8 c7 64 ff ff       	callq  a6f3 <transparent_crc>
   1422c:	8b 45 f0             	mov    -0x10(%rbp),%eax
   1422f:	48 98                	cltq   
   14231:	48 8d 14 85 00 00 00 	lea    0x0(,%rax,4),%rdx
   14238:	00 
   14239:	48 8d 05 90 75 00 00 	lea    0x7590(%rip),%rax        # 1b7d0 <g_940>
   14240:	0f b6 04 02          	movzbl (%rdx,%rax,1),%eax
   14244:	48 0f be c0          	movsbq %al,%rax
   14248:	8b 55 fc             	mov    -0x4(%rbp),%edx
   1424b:	48 8d 35 3a 32 00 00 	lea    0x323a(%rip),%rsi        # 1748c <g_2652+0x1420>
   14252:	48 89 c7             	mov    %rax,%rdi
   14255:	e8 99 64 ff ff       	callq  a6f3 <transparent_crc>
   1425a:	83 7d fc 00          	cmpl   $0x0,-0x4(%rbp)
   1425e:	74 16                	je     14276 <main+0xee3>
   14260:	8b 45 f0             	mov    -0x10(%rbp),%eax
   14263:	89 c6                	mov    %eax,%esi
   14265:	48 8d 3d 80 2f 00 00 	lea    0x2f80(%rip),%rdi        # 171ec <g_2652+0x1180>
   1426c:	b8 00 00 00 00       	mov    $0x0,%eax
   14271:	e8 0a 4e ff ff       	callq  9080 <printf@plt>
   14276:	83 45 f0 01          	addl   $0x1,-0x10(%rbp)
   1427a:	83 7d f0 04          	cmpl   $0x4,-0x10(%rbp)
   1427e:	0f 8e f8 fe ff ff    	jle    1417c <main+0xde9>
   14284:	8b 05 5a 75 00 00    	mov    0x755a(%rip),%eax        # 1b7e4 <g_1007>
   1428a:	48 98                	cltq   
   1428c:	8b 55 fc             	mov    -0x4(%rbp),%edx
   1428f:	48 8d 35 02 32 00 00 	lea    0x3202(%rip),%rsi        # 17498 <g_2652+0x142c>
   14296:	48 89 c7             	mov    %rax,%rdi
   14299:	e8 55 64 ff ff       	callq  a6f3 <transparent_crc>
   1429e:	0f b7 05 43 75 00 00 	movzwl 0x7543(%rip),%eax        # 1b7e8 <g_1010>
   142a5:	0f b7 c0             	movzwl %ax,%eax
   142a8:	8b 55 fc             	mov    -0x4(%rbp),%edx
   142ab:	48 8d 35 ed 31 00 00 	lea    0x31ed(%rip),%rsi        # 1749f <g_2652+0x1433>
   142b2:	48 89 c7             	mov    %rax,%rdi
   142b5:	e8 39 64 ff ff       	callq  a6f3 <transparent_crc>
   142ba:	0f b7 05 2f 75 00 00 	movzwl 0x752f(%rip),%eax        # 1b7f0 <g_1052>
   142c1:	0f b7 c0             	movzwl %ax,%eax
   142c4:	8b 55 fc             	mov    -0x4(%rbp),%edx
   142c7:	48 8d 35 db 31 00 00 	lea    0x31db(%rip),%rsi        # 174a9 <g_2652+0x143d>
   142ce:	48 89 c7             	mov    %rax,%rdi
   142d1:	e8 1d 64 ff ff       	callq  a6f3 <transparent_crc>
   142d6:	0f b7 05 1b 75 00 00 	movzwl 0x751b(%rip),%eax        # 1b7f8 <g_1087>
   142dd:	0f b7 c0             	movzwl %ax,%eax
   142e0:	8b 55 fc             	mov    -0x4(%rbp),%edx
   142e3:	48 8d 35 c9 31 00 00 	lea    0x31c9(%rip),%rsi        # 174b3 <g_2652+0x1447>
   142ea:	48 89 c7             	mov    %rax,%rdi
   142ed:	e8 01 64 ff ff       	callq  a6f3 <transparent_crc>
   142f2:	8b 05 08 75 00 00    	mov    0x7508(%rip),%eax        # 1b800 <g_1101>
   142f8:	89 c1                	mov    %eax,%ecx
   142fa:	8b 45 fc             	mov    -0x4(%rbp),%eax
   142fd:	89 c2                	mov    %eax,%edx
   142ff:	48 8d 35 b7 31 00 00 	lea    0x31b7(%rip),%rsi        # 174bd <g_2652+0x1451>
   14306:	48 89 cf             	mov    %rcx,%rdi
   14309:	e8 e5 63 ff ff       	callq  a6f3 <transparent_crc>
   1430e:	8b 05 ec 74 00 00    	mov    0x74ec(%rip),%eax        # 1b800 <g_1101>
   14314:	48 98                	cltq   
   14316:	8b 55 fc             	mov    -0x4(%rbp),%edx
   14319:	48 8d 35 a7 31 00 00 	lea    0x31a7(%rip),%rsi        # 174c7 <g_2652+0x145b>
   14320:	48 89 c7             	mov    %rax,%rdi
   14323:	e8 cb 63 ff ff       	callq  a6f3 <transparent_crc>
   14328:	0f b6 05 d1 74 00 00 	movzbl 0x74d1(%rip),%eax        # 1b800 <g_1101>
   1432f:	0f b6 c0             	movzbl %al,%eax
   14332:	8b 55 fc             	mov    -0x4(%rbp),%edx
   14335:	48 8d 35 95 31 00 00 	lea    0x3195(%rip),%rsi        # 174d1 <g_2652+0x1465>
   1433c:	48 89 c7             	mov    %rax,%rdi
   1433f:	e8 af 63 ff ff       	callq  a6f3 <transparent_crc>
   14344:	8b 05 b6 74 00 00    	mov    0x74b6(%rip),%eax        # 1b800 <g_1101>
   1434a:	48 98                	cltq   
   1434c:	8b 55 fc             	mov    -0x4(%rbp),%edx
   1434f:	48 8d 35 85 31 00 00 	lea    0x3185(%rip),%rsi        # 174db <g_2652+0x146f>
   14356:	48 89 c7             	mov    %rax,%rdi
   14359:	e8 95 63 ff ff       	callq  a6f3 <transparent_crc>
   1435e:	0f b6 05 9b 74 00 00 	movzbl 0x749b(%rip),%eax        # 1b800 <g_1101>
   14365:	48 0f be c0          	movsbq %al,%rax
   14369:	8b 55 fc             	mov    -0x4(%rbp),%edx
   1436c:	48 8d 35 72 31 00 00 	lea    0x3172(%rip),%rsi        # 174e5 <g_2652+0x1479>
   14373:	48 89 c7             	mov    %rax,%rdi
   14376:	e8 78 63 ff ff       	callq  a6f3 <transparent_crc>
   1437b:	0f b7 05 86 74 00 00 	movzwl 0x7486(%rip),%eax        # 1b808 <g_1130>
   14382:	0f b7 c0             	movzwl %ax,%eax
   14385:	8b 55 fc             	mov    -0x4(%rbp),%edx
   14388:	48 8d 35 60 31 00 00 	lea    0x3160(%rip),%rsi        # 174ef <g_2652+0x1483>
   1438f:	48 89 c7             	mov    %rax,%rdi
   14392:	e8 5c 63 ff ff       	callq  a6f3 <transparent_crc>
   14397:	0f b6 05 72 74 00 00 	movzbl 0x7472(%rip),%eax        # 1b810 <g_1186>
   1439e:	0f b6 c0             	movzbl %al,%eax
   143a1:	8b 55 fc             	mov    -0x4(%rbp),%edx
   143a4:	48 8d 35 4e 31 00 00 	lea    0x314e(%rip),%rsi        # 174f9 <g_2652+0x148d>
   143ab:	48 89 c7             	mov    %rax,%rdi
   143ae:	e8 40 63 ff ff       	callq  a6f3 <transparent_crc>
   143b3:	8b 05 f7 b0 00 00    	mov    0xb0f7(%rip),%eax        # 1f4b0 <g_1284>
   143b9:	89 c1                	mov    %eax,%ecx
   143bb:	8b 45 fc             	mov    -0x4(%rbp),%eax
   143be:	89 c2                	mov    %eax,%edx
   143c0:	48 8d 35 39 31 00 00 	lea    0x3139(%rip),%rsi        # 17500 <g_2652+0x1494>
   143c7:	48 89 cf             	mov    %rcx,%rdi
   143ca:	e8 24 63 ff ff       	callq  a6f3 <transparent_crc>
   143cf:	8b 05 db b0 00 00    	mov    0xb0db(%rip),%eax        # 1f4b0 <g_1284>
   143d5:	48 98                	cltq   
   143d7:	8b 55 fc             	mov    -0x4(%rbp),%edx
   143da:	48 8d 35 29 31 00 00 	lea    0x3129(%rip),%rsi        # 1750a <g_2652+0x149e>
   143e1:	48 89 c7             	mov    %rax,%rdi
   143e4:	e8 0a 63 ff ff       	callq  a6f3 <transparent_crc>
   143e9:	0f b6 05 c0 b0 00 00 	movzbl 0xb0c0(%rip),%eax        # 1f4b0 <g_1284>
   143f0:	0f b6 c0             	movzbl %al,%eax
   143f3:	8b 55 fc             	mov    -0x4(%rbp),%edx
   143f6:	48 8d 35 17 31 00 00 	lea    0x3117(%rip),%rsi        # 17514 <g_2652+0x14a8>
   143fd:	48 89 c7             	mov    %rax,%rdi
   14400:	e8 ee 62 ff ff       	callq  a6f3 <transparent_crc>
   14405:	8b 05 a5 b0 00 00    	mov    0xb0a5(%rip),%eax        # 1f4b0 <g_1284>
   1440b:	48 98                	cltq   
   1440d:	8b 55 fc             	mov    -0x4(%rbp),%edx
   14410:	48 8d 35 07 31 00 00 	lea    0x3107(%rip),%rsi        # 1751e <g_2652+0x14b2>
   14417:	48 89 c7             	mov    %rax,%rdi
   1441a:	e8 d4 62 ff ff       	callq  a6f3 <transparent_crc>
   1441f:	0f b6 05 8a b0 00 00 	movzbl 0xb08a(%rip),%eax        # 1f4b0 <g_1284>
   14426:	48 0f be c0          	movsbq %al,%rax
   1442a:	8b 55 fc             	mov    -0x4(%rbp),%edx
   1442d:	48 8d 35 f4 30 00 00 	lea    0x30f4(%rip),%rsi        # 17528 <g_2652+0x14bc>
   14434:	48 89 c7             	mov    %rax,%rdi
   14437:	e8 b7 62 ff ff       	callq  a6f3 <transparent_crc>
   1443c:	0f b7 05 d1 73 00 00 	movzwl 0x73d1(%rip),%eax        # 1b814 <g_1285>
   14443:	48 0f bf c0          	movswq %ax,%rax
   14447:	8b 55 fc             	mov    -0x4(%rbp),%edx
   1444a:	48 8d 35 e1 30 00 00 	lea    0x30e1(%rip),%rsi        # 17532 <g_2652+0x14c6>
   14451:	48 89 c7             	mov    %rax,%rdi
   14454:	e8 9a 62 ff ff       	callq  a6f3 <transparent_crc>
   14459:	0f b7 05 b4 73 00 00 	movzwl 0x73b4(%rip),%eax        # 1b814 <g_1285>
   14460:	48 0f bf c0          	movswq %ax,%rax
   14464:	8b 55 fc             	mov    -0x4(%rbp),%edx
   14467:	48 8d 35 ce 30 00 00 	lea    0x30ce(%rip),%rsi        # 1753c <g_2652+0x14d0>
   1446e:	48 89 c7             	mov    %rax,%rdi
   14471:	e8 7d 62 ff ff       	callq  a6f3 <transparent_crc>
   14476:	c7 45 f0 00 00 00 00 	movl   $0x0,-0x10(%rbp)
   1447d:	e9 a6 00 00 00       	jmpq   14528 <main+0x1195>
   14482:	c7 45 f4 00 00 00 00 	movl   $0x0,-0xc(%rbp)
   14489:	e9 8c 00 00 00       	jmpq   1451a <main+0x1187>
   1448e:	8b 45 f4             	mov    -0xc(%rbp),%eax
   14491:	48 63 d0             	movslq %eax,%rdx
   14494:	8b 45 f0             	mov    -0x10(%rbp),%eax
   14497:	48 98                	cltq   
   14499:	48 01 d0             	add    %rdx,%rax
   1449c:	48 8d 14 c5 00 00 00 	lea    0x0(,%rax,8),%rdx
   144a3:	00 
   144a4:	48 8d 05 75 73 00 00 	lea    0x7375(%rip),%rax        # 1b820 <g_1291>
   144ab:	48 8b 04 02          	mov    (%rdx,%rax,1),%rax
   144af:	8b 55 fc             	mov    -0x4(%rbp),%edx
   144b2:	48 8d 35 8d 30 00 00 	lea    0x308d(%rip),%rsi        # 17546 <g_2652+0x14da>
   144b9:	48 89 c7             	mov    %rax,%rdi
   144bc:	e8 32 62 ff ff       	callq  a6f3 <transparent_crc>
   144c1:	8b 45 f4             	mov    -0xc(%rbp),%eax
   144c4:	48 63 d0             	movslq %eax,%rdx
   144c7:	8b 45 f0             	mov    -0x10(%rbp),%eax
   144ca:	48 98                	cltq   
   144cc:	48 01 d0             	add    %rdx,%rax
   144cf:	48 8d 14 c5 00 00 00 	lea    0x0(,%rax,8),%rdx
   144d6:	00 
   144d7:	48 8d 05 42 73 00 00 	lea    0x7342(%rip),%rax        # 1b820 <g_1291>
   144de:	0f b6 04 02          	movzbl (%rdx,%rax,1),%eax
   144e2:	0f b6 c0             	movzbl %al,%eax
   144e5:	8b 55 fc             	mov    -0x4(%rbp),%edx
   144e8:	48 8d 35 67 30 00 00 	lea    0x3067(%rip),%rsi        # 17556 <g_2652+0x14ea>
   144ef:	48 89 c7             	mov    %rax,%rdi
   144f2:	e8 fc 61 ff ff       	callq  a6f3 <transparent_crc>
   144f7:	83 7d fc 00          	cmpl   $0x0,-0x4(%rbp)
   144fb:	74 19                	je     14516 <main+0x1183>
   144fd:	8b 55 f4             	mov    -0xc(%rbp),%edx
   14500:	8b 45 f0             	mov    -0x10(%rbp),%eax
   14503:	89 c6                	mov    %eax,%esi
   14505:	48 8d 3d a7 2c 00 00 	lea    0x2ca7(%rip),%rdi        # 171b3 <g_2652+0x1147>
   1450c:	b8 00 00 00 00       	mov    $0x0,%eax
   14511:	e8 6a 4b ff ff       	callq  9080 <printf@plt>
   14516:	83 45 f4 01          	addl   $0x1,-0xc(%rbp)
   1451a:	83 7d f4 00          	cmpl   $0x0,-0xc(%rbp)
   1451e:	0f 8e 6a ff ff ff    	jle    1448e <main+0x10fb>
   14524:	83 45 f0 01          	addl   $0x1,-0x10(%rbp)
   14528:	83 7d f0 08          	cmpl   $0x8,-0x10(%rbp)
   1452c:	0f 8e 50 ff ff ff    	jle    14482 <main+0x10ef>
   14532:	48 8b 05 2f 73 00 00 	mov    0x732f(%rip),%rax        # 1b868 <g_1295>
   14539:	8b 55 fc             	mov    -0x4(%rbp),%edx
   1453c:	48 8d 35 23 30 00 00 	lea    0x3023(%rip),%rsi        # 17566 <g_2652+0x14fa>
   14543:	48 89 c7             	mov    %rax,%rdi
   14546:	e8 a8 61 ff ff       	callq  a6f3 <transparent_crc>
   1454b:	0f b6 05 16 73 00 00 	movzbl 0x7316(%rip),%eax        # 1b868 <g_1295>
   14552:	0f b6 c0             	movzbl %al,%eax
   14555:	8b 55 fc             	mov    -0x4(%rbp),%edx
   14558:	48 8d 35 11 30 00 00 	lea    0x3011(%rip),%rsi        # 17570 <g_2652+0x1504>
   1455f:	48 89 c7             	mov    %rax,%rdi
   14562:	e8 8c 61 ff ff       	callq  a6f3 <transparent_crc>
   14567:	8b 05 03 73 00 00    	mov    0x7303(%rip),%eax        # 1b870 <g_1326>
   1456d:	89 c1                	mov    %eax,%ecx
   1456f:	8b 45 fc             	mov    -0x4(%rbp),%eax
   14572:	89 c2                	mov    %eax,%edx
   14574:	48 8d 35 ff 2f 00 00 	lea    0x2fff(%rip),%rsi        # 1757a <g_2652+0x150e>
   1457b:	48 89 cf             	mov    %rcx,%rdi
   1457e:	e8 70 61 ff ff       	callq  a6f3 <transparent_crc>
   14583:	8b 05 e7 72 00 00    	mov    0x72e7(%rip),%eax        # 1b870 <g_1326>
   14589:	48 98                	cltq   
   1458b:	8b 55 fc             	mov    -0x4(%rbp),%edx
   1458e:	48 8d 35 ef 2f 00 00 	lea    0x2fef(%rip),%rsi        # 17584 <g_2652+0x1518>
   14595:	48 89 c7             	mov    %rax,%rdi
   14598:	e8 56 61 ff ff       	callq  a6f3 <transparent_crc>
   1459d:	0f b6 05 cc 72 00 00 	movzbl 0x72cc(%rip),%eax        # 1b870 <g_1326>
   145a4:	0f b6 c0             	movzbl %al,%eax
   145a7:	8b 55 fc             	mov    -0x4(%rbp),%edx
   145aa:	48 8d 35 dd 2f 00 00 	lea    0x2fdd(%rip),%rsi        # 1758e <g_2652+0x1522>
   145b1:	48 89 c7             	mov    %rax,%rdi
   145b4:	e8 3a 61 ff ff       	callq  a6f3 <transparent_crc>
   145b9:	8b 05 b1 72 00 00    	mov    0x72b1(%rip),%eax        # 1b870 <g_1326>
   145bf:	48 98                	cltq   
   145c1:	8b 55 fc             	mov    -0x4(%rbp),%edx
   145c4:	48 8d 35 cd 2f 00 00 	lea    0x2fcd(%rip),%rsi        # 17598 <g_2652+0x152c>
   145cb:	48 89 c7             	mov    %rax,%rdi
   145ce:	e8 20 61 ff ff       	callq  a6f3 <transparent_crc>
   145d3:	0f b6 05 96 72 00 00 	movzbl 0x7296(%rip),%eax        # 1b870 <g_1326>
   145da:	48 0f be c0          	movsbq %al,%rax
   145de:	8b 55 fc             	mov    -0x4(%rbp),%edx
   145e1:	48 8d 35 ba 2f 00 00 	lea    0x2fba(%rip),%rsi        # 175a2 <g_2652+0x1536>
   145e8:	48 89 c7             	mov    %rax,%rdi
   145eb:	e8 03 61 ff ff       	callq  a6f3 <transparent_crc>
   145f0:	0f b7 05 7d 72 00 00 	movzwl 0x727d(%rip),%eax        # 1b874 <g_1432>
   145f7:	48 0f bf c0          	movswq %ax,%rax
   145fb:	8b 55 fc             	mov    -0x4(%rbp),%edx
   145fe:	48 8d 35 a7 2f 00 00 	lea    0x2fa7(%rip),%rsi        # 175ac <g_2652+0x1540>
   14605:	48 89 c7             	mov    %rax,%rdi
   14608:	e8 e6 60 ff ff       	callq  a6f3 <transparent_crc>
   1460d:	0f b7 05 60 72 00 00 	movzwl 0x7260(%rip),%eax        # 1b874 <g_1432>
   14614:	48 0f bf c0          	movswq %ax,%rax
   14618:	8b 55 fc             	mov    -0x4(%rbp),%edx
   1461b:	48 8d 35 94 2f 00 00 	lea    0x2f94(%rip),%rsi        # 175b6 <g_2652+0x154a>
   14622:	48 89 c7             	mov    %rax,%rdi
   14625:	e8 c9 60 ff ff       	callq  a6f3 <transparent_crc>
   1462a:	8b 05 48 72 00 00    	mov    0x7248(%rip),%eax        # 1b878 <g_1438>
   14630:	48 98                	cltq   
   14632:	8b 55 fc             	mov    -0x4(%rbp),%edx
   14635:	48 8d 35 84 2f 00 00 	lea    0x2f84(%rip),%rsi        # 175c0 <g_2652+0x1554>
   1463c:	48 89 c7             	mov    %rax,%rdi
   1463f:	e8 af 60 ff ff       	callq  a6f3 <transparent_crc>
   14644:	0f b7 05 31 72 00 00 	movzwl 0x7231(%rip),%eax        # 1b87c <g_1457>
   1464b:	48 0f bf c0          	movswq %ax,%rax
   1464f:	8b 55 fc             	mov    -0x4(%rbp),%edx
   14652:	48 8d 35 6e 2f 00 00 	lea    0x2f6e(%rip),%rsi        # 175c7 <g_2652+0x155b>
   14659:	48 89 c7             	mov    %rax,%rdi
   1465c:	e8 92 60 ff ff       	callq  a6f3 <transparent_crc>
   14661:	8b 05 19 72 00 00    	mov    0x7219(%rip),%eax        # 1b880 <g_1459>
   14667:	89 c1                	mov    %eax,%ecx
   14669:	8b 45 fc             	mov    -0x4(%rbp),%eax
   1466c:	89 c2                	mov    %eax,%edx
   1466e:	48 8d 35 59 2f 00 00 	lea    0x2f59(%rip),%rsi        # 175ce <g_2652+0x1562>
   14675:	48 89 cf             	mov    %rcx,%rdi
   14678:	e8 76 60 ff ff       	callq  a6f3 <transparent_crc>
   1467d:	8b 05 01 72 00 00    	mov    0x7201(%rip),%eax        # 1b884 <g_1536>
   14683:	89 c1                	mov    %eax,%ecx
   14685:	8b 45 fc             	mov    -0x4(%rbp),%eax
   14688:	89 c2                	mov    %eax,%edx
   1468a:	48 8d 35 44 2f 00 00 	lea    0x2f44(%rip),%rsi        # 175d5 <g_2652+0x1569>
   14691:	48 89 cf             	mov    %rcx,%rdi
   14694:	e8 5a 60 ff ff       	callq  a6f3 <transparent_crc>
   14699:	8b 05 e5 71 00 00    	mov    0x71e5(%rip),%eax        # 1b884 <g_1536>
   1469f:	48 98                	cltq   
   146a1:	8b 55 fc             	mov    -0x4(%rbp),%edx
   146a4:	48 8d 35 34 2f 00 00 	lea    0x2f34(%rip),%rsi        # 175df <g_2652+0x1573>
   146ab:	48 89 c7             	mov    %rax,%rdi
   146ae:	e8 40 60 ff ff       	callq  a6f3 <transparent_crc>
   146b3:	0f b6 05 ca 71 00 00 	movzbl 0x71ca(%rip),%eax        # 1b884 <g_1536>
   146ba:	0f b6 c0             	movzbl %al,%eax
   146bd:	8b 55 fc             	mov    -0x4(%rbp),%edx
   146c0:	48 8d 35 22 2f 00 00 	lea    0x2f22(%rip),%rsi        # 175e9 <g_2652+0x157d>
   146c7:	48 89 c7             	mov    %rax,%rdi
   146ca:	e8 24 60 ff ff       	callq  a6f3 <transparent_crc>
   146cf:	8b 05 af 71 00 00    	mov    0x71af(%rip),%eax        # 1b884 <g_1536>
   146d5:	48 98                	cltq   
   146d7:	8b 55 fc             	mov    -0x4(%rbp),%edx
   146da:	48 8d 35 12 2f 00 00 	lea    0x2f12(%rip),%rsi        # 175f3 <g_2652+0x1587>
   146e1:	48 89 c7             	mov    %rax,%rdi
   146e4:	e8 0a 60 ff ff       	callq  a6f3 <transparent_crc>
   146e9:	0f b6 05 94 71 00 00 	movzbl 0x7194(%rip),%eax        # 1b884 <g_1536>
   146f0:	48 0f be c0          	movsbq %al,%rax
   146f4:	8b 55 fc             	mov    -0x4(%rbp),%edx
   146f7:	48 8d 35 ff 2e 00 00 	lea    0x2eff(%rip),%rsi        # 175fd <g_2652+0x1591>
   146fe:	48 89 c7             	mov    %rax,%rdi
   14701:	e8 ed 5f ff ff       	callq  a6f3 <transparent_crc>
   14706:	0f b7 05 7b 71 00 00 	movzwl 0x717b(%rip),%eax        # 1b888 <g_1634>
   1470d:	0f b7 c0             	movzwl %ax,%eax
   14710:	8b 55 fc             	mov    -0x4(%rbp),%edx
   14713:	48 8d 35 ed 2e 00 00 	lea    0x2eed(%rip),%rsi        # 17607 <g_2652+0x159b>
   1471a:	48 89 c7             	mov    %rax,%rdi
   1471d:	e8 d1 5f ff ff       	callq  a6f3 <transparent_crc>
   14722:	c7 45 f0 00 00 00 00 	movl   $0x0,-0x10(%rbp)
   14729:	eb 4d                	jmp    14778 <main+0x13e5>
   1472b:	8b 45 f0             	mov    -0x10(%rbp),%eax
   1472e:	48 98                	cltq   
   14730:	48 8d 14 c5 00 00 00 	lea    0x0(,%rax,8),%rdx
   14737:	00 
   14738:	48 8d 05 61 71 00 00 	lea    0x7161(%rip),%rax        # 1b8a0 <g_1635>
   1473f:	0f b7 04 02          	movzwl (%rdx,%rax,1),%eax
   14743:	0f b7 c0             	movzwl %ax,%eax
   14746:	8b 55 fc             	mov    -0x4(%rbp),%edx
   14749:	48 8d 35 be 2e 00 00 	lea    0x2ebe(%rip),%rsi        # 1760e <g_2652+0x15a2>
   14750:	48 89 c7             	mov    %rax,%rdi
   14753:	e8 9b 5f ff ff       	callq  a6f3 <transparent_crc>
   14758:	83 7d fc 00          	cmpl   $0x0,-0x4(%rbp)
   1475c:	74 16                	je     14774 <main+0x13e1>
   1475e:	8b 45 f0             	mov    -0x10(%rbp),%eax
   14761:	89 c6                	mov    %eax,%esi
   14763:	48 8d 3d 82 2a 00 00 	lea    0x2a82(%rip),%rdi        # 171ec <g_2652+0x1180>
   1476a:	b8 00 00 00 00       	mov    $0x0,%eax
   1476f:	e8 0c 49 ff ff       	callq  9080 <printf@plt>
   14774:	83 45 f0 01          	addl   $0x1,-0x10(%rbp)
   14778:	83 7d f0 09          	cmpl   $0x9,-0x10(%rbp)
   1477c:	7e ad                	jle    1472b <main+0x1398>
   1477e:	48 8b 05 6b 71 00 00 	mov    0x716b(%rip),%rax        # 1b8f0 <g_1684>
   14785:	8b 55 fc             	mov    -0x4(%rbp),%edx
   14788:	48 8d 35 8c 2e 00 00 	lea    0x2e8c(%rip),%rsi        # 1761b <g_2652+0x15af>
   1478f:	48 89 c7             	mov    %rax,%rdi
   14792:	e8 5c 5f ff ff       	callq  a6f3 <transparent_crc>
   14797:	c7 45 f0 00 00 00 00 	movl   $0x0,-0x10(%rbp)
   1479e:	eb 4a                	jmp    147ea <main+0x1457>
   147a0:	8b 45 f0             	mov    -0x10(%rbp),%eax
   147a3:	48 98                	cltq   
   147a5:	48 8d 14 c5 00 00 00 	lea    0x0(,%rax,8),%rdx
   147ac:	00 
   147ad:	48 8d 05 4c 71 00 00 	lea    0x714c(%rip),%rax        # 1b900 <g_1705>
   147b4:	48 8b 04 02          	mov    (%rdx,%rax,1),%rax
   147b8:	8b 55 fc             	mov    -0x4(%rbp),%edx
   147bb:	48 8d 35 60 2e 00 00 	lea    0x2e60(%rip),%rsi        # 17622 <g_2652+0x15b6>
   147c2:	48 89 c7             	mov    %rax,%rdi
   147c5:	e8 29 5f ff ff       	callq  a6f3 <transparent_crc>
   147ca:	83 7d fc 00          	cmpl   $0x0,-0x4(%rbp)
   147ce:	74 16                	je     147e6 <main+0x1453>
   147d0:	8b 45 f0             	mov    -0x10(%rbp),%eax
   147d3:	89 c6                	mov    %eax,%esi
   147d5:	48 8d 3d 10 2a 00 00 	lea    0x2a10(%rip),%rdi        # 171ec <g_2652+0x1180>
   147dc:	b8 00 00 00 00       	mov    $0x0,%eax
   147e1:	e8 9a 48 ff ff       	callq  9080 <printf@plt>
   147e6:	83 45 f0 01          	addl   $0x1,-0x10(%rbp)
   147ea:	83 7d f0 01          	cmpl   $0x1,-0x10(%rbp)
   147ee:	7e b0                	jle    147a0 <main+0x140d>
   147f0:	48 8b 05 c9 ac 00 00 	mov    0xacc9(%rip),%rax        # 1f4c0 <g_1719>
   147f7:	48 89 c1             	mov    %rax,%rcx
   147fa:	8b 45 fc             	mov    -0x4(%rbp),%eax
   147fd:	89 c2                	mov    %eax,%edx
   147ff:	48 8d 35 26 2e 00 00 	lea    0x2e26(%rip),%rsi        # 1762c <g_2652+0x15c0>
   14806:	48 89 cf             	mov    %rcx,%rdi
   14809:	e8 e5 5e ff ff       	callq  a6f3 <transparent_crc>
   1480e:	b8 22 e4 ff ff       	mov    $0xffffe422,%eax
   14813:	48 0f bf c0          	movswq %ax,%rax
   14817:	8b 55 fc             	mov    -0x4(%rbp),%edx
   1481a:	48 8d 35 12 2e 00 00 	lea    0x2e12(%rip),%rsi        # 17633 <g_2652+0x15c7>
   14821:	48 89 c7             	mov    %rax,%rdi
   14824:	e8 ca 5e ff ff       	callq  a6f3 <transparent_crc>
   14829:	b8 22 e4 ff ff       	mov    $0xffffe422,%eax
   1482e:	48 0f bf c0          	movswq %ax,%rax
   14832:	8b 55 fc             	mov    -0x4(%rbp),%edx
   14835:	48 8d 35 01 2e 00 00 	lea    0x2e01(%rip),%rsi        # 1763d <g_2652+0x15d1>
   1483c:	48 89 c7             	mov    %rax,%rdi
   1483f:	e8 af 5e ff ff       	callq  a6f3 <transparent_crc>
   14844:	0f b7 05 7d ac 00 00 	movzwl 0xac7d(%rip),%eax        # 1f4c8 <g_1752>
   1484b:	0f b7 c0             	movzwl %ax,%eax
   1484e:	8b 55 fc             	mov    -0x4(%rbp),%edx
   14851:	48 8d 35 ef 2d 00 00 	lea    0x2def(%rip),%rsi        # 17647 <g_2652+0x15db>
   14858:	48 89 c7             	mov    %rax,%rdi
   1485b:	e8 93 5e ff ff       	callq  a6f3 <transparent_crc>
   14860:	c7 45 f0 00 00 00 00 	movl   $0x0,-0x10(%rbp)
   14867:	eb 76                	jmp    148df <main+0x154c>
   14869:	c7 45 f4 00 00 00 00 	movl   $0x0,-0xc(%rbp)
   14870:	eb 63                	jmp    148d5 <main+0x1542>
   14872:	8b 45 f4             	mov    -0xc(%rbp),%eax
   14875:	48 63 c8             	movslq %eax,%rcx
   14878:	8b 45 f0             	mov    -0x10(%rbp),%eax
   1487b:	48 63 d0             	movslq %eax,%rdx
   1487e:	48 89 d0             	mov    %rdx,%rax
   14881:	48 01 c0             	add    %rax,%rax
   14884:	48 01 d0             	add    %rdx,%rax
   14887:	48 01 c8             	add    %rcx,%rax
   1488a:	48 8d 14 c5 00 00 00 	lea    0x0(,%rax,8),%rdx
   14891:	00 
   14892:	48 8d 05 87 70 00 00 	lea    0x7087(%rip),%rax        # 1b920 <g_1755>
   14899:	0f b7 04 02          	movzwl (%rdx,%rax,1),%eax
   1489d:	0f b7 c0             	movzwl %ax,%eax
   148a0:	8b 55 fc             	mov    -0x4(%rbp),%edx
   148a3:	48 8d 35 a7 2d 00 00 	lea    0x2da7(%rip),%rsi        # 17651 <g_2652+0x15e5>
   148aa:	48 89 c7             	mov    %rax,%rdi
   148ad:	e8 41 5e ff ff       	callq  a6f3 <transparent_crc>
   148b2:	83 7d fc 00          	cmpl   $0x0,-0x4(%rbp)
   148b6:	74 19                	je     148d1 <main+0x153e>
   148b8:	8b 55 f4             	mov    -0xc(%rbp),%edx
   148bb:	8b 45 f0             	mov    -0x10(%rbp),%eax
   148be:	89 c6                	mov    %eax,%esi
   148c0:	48 8d 3d ec 28 00 00 	lea    0x28ec(%rip),%rdi        # 171b3 <g_2652+0x1147>
   148c7:	b8 00 00 00 00       	mov    $0x0,%eax
   148cc:	e8 af 47 ff ff       	callq  9080 <printf@plt>
   148d1:	83 45 f4 01          	addl   $0x1,-0xc(%rbp)
   148d5:	83 7d f4 02          	cmpl   $0x2,-0xc(%rbp)
   148d9:	7e 97                	jle    14872 <main+0x14df>
   148db:	83 45 f0 01          	addl   $0x1,-0x10(%rbp)
   148df:	83 7d f0 03          	cmpl   $0x3,-0x10(%rbp)
   148e3:	7e 84                	jle    14869 <main+0x14d6>
   148e5:	48 8b 05 94 70 00 00 	mov    0x7094(%rip),%rax        # 1b980 <g_1964>
   148ec:	48 89 c1             	mov    %rax,%rcx
   148ef:	8b 45 fc             	mov    -0x4(%rbp),%eax
   148f2:	89 c2                	mov    %eax,%edx
   148f4:	48 8d 35 66 2d 00 00 	lea    0x2d66(%rip),%rsi        # 17661 <g_2652+0x15f5>
   148fb:	48 89 cf             	mov    %rcx,%rdi
   148fe:	e8 f0 5d ff ff       	callq  a6f3 <transparent_crc>
   14903:	0f b7 05 7e 70 00 00 	movzwl 0x707e(%rip),%eax        # 1b988 <g_1975>
   1490a:	48 0f bf c0          	movswq %ax,%rax
   1490e:	8b 55 fc             	mov    -0x4(%rbp),%edx
   14911:	48 8d 35 50 2d 00 00 	lea    0x2d50(%rip),%rsi        # 17668 <g_2652+0x15fc>
   14918:	48 89 c7             	mov    %rax,%rdi
   1491b:	e8 d3 5d ff ff       	callq  a6f3 <transparent_crc>
   14920:	0f b7 05 61 70 00 00 	movzwl 0x7061(%rip),%eax        # 1b988 <g_1975>
   14927:	48 0f bf c0          	movswq %ax,%rax
   1492b:	8b 55 fc             	mov    -0x4(%rbp),%edx
   1492e:	48 8d 35 3d 2d 00 00 	lea    0x2d3d(%rip),%rsi        # 17672 <g_2652+0x1606>
   14935:	48 89 c7             	mov    %rax,%rdi
   14938:	e8 b6 5d ff ff       	callq  a6f3 <transparent_crc>
   1493d:	0f b7 05 48 70 00 00 	movzwl 0x7048(%rip),%eax        # 1b98c <g_2149>
   14944:	48 0f bf c0          	movswq %ax,%rax
   14948:	8b 55 fc             	mov    -0x4(%rbp),%edx
   1494b:	48 8d 35 2a 2d 00 00 	lea    0x2d2a(%rip),%rsi        # 1767c <g_2652+0x1610>
   14952:	48 89 c7             	mov    %rax,%rdi
   14955:	e8 99 5d ff ff       	callq  a6f3 <transparent_crc>
   1495a:	0f b7 05 2b 70 00 00 	movzwl 0x702b(%rip),%eax        # 1b98c <g_2149>
   14961:	48 0f bf c0          	movswq %ax,%rax
   14965:	8b 55 fc             	mov    -0x4(%rbp),%edx
   14968:	48 8d 35 17 2d 00 00 	lea    0x2d17(%rip),%rsi        # 17686 <g_2652+0x161a>
   1496f:	48 89 c7             	mov    %rax,%rdi
   14972:	e8 7c 5d ff ff       	callq  a6f3 <transparent_crc>
   14977:	0f b6 05 12 70 00 00 	movzbl 0x7012(%rip),%eax        # 1b990 <g_2165>
   1497e:	48 0f be c0          	movsbq %al,%rax
   14982:	8b 55 fc             	mov    -0x4(%rbp),%edx
   14985:	48 8d 35 04 2d 00 00 	lea    0x2d04(%rip),%rsi        # 17690 <g_2652+0x1624>
   1498c:	48 89 c7             	mov    %rax,%rdi
   1498f:	e8 5f 5d ff ff       	callq  a6f3 <transparent_crc>
   14994:	0f b6 05 f6 6f 00 00 	movzbl 0x6ff6(%rip),%eax        # 1b991 <g_2166>
   1499b:	48 0f be c0          	movsbq %al,%rax
   1499f:	8b 55 fc             	mov    -0x4(%rbp),%edx
   149a2:	48 8d 35 ee 2c 00 00 	lea    0x2cee(%rip),%rsi        # 17697 <g_2652+0x162b>
   149a9:	48 89 c7             	mov    %rax,%rdi
   149ac:	e8 42 5d ff ff       	callq  a6f3 <transparent_crc>
   149b1:	c7 45 f0 00 00 00 00 	movl   $0x0,-0x10(%rbp)
   149b8:	eb 72                	jmp    14a2c <main+0x1699>
   149ba:	c7 45 f4 00 00 00 00 	movl   $0x0,-0xc(%rbp)
   149c1:	eb 5f                	jmp    14a22 <main+0x168f>
   149c3:	8b 45 f4             	mov    -0xc(%rbp),%eax
   149c6:	48 63 c8             	movslq %eax,%rcx
   149c9:	8b 45 f0             	mov    -0x10(%rbp),%eax
   149cc:	48 63 d0             	movslq %eax,%rdx
   149cf:	48 89 d0             	mov    %rdx,%rax
   149d2:	48 01 c0             	add    %rax,%rax
   149d5:	48 01 d0             	add    %rdx,%rax
   149d8:	48 8d 14 08          	lea    (%rax,%rcx,1),%rdx
   149dc:	48 8d 05 af 6f 00 00 	lea    0x6faf(%rip),%rax        # 1b992 <g_2167>
   149e3:	48 01 d0             	add    %rdx,%rax
   149e6:	0f b6 00             	movzbl (%rax),%eax
   149e9:	48 0f be c0          	movsbq %al,%rax
   149ed:	8b 55 fc             	mov    -0x4(%rbp),%edx
   149f0:	48 8d 35 a7 2c 00 00 	lea    0x2ca7(%rip),%rsi        # 1769e <g_2652+0x1632>
   149f7:	48 89 c7             	mov    %rax,%rdi
   149fa:	e8 f4 5c ff ff       	callq  a6f3 <transparent_crc>
   149ff:	83 7d fc 00          	cmpl   $0x0,-0x4(%rbp)
   14a03:	74 19                	je     14a1e <main+0x168b>
   14a05:	8b 55 f4             	mov    -0xc(%rbp),%edx
   14a08:	8b 45 f0             	mov    -0x10(%rbp),%eax
   14a0b:	89 c6                	mov    %eax,%esi
   14a0d:	48 8d 3d 9f 27 00 00 	lea    0x279f(%rip),%rdi        # 171b3 <g_2652+0x1147>
   14a14:	b8 00 00 00 00       	mov    $0x0,%eax
   14a19:	e8 62 46 ff ff       	callq  9080 <printf@plt>
   14a1e:	83 45 f4 01          	addl   $0x1,-0xc(%rbp)
   14a22:	83 7d f4 02          	cmpl   $0x2,-0xc(%rbp)
   14a26:	7e 9b                	jle    149c3 <main+0x1630>
   14a28:	83 45 f0 01          	addl   $0x1,-0x10(%rbp)
   14a2c:	83 7d f0 00          	cmpl   $0x0,-0x10(%rbp)
   14a30:	7e 88                	jle    149ba <main+0x1627>
   14a32:	0f b6 05 5c 6f 00 00 	movzbl 0x6f5c(%rip),%eax        # 1b995 <g_2168>
   14a39:	48 0f be c0          	movsbq %al,%rax
   14a3d:	8b 55 fc             	mov    -0x4(%rbp),%edx
   14a40:	48 8d 35 64 2c 00 00 	lea    0x2c64(%rip),%rsi        # 176ab <g_2652+0x163f>
   14a47:	48 89 c7             	mov    %rax,%rdi
   14a4a:	e8 a4 5c ff ff       	callq  a6f3 <transparent_crc>
   14a4f:	0f b6 05 82 aa 00 00 	movzbl 0xaa82(%rip),%eax        # 1f4d8 <g_2169>
   14a56:	48 0f be c0          	movsbq %al,%rax
   14a5a:	8b 55 fc             	mov    -0x4(%rbp),%edx
   14a5d:	48 8d 35 4e 2c 00 00 	lea    0x2c4e(%rip),%rsi        # 176b2 <g_2652+0x1646>
   14a64:	48 89 c7             	mov    %rax,%rdi
   14a67:	e8 87 5c ff ff       	callq  a6f3 <transparent_crc>
   14a6c:	0f b6 05 23 6f 00 00 	movzbl 0x6f23(%rip),%eax        # 1b996 <g_2170>
   14a73:	48 0f be c0          	movsbq %al,%rax
   14a77:	8b 55 fc             	mov    -0x4(%rbp),%edx
   14a7a:	48 8d 35 38 2c 00 00 	lea    0x2c38(%rip),%rsi        # 176b9 <g_2652+0x164d>
   14a81:	48 89 c7             	mov    %rax,%rdi
   14a84:	e8 6a 5c ff ff       	callq  a6f3 <transparent_crc>
   14a89:	0f b6 05 07 6f 00 00 	movzbl 0x6f07(%rip),%eax        # 1b997 <g_2171>
   14a90:	48 0f be c0          	movsbq %al,%rax
   14a94:	8b 55 fc             	mov    -0x4(%rbp),%edx
   14a97:	48 8d 35 22 2c 00 00 	lea    0x2c22(%rip),%rsi        # 176c0 <g_2652+0x1654>
   14a9e:	48 89 c7             	mov    %rax,%rdi
   14aa1:	e8 4d 5c ff ff       	callq  a6f3 <transparent_crc>
   14aa6:	0f b6 05 eb 6e 00 00 	movzbl 0x6eeb(%rip),%eax        # 1b998 <g_2172>
   14aad:	48 0f be c0          	movsbq %al,%rax
   14ab1:	8b 55 fc             	mov    -0x4(%rbp),%edx
   14ab4:	48 8d 35 0c 2c 00 00 	lea    0x2c0c(%rip),%rsi        # 176c7 <g_2652+0x165b>
   14abb:	48 89 c7             	mov    %rax,%rdi
   14abe:	e8 30 5c ff ff       	callq  a6f3 <transparent_crc>
   14ac3:	c7 45 f0 00 00 00 00 	movl   $0x0,-0x10(%rbp)
   14aca:	e9 92 00 00 00       	jmpq   14b61 <main+0x17ce>
   14acf:	c7 45 f4 00 00 00 00 	movl   $0x0,-0xc(%rbp)
   14ad6:	eb 7b                	jmp    14b53 <main+0x17c0>
   14ad8:	c7 45 f8 00 00 00 00 	movl   $0x0,-0x8(%rbp)
   14adf:	eb 68                	jmp    14b49 <main+0x17b6>
   14ae1:	8b 45 f8             	mov    -0x8(%rbp),%eax
   14ae4:	48 98                	cltq   
   14ae6:	8b 55 f0             	mov    -0x10(%rbp),%edx
   14ae9:	48 63 ca             	movslq %edx,%rcx
   14aec:	8b 55 f4             	mov    -0xc(%rbp),%edx
   14aef:	48 63 d2             	movslq %edx,%rdx
   14af2:	48 c1 e1 03          	shl    $0x3,%rcx
   14af6:	48 01 ca             	add    %rcx,%rdx
   14af9:	48 c1 e2 02          	shl    $0x2,%rdx
   14afd:	48 01 c2             	add    %rax,%rdx
   14b00:	48 8d 05 99 6e 00 00 	lea    0x6e99(%rip),%rax        # 1b9a0 <g_2173>
   14b07:	48 01 d0             	add    %rdx,%rax
   14b0a:	0f b6 00             	movzbl (%rax),%eax
   14b0d:	48 0f be c0          	movsbq %al,%rax
   14b11:	8b 55 fc             	mov    -0x4(%rbp),%edx
   14b14:	48 8d 35 b3 2b 00 00 	lea    0x2bb3(%rip),%rsi        # 176ce <g_2652+0x1662>
   14b1b:	48 89 c7             	mov    %rax,%rdi
   14b1e:	e8 d0 5b ff ff       	callq  a6f3 <transparent_crc>
   14b23:	83 7d fc 00          	cmpl   $0x0,-0x4(%rbp)
   14b27:	74 1c                	je     14b45 <main+0x17b2>
   14b29:	8b 4d f8             	mov    -0x8(%rbp),%ecx
   14b2c:	8b 55 f4             	mov    -0xc(%rbp),%edx
   14b2f:	8b 45 f0             	mov    -0x10(%rbp),%eax
   14b32:	89 c6                	mov    %eax,%esi
   14b34:	48 8d 3d 8b 27 00 00 	lea    0x278b(%rip),%rdi        # 172c6 <g_2652+0x125a>
   14b3b:	b8 00 00 00 00       	mov    $0x0,%eax
   14b40:	e8 3b 45 ff ff       	callq  9080 <printf@plt>
   14b45:	83 45 f8 01          	addl   $0x1,-0x8(%rbp)
   14b49:	83 7d f8 03          	cmpl   $0x3,-0x8(%rbp)
   14b4d:	7e 92                	jle    14ae1 <main+0x174e>
   14b4f:	83 45 f4 01          	addl   $0x1,-0xc(%rbp)
   14b53:	83 7d f4 07          	cmpl   $0x7,-0xc(%rbp)
   14b57:	0f 8e 7b ff ff ff    	jle    14ad8 <main+0x1745>
   14b5d:	83 45 f0 01          	addl   $0x1,-0x10(%rbp)
   14b61:	83 7d f0 06          	cmpl   $0x6,-0x10(%rbp)
   14b65:	0f 8e 64 ff ff ff    	jle    14acf <main+0x173c>
   14b6b:	0f b6 05 0e 6f 00 00 	movzbl 0x6f0e(%rip),%eax        # 1ba80 <g_2174>
   14b72:	48 0f be c0          	movsbq %al,%rax
   14b76:	8b 55 fc             	mov    -0x4(%rbp),%edx
   14b79:	48 8d 35 5e 2b 00 00 	lea    0x2b5e(%rip),%rsi        # 176de <g_2652+0x1672>
   14b80:	48 89 c7             	mov    %rax,%rdi
   14b83:	e8 6b 5b ff ff       	callq  a6f3 <transparent_crc>
   14b88:	0f b7 05 f5 6e 00 00 	movzwl 0x6ef5(%rip),%eax        # 1ba84 <g_2186>
   14b8f:	48 0f bf c0          	movswq %ax,%rax
   14b93:	8b 55 fc             	mov    -0x4(%rbp),%edx
   14b96:	48 8d 35 48 2b 00 00 	lea    0x2b48(%rip),%rsi        # 176e5 <g_2652+0x1679>
   14b9d:	48 89 c7             	mov    %rax,%rdi
   14ba0:	e8 4e 5b ff ff       	callq  a6f3 <transparent_crc>
   14ba5:	0f b7 05 d8 6e 00 00 	movzwl 0x6ed8(%rip),%eax        # 1ba84 <g_2186>
   14bac:	48 0f bf c0          	movswq %ax,%rax
   14bb0:	8b 55 fc             	mov    -0x4(%rbp),%edx
   14bb3:	48 8d 35 35 2b 00 00 	lea    0x2b35(%rip),%rsi        # 176ef <g_2652+0x1683>
   14bba:	48 89 c7             	mov    %rax,%rdi
   14bbd:	e8 31 5b ff ff       	callq  a6f3 <transparent_crc>
   14bc2:	8b 05 c0 6e 00 00    	mov    0x6ec0(%rip),%eax        # 1ba88 <g_2187>
   14bc8:	89 c1                	mov    %eax,%ecx
   14bca:	8b 45 fc             	mov    -0x4(%rbp),%eax
   14bcd:	89 c2                	mov    %eax,%edx
   14bcf:	48 8d 35 23 2b 00 00 	lea    0x2b23(%rip),%rsi        # 176f9 <g_2652+0x168d>
   14bd6:	48 89 cf             	mov    %rcx,%rdi
   14bd9:	e8 15 5b ff ff       	callq  a6f3 <transparent_crc>
   14bde:	8b 05 a4 6e 00 00    	mov    0x6ea4(%rip),%eax        # 1ba88 <g_2187>
   14be4:	48 98                	cltq   
   14be6:	8b 55 fc             	mov    -0x4(%rbp),%edx
   14be9:	48 8d 35 13 2b 00 00 	lea    0x2b13(%rip),%rsi        # 17703 <g_2652+0x1697>
   14bf0:	48 89 c7             	mov    %rax,%rdi
   14bf3:	e8 fb 5a ff ff       	callq  a6f3 <transparent_crc>
   14bf8:	0f b6 05 89 6e 00 00 	movzbl 0x6e89(%rip),%eax        # 1ba88 <g_2187>
   14bff:	0f b6 c0             	movzbl %al,%eax
   14c02:	8b 55 fc             	mov    -0x4(%rbp),%edx
   14c05:	48 8d 35 01 2b 00 00 	lea    0x2b01(%rip),%rsi        # 1770d <g_2652+0x16a1>
   14c0c:	48 89 c7             	mov    %rax,%rdi
   14c0f:	e8 df 5a ff ff       	callq  a6f3 <transparent_crc>
   14c14:	8b 05 6e 6e 00 00    	mov    0x6e6e(%rip),%eax        # 1ba88 <g_2187>
   14c1a:	48 98                	cltq   
   14c1c:	8b 55 fc             	mov    -0x4(%rbp),%edx
   14c1f:	48 8d 35 f1 2a 00 00 	lea    0x2af1(%rip),%rsi        # 17717 <g_2652+0x16ab>
   14c26:	48 89 c7             	mov    %rax,%rdi
   14c29:	e8 c5 5a ff ff       	callq  a6f3 <transparent_crc>
   14c2e:	0f b6 05 53 6e 00 00 	movzbl 0x6e53(%rip),%eax        # 1ba88 <g_2187>
   14c35:	48 0f be c0          	movsbq %al,%rax
   14c39:	8b 55 fc             	mov    -0x4(%rbp),%edx
   14c3c:	48 8d 35 de 2a 00 00 	lea    0x2ade(%rip),%rsi        # 17721 <g_2652+0x16b5>
   14c43:	48 89 c7             	mov    %rax,%rdi
   14c46:	e8 a8 5a ff ff       	callq  a6f3 <transparent_crc>
   14c4b:	0f b7 05 3e 6e 00 00 	movzwl 0x6e3e(%rip),%eax        # 1ba90 <g_2213>
   14c52:	0f b7 c0             	movzwl %ax,%eax
   14c55:	8b 55 fc             	mov    -0x4(%rbp),%edx
   14c58:	48 8d 35 cc 2a 00 00 	lea    0x2acc(%rip),%rsi        # 1772b <g_2652+0x16bf>
   14c5f:	48 89 c7             	mov    %rax,%rdi
   14c62:	e8 8c 5a ff ff       	callq  a6f3 <transparent_crc>
   14c67:	8b 05 2b 6e 00 00    	mov    0x6e2b(%rip),%eax        # 1ba98 <g_2398>
   14c6d:	89 c1                	mov    %eax,%ecx
   14c6f:	8b 45 fc             	mov    -0x4(%rbp),%eax
   14c72:	89 c2                	mov    %eax,%edx
   14c74:	48 8d 35 ba 2a 00 00 	lea    0x2aba(%rip),%rsi        # 17735 <g_2652+0x16c9>
   14c7b:	48 89 cf             	mov    %rcx,%rdi
   14c7e:	e8 70 5a ff ff       	callq  a6f3 <transparent_crc>
   14c83:	8b 05 0f 6e 00 00    	mov    0x6e0f(%rip),%eax        # 1ba98 <g_2398>
   14c89:	48 98                	cltq   
   14c8b:	8b 55 fc             	mov    -0x4(%rbp),%edx
   14c8e:	48 8d 35 aa 2a 00 00 	lea    0x2aaa(%rip),%rsi        # 1773f <g_2652+0x16d3>
   14c95:	48 89 c7             	mov    %rax,%rdi
   14c98:	e8 56 5a ff ff       	callq  a6f3 <transparent_crc>
   14c9d:	0f b6 05 f4 6d 00 00 	movzbl 0x6df4(%rip),%eax        # 1ba98 <g_2398>
   14ca4:	0f b6 c0             	movzbl %al,%eax
   14ca7:	8b 55 fc             	mov    -0x4(%rbp),%edx
   14caa:	48 8d 35 98 2a 00 00 	lea    0x2a98(%rip),%rsi        # 17749 <g_2652+0x16dd>
   14cb1:	48 89 c7             	mov    %rax,%rdi
   14cb4:	e8 3a 5a ff ff       	callq  a6f3 <transparent_crc>
   14cb9:	8b 05 d9 6d 00 00    	mov    0x6dd9(%rip),%eax        # 1ba98 <g_2398>
   14cbf:	48 98                	cltq   
   14cc1:	8b 55 fc             	mov    -0x4(%rbp),%edx
   14cc4:	48 8d 35 88 2a 00 00 	lea    0x2a88(%rip),%rsi        # 17753 <g_2652+0x16e7>
   14ccb:	48 89 c7             	mov    %rax,%rdi
   14cce:	e8 20 5a ff ff       	callq  a6f3 <transparent_crc>
   14cd3:	0f b6 05 be 6d 00 00 	movzbl 0x6dbe(%rip),%eax        # 1ba98 <g_2398>
   14cda:	48 0f be c0          	movsbq %al,%rax
   14cde:	8b 55 fc             	mov    -0x4(%rbp),%edx
   14ce1:	48 8d 35 75 2a 00 00 	lea    0x2a75(%rip),%rsi        # 1775d <g_2652+0x16f1>
   14ce8:	48 89 c7             	mov    %rax,%rdi
   14ceb:	e8 03 5a ff ff       	callq  a6f3 <transparent_crc>
   14cf0:	0f b7 05 a9 6d 00 00 	movzwl 0x6da9(%rip),%eax        # 1baa0 <g_2512>
   14cf7:	0f b7 c0             	movzwl %ax,%eax
   14cfa:	8b 55 fc             	mov    -0x4(%rbp),%edx
   14cfd:	48 8d 35 63 2a 00 00 	lea    0x2a63(%rip),%rsi        # 17767 <g_2652+0x16fb>
   14d04:	48 89 c7             	mov    %rax,%rdi
   14d07:	e8 e7 59 ff ff       	callq  a6f3 <transparent_crc>
   14d0c:	48 8b 05 cd a7 00 00 	mov    0xa7cd(%rip),%rax        # 1f4e0 <g_2521>
   14d13:	48 89 c1             	mov    %rax,%rcx
   14d16:	8b 45 fc             	mov    -0x4(%rbp),%eax
   14d19:	89 c2                	mov    %eax,%edx
   14d1b:	48 8d 35 4f 2a 00 00 	lea    0x2a4f(%rip),%rsi        # 17771 <g_2652+0x1705>
   14d22:	48 89 cf             	mov    %rcx,%rdi
   14d25:	e8 c9 59 ff ff       	callq  a6f3 <transparent_crc>
   14d2a:	8b 05 78 6d 00 00    	mov    0x6d78(%rip),%eax        # 1baa8 <g_2531>
   14d30:	89 c1                	mov    %eax,%ecx
   14d32:	8b 45 fc             	mov    -0x4(%rbp),%eax
   14d35:	89 c2                	mov    %eax,%edx
   14d37:	48 8d 35 3a 2a 00 00 	lea    0x2a3a(%rip),%rsi        # 17778 <g_2652+0x170c>
   14d3e:	48 89 cf             	mov    %rcx,%rdi
   14d41:	e8 ad 59 ff ff       	callq  a6f3 <transparent_crc>
   14d46:	8b 05 5c 6d 00 00    	mov    0x6d5c(%rip),%eax        # 1baa8 <g_2531>
   14d4c:	48 98                	cltq   
   14d4e:	8b 55 fc             	mov    -0x4(%rbp),%edx
   14d51:	48 8d 35 2a 2a 00 00 	lea    0x2a2a(%rip),%rsi        # 17782 <g_2652+0x1716>
   14d58:	48 89 c7             	mov    %rax,%rdi
   14d5b:	e8 93 59 ff ff       	callq  a6f3 <transparent_crc>
   14d60:	0f b6 05 41 6d 00 00 	movzbl 0x6d41(%rip),%eax        # 1baa8 <g_2531>
   14d67:	0f b6 c0             	movzbl %al,%eax
   14d6a:	8b 55 fc             	mov    -0x4(%rbp),%edx
   14d6d:	48 8d 35 18 2a 00 00 	lea    0x2a18(%rip),%rsi        # 1778c <g_2652+0x1720>
   14d74:	48 89 c7             	mov    %rax,%rdi
   14d77:	e8 77 59 ff ff       	callq  a6f3 <transparent_crc>
   14d7c:	8b 05 26 6d 00 00    	mov    0x6d26(%rip),%eax        # 1baa8 <g_2531>
   14d82:	48 98                	cltq   
   14d84:	8b 55 fc             	mov    -0x4(%rbp),%edx
   14d87:	48 8d 35 08 2a 00 00 	lea    0x2a08(%rip),%rsi        # 17796 <g_2652+0x172a>
   14d8e:	48 89 c7             	mov    %rax,%rdi
   14d91:	e8 5d 59 ff ff       	callq  a6f3 <transparent_crc>
   14d96:	0f b6 05 0b 6d 00 00 	movzbl 0x6d0b(%rip),%eax        # 1baa8 <g_2531>
   14d9d:	48 0f be c0          	movsbq %al,%rax
   14da1:	8b 55 fc             	mov    -0x4(%rbp),%edx
   14da4:	48 8d 35 f5 29 00 00 	lea    0x29f5(%rip),%rsi        # 177a0 <g_2652+0x1734>
   14dab:	48 89 c7             	mov    %rax,%rdi
   14dae:	e8 40 59 ff ff       	callq  a6f3 <transparent_crc>
   14db3:	0f b7 05 f6 6c 00 00 	movzwl 0x6cf6(%rip),%eax        # 1bab0 <g_2550>
   14dba:	0f b7 c0             	movzwl %ax,%eax
   14dbd:	8b 55 fc             	mov    -0x4(%rbp),%edx
   14dc0:	48 8d 35 e3 29 00 00 	lea    0x29e3(%rip),%rsi        # 177aa <g_2652+0x173e>
   14dc7:	48 89 c7             	mov    %rax,%rdi
   14dca:	e8 24 59 ff ff       	callq  a6f3 <transparent_crc>
   14dcf:	c7 45 f0 00 00 00 00 	movl   $0x0,-0x10(%rbp)
   14dd6:	eb 4d                	jmp    14e25 <main+0x1a92>
   14dd8:	8b 45 f0             	mov    -0x10(%rbp),%eax
   14ddb:	48 98                	cltq   
   14ddd:	48 8d 14 85 00 00 00 	lea    0x0(,%rax,4),%rdx
   14de4:	00 
   14de5:	48 8d 05 d4 6c 00 00 	lea    0x6cd4(%rip),%rax        # 1bac0 <g_2586>
   14dec:	8b 04 02             	mov    (%rdx,%rax,1),%eax
   14def:	89 c1                	mov    %eax,%ecx
   14df1:	8b 45 fc             	mov    -0x4(%rbp),%eax
   14df4:	89 c2                	mov    %eax,%edx
   14df6:	48 8d 35 b7 29 00 00 	lea    0x29b7(%rip),%rsi        # 177b4 <g_2652+0x1748>
   14dfd:	48 89 cf             	mov    %rcx,%rdi
   14e00:	e8 ee 58 ff ff       	callq  a6f3 <transparent_crc>
   14e05:	83 7d fc 00          	cmpl   $0x0,-0x4(%rbp)
   14e09:	74 16                	je     14e21 <main+0x1a8e>
   14e0b:	8b 45 f0             	mov    -0x10(%rbp),%eax
   14e0e:	89 c6                	mov    %eax,%esi
   14e10:	48 8d 3d d5 23 00 00 	lea    0x23d5(%rip),%rdi        # 171ec <g_2652+0x1180>
   14e17:	b8 00 00 00 00       	mov    $0x0,%eax
   14e1c:	e8 5f 42 ff ff       	callq  9080 <printf@plt>
   14e21:	83 45 f0 01          	addl   $0x1,-0x10(%rbp)
   14e25:	83 7d f0 07          	cmpl   $0x7,-0x10(%rbp)
   14e29:	7e ad                	jle    14dd8 <main+0x1a45>
   14e2b:	0f b7 05 ae 6c 00 00 	movzwl 0x6cae(%rip),%eax        # 1bae0 <g_2628>
   14e32:	0f b7 c0             	movzwl %ax,%eax
   14e35:	8b 55 fc             	mov    -0x4(%rbp),%edx
   14e38:	48 8d 35 7f 29 00 00 	lea    0x297f(%rip),%rsi        # 177be <g_2652+0x1752>
   14e3f:	48 89 c7             	mov    %rax,%rdi
   14e42:	e8 ac 58 ff ff       	callq  a6f3 <transparent_crc>
   14e47:	8b 05 9b a6 00 00    	mov    0xa69b(%rip),%eax        # 1f4e8 <g_2648>
   14e4d:	89 c1                	mov    %eax,%ecx
   14e4f:	8b 45 fc             	mov    -0x4(%rbp),%eax
   14e52:	89 c2                	mov    %eax,%edx
   14e54:	48 8d 35 6d 29 00 00 	lea    0x296d(%rip),%rsi        # 177c8 <g_2652+0x175c>
   14e5b:	48 89 cf             	mov    %rcx,%rdi
   14e5e:	e8 90 58 ff ff       	callq  a6f3 <transparent_crc>
   14e63:	c7 45 f0 00 00 00 00 	movl   $0x0,-0x10(%rbp)
   14e6a:	eb 4f                	jmp    14ebb <main+0x1b28>
   14e6c:	8b 45 f0             	mov    -0x10(%rbp),%eax
   14e6f:	48 98                	cltq   
   14e71:	48 8d 14 c5 00 00 00 	lea    0x0(,%rax,8),%rdx
   14e78:	00 
   14e79:	48 8d 05 80 a6 00 00 	lea    0xa680(%rip),%rax        # 1f500 <g_2649>
   14e80:	48 8b 04 02          	mov    (%rdx,%rax,1),%rax
   14e84:	48 89 c1             	mov    %rax,%rcx
   14e87:	8b 45 fc             	mov    -0x4(%rbp),%eax
   14e8a:	89 c2                	mov    %eax,%edx
   14e8c:	48 8d 35 3c 29 00 00 	lea    0x293c(%rip),%rsi        # 177cf <g_2652+0x1763>
   14e93:	48 89 cf             	mov    %rcx,%rdi
   14e96:	e8 58 58 ff ff       	callq  a6f3 <transparent_crc>
   14e9b:	83 7d fc 00          	cmpl   $0x0,-0x4(%rbp)
   14e9f:	74 16                	je     14eb7 <main+0x1b24>
   14ea1:	8b 45 f0             	mov    -0x10(%rbp),%eax
   14ea4:	89 c6                	mov    %eax,%esi
   14ea6:	48 8d 3d 3f 23 00 00 	lea    0x233f(%rip),%rdi        # 171ec <g_2652+0x1180>
   14ead:	b8 00 00 00 00       	mov    $0x0,%eax
   14eb2:	e8 c9 41 ff ff       	callq  9080 <printf@plt>
   14eb7:	83 45 f0 01          	addl   $0x1,-0x10(%rbp)
   14ebb:	83 7d f0 03          	cmpl   $0x3,-0x10(%rbp)
   14ebf:	7e ab                	jle    14e6c <main+0x1ad9>
   14ec1:	8b 05 a5 11 00 00    	mov    0x11a5(%rip),%eax        # 1606c <g_2652>
   14ec7:	89 c1                	mov    %eax,%ecx
   14ec9:	8b 45 fc             	mov    -0x4(%rbp),%eax
   14ecc:	89 c2                	mov    %eax,%edx
   14ece:	48 8d 35 04 29 00 00 	lea    0x2904(%rip),%rsi        # 177d9 <g_2652+0x176d>
   14ed5:	48 89 cf             	mov    %rcx,%rdi
   14ed8:	e8 16 58 ff ff       	callq  a6f3 <transparent_crc>
   14edd:	8b 05 89 11 00 00    	mov    0x1189(%rip),%eax        # 1606c <g_2652>
   14ee3:	48 98                	cltq   
   14ee5:	8b 55 fc             	mov    -0x4(%rbp),%edx
   14ee8:	48 8d 35 f4 28 00 00 	lea    0x28f4(%rip),%rsi        # 177e3 <g_2652+0x1777>
   14eef:	48 89 c7             	mov    %rax,%rdi
   14ef2:	e8 fc 57 ff ff       	callq  a6f3 <transparent_crc>
   14ef7:	b8 f6 ff ff ff       	mov    $0xfffffff6,%eax
   14efc:	0f b6 c0             	movzbl %al,%eax
   14eff:	8b 55 fc             	mov    -0x4(%rbp),%edx
   14f02:	48 8d 35 e4 28 00 00 	lea    0x28e4(%rip),%rsi        # 177ed <g_2652+0x1781>
   14f09:	48 89 c7             	mov    %rax,%rdi
   14f0c:	e8 e2 57 ff ff       	callq  a6f3 <transparent_crc>
   14f11:	b8 f6 ff ff ff       	mov    $0xfffffff6,%eax
   14f16:	48 98                	cltq   
   14f18:	8b 55 fc             	mov    -0x4(%rbp),%edx
   14f1b:	48 8d 35 d5 28 00 00 	lea    0x28d5(%rip),%rsi        # 177f7 <g_2652+0x178b>
   14f22:	48 89 c7             	mov    %rax,%rdi
   14f25:	e8 c9 57 ff ff       	callq  a6f3 <transparent_crc>
   14f2a:	b8 f6 ff ff ff       	mov    $0xfffffff6,%eax
   14f2f:	48 0f be c0          	movsbq %al,%rax
   14f33:	8b 55 fc             	mov    -0x4(%rbp),%edx
   14f36:	48 8d 35 c4 28 00 00 	lea    0x28c4(%rip),%rsi        # 17801 <g_2652+0x1795>
   14f3d:	48 89 c7             	mov    %rax,%rdi
   14f40:	e8 ae 57 ff ff       	callq  a6f3 <transparent_crc>
   14f45:	0f b7 05 9c 6b 00 00 	movzwl 0x6b9c(%rip),%eax        # 1bae8 <g_2704>
   14f4c:	48 0f bf c0          	movswq %ax,%rax
   14f50:	8b 55 fc             	mov    -0x4(%rbp),%edx
   14f53:	48 8d 35 b1 28 00 00 	lea    0x28b1(%rip),%rsi        # 1780b <g_2652+0x179f>
   14f5a:	48 89 c7             	mov    %rax,%rdi
   14f5d:	e8 91 57 ff ff       	callq  a6f3 <transparent_crc>
   14f62:	0f b7 05 7f 6b 00 00 	movzwl 0x6b7f(%rip),%eax        # 1bae8 <g_2704>
   14f69:	48 0f bf c0          	movswq %ax,%rax
   14f6d:	8b 55 fc             	mov    -0x4(%rbp),%edx
   14f70:	48 8d 35 9e 28 00 00 	lea    0x289e(%rip),%rsi        # 17815 <g_2652+0x17a9>
   14f77:	48 89 c7             	mov    %rax,%rdi
   14f7a:	e8 74 57 ff ff       	callq  a6f3 <transparent_crc>
   14f7f:	0f b7 05 6a 6b 00 00 	movzwl 0x6b6a(%rip),%eax        # 1baf0 <g_2725>
   14f86:	0f b7 c0             	movzwl %ax,%eax
   14f89:	8b 55 fc             	mov    -0x4(%rbp),%edx
   14f8c:	48 8d 35 8c 28 00 00 	lea    0x288c(%rip),%rsi        # 1781f <g_2652+0x17b3>
   14f93:	48 89 c7             	mov    %rax,%rdi
   14f96:	e8 58 57 ff ff       	callq  a6f3 <transparent_crc>
   14f9b:	0f b7 05 56 6b 00 00 	movzwl 0x6b56(%rip),%eax        # 1baf8 <g_2728>
   14fa2:	0f b7 c0             	movzwl %ax,%eax
   14fa5:	8b 55 fc             	mov    -0x4(%rbp),%edx
   14fa8:	48 8d 35 7a 28 00 00 	lea    0x287a(%rip),%rsi        # 17829 <g_2652+0x17bd>
   14faf:	48 89 c7             	mov    %rax,%rdi
   14fb2:	e8 3c 57 ff ff       	callq  a6f3 <transparent_crc>
   14fb7:	48 8b 05 42 6b 00 00 	mov    0x6b42(%rip),%rax        # 1bb00 <g_2775>
   14fbe:	48 89 c1             	mov    %rax,%rcx
   14fc1:	8b 45 fc             	mov    -0x4(%rbp),%eax
   14fc4:	89 c2                	mov    %eax,%edx
   14fc6:	48 8d 35 66 28 00 00 	lea    0x2866(%rip),%rsi        # 17833 <g_2652+0x17c7>
   14fcd:	48 89 cf             	mov    %rcx,%rdi
   14fd0:	e8 1e 57 ff ff       	callq  a6f3 <transparent_crc>
   14fd5:	0f b7 05 2c 6b 00 00 	movzwl 0x6b2c(%rip),%eax        # 1bb08 <g_2806>
   14fdc:	48 0f bf c0          	movswq %ax,%rax
   14fe0:	8b 55 fc             	mov    -0x4(%rbp),%edx
   14fe3:	48 8d 35 50 28 00 00 	lea    0x2850(%rip),%rsi        # 1783a <g_2652+0x17ce>
   14fea:	48 89 c7             	mov    %rax,%rdi
   14fed:	e8 01 57 ff ff       	callq  a6f3 <transparent_crc>
   14ff2:	0f b7 05 0f 6b 00 00 	movzwl 0x6b0f(%rip),%eax        # 1bb08 <g_2806>
   14ff9:	48 0f bf c0          	movswq %ax,%rax
   14ffd:	8b 55 fc             	mov    -0x4(%rbp),%edx
   15000:	48 8d 35 3d 28 00 00 	lea    0x283d(%rip),%rsi        # 17844 <g_2652+0x17d8>
   15007:	48 89 c7             	mov    %rax,%rdi
   1500a:	e8 e4 56 ff ff       	callq  a6f3 <transparent_crc>
   1500f:	0f b7 05 fa 6a 00 00 	movzwl 0x6afa(%rip),%eax        # 1bb10 <g_2843>
   15016:	0f b7 c0             	movzwl %ax,%eax
   15019:	8b 55 fc             	mov    -0x4(%rbp),%edx
   1501c:	48 8d 35 2b 28 00 00 	lea    0x282b(%rip),%rsi        # 1784e <g_2652+0x17e2>
   15023:	48 89 c7             	mov    %rax,%rdi
   15026:	e8 c8 56 ff ff       	callq  a6f3 <transparent_crc>
   1502b:	0f b7 05 e6 6a 00 00 	movzwl 0x6ae6(%rip),%eax        # 1bb18 <g_2869>
   15032:	0f b7 c0             	movzwl %ax,%eax
   15035:	8b 55 fc             	mov    -0x4(%rbp),%edx
   15038:	48 8d 35 19 28 00 00 	lea    0x2819(%rip),%rsi        # 17858 <g_2652+0x17ec>
   1503f:	48 89 c7             	mov    %rax,%rdi
   15042:	e8 ac 56 ff ff       	callq  a6f3 <transparent_crc>
   15047:	0f b7 05 d2 6a 00 00 	movzwl 0x6ad2(%rip),%eax        # 1bb20 <g_2870>
   1504e:	0f b7 c0             	movzwl %ax,%eax
   15051:	8b 55 fc             	mov    -0x4(%rbp),%edx
   15054:	48 8d 35 07 28 00 00 	lea    0x2807(%rip),%rsi        # 17862 <g_2652+0x17f6>
   1505b:	48 89 c7             	mov    %rax,%rdi
   1505e:	e8 90 56 ff ff       	callq  a6f3 <transparent_crc>
   15063:	c7 45 f0 00 00 00 00 	movl   $0x0,-0x10(%rbp)
   1506a:	eb 7c                	jmp    150e8 <main+0x1d55>
   1506c:	8b 45 f0             	mov    -0x10(%rbp),%eax
   1506f:	48 98                	cltq   
   15071:	48 8d 14 85 00 00 00 	lea    0x0(,%rax,4),%rdx
   15078:	00 
   15079:	48 8d 05 a8 6a 00 00 	lea    0x6aa8(%rip),%rax        # 1bb28 <g_2877>
   15080:	0f b7 04 02          	movzwl (%rdx,%rax,1),%eax
   15084:	48 0f bf c0          	movswq %ax,%rax
   15088:	8b 55 fc             	mov    -0x4(%rbp),%edx
   1508b:	48 8d 35 d7 27 00 00 	lea    0x27d7(%rip),%rsi        # 17869 <g_2652+0x17fd>
   15092:	48 89 c7             	mov    %rax,%rdi
   15095:	e8 59 56 ff ff       	callq  a6f3 <transparent_crc>
   1509a:	8b 45 f0             	mov    -0x10(%rbp),%eax
   1509d:	48 98                	cltq   
   1509f:	48 8d 14 85 00 00 00 	lea    0x0(,%rax,4),%rdx
   150a6:	00 
   150a7:	48 8d 05 7a 6a 00 00 	lea    0x6a7a(%rip),%rax        # 1bb28 <g_2877>
   150ae:	0f b7 04 02          	movzwl (%rdx,%rax,1),%eax
   150b2:	48 0f bf c0          	movswq %ax,%rax
   150b6:	8b 55 fc             	mov    -0x4(%rbp),%edx
   150b9:	48 8d 35 b6 27 00 00 	lea    0x27b6(%rip),%rsi        # 17876 <g_2652+0x180a>
   150c0:	48 89 c7             	mov    %rax,%rdi
   150c3:	e8 2b 56 ff ff       	callq  a6f3 <transparent_crc>
   150c8:	83 7d fc 00          	cmpl   $0x0,-0x4(%rbp)
   150cc:	74 16                	je     150e4 <main+0x1d51>
   150ce:	8b 45 f0             	mov    -0x10(%rbp),%eax
   150d1:	89 c6                	mov    %eax,%esi
   150d3:	48 8d 3d 12 21 00 00 	lea    0x2112(%rip),%rdi        # 171ec <g_2652+0x1180>
   150da:	b8 00 00 00 00       	mov    $0x0,%eax
   150df:	e8 9c 3f ff ff       	callq  9080 <printf@plt>
   150e4:	83 45 f0 01          	addl   $0x1,-0x10(%rbp)
   150e8:	83 7d f0 02          	cmpl   $0x2,-0x10(%rbp)
   150ec:	0f 8e 7a ff ff ff    	jle    1506c <main+0x1cd9>
   150f2:	8b 05 3c 6a 00 00    	mov    0x6a3c(%rip),%eax        # 1bb34 <g_2903>
   150f8:	48 98                	cltq   
   150fa:	8b 55 fc             	mov    -0x4(%rbp),%edx
   150fd:	48 8d 35 7f 27 00 00 	lea    0x277f(%rip),%rsi        # 17883 <g_2652+0x1817>
   15104:	48 89 c7             	mov    %rax,%rdi
   15107:	e8 e7 55 ff ff       	callq  a6f3 <transparent_crc>
   1510c:	0f b7 05 25 6a 00 00 	movzwl 0x6a25(%rip),%eax        # 1bb38 <g_2911>
   15113:	0f b7 c0             	movzwl %ax,%eax
   15116:	8b 55 fc             	mov    -0x4(%rbp),%edx
   15119:	48 8d 35 6a 27 00 00 	lea    0x276a(%rip),%rsi        # 1788a <g_2652+0x181e>
   15120:	48 89 c7             	mov    %rax,%rdi
   15123:	e8 cb 55 ff ff       	callq  a6f3 <transparent_crc>
   15128:	8b 05 0e 6a 00 00    	mov    0x6a0e(%rip),%eax        # 1bb3c <g_2984>
   1512e:	48 98                	cltq   
   15130:	8b 55 fc             	mov    -0x4(%rbp),%edx
   15133:	48 8d 35 57 27 00 00 	lea    0x2757(%rip),%rsi        # 17891 <g_2652+0x1825>
   1513a:	48 89 c7             	mov    %rax,%rdi
   1513d:	e8 b1 55 ff ff       	callq  a6f3 <transparent_crc>
   15142:	8b 05 f8 69 00 00    	mov    0x69f8(%rip),%eax        # 1bb40 <g_3185>
   15148:	89 c1                	mov    %eax,%ecx
   1514a:	8b 45 fc             	mov    -0x4(%rbp),%eax
   1514d:	89 c2                	mov    %eax,%edx
   1514f:	48 8d 35 42 27 00 00 	lea    0x2742(%rip),%rsi        # 17898 <g_2652+0x182c>
   15156:	48 89 cf             	mov    %rcx,%rdi
   15159:	e8 95 55 ff ff       	callq  a6f3 <transparent_crc>
   1515e:	0f b7 05 df 69 00 00 	movzwl 0x69df(%rip),%eax        # 1bb44 <g_3186>
   15165:	48 0f bf c0          	movswq %ax,%rax
   15169:	8b 55 fc             	mov    -0x4(%rbp),%edx
   1516c:	48 8d 35 2c 27 00 00 	lea    0x272c(%rip),%rsi        # 1789f <g_2652+0x1833>
   15173:	48 89 c7             	mov    %rax,%rdi
   15176:	e8 78 55 ff ff       	callq  a6f3 <transparent_crc>
   1517b:	8b 05 c7 69 00 00    	mov    0x69c7(%rip),%eax        # 1bb48 <g_3270>
   15181:	89 c1                	mov    %eax,%ecx
   15183:	8b 45 fc             	mov    -0x4(%rbp),%eax
   15186:	89 c2                	mov    %eax,%edx
   15188:	48 8d 35 17 27 00 00 	lea    0x2717(%rip),%rsi        # 178a6 <g_2652+0x183a>
   1518f:	48 89 cf             	mov    %rcx,%rdi
   15192:	e8 5c 55 ff ff       	callq  a6f3 <transparent_crc>
   15197:	8b 05 ab 69 00 00    	mov    0x69ab(%rip),%eax        # 1bb48 <g_3270>
   1519d:	48 98                	cltq   
   1519f:	8b 55 fc             	mov    -0x4(%rbp),%edx
   151a2:	48 8d 35 07 27 00 00 	lea    0x2707(%rip),%rsi        # 178b0 <g_2652+0x1844>
   151a9:	48 89 c7             	mov    %rax,%rdi
   151ac:	e8 42 55 ff ff       	callq  a6f3 <transparent_crc>
   151b1:	0f b6 05 90 69 00 00 	movzbl 0x6990(%rip),%eax        # 1bb48 <g_3270>
   151b8:	0f b6 c0             	movzbl %al,%eax
   151bb:	8b 55 fc             	mov    -0x4(%rbp),%edx
   151be:	48 8d 35 f5 26 00 00 	lea    0x26f5(%rip),%rsi        # 178ba <g_2652+0x184e>
   151c5:	48 89 c7             	mov    %rax,%rdi
   151c8:	e8 26 55 ff ff       	callq  a6f3 <transparent_crc>
   151cd:	8b 05 75 69 00 00    	mov    0x6975(%rip),%eax        # 1bb48 <g_3270>
   151d3:	48 98                	cltq   
   151d5:	8b 55 fc             	mov    -0x4(%rbp),%edx
   151d8:	48 8d 35 e5 26 00 00 	lea    0x26e5(%rip),%rsi        # 178c4 <g_2652+0x1858>
   151df:	48 89 c7             	mov    %rax,%rdi
   151e2:	e8 0c 55 ff ff       	callq  a6f3 <transparent_crc>
   151e7:	0f b6 05 5a 69 00 00 	movzbl 0x695a(%rip),%eax        # 1bb48 <g_3270>
   151ee:	48 0f be c0          	movsbq %al,%rax
   151f2:	8b 55 fc             	mov    -0x4(%rbp),%edx
   151f5:	48 8d 35 d2 26 00 00 	lea    0x26d2(%rip),%rsi        # 178ce <g_2652+0x1862>
   151fc:	48 89 c7             	mov    %rax,%rdi
   151ff:	e8 ef 54 ff ff       	callq  a6f3 <transparent_crc>
   15204:	0f b7 05 45 69 00 00 	movzwl 0x6945(%rip),%eax        # 1bb50 <g_3275>
   1520b:	0f b7 c0             	movzwl %ax,%eax
   1520e:	8b 55 fc             	mov    -0x4(%rbp),%edx
   15211:	48 8d 35 c0 26 00 00 	lea    0x26c0(%rip),%rsi        # 178d8 <g_2652+0x186c>
   15218:	48 89 c7             	mov    %rax,%rdi
   1521b:	e8 d3 54 ff ff       	callq  a6f3 <transparent_crc>
   15220:	0f b6 05 31 69 00 00 	movzbl 0x6931(%rip),%eax        # 1bb58 <g_3281>
   15227:	0f b6 c0             	movzbl %al,%eax
   1522a:	8b 55 fc             	mov    -0x4(%rbp),%edx
   1522d:	48 8d 35 ae 26 00 00 	lea    0x26ae(%rip),%rsi        # 178e2 <g_2652+0x1876>
   15234:	48 89 c7             	mov    %rax,%rdi
   15237:	e8 b7 54 ff ff       	callq  a6f3 <transparent_crc>
   1523c:	0f b6 05 16 69 00 00 	movzbl 0x6916(%rip),%eax        # 1bb59 <g_3360>
   15243:	48 0f be c0          	movsbq %al,%rax
   15247:	8b 55 fc             	mov    -0x4(%rbp),%edx
   1524a:	48 8d 35 98 26 00 00 	lea    0x2698(%rip),%rsi        # 178e9 <g_2652+0x187d>
   15251:	48 89 c7             	mov    %rax,%rdi
   15254:	e8 9a 54 ff ff       	callq  a6f3 <transparent_crc>
   15259:	0f b7 05 48 a3 00 00 	movzwl 0xa348(%rip),%eax        # 1f5a8 <g_3395>
   15260:	0f b7 c0             	movzwl %ax,%eax
   15263:	8b 55 fc             	mov    -0x4(%rbp),%edx
   15266:	48 8d 35 83 26 00 00 	lea    0x2683(%rip),%rsi        # 178f0 <g_2652+0x1884>
   1526d:	48 89 c7             	mov    %rax,%rdi
   15270:	e8 7e 54 ff ff       	callq  a6f3 <transparent_crc>
   15275:	0f b7 05 e4 68 00 00 	movzwl 0x68e4(%rip),%eax        # 1bb60 <g_3410>
   1527c:	0f b7 c0             	movzwl %ax,%eax
   1527f:	8b 55 fc             	mov    -0x4(%rbp),%edx
   15282:	48 8d 35 6e 26 00 00 	lea    0x266e(%rip),%rsi        # 178f7 <g_2652+0x188b>
   15289:	48 89 c7             	mov    %rax,%rdi
   1528c:	e8 62 54 ff ff       	callq  a6f3 <transparent_crc>
   15291:	8b 05 d1 68 00 00    	mov    0x68d1(%rip),%eax        # 1bb68 <g_3440>
   15297:	89 c1                	mov    %eax,%ecx
   15299:	8b 45 fc             	mov    -0x4(%rbp),%eax
   1529c:	89 c2                	mov    %eax,%edx
   1529e:	48 8d 35 5c 26 00 00 	lea    0x265c(%rip),%rsi        # 17901 <g_2652+0x1895>
   152a5:	48 89 cf             	mov    %rcx,%rdi
   152a8:	e8 46 54 ff ff       	callq  a6f3 <transparent_crc>
   152ad:	8b 05 b5 68 00 00    	mov    0x68b5(%rip),%eax        # 1bb68 <g_3440>
   152b3:	48 98                	cltq   
   152b5:	8b 55 fc             	mov    -0x4(%rbp),%edx
   152b8:	48 8d 35 4c 26 00 00 	lea    0x264c(%rip),%rsi        # 1790b <g_2652+0x189f>
   152bf:	48 89 c7             	mov    %rax,%rdi
   152c2:	e8 2c 54 ff ff       	callq  a6f3 <transparent_crc>
   152c7:	0f b6 05 9a 68 00 00 	movzbl 0x689a(%rip),%eax        # 1bb68 <g_3440>
   152ce:	0f b6 c0             	movzbl %al,%eax
   152d1:	8b 55 fc             	mov    -0x4(%rbp),%edx
   152d4:	48 8d 35 3a 26 00 00 	lea    0x263a(%rip),%rsi        # 17915 <g_2652+0x18a9>
   152db:	48 89 c7             	mov    %rax,%rdi
   152de:	e8 10 54 ff ff       	callq  a6f3 <transparent_crc>
   152e3:	8b 05 7f 68 00 00    	mov    0x687f(%rip),%eax        # 1bb68 <g_3440>
   152e9:	48 98                	cltq   
   152eb:	8b 55 fc             	mov    -0x4(%rbp),%edx
   152ee:	48 8d 35 2a 26 00 00 	lea    0x262a(%rip),%rsi        # 1791f <g_2652+0x18b3>
   152f5:	48 89 c7             	mov    %rax,%rdi
   152f8:	e8 f6 53 ff ff       	callq  a6f3 <transparent_crc>
   152fd:	0f b6 05 64 68 00 00 	movzbl 0x6864(%rip),%eax        # 1bb68 <g_3440>
   15304:	48 0f be c0          	movsbq %al,%rax
   15308:	8b 55 fc             	mov    -0x4(%rbp),%edx
   1530b:	48 8d 35 17 26 00 00 	lea    0x2617(%rip),%rsi        # 17929 <g_2652+0x18bd>
   15312:	48 89 c7             	mov    %rax,%rdi
   15315:	e8 d9 53 ff ff       	callq  a6f3 <transparent_crc>
   1531a:	c7 45 f0 00 00 00 00 	movl   $0x0,-0x10(%rbp)
   15321:	eb 4d                	jmp    15370 <main+0x1fdd>
   15323:	8b 45 f0             	mov    -0x10(%rbp),%eax
   15326:	48 98                	cltq   
   15328:	48 8d 14 c5 00 00 00 	lea    0x0(,%rax,8),%rdx
   1532f:	00 
   15330:	48 8d 05 49 68 00 00 	lea    0x6849(%rip),%rax        # 1bb80 <g_3455>
   15337:	0f b7 04 02          	movzwl (%rdx,%rax,1),%eax
   1533b:	0f b7 c0             	movzwl %ax,%eax
   1533e:	8b 55 fc             	mov    -0x4(%rbp),%edx
   15341:	48 8d 35 eb 25 00 00 	lea    0x25eb(%rip),%rsi        # 17933 <g_2652+0x18c7>
   15348:	48 89 c7             	mov    %rax,%rdi
   1534b:	e8 a3 53 ff ff       	callq  a6f3 <transparent_crc>
   15350:	83 7d fc 00          	cmpl   $0x0,-0x4(%rbp)
   15354:	74 16                	je     1536c <main+0x1fd9>
   15356:	8b 45 f0             	mov    -0x10(%rbp),%eax
   15359:	89 c6                	mov    %eax,%esi
   1535b:	48 8d 3d 8a 1e 00 00 	lea    0x1e8a(%rip),%rdi        # 171ec <g_2652+0x1180>
   15362:	b8 00 00 00 00       	mov    $0x0,%eax
   15367:	e8 14 3d ff ff       	callq  9080 <printf@plt>
   1536c:	83 45 f0 01          	addl   $0x1,-0x10(%rbp)
   15370:	83 7d f0 07          	cmpl   $0x7,-0x10(%rbp)
   15374:	7e ad                	jle    15323 <main+0x1f90>
   15376:	8b 05 44 68 00 00    	mov    0x6844(%rip),%eax        # 1bbc0 <g_3468>
   1537c:	89 c1                	mov    %eax,%ecx
   1537e:	8b 45 fc             	mov    -0x4(%rbp),%eax
   15381:	89 c2                	mov    %eax,%edx
   15383:	48 8d 35 b6 25 00 00 	lea    0x25b6(%rip),%rsi        # 17940 <g_2652+0x18d4>
   1538a:	48 89 cf             	mov    %rcx,%rdi
   1538d:	e8 61 53 ff ff       	callq  a6f3 <transparent_crc>
   15392:	8b 05 28 68 00 00    	mov    0x6828(%rip),%eax        # 1bbc0 <g_3468>
   15398:	48 98                	cltq   
   1539a:	8b 55 fc             	mov    -0x4(%rbp),%edx
   1539d:	48 8d 35 a6 25 00 00 	lea    0x25a6(%rip),%rsi        # 1794a <g_2652+0x18de>
   153a4:	48 89 c7             	mov    %rax,%rdi
   153a7:	e8 47 53 ff ff       	callq  a6f3 <transparent_crc>
   153ac:	0f b6 05 0d 68 00 00 	movzbl 0x680d(%rip),%eax        # 1bbc0 <g_3468>
   153b3:	0f b6 c0             	movzbl %al,%eax
   153b6:	8b 55 fc             	mov    -0x4(%rbp),%edx
   153b9:	48 8d 35 94 25 00 00 	lea    0x2594(%rip),%rsi        # 17954 <g_2652+0x18e8>
   153c0:	48 89 c7             	mov    %rax,%rdi
   153c3:	e8 2b 53 ff ff       	callq  a6f3 <transparent_crc>
   153c8:	8b 05 f2 67 00 00    	mov    0x67f2(%rip),%eax        # 1bbc0 <g_3468>
   153ce:	48 98                	cltq   
   153d0:	8b 55 fc             	mov    -0x4(%rbp),%edx
   153d3:	48 8d 35 84 25 00 00 	lea    0x2584(%rip),%rsi        # 1795e <g_2652+0x18f2>
   153da:	48 89 c7             	mov    %rax,%rdi
   153dd:	e8 11 53 ff ff       	callq  a6f3 <transparent_crc>
   153e2:	0f b6 05 d7 67 00 00 	movzbl 0x67d7(%rip),%eax        # 1bbc0 <g_3468>
   153e9:	48 0f be c0          	movsbq %al,%rax
   153ed:	8b 55 fc             	mov    -0x4(%rbp),%edx
   153f0:	48 8d 35 71 25 00 00 	lea    0x2571(%rip),%rsi        # 17968 <g_2652+0x18fc>
   153f7:	48 89 c7             	mov    %rax,%rdi
   153fa:	e8 f4 52 ff ff       	callq  a6f3 <transparent_crc>
   153ff:	c7 45 f0 00 00 00 00 	movl   $0x0,-0x10(%rbp)
   15406:	eb 4b                	jmp    15453 <main+0x20c0>
   15408:	8b 45 f0             	mov    -0x10(%rbp),%eax
   1540b:	48 98                	cltq   
   1540d:	48 8d 14 85 00 00 00 	lea    0x0(,%rax,4),%rdx
   15414:	00 
   15415:	48 8d 05 b4 67 00 00 	lea    0x67b4(%rip),%rax        # 1bbd0 <g_3484>
   1541c:	8b 04 02             	mov    (%rdx,%rax,1),%eax
   1541f:	48 98                	cltq   
   15421:	8b 55 fc             	mov    -0x4(%rbp),%edx
   15424:	48 8d 35 47 25 00 00 	lea    0x2547(%rip),%rsi        # 17972 <g_2652+0x1906>
   1542b:	48 89 c7             	mov    %rax,%rdi
   1542e:	e8 c0 52 ff ff       	callq  a6f3 <transparent_crc>
   15433:	83 7d fc 00          	cmpl   $0x0,-0x4(%rbp)
   15437:	74 16                	je     1544f <main+0x20bc>
   15439:	8b 45 f0             	mov    -0x10(%rbp),%eax
   1543c:	89 c6                	mov    %eax,%esi
   1543e:	48 8d 3d a7 1d 00 00 	lea    0x1da7(%rip),%rdi        # 171ec <g_2652+0x1180>
   15445:	b8 00 00 00 00       	mov    $0x0,%eax
   1544a:	e8 31 3c ff ff       	callq  9080 <printf@plt>
   1544f:	83 45 f0 01          	addl   $0x1,-0x10(%rbp)
   15453:	83 7d f0 04          	cmpl   $0x4,-0x10(%rbp)
   15457:	7e af                	jle    15408 <main+0x2075>
   15459:	0f b7 05 60 a1 00 00 	movzwl 0xa160(%rip),%eax        # 1f5c0 <g_3536>
   15460:	48 0f bf c0          	movswq %ax,%rax
   15464:	8b 55 fc             	mov    -0x4(%rbp),%edx
   15467:	48 8d 35 0e 25 00 00 	lea    0x250e(%rip),%rsi        # 1797c <g_2652+0x1910>
   1546e:	48 89 c7             	mov    %rax,%rdi
   15471:	e8 7d 52 ff ff       	callq  a6f3 <transparent_crc>
   15476:	c7 45 f0 00 00 00 00 	movl   $0x0,-0x10(%rbp)
   1547d:	e9 fe 00 00 00       	jmpq   15580 <main+0x21ed>
   15482:	8b 45 f0             	mov    -0x10(%rbp),%eax
   15485:	48 98                	cltq   
   15487:	48 8d 14 85 00 00 00 	lea    0x0(,%rax,4),%rdx
   1548e:	00 
   1548f:	48 8d 05 5a 67 00 00 	lea    0x675a(%rip),%rax        # 1bbf0 <g_3576>
   15496:	8b 04 02             	mov    (%rdx,%rax,1),%eax
   15499:	89 c1                	mov    %eax,%ecx
   1549b:	8b 45 fc             	mov    -0x4(%rbp),%eax
   1549e:	89 c2                	mov    %eax,%edx
   154a0:	48 8d 35 dc 24 00 00 	lea    0x24dc(%rip),%rsi        # 17983 <g_2652+0x1917>
   154a7:	48 89 cf             	mov    %rcx,%rdi
   154aa:	e8 44 52 ff ff       	callq  a6f3 <transparent_crc>
   154af:	8b 45 f0             	mov    -0x10(%rbp),%eax
   154b2:	48 98                	cltq   
   154b4:	48 8d 14 85 00 00 00 	lea    0x0(,%rax,4),%rdx
   154bb:	00 
   154bc:	48 8d 05 2d 67 00 00 	lea    0x672d(%rip),%rax        # 1bbf0 <g_3576>
   154c3:	8b 04 02             	mov    (%rdx,%rax,1),%eax
   154c6:	48 98                	cltq   
   154c8:	8b 55 fc             	mov    -0x4(%rbp),%edx
   154cb:	48 8d 35 be 24 00 00 	lea    0x24be(%rip),%rsi        # 17990 <g_2652+0x1924>
   154d2:	48 89 c7             	mov    %rax,%rdi
   154d5:	e8 19 52 ff ff       	callq  a6f3 <transparent_crc>
   154da:	8b 45 f0             	mov    -0x10(%rbp),%eax
   154dd:	48 98                	cltq   
   154df:	48 8d 14 85 00 00 00 	lea    0x0(,%rax,4),%rdx
   154e6:	00 
   154e7:	48 8d 05 02 67 00 00 	lea    0x6702(%rip),%rax        # 1bbf0 <g_3576>
   154ee:	0f b6 04 02          	movzbl (%rdx,%rax,1),%eax
   154f2:	0f b6 c0             	movzbl %al,%eax
   154f5:	8b 55 fc             	mov    -0x4(%rbp),%edx
   154f8:	48 8d 35 9e 24 00 00 	lea    0x249e(%rip),%rsi        # 1799d <g_2652+0x1931>
   154ff:	48 89 c7             	mov    %rax,%rdi
   15502:	e8 ec 51 ff ff       	callq  a6f3 <transparent_crc>
   15507:	8b 45 f0             	mov    -0x10(%rbp),%eax
   1550a:	48 98                	cltq   
   1550c:	48 8d 14 85 00 00 00 	lea    0x0(,%rax,4),%rdx
   15513:	00 
   15514:	48 8d 05 d5 66 00 00 	lea    0x66d5(%rip),%rax        # 1bbf0 <g_3576>
   1551b:	8b 04 02             	mov    (%rdx,%rax,1),%eax
   1551e:	48 98                	cltq   
   15520:	8b 55 fc             	mov    -0x4(%rbp),%edx
   15523:	48 8d 35 80 24 00 00 	lea    0x2480(%rip),%rsi        # 179aa <g_2652+0x193e>
   1552a:	48 89 c7             	mov    %rax,%rdi
   1552d:	e8 c1 51 ff ff       	callq  a6f3 <transparent_crc>
   15532:	8b 45 f0             	mov    -0x10(%rbp),%eax
   15535:	48 98                	cltq   
   15537:	48 8d 14 85 00 00 00 	lea    0x0(,%rax,4),%rdx
   1553e:	00 
   1553f:	48 8d 05 aa 66 00 00 	lea    0x66aa(%rip),%rax        # 1bbf0 <g_3576>
   15546:	0f b6 04 02          	movzbl (%rdx,%rax,1),%eax
   1554a:	48 0f be c0          	movsbq %al,%rax
   1554e:	8b 55 fc             	mov    -0x4(%rbp),%edx
   15551:	48 8d 35 5f 24 00 00 	lea    0x245f(%rip),%rsi        # 179b7 <g_2652+0x194b>
   15558:	48 89 c7             	mov    %rax,%rdi
   1555b:	e8 93 51 ff ff       	callq  a6f3 <transparent_crc>
   15560:	83 7d fc 00          	cmpl   $0x0,-0x4(%rbp)
   15564:	74 16                	je     1557c <main+0x21e9>
   15566:	8b 45 f0             	mov    -0x10(%rbp),%eax
   15569:	89 c6                	mov    %eax,%esi
   1556b:	48 8d 3d 7a 1c 00 00 	lea    0x1c7a(%rip),%rdi        # 171ec <g_2652+0x1180>
   15572:	b8 00 00 00 00       	mov    $0x0,%eax
   15577:	e8 04 3b ff ff       	callq  9080 <printf@plt>
   1557c:	83 45 f0 01          	addl   $0x1,-0x10(%rbp)
   15580:	83 7d f0 05          	cmpl   $0x5,-0x10(%rbp)
   15584:	0f 8e f8 fe ff ff    	jle    15482 <main+0x20ef>
   1558a:	c7 45 f0 00 00 00 00 	movl   $0x0,-0x10(%rbp)
   15591:	e9 ad 00 00 00       	jmpq   15643 <main+0x22b0>
   15596:	c7 45 f4 00 00 00 00 	movl   $0x0,-0xc(%rbp)
   1559d:	e9 93 00 00 00       	jmpq   15635 <main+0x22a2>
   155a2:	c7 45 f8 00 00 00 00 	movl   $0x0,-0x8(%rbp)
   155a9:	eb 7c                	jmp    15627 <main+0x2294>
   155ab:	8b 45 f8             	mov    -0x8(%rbp),%eax
   155ae:	48 63 f0             	movslq %eax,%rsi
   155b1:	8b 45 f0             	mov    -0x10(%rbp),%eax
   155b4:	48 63 d0             	movslq %eax,%rdx
   155b7:	8b 45 f4             	mov    -0xc(%rbp),%eax
   155ba:	48 63 c8             	movslq %eax,%rcx
   155bd:	48 89 d0             	mov    %rdx,%rax
   155c0:	48 c1 e0 02          	shl    $0x2,%rax
   155c4:	48 01 d0             	add    %rdx,%rax
   155c7:	48 c1 e0 03          	shl    $0x3,%rax
   155cb:	48 89 ca             	mov    %rcx,%rdx
   155ce:	48 c1 e2 02          	shl    $0x2,%rdx
   155d2:	48 01 ca             	add    %rcx,%rdx
   155d5:	48 01 d0             	add    %rdx,%rax
   155d8:	48 01 f0             	add    %rsi,%rax
   155db:	48 8d 14 85 00 00 00 	lea    0x0(,%rax,4),%rdx
   155e2:	00 
   155e3:	48 8d 05 36 66 00 00 	lea    0x6636(%rip),%rax        # 1bc20 <g_3599>
   155ea:	8b 04 02             	mov    (%rdx,%rax,1),%eax
   155ed:	48 98                	cltq   
   155ef:	8b 55 fc             	mov    -0x4(%rbp),%edx
   155f2:	48 8d 35 cb 23 00 00 	lea    0x23cb(%rip),%rsi        # 179c4 <g_2652+0x1958>
   155f9:	48 89 c7             	mov    %rax,%rdi
   155fc:	e8 f2 50 ff ff       	callq  a6f3 <transparent_crc>
   15601:	83 7d fc 00          	cmpl   $0x0,-0x4(%rbp)
   15605:	74 1c                	je     15623 <main+0x2290>
   15607:	8b 4d f8             	mov    -0x8(%rbp),%ecx
   1560a:	8b 55 f4             	mov    -0xc(%rbp),%edx
   1560d:	8b 45 f0             	mov    -0x10(%rbp),%eax
   15610:	89 c6                	mov    %eax,%esi
   15612:	48 8d 3d ad 1c 00 00 	lea    0x1cad(%rip),%rdi        # 172c6 <g_2652+0x125a>
   15619:	b8 00 00 00 00       	mov    $0x0,%eax
   1561e:	e8 5d 3a ff ff       	callq  9080 <printf@plt>
   15623:	83 45 f8 01          	addl   $0x1,-0x8(%rbp)
   15627:	83 7d f8 04          	cmpl   $0x4,-0x8(%rbp)
   1562b:	0f 8e 7a ff ff ff    	jle    155ab <main+0x2218>
   15631:	83 45 f4 01          	addl   $0x1,-0xc(%rbp)
   15635:	83 7d f4 07          	cmpl   $0x7,-0xc(%rbp)
   15639:	0f 8e 63 ff ff ff    	jle    155a2 <main+0x220f>
   1563f:	83 45 f0 01          	addl   $0x1,-0x10(%rbp)
   15643:	83 7d f0 01          	cmpl   $0x1,-0x10(%rbp)
   15647:	0f 8e 49 ff ff ff    	jle    15596 <main+0x2203>
   1564d:	c7 45 f0 00 00 00 00 	movl   $0x0,-0x10(%rbp)
   15654:	eb 4a                	jmp    156a0 <main+0x230d>
   15656:	8b 45 f0             	mov    -0x10(%rbp),%eax
   15659:	48 98                	cltq   
   1565b:	48 8d 14 c5 00 00 00 	lea    0x0(,%rax,8),%rdx
   15662:	00 
   15663:	48 8d 05 f6 66 00 00 	lea    0x66f6(%rip),%rax        # 1bd60 <g_3649>
   1566a:	48 8b 04 02          	mov    (%rdx,%rax,1),%rax
   1566e:	8b 55 fc             	mov    -0x4(%rbp),%edx
   15671:	48 8d 35 5c 23 00 00 	lea    0x235c(%rip),%rsi        # 179d4 <g_2652+0x1968>
   15678:	48 89 c7             	mov    %rax,%rdi
   1567b:	e8 73 50 ff ff       	callq  a6f3 <transparent_crc>
   15680:	83 7d fc 00          	cmpl   $0x0,-0x4(%rbp)
   15684:	74 16                	je     1569c <main+0x2309>
   15686:	8b 45 f0             	mov    -0x10(%rbp),%eax
   15689:	89 c6                	mov    %eax,%esi
   1568b:	48 8d 3d 5a 1b 00 00 	lea    0x1b5a(%rip),%rdi        # 171ec <g_2652+0x1180>
   15692:	b8 00 00 00 00       	mov    $0x0,%eax
   15697:	e8 e4 39 ff ff       	callq  9080 <printf@plt>
   1569c:	83 45 f0 01          	addl   $0x1,-0x10(%rbp)
   156a0:	83 7d f0 07          	cmpl   $0x7,-0x10(%rbp)
   156a4:	7e b0                	jle    15656 <main+0x22c3>
   156a6:	8b 05 f4 66 00 00    	mov    0x66f4(%rip),%eax        # 1bda0 <g_3673>
   156ac:	89 c1                	mov    %eax,%ecx
   156ae:	8b 45 fc             	mov    -0x4(%rbp),%eax
   156b1:	89 c2                	mov    %eax,%edx
   156b3:	48 8d 35 24 23 00 00 	lea    0x2324(%rip),%rsi        # 179de <g_2652+0x1972>
   156ba:	48 89 cf             	mov    %rcx,%rdi
   156bd:	e8 31 50 ff ff       	callq  a6f3 <transparent_crc>
   156c2:	8b 05 d8 66 00 00    	mov    0x66d8(%rip),%eax        # 1bda0 <g_3673>
   156c8:	48 98                	cltq   
   156ca:	8b 55 fc             	mov    -0x4(%rbp),%edx
   156cd:	48 8d 35 14 23 00 00 	lea    0x2314(%rip),%rsi        # 179e8 <g_2652+0x197c>
   156d4:	48 89 c7             	mov    %rax,%rdi
   156d7:	e8 17 50 ff ff       	callq  a6f3 <transparent_crc>
   156dc:	0f b6 05 bd 66 00 00 	movzbl 0x66bd(%rip),%eax        # 1bda0 <g_3673>
   156e3:	0f b6 c0             	movzbl %al,%eax
   156e6:	8b 55 fc             	mov    -0x4(%rbp),%edx
   156e9:	48 8d 35 02 23 00 00 	lea    0x2302(%rip),%rsi        # 179f2 <g_2652+0x1986>
   156f0:	48 89 c7             	mov    %rax,%rdi
   156f3:	e8 fb 4f ff ff       	callq  a6f3 <transparent_crc>
   156f8:	8b 05 a2 66 00 00    	mov    0x66a2(%rip),%eax        # 1bda0 <g_3673>
   156fe:	48 98                	cltq   
   15700:	8b 55 fc             	mov    -0x4(%rbp),%edx
   15703:	48 8d 35 f2 22 00 00 	lea    0x22f2(%rip),%rsi        # 179fc <g_2652+0x1990>
   1570a:	48 89 c7             	mov    %rax,%rdi
   1570d:	e8 e1 4f ff ff       	callq  a6f3 <transparent_crc>
   15712:	0f b6 05 87 66 00 00 	movzbl 0x6687(%rip),%eax        # 1bda0 <g_3673>
   15719:	48 0f be c0          	movsbq %al,%rax
   1571d:	8b 55 fc             	mov    -0x4(%rbp),%edx
   15720:	48 8d 35 df 22 00 00 	lea    0x22df(%rip),%rsi        # 17a06 <g_2652+0x199a>
   15727:	48 89 c7             	mov    %rax,%rdi
   1572a:	e8 c4 4f ff ff       	callq  a6f3 <transparent_crc>
   1572f:	8b 05 eb 58 00 00    	mov    0x58eb(%rip),%eax        # 1b020 <crc32_context>
   15735:	f7 d0                	not    %eax
   15737:	89 c2                	mov    %eax,%edx
   15739:	8b 45 fc             	mov    -0x4(%rbp),%eax
   1573c:	89 c6                	mov    %eax,%esi
   1573e:	89 d7                	mov    %edx,%edi
   15740:	e8 4f 3a ff ff       	callq  9194 <platform_main_end>
   15745:	b8 00 00 00 00       	mov    $0x0,%eax
   1574a:	c9                   	leaveq 
   1574b:	c3                   	retq   
   1574c:	0f 1f 40 00          	nopl   0x0(%rax)

0000000000015750 <__libc_csu_init>:
   15750:	f3 0f 1e fa          	endbr64 
   15754:	41 57                	push   %r15
   15756:	4c 8d 3d f3 53 00 00 	lea    0x53f3(%rip),%r15        # 1ab50 <__frame_dummy_init_array_entry>
   1575d:	41 56                	push   %r14
   1575f:	49 89 d6             	mov    %rdx,%r14
   15762:	41 55                	push   %r13
   15764:	49 89 f5             	mov    %rsi,%r13
   15767:	41 54                	push   %r12
   15769:	41 89 fc             	mov    %edi,%r12d
   1576c:	55                   	push   %rbp
   1576d:	48 8d 2d e4 53 00 00 	lea    0x53e4(%rip),%rbp        # 1ab58 <__do_global_dtors_aux_fini_array_entry>
   15774:	53                   	push   %rbx
   15775:	4c 29 fd             	sub    %r15,%rbp
   15778:	48 83 ec 08          	sub    $0x8,%rsp
   1577c:	e8 7f 38 ff ff       	callq  9000 <_init>
   15781:	48 c1 fd 03          	sar    $0x3,%rbp
   15785:	74 1f                	je     157a6 <__libc_csu_init+0x56>
   15787:	31 db                	xor    %ebx,%ebx
   15789:	0f 1f 80 00 00 00 00 	nopl   0x0(%rax)
   15790:	4c 89 f2             	mov    %r14,%rdx
   15793:	4c 89 ee             	mov    %r13,%rsi
   15796:	44 89 e7             	mov    %r12d,%edi
   15799:	41 ff 14 df          	callq  *(%r15,%rbx,8)
   1579d:	48 83 c3 01          	add    $0x1,%rbx
   157a1:	48 39 dd             	cmp    %rbx,%rbp
   157a4:	75 ea                	jne    15790 <__libc_csu_init+0x40>
   157a6:	48 83 c4 08          	add    $0x8,%rsp
   157aa:	5b                   	pop    %rbx
   157ab:	5d                   	pop    %rbp
   157ac:	41 5c                	pop    %r12
   157ae:	41 5d                	pop    %r13
   157b0:	41 5e                	pop    %r14
   157b2:	41 5f                	pop    %r15
   157b4:	c3                   	retq   
   157b5:	66 66 2e 0f 1f 84 00 	data16 nopw %cs:0x0(%rax,%rax,1)
   157bc:	00 00 00 00 

00000000000157c0 <__libc_csu_fini>:
   157c0:	f3 0f 1e fa          	endbr64 
   157c4:	c3                   	retq   
