


Disassembly of section .text:

000000000000d0a0 <_start>:
    d0a0:	f3 0f 1e fa          	endbr64 
    d0a4:	31 ed                	xor    %ebp,%ebp
    d0a6:	49 89 d1             	mov    %rdx,%r9
    d0a9:	5e                   	pop    %rsi
    d0aa:	48 89 e2             	mov    %rsp,%rdx
    d0ad:	48 83 e4 f0          	and    $0xfffffffffffffff0,%rsp
    d0b1:	50                   	push   %rax
    d0b2:	54                   	push   %rsp
    d0b3:	4c 8d 05 06 33 01 00 	lea    0x13306(%rip),%r8        # 203c0 <__libc_csu_fini>
    d0ba:	48 8d 0d 8f 32 01 00 	lea    0x1328f(%rip),%rcx        # 20350 <__libc_csu_init>
    d0c1:	48 8d 3d 4c 28 01 00 	lea    0x1284c(%rip),%rdi        # 1f914 <main>
    d0c8:	ff 15 12 7f 01 00    	callq  *0x17f12(%rip)        # 24fe0 <__libc_start_main@GLIBC_2.2.5>
    d0ce:	f4                   	hlt    
    d0cf:	90                   	nop

000000000000d0d0 <deregister_tm_clones>:
    d0d0:	48 8d 3d 09 cb 01 00 	lea    0x1cb09(%rip),%rdi        # 29be0 <__TMC_END__>
    d0d7:	48 8d 05 02 cb 01 00 	lea    0x1cb02(%rip),%rax        # 29be0 <__TMC_END__>
    d0de:	48 39 f8             	cmp    %rdi,%rax
    d0e1:	74 15                	je     d0f8 <deregister_tm_clones+0x28>
    d0e3:	48 8b 05 ee 7e 01 00 	mov    0x17eee(%rip),%rax        # 24fd8 <_ITM_deregisterTMCloneTable>
    d0ea:	48 85 c0             	test   %rax,%rax
    d0ed:	74 09                	je     d0f8 <deregister_tm_clones+0x28>
    d0ef:	ff e0                	jmpq   *%rax
    d0f1:	0f 1f 80 00 00 00 00 	nopl   0x0(%rax)
    d0f8:	c3                   	retq   
    d0f9:	0f 1f 80 00 00 00 00 	nopl   0x0(%rax)

000000000000d100 <register_tm_clones>:
    d100:	48 8d 3d d9 ca 01 00 	lea    0x1cad9(%rip),%rdi        # 29be0 <__TMC_END__>
    d107:	48 8d 35 d2 ca 01 00 	lea    0x1cad2(%rip),%rsi        # 29be0 <__TMC_END__>
    d10e:	48 29 fe             	sub    %rdi,%rsi
    d111:	48 89 f0             	mov    %rsi,%rax
    d114:	48 c1 ee 3f          	shr    $0x3f,%rsi
    d118:	48 c1 f8 03          	sar    $0x3,%rax
    d11c:	48 01 c6             	add    %rax,%rsi
    d11f:	48 d1 fe             	sar    %rsi
    d122:	74 14                	je     d138 <register_tm_clones+0x38>
    d124:	48 8b 05 c5 7e 01 00 	mov    0x17ec5(%rip),%rax        # 24ff0 <_ITM_registerTMCloneTable>
    d12b:	48 85 c0             	test   %rax,%rax
    d12e:	74 08                	je     d138 <register_tm_clones+0x38>
    d130:	ff e0                	jmpq   *%rax
    d132:	66 0f 1f 44 00 00    	nopw   0x0(%rax,%rax,1)
    d138:	c3                   	retq   
    d139:	0f 1f 80 00 00 00 00 	nopl   0x0(%rax)

000000000000d140 <__do_global_dtors_aux>:
    d140:	f3 0f 1e fa          	endbr64 
    d144:	80 3d 95 ca 01 00 00 	cmpb   $0x0,0x1ca95(%rip)        # 29be0 <__TMC_END__>
    d14b:	75 2b                	jne    d178 <__do_global_dtors_aux+0x38>
    d14d:	55                   	push   %rbp
    d14e:	48 83 3d a2 7e 01 00 	cmpq   $0x0,0x17ea2(%rip)        # 24ff8 <__cxa_finalize@GLIBC_2.2.5>
    d155:	00 
    d156:	48 89 e5             	mov    %rsp,%rbp
    d159:	74 0c                	je     d167 <__do_global_dtors_aux+0x27>
    d15b:	48 8b 3d a6 7e 01 00 	mov    0x17ea6(%rip),%rdi        # 25008 <__dso_handle>
    d162:	e8 f9 fe ff ff       	callq  d060 <__cxa_finalize@plt>
    d167:	e8 64 ff ff ff       	callq  d0d0 <deregister_tm_clones>
    d16c:	c6 05 6d ca 01 00 01 	movb   $0x1,0x1ca6d(%rip)        # 29be0 <__TMC_END__>
    d173:	5d                   	pop    %rbp
    d174:	c3                   	retq   
    d175:	0f 1f 00             	nopl   (%rax)
    d178:	c3                   	retq   
    d179:	0f 1f 80 00 00 00 00 	nopl   0x0(%rax)

000000000000d180 <frame_dummy>:
    d180:	f3 0f 1e fa          	endbr64 
    d184:	e9 77 ff ff ff       	jmpq   d100 <register_tm_clones>

000000000000d189 <platform_main_begin>:
    d189:	f3 0f 1e fa          	endbr64 
    d18d:	55                   	push   %rbp
    d18e:	48 89 e5             	mov    %rsp,%rbp
    d191:	90                   	nop
    d192:	5d                   	pop    %rbp
    d193:	c3                   	retq   

000000000000d194 <platform_main_end>:
    d194:	f3 0f 1e fa          	endbr64 
    d198:	55                   	push   %rbp
    d199:	48 89 e5             	mov    %rsp,%rbp
    d19c:	48 83 ec 10          	sub    $0x10,%rsp
    d1a0:	89 7d fc             	mov    %edi,-0x4(%rbp)
    d1a3:	89 75 f8             	mov    %esi,-0x8(%rbp)
    d1a6:	8b 45 fc             	mov    -0x4(%rbp),%eax
    d1a9:	89 c6                	mov    %eax,%esi
    d1ab:	48 8d 3d 6e 3e 01 00 	lea    0x13e6e(%rip),%rdi        # 21020 <_IO_stdin_used+0x20>
    d1b2:	b8 00 00 00 00       	mov    $0x0,%eax
    d1b7:	e8 c4 fe ff ff       	callq  d080 <printf@plt>
    d1bc:	90                   	nop
    d1bd:	c9                   	leaveq 
    d1be:	c3                   	retq   

000000000000d1bf <safe_unary_minus_func_int8_t_s>:
    d1bf:	f3 0f 1e fa          	endbr64 
    d1c3:	55                   	push   %rbp
    d1c4:	48 89 e5             	mov    %rsp,%rbp
    d1c7:	89 f8                	mov    %edi,%eax
    d1c9:	88 45 fc             	mov    %al,-0x4(%rbp)
    d1cc:	0f b6 45 fc          	movzbl -0x4(%rbp),%eax
    d1d0:	f7 d8                	neg    %eax
    d1d2:	5d                   	pop    %rbp
    d1d3:	c3                   	retq   

000000000000d1d4 <safe_add_func_int8_t_s_s>:
    d1d4:	f3 0f 1e fa          	endbr64 
    d1d8:	55                   	push   %rbp
    d1d9:	48 89 e5             	mov    %rsp,%rbp
    d1dc:	89 fa                	mov    %edi,%edx
    d1de:	89 f0                	mov    %esi,%eax
    d1e0:	88 55 fc             	mov    %dl,-0x4(%rbp)
    d1e3:	88 45 f8             	mov    %al,-0x8(%rbp)
    d1e6:	0f b6 55 fc          	movzbl -0x4(%rbp),%edx
    d1ea:	0f b6 45 f8          	movzbl -0x8(%rbp),%eax
    d1ee:	01 d0                	add    %edx,%eax
    d1f0:	5d                   	pop    %rbp
    d1f1:	c3                   	retq   

000000000000d1f2 <safe_sub_func_int8_t_s_s>:
    d1f2:	f3 0f 1e fa          	endbr64 
    d1f6:	55                   	push   %rbp
    d1f7:	48 89 e5             	mov    %rsp,%rbp
    d1fa:	89 fa                	mov    %edi,%edx
    d1fc:	89 f0                	mov    %esi,%eax
    d1fe:	88 55 fc             	mov    %dl,-0x4(%rbp)
    d201:	88 45 f8             	mov    %al,-0x8(%rbp)
    d204:	0f b6 55 fc          	movzbl -0x4(%rbp),%edx
    d208:	0f b6 45 f8          	movzbl -0x8(%rbp),%eax
    d20c:	29 c2                	sub    %eax,%edx
    d20e:	89 d0                	mov    %edx,%eax
    d210:	5d                   	pop    %rbp
    d211:	c3                   	retq   

000000000000d212 <safe_mul_func_int8_t_s_s>:
    d212:	f3 0f 1e fa          	endbr64 
    d216:	55                   	push   %rbp
    d217:	48 89 e5             	mov    %rsp,%rbp
    d21a:	89 fa                	mov    %edi,%edx
    d21c:	89 f0                	mov    %esi,%eax
    d21e:	88 55 fc             	mov    %dl,-0x4(%rbp)
    d221:	88 45 f8             	mov    %al,-0x8(%rbp)
    d224:	0f b6 45 fc          	movzbl -0x4(%rbp),%eax
    d228:	0f b6 55 f8          	movzbl -0x8(%rbp),%edx
    d22c:	0f af c2             	imul   %edx,%eax
    d22f:	5d                   	pop    %rbp
    d230:	c3                   	retq   

000000000000d231 <safe_mod_func_int8_t_s_s>:
    d231:	f3 0f 1e fa          	endbr64 
    d235:	55                   	push   %rbp
    d236:	48 89 e5             	mov    %rsp,%rbp
    d239:	89 fa                	mov    %edi,%edx
    d23b:	89 f0                	mov    %esi,%eax
    d23d:	88 55 fc             	mov    %dl,-0x4(%rbp)
    d240:	88 45 f8             	mov    %al,-0x8(%rbp)
    d243:	80 7d f8 00          	cmpb   $0x0,-0x8(%rbp)
    d247:	74 1b                	je     d264 <safe_mod_func_int8_t_s_s+0x33>
    d249:	80 7d fc 80          	cmpb   $0x80,-0x4(%rbp)
    d24d:	75 06                	jne    d255 <safe_mod_func_int8_t_s_s+0x24>
    d24f:	80 7d f8 ff          	cmpb   $0xff,-0x8(%rbp)
    d253:	74 0f                	je     d264 <safe_mod_func_int8_t_s_s+0x33>
    d255:	0f be 45 fc          	movsbl -0x4(%rbp),%eax
    d259:	0f be 4d f8          	movsbl -0x8(%rbp),%ecx
    d25d:	99                   	cltd   
    d25e:	f7 f9                	idiv   %ecx
    d260:	89 d0                	mov    %edx,%eax
    d262:	eb 04                	jmp    d268 <safe_mod_func_int8_t_s_s+0x37>
    d264:	0f b6 45 fc          	movzbl -0x4(%rbp),%eax
    d268:	5d                   	pop    %rbp
    d269:	c3                   	retq   

000000000000d26a <safe_div_func_int8_t_s_s>:
    d26a:	f3 0f 1e fa          	endbr64 
    d26e:	55                   	push   %rbp
    d26f:	48 89 e5             	mov    %rsp,%rbp
    d272:	89 fa                	mov    %edi,%edx
    d274:	89 f0                	mov    %esi,%eax
    d276:	88 55 fc             	mov    %dl,-0x4(%rbp)
    d279:	88 45 f8             	mov    %al,-0x8(%rbp)
    d27c:	80 7d f8 00          	cmpb   $0x0,-0x8(%rbp)
    d280:	74 19                	je     d29b <safe_div_func_int8_t_s_s+0x31>
    d282:	80 7d fc 80          	cmpb   $0x80,-0x4(%rbp)
    d286:	75 06                	jne    d28e <safe_div_func_int8_t_s_s+0x24>
    d288:	80 7d f8 ff          	cmpb   $0xff,-0x8(%rbp)
    d28c:	74 0d                	je     d29b <safe_div_func_int8_t_s_s+0x31>
    d28e:	0f be 45 fc          	movsbl -0x4(%rbp),%eax
    d292:	0f be 4d f8          	movsbl -0x8(%rbp),%ecx
    d296:	99                   	cltd   
    d297:	f7 f9                	idiv   %ecx
    d299:	eb 04                	jmp    d29f <safe_div_func_int8_t_s_s+0x35>
    d29b:	0f b6 45 fc          	movzbl -0x4(%rbp),%eax
    d29f:	5d                   	pop    %rbp
    d2a0:	c3                   	retq   

000000000000d2a1 <safe_lshift_func_int8_t_s_s>:
    d2a1:	f3 0f 1e fa          	endbr64 
    d2a5:	55                   	push   %rbp
    d2a6:	48 89 e5             	mov    %rsp,%rbp
    d2a9:	89 f8                	mov    %edi,%eax
    d2ab:	89 75 f8             	mov    %esi,-0x8(%rbp)
    d2ae:	88 45 fc             	mov    %al,-0x4(%rbp)
    d2b1:	80 7d fc 00          	cmpb   $0x0,-0x4(%rbp)
    d2b5:	78 31                	js     d2e8 <safe_lshift_func_int8_t_s_s+0x47>
    d2b7:	83 7d f8 00          	cmpl   $0x0,-0x8(%rbp)
    d2bb:	78 2b                	js     d2e8 <safe_lshift_func_int8_t_s_s+0x47>
    d2bd:	83 7d f8 1f          	cmpl   $0x1f,-0x8(%rbp)
    d2c1:	7f 25                	jg     d2e8 <safe_lshift_func_int8_t_s_s+0x47>
    d2c3:	0f be 55 fc          	movsbl -0x4(%rbp),%edx
    d2c7:	8b 45 f8             	mov    -0x8(%rbp),%eax
    d2ca:	be 7f 00 00 00       	mov    $0x7f,%esi
    d2cf:	89 c1                	mov    %eax,%ecx
    d2d1:	d3 fe                	sar    %cl,%esi
    d2d3:	89 f0                	mov    %esi,%eax
    d2d5:	39 c2                	cmp    %eax,%edx
    d2d7:	7f 0f                	jg     d2e8 <safe_lshift_func_int8_t_s_s+0x47>
    d2d9:	0f be 55 fc          	movsbl -0x4(%rbp),%edx
    d2dd:	8b 45 f8             	mov    -0x8(%rbp),%eax
    d2e0:	89 c1                	mov    %eax,%ecx
    d2e2:	d3 e2                	shl    %cl,%edx
    d2e4:	89 d0                	mov    %edx,%eax
    d2e6:	eb 04                	jmp    d2ec <safe_lshift_func_int8_t_s_s+0x4b>
    d2e8:	0f b6 45 fc          	movzbl -0x4(%rbp),%eax
    d2ec:	5d                   	pop    %rbp
    d2ed:	c3                   	retq   

000000000000d2ee <safe_lshift_func_int8_t_s_u>:
    d2ee:	f3 0f 1e fa          	endbr64 
    d2f2:	55                   	push   %rbp
    d2f3:	48 89 e5             	mov    %rsp,%rbp
    d2f6:	89 f8                	mov    %edi,%eax
    d2f8:	89 75 f8             	mov    %esi,-0x8(%rbp)
    d2fb:	88 45 fc             	mov    %al,-0x4(%rbp)
    d2fe:	80 7d fc 00          	cmpb   $0x0,-0x4(%rbp)
    d302:	78 2b                	js     d32f <safe_lshift_func_int8_t_s_u+0x41>
    d304:	83 7d f8 1f          	cmpl   $0x1f,-0x8(%rbp)
    d308:	77 25                	ja     d32f <safe_lshift_func_int8_t_s_u+0x41>
    d30a:	0f be 55 fc          	movsbl -0x4(%rbp),%edx
    d30e:	8b 45 f8             	mov    -0x8(%rbp),%eax
    d311:	be 7f 00 00 00       	mov    $0x7f,%esi
    d316:	89 c1                	mov    %eax,%ecx
    d318:	d3 fe                	sar    %cl,%esi
    d31a:	89 f0                	mov    %esi,%eax
    d31c:	39 c2                	cmp    %eax,%edx
    d31e:	7f 0f                	jg     d32f <safe_lshift_func_int8_t_s_u+0x41>
    d320:	0f be 55 fc          	movsbl -0x4(%rbp),%edx
    d324:	8b 45 f8             	mov    -0x8(%rbp),%eax
    d327:	89 c1                	mov    %eax,%ecx
    d329:	d3 e2                	shl    %cl,%edx
    d32b:	89 d0                	mov    %edx,%eax
    d32d:	eb 04                	jmp    d333 <safe_lshift_func_int8_t_s_u+0x45>
    d32f:	0f b6 45 fc          	movzbl -0x4(%rbp),%eax
    d333:	5d                   	pop    %rbp
    d334:	c3                   	retq   

000000000000d335 <safe_rshift_func_int8_t_s_s>:
    d335:	f3 0f 1e fa          	endbr64 
    d339:	55                   	push   %rbp
    d33a:	48 89 e5             	mov    %rsp,%rbp
    d33d:	89 f8                	mov    %edi,%eax
    d33f:	89 75 f8             	mov    %esi,-0x8(%rbp)
    d342:	88 45 fc             	mov    %al,-0x4(%rbp)
    d345:	80 7d fc 00          	cmpb   $0x0,-0x4(%rbp)
    d349:	78 1b                	js     d366 <safe_rshift_func_int8_t_s_s+0x31>
    d34b:	83 7d f8 00          	cmpl   $0x0,-0x8(%rbp)
    d34f:	78 15                	js     d366 <safe_rshift_func_int8_t_s_s+0x31>
    d351:	83 7d f8 1f          	cmpl   $0x1f,-0x8(%rbp)
    d355:	7f 0f                	jg     d366 <safe_rshift_func_int8_t_s_s+0x31>
    d357:	0f be 55 fc          	movsbl -0x4(%rbp),%edx
    d35b:	8b 45 f8             	mov    -0x8(%rbp),%eax
    d35e:	89 c1                	mov    %eax,%ecx
    d360:	d3 fa                	sar    %cl,%edx
    d362:	89 d0                	mov    %edx,%eax
    d364:	eb 04                	jmp    d36a <safe_rshift_func_int8_t_s_s+0x35>
    d366:	0f b6 45 fc          	movzbl -0x4(%rbp),%eax
    d36a:	5d                   	pop    %rbp
    d36b:	c3                   	retq   

000000000000d36c <safe_rshift_func_int8_t_s_u>:
    d36c:	f3 0f 1e fa          	endbr64 
    d370:	55                   	push   %rbp
    d371:	48 89 e5             	mov    %rsp,%rbp
    d374:	89 f8                	mov    %edi,%eax
    d376:	89 75 f8             	mov    %esi,-0x8(%rbp)
    d379:	88 45 fc             	mov    %al,-0x4(%rbp)
    d37c:	80 7d fc 00          	cmpb   $0x0,-0x4(%rbp)
    d380:	78 15                	js     d397 <safe_rshift_func_int8_t_s_u+0x2b>
    d382:	83 7d f8 1f          	cmpl   $0x1f,-0x8(%rbp)
    d386:	77 0f                	ja     d397 <safe_rshift_func_int8_t_s_u+0x2b>
    d388:	0f be 55 fc          	movsbl -0x4(%rbp),%edx
    d38c:	8b 45 f8             	mov    -0x8(%rbp),%eax
    d38f:	89 c1                	mov    %eax,%ecx
    d391:	d3 fa                	sar    %cl,%edx
    d393:	89 d0                	mov    %edx,%eax
    d395:	eb 04                	jmp    d39b <safe_rshift_func_int8_t_s_u+0x2f>
    d397:	0f b6 45 fc          	movzbl -0x4(%rbp),%eax
    d39b:	5d                   	pop    %rbp
    d39c:	c3                   	retq   

000000000000d39d <safe_unary_minus_func_int16_t_s>:
    d39d:	f3 0f 1e fa          	endbr64 
    d3a1:	55                   	push   %rbp
    d3a2:	48 89 e5             	mov    %rsp,%rbp
    d3a5:	89 f8                	mov    %edi,%eax
    d3a7:	66 89 45 fc          	mov    %ax,-0x4(%rbp)
    d3ab:	0f b7 45 fc          	movzwl -0x4(%rbp),%eax
    d3af:	f7 d8                	neg    %eax
    d3b1:	5d                   	pop    %rbp
    d3b2:	c3                   	retq   

000000000000d3b3 <safe_add_func_int16_t_s_s>:
    d3b3:	f3 0f 1e fa          	endbr64 
    d3b7:	55                   	push   %rbp
    d3b8:	48 89 e5             	mov    %rsp,%rbp
    d3bb:	89 fa                	mov    %edi,%edx
    d3bd:	89 f0                	mov    %esi,%eax
    d3bf:	66 89 55 fc          	mov    %dx,-0x4(%rbp)
    d3c3:	66 89 45 f8          	mov    %ax,-0x8(%rbp)
    d3c7:	0f b7 55 fc          	movzwl -0x4(%rbp),%edx
    d3cb:	0f b7 45 f8          	movzwl -0x8(%rbp),%eax
    d3cf:	01 d0                	add    %edx,%eax
    d3d1:	5d                   	pop    %rbp
    d3d2:	c3                   	retq   

000000000000d3d3 <safe_sub_func_int16_t_s_s>:
    d3d3:	f3 0f 1e fa          	endbr64 
    d3d7:	55                   	push   %rbp
    d3d8:	48 89 e5             	mov    %rsp,%rbp
    d3db:	89 fa                	mov    %edi,%edx
    d3dd:	89 f0                	mov    %esi,%eax
    d3df:	66 89 55 fc          	mov    %dx,-0x4(%rbp)
    d3e3:	66 89 45 f8          	mov    %ax,-0x8(%rbp)
    d3e7:	0f b7 55 fc          	movzwl -0x4(%rbp),%edx
    d3eb:	0f b7 45 f8          	movzwl -0x8(%rbp),%eax
    d3ef:	29 c2                	sub    %eax,%edx
    d3f1:	89 d0                	mov    %edx,%eax
    d3f3:	5d                   	pop    %rbp
    d3f4:	c3                   	retq   

000000000000d3f5 <safe_mul_func_int16_t_s_s>:
    d3f5:	f3 0f 1e fa          	endbr64 
    d3f9:	55                   	push   %rbp
    d3fa:	48 89 e5             	mov    %rsp,%rbp
    d3fd:	89 fa                	mov    %edi,%edx
    d3ff:	89 f0                	mov    %esi,%eax
    d401:	66 89 55 fc          	mov    %dx,-0x4(%rbp)
    d405:	66 89 45 f8          	mov    %ax,-0x8(%rbp)
    d409:	0f b7 55 fc          	movzwl -0x4(%rbp),%edx
    d40d:	0f b7 45 f8          	movzwl -0x8(%rbp),%eax
    d411:	0f af c2             	imul   %edx,%eax
    d414:	5d                   	pop    %rbp
    d415:	c3                   	retq   

000000000000d416 <safe_mod_func_int16_t_s_s>:
    d416:	f3 0f 1e fa          	endbr64 
    d41a:	55                   	push   %rbp
    d41b:	48 89 e5             	mov    %rsp,%rbp
    d41e:	89 fa                	mov    %edi,%edx
    d420:	89 f0                	mov    %esi,%eax
    d422:	66 89 55 fc          	mov    %dx,-0x4(%rbp)
    d426:	66 89 45 f8          	mov    %ax,-0x8(%rbp)
    d42a:	66 83 7d f8 00       	cmpw   $0x0,-0x8(%rbp)
    d42f:	74 1e                	je     d44f <safe_mod_func_int16_t_s_s+0x39>
    d431:	66 81 7d fc 00 80    	cmpw   $0x8000,-0x4(%rbp)
    d437:	75 07                	jne    d440 <safe_mod_func_int16_t_s_s+0x2a>
    d439:	66 83 7d f8 ff       	cmpw   $0xffff,-0x8(%rbp)
    d43e:	74 0f                	je     d44f <safe_mod_func_int16_t_s_s+0x39>
    d440:	0f bf 45 fc          	movswl -0x4(%rbp),%eax
    d444:	0f bf 4d f8          	movswl -0x8(%rbp),%ecx
    d448:	99                   	cltd   
    d449:	f7 f9                	idiv   %ecx
    d44b:	89 d0                	mov    %edx,%eax
    d44d:	eb 04                	jmp    d453 <safe_mod_func_int16_t_s_s+0x3d>
    d44f:	0f b7 45 fc          	movzwl -0x4(%rbp),%eax
    d453:	5d                   	pop    %rbp
    d454:	c3                   	retq   

000000000000d455 <safe_div_func_int16_t_s_s>:
    d455:	f3 0f 1e fa          	endbr64 
    d459:	55                   	push   %rbp
    d45a:	48 89 e5             	mov    %rsp,%rbp
    d45d:	89 fa                	mov    %edi,%edx
    d45f:	89 f0                	mov    %esi,%eax
    d461:	66 89 55 fc          	mov    %dx,-0x4(%rbp)
    d465:	66 89 45 f8          	mov    %ax,-0x8(%rbp)
    d469:	66 83 7d f8 00       	cmpw   $0x0,-0x8(%rbp)
    d46e:	74 1c                	je     d48c <safe_div_func_int16_t_s_s+0x37>
    d470:	66 81 7d fc 00 80    	cmpw   $0x8000,-0x4(%rbp)
    d476:	75 07                	jne    d47f <safe_div_func_int16_t_s_s+0x2a>
    d478:	66 83 7d f8 ff       	cmpw   $0xffff,-0x8(%rbp)
    d47d:	74 0d                	je     d48c <safe_div_func_int16_t_s_s+0x37>
    d47f:	0f bf 45 fc          	movswl -0x4(%rbp),%eax
    d483:	0f bf 4d f8          	movswl -0x8(%rbp),%ecx
    d487:	99                   	cltd   
    d488:	f7 f9                	idiv   %ecx
    d48a:	eb 04                	jmp    d490 <safe_div_func_int16_t_s_s+0x3b>
    d48c:	0f b7 45 fc          	movzwl -0x4(%rbp),%eax
    d490:	5d                   	pop    %rbp
    d491:	c3                   	retq   

000000000000d492 <safe_lshift_func_int16_t_s_s>:
    d492:	f3 0f 1e fa          	endbr64 
    d496:	55                   	push   %rbp
    d497:	48 89 e5             	mov    %rsp,%rbp
    d49a:	89 f8                	mov    %edi,%eax
    d49c:	89 75 f8             	mov    %esi,-0x8(%rbp)
    d49f:	66 89 45 fc          	mov    %ax,-0x4(%rbp)
    d4a3:	66 83 7d fc 00       	cmpw   $0x0,-0x4(%rbp)
    d4a8:	78 31                	js     d4db <safe_lshift_func_int16_t_s_s+0x49>
    d4aa:	83 7d f8 00          	cmpl   $0x0,-0x8(%rbp)
    d4ae:	78 2b                	js     d4db <safe_lshift_func_int16_t_s_s+0x49>
    d4b0:	83 7d f8 1f          	cmpl   $0x1f,-0x8(%rbp)
    d4b4:	7f 25                	jg     d4db <safe_lshift_func_int16_t_s_s+0x49>
    d4b6:	0f bf 55 fc          	movswl -0x4(%rbp),%edx
    d4ba:	8b 45 f8             	mov    -0x8(%rbp),%eax
    d4bd:	be ff 7f 00 00       	mov    $0x7fff,%esi
    d4c2:	89 c1                	mov    %eax,%ecx
    d4c4:	d3 fe                	sar    %cl,%esi
    d4c6:	89 f0                	mov    %esi,%eax
    d4c8:	39 c2                	cmp    %eax,%edx
    d4ca:	7f 0f                	jg     d4db <safe_lshift_func_int16_t_s_s+0x49>
    d4cc:	0f bf 55 fc          	movswl -0x4(%rbp),%edx
    d4d0:	8b 45 f8             	mov    -0x8(%rbp),%eax
    d4d3:	89 c1                	mov    %eax,%ecx
    d4d5:	d3 e2                	shl    %cl,%edx
    d4d7:	89 d0                	mov    %edx,%eax
    d4d9:	eb 04                	jmp    d4df <safe_lshift_func_int16_t_s_s+0x4d>
    d4db:	0f b7 45 fc          	movzwl -0x4(%rbp),%eax
    d4df:	5d                   	pop    %rbp
    d4e0:	c3                   	retq   

000000000000d4e1 <safe_lshift_func_int16_t_s_u>:
    d4e1:	f3 0f 1e fa          	endbr64 
    d4e5:	55                   	push   %rbp
    d4e6:	48 89 e5             	mov    %rsp,%rbp
    d4e9:	89 f8                	mov    %edi,%eax
    d4eb:	89 75 f8             	mov    %esi,-0x8(%rbp)
    d4ee:	66 89 45 fc          	mov    %ax,-0x4(%rbp)
    d4f2:	66 83 7d fc 00       	cmpw   $0x0,-0x4(%rbp)
    d4f7:	78 2b                	js     d524 <safe_lshift_func_int16_t_s_u+0x43>
    d4f9:	83 7d f8 1f          	cmpl   $0x1f,-0x8(%rbp)
    d4fd:	77 25                	ja     d524 <safe_lshift_func_int16_t_s_u+0x43>
    d4ff:	0f bf 55 fc          	movswl -0x4(%rbp),%edx
    d503:	8b 45 f8             	mov    -0x8(%rbp),%eax
    d506:	be ff 7f 00 00       	mov    $0x7fff,%esi
    d50b:	89 c1                	mov    %eax,%ecx
    d50d:	d3 fe                	sar    %cl,%esi
    d50f:	89 f0                	mov    %esi,%eax
    d511:	39 c2                	cmp    %eax,%edx
    d513:	7f 0f                	jg     d524 <safe_lshift_func_int16_t_s_u+0x43>
    d515:	0f bf 55 fc          	movswl -0x4(%rbp),%edx
    d519:	8b 45 f8             	mov    -0x8(%rbp),%eax
    d51c:	89 c1                	mov    %eax,%ecx
    d51e:	d3 e2                	shl    %cl,%edx
    d520:	89 d0                	mov    %edx,%eax
    d522:	eb 04                	jmp    d528 <safe_lshift_func_int16_t_s_u+0x47>
    d524:	0f b7 45 fc          	movzwl -0x4(%rbp),%eax
    d528:	5d                   	pop    %rbp
    d529:	c3                   	retq   

000000000000d52a <safe_rshift_func_int16_t_s_s>:
    d52a:	f3 0f 1e fa          	endbr64 
    d52e:	55                   	push   %rbp
    d52f:	48 89 e5             	mov    %rsp,%rbp
    d532:	89 f8                	mov    %edi,%eax
    d534:	89 75 f8             	mov    %esi,-0x8(%rbp)
    d537:	66 89 45 fc          	mov    %ax,-0x4(%rbp)
    d53b:	66 83 7d fc 00       	cmpw   $0x0,-0x4(%rbp)
    d540:	78 1b                	js     d55d <safe_rshift_func_int16_t_s_s+0x33>
    d542:	83 7d f8 00          	cmpl   $0x0,-0x8(%rbp)
    d546:	78 15                	js     d55d <safe_rshift_func_int16_t_s_s+0x33>
    d548:	83 7d f8 1f          	cmpl   $0x1f,-0x8(%rbp)
    d54c:	7f 0f                	jg     d55d <safe_rshift_func_int16_t_s_s+0x33>
    d54e:	0f bf 55 fc          	movswl -0x4(%rbp),%edx
    d552:	8b 45 f8             	mov    -0x8(%rbp),%eax
    d555:	89 c1                	mov    %eax,%ecx
    d557:	d3 fa                	sar    %cl,%edx
    d559:	89 d0                	mov    %edx,%eax
    d55b:	eb 04                	jmp    d561 <safe_rshift_func_int16_t_s_s+0x37>
    d55d:	0f b7 45 fc          	movzwl -0x4(%rbp),%eax
    d561:	5d                   	pop    %rbp
    d562:	c3                   	retq   

000000000000d563 <safe_rshift_func_int16_t_s_u>:
    d563:	f3 0f 1e fa          	endbr64 
    d567:	55                   	push   %rbp
    d568:	48 89 e5             	mov    %rsp,%rbp
    d56b:	89 f8                	mov    %edi,%eax
    d56d:	89 75 f8             	mov    %esi,-0x8(%rbp)
    d570:	66 89 45 fc          	mov    %ax,-0x4(%rbp)
    d574:	66 83 7d fc 00       	cmpw   $0x0,-0x4(%rbp)
    d579:	78 15                	js     d590 <safe_rshift_func_int16_t_s_u+0x2d>
    d57b:	83 7d f8 1f          	cmpl   $0x1f,-0x8(%rbp)
    d57f:	77 0f                	ja     d590 <safe_rshift_func_int16_t_s_u+0x2d>
    d581:	0f bf 55 fc          	movswl -0x4(%rbp),%edx
    d585:	8b 45 f8             	mov    -0x8(%rbp),%eax
    d588:	89 c1                	mov    %eax,%ecx
    d58a:	d3 fa                	sar    %cl,%edx
    d58c:	89 d0                	mov    %edx,%eax
    d58e:	eb 04                	jmp    d594 <safe_rshift_func_int16_t_s_u+0x31>
    d590:	0f b7 45 fc          	movzwl -0x4(%rbp),%eax
    d594:	5d                   	pop    %rbp
    d595:	c3                   	retq   

000000000000d596 <safe_unary_minus_func_int32_t_s>:
    d596:	f3 0f 1e fa          	endbr64 
    d59a:	55                   	push   %rbp
    d59b:	48 89 e5             	mov    %rsp,%rbp
    d59e:	89 7d fc             	mov    %edi,-0x4(%rbp)
    d5a1:	81 7d fc 00 00 00 80 	cmpl   $0x80000000,-0x4(%rbp)
    d5a8:	74 07                	je     d5b1 <safe_unary_minus_func_int32_t_s+0x1b>
    d5aa:	8b 45 fc             	mov    -0x4(%rbp),%eax
    d5ad:	f7 d8                	neg    %eax
    d5af:	eb 03                	jmp    d5b4 <safe_unary_minus_func_int32_t_s+0x1e>
    d5b1:	8b 45 fc             	mov    -0x4(%rbp),%eax
    d5b4:	5d                   	pop    %rbp
    d5b5:	c3                   	retq   

000000000000d5b6 <safe_add_func_int32_t_s_s>:
    d5b6:	f3 0f 1e fa          	endbr64 
    d5ba:	55                   	push   %rbp
    d5bb:	48 89 e5             	mov    %rsp,%rbp
    d5be:	89 7d fc             	mov    %edi,-0x4(%rbp)
    d5c1:	89 75 f8             	mov    %esi,-0x8(%rbp)
    d5c4:	83 7d fc 00          	cmpl   $0x0,-0x4(%rbp)
    d5c8:	7e 13                	jle    d5dd <safe_add_func_int32_t_s_s+0x27>
    d5ca:	83 7d f8 00          	cmpl   $0x0,-0x8(%rbp)
    d5ce:	7e 0d                	jle    d5dd <safe_add_func_int32_t_s_s+0x27>
    d5d0:	b8 ff ff ff 7f       	mov    $0x7fffffff,%eax
    d5d5:	2b 45 f8             	sub    -0x8(%rbp),%eax
    d5d8:	39 45 fc             	cmp    %eax,-0x4(%rbp)
    d5db:	7f 23                	jg     d600 <safe_add_func_int32_t_s_s+0x4a>
    d5dd:	83 7d fc 00          	cmpl   $0x0,-0x4(%rbp)
    d5e1:	79 13                	jns    d5f6 <safe_add_func_int32_t_s_s+0x40>
    d5e3:	83 7d f8 00          	cmpl   $0x0,-0x8(%rbp)
    d5e7:	79 0d                	jns    d5f6 <safe_add_func_int32_t_s_s+0x40>
    d5e9:	b8 00 00 00 80       	mov    $0x80000000,%eax
    d5ee:	2b 45 f8             	sub    -0x8(%rbp),%eax
    d5f1:	39 45 fc             	cmp    %eax,-0x4(%rbp)
    d5f4:	7c 0a                	jl     d600 <safe_add_func_int32_t_s_s+0x4a>
    d5f6:	8b 55 fc             	mov    -0x4(%rbp),%edx
    d5f9:	8b 45 f8             	mov    -0x8(%rbp),%eax
    d5fc:	01 d0                	add    %edx,%eax
    d5fe:	eb 03                	jmp    d603 <safe_add_func_int32_t_s_s+0x4d>
    d600:	8b 45 fc             	mov    -0x4(%rbp),%eax
    d603:	5d                   	pop    %rbp
    d604:	c3                   	retq   

000000000000d605 <safe_sub_func_int32_t_s_s>:
    d605:	f3 0f 1e fa          	endbr64 
    d609:	55                   	push   %rbp
    d60a:	48 89 e5             	mov    %rsp,%rbp
    d60d:	89 7d fc             	mov    %edi,-0x4(%rbp)
    d610:	89 75 f8             	mov    %esi,-0x8(%rbp)
    d613:	8b 45 fc             	mov    -0x4(%rbp),%eax
    d616:	33 45 f8             	xor    -0x8(%rbp),%eax
    d619:	89 c2                	mov    %eax,%edx
    d61b:	8b 45 fc             	mov    -0x4(%rbp),%eax
    d61e:	33 45 f8             	xor    -0x8(%rbp),%eax
    d621:	25 00 00 00 80       	and    $0x80000000,%eax
    d626:	33 45 fc             	xor    -0x4(%rbp),%eax
    d629:	2b 45 f8             	sub    -0x8(%rbp),%eax
    d62c:	33 45 f8             	xor    -0x8(%rbp),%eax
    d62f:	21 d0                	and    %edx,%eax
    d631:	85 c0                	test   %eax,%eax
    d633:	78 08                	js     d63d <safe_sub_func_int32_t_s_s+0x38>
    d635:	8b 45 fc             	mov    -0x4(%rbp),%eax
    d638:	2b 45 f8             	sub    -0x8(%rbp),%eax
    d63b:	eb 03                	jmp    d640 <safe_sub_func_int32_t_s_s+0x3b>
    d63d:	8b 45 fc             	mov    -0x4(%rbp),%eax
    d640:	5d                   	pop    %rbp
    d641:	c3                   	retq   

000000000000d642 <safe_mul_func_int32_t_s_s>:
    d642:	f3 0f 1e fa          	endbr64 
    d646:	55                   	push   %rbp
    d647:	48 89 e5             	mov    %rsp,%rbp
    d64a:	89 7d fc             	mov    %edi,-0x4(%rbp)
    d64d:	89 75 f8             	mov    %esi,-0x8(%rbp)
    d650:	83 7d fc 00          	cmpl   $0x0,-0x4(%rbp)
    d654:	7e 14                	jle    d66a <safe_mul_func_int32_t_s_s+0x28>
    d656:	83 7d f8 00          	cmpl   $0x0,-0x8(%rbp)
    d65a:	7e 0e                	jle    d66a <safe_mul_func_int32_t_s_s+0x28>
    d65c:	b8 ff ff ff 7f       	mov    $0x7fffffff,%eax
    d661:	99                   	cltd   
    d662:	f7 7d f8             	idivl  -0x8(%rbp)
    d665:	39 45 fc             	cmp    %eax,-0x4(%rbp)
    d668:	7f 5d                	jg     d6c7 <safe_mul_func_int32_t_s_s+0x85>
    d66a:	83 7d fc 00          	cmpl   $0x0,-0x4(%rbp)
    d66e:	7e 14                	jle    d684 <safe_mul_func_int32_t_s_s+0x42>
    d670:	83 7d f8 00          	cmpl   $0x0,-0x8(%rbp)
    d674:	7f 0e                	jg     d684 <safe_mul_func_int32_t_s_s+0x42>
    d676:	b8 00 00 00 80       	mov    $0x80000000,%eax
    d67b:	99                   	cltd   
    d67c:	f7 7d fc             	idivl  -0x4(%rbp)
    d67f:	39 45 f8             	cmp    %eax,-0x8(%rbp)
    d682:	7c 43                	jl     d6c7 <safe_mul_func_int32_t_s_s+0x85>
    d684:	83 7d fc 00          	cmpl   $0x0,-0x4(%rbp)
    d688:	7f 14                	jg     d69e <safe_mul_func_int32_t_s_s+0x5c>
    d68a:	83 7d f8 00          	cmpl   $0x0,-0x8(%rbp)
    d68e:	7e 0e                	jle    d69e <safe_mul_func_int32_t_s_s+0x5c>
    d690:	b8 00 00 00 80       	mov    $0x80000000,%eax
    d695:	99                   	cltd   
    d696:	f7 7d f8             	idivl  -0x8(%rbp)
    d699:	39 45 fc             	cmp    %eax,-0x4(%rbp)
    d69c:	7c 29                	jl     d6c7 <safe_mul_func_int32_t_s_s+0x85>
    d69e:	83 7d fc 00          	cmpl   $0x0,-0x4(%rbp)
    d6a2:	7f 1a                	jg     d6be <safe_mul_func_int32_t_s_s+0x7c>
    d6a4:	83 7d f8 00          	cmpl   $0x0,-0x8(%rbp)
    d6a8:	7f 14                	jg     d6be <safe_mul_func_int32_t_s_s+0x7c>
    d6aa:	83 7d fc 00          	cmpl   $0x0,-0x4(%rbp)
    d6ae:	74 0e                	je     d6be <safe_mul_func_int32_t_s_s+0x7c>
    d6b0:	b8 ff ff ff 7f       	mov    $0x7fffffff,%eax
    d6b5:	99                   	cltd   
    d6b6:	f7 7d fc             	idivl  -0x4(%rbp)
    d6b9:	39 45 f8             	cmp    %eax,-0x8(%rbp)
    d6bc:	7c 09                	jl     d6c7 <safe_mul_func_int32_t_s_s+0x85>
    d6be:	8b 45 fc             	mov    -0x4(%rbp),%eax
    d6c1:	0f af 45 f8          	imul   -0x8(%rbp),%eax
    d6c5:	eb 03                	jmp    d6ca <safe_mul_func_int32_t_s_s+0x88>
    d6c7:	8b 45 fc             	mov    -0x4(%rbp),%eax
    d6ca:	5d                   	pop    %rbp
    d6cb:	c3                   	retq   

000000000000d6cc <safe_mod_func_int32_t_s_s>:
    d6cc:	f3 0f 1e fa          	endbr64 
    d6d0:	55                   	push   %rbp
    d6d1:	48 89 e5             	mov    %rsp,%rbp
    d6d4:	89 7d fc             	mov    %edi,-0x4(%rbp)
    d6d7:	89 75 f8             	mov    %esi,-0x8(%rbp)
    d6da:	83 7d f8 00          	cmpl   $0x0,-0x8(%rbp)
    d6de:	74 1a                	je     d6fa <safe_mod_func_int32_t_s_s+0x2e>
    d6e0:	81 7d fc 00 00 00 80 	cmpl   $0x80000000,-0x4(%rbp)
    d6e7:	75 06                	jne    d6ef <safe_mod_func_int32_t_s_s+0x23>
    d6e9:	83 7d f8 ff          	cmpl   $0xffffffff,-0x8(%rbp)
    d6ed:	74 0b                	je     d6fa <safe_mod_func_int32_t_s_s+0x2e>
    d6ef:	8b 45 fc             	mov    -0x4(%rbp),%eax
    d6f2:	99                   	cltd   
    d6f3:	f7 7d f8             	idivl  -0x8(%rbp)
    d6f6:	89 d0                	mov    %edx,%eax
    d6f8:	eb 03                	jmp    d6fd <safe_mod_func_int32_t_s_s+0x31>
    d6fa:	8b 45 fc             	mov    -0x4(%rbp),%eax
    d6fd:	5d                   	pop    %rbp
    d6fe:	c3                   	retq   

000000000000d6ff <safe_div_func_int32_t_s_s>:
    d6ff:	f3 0f 1e fa          	endbr64 
    d703:	55                   	push   %rbp
    d704:	48 89 e5             	mov    %rsp,%rbp
    d707:	89 7d fc             	mov    %edi,-0x4(%rbp)
    d70a:	89 75 f8             	mov    %esi,-0x8(%rbp)
    d70d:	83 7d f8 00          	cmpl   $0x0,-0x8(%rbp)
    d711:	74 18                	je     d72b <safe_div_func_int32_t_s_s+0x2c>
    d713:	81 7d fc 00 00 00 80 	cmpl   $0x80000000,-0x4(%rbp)
    d71a:	75 06                	jne    d722 <safe_div_func_int32_t_s_s+0x23>
    d71c:	83 7d f8 ff          	cmpl   $0xffffffff,-0x8(%rbp)
    d720:	74 09                	je     d72b <safe_div_func_int32_t_s_s+0x2c>
    d722:	8b 45 fc             	mov    -0x4(%rbp),%eax
    d725:	99                   	cltd   
    d726:	f7 7d f8             	idivl  -0x8(%rbp)
    d729:	eb 03                	jmp    d72e <safe_div_func_int32_t_s_s+0x2f>
    d72b:	8b 45 fc             	mov    -0x4(%rbp),%eax
    d72e:	5d                   	pop    %rbp
    d72f:	c3                   	retq   

000000000000d730 <safe_lshift_func_int32_t_s_s>:
    d730:	f3 0f 1e fa          	endbr64 
    d734:	55                   	push   %rbp
    d735:	48 89 e5             	mov    %rsp,%rbp
    d738:	89 7d fc             	mov    %edi,-0x4(%rbp)
    d73b:	89 75 f8             	mov    %esi,-0x8(%rbp)
    d73e:	83 7d fc 00          	cmpl   $0x0,-0x4(%rbp)
    d742:	78 2d                	js     d771 <safe_lshift_func_int32_t_s_s+0x41>
    d744:	83 7d f8 00          	cmpl   $0x0,-0x8(%rbp)
    d748:	78 27                	js     d771 <safe_lshift_func_int32_t_s_s+0x41>
    d74a:	83 7d f8 1f          	cmpl   $0x1f,-0x8(%rbp)
    d74e:	7f 21                	jg     d771 <safe_lshift_func_int32_t_s_s+0x41>
    d750:	8b 45 f8             	mov    -0x8(%rbp),%eax
    d753:	ba ff ff ff 7f       	mov    $0x7fffffff,%edx
    d758:	89 c1                	mov    %eax,%ecx
    d75a:	d3 fa                	sar    %cl,%edx
    d75c:	89 d0                	mov    %edx,%eax
    d75e:	39 45 fc             	cmp    %eax,-0x4(%rbp)
    d761:	7f 0e                	jg     d771 <safe_lshift_func_int32_t_s_s+0x41>
    d763:	8b 45 f8             	mov    -0x8(%rbp),%eax
    d766:	8b 55 fc             	mov    -0x4(%rbp),%edx
    d769:	89 c1                	mov    %eax,%ecx
    d76b:	d3 e2                	shl    %cl,%edx
    d76d:	89 d0                	mov    %edx,%eax
    d76f:	eb 03                	jmp    d774 <safe_lshift_func_int32_t_s_s+0x44>
    d771:	8b 45 fc             	mov    -0x4(%rbp),%eax
    d774:	5d                   	pop    %rbp
    d775:	c3                   	retq   

000000000000d776 <safe_lshift_func_int32_t_s_u>:
    d776:	f3 0f 1e fa          	endbr64 
    d77a:	55                   	push   %rbp
    d77b:	48 89 e5             	mov    %rsp,%rbp
    d77e:	89 7d fc             	mov    %edi,-0x4(%rbp)
    d781:	89 75 f8             	mov    %esi,-0x8(%rbp)
    d784:	83 7d fc 00          	cmpl   $0x0,-0x4(%rbp)
    d788:	78 27                	js     d7b1 <safe_lshift_func_int32_t_s_u+0x3b>
    d78a:	83 7d f8 1f          	cmpl   $0x1f,-0x8(%rbp)
    d78e:	77 21                	ja     d7b1 <safe_lshift_func_int32_t_s_u+0x3b>
    d790:	8b 45 f8             	mov    -0x8(%rbp),%eax
    d793:	ba ff ff ff 7f       	mov    $0x7fffffff,%edx
    d798:	89 c1                	mov    %eax,%ecx
    d79a:	d3 fa                	sar    %cl,%edx
    d79c:	89 d0                	mov    %edx,%eax
    d79e:	39 45 fc             	cmp    %eax,-0x4(%rbp)
    d7a1:	7f 0e                	jg     d7b1 <safe_lshift_func_int32_t_s_u+0x3b>
    d7a3:	8b 45 f8             	mov    -0x8(%rbp),%eax
    d7a6:	8b 55 fc             	mov    -0x4(%rbp),%edx
    d7a9:	89 c1                	mov    %eax,%ecx
    d7ab:	d3 e2                	shl    %cl,%edx
    d7ad:	89 d0                	mov    %edx,%eax
    d7af:	eb 03                	jmp    d7b4 <safe_lshift_func_int32_t_s_u+0x3e>
    d7b1:	8b 45 fc             	mov    -0x4(%rbp),%eax
    d7b4:	5d                   	pop    %rbp
    d7b5:	c3                   	retq   

000000000000d7b6 <safe_rshift_func_int32_t_s_s>:
    d7b6:	f3 0f 1e fa          	endbr64 
    d7ba:	55                   	push   %rbp
    d7bb:	48 89 e5             	mov    %rsp,%rbp
    d7be:	89 7d fc             	mov    %edi,-0x4(%rbp)
    d7c1:	89 75 f8             	mov    %esi,-0x8(%rbp)
    d7c4:	83 7d fc 00          	cmpl   $0x0,-0x4(%rbp)
    d7c8:	78 1a                	js     d7e4 <safe_rshift_func_int32_t_s_s+0x2e>
    d7ca:	83 7d f8 00          	cmpl   $0x0,-0x8(%rbp)
    d7ce:	78 14                	js     d7e4 <safe_rshift_func_int32_t_s_s+0x2e>
    d7d0:	83 7d f8 1f          	cmpl   $0x1f,-0x8(%rbp)
    d7d4:	7f 0e                	jg     d7e4 <safe_rshift_func_int32_t_s_s+0x2e>
    d7d6:	8b 45 f8             	mov    -0x8(%rbp),%eax
    d7d9:	8b 55 fc             	mov    -0x4(%rbp),%edx
    d7dc:	89 c1                	mov    %eax,%ecx
    d7de:	d3 fa                	sar    %cl,%edx
    d7e0:	89 d0                	mov    %edx,%eax
    d7e2:	eb 03                	jmp    d7e7 <safe_rshift_func_int32_t_s_s+0x31>
    d7e4:	8b 45 fc             	mov    -0x4(%rbp),%eax
    d7e7:	5d                   	pop    %rbp
    d7e8:	c3                   	retq   

000000000000d7e9 <safe_rshift_func_int32_t_s_u>:
    d7e9:	f3 0f 1e fa          	endbr64 
    d7ed:	55                   	push   %rbp
    d7ee:	48 89 e5             	mov    %rsp,%rbp
    d7f1:	89 7d fc             	mov    %edi,-0x4(%rbp)
    d7f4:	89 75 f8             	mov    %esi,-0x8(%rbp)
    d7f7:	83 7d fc 00          	cmpl   $0x0,-0x4(%rbp)
    d7fb:	78 14                	js     d811 <safe_rshift_func_int32_t_s_u+0x28>
    d7fd:	83 7d f8 1f          	cmpl   $0x1f,-0x8(%rbp)
    d801:	77 0e                	ja     d811 <safe_rshift_func_int32_t_s_u+0x28>
    d803:	8b 45 f8             	mov    -0x8(%rbp),%eax
    d806:	8b 55 fc             	mov    -0x4(%rbp),%edx
    d809:	89 c1                	mov    %eax,%ecx
    d80b:	d3 fa                	sar    %cl,%edx
    d80d:	89 d0                	mov    %edx,%eax
    d80f:	eb 03                	jmp    d814 <safe_rshift_func_int32_t_s_u+0x2b>
    d811:	8b 45 fc             	mov    -0x4(%rbp),%eax
    d814:	5d                   	pop    %rbp
    d815:	c3                   	retq   

000000000000d816 <safe_unary_minus_func_int64_t_s>:
    d816:	f3 0f 1e fa          	endbr64 
    d81a:	55                   	push   %rbp
    d81b:	48 89 e5             	mov    %rsp,%rbp
    d81e:	48 89 7d f8          	mov    %rdi,-0x8(%rbp)
    d822:	48 b8 00 00 00 00 00 	movabs $0x8000000000000000,%rax
    d829:	00 00 80 
    d82c:	48 39 45 f8          	cmp    %rax,-0x8(%rbp)
    d830:	74 09                	je     d83b <safe_unary_minus_func_int64_t_s+0x25>
    d832:	48 8b 45 f8          	mov    -0x8(%rbp),%rax
    d836:	48 f7 d8             	neg    %rax
    d839:	eb 04                	jmp    d83f <safe_unary_minus_func_int64_t_s+0x29>
    d83b:	48 8b 45 f8          	mov    -0x8(%rbp),%rax
    d83f:	5d                   	pop    %rbp
    d840:	c3                   	retq   

000000000000d841 <safe_add_func_int64_t_s_s>:
    d841:	f3 0f 1e fa          	endbr64 
    d845:	55                   	push   %rbp
    d846:	48 89 e5             	mov    %rsp,%rbp
    d849:	48 89 7d f8          	mov    %rdi,-0x8(%rbp)
    d84d:	48 89 75 f0          	mov    %rsi,-0x10(%rbp)
    d851:	48 83 7d f8 00       	cmpq   $0x0,-0x8(%rbp)
    d856:	7e 1b                	jle    d873 <safe_add_func_int64_t_s_s+0x32>
    d858:	48 83 7d f0 00       	cmpq   $0x0,-0x10(%rbp)
    d85d:	7e 14                	jle    d873 <safe_add_func_int64_t_s_s+0x32>
    d85f:	48 b8 ff ff ff ff ff 	movabs $0x7fffffffffffffff,%rax
    d866:	ff ff 7f 
    d869:	48 2b 45 f0          	sub    -0x10(%rbp),%rax
    d86d:	48 39 45 f8          	cmp    %rax,-0x8(%rbp)
    d871:	7f 2f                	jg     d8a2 <safe_add_func_int64_t_s_s+0x61>
    d873:	48 83 7d f8 00       	cmpq   $0x0,-0x8(%rbp)
    d878:	79 1b                	jns    d895 <safe_add_func_int64_t_s_s+0x54>
    d87a:	48 83 7d f0 00       	cmpq   $0x0,-0x10(%rbp)
    d87f:	79 14                	jns    d895 <safe_add_func_int64_t_s_s+0x54>
    d881:	48 b8 00 00 00 00 00 	movabs $0x8000000000000000,%rax
    d888:	00 00 80 
    d88b:	48 2b 45 f0          	sub    -0x10(%rbp),%rax
    d88f:	48 39 45 f8          	cmp    %rax,-0x8(%rbp)
    d893:	7c 0d                	jl     d8a2 <safe_add_func_int64_t_s_s+0x61>
    d895:	48 8b 55 f8          	mov    -0x8(%rbp),%rdx
    d899:	48 8b 45 f0          	mov    -0x10(%rbp),%rax
    d89d:	48 01 d0             	add    %rdx,%rax
    d8a0:	eb 04                	jmp    d8a6 <safe_add_func_int64_t_s_s+0x65>
    d8a2:	48 8b 45 f8          	mov    -0x8(%rbp),%rax
    d8a6:	5d                   	pop    %rbp
    d8a7:	c3                   	retq   

000000000000d8a8 <safe_sub_func_int64_t_s_s>:
    d8a8:	f3 0f 1e fa          	endbr64 
    d8ac:	55                   	push   %rbp
    d8ad:	48 89 e5             	mov    %rsp,%rbp
    d8b0:	48 89 7d f8          	mov    %rdi,-0x8(%rbp)
    d8b4:	48 89 75 f0          	mov    %rsi,-0x10(%rbp)
    d8b8:	48 8b 45 f8          	mov    -0x8(%rbp),%rax
    d8bc:	48 33 45 f0          	xor    -0x10(%rbp),%rax
    d8c0:	48 89 c2             	mov    %rax,%rdx
    d8c3:	48 8b 45 f8          	mov    -0x8(%rbp),%rax
    d8c7:	48 33 45 f0          	xor    -0x10(%rbp),%rax
    d8cb:	48 b9 00 00 00 00 00 	movabs $0x8000000000000000,%rcx
    d8d2:	00 00 80 
    d8d5:	48 21 c8             	and    %rcx,%rax
    d8d8:	48 33 45 f8          	xor    -0x8(%rbp),%rax
    d8dc:	48 2b 45 f0          	sub    -0x10(%rbp),%rax
    d8e0:	48 33 45 f0          	xor    -0x10(%rbp),%rax
    d8e4:	48 21 d0             	and    %rdx,%rax
    d8e7:	48 85 c0             	test   %rax,%rax
    d8ea:	78 0a                	js     d8f6 <safe_sub_func_int64_t_s_s+0x4e>
    d8ec:	48 8b 45 f8          	mov    -0x8(%rbp),%rax
    d8f0:	48 2b 45 f0          	sub    -0x10(%rbp),%rax
    d8f4:	eb 04                	jmp    d8fa <safe_sub_func_int64_t_s_s+0x52>
    d8f6:	48 8b 45 f8          	mov    -0x8(%rbp),%rax
    d8fa:	5d                   	pop    %rbp
    d8fb:	c3                   	retq   

000000000000d8fc <safe_mul_func_int64_t_s_s>:
    d8fc:	f3 0f 1e fa          	endbr64 
    d900:	55                   	push   %rbp
    d901:	48 89 e5             	mov    %rsp,%rbp
    d904:	48 89 7d f8          	mov    %rdi,-0x8(%rbp)
    d908:	48 89 75 f0          	mov    %rsi,-0x10(%rbp)
    d90c:	48 83 7d f8 00       	cmpq   $0x0,-0x8(%rbp)
    d911:	7e 1d                	jle    d930 <safe_mul_func_int64_t_s_s+0x34>
    d913:	48 83 7d f0 00       	cmpq   $0x0,-0x10(%rbp)
    d918:	7e 16                	jle    d930 <safe_mul_func_int64_t_s_s+0x34>
    d91a:	48 b8 ff ff ff ff ff 	movabs $0x7fffffffffffffff,%rax
    d921:	ff ff 7f 
    d924:	48 99                	cqto   
    d926:	48 f7 7d f0          	idivq  -0x10(%rbp)
    d92a:	48 39 45 f8          	cmp    %rax,-0x8(%rbp)
    d92e:	7f 7e                	jg     d9ae <safe_mul_func_int64_t_s_s+0xb2>
    d930:	48 83 7d f8 00       	cmpq   $0x0,-0x8(%rbp)
    d935:	7e 1d                	jle    d954 <safe_mul_func_int64_t_s_s+0x58>
    d937:	48 83 7d f0 00       	cmpq   $0x0,-0x10(%rbp)
    d93c:	7f 16                	jg     d954 <safe_mul_func_int64_t_s_s+0x58>
    d93e:	48 b8 00 00 00 00 00 	movabs $0x8000000000000000,%rax
    d945:	00 00 80 
    d948:	48 99                	cqto   
    d94a:	48 f7 7d f8          	idivq  -0x8(%rbp)
    d94e:	48 39 45 f0          	cmp    %rax,-0x10(%rbp)
    d952:	7c 5a                	jl     d9ae <safe_mul_func_int64_t_s_s+0xb2>
    d954:	48 83 7d f8 00       	cmpq   $0x0,-0x8(%rbp)
    d959:	7f 1d                	jg     d978 <safe_mul_func_int64_t_s_s+0x7c>
    d95b:	48 83 7d f0 00       	cmpq   $0x0,-0x10(%rbp)
    d960:	7e 16                	jle    d978 <safe_mul_func_int64_t_s_s+0x7c>
    d962:	48 b8 00 00 00 00 00 	movabs $0x8000000000000000,%rax
    d969:	00 00 80 
    d96c:	48 99                	cqto   
    d96e:	48 f7 7d f0          	idivq  -0x10(%rbp)
    d972:	48 39 45 f8          	cmp    %rax,-0x8(%rbp)
    d976:	7c 36                	jl     d9ae <safe_mul_func_int64_t_s_s+0xb2>
    d978:	48 83 7d f8 00       	cmpq   $0x0,-0x8(%rbp)
    d97d:	7f 24                	jg     d9a3 <safe_mul_func_int64_t_s_s+0xa7>
    d97f:	48 83 7d f0 00       	cmpq   $0x0,-0x10(%rbp)
    d984:	7f 1d                	jg     d9a3 <safe_mul_func_int64_t_s_s+0xa7>
    d986:	48 83 7d f8 00       	cmpq   $0x0,-0x8(%rbp)
    d98b:	74 16                	je     d9a3 <safe_mul_func_int64_t_s_s+0xa7>
    d98d:	48 b8 ff ff ff ff ff 	movabs $0x7fffffffffffffff,%rax
    d994:	ff ff 7f 
    d997:	48 99                	cqto   
    d999:	48 f7 7d f8          	idivq  -0x8(%rbp)
    d99d:	48 39 45 f0          	cmp    %rax,-0x10(%rbp)
    d9a1:	7c 0b                	jl     d9ae <safe_mul_func_int64_t_s_s+0xb2>
    d9a3:	48 8b 45 f8          	mov    -0x8(%rbp),%rax
    d9a7:	48 0f af 45 f0       	imul   -0x10(%rbp),%rax
    d9ac:	eb 04                	jmp    d9b2 <safe_mul_func_int64_t_s_s+0xb6>
    d9ae:	48 8b 45 f8          	mov    -0x8(%rbp),%rax
    d9b2:	5d                   	pop    %rbp
    d9b3:	c3                   	retq   

000000000000d9b4 <safe_mod_func_int64_t_s_s>:
    d9b4:	f3 0f 1e fa          	endbr64 
    d9b8:	55                   	push   %rbp
    d9b9:	48 89 e5             	mov    %rsp,%rbp
    d9bc:	48 89 7d f8          	mov    %rdi,-0x8(%rbp)
    d9c0:	48 89 75 f0          	mov    %rsi,-0x10(%rbp)
    d9c4:	48 83 7d f0 00       	cmpq   $0x0,-0x10(%rbp)
    d9c9:	74 26                	je     d9f1 <safe_mod_func_int64_t_s_s+0x3d>
    d9cb:	48 b8 00 00 00 00 00 	movabs $0x8000000000000000,%rax
    d9d2:	00 00 80 
    d9d5:	48 39 45 f8          	cmp    %rax,-0x8(%rbp)
    d9d9:	75 07                	jne    d9e2 <safe_mod_func_int64_t_s_s+0x2e>
    d9db:	48 83 7d f0 ff       	cmpq   $0xffffffffffffffff,-0x10(%rbp)
    d9e0:	74 0f                	je     d9f1 <safe_mod_func_int64_t_s_s+0x3d>
    d9e2:	48 8b 45 f8          	mov    -0x8(%rbp),%rax
    d9e6:	48 99                	cqto   
    d9e8:	48 f7 7d f0          	idivq  -0x10(%rbp)
    d9ec:	48 89 d0             	mov    %rdx,%rax
    d9ef:	eb 04                	jmp    d9f5 <safe_mod_func_int64_t_s_s+0x41>
    d9f1:	48 8b 45 f8          	mov    -0x8(%rbp),%rax
    d9f5:	5d                   	pop    %rbp
    d9f6:	c3                   	retq   

000000000000d9f7 <safe_div_func_int64_t_s_s>:
    d9f7:	f3 0f 1e fa          	endbr64 
    d9fb:	55                   	push   %rbp
    d9fc:	48 89 e5             	mov    %rsp,%rbp
    d9ff:	48 89 7d f8          	mov    %rdi,-0x8(%rbp)
    da03:	48 89 75 f0          	mov    %rsi,-0x10(%rbp)
    da07:	48 83 7d f0 00       	cmpq   $0x0,-0x10(%rbp)
    da0c:	74 23                	je     da31 <safe_div_func_int64_t_s_s+0x3a>
    da0e:	48 b8 00 00 00 00 00 	movabs $0x8000000000000000,%rax
    da15:	00 00 80 
    da18:	48 39 45 f8          	cmp    %rax,-0x8(%rbp)
    da1c:	75 07                	jne    da25 <safe_div_func_int64_t_s_s+0x2e>
    da1e:	48 83 7d f0 ff       	cmpq   $0xffffffffffffffff,-0x10(%rbp)
    da23:	74 0c                	je     da31 <safe_div_func_int64_t_s_s+0x3a>
    da25:	48 8b 45 f8          	mov    -0x8(%rbp),%rax
    da29:	48 99                	cqto   
    da2b:	48 f7 7d f0          	idivq  -0x10(%rbp)
    da2f:	eb 04                	jmp    da35 <safe_div_func_int64_t_s_s+0x3e>
    da31:	48 8b 45 f8          	mov    -0x8(%rbp),%rax
    da35:	5d                   	pop    %rbp
    da36:	c3                   	retq   

000000000000da37 <safe_lshift_func_int64_t_s_s>:
    da37:	f3 0f 1e fa          	endbr64 
    da3b:	55                   	push   %rbp
    da3c:	48 89 e5             	mov    %rsp,%rbp
    da3f:	48 89 7d f8          	mov    %rdi,-0x8(%rbp)
    da43:	89 75 f4             	mov    %esi,-0xc(%rbp)
    da46:	48 83 7d f8 00       	cmpq   $0x0,-0x8(%rbp)
    da4b:	78 38                	js     da85 <safe_lshift_func_int64_t_s_s+0x4e>
    da4d:	83 7d f4 00          	cmpl   $0x0,-0xc(%rbp)
    da51:	78 32                	js     da85 <safe_lshift_func_int64_t_s_s+0x4e>
    da53:	83 7d f4 1f          	cmpl   $0x1f,-0xc(%rbp)
    da57:	7f 2c                	jg     da85 <safe_lshift_func_int64_t_s_s+0x4e>
    da59:	8b 45 f4             	mov    -0xc(%rbp),%eax
    da5c:	48 ba ff ff ff ff ff 	movabs $0x7fffffffffffffff,%rdx
    da63:	ff ff 7f 
    da66:	89 c1                	mov    %eax,%ecx
    da68:	48 d3 fa             	sar    %cl,%rdx
    da6b:	48 89 d0             	mov    %rdx,%rax
    da6e:	48 39 45 f8          	cmp    %rax,-0x8(%rbp)
    da72:	7f 11                	jg     da85 <safe_lshift_func_int64_t_s_s+0x4e>
    da74:	8b 45 f4             	mov    -0xc(%rbp),%eax
    da77:	48 8b 55 f8          	mov    -0x8(%rbp),%rdx
    da7b:	89 c1                	mov    %eax,%ecx
    da7d:	48 d3 e2             	shl    %cl,%rdx
    da80:	48 89 d0             	mov    %rdx,%rax
    da83:	eb 04                	jmp    da89 <safe_lshift_func_int64_t_s_s+0x52>
    da85:	48 8b 45 f8          	mov    -0x8(%rbp),%rax
    da89:	5d                   	pop    %rbp
    da8a:	c3                   	retq   

000000000000da8b <safe_lshift_func_int64_t_s_u>:
    da8b:	f3 0f 1e fa          	endbr64 
    da8f:	55                   	push   %rbp
    da90:	48 89 e5             	mov    %rsp,%rbp
    da93:	48 89 7d f8          	mov    %rdi,-0x8(%rbp)
    da97:	89 75 f4             	mov    %esi,-0xc(%rbp)
    da9a:	48 83 7d f8 00       	cmpq   $0x0,-0x8(%rbp)
    da9f:	78 32                	js     dad3 <safe_lshift_func_int64_t_s_u+0x48>
    daa1:	83 7d f4 1f          	cmpl   $0x1f,-0xc(%rbp)
    daa5:	77 2c                	ja     dad3 <safe_lshift_func_int64_t_s_u+0x48>
    daa7:	8b 45 f4             	mov    -0xc(%rbp),%eax
    daaa:	48 ba ff ff ff ff ff 	movabs $0x7fffffffffffffff,%rdx
    dab1:	ff ff 7f 
    dab4:	89 c1                	mov    %eax,%ecx
    dab6:	48 d3 fa             	sar    %cl,%rdx
    dab9:	48 89 d0             	mov    %rdx,%rax
    dabc:	48 39 45 f8          	cmp    %rax,-0x8(%rbp)
    dac0:	7f 11                	jg     dad3 <safe_lshift_func_int64_t_s_u+0x48>
    dac2:	8b 45 f4             	mov    -0xc(%rbp),%eax
    dac5:	48 8b 55 f8          	mov    -0x8(%rbp),%rdx
    dac9:	89 c1                	mov    %eax,%ecx
    dacb:	48 d3 e2             	shl    %cl,%rdx
    dace:	48 89 d0             	mov    %rdx,%rax
    dad1:	eb 04                	jmp    dad7 <safe_lshift_func_int64_t_s_u+0x4c>
    dad3:	48 8b 45 f8          	mov    -0x8(%rbp),%rax
    dad7:	5d                   	pop    %rbp
    dad8:	c3                   	retq   

000000000000dad9 <safe_rshift_func_int64_t_s_s>:
    dad9:	f3 0f 1e fa          	endbr64 
    dadd:	55                   	push   %rbp
    dade:	48 89 e5             	mov    %rsp,%rbp
    dae1:	48 89 7d f8          	mov    %rdi,-0x8(%rbp)
    dae5:	89 75 f4             	mov    %esi,-0xc(%rbp)
    dae8:	48 83 7d f8 00       	cmpq   $0x0,-0x8(%rbp)
    daed:	78 1d                	js     db0c <safe_rshift_func_int64_t_s_s+0x33>
    daef:	83 7d f4 00          	cmpl   $0x0,-0xc(%rbp)
    daf3:	78 17                	js     db0c <safe_rshift_func_int64_t_s_s+0x33>
    daf5:	83 7d f4 1f          	cmpl   $0x1f,-0xc(%rbp)
    daf9:	7f 11                	jg     db0c <safe_rshift_func_int64_t_s_s+0x33>
    dafb:	8b 45 f4             	mov    -0xc(%rbp),%eax
    dafe:	48 8b 55 f8          	mov    -0x8(%rbp),%rdx
    db02:	89 c1                	mov    %eax,%ecx
    db04:	48 d3 fa             	sar    %cl,%rdx
    db07:	48 89 d0             	mov    %rdx,%rax
    db0a:	eb 04                	jmp    db10 <safe_rshift_func_int64_t_s_s+0x37>
    db0c:	48 8b 45 f8          	mov    -0x8(%rbp),%rax
    db10:	5d                   	pop    %rbp
    db11:	c3                   	retq   

000000000000db12 <safe_rshift_func_int64_t_s_u>:
    db12:	f3 0f 1e fa          	endbr64 
    db16:	55                   	push   %rbp
    db17:	48 89 e5             	mov    %rsp,%rbp
    db1a:	48 89 7d f8          	mov    %rdi,-0x8(%rbp)
    db1e:	89 75 f4             	mov    %esi,-0xc(%rbp)
    db21:	48 83 7d f8 00       	cmpq   $0x0,-0x8(%rbp)
    db26:	78 17                	js     db3f <safe_rshift_func_int64_t_s_u+0x2d>
    db28:	83 7d f4 1f          	cmpl   $0x1f,-0xc(%rbp)
    db2c:	77 11                	ja     db3f <safe_rshift_func_int64_t_s_u+0x2d>
    db2e:	8b 45 f4             	mov    -0xc(%rbp),%eax
    db31:	48 8b 55 f8          	mov    -0x8(%rbp),%rdx
    db35:	89 c1                	mov    %eax,%ecx
    db37:	48 d3 fa             	sar    %cl,%rdx
    db3a:	48 89 d0             	mov    %rdx,%rax
    db3d:	eb 04                	jmp    db43 <safe_rshift_func_int64_t_s_u+0x31>
    db3f:	48 8b 45 f8          	mov    -0x8(%rbp),%rax
    db43:	5d                   	pop    %rbp
    db44:	c3                   	retq   

000000000000db45 <safe_unary_minus_func_uint8_t_u>:
    db45:	f3 0f 1e fa          	endbr64 
    db49:	55                   	push   %rbp
    db4a:	48 89 e5             	mov    %rsp,%rbp
    db4d:	89 f8                	mov    %edi,%eax
    db4f:	88 45 fc             	mov    %al,-0x4(%rbp)
    db52:	0f b6 45 fc          	movzbl -0x4(%rbp),%eax
    db56:	f7 d8                	neg    %eax
    db58:	5d                   	pop    %rbp
    db59:	c3                   	retq   

000000000000db5a <safe_add_func_uint8_t_u_u>:
    db5a:	f3 0f 1e fa          	endbr64 
    db5e:	55                   	push   %rbp
    db5f:	48 89 e5             	mov    %rsp,%rbp
    db62:	89 fa                	mov    %edi,%edx
    db64:	89 f0                	mov    %esi,%eax
    db66:	88 55 fc             	mov    %dl,-0x4(%rbp)
    db69:	88 45 f8             	mov    %al,-0x8(%rbp)
    db6c:	0f b6 55 fc          	movzbl -0x4(%rbp),%edx
    db70:	0f b6 45 f8          	movzbl -0x8(%rbp),%eax
    db74:	01 d0                	add    %edx,%eax
    db76:	5d                   	pop    %rbp
    db77:	c3                   	retq   

000000000000db78 <safe_sub_func_uint8_t_u_u>:
    db78:	f3 0f 1e fa          	endbr64 
    db7c:	55                   	push   %rbp
    db7d:	48 89 e5             	mov    %rsp,%rbp
    db80:	89 fa                	mov    %edi,%edx
    db82:	89 f0                	mov    %esi,%eax
    db84:	88 55 fc             	mov    %dl,-0x4(%rbp)
    db87:	88 45 f8             	mov    %al,-0x8(%rbp)
    db8a:	0f b6 45 fc          	movzbl -0x4(%rbp),%eax
    db8e:	2a 45 f8             	sub    -0x8(%rbp),%al
    db91:	5d                   	pop    %rbp
    db92:	c3                   	retq   

000000000000db93 <safe_mul_func_uint8_t_u_u>:
    db93:	f3 0f 1e fa          	endbr64 
    db97:	55                   	push   %rbp
    db98:	48 89 e5             	mov    %rsp,%rbp
    db9b:	89 fa                	mov    %edi,%edx
    db9d:	89 f0                	mov    %esi,%eax
    db9f:	88 55 fc             	mov    %dl,-0x4(%rbp)
    dba2:	88 45 f8             	mov    %al,-0x8(%rbp)
    dba5:	0f b6 45 fc          	movzbl -0x4(%rbp),%eax
    dba9:	f6 65 f8             	mulb   -0x8(%rbp)
    dbac:	5d                   	pop    %rbp
    dbad:	c3                   	retq   

000000000000dbae <safe_mod_func_uint8_t_u_u>:
    dbae:	f3 0f 1e fa          	endbr64 
    dbb2:	55                   	push   %rbp
    dbb3:	48 89 e5             	mov    %rsp,%rbp
    dbb6:	89 fa                	mov    %edi,%edx
    dbb8:	89 f0                	mov    %esi,%eax
    dbba:	88 55 fc             	mov    %dl,-0x4(%rbp)
    dbbd:	88 45 f8             	mov    %al,-0x8(%rbp)
    dbc0:	80 7d f8 00          	cmpb   $0x0,-0x8(%rbp)
    dbc4:	74 0f                	je     dbd5 <safe_mod_func_uint8_t_u_u+0x27>
    dbc6:	0f b6 45 fc          	movzbl -0x4(%rbp),%eax
    dbca:	0f b6 c0             	movzbl %al,%eax
    dbcd:	f6 75 f8             	divb   -0x8(%rbp)
    dbd0:	0f b6 c4             	movzbl %ah,%eax
    dbd3:	eb 04                	jmp    dbd9 <safe_mod_func_uint8_t_u_u+0x2b>
    dbd5:	0f b6 45 fc          	movzbl -0x4(%rbp),%eax
    dbd9:	5d                   	pop    %rbp
    dbda:	c3                   	retq   

000000000000dbdb <safe_div_func_uint8_t_u_u>:
    dbdb:	f3 0f 1e fa          	endbr64 
    dbdf:	55                   	push   %rbp
    dbe0:	48 89 e5             	mov    %rsp,%rbp
    dbe3:	89 fa                	mov    %edi,%edx
    dbe5:	89 f0                	mov    %esi,%eax
    dbe7:	88 55 fc             	mov    %dl,-0x4(%rbp)
    dbea:	88 45 f8             	mov    %al,-0x8(%rbp)
    dbed:	80 7d f8 00          	cmpb   $0x0,-0x8(%rbp)
    dbf1:	74 0c                	je     dbff <safe_div_func_uint8_t_u_u+0x24>
    dbf3:	0f b6 45 fc          	movzbl -0x4(%rbp),%eax
    dbf7:	0f b6 c0             	movzbl %al,%eax
    dbfa:	f6 75 f8             	divb   -0x8(%rbp)
    dbfd:	eb 04                	jmp    dc03 <safe_div_func_uint8_t_u_u+0x28>
    dbff:	0f b6 45 fc          	movzbl -0x4(%rbp),%eax
    dc03:	5d                   	pop    %rbp
    dc04:	c3                   	retq   

000000000000dc05 <safe_lshift_func_uint8_t_u_s>:
    dc05:	f3 0f 1e fa          	endbr64 
    dc09:	55                   	push   %rbp
    dc0a:	48 89 e5             	mov    %rsp,%rbp
    dc0d:	89 f8                	mov    %edi,%eax
    dc0f:	89 75 f8             	mov    %esi,-0x8(%rbp)
    dc12:	88 45 fc             	mov    %al,-0x4(%rbp)
    dc15:	83 7d f8 00          	cmpl   $0x0,-0x8(%rbp)
    dc19:	78 2b                	js     dc46 <safe_lshift_func_uint8_t_u_s+0x41>
    dc1b:	83 7d f8 1f          	cmpl   $0x1f,-0x8(%rbp)
    dc1f:	7f 25                	jg     dc46 <safe_lshift_func_uint8_t_u_s+0x41>
    dc21:	0f b6 55 fc          	movzbl -0x4(%rbp),%edx
    dc25:	8b 45 f8             	mov    -0x8(%rbp),%eax
    dc28:	be ff 00 00 00       	mov    $0xff,%esi
    dc2d:	89 c1                	mov    %eax,%ecx
    dc2f:	d3 fe                	sar    %cl,%esi
    dc31:	89 f0                	mov    %esi,%eax
    dc33:	39 c2                	cmp    %eax,%edx
    dc35:	7f 0f                	jg     dc46 <safe_lshift_func_uint8_t_u_s+0x41>
    dc37:	0f b6 55 fc          	movzbl -0x4(%rbp),%edx
    dc3b:	8b 45 f8             	mov    -0x8(%rbp),%eax
    dc3e:	89 c1                	mov    %eax,%ecx
    dc40:	d3 e2                	shl    %cl,%edx
    dc42:	89 d0                	mov    %edx,%eax
    dc44:	eb 04                	jmp    dc4a <safe_lshift_func_uint8_t_u_s+0x45>
    dc46:	0f b6 45 fc          	movzbl -0x4(%rbp),%eax
    dc4a:	5d                   	pop    %rbp
    dc4b:	c3                   	retq   

000000000000dc4c <safe_lshift_func_uint8_t_u_u>:
    dc4c:	f3 0f 1e fa          	endbr64 
    dc50:	55                   	push   %rbp
    dc51:	48 89 e5             	mov    %rsp,%rbp
    dc54:	89 f8                	mov    %edi,%eax
    dc56:	89 75 f8             	mov    %esi,-0x8(%rbp)
    dc59:	88 45 fc             	mov    %al,-0x4(%rbp)
    dc5c:	83 7d f8 1f          	cmpl   $0x1f,-0x8(%rbp)
    dc60:	77 25                	ja     dc87 <safe_lshift_func_uint8_t_u_u+0x3b>
    dc62:	0f b6 55 fc          	movzbl -0x4(%rbp),%edx
    dc66:	8b 45 f8             	mov    -0x8(%rbp),%eax
    dc69:	be ff 00 00 00       	mov    $0xff,%esi
    dc6e:	89 c1                	mov    %eax,%ecx
    dc70:	d3 fe                	sar    %cl,%esi
    dc72:	89 f0                	mov    %esi,%eax
    dc74:	39 c2                	cmp    %eax,%edx
    dc76:	7f 0f                	jg     dc87 <safe_lshift_func_uint8_t_u_u+0x3b>
    dc78:	0f b6 55 fc          	movzbl -0x4(%rbp),%edx
    dc7c:	8b 45 f8             	mov    -0x8(%rbp),%eax
    dc7f:	89 c1                	mov    %eax,%ecx
    dc81:	d3 e2                	shl    %cl,%edx
    dc83:	89 d0                	mov    %edx,%eax
    dc85:	eb 04                	jmp    dc8b <safe_lshift_func_uint8_t_u_u+0x3f>
    dc87:	0f b6 45 fc          	movzbl -0x4(%rbp),%eax
    dc8b:	5d                   	pop    %rbp
    dc8c:	c3                   	retq   

000000000000dc8d <safe_rshift_func_uint8_t_u_s>:
    dc8d:	f3 0f 1e fa          	endbr64 
    dc91:	55                   	push   %rbp
    dc92:	48 89 e5             	mov    %rsp,%rbp
    dc95:	89 f8                	mov    %edi,%eax
    dc97:	89 75 f8             	mov    %esi,-0x8(%rbp)
    dc9a:	88 45 fc             	mov    %al,-0x4(%rbp)
    dc9d:	83 7d f8 00          	cmpl   $0x0,-0x8(%rbp)
    dca1:	78 15                	js     dcb8 <safe_rshift_func_uint8_t_u_s+0x2b>
    dca3:	83 7d f8 1f          	cmpl   $0x1f,-0x8(%rbp)
    dca7:	7f 0f                	jg     dcb8 <safe_rshift_func_uint8_t_u_s+0x2b>
    dca9:	0f b6 55 fc          	movzbl -0x4(%rbp),%edx
    dcad:	8b 45 f8             	mov    -0x8(%rbp),%eax
    dcb0:	89 c1                	mov    %eax,%ecx
    dcb2:	d3 fa                	sar    %cl,%edx
    dcb4:	89 d0                	mov    %edx,%eax
    dcb6:	eb 04                	jmp    dcbc <safe_rshift_func_uint8_t_u_s+0x2f>
    dcb8:	0f b6 45 fc          	movzbl -0x4(%rbp),%eax
    dcbc:	5d                   	pop    %rbp
    dcbd:	c3                   	retq   

000000000000dcbe <safe_rshift_func_uint8_t_u_u>:
    dcbe:	f3 0f 1e fa          	endbr64 
    dcc2:	55                   	push   %rbp
    dcc3:	48 89 e5             	mov    %rsp,%rbp
    dcc6:	89 f8                	mov    %edi,%eax
    dcc8:	89 75 f8             	mov    %esi,-0x8(%rbp)
    dccb:	88 45 fc             	mov    %al,-0x4(%rbp)
    dcce:	83 7d f8 1f          	cmpl   $0x1f,-0x8(%rbp)
    dcd2:	77 0f                	ja     dce3 <safe_rshift_func_uint8_t_u_u+0x25>
    dcd4:	0f b6 55 fc          	movzbl -0x4(%rbp),%edx
    dcd8:	8b 45 f8             	mov    -0x8(%rbp),%eax
    dcdb:	89 c1                	mov    %eax,%ecx
    dcdd:	d3 fa                	sar    %cl,%edx
    dcdf:	89 d0                	mov    %edx,%eax
    dce1:	eb 04                	jmp    dce7 <safe_rshift_func_uint8_t_u_u+0x29>
    dce3:	0f b6 45 fc          	movzbl -0x4(%rbp),%eax
    dce7:	5d                   	pop    %rbp
    dce8:	c3                   	retq   

000000000000dce9 <safe_unary_minus_func_uint16_t_u>:
    dce9:	f3 0f 1e fa          	endbr64 
    dced:	55                   	push   %rbp
    dcee:	48 89 e5             	mov    %rsp,%rbp
    dcf1:	89 f8                	mov    %edi,%eax
    dcf3:	66 89 45 fc          	mov    %ax,-0x4(%rbp)
    dcf7:	0f b7 45 fc          	movzwl -0x4(%rbp),%eax
    dcfb:	f7 d8                	neg    %eax
    dcfd:	5d                   	pop    %rbp
    dcfe:	c3                   	retq   

000000000000dcff <safe_add_func_uint16_t_u_u>:
    dcff:	f3 0f 1e fa          	endbr64 
    dd03:	55                   	push   %rbp
    dd04:	48 89 e5             	mov    %rsp,%rbp
    dd07:	89 fa                	mov    %edi,%edx
    dd09:	89 f0                	mov    %esi,%eax
    dd0b:	66 89 55 fc          	mov    %dx,-0x4(%rbp)
    dd0f:	66 89 45 f8          	mov    %ax,-0x8(%rbp)
    dd13:	0f b7 55 fc          	movzwl -0x4(%rbp),%edx
    dd17:	0f b7 45 f8          	movzwl -0x8(%rbp),%eax
    dd1b:	01 d0                	add    %edx,%eax
    dd1d:	5d                   	pop    %rbp
    dd1e:	c3                   	retq   

000000000000dd1f <safe_sub_func_uint16_t_u_u>:
    dd1f:	f3 0f 1e fa          	endbr64 
    dd23:	55                   	push   %rbp
    dd24:	48 89 e5             	mov    %rsp,%rbp
    dd27:	89 fa                	mov    %edi,%edx
    dd29:	89 f0                	mov    %esi,%eax
    dd2b:	66 89 55 fc          	mov    %dx,-0x4(%rbp)
    dd2f:	66 89 45 f8          	mov    %ax,-0x8(%rbp)
    dd33:	0f b7 45 fc          	movzwl -0x4(%rbp),%eax
    dd37:	66 2b 45 f8          	sub    -0x8(%rbp),%ax
    dd3b:	5d                   	pop    %rbp
    dd3c:	c3                   	retq   

000000000000dd3d <safe_mul_func_uint16_t_u_u>:
    dd3d:	f3 0f 1e fa          	endbr64 
    dd41:	55                   	push   %rbp
    dd42:	48 89 e5             	mov    %rsp,%rbp
    dd45:	89 fa                	mov    %edi,%edx
    dd47:	89 f0                	mov    %esi,%eax
    dd49:	66 89 55 fc          	mov    %dx,-0x4(%rbp)
    dd4d:	66 89 45 f8          	mov    %ax,-0x8(%rbp)
    dd51:	0f b7 45 fc          	movzwl -0x4(%rbp),%eax
    dd55:	66 0f af 45 f8       	imul   -0x8(%rbp),%ax
    dd5a:	5d                   	pop    %rbp
    dd5b:	c3                   	retq   

000000000000dd5c <safe_mod_func_uint16_t_u_u>:
    dd5c:	f3 0f 1e fa          	endbr64 
    dd60:	55                   	push   %rbp
    dd61:	48 89 e5             	mov    %rsp,%rbp
    dd64:	89 fa                	mov    %edi,%edx
    dd66:	89 f0                	mov    %esi,%eax
    dd68:	66 89 55 fc          	mov    %dx,-0x4(%rbp)
    dd6c:	66 89 45 f8          	mov    %ax,-0x8(%rbp)
    dd70:	66 83 7d f8 00       	cmpw   $0x0,-0x8(%rbp)
    dd75:	74 11                	je     dd88 <safe_mod_func_uint16_t_u_u+0x2c>
    dd77:	0f b7 45 fc          	movzwl -0x4(%rbp),%eax
    dd7b:	ba 00 00 00 00       	mov    $0x0,%edx
    dd80:	66 f7 75 f8          	divw   -0x8(%rbp)
    dd84:	89 d0                	mov    %edx,%eax
    dd86:	eb 04                	jmp    dd8c <safe_mod_func_uint16_t_u_u+0x30>
    dd88:	0f b7 45 fc          	movzwl -0x4(%rbp),%eax
    dd8c:	5d                   	pop    %rbp
    dd8d:	c3                   	retq   

000000000000dd8e <safe_div_func_uint16_t_u_u>:
    dd8e:	f3 0f 1e fa          	endbr64 
    dd92:	55                   	push   %rbp
    dd93:	48 89 e5             	mov    %rsp,%rbp
    dd96:	89 fa                	mov    %edi,%edx
    dd98:	89 f0                	mov    %esi,%eax
    dd9a:	66 89 55 fc          	mov    %dx,-0x4(%rbp)
    dd9e:	66 89 45 f8          	mov    %ax,-0x8(%rbp)
    dda2:	66 83 7d f8 00       	cmpw   $0x0,-0x8(%rbp)
    dda7:	74 0f                	je     ddb8 <safe_div_func_uint16_t_u_u+0x2a>
    dda9:	0f b7 45 fc          	movzwl -0x4(%rbp),%eax
    ddad:	ba 00 00 00 00       	mov    $0x0,%edx
    ddb2:	66 f7 75 f8          	divw   -0x8(%rbp)
    ddb6:	eb 04                	jmp    ddbc <safe_div_func_uint16_t_u_u+0x2e>
    ddb8:	0f b7 45 fc          	movzwl -0x4(%rbp),%eax
    ddbc:	5d                   	pop    %rbp
    ddbd:	c3                   	retq   

000000000000ddbe <safe_lshift_func_uint16_t_u_s>:
    ddbe:	f3 0f 1e fa          	endbr64 
    ddc2:	55                   	push   %rbp
    ddc3:	48 89 e5             	mov    %rsp,%rbp
    ddc6:	89 f8                	mov    %edi,%eax
    ddc8:	89 75 f8             	mov    %esi,-0x8(%rbp)
    ddcb:	66 89 45 fc          	mov    %ax,-0x4(%rbp)
    ddcf:	83 7d f8 00          	cmpl   $0x0,-0x8(%rbp)
    ddd3:	78 2b                	js     de00 <safe_lshift_func_uint16_t_u_s+0x42>
    ddd5:	83 7d f8 1f          	cmpl   $0x1f,-0x8(%rbp)
    ddd9:	7f 25                	jg     de00 <safe_lshift_func_uint16_t_u_s+0x42>
    dddb:	0f b7 55 fc          	movzwl -0x4(%rbp),%edx
    dddf:	8b 45 f8             	mov    -0x8(%rbp),%eax
    dde2:	be ff ff 00 00       	mov    $0xffff,%esi
    dde7:	89 c1                	mov    %eax,%ecx
    dde9:	d3 fe                	sar    %cl,%esi
    ddeb:	89 f0                	mov    %esi,%eax
    dded:	39 c2                	cmp    %eax,%edx
    ddef:	7f 0f                	jg     de00 <safe_lshift_func_uint16_t_u_s+0x42>
    ddf1:	0f b7 55 fc          	movzwl -0x4(%rbp),%edx
    ddf5:	8b 45 f8             	mov    -0x8(%rbp),%eax
    ddf8:	89 c1                	mov    %eax,%ecx
    ddfa:	d3 e2                	shl    %cl,%edx
    ddfc:	89 d0                	mov    %edx,%eax
    ddfe:	eb 04                	jmp    de04 <safe_lshift_func_uint16_t_u_s+0x46>
    de00:	0f b7 45 fc          	movzwl -0x4(%rbp),%eax
    de04:	5d                   	pop    %rbp
    de05:	c3                   	retq   

000000000000de06 <safe_lshift_func_uint16_t_u_u>:
    de06:	f3 0f 1e fa          	endbr64 
    de0a:	55                   	push   %rbp
    de0b:	48 89 e5             	mov    %rsp,%rbp
    de0e:	89 f8                	mov    %edi,%eax
    de10:	89 75 f8             	mov    %esi,-0x8(%rbp)
    de13:	66 89 45 fc          	mov    %ax,-0x4(%rbp)
    de17:	83 7d f8 1f          	cmpl   $0x1f,-0x8(%rbp)
    de1b:	77 25                	ja     de42 <safe_lshift_func_uint16_t_u_u+0x3c>
    de1d:	0f b7 55 fc          	movzwl -0x4(%rbp),%edx
    de21:	8b 45 f8             	mov    -0x8(%rbp),%eax
    de24:	be ff ff 00 00       	mov    $0xffff,%esi
    de29:	89 c1                	mov    %eax,%ecx
    de2b:	d3 fe                	sar    %cl,%esi
    de2d:	89 f0                	mov    %esi,%eax
    de2f:	39 c2                	cmp    %eax,%edx
    de31:	7f 0f                	jg     de42 <safe_lshift_func_uint16_t_u_u+0x3c>
    de33:	0f b7 55 fc          	movzwl -0x4(%rbp),%edx
    de37:	8b 45 f8             	mov    -0x8(%rbp),%eax
    de3a:	89 c1                	mov    %eax,%ecx
    de3c:	d3 e2                	shl    %cl,%edx
    de3e:	89 d0                	mov    %edx,%eax
    de40:	eb 04                	jmp    de46 <safe_lshift_func_uint16_t_u_u+0x40>
    de42:	0f b7 45 fc          	movzwl -0x4(%rbp),%eax
    de46:	5d                   	pop    %rbp
    de47:	c3                   	retq   

000000000000de48 <safe_rshift_func_uint16_t_u_s>:
    de48:	f3 0f 1e fa          	endbr64 
    de4c:	55                   	push   %rbp
    de4d:	48 89 e5             	mov    %rsp,%rbp
    de50:	89 f8                	mov    %edi,%eax
    de52:	89 75 f8             	mov    %esi,-0x8(%rbp)
    de55:	66 89 45 fc          	mov    %ax,-0x4(%rbp)
    de59:	83 7d f8 00          	cmpl   $0x0,-0x8(%rbp)
    de5d:	78 15                	js     de74 <safe_rshift_func_uint16_t_u_s+0x2c>
    de5f:	83 7d f8 1f          	cmpl   $0x1f,-0x8(%rbp)
    de63:	7f 0f                	jg     de74 <safe_rshift_func_uint16_t_u_s+0x2c>
    de65:	0f b7 55 fc          	movzwl -0x4(%rbp),%edx
    de69:	8b 45 f8             	mov    -0x8(%rbp),%eax
    de6c:	89 c1                	mov    %eax,%ecx
    de6e:	d3 fa                	sar    %cl,%edx
    de70:	89 d0                	mov    %edx,%eax
    de72:	eb 04                	jmp    de78 <safe_rshift_func_uint16_t_u_s+0x30>
    de74:	0f b7 45 fc          	movzwl -0x4(%rbp),%eax
    de78:	5d                   	pop    %rbp
    de79:	c3                   	retq   

000000000000de7a <safe_rshift_func_uint16_t_u_u>:
    de7a:	f3 0f 1e fa          	endbr64 
    de7e:	55                   	push   %rbp
    de7f:	48 89 e5             	mov    %rsp,%rbp
    de82:	89 f8                	mov    %edi,%eax
    de84:	89 75 f8             	mov    %esi,-0x8(%rbp)
    de87:	66 89 45 fc          	mov    %ax,-0x4(%rbp)
    de8b:	83 7d f8 1f          	cmpl   $0x1f,-0x8(%rbp)
    de8f:	77 0f                	ja     dea0 <safe_rshift_func_uint16_t_u_u+0x26>
    de91:	0f b7 55 fc          	movzwl -0x4(%rbp),%edx
    de95:	8b 45 f8             	mov    -0x8(%rbp),%eax
    de98:	89 c1                	mov    %eax,%ecx
    de9a:	d3 fa                	sar    %cl,%edx
    de9c:	89 d0                	mov    %edx,%eax
    de9e:	eb 04                	jmp    dea4 <safe_rshift_func_uint16_t_u_u+0x2a>
    dea0:	0f b7 45 fc          	movzwl -0x4(%rbp),%eax
    dea4:	5d                   	pop    %rbp
    dea5:	c3                   	retq   

000000000000dea6 <safe_unary_minus_func_uint32_t_u>:
    dea6:	f3 0f 1e fa          	endbr64 
    deaa:	55                   	push   %rbp
    deab:	48 89 e5             	mov    %rsp,%rbp
    deae:	89 7d fc             	mov    %edi,-0x4(%rbp)
    deb1:	8b 45 fc             	mov    -0x4(%rbp),%eax
    deb4:	f7 d8                	neg    %eax
    deb6:	5d                   	pop    %rbp
    deb7:	c3                   	retq   

000000000000deb8 <safe_add_func_uint32_t_u_u>:
    deb8:	f3 0f 1e fa          	endbr64 
    debc:	55                   	push   %rbp
    debd:	48 89 e5             	mov    %rsp,%rbp
    dec0:	89 7d fc             	mov    %edi,-0x4(%rbp)
    dec3:	89 75 f8             	mov    %esi,-0x8(%rbp)
    dec6:	8b 55 fc             	mov    -0x4(%rbp),%edx
    dec9:	8b 45 f8             	mov    -0x8(%rbp),%eax
    decc:	01 d0                	add    %edx,%eax
    dece:	5d                   	pop    %rbp
    decf:	c3                   	retq   

000000000000ded0 <safe_sub_func_uint32_t_u_u>:
    ded0:	f3 0f 1e fa          	endbr64 
    ded4:	55                   	push   %rbp
    ded5:	48 89 e5             	mov    %rsp,%rbp
    ded8:	89 7d fc             	mov    %edi,-0x4(%rbp)
    dedb:	89 75 f8             	mov    %esi,-0x8(%rbp)
    dede:	8b 45 fc             	mov    -0x4(%rbp),%eax
    dee1:	2b 45 f8             	sub    -0x8(%rbp),%eax
    dee4:	5d                   	pop    %rbp
    dee5:	c3                   	retq   

000000000000dee6 <safe_mul_func_uint32_t_u_u>:
    dee6:	f3 0f 1e fa          	endbr64 
    deea:	55                   	push   %rbp
    deeb:	48 89 e5             	mov    %rsp,%rbp
    deee:	89 7d fc             	mov    %edi,-0x4(%rbp)
    def1:	89 75 f8             	mov    %esi,-0x8(%rbp)
    def4:	8b 45 fc             	mov    -0x4(%rbp),%eax
    def7:	0f af 45 f8          	imul   -0x8(%rbp),%eax
    defb:	5d                   	pop    %rbp
    defc:	c3                   	retq   

000000000000defd <safe_mod_func_uint32_t_u_u>:
    defd:	f3 0f 1e fa          	endbr64 
    df01:	55                   	push   %rbp
    df02:	48 89 e5             	mov    %rsp,%rbp
    df05:	89 7d fc             	mov    %edi,-0x4(%rbp)
    df08:	89 75 f8             	mov    %esi,-0x8(%rbp)
    df0b:	83 7d f8 00          	cmpl   $0x0,-0x8(%rbp)
    df0f:	74 0f                	je     df20 <safe_mod_func_uint32_t_u_u+0x23>
    df11:	8b 45 fc             	mov    -0x4(%rbp),%eax
    df14:	ba 00 00 00 00       	mov    $0x0,%edx
    df19:	f7 75 f8             	divl   -0x8(%rbp)
    df1c:	89 d0                	mov    %edx,%eax
    df1e:	eb 03                	jmp    df23 <safe_mod_func_uint32_t_u_u+0x26>
    df20:	8b 45 fc             	mov    -0x4(%rbp),%eax
    df23:	5d                   	pop    %rbp
    df24:	c3                   	retq   

000000000000df25 <safe_div_func_uint32_t_u_u>:
    df25:	f3 0f 1e fa          	endbr64 
    df29:	55                   	push   %rbp
    df2a:	48 89 e5             	mov    %rsp,%rbp
    df2d:	89 7d fc             	mov    %edi,-0x4(%rbp)
    df30:	89 75 f8             	mov    %esi,-0x8(%rbp)
    df33:	83 7d f8 00          	cmpl   $0x0,-0x8(%rbp)
    df37:	74 0d                	je     df46 <safe_div_func_uint32_t_u_u+0x21>
    df39:	8b 45 fc             	mov    -0x4(%rbp),%eax
    df3c:	ba 00 00 00 00       	mov    $0x0,%edx
    df41:	f7 75 f8             	divl   -0x8(%rbp)
    df44:	eb 03                	jmp    df49 <safe_div_func_uint32_t_u_u+0x24>
    df46:	8b 45 fc             	mov    -0x4(%rbp),%eax
    df49:	5d                   	pop    %rbp
    df4a:	c3                   	retq   

000000000000df4b <safe_lshift_func_uint32_t_u_s>:
    df4b:	f3 0f 1e fa          	endbr64 
    df4f:	55                   	push   %rbp
    df50:	48 89 e5             	mov    %rsp,%rbp
    df53:	89 7d fc             	mov    %edi,-0x4(%rbp)
    df56:	89 75 f8             	mov    %esi,-0x8(%rbp)
    df59:	83 7d f8 00          	cmpl   $0x0,-0x8(%rbp)
    df5d:	78 27                	js     df86 <safe_lshift_func_uint32_t_u_s+0x3b>
    df5f:	83 7d f8 1f          	cmpl   $0x1f,-0x8(%rbp)
    df63:	7f 21                	jg     df86 <safe_lshift_func_uint32_t_u_s+0x3b>
    df65:	8b 45 f8             	mov    -0x8(%rbp),%eax
    df68:	ba ff ff ff ff       	mov    $0xffffffff,%edx
    df6d:	89 c1                	mov    %eax,%ecx
    df6f:	d3 ea                	shr    %cl,%edx
    df71:	89 d0                	mov    %edx,%eax
    df73:	39 45 fc             	cmp    %eax,-0x4(%rbp)
    df76:	77 0e                	ja     df86 <safe_lshift_func_uint32_t_u_s+0x3b>
    df78:	8b 45 f8             	mov    -0x8(%rbp),%eax
    df7b:	8b 55 fc             	mov    -0x4(%rbp),%edx
    df7e:	89 c1                	mov    %eax,%ecx
    df80:	d3 e2                	shl    %cl,%edx
    df82:	89 d0                	mov    %edx,%eax
    df84:	eb 03                	jmp    df89 <safe_lshift_func_uint32_t_u_s+0x3e>
    df86:	8b 45 fc             	mov    -0x4(%rbp),%eax
    df89:	5d                   	pop    %rbp
    df8a:	c3                   	retq   

000000000000df8b <safe_lshift_func_uint32_t_u_u>:
    df8b:	f3 0f 1e fa          	endbr64 
    df8f:	55                   	push   %rbp
    df90:	48 89 e5             	mov    %rsp,%rbp
    df93:	89 7d fc             	mov    %edi,-0x4(%rbp)
    df96:	89 75 f8             	mov    %esi,-0x8(%rbp)
    df99:	83 7d f8 1f          	cmpl   $0x1f,-0x8(%rbp)
    df9d:	77 21                	ja     dfc0 <safe_lshift_func_uint32_t_u_u+0x35>
    df9f:	8b 45 f8             	mov    -0x8(%rbp),%eax
    dfa2:	ba ff ff ff ff       	mov    $0xffffffff,%edx
    dfa7:	89 c1                	mov    %eax,%ecx
    dfa9:	d3 ea                	shr    %cl,%edx
    dfab:	89 d0                	mov    %edx,%eax
    dfad:	39 45 fc             	cmp    %eax,-0x4(%rbp)
    dfb0:	77 0e                	ja     dfc0 <safe_lshift_func_uint32_t_u_u+0x35>
    dfb2:	8b 45 f8             	mov    -0x8(%rbp),%eax
    dfb5:	8b 55 fc             	mov    -0x4(%rbp),%edx
    dfb8:	89 c1                	mov    %eax,%ecx
    dfba:	d3 e2                	shl    %cl,%edx
    dfbc:	89 d0                	mov    %edx,%eax
    dfbe:	eb 03                	jmp    dfc3 <safe_lshift_func_uint32_t_u_u+0x38>
    dfc0:	8b 45 fc             	mov    -0x4(%rbp),%eax
    dfc3:	5d                   	pop    %rbp
    dfc4:	c3                   	retq   

000000000000dfc5 <safe_rshift_func_uint32_t_u_s>:
    dfc5:	f3 0f 1e fa          	endbr64 
    dfc9:	55                   	push   %rbp
    dfca:	48 89 e5             	mov    %rsp,%rbp
    dfcd:	89 7d fc             	mov    %edi,-0x4(%rbp)
    dfd0:	89 75 f8             	mov    %esi,-0x8(%rbp)
    dfd3:	83 7d f8 00          	cmpl   $0x0,-0x8(%rbp)
    dfd7:	78 14                	js     dfed <safe_rshift_func_uint32_t_u_s+0x28>
    dfd9:	83 7d f8 1f          	cmpl   $0x1f,-0x8(%rbp)
    dfdd:	7f 0e                	jg     dfed <safe_rshift_func_uint32_t_u_s+0x28>
    dfdf:	8b 45 f8             	mov    -0x8(%rbp),%eax
    dfe2:	8b 55 fc             	mov    -0x4(%rbp),%edx
    dfe5:	89 c1                	mov    %eax,%ecx
    dfe7:	d3 ea                	shr    %cl,%edx
    dfe9:	89 d0                	mov    %edx,%eax
    dfeb:	eb 03                	jmp    dff0 <safe_rshift_func_uint32_t_u_s+0x2b>
    dfed:	8b 45 fc             	mov    -0x4(%rbp),%eax
    dff0:	5d                   	pop    %rbp
    dff1:	c3                   	retq   

000000000000dff2 <safe_rshift_func_uint32_t_u_u>:
    dff2:	f3 0f 1e fa          	endbr64 
    dff6:	55                   	push   %rbp
    dff7:	48 89 e5             	mov    %rsp,%rbp
    dffa:	89 7d fc             	mov    %edi,-0x4(%rbp)
    dffd:	89 75 f8             	mov    %esi,-0x8(%rbp)
    e000:	83 7d f8 1f          	cmpl   $0x1f,-0x8(%rbp)
    e004:	77 0e                	ja     e014 <safe_rshift_func_uint32_t_u_u+0x22>
    e006:	8b 45 f8             	mov    -0x8(%rbp),%eax
    e009:	8b 55 fc             	mov    -0x4(%rbp),%edx
    e00c:	89 c1                	mov    %eax,%ecx
    e00e:	d3 ea                	shr    %cl,%edx
    e010:	89 d0                	mov    %edx,%eax
    e012:	eb 03                	jmp    e017 <safe_rshift_func_uint32_t_u_u+0x25>
    e014:	8b 45 fc             	mov    -0x4(%rbp),%eax
    e017:	5d                   	pop    %rbp
    e018:	c3                   	retq   

000000000000e019 <safe_unary_minus_func_uint64_t_u>:
    e019:	f3 0f 1e fa          	endbr64 
    e01d:	55                   	push   %rbp
    e01e:	48 89 e5             	mov    %rsp,%rbp
    e021:	48 89 7d f8          	mov    %rdi,-0x8(%rbp)
    e025:	48 8b 45 f8          	mov    -0x8(%rbp),%rax
    e029:	48 f7 d8             	neg    %rax
    e02c:	5d                   	pop    %rbp
    e02d:	c3                   	retq   

000000000000e02e <safe_add_func_uint64_t_u_u>:
    e02e:	f3 0f 1e fa          	endbr64 
    e032:	55                   	push   %rbp
    e033:	48 89 e5             	mov    %rsp,%rbp
    e036:	48 89 7d f8          	mov    %rdi,-0x8(%rbp)
    e03a:	48 89 75 f0          	mov    %rsi,-0x10(%rbp)
    e03e:	48 8b 55 f8          	mov    -0x8(%rbp),%rdx
    e042:	48 8b 45 f0          	mov    -0x10(%rbp),%rax
    e046:	48 01 d0             	add    %rdx,%rax
    e049:	5d                   	pop    %rbp
    e04a:	c3                   	retq   

000000000000e04b <safe_sub_func_uint64_t_u_u>:
    e04b:	f3 0f 1e fa          	endbr64 
    e04f:	55                   	push   %rbp
    e050:	48 89 e5             	mov    %rsp,%rbp
    e053:	48 89 7d f8          	mov    %rdi,-0x8(%rbp)
    e057:	48 89 75 f0          	mov    %rsi,-0x10(%rbp)
    e05b:	48 8b 45 f8          	mov    -0x8(%rbp),%rax
    e05f:	48 2b 45 f0          	sub    -0x10(%rbp),%rax
    e063:	5d                   	pop    %rbp
    e064:	c3                   	retq   

000000000000e065 <safe_mul_func_uint64_t_u_u>:
    e065:	f3 0f 1e fa          	endbr64 
    e069:	55                   	push   %rbp
    e06a:	48 89 e5             	mov    %rsp,%rbp
    e06d:	48 89 7d f8          	mov    %rdi,-0x8(%rbp)
    e071:	48 89 75 f0          	mov    %rsi,-0x10(%rbp)
    e075:	48 8b 45 f8          	mov    -0x8(%rbp),%rax
    e079:	48 0f af 45 f0       	imul   -0x10(%rbp),%rax
    e07e:	5d                   	pop    %rbp
    e07f:	c3                   	retq   

000000000000e080 <safe_mod_func_uint64_t_u_u>:
    e080:	f3 0f 1e fa          	endbr64 
    e084:	55                   	push   %rbp
    e085:	48 89 e5             	mov    %rsp,%rbp
    e088:	48 89 7d f8          	mov    %rdi,-0x8(%rbp)
    e08c:	48 89 75 f0          	mov    %rsi,-0x10(%rbp)
    e090:	48 83 7d f0 00       	cmpq   $0x0,-0x10(%rbp)
    e095:	74 12                	je     e0a9 <safe_mod_func_uint64_t_u_u+0x29>
    e097:	48 8b 45 f8          	mov    -0x8(%rbp),%rax
    e09b:	ba 00 00 00 00       	mov    $0x0,%edx
    e0a0:	48 f7 75 f0          	divq   -0x10(%rbp)
    e0a4:	48 89 d0             	mov    %rdx,%rax
    e0a7:	eb 04                	jmp    e0ad <safe_mod_func_uint64_t_u_u+0x2d>
    e0a9:	48 8b 45 f8          	mov    -0x8(%rbp),%rax
    e0ad:	5d                   	pop    %rbp
    e0ae:	c3                   	retq   

000000000000e0af <safe_div_func_uint64_t_u_u>:
    e0af:	f3 0f 1e fa          	endbr64 
    e0b3:	55                   	push   %rbp
    e0b4:	48 89 e5             	mov    %rsp,%rbp
    e0b7:	48 89 7d f8          	mov    %rdi,-0x8(%rbp)
    e0bb:	48 89 75 f0          	mov    %rsi,-0x10(%rbp)
    e0bf:	48 83 7d f0 00       	cmpq   $0x0,-0x10(%rbp)
    e0c4:	74 0f                	je     e0d5 <safe_div_func_uint64_t_u_u+0x26>
    e0c6:	48 8b 45 f8          	mov    -0x8(%rbp),%rax
    e0ca:	ba 00 00 00 00       	mov    $0x0,%edx
    e0cf:	48 f7 75 f0          	divq   -0x10(%rbp)
    e0d3:	eb 04                	jmp    e0d9 <safe_div_func_uint64_t_u_u+0x2a>
    e0d5:	48 8b 45 f8          	mov    -0x8(%rbp),%rax
    e0d9:	5d                   	pop    %rbp
    e0da:	c3                   	retq   

000000000000e0db <safe_lshift_func_uint64_t_u_s>:
    e0db:	f3 0f 1e fa          	endbr64 
    e0df:	55                   	push   %rbp
    e0e0:	48 89 e5             	mov    %rsp,%rbp
    e0e3:	48 89 7d f8          	mov    %rdi,-0x8(%rbp)
    e0e7:	89 75 f4             	mov    %esi,-0xc(%rbp)
    e0ea:	83 7d f4 00          	cmpl   $0x0,-0xc(%rbp)
    e0ee:	78 2f                	js     e11f <safe_lshift_func_uint64_t_u_s+0x44>
    e0f0:	83 7d f4 1f          	cmpl   $0x1f,-0xc(%rbp)
    e0f4:	7f 29                	jg     e11f <safe_lshift_func_uint64_t_u_s+0x44>
    e0f6:	8b 45 f4             	mov    -0xc(%rbp),%eax
    e0f9:	48 c7 c2 ff ff ff ff 	mov    $0xffffffffffffffff,%rdx
    e100:	89 c1                	mov    %eax,%ecx
    e102:	48 d3 ea             	shr    %cl,%rdx
    e105:	48 89 d0             	mov    %rdx,%rax
    e108:	48 39 45 f8          	cmp    %rax,-0x8(%rbp)
    e10c:	77 11                	ja     e11f <safe_lshift_func_uint64_t_u_s+0x44>
    e10e:	8b 45 f4             	mov    -0xc(%rbp),%eax
    e111:	48 8b 55 f8          	mov    -0x8(%rbp),%rdx
    e115:	89 c1                	mov    %eax,%ecx
    e117:	48 d3 e2             	shl    %cl,%rdx
    e11a:	48 89 d0             	mov    %rdx,%rax
    e11d:	eb 04                	jmp    e123 <safe_lshift_func_uint64_t_u_s+0x48>
    e11f:	48 8b 45 f8          	mov    -0x8(%rbp),%rax
    e123:	5d                   	pop    %rbp
    e124:	c3                   	retq   

000000000000e125 <safe_lshift_func_uint64_t_u_u>:
    e125:	f3 0f 1e fa          	endbr64 
    e129:	55                   	push   %rbp
    e12a:	48 89 e5             	mov    %rsp,%rbp
    e12d:	48 89 7d f8          	mov    %rdi,-0x8(%rbp)
    e131:	89 75 f4             	mov    %esi,-0xc(%rbp)
    e134:	83 7d f4 1f          	cmpl   $0x1f,-0xc(%rbp)
    e138:	77 29                	ja     e163 <safe_lshift_func_uint64_t_u_u+0x3e>
    e13a:	8b 45 f4             	mov    -0xc(%rbp),%eax
    e13d:	48 c7 c2 ff ff ff ff 	mov    $0xffffffffffffffff,%rdx
    e144:	89 c1                	mov    %eax,%ecx
    e146:	48 d3 ea             	shr    %cl,%rdx
    e149:	48 89 d0             	mov    %rdx,%rax
    e14c:	48 39 45 f8          	cmp    %rax,-0x8(%rbp)
    e150:	77 11                	ja     e163 <safe_lshift_func_uint64_t_u_u+0x3e>
    e152:	8b 45 f4             	mov    -0xc(%rbp),%eax
    e155:	48 8b 55 f8          	mov    -0x8(%rbp),%rdx
    e159:	89 c1                	mov    %eax,%ecx
    e15b:	48 d3 e2             	shl    %cl,%rdx
    e15e:	48 89 d0             	mov    %rdx,%rax
    e161:	eb 04                	jmp    e167 <safe_lshift_func_uint64_t_u_u+0x42>
    e163:	48 8b 45 f8          	mov    -0x8(%rbp),%rax
    e167:	5d                   	pop    %rbp
    e168:	c3                   	retq   

000000000000e169 <safe_rshift_func_uint64_t_u_s>:
    e169:	f3 0f 1e fa          	endbr64 
    e16d:	55                   	push   %rbp
    e16e:	48 89 e5             	mov    %rsp,%rbp
    e171:	48 89 7d f8          	mov    %rdi,-0x8(%rbp)
    e175:	89 75 f4             	mov    %esi,-0xc(%rbp)
    e178:	83 7d f4 00          	cmpl   $0x0,-0xc(%rbp)
    e17c:	78 17                	js     e195 <safe_rshift_func_uint64_t_u_s+0x2c>
    e17e:	83 7d f4 1f          	cmpl   $0x1f,-0xc(%rbp)
    e182:	7f 11                	jg     e195 <safe_rshift_func_uint64_t_u_s+0x2c>
    e184:	8b 45 f4             	mov    -0xc(%rbp),%eax
    e187:	48 8b 55 f8          	mov    -0x8(%rbp),%rdx
    e18b:	89 c1                	mov    %eax,%ecx
    e18d:	48 d3 ea             	shr    %cl,%rdx
    e190:	48 89 d0             	mov    %rdx,%rax
    e193:	eb 04                	jmp    e199 <safe_rshift_func_uint64_t_u_s+0x30>
    e195:	48 8b 45 f8          	mov    -0x8(%rbp),%rax
    e199:	5d                   	pop    %rbp
    e19a:	c3                   	retq   

000000000000e19b <safe_rshift_func_uint64_t_u_u>:
    e19b:	f3 0f 1e fa          	endbr64 
    e19f:	55                   	push   %rbp
    e1a0:	48 89 e5             	mov    %rsp,%rbp
    e1a3:	48 89 7d f8          	mov    %rdi,-0x8(%rbp)
    e1a7:	89 75 f4             	mov    %esi,-0xc(%rbp)
    e1aa:	83 7d f4 1f          	cmpl   $0x1f,-0xc(%rbp)
    e1ae:	77 11                	ja     e1c1 <safe_rshift_func_uint64_t_u_u+0x26>
    e1b0:	8b 45 f4             	mov    -0xc(%rbp),%eax
    e1b3:	48 8b 55 f8          	mov    -0x8(%rbp),%rdx
    e1b7:	89 c1                	mov    %eax,%ecx
    e1b9:	48 d3 ea             	shr    %cl,%rdx
    e1bc:	48 89 d0             	mov    %rdx,%rax
    e1bf:	eb 04                	jmp    e1c5 <safe_rshift_func_uint64_t_u_u+0x2a>
    e1c1:	48 8b 45 f8          	mov    -0x8(%rbp),%rax
    e1c5:	5d                   	pop    %rbp
    e1c6:	c3                   	retq   

000000000000e1c7 <safe_add_func_float_f_f>:
    e1c7:	f3 0f 1e fa          	endbr64 
    e1cb:	55                   	push   %rbp
    e1cc:	48 89 e5             	mov    %rsp,%rbp
    e1cf:	f3 0f 11 45 fc       	movss  %xmm0,-0x4(%rbp)
    e1d4:	f3 0f 11 4d f8       	movss  %xmm1,-0x8(%rbp)
    e1d9:	f3 0f 10 4d fc       	movss  -0x4(%rbp),%xmm1
    e1de:	f3 0f 10 05 62 43 01 	movss  0x14362(%rip),%xmm0        # 22548 <l_1503.4554+0x28>
    e1e5:	00 
    e1e6:	f3 0f 59 c8          	mulss  %xmm0,%xmm1
    e1ea:	f3 0f 10 55 f8       	movss  -0x8(%rbp),%xmm2
    e1ef:	f3 0f 10 05 51 43 01 	movss  0x14351(%rip),%xmm0        # 22548 <l_1503.4554+0x28>
    e1f6:	00 
    e1f7:	f3 0f 59 c2          	mulss  %xmm2,%xmm0
    e1fb:	f3 0f 58 c1          	addss  %xmm1,%xmm0
    e1ff:	f3 0f 10 0d 49 43 01 	movss  0x14349(%rip),%xmm1        # 22550 <l_1503.4554+0x30>
    e206:	00 
    e207:	0f 54 c1             	andps  %xmm1,%xmm0
    e20a:	0f 2f 05 4f 43 01 00 	comiss 0x1434f(%rip),%xmm0        # 22560 <l_1503.4554+0x40>
    e211:	76 07                	jbe    e21a <safe_add_func_float_f_f+0x53>
    e213:	f3 0f 10 45 fc       	movss  -0x4(%rbp),%xmm0
    e218:	eb 0a                	jmp    e224 <safe_add_func_float_f_f+0x5d>
    e21a:	f3 0f 10 45 fc       	movss  -0x4(%rbp),%xmm0
    e21f:	f3 0f 58 45 f8       	addss  -0x8(%rbp),%xmm0
    e224:	5d                   	pop    %rbp
    e225:	c3                   	retq   

000000000000e226 <safe_sub_func_float_f_f>:
    e226:	f3 0f 1e fa          	endbr64 
    e22a:	55                   	push   %rbp
    e22b:	48 89 e5             	mov    %rsp,%rbp
    e22e:	f3 0f 11 45 fc       	movss  %xmm0,-0x4(%rbp)
    e233:	f3 0f 11 4d f8       	movss  %xmm1,-0x8(%rbp)
    e238:	f3 0f 10 4d fc       	movss  -0x4(%rbp),%xmm1
    e23d:	f3 0f 10 05 03 43 01 	movss  0x14303(%rip),%xmm0        # 22548 <l_1503.4554+0x28>
    e244:	00 
    e245:	f3 0f 59 c1          	mulss  %xmm1,%xmm0
    e249:	f3 0f 10 55 f8       	movss  -0x8(%rbp),%xmm2
    e24e:	f3 0f 10 0d f2 42 01 	movss  0x142f2(%rip),%xmm1        # 22548 <l_1503.4554+0x28>
    e255:	00 
    e256:	f3 0f 59 ca          	mulss  %xmm2,%xmm1
    e25a:	f3 0f 5c c1          	subss  %xmm1,%xmm0
    e25e:	f3 0f 10 0d ea 42 01 	movss  0x142ea(%rip),%xmm1        # 22550 <l_1503.4554+0x30>
    e265:	00 
    e266:	0f 54 c1             	andps  %xmm1,%xmm0
    e269:	0f 2f 05 f0 42 01 00 	comiss 0x142f0(%rip),%xmm0        # 22560 <l_1503.4554+0x40>
    e270:	76 07                	jbe    e279 <safe_sub_func_float_f_f+0x53>
    e272:	f3 0f 10 45 fc       	movss  -0x4(%rbp),%xmm0
    e277:	eb 0a                	jmp    e283 <safe_sub_func_float_f_f+0x5d>
    e279:	f3 0f 10 45 fc       	movss  -0x4(%rbp),%xmm0
    e27e:	f3 0f 5c 45 f8       	subss  -0x8(%rbp),%xmm0
    e283:	5d                   	pop    %rbp
    e284:	c3                   	retq   

000000000000e285 <safe_mul_func_float_f_f>:
    e285:	f3 0f 1e fa          	endbr64 
    e289:	55                   	push   %rbp
    e28a:	48 89 e5             	mov    %rsp,%rbp
    e28d:	f3 0f 11 45 fc       	movss  %xmm0,-0x4(%rbp)
    e292:	f3 0f 11 4d f8       	movss  %xmm1,-0x8(%rbp)
    e297:	f3 0f 10 4d fc       	movss  -0x4(%rbp),%xmm1
    e29c:	f3 0f 10 05 c0 42 01 	movss  0x142c0(%rip),%xmm0        # 22564 <l_1503.4554+0x44>
    e2a3:	00 
    e2a4:	f3 0f 59 c8          	mulss  %xmm0,%xmm1
    e2a8:	f3 0f 10 55 f8       	movss  -0x8(%rbp),%xmm2
    e2ad:	f3 0f 10 05 b3 42 01 	movss  0x142b3(%rip),%xmm0        # 22568 <l_1503.4554+0x48>
    e2b4:	00 
    e2b5:	f3 0f 59 c2          	mulss  %xmm2,%xmm0
    e2b9:	f3 0f 59 c1          	mulss  %xmm1,%xmm0
    e2bd:	f3 0f 10 0d 8b 42 01 	movss  0x1428b(%rip),%xmm1        # 22550 <l_1503.4554+0x30>
    e2c4:	00 
    e2c5:	0f 54 c1             	andps  %xmm1,%xmm0
    e2c8:	0f 2f 05 9d 42 01 00 	comiss 0x1429d(%rip),%xmm0        # 2256c <l_1503.4554+0x4c>
    e2cf:	76 07                	jbe    e2d8 <safe_mul_func_float_f_f+0x53>
    e2d1:	f3 0f 10 45 fc       	movss  -0x4(%rbp),%xmm0
    e2d6:	eb 0a                	jmp    e2e2 <safe_mul_func_float_f_f+0x5d>
    e2d8:	f3 0f 10 45 fc       	movss  -0x4(%rbp),%xmm0
    e2dd:	f3 0f 59 45 f8       	mulss  -0x8(%rbp),%xmm0
    e2e2:	5d                   	pop    %rbp
    e2e3:	c3                   	retq   

000000000000e2e4 <safe_div_func_float_f_f>:
    e2e4:	f3 0f 1e fa          	endbr64 
    e2e8:	55                   	push   %rbp
    e2e9:	48 89 e5             	mov    %rsp,%rbp
    e2ec:	f3 0f 11 45 fc       	movss  %xmm0,-0x4(%rbp)
    e2f1:	f3 0f 11 4d f8       	movss  %xmm1,-0x8(%rbp)
    e2f6:	f3 0f 10 45 f8       	movss  -0x8(%rbp),%xmm0
    e2fb:	f3 0f 10 0d 4d 42 01 	movss  0x1424d(%rip),%xmm1        # 22550 <l_1503.4554+0x30>
    e302:	00 
    e303:	0f 54 c8             	andps  %xmm0,%xmm1
    e306:	f3 0f 10 05 62 42 01 	movss  0x14262(%rip),%xmm0        # 22570 <l_1503.4554+0x50>
    e30d:	00 
    e30e:	0f 2f c1             	comiss %xmm1,%xmm0
    e311:	0f 97 c0             	seta   %al
    e314:	83 f0 01             	xor    $0x1,%eax
    e317:	84 c0                	test   %al,%al
    e319:	75 56                	jne    e371 <safe_div_func_float_f_f+0x8d>
    e31b:	66 0f ef c0          	pxor   %xmm0,%xmm0
    e31f:	0f 2e 45 f8          	ucomiss -0x8(%rbp),%xmm0
    e323:	7a 0a                	jp     e32f <safe_div_func_float_f_f+0x4b>
    e325:	66 0f ef c0          	pxor   %xmm0,%xmm0
    e329:	0f 2e 45 f8          	ucomiss -0x8(%rbp),%xmm0
    e32d:	74 4e                	je     e37d <safe_div_func_float_f_f+0x99>
    e32f:	f3 0f 10 4d fc       	movss  -0x4(%rbp),%xmm1
    e334:	f3 0f 10 05 38 42 01 	movss  0x14238(%rip),%xmm0        # 22574 <l_1503.4554+0x54>
    e33b:	00 
    e33c:	f3 0f 59 c1          	mulss  %xmm1,%xmm0
    e340:	f3 0f 10 55 f8       	movss  -0x8(%rbp),%xmm2
    e345:	f3 0f 10 0d 2b 42 01 	movss  0x1422b(%rip),%xmm1        # 22578 <l_1503.4554+0x58>
    e34c:	00 
    e34d:	f3 0f 59 ca          	mulss  %xmm2,%xmm1
    e351:	f3 0f 5e c1          	divss  %xmm1,%xmm0
    e355:	f3 0f 10 0d f3 41 01 	movss  0x141f3(%rip),%xmm1        # 22550 <l_1503.4554+0x30>
    e35c:	00 
    e35d:	0f 54 c1             	andps  %xmm1,%xmm0
    e360:	0f 2f 05 15 42 01 00 	comiss 0x14215(%rip),%xmm0        # 2257c <l_1503.4554+0x5c>
    e367:	0f 97 c0             	seta   %al
    e36a:	83 f0 01             	xor    $0x1,%eax
    e36d:	84 c0                	test   %al,%al
    e36f:	74 0c                	je     e37d <safe_div_func_float_f_f+0x99>
    e371:	f3 0f 10 45 fc       	movss  -0x4(%rbp),%xmm0
    e376:	f3 0f 5e 45 f8       	divss  -0x8(%rbp),%xmm0
    e37b:	eb 05                	jmp    e382 <safe_div_func_float_f_f+0x9e>
    e37d:	f3 0f 10 45 fc       	movss  -0x4(%rbp),%xmm0
    e382:	5d                   	pop    %rbp
    e383:	c3                   	retq   

000000000000e384 <safe_add_func_double_f_f>:
    e384:	f3 0f 1e fa          	endbr64 
    e388:	55                   	push   %rbp
    e389:	48 89 e5             	mov    %rsp,%rbp
    e38c:	f2 0f 11 45 f8       	movsd  %xmm0,-0x8(%rbp)
    e391:	f2 0f 11 4d f0       	movsd  %xmm1,-0x10(%rbp)
    e396:	f2 0f 10 4d f8       	movsd  -0x8(%rbp),%xmm1
    e39b:	f2 0f 10 05 dd 41 01 	movsd  0x141dd(%rip),%xmm0        # 22580 <l_1503.4554+0x60>
    e3a2:	00 
    e3a3:	f2 0f 59 c8          	mulsd  %xmm0,%xmm1
    e3a7:	f2 0f 10 55 f0       	movsd  -0x10(%rbp),%xmm2
    e3ac:	f2 0f 10 05 cc 41 01 	movsd  0x141cc(%rip),%xmm0        # 22580 <l_1503.4554+0x60>
    e3b3:	00 
    e3b4:	f2 0f 59 c2          	mulsd  %xmm2,%xmm0
    e3b8:	f2 0f 58 c1          	addsd  %xmm1,%xmm0
    e3bc:	f3 0f 7e 0d cc 41 01 	movq   0x141cc(%rip),%xmm1        # 22590 <l_1503.4554+0x70>
    e3c3:	00 
    e3c4:	66 0f 54 c1          	andpd  %xmm1,%xmm0
    e3c8:	66 0f 2f 05 d0 41 01 	comisd 0x141d0(%rip),%xmm0        # 225a0 <l_1503.4554+0x80>
    e3cf:	00 
    e3d0:	76 07                	jbe    e3d9 <safe_add_func_double_f_f+0x55>
    e3d2:	f2 0f 10 45 f8       	movsd  -0x8(%rbp),%xmm0
    e3d7:	eb 0a                	jmp    e3e3 <safe_add_func_double_f_f+0x5f>
    e3d9:	f2 0f 10 45 f8       	movsd  -0x8(%rbp),%xmm0
    e3de:	f2 0f 58 45 f0       	addsd  -0x10(%rbp),%xmm0
    e3e3:	5d                   	pop    %rbp
    e3e4:	c3                   	retq   

000000000000e3e5 <safe_sub_func_double_f_f>:
    e3e5:	f3 0f 1e fa          	endbr64 
    e3e9:	55                   	push   %rbp
    e3ea:	48 89 e5             	mov    %rsp,%rbp
    e3ed:	f2 0f 11 45 f8       	movsd  %xmm0,-0x8(%rbp)
    e3f2:	f2 0f 11 4d f0       	movsd  %xmm1,-0x10(%rbp)
    e3f7:	f2 0f 10 4d f8       	movsd  -0x8(%rbp),%xmm1
    e3fc:	f2 0f 10 05 7c 41 01 	movsd  0x1417c(%rip),%xmm0        # 22580 <l_1503.4554+0x60>
    e403:	00 
    e404:	f2 0f 59 c1          	mulsd  %xmm1,%xmm0
    e408:	f2 0f 10 55 f0       	movsd  -0x10(%rbp),%xmm2
    e40d:	f2 0f 10 0d 6b 41 01 	movsd  0x1416b(%rip),%xmm1        # 22580 <l_1503.4554+0x60>
    e414:	00 
    e415:	f2 0f 59 ca          	mulsd  %xmm2,%xmm1
    e419:	f2 0f 5c c1          	subsd  %xmm1,%xmm0
    e41d:	f3 0f 7e 0d 6b 41 01 	movq   0x1416b(%rip),%xmm1        # 22590 <l_1503.4554+0x70>
    e424:	00 
    e425:	66 0f 54 c1          	andpd  %xmm1,%xmm0
    e429:	66 0f 2f 05 6f 41 01 	comisd 0x1416f(%rip),%xmm0        # 225a0 <l_1503.4554+0x80>
    e430:	00 
    e431:	76 07                	jbe    e43a <safe_sub_func_double_f_f+0x55>
    e433:	f2 0f 10 45 f8       	movsd  -0x8(%rbp),%xmm0
    e438:	eb 0a                	jmp    e444 <safe_sub_func_double_f_f+0x5f>
    e43a:	f2 0f 10 45 f8       	movsd  -0x8(%rbp),%xmm0
    e43f:	f2 0f 5c 45 f0       	subsd  -0x10(%rbp),%xmm0
    e444:	5d                   	pop    %rbp
    e445:	c3                   	retq   

000000000000e446 <safe_mul_func_double_f_f>:
    e446:	f3 0f 1e fa          	endbr64 
    e44a:	55                   	push   %rbp
    e44b:	48 89 e5             	mov    %rsp,%rbp
    e44e:	f2 0f 11 45 f8       	movsd  %xmm0,-0x8(%rbp)
    e453:	f2 0f 11 4d f0       	movsd  %xmm1,-0x10(%rbp)
    e458:	f2 0f 10 4d f8       	movsd  -0x8(%rbp),%xmm1
    e45d:	f2 0f 10 05 43 41 01 	movsd  0x14143(%rip),%xmm0        # 225a8 <l_1503.4554+0x88>
    e464:	00 
    e465:	f2 0f 59 c8          	mulsd  %xmm0,%xmm1
    e469:	f2 0f 10 55 f0       	movsd  -0x10(%rbp),%xmm2
    e46e:	f2 0f 10 05 3a 41 01 	movsd  0x1413a(%rip),%xmm0        # 225b0 <l_1503.4554+0x90>
    e475:	00 
    e476:	f2 0f 59 c2          	mulsd  %xmm2,%xmm0
    e47a:	f2 0f 59 c1          	mulsd  %xmm1,%xmm0
    e47e:	f3 0f 7e 0d 0a 41 01 	movq   0x1410a(%rip),%xmm1        # 22590 <l_1503.4554+0x70>
    e485:	00 
    e486:	66 0f 54 c1          	andpd  %xmm1,%xmm0
    e48a:	66 0f 2f 05 26 41 01 	comisd 0x14126(%rip),%xmm0        # 225b8 <l_1503.4554+0x98>
    e491:	00 
    e492:	76 07                	jbe    e49b <safe_mul_func_double_f_f+0x55>
    e494:	f2 0f 10 45 f8       	movsd  -0x8(%rbp),%xmm0
    e499:	eb 0a                	jmp    e4a5 <safe_mul_func_double_f_f+0x5f>
    e49b:	f2 0f 10 45 f8       	movsd  -0x8(%rbp),%xmm0
    e4a0:	f2 0f 59 45 f0       	mulsd  -0x10(%rbp),%xmm0
    e4a5:	5d                   	pop    %rbp
    e4a6:	c3                   	retq   

000000000000e4a7 <safe_div_func_double_f_f>:
    e4a7:	f3 0f 1e fa          	endbr64 
    e4ab:	55                   	push   %rbp
    e4ac:	48 89 e5             	mov    %rsp,%rbp
    e4af:	f2 0f 11 45 f8       	movsd  %xmm0,-0x8(%rbp)
    e4b4:	f2 0f 11 4d f0       	movsd  %xmm1,-0x10(%rbp)
    e4b9:	f2 0f 10 45 f0       	movsd  -0x10(%rbp),%xmm0
    e4be:	f3 0f 7e 0d ca 40 01 	movq   0x140ca(%rip),%xmm1        # 22590 <l_1503.4554+0x70>
    e4c5:	00 
    e4c6:	66 0f 54 c8          	andpd  %xmm0,%xmm1
    e4ca:	f2 0f 10 05 ee 40 01 	movsd  0x140ee(%rip),%xmm0        # 225c0 <l_1503.4554+0xa0>
    e4d1:	00 
    e4d2:	66 0f 2f c1          	comisd %xmm1,%xmm0
    e4d6:	0f 97 c0             	seta   %al
    e4d9:	83 f0 01             	xor    $0x1,%eax
    e4dc:	84 c0                	test   %al,%al
    e4de:	75 5a                	jne    e53a <safe_div_func_double_f_f+0x93>
    e4e0:	66 0f ef c0          	pxor   %xmm0,%xmm0
    e4e4:	66 0f 2e 45 f0       	ucomisd -0x10(%rbp),%xmm0
    e4e9:	7a 0b                	jp     e4f6 <safe_div_func_double_f_f+0x4f>
    e4eb:	66 0f ef c0          	pxor   %xmm0,%xmm0
    e4ef:	66 0f 2e 45 f0       	ucomisd -0x10(%rbp),%xmm0
    e4f4:	74 50                	je     e546 <safe_div_func_double_f_f+0x9f>
    e4f6:	f2 0f 10 4d f8       	movsd  -0x8(%rbp),%xmm1
    e4fb:	f2 0f 10 05 c5 40 01 	movsd  0x140c5(%rip),%xmm0        # 225c8 <l_1503.4554+0xa8>
    e502:	00 
    e503:	f2 0f 59 c1          	mulsd  %xmm1,%xmm0
    e507:	f2 0f 10 55 f0       	movsd  -0x10(%rbp),%xmm2
    e50c:	f2 0f 10 0d bc 40 01 	movsd  0x140bc(%rip),%xmm1        # 225d0 <l_1503.4554+0xb0>
    e513:	00 
    e514:	f2 0f 59 ca          	mulsd  %xmm2,%xmm1
    e518:	f2 0f 5e c1          	divsd  %xmm1,%xmm0
    e51c:	f3 0f 7e 0d 6c 40 01 	movq   0x1406c(%rip),%xmm1        # 22590 <l_1503.4554+0x70>
    e523:	00 
    e524:	66 0f 54 c1          	andpd  %xmm1,%xmm0
    e528:	66 0f 2f 05 a8 40 01 	comisd 0x140a8(%rip),%xmm0        # 225d8 <l_1503.4554+0xb8>
    e52f:	00 
    e530:	0f 97 c0             	seta   %al
    e533:	83 f0 01             	xor    $0x1,%eax
    e536:	84 c0                	test   %al,%al
    e538:	74 0c                	je     e546 <safe_div_func_double_f_f+0x9f>
    e53a:	f2 0f 10 45 f8       	movsd  -0x8(%rbp),%xmm0
    e53f:	f2 0f 5e 45 f0       	divsd  -0x10(%rbp),%xmm0
    e544:	eb 05                	jmp    e54b <safe_div_func_double_f_f+0xa4>
    e546:	f2 0f 10 45 f8       	movsd  -0x8(%rbp),%xmm0
    e54b:	5d                   	pop    %rbp
    e54c:	c3                   	retq   

000000000000e54d <safe_convert_func_float_to_int32_t>:
    e54d:	f3 0f 1e fa          	endbr64 
    e551:	55                   	push   %rbp
    e552:	48 89 e5             	mov    %rsp,%rbp
    e555:	f3 0f 11 45 fc       	movss  %xmm0,-0x4(%rbp)
    e55a:	f3 0f 10 05 7e 40 01 	movss  0x1407e(%rip),%xmm0        # 225e0 <l_1503.4554+0xc0>
    e561:	00 
    e562:	0f 2f 45 fc          	comiss -0x4(%rbp),%xmm0
    e566:	0f 93 c0             	setae  %al
    e569:	83 f0 01             	xor    $0x1,%eax
    e56c:	84 c0                	test   %al,%al
    e56e:	74 21                	je     e591 <safe_convert_func_float_to_int32_t+0x44>
    e570:	f3 0f 10 45 fc       	movss  -0x4(%rbp),%xmm0
    e575:	0f 2f 05 68 40 01 00 	comiss 0x14068(%rip),%xmm0        # 225e4 <l_1503.4554+0xc4>
    e57c:	0f 93 c0             	setae  %al
    e57f:	83 f0 01             	xor    $0x1,%eax
    e582:	84 c0                	test   %al,%al
    e584:	74 0b                	je     e591 <safe_convert_func_float_to_int32_t+0x44>
    e586:	f3 0f 10 45 fc       	movss  -0x4(%rbp),%xmm0
    e58b:	f3 0f 2c c0          	cvttss2si %xmm0,%eax
    e58f:	eb 05                	jmp    e596 <safe_convert_func_float_to_int32_t+0x49>
    e591:	b8 ff ff ff 7f       	mov    $0x7fffffff,%eax
    e596:	5d                   	pop    %rbp
    e597:	c3                   	retq   

000000000000e598 <crc32_gentab>:
    e598:	f3 0f 1e fa          	endbr64 
    e59c:	55                   	push   %rbp
    e59d:	48 89 e5             	mov    %rsp,%rbp
    e5a0:	c7 45 fc 20 83 b8 ed 	movl   $0xedb88320,-0x4(%rbp)
    e5a7:	c7 45 f4 00 00 00 00 	movl   $0x0,-0xc(%rbp)
    e5ae:	eb 51                	jmp    e601 <crc32_gentab+0x69>
    e5b0:	8b 45 f4             	mov    -0xc(%rbp),%eax
    e5b3:	89 45 f0             	mov    %eax,-0x10(%rbp)
    e5b6:	c7 45 f8 08 00 00 00 	movl   $0x8,-0x8(%rbp)
    e5bd:	eb 1e                	jmp    e5dd <crc32_gentab+0x45>
    e5bf:	8b 45 f0             	mov    -0x10(%rbp),%eax
    e5c2:	83 e0 01             	and    $0x1,%eax
    e5c5:	85 c0                	test   %eax,%eax
    e5c7:	74 0d                	je     e5d6 <crc32_gentab+0x3e>
    e5c9:	8b 45 f0             	mov    -0x10(%rbp),%eax
    e5cc:	d1 e8                	shr    %eax
    e5ce:	33 45 fc             	xor    -0x4(%rbp),%eax
    e5d1:	89 45 f0             	mov    %eax,-0x10(%rbp)
    e5d4:	eb 03                	jmp    e5d9 <crc32_gentab+0x41>
    e5d6:	d1 6d f0             	shrl   -0x10(%rbp)
    e5d9:	83 6d f8 01          	subl   $0x1,-0x8(%rbp)
    e5dd:	83 7d f8 00          	cmpl   $0x0,-0x8(%rbp)
    e5e1:	7f dc                	jg     e5bf <crc32_gentab+0x27>
    e5e3:	8b 45 f4             	mov    -0xc(%rbp),%eax
    e5e6:	48 98                	cltq   
    e5e8:	48 8d 0c 85 00 00 00 	lea    0x0(,%rax,4),%rcx
    e5ef:	00 
    e5f0:	48 8d 15 09 b6 01 00 	lea    0x1b609(%rip),%rdx        # 29c00 <crc32_tab>
    e5f7:	8b 45 f0             	mov    -0x10(%rbp),%eax
    e5fa:	89 04 11             	mov    %eax,(%rcx,%rdx,1)
    e5fd:	83 45 f4 01          	addl   $0x1,-0xc(%rbp)
    e601:	81 7d f4 ff 00 00 00 	cmpl   $0xff,-0xc(%rbp)
    e608:	7e a6                	jle    e5b0 <crc32_gentab+0x18>
    e60a:	90                   	nop
    e60b:	90                   	nop
    e60c:	5d                   	pop    %rbp
    e60d:	c3                   	retq   

000000000000e60e <crc32_byte>:
    e60e:	f3 0f 1e fa          	endbr64 
    e612:	55                   	push   %rbp
    e613:	48 89 e5             	mov    %rsp,%rbp
    e616:	89 f8                	mov    %edi,%eax
    e618:	88 45 fc             	mov    %al,-0x4(%rbp)
    e61b:	8b 05 ff 69 01 00    	mov    0x169ff(%rip),%eax        # 25020 <crc32_context>
    e621:	c1 e8 08             	shr    $0x8,%eax
    e624:	89 c1                	mov    %eax,%ecx
    e626:	0f b6 55 fc          	movzbl -0x4(%rbp),%edx
    e62a:	8b 05 f0 69 01 00    	mov    0x169f0(%rip),%eax        # 25020 <crc32_context>
    e630:	31 d0                	xor    %edx,%eax
    e632:	0f b6 c0             	movzbl %al,%eax
    e635:	89 c0                	mov    %eax,%eax
    e637:	48 8d 14 85 00 00 00 	lea    0x0(,%rax,4),%rdx
    e63e:	00 
    e63f:	48 8d 05 ba b5 01 00 	lea    0x1b5ba(%rip),%rax        # 29c00 <crc32_tab>
    e646:	8b 04 02             	mov    (%rdx,%rax,1),%eax
    e649:	31 c8                	xor    %ecx,%eax
    e64b:	89 05 cf 69 01 00    	mov    %eax,0x169cf(%rip)        # 25020 <crc32_context>
    e651:	90                   	nop
    e652:	5d                   	pop    %rbp
    e653:	c3                   	retq   

000000000000e654 <crc32_8bytes>:
    e654:	f3 0f 1e fa          	endbr64 
    e658:	55                   	push   %rbp
    e659:	48 89 e5             	mov    %rsp,%rbp
    e65c:	48 83 ec 08          	sub    $0x8,%rsp
    e660:	48 89 7d f8          	mov    %rdi,-0x8(%rbp)
    e664:	48 8b 45 f8          	mov    -0x8(%rbp),%rax
    e668:	0f b6 c0             	movzbl %al,%eax
    e66b:	89 c7                	mov    %eax,%edi
    e66d:	e8 9c ff ff ff       	callq  e60e <crc32_byte>
    e672:	48 8b 45 f8          	mov    -0x8(%rbp),%rax
    e676:	48 c1 e8 08          	shr    $0x8,%rax
    e67a:	0f b6 c0             	movzbl %al,%eax
    e67d:	89 c7                	mov    %eax,%edi
    e67f:	e8 8a ff ff ff       	callq  e60e <crc32_byte>
    e684:	48 8b 45 f8          	mov    -0x8(%rbp),%rax
    e688:	48 c1 e8 10          	shr    $0x10,%rax
    e68c:	0f b6 c0             	movzbl %al,%eax
    e68f:	89 c7                	mov    %eax,%edi
    e691:	e8 78 ff ff ff       	callq  e60e <crc32_byte>
    e696:	48 8b 45 f8          	mov    -0x8(%rbp),%rax
    e69a:	48 c1 e8 18          	shr    $0x18,%rax
    e69e:	0f b6 c0             	movzbl %al,%eax
    e6a1:	89 c7                	mov    %eax,%edi
    e6a3:	e8 66 ff ff ff       	callq  e60e <crc32_byte>
    e6a8:	48 8b 45 f8          	mov    -0x8(%rbp),%rax
    e6ac:	48 c1 e8 20          	shr    $0x20,%rax
    e6b0:	0f b6 c0             	movzbl %al,%eax
    e6b3:	89 c7                	mov    %eax,%edi
    e6b5:	e8 54 ff ff ff       	callq  e60e <crc32_byte>
    e6ba:	48 8b 45 f8          	mov    -0x8(%rbp),%rax
    e6be:	48 c1 e8 28          	shr    $0x28,%rax
    e6c2:	0f b6 c0             	movzbl %al,%eax
    e6c5:	89 c7                	mov    %eax,%edi
    e6c7:	e8 42 ff ff ff       	callq  e60e <crc32_byte>
    e6cc:	48 8b 45 f8          	mov    -0x8(%rbp),%rax
    e6d0:	48 c1 e8 30          	shr    $0x30,%rax
    e6d4:	0f b6 c0             	movzbl %al,%eax
    e6d7:	89 c7                	mov    %eax,%edi
    e6d9:	e8 30 ff ff ff       	callq  e60e <crc32_byte>
    e6de:	48 8b 45 f8          	mov    -0x8(%rbp),%rax
    e6e2:	48 c1 e8 38          	shr    $0x38,%rax
    e6e6:	0f b6 c0             	movzbl %al,%eax
    e6e9:	89 c7                	mov    %eax,%edi
    e6eb:	e8 1e ff ff ff       	callq  e60e <crc32_byte>
    e6f0:	90                   	nop
    e6f1:	c9                   	leaveq 
    e6f2:	c3                   	retq   

000000000000e6f3 <transparent_crc>:
    e6f3:	f3 0f 1e fa          	endbr64 
    e6f7:	55                   	push   %rbp
    e6f8:	48 89 e5             	mov    %rsp,%rbp
    e6fb:	48 83 ec 20          	sub    $0x20,%rsp
    e6ff:	48 89 7d f8          	mov    %rdi,-0x8(%rbp)
    e703:	48 89 75 f0          	mov    %rsi,-0x10(%rbp)
    e707:	89 55 ec             	mov    %edx,-0x14(%rbp)
    e70a:	48 8b 45 f8          	mov    -0x8(%rbp),%rax
    e70e:	48 89 c7             	mov    %rax,%rdi
    e711:	e8 3e ff ff ff       	callq  e654 <crc32_8bytes>
    e716:	83 7d ec 00          	cmpl   $0x0,-0x14(%rbp)
    e71a:	74 22                	je     e73e <transparent_crc+0x4b>
    e71c:	8b 05 fe 68 01 00    	mov    0x168fe(%rip),%eax        # 25020 <crc32_context>
    e722:	f7 d0                	not    %eax
    e724:	89 c2                	mov    %eax,%edx
    e726:	48 8b 45 f0          	mov    -0x10(%rbp),%rax
    e72a:	48 89 c6             	mov    %rax,%rsi
    e72d:	48 8d 3d fc 28 01 00 	lea    0x128fc(%rip),%rdi        # 21030 <_IO_stdin_used+0x30>
    e734:	b8 00 00 00 00       	mov    $0x0,%eax
    e739:	e8 42 e9 ff ff       	callq  d080 <printf@plt>
    e73e:	90                   	nop
    e73f:	c9                   	leaveq 
    e740:	c3                   	retq   

000000000000e741 <transparent_crc_bytes>:
    e741:	f3 0f 1e fa          	endbr64 
    e745:	55                   	push   %rbp
    e746:	48 89 e5             	mov    %rsp,%rbp
    e749:	48 83 ec 30          	sub    $0x30,%rsp
    e74d:	48 89 7d e8          	mov    %rdi,-0x18(%rbp)
    e751:	89 75 e4             	mov    %esi,-0x1c(%rbp)
    e754:	48 89 55 d8          	mov    %rdx,-0x28(%rbp)
    e758:	89 4d e0             	mov    %ecx,-0x20(%rbp)
    e75b:	c7 45 fc 00 00 00 00 	movl   $0x0,-0x4(%rbp)
    e762:	eb 1e                	jmp    e782 <transparent_crc_bytes+0x41>
    e764:	8b 45 fc             	mov    -0x4(%rbp),%eax
    e767:	48 63 d0             	movslq %eax,%rdx
    e76a:	48 8b 45 e8          	mov    -0x18(%rbp),%rax
    e76e:	48 01 d0             	add    %rdx,%rax
    e771:	0f b6 00             	movzbl (%rax),%eax
    e774:	0f b6 c0             	movzbl %al,%eax
    e777:	89 c7                	mov    %eax,%edi
    e779:	e8 90 fe ff ff       	callq  e60e <crc32_byte>
    e77e:	83 45 fc 01          	addl   $0x1,-0x4(%rbp)
    e782:	8b 45 fc             	mov    -0x4(%rbp),%eax
    e785:	3b 45 e4             	cmp    -0x1c(%rbp),%eax
    e788:	7c da                	jl     e764 <transparent_crc_bytes+0x23>
    e78a:	83 7d e0 00          	cmpl   $0x0,-0x20(%rbp)
    e78e:	74 22                	je     e7b2 <transparent_crc_bytes+0x71>
    e790:	8b 05 8a 68 01 00    	mov    0x1688a(%rip),%eax        # 25020 <crc32_context>
    e796:	f7 d0                	not    %eax
    e798:	89 c2                	mov    %eax,%edx
    e79a:	48 8b 45 d8          	mov    -0x28(%rbp),%rax
    e79e:	48 89 c6             	mov    %rax,%rsi
    e7a1:	48 8d 3d 88 28 01 00 	lea    0x12888(%rip),%rdi        # 21030 <_IO_stdin_used+0x30>
    e7a8:	b8 00 00 00 00       	mov    $0x0,%eax
    e7ad:	e8 ce e8 ff ff       	callq  d080 <printf@plt>
    e7b2:	90                   	nop
    e7b3:	c9                   	leaveq 
    e7b4:	c3                   	retq   

000000000000e7b5 <func_1>:
    e7b5:	f3 0f 1e fa          	endbr64 
    e7b9:	55                   	push   %rbp
    e7ba:	48 89 e5             	mov    %rsp,%rbp
    e7bd:	41 54                	push   %r12
    e7bf:	53                   	push   %rbx
    e7c0:	48 81 ec 30 01 00 00 	sub    $0x130,%rsp
    e7c7:	64 48 8b 04 25 28 00 	mov    %fs:0x28,%rax
    e7ce:	00 00 
    e7d0:	48 89 45 e8          	mov    %rax,-0x18(%rbp)
    e7d4:	31 c0                	xor    %eax,%eax
    e7d6:	48 8d 85 e0 fe ff ff 	lea    -0x120(%rbp),%rax
    e7dd:	48 8d 15 9c 28 01 00 	lea    0x1289c(%rip),%rdx        # 21080 <g_1206+0x20>
    e7e4:	b9 1f 00 00 00       	mov    $0x1f,%ecx
    e7e9:	48 89 c7             	mov    %rax,%rdi
    e7ec:	48 89 d6             	mov    %rdx,%rsi
    e7ef:	f3 48 a5             	rep movsq %ds:(%rsi),%es:(%rdi)
    e7f2:	48 89 f2             	mov    %rsi,%rdx
    e7f5:	48 89 f8             	mov    %rdi,%rax
    e7f8:	8b 0a                	mov    (%rdx),%ecx
    e7fa:	89 08                	mov    %ecx,(%rax)
    e7fc:	48 8d 40 04          	lea    0x4(%rax),%rax
    e800:	48 8d 52 04          	lea    0x4(%rdx),%rdx
    e804:	48 8d 05 fd 6a 01 00 	lea    0x16afd(%rip),%rax        # 25308 <g_2409>
    e80b:	48 89 85 c0 fe ff ff 	mov    %rax,-0x140(%rbp)
    e812:	48 8d 05 81 6b 01 00 	lea    0x16b81(%rip),%rax        # 2539a <g_3115+0x5a>
    e819:	48 89 85 c8 fe ff ff 	mov    %rax,-0x138(%rbp)
    e820:	48 8d 05 a5 6b 01 00 	lea    0x16ba5(%rip),%rax        # 253cc <g_3117>
    e827:	48 89 85 d0 fe ff ff 	mov    %rax,-0x130(%rbp)
    e82e:	48 b8 45 8d d3 7c 1f 	movabs $0x8acc81f7cd38d45,%rax
    e835:	c8 ac 08 
    e838:	48 89 85 d8 fe ff ff 	mov    %rax,-0x128(%rbp)
    e83f:	0f b6 85 09 ff ff ff 	movzbl -0xf7(%rbp),%eax
    e846:	48 0f be d8          	movsbq %al,%rbx
    e84a:	0f b6 85 70 ff ff ff 	movzbl -0x90(%rbp),%eax
    e851:	0f be d0             	movsbl %al,%edx
    e854:	0f b6 85 09 ff ff ff 	movzbl -0xf7(%rbp),%eax
    e85b:	0f be c0             	movsbl %al,%eax
    e85e:	89 d6                	mov    %edx,%esi
    e860:	89 c7                	mov    %eax,%edi
    e862:	e8 ab e9 ff ff       	callq  d212 <safe_mul_func_int8_t_s_s>
    e867:	0f b6 05 b6 6a 01 00 	movzbl 0x16ab6(%rip),%eax        # 25324 <g_2829>
    e86e:	66 98                	cbtw   
    e870:	44 0f b7 e0          	movzwl %ax,%r12d
    e874:	bf 07 cc ff ff       	mov    $0xffffcc07,%edi
    e879:	e8 1f eb ff ff       	callq  d39d <safe_unary_minus_func_int16_t_s>
    e87e:	0f b7 c0             	movzwl %ax,%eax
    e881:	44 89 e6             	mov    %r12d,%esi
    e884:	89 c7                	mov    %eax,%edi
    e886:	e8 b2 f4 ff ff       	callq  dd3d <safe_mul_func_uint16_t_u_u>
    e88b:	be 4c 00 00 00       	mov    $0x4c,%esi
    e890:	bf 01 00 00 00       	mov    $0x1,%edi
    e895:	e8 3a e9 ff ff       	callq  d1d4 <safe_add_func_int8_t_s_s>
    e89a:	0f b6 55 82          	movzbl -0x7e(%rbp),%edx
    e89e:	38 d0                	cmp    %dl,%al
    e8a0:	0f 9d c0             	setge  %al
    e8a3:	0f b6 d0             	movzbl %al,%edx
    e8a6:	48 8b 05 33 a7 01 00 	mov    0x1a733(%rip),%rax        # 28fe0 <g_1078>
    e8ad:	48 85 c0             	test   %rax,%rax
    e8b0:	0f 94 c0             	sete   %al
    e8b3:	0f b6 c8             	movzbl %al,%ecx
    e8b6:	48 8b 85 c0 fe ff ff 	mov    -0x140(%rbp),%rax
    e8bd:	48 89 08             	mov    %rcx,(%rax)
    e8c0:	48 8b 85 c0 fe ff ff 	mov    -0x140(%rbp),%rax
    e8c7:	48 8b 00             	mov    (%rax),%rax
    e8ca:	48 89 d6             	mov    %rdx,%rsi
    e8cd:	48 89 c7             	mov    %rax,%rdi
    e8d0:	e8 59 f7 ff ff       	callq  e02e <safe_add_func_uint64_t_u_u>
    e8d5:	0f b6 85 09 ff ff ff 	movzbl -0xf7(%rbp),%eax
    e8dc:	66 98                	cbtw   
    e8de:	0f b7 c0             	movzwl %ax,%eax
    e8e1:	48 8b 95 c8 fe ff ff 	mov    -0x138(%rbp),%rdx
    e8e8:	48 89 de             	mov    %rbx,%rsi
    e8eb:	89 c7                	mov    %eax,%edi
    e8ed:	e8 b6 0f 01 00       	callq  1f8a8 <func_38>
    e8f2:	48 89 85 d0 fe ff ff 	mov    %rax,-0x130(%rbp)
    e8f9:	0f b6 85 09 ff ff ff 	movzbl -0xf7(%rbp),%eax
    e900:	66 98                	cbtw   
    e902:	0f b7 c0             	movzwl %ax,%eax
    e905:	89 c7                	mov    %eax,%edi
    e907:	e8 38 01 00 00       	callq  ea44 <func_5>
    e90c:	48 89 c2             	mov    %rax,%rdx
    e90f:	48 8b 05 42 b2 01 00 	mov    0x1b242(%rip),%rax        # 29b58 <g_2527>
    e916:	48 8b 00             	mov    (%rax),%rax
    e919:	48 8b 18             	mov    (%rax),%rbx
    e91c:	48 8b 85 d0 fe ff ff 	mov    -0x130(%rbp),%rax
    e923:	48 89 c6             	mov    %rax,%rsi
    e926:	48 89 d7             	mov    %rdx,%rdi
    e929:	e8 2a 00 00 00       	callq  e958 <func_2>
    e92e:	48 89 03             	mov    %rax,(%rbx)
    e931:	48 8b 85 d8 fe ff ff 	mov    -0x128(%rbp),%rax
    e938:	48 8b 5d e8          	mov    -0x18(%rbp),%rbx
    e93c:	64 48 33 1c 25 28 00 	xor    %fs:0x28,%rbx
    e943:	00 00 
    e945:	74 05                	je     e94c <func_1+0x197>
    e947:	e8 24 e7 ff ff       	callq  d070 <__stack_chk_fail@plt>
    e94c:	48 81 c4 30 01 00 00 	add    $0x130,%rsp
    e953:	5b                   	pop    %rbx
    e954:	41 5c                	pop    %r12
    e956:	5d                   	pop    %rbp
    e957:	c3                   	retq   

000000000000e958 <func_2>:
    e958:	f3 0f 1e fa          	endbr64 
    e95c:	55                   	push   %rbp
    e95d:	48 89 e5             	mov    %rsp,%rbp
    e960:	48 83 ec 60          	sub    $0x60,%rsp
    e964:	48 89 7d a8          	mov    %rdi,-0x58(%rbp)
    e968:	48 89 75 a0          	mov    %rsi,-0x60(%rbp)
    e96c:	64 48 8b 04 25 28 00 	mov    %fs:0x28,%rax
    e973:	00 00 
    e975:	48 89 45 f8          	mov    %rax,-0x8(%rbp)
    e979:	31 c0                	xor    %eax,%eax
    e97b:	48 8d 05 4a 6a 01 00 	lea    0x16a4a(%rip),%rax        # 253cc <g_3117>
    e982:	48 89 45 b8          	mov    %rax,-0x48(%rbp)
    e986:	48 8d 05 3f 6a 01 00 	lea    0x16a3f(%rip),%rax        # 253cc <g_3117>
    e98d:	48 89 45 d0          	mov    %rax,-0x30(%rbp)
    e991:	48 8d 05 34 6a 01 00 	lea    0x16a34(%rip),%rax        # 253cc <g_3117>
    e998:	48 89 45 d8          	mov    %rax,-0x28(%rbp)
    e99c:	48 8d 05 29 6a 01 00 	lea    0x16a29(%rip),%rax        # 253cc <g_3117>
    e9a3:	48 89 45 e0          	mov    %rax,-0x20(%rbp)
    e9a7:	48 8d 05 1e 6a 01 00 	lea    0x16a1e(%rip),%rax        # 253cc <g_3117>
    e9ae:	48 89 45 e8          	mov    %rax,-0x18(%rbp)
    e9b2:	48 8d 05 13 6a 01 00 	lea    0x16a13(%rip),%rax        # 253cc <g_3117>
    e9b9:	48 89 45 f0          	mov    %rax,-0x10(%rbp)
    e9bd:	c7 45 b4 02 00 00 00 	movl   $0x2,-0x4c(%rbp)
    e9c4:	48 c7 45 c0 05 00 00 	movq   $0x5,-0x40(%rbp)
    e9cb:	00 
    e9cc:	48 8d 05 fd b6 01 00 	lea    0x1b6fd(%rip),%rax        # 2a0d0 <g_3126>
    e9d3:	48 89 45 c8          	mov    %rax,-0x38(%rbp)
    e9d7:	48 83 6d c0 01       	subq   $0x1,-0x40(%rbp)
    e9dc:	48 83 7d c0 00       	cmpq   $0x0,-0x40(%rbp)
    e9e1:	90                   	nop
    e9e2:	f3 0f 1e fa          	endbr64 
    e9e6:	48 8b 45 a0          	mov    -0x60(%rbp),%rax
    e9ea:	8b 10                	mov    (%rax),%edx
    e9ec:	48 8b 45 b8          	mov    -0x48(%rbp),%rax
    e9f0:	89 10                	mov    %edx,(%rax)
    e9f2:	48 8b 45 c8          	mov    -0x38(%rbp),%rax
    e9f6:	c7 00 01 00 00 00    	movl   $0x1,(%rax)
    e9fc:	b8 01 00 00 00       	mov    $0x1,%eax
    ea01:	83 f8 ff             	cmp    $0xffffffff,%eax
    ea04:	0f 9c c0             	setl   %al
    ea07:	0f b6 c8             	movzbl %al,%ecx
    ea0a:	48 8b 05 4f b1 01 00 	mov    0x1b14f(%rip),%rax        # 29b60 <g_2584>
    ea11:	48 8b 00             	mov    (%rax),%rax
    ea14:	48 8b 00             	mov    (%rax),%rax
    ea17:	8b 10                	mov    (%rax),%edx
    ea19:	48 8b 05 40 b1 01 00 	mov    0x1b140(%rip),%rax        # 29b60 <g_2584>
    ea20:	48 8b 00             	mov    (%rax),%rax
    ea23:	48 8b 00             	mov    (%rax),%rax
    ea26:	09 ca                	or     %ecx,%edx
    ea28:	89 10                	mov    %edx,(%rax)
    ea2a:	48 8b 45 a0          	mov    -0x60(%rbp),%rax
    ea2e:	48 8b 75 f8          	mov    -0x8(%rbp),%rsi
    ea32:	64 48 33 34 25 28 00 	xor    %fs:0x28,%rsi
    ea39:	00 00 
    ea3b:	74 05                	je     ea42 <func_2+0xea>
    ea3d:	e8 2e e6 ff ff       	callq  d070 <__stack_chk_fail@plt>
    ea42:	c9                   	leaveq 
    ea43:	c3                   	retq   

000000000000ea44 <func_5>:
    ea44:	f3 0f 1e fa          	endbr64 
    ea48:	55                   	push   %rbp
    ea49:	48 89 e5             	mov    %rsp,%rbp
    ea4c:	41 57                	push   %r15
    ea4e:	41 56                	push   %r14
    ea50:	41 55                	push   %r13
    ea52:	41 54                	push   %r12
    ea54:	53                   	push   %rbx
    ea55:	48 81 ec 00 10 00 00 	sub    $0x1000,%rsp
    ea5c:	48 83 0c 24 00       	orq    $0x0,(%rsp)
    ea61:	48 81 ec 48 03 00 00 	sub    $0x348,%rsp
    ea68:	89 f8                	mov    %edi,%eax
    ea6a:	66 89 85 9c ec ff ff 	mov    %ax,-0x1364(%rbp)
    ea71:	64 48 8b 04 25 28 00 	mov    %fs:0x28,%rax
    ea78:	00 00 
    ea7a:	48 89 45 c8          	mov    %rax,-0x38(%rbp)
    ea7e:	31 c0                	xor    %eax,%eax
    ea80:	48 8d 05 a1 65 01 00 	lea    0x165a1(%rip),%rax        # 25028 <g_34>
    ea87:	48 89 85 c8 ec ff ff 	mov    %rax,-0x1338(%rbp)
    ea8e:	48 c7 85 f8 ec ff ff 	movq   $0x0,-0x1308(%rbp)
    ea95:	00 00 00 00 
    ea99:	c7 85 b4 ec ff ff ff 	movl   $0xffffffff,-0x134c(%rbp)
    eaa0:	ff ff ff 
    eaa3:	48 8d 85 40 f2 ff ff 	lea    -0xdc0(%rbp),%rax
    eaaa:	48 8d 15 2f 69 01 00 	lea    0x1692f(%rip),%rdx        # 253e0 <g_3117+0x14>
    eab1:	b9 b4 00 00 00       	mov    $0xb4,%ecx
    eab6:	48 89 c7             	mov    %rax,%rdi
    eab9:	48 89 d6             	mov    %rdx,%rsi
    eabc:	f3 48 a5             	rep movsq %ds:(%rsi),%es:(%rdi)
    eabf:	c7 85 ac ec ff ff fe 	movl   $0xfffffffe,-0x1354(%rbp)
    eac6:	ff ff ff 
    eac9:	48 8d 85 e0 ee ff ff 	lea    -0x1120(%rbp),%rax
    ead0:	48 8d 15 a9 26 01 00 	lea    0x126a9(%rip),%rdx        # 21180 <g_1206+0x120>
    ead7:	b9 6c 00 00 00       	mov    $0x6c,%ecx
    eadc:	48 89 c7             	mov    %rax,%rdi
    eadf:	48 89 d6             	mov    %rdx,%rsi
    eae2:	f3 48 a5             	rep movsq %ds:(%rsi),%es:(%rdi)
    eae5:	66 c7 85 a8 ec ff ff 	movw   $0xbab5,-0x1358(%rbp)
    eaec:	b5 ba 
    eaee:	48 b8 bc a9 34 df 0e 	movabs $0x7404260edf34a9bc,%rax
    eaf5:	26 04 74 
    eaf8:	48 89 85 00 ed ff ff 	mov    %rax,-0x1300(%rbp)
    eaff:	48 8d 05 1a a3 01 00 	lea    0x1a31a(%rip),%rax        # 28e20 <g_859>
    eb06:	48 89 85 08 ed ff ff 	mov    %rax,-0x12f8(%rbp)
    eb0d:	48 8d 85 e0 f7 ff ff 	lea    -0x820(%rbp),%rax
    eb14:	48 8d 15 65 6e 01 00 	lea    0x16e65(%rip),%rdx        # 25980 <g_3117+0x5b4>
    eb1b:	b9 fc 00 00 00       	mov    $0xfc,%ecx
    eb20:	48 89 c7             	mov    %rax,%rdi
    eb23:	48 89 d6             	mov    %rdx,%rsi
    eb26:	f3 48 a5             	rep movsq %ds:(%rsi),%es:(%rdi)
    eb29:	48 c7 85 d0 ec ff ff 	movq   $0x0,-0x1330(%rbp)
    eb30:	00 00 00 00 
    eb34:	48 8d 85 d0 ec ff ff 	lea    -0x1330(%rbp),%rax
    eb3b:	48 89 85 d8 ec ff ff 	mov    %rax,-0x1328(%rbp)
    eb42:	48 8d 85 d8 ec ff ff 	lea    -0x1328(%rbp),%rax
    eb49:	48 89 85 10 ed ff ff 	mov    %rax,-0x12f0(%rbp)
    eb50:	66 c7 85 aa ec ff ff 	movw   $0x21ac,-0x1356(%rbp)
    eb57:	ac 21 
    eb59:	48 8d 85 c8 ec ff ff 	lea    -0x1338(%rbp),%rax
    eb60:	48 89 85 18 ed ff ff 	mov    %rax,-0x12e8(%rbp)
    eb67:	0f b6 05 97 67 01 00 	movzbl 0x16797(%rip),%eax        # 25305 <g_2347>
    eb6e:	0f b6 d8             	movzbl %al,%ebx
    eb71:	0f b7 85 9c ec ff ff 	movzwl -0x1364(%rbp),%eax
    eb78:	44 0f be e0          	movsbl %al,%r12d
    eb7c:	44 0f b7 ad 9c ec ff 	movzwl -0x1364(%rbp),%r13d
    eb83:	ff 
    eb84:	0f b7 85 9c ec ff ff 	movzwl -0x1364(%rbp),%eax
    eb8b:	44 0f b6 f0          	movzbl %al,%r14d
    eb8f:	8b 85 b4 ec ff ff    	mov    -0x134c(%rbp),%eax
    eb95:	44 0f b7 f8          	movzwl %ax,%r15d
    eb99:	48 8b 15 30 95 01 00 	mov    0x19530(%rip),%rdx        # 280d0 <g_42+0x3b0>
    eba0:	0f b7 8d 9c ec ff ff 	movzwl -0x1364(%rbp),%ecx
    eba7:	0f b7 85 9c ec ff ff 	movzwl -0x1364(%rbp),%eax
    ebae:	48 89 ce             	mov    %rcx,%rsi
    ebb1:	89 c7                	mov    %eax,%edi
    ebb3:	e8 f0 0c 01 00       	callq  1f8a8 <func_38>
    ebb8:	48 89 c2             	mov    %rax,%rdx
    ebbb:	48 8b 85 c8 ec ff ff 	mov    -0x1338(%rbp),%rax
    ebc2:	0f b7 08             	movzwl (%rax),%ecx
    ebc5:	83 e9 01             	sub    $0x1,%ecx
    ebc8:	66 89 08             	mov    %cx,(%rax)
    ebcb:	0f b7 00             	movzwl (%rax),%eax
    ebce:	66 83 f8 01          	cmp    $0x1,%ax
    ebd2:	0f 95 c0             	setne  %al
    ebd5:	0f b6 c0             	movzbl %al,%eax
    ebd8:	48 8b 8d f8 ec ff ff 	mov    -0x1308(%rbp),%rcx
    ebdf:	48 89 ce             	mov    %rcx,%rsi
    ebe2:	89 c7                	mov    %eax,%edi
    ebe4:	e8 fe 08 01 00       	callq  1f4e7 <func_29>
    ebe9:	0f b7 05 b8 65 01 00 	movzwl 0x165b8(%rip),%eax        # 251a8 <g_126>
    ebf0:	0f b7 c0             	movzwl %ax,%eax
    ebf3:	48 89 c7             	mov    %rax,%rdi
    ebf6:	e8 27 bd 00 00       	callq  1a922 <func_27>
    ebfb:	0f b7 c0             	movzwl %ax,%eax
    ebfe:	44 89 fe             	mov    %r15d,%esi
    ec01:	89 c7                	mov    %eax,%edi
    ec03:	e8 86 f1 ff ff       	callq  dd8e <safe_div_func_uint16_t_u_u>
    ec08:	0f b6 c0             	movzbl %al,%eax
    ec0b:	44 89 f6             	mov    %r14d,%esi
    ec0e:	89 c7                	mov    %eax,%edi
    ec10:	e8 63 ef ff ff       	callq  db78 <safe_sub_func_uint8_t_u_u>
    ec15:	84 c0                	test   %al,%al
    ec17:	0f 94 c0             	sete   %al
    ec1a:	0f b6 c0             	movzbl %al,%eax
    ec1d:	48 89 c7             	mov    %rax,%rdi
    ec20:	e8 45 bc 00 00       	callq  1a86a <func_21>
    ec25:	44 89 ee             	mov    %r13d,%esi
    ec28:	48 89 c7             	mov    %rax,%rdi
    ec2b:	e8 91 6e 00 00       	callq  15ac1 <func_18>
    ec30:	66 89 05 5b 66 01 00 	mov    %ax,0x1665b(%rip)        # 25292 <g_1084+0x2>
    ec37:	0f b7 05 54 66 01 00 	movzwl 0x16654(%rip),%eax        # 25292 <g_1084+0x2>
    ec3e:	0f bf d0             	movswl %ax,%edx
    ec41:	48 8b 05 b8 90 01 00 	mov    0x190b8(%rip),%rax        # 27d00 <g_16>
    ec48:	89 d6                	mov    %edx,%esi
    ec4a:	48 89 c7             	mov    %rax,%rdi
    ec4d:	e8 23 17 00 00       	callq  10375 <func_13>
    ec52:	0f be d0             	movsbl %al,%edx
    ec55:	0f b7 85 9c ec ff ff 	movzwl -0x1364(%rbp),%eax
    ec5c:	39 c2                	cmp    %eax,%edx
    ec5e:	8b 85 b4 ec ff ff    	mov    -0x134c(%rbp),%eax
    ec64:	89 c2                	mov    %eax,%edx
    ec66:	8b 85 ac ec ff ff    	mov    -0x1354(%rbp),%eax
    ec6c:	09 d0                	or     %edx,%eax
    ec6e:	0f be c0             	movsbl %al,%eax
    ec71:	44 89 e6             	mov    %r12d,%esi
    ec74:	89 c7                	mov    %eax,%edi
    ec76:	e8 b6 e5 ff ff       	callq  d231 <safe_mod_func_int8_t_s_s>
    ec7b:	48 8b 05 ce ae 01 00 	mov    0x1aece(%rip),%rax        # 29b50 <g_2528>
    ec82:	4c 8b 20             	mov    (%rax),%r12
    ec85:	48 8d 85 ac ec ff ff 	lea    -0x1354(%rbp),%rax
    ec8c:	48 89 de             	mov    %rbx,%rsi
    ec8f:	48 89 c7             	mov    %rax,%rdi
    ec92:	e8 09 06 00 00       	callq  f2a0 <func_8>
    ec97:	49 89 04 24          	mov    %rax,(%r12)
    ec9b:	0f b7 85 9c ec ff ff 	movzwl -0x1364(%rbp),%eax
    eca2:	0f be c0             	movsbl %al,%eax
    eca5:	89 c7                	mov    %eax,%edi
    eca7:	e8 13 e5 ff ff       	callq  d1bf <safe_unary_minus_func_int8_t_s>
    ecac:	66 98                	cbtw   
    ecae:	0f b7 c0             	movzwl %ax,%eax
    ecb1:	be 0d 00 00 00       	mov    $0xd,%esi
    ecb6:	89 c7                	mov    %eax,%edi
    ecb8:	e8 8b f1 ff ff       	callq  de48 <safe_rshift_func_uint16_t_u_s>
    ecbd:	66 85 c0             	test   %ax,%ax
    ecc0:	0f 84 18 03 00 00    	je     efde <func_5+0x59a>
    ecc6:	48 8b 05 5b a1 01 00 	mov    0x1a15b(%rip),%rax        # 28e28 <g_858>
    eccd:	48 8b 00             	mov    (%rax),%rax
    ecd0:	8b 10                	mov    (%rax),%edx
    ecd2:	83 ea 01             	sub    $0x1,%edx
    ecd5:	89 10                	mov    %edx,(%rax)
    ecd7:	8b 00                	mov    (%rax),%eax
    ecd9:	85 c0                	test   %eax,%eax
    ecdb:	0f 84 fd 02 00 00    	je     efde <func_5+0x59a>
    ece1:	48 c7 85 20 ed ff ff 	movq   $0x0,-0x12e0(%rbp)
    ece8:	00 00 00 00 
    ecec:	c7 85 b8 ec ff ff f2 	movl   $0x284bbcf2,-0x1348(%rbp)
    ecf3:	bc 4b 28 
    ecf6:	48 8d 05 5f 63 01 00 	lea    0x1635f(%rip),%rax        # 2505c <g_43+0x1c>
    ecfd:	48 89 85 28 ed ff ff 	mov    %rax,-0x12d8(%rbp)
    ed04:	48 8d 05 15 9e 01 00 	lea    0x19e15(%rip),%rax        # 28b20 <g_487>
    ed0b:	48 89 85 30 ed ff ff 	mov    %rax,-0x12d0(%rbp)
    ed12:	48 8d 05 67 65 01 00 	lea    0x16567(%rip),%rax        # 25280 <g_895>
    ed19:	48 89 85 c0 ed ff ff 	mov    %rax,-0x1240(%rbp)
    ed20:	48 8d 05 59 65 01 00 	lea    0x16559(%rip),%rax        # 25280 <g_895>
    ed27:	48 89 85 c8 ed ff ff 	mov    %rax,-0x1238(%rbp)
    ed2e:	48 c7 85 d0 ed ff ff 	movq   $0x0,-0x1230(%rbp)
    ed35:	00 00 00 00 
    ed39:	48 8d 05 40 65 01 00 	lea    0x16540(%rip),%rax        # 25280 <g_895>
    ed40:	48 89 85 d8 ed ff ff 	mov    %rax,-0x1228(%rbp)
    ed47:	48 8d 05 32 65 01 00 	lea    0x16532(%rip),%rax        # 25280 <g_895>
    ed4e:	48 89 85 e0 ed ff ff 	mov    %rax,-0x1220(%rbp)
    ed55:	48 8d 05 24 65 01 00 	lea    0x16524(%rip),%rax        # 25280 <g_895>
    ed5c:	48 89 85 e8 ed ff ff 	mov    %rax,-0x1218(%rbp)
    ed63:	48 8d 05 16 65 01 00 	lea    0x16516(%rip),%rax        # 25280 <g_895>
    ed6a:	48 89 85 f0 ed ff ff 	mov    %rax,-0x1210(%rbp)
    ed71:	48 8d 05 08 65 01 00 	lea    0x16508(%rip),%rax        # 25280 <g_895>
    ed78:	48 89 85 f8 ed ff ff 	mov    %rax,-0x1208(%rbp)
    ed7f:	48 c7 85 38 ed ff ff 	movq   $0x0,-0x12c8(%rbp)
    ed86:	00 00 00 00 
    ed8a:	c7 85 bc ec ff ff 09 	movl   $0x9,-0x1344(%rbp)
    ed91:	00 00 00 
    ed94:	48 c7 85 90 ed ff ff 	movq   $0x0,-0x1270(%rbp)
    ed9b:	00 00 00 00 
    ed9f:	48 c7 85 98 ed ff ff 	movq   $0x0,-0x1268(%rbp)
    eda6:	00 00 00 00 
    edaa:	48 c7 85 a0 ed ff ff 	movq   $0x0,-0x1260(%rbp)
    edb1:	00 00 00 00 
    edb5:	48 c7 85 a8 ed ff ff 	movq   $0x0,-0x1258(%rbp)
    edbc:	00 00 00 00 
    edc0:	c7 85 b0 ed ff ff 00 	movl   $0x0,-0x1250(%rbp)
    edc7:	00 00 00 
    edca:	c7 85 c0 ec ff ff 81 	movl   $0xf5a9f481,-0x1340(%rbp)
    edd1:	f4 a9 f5 
    edd4:	c7 85 80 ed ff ff f6 	movl   $0xfffffff6,-0x1280(%rbp)
    eddb:	ff ff ff 
    edde:	c7 85 84 ed ff ff 01 	movl   $0x1,-0x127c(%rbp)
    ede5:	00 00 00 
    ede8:	c7 85 88 ed ff ff f6 	movl   $0xfffffff6,-0x1278(%rbp)
    edef:	ff ff ff 
    edf2:	c7 85 8c ed ff ff 01 	movl   $0x1,-0x1274(%rbp)
    edf9:	00 00 00 
    edfc:	48 8b 05 e5 9c 01 00 	mov    0x19ce5(%rip),%rax        # 28ae8 <g_429>
    ee03:	48 8b 18             	mov    (%rax),%rbx
    ee06:	48 8b 05 db a1 01 00 	mov    0x1a1db(%rip),%rax        # 28fe8 <g_1077>
    ee0d:	48 8b 00             	mov    (%rax),%rax
    ee10:	0f b7 00             	movzwl (%rax),%eax
    ee13:	0f bf d0             	movswl %ax,%edx
    ee16:	48 8b 05 c3 a1 01 00 	mov    0x1a1c3(%rip),%rax        # 28fe0 <g_1078>
    ee1d:	0f b7 00             	movzwl (%rax),%eax
    ee20:	98                   	cwtl   
    ee21:	89 d6                	mov    %edx,%esi
    ee23:	89 c7                	mov    %eax,%edi
    ee25:	e8 00 e7 ff ff       	callq  d52a <safe_rshift_func_int16_t_s_s>
    ee2a:	98                   	cwtl   
    ee2b:	be 05 00 00 00       	mov    $0x5,%esi
    ee30:	89 c7                	mov    %eax,%edi
    ee32:	e8 f3 e6 ff ff       	callq  d52a <safe_rshift_func_int16_t_s_s>
    ee37:	8b 85 74 ef ff ff    	mov    -0x108c(%rbp),%eax
    ee3d:	0f be c0             	movsbl %al,%eax
    ee40:	be 02 00 00 00       	mov    $0x2,%esi
    ee45:	89 c7                	mov    %eax,%edi
    ee47:	e8 55 e4 ff ff       	callq  d2a1 <safe_lshift_func_int8_t_s_s>
    ee4c:	0f b6 c0             	movzbl %al,%eax
    ee4f:	be 05 00 00 00       	mov    $0x5,%esi
    ee54:	89 c7                	mov    %eax,%edi
    ee56:	e8 32 ee ff ff       	callq  dc8d <safe_rshift_func_uint8_t_u_s>
    ee5b:	0f b6 d0             	movzbl %al,%edx
    ee5e:	0f b7 85 9c ec ff ff 	movzwl -0x1364(%rbp),%eax
    ee65:	09 d0                	or     %edx,%eax
    ee67:	89 c2                	mov    %eax,%edx
    ee69:	48 8b 05 28 a7 01 00 	mov    0x1a728(%rip),%rax        # 29598 <g_1610>
    ee70:	48 8b 00             	mov    (%rax),%rax
    ee73:	48 8b 00             	mov    (%rax),%rax
    ee76:	48 8b 00             	mov    (%rax),%rax
    ee79:	8b 00                	mov    (%rax),%eax
    ee7b:	39 c2                	cmp    %eax,%edx
    ee7d:	8b 85 b8 ec ff ff    	mov    -0x1348(%rbp),%eax
    ee83:	0f bf d0             	movswl %ax,%edx
    ee86:	48 83 bd 20 ed ff ff 	cmpq   $0x0,-0x12e0(%rbp)
    ee8d:	00 
    ee8e:	0f 94 c0             	sete   %al
    ee91:	0f b6 c0             	movzbl %al,%eax
    ee94:	89 d6                	mov    %edx,%esi
    ee96:	89 c7                	mov    %eax,%edi
    ee98:	e8 79 e5 ff ff       	callq  d416 <safe_mod_func_int16_t_s_s>
    ee9d:	0f b7 85 9c ec ff ff 	movzwl -0x1364(%rbp),%eax
    eea4:	98                   	cwtl   
    eea5:	be 08 00 00 00       	mov    $0x8,%esi
    eeaa:	89 c7                	mov    %eax,%edi
    eeac:	e8 30 e6 ff ff       	callq  d4e1 <safe_lshift_func_int16_t_s_u>
    eeb1:	48 8b 05 a8 ac 01 00 	mov    0x1aca8(%rip),%rax        # 29b60 <g_2584>
    eeb8:	4c 8b 20             	mov    (%rax),%r12
    eebb:	48 8b 85 28 ed ff ff 	mov    -0x12d8(%rbp),%rax
    eec2:	48 89 c2             	mov    %rax,%rdx
    eec5:	48 89 de             	mov    %rbx,%rsi
    eec8:	bf 00 00 00 00       	mov    $0x0,%edi
    eecd:	e8 d6 09 01 00       	callq  1f8a8 <func_38>
    eed2:	49 89 04 24          	mov    %rax,(%r12)
    eed6:	66 c7 05 bb 63 01 00 	movw   $0xfff3,0x163bb(%rip)        # 2529a <g_1086>
    eedd:	f3 ff 
    eedf:	e9 e4 00 00 00       	jmpq   efc8 <func_5+0x584>
    eee4:	48 8d 05 fd 9b 01 00 	lea    0x19bfd(%rip),%rax        # 28ae8 <g_429>
    eeeb:	48 89 85 e0 ec ff ff 	mov    %rax,-0x1320(%rbp)
    eef2:	48 8d 85 e0 ec ff ff 	lea    -0x1320(%rbp),%rax
    eef9:	48 89 85 e8 ec ff ff 	mov    %rax,-0x1318(%rbp)
    ef00:	48 8d 85 e8 ec ff ff 	lea    -0x1318(%rbp),%rax
    ef07:	48 89 85 40 ed ff ff 	mov    %rax,-0x12c0(%rbp)
    ef0e:	48 8d 05 1b 9f 01 00 	lea    0x19f1b(%rip),%rax        # 28e30 <g_857>
    ef15:	48 89 85 48 ed ff ff 	mov    %rax,-0x12b8(%rbp)
    ef1c:	c7 85 c4 ec ff ff 39 	movl   $0x277d0239,-0x133c(%rbp)
    ef23:	02 7d 27 
    ef26:	48 b8 22 8e fe 66 e0 	movabs $0x7421cae066fe8e22,%rax
    ef2d:	ca 21 74 
    ef30:	48 89 85 50 ed ff ff 	mov    %rax,-0x12b0(%rbp)
    ef37:	48 8d 05 82 b1 01 00 	lea    0x1b182(%rip),%rax        # 2a0c0 <g_1806>
    ef3e:	48 89 85 58 ed ff ff 	mov    %rax,-0x12a8(%rbp)
    ef45:	48 c7 85 60 ed ff ff 	movq   $0x0,-0x12a0(%rbp)
    ef4c:	00 00 00 00 
    ef50:	48 c7 85 f0 ec ff ff 	movq   $0x0,-0x1310(%rbp)
    ef57:	00 00 00 00 
    ef5b:	48 8d 85 f0 ec ff ff 	lea    -0x1310(%rbp),%rax
    ef62:	48 89 85 68 ed ff ff 	mov    %rax,-0x1298(%rbp)
    ef69:	48 8d 85 80 ed ff ff 	lea    -0x1280(%rbp),%rax
    ef70:	48 83 c0 04          	add    $0x4,%rax
    ef74:	48 89 85 70 ed ff ff 	mov    %rax,-0x1290(%rbp)
    ef7b:	c7 85 b0 ec ff ff 00 	movl   $0x0,-0x1350(%rbp)
    ef82:	00 00 00 
    ef85:	eb 1a                	jmp    efa1 <func_5+0x55d>
    ef87:	8b 85 b0 ec ff ff    	mov    -0x1350(%rbp),%eax
    ef8d:	48 98                	cltq   
    ef8f:	c7 84 85 7c ed ff ff 	movl   $0x8133315,-0x1284(%rbp,%rax,4)
    ef96:	15 33 13 08 
    ef9a:	83 85 b0 ec ff ff 01 	addl   $0x1,-0x1350(%rbp)
    efa1:	83 bd b0 ec ff ff 00 	cmpl   $0x0,-0x1350(%rbp)
    efa8:	7e dd                	jle    ef87 <func_5+0x543>
    efaa:	0f b7 05 e9 62 01 00 	movzwl 0x162e9(%rip),%eax        # 2529a <g_1086>
    efb1:	0f b7 c0             	movzwl %ax,%eax
    efb4:	be 02 00 00 00       	mov    $0x2,%esi
    efb9:	48 89 c7             	mov    %rax,%rdi
    efbc:	e8 6d f0 ff ff       	callq  e02e <safe_add_func_uint64_t_u_u>
    efc1:	66 89 05 d2 62 01 00 	mov    %ax,0x162d2(%rip)        # 2529a <g_1086>
    efc8:	0f b7 05 cb 62 01 00 	movzwl 0x162cb(%rip),%eax        # 2529a <g_1086>
    efcf:	66 83 f8 2c          	cmp    $0x2c,%ax
    efd3:	0f 86 0b ff ff ff    	jbe    eee4 <func_5+0x4a0>
    efd9:	e9 8c 02 00 00       	jmpq   f26a <func_5+0x826>
    efde:	48 8d 05 7b 62 01 00 	lea    0x1627b(%rip),%rax        # 25260 <g_871>
    efe5:	48 89 85 c0 ed ff ff 	mov    %rax,-0x1240(%rbp)
    efec:	48 c7 85 c8 ed ff ff 	movq   $0x0,-0x1238(%rbp)
    eff3:	00 00 00 00 
    eff7:	48 8d 05 e6 61 01 00 	lea    0x161e6(%rip),%rax        # 251e4 <g_133+0x24>
    effe:	48 89 85 d0 ed ff ff 	mov    %rax,-0x1230(%rbp)
    f005:	48 8d 05 60 62 01 00 	lea    0x16260(%rip),%rax        # 2526c <g_871+0xc>
    f00c:	48 89 85 d8 ed ff ff 	mov    %rax,-0x1228(%rbp)
    f013:	48 8d 85 e0 ee ff ff 	lea    -0x1120(%rbp),%rax
    f01a:	48 05 68 02 00 00    	add    $0x268,%rax
    f020:	48 89 85 e0 ed ff ff 	mov    %rax,-0x1220(%rbp)
    f027:	48 8d 85 e0 ee ff ff 	lea    -0x1120(%rbp),%rax
    f02e:	48 05 94 00 00 00    	add    $0x94,%rax
    f034:	48 89 85 e8 ed ff ff 	mov    %rax,-0x1218(%rbp)
    f03b:	48 8d 85 e0 ee ff ff 	lea    -0x1120(%rbp),%rax
    f042:	48 05 94 00 00 00    	add    $0x94,%rax
    f048:	48 89 85 f0 ed ff ff 	mov    %rax,-0x1210(%rbp)
    f04f:	48 8d 05 16 62 01 00 	lea    0x16216(%rip),%rax        # 2526c <g_871+0xc>
    f056:	48 89 85 f8 ed ff ff 	mov    %rax,-0x1208(%rbp)
    f05d:	48 8d 85 e0 ee ff ff 	lea    -0x1120(%rbp),%rax
    f064:	48 05 94 00 00 00    	add    $0x94,%rax
    f06a:	48 89 85 00 ee ff ff 	mov    %rax,-0x1200(%rbp)
    f071:	48 8d 85 e0 ee ff ff 	lea    -0x1120(%rbp),%rax
    f078:	48 05 94 00 00 00    	add    $0x94,%rax
    f07e:	48 89 85 08 ee ff ff 	mov    %rax,-0x11f8(%rbp)
    f085:	48 8d 05 e8 61 01 00 	lea    0x161e8(%rip),%rax        # 25274 <g_871+0x14>
    f08c:	48 89 85 10 ee ff ff 	mov    %rax,-0x11f0(%rbp)
    f093:	48 c7 85 18 ee ff ff 	movq   $0x0,-0x11e8(%rbp)
    f09a:	00 00 00 00 
    f09e:	48 c7 85 20 ee ff ff 	movq   $0x0,-0x11e0(%rbp)
    f0a5:	00 00 00 00 
    f0a9:	48 8d 05 c4 61 01 00 	lea    0x161c4(%rip),%rax        # 25274 <g_871+0x14>
    f0b0:	48 89 85 28 ee ff ff 	mov    %rax,-0x11d8(%rbp)
    f0b7:	48 8d 85 e0 ee ff ff 	lea    -0x1120(%rbp),%rax
    f0be:	48 05 94 00 00 00    	add    $0x94,%rax
    f0c4:	48 89 85 30 ee ff ff 	mov    %rax,-0x11d0(%rbp)
    f0cb:	48 8d 05 2a 62 01 00 	lea    0x1622a(%rip),%rax        # 252fc <g_2132>
    f0d2:	48 89 85 38 ee ff ff 	mov    %rax,-0x11c8(%rbp)
    f0d9:	48 8d 05 80 61 01 00 	lea    0x16180(%rip),%rax        # 25260 <g_871>
    f0e0:	48 89 85 40 ee ff ff 	mov    %rax,-0x11c0(%rbp)
    f0e7:	48 8d 05 f6 60 01 00 	lea    0x160f6(%rip),%rax        # 251e4 <g_133+0x24>
    f0ee:	48 89 85 48 ee ff ff 	mov    %rax,-0x11b8(%rbp)
    f0f5:	48 8d 05 70 61 01 00 	lea    0x16170(%rip),%rax        # 2526c <g_871+0xc>
    f0fc:	48 89 85 50 ee ff ff 	mov    %rax,-0x11b0(%rbp)
    f103:	48 c7 85 58 ee ff ff 	movq   $0x0,-0x11a8(%rbp)
    f10a:	00 00 00 00 
    f10e:	48 c7 85 60 ee ff ff 	movq   $0x0,-0x11a0(%rbp)
    f115:	00 00 00 00 
    f119:	48 8d 85 e0 ee ff ff 	lea    -0x1120(%rbp),%rax
    f120:	48 05 94 00 00 00    	add    $0x94,%rax
    f126:	48 89 85 68 ee ff ff 	mov    %rax,-0x1198(%rbp)
    f12d:	48 8d 05 2c 61 01 00 	lea    0x1612c(%rip),%rax        # 25260 <g_871>
    f134:	48 89 85 70 ee ff ff 	mov    %rax,-0x1190(%rbp)
    f13b:	48 8d 05 5a 60 01 00 	lea    0x1605a(%rip),%rax        # 2519c <g_104>
    f142:	48 89 85 78 ee ff ff 	mov    %rax,-0x1188(%rbp)
    f149:	48 8d 85 e0 ee ff ff 	lea    -0x1120(%rbp),%rax
    f150:	48 05 68 02 00 00    	add    $0x268,%rax
    f156:	48 89 85 80 ee ff ff 	mov    %rax,-0x1180(%rbp)
    f15d:	48 8d 85 e0 ee ff ff 	lea    -0x1120(%rbp),%rax
    f164:	48 05 68 02 00 00    	add    $0x268,%rax
    f16a:	48 89 85 88 ee ff ff 	mov    %rax,-0x1178(%rbp)
    f171:	48 8d 05 24 60 01 00 	lea    0x16024(%rip),%rax        # 2519c <g_104>
    f178:	48 89 85 90 ee ff ff 	mov    %rax,-0x1170(%rbp)
    f17f:	48 c7 85 98 ee ff ff 	movq   $0x0,-0x1168(%rbp)
    f186:	00 00 00 00 
    f18a:	48 8d 85 e0 ee ff ff 	lea    -0x1120(%rbp),%rax
    f191:	48 05 68 02 00 00    	add    $0x268,%rax
    f197:	48 89 85 a0 ee ff ff 	mov    %rax,-0x1160(%rbp)
    f19e:	48 8d 05 3f 60 01 00 	lea    0x1603f(%rip),%rax        # 251e4 <g_133+0x24>
    f1a5:	48 89 85 a8 ee ff ff 	mov    %rax,-0x1158(%rbp)
    f1ac:	48 8d 85 e0 ee ff ff 	lea    -0x1120(%rbp),%rax
    f1b3:	48 05 68 02 00 00    	add    $0x268,%rax
    f1b9:	48 89 85 b0 ee ff ff 	mov    %rax,-0x1150(%rbp)
    f1c0:	48 c7 85 b8 ee ff ff 	movq   $0x0,-0x1148(%rbp)
    f1c7:	00 00 00 00 
    f1cb:	48 8d 05 9a 60 01 00 	lea    0x1609a(%rip),%rax        # 2526c <g_871+0xc>
    f1d2:	48 89 85 c0 ee ff ff 	mov    %rax,-0x1140(%rbp)
    f1d9:	48 8d 05 1c 61 01 00 	lea    0x1611c(%rip),%rax        # 252fc <g_2132>
    f1e0:	48 89 85 c8 ee ff ff 	mov    %rax,-0x1138(%rbp)
    f1e7:	48 8d 05 7e 60 01 00 	lea    0x1607e(%rip),%rax        # 2526c <g_871+0xc>
    f1ee:	48 89 85 d0 ee ff ff 	mov    %rax,-0x1130(%rbp)
    f1f5:	48 8d 85 e0 ee ff ff 	lea    -0x1120(%rbp),%rax
    f1fc:	48 05 94 00 00 00    	add    $0x94,%rax
    f202:	48 89 85 d8 ee ff ff 	mov    %rax,-0x1128(%rbp)
    f209:	66 c7 05 2e 60 01 00 	movw   $0x0,0x1602e(%rip)        # 25240 <g_807>
    f210:	00 00 
    f212:	eb 40                	jmp    f254 <func_5+0x810>
    f214:	48 8b 05 2d a9 01 00 	mov    0x1a92d(%rip),%rax        # 29b48 <g_2529>
    f21b:	48 8d 95 e0 ee ff ff 	lea    -0x1120(%rbp),%rdx
    f222:	48 81 c2 88 01 00 00 	add    $0x188,%rdx
    f229:	48 89 10             	mov    %rdx,(%rax)
    f22c:	48 8b 05 25 a9 01 00 	mov    0x1a925(%rip),%rax        # 29b58 <g_2527>
    f233:	48 8b 00             	mov    (%rax),%rax
    f236:	48 8b 00             	mov    (%rax),%rax
    f239:	48 8b 95 08 ee ff ff 	mov    -0x11f8(%rbp),%rdx
    f240:	48 89 10             	mov    %rdx,(%rax)
    f243:	0f b7 05 f6 5f 01 00 	movzwl 0x15ff6(%rip),%eax        # 25240 <g_807>
    f24a:	83 c0 01             	add    $0x1,%eax
    f24d:	66 89 05 ec 5f 01 00 	mov    %ax,0x15fec(%rip)        # 25240 <g_807>
    f254:	0f b7 05 e5 5f 01 00 	movzwl 0x15fe5(%rip),%eax        # 25240 <g_807>
    f25b:	66 83 f8 02          	cmp    $0x2,%ax
    f25f:	76 b3                	jbe    f214 <func_5+0x7d0>
    f261:	0f b7 85 9c ec ff ff 	movzwl -0x1364(%rbp),%eax
    f268:	eb 10                	jmp    f27a <func_5+0x836>
    f26a:	48 8b 05 5f a9 01 00 	mov    0x1a95f(%rip),%rax        # 29bd0 <g_2943>
    f271:	48 8b 00             	mov    (%rax),%rax
    f274:	48 8b 00             	mov    (%rax),%rax
    f277:	48 8b 00             	mov    (%rax),%rax
    f27a:	48 8b 5d c8          	mov    -0x38(%rbp),%rbx
    f27e:	64 48 33 1c 25 28 00 	xor    %fs:0x28,%rbx
    f285:	00 00 
    f287:	74 05                	je     f28e <func_5+0x84a>
    f289:	e8 e2 dd ff ff       	callq  d070 <__stack_chk_fail@plt>
    f28e:	48 81 c4 48 13 00 00 	add    $0x1348,%rsp
    f295:	5b                   	pop    %rbx
    f296:	41 5c                	pop    %r12
    f298:	41 5d                	pop    %r13
    f29a:	41 5e                	pop    %r14
    f29c:	41 5f                	pop    %r15
    f29e:	5d                   	pop    %rbp
    f29f:	c3                   	retq   

000000000000f2a0 <func_8>:
    f2a0:	f3 0f 1e fa          	endbr64 
    f2a4:	55                   	push   %rbp
    f2a5:	48 89 e5             	mov    %rsp,%rbp
    f2a8:	48 81 ec 00 10 00 00 	sub    $0x1000,%rsp
    f2af:	48 83 0c 24 00       	orq    $0x0,(%rsp)
    f2b4:	48 81 ec 70 02 00 00 	sub    $0x270,%rsp
    f2bb:	48 89 bd 98 ed ff ff 	mov    %rdi,-0x1268(%rbp)
    f2c2:	48 89 b5 90 ed ff ff 	mov    %rsi,-0x1270(%rbp)
    f2c9:	64 48 8b 04 25 28 00 	mov    %fs:0x28,%rax
    f2d0:	00 00 
    f2d2:	48 89 45 f8          	mov    %rax,-0x8(%rbp)
    f2d6:	31 c0                	xor    %eax,%eax
    f2d8:	c7 85 c0 ed ff ff 01 	movl   $0x1,-0x1240(%rbp)
    f2df:	00 00 00 
    f2e2:	c7 85 c4 ed ff ff 25 	movl   $0xa5ab7c25,-0x123c(%rbp)
    f2e9:	7c ab a5 
    f2ec:	66 c7 85 b2 ed ff ff 	movw   $0x7dd3,-0x124e(%rbp)
    f2f3:	d3 7d 
    f2f5:	48 c7 85 18 ee ff ff 	movq   $0x1,-0x11e8(%rbp)
    f2fc:	01 00 00 00 
    f300:	c7 85 c8 ed ff ff 09 	movl   $0x9,-0x1238(%rbp)
    f307:	00 00 00 
    f30a:	c7 85 cc ed ff ff 01 	movl   $0x1,-0x1234(%rbp)
    f311:	00 00 00 
    f314:	c7 85 d0 ed ff ff 51 	movl   $0xa2efb051,-0x1230(%rbp)
    f31b:	b0 ef a2 
    f31e:	c7 85 b4 ed ff ff 53 	movl   $0x7f285153,-0x124c(%rbp)
    f325:	51 28 7f 
    f328:	c7 85 80 ef ff ff 00 	movl   $0x0,-0x1080(%rbp)
    f32f:	00 00 00 
    f332:	c7 85 84 ef ff ff f9 	movl   $0xf1faf4f9,-0x107c(%rbp)
    f339:	f4 fa f1 
    f33c:	c7 85 88 ef ff ff 00 	movl   $0x0,-0x1078(%rbp)
    f343:	00 00 00 
    f346:	c7 85 8c ef ff ff e5 	movl   $0xcc2efce5,-0x1074(%rbp)
    f34d:	fc 2e cc 
    f350:	c7 85 90 ef ff ff aa 	movl   $0x37f917aa,-0x1070(%rbp)
    f357:	17 f9 37 
    f35a:	c7 85 94 ef ff ff aa 	movl   $0x37f917aa,-0x106c(%rbp)
    f361:	17 f9 37 
    f364:	c7 85 98 ef ff ff e5 	movl   $0xcc2efce5,-0x1068(%rbp)
    f36b:	fc 2e cc 
    f36e:	c7 85 9c ef ff ff 00 	movl   $0x0,-0x1064(%rbp)
    f375:	00 00 00 
    f378:	c7 85 a0 ef ff ff f9 	movl   $0xf1faf4f9,-0x1060(%rbp)
    f37f:	f4 fa f1 
    f382:	c7 85 a4 ef ff ff f9 	movl   $0xf1faf4f9,-0x105c(%rbp)
    f389:	f4 fa f1 
    f38c:	c7 85 a8 ef ff ff 00 	movl   $0x0,-0x1058(%rbp)
    f393:	00 00 00 
    f396:	c7 85 ac ef ff ff e5 	movl   $0xcc2efce5,-0x1054(%rbp)
    f39d:	fc 2e cc 
    f3a0:	c7 85 b0 ef ff ff aa 	movl   $0x37f917aa,-0x1050(%rbp)
    f3a7:	17 f9 37 
    f3aa:	c7 85 b4 ef ff ff aa 	movl   $0x37f917aa,-0x104c(%rbp)
    f3b1:	17 f9 37 
    f3b4:	c7 85 b8 ef ff ff e5 	movl   $0xcc2efce5,-0x1048(%rbp)
    f3bb:	fc 2e cc 
    f3be:	c7 85 bc ef ff ff 00 	movl   $0x0,-0x1044(%rbp)
    f3c5:	00 00 00 
    f3c8:	c7 85 c0 ef ff ff f9 	movl   $0xf1faf4f9,-0x1040(%rbp)
    f3cf:	f4 fa f1 
    f3d2:	c7 85 c4 ef ff ff 00 	movl   $0x0,-0x103c(%rbp)
    f3d9:	00 00 00 
    f3dc:	c7 85 80 ee ff ff 65 	movl   $0xf5472665,-0x1180(%rbp)
    f3e3:	26 47 f5 
    f3e6:	c7 85 84 ee ff ff 65 	movl   $0xf5472665,-0x117c(%rbp)
    f3ed:	26 47 f5 
    f3f0:	c7 85 88 ee ff ff 65 	movl   $0xf5472665,-0x1178(%rbp)
    f3f7:	26 47 f5 
    f3fa:	c7 85 8c ee ff ff 65 	movl   $0xf5472665,-0x1174(%rbp)
    f401:	26 47 f5 
    f404:	c7 85 90 ee ff ff 65 	movl   $0xf5472665,-0x1170(%rbp)
    f40b:	26 47 f5 
    f40e:	c7 85 d4 ed ff ff 39 	movl   $0xb951fb39,-0x122c(%rbp)
    f415:	fb 51 b9 
    f418:	c7 85 d8 ed ff ff 07 	movl   $0x7,-0x1228(%rbp)
    f41f:	00 00 00 
    f422:	c7 85 dc ed ff ff ff 	movl   $0xffffffff,-0x1224(%rbp)
    f429:	ff ff ff 
    f42c:	c7 85 e0 ed ff ff 91 	movl   $0x19819b91,-0x1220(%rbp)
    f433:	9b 81 19 
    f436:	c7 85 e4 ed ff ff 9c 	movl   $0xe0c4c59c,-0x121c(%rbp)
    f43d:	c5 c4 e0 
    f440:	48 8d 85 60 f8 ff ff 	lea    -0x7a0(%rbp),%rax
    f447:	48 8d 15 92 20 01 00 	lea    0x12092(%rip),%rdx        # 214e0 <g_1206+0x480>
    f44e:	b9 f3 00 00 00       	mov    $0xf3,%ecx
    f453:	48 89 c7             	mov    %rax,%rdi
    f456:	48 89 d6             	mov    %rdx,%rsi
    f459:	f3 48 a5             	rep movsq %ds:(%rsi),%es:(%rdi)
    f45c:	66 c7 85 c0 ee ff ff 	movw   $0x7,-0x1140(%rbp)
    f463:	07 00 
    f465:	66 c7 85 c2 ee ff ff 	movw   $0xffff,-0x113e(%rbp)
    f46c:	ff ff 
    f46e:	66 c7 85 c4 ee ff ff 	movw   $0xffff,-0x113c(%rbp)
    f475:	ff ff 
    f477:	66 c7 85 c6 ee ff ff 	movw   $0x991,-0x113a(%rbp)
    f47e:	91 09 
    f480:	66 c7 85 c8 ee ff ff 	movw   $0x991,-0x1138(%rbp)
    f487:	91 09 
    f489:	66 c7 85 ca ee ff ff 	movw   $0xfffd,-0x1136(%rbp)
    f490:	fd ff 
    f492:	66 c7 85 cc ee ff ff 	movw   $0x8b2b,-0x1134(%rbp)
    f499:	2b 8b 
    f49b:	66 c7 85 ce ee ff ff 	movw   $0xffff,-0x1132(%rbp)
    f4a2:	ff ff 
    f4a4:	66 c7 85 d0 ee ff ff 	movw   $0xffff,-0x1130(%rbp)
    f4ab:	ff ff 
    f4ad:	66 c7 85 d2 ee ff ff 	movw   $0xfffd,-0x112e(%rbp)
    f4b4:	fd ff 
    f4b6:	66 c7 85 d4 ee ff ff 	movw   $0x2fcb,-0x112c(%rbp)
    f4bd:	cb 2f 
    f4bf:	66 c7 85 d6 ee ff ff 	movw   $0xaf48,-0x112a(%rbp)
    f4c6:	48 af 
    f4c8:	66 c7 85 d8 ee ff ff 	movw   $0x8b2b,-0x1128(%rbp)
    f4cf:	2b 8b 
    f4d1:	66 c7 85 da ee ff ff 	movw   $0xe9e9,-0x1126(%rbp)
    f4d8:	e9 e9 
    f4da:	66 c7 85 dc ee ff ff 	movw   $0x8b2b,-0x1124(%rbp)
    f4e1:	2b 8b 
    f4e3:	66 c7 85 de ee ff ff 	movw   $0x991,-0x1122(%rbp)
    f4ea:	91 09 
    f4ec:	66 c7 85 e0 ee ff ff 	movw   $0xfffd,-0x1120(%rbp)
    f4f3:	fd ff 
    f4f5:	66 c7 85 e2 ee ff ff 	movw   $0xaf48,-0x111e(%rbp)
    f4fc:	48 af 
    f4fe:	66 c7 85 e4 ee ff ff 	movw   $0x7,-0x111c(%rbp)
    f505:	07 00 
    f507:	66 c7 85 e6 ee ff ff 	movw   $0x7,-0x111a(%rbp)
    f50e:	07 00 
    f510:	66 c7 85 e8 ee ff ff 	movw   $0xffff,-0x1118(%rbp)
    f517:	ff ff 
    f519:	66 c7 85 ea ee ff ff 	movw   $0x2c2d,-0x1116(%rbp)
    f520:	2d 2c 
    f522:	66 c7 85 ec ee ff ff 	movw   $0xfffd,-0x1114(%rbp)
    f529:	fd ff 
    f52b:	66 c7 85 ee ee ff ff 	movw   $0xfffd,-0x1112(%rbp)
    f532:	fd ff 
    f534:	66 c7 85 f0 ee ff ff 	movw   $0xffff,-0x1110(%rbp)
    f53b:	ff ff 
    f53d:	66 c7 85 f2 ee ff ff 	movw   $0xe9e9,-0x110e(%rbp)
    f544:	e9 e9 
    f546:	66 c7 85 f4 ee ff ff 	movw   $0xffff,-0x110c(%rbp)
    f54d:	ff ff 
    f54f:	c6 85 af ed ff ff a0 	movb   $0xa0,-0x1251(%rbp)
    f556:	48 8d 05 cb 88 01 00 	lea    0x188cb(%rip),%rax        # 27e28 <g_42+0x108>
    f55d:	48 89 85 20 ee ff ff 	mov    %rax,-0x11e0(%rbp)
    f564:	c7 85 e8 ed ff ff f8 	movl   $0xfffffff8,-0x1218(%rbp)
    f56b:	ff ff ff 
    f56e:	c6 85 b0 ed ff ff 06 	movb   $0x6,-0x1250(%rbp)
    f575:	48 8d 05 9c 95 01 00 	lea    0x1959c(%rip),%rax        # 28b18 <g_488>
    f57c:	48 89 85 28 ee ff ff 	mov    %rax,-0x11d8(%rbp)
    f583:	c7 85 b8 ed ff ff 00 	movl   $0x0,-0x1248(%rbp)
    f58a:	00 00 00 
    f58d:	eb 1a                	jmp    f5a9 <func_8+0x309>
    f58f:	8b 85 b8 ed ff ff    	mov    -0x1248(%rbp),%eax
    f595:	48 98                	cltq   
    f597:	c7 84 85 6c ee ff ff 	movl   $0x9,-0x1194(%rbp,%rax,4)
    f59e:	09 00 00 00 
    f5a2:	83 85 b8 ed ff ff 01 	addl   $0x1,-0x1248(%rbp)
    f5a9:	83 bd b8 ed ff ff 01 	cmpl   $0x1,-0x1248(%rbp)
    f5b0:	7e dd                	jle    f58f <func_8+0x2ef>
    f5b2:	48 c7 05 63 5c 01 00 	movq   $0x0,0x15c63(%rip)        # 25220 <g_265>
    f5b9:	00 00 00 00 
    f5bd:	e9 79 0c 00 00       	jmpq   1023b <func_8+0xf9b>
    f5c2:	c6 85 b1 ed ff ff c1 	movb   $0xc1,-0x124f(%rbp)
    f5c9:	48 b8 c8 b2 30 4a 9a 	movabs $0x5f64c29a4a30b2c8,%rax
    f5d0:	c2 64 5f 
    f5d3:	48 89 85 38 ee ff ff 	mov    %rax,-0x11c8(%rbp)
    f5da:	48 8d 05 a7 5b 01 00 	lea    0x15ba7(%rip),%rax        # 25188 <g_63>
    f5e1:	48 89 85 40 ee ff ff 	mov    %rax,-0x11c0(%rbp)
    f5e8:	48 8d 05 19 5d 01 00 	lea    0x15d19(%rip),%rax        # 25308 <g_2409>
    f5ef:	48 89 85 48 ee ff ff 	mov    %rax,-0x11b8(%rbp)
    f5f6:	48 8d 85 40 f0 ff ff 	lea    -0xfc0(%rbp),%rax
    f5fd:	48 8d 15 5c 6b 01 00 	lea    0x16b5c(%rip),%rdx        # 26160 <g_3117+0xd94>
    f604:	b9 50 00 00 00       	mov    $0x50,%ecx
    f609:	48 89 c7             	mov    %rax,%rdi
    f60c:	48 89 d6             	mov    %rdx,%rsi
    f60f:	f3 48 a5             	rep movsq %ds:(%rsi),%es:(%rdi)
    f612:	c7 85 ec ed ff ff 5a 	movl   $0x2c20525a,-0x1214(%rbp)
    f619:	52 20 2c 
    f61c:	48 8d 05 5d aa 01 00 	lea    0x1aa5d(%rip),%rax        # 2a080 <g_346>
    f623:	48 89 85 50 ee ff ff 	mov    %rax,-0x11b0(%rbp)
    f62a:	48 c7 85 58 ee ff ff 	movq   $0x0,-0x11a8(%rbp)
    f631:	00 00 00 00 
    f635:	c7 85 f0 ed ff ff f5 	movl   $0xb86117f5,-0x1210(%rbp)
    f63c:	17 61 b8 
    f63f:	c7 85 d0 ef ff ff 00 	movl   $0x0,-0x1030(%rbp)
    f646:	00 00 00 
    f649:	c7 85 d4 ef ff ff a8 	movl   $0x50e5fa8,-0x102c(%rbp)
    f650:	5f 0e 05 
    f653:	c7 85 d8 ef ff ff a8 	movl   $0x50e5fa8,-0x1028(%rbp)
    f65a:	5f 0e 05 
    f65d:	c7 85 dc ef ff ff 00 	movl   $0x0,-0x1024(%rbp)
    f664:	00 00 00 
    f667:	c7 85 e0 ef ff ff a8 	movl   $0x50e5fa8,-0x1020(%rbp)
    f66e:	5f 0e 05 
    f671:	c7 85 e4 ef ff ff 00 	movl   $0x0,-0x101c(%rbp)
    f678:	00 00 00 
    f67b:	c7 85 e8 ef ff ff a8 	movl   $0x50e5fa8,-0x1018(%rbp)
    f682:	5f 0e 05 
    f685:	c7 85 ec ef ff ff a8 	movl   $0x50e5fa8,-0x1014(%rbp)
    f68c:	5f 0e 05 
    f68f:	c7 85 f0 ef ff ff 00 	movl   $0x0,-0x1010(%rbp)
    f696:	00 00 00 
    f699:	c7 85 f4 ef ff ff 00 	movl   $0x0,-0x100c(%rbp)
    f6a0:	00 00 00 
    f6a3:	c7 85 f8 ef ff ff ff 	movl   $0xffffffff,-0x1008(%rbp)
    f6aa:	ff ff ff 
    f6ad:	c7 85 fc ef ff ff 00 	movl   $0x0,-0x1004(%rbp)
    f6b4:	00 00 00 
    f6b7:	c7 85 00 f0 ff ff 00 	movl   $0x0,-0x1000(%rbp)
    f6be:	00 00 00 
    f6c1:	c7 85 04 f0 ff ff a8 	movl   $0x50e5fa8,-0xffc(%rbp)
    f6c8:	5f 0e 05 
    f6cb:	c7 85 08 f0 ff ff a8 	movl   $0x50e5fa8,-0xff8(%rbp)
    f6d2:	5f 0e 05 
    f6d5:	c7 85 0c f0 ff ff 00 	movl   $0x0,-0xff4(%rbp)
    f6dc:	00 00 00 
    f6df:	c7 85 10 f0 ff ff a8 	movl   $0x50e5fa8,-0xff0(%rbp)
    f6e6:	5f 0e 05 
    f6e9:	c7 85 14 f0 ff ff 00 	movl   $0x0,-0xfec(%rbp)
    f6f0:	00 00 00 
    f6f3:	c7 85 18 f0 ff ff a8 	movl   $0x50e5fa8,-0xfe8(%rbp)
    f6fa:	5f 0e 05 
    f6fd:	c7 85 1c f0 ff ff a8 	movl   $0x50e5fa8,-0xfe4(%rbp)
    f704:	5f 0e 05 
    f707:	c7 85 20 f0 ff ff 00 	movl   $0x0,-0xfe0(%rbp)
    f70e:	00 00 00 
    f711:	c7 85 24 f0 ff ff 00 	movl   $0x0,-0xfdc(%rbp)
    f718:	00 00 00 
    f71b:	c7 85 28 f0 ff ff ff 	movl   $0xffffffff,-0xfd8(%rbp)
    f722:	ff ff ff 
    f725:	c7 85 2c f0 ff ff 00 	movl   $0x0,-0xfd4(%rbp)
    f72c:	00 00 00 
    f72f:	c7 85 30 f0 ff ff 00 	movl   $0x0,-0xfd0(%rbp)
    f736:	00 00 00 
    f739:	c7 85 34 f0 ff ff a8 	movl   $0x50e5fa8,-0xfcc(%rbp)
    f740:	5f 0e 05 
    f743:	c7 85 38 f0 ff ff a8 	movl   $0x50e5fa8,-0xfc8(%rbp)
    f74a:	5f 0e 05 
    f74d:	c7 85 3c f0 ff ff 00 	movl   $0x0,-0xfc4(%rbp)
    f754:	00 00 00 
    f757:	c7 85 f4 ed ff ff 07 	movl   $0x4fd87d07,-0x120c(%rbp)
    f75e:	7d d8 4f 
    f761:	48 8d 05 b4 5a 01 00 	lea    0x15ab4(%rip),%rax        # 2521c <g_263>
    f768:	48 89 85 f8 ed ff ff 	mov    %rax,-0x1208(%rbp)
    f76f:	48 8d 85 f8 ed ff ff 	lea    -0x1208(%rbp),%rax
    f776:	48 89 85 00 ee ff ff 	mov    %rax,-0x1200(%rbp)
    f77d:	48 8d 85 00 ee ff ff 	lea    -0x1200(%rbp),%rax
    f784:	48 89 85 a0 ee ff ff 	mov    %rax,-0x1160(%rbp)
    f78b:	48 8d 85 00 ee ff ff 	lea    -0x1200(%rbp),%rax
    f792:	48 89 85 a8 ee ff ff 	mov    %rax,-0x1158(%rbp)
    f799:	48 8d 85 00 ee ff ff 	lea    -0x1200(%rbp),%rax
    f7a0:	48 89 85 b0 ee ff ff 	mov    %rax,-0x1150(%rbp)
    f7a7:	48 8d 85 00 ee ff ff 	lea    -0x1200(%rbp),%rax
    f7ae:	48 89 85 b8 ee ff ff 	mov    %rax,-0x1148(%rbp)
    f7b5:	48 8d 05 e0 5a 01 00 	lea    0x15ae0(%rip),%rax        # 2529c <g_1194>
    f7bc:	48 89 85 00 ef ff ff 	mov    %rax,-0x1100(%rbp)
    f7c3:	48 8d 05 d2 5a 01 00 	lea    0x15ad2(%rip),%rax        # 2529c <g_1194>
    f7ca:	48 89 85 08 ef ff ff 	mov    %rax,-0x10f8(%rbp)
    f7d1:	48 8d 05 c4 5a 01 00 	lea    0x15ac4(%rip),%rax        # 2529c <g_1194>
    f7d8:	48 89 85 10 ef ff ff 	mov    %rax,-0x10f0(%rbp)
    f7df:	48 8d 05 b6 5a 01 00 	lea    0x15ab6(%rip),%rax        # 2529c <g_1194>
    f7e6:	48 89 85 18 ef ff ff 	mov    %rax,-0x10e8(%rbp)
    f7ed:	48 8d 05 a8 5a 01 00 	lea    0x15aa8(%rip),%rax        # 2529c <g_1194>
    f7f4:	48 89 85 20 ef ff ff 	mov    %rax,-0x10e0(%rbp)
    f7fb:	48 8d 05 9a 5a 01 00 	lea    0x15a9a(%rip),%rax        # 2529c <g_1194>
    f802:	48 89 85 28 ef ff ff 	mov    %rax,-0x10d8(%rbp)
    f809:	48 8d 05 8c 5a 01 00 	lea    0x15a8c(%rip),%rax        # 2529c <g_1194>
    f810:	48 89 85 30 ef ff ff 	mov    %rax,-0x10d0(%rbp)
    f817:	48 8d 05 a2 a3 01 00 	lea    0x1a3a2(%rip),%rax        # 29bc0 <g_2814>
    f81e:	48 89 85 60 ee ff ff 	mov    %rax,-0x11a0(%rbp)
    f825:	48 8d 05 fc 95 01 00 	lea    0x195fc(%rip),%rax        # 28e28 <g_858>
    f82c:	48 89 85 08 ee ff ff 	mov    %rax,-0x11f8(%rbp)
    f833:	48 c7 85 c0 f2 ff ff 	movq   $0x0,-0xd40(%rbp)
    f83a:	00 00 00 00 
    f83e:	48 8d 85 08 ee ff ff 	lea    -0x11f8(%rbp),%rax
    f845:	48 89 85 c8 f2 ff ff 	mov    %rax,-0xd38(%rbp)
    f84c:	48 8d 85 08 ee ff ff 	lea    -0x11f8(%rbp),%rax
    f853:	48 89 85 d0 f2 ff ff 	mov    %rax,-0xd30(%rbp)
    f85a:	48 8d 85 08 ee ff ff 	lea    -0x11f8(%rbp),%rax
    f861:	48 89 85 d8 f2 ff ff 	mov    %rax,-0xd28(%rbp)
    f868:	48 8d 85 08 ee ff ff 	lea    -0x11f8(%rbp),%rax
    f86f:	48 89 85 e0 f2 ff ff 	mov    %rax,-0xd20(%rbp)
    f876:	48 8d 85 08 ee ff ff 	lea    -0x11f8(%rbp),%rax
    f87d:	48 89 85 e8 f2 ff ff 	mov    %rax,-0xd18(%rbp)
    f884:	48 8d 85 08 ee ff ff 	lea    -0x11f8(%rbp),%rax
    f88b:	48 89 85 f0 f2 ff ff 	mov    %rax,-0xd10(%rbp)
    f892:	48 8d 85 08 ee ff ff 	lea    -0x11f8(%rbp),%rax
    f899:	48 89 85 f8 f2 ff ff 	mov    %rax,-0xd08(%rbp)
    f8a0:	48 c7 85 00 f3 ff ff 	movq   $0x0,-0xd00(%rbp)
    f8a7:	00 00 00 00 
    f8ab:	48 8d 85 08 ee ff ff 	lea    -0x11f8(%rbp),%rax
    f8b2:	48 89 85 08 f3 ff ff 	mov    %rax,-0xcf8(%rbp)
    f8b9:	48 c7 85 10 f3 ff ff 	movq   $0x0,-0xcf0(%rbp)
    f8c0:	00 00 00 00 
    f8c4:	48 8d 85 08 ee ff ff 	lea    -0x11f8(%rbp),%rax
    f8cb:	48 89 85 18 f3 ff ff 	mov    %rax,-0xce8(%rbp)
    f8d2:	48 8d 85 08 ee ff ff 	lea    -0x11f8(%rbp),%rax
    f8d9:	48 89 85 20 f3 ff ff 	mov    %rax,-0xce0(%rbp)
    f8e0:	48 8d 85 08 ee ff ff 	lea    -0x11f8(%rbp),%rax
    f8e7:	48 89 85 28 f3 ff ff 	mov    %rax,-0xcd8(%rbp)
    f8ee:	48 8d 85 08 ee ff ff 	lea    -0x11f8(%rbp),%rax
    f8f5:	48 89 85 30 f3 ff ff 	mov    %rax,-0xcd0(%rbp)
    f8fc:	48 8d 85 08 ee ff ff 	lea    -0x11f8(%rbp),%rax
    f903:	48 89 85 38 f3 ff ff 	mov    %rax,-0xcc8(%rbp)
    f90a:	48 8d 85 08 ee ff ff 	lea    -0x11f8(%rbp),%rax
    f911:	48 89 85 40 f3 ff ff 	mov    %rax,-0xcc0(%rbp)
    f918:	48 8d 85 08 ee ff ff 	lea    -0x11f8(%rbp),%rax
    f91f:	48 89 85 48 f3 ff ff 	mov    %rax,-0xcb8(%rbp)
    f926:	48 c7 85 50 f3 ff ff 	movq   $0x0,-0xcb0(%rbp)
    f92d:	00 00 00 00 
    f931:	48 8d 85 08 ee ff ff 	lea    -0x11f8(%rbp),%rax
    f938:	48 89 85 58 f3 ff ff 	mov    %rax,-0xca8(%rbp)
    f93f:	48 c7 85 60 f3 ff ff 	movq   $0x0,-0xca0(%rbp)
    f946:	00 00 00 00 
    f94a:	48 8d 85 08 ee ff ff 	lea    -0x11f8(%rbp),%rax
    f951:	48 89 85 68 f3 ff ff 	mov    %rax,-0xc98(%rbp)
    f958:	48 8d 85 08 ee ff ff 	lea    -0x11f8(%rbp),%rax
    f95f:	48 89 85 70 f3 ff ff 	mov    %rax,-0xc90(%rbp)
    f966:	48 8d 85 08 ee ff ff 	lea    -0x11f8(%rbp),%rax
    f96d:	48 89 85 78 f3 ff ff 	mov    %rax,-0xc88(%rbp)
    f974:	48 8d 85 08 ee ff ff 	lea    -0x11f8(%rbp),%rax
    f97b:	48 89 85 80 f3 ff ff 	mov    %rax,-0xc80(%rbp)
    f982:	48 8d 85 08 ee ff ff 	lea    -0x11f8(%rbp),%rax
    f989:	48 89 85 88 f3 ff ff 	mov    %rax,-0xc78(%rbp)
    f990:	48 8d 85 08 ee ff ff 	lea    -0x11f8(%rbp),%rax
    f997:	48 89 85 90 f3 ff ff 	mov    %rax,-0xc70(%rbp)
    f99e:	48 8d 85 08 ee ff ff 	lea    -0x11f8(%rbp),%rax
    f9a5:	48 89 85 98 f3 ff ff 	mov    %rax,-0xc68(%rbp)
    f9ac:	48 c7 85 a0 f3 ff ff 	movq   $0x0,-0xc60(%rbp)
    f9b3:	00 00 00 00 
    f9b7:	48 8d 85 08 ee ff ff 	lea    -0x11f8(%rbp),%rax
    f9be:	48 89 85 a8 f3 ff ff 	mov    %rax,-0xc58(%rbp)
    f9c5:	48 c7 85 b0 f3 ff ff 	movq   $0x0,-0xc50(%rbp)
    f9cc:	00 00 00 00 
    f9d0:	48 8d 85 08 ee ff ff 	lea    -0x11f8(%rbp),%rax
    f9d7:	48 89 85 b8 f3 ff ff 	mov    %rax,-0xc48(%rbp)
    f9de:	48 8d 85 08 ee ff ff 	lea    -0x11f8(%rbp),%rax
    f9e5:	48 89 85 c0 f3 ff ff 	mov    %rax,-0xc40(%rbp)
    f9ec:	48 8d 85 08 ee ff ff 	lea    -0x11f8(%rbp),%rax
    f9f3:	48 89 85 c8 f3 ff ff 	mov    %rax,-0xc38(%rbp)
    f9fa:	48 8d 85 08 ee ff ff 	lea    -0x11f8(%rbp),%rax
    fa01:	48 89 85 d0 f3 ff ff 	mov    %rax,-0xc30(%rbp)
    fa08:	48 8d 85 08 ee ff ff 	lea    -0x11f8(%rbp),%rax
    fa0f:	48 89 85 d8 f3 ff ff 	mov    %rax,-0xc28(%rbp)
    fa16:	48 8d 85 08 ee ff ff 	lea    -0x11f8(%rbp),%rax
    fa1d:	48 89 85 e0 f3 ff ff 	mov    %rax,-0xc20(%rbp)
    fa24:	48 8d 85 08 ee ff ff 	lea    -0x11f8(%rbp),%rax
    fa2b:	48 89 85 e8 f3 ff ff 	mov    %rax,-0xc18(%rbp)
    fa32:	48 c7 85 f0 f3 ff ff 	movq   $0x0,-0xc10(%rbp)
    fa39:	00 00 00 00 
    fa3d:	48 8d 85 08 ee ff ff 	lea    -0x11f8(%rbp),%rax
    fa44:	48 89 85 f8 f3 ff ff 	mov    %rax,-0xc08(%rbp)
    fa4b:	48 c7 85 00 f4 ff ff 	movq   $0x0,-0xc00(%rbp)
    fa52:	00 00 00 00 
    fa56:	48 8d 85 08 ee ff ff 	lea    -0x11f8(%rbp),%rax
    fa5d:	48 89 85 08 f4 ff ff 	mov    %rax,-0xbf8(%rbp)
    fa64:	48 8d 85 08 ee ff ff 	lea    -0x11f8(%rbp),%rax
    fa6b:	48 89 85 10 f4 ff ff 	mov    %rax,-0xbf0(%rbp)
    fa72:	48 8d 85 08 ee ff ff 	lea    -0x11f8(%rbp),%rax
    fa79:	48 89 85 18 f4 ff ff 	mov    %rax,-0xbe8(%rbp)
    fa80:	48 8d 85 08 ee ff ff 	lea    -0x11f8(%rbp),%rax
    fa87:	48 89 85 20 f4 ff ff 	mov    %rax,-0xbe0(%rbp)
    fa8e:	48 8d 85 08 ee ff ff 	lea    -0x11f8(%rbp),%rax
    fa95:	48 89 85 28 f4 ff ff 	mov    %rax,-0xbd8(%rbp)
    fa9c:	48 8d 85 08 ee ff ff 	lea    -0x11f8(%rbp),%rax
    faa3:	48 89 85 30 f4 ff ff 	mov    %rax,-0xbd0(%rbp)
    faaa:	48 8d 85 08 ee ff ff 	lea    -0x11f8(%rbp),%rax
    fab1:	48 89 85 38 f4 ff ff 	mov    %rax,-0xbc8(%rbp)
    fab8:	48 c7 85 40 f4 ff ff 	movq   $0x0,-0xbc0(%rbp)
    fabf:	00 00 00 00 
    fac3:	48 8d 85 08 ee ff ff 	lea    -0x11f8(%rbp),%rax
    faca:	48 89 85 48 f4 ff ff 	mov    %rax,-0xbb8(%rbp)
    fad1:	48 c7 85 50 f4 ff ff 	movq   $0x0,-0xbb0(%rbp)
    fad8:	00 00 00 00 
    fadc:	48 8d 85 08 ee ff ff 	lea    -0x11f8(%rbp),%rax
    fae3:	48 89 85 58 f4 ff ff 	mov    %rax,-0xba8(%rbp)
    faea:	48 8d 85 08 ee ff ff 	lea    -0x11f8(%rbp),%rax
    faf1:	48 89 85 60 f4 ff ff 	mov    %rax,-0xba0(%rbp)
    faf8:	48 8d 85 08 ee ff ff 	lea    -0x11f8(%rbp),%rax
    faff:	48 89 85 68 f4 ff ff 	mov    %rax,-0xb98(%rbp)
    fb06:	48 8d 85 08 ee ff ff 	lea    -0x11f8(%rbp),%rax
    fb0d:	48 89 85 70 f4 ff ff 	mov    %rax,-0xb90(%rbp)
    fb14:	48 8d 85 08 ee ff ff 	lea    -0x11f8(%rbp),%rax
    fb1b:	48 89 85 78 f4 ff ff 	mov    %rax,-0xb88(%rbp)
    fb22:	48 8d 85 08 ee ff ff 	lea    -0x11f8(%rbp),%rax
    fb29:	48 89 85 80 f4 ff ff 	mov    %rax,-0xb80(%rbp)
    fb30:	48 8d 85 08 ee ff ff 	lea    -0x11f8(%rbp),%rax
    fb37:	48 89 85 88 f4 ff ff 	mov    %rax,-0xb78(%rbp)
    fb3e:	48 c7 85 90 f4 ff ff 	movq   $0x0,-0xb70(%rbp)
    fb45:	00 00 00 00 
    fb49:	48 8d 85 08 ee ff ff 	lea    -0x11f8(%rbp),%rax
    fb50:	48 89 85 98 f4 ff ff 	mov    %rax,-0xb68(%rbp)
    fb57:	48 c7 85 a0 f4 ff ff 	movq   $0x0,-0xb60(%rbp)
    fb5e:	00 00 00 00 
    fb62:	48 8d 85 08 ee ff ff 	lea    -0x11f8(%rbp),%rax
    fb69:	48 89 85 a8 f4 ff ff 	mov    %rax,-0xb58(%rbp)
    fb70:	48 8d 85 08 ee ff ff 	lea    -0x11f8(%rbp),%rax
    fb77:	48 89 85 b0 f4 ff ff 	mov    %rax,-0xb50(%rbp)
    fb7e:	48 8d 85 08 ee ff ff 	lea    -0x11f8(%rbp),%rax
    fb85:	48 89 85 b8 f4 ff ff 	mov    %rax,-0xb48(%rbp)
    fb8c:	48 8d 85 08 ee ff ff 	lea    -0x11f8(%rbp),%rax
    fb93:	48 89 85 c0 f4 ff ff 	mov    %rax,-0xb40(%rbp)
    fb9a:	48 8d 85 08 ee ff ff 	lea    -0x11f8(%rbp),%rax
    fba1:	48 89 85 c8 f4 ff ff 	mov    %rax,-0xb38(%rbp)
    fba8:	48 8d 85 08 ee ff ff 	lea    -0x11f8(%rbp),%rax
    fbaf:	48 89 85 d0 f4 ff ff 	mov    %rax,-0xb30(%rbp)
    fbb6:	48 8d 85 08 ee ff ff 	lea    -0x11f8(%rbp),%rax
    fbbd:	48 89 85 d8 f4 ff ff 	mov    %rax,-0xb28(%rbp)
    fbc4:	48 c7 85 e0 f4 ff ff 	movq   $0x0,-0xb20(%rbp)
    fbcb:	00 00 00 00 
    fbcf:	48 8d 85 08 ee ff ff 	lea    -0x11f8(%rbp),%rax
    fbd6:	48 89 85 e8 f4 ff ff 	mov    %rax,-0xb18(%rbp)
    fbdd:	48 c7 85 f0 f4 ff ff 	movq   $0x0,-0xb10(%rbp)
    fbe4:	00 00 00 00 
    fbe8:	48 8d 85 08 ee ff ff 	lea    -0x11f8(%rbp),%rax
    fbef:	48 89 85 f8 f4 ff ff 	mov    %rax,-0xb08(%rbp)
    fbf6:	48 8d 85 08 ee ff ff 	lea    -0x11f8(%rbp),%rax
    fbfd:	48 89 85 00 f5 ff ff 	mov    %rax,-0xb00(%rbp)
    fc04:	48 8d 85 08 ee ff ff 	lea    -0x11f8(%rbp),%rax
    fc0b:	48 89 85 08 f5 ff ff 	mov    %rax,-0xaf8(%rbp)
    fc12:	48 8d 85 08 ee ff ff 	lea    -0x11f8(%rbp),%rax
    fc19:	48 89 85 10 f5 ff ff 	mov    %rax,-0xaf0(%rbp)
    fc20:	48 8d 85 08 ee ff ff 	lea    -0x11f8(%rbp),%rax
    fc27:	48 89 85 18 f5 ff ff 	mov    %rax,-0xae8(%rbp)
    fc2e:	48 8d 85 08 ee ff ff 	lea    -0x11f8(%rbp),%rax
    fc35:	48 89 85 20 f5 ff ff 	mov    %rax,-0xae0(%rbp)
    fc3c:	48 8d 85 08 ee ff ff 	lea    -0x11f8(%rbp),%rax
    fc43:	48 89 85 28 f5 ff ff 	mov    %rax,-0xad8(%rbp)
    fc4a:	48 c7 85 30 f5 ff ff 	movq   $0x0,-0xad0(%rbp)
    fc51:	00 00 00 00 
    fc55:	48 8d 85 08 ee ff ff 	lea    -0x11f8(%rbp),%rax
    fc5c:	48 89 85 38 f5 ff ff 	mov    %rax,-0xac8(%rbp)
    fc63:	48 c7 85 40 f5 ff ff 	movq   $0x0,-0xac0(%rbp)
    fc6a:	00 00 00 00 
    fc6e:	48 8d 85 08 ee ff ff 	lea    -0x11f8(%rbp),%rax
    fc75:	48 89 85 48 f5 ff ff 	mov    %rax,-0xab8(%rbp)
    fc7c:	48 8d 85 08 ee ff ff 	lea    -0x11f8(%rbp),%rax
    fc83:	48 89 85 50 f5 ff ff 	mov    %rax,-0xab0(%rbp)
    fc8a:	48 8d 85 08 ee ff ff 	lea    -0x11f8(%rbp),%rax
    fc91:	48 89 85 58 f5 ff ff 	mov    %rax,-0xaa8(%rbp)
    fc98:	48 8d 85 08 ee ff ff 	lea    -0x11f8(%rbp),%rax
    fc9f:	48 89 85 60 f5 ff ff 	mov    %rax,-0xaa0(%rbp)
    fca6:	48 8d 85 08 ee ff ff 	lea    -0x11f8(%rbp),%rax
    fcad:	48 89 85 68 f5 ff ff 	mov    %rax,-0xa98(%rbp)
    fcb4:	48 8d 85 08 ee ff ff 	lea    -0x11f8(%rbp),%rax
    fcbb:	48 89 85 70 f5 ff ff 	mov    %rax,-0xa90(%rbp)
    fcc2:	48 8d 85 08 ee ff ff 	lea    -0x11f8(%rbp),%rax
    fcc9:	48 89 85 78 f5 ff ff 	mov    %rax,-0xa88(%rbp)
    fcd0:	48 c7 85 80 f5 ff ff 	movq   $0x0,-0xa80(%rbp)
    fcd7:	00 00 00 00 
    fcdb:	48 8d 85 08 ee ff ff 	lea    -0x11f8(%rbp),%rax
    fce2:	48 89 85 88 f5 ff ff 	mov    %rax,-0xa78(%rbp)
    fce9:	48 c7 85 90 f5 ff ff 	movq   $0x0,-0xa70(%rbp)
    fcf0:	00 00 00 00 
    fcf4:	48 8d 85 08 ee ff ff 	lea    -0x11f8(%rbp),%rax
    fcfb:	48 89 85 98 f5 ff ff 	mov    %rax,-0xa68(%rbp)
    fd02:	48 8d 85 08 ee ff ff 	lea    -0x11f8(%rbp),%rax
    fd09:	48 89 85 a0 f5 ff ff 	mov    %rax,-0xa60(%rbp)
    fd10:	48 8d 85 08 ee ff ff 	lea    -0x11f8(%rbp),%rax
    fd17:	48 89 85 a8 f5 ff ff 	mov    %rax,-0xa58(%rbp)
    fd1e:	48 8d 85 08 ee ff ff 	lea    -0x11f8(%rbp),%rax
    fd25:	48 89 85 b0 f5 ff ff 	mov    %rax,-0xa50(%rbp)
    fd2c:	48 8d 85 08 ee ff ff 	lea    -0x11f8(%rbp),%rax
    fd33:	48 89 85 b8 f5 ff ff 	mov    %rax,-0xa48(%rbp)
    fd3a:	48 8d 85 08 ee ff ff 	lea    -0x11f8(%rbp),%rax
    fd41:	48 89 85 c0 f5 ff ff 	mov    %rax,-0xa40(%rbp)
    fd48:	48 8d 85 08 ee ff ff 	lea    -0x11f8(%rbp),%rax
    fd4f:	48 89 85 c8 f5 ff ff 	mov    %rax,-0xa38(%rbp)
    fd56:	48 c7 85 d0 f5 ff ff 	movq   $0x0,-0xa30(%rbp)
    fd5d:	00 00 00 00 
    fd61:	48 8d 85 08 ee ff ff 	lea    -0x11f8(%rbp),%rax
    fd68:	48 89 85 d8 f5 ff ff 	mov    %rax,-0xa28(%rbp)
    fd6f:	48 c7 85 e0 f5 ff ff 	movq   $0x0,-0xa20(%rbp)
    fd76:	00 00 00 00 
    fd7a:	48 8d 85 08 ee ff ff 	lea    -0x11f8(%rbp),%rax
    fd81:	48 89 85 e8 f5 ff ff 	mov    %rax,-0xa18(%rbp)
    fd88:	48 8d 85 08 ee ff ff 	lea    -0x11f8(%rbp),%rax
    fd8f:	48 89 85 f0 f5 ff ff 	mov    %rax,-0xa10(%rbp)
    fd96:	48 8d 85 08 ee ff ff 	lea    -0x11f8(%rbp),%rax
    fd9d:	48 89 85 f8 f5 ff ff 	mov    %rax,-0xa08(%rbp)
    fda4:	48 8d 85 08 ee ff ff 	lea    -0x11f8(%rbp),%rax
    fdab:	48 89 85 00 f6 ff ff 	mov    %rax,-0xa00(%rbp)
    fdb2:	48 8d 85 08 ee ff ff 	lea    -0x11f8(%rbp),%rax
    fdb9:	48 89 85 08 f6 ff ff 	mov    %rax,-0x9f8(%rbp)
    fdc0:	48 8d 85 08 ee ff ff 	lea    -0x11f8(%rbp),%rax
    fdc7:	48 89 85 10 f6 ff ff 	mov    %rax,-0x9f0(%rbp)
    fdce:	48 8d 85 08 ee ff ff 	lea    -0x11f8(%rbp),%rax
    fdd5:	48 89 85 18 f6 ff ff 	mov    %rax,-0x9e8(%rbp)
    fddc:	48 c7 85 20 f6 ff ff 	movq   $0x0,-0x9e0(%rbp)
    fde3:	00 00 00 00 
    fde7:	48 8d 85 08 ee ff ff 	lea    -0x11f8(%rbp),%rax
    fdee:	48 89 85 28 f6 ff ff 	mov    %rax,-0x9d8(%rbp)
    fdf5:	48 c7 85 30 f6 ff ff 	movq   $0x0,-0x9d0(%rbp)
    fdfc:	00 00 00 00 
    fe00:	48 8d 85 08 ee ff ff 	lea    -0x11f8(%rbp),%rax
    fe07:	48 89 85 38 f6 ff ff 	mov    %rax,-0x9c8(%rbp)
    fe0e:	48 8d 85 08 ee ff ff 	lea    -0x11f8(%rbp),%rax
    fe15:	48 89 85 40 f6 ff ff 	mov    %rax,-0x9c0(%rbp)
    fe1c:	48 8d 85 08 ee ff ff 	lea    -0x11f8(%rbp),%rax
    fe23:	48 89 85 48 f6 ff ff 	mov    %rax,-0x9b8(%rbp)
    fe2a:	48 8d 85 08 ee ff ff 	lea    -0x11f8(%rbp),%rax
    fe31:	48 89 85 50 f6 ff ff 	mov    %rax,-0x9b0(%rbp)
    fe38:	48 8d 85 08 ee ff ff 	lea    -0x11f8(%rbp),%rax
    fe3f:	48 89 85 58 f6 ff ff 	mov    %rax,-0x9a8(%rbp)
    fe46:	48 8d 85 08 ee ff ff 	lea    -0x11f8(%rbp),%rax
    fe4d:	48 89 85 60 f6 ff ff 	mov    %rax,-0x9a0(%rbp)
    fe54:	48 8d 85 08 ee ff ff 	lea    -0x11f8(%rbp),%rax
    fe5b:	48 89 85 68 f6 ff ff 	mov    %rax,-0x998(%rbp)
    fe62:	48 c7 85 70 f6 ff ff 	movq   $0x0,-0x990(%rbp)
    fe69:	00 00 00 00 
    fe6d:	48 c7 85 78 f6 ff ff 	movq   $0x0,-0x988(%rbp)
    fe74:	00 00 00 00 
    fe78:	48 8d 85 08 ee ff ff 	lea    -0x11f8(%rbp),%rax
    fe7f:	48 89 85 80 f6 ff ff 	mov    %rax,-0x980(%rbp)
    fe86:	48 8d 85 08 ee ff ff 	lea    -0x11f8(%rbp),%rax
    fe8d:	48 89 85 88 f6 ff ff 	mov    %rax,-0x978(%rbp)
    fe94:	48 c7 85 90 f6 ff ff 	movq   $0x0,-0x970(%rbp)
    fe9b:	00 00 00 00 
    fe9f:	48 8d 85 08 ee ff ff 	lea    -0x11f8(%rbp),%rax
    fea6:	48 89 85 98 f6 ff ff 	mov    %rax,-0x968(%rbp)
    fead:	48 8d 85 08 ee ff ff 	lea    -0x11f8(%rbp),%rax
    feb4:	48 89 85 a0 f6 ff ff 	mov    %rax,-0x960(%rbp)
    febb:	48 8d 85 08 ee ff ff 	lea    -0x11f8(%rbp),%rax
    fec2:	48 89 85 a8 f6 ff ff 	mov    %rax,-0x958(%rbp)
    fec9:	48 c7 85 b0 f6 ff ff 	movq   $0x0,-0x950(%rbp)
    fed0:	00 00 00 00 
    fed4:	48 8d 85 08 ee ff ff 	lea    -0x11f8(%rbp),%rax
    fedb:	48 89 85 b8 f6 ff ff 	mov    %rax,-0x948(%rbp)
    fee2:	48 8d 85 08 ee ff ff 	lea    -0x11f8(%rbp),%rax
    fee9:	48 89 85 c0 f6 ff ff 	mov    %rax,-0x940(%rbp)
    fef0:	48 c7 85 c8 f6 ff ff 	movq   $0x0,-0x938(%rbp)
    fef7:	00 00 00 00 
    fefb:	48 8d 85 08 ee ff ff 	lea    -0x11f8(%rbp),%rax
    ff02:	48 89 85 d0 f6 ff ff 	mov    %rax,-0x930(%rbp)
    ff09:	48 8d 85 08 ee ff ff 	lea    -0x11f8(%rbp),%rax
    ff10:	48 89 85 d8 f6 ff ff 	mov    %rax,-0x928(%rbp)
    ff17:	48 c7 85 e0 f6 ff ff 	movq   $0x0,-0x920(%rbp)
    ff1e:	00 00 00 00 
    ff22:	48 8d 85 08 ee ff ff 	lea    -0x11f8(%rbp),%rax
    ff29:	48 89 85 e8 f6 ff ff 	mov    %rax,-0x918(%rbp)
    ff30:	48 8d 85 08 ee ff ff 	lea    -0x11f8(%rbp),%rax
    ff37:	48 89 85 f0 f6 ff ff 	mov    %rax,-0x910(%rbp)
    ff3e:	48 8d 85 08 ee ff ff 	lea    -0x11f8(%rbp),%rax
    ff45:	48 89 85 f8 f6 ff ff 	mov    %rax,-0x908(%rbp)
    ff4c:	48 c7 85 00 f7 ff ff 	movq   $0x0,-0x900(%rbp)
    ff53:	00 00 00 00 
    ff57:	48 8d 85 08 ee ff ff 	lea    -0x11f8(%rbp),%rax
    ff5e:	48 89 85 08 f7 ff ff 	mov    %rax,-0x8f8(%rbp)
    ff65:	48 8d 85 08 ee ff ff 	lea    -0x11f8(%rbp),%rax
    ff6c:	48 89 85 10 f7 ff ff 	mov    %rax,-0x8f0(%rbp)
    ff73:	48 c7 85 18 f7 ff ff 	movq   $0x0,-0x8e8(%rbp)
    ff7a:	00 00 00 00 
    ff7e:	48 8d 85 08 ee ff ff 	lea    -0x11f8(%rbp),%rax
    ff85:	48 89 85 20 f7 ff ff 	mov    %rax,-0x8e0(%rbp)
    ff8c:	48 8d 85 08 ee ff ff 	lea    -0x11f8(%rbp),%rax
    ff93:	48 89 85 28 f7 ff ff 	mov    %rax,-0x8d8(%rbp)
    ff9a:	48 c7 85 30 f7 ff ff 	movq   $0x0,-0x8d0(%rbp)
    ffa1:	00 00 00 00 
    ffa5:	48 8d 85 08 ee ff ff 	lea    -0x11f8(%rbp),%rax
    ffac:	48 89 85 38 f7 ff ff 	mov    %rax,-0x8c8(%rbp)
    ffb3:	48 8d 85 08 ee ff ff 	lea    -0x11f8(%rbp),%rax
    ffba:	48 89 85 40 f7 ff ff 	mov    %rax,-0x8c0(%rbp)
    ffc1:	48 8d 85 08 ee ff ff 	lea    -0x11f8(%rbp),%rax
    ffc8:	48 89 85 48 f7 ff ff 	mov    %rax,-0x8b8(%rbp)
    ffcf:	48 c7 85 50 f7 ff ff 	movq   $0x0,-0x8b0(%rbp)
    ffd6:	00 00 00 00 
    ffda:	48 8d 85 08 ee ff ff 	lea    -0x11f8(%rbp),%rax
    ffe1:	48 89 85 58 f7 ff ff 	mov    %rax,-0x8a8(%rbp)
    ffe8:	48 8d 85 08 ee ff ff 	lea    -0x11f8(%rbp),%rax
    ffef:	48 89 85 60 f7 ff ff 	mov    %rax,-0x8a0(%rbp)
    fff6:	48 c7 85 68 f7 ff ff 	movq   $0x0,-0x898(%rbp)
    fffd:	00 00 00 00 
   10001:	48 8d 85 08 ee ff ff 	lea    -0x11f8(%rbp),%rax
   10008:	48 89 85 70 f7 ff ff 	mov    %rax,-0x890(%rbp)
   1000f:	48 8d 85 08 ee ff ff 	lea    -0x11f8(%rbp),%rax
   10016:	48 89 85 78 f7 ff ff 	mov    %rax,-0x888(%rbp)
   1001d:	48 c7 85 80 f7 ff ff 	movq   $0x0,-0x880(%rbp)
   10024:	00 00 00 00 
   10028:	48 8d 85 08 ee ff ff 	lea    -0x11f8(%rbp),%rax
   1002f:	48 89 85 88 f7 ff ff 	mov    %rax,-0x878(%rbp)
   10036:	48 8d 85 08 ee ff ff 	lea    -0x11f8(%rbp),%rax
   1003d:	48 89 85 90 f7 ff ff 	mov    %rax,-0x870(%rbp)
   10044:	48 8d 85 08 ee ff ff 	lea    -0x11f8(%rbp),%rax
   1004b:	48 89 85 98 f7 ff ff 	mov    %rax,-0x868(%rbp)
   10052:	48 c7 85 a0 f7 ff ff 	movq   $0x0,-0x860(%rbp)
   10059:	00 00 00 00 
   1005d:	48 8d 85 08 ee ff ff 	lea    -0x11f8(%rbp),%rax
   10064:	48 89 85 a8 f7 ff ff 	mov    %rax,-0x858(%rbp)
   1006b:	48 8d 85 08 ee ff ff 	lea    -0x11f8(%rbp),%rax
   10072:	48 89 85 b0 f7 ff ff 	mov    %rax,-0x850(%rbp)
   10079:	48 c7 85 b8 f7 ff ff 	movq   $0x0,-0x848(%rbp)
   10080:	00 00 00 00 
   10084:	48 8d 85 08 ee ff ff 	lea    -0x11f8(%rbp),%rax
   1008b:	48 89 85 c0 f7 ff ff 	mov    %rax,-0x840(%rbp)
   10092:	48 8d 85 08 ee ff ff 	lea    -0x11f8(%rbp),%rax
   10099:	48 89 85 c8 f7 ff ff 	mov    %rax,-0x838(%rbp)
   100a0:	48 c7 85 d0 f7 ff ff 	movq   $0x0,-0x830(%rbp)
   100a7:	00 00 00 00 
   100ab:	48 8d 85 08 ee ff ff 	lea    -0x11f8(%rbp),%rax
   100b2:	48 89 85 d8 f7 ff ff 	mov    %rax,-0x828(%rbp)
   100b9:	48 8d 85 08 ee ff ff 	lea    -0x11f8(%rbp),%rax
   100c0:	48 89 85 e0 f7 ff ff 	mov    %rax,-0x820(%rbp)
   100c7:	48 8d 85 08 ee ff ff 	lea    -0x11f8(%rbp),%rax
   100ce:	48 89 85 e8 f7 ff ff 	mov    %rax,-0x818(%rbp)
   100d5:	48 c7 85 f0 f7 ff ff 	movq   $0x0,-0x810(%rbp)
   100dc:	00 00 00 00 
   100e0:	48 8d 85 08 ee ff ff 	lea    -0x11f8(%rbp),%rax
   100e7:	48 89 85 f8 f7 ff ff 	mov    %rax,-0x808(%rbp)
   100ee:	48 8d 85 08 ee ff ff 	lea    -0x11f8(%rbp),%rax
   100f5:	48 89 85 00 f8 ff ff 	mov    %rax,-0x800(%rbp)
   100fc:	48 c7 85 08 f8 ff ff 	movq   $0x0,-0x7f8(%rbp)
   10103:	00 00 00 00 
   10107:	48 8d 85 08 ee ff ff 	lea    -0x11f8(%rbp),%rax
   1010e:	48 89 85 10 f8 ff ff 	mov    %rax,-0x7f0(%rbp)
   10115:	48 8d 85 08 ee ff ff 	lea    -0x11f8(%rbp),%rax
   1011c:	48 89 85 18 f8 ff ff 	mov    %rax,-0x7e8(%rbp)
   10123:	48 c7 85 20 f8 ff ff 	movq   $0x0,-0x7e0(%rbp)
   1012a:	00 00 00 00 
   1012e:	48 8d 85 08 ee ff ff 	lea    -0x11f8(%rbp),%rax
   10135:	48 89 85 28 f8 ff ff 	mov    %rax,-0x7d8(%rbp)
   1013c:	48 8d 85 08 ee ff ff 	lea    -0x11f8(%rbp),%rax
   10143:	48 89 85 30 f8 ff ff 	mov    %rax,-0x7d0(%rbp)
   1014a:	48 8d 85 08 ee ff ff 	lea    -0x11f8(%rbp),%rax
   10151:	48 89 85 38 f8 ff ff 	mov    %rax,-0x7c8(%rbp)
   10158:	48 c7 85 40 f8 ff ff 	movq   $0x0,-0x7c0(%rbp)
   1015f:	00 00 00 00 
   10163:	48 8d 85 08 ee ff ff 	lea    -0x11f8(%rbp),%rax
   1016a:	48 89 85 48 f8 ff ff 	mov    %rax,-0x7b8(%rbp)
   10171:	48 8d 85 08 ee ff ff 	lea    -0x11f8(%rbp),%rax
   10178:	48 89 85 50 f8 ff ff 	mov    %rax,-0x7b0(%rbp)
   1017f:	48 c7 85 58 f8 ff ff 	movq   $0x0,-0x7a8(%rbp)
   10186:	00 00 00 00 
   1018a:	48 8d 05 57 89 01 00 	lea    0x18957(%rip),%rax        # 28ae8 <g_429>
   10191:	48 89 85 10 ee ff ff 	mov    %rax,-0x11f0(%rbp)
   10198:	48 8d 85 10 ee ff ff 	lea    -0x11f0(%rbp),%rax
   1019f:	48 89 85 40 ef ff ff 	mov    %rax,-0x10c0(%rbp)
   101a6:	48 8d 85 10 ee ff ff 	lea    -0x11f0(%rbp),%rax
   101ad:	48 89 85 48 ef ff ff 	mov    %rax,-0x10b8(%rbp)
   101b4:	48 8d 85 10 ee ff ff 	lea    -0x11f0(%rbp),%rax
   101bb:	48 89 85 50 ef ff ff 	mov    %rax,-0x10b0(%rbp)
   101c2:	48 8d 85 10 ee ff ff 	lea    -0x11f0(%rbp),%rax
   101c9:	48 89 85 58 ef ff ff 	mov    %rax,-0x10a8(%rbp)
   101d0:	48 8d 85 10 ee ff ff 	lea    -0x11f0(%rbp),%rax
   101d7:	48 89 85 60 ef ff ff 	mov    %rax,-0x10a0(%rbp)
   101de:	48 8d 85 10 ee ff ff 	lea    -0x11f0(%rbp),%rax
   101e5:	48 89 85 68 ef ff ff 	mov    %rax,-0x1098(%rbp)
   101ec:	48 8d 85 10 ee ff ff 	lea    -0x11f0(%rbp),%rax
   101f3:	48 89 85 70 ef ff ff 	mov    %rax,-0x1090(%rbp)
   101fa:	c7 85 bc ed ff ff 00 	movl   $0x0,-0x1244(%rbp)
   10201:	00 00 00 
   10204:	eb 1a                	jmp    10220 <func_8+0xf80>
   10206:	8b 85 bc ed ff ff    	mov    -0x1244(%rbp),%eax
   1020c:	48 98                	cltq   
   1020e:	c7 84 85 74 ee ff ff 	movl   $0x1,-0x118c(%rbp,%rax,4)
   10215:	01 00 00 00 
   10219:	83 85 bc ed ff ff 01 	addl   $0x1,-0x1244(%rbp)
   10220:	83 bd bc ed ff ff 02 	cmpl   $0x2,-0x1244(%rbp)
   10227:	7e dd                	jle    10206 <func_8+0xf66>
   10229:	48 8b 05 f0 4f 01 00 	mov    0x14ff0(%rip),%rax        # 25220 <g_265>
   10230:	48 83 c0 01          	add    $0x1,%rax
   10234:	48 89 05 e5 4f 01 00 	mov    %rax,0x14fe5(%rip)        # 25220 <g_265>
   1023b:	48 8b 05 de 4f 01 00 	mov    0x14fde(%rip),%rax        # 25220 <g_265>
   10242:	48 83 f8 08          	cmp    $0x8,%rax
   10246:	0f 86 76 f3 ff ff    	jbe    f5c2 <func_8+0x322>
   1024c:	c6 05 46 4f 01 00 f0 	movb   $0xf0,0x14f46(%rip)        # 25199 <g_93>
   10253:	e9 c3 00 00 00       	jmpq   1031b <func_8+0x107b>
   10258:	48 8b 85 98 ed ff ff 	mov    -0x1268(%rbp),%rax
   1025f:	8b 00                	mov    (%rax),%eax
   10261:	85 c0                	test   %eax,%eax
   10263:	74 4b                	je     102b0 <func_8+0x1010>
   10265:	48 c7 85 30 ee ff ff 	movq   $0x0,-0x11d0(%rbp)
   1026c:	00 00 00 00 
   10270:	48 8b 05 e1 98 01 00 	mov    0x198e1(%rip),%rax        # 29b58 <g_2527>
   10277:	48 8b 00             	mov    (%rax),%rax
   1027a:	48 8b 00             	mov    (%rax),%rax
   1027d:	48 8d 95 b4 ed ff ff 	lea    -0x124c(%rbp),%rdx
   10284:	48 89 10             	mov    %rdx,(%rax)
   10287:	48 8b 00             	mov    (%rax),%rax
   1028a:	48 89 85 30 ee ff ff 	mov    %rax,-0x11d0(%rbp)
   10291:	be 05 00 00 00       	mov    $0x5,%esi
   10296:	bf d8 01 00 00       	mov    $0x1d8,%edi
   1029b:	e8 da db ff ff       	callq  de7a <safe_rshift_func_uint16_t_u_u>
   102a0:	89 c2                	mov    %eax,%edx
   102a2:	48 8b 05 57 7a 01 00 	mov    0x17a57(%rip),%rax        # 27d00 <g_16>
   102a9:	0f b7 d2             	movzwl %dx,%edx
   102ac:	89 10                	mov    %edx,(%rax)
   102ae:	eb 4e                	jmp    102fe <func_8+0x105e>
   102b0:	48 8b 05 11 80 01 00 	mov    0x18011(%rip),%rax        # 282c8 <g_60>
   102b7:	48 8b 00             	mov    (%rax),%rax
   102ba:	8b 08                	mov    (%rax),%ecx
   102bc:	0f b7 05 0f 21 01 00 	movzwl 0x1210f(%rip),%eax        # 223d2 <l_2877.4282+0x2>
   102c3:	0f b7 d0             	movzwl %ax,%edx
   102c6:	48 8b 05 fb 7f 01 00 	mov    0x17ffb(%rip),%rax        # 282c8 <g_60>
   102cd:	48 8b 00             	mov    (%rax),%rax
   102d0:	31 ca                	xor    %ecx,%edx
   102d2:	89 10                	mov    %edx,(%rax)
   102d4:	48 8b 05 85 98 01 00 	mov    0x19885(%rip),%rax        # 29b60 <g_2584>
   102db:	48 8b 00             	mov    (%rax),%rax
   102de:	48 8b 00             	mov    (%rax),%rax
   102e1:	8b 08                	mov    (%rax),%ecx
   102e3:	0f b7 05 ee 20 01 00 	movzwl 0x120ee(%rip),%eax        # 223d8 <l_2877.4282+0x8>
   102ea:	0f b7 d0             	movzwl %ax,%edx
   102ed:	48 8b 05 6c 98 01 00 	mov    0x1986c(%rip),%rax        # 29b60 <g_2584>
   102f4:	48 8b 00             	mov    (%rax),%rax
   102f7:	48 8b 00             	mov    (%rax),%rax
   102fa:	31 ca                	xor    %ecx,%edx
   102fc:	89 10                	mov    %edx,(%rax)
   102fe:	0f b6 05 94 4e 01 00 	movzbl 0x14e94(%rip),%eax        # 25199 <g_93>
   10305:	0f b6 c0             	movzbl %al,%eax
   10308:	be 01 00 00 00       	mov    $0x1,%esi
   1030d:	48 89 c7             	mov    %rax,%rdi
   10310:	e8 2c d5 ff ff       	callq  d841 <safe_add_func_int64_t_s_s>
   10315:	88 05 7e 4e 01 00    	mov    %al,0x14e7e(%rip)        # 25199 <g_93>
   1031b:	0f b6 05 77 4e 01 00 	movzbl 0x14e77(%rip),%eax        # 25199 <g_93>
   10322:	3c 3a                	cmp    $0x3a,%al
   10324:	0f 86 2e ff ff ff    	jbe    10258 <func_8+0xfb8>
   1032a:	48 8b 05 2f 98 01 00 	mov    0x1982f(%rip),%rax        # 29b60 <g_2584>
   10331:	48 8b 00             	mov    (%rax),%rax
   10334:	48 8b 00             	mov    (%rax),%rax
   10337:	8b 08                	mov    (%rax),%ecx
   10339:	48 83 bd 28 ee ff ff 	cmpq   $0x0,-0x11d8(%rbp)
   10340:	00 
   10341:	0f 94 c0             	sete   %al
   10344:	0f b6 d0             	movzbl %al,%edx
   10347:	48 8b 05 12 98 01 00 	mov    0x19812(%rip),%rax        # 29b60 <g_2584>
   1034e:	48 8b 00             	mov    (%rax),%rax
   10351:	48 8b 00             	mov    (%rax),%rax
   10354:	31 ca                	xor    %ecx,%edx
   10356:	89 10                	mov    %edx,(%rax)
   10358:	48 8b 85 98 ed ff ff 	mov    -0x1268(%rbp),%rax
   1035f:	48 8b 75 f8          	mov    -0x8(%rbp),%rsi
   10363:	64 48 33 34 25 28 00 	xor    %fs:0x28,%rsi
   1036a:	00 00 
   1036c:	74 05                	je     10373 <func_8+0x10d3>
   1036e:	e8 fd cc ff ff       	callq  d070 <__stack_chk_fail@plt>
   10373:	c9                   	leaveq 
   10374:	c3                   	retq   

0000000000010375 <func_13>:
   10375:	f3 0f 1e fa          	endbr64 
   10379:	55                   	push   %rbp
   1037a:	48 89 e5             	mov    %rsp,%rbp
   1037d:	41 57                	push   %r15
   1037f:	41 56                	push   %r14
   10381:	41 55                	push   %r13
   10383:	41 54                	push   %r12
   10385:	53                   	push   %rbx
   10386:	48 81 ec 00 10 00 00 	sub    $0x1000,%rsp
   1038d:	48 83 0c 24 00       	orq    $0x0,(%rsp)
   10392:	48 81 ec 18 01 00 00 	sub    $0x118,%rsp
   10399:	48 89 bd d8 ee ff ff 	mov    %rdi,-0x1128(%rbp)
   103a0:	89 f0                	mov    %esi,%eax
   103a2:	66 89 85 d4 ee ff ff 	mov    %ax,-0x112c(%rbp)
   103a9:	64 48 8b 04 25 28 00 	mov    %fs:0x28,%rax
   103b0:	00 00 
   103b2:	48 89 45 c8          	mov    %rax,-0x38(%rbp)
   103b6:	31 c0                	xor    %eax,%eax
   103b8:	c7 85 f8 ee ff ff a8 	movl   $0xdc6606a8,-0x1108(%rbp)
   103bf:	06 66 dc 
   103c2:	48 b8 70 cf db 4a 6b 	movabs $0x69f8c36b4adbcf70,%rax
   103c9:	c3 f8 69 
   103cc:	48 89 85 e0 ef ff ff 	mov    %rax,-0x1020(%rbp)
   103d3:	48 8d 05 0e 87 01 00 	lea    0x1870e(%rip),%rax        # 28ae8 <g_429>
   103da:	48 89 85 d0 f2 ff ff 	mov    %rax,-0xd30(%rbp)
   103e1:	48 8d 05 00 87 01 00 	lea    0x18700(%rip),%rax        # 28ae8 <g_429>
   103e8:	48 89 85 d8 f2 ff ff 	mov    %rax,-0xd28(%rbp)
   103ef:	48 8d 05 f2 86 01 00 	lea    0x186f2(%rip),%rax        # 28ae8 <g_429>
   103f6:	48 89 85 e0 f2 ff ff 	mov    %rax,-0xd20(%rbp)
   103fd:	48 8d 05 e4 86 01 00 	lea    0x186e4(%rip),%rax        # 28ae8 <g_429>
   10404:	48 89 85 e8 f2 ff ff 	mov    %rax,-0xd18(%rbp)
   1040b:	48 8d 05 d6 86 01 00 	lea    0x186d6(%rip),%rax        # 28ae8 <g_429>
   10412:	48 89 85 f0 f2 ff ff 	mov    %rax,-0xd10(%rbp)
   10419:	48 8d 05 c8 86 01 00 	lea    0x186c8(%rip),%rax        # 28ae8 <g_429>
   10420:	48 89 85 f8 f2 ff ff 	mov    %rax,-0xd08(%rbp)
   10427:	48 8d 05 ba 86 01 00 	lea    0x186ba(%rip),%rax        # 28ae8 <g_429>
   1042e:	48 89 85 00 f3 ff ff 	mov    %rax,-0xd00(%rbp)
   10435:	48 8d 05 ac 86 01 00 	lea    0x186ac(%rip),%rax        # 28ae8 <g_429>
   1043c:	48 89 85 08 f3 ff ff 	mov    %rax,-0xcf8(%rbp)
   10443:	48 8d 05 9e 86 01 00 	lea    0x1869e(%rip),%rax        # 28ae8 <g_429>
   1044a:	48 89 85 10 f3 ff ff 	mov    %rax,-0xcf0(%rbp)
   10451:	48 8d 85 d0 f2 ff ff 	lea    -0xd30(%rbp),%rax
   10458:	48 83 c0 28          	add    $0x28,%rax
   1045c:	48 89 85 e8 ef ff ff 	mov    %rax,-0x1018(%rbp)
   10463:	48 8d 05 16 9c 01 00 	lea    0x19c16(%rip),%rax        # 2a080 <g_346>
   1046a:	48 89 85 f0 ef ff ff 	mov    %rax,-0x1010(%rbp)
   10471:	48 8d 05 21 4d 01 00 	lea    0x14d21(%rip),%rax        # 25199 <g_93>
   10478:	48 89 85 f8 ef ff ff 	mov    %rax,-0x1008(%rbp)
   1047f:	c7 85 40 ef ff ff b8 	movl   $0x3cfd7b8,-0x10c0(%rbp)
   10486:	d7 cf 03 
   10489:	48 b8 01 5e ea 70 00 	movabs $0x35643d0070ea5e01,%rax
   10490:	3d 64 35 
   10493:	48 89 85 b0 f3 ff ff 	mov    %rax,-0xc50(%rbp)
   1049a:	66 c7 85 b8 f3 ff ff 	movw   $0xaf3,-0xc48(%rbp)
   104a1:	f3 0a 
   104a3:	48 b8 ca ff d8 70 4f 	movabs $0xf8008a4f70d8ffca,%rax
   104aa:	8a 00 f8 
   104ad:	48 89 85 ba f3 ff ff 	mov    %rax,-0xc46(%rbp)
   104b4:	66 c7 85 c2 f3 ff ff 	movw   $0x100,-0xc3e(%rbp)
   104bb:	00 01 
   104bd:	48 b8 7e 35 3d 07 ac 	movabs $0x8c1fdac073d357e,%rax
   104c4:	fd c1 08 
   104c7:	48 89 85 c4 f3 ff ff 	mov    %rax,-0xc3c(%rbp)
   104ce:	66 c7 85 cc f3 ff ff 	movw   $0xfd70,-0xc34(%rbp)
   104d5:	70 fd 
   104d7:	48 b8 d8 08 01 f8 ff 	movabs $0x10800fff80108d8,%rax
   104de:	00 08 01 
   104e1:	48 89 85 ce f3 ff ff 	mov    %rax,-0xc32(%rbp)
   104e8:	66 c7 85 d6 f3 ff ff 	movw   $0xc101,-0xc2a(%rbp)
   104ef:	01 c1 
   104f1:	48 b8 5e 0a ac 08 8f 	movabs $0x8f01018f08ac0a5e,%rax
   104f8:	01 01 8f 
   104fb:	48 89 85 d8 f3 ff ff 	mov    %rax,-0xc28(%rbp)
   10502:	66 c7 85 e0 f3 ff ff 	movw   $0xac08,-0xc20(%rbp)
   10509:	08 ac 
   1050b:	48 b8 8a 8a 00 ea 08 	movabs $0x7e080108ea008a8a,%rax
   10512:	01 08 7e 
   10515:	48 89 85 e2 f3 ff ff 	mov    %rax,-0xc1e(%rbp)
   1051c:	66 c7 85 ea f3 ff ff 	movw   $0xffea,-0xc16(%rbp)
   10523:	ea ff 
   10525:	48 b8 64 ea ff 08 ff 	movabs $0xfd08ffff08ffea64,%rax
   1052c:	ff 08 fd 
   1052f:	48 89 85 ec f3 ff ff 	mov    %rax,-0xc14(%rbp)
   10536:	66 c7 85 f4 f3 ff ff 	movw   $0xd800,-0xc0c(%rbp)
   1053d:	00 d8 
   1053f:	48 b8 3d 8a 00 64 ff 	movabs $0xea01c1ff64008a3d,%rax
   10546:	c1 01 ea 
   10549:	48 89 85 f6 f3 ff ff 	mov    %rax,-0xc0a(%rbp)
   10550:	66 c7 85 fe f3 ff ff 	movw   $0x130,-0xc02(%rbp)
   10557:	30 01 
   10559:	48 b8 fd 0a 00 01 e0 	movabs $0x5e08f3e001000afd,%rax
   10560:	f3 08 5e 
   10563:	48 89 85 00 f4 ff ff 	mov    %rax,-0xc00(%rbp)
   1056a:	66 c7 85 08 f4 ff ff 	movw   $0x7eff,-0xbf8(%rbp)
   10571:	ff 7e 
   10573:	48 b8 7e 08 01 00 00 	movabs $0x64c101000001087e,%rax
   1057a:	01 c1 64 
   1057d:	48 89 85 0a f4 ff ff 	mov    %rax,-0xbf6(%rbp)
   10584:	66 c7 85 12 f4 ff ff 	movw   $0x1c1,-0xbee(%rbp)
   1058b:	c1 01 
   1058d:	48 b8 01 35 07 35 01 	movabs $0x4f00010135073501,%rax
   10594:	01 00 4f 
   10597:	48 89 85 14 f4 ff ff 	mov    %rax,-0xbec(%rbp)
   1059e:	66 c7 85 1c f4 ff ff 	movw   $0xb000,-0xbe4(%rbp)
   105a5:	00 b0 
   105a7:	48 b8 ea 70 00 3d 64 	movabs $0xaf335643d0070ea,%rax
   105ae:	35 f3 0a 
   105b1:	48 89 85 1e f4 ff ff 	mov    %rax,-0xbe2(%rbp)
   105b8:	66 c7 85 26 f4 ff ff 	movw   $0xb008,-0xbda(%rbp)
   105bf:	08 b0 
   105c1:	48 b8 01 3d fd 01 01 	movabs $0x17eff0101fd3d01,%rax
   105c8:	ff 7e 01 
   105cb:	48 89 85 28 f4 ff ff 	mov    %rax,-0xbd8(%rbp)
   105d2:	66 c7 85 30 f4 ff ff 	movw   $0x8d8,-0xbd0(%rbp)
   105d9:	d8 08 
   105db:	48 b8 01 c1 00 5e ff 	movabs $0xf48a01ff5e00c101,%rax
   105e2:	01 8a f4 
   105e5:	48 89 85 32 f4 ff ff 	mov    %rax,-0xbce(%rbp)
   105ec:	66 c7 85 3a f4 ff ff 	movw   $0x9447,-0xbc6(%rbp)
   105f3:	47 94 
   105f5:	48 b8 01 00 f2 08 ff 	movabs $0x5e0a01ff08f20001,%rax
   105fc:	01 0a 5e 
   105ff:	48 89 85 3c f4 ff ff 	mov    %rax,-0xbc4(%rbp)
   10606:	66 c7 85 44 f4 ff ff 	movw   $0xfdfd,-0xbbc(%rbp)
   1060d:	fd fd 
   1060f:	48 b8 ff 01 8a 01 01 	movabs $0xff018a01018a01ff,%rax
   10616:	8a 01 ff 
   10619:	48 89 85 46 f4 ff ff 	mov    %rax,-0xbba(%rbp)
   10620:	66 c7 85 4e f4 ff ff 	movw   $0x1,-0xbb2(%rbp)
   10627:	01 00 
   10629:	48 b8 d8 8a ea fd 01 	movabs $0x7001ac01fdea8ad8,%rax
   10630:	ac 01 70 
   10633:	48 89 85 50 f4 ff ff 	mov    %rax,-0xbb0(%rbp)
   1063a:	66 c7 85 58 f4 ff ff 	movw   $0x100,-0xba8(%rbp)
   10641:	00 01 
   10643:	48 b8 08 01 ea 01 0a 	movabs $0xff30700a01ea0108,%rax
   1064a:	70 30 ff 
   1064d:	48 89 85 5a f4 ff ff 	mov    %rax,-0xba6(%rbp)
   10654:	66 c7 85 62 f4 ff ff 	movw   $0xff7e,-0xb9e(%rbp)
   1065b:	7e ff 
   1065d:	48 b8 ea 47 8a 00 0a 	movabs $0x5e01300a008a47ea,%rax
   10664:	30 01 5e 
   10667:	48 89 85 64 f4 ff ff 	mov    %rax,-0xb9c(%rbp)
   1066e:	66 c7 85 6c f4 ff ff 	movw   $0x8ff4,-0xb94(%rbp)
   10675:	f4 8f 
   10677:	48 b8 01 0a f2 8f 70 	movabs $0xf46400708ff20a01,%rax
   1067e:	00 64 f4 
   10681:	48 89 85 6e f4 ff ff 	mov    %rax,-0xb92(%rbp)
   10688:	66 c7 85 76 f4 ff ff 	movw   $0xff,-0xb8a(%rbp)
   1068f:	ff 00 
   10691:	48 b8 f4 08 00 01 ff 	movabs $0x1fffdff010008f4,%rax
   10698:	fd ff 01 
   1069b:	48 89 85 78 f4 ff ff 	mov    %rax,-0xb88(%rbp)
   106a2:	66 c7 85 80 f4 ff ff 	movw   $0x800,-0xb80(%rbp)
   106a9:	00 08 
   106ab:	48 b8 f8 d8 fd 01 01 	movabs $0xa00010101fdd8f8,%rax
   106b2:	01 00 0a 
   106b5:	48 89 85 82 f4 ff ff 	mov    %rax,-0xb7e(%rbp)
   106bc:	66 c7 85 8a f4 ff ff 	movw   $0xea,-0xb76(%rbp)
   106c3:	ea 00 
   106c5:	48 b8 01 00 00 30 5e 	movabs $0x1f2015e30000001,%rax
   106cc:	01 f2 01 
   106cf:	48 89 85 8c f4 ff ff 	mov    %rax,-0xb74(%rbp)
   106d6:	66 c7 85 94 f4 ff ff 	movw   $0xffac,-0xb6c(%rbp)
   106dd:	ac ff 
   106df:	48 b8 f8 01 f4 01 7e 	movabs $0xf3fffd7e01f401f8,%rax
   106e6:	fd ff f3 
   106e9:	48 89 85 96 f4 ff ff 	mov    %rax,-0xb6a(%rbp)
   106f0:	66 c7 85 9e f4 ff ff 	movw   $0xa07,-0xb62(%rbp)
   106f7:	07 0a 
   106f9:	48 8d 05 c8 7b 01 00 	lea    0x17bc8(%rip),%rax        # 282c8 <g_60>
   10700:	48 89 85 98 ef ff ff 	mov    %rax,-0x1068(%rbp)
   10707:	48 c7 85 00 f0 ff ff 	movq   $0xfffffffffffffffb,-0x1000(%rbp)
   1070e:	fb ff ff ff 
   10712:	48 8d 05 5f 8e 01 00 	lea    0x18e5f(%rip),%rax        # 29578 <g_1557+0x38>
   10719:	48 89 85 a0 ef ff ff 	mov    %rax,-0x1060(%rbp)
   10720:	48 8d 05 01 87 01 00 	lea    0x18701(%rip),%rax        # 28e28 <g_858>
   10727:	48 89 85 20 f3 ff ff 	mov    %rax,-0xce0(%rbp)
   1072e:	48 8d 05 f3 86 01 00 	lea    0x186f3(%rip),%rax        # 28e28 <g_858>
   10735:	48 89 85 28 f3 ff ff 	mov    %rax,-0xcd8(%rbp)
   1073c:	48 8d 05 e5 86 01 00 	lea    0x186e5(%rip),%rax        # 28e28 <g_858>
   10743:	48 89 85 30 f3 ff ff 	mov    %rax,-0xcd0(%rbp)
   1074a:	48 8d 05 d7 86 01 00 	lea    0x186d7(%rip),%rax        # 28e28 <g_858>
   10751:	48 89 85 38 f3 ff ff 	mov    %rax,-0xcc8(%rbp)
   10758:	48 8d 05 c9 86 01 00 	lea    0x186c9(%rip),%rax        # 28e28 <g_858>
   1075f:	48 89 85 40 f3 ff ff 	mov    %rax,-0xcc0(%rbp)
   10766:	48 8d 05 bb 86 01 00 	lea    0x186bb(%rip),%rax        # 28e28 <g_858>
   1076d:	48 89 85 48 f3 ff ff 	mov    %rax,-0xcb8(%rbp)
   10774:	48 8d 05 ad 86 01 00 	lea    0x186ad(%rip),%rax        # 28e28 <g_858>
   1077b:	48 89 85 50 f3 ff ff 	mov    %rax,-0xcb0(%rbp)
   10782:	48 8d 05 9f 86 01 00 	lea    0x1869f(%rip),%rax        # 28e28 <g_858>
   10789:	48 89 85 58 f3 ff ff 	mov    %rax,-0xca8(%rbp)
   10790:	48 8d 05 91 86 01 00 	lea    0x18691(%rip),%rax        # 28e28 <g_858>
   10797:	48 89 85 60 f3 ff ff 	mov    %rax,-0xca0(%rbp)
   1079e:	48 8d 05 83 86 01 00 	lea    0x18683(%rip),%rax        # 28e28 <g_858>
   107a5:	48 89 85 68 f3 ff ff 	mov    %rax,-0xc98(%rbp)
   107ac:	48 8d 05 75 86 01 00 	lea    0x18675(%rip),%rax        # 28e28 <g_858>
   107b3:	48 89 85 70 f3 ff ff 	mov    %rax,-0xc90(%rbp)
   107ba:	48 8d 05 67 86 01 00 	lea    0x18667(%rip),%rax        # 28e28 <g_858>
   107c1:	48 89 85 78 f3 ff ff 	mov    %rax,-0xc88(%rbp)
   107c8:	48 8d 05 59 86 01 00 	lea    0x18659(%rip),%rax        # 28e28 <g_858>
   107cf:	48 89 85 80 f3 ff ff 	mov    %rax,-0xc80(%rbp)
   107d6:	48 8d 05 4b 86 01 00 	lea    0x1864b(%rip),%rax        # 28e28 <g_858>
   107dd:	48 89 85 88 f3 ff ff 	mov    %rax,-0xc78(%rbp)
   107e4:	48 8d 05 3d 86 01 00 	lea    0x1863d(%rip),%rax        # 28e28 <g_858>
   107eb:	48 89 85 90 f3 ff ff 	mov    %rax,-0xc70(%rbp)
   107f2:	48 8d 05 2f 86 01 00 	lea    0x1862f(%rip),%rax        # 28e28 <g_858>
   107f9:	48 89 85 98 f3 ff ff 	mov    %rax,-0xc68(%rbp)
   10800:	48 8d 05 21 86 01 00 	lea    0x18621(%rip),%rax        # 28e28 <g_858>
   10807:	48 89 85 a0 f3 ff ff 	mov    %rax,-0xc60(%rbp)
   1080e:	48 8d 05 13 86 01 00 	lea    0x18613(%rip),%rax        # 28e28 <g_858>
   10815:	48 89 85 a8 f3 ff ff 	mov    %rax,-0xc58(%rbp)
   1081c:	48 8d 85 60 f1 ff ff 	lea    -0xea0(%rbp),%rax
   10823:	48 83 c0 0c          	add    $0xc,%rax
   10827:	48 89 85 a8 ef ff ff 	mov    %rax,-0x1058(%rbp)
   1082e:	48 8d 85 a8 ef ff ff 	lea    -0x1058(%rbp),%rax
   10835:	48 89 85 90 f6 ff ff 	mov    %rax,-0x970(%rbp)
   1083c:	48 8d 85 a8 ef ff ff 	lea    -0x1058(%rbp),%rax
   10843:	48 89 85 98 f6 ff ff 	mov    %rax,-0x968(%rbp)
   1084a:	48 8d 85 a8 ef ff ff 	lea    -0x1058(%rbp),%rax
   10851:	48 89 85 a0 f6 ff ff 	mov    %rax,-0x960(%rbp)
   10858:	48 8d 85 a8 ef ff ff 	lea    -0x1058(%rbp),%rax
   1085f:	48 89 85 a8 f6 ff ff 	mov    %rax,-0x958(%rbp)
   10866:	48 8d 85 a8 ef ff ff 	lea    -0x1058(%rbp),%rax
   1086d:	48 89 85 b0 f6 ff ff 	mov    %rax,-0x950(%rbp)
   10874:	48 c7 85 b8 f6 ff ff 	movq   $0x0,-0x948(%rbp)
   1087b:	00 00 00 00 
   1087f:	48 8d 85 a8 ef ff ff 	lea    -0x1058(%rbp),%rax
   10886:	48 89 85 c0 f6 ff ff 	mov    %rax,-0x940(%rbp)
   1088d:	48 8d 85 a8 ef ff ff 	lea    -0x1058(%rbp),%rax
   10894:	48 89 85 c8 f6 ff ff 	mov    %rax,-0x938(%rbp)
   1089b:	48 8d 85 a8 ef ff ff 	lea    -0x1058(%rbp),%rax
   108a2:	48 89 85 d0 f6 ff ff 	mov    %rax,-0x930(%rbp)
   108a9:	48 8d 85 a8 ef ff ff 	lea    -0x1058(%rbp),%rax
   108b0:	48 89 85 d8 f6 ff ff 	mov    %rax,-0x928(%rbp)
   108b7:	48 8d 85 a8 ef ff ff 	lea    -0x1058(%rbp),%rax
   108be:	48 89 85 e0 f6 ff ff 	mov    %rax,-0x920(%rbp)
   108c5:	48 c7 85 e8 f6 ff ff 	movq   $0x0,-0x918(%rbp)
   108cc:	00 00 00 00 
   108d0:	48 c7 85 f0 f6 ff ff 	movq   $0x0,-0x910(%rbp)
   108d7:	00 00 00 00 
   108db:	48 8d 85 a8 ef ff ff 	lea    -0x1058(%rbp),%rax
   108e2:	48 89 85 f8 f6 ff ff 	mov    %rax,-0x908(%rbp)
   108e9:	48 8d 85 a8 ef ff ff 	lea    -0x1058(%rbp),%rax
   108f0:	48 89 85 00 f7 ff ff 	mov    %rax,-0x900(%rbp)
   108f7:	48 c7 85 08 f7 ff ff 	movq   $0x0,-0x8f8(%rbp)
   108fe:	00 00 00 00 
   10902:	48 c7 85 10 f7 ff ff 	movq   $0x0,-0x8f0(%rbp)
   10909:	00 00 00 00 
   1090d:	48 c7 85 18 f7 ff ff 	movq   $0x0,-0x8e8(%rbp)
   10914:	00 00 00 00 
   10918:	48 8d 85 a8 ef ff ff 	lea    -0x1058(%rbp),%rax
   1091f:	48 89 85 20 f7 ff ff 	mov    %rax,-0x8e0(%rbp)
   10926:	48 8d 85 a8 ef ff ff 	lea    -0x1058(%rbp),%rax
   1092d:	48 89 85 28 f7 ff ff 	mov    %rax,-0x8d8(%rbp)
   10934:	48 c7 85 30 f7 ff ff 	movq   $0x0,-0x8d0(%rbp)
   1093b:	00 00 00 00 
   1093f:	48 8d 85 a8 ef ff ff 	lea    -0x1058(%rbp),%rax
   10946:	48 89 85 38 f7 ff ff 	mov    %rax,-0x8c8(%rbp)
   1094d:	48 8d 85 a8 ef ff ff 	lea    -0x1058(%rbp),%rax
   10954:	48 89 85 40 f7 ff ff 	mov    %rax,-0x8c0(%rbp)
   1095b:	48 c7 85 48 f7 ff ff 	movq   $0x0,-0x8b8(%rbp)
   10962:	00 00 00 00 
   10966:	48 c7 85 50 f7 ff ff 	movq   $0x0,-0x8b0(%rbp)
   1096d:	00 00 00 00 
   10971:	48 8d 85 a8 ef ff ff 	lea    -0x1058(%rbp),%rax
   10978:	48 89 85 58 f7 ff ff 	mov    %rax,-0x8a8(%rbp)
   1097f:	48 c7 85 60 f7 ff ff 	movq   $0x0,-0x8a0(%rbp)
   10986:	00 00 00 00 
   1098a:	48 8d 85 a8 ef ff ff 	lea    -0x1058(%rbp),%rax
   10991:	48 89 85 68 f7 ff ff 	mov    %rax,-0x898(%rbp)
   10998:	48 8d 85 a8 ef ff ff 	lea    -0x1058(%rbp),%rax
   1099f:	48 89 85 70 f7 ff ff 	mov    %rax,-0x890(%rbp)
   109a6:	48 8d 85 a8 ef ff ff 	lea    -0x1058(%rbp),%rax
   109ad:	48 89 85 78 f7 ff ff 	mov    %rax,-0x888(%rbp)
   109b4:	48 c7 85 80 f7 ff ff 	movq   $0x0,-0x880(%rbp)
   109bb:	00 00 00 00 
   109bf:	48 8d 85 a8 ef ff ff 	lea    -0x1058(%rbp),%rax
   109c6:	48 89 85 88 f7 ff ff 	mov    %rax,-0x878(%rbp)
   109cd:	48 8d 85 a8 ef ff ff 	lea    -0x1058(%rbp),%rax
   109d4:	48 89 85 90 f7 ff ff 	mov    %rax,-0x870(%rbp)
   109db:	48 c7 85 98 f7 ff ff 	movq   $0x0,-0x868(%rbp)
   109e2:	00 00 00 00 
   109e6:	48 8d 85 a8 ef ff ff 	lea    -0x1058(%rbp),%rax
   109ed:	48 89 85 a0 f7 ff ff 	mov    %rax,-0x860(%rbp)
   109f4:	48 8d 85 a8 ef ff ff 	lea    -0x1058(%rbp),%rax
   109fb:	48 89 85 a8 f7 ff ff 	mov    %rax,-0x858(%rbp)
   10a02:	48 8d 85 a8 ef ff ff 	lea    -0x1058(%rbp),%rax
   10a09:	48 89 85 b0 f7 ff ff 	mov    %rax,-0x850(%rbp)
   10a10:	48 c7 85 b8 f7 ff ff 	movq   $0x0,-0x848(%rbp)
   10a17:	00 00 00 00 
   10a1b:	48 8d 85 a8 ef ff ff 	lea    -0x1058(%rbp),%rax
   10a22:	48 89 85 c0 f7 ff ff 	mov    %rax,-0x840(%rbp)
   10a29:	48 8d 85 a8 ef ff ff 	lea    -0x1058(%rbp),%rax
   10a30:	48 89 85 c8 f7 ff ff 	mov    %rax,-0x838(%rbp)
   10a37:	48 8d 85 90 f6 ff ff 	lea    -0x970(%rbp),%rax
   10a3e:	48 83 c0 28          	add    $0x28,%rax
   10a42:	48 89 85 50 f2 ff ff 	mov    %rax,-0xdb0(%rbp)
   10a49:	48 8d 85 90 f6 ff ff 	lea    -0x970(%rbp),%rax
   10a50:	48 83 c0 28          	add    $0x28,%rax
   10a54:	48 89 85 58 f2 ff ff 	mov    %rax,-0xda8(%rbp)
   10a5b:	48 8d 85 90 f6 ff ff 	lea    -0x970(%rbp),%rax
   10a62:	48 83 c0 28          	add    $0x28,%rax
   10a66:	48 89 85 60 f2 ff ff 	mov    %rax,-0xda0(%rbp)
   10a6d:	48 8d 85 90 f6 ff ff 	lea    -0x970(%rbp),%rax
   10a74:	48 83 c0 28          	add    $0x28,%rax
   10a78:	48 89 85 68 f2 ff ff 	mov    %rax,-0xd98(%rbp)
   10a7f:	48 8d 85 90 f6 ff ff 	lea    -0x970(%rbp),%rax
   10a86:	48 83 c0 28          	add    $0x28,%rax
   10a8a:	48 89 85 70 f2 ff ff 	mov    %rax,-0xd90(%rbp)
   10a91:	48 8d 85 90 f6 ff ff 	lea    -0x970(%rbp),%rax
   10a98:	48 83 c0 28          	add    $0x28,%rax
   10a9c:	48 89 85 78 f2 ff ff 	mov    %rax,-0xd88(%rbp)
   10aa3:	48 8d 85 90 f6 ff ff 	lea    -0x970(%rbp),%rax
   10aaa:	48 83 c0 28          	add    $0x28,%rax
   10aae:	48 89 85 80 f2 ff ff 	mov    %rax,-0xd80(%rbp)
   10ab5:	c7 85 08 ef ff ff 00 	movl   $0x0,-0x10f8(%rbp)
   10abc:	00 00 00 
   10abf:	eb 19                	jmp    10ada <func_13+0x765>
   10ac1:	8b 85 08 ef ff ff    	mov    -0x10f8(%rbp),%eax
   10ac7:	48 98                	cltq   
   10ac9:	66 c7 84 45 60 f1 ff 	movw   $0x66ef,-0xea0(%rbp,%rax,2)
   10ad0:	ff ef 66 
   10ad3:	83 85 08 ef ff ff 01 	addl   $0x1,-0x10f8(%rbp)
   10ada:	83 bd 08 ef ff ff 07 	cmpl   $0x7,-0x10f8(%rbp)
   10ae1:	7e de                	jle    10ac1 <func_13+0x74c>
   10ae3:	c7 85 08 ef ff ff 00 	movl   $0x0,-0x10f8(%rbp)
   10aea:	00 00 00 
   10aed:	eb 1a                	jmp    10b09 <func_13+0x794>
   10aef:	8b 85 08 ef ff ff    	mov    -0x10f8(%rbp),%eax
   10af5:	48 98                	cltq   
   10af7:	c7 84 85 10 f2 ff ff 	movl   $0x0,-0xdf0(%rbp,%rax,4)
   10afe:	00 00 00 00 
   10b02:	83 85 08 ef ff ff 01 	addl   $0x1,-0x10f8(%rbp)
   10b09:	83 bd 08 ef ff ff 06 	cmpl   $0x6,-0x10f8(%rbp)
   10b10:	7e dd                	jle    10aef <func_13+0x77a>
   10b12:	c7 85 08 ef ff ff 00 	movl   $0x0,-0x10f8(%rbp)
   10b19:	00 00 00 
   10b1c:	eb 21                	jmp    10b3f <func_13+0x7ca>
   10b1e:	8b 85 08 ef ff ff    	mov    -0x10f8(%rbp),%eax
   10b24:	48 98                	cltq   
   10b26:	48 bb 46 6a d9 19 80 	movabs $0x44a4b08019d96a46,%rbx
   10b2d:	b0 a4 44 
   10b30:	48 89 9c c5 50 f1 ff 	mov    %rbx,-0xeb0(%rbp,%rax,8)
   10b37:	ff 
   10b38:	83 85 08 ef ff ff 01 	addl   $0x1,-0x10f8(%rbp)
   10b3f:	83 bd 08 ef ff ff 00 	cmpl   $0x0,-0x10f8(%rbp)
   10b46:	7e d6                	jle    10b1e <func_13+0x7a9>
   10b48:	c7 85 08 ef ff ff 00 	movl   $0x0,-0x10f8(%rbp)
   10b4f:	00 00 00 
   10b52:	eb 46                	jmp    10b9a <func_13+0x825>
   10b54:	c7 85 0c ef ff ff 00 	movl   $0x0,-0x10f4(%rbp)
   10b5b:	00 00 00 
   10b5e:	eb 2a                	jmp    10b8a <func_13+0x815>
   10b60:	8b 85 0c ef ff ff    	mov    -0x10f4(%rbp),%eax
   10b66:	48 63 d0             	movslq %eax,%rdx
   10b69:	8b 85 08 ef ff ff    	mov    -0x10f8(%rbp),%eax
   10b6f:	48 98                	cltq   
   10b71:	48 01 d0             	add    %rdx,%rax
   10b74:	48 8d 15 cd 89 01 00 	lea    0x189cd(%rip),%rdx        # 29548 <g_1557+0x8>
   10b7b:	48 89 94 c5 58 f1 ff 	mov    %rdx,-0xea8(%rbp,%rax,8)
   10b82:	ff 
   10b83:	83 85 0c ef ff ff 01 	addl   $0x1,-0x10f4(%rbp)
   10b8a:	83 bd 0c ef ff ff 00 	cmpl   $0x0,-0x10f4(%rbp)
   10b91:	7e cd                	jle    10b60 <func_13+0x7eb>
   10b93:	83 85 08 ef ff ff 01 	addl   $0x1,-0x10f8(%rbp)
   10b9a:	83 bd 08 ef ff ff 00 	cmpl   $0x0,-0x10f8(%rbp)
   10ba1:	7e b1                	jle    10b54 <func_13+0x7df>
   10ba3:	c7 85 08 ef ff ff 00 	movl   $0x0,-0x10f8(%rbp)
   10baa:	00 00 00 
   10bad:	eb 1e                	jmp    10bcd <func_13+0x858>
   10baf:	8b 85 08 ef ff ff    	mov    -0x10f8(%rbp),%eax
   10bb5:	48 98                	cltq   
   10bb7:	48 8d 15 82 89 01 00 	lea    0x18982(%rip),%rdx        # 29540 <g_1557>
   10bbe:	48 89 94 c5 90 f1 ff 	mov    %rdx,-0xe70(%rbp,%rax,8)
   10bc5:	ff 
   10bc6:	83 85 08 ef ff ff 01 	addl   $0x1,-0x10f8(%rbp)
   10bcd:	83 bd 08 ef ff ff 02 	cmpl   $0x2,-0x10f8(%rbp)
   10bd4:	7e d9                	jle    10baf <func_13+0x83a>
   10bd6:	0f b7 85 6c f1 ff ff 	movzwl -0xe94(%rbp),%eax
   10bdd:	66 85 c0             	test   %ax,%ax
   10be0:	0f 84 bb 21 00 00    	je     12da1 <func_13+0x2a2c>
   10be6:	66 c7 85 f0 ee ff ff 	movw   $0xfd99,-0x1110(%rbp)
   10bed:	99 fd 
   10bef:	48 8d 05 92 45 01 00 	lea    0x14592(%rip),%rax        # 25188 <g_63>
   10bf6:	48 89 85 48 f0 ff ff 	mov    %rax,-0xfb8(%rbp)
   10bfd:	c7 85 fc ee ff ff ff 	movl   $0xffffffff,-0x1104(%rbp)
   10c04:	ff ff ff 
   10c07:	48 8d 85 60 f1 ff ff 	lea    -0xea0(%rbp),%rax
   10c0e:	48 83 c0 0c          	add    $0xc,%rax
   10c12:	48 89 85 50 f0 ff ff 	mov    %rax,-0xfb0(%rbp)
   10c19:	48 8d 05 b8 46 01 00 	lea    0x146b8(%rip),%rax        # 252d8 <g_1688>
   10c20:	48 89 85 90 f5 ff ff 	mov    %rax,-0xa70(%rbp)
   10c27:	48 8d 05 aa 46 01 00 	lea    0x146aa(%rip),%rax        # 252d8 <g_1688>
   10c2e:	48 89 85 98 f5 ff ff 	mov    %rax,-0xa68(%rbp)
   10c35:	48 8d 05 9c 46 01 00 	lea    0x1469c(%rip),%rax        # 252d8 <g_1688>
   10c3c:	48 89 85 a0 f5 ff ff 	mov    %rax,-0xa60(%rbp)
   10c43:	48 8d 05 8e 46 01 00 	lea    0x1468e(%rip),%rax        # 252d8 <g_1688>
   10c4a:	48 89 85 a8 f5 ff ff 	mov    %rax,-0xa58(%rbp)
   10c51:	48 8d 05 80 46 01 00 	lea    0x14680(%rip),%rax        # 252d8 <g_1688>
   10c58:	48 89 85 b0 f5 ff ff 	mov    %rax,-0xa50(%rbp)
   10c5f:	48 8d 05 72 46 01 00 	lea    0x14672(%rip),%rax        # 252d8 <g_1688>
   10c66:	48 89 85 b8 f5 ff ff 	mov    %rax,-0xa48(%rbp)
   10c6d:	48 8d 05 64 46 01 00 	lea    0x14664(%rip),%rax        # 252d8 <g_1688>
   10c74:	48 89 85 c0 f5 ff ff 	mov    %rax,-0xa40(%rbp)
   10c7b:	48 8d 05 56 46 01 00 	lea    0x14656(%rip),%rax        # 252d8 <g_1688>
   10c82:	48 89 85 c8 f5 ff ff 	mov    %rax,-0xa38(%rbp)
   10c89:	48 8d 05 48 46 01 00 	lea    0x14648(%rip),%rax        # 252d8 <g_1688>
   10c90:	48 89 85 d0 f5 ff ff 	mov    %rax,-0xa30(%rbp)
   10c97:	48 8d 05 3a 46 01 00 	lea    0x1463a(%rip),%rax        # 252d8 <g_1688>
   10c9e:	48 89 85 d8 f5 ff ff 	mov    %rax,-0xa28(%rbp)
   10ca5:	c7 85 00 ef ff ff 51 	movl   $0x7e6e1851,-0x1100(%rbp)
   10cac:	18 6e 7e 
   10caf:	48 8d 05 e6 44 01 00 	lea    0x144e6(%rip),%rax        # 2519c <g_104>
   10cb6:	48 89 85 d0 ef ff ff 	mov    %rax,-0x1030(%rbp)
   10cbd:	48 8d 05 64 7e 01 00 	lea    0x17e64(%rip),%rax        # 28b28 <g_486>
   10cc4:	48 89 85 58 f0 ff ff 	mov    %rax,-0xfa8(%rbp)
   10ccb:	48 c7 85 60 f0 ff ff 	movq   $0x0,-0xfa0(%rbp)
   10cd2:	00 00 00 00 
   10cd6:	c7 85 04 ef ff ff 38 	movl   $0x79732138,-0x10fc(%rbp)
   10cdd:	21 73 79 
   10ce0:	c7 85 10 ef ff ff 00 	movl   $0x0,-0x10f0(%rbp)
   10ce7:	00 00 00 
   10cea:	48 8d 05 df 73 01 00 	lea    0x173df(%rip),%rax        # 280d0 <g_42+0x3b0>
   10cf1:	48 89 85 b0 ef ff ff 	mov    %rax,-0x1050(%rbp)
   10cf8:	48 8d 85 b0 ef ff ff 	lea    -0x1050(%rbp),%rax
   10cff:	48 89 85 b8 ef ff ff 	mov    %rax,-0x1048(%rbp)
   10d06:	c7 85 b0 f1 ff ff 30 	movl   $0xbc4d6030,-0xe50(%rbp)
   10d0d:	60 4d bc 
   10d10:	c7 85 b4 f1 ff ff 92 	movl   $0x8f840392,-0xe4c(%rbp)
   10d17:	03 84 8f 
   10d1a:	c7 85 b8 f1 ff ff 92 	movl   $0x8f840392,-0xe48(%rbp)
   10d21:	03 84 8f 
   10d24:	c7 85 bc f1 ff ff 30 	movl   $0xbc4d6030,-0xe44(%rbp)
   10d2b:	60 4d bc 
   10d2e:	c7 85 c0 f1 ff ff 92 	movl   $0x8f840392,-0xe40(%rbp)
   10d35:	03 84 8f 
   10d38:	c7 85 c4 f1 ff ff 92 	movl   $0x8f840392,-0xe3c(%rbp)
   10d3f:	03 84 8f 
   10d42:	48 c7 85 d8 ee ff ff 	movq   $0x0,-0x1128(%rbp)
   10d49:	00 00 00 00 
   10d4d:	0f b7 85 6c f1 ff ff 	movzwl -0xe94(%rbp),%eax
   10d54:	66 83 f8 01          	cmp    $0x1,%ax
   10d58:	41 0f 96 c4          	setbe  %r12b
   10d5c:	48 8b 05 7d 82 01 00 	mov    0x1827d(%rip),%rax        # 28fe0 <g_1078>
   10d63:	0f b7 00             	movzwl (%rax),%eax
   10d66:	0f b7 d8             	movzwl %ax,%ebx
   10d69:	0f b7 85 60 f1 ff ff 	movzwl -0xea0(%rbp),%eax
   10d70:	41 89 c5             	mov    %eax,%r13d
   10d73:	0f bf 95 d4 ee ff ff 	movswl -0x112c(%rbp),%edx
   10d7a:	0f bf 85 f0 ee ff ff 	movswl -0x1110(%rbp),%eax
   10d81:	89 d6                	mov    %edx,%esi
   10d83:	89 c7                	mov    %eax,%edi
   10d85:	e8 46 d1 ff ff       	callq  ded0 <safe_sub_func_uint32_t_u_u>
   10d8a:	44 21 e8             	and    %r13d,%eax
   10d8d:	0f b7 c0             	movzwl %ax,%eax
   10d90:	89 de                	mov    %ebx,%esi
   10d92:	89 c7                	mov    %eax,%edi
   10d94:	e8 86 cf ff ff       	callq  dd1f <safe_sub_func_uint16_t_u_u>
   10d99:	0f b7 d0             	movzwl %ax,%edx
   10d9c:	48 8b 85 48 f0 ff ff 	mov    -0xfb8(%rbp),%rax
   10da3:	48 89 10             	mov    %rdx,(%rax)
   10da6:	48 8b 85 48 f0 ff ff 	mov    -0xfb8(%rbp),%rax
   10dad:	48 8b 00             	mov    (%rax),%rax
   10db0:	48 85 c0             	test   %rax,%rax
   10db3:	0f 94 c0             	sete   %al
   10db6:	0f b6 c0             	movzbl %al,%eax
   10db9:	89 c6                	mov    %eax,%esi
   10dbb:	bf ff ff ff ff       	mov    $0xffffffff,%edi
   10dc0:	e8 30 c6 ff ff       	callq  d3f5 <safe_mul_func_int16_t_s_s>
   10dc5:	c7 85 fc ee ff ff 00 	movl   $0x0,-0x1104(%rbp)
   10dcc:	00 00 00 
   10dcf:	8b 85 fc ee ff ff    	mov    -0x1104(%rbp),%eax
   10dd5:	48 98                	cltq   
   10dd7:	48 be 18 77 d3 74 79 	movabs $0xf6f6d77974d37718,%rsi
   10dde:	d7 f6 f6 
   10de1:	48 89 c7             	mov    %rax,%rdi
   10de4:	e8 58 ca ff ff       	callq  d841 <safe_add_func_int64_t_s_s>
   10de9:	48 85 c0             	test   %rax,%rax
   10dec:	0f 95 c0             	setne  %al
   10def:	0f b6 d0             	movzbl %al,%edx
   10df2:	0f bf 85 d4 ee ff ff 	movswl -0x112c(%rbp),%eax
   10df9:	09 c2                	or     %eax,%edx
   10dfb:	48 8b 05 fe 6e 01 00 	mov    0x16efe(%rip),%rax        # 27d00 <g_16>
   10e02:	8b 00                	mov    (%rax),%eax
   10e04:	89 d6                	mov    %edx,%esi
   10e06:	89 c7                	mov    %eax,%edi
   10e08:	e8 f2 c8 ff ff       	callq  d6ff <safe_div_func_int32_t_s_s>
   10e0d:	66 83 bd d4 ee ff ff 	cmpw   $0x0,-0x112c(%rbp)
   10e14:	00 
   10e15:	75 14                	jne    10e2b <func_13+0xab6>
   10e17:	66 83 bd d4 ee ff ff 	cmpw   $0x0,-0x112c(%rbp)
   10e1e:	00 
   10e1f:	75 0a                	jne    10e2b <func_13+0xab6>
   10e21:	66 83 bd f0 ee ff ff 	cmpw   $0x0,-0x1110(%rbp)
   10e28:	00 
   10e29:	74 07                	je     10e32 <func_13+0xabd>
   10e2b:	b8 01 00 00 00       	mov    $0x1,%eax
   10e30:	eb 05                	jmp    10e37 <func_13+0xac2>
   10e32:	b8 00 00 00 00       	mov    $0x0,%eax
   10e37:	66 25 f5 1b          	and    $0x1bf5,%ax
   10e3b:	66 0b 85 f0 ee ff ff 	or     -0x1110(%rbp),%ax
   10e42:	98                   	cwtl   
   10e43:	89 c7                	mov    %eax,%edi
   10e45:	e8 53 c5 ff ff       	callq  d39d <safe_unary_minus_func_int16_t_s>
   10e4a:	48 b8 c4 ec 9b 3e 96 	movabs $0x7fa52e963e9becc4,%rax
   10e51:	2e a5 7f 
   10e54:	48 89 05 c5 43 01 00 	mov    %rax,0x143c5(%rip)        # 25220 <g_265>
   10e5b:	48 8b 15 be 43 01 00 	mov    0x143be(%rip),%rdx        # 25220 <g_265>
   10e62:	48 8b 05 47 44 01 00 	mov    0x14447(%rip),%rax        # 252b0 <g_1456>
   10e69:	48 39 c2             	cmp    %rax,%rdx
   10e6c:	0f 95 c0             	setne  %al
   10e6f:	44 31 e0             	xor    %r12d,%eax
   10e72:	0f b6 d0             	movzbl %al,%edx
   10e75:	0f b7 85 f0 ee ff ff 	movzwl -0x1110(%rbp),%eax
   10e7c:	0f be c0             	movsbl %al,%eax
   10e7f:	89 d6                	mov    %edx,%esi
   10e81:	89 c7                	mov    %eax,%edi
   10e83:	e8 4c c3 ff ff       	callq  d1d4 <safe_add_func_int8_t_s_s>
   10e88:	84 c0                	test   %al,%al
   10e8a:	75 0a                	jne    10e96 <func_13+0xb21>
   10e8c:	0f b7 85 6c f1 ff ff 	movzwl -0xe94(%rbp),%eax
   10e93:	66 85 c0             	test   %ax,%ax
   10e96:	66 83 bd d4 ee ff ff 	cmpw   $0x0,-0x112c(%rbp)
   10e9d:	00 
   10e9e:	75 0a                	jne    10eaa <func_13+0xb35>
   10ea0:	66 83 bd d4 ee ff ff 	cmpw   $0x0,-0x112c(%rbp)
   10ea7:	00 
   10ea8:	74 07                	je     10eb1 <func_13+0xb3c>
   10eaa:	b8 01 00 00 00       	mov    $0x1,%eax
   10eaf:	eb 05                	jmp    10eb6 <func_13+0xb41>
   10eb1:	b8 00 00 00 00       	mov    $0x0,%eax
   10eb6:	89 c2                	mov    %eax,%edx
   10eb8:	48 8b 85 50 f0 ff ff 	mov    -0xfb0(%rbp),%rax
   10ebf:	66 89 10             	mov    %dx,(%rax)
   10ec2:	48 8b 85 50 f0 ff ff 	mov    -0xfb0(%rbp),%rax
   10ec9:	0f b7 00             	movzwl (%rax),%eax
   10ecc:	98                   	cwtl   
   10ecd:	89 85 f8 ee ff ff    	mov    %eax,-0x1108(%rbp)
   10ed3:	8b 85 f8 ee ff ff    	mov    -0x1108(%rbp),%eax
   10ed9:	89 85 00 ef ff ff    	mov    %eax,-0x1100(%rbp)
   10edf:	0f bf 95 f0 ee ff ff 	movswl -0x1110(%rbp),%edx
   10ee6:	8b 85 00 ef ff ff    	mov    -0x1100(%rbp),%eax
   10eec:	39 c2                	cmp    %eax,%edx
   10eee:	0f 9f c2             	setg   %dl
   10ef1:	48 8b 05 08 6e 01 00 	mov    0x16e08(%rip),%rax        # 27d00 <g_16>
   10ef8:	0f b6 d2             	movzbl %dl,%edx
   10efb:	89 10                	mov    %edx,(%rax)
   10efd:	c7 05 1d 41 01 00 00 	movl   $0x0,0x1411d(%rip)        # 25024 <g_17>
   10f04:	00 00 00 
   10f07:	e9 5e 04 00 00       	jmpq   1136a <func_13+0xff5>
   10f0c:	48 8d 05 f5 42 01 00 	lea    0x142f5(%rip),%rax        # 25208 <g_133+0x48>
   10f13:	48 89 85 68 f0 ff ff 	mov    %rax,-0xf98(%rbp)
   10f1a:	48 8d 05 af 71 01 00 	lea    0x171af(%rip),%rax        # 280d0 <g_42+0x3b0>
   10f21:	48 89 85 c0 ef ff ff 	mov    %rax,-0x1040(%rbp)
   10f28:	48 8d 05 91 91 01 00 	lea    0x19191(%rip),%rax        # 2a0c0 <g_1806>
   10f2f:	48 89 85 70 f0 ff ff 	mov    %rax,-0xf90(%rbp)
   10f36:	c7 85 14 ef ff ff 06 	movl   $0x6,-0x10ec(%rbp)
   10f3d:	00 00 00 
   10f40:	c7 85 18 ef ff ff 00 	movl   $0x0,-0x10e8(%rbp)
   10f47:	00 00 00 
   10f4a:	eb 1e                	jmp    10f6a <func_13+0xbf5>
   10f4c:	8b 85 18 ef ff ff    	mov    -0x10e8(%rbp),%eax
   10f52:	48 98                	cltq   
   10f54:	48 8d 95 c0 ef ff ff 	lea    -0x1040(%rbp),%rdx
   10f5b:	48 89 94 c5 d0 f7 ff 	mov    %rdx,-0x830(%rbp,%rax,8)
   10f62:	ff 
   10f63:	83 85 18 ef ff ff 01 	addl   $0x1,-0x10e8(%rbp)
   10f6a:	83 bd 18 ef ff ff 02 	cmpl   $0x2,-0x10e8(%rbp)
   10f71:	7e d9                	jle    10f4c <func_13+0xbd7>
   10f73:	8b 85 f8 ee ff ff    	mov    -0x1108(%rbp),%eax
   10f79:	85 c0                	test   %eax,%eax
   10f7b:	0f 85 fa 03 00 00    	jne    1137b <func_13+0x1006>
   10f81:	c7 85 f8 ee ff ff 00 	movl   $0x0,-0x1108(%rbp)
   10f88:	00 00 00 
   10f8b:	e9 bc 03 00 00       	jmpq   1134c <func_13+0xfd7>
   10f90:	48 8d 05 8d 40 01 00 	lea    0x1408d(%rip),%rax        # 25024 <g_17>
   10f97:	48 89 85 78 f0 ff ff 	mov    %rax,-0xf88(%rbp)
   10f9e:	48 c7 85 80 f0 ff ff 	movq   $0x0,-0xf80(%rbp)
   10fa5:	00 00 00 00 
   10fa9:	48 8d 05 48 80 01 00 	lea    0x18048(%rip),%rax        # 28ff8 <g_1205>
   10fb0:	48 89 85 c8 ef ff ff 	mov    %rax,-0x1038(%rbp)
   10fb7:	48 8d 85 c8 ef ff ff 	lea    -0x1038(%rbp),%rax
   10fbe:	48 89 85 88 f0 ff ff 	mov    %rax,-0xf78(%rbp)
   10fc5:	48 8b 85 68 f0 ff ff 	mov    -0xf98(%rbp),%rax
   10fcc:	48 89 85 d0 ef ff ff 	mov    %rax,-0x1030(%rbp)
   10fd3:	c6 05 be 41 01 00 fb 	movb   $0xfb,0x141be(%rip)        # 25198 <g_77>
   10fda:	90                   	nop
   10fdb:	0f b6 05 b6 41 01 00 	movzbl 0x141b6(%rip),%eax        # 25198 <g_77>
   10fe2:	3c f9                	cmp    $0xf9,%al
   10fe4:	0f 8c 75 01 00 00    	jl     1115f <func_13+0xdea>
   10fea:	48 0f bf 9d d4 ee ff 	movswq -0x112c(%rbp),%rbx
   10ff1:	ff 
   10ff2:	48 8b 85 68 f0 ff ff 	mov    -0xf98(%rbp),%rax
   10ff9:	44 8b 20             	mov    (%rax),%r12d
   10ffc:	48 8b 85 50 f0 ff ff 	mov    -0xfb0(%rbp),%rax
   11003:	66 c7 00 fe ff       	movw   $0xfffe,(%rax)
   11008:	48 8b 85 d0 ef ff ff 	mov    -0x1030(%rbp),%rax
   1100f:	8b 00                	mov    (%rax),%eax
   11011:	0f b6 c0             	movzbl %al,%eax
   11014:	be 06 00 00 00       	mov    $0x6,%esi
   11019:	89 c7                	mov    %eax,%edi
   1101b:	e8 73 cb ff ff       	callq  db93 <safe_mul_func_uint8_t_u_u>
   11020:	0f be c0             	movsbl %al,%eax
   11023:	89 c7                	mov    %eax,%edi
   11025:	e8 95 c1 ff ff       	callq  d1bf <safe_unary_minus_func_int8_t_s>
   1102a:	0f be c0             	movsbl %al,%eax
   1102d:	83 e0 fe             	and    $0xfffffffe,%eax
   11030:	83 f8 01             	cmp    $0x1,%eax
   11033:	0f 97 c0             	seta   %al
   11036:	0f b6 d0             	movzbl %al,%edx
   11039:	48 8b 85 78 f0 ff ff 	mov    -0xf88(%rbp),%rax
   11040:	48 3b 85 d8 ee ff ff 	cmp    -0x1128(%rbp),%rax
   11047:	0f 95 c0             	setne  %al
   1104a:	0f b6 c0             	movzbl %al,%eax
   1104d:	89 d6                	mov    %edx,%esi
   1104f:	89 c7                	mov    %eax,%edi
   11051:	e8 c9 cc ff ff       	callq  dd1f <safe_sub_func_uint16_t_u_u>
   11056:	0f be d0             	movsbl %al,%edx
   11059:	48 8b 85 d0 f7 ff ff 	mov    -0x830(%rbp),%rax
   11060:	48 85 c0             	test   %rax,%rax
   11063:	0f 94 c0             	sete   %al
   11066:	0f b6 c0             	movzbl %al,%eax
   11069:	89 d6                	mov    %edx,%esi
   1106b:	89 c7                	mov    %eax,%edi
   1106d:	e8 a0 c1 ff ff       	callq  d212 <safe_mul_func_int8_t_s_s>
   11072:	66 98                	cbtw   
   11074:	0f b7 c0             	movzwl %ax,%eax
   11077:	be 7e 4d 00 00       	mov    $0x4d7e,%esi
   1107c:	89 c7                	mov    %eax,%edi
   1107e:	e8 d9 cc ff ff       	callq  dd5c <safe_mod_func_uint16_t_u_u>
   11083:	66 85 c0             	test   %ax,%ax
   11086:	74 0a                	je     11092 <func_13+0xd1d>
   11088:	0f b7 85 6c f1 ff ff 	movzwl -0xe94(%rbp),%eax
   1108f:	66 85 c0             	test   %ax,%ax
   11092:	be 09 00 00 00       	mov    $0x9,%esi
   11097:	bf 00 00 00 00       	mov    $0x0,%edi
   1109c:	e8 0d cb ff ff       	callq  dbae <safe_mod_func_uint8_t_u_u>
   110a1:	89 c2                	mov    %eax,%edx
   110a3:	48 8b 05 76 7d 01 00 	mov    0x17d76(%rip),%rax        # 28e20 <g_859>
   110aa:	0f b6 d2             	movzbl %dl,%edx
   110ad:	89 10                	mov    %edx,(%rax)
   110af:	8b 00                	mov    (%rax),%eax
   110b1:	89 c7                	mov    %eax,%edi
   110b3:	e8 ee cd ff ff       	callq  dea6 <safe_unary_minus_func_uint32_t_u>
   110b8:	0f bf 95 d4 ee ff ff 	movswl -0x112c(%rbp),%edx
   110bf:	39 d0                	cmp    %edx,%eax
   110c1:	76 11                	jbe    110d4 <func_13+0xd5f>
   110c3:	66 83 bd d4 ee ff ff 	cmpw   $0x0,-0x112c(%rbp)
   110ca:	00 
   110cb:	74 07                	je     110d4 <func_13+0xd5f>
   110cd:	ba 01 00 00 00       	mov    $0x1,%edx
   110d2:	eb 05                	jmp    110d9 <func_13+0xd64>
   110d4:	ba 00 00 00 00       	mov    $0x0,%edx
   110d9:	0f bf 85 d4 ee ff ff 	movswl -0x112c(%rbp),%eax
   110e0:	39 c2                	cmp    %eax,%edx
   110e2:	0f 9c c0             	setl   %al
   110e5:	0f b6 d0             	movzbl %al,%edx
   110e8:	48 8b 05 f9 79 01 00 	mov    0x179f9(%rip),%rax        # 28ae8 <g_429>
   110ef:	48 8b 00             	mov    (%rax),%rax
   110f2:	48 85 c0             	test   %rax,%rax
   110f5:	75 0f                	jne    11106 <func_13+0xd91>
   110f7:	48 8b 05 ea 79 01 00 	mov    0x179ea(%rip),%rax        # 28ae8 <g_429>
   110fe:	48 8b 00             	mov    (%rax),%rax
   11101:	48 85 c0             	test   %rax,%rax
   11104:	74 07                	je     1110d <func_13+0xd98>
   11106:	b8 01 00 00 00       	mov    $0x1,%eax
   1110b:	eb 05                	jmp    11112 <func_13+0xd9d>
   1110d:	b8 00 00 00 00       	mov    $0x0,%eax
   11112:	0f b7 c0             	movzwl %ax,%eax
   11115:	89 d6                	mov    %edx,%esi
   11117:	89 c7                	mov    %eax,%edi
   11119:	e8 e8 cc ff ff       	callq  de06 <safe_lshift_func_uint16_t_u_u>
   1111e:	0f b7 c0             	movzwl %ax,%eax
   11121:	44 89 e6             	mov    %r12d,%esi
   11124:	89 c7                	mov    %eax,%edi
   11126:	e8 da c4 ff ff       	callq  d605 <safe_sub_func_int32_t_s_s>
   1112b:	4c 8b 25 96 71 01 00 	mov    0x17196(%rip),%r12        # 282c8 <g_60>
   11132:	48 8b 85 80 f0 ff ff 	mov    -0xf80(%rbp),%rax
   11139:	48 89 c2             	mov    %rax,%rdx
   1113c:	48 89 de             	mov    %rbx,%rsi
   1113f:	bf a8 c0 00 00       	mov    $0xc0a8,%edi
   11144:	e8 5f e7 00 00       	callq  1f8a8 <func_38>
   11149:	49 89 04 24          	mov    %rax,(%r12)
   1114d:	48 8b 05 3c 84 01 00 	mov    0x1843c(%rip),%rax        # 29590 <g_1556>
   11154:	48 8b 00             	mov    (%rax),%rax
   11157:	0f b6 00             	movzbl (%rax),%eax
   1115a:	e9 3c 49 00 00       	jmpq   15a9b <func_13+0x5726>
   1115f:	0f b7 85 d4 ee ff ff 	movzwl -0x112c(%rbp),%eax
   11166:	0f be d8             	movsbl %al,%ebx
   11169:	8b 85 f8 ee ff ff    	mov    -0x1108(%rbp),%eax
   1116f:	44 0f b7 e0          	movzwl %ax,%r12d
   11173:	4c 0f bf ad d4 ee ff 	movswq -0x112c(%rbp),%r13
   1117a:	ff 
   1117b:	44 0f bf b5 d4 ee ff 	movswl -0x112c(%rbp),%r14d
   11182:	ff 
   11183:	0f b7 85 6c f1 ff ff 	movzwl -0xe94(%rbp),%eax
   1118a:	44 0f b6 f8          	movzbl %al,%r15d
   1118e:	0f b7 85 d4 ee ff ff 	movzwl -0x112c(%rbp),%eax
   11195:	0f be c0             	movsbl %al,%eax
   11198:	89 85 c8 ee ff ff    	mov    %eax,-0x1138(%rbp)
   1119e:	0f bf 8d d4 ee ff ff 	movswl -0x112c(%rbp),%ecx
   111a5:	89 8d d0 ee ff ff    	mov    %ecx,-0x1130(%rbp)
   111ab:	48 8b 85 d0 ef ff ff 	mov    -0x1030(%rbp),%rax
   111b2:	8b 00                	mov    (%rax),%eax
   111b4:	89 85 c4 ee ff ff    	mov    %eax,-0x113c(%rbp)
   111ba:	8b 85 f8 ee ff ff    	mov    -0x1108(%rbp),%eax
   111c0:	0f b6 f8             	movzbl %al,%edi
   111c3:	89 bd c0 ee ff ff    	mov    %edi,-0x1140(%rbp)
   111c9:	48 8d 85 c8 ef ff ff 	lea    -0x1038(%rbp),%rax
   111d0:	48 39 85 88 f0 ff ff 	cmp    %rax,-0xf78(%rbp)
   111d7:	0f 95 c0             	setne  %al
   111da:	0f b6 d0             	movzbl %al,%edx
   111dd:	0f bf 85 d4 ee ff ff 	movswl -0x112c(%rbp),%eax
   111e4:	89 d6                	mov    %edx,%esi
   111e6:	89 c7                	mov    %eax,%edi
   111e8:	e8 08 c2 ff ff       	callq  d3f5 <safe_mul_func_int16_t_s_s>
   111ed:	98                   	cwtl   
   111ee:	be 01 00 00 00       	mov    $0x1,%esi
   111f3:	89 c7                	mov    %eax,%edi
   111f5:	e8 03 cd ff ff       	callq  defd <safe_mod_func_uint32_t_u_u>
   111fa:	0f b6 c0             	movzbl %al,%eax
   111fd:	8b b5 c0 ee ff ff    	mov    -0x1140(%rbp),%esi
   11203:	89 c7                	mov    %eax,%edi
   11205:	e8 a4 c9 ff ff       	callq  dbae <safe_mod_func_uint8_t_u_u>
   1120a:	8b b5 c4 ee ff ff    	mov    -0x113c(%rbp),%esi
   11210:	bf 01 00 00 00       	mov    $0x1,%edi
   11215:	e8 32 ca ff ff       	callq  dc4c <safe_lshift_func_uint8_t_u_u>
   1121a:	0f b6 c0             	movzbl %al,%eax
   1121d:	48 35 29 ce 00 00    	xor    $0xce29,%rax
   11223:	48 3d e2 82 fb 57    	cmp    $0x57fb82e2,%rax
   11229:	0f 9e c0             	setle  %al
   1122c:	0f b6 c8             	movzbl %al,%ecx
   1122f:	48 8b 05 f2 7b 01 00 	mov    0x17bf2(%rip),%rax        # 28e28 <g_858>
   11236:	48 8b 00             	mov    (%rax),%rax
   11239:	8b 10                	mov    (%rax),%edx
   1123b:	48 8b 05 e6 7b 01 00 	mov    0x17be6(%rip),%rax        # 28e28 <g_858>
   11242:	48 8b 00             	mov    (%rax),%rax
   11245:	09 ca                	or     %ecx,%edx
   11247:	89 10                	mov    %edx,(%rax)
   11249:	8b 00                	mov    (%rax),%eax
   1124b:	8b b5 d0 ee ff ff    	mov    -0x1130(%rbp),%esi
   11251:	89 c7                	mov    %eax,%edi
   11253:	e8 60 cc ff ff       	callq  deb8 <safe_add_func_uint32_t_u_u>
   11258:	48 8b 85 68 f0 ff ff 	mov    -0xf98(%rbp),%rax
   1125f:	8b 00                	mov    (%rax),%eax
   11261:	83 f0 01             	xor    $0x1,%eax
   11264:	0f be c0             	movsbl %al,%eax
   11267:	8b b5 c8 ee ff ff    	mov    -0x1138(%rbp),%esi
   1126d:	89 c7                	mov    %eax,%edi
   1126f:	e8 f6 bf ff ff       	callq  d26a <safe_div_func_int8_t_s_s>
   11274:	0f be d0             	movsbl %al,%edx
   11277:	8b 85 fc ee ff ff    	mov    -0x1104(%rbp),%eax
   1127d:	09 d0                	or     %edx,%eax
   1127f:	89 85 fc ee ff ff    	mov    %eax,-0x1104(%rbp)
   11285:	8b 85 fc ee ff ff    	mov    -0x1104(%rbp),%eax
   1128b:	85 c0                	test   %eax,%eax
   1128d:	0f 94 c0             	sete   %al
   11290:	0f b6 c0             	movzbl %al,%eax
   11293:	44 89 fe             	mov    %r15d,%esi
   11296:	89 c7                	mov    %eax,%edi
   11298:	e8 db c8 ff ff       	callq  db78 <safe_sub_func_uint8_t_u_u>
   1129d:	0f b6 c0             	movzbl %al,%eax
   112a0:	44 89 f6             	mov    %r14d,%esi
   112a3:	89 c7                	mov    %eax,%edi
   112a5:	e8 22 c4 ff ff       	callq  d6cc <safe_mod_func_int32_t_s_s>
   112aa:	4c 89 ee             	mov    %r13,%rsi
   112ad:	bf 00 00 00 00       	mov    $0x0,%edi
   112b2:	e8 f8 cd ff ff       	callq  e0af <safe_div_func_uint64_t_u_u>
   112b7:	48 83 f8 f6          	cmp    $0xfffffffffffffff6,%rax
   112bb:	0f 94 c2             	sete   %dl
   112be:	48 8b 05 53 78 01 00 	mov    0x17853(%rip),%rax        # 28b18 <g_488>
   112c5:	88 10                	mov    %dl,(%rax)
   112c7:	0f b6 00             	movzbl (%rax),%eax
   112ca:	0f b6 d0             	movzbl %al,%edx
   112cd:	48 8b 85 68 f0 ff ff 	mov    -0xf98(%rbp),%rax
   112d4:	89 10                	mov    %edx,(%rax)
   112d6:	48 8b 85 68 f0 ff ff 	mov    -0xf98(%rbp),%rax
   112dd:	8b 00                	mov    (%rax),%eax
   112df:	0f be c0             	movsbl %al,%eax
   112e2:	89 c6                	mov    %eax,%esi
   112e4:	bf 07 00 00 00       	mov    $0x7,%edi
   112e9:	e8 e6 be ff ff       	callq  d1d4 <safe_add_func_int8_t_s_s>
   112ee:	66 98                	cbtw   
   112f0:	0f b7 c0             	movzwl %ax,%eax
   112f3:	44 89 e6             	mov    %r12d,%esi
   112f6:	89 c7                	mov    %eax,%edi
   112f8:	e8 02 ca ff ff       	callq  dcff <safe_add_func_uint16_t_u_u>
   112fd:	0f b7 c0             	movzwl %ax,%eax
   11300:	48 39 85 e0 ef ff ff 	cmp    %rax,-0x1020(%rbp)
   11307:	0f 94 c0             	sete   %al
   1130a:	0f b6 c0             	movzbl %al,%eax
   1130d:	89 c6                	mov    %eax,%esi
   1130f:	bf 00 00 00 00       	mov    $0x0,%edi
   11314:	e8 f9 be ff ff       	callq  d212 <safe_mul_func_int8_t_s_s>
   11319:	0f be c0             	movsbl %al,%eax
   1131c:	89 de                	mov    %ebx,%esi
   1131e:	89 c7                	mov    %eax,%edi
   11320:	e8 af be ff ff       	callq  d1d4 <safe_add_func_int8_t_s_s>
   11325:	48 8b 85 d0 ef ff ff 	mov    -0x1030(%rbp),%rax
   1132c:	8b 00                	mov    (%rax),%eax
   1132e:	09 85 14 ef ff ff    	or     %eax,-0x10ec(%rbp)
   11334:	8b 85 f8 ee ff ff    	mov    -0x1108(%rbp),%eax
   1133a:	be 01 00 00 00       	mov    $0x1,%esi
   1133f:	89 c7                	mov    %eax,%edi
   11341:	e8 bf c2 ff ff       	callq  d605 <safe_sub_func_int32_t_s_s>
   11346:	89 85 f8 ee ff ff    	mov    %eax,-0x1108(%rbp)
   1134c:	8b 85 f8 ee ff ff    	mov    -0x1108(%rbp),%eax
   11352:	83 f8 f1             	cmp    $0xfffffff1,%eax
   11355:	0f 8c 35 fc ff ff    	jl     10f90 <func_13+0xc1b>
   1135b:	8b 05 c3 3c 01 00    	mov    0x13cc3(%rip),%eax        # 25024 <g_17>
   11361:	83 c0 01             	add    $0x1,%eax
   11364:	89 05 ba 3c 01 00    	mov    %eax,0x13cba(%rip)        # 25024 <g_17>
   1136a:	8b 05 b4 3c 01 00    	mov    0x13cb4(%rip),%eax        # 25024 <g_17>
   11370:	83 f8 1d             	cmp    $0x1d,%eax
   11373:	0f 85 93 fb ff ff    	jne    10f0c <func_13+0xb97>
   11379:	eb 01                	jmp    1137c <func_13+0x1007>
   1137b:	90                   	nop
   1137c:	48 8b 85 d0 ef ff ff 	mov    -0x1030(%rbp),%rax
   11383:	8b 00                	mov    (%rax),%eax
   11385:	85 c0                	test   %eax,%eax
   11387:	0f 84 45 04 00 00    	je     117d2 <func_13+0x145d>
   1138d:	66 c7 85 d0 f7 ff ff 	movw   $0x3,-0x830(%rbp)
   11394:	03 00 
   11396:	66 c7 85 d2 f7 ff ff 	movw   $0x8560,-0x82e(%rbp)
   1139d:	60 85 
   1139f:	66 c7 85 d4 f7 ff ff 	movw   $0x3,-0x82c(%rbp)
   113a6:	03 00 
   113a8:	66 c7 85 d6 f7 ff ff 	movw   $0x3,-0x82a(%rbp)
   113af:	03 00 
   113b1:	66 c7 85 d8 f7 ff ff 	movw   $0x8560,-0x828(%rbp)
   113b8:	60 85 
   113ba:	66 c7 85 da f7 ff ff 	movw   $0x3,-0x826(%rbp)
   113c1:	03 00 
   113c3:	66 c7 85 dc f7 ff ff 	movw   $0x3,-0x824(%rbp)
   113ca:	03 00 
   113cc:	66 c7 85 de f7 ff ff 	movw   $0x8560,-0x822(%rbp)
   113d3:	60 85 
   113d5:	66 c7 85 e0 f7 ff ff 	movw   $0x3,-0x820(%rbp)
   113dc:	03 00 
   113de:	66 c7 85 e2 f7 ff ff 	movw   $0x3,-0x81e(%rbp)
   113e5:	03 00 
   113e7:	66 c7 85 e4 f7 ff ff 	movw   $0x8560,-0x81c(%rbp)
   113ee:	60 85 
   113f0:	66 c7 85 e6 f7 ff ff 	movw   $0x3,-0x81a(%rbp)
   113f7:	03 00 
   113f9:	66 c7 85 e8 f7 ff ff 	movw   $0x3,-0x818(%rbp)
   11400:	03 00 
   11402:	66 c7 85 ea f7 ff ff 	movw   $0x8560,-0x816(%rbp)
   11409:	60 85 
   1140b:	66 c7 85 ec f7 ff ff 	movw   $0x3,-0x814(%rbp)
   11412:	03 00 
   11414:	66 c7 85 ee f7 ff ff 	movw   $0x3,-0x812(%rbp)
   1141b:	03 00 
   1141d:	66 c7 85 f0 f7 ff ff 	movw   $0x8560,-0x810(%rbp)
   11424:	60 85 
   11426:	66 c7 85 f2 f7 ff ff 	movw   $0x3,-0x80e(%rbp)
   1142d:	03 00 
   1142f:	66 c7 85 f4 f7 ff ff 	movw   $0x3,-0x80c(%rbp)
   11436:	03 00 
   11438:	66 c7 85 f6 f7 ff ff 	movw   $0x8560,-0x80a(%rbp)
   1143f:	60 85 
   11441:	66 c7 85 f8 f7 ff ff 	movw   $0x3,-0x808(%rbp)
   11448:	03 00 
   1144a:	66 c7 85 fa f7 ff ff 	movw   $0x3,-0x806(%rbp)
   11451:	03 00 
   11453:	66 c7 85 fc f7 ff ff 	movw   $0x8560,-0x804(%rbp)
   1145a:	60 85 
   1145c:	66 c7 85 fe f7 ff ff 	movw   $0x3,-0x802(%rbp)
   11463:	03 00 
   11465:	66 c7 85 00 f8 ff ff 	movw   $0x3,-0x800(%rbp)
   1146c:	03 00 
   1146e:	66 c7 85 02 f8 ff ff 	movw   $0x8560,-0x7fe(%rbp)
   11475:	60 85 
   11477:	66 c7 85 04 f8 ff ff 	movw   $0x3,-0x7fc(%rbp)
   1147e:	03 00 
   11480:	66 c7 85 06 f8 ff ff 	movw   $0x3,-0x7fa(%rbp)
   11487:	03 00 
   11489:	66 c7 85 08 f8 ff ff 	movw   $0x8560,-0x7f8(%rbp)
   11490:	60 85 
   11492:	66 c7 85 0a f8 ff ff 	movw   $0x3,-0x7f6(%rbp)
   11499:	03 00 
   1149b:	66 c7 85 0c f8 ff ff 	movw   $0x3,-0x7f4(%rbp)
   114a2:	03 00 
   114a4:	66 c7 85 0e f8 ff ff 	movw   $0x8560,-0x7f2(%rbp)
   114ab:	60 85 
   114ad:	66 c7 85 10 f8 ff ff 	movw   $0x3,-0x7f0(%rbp)
   114b4:	03 00 
   114b6:	66 c7 85 12 f8 ff ff 	movw   $0x3,-0x7ee(%rbp)
   114bd:	03 00 
   114bf:	66 c7 85 14 f8 ff ff 	movw   $0x8560,-0x7ec(%rbp)
   114c6:	60 85 
   114c8:	66 c7 85 16 f8 ff ff 	movw   $0x3,-0x7ea(%rbp)
   114cf:	03 00 
   114d1:	66 c7 85 18 f8 ff ff 	movw   $0x3,-0x7e8(%rbp)
   114d8:	03 00 
   114da:	66 c7 85 1a f8 ff ff 	movw   $0x8560,-0x7e6(%rbp)
   114e1:	60 85 
   114e3:	66 c7 85 1c f8 ff ff 	movw   $0x3,-0x7e4(%rbp)
   114ea:	03 00 
   114ec:	66 c7 85 1e f8 ff ff 	movw   $0x3,-0x7e2(%rbp)
   114f3:	03 00 
   114f5:	66 c7 85 20 f8 ff ff 	movw   $0x8560,-0x7e0(%rbp)
   114fc:	60 85 
   114fe:	66 c7 85 22 f8 ff ff 	movw   $0x3,-0x7de(%rbp)
   11505:	03 00 
   11507:	66 c7 85 24 f8 ff ff 	movw   $0x3,-0x7dc(%rbp)
   1150e:	03 00 
   11510:	66 c7 85 26 f8 ff ff 	movw   $0x8560,-0x7da(%rbp)
   11517:	60 85 
   11519:	66 c7 85 28 f8 ff ff 	movw   $0x3,-0x7d8(%rbp)
   11520:	03 00 
   11522:	66 c7 85 2a f8 ff ff 	movw   $0x3,-0x7d6(%rbp)
   11529:	03 00 
   1152b:	66 c7 85 2c f8 ff ff 	movw   $0x8560,-0x7d4(%rbp)
   11532:	60 85 
   11534:	66 c7 85 2e f8 ff ff 	movw   $0x3,-0x7d2(%rbp)
   1153b:	03 00 
   1153d:	66 c7 85 30 f8 ff ff 	movw   $0x3,-0x7d0(%rbp)
   11544:	03 00 
   11546:	66 c7 85 32 f8 ff ff 	movw   $0x8560,-0x7ce(%rbp)
   1154d:	60 85 
   1154f:	66 c7 85 34 f8 ff ff 	movw   $0x3,-0x7cc(%rbp)
   11556:	03 00 
   11558:	66 c7 85 36 f8 ff ff 	movw   $0x3,-0x7ca(%rbp)
   1155f:	03 00 
   11561:	66 c7 85 38 f8 ff ff 	movw   $0x8560,-0x7c8(%rbp)
   11568:	60 85 
   1156a:	66 c7 85 3a f8 ff ff 	movw   $0x3,-0x7c6(%rbp)
   11571:	03 00 
   11573:	66 c7 85 3c f8 ff ff 	movw   $0x3,-0x7c4(%rbp)
   1157a:	03 00 
   1157c:	66 c7 85 3e f8 ff ff 	movw   $0x8560,-0x7c2(%rbp)
   11583:	60 85 
   11585:	66 c7 85 40 f8 ff ff 	movw   $0x3,-0x7c0(%rbp)
   1158c:	03 00 
   1158e:	66 c7 85 42 f8 ff ff 	movw   $0x3,-0x7be(%rbp)
   11595:	03 00 
   11597:	66 c7 85 44 f8 ff ff 	movw   $0x8560,-0x7bc(%rbp)
   1159e:	60 85 
   115a0:	66 c7 85 46 f8 ff ff 	movw   $0x3,-0x7ba(%rbp)
   115a7:	03 00 
   115a9:	66 c7 85 48 f8 ff ff 	movw   $0x3,-0x7b8(%rbp)
   115b0:	03 00 
   115b2:	66 c7 85 4a f8 ff ff 	movw   $0x8560,-0x7b6(%rbp)
   115b9:	60 85 
   115bb:	66 c7 85 4c f8 ff ff 	movw   $0x3,-0x7b4(%rbp)
   115c2:	03 00 
   115c4:	66 c7 85 4e f8 ff ff 	movw   $0x3,-0x7b2(%rbp)
   115cb:	03 00 
   115cd:	66 c7 85 50 f8 ff ff 	movw   $0x8560,-0x7b0(%rbp)
   115d4:	60 85 
   115d6:	66 c7 85 52 f8 ff ff 	movw   $0x3,-0x7ae(%rbp)
   115dd:	03 00 
   115df:	66 c7 85 54 f8 ff ff 	movw   $0x3,-0x7ac(%rbp)
   115e6:	03 00 
   115e8:	66 c7 85 56 f8 ff ff 	movw   $0x8560,-0x7aa(%rbp)
   115ef:	60 85 
   115f1:	66 c7 85 58 f8 ff ff 	movw   $0x3,-0x7a8(%rbp)
   115f8:	03 00 
   115fa:	66 c7 85 5a f8 ff ff 	movw   $0x3,-0x7a6(%rbp)
   11601:	03 00 
   11603:	66 c7 85 5c f8 ff ff 	movw   $0x8560,-0x7a4(%rbp)
   1160a:	60 85 
   1160c:	66 c7 85 5e f8 ff ff 	movw   $0x3,-0x7a2(%rbp)
   11613:	03 00 
   11615:	66 c7 85 60 f8 ff ff 	movw   $0x3,-0x7a0(%rbp)
   1161c:	03 00 
   1161e:	66 c7 85 62 f8 ff ff 	movw   $0x8560,-0x79e(%rbp)
   11625:	60 85 
   11627:	66 c7 85 64 f8 ff ff 	movw   $0x3,-0x79c(%rbp)
   1162e:	03 00 
   11630:	66 c7 85 66 f8 ff ff 	movw   $0x3,-0x79a(%rbp)
   11637:	03 00 
   11639:	66 c7 85 68 f8 ff ff 	movw   $0x8560,-0x798(%rbp)
   11640:	60 85 
   11642:	66 c7 85 6a f8 ff ff 	movw   $0x3,-0x796(%rbp)
   11649:	03 00 
   1164b:	66 c7 85 6c f8 ff ff 	movw   $0x3,-0x794(%rbp)
   11652:	03 00 
   11654:	66 c7 85 6e f8 ff ff 	movw   $0x8560,-0x792(%rbp)
   1165b:	60 85 
   1165d:	66 c7 85 70 f8 ff ff 	movw   $0x3,-0x790(%rbp)
   11664:	03 00 
   11666:	66 c7 85 72 f8 ff ff 	movw   $0x3,-0x78e(%rbp)
   1166d:	03 00 
   1166f:	66 c7 85 74 f8 ff ff 	movw   $0x8560,-0x78c(%rbp)
   11676:	60 85 
   11678:	66 c7 85 76 f8 ff ff 	movw   $0x3,-0x78a(%rbp)
   1167f:	03 00 
   11681:	66 c7 85 78 f8 ff ff 	movw   $0x3,-0x788(%rbp)
   11688:	03 00 
   1168a:	66 c7 85 7a f8 ff ff 	movw   $0x8560,-0x786(%rbp)
   11691:	60 85 
   11693:	66 c7 85 7c f8 ff ff 	movw   $0x3,-0x784(%rbp)
   1169a:	03 00 
   1169c:	66 c7 85 7e f8 ff ff 	movw   $0x3,-0x782(%rbp)
   116a3:	03 00 
   116a5:	66 c7 85 80 f8 ff ff 	movw   $0x8560,-0x780(%rbp)
   116ac:	60 85 
   116ae:	66 c7 85 82 f8 ff ff 	movw   $0x3,-0x77e(%rbp)
   116b5:	03 00 
   116b7:	c7 85 1c ef ff ff 00 	movl   $0x0,-0x10e4(%rbp)
   116be:	00 00 00 
   116c1:	eb 1e                	jmp    116e1 <func_13+0x136c>
   116c3:	8b 85 1c ef ff ff    	mov    -0x10e4(%rbp),%eax
   116c9:	48 98                	cltq   
   116cb:	48 8d 15 66 3b 01 00 	lea    0x13b66(%rip),%rdx        # 25238 <g_589>
   116d2:	48 89 94 c5 a0 f4 ff 	mov    %rdx,-0xb60(%rbp,%rax,8)
   116d9:	ff 
   116da:	83 85 1c ef ff ff 01 	addl   $0x1,-0x10e4(%rbp)
   116e1:	83 bd 1c ef ff ff 02 	cmpl   $0x2,-0x10e4(%rbp)
   116e8:	7e d9                	jle    116c3 <func_13+0x134e>
   116ea:	4c 8b a5 b8 f5 ff ff 	mov    -0xa48(%rbp),%r12
   116f1:	48 8b 05 00 79 01 00 	mov    0x17900(%rip),%rax        # 28ff8 <g_1205>
   116f8:	48 8b 18             	mov    (%rax),%rbx
   116fb:	48 8d 05 26 74 01 00 	lea    0x17426(%rip),%rax        # 28b28 <g_486>
   11702:	48 89 85 58 f0 ff ff 	mov    %rax,-0xfa8(%rbp)
   11709:	48 8b 05 00 74 01 00 	mov    0x17400(%rip),%rax        # 28b10 <g_483>
   11710:	48 8b 00             	mov    (%rax),%rax
   11713:	48 8d 15 0e 74 01 00 	lea    0x1740e(%rip),%rdx        # 28b28 <g_486>
   1171a:	48 39 d0             	cmp    %rdx,%rax
   1171d:	0f b7 05 1c 3b 01 00 	movzwl 0x13b1c(%rip),%eax        # 25240 <g_807>
   11724:	0f b7 d0             	movzwl %ax,%edx
   11727:	48 83 bd e8 ef ff ff 	cmpq   $0x0,-0x1018(%rbp)
   1172e:	00 
   1172f:	0f 94 c0             	sete   %al
   11732:	0f b6 c0             	movzbl %al,%eax
   11735:	48 89 d6             	mov    %rdx,%rsi
   11738:	48 89 c7             	mov    %rax,%rdi
   1173b:	e8 b7 c2 ff ff       	callq  d9f7 <safe_div_func_int64_t_s_s>
   11740:	49 89 c5             	mov    %rax,%r13
   11743:	0f b7 85 64 f8 ff ff 	movzwl -0x79c(%rbp),%eax
   1174a:	48 0f bf c0          	movswq %ax,%rax
   1174e:	be 09 00 00 00       	mov    $0x9,%esi
   11753:	48 89 c7             	mov    %rax,%rdi
   11756:	e8 59 c2 ff ff       	callq  d9b4 <safe_mod_func_int64_t_s_s>
   1175b:	89 c2                	mov    %eax,%edx
   1175d:	48 8b 85 d0 ef ff ff 	mov    -0x1030(%rbp),%rax
   11764:	89 10                	mov    %edx,(%rax)
   11766:	48 8b 85 d0 ef ff ff 	mov    -0x1030(%rbp),%rax
   1176d:	8b 00                	mov    (%rax),%eax
   1176f:	48 98                	cltq   
   11771:	4c 89 ee             	mov    %r13,%rsi
   11774:	48 89 c7             	mov    %rax,%rdi
   11777:	e8 c5 c0 ff ff       	callq  d841 <safe_add_func_int64_t_s_s>
   1177c:	0f bf 95 d4 ee ff ff 	movswl -0x112c(%rbp),%edx
   11783:	48 8b 05 6e 78 01 00 	mov    0x1786e(%rip),%rax        # 28ff8 <g_1205>
   1178a:	48 8b 00             	mov    (%rax),%rax
   1178d:	48 b9 1c da 55 ab df 	movabs $0x5d8015dfab55da1c,%rcx
   11794:	15 80 5d 
   11797:	48 39 c8             	cmp    %rcx,%rax
   1179a:	0f 9e c0             	setle  %al
   1179d:	0f b6 c0             	movzbl %al,%eax
   117a0:	09 d0                	or     %edx,%eax
   117a2:	85 c0                	test   %eax,%eax
   117a4:	74 07                	je     117ad <func_13+0x1438>
   117a6:	b8 01 00 00 00       	mov    $0x1,%eax
   117ab:	eb 05                	jmp    117b2 <func_13+0x143d>
   117ad:	b8 00 00 00 00       	mov    $0x0,%eax
   117b2:	0f b7 c0             	movzwl %ax,%eax
   117b5:	4c 8b 2d 0c 6b 01 00 	mov    0x16b0c(%rip),%r13        # 282c8 <g_60>
   117bc:	4c 89 e2             	mov    %r12,%rdx
   117bf:	48 89 de             	mov    %rbx,%rsi
   117c2:	89 c7                	mov    %eax,%edi
   117c4:	e8 df e0 00 00       	callq  1f8a8 <func_38>
   117c9:	49 89 45 00          	mov    %rax,0x0(%r13)
   117cd:	e9 2d 33 00 00       	jmpq   14aff <func_13+0x478a>
   117d2:	c7 85 20 ef ff ff 03 	movl   $0x3,-0x10e0(%rbp)
   117d9:	00 00 00 
   117dc:	48 8d 05 4d 73 01 00 	lea    0x1734d(%rip),%rax        # 28b30 <g_485>
   117e3:	48 89 85 90 f0 ff ff 	mov    %rax,-0xf70(%rbp)
   117ea:	48 8d 05 f7 72 01 00 	lea    0x172f7(%rip),%rax        # 28ae8 <g_429>
   117f1:	48 89 85 90 f2 ff ff 	mov    %rax,-0xd70(%rbp)
   117f8:	48 8d 05 e9 72 01 00 	lea    0x172e9(%rip),%rax        # 28ae8 <g_429>
   117ff:	48 89 85 98 f2 ff ff 	mov    %rax,-0xd68(%rbp)
   11806:	48 8d 05 db 72 01 00 	lea    0x172db(%rip),%rax        # 28ae8 <g_429>
   1180d:	48 89 85 a0 f2 ff ff 	mov    %rax,-0xd60(%rbp)
   11814:	48 8d 05 cd 72 01 00 	lea    0x172cd(%rip),%rax        # 28ae8 <g_429>
   1181b:	48 89 85 a8 f2 ff ff 	mov    %rax,-0xd58(%rbp)
   11822:	48 8d 05 bf 72 01 00 	lea    0x172bf(%rip),%rax        # 28ae8 <g_429>
   11829:	48 89 85 b0 f2 ff ff 	mov    %rax,-0xd50(%rbp)
   11830:	48 8d 05 b1 72 01 00 	lea    0x172b1(%rip),%rax        # 28ae8 <g_429>
   11837:	48 89 85 b8 f2 ff ff 	mov    %rax,-0xd48(%rbp)
   1183e:	48 8d 05 a3 72 01 00 	lea    0x172a3(%rip),%rax        # 28ae8 <g_429>
   11845:	48 89 85 c0 f2 ff ff 	mov    %rax,-0xd40(%rbp)
   1184c:	48 8d 05 95 72 01 00 	lea    0x17295(%rip),%rax        # 28ae8 <g_429>
   11853:	48 89 85 c8 f2 ff ff 	mov    %rax,-0xd38(%rbp)
   1185a:	c7 85 c0 ef ff ff 04 	movl   $0x4,-0x1040(%rbp)
   11861:	00 00 00 
   11864:	c7 85 d0 f1 ff ff 05 	movl   $0x5,-0xe30(%rbp)
   1186b:	00 00 00 
   1186e:	c7 85 d4 f1 ff ff 05 	movl   $0x5,-0xe2c(%rbp)
   11875:	00 00 00 
   11878:	c7 85 d8 f1 ff ff 05 	movl   $0x5,-0xe28(%rbp)
   1187f:	00 00 00 
   11882:	c7 85 dc f1 ff ff 05 	movl   $0x5,-0xe24(%rbp)
   11889:	00 00 00 
   1188c:	c7 85 e0 f1 ff ff 05 	movl   $0x5,-0xe20(%rbp)
   11893:	00 00 00 
   11896:	c7 85 e4 f1 ff ff 05 	movl   $0x5,-0xe1c(%rbp)
   1189d:	00 00 00 
   118a0:	48 c7 85 30 f2 ff ff 	movq   $0x0,-0xdd0(%rbp)
   118a7:	00 00 00 00 
   118ab:	48 c7 85 38 f2 ff ff 	movq   $0x0,-0xdc8(%rbp)
   118b2:	00 00 00 00 
   118b6:	48 c7 85 40 f2 ff ff 	movq   $0x0,-0xdc0(%rbp)
   118bd:	00 00 00 00 
   118c1:	48 c7 85 48 f2 ff ff 	movq   $0x0,-0xdb8(%rbp)
   118c8:	00 00 00 00 
   118cc:	48 8d 05 c7 39 01 00 	lea    0x139c7(%rip),%rax        # 2529a <g_1086>
   118d3:	48 89 85 98 f0 ff ff 	mov    %rax,-0xf68(%rbp)
   118da:	c7 85 a0 f4 ff ff da 	movl   $0x7fb0fcda,-0xb60(%rbp)
   118e1:	fc b0 7f 
   118e4:	c7 85 a4 f4 ff ff 01 	movl   $0x1,-0xb5c(%rbp)
   118eb:	00 00 00 
   118ee:	c7 85 a8 f4 ff ff 01 	movl   $0x1,-0xb58(%rbp)
   118f5:	00 00 00 
   118f8:	c7 85 ac f4 ff ff da 	movl   $0x7fb0fcda,-0xb54(%rbp)
   118ff:	fc b0 7f 
   11902:	c7 85 b0 f4 ff ff 01 	movl   $0x1,-0xb50(%rbp)
   11909:	00 00 00 
   1190c:	c7 85 b4 f4 ff ff 01 	movl   $0x1,-0xb4c(%rbp)
   11913:	00 00 00 
   11916:	c7 85 b8 f4 ff ff da 	movl   $0x7fb0fcda,-0xb48(%rbp)
   1191d:	fc b0 7f 
   11920:	c7 85 bc f4 ff ff 01 	movl   $0x1,-0xb44(%rbp)
   11927:	00 00 00 
   1192a:	c7 85 c0 f4 ff ff 01 	movl   $0x1,-0xb40(%rbp)
   11931:	00 00 00 
   11934:	c7 85 c4 f4 ff ff da 	movl   $0x7fb0fcda,-0xb3c(%rbp)
   1193b:	fc b0 7f 
   1193e:	c7 85 c8 f4 ff ff 01 	movl   $0x1,-0xb38(%rbp)
   11945:	00 00 00 
   11948:	c7 85 cc f4 ff ff 01 	movl   $0x1,-0xb34(%rbp)
   1194f:	00 00 00 
   11952:	c7 85 d0 f4 ff ff da 	movl   $0x7fb0fcda,-0xb30(%rbp)
   11959:	fc b0 7f 
   1195c:	c7 85 d4 f4 ff ff 01 	movl   $0x1,-0xb2c(%rbp)
   11963:	00 00 00 
   11966:	c7 85 d8 f4 ff ff 01 	movl   $0x1,-0xb28(%rbp)
   1196d:	00 00 00 
   11970:	c7 85 dc f4 ff ff da 	movl   $0x7fb0fcda,-0xb24(%rbp)
   11977:	fc b0 7f 
   1197a:	c7 85 e0 f4 ff ff 01 	movl   $0x1,-0xb20(%rbp)
   11981:	00 00 00 
   11984:	c7 85 e4 f4 ff ff 01 	movl   $0x1,-0xb1c(%rbp)
   1198b:	00 00 00 
   1198e:	48 8d 85 b8 ef ff ff 	lea    -0x1048(%rbp),%rax
   11995:	48 89 85 a0 f0 ff ff 	mov    %rax,-0xf60(%rbp)
   1199c:	c7 85 24 ef ff ff 00 	movl   $0x0,-0x10dc(%rbp)
   119a3:	00 00 00 
   119a6:	eb 14                	jmp    119bc <func_13+0x1647>
   119a8:	8b 85 24 ef ff ff    	mov    -0x10dc(%rbp),%eax
   119ae:	48 98                	cltq   
   119b0:	c6 44 05 bf cd       	movb   $0xcd,-0x41(%rbp,%rax,1)
   119b5:	83 85 24 ef ff ff 01 	addl   $0x1,-0x10dc(%rbp)
   119bc:	83 bd 24 ef ff ff 01 	cmpl   $0x1,-0x10dc(%rbp)
   119c3:	7e e3                	jle    119a8 <func_13+0x1633>
   119c5:	c7 05 0d 39 01 00 01 	movl   $0x1,0x1390d(%rip)        # 252dc <g_1691>
   119cc:	00 00 00 
   119cf:	e9 ac 13 00 00       	jmpq   12d80 <func_13+0x2a0b>
   119d4:	48 c7 85 a8 f0 ff ff 	movq   $0xffffffffffffffff,-0xf58(%rbp)
   119db:	ff ff ff ff 
   119df:	c7 85 c8 ef ff ff 07 	movl   $0x7,-0x1038(%rbp)
   119e6:	00 00 00 
   119e9:	c7 85 5c ef ff ff fb 	movl   $0xfffffffb,-0x10a4(%rbp)
   119f0:	ff ff ff 
   119f3:	48 c7 85 b0 f0 ff ff 	movq   $0x0,-0xf50(%rbp)
   119fa:	00 00 00 00 
   119fe:	48 8d 05 7b 38 01 00 	lea    0x1387b(%rip),%rax        # 25280 <g_895>
   11a05:	48 89 85 b8 f0 ff ff 	mov    %rax,-0xf48(%rbp)
   11a0c:	c7 85 28 ef ff ff 00 	movl   $0x0,-0x10d8(%rbp)
   11a13:	00 00 00 
   11a16:	eb 1a                	jmp    11a32 <func_13+0x16bd>
   11a18:	8b 85 28 ef ff ff    	mov    -0x10d8(%rbp),%eax
   11a1e:	48 98                	cltq   
   11a20:	c7 84 85 70 f1 ff ff 	movl   $0xffffffff,-0xe90(%rbp,%rax,4)
   11a27:	ff ff ff ff 
   11a2b:	83 85 28 ef ff ff 01 	addl   $0x1,-0x10d8(%rbp)
   11a32:	83 bd 28 ef ff ff 04 	cmpl   $0x4,-0x10d8(%rbp)
   11a39:	7e dd                	jle    11a18 <func_13+0x16a3>
   11a3b:	66 c7 05 d8 37 01 00 	movw   $0x5,0x137d8(%rip)        # 2521c <g_263>
   11a42:	05 00 
   11a44:	e9 da 01 00 00       	jmpq   11c23 <func_13+0x18ae>
   11a49:	c7 05 2d 38 01 00 00 	movl   $0x0,0x1382d(%rip)        # 25280 <g_895>
   11a50:	00 00 00 
   11a53:	e9 a0 01 00 00       	jmpq   11bf8 <func_13+0x1883>
   11a58:	c7 85 60 ef ff ff 98 	movl   $0x14a35b98,-0x10a0(%rbp)
   11a5f:	5b a3 14 
   11a62:	c7 85 64 ef ff ff 7f 	movl   $0xcbad6a7f,-0x109c(%rbp)
   11a69:	6a ad cb 
   11a6c:	48 8b 05 85 70 01 00 	mov    0x17085(%rip),%rax        # 28af8 <g_448>
   11a73:	48 8b 00             	mov    (%rax),%rax
   11a76:	48 85 c0             	test   %rax,%rax
   11a79:	8b 85 64 ef ff ff    	mov    -0x109c(%rbp),%eax
   11a7f:	0f be d8             	movsbl %al,%ebx
   11a82:	48 8b 05 5f 70 01 00 	mov    0x1705f(%rip),%rax        # 28ae8 <g_429>
   11a89:	4c 8b 20             	mov    (%rax),%r12
   11a8c:	48 8b 05 9d 73 01 00 	mov    0x1739d(%rip),%rax        # 28e30 <g_857>
   11a93:	48 8b 00             	mov    (%rax),%rax
   11a96:	48 8b 00             	mov    (%rax),%rax
   11a99:	8b 00                	mov    (%rax),%eax
   11a9b:	41 89 c5             	mov    %eax,%r13d
   11a9e:	48 8b 05 53 75 01 00 	mov    0x17553(%rip),%rax        # 28ff8 <g_1205>
   11aa5:	48 8b 00             	mov    (%rax),%rax
   11aa8:	09 85 20 ef ff ff    	or     %eax,-0x10e0(%rbp)
   11aae:	8b 85 20 ef ff ff    	mov    -0x10e0(%rbp),%eax
   11ab4:	48 63 d0             	movslq %eax,%rdx
   11ab7:	0f b6 45 c0          	movzbl -0x40(%rbp),%eax
   11abb:	48 0f be c0          	movsbq %al,%rax
   11abf:	48 89 d6             	mov    %rdx,%rsi
   11ac2:	48 89 c7             	mov    %rax,%rdi
   11ac5:	e8 ea be ff ff       	callq  d9b4 <safe_mod_func_int64_t_s_s>
   11aca:	89 c2                	mov    %eax,%edx
   11acc:	48 8b 05 2d 62 01 00 	mov    0x1622d(%rip),%rax        # 27d00 <g_16>
   11ad3:	8b 00                	mov    (%rax),%eax
   11ad5:	83 f8 01             	cmp    $0x1,%eax
   11ad8:	0f 9e c0             	setle  %al
   11adb:	0f b6 c0             	movzbl %al,%eax
   11ade:	31 d0                	xor    %edx,%eax
   11ae0:	44 89 ee             	mov    %r13d,%esi
   11ae3:	89 c7                	mov    %eax,%edi
   11ae5:	e8 15 bc ff ff       	callq  d6ff <safe_div_func_int32_t_s_s>
   11aea:	48 98                	cltq   
   11aec:	49 39 c4             	cmp    %rax,%r12
   11aef:	0f 9f c0             	setg   %al
   11af2:	0f b6 c0             	movzbl %al,%eax
   11af5:	89 de                	mov    %ebx,%esi
   11af7:	89 c7                	mov    %eax,%edi
   11af9:	e8 6c b7 ff ff       	callq  d26a <safe_div_func_int8_t_s_s>
   11afe:	48 8b 05 c3 67 01 00 	mov    0x167c3(%rip),%rax        # 282c8 <g_60>
   11b05:	48 8b 00             	mov    (%rax),%rax
   11b08:	c7 00 01 00 00 00    	movl   $0x1,(%rax)
   11b0e:	0f b6 45 c0          	movzbl -0x40(%rbp),%eax
   11b12:	0f be d8             	movsbl %al,%ebx
   11b15:	0f b7 85 d4 ee ff ff 	movzwl -0x112c(%rbp),%eax
   11b1c:	41 89 c4             	mov    %eax,%r12d
   11b1f:	48 8b 05 2a 77 01 00 	mov    0x1772a(%rip),%rax        # 29250 <g_1349>
   11b26:	48 8b 00             	mov    (%rax),%rax
   11b29:	48 8b 00             	mov    (%rax),%rax
   11b2c:	8b 00                	mov    (%rax),%eax
   11b2e:	89 c7                	mov    %eax,%edi
   11b30:	e8 71 c3 ff ff       	callq  dea6 <safe_unary_minus_func_uint32_t_u>
   11b35:	48 83 bd a8 f0 ff ff 	cmpq   $0x0,-0xf58(%rbp)
   11b3c:	00 
   11b3d:	0f 95 c0             	setne  %al
   11b40:	0f b6 c0             	movzbl %al,%eax
   11b43:	be 01 00 00 00       	mov    $0x1,%esi
   11b48:	89 c7                	mov    %eax,%edi
   11b4a:	e8 9f b7 ff ff       	callq  d2ee <safe_lshift_func_int8_t_s_u>
   11b4f:	48 8b 05 a2 74 01 00 	mov    0x174a2(%rip),%rax        # 28ff8 <g_1205>
   11b56:	48 8b 00             	mov    (%rax),%rax
   11b59:	48 be dc 73 45 ee 56 	movabs $0x6caea256ee4573dc,%rsi
   11b60:	a2 ae 6c 
   11b63:	48 89 c7             	mov    %rax,%rdi
   11b66:	e8 8c be ff ff       	callq  d9f7 <safe_div_func_int64_t_s_s>
   11b6b:	44 21 e0             	and    %r12d,%eax
   11b6e:	0f be d0             	movsbl %al,%edx
   11b71:	8b 85 64 ef ff ff    	mov    -0x109c(%rbp),%eax
   11b77:	0f be c0             	movsbl %al,%eax
   11b7a:	89 d6                	mov    %edx,%esi
   11b7c:	89 c7                	mov    %eax,%edi
   11b7e:	e8 6f b6 ff ff       	callq  d1f2 <safe_sub_func_int8_t_s_s>
   11b83:	66 83 bd d4 ee ff ff 	cmpw   $0x0,-0x112c(%rbp)
   11b8a:	00 
   11b8b:	0f 95 c0             	setne  %al
   11b8e:	0f b6 c0             	movzbl %al,%eax
   11b91:	89 de                	mov    %ebx,%esi
   11b93:	89 c7                	mov    %eax,%edi
   11b95:	e8 47 b9 ff ff       	callq  d4e1 <safe_lshift_func_int16_t_s_u>
   11b9a:	89 c2                	mov    %eax,%edx
   11b9c:	48 8b 05 5d 61 01 00 	mov    0x1615d(%rip),%rax        # 27d00 <g_16>
   11ba3:	0f bf d2             	movswl %dx,%edx
   11ba6:	89 10                	mov    %edx,(%rax)
   11ba8:	0f b7 85 6c f1 ff ff 	movzwl -0xe94(%rbp),%eax
   11baf:	0f be d0             	movsbl %al,%edx
   11bb2:	48 8b 05 d7 79 01 00 	mov    0x179d7(%rip),%rax        # 29590 <g_1556>
   11bb9:	48 8b 00             	mov    (%rax),%rax
   11bbc:	48 39 85 60 f0 ff ff 	cmp    %rax,-0xfa0(%rbp)
   11bc3:	0f 94 c0             	sete   %al
   11bc6:	0f b6 c0             	movzbl %al,%eax
   11bc9:	89 d6                	mov    %edx,%esi
   11bcb:	89 c7                	mov    %eax,%edi
   11bcd:	e8 02 b6 ff ff       	callq  d1d4 <safe_add_func_int8_t_s_s>
   11bd2:	48 8b 95 d0 ef ff ff 	mov    -0x1030(%rbp),%rdx
   11bd9:	8b 12                	mov    (%rdx),%edx
   11bdb:	0f be c0             	movsbl %al,%eax
   11bde:	21 c2                	and    %eax,%edx
   11be0:	48 8b 85 d0 ef ff ff 	mov    -0x1030(%rbp),%rax
   11be7:	89 10                	mov    %edx,(%rax)
   11be9:	8b 05 91 36 01 00    	mov    0x13691(%rip),%eax        # 25280 <g_895>
   11bef:	83 c0 01             	add    $0x1,%eax
   11bf2:	89 05 88 36 01 00    	mov    %eax,0x13688(%rip)        # 25280 <g_895>
   11bf8:	8b 05 82 36 01 00    	mov    0x13682(%rip),%eax        # 25280 <g_895>
   11bfe:	83 f8 08             	cmp    $0x8,%eax
   11c01:	0f 86 51 fe ff ff    	jbe    11a58 <func_13+0x16e3>
   11c07:	48 8b 85 d0 ef ff ff 	mov    -0x1030(%rbp),%rax
   11c0e:	8b 00                	mov    (%rax),%eax
   11c10:	85 c0                	test   %eax,%eax
   11c12:	0f b7 05 03 36 01 00 	movzwl 0x13603(%rip),%eax        # 2521c <g_263>
   11c19:	83 e8 01             	sub    $0x1,%eax
   11c1c:	66 89 05 f9 35 01 00 	mov    %ax,0x135f9(%rip)        # 2521c <g_263>
   11c23:	0f b7 05 f2 35 01 00 	movzwl 0x135f2(%rip),%eax        # 2521c <g_263>
   11c2a:	66 85 c0             	test   %ax,%ax
   11c2d:	0f 89 16 fe ff ff    	jns    11a49 <func_13+0x16d4>
   11c33:	0f b7 85 60 f1 ff ff 	movzwl -0xea0(%rbp),%eax
   11c3a:	0f be d8             	movsbl %al,%ebx
   11c3d:	66 83 bd d4 ee ff ff 	cmpw   $0x0,-0x112c(%rbp)
   11c44:	00 
   11c45:	0f 94 c0             	sete   %al
   11c48:	44 0f b6 e0          	movzbl %al,%r12d
   11c4c:	be 03 00 00 00       	mov    $0x3,%esi
   11c51:	bf 01 00 00 00       	mov    $0x1,%edi
   11c56:	e8 93 b6 ff ff       	callq  d2ee <safe_lshift_func_int8_t_s_u>
   11c5b:	48 8b 85 48 f0 ff ff 	mov    -0xfb8(%rbp),%rax
   11c62:	48 8b 00             	mov    (%rax),%rax
   11c65:	48 8d 50 01          	lea    0x1(%rax),%rdx
   11c69:	48 8b 85 48 f0 ff ff 	mov    -0xfb8(%rbp),%rax
   11c70:	48 89 10             	mov    %rdx,(%rax)
   11c73:	48 83 bd 90 f0 ff ff 	cmpq   $0x0,-0xf70(%rbp)
   11c7a:	00 
   11c7b:	8b 05 5b 36 01 00    	mov    0x1365b(%rip),%eax        # 252dc <g_1691>
   11c81:	89 c0                	mov    %eax,%eax
   11c83:	48 8b 94 c5 d0 f2 ff 	mov    -0xd30(%rbp,%rax,8),%rdx
   11c8a:	ff 
   11c8b:	48 8b 85 a0 f2 ff ff 	mov    -0xd60(%rbp),%rax
   11c92:	48 39 c2             	cmp    %rax,%rdx
   11c95:	48 8b 05 f4 78 01 00 	mov    0x178f4(%rip),%rax        # 29590 <g_1556>
   11c9c:	48 8b 00             	mov    (%rax),%rax
   11c9f:	0f b6 00             	movzbl (%rax),%eax
   11ca2:	48 0f be c0          	movsbq %al,%rax
   11ca6:	48 ba 2d 2e ad ec 73 	movabs $0xfe625573ecad2e2d,%rdx
   11cad:	55 62 fe 
   11cb0:	48 39 d0             	cmp    %rdx,%rax
   11cb3:	0f 94 c0             	sete   %al
   11cb6:	0f b6 c0             	movzbl %al,%eax
   11cb9:	89 85 f8 ee ff ff    	mov    %eax,-0x1108(%rbp)
   11cbf:	8b 85 f8 ee ff ff    	mov    -0x1108(%rbp),%eax
   11cc5:	41 39 c4             	cmp    %eax,%r12d
   11cc8:	0f 9d c0             	setge  %al
   11ccb:	0f b6 c0             	movzbl %al,%eax
   11cce:	89 de                	mov    %ebx,%esi
   11cd0:	89 c7                	mov    %eax,%edi
   11cd2:	e8 5a b5 ff ff       	callq  d231 <safe_mod_func_int8_t_s_s>
   11cd7:	84 c0                	test   %al,%al
   11cd9:	74 43                	je     11d1e <func_13+0x19a9>
   11cdb:	48 8d 85 d0 f7 ff ff 	lea    -0x830(%rbp),%rax
   11ce2:	48 8d 15 f7 46 01 00 	lea    0x146f7(%rip),%rdx        # 263e0 <g_3117+0x1014>
   11ce9:	b9 46 00 00 00       	mov    $0x46,%ecx
   11cee:	48 89 c7             	mov    %rax,%rdi
   11cf1:	48 89 d6             	mov    %rdx,%rsi
   11cf4:	f3 48 a5             	rep movsq %ds:(%rsi),%es:(%rdi)
   11cf7:	66 c7 85 f2 ee ff ff 	movw   $0xfffe,-0x110e(%rbp)
   11cfe:	fe ff 
   11d00:	48 8b 85 40 f2 ff ff 	mov    -0xdc0(%rbp),%rax
   11d07:	48 83 c0 01          	add    $0x1,%rax
   11d0b:	48 89 85 40 f2 ff ff 	mov    %rax,-0xdc0(%rbp)
   11d12:	83 ad 10 ef ff ff 01 	subl   $0x1,-0x10f0(%rbp)
   11d19:	e9 b5 0e 00 00       	jmpq   12bd3 <func_13+0x285e>
   11d1e:	48 8d 05 57 35 01 00 	lea    0x13557(%rip),%rax        # 2527c <g_871+0x1c>
   11d25:	48 89 85 d0 f7 ff ff 	mov    %rax,-0x830(%rbp)
   11d2c:	48 8d 85 10 f2 ff ff 	lea    -0xdf0(%rbp),%rax
   11d33:	48 83 c0 18          	add    $0x18,%rax
   11d37:	48 89 85 d8 f7 ff ff 	mov    %rax,-0x828(%rbp)
   11d3e:	48 8d 85 c8 ef ff ff 	lea    -0x1038(%rbp),%rax
   11d45:	48 89 85 e0 f7 ff ff 	mov    %rax,-0x820(%rbp)
   11d4c:	48 8d 05 a5 34 01 00 	lea    0x134a5(%rip),%rax        # 251f8 <g_133+0x38>
   11d53:	48 89 85 e8 f7 ff ff 	mov    %rax,-0x818(%rbp)
   11d5a:	48 8d 85 00 ef ff ff 	lea    -0x1100(%rbp),%rax
   11d61:	48 89 85 f0 f7 ff ff 	mov    %rax,-0x810(%rbp)
   11d68:	48 8d 85 f8 ee ff ff 	lea    -0x1108(%rbp),%rax
   11d6f:	48 89 85 f8 f7 ff ff 	mov    %rax,-0x808(%rbp)
   11d76:	48 8d 05 7b 34 01 00 	lea    0x1347b(%rip),%rax        # 251f8 <g_133+0x38>
   11d7d:	48 89 85 00 f8 ff ff 	mov    %rax,-0x800(%rbp)
   11d84:	48 8d 85 10 f2 ff ff 	lea    -0xdf0(%rbp),%rax
   11d8b:	48 83 c0 0c          	add    $0xc,%rax
   11d8f:	48 89 85 08 f8 ff ff 	mov    %rax,-0x7f8(%rbp)
   11d96:	48 8d 85 00 ef ff ff 	lea    -0x1100(%rbp),%rax
   11d9d:	48 89 85 10 f8 ff ff 	mov    %rax,-0x7f0(%rbp)
   11da4:	48 8d 85 00 ef ff ff 	lea    -0x1100(%rbp),%rax
   11dab:	48 89 85 18 f8 ff ff 	mov    %rax,-0x7e8(%rbp)
   11db2:	48 c7 85 20 f8 ff ff 	movq   $0x0,-0x7e0(%rbp)
   11db9:	00 00 00 00 
   11dbd:	48 8d 05 a8 34 01 00 	lea    0x134a8(%rip),%rax        # 2526c <g_871+0xc>
   11dc4:	48 89 85 28 f8 ff ff 	mov    %rax,-0x7d8(%rbp)
   11dcb:	48 c7 85 30 f8 ff ff 	movq   $0x0,-0x7d0(%rbp)
   11dd2:	00 00 00 00 
   11dd6:	48 8d 05 bf 33 01 00 	lea    0x133bf(%rip),%rax        # 2519c <g_104>
   11ddd:	48 89 85 38 f8 ff ff 	mov    %rax,-0x7c8(%rbp)
   11de4:	48 8d 85 10 f2 ff ff 	lea    -0xdf0(%rbp),%rax
   11deb:	48 83 c0 0c          	add    $0xc,%rax
   11def:	48 89 85 40 f8 ff ff 	mov    %rax,-0x7c0(%rbp)
   11df6:	48 8d 85 00 ef ff ff 	lea    -0x1100(%rbp),%rax
   11dfd:	48 89 85 48 f8 ff ff 	mov    %rax,-0x7b8(%rbp)
   11e04:	48 c7 85 50 f8 ff ff 	movq   $0x0,-0x7b0(%rbp)
   11e0b:	00 00 00 00 
   11e0f:	48 8d 85 04 ef ff ff 	lea    -0x10fc(%rbp),%rax
   11e16:	48 89 85 58 f8 ff ff 	mov    %rax,-0x7a8(%rbp)
   11e1d:	48 8d 85 00 ef ff ff 	lea    -0x1100(%rbp),%rax
   11e24:	48 89 85 60 f8 ff ff 	mov    %rax,-0x7a0(%rbp)
   11e2b:	48 c7 85 68 f8 ff ff 	movq   $0x0,-0x798(%rbp)
   11e32:	00 00 00 00 
   11e36:	48 8d 05 5f 33 01 00 	lea    0x1335f(%rip),%rax        # 2519c <g_104>
   11e3d:	48 89 85 70 f8 ff ff 	mov    %rax,-0x790(%rbp)
   11e44:	48 8d 85 00 ef ff ff 	lea    -0x1100(%rbp),%rax
   11e4b:	48 89 85 78 f8 ff ff 	mov    %rax,-0x788(%rbp)
   11e52:	48 8d 05 af 33 01 00 	lea    0x133af(%rip),%rax        # 25208 <g_133+0x48>
   11e59:	48 89 85 80 f8 ff ff 	mov    %rax,-0x780(%rbp)
   11e60:	48 c7 85 88 f8 ff ff 	movq   $0x0,-0x778(%rbp)
   11e67:	00 00 00 00 
   11e6b:	48 8d 85 04 ef ff ff 	lea    -0x10fc(%rbp),%rax
   11e72:	48 89 85 90 f8 ff ff 	mov    %rax,-0x770(%rbp)
   11e79:	48 8d 05 ec 33 01 00 	lea    0x133ec(%rip),%rax        # 2526c <g_871+0xc>
   11e80:	48 89 85 98 f8 ff ff 	mov    %rax,-0x768(%rbp)
   11e87:	48 8d 05 e2 33 01 00 	lea    0x133e2(%rip),%rax        # 25270 <g_871+0x10>
   11e8e:	48 89 85 a0 f8 ff ff 	mov    %rax,-0x760(%rbp)
   11e95:	48 8d 85 f8 ee ff ff 	lea    -0x1108(%rbp),%rax
   11e9c:	48 89 85 a8 f8 ff ff 	mov    %rax,-0x758(%rbp)
   11ea3:	48 8d 05 7a 31 01 00 	lea    0x1317a(%rip),%rax        # 25024 <g_17>
   11eaa:	48 89 85 b0 f8 ff ff 	mov    %rax,-0x750(%rbp)
   11eb1:	48 c7 85 b8 f8 ff ff 	movq   $0x0,-0x748(%rbp)
   11eb8:	00 00 00 00 
   11ebc:	48 8d 05 a9 33 01 00 	lea    0x133a9(%rip),%rax        # 2526c <g_871+0xc>
   11ec3:	48 89 85 c0 f8 ff ff 	mov    %rax,-0x740(%rbp)
   11eca:	48 8d 85 04 ef ff ff 	lea    -0x10fc(%rbp),%rax
   11ed1:	48 89 85 c8 f8 ff ff 	mov    %rax,-0x738(%rbp)
   11ed8:	48 8d 85 f8 ee ff ff 	lea    -0x1108(%rbp),%rax
   11edf:	48 89 85 d0 f8 ff ff 	mov    %rax,-0x730(%rbp)
   11ee6:	48 8d 05 7f 33 01 00 	lea    0x1337f(%rip),%rax        # 2526c <g_871+0xc>
   11eed:	48 89 85 d8 f8 ff ff 	mov    %rax,-0x728(%rbp)
   11ef4:	48 8d 85 04 ef ff ff 	lea    -0x10fc(%rbp),%rax
   11efb:	48 89 85 e0 f8 ff ff 	mov    %rax,-0x720(%rbp)
   11f02:	48 8d 05 93 32 01 00 	lea    0x13293(%rip),%rax        # 2519c <g_104>
   11f09:	48 89 85 e8 f8 ff ff 	mov    %rax,-0x718(%rbp)
   11f10:	48 8d 05 85 32 01 00 	lea    0x13285(%rip),%rax        # 2519c <g_104>
   11f17:	48 89 85 f0 f8 ff ff 	mov    %rax,-0x710(%rbp)
   11f1e:	48 8d 85 f8 ee ff ff 	lea    -0x1108(%rbp),%rax
   11f25:	48 89 85 f8 f8 ff ff 	mov    %rax,-0x708(%rbp)
   11f2c:	48 8d 05 b9 32 01 00 	lea    0x132b9(%rip),%rax        # 251ec <g_133+0x2c>
   11f33:	48 89 85 00 f9 ff ff 	mov    %rax,-0x700(%rbp)
   11f3a:	48 c7 85 08 f9 ff ff 	movq   $0x0,-0x6f8(%rbp)
   11f41:	00 00 00 00 
   11f45:	48 8d 85 00 ef ff ff 	lea    -0x1100(%rbp),%rax
   11f4c:	48 89 85 10 f9 ff ff 	mov    %rax,-0x6f0(%rbp)
   11f53:	48 c7 85 18 f9 ff ff 	movq   $0x0,-0x6e8(%rbp)
   11f5a:	00 00 00 00 
   11f5e:	48 8d 85 fc ee ff ff 	lea    -0x1104(%rbp),%rax
   11f65:	48 89 85 20 f9 ff ff 	mov    %rax,-0x6e0(%rbp)
   11f6c:	48 8d 85 c8 ef ff ff 	lea    -0x1038(%rbp),%rax
   11f73:	48 89 85 28 f9 ff ff 	mov    %rax,-0x6d8(%rbp)
   11f7a:	48 c7 85 30 f9 ff ff 	movq   $0x0,-0x6d0(%rbp)
   11f81:	00 00 00 00 
   11f85:	48 c7 85 38 f9 ff ff 	movq   $0x0,-0x6c8(%rbp)
   11f8c:	00 00 00 00 
   11f90:	48 c7 85 40 f9 ff ff 	movq   $0x0,-0x6c0(%rbp)
   11f97:	00 00 00 00 
   11f9b:	48 c7 85 48 f9 ff ff 	movq   $0x0,-0x6b8(%rbp)
   11fa2:	00 00 00 00 
   11fa6:	48 8d 85 00 ef ff ff 	lea    -0x1100(%rbp),%rax
   11fad:	48 89 85 50 f9 ff ff 	mov    %rax,-0x6b0(%rbp)
   11fb4:	48 8d 05 e1 31 01 00 	lea    0x131e1(%rip),%rax        # 2519c <g_104>
   11fbb:	48 89 85 58 f9 ff ff 	mov    %rax,-0x6a8(%rbp)
   11fc2:	48 8d 85 f8 ee ff ff 	lea    -0x1108(%rbp),%rax
   11fc9:	48 89 85 60 f9 ff ff 	mov    %rax,-0x6a0(%rbp)
   11fd0:	48 8d 85 04 ef ff ff 	lea    -0x10fc(%rbp),%rax
   11fd7:	48 89 85 68 f9 ff ff 	mov    %rax,-0x698(%rbp)
   11fde:	48 8d 05 07 32 01 00 	lea    0x13207(%rip),%rax        # 251ec <g_133+0x2c>
   11fe5:	48 89 85 70 f9 ff ff 	mov    %rax,-0x690(%rbp)
   11fec:	48 8d 85 fc ee ff ff 	lea    -0x1104(%rbp),%rax
   11ff3:	48 89 85 78 f9 ff ff 	mov    %rax,-0x688(%rbp)
   11ffa:	48 8d 85 10 f2 ff ff 	lea    -0xdf0(%rbp),%rax
   12001:	48 83 c0 0c          	add    $0xc,%rax
   12005:	48 89 85 80 f9 ff ff 	mov    %rax,-0x680(%rbp)
   1200c:	48 8d 05 69 32 01 00 	lea    0x13269(%rip),%rax        # 2527c <g_871+0x1c>
   12013:	48 89 85 88 f9 ff ff 	mov    %rax,-0x678(%rbp)
   1201a:	48 c7 85 90 f9 ff ff 	movq   $0x0,-0x670(%rbp)
   12021:	00 00 00 00 
   12025:	48 8d 85 00 ef ff ff 	lea    -0x1100(%rbp),%rax
   1202c:	48 89 85 98 f9 ff ff 	mov    %rax,-0x668(%rbp)
   12033:	48 8d 05 ea 2f 01 00 	lea    0x12fea(%rip),%rax        # 25024 <g_17>
   1203a:	48 89 85 a0 f9 ff ff 	mov    %rax,-0x660(%rbp)
   12041:	48 c7 85 a8 f9 ff ff 	movq   $0x0,-0x658(%rbp)
   12048:	00 00 00 00 
   1204c:	48 8d 85 04 ef ff ff 	lea    -0x10fc(%rbp),%rax
   12053:	48 89 85 b0 f9 ff ff 	mov    %rax,-0x650(%rbp)
   1205a:	48 c7 85 b8 f9 ff ff 	movq   $0x0,-0x648(%rbp)
   12061:	00 00 00 00 
   12065:	48 c7 85 c0 f9 ff ff 	movq   $0x0,-0x640(%rbp)
   1206c:	00 00 00 00 
   12070:	48 c7 85 c8 f9 ff ff 	movq   $0x0,-0x638(%rbp)
   12077:	00 00 00 00 
   1207b:	48 8d 85 04 ef ff ff 	lea    -0x10fc(%rbp),%rax
   12082:	48 89 85 d0 f9 ff ff 	mov    %rax,-0x630(%rbp)
   12089:	48 8d 85 c8 ef ff ff 	lea    -0x1038(%rbp),%rax
   12090:	48 89 85 d8 f9 ff ff 	mov    %rax,-0x628(%rbp)
   12097:	48 8d 85 04 ef ff ff 	lea    -0x10fc(%rbp),%rax
   1209e:	48 89 85 e0 f9 ff ff 	mov    %rax,-0x620(%rbp)
   120a5:	48 8d 05 c4 31 01 00 	lea    0x131c4(%rip),%rax        # 25270 <g_871+0x10>
   120ac:	48 89 85 e8 f9 ff ff 	mov    %rax,-0x618(%rbp)
   120b3:	48 8d 05 ba 31 01 00 	lea    0x131ba(%rip),%rax        # 25274 <g_871+0x14>
   120ba:	48 89 85 f0 f9 ff ff 	mov    %rax,-0x610(%rbp)
   120c1:	48 8d 85 c8 ef ff ff 	lea    -0x1038(%rbp),%rax
   120c8:	48 89 85 f8 f9 ff ff 	mov    %rax,-0x608(%rbp)
   120cf:	48 c7 85 00 fa ff ff 	movq   $0x0,-0x600(%rbp)
   120d6:	00 00 00 00 
   120da:	48 8d 85 10 f2 ff ff 	lea    -0xdf0(%rbp),%rax
   120e1:	48 83 c0 0c          	add    $0xc,%rax
   120e5:	48 89 85 08 fa ff ff 	mov    %rax,-0x5f8(%rbp)
   120ec:	48 8d 05 fd 30 01 00 	lea    0x130fd(%rip),%rax        # 251f0 <g_133+0x30>
   120f3:	48 89 85 10 fa ff ff 	mov    %rax,-0x5f0(%rbp)
   120fa:	48 8d 05 9b 30 01 00 	lea    0x1309b(%rip),%rax        # 2519c <g_104>
   12101:	48 89 85 18 fa ff ff 	mov    %rax,-0x5e8(%rbp)
   12108:	48 8d 05 5d 31 01 00 	lea    0x1315d(%rip),%rax        # 2526c <g_871+0xc>
   1210f:	48 89 85 20 fa ff ff 	mov    %rax,-0x5e0(%rbp)
   12116:	48 8d 85 00 ef ff ff 	lea    -0x1100(%rbp),%rax
   1211d:	48 89 85 28 fa ff ff 	mov    %rax,-0x5d8(%rbp)
   12124:	48 8d 05 3d 31 01 00 	lea    0x1313d(%rip),%rax        # 25268 <g_871+0x8>
   1212b:	48 89 85 30 fa ff ff 	mov    %rax,-0x5d0(%rbp)
   12132:	48 8d 05 3b 31 01 00 	lea    0x1313b(%rip),%rax        # 25274 <g_871+0x14>
   12139:	48 89 85 38 fa ff ff 	mov    %rax,-0x5c8(%rbp)
   12140:	48 8d 85 04 ef ff ff 	lea    -0x10fc(%rbp),%rax
   12147:	48 89 85 40 fa ff ff 	mov    %rax,-0x5c0(%rbp)
   1214e:	48 8d 85 c8 ef ff ff 	lea    -0x1038(%rbp),%rax
   12155:	48 89 85 48 fa ff ff 	mov    %rax,-0x5b8(%rbp)
   1215c:	48 8d 05 39 30 01 00 	lea    0x13039(%rip),%rax        # 2519c <g_104>
   12163:	48 89 85 50 fa ff ff 	mov    %rax,-0x5b0(%rbp)
   1216a:	48 8d 05 2b 30 01 00 	lea    0x1302b(%rip),%rax        # 2519c <g_104>
   12171:	48 89 85 58 fa ff ff 	mov    %rax,-0x5a8(%rbp)
   12178:	48 8d 05 ed 30 01 00 	lea    0x130ed(%rip),%rax        # 2526c <g_871+0xc>
   1217f:	48 89 85 60 fa ff ff 	mov    %rax,-0x5a0(%rbp)
   12186:	48 8d 85 d0 f1 ff ff 	lea    -0xe30(%rbp),%rax
   1218d:	48 89 85 68 fa ff ff 	mov    %rax,-0x598(%rbp)
   12194:	48 8d 85 04 ef ff ff 	lea    -0x10fc(%rbp),%rax
   1219b:	48 89 85 70 fa ff ff 	mov    %rax,-0x590(%rbp)
   121a2:	48 8d 85 c8 ef ff ff 	lea    -0x1038(%rbp),%rax
   121a9:	48 89 85 78 fa ff ff 	mov    %rax,-0x588(%rbp)
   121b0:	48 8d 05 b5 30 01 00 	lea    0x130b5(%rip),%rax        # 2526c <g_871+0xc>
   121b7:	48 89 85 80 fa ff ff 	mov    %rax,-0x580(%rbp)
   121be:	48 8d 85 c0 ef ff ff 	lea    -0x1040(%rbp),%rax
   121c5:	48 89 85 88 fa ff ff 	mov    %rax,-0x578(%rbp)
   121cc:	48 c7 85 90 fa ff ff 	movq   $0x0,-0x570(%rbp)
   121d3:	00 00 00 00 
   121d7:	48 c7 85 98 fa ff ff 	movq   $0x0,-0x568(%rbp)
   121de:	00 00 00 00 
   121e2:	48 8d 05 b3 2f 01 00 	lea    0x12fb3(%rip),%rax        # 2519c <g_104>
   121e9:	48 89 85 a0 fa ff ff 	mov    %rax,-0x560(%rbp)
   121f0:	48 8d 85 10 f2 ff ff 	lea    -0xdf0(%rbp),%rax
   121f7:	48 83 c0 0c          	add    $0xc,%rax
   121fb:	48 89 85 a8 fa ff ff 	mov    %rax,-0x558(%rbp)
   12202:	48 8d 05 67 30 01 00 	lea    0x13067(%rip),%rax        # 25270 <g_871+0x10>
   12209:	48 89 85 b0 fa ff ff 	mov    %rax,-0x550(%rbp)
   12210:	48 8d 85 f8 ee ff ff 	lea    -0x1108(%rbp),%rax
   12217:	48 89 85 b8 fa ff ff 	mov    %rax,-0x548(%rbp)
   1221e:	48 8d 85 10 f2 ff ff 	lea    -0xdf0(%rbp),%rax
   12225:	48 83 c0 0c          	add    $0xc,%rax
   12229:	48 89 85 c0 fa ff ff 	mov    %rax,-0x540(%rbp)
   12230:	48 8d 85 10 f2 ff ff 	lea    -0xdf0(%rbp),%rax
   12237:	48 83 c0 0c          	add    $0xc,%rax
   1223b:	48 89 85 c8 fa ff ff 	mov    %rax,-0x538(%rbp)
   12242:	48 8d 85 00 ef ff ff 	lea    -0x1100(%rbp),%rax
   12249:	48 89 85 d0 fa ff ff 	mov    %rax,-0x530(%rbp)
   12250:	48 8d 05 15 30 01 00 	lea    0x13015(%rip),%rax        # 2526c <g_871+0xc>
   12257:	48 89 85 d8 fa ff ff 	mov    %rax,-0x528(%rbp)
   1225e:	48 c7 85 e0 fa ff ff 	movq   $0x0,-0x520(%rbp)
   12265:	00 00 00 00 
   12269:	48 8d 05 2c 2f 01 00 	lea    0x12f2c(%rip),%rax        # 2519c <g_104>
   12270:	48 89 85 e8 fa ff ff 	mov    %rax,-0x518(%rbp)
   12277:	48 8d 05 ea 2f 01 00 	lea    0x12fea(%rip),%rax        # 25268 <g_871+0x8>
   1227e:	48 89 85 f0 fa ff ff 	mov    %rax,-0x510(%rbp)
   12285:	48 8d 05 48 2f 01 00 	lea    0x12f48(%rip),%rax        # 251d4 <g_133+0x14>
   1228c:	48 89 85 f8 fa ff ff 	mov    %rax,-0x508(%rbp)
   12293:	48 8d 05 d2 2f 01 00 	lea    0x12fd2(%rip),%rax        # 2526c <g_871+0xc>
   1229a:	48 89 85 00 fb ff ff 	mov    %rax,-0x500(%rbp)
   122a1:	48 c7 85 08 fb ff ff 	movq   $0x0,-0x4f8(%rbp)
   122a8:	00 00 00 00 
   122ac:	48 c7 85 10 fb ff ff 	movq   $0x0,-0x4f0(%rbp)
   122b3:	00 00 00 00 
   122b7:	48 8d 85 10 f2 ff ff 	lea    -0xdf0(%rbp),%rax
   122be:	48 83 c0 0c          	add    $0xc,%rax
   122c2:	48 89 85 18 fb ff ff 	mov    %rax,-0x4e8(%rbp)
   122c9:	48 8d 85 04 ef ff ff 	lea    -0x10fc(%rbp),%rax
   122d0:	48 89 85 20 fb ff ff 	mov    %rax,-0x4e0(%rbp)
   122d7:	48 8d 85 10 f2 ff ff 	lea    -0xdf0(%rbp),%rax
   122de:	48 83 c0 08          	add    $0x8,%rax
   122e2:	48 89 85 28 fb ff ff 	mov    %rax,-0x4d8(%rbp)
   122e9:	48 c7 85 30 fb ff ff 	movq   $0x0,-0x4d0(%rbp)
   122f0:	00 00 00 00 
   122f4:	48 c7 85 38 fb ff ff 	movq   $0x0,-0x4c8(%rbp)
   122fb:	00 00 00 00 
   122ff:	48 c7 85 40 fb ff ff 	movq   $0x0,-0x4c0(%rbp)
   12306:	00 00 00 00 
   1230a:	48 8d 05 e7 2e 01 00 	lea    0x12ee7(%rip),%rax        # 251f8 <g_133+0x38>
   12311:	48 89 85 48 fb ff ff 	mov    %rax,-0x4b8(%rbp)
   12318:	48 8d 05 51 2f 01 00 	lea    0x12f51(%rip),%rax        # 25270 <g_871+0x10>
   1231f:	48 89 85 50 fb ff ff 	mov    %rax,-0x4b0(%rbp)
   12326:	48 8d 05 33 2f 01 00 	lea    0x12f33(%rip),%rax        # 25260 <g_871>
   1232d:	48 89 85 58 fb ff ff 	mov    %rax,-0x4a8(%rbp)
   12334:	48 8d 85 04 ef ff ff 	lea    -0x10fc(%rbp),%rax
   1233b:	48 89 85 60 fb ff ff 	mov    %rax,-0x4a0(%rbp)
   12342:	48 8d 85 c8 ef ff ff 	lea    -0x1038(%rbp),%rax
   12349:	48 89 85 68 fb ff ff 	mov    %rax,-0x498(%rbp)
   12350:	48 8d 85 f8 ee ff ff 	lea    -0x1108(%rbp),%rax
   12357:	48 89 85 70 fb ff ff 	mov    %rax,-0x490(%rbp)
   1235e:	48 8d 05 37 2e 01 00 	lea    0x12e37(%rip),%rax        # 2519c <g_104>
   12365:	48 89 85 78 fb ff ff 	mov    %rax,-0x488(%rbp)
   1236c:	48 c7 85 80 fb ff ff 	movq   $0x0,-0x480(%rbp)
   12373:	00 00 00 00 
   12377:	48 c7 85 88 fb ff ff 	movq   $0x0,-0x478(%rbp)
   1237e:	00 00 00 00 
   12382:	48 8d 05 13 2e 01 00 	lea    0x12e13(%rip),%rax        # 2519c <g_104>
   12389:	48 89 85 90 fb ff ff 	mov    %rax,-0x470(%rbp)
   12390:	48 8d 05 e5 2e 01 00 	lea    0x12ee5(%rip),%rax        # 2527c <g_871+0x1c>
   12397:	48 89 85 98 fb ff ff 	mov    %rax,-0x468(%rbp)
   1239e:	48 8d 05 c7 2e 01 00 	lea    0x12ec7(%rip),%rax        # 2526c <g_871+0xc>
   123a5:	48 89 85 a0 fb ff ff 	mov    %rax,-0x460(%rbp)
   123ac:	48 c7 85 a8 fb ff ff 	movq   $0x0,-0x458(%rbp)
   123b3:	00 00 00 00 
   123b7:	48 8d 85 04 ef ff ff 	lea    -0x10fc(%rbp),%rax
   123be:	48 89 85 b0 fb ff ff 	mov    %rax,-0x450(%rbp)
   123c5:	48 c7 85 b8 fb ff ff 	movq   $0x0,-0x448(%rbp)
   123cc:	00 00 00 00 
   123d0:	48 8d 85 c8 ef ff ff 	lea    -0x1038(%rbp),%rax
   123d7:	48 89 85 c0 fb ff ff 	mov    %rax,-0x440(%rbp)
   123de:	48 8d 05 07 2e 01 00 	lea    0x12e07(%rip),%rax        # 251ec <g_133+0x2c>
   123e5:	48 89 85 c8 fb ff ff 	mov    %rax,-0x438(%rbp)
   123ec:	48 8d 05 6d 2e 01 00 	lea    0x12e6d(%rip),%rax        # 25260 <g_871>
   123f3:	48 89 85 d0 fb ff ff 	mov    %rax,-0x430(%rbp)
   123fa:	48 c7 85 d8 fb ff ff 	movq   $0x0,-0x428(%rbp)
   12401:	00 00 00 00 
   12405:	48 8d 85 00 ef ff ff 	lea    -0x1100(%rbp),%rax
   1240c:	48 89 85 e0 fb ff ff 	mov    %rax,-0x420(%rbp)
   12413:	48 8d 05 52 2e 01 00 	lea    0x12e52(%rip),%rax        # 2526c <g_871+0xc>
   1241a:	48 89 85 e8 fb ff ff 	mov    %rax,-0x418(%rbp)
   12421:	48 8d 05 44 2e 01 00 	lea    0x12e44(%rip),%rax        # 2526c <g_871+0xc>
   12428:	48 89 85 f0 fb ff ff 	mov    %rax,-0x410(%rbp)
   1242f:	48 c7 85 f8 fb ff ff 	movq   $0x0,-0x408(%rbp)
   12436:	00 00 00 00 
   1243a:	48 8d 85 10 f2 ff ff 	lea    -0xdf0(%rbp),%rax
   12441:	48 83 c0 0c          	add    $0xc,%rax
   12445:	48 89 85 00 fc ff ff 	mov    %rax,-0x400(%rbp)
   1244c:	48 8d 85 00 ef ff ff 	lea    -0x1100(%rbp),%rax
   12453:	48 89 85 08 fc ff ff 	mov    %rax,-0x3f8(%rbp)
   1245a:	48 c7 85 10 fc ff ff 	movq   $0x0,-0x3f0(%rbp)
   12461:	00 00 00 00 
   12465:	48 8d 85 f8 ee ff ff 	lea    -0x1108(%rbp),%rax
   1246c:	48 89 85 18 fc ff ff 	mov    %rax,-0x3e8(%rbp)
   12473:	48 c7 85 20 fc ff ff 	movq   $0x0,-0x3e0(%rbp)
   1247a:	00 00 00 00 
   1247e:	48 8d 85 00 ef ff ff 	lea    -0x1100(%rbp),%rax
   12485:	48 89 85 28 fc ff ff 	mov    %rax,-0x3d8(%rbp)
   1248c:	48 8d 85 fc ee ff ff 	lea    -0x1104(%rbp),%rax
   12493:	48 89 85 30 fc ff ff 	mov    %rax,-0x3d0(%rbp)
   1249a:	48 8d 05 83 2b 01 00 	lea    0x12b83(%rip),%rax        # 25024 <g_17>
   124a1:	48 89 85 38 fc ff ff 	mov    %rax,-0x3c8(%rbp)
   124a8:	48 8d 85 f8 ee ff ff 	lea    -0x1108(%rbp),%rax
   124af:	48 89 85 40 fc ff ff 	mov    %rax,-0x3c0(%rbp)
   124b6:	48 c7 85 48 fc ff ff 	movq   $0x0,-0x3b8(%rbp)
   124bd:	00 00 00 00 
   124c1:	48 8d 85 00 ef ff ff 	lea    -0x1100(%rbp),%rax
   124c8:	48 89 85 50 fc ff ff 	mov    %rax,-0x3b0(%rbp)
   124cf:	48 c7 85 58 fc ff ff 	movq   $0x0,-0x3a8(%rbp)
   124d6:	00 00 00 00 
   124da:	48 c7 85 60 fc ff ff 	movq   $0x0,-0x3a0(%rbp)
   124e1:	00 00 00 00 
   124e5:	48 8d 05 80 2d 01 00 	lea    0x12d80(%rip),%rax        # 2526c <g_871+0xc>
   124ec:	48 89 85 68 fc ff ff 	mov    %rax,-0x398(%rbp)
   124f3:	48 8d 85 f8 ee ff ff 	lea    -0x1108(%rbp),%rax
   124fa:	48 89 85 70 fc ff ff 	mov    %rax,-0x390(%rbp)
   12501:	48 8d 05 e8 2c 01 00 	lea    0x12ce8(%rip),%rax        # 251f0 <g_133+0x30>
   12508:	48 89 85 78 fc ff ff 	mov    %rax,-0x388(%rbp)
   1250f:	48 8d 85 04 ef ff ff 	lea    -0x10fc(%rbp),%rax
   12516:	48 89 85 80 fc ff ff 	mov    %rax,-0x380(%rbp)
   1251d:	48 8d 05 58 2d 01 00 	lea    0x12d58(%rip),%rax        # 2527c <g_871+0x1c>
   12524:	48 89 85 88 fc ff ff 	mov    %rax,-0x378(%rbp)
   1252b:	48 8d 85 fc ee ff ff 	lea    -0x1104(%rbp),%rax
   12532:	48 89 85 90 fc ff ff 	mov    %rax,-0x370(%rbp)
   12539:	48 c7 85 98 fc ff ff 	movq   $0x0,-0x368(%rbp)
   12540:	00 00 00 00 
   12544:	48 c7 85 a0 fc ff ff 	movq   $0x0,-0x360(%rbp)
   1254b:	00 00 00 00 
   1254f:	48 8d 05 b2 2c 01 00 	lea    0x12cb2(%rip),%rax        # 25208 <g_133+0x48>
   12556:	48 89 85 a8 fc ff ff 	mov    %rax,-0x358(%rbp)
   1255d:	48 8d 85 10 f2 ff ff 	lea    -0xdf0(%rbp),%rax
   12564:	48 83 c0 18          	add    $0x18,%rax
   12568:	48 89 85 b0 fc ff ff 	mov    %rax,-0x350(%rbp)
   1256f:	48 8d 05 92 2c 01 00 	lea    0x12c92(%rip),%rax        # 25208 <g_133+0x48>
   12576:	48 89 85 b8 fc ff ff 	mov    %rax,-0x348(%rbp)
   1257d:	48 8d 85 d0 f1 ff ff 	lea    -0xe30(%rbp),%rax
   12584:	48 89 85 c0 fc ff ff 	mov    %rax,-0x340(%rbp)
   1258b:	48 8d 85 00 ef ff ff 	lea    -0x1100(%rbp),%rax
   12592:	48 89 85 c8 fc ff ff 	mov    %rax,-0x338(%rbp)
   12599:	48 8d 85 10 f2 ff ff 	lea    -0xdf0(%rbp),%rax
   125a0:	48 83 c0 18          	add    $0x18,%rax
   125a4:	48 89 85 d0 fc ff ff 	mov    %rax,-0x330(%rbp)
   125ab:	48 8d 85 d0 f1 ff ff 	lea    -0xe30(%rbp),%rax
   125b2:	48 89 85 d8 fc ff ff 	mov    %rax,-0x328(%rbp)
   125b9:	48 8d 85 10 f2 ff ff 	lea    -0xdf0(%rbp),%rax
   125c0:	48 83 c0 0c          	add    $0xc,%rax
   125c4:	48 89 85 e0 fc ff ff 	mov    %rax,-0x320(%rbp)
   125cb:	48 8d 85 c8 ef ff ff 	lea    -0x1038(%rbp),%rax
   125d2:	48 89 85 e8 fc ff ff 	mov    %rax,-0x318(%rbp)
   125d9:	48 8d 85 04 ef ff ff 	lea    -0x10fc(%rbp),%rax
   125e0:	48 89 85 f0 fc ff ff 	mov    %rax,-0x310(%rbp)
   125e7:	48 8d 05 82 2c 01 00 	lea    0x12c82(%rip),%rax        # 25270 <g_871+0x10>
   125ee:	48 89 85 f8 fc ff ff 	mov    %rax,-0x308(%rbp)
   125f5:	48 8d 85 f8 ee ff ff 	lea    -0x1108(%rbp),%rax
   125fc:	48 89 85 00 fd ff ff 	mov    %rax,-0x300(%rbp)
   12603:	48 8d 85 00 ef ff ff 	lea    -0x1100(%rbp),%rax
   1260a:	48 89 85 08 fd ff ff 	mov    %rax,-0x2f8(%rbp)
   12611:	48 c7 85 10 fd ff ff 	movq   $0x0,-0x2f0(%rbp)
   12618:	00 00 00 00 
   1261c:	48 8d 05 49 2c 01 00 	lea    0x12c49(%rip),%rax        # 2526c <g_871+0xc>
   12623:	48 89 85 18 fd ff ff 	mov    %rax,-0x2e8(%rbp)
   1262a:	48 8d 05 b3 2b 01 00 	lea    0x12bb3(%rip),%rax        # 251e4 <g_133+0x24>
   12631:	48 89 85 20 fd ff ff 	mov    %rax,-0x2e0(%rbp)
   12638:	48 8d 05 5d 2b 01 00 	lea    0x12b5d(%rip),%rax        # 2519c <g_104>
   1263f:	48 89 85 28 fd ff ff 	mov    %rax,-0x2d8(%rbp)
   12646:	48 8d 85 10 f2 ff ff 	lea    -0xdf0(%rbp),%rax
   1264d:	48 83 c0 0c          	add    $0xc,%rax
   12651:	48 89 85 30 fd ff ff 	mov    %rax,-0x2d0(%rbp)
   12658:	48 8d 85 04 ef ff ff 	lea    -0x10fc(%rbp),%rax
   1265f:	48 89 85 38 fd ff ff 	mov    %rax,-0x2c8(%rbp)
   12666:	48 8d 05 83 2b 01 00 	lea    0x12b83(%rip),%rax        # 251f0 <g_133+0x30>
   1266d:	48 89 85 40 fd ff ff 	mov    %rax,-0x2c0(%rbp)
   12674:	48 8d 05 f1 2b 01 00 	lea    0x12bf1(%rip),%rax        # 2526c <g_871+0xc>
   1267b:	48 89 85 48 fd ff ff 	mov    %rax,-0x2b8(%rbp)
   12682:	48 8d 05 5b 2b 01 00 	lea    0x12b5b(%rip),%rax        # 251e4 <g_133+0x24>
   12689:	48 89 85 50 fd ff ff 	mov    %rax,-0x2b0(%rbp)
   12690:	48 8d 05 d9 2b 01 00 	lea    0x12bd9(%rip),%rax        # 25270 <g_871+0x10>
   12697:	48 89 85 58 fd ff ff 	mov    %rax,-0x2a8(%rbp)
   1269e:	48 8d 05 cb 2b 01 00 	lea    0x12bcb(%rip),%rax        # 25270 <g_871+0x10>
   126a5:	48 89 85 60 fd ff ff 	mov    %rax,-0x2a0(%rbp)
   126ac:	48 c7 85 68 fd ff ff 	movq   $0x0,-0x298(%rbp)
   126b3:	00 00 00 00 
   126b7:	48 8d 05 ae 2b 01 00 	lea    0x12bae(%rip),%rax        # 2526c <g_871+0xc>
   126be:	48 89 85 70 fd ff ff 	mov    %rax,-0x290(%rbp)
   126c5:	48 8d 85 c0 ef ff ff 	lea    -0x1040(%rbp),%rax
   126cc:	48 89 85 78 fd ff ff 	mov    %rax,-0x288(%rbp)
   126d3:	48 c7 85 80 fd ff ff 	movq   $0x0,-0x280(%rbp)
   126da:	00 00 00 00 
   126de:	48 c7 85 88 fd ff ff 	movq   $0x0,-0x278(%rbp)
   126e5:	00 00 00 00 
   126e9:	48 8d 05 70 2b 01 00 	lea    0x12b70(%rip),%rax        # 25260 <g_871>
   126f0:	48 89 85 90 fd ff ff 	mov    %rax,-0x270(%rbp)
   126f7:	48 8d 85 f8 ee ff ff 	lea    -0x1108(%rbp),%rax
   126fe:	48 89 85 98 fd ff ff 	mov    %rax,-0x268(%rbp)
   12705:	48 8d 05 c8 2a 01 00 	lea    0x12ac8(%rip),%rax        # 251d4 <g_133+0x14>
   1270c:	48 89 85 a0 fd ff ff 	mov    %rax,-0x260(%rbp)
   12713:	48 8d 05 ee 2a 01 00 	lea    0x12aee(%rip),%rax        # 25208 <g_133+0x48>
   1271a:	48 89 85 a8 fd ff ff 	mov    %rax,-0x258(%rbp)
   12721:	48 8d 85 f8 ee ff ff 	lea    -0x1108(%rbp),%rax
   12728:	48 89 85 b0 fd ff ff 	mov    %rax,-0x250(%rbp)
   1272f:	48 8d 85 f8 ee ff ff 	lea    -0x1108(%rbp),%rax
   12736:	48 89 85 b8 fd ff ff 	mov    %rax,-0x248(%rbp)
   1273d:	48 8d 05 28 2b 01 00 	lea    0x12b28(%rip),%rax        # 2526c <g_871+0xc>
   12744:	48 89 85 c0 fd ff ff 	mov    %rax,-0x240(%rbp)
   1274b:	48 8d 05 ae 2a 01 00 	lea    0x12aae(%rip),%rax        # 25200 <g_133+0x40>
   12752:	48 89 85 c8 fd ff ff 	mov    %rax,-0x238(%rbp)
   12759:	48 8d 85 f8 ee ff ff 	lea    -0x1108(%rbp),%rax
   12760:	48 89 85 d0 fd ff ff 	mov    %rax,-0x230(%rbp)
   12767:	48 c7 85 d8 fd ff ff 	movq   $0x0,-0x228(%rbp)
   1276e:	00 00 00 00 
   12772:	48 8d 85 04 ef ff ff 	lea    -0x10fc(%rbp),%rax
   12779:	48 89 85 e0 fd ff ff 	mov    %rax,-0x220(%rbp)
   12780:	48 8d 05 15 2a 01 00 	lea    0x12a15(%rip),%rax        # 2519c <g_104>
   12787:	48 89 85 e8 fd ff ff 	mov    %rax,-0x218(%rbp)
   1278e:	48 8d 85 f8 ee ff ff 	lea    -0x1108(%rbp),%rax
   12795:	48 89 85 f0 fd ff ff 	mov    %rax,-0x210(%rbp)
   1279c:	48 8d 85 04 ef ff ff 	lea    -0x10fc(%rbp),%rax
   127a3:	48 89 85 f8 fd ff ff 	mov    %rax,-0x208(%rbp)
   127aa:	48 8d 05 bb 2a 01 00 	lea    0x12abb(%rip),%rax        # 2526c <g_871+0xc>
   127b1:	48 89 85 00 fe ff ff 	mov    %rax,-0x200(%rbp)
   127b8:	48 8d 05 b1 2a 01 00 	lea    0x12ab1(%rip),%rax        # 25270 <g_871+0x10>
   127bf:	48 89 85 08 fe ff ff 	mov    %rax,-0x1f8(%rbp)
   127c6:	48 8d 05 93 2a 01 00 	lea    0x12a93(%rip),%rax        # 25260 <g_871>
   127cd:	48 89 85 10 fe ff ff 	mov    %rax,-0x1f0(%rbp)
   127d4:	48 8d 85 d0 f1 ff ff 	lea    -0xe30(%rbp),%rax
   127db:	48 89 85 18 fe ff ff 	mov    %rax,-0x1e8(%rbp)
   127e2:	48 8d 85 10 f2 ff ff 	lea    -0xdf0(%rbp),%rax
   127e9:	48 83 c0 08          	add    $0x8,%rax
   127ed:	48 89 85 20 fe ff ff 	mov    %rax,-0x1e0(%rbp)
   127f4:	48 8d 85 c0 ef ff ff 	lea    -0x1040(%rbp),%rax
   127fb:	48 89 85 28 fe ff ff 	mov    %rax,-0x1d8(%rbp)
   12802:	48 c7 85 30 fe ff ff 	movq   $0x0,-0x1d0(%rbp)
   12809:	00 00 00 00 
   1280d:	48 8d 85 fc ee ff ff 	lea    -0x1104(%rbp),%rax
   12814:	48 89 85 38 fe ff ff 	mov    %rax,-0x1c8(%rbp)
   1281b:	48 c7 85 40 fe ff ff 	movq   $0x0,-0x1c0(%rbp)
   12822:	00 00 00 00 
   12826:	48 8d 85 c0 ef ff ff 	lea    -0x1040(%rbp),%rax
   1282d:	48 89 85 48 fe ff ff 	mov    %rax,-0x1b8(%rbp)
   12834:	48 8d 05 31 2a 01 00 	lea    0x12a31(%rip),%rax        # 2526c <g_871+0xc>
   1283b:	48 89 85 50 fe ff ff 	mov    %rax,-0x1b0(%rbp)
   12842:	48 8d 05 27 2a 01 00 	lea    0x12a27(%rip),%rax        # 25270 <g_871+0x10>
   12849:	48 89 85 58 fe ff ff 	mov    %rax,-0x1a8(%rbp)
   12850:	48 8d 85 fc ee ff ff 	lea    -0x1104(%rbp),%rax
   12857:	48 89 85 60 fe ff ff 	mov    %rax,-0x1a0(%rbp)
   1285e:	48 8d 05 0b 2a 01 00 	lea    0x12a0b(%rip),%rax        # 25270 <g_871+0x10>
   12865:	48 89 85 68 fe ff ff 	mov    %rax,-0x198(%rbp)
   1286c:	48 c7 85 70 fe ff ff 	movq   $0x0,-0x190(%rbp)
   12873:	00 00 00 00 
   12877:	48 c7 85 78 fe ff ff 	movq   $0x0,-0x188(%rbp)
   1287e:	00 00 00 00 
   12882:	48 8d 85 10 f2 ff ff 	lea    -0xdf0(%rbp),%rax
   12889:	48 83 c0 0c          	add    $0xc,%rax
   1288d:	48 89 85 80 fe ff ff 	mov    %rax,-0x180(%rbp)
   12894:	48 8d 05 6d 29 01 00 	lea    0x1296d(%rip),%rax        # 25208 <g_133+0x48>
   1289b:	48 89 85 88 fe ff ff 	mov    %rax,-0x178(%rbp)
   128a2:	48 8d 05 c7 29 01 00 	lea    0x129c7(%rip),%rax        # 25270 <g_871+0x10>
   128a9:	48 89 85 90 fe ff ff 	mov    %rax,-0x170(%rbp)
   128b0:	48 c7 85 98 fe ff ff 	movq   $0x0,-0x168(%rbp)
   128b7:	00 00 00 00 
   128bb:	48 8d 05 9e 29 01 00 	lea    0x1299e(%rip),%rax        # 25260 <g_871>
   128c2:	48 89 85 a0 fe ff ff 	mov    %rax,-0x160(%rbp)
   128c9:	48 8d 05 04 29 01 00 	lea    0x12904(%rip),%rax        # 251d4 <g_133+0x14>
   128d0:	48 89 85 a8 fe ff ff 	mov    %rax,-0x158(%rbp)
   128d7:	48 8d 05 8e 29 01 00 	lea    0x1298e(%rip),%rax        # 2526c <g_871+0xc>
   128de:	48 89 85 b0 fe ff ff 	mov    %rax,-0x150(%rbp)
   128e5:	48 c7 85 b8 fe ff ff 	movq   $0x0,-0x148(%rbp)
   128ec:	00 00 00 00 
   128f0:	48 8d 05 79 29 01 00 	lea    0x12979(%rip),%rax        # 25270 <g_871+0x10>
   128f7:	48 89 85 c0 fe ff ff 	mov    %rax,-0x140(%rbp)
   128fe:	48 c7 85 c8 fe ff ff 	movq   $0x0,-0x138(%rbp)
   12905:	00 00 00 00 
   12909:	48 8d 85 d0 f1 ff ff 	lea    -0xe30(%rbp),%rax
   12910:	48 83 c0 04          	add    $0x4,%rax
   12914:	48 89 85 d0 fe ff ff 	mov    %rax,-0x130(%rbp)
   1291b:	48 8d 05 52 29 01 00 	lea    0x12952(%rip),%rax        # 25274 <g_871+0x14>
   12922:	48 89 85 d8 fe ff ff 	mov    %rax,-0x128(%rbp)
   12929:	48 8d 85 d0 f1 ff ff 	lea    -0xe30(%rbp),%rax
   12930:	48 89 85 e0 fe ff ff 	mov    %rax,-0x120(%rbp)
   12937:	48 8d 85 d0 f1 ff ff 	lea    -0xe30(%rbp),%rax
   1293e:	48 83 c0 14          	add    $0x14,%rax
   12942:	48 89 85 e8 fe ff ff 	mov    %rax,-0x118(%rbp)
   12949:	48 c7 85 f0 fe ff ff 	movq   $0x0,-0x110(%rbp)
   12950:	00 00 00 00 
   12954:	48 8d 85 10 f2 ff ff 	lea    -0xdf0(%rbp),%rax
   1295b:	48 83 c0 0c          	add    $0xc,%rax
   1295f:	48 89 85 f8 fe ff ff 	mov    %rax,-0x108(%rbp)
   12966:	48 8d 85 c0 ef ff ff 	lea    -0x1040(%rbp),%rax
   1296d:	48 89 85 00 ff ff ff 	mov    %rax,-0x100(%rbp)
   12974:	48 8d 85 f8 ee ff ff 	lea    -0x1108(%rbp),%rax
   1297b:	48 89 85 08 ff ff ff 	mov    %rax,-0xf8(%rbp)
   12982:	48 8d 05 9b 26 01 00 	lea    0x1269b(%rip),%rax        # 25024 <g_17>
   12989:	48 89 85 10 ff ff ff 	mov    %rax,-0xf0(%rbp)
   12990:	48 c7 85 18 ff ff ff 	movq   $0x0,-0xe8(%rbp)
   12997:	00 00 00 00 
   1299b:	48 8d 85 f8 ee ff ff 	lea    -0x1108(%rbp),%rax
   129a2:	48 89 85 20 ff ff ff 	mov    %rax,-0xe0(%rbp)
   129a9:	48 8d 05 3c 28 01 00 	lea    0x1283c(%rip),%rax        # 251ec <g_133+0x2c>
   129b0:	48 89 85 28 ff ff ff 	mov    %rax,-0xd8(%rbp)
   129b7:	48 8d 05 42 28 01 00 	lea    0x12842(%rip),%rax        # 25200 <g_133+0x40>
   129be:	48 89 85 30 ff ff ff 	mov    %rax,-0xd0(%rbp)
   129c5:	48 8d 85 04 ef ff ff 	lea    -0x10fc(%rbp),%rax
   129cc:	48 89 85 38 ff ff ff 	mov    %rax,-0xc8(%rbp)
   129d3:	48 8d 05 92 28 01 00 	lea    0x12892(%rip),%rax        # 2526c <g_871+0xc>
   129da:	48 89 85 40 ff ff ff 	mov    %rax,-0xc0(%rbp)
   129e1:	48 8d 05 20 28 01 00 	lea    0x12820(%rip),%rax        # 25208 <g_133+0x48>
   129e8:	48 89 85 48 ff ff ff 	mov    %rax,-0xb8(%rbp)
   129ef:	c7 85 2c ef ff ff 00 	movl   $0x0,-0x10d4(%rbp)
   129f6:	00 00 00 
   129f9:	eb 1a                	jmp    12a15 <func_13+0x26a0>
   129fb:	8b 85 2c ef ff ff    	mov    -0x10d4(%rbp),%eax
   12a01:	48 98                	cltq   
   12a03:	c7 84 85 f0 f1 ff ff 	movl   $0x7d229401,-0xe10(%rbp,%rax,4)
   12a0a:	01 94 22 7d 
   12a0e:	83 85 2c ef ff ff 01 	addl   $0x1,-0x10d4(%rbp)
   12a15:	83 bd 2c ef ff ff 05 	cmpl   $0x5,-0x10d4(%rbp)
   12a1c:	7e dd                	jle    129fb <func_13+0x2686>
   12a1e:	48 8b 05 0b 64 01 00 	mov    0x1640b(%rip),%rax        # 28e30 <g_857>
   12a25:	48 8b 00             	mov    (%rax),%rax
   12a28:	48 8b 00             	mov    (%rax),%rax
   12a2b:	8b 10                	mov    (%rax),%edx
   12a2d:	8b 85 00 f2 ff ff    	mov    -0xe00(%rbp),%eax
   12a33:	39 c2                	cmp    %eax,%edx
   12a35:	73 12                	jae    12a49 <func_13+0x26d4>
   12a37:	48 8b 05 52 6b 01 00 	mov    0x16b52(%rip),%rax        # 29590 <g_1556>
   12a3e:	48 8b 00             	mov    (%rax),%rax
   12a41:	0f b6 00             	movzbl (%rax),%eax
   12a44:	e9 52 30 00 00       	jmpq   15a9b <func_13+0x5726>
   12a49:	48 8b 85 d0 ef ff ff 	mov    -0x1030(%rbp),%rax
   12a50:	c7 00 43 22 aa 7c    	movl   $0x7caa2243,(%rax)
   12a56:	c7 05 20 28 01 00 00 	movl   $0x0,0x12820(%rip)        # 25280 <g_895>
   12a5d:	00 00 00 
   12a60:	e9 4d 01 00 00       	jmpq   12bb2 <func_13+0x283d>
   12a65:	8b 05 15 28 01 00    	mov    0x12815(%rip),%eax        # 25280 <g_895>
   12a6b:	89 c0                	mov    %eax,%eax
   12a6d:	8b 84 85 d0 f1 ff ff 	mov    -0xe30(%rbp,%rax,4),%eax
   12a74:	8b 15 06 28 01 00    	mov    0x12806(%rip),%edx        # 25280 <g_895>
   12a7a:	25 03 dd 85 a1       	and    $0xa185dd03,%eax
   12a7f:	89 d2                	mov    %edx,%edx
   12a81:	89 84 95 d0 f1 ff ff 	mov    %eax,-0xe30(%rbp,%rdx,4)
   12a88:	8b 05 f2 27 01 00    	mov    0x127f2(%rip),%eax        # 25280 <g_895>
   12a8e:	89 c0                	mov    %eax,%eax
   12a90:	8b 94 85 d0 f1 ff ff 	mov    -0xe30(%rbp,%rax,4),%edx
   12a97:	48 8b 85 d0 ef ff ff 	mov    -0x1030(%rbp),%rax
   12a9e:	89 10                	mov    %edx,(%rax)
   12aa0:	48 8b 05 51 65 01 00 	mov    0x16551(%rip),%rax        # 28ff8 <g_1205>
   12aa7:	48 8b 18             	mov    (%rax),%rbx
   12aaa:	4c 0f bf a5 d4 ee ff 	movswq -0x112c(%rbp),%r12
   12ab1:	ff 
   12ab2:	8b 85 c8 ef ff ff    	mov    -0x1038(%rbp),%eax
   12ab8:	0f be d0             	movsbl %al,%edx
   12abb:	0f b7 05 e4 27 01 00 	movzwl 0x127e4(%rip),%eax        # 252a6 <g_1438+0x2>
   12ac2:	83 f0 01             	xor    $0x1,%eax
   12ac5:	48 0f bf c8          	movswq %ax,%rcx
   12ac9:	48 8b 85 d0 ef ff ff 	mov    -0x1030(%rbp),%rax
   12ad0:	8b 00                	mov    (%rax),%eax
   12ad2:	48 98                	cltq   
   12ad4:	48 39 c1             	cmp    %rax,%rcx
   12ad7:	0f 95 c0             	setne  %al
   12ada:	0f b6 c0             	movzbl %al,%eax
   12add:	89 d6                	mov    %edx,%esi
   12adf:	89 c7                	mov    %eax,%edi
   12ae1:	e8 4b a7 ff ff       	callq  d231 <safe_mod_func_int8_t_s_s>
   12ae6:	0f be d0             	movsbl %al,%edx
   12ae9:	0f b7 85 d4 ee ff ff 	movzwl -0x112c(%rbp),%eax
   12af0:	0f b6 c0             	movzbl %al,%eax
   12af3:	89 d6                	mov    %edx,%esi
   12af5:	89 c7                	mov    %eax,%edi
   12af7:	e8 09 b1 ff ff       	callq  dc05 <safe_lshift_func_uint8_t_u_s>
   12afc:	0f b6 c0             	movzbl %al,%eax
   12aff:	be 60 31 00 00       	mov    $0x3160,%esi
   12b04:	89 c7                	mov    %eax,%edi
   12b06:	e8 ea a8 ff ff       	callq  d3f5 <safe_mul_func_int16_t_s_s>
   12b0b:	be 7d 00 00 00       	mov    $0x7d,%esi
   12b10:	bf f6 ff ff ff       	mov    $0xfffffff6,%edi
   12b15:	e8 f8 a6 ff ff       	callq  d212 <safe_mul_func_int8_t_s_s>
   12b1a:	0f be d0             	movsbl %al,%edx
   12b1d:	48 8b 05 74 6a 01 00 	mov    0x16a74(%rip),%rax        # 29598 <g_1610>
   12b24:	48 8b 00             	mov    (%rax),%rax
   12b27:	48 8b 00             	mov    (%rax),%rax
   12b2a:	48 8b 00             	mov    (%rax),%rax
   12b2d:	8b 00                	mov    (%rax),%eax
   12b2f:	89 d6                	mov    %edx,%esi
   12b31:	89 c7                	mov    %eax,%edi
   12b33:	e8 ed b3 ff ff       	callq  df25 <safe_div_func_uint32_t_u_u>
   12b38:	85 c0                	test   %eax,%eax
   12b3a:	75 0a                	jne    12b46 <func_13+0x27d1>
   12b3c:	48 83 bd a8 f0 ff ff 	cmpq   $0x0,-0xf58(%rbp)
   12b43:	00 
   12b44:	74 07                	je     12b4d <func_13+0x27d8>
   12b46:	ba 01 00 00 00       	mov    $0x1,%edx
   12b4b:	eb 05                	jmp    12b52 <func_13+0x27dd>
   12b4d:	ba 00 00 00 00       	mov    $0x0,%edx
   12b52:	8b 05 28 27 01 00    	mov    0x12728(%rip),%eax        # 25280 <g_895>
   12b58:	89 c0                	mov    %eax,%eax
   12b5a:	8b 84 85 d0 f1 ff ff 	mov    -0xe30(%rbp,%rax,4),%eax
   12b61:	39 c2                	cmp    %eax,%edx
   12b63:	0f 94 c0             	sete   %al
   12b66:	0f b6 c0             	movzbl %al,%eax
   12b69:	4c 89 e6             	mov    %r12,%rsi
   12b6c:	48 89 c7             	mov    %rax,%rdi
   12b6f:	e8 40 ae ff ff       	callq  d9b4 <safe_mod_func_int64_t_s_s>
   12b74:	48 8b 05 65 64 01 00 	mov    0x16465(%rip),%rax        # 28fe0 <g_1078>
   12b7b:	0f b7 00             	movzwl (%rax),%eax
   12b7e:	66 85 c0             	test   %ax,%ax
   12b81:	0f 9f c0             	setg   %al
   12b84:	0f b6 c0             	movzbl %al,%eax
   12b87:	4c 8b 25 3a 57 01 00 	mov    0x1573a(%rip),%r12        # 282c8 <g_60>
   12b8e:	48 8b 95 98 f0 ff ff 	mov    -0xf68(%rbp),%rdx
   12b95:	48 89 de             	mov    %rbx,%rsi
   12b98:	89 c7                	mov    %eax,%edi
   12b9a:	e8 09 cd 00 00       	callq  1f8a8 <func_38>
   12b9f:	49 89 04 24          	mov    %rax,(%r12)
   12ba3:	8b 05 d7 26 01 00    	mov    0x126d7(%rip),%eax        # 25280 <g_895>
   12ba9:	83 c0 01             	add    $0x1,%eax
   12bac:	89 05 ce 26 01 00    	mov    %eax,0x126ce(%rip)        # 25280 <g_895>
   12bb2:	8b 05 c8 26 01 00    	mov    0x126c8(%rip),%eax        # 25280 <g_895>
   12bb8:	83 f8 05             	cmp    $0x5,%eax
   12bbb:	0f 86 a4 fe ff ff    	jbe    12a65 <func_13+0x26f0>
   12bc1:	48 8b 85 50 f1 ff ff 	mov    -0xeb0(%rbp),%rax
   12bc8:	48 83 e8 01          	sub    $0x1,%rax
   12bcc:	48 89 85 50 f1 ff ff 	mov    %rax,-0xeb0(%rbp)
   12bd3:	0f bf 9d d4 ee ff ff 	movswl -0x112c(%rbp),%ebx
   12bda:	44 8b a5 c0 ef ff ff 	mov    -0x1040(%rbp),%r12d
   12be1:	48 8b 05 00 64 01 00 	mov    0x16400(%rip),%rax        # 28fe8 <g_1077>
   12be8:	48 8b 00             	mov    (%rax),%rax
   12beb:	0f b7 00             	movzwl (%rax),%eax
   12bee:	66 85 c0             	test   %ax,%ax
   12bf1:	75 36                	jne    12c29 <func_13+0x28b4>
   12bf3:	48 8b 85 48 f0 ff ff 	mov    -0xfb8(%rbp),%rax
   12bfa:	48 8b 00             	mov    (%rax),%rax
   12bfd:	48 8d 50 01          	lea    0x1(%rax),%rdx
   12c01:	48 8b 85 48 f0 ff ff 	mov    -0xfb8(%rbp),%rax
   12c08:	48 89 10             	mov    %rdx,(%rax)
   12c0b:	48 8d 05 6e 74 01 00 	lea    0x1746e(%rip),%rax        # 2a080 <g_346>
   12c12:	48 39 85 f0 ef ff ff 	cmp    %rax,-0x1010(%rbp)
   12c19:	0f 94 c0             	sete   %al
   12c1c:	0f b6 d0             	movzbl %al,%edx
   12c1f:	8b 85 c8 ef ff ff    	mov    -0x1038(%rbp),%eax
   12c25:	39 c2                	cmp    %eax,%edx
   12c27:	7e 07                	jle    12c30 <func_13+0x28bb>
   12c29:	ba 01 00 00 00       	mov    $0x1,%edx
   12c2e:	eb 05                	jmp    12c35 <func_13+0x28c0>
   12c30:	ba 00 00 00 00       	mov    $0x0,%edx
   12c35:	8b 85 1c f2 ff ff    	mov    -0xde4(%rbp),%eax
   12c3b:	09 d0                	or     %edx,%eax
   12c3d:	89 85 1c f2 ff ff    	mov    %eax,-0xde4(%rbp)
   12c43:	44 8b ad 1c f2 ff ff 	mov    -0xde4(%rbp),%r13d
   12c4a:	48 8b 05 c7 5e 01 00 	mov    0x15ec7(%rip),%rax        # 28b18 <g_488>
   12c51:	0f b6 10             	movzbl (%rax),%edx
   12c54:	8d 4a 01             	lea    0x1(%rdx),%ecx
   12c57:	88 08                	mov    %cl,(%rax)
   12c59:	44 0f b6 f2          	movzbl %dl,%r14d
   12c5d:	0f b7 85 d4 ee ff ff 	movzwl -0x112c(%rbp),%eax
   12c64:	0f be d0             	movsbl %al,%edx
   12c67:	48 8d 85 b8 ef ff ff 	lea    -0x1048(%rbp),%rax
   12c6e:	48 39 85 a0 f0 ff ff 	cmp    %rax,-0xf60(%rbp)
   12c75:	0f 94 c0             	sete   %al
   12c78:	0f b6 c8             	movzbl %al,%ecx
   12c7b:	0f bf b5 d4 ee ff ff 	movswl -0x112c(%rbp),%esi
   12c82:	8b 85 c0 ef ff ff    	mov    -0x1040(%rbp),%eax
   12c88:	39 c6                	cmp    %eax,%esi
   12c8a:	0f 9c c0             	setl   %al
   12c8d:	0f b6 c0             	movzbl %al,%eax
   12c90:	39 c1                	cmp    %eax,%ecx
   12c92:	0f 9e c0             	setle  %al
   12c95:	0f b6 c8             	movzbl %al,%ecx
   12c98:	0f bf 85 d4 ee ff ff 	movswl -0x112c(%rbp),%eax
   12c9f:	39 c1                	cmp    %eax,%ecx
   12ca1:	0f 94 c0             	sete   %al
   12ca4:	0f b6 c0             	movzbl %al,%eax
   12ca7:	89 d6                	mov    %edx,%esi
   12ca9:	89 c7                	mov    %eax,%edi
   12cab:	e8 62 a5 ff ff       	callq  d212 <safe_mul_func_int8_t_s_s>
   12cb0:	0f be c0             	movsbl %al,%eax
   12cb3:	89 85 e4 f1 ff ff    	mov    %eax,-0xe1c(%rbp)
   12cb9:	8b 85 e4 f1 ff ff    	mov    -0xe1c(%rbp),%eax
   12cbf:	41 39 c6             	cmp    %eax,%r14d
   12cc2:	7c 0a                	jl     12cce <func_13+0x2959>
   12cc4:	66 83 bd d4 ee ff ff 	cmpw   $0x0,-0x112c(%rbp)
   12ccb:	00 
   12ccc:	74 07                	je     12cd5 <func_13+0x2960>
   12cce:	b8 01 00 00 00       	mov    $0x1,%eax
   12cd3:	eb 05                	jmp    12cda <func_13+0x2965>
   12cd5:	b8 00 00 00 00       	mov    $0x0,%eax
   12cda:	44 39 e8             	cmp    %r13d,%eax
   12cdd:	0f 9e c0             	setle  %al
   12ce0:	0f b6 c0             	movzbl %al,%eax
   12ce3:	44 89 e6             	mov    %r12d,%esi
   12ce6:	89 c7                	mov    %eax,%edi
   12ce8:	e8 b4 a5 ff ff       	callq  d2a1 <safe_lshift_func_int8_t_s_s>
   12ced:	c7 85 c0 ef ff ff 01 	movl   $0x1,-0x1040(%rbp)
   12cf4:	00 00 00 
   12cf7:	be 01 00 00 00       	mov    $0x1,%esi
   12cfc:	bf 00 00 00 00       	mov    $0x0,%edi
   12d01:	e8 87 af ff ff       	callq  dc8d <safe_rshift_func_uint8_t_u_s>
   12d06:	0f b6 c0             	movzbl %al,%eax
   12d09:	48 be f4 d5 ab f6 28 	movabs $0x9904f228f6abd5f4,%rsi
   12d10:	f2 04 99 
   12d13:	48 89 c7             	mov    %rax,%rdi
   12d16:	e8 99 ac ff ff       	callq  d9b4 <safe_mod_func_int64_t_s_s>
   12d1b:	48 8b 95 b8 f0 ff ff 	mov    -0xf48(%rbp),%rdx
   12d22:	8b 12                	mov    (%rdx),%edx
   12d24:	31 d0                	xor    %edx,%eax
   12d26:	89 c2                	mov    %eax,%edx
   12d28:	48 8b 85 b8 f0 ff ff 	mov    -0xf48(%rbp),%rax
   12d2f:	89 10                	mov    %edx,(%rax)
   12d31:	48 8b 85 b8 f0 ff ff 	mov    -0xf48(%rbp),%rax
   12d38:	8b 00                	mov    (%rax),%eax
   12d3a:	0f b7 c0             	movzwl %ax,%eax
   12d3d:	be 08 00 00 00       	mov    $0x8,%esi
   12d42:	89 c7                	mov    %eax,%edi
   12d44:	e8 31 b1 ff ff       	callq  de7a <safe_rshift_func_uint16_t_u_u>
   12d49:	98                   	cwtl   
   12d4a:	89 de                	mov    %ebx,%esi
   12d4c:	89 c7                	mov    %eax,%edi
   12d4e:	e8 60 a6 ff ff       	callq  d3b3 <safe_add_func_int16_t_s_s>
   12d53:	66 83 f8 04          	cmp    $0x4,%ax
   12d57:	0f 95 c0             	setne  %al
   12d5a:	0f b6 d0             	movzbl %al,%edx
   12d5d:	48 8b 85 d0 ef ff ff 	mov    -0x1030(%rbp),%rax
   12d64:	8b 00                	mov    (%rax),%eax
   12d66:	09 c2                	or     %eax,%edx
   12d68:	48 8b 85 d0 ef ff ff 	mov    -0x1030(%rbp),%rax
   12d6f:	89 10                	mov    %edx,(%rax)
   12d71:	8b 05 65 25 01 00    	mov    0x12565(%rip),%eax        # 252dc <g_1691>
   12d77:	83 c0 01             	add    $0x1,%eax
   12d7a:	89 05 5c 25 01 00    	mov    %eax,0x1255c(%rip)        # 252dc <g_1691>
   12d80:	8b 05 56 25 01 00    	mov    0x12556(%rip),%eax        # 252dc <g_1691>
   12d86:	83 f8 08             	cmp    $0x8,%eax
   12d89:	0f 86 45 ec ff ff    	jbe    119d4 <func_13+0x165f>
   12d8f:	48 8b 05 fa 67 01 00 	mov    0x167fa(%rip),%rax        # 29590 <g_1556>
   12d96:	48 8b 00             	mov    (%rax),%rax
   12d99:	0f b6 00             	movzbl (%rax),%eax
   12d9c:	e9 fa 2c 00 00       	jmpq   15a9b <func_13+0x5726>
   12da1:	48 8d 05 f1 23 01 00 	lea    0x123f1(%rip),%rax        # 25199 <g_93>
   12da8:	48 89 85 08 f0 ff ff 	mov    %rax,-0xff8(%rbp)
   12daf:	c7 85 30 ef ff ff 09 	movl   $0x9,-0x10d0(%rbp)
   12db6:	00 00 00 
   12db9:	c7 85 30 f2 ff ff 03 	movl   $0x3,-0xdd0(%rbp)
   12dc0:	00 00 00 
   12dc3:	c7 85 34 f2 ff ff 03 	movl   $0x3,-0xdcc(%rbp)
   12dca:	00 00 00 
   12dcd:	c7 85 38 f2 ff ff 03 	movl   $0x3,-0xdc8(%rbp)
   12dd4:	00 00 00 
   12dd7:	c7 85 3c f2 ff ff 03 	movl   $0x3,-0xdc4(%rbp)
   12dde:	00 00 00 
   12de1:	c7 85 40 f2 ff ff 03 	movl   $0x3,-0xdc0(%rbp)
   12de8:	00 00 00 
   12deb:	48 8d 05 56 54 01 00 	lea    0x15456(%rip),%rax        # 28248 <g_42+0x528>
   12df2:	48 89 85 b0 ef ff ff 	mov    %rax,-0x1050(%rbp)
   12df9:	48 8d 85 b0 ef ff ff 	lea    -0x1050(%rbp),%rax
   12e00:	48 89 85 b8 ef ff ff 	mov    %rax,-0x1048(%rbp)
   12e07:	48 8d 85 b8 ef ff ff 	lea    -0x1048(%rbp),%rax
   12e0e:	48 89 85 a0 f4 ff ff 	mov    %rax,-0xb60(%rbp)
   12e15:	48 c7 85 a8 f4 ff ff 	movq   $0x0,-0xb58(%rbp)
   12e1c:	00 00 00 00 
   12e20:	48 8d 85 b8 ef ff ff 	lea    -0x1048(%rbp),%rax
   12e27:	48 89 85 b0 f4 ff ff 	mov    %rax,-0xb50(%rbp)
   12e2e:	48 8d 85 b8 ef ff ff 	lea    -0x1048(%rbp),%rax
   12e35:	48 89 85 b8 f4 ff ff 	mov    %rax,-0xb48(%rbp)
   12e3c:	48 8d 85 b8 ef ff ff 	lea    -0x1048(%rbp),%rax
   12e43:	48 89 85 c0 f4 ff ff 	mov    %rax,-0xb40(%rbp)
   12e4a:	48 8d 85 b8 ef ff ff 	lea    -0x1048(%rbp),%rax
   12e51:	48 89 85 c8 f4 ff ff 	mov    %rax,-0xb38(%rbp)
   12e58:	48 8d 85 b8 ef ff ff 	lea    -0x1048(%rbp),%rax
   12e5f:	48 89 85 d0 f4 ff ff 	mov    %rax,-0xb30(%rbp)
   12e66:	48 c7 85 d8 f4 ff ff 	movq   $0x0,-0xb28(%rbp)
   12e6d:	00 00 00 00 
   12e71:	48 8d 85 b8 ef ff ff 	lea    -0x1048(%rbp),%rax
   12e78:	48 89 85 e0 f4 ff ff 	mov    %rax,-0xb20(%rbp)
   12e7f:	48 8d 85 b8 ef ff ff 	lea    -0x1048(%rbp),%rax
   12e86:	48 89 85 e8 f4 ff ff 	mov    %rax,-0xb18(%rbp)
   12e8d:	48 8d 85 b8 ef ff ff 	lea    -0x1048(%rbp),%rax
   12e94:	48 89 85 f0 f4 ff ff 	mov    %rax,-0xb10(%rbp)
   12e9b:	48 8d 85 b8 ef ff ff 	lea    -0x1048(%rbp),%rax
   12ea2:	48 89 85 f8 f4 ff ff 	mov    %rax,-0xb08(%rbp)
   12ea9:	48 8d 85 b8 ef ff ff 	lea    -0x1048(%rbp),%rax
   12eb0:	48 89 85 00 f5 ff ff 	mov    %rax,-0xb00(%rbp)
   12eb7:	48 c7 85 08 f5 ff ff 	movq   $0x0,-0xaf8(%rbp)
   12ebe:	00 00 00 00 
   12ec2:	48 8d 85 b8 ef ff ff 	lea    -0x1048(%rbp),%rax
   12ec9:	48 89 85 10 f5 ff ff 	mov    %rax,-0xaf0(%rbp)
   12ed0:	48 8d 85 b8 ef ff ff 	lea    -0x1048(%rbp),%rax
   12ed7:	48 89 85 18 f5 ff ff 	mov    %rax,-0xae8(%rbp)
   12ede:	48 8d 85 b8 ef ff ff 	lea    -0x1048(%rbp),%rax
   12ee5:	48 89 85 20 f5 ff ff 	mov    %rax,-0xae0(%rbp)
   12eec:	48 8d 85 b8 ef ff ff 	lea    -0x1048(%rbp),%rax
   12ef3:	48 89 85 28 f5 ff ff 	mov    %rax,-0xad8(%rbp)
   12efa:	48 8d 85 b8 ef ff ff 	lea    -0x1048(%rbp),%rax
   12f01:	48 89 85 30 f5 ff ff 	mov    %rax,-0xad0(%rbp)
   12f08:	48 c7 85 38 f5 ff ff 	movq   $0x0,-0xac8(%rbp)
   12f0f:	00 00 00 00 
   12f13:	48 8d 85 b8 ef ff ff 	lea    -0x1048(%rbp),%rax
   12f1a:	48 89 85 40 f5 ff ff 	mov    %rax,-0xac0(%rbp)
   12f21:	48 8d 85 b8 ef ff ff 	lea    -0x1048(%rbp),%rax
   12f28:	48 89 85 48 f5 ff ff 	mov    %rax,-0xab8(%rbp)
   12f2f:	48 8d 85 b8 ef ff ff 	lea    -0x1048(%rbp),%rax
   12f36:	48 89 85 50 f5 ff ff 	mov    %rax,-0xab0(%rbp)
   12f3d:	48 8d 85 b8 ef ff ff 	lea    -0x1048(%rbp),%rax
   12f44:	48 89 85 58 f5 ff ff 	mov    %rax,-0xaa8(%rbp)
   12f4b:	48 8d 85 b8 ef ff ff 	lea    -0x1048(%rbp),%rax
   12f52:	48 89 85 60 f5 ff ff 	mov    %rax,-0xaa0(%rbp)
   12f59:	48 c7 85 68 f5 ff ff 	movq   $0x0,-0xa98(%rbp)
   12f60:	00 00 00 00 
   12f64:	48 8d 85 b8 ef ff ff 	lea    -0x1048(%rbp),%rax
   12f6b:	48 89 85 70 f5 ff ff 	mov    %rax,-0xa90(%rbp)
   12f72:	48 8d 85 b8 ef ff ff 	lea    -0x1048(%rbp),%rax
   12f79:	48 89 85 78 f5 ff ff 	mov    %rax,-0xa88(%rbp)
   12f80:	48 8d 85 b8 ef ff ff 	lea    -0x1048(%rbp),%rax
   12f87:	48 89 85 80 f5 ff ff 	mov    %rax,-0xa80(%rbp)
   12f8e:	48 8d 85 b8 ef ff ff 	lea    -0x1048(%rbp),%rax
   12f95:	48 89 85 88 f5 ff ff 	mov    %rax,-0xa78(%rbp)
   12f9c:	66 c7 85 ea ee ff ff 	movw   $0xfffa,-0x1116(%rbp)
   12fa3:	fa ff 
   12fa5:	c7 85 44 ef ff ff 7f 	movl   $0x194c8e7f,-0x10bc(%rbp)
   12fac:	8e 4c 19 
   12faf:	48 8d 05 f2 21 01 00 	lea    0x121f2(%rip),%rax        # 251a8 <g_126>
   12fb6:	48 89 85 10 f0 ff ff 	mov    %rax,-0xff0(%rbp)
   12fbd:	48 8b 85 f8 ef ff ff 	mov    -0x1008(%rbp),%rax
   12fc4:	48 3b 85 08 f0 ff ff 	cmp    -0xff8(%rbp),%rax
   12fcb:	0f 85 61 01 00 00    	jne    13132 <func_13+0x2dbd>
   12fd1:	48 8d 05 30 22 01 00 	lea    0x12230(%rip),%rax        # 25208 <g_133+0x48>
   12fd8:	48 89 85 40 f0 ff ff 	mov    %rax,-0xfc0(%rbp)
   12fdf:	48 8d 05 fa 21 01 00 	lea    0x121fa(%rip),%rax        # 251e0 <g_133+0x20>
   12fe6:	48 89 85 d0 f7 ff ff 	mov    %rax,-0x830(%rbp)
   12fed:	48 8d 05 a8 21 01 00 	lea    0x121a8(%rip),%rax        # 2519c <g_104>
   12ff4:	48 89 85 d8 f7 ff ff 	mov    %rax,-0x828(%rbp)
   12ffb:	48 8d 05 22 20 01 00 	lea    0x12022(%rip),%rax        # 25024 <g_17>
   13002:	48 89 85 e0 f7 ff ff 	mov    %rax,-0x820(%rbp)
   13009:	48 8d 85 10 f2 ff ff 	lea    -0xdf0(%rbp),%rax
   13010:	48 83 c0 14          	add    $0x14,%rax
   13014:	48 89 85 e8 f7 ff ff 	mov    %rax,-0x818(%rbp)
   1301b:	48 8d 05 7a 21 01 00 	lea    0x1217a(%rip),%rax        # 2519c <g_104>
   13022:	48 89 85 f0 f7 ff ff 	mov    %rax,-0x810(%rbp)
   13029:	48 8d 85 10 f2 ff ff 	lea    -0xdf0(%rbp),%rax
   13030:	48 83 c0 14          	add    $0x14,%rax
   13034:	48 89 85 f8 f7 ff ff 	mov    %rax,-0x808(%rbp)
   1303b:	48 8d 05 e2 1f 01 00 	lea    0x11fe2(%rip),%rax        # 25024 <g_17>
   13042:	48 89 85 00 f8 ff ff 	mov    %rax,-0x800(%rbp)
   13049:	48 8d 05 4c 21 01 00 	lea    0x1214c(%rip),%rax        # 2519c <g_104>
   13050:	48 89 85 08 f8 ff ff 	mov    %rax,-0x7f8(%rbp)
   13057:	48 8d 05 82 21 01 00 	lea    0x12182(%rip),%rax        # 251e0 <g_133+0x20>
   1305e:	48 89 85 10 f8 ff ff 	mov    %rax,-0x7f0(%rbp)
   13065:	48 8d 05 74 21 01 00 	lea    0x12174(%rip),%rax        # 251e0 <g_133+0x20>
   1306c:	48 89 85 18 f8 ff ff 	mov    %rax,-0x7e8(%rbp)
   13073:	48 8d 05 66 21 01 00 	lea    0x12166(%rip),%rax        # 251e0 <g_133+0x20>
   1307a:	48 89 85 20 f8 ff ff 	mov    %rax,-0x7e0(%rbp)
   13081:	48 8d 05 14 21 01 00 	lea    0x12114(%rip),%rax        # 2519c <g_104>
   13088:	48 89 85 28 f8 ff ff 	mov    %rax,-0x7d8(%rbp)
   1308f:	48 8d 05 8e 1f 01 00 	lea    0x11f8e(%rip),%rax        # 25024 <g_17>
   13096:	48 89 85 30 f8 ff ff 	mov    %rax,-0x7d0(%rbp)
   1309d:	48 8d 85 10 f2 ff ff 	lea    -0xdf0(%rbp),%rax
   130a4:	48 83 c0 14          	add    $0x14,%rax
   130a8:	48 89 85 38 f8 ff ff 	mov    %rax,-0x7c8(%rbp)
   130af:	48 8d 05 e6 20 01 00 	lea    0x120e6(%rip),%rax        # 2519c <g_104>
   130b6:	48 89 85 40 f8 ff ff 	mov    %rax,-0x7c0(%rbp)
   130bd:	48 8d 85 10 f2 ff ff 	lea    -0xdf0(%rbp),%rax
   130c4:	48 83 c0 14          	add    $0x14,%rax
   130c8:	48 89 85 48 f8 ff ff 	mov    %rax,-0x7b8(%rbp)
   130cf:	48 8d 05 4e 1f 01 00 	lea    0x11f4e(%rip),%rax        # 25024 <g_17>
   130d6:	48 89 85 50 f8 ff ff 	mov    %rax,-0x7b0(%rbp)
   130dd:	48 8d 05 b8 20 01 00 	lea    0x120b8(%rip),%rax        # 2519c <g_104>
   130e4:	48 89 85 58 f8 ff ff 	mov    %rax,-0x7a8(%rbp)
   130eb:	48 8d 05 ee 20 01 00 	lea    0x120ee(%rip),%rax        # 251e0 <g_133+0x20>
   130f2:	48 89 85 60 f8 ff ff 	mov    %rax,-0x7a0(%rbp)
   130f9:	48 8d 05 e0 20 01 00 	lea    0x120e0(%rip),%rax        # 251e0 <g_133+0x20>
   13100:	48 89 85 68 f8 ff ff 	mov    %rax,-0x798(%rbp)
   13107:	c6 85 e6 ee ff ff ad 	movb   $0xad,-0x111a(%rbp)
   1310e:	80 85 e6 ee ff ff 01 	addb   $0x1,-0x111a(%rbp)
   13115:	48 8b 05 ac 51 01 00 	mov    0x151ac(%rip),%rax        # 282c8 <g_60>
   1311c:	48 8b 00             	mov    (%rax),%rax
   1311f:	c7 00 fd ff ff ff    	movl   $0xfffffffd,(%rax)
   13125:	8b 00                	mov    (%rax),%eax
   13127:	89 85 10 f2 ff ff    	mov    %eax,-0xdf0(%rbp)
   1312d:	e9 77 19 00 00       	jmpq   14aa9 <func_13+0x4734>
   13132:	48 8d 05 87 6f 01 00 	lea    0x16f87(%rip),%rax        # 2a0c0 <g_1806>
   13139:	48 89 85 c0 ef ff ff 	mov    %rax,-0x1040(%rbp)
   13140:	c7 85 48 ef ff ff 00 	movl   $0x0,-0x10b8(%rbp)
   13147:	00 00 00 
   1314a:	48 8d 85 60 f1 ff ff 	lea    -0xea0(%rbp),%rax
   13151:	48 83 c0 0c          	add    $0xc,%rax
   13155:	48 89 85 18 f0 ff ff 	mov    %rax,-0xfe8(%rbp)
   1315c:	c7 85 34 ef ff ff 26 	movl   $0x4fcc0226,-0x10cc(%rbp)
   13163:	02 cc 4f 
   13166:	66 c7 85 ec ee ff ff 	movw   $0x0,-0x1114(%rbp)
   1316d:	00 00 
   1316f:	48 8d 05 23 20 01 00 	lea    0x12023(%rip),%rax        # 25199 <g_93>
   13176:	48 89 85 20 f0 ff ff 	mov    %rax,-0xfe0(%rbp)
   1317d:	48 b8 6b db 21 28 48 	movabs $0x738b05482821db6b,%rax
   13184:	05 8b 73 
   13187:	48 89 85 d8 ef ff ff 	mov    %rax,-0x1028(%rbp)
   1318e:	be 59 1e 12 5a       	mov    $0x5a121e59,%esi
   13193:	bf 13 a5 b9 73       	mov    $0x73b9a513,%edi
   13198:	e8 60 ad ff ff       	callq  defd <safe_mod_func_uint32_t_u_u>
   1319d:	85 c0                	test   %eax,%eax
   1319f:	0f 84 ef 00 00 00    	je     13294 <func_13+0x2f1f>
   131a5:	48 8b 05 34 5e 01 00 	mov    0x15e34(%rip),%rax        # 28fe0 <g_1078>
   131ac:	0f b7 00             	movzwl (%rax),%eax
   131af:	0f bf d8             	movswl %ax,%ebx
   131b2:	48 8b 85 50 f1 ff ff 	mov    -0xeb0(%rbp),%rax
   131b9:	48 83 f0 f7          	xor    $0xfffffffffffffff7,%rax
   131bd:	48 89 c6             	mov    %rax,%rsi
   131c0:	48 bf 9e 4b 55 d8 ca 	movabs $0x129c33cad8554b9e,%rdi
   131c7:	33 9c 12 
   131ca:	e8 7c ae ff ff       	callq  e04b <safe_sub_func_uint64_t_u_u>
   131cf:	48 8b 85 c0 ef ff ff 	mov    -0x1040(%rbp),%rax
   131d6:	48 85 c0             	test   %rax,%rax
   131d9:	75 13                	jne    131ee <func_13+0x2e79>
   131db:	48 8b 05 6e 60 01 00 	mov    0x1606e(%rip),%rax        # 29250 <g_1349>
   131e2:	48 8b 00             	mov    (%rax),%rax
   131e5:	48 8b 00             	mov    (%rax),%rax
   131e8:	8b 00                	mov    (%rax),%eax
   131ea:	85 c0                	test   %eax,%eax
   131ec:	74 07                	je     131f5 <func_13+0x2e80>
   131ee:	ba 01 00 00 00       	mov    $0x1,%edx
   131f3:	eb 05                	jmp    131fa <func_13+0x2e85>
   131f5:	ba 00 00 00 00       	mov    $0x0,%edx
   131fa:	8b 85 34 f2 ff ff    	mov    -0xdcc(%rbp),%eax
   13200:	39 c2                	cmp    %eax,%edx
   13202:	0f 9f c0             	setg   %al
   13205:	0f b6 c0             	movzbl %al,%eax
   13208:	0b 85 48 ef ff ff    	or     -0x10b8(%rbp),%eax
   1320e:	85 c0                	test   %eax,%eax
   13210:	74 07                	je     13219 <func_13+0x2ea4>
   13212:	b8 01 00 00 00       	mov    $0x1,%eax
   13217:	eb 05                	jmp    1321e <func_13+0x2ea9>
   13219:	b8 00 00 00 00       	mov    $0x0,%eax
   1321e:	39 d8                	cmp    %ebx,%eax
   13220:	0f 94 c0             	sete   %al
   13223:	0f b6 d0             	movzbl %al,%edx
   13226:	48 8b 85 18 f0 ff ff 	mov    -0xfe8(%rbp),%rax
   1322d:	66 89 10             	mov    %dx,(%rax)
   13230:	0f bf 95 d4 ee ff ff 	movswl -0x112c(%rbp),%edx
   13237:	8b 85 34 f2 ff ff    	mov    -0xdcc(%rbp),%eax
   1323d:	83 f8 01             	cmp    $0x1,%eax
   13240:	0f 9f c0             	setg   %al
   13243:	0f b6 c8             	movzbl %al,%ecx
   13246:	48 8b 85 d8 ee ff ff 	mov    -0x1128(%rbp),%rax
   1324d:	8b 00                	mov    (%rax),%eax
   1324f:	39 c1                	cmp    %eax,%ecx
   13251:	0f 9e c0             	setle  %al
   13254:	0f b6 c0             	movzbl %al,%eax
   13257:	39 c2                	cmp    %eax,%edx
   13259:	0f 9d c0             	setge  %al
   1325c:	0f b6 d0             	movzbl %al,%edx
   1325f:	0f bf 85 d4 ee ff ff 	movswl -0x112c(%rbp),%eax
   13266:	39 c2                	cmp    %eax,%edx
   13268:	0f 9c c0             	setl   %al
   1326b:	0f b6 d0             	movzbl %al,%edx
   1326e:	48 8b 05 83 5d 01 00 	mov    0x15d83(%rip),%rax        # 28ff8 <g_1205>
   13275:	48 8b 00             	mov    (%rax),%rax
   13278:	48 21 d0             	and    %rdx,%rax
   1327b:	48 83 f8 f6          	cmp    $0xfffffffffffffff6,%rax
   1327f:	0f 9c c0             	setl   %al
   13282:	0f b6 c0             	movzbl %al,%eax
   13285:	be 0c 9e 00 00       	mov    $0x9e0c,%esi
   1328a:	89 c7                	mov    %eax,%edi
   1328c:	e8 fd aa ff ff       	callq  dd8e <safe_div_func_uint16_t_u_u>
   13291:	66 85 c0             	test   %ax,%ax
   13294:	48 8b 05 2d 50 01 00 	mov    0x1502d(%rip),%rax        # 282c8 <g_60>
   1329b:	48 8b 00             	mov    (%rax),%rax
   1329e:	c7 00 00 00 00 00    	movl   $0x0,(%rax)
   132a4:	8b 00                	mov    (%rax),%eax
   132a6:	89 85 48 ef ff ff    	mov    %eax,-0x10b8(%rbp)
   132ac:	83 bd 48 ef ff ff 00 	cmpl   $0x0,-0x10b8(%rbp)
   132b3:	0f 84 d3 17 00 00    	je     14a8c <func_13+0x4717>
   132b9:	48 b8 b7 c3 37 0a 51 	movabs $0xbc1d3c510a37c3b7,%rax
   132c0:	3c 1d bc 
   132c3:	48 89 85 c8 ef ff ff 	mov    %rax,-0x1038(%rbp)
   132ca:	48 8d 05 c3 1e 01 00 	lea    0x11ec3(%rip),%rax        # 25194 <g_68>
   132d1:	48 89 85 d0 f7 ff ff 	mov    %rax,-0x830(%rbp)
   132d8:	48 8d 05 b9 1e 01 00 	lea    0x11eb9(%rip),%rax        # 25198 <g_77>
   132df:	48 89 85 d8 f7 ff ff 	mov    %rax,-0x828(%rbp)
   132e6:	48 8d 05 af 1f 01 00 	lea    0x11faf(%rip),%rax        # 2529c <g_1194>
   132ed:	48 89 85 e0 f7 ff ff 	mov    %rax,-0x820(%rbp)
   132f4:	48 8d 05 9d 1e 01 00 	lea    0x11e9d(%rip),%rax        # 25198 <g_77>
   132fb:	48 89 85 e8 f7 ff ff 	mov    %rax,-0x818(%rbp)
   13302:	48 8d 05 8b 1e 01 00 	lea    0x11e8b(%rip),%rax        # 25194 <g_68>
   13309:	48 89 85 f0 f7 ff ff 	mov    %rax,-0x810(%rbp)
   13310:	48 8d 85 b0 f3 ff ff 	lea    -0xc50(%rbp),%rax
   13317:	48 05 82 00 00 00    	add    $0x82,%rax
   1331d:	48 89 85 f8 f7 ff ff 	mov    %rax,-0x808(%rbp)
   13324:	48 8d 85 b0 f3 ff ff 	lea    -0xc50(%rbp),%rax
   1332b:	48 05 82 00 00 00    	add    $0x82,%rax
   13331:	48 89 85 00 f8 ff ff 	mov    %rax,-0x800(%rbp)
   13338:	48 8d 05 55 1e 01 00 	lea    0x11e55(%rip),%rax        # 25194 <g_68>
   1333f:	48 89 85 08 f8 ff ff 	mov    %rax,-0x7f8(%rbp)
   13346:	48 8d 05 47 1e 01 00 	lea    0x11e47(%rip),%rax        # 25194 <g_68>
   1334d:	48 89 85 10 f8 ff ff 	mov    %rax,-0x7f0(%rbp)
   13354:	48 8d 05 41 1f 01 00 	lea    0x11f41(%rip),%rax        # 2529c <g_1194>
   1335b:	48 89 85 18 f8 ff ff 	mov    %rax,-0x7e8(%rbp)
   13362:	48 8d 05 2b 1e 01 00 	lea    0x11e2b(%rip),%rax        # 25194 <g_68>
   13369:	48 89 85 20 f8 ff ff 	mov    %rax,-0x7e0(%rbp)
   13370:	48 8d 05 1d 1e 01 00 	lea    0x11e1d(%rip),%rax        # 25194 <g_68>
   13377:	48 89 85 28 f8 ff ff 	mov    %rax,-0x7d8(%rbp)
   1337e:	48 8d 85 b0 f3 ff ff 	lea    -0xc50(%rbp),%rax
   13385:	48 05 b5 00 00 00    	add    $0xb5,%rax
   1338b:	48 89 85 30 f8 ff ff 	mov    %rax,-0x7d0(%rbp)
   13392:	48 8d 85 b0 f3 ff ff 	lea    -0xc50(%rbp),%rax
   13399:	48 05 b5 00 00 00    	add    $0xb5,%rax
   1339f:	48 89 85 38 f8 ff ff 	mov    %rax,-0x7c8(%rbp)
   133a6:	48 8d 05 e7 1d 01 00 	lea    0x11de7(%rip),%rax        # 25194 <g_68>
   133ad:	48 89 85 40 f8 ff ff 	mov    %rax,-0x7c0(%rbp)
   133b4:	48 8d 05 dd 1d 01 00 	lea    0x11ddd(%rip),%rax        # 25198 <g_77>
   133bb:	48 89 85 48 f8 ff ff 	mov    %rax,-0x7b8(%rbp)
   133c2:	48 8d 05 d3 1e 01 00 	lea    0x11ed3(%rip),%rax        # 2529c <g_1194>
   133c9:	48 89 85 50 f8 ff ff 	mov    %rax,-0x7b0(%rbp)
   133d0:	48 8d 05 c1 1d 01 00 	lea    0x11dc1(%rip),%rax        # 25198 <g_77>
   133d7:	48 89 85 58 f8 ff ff 	mov    %rax,-0x7a8(%rbp)
   133de:	48 8d 05 af 1d 01 00 	lea    0x11daf(%rip),%rax        # 25194 <g_68>
   133e5:	48 89 85 60 f8 ff ff 	mov    %rax,-0x7a0(%rbp)
   133ec:	48 8d 85 b0 f3 ff ff 	lea    -0xc50(%rbp),%rax
   133f3:	48 05 82 00 00 00    	add    $0x82,%rax
   133f9:	48 89 85 68 f8 ff ff 	mov    %rax,-0x798(%rbp)
   13400:	48 8d 85 b0 f3 ff ff 	lea    -0xc50(%rbp),%rax
   13407:	48 05 82 00 00 00    	add    $0x82,%rax
   1340d:	48 89 85 70 f8 ff ff 	mov    %rax,-0x790(%rbp)
   13414:	48 8d 05 79 1d 01 00 	lea    0x11d79(%rip),%rax        # 25194 <g_68>
   1341b:	48 89 85 78 f8 ff ff 	mov    %rax,-0x788(%rbp)
   13422:	48 8d 05 6b 1d 01 00 	lea    0x11d6b(%rip),%rax        # 25194 <g_68>
   13429:	48 89 85 80 f8 ff ff 	mov    %rax,-0x780(%rbp)
   13430:	48 8d 05 65 1e 01 00 	lea    0x11e65(%rip),%rax        # 2529c <g_1194>
   13437:	48 89 85 88 f8 ff ff 	mov    %rax,-0x778(%rbp)
   1343e:	48 8d 05 4f 1d 01 00 	lea    0x11d4f(%rip),%rax        # 25194 <g_68>
   13445:	48 89 85 90 f8 ff ff 	mov    %rax,-0x770(%rbp)
   1344c:	48 8d 05 41 1d 01 00 	lea    0x11d41(%rip),%rax        # 25194 <g_68>
   13453:	48 89 85 98 f8 ff ff 	mov    %rax,-0x768(%rbp)
   1345a:	48 8d 85 b0 f3 ff ff 	lea    -0xc50(%rbp),%rax
   13461:	48 05 b5 00 00 00    	add    $0xb5,%rax
   13467:	48 89 85 a0 f8 ff ff 	mov    %rax,-0x760(%rbp)
   1346e:	48 8d 85 b0 f3 ff ff 	lea    -0xc50(%rbp),%rax
   13475:	48 05 b5 00 00 00    	add    $0xb5,%rax
   1347b:	48 89 85 a8 f8 ff ff 	mov    %rax,-0x758(%rbp)
   13482:	48 8d 05 0b 1d 01 00 	lea    0x11d0b(%rip),%rax        # 25194 <g_68>
   13489:	48 89 85 b0 f8 ff ff 	mov    %rax,-0x750(%rbp)
   13490:	48 8d 05 01 1d 01 00 	lea    0x11d01(%rip),%rax        # 25198 <g_77>
   13497:	48 89 85 b8 f8 ff ff 	mov    %rax,-0x748(%rbp)
   1349e:	48 8d 05 f7 1d 01 00 	lea    0x11df7(%rip),%rax        # 2529c <g_1194>
   134a5:	48 89 85 c0 f8 ff ff 	mov    %rax,-0x740(%rbp)
   134ac:	48 8d 05 e5 1c 01 00 	lea    0x11ce5(%rip),%rax        # 25198 <g_77>
   134b3:	48 89 85 c8 f8 ff ff 	mov    %rax,-0x738(%rbp)
   134ba:	48 8d 05 d3 1c 01 00 	lea    0x11cd3(%rip),%rax        # 25194 <g_68>
   134c1:	48 89 85 d0 f8 ff ff 	mov    %rax,-0x730(%rbp)
   134c8:	48 8d 85 b0 f3 ff ff 	lea    -0xc50(%rbp),%rax
   134cf:	48 05 82 00 00 00    	add    $0x82,%rax
   134d5:	48 89 85 d8 f8 ff ff 	mov    %rax,-0x728(%rbp)
   134dc:	48 8d 85 b0 f3 ff ff 	lea    -0xc50(%rbp),%rax
   134e3:	48 05 82 00 00 00    	add    $0x82,%rax
   134e9:	48 89 85 e0 f8 ff ff 	mov    %rax,-0x720(%rbp)
   134f0:	48 8d 05 9d 1c 01 00 	lea    0x11c9d(%rip),%rax        # 25194 <g_68>
   134f7:	48 89 85 e8 f8 ff ff 	mov    %rax,-0x718(%rbp)
   134fe:	48 8d 05 8f 1c 01 00 	lea    0x11c8f(%rip),%rax        # 25194 <g_68>
   13505:	48 89 85 f0 f8 ff ff 	mov    %rax,-0x710(%rbp)
   1350c:	48 8d 05 89 1d 01 00 	lea    0x11d89(%rip),%rax        # 2529c <g_1194>
   13513:	48 89 85 f8 f8 ff ff 	mov    %rax,-0x708(%rbp)
   1351a:	48 8d 05 73 1c 01 00 	lea    0x11c73(%rip),%rax        # 25194 <g_68>
   13521:	48 89 85 00 f9 ff ff 	mov    %rax,-0x700(%rbp)
   13528:	48 8d 05 65 1c 01 00 	lea    0x11c65(%rip),%rax        # 25194 <g_68>
   1352f:	48 89 85 08 f9 ff ff 	mov    %rax,-0x6f8(%rbp)
   13536:	48 8d 85 b0 f3 ff ff 	lea    -0xc50(%rbp),%rax
   1353d:	48 05 b5 00 00 00    	add    $0xb5,%rax
   13543:	48 89 85 10 f9 ff ff 	mov    %rax,-0x6f0(%rbp)
   1354a:	48 8d 85 b0 f3 ff ff 	lea    -0xc50(%rbp),%rax
   13551:	48 05 b5 00 00 00    	add    $0xb5,%rax
   13557:	48 89 85 18 f9 ff ff 	mov    %rax,-0x6e8(%rbp)
   1355e:	48 8d 05 2f 1c 01 00 	lea    0x11c2f(%rip),%rax        # 25194 <g_68>
   13565:	48 89 85 20 f9 ff ff 	mov    %rax,-0x6e0(%rbp)
   1356c:	48 8d 05 25 1c 01 00 	lea    0x11c25(%rip),%rax        # 25198 <g_77>
   13573:	48 89 85 28 f9 ff ff 	mov    %rax,-0x6d8(%rbp)
   1357a:	48 8d 05 1b 1d 01 00 	lea    0x11d1b(%rip),%rax        # 2529c <g_1194>
   13581:	48 89 85 30 f9 ff ff 	mov    %rax,-0x6d0(%rbp)
   13588:	48 8d 05 09 1c 01 00 	lea    0x11c09(%rip),%rax        # 25198 <g_77>
   1358f:	48 89 85 38 f9 ff ff 	mov    %rax,-0x6c8(%rbp)
   13596:	48 8d 05 f7 1b 01 00 	lea    0x11bf7(%rip),%rax        # 25194 <g_68>
   1359d:	48 89 85 40 f9 ff ff 	mov    %rax,-0x6c0(%rbp)
   135a4:	48 8d 85 b0 f3 ff ff 	lea    -0xc50(%rbp),%rax
   135ab:	48 05 82 00 00 00    	add    $0x82,%rax
   135b1:	48 89 85 48 f9 ff ff 	mov    %rax,-0x6b8(%rbp)
   135b8:	48 8d 85 b0 f3 ff ff 	lea    -0xc50(%rbp),%rax
   135bf:	48 05 82 00 00 00    	add    $0x82,%rax
   135c5:	48 89 85 50 f9 ff ff 	mov    %rax,-0x6b0(%rbp)
   135cc:	48 8d 05 c1 1b 01 00 	lea    0x11bc1(%rip),%rax        # 25194 <g_68>
   135d3:	48 89 85 58 f9 ff ff 	mov    %rax,-0x6a8(%rbp)
   135da:	48 8d 05 b3 1b 01 00 	lea    0x11bb3(%rip),%rax        # 25194 <g_68>
   135e1:	48 89 85 60 f9 ff ff 	mov    %rax,-0x6a0(%rbp)
   135e8:	48 8d 05 ad 1c 01 00 	lea    0x11cad(%rip),%rax        # 2529c <g_1194>
   135ef:	48 89 85 68 f9 ff ff 	mov    %rax,-0x698(%rbp)
   135f6:	48 8d 05 97 1b 01 00 	lea    0x11b97(%rip),%rax        # 25194 <g_68>
   135fd:	48 89 85 70 f9 ff ff 	mov    %rax,-0x690(%rbp)
   13604:	48 8d 05 89 1b 01 00 	lea    0x11b89(%rip),%rax        # 25194 <g_68>
   1360b:	48 89 85 78 f9 ff ff 	mov    %rax,-0x688(%rbp)
   13612:	48 8d 85 b0 f3 ff ff 	lea    -0xc50(%rbp),%rax
   13619:	48 05 b5 00 00 00    	add    $0xb5,%rax
   1361f:	48 89 85 80 f9 ff ff 	mov    %rax,-0x680(%rbp)
   13626:	48 8d 85 b0 f3 ff ff 	lea    -0xc50(%rbp),%rax
   1362d:	48 05 b5 00 00 00    	add    $0xb5,%rax
   13633:	48 89 85 88 f9 ff ff 	mov    %rax,-0x678(%rbp)
   1363a:	48 8d 05 53 1b 01 00 	lea    0x11b53(%rip),%rax        # 25194 <g_68>
   13641:	48 89 85 90 f9 ff ff 	mov    %rax,-0x670(%rbp)
   13648:	48 8d 05 49 1b 01 00 	lea    0x11b49(%rip),%rax        # 25198 <g_77>
   1364f:	48 89 85 98 f9 ff ff 	mov    %rax,-0x668(%rbp)
   13656:	48 c7 85 a0 f9 ff ff 	movq   $0x0,-0x660(%rbp)
   1365d:	00 00 00 00 
   13661:	48 8d 05 30 1b 01 00 	lea    0x11b30(%rip),%rax        # 25198 <g_77>
   13668:	48 89 85 a8 f9 ff ff 	mov    %rax,-0x658(%rbp)
   1366f:	48 8d 85 b0 f3 ff ff 	lea    -0xc50(%rbp),%rax
   13676:	48 05 82 00 00 00    	add    $0x82,%rax
   1367c:	48 89 85 b0 f9 ff ff 	mov    %rax,-0x650(%rbp)
   13683:	48 8d 05 12 1c 01 00 	lea    0x11c12(%rip),%rax        # 2529c <g_1194>
   1368a:	48 89 85 b8 f9 ff ff 	mov    %rax,-0x648(%rbp)
   13691:	48 8d 05 04 1c 01 00 	lea    0x11c04(%rip),%rax        # 2529c <g_1194>
   13698:	48 89 85 c0 f9 ff ff 	mov    %rax,-0x640(%rbp)
   1369f:	48 8d 85 b0 f3 ff ff 	lea    -0xc50(%rbp),%rax
   136a6:	48 05 b5 00 00 00    	add    $0xb5,%rax
   136ac:	48 89 85 c8 f9 ff ff 	mov    %rax,-0x638(%rbp)
   136b3:	48 8d 05 e2 1b 01 00 	lea    0x11be2(%rip),%rax        # 2529c <g_1194>
   136ba:	48 89 85 d0 f9 ff ff 	mov    %rax,-0x630(%rbp)
   136c1:	48 8d 05 d0 1a 01 00 	lea    0x11ad0(%rip),%rax        # 25198 <g_77>
   136c8:	48 89 85 d8 f9 ff ff 	mov    %rax,-0x628(%rbp)
   136cf:	48 8d 05 c6 1b 01 00 	lea    0x11bc6(%rip),%rax        # 2529c <g_1194>
   136d6:	48 89 85 e0 f9 ff ff 	mov    %rax,-0x620(%rbp)
   136dd:	48 8d 85 b0 f3 ff ff 	lea    -0xc50(%rbp),%rax
   136e4:	48 05 b5 00 00 00    	add    $0xb5,%rax
   136ea:	48 89 85 e8 f9 ff ff 	mov    %rax,-0x618(%rbp)
   136f1:	48 8d 05 a4 1b 01 00 	lea    0x11ba4(%rip),%rax        # 2529c <g_1194>
   136f8:	48 89 85 f0 f9 ff ff 	mov    %rax,-0x610(%rbp)
   136ff:	48 8d 05 96 1b 01 00 	lea    0x11b96(%rip),%rax        # 2529c <g_1194>
   13706:	48 89 85 f8 f9 ff ff 	mov    %rax,-0x608(%rbp)
   1370d:	48 8d 85 b0 f3 ff ff 	lea    -0xc50(%rbp),%rax
   13714:	48 05 82 00 00 00    	add    $0x82,%rax
   1371a:	48 89 85 00 fa ff ff 	mov    %rax,-0x600(%rbp)
   13721:	48 8d 05 70 1a 01 00 	lea    0x11a70(%rip),%rax        # 25198 <g_77>
   13728:	48 89 85 08 fa ff ff 	mov    %rax,-0x5f8(%rbp)
   1372f:	48 c7 85 10 fa ff ff 	movq   $0x0,-0x5f0(%rbp)
   13736:	00 00 00 00 
   1373a:	48 8d 05 57 1a 01 00 	lea    0x11a57(%rip),%rax        # 25198 <g_77>
   13741:	48 89 85 18 fa ff ff 	mov    %rax,-0x5e8(%rbp)
   13748:	48 8d 85 b0 f3 ff ff 	lea    -0xc50(%rbp),%rax
   1374f:	48 05 82 00 00 00    	add    $0x82,%rax
   13755:	48 89 85 20 fa ff ff 	mov    %rax,-0x5e0(%rbp)
   1375c:	48 8d 05 39 1b 01 00 	lea    0x11b39(%rip),%rax        # 2529c <g_1194>
   13763:	48 89 85 28 fa ff ff 	mov    %rax,-0x5d8(%rbp)
   1376a:	48 8d 05 2b 1b 01 00 	lea    0x11b2b(%rip),%rax        # 2529c <g_1194>
   13771:	48 89 85 30 fa ff ff 	mov    %rax,-0x5d0(%rbp)
   13778:	48 8d 85 b0 f3 ff ff 	lea    -0xc50(%rbp),%rax
   1377f:	48 05 b5 00 00 00    	add    $0xb5,%rax
   13785:	48 89 85 38 fa ff ff 	mov    %rax,-0x5c8(%rbp)
   1378c:	48 8d 05 09 1b 01 00 	lea    0x11b09(%rip),%rax        # 2529c <g_1194>
   13793:	48 89 85 40 fa ff ff 	mov    %rax,-0x5c0(%rbp)
   1379a:	48 8d 05 f7 19 01 00 	lea    0x119f7(%rip),%rax        # 25198 <g_77>
   137a1:	48 89 85 48 fa ff ff 	mov    %rax,-0x5b8(%rbp)
   137a8:	48 8d 05 ed 1a 01 00 	lea    0x11aed(%rip),%rax        # 2529c <g_1194>
   137af:	48 89 85 50 fa ff ff 	mov    %rax,-0x5b0(%rbp)
   137b6:	48 8d 85 b0 f3 ff ff 	lea    -0xc50(%rbp),%rax
   137bd:	48 05 b5 00 00 00    	add    $0xb5,%rax
   137c3:	48 89 85 58 fa ff ff 	mov    %rax,-0x5a8(%rbp)
   137ca:	48 8d 05 cb 1a 01 00 	lea    0x11acb(%rip),%rax        # 2529c <g_1194>
   137d1:	48 89 85 60 fa ff ff 	mov    %rax,-0x5a0(%rbp)
   137d8:	48 8d 05 bd 1a 01 00 	lea    0x11abd(%rip),%rax        # 2529c <g_1194>
   137df:	48 89 85 68 fa ff ff 	mov    %rax,-0x598(%rbp)
   137e6:	48 8d 85 b0 f3 ff ff 	lea    -0xc50(%rbp),%rax
   137ed:	48 05 82 00 00 00    	add    $0x82,%rax
   137f3:	48 89 85 70 fa ff ff 	mov    %rax,-0x590(%rbp)
   137fa:	48 8d 05 97 19 01 00 	lea    0x11997(%rip),%rax        # 25198 <g_77>
   13801:	48 89 85 78 fa ff ff 	mov    %rax,-0x588(%rbp)
   13808:	48 c7 85 80 fa ff ff 	movq   $0x0,-0x580(%rbp)
   1380f:	00 00 00 00 
   13813:	48 8d 05 7e 19 01 00 	lea    0x1197e(%rip),%rax        # 25198 <g_77>
   1381a:	48 89 85 88 fa ff ff 	mov    %rax,-0x578(%rbp)
   13821:	48 8d 85 b0 f3 ff ff 	lea    -0xc50(%rbp),%rax
   13828:	48 05 82 00 00 00    	add    $0x82,%rax
   1382e:	48 89 85 90 fa ff ff 	mov    %rax,-0x570(%rbp)
   13835:	48 8d 05 60 1a 01 00 	lea    0x11a60(%rip),%rax        # 2529c <g_1194>
   1383c:	48 89 85 98 fa ff ff 	mov    %rax,-0x568(%rbp)
   13843:	48 8d 05 52 1a 01 00 	lea    0x11a52(%rip),%rax        # 2529c <g_1194>
   1384a:	48 89 85 a0 fa ff ff 	mov    %rax,-0x560(%rbp)
   13851:	48 8d 85 b0 f3 ff ff 	lea    -0xc50(%rbp),%rax
   13858:	48 05 b5 00 00 00    	add    $0xb5,%rax
   1385e:	48 89 85 a8 fa ff ff 	mov    %rax,-0x558(%rbp)
   13865:	48 8d 05 30 1a 01 00 	lea    0x11a30(%rip),%rax        # 2529c <g_1194>
   1386c:	48 89 85 b0 fa ff ff 	mov    %rax,-0x550(%rbp)
   13873:	48 8d 05 1e 19 01 00 	lea    0x1191e(%rip),%rax        # 25198 <g_77>
   1387a:	48 89 85 b8 fa ff ff 	mov    %rax,-0x548(%rbp)
   13881:	48 8d 05 14 1a 01 00 	lea    0x11a14(%rip),%rax        # 2529c <g_1194>
   13888:	48 89 85 c0 fa ff ff 	mov    %rax,-0x540(%rbp)
   1388f:	48 8d 85 b0 f3 ff ff 	lea    -0xc50(%rbp),%rax
   13896:	48 05 b5 00 00 00    	add    $0xb5,%rax
   1389c:	48 89 85 c8 fa ff ff 	mov    %rax,-0x538(%rbp)
   138a3:	48 8d 05 f2 19 01 00 	lea    0x119f2(%rip),%rax        # 2529c <g_1194>
   138aa:	48 89 85 d0 fa ff ff 	mov    %rax,-0x530(%rbp)
   138b1:	48 8d 05 e4 19 01 00 	lea    0x119e4(%rip),%rax        # 2529c <g_1194>
   138b8:	48 89 85 d8 fa ff ff 	mov    %rax,-0x528(%rbp)
   138bf:	48 8d 85 b0 f3 ff ff 	lea    -0xc50(%rbp),%rax
   138c6:	48 05 82 00 00 00    	add    $0x82,%rax
   138cc:	48 89 85 e0 fa ff ff 	mov    %rax,-0x520(%rbp)
   138d3:	48 8d 05 be 18 01 00 	lea    0x118be(%rip),%rax        # 25198 <g_77>
   138da:	48 89 85 e8 fa ff ff 	mov    %rax,-0x518(%rbp)
   138e1:	48 c7 85 f0 fa ff ff 	movq   $0x0,-0x510(%rbp)
   138e8:	00 00 00 00 
   138ec:	48 8d 05 a5 18 01 00 	lea    0x118a5(%rip),%rax        # 25198 <g_77>
   138f3:	48 89 85 f8 fa ff ff 	mov    %rax,-0x508(%rbp)
   138fa:	48 8d 85 b0 f3 ff ff 	lea    -0xc50(%rbp),%rax
   13901:	48 05 82 00 00 00    	add    $0x82,%rax
   13907:	48 89 85 00 fb ff ff 	mov    %rax,-0x500(%rbp)
   1390e:	48 8d 05 87 19 01 00 	lea    0x11987(%rip),%rax        # 2529c <g_1194>
   13915:	48 89 85 08 fb ff ff 	mov    %rax,-0x4f8(%rbp)
   1391c:	48 8d 05 79 19 01 00 	lea    0x11979(%rip),%rax        # 2529c <g_1194>
   13923:	48 89 85 10 fb ff ff 	mov    %rax,-0x4f0(%rbp)
   1392a:	48 8d 85 b0 f3 ff ff 	lea    -0xc50(%rbp),%rax
   13931:	48 05 b5 00 00 00    	add    $0xb5,%rax
   13937:	48 89 85 18 fb ff ff 	mov    %rax,-0x4e8(%rbp)
   1393e:	48 8d 05 57 19 01 00 	lea    0x11957(%rip),%rax        # 2529c <g_1194>
   13945:	48 89 85 20 fb ff ff 	mov    %rax,-0x4e0(%rbp)
   1394c:	48 8d 05 45 18 01 00 	lea    0x11845(%rip),%rax        # 25198 <g_77>
   13953:	48 89 85 28 fb ff ff 	mov    %rax,-0x4d8(%rbp)
   1395a:	48 8d 05 3b 19 01 00 	lea    0x1193b(%rip),%rax        # 2529c <g_1194>
   13961:	48 89 85 30 fb ff ff 	mov    %rax,-0x4d0(%rbp)
   13968:	48 8d 85 b0 f3 ff ff 	lea    -0xc50(%rbp),%rax
   1396f:	48 05 b5 00 00 00    	add    $0xb5,%rax
   13975:	48 89 85 38 fb ff ff 	mov    %rax,-0x4c8(%rbp)
   1397c:	48 8d 05 19 19 01 00 	lea    0x11919(%rip),%rax        # 2529c <g_1194>
   13983:	48 89 85 40 fb ff ff 	mov    %rax,-0x4c0(%rbp)
   1398a:	48 8d 05 0b 19 01 00 	lea    0x1190b(%rip),%rax        # 2529c <g_1194>
   13991:	48 89 85 48 fb ff ff 	mov    %rax,-0x4b8(%rbp)
   13998:	48 8d 85 b0 f3 ff ff 	lea    -0xc50(%rbp),%rax
   1399f:	48 05 82 00 00 00    	add    $0x82,%rax
   139a5:	48 89 85 50 fb ff ff 	mov    %rax,-0x4b0(%rbp)
   139ac:	48 8d 05 e5 17 01 00 	lea    0x117e5(%rip),%rax        # 25198 <g_77>
   139b3:	48 89 85 58 fb ff ff 	mov    %rax,-0x4a8(%rbp)
   139ba:	48 c7 85 60 fb ff ff 	movq   $0x0,-0x4a0(%rbp)
   139c1:	00 00 00 00 
   139c5:	48 8d 05 cc 17 01 00 	lea    0x117cc(%rip),%rax        # 25198 <g_77>
   139cc:	48 89 85 68 fb ff ff 	mov    %rax,-0x498(%rbp)
   139d3:	48 8d 85 b0 f3 ff ff 	lea    -0xc50(%rbp),%rax
   139da:	48 05 82 00 00 00    	add    $0x82,%rax
   139e0:	48 89 85 70 fb ff ff 	mov    %rax,-0x490(%rbp)
   139e7:	48 8d 05 ae 18 01 00 	lea    0x118ae(%rip),%rax        # 2529c <g_1194>
   139ee:	48 89 85 78 fb ff ff 	mov    %rax,-0x488(%rbp)
   139f5:	48 8d 05 a0 18 01 00 	lea    0x118a0(%rip),%rax        # 2529c <g_1194>
   139fc:	48 89 85 80 fb ff ff 	mov    %rax,-0x480(%rbp)
   13a03:	48 8d 85 b0 f3 ff ff 	lea    -0xc50(%rbp),%rax
   13a0a:	48 05 b5 00 00 00    	add    $0xb5,%rax
   13a10:	48 89 85 88 fb ff ff 	mov    %rax,-0x478(%rbp)
   13a17:	48 8d 05 7e 18 01 00 	lea    0x1187e(%rip),%rax        # 2529c <g_1194>
   13a1e:	48 89 85 90 fb ff ff 	mov    %rax,-0x470(%rbp)
   13a25:	48 8d 05 6c 17 01 00 	lea    0x1176c(%rip),%rax        # 25198 <g_77>
   13a2c:	48 89 85 98 fb ff ff 	mov    %rax,-0x468(%rbp)
   13a33:	48 8d 05 62 18 01 00 	lea    0x11862(%rip),%rax        # 2529c <g_1194>
   13a3a:	48 89 85 a0 fb ff ff 	mov    %rax,-0x460(%rbp)
   13a41:	48 8d 85 b0 f3 ff ff 	lea    -0xc50(%rbp),%rax
   13a48:	48 05 b5 00 00 00    	add    $0xb5,%rax
   13a4e:	48 89 85 a8 fb ff ff 	mov    %rax,-0x458(%rbp)
   13a55:	48 8d 05 40 18 01 00 	lea    0x11840(%rip),%rax        # 2529c <g_1194>
   13a5c:	48 89 85 b0 fb ff ff 	mov    %rax,-0x450(%rbp)
   13a63:	48 8d 05 32 18 01 00 	lea    0x11832(%rip),%rax        # 2529c <g_1194>
   13a6a:	48 89 85 b8 fb ff ff 	mov    %rax,-0x448(%rbp)
   13a71:	48 8d 85 b0 f3 ff ff 	lea    -0xc50(%rbp),%rax
   13a78:	48 05 82 00 00 00    	add    $0x82,%rax
   13a7e:	48 89 85 c0 fb ff ff 	mov    %rax,-0x440(%rbp)
   13a85:	48 8d 05 0c 17 01 00 	lea    0x1170c(%rip),%rax        # 25198 <g_77>
   13a8c:	48 89 85 c8 fb ff ff 	mov    %rax,-0x438(%rbp)
   13a93:	48 c7 85 d0 fb ff ff 	movq   $0x0,-0x430(%rbp)
   13a9a:	00 00 00 00 
   13a9e:	48 8d 05 f3 16 01 00 	lea    0x116f3(%rip),%rax        # 25198 <g_77>
   13aa5:	48 89 85 d8 fb ff ff 	mov    %rax,-0x428(%rbp)
   13aac:	48 8d 85 b0 f3 ff ff 	lea    -0xc50(%rbp),%rax
   13ab3:	48 05 82 00 00 00    	add    $0x82,%rax
   13ab9:	48 89 85 e0 fb ff ff 	mov    %rax,-0x420(%rbp)
   13ac0:	48 8d 05 d5 17 01 00 	lea    0x117d5(%rip),%rax        # 2529c <g_1194>
   13ac7:	48 89 85 e8 fb ff ff 	mov    %rax,-0x418(%rbp)
   13ace:	48 8d 05 c7 17 01 00 	lea    0x117c7(%rip),%rax        # 2529c <g_1194>
   13ad5:	48 89 85 f0 fb ff ff 	mov    %rax,-0x410(%rbp)
   13adc:	48 8d 85 b0 f3 ff ff 	lea    -0xc50(%rbp),%rax
   13ae3:	48 05 b5 00 00 00    	add    $0xb5,%rax
   13ae9:	48 89 85 f8 fb ff ff 	mov    %rax,-0x408(%rbp)
   13af0:	48 8d 05 a5 17 01 00 	lea    0x117a5(%rip),%rax        # 2529c <g_1194>
   13af7:	48 89 85 00 fc ff ff 	mov    %rax,-0x400(%rbp)
   13afe:	48 8d 05 93 16 01 00 	lea    0x11693(%rip),%rax        # 25198 <g_77>
   13b05:	48 89 85 08 fc ff ff 	mov    %rax,-0x3f8(%rbp)
   13b0c:	48 8d 05 89 17 01 00 	lea    0x11789(%rip),%rax        # 2529c <g_1194>
   13b13:	48 89 85 10 fc ff ff 	mov    %rax,-0x3f0(%rbp)
   13b1a:	48 8d 85 b0 f3 ff ff 	lea    -0xc50(%rbp),%rax
   13b21:	48 05 b5 00 00 00    	add    $0xb5,%rax
   13b27:	48 89 85 18 fc ff ff 	mov    %rax,-0x3e8(%rbp)
   13b2e:	48 8d 05 67 17 01 00 	lea    0x11767(%rip),%rax        # 2529c <g_1194>
   13b35:	48 89 85 20 fc ff ff 	mov    %rax,-0x3e0(%rbp)
   13b3c:	48 8d 05 59 17 01 00 	lea    0x11759(%rip),%rax        # 2529c <g_1194>
   13b43:	48 89 85 28 fc ff ff 	mov    %rax,-0x3d8(%rbp)
   13b4a:	48 8d 85 b0 f3 ff ff 	lea    -0xc50(%rbp),%rax
   13b51:	48 05 82 00 00 00    	add    $0x82,%rax
   13b57:	48 89 85 30 fc ff ff 	mov    %rax,-0x3d0(%rbp)
   13b5e:	48 8d 05 33 16 01 00 	lea    0x11633(%rip),%rax        # 25198 <g_77>
   13b65:	48 89 85 38 fc ff ff 	mov    %rax,-0x3c8(%rbp)
   13b6c:	48 c7 85 40 fc ff ff 	movq   $0x0,-0x3c0(%rbp)
   13b73:	00 00 00 00 
   13b77:	48 8d 05 1a 16 01 00 	lea    0x1161a(%rip),%rax        # 25198 <g_77>
   13b7e:	48 89 85 48 fc ff ff 	mov    %rax,-0x3b8(%rbp)
   13b85:	48 8d 85 b0 f3 ff ff 	lea    -0xc50(%rbp),%rax
   13b8c:	48 05 82 00 00 00    	add    $0x82,%rax
   13b92:	48 89 85 50 fc ff ff 	mov    %rax,-0x3b0(%rbp)
   13b99:	48 8d 05 fc 16 01 00 	lea    0x116fc(%rip),%rax        # 2529c <g_1194>
   13ba0:	48 89 85 58 fc ff ff 	mov    %rax,-0x3a8(%rbp)
   13ba7:	48 8d 05 ee 16 01 00 	lea    0x116ee(%rip),%rax        # 2529c <g_1194>
   13bae:	48 89 85 60 fc ff ff 	mov    %rax,-0x3a0(%rbp)
   13bb5:	48 8d 85 b0 f3 ff ff 	lea    -0xc50(%rbp),%rax
   13bbc:	48 05 b5 00 00 00    	add    $0xb5,%rax
   13bc2:	48 89 85 68 fc ff ff 	mov    %rax,-0x398(%rbp)
   13bc9:	48 8d 05 cc 16 01 00 	lea    0x116cc(%rip),%rax        # 2529c <g_1194>
   13bd0:	48 89 85 70 fc ff ff 	mov    %rax,-0x390(%rbp)
   13bd7:	48 8d 05 ba 15 01 00 	lea    0x115ba(%rip),%rax        # 25198 <g_77>
   13bde:	48 89 85 78 fc ff ff 	mov    %rax,-0x388(%rbp)
   13be5:	48 8d 05 b0 16 01 00 	lea    0x116b0(%rip),%rax        # 2529c <g_1194>
   13bec:	48 89 85 80 fc ff ff 	mov    %rax,-0x380(%rbp)
   13bf3:	48 8d 85 b0 f3 ff ff 	lea    -0xc50(%rbp),%rax
   13bfa:	48 05 b5 00 00 00    	add    $0xb5,%rax
   13c00:	48 89 85 88 fc ff ff 	mov    %rax,-0x378(%rbp)
   13c07:	48 8d 05 8e 16 01 00 	lea    0x1168e(%rip),%rax        # 2529c <g_1194>
   13c0e:	48 89 85 90 fc ff ff 	mov    %rax,-0x370(%rbp)
   13c15:	48 8d 05 80 16 01 00 	lea    0x11680(%rip),%rax        # 2529c <g_1194>
   13c1c:	48 89 85 98 fc ff ff 	mov    %rax,-0x368(%rbp)
   13c23:	48 8d 85 b0 f3 ff ff 	lea    -0xc50(%rbp),%rax
   13c2a:	48 05 82 00 00 00    	add    $0x82,%rax
   13c30:	48 89 85 a0 fc ff ff 	mov    %rax,-0x360(%rbp)
   13c37:	48 8d 05 5a 15 01 00 	lea    0x1155a(%rip),%rax        # 25198 <g_77>
   13c3e:	48 89 85 a8 fc ff ff 	mov    %rax,-0x358(%rbp)
   13c45:	48 c7 85 b0 fc ff ff 	movq   $0x0,-0x350(%rbp)
   13c4c:	00 00 00 00 
   13c50:	48 8d 05 41 15 01 00 	lea    0x11541(%rip),%rax        # 25198 <g_77>
   13c57:	48 89 85 b8 fc ff ff 	mov    %rax,-0x348(%rbp)
   13c5e:	48 8d 85 b0 f3 ff ff 	lea    -0xc50(%rbp),%rax
   13c65:	48 05 82 00 00 00    	add    $0x82,%rax
   13c6b:	48 89 85 c0 fc ff ff 	mov    %rax,-0x340(%rbp)
   13c72:	48 8d 05 23 16 01 00 	lea    0x11623(%rip),%rax        # 2529c <g_1194>
   13c79:	48 89 85 c8 fc ff ff 	mov    %rax,-0x338(%rbp)
   13c80:	48 8d 05 15 16 01 00 	lea    0x11615(%rip),%rax        # 2529c <g_1194>
   13c87:	48 89 85 d0 fc ff ff 	mov    %rax,-0x330(%rbp)
   13c8e:	48 8d 85 b0 f3 ff ff 	lea    -0xc50(%rbp),%rax
   13c95:	48 05 b5 00 00 00    	add    $0xb5,%rax
   13c9b:	48 89 85 d8 fc ff ff 	mov    %rax,-0x328(%rbp)
   13ca2:	48 8d 05 f3 15 01 00 	lea    0x115f3(%rip),%rax        # 2529c <g_1194>
   13ca9:	48 89 85 e0 fc ff ff 	mov    %rax,-0x320(%rbp)
   13cb0:	48 8d 05 e1 14 01 00 	lea    0x114e1(%rip),%rax        # 25198 <g_77>
   13cb7:	48 89 85 e8 fc ff ff 	mov    %rax,-0x318(%rbp)
   13cbe:	48 8d 05 d7 15 01 00 	lea    0x115d7(%rip),%rax        # 2529c <g_1194>
   13cc5:	48 89 85 f0 fc ff ff 	mov    %rax,-0x310(%rbp)
   13ccc:	48 8d 85 b0 f3 ff ff 	lea    -0xc50(%rbp),%rax
   13cd3:	48 05 b5 00 00 00    	add    $0xb5,%rax
   13cd9:	48 89 85 f8 fc ff ff 	mov    %rax,-0x308(%rbp)
   13ce0:	48 8d 05 b5 15 01 00 	lea    0x115b5(%rip),%rax        # 2529c <g_1194>
   13ce7:	48 89 85 00 fd ff ff 	mov    %rax,-0x300(%rbp)
   13cee:	48 8d 05 a7 15 01 00 	lea    0x115a7(%rip),%rax        # 2529c <g_1194>
   13cf5:	48 89 85 08 fd ff ff 	mov    %rax,-0x2f8(%rbp)
   13cfc:	48 8d 85 b0 f3 ff ff 	lea    -0xc50(%rbp),%rax
   13d03:	48 05 82 00 00 00    	add    $0x82,%rax
   13d09:	48 89 85 10 fd ff ff 	mov    %rax,-0x2f0(%rbp)
   13d10:	48 8d 05 81 14 01 00 	lea    0x11481(%rip),%rax        # 25198 <g_77>
   13d17:	48 89 85 18 fd ff ff 	mov    %rax,-0x2e8(%rbp)
   13d1e:	48 c7 85 20 fd ff ff 	movq   $0x0,-0x2e0(%rbp)
   13d25:	00 00 00 00 
   13d29:	48 8d 05 68 14 01 00 	lea    0x11468(%rip),%rax        # 25198 <g_77>
   13d30:	48 89 85 28 fd ff ff 	mov    %rax,-0x2d8(%rbp)
   13d37:	48 8d 85 b0 f3 ff ff 	lea    -0xc50(%rbp),%rax
   13d3e:	48 05 82 00 00 00    	add    $0x82,%rax
   13d44:	48 89 85 30 fd ff ff 	mov    %rax,-0x2d0(%rbp)
   13d4b:	48 8d 05 4a 15 01 00 	lea    0x1154a(%rip),%rax        # 2529c <g_1194>
   13d52:	48 89 85 38 fd ff ff 	mov    %rax,-0x2c8(%rbp)
   13d59:	48 8d 05 3c 15 01 00 	lea    0x1153c(%rip),%rax        # 2529c <g_1194>
   13d60:	48 89 85 40 fd ff ff 	mov    %rax,-0x2c0(%rbp)
   13d67:	48 8d 85 b0 f3 ff ff 	lea    -0xc50(%rbp),%rax
   13d6e:	48 05 b5 00 00 00    	add    $0xb5,%rax
   13d74:	48 89 85 48 fd ff ff 	mov    %rax,-0x2b8(%rbp)
   13d7b:	48 8d 05 1a 15 01 00 	lea    0x1151a(%rip),%rax        # 2529c <g_1194>
   13d82:	48 89 85 50 fd ff ff 	mov    %rax,-0x2b0(%rbp)
   13d89:	48 8d 05 08 14 01 00 	lea    0x11408(%rip),%rax        # 25198 <g_77>
   13d90:	48 89 85 58 fd ff ff 	mov    %rax,-0x2a8(%rbp)
   13d97:	48 8d 05 fe 14 01 00 	lea    0x114fe(%rip),%rax        # 2529c <g_1194>
   13d9e:	48 89 85 60 fd ff ff 	mov    %rax,-0x2a0(%rbp)
   13da5:	48 8d 85 b0 f3 ff ff 	lea    -0xc50(%rbp),%rax
   13dac:	48 05 b5 00 00 00    	add    $0xb5,%rax
   13db2:	48 89 85 68 fd ff ff 	mov    %rax,-0x298(%rbp)
   13db9:	48 8d 05 dc 14 01 00 	lea    0x114dc(%rip),%rax        # 2529c <g_1194>
   13dc0:	48 89 85 70 fd ff ff 	mov    %rax,-0x290(%rbp)
   13dc7:	48 8d 05 ce 14 01 00 	lea    0x114ce(%rip),%rax        # 2529c <g_1194>
   13dce:	48 89 85 78 fd ff ff 	mov    %rax,-0x288(%rbp)
   13dd5:	48 8d 85 b0 f3 ff ff 	lea    -0xc50(%rbp),%rax
   13ddc:	48 05 82 00 00 00    	add    $0x82,%rax
   13de2:	48 89 85 80 fd ff ff 	mov    %rax,-0x280(%rbp)
   13de9:	48 8d 05 a8 13 01 00 	lea    0x113a8(%rip),%rax        # 25198 <g_77>
   13df0:	48 89 85 88 fd ff ff 	mov    %rax,-0x278(%rbp)
   13df7:	48 c7 85 90 fd ff ff 	movq   $0x0,-0x270(%rbp)
   13dfe:	00 00 00 00 
   13e02:	48 8d 05 8f 13 01 00 	lea    0x1138f(%rip),%rax        # 25198 <g_77>
   13e09:	48 89 85 98 fd ff ff 	mov    %rax,-0x268(%rbp)
   13e10:	48 8d 85 b0 f3 ff ff 	lea    -0xc50(%rbp),%rax
   13e17:	48 05 82 00 00 00    	add    $0x82,%rax
   13e1d:	48 89 85 a0 fd ff ff 	mov    %rax,-0x260(%rbp)
   13e24:	48 8d 05 71 14 01 00 	lea    0x11471(%rip),%rax        # 2529c <g_1194>
   13e2b:	48 89 85 a8 fd ff ff 	mov    %rax,-0x258(%rbp)
   13e32:	48 8d 05 63 14 01 00 	lea    0x11463(%rip),%rax        # 2529c <g_1194>
   13e39:	48 89 85 b0 fd ff ff 	mov    %rax,-0x250(%rbp)
   13e40:	48 8d 85 b0 f3 ff ff 	lea    -0xc50(%rbp),%rax
   13e47:	48 05 b5 00 00 00    	add    $0xb5,%rax
   13e4d:	48 89 85 b8 fd ff ff 	mov    %rax,-0x248(%rbp)
   13e54:	48 8d 05 41 14 01 00 	lea    0x11441(%rip),%rax        # 2529c <g_1194>
   13e5b:	48 89 85 c0 fd ff ff 	mov    %rax,-0x240(%rbp)
   13e62:	48 8d 05 2f 13 01 00 	lea    0x1132f(%rip),%rax        # 25198 <g_77>
   13e69:	48 89 85 c8 fd ff ff 	mov    %rax,-0x238(%rbp)
   13e70:	48 8d 05 25 14 01 00 	lea    0x11425(%rip),%rax        # 2529c <g_1194>
   13e77:	48 89 85 d0 fd ff ff 	mov    %rax,-0x230(%rbp)
   13e7e:	48 8d 85 b0 f3 ff ff 	lea    -0xc50(%rbp),%rax
   13e85:	48 05 b5 00 00 00    	add    $0xb5,%rax
   13e8b:	48 89 85 d8 fd ff ff 	mov    %rax,-0x228(%rbp)
   13e92:	48 8d 05 03 14 01 00 	lea    0x11403(%rip),%rax        # 2529c <g_1194>
   13e99:	48 89 85 e0 fd ff ff 	mov    %rax,-0x220(%rbp)
   13ea0:	48 8d 05 f5 13 01 00 	lea    0x113f5(%rip),%rax        # 2529c <g_1194>
   13ea7:	48 89 85 e8 fd ff ff 	mov    %rax,-0x218(%rbp)
   13eae:	48 8d 85 b0 f3 ff ff 	lea    -0xc50(%rbp),%rax
   13eb5:	48 05 82 00 00 00    	add    $0x82,%rax
   13ebb:	48 89 85 f0 fd ff ff 	mov    %rax,-0x210(%rbp)
   13ec2:	48 8d 05 cf 12 01 00 	lea    0x112cf(%rip),%rax        # 25198 <g_77>
   13ec9:	48 89 85 f8 fd ff ff 	mov    %rax,-0x208(%rbp)
   13ed0:	48 c7 85 00 fe ff ff 	movq   $0x0,-0x200(%rbp)
   13ed7:	00 00 00 00 
   13edb:	48 8d 05 b6 12 01 00 	lea    0x112b6(%rip),%rax        # 25198 <g_77>
   13ee2:	48 89 85 08 fe ff ff 	mov    %rax,-0x1f8(%rbp)
   13ee9:	48 8d 85 b0 f3 ff ff 	lea    -0xc50(%rbp),%rax
   13ef0:	48 05 82 00 00 00    	add    $0x82,%rax
   13ef6:	48 89 85 10 fe ff ff 	mov    %rax,-0x1f0(%rbp)
   13efd:	48 8d 05 98 13 01 00 	lea    0x11398(%rip),%rax        # 2529c <g_1194>
   13f04:	48 89 85 18 fe ff ff 	mov    %rax,-0x1e8(%rbp)
   13f0b:	48 8d 05 8a 13 01 00 	lea    0x1138a(%rip),%rax        # 2529c <g_1194>
   13f12:	48 89 85 20 fe ff ff 	mov    %rax,-0x1e0(%rbp)
   13f19:	48 8d 85 b0 f3 ff ff 	lea    -0xc50(%rbp),%rax
   13f20:	48 05 b5 00 00 00    	add    $0xb5,%rax
   13f26:	48 89 85 28 fe ff ff 	mov    %rax,-0x1d8(%rbp)
   13f2d:	48 8d 05 68 13 01 00 	lea    0x11368(%rip),%rax        # 2529c <g_1194>
   13f34:	48 89 85 30 fe ff ff 	mov    %rax,-0x1d0(%rbp)
   13f3b:	48 8d 05 56 12 01 00 	lea    0x11256(%rip),%rax        # 25198 <g_77>
   13f42:	48 89 85 38 fe ff ff 	mov    %rax,-0x1c8(%rbp)
   13f49:	48 8d 05 4c 13 01 00 	lea    0x1134c(%rip),%rax        # 2529c <g_1194>
   13f50:	48 89 85 40 fe ff ff 	mov    %rax,-0x1c0(%rbp)
   13f57:	48 8d 85 b0 f3 ff ff 	lea    -0xc50(%rbp),%rax
   13f5e:	48 05 b5 00 00 00    	add    $0xb5,%rax
   13f64:	48 89 85 48 fe ff ff 	mov    %rax,-0x1b8(%rbp)
   13f6b:	48 8d 05 2a 13 01 00 	lea    0x1132a(%rip),%rax        # 2529c <g_1194>
   13f72:	48 89 85 50 fe ff ff 	mov    %rax,-0x1b0(%rbp)
   13f79:	48 8d 05 1c 13 01 00 	lea    0x1131c(%rip),%rax        # 2529c <g_1194>
   13f80:	48 89 85 58 fe ff ff 	mov    %rax,-0x1a8(%rbp)
   13f87:	48 8d 85 b0 f3 ff ff 	lea    -0xc50(%rbp),%rax
   13f8e:	48 05 82 00 00 00    	add    $0x82,%rax
   13f94:	48 89 85 60 fe ff ff 	mov    %rax,-0x1a0(%rbp)
   13f9b:	48 8d 05 f6 11 01 00 	lea    0x111f6(%rip),%rax        # 25198 <g_77>
   13fa2:	48 89 85 68 fe ff ff 	mov    %rax,-0x198(%rbp)
   13fa9:	48 c7 85 70 fe ff ff 	movq   $0x0,-0x190(%rbp)
   13fb0:	00 00 00 00 
   13fb4:	48 8d 05 dd 11 01 00 	lea    0x111dd(%rip),%rax        # 25198 <g_77>
   13fbb:	48 89 85 78 fe ff ff 	mov    %rax,-0x188(%rbp)
   13fc2:	48 8d 85 b0 f3 ff ff 	lea    -0xc50(%rbp),%rax
   13fc9:	48 05 82 00 00 00    	add    $0x82,%rax
   13fcf:	48 89 85 80 fe ff ff 	mov    %rax,-0x180(%rbp)
   13fd6:	48 8d 05 bf 12 01 00 	lea    0x112bf(%rip),%rax        # 2529c <g_1194>
   13fdd:	48 89 85 88 fe ff ff 	mov    %rax,-0x178(%rbp)
   13fe4:	48 8d 05 b1 12 01 00 	lea    0x112b1(%rip),%rax        # 2529c <g_1194>
   13feb:	48 89 85 90 fe ff ff 	mov    %rax,-0x170(%rbp)
   13ff2:	48 8d 85 b0 f3 ff ff 	lea    -0xc50(%rbp),%rax
   13ff9:	48 05 b5 00 00 00    	add    $0xb5,%rax
   13fff:	48 89 85 98 fe ff ff 	mov    %rax,-0x168(%rbp)
   14006:	48 8d 05 8f 12 01 00 	lea    0x1128f(%rip),%rax        # 2529c <g_1194>
   1400d:	48 89 85 a0 fe ff ff 	mov    %rax,-0x160(%rbp)
   14014:	48 8d 05 7d 11 01 00 	lea    0x1117d(%rip),%rax        # 25198 <g_77>
   1401b:	48 89 85 a8 fe ff ff 	mov    %rax,-0x158(%rbp)
   14022:	48 8d 05 73 12 01 00 	lea    0x11273(%rip),%rax        # 2529c <g_1194>
   14029:	48 89 85 b0 fe ff ff 	mov    %rax,-0x150(%rbp)
   14030:	48 8d 85 b0 f3 ff ff 	lea    -0xc50(%rbp),%rax
   14037:	48 05 b5 00 00 00    	add    $0xb5,%rax
   1403d:	48 89 85 b8 fe ff ff 	mov    %rax,-0x148(%rbp)
   14044:	48 8d 05 51 12 01 00 	lea    0x11251(%rip),%rax        # 2529c <g_1194>
   1404b:	48 89 85 c0 fe ff ff 	mov    %rax,-0x140(%rbp)
   14052:	48 8d 05 43 12 01 00 	lea    0x11243(%rip),%rax        # 2529c <g_1194>
   14059:	48 89 85 c8 fe ff ff 	mov    %rax,-0x138(%rbp)
   14060:	48 8d 85 b0 f3 ff ff 	lea    -0xc50(%rbp),%rax
   14067:	48 05 82 00 00 00    	add    $0x82,%rax
   1406d:	48 89 85 d0 fe ff ff 	mov    %rax,-0x130(%rbp)
   14074:	48 8d 05 1d 11 01 00 	lea    0x1111d(%rip),%rax        # 25198 <g_77>
   1407b:	48 89 85 d8 fe ff ff 	mov    %rax,-0x128(%rbp)
   14082:	48 c7 85 e0 fe ff ff 	movq   $0x0,-0x120(%rbp)
   14089:	00 00 00 00 
   1408d:	48 8d 05 04 11 01 00 	lea    0x11104(%rip),%rax        # 25198 <g_77>
   14094:	48 89 85 e8 fe ff ff 	mov    %rax,-0x118(%rbp)
   1409b:	48 8d 85 b0 f3 ff ff 	lea    -0xc50(%rbp),%rax
   140a2:	48 05 82 00 00 00    	add    $0x82,%rax
   140a8:	48 89 85 f0 fe ff ff 	mov    %rax,-0x110(%rbp)
   140af:	48 8d 05 e6 11 01 00 	lea    0x111e6(%rip),%rax        # 2529c <g_1194>
   140b6:	48 89 85 f8 fe ff ff 	mov    %rax,-0x108(%rbp)
   140bd:	48 8d 05 d8 11 01 00 	lea    0x111d8(%rip),%rax        # 2529c <g_1194>
   140c4:	48 89 85 00 ff ff ff 	mov    %rax,-0x100(%rbp)
   140cb:	48 8d 85 b0 f3 ff ff 	lea    -0xc50(%rbp),%rax
   140d2:	48 05 b5 00 00 00    	add    $0xb5,%rax
   140d8:	48 89 85 08 ff ff ff 	mov    %rax,-0xf8(%rbp)
   140df:	48 8d 05 b6 11 01 00 	lea    0x111b6(%rip),%rax        # 2529c <g_1194>
   140e6:	48 89 85 10 ff ff ff 	mov    %rax,-0xf0(%rbp)
   140ed:	48 8d 05 a4 10 01 00 	lea    0x110a4(%rip),%rax        # 25198 <g_77>
   140f4:	48 89 85 18 ff ff ff 	mov    %rax,-0xe8(%rbp)
   140fb:	48 8d 05 9a 11 01 00 	lea    0x1119a(%rip),%rax        # 2529c <g_1194>
   14102:	48 89 85 20 ff ff ff 	mov    %rax,-0xe0(%rbp)
   14109:	48 8d 85 b0 f3 ff ff 	lea    -0xc50(%rbp),%rax
   14110:	48 05 b5 00 00 00    	add    $0xb5,%rax
   14116:	48 89 85 28 ff ff ff 	mov    %rax,-0xd8(%rbp)
   1411d:	48 8d 05 78 11 01 00 	lea    0x11178(%rip),%rax        # 2529c <g_1194>
   14124:	48 89 85 30 ff ff ff 	mov    %rax,-0xd0(%rbp)
   1412b:	48 8d 05 6a 11 01 00 	lea    0x1116a(%rip),%rax        # 2529c <g_1194>
   14132:	48 89 85 38 ff ff ff 	mov    %rax,-0xc8(%rbp)
   14139:	48 8d 85 b0 f3 ff ff 	lea    -0xc50(%rbp),%rax
   14140:	48 05 82 00 00 00    	add    $0x82,%rax
   14146:	48 89 85 40 ff ff ff 	mov    %rax,-0xc0(%rbp)
   1414d:	48 8d 05 44 10 01 00 	lea    0x11044(%rip),%rax        # 25198 <g_77>
   14154:	48 89 85 48 ff ff ff 	mov    %rax,-0xb8(%rbp)
   1415b:	48 c7 85 50 ff ff ff 	movq   $0x0,-0xb0(%rbp)
   14162:	00 00 00 00 
   14166:	48 8d 05 2b 10 01 00 	lea    0x1102b(%rip),%rax        # 25198 <g_77>
   1416d:	48 89 85 58 ff ff ff 	mov    %rax,-0xa8(%rbp)
   14174:	48 8d 85 b0 f3 ff ff 	lea    -0xc50(%rbp),%rax
   1417b:	48 05 82 00 00 00    	add    $0x82,%rax
   14181:	48 89 85 60 ff ff ff 	mov    %rax,-0xa0(%rbp)
   14188:	48 8d 05 0d 11 01 00 	lea    0x1110d(%rip),%rax        # 2529c <g_1194>
   1418f:	48 89 85 68 ff ff ff 	mov    %rax,-0x98(%rbp)
   14196:	48 8d 05 ff 10 01 00 	lea    0x110ff(%rip),%rax        # 2529c <g_1194>
   1419d:	48 89 85 70 ff ff ff 	mov    %rax,-0x90(%rbp)
   141a4:	48 8d 85 b0 f3 ff ff 	lea    -0xc50(%rbp),%rax
   141ab:	48 05 b5 00 00 00    	add    $0xb5,%rax
   141b1:	48 89 85 78 ff ff ff 	mov    %rax,-0x88(%rbp)
   141b8:	48 8d 05 dd 10 01 00 	lea    0x110dd(%rip),%rax        # 2529c <g_1194>
   141bf:	48 89 45 80          	mov    %rax,-0x80(%rbp)
   141c3:	48 8d 05 ce 0f 01 00 	lea    0x10fce(%rip),%rax        # 25198 <g_77>
   141ca:	48 89 45 88          	mov    %rax,-0x78(%rbp)
   141ce:	48 8d 05 c7 10 01 00 	lea    0x110c7(%rip),%rax        # 2529c <g_1194>
   141d5:	48 89 45 90          	mov    %rax,-0x70(%rbp)
   141d9:	48 8d 05 bc 10 01 00 	lea    0x110bc(%rip),%rax        # 2529c <g_1194>
   141e0:	48 89 45 98          	mov    %rax,-0x68(%rbp)
   141e4:	48 8d 05 ad 0f 01 00 	lea    0x10fad(%rip),%rax        # 25198 <g_77>
   141eb:	48 89 45 a0          	mov    %rax,-0x60(%rbp)
   141ef:	48 8d 05 a2 0f 01 00 	lea    0x10fa2(%rip),%rax        # 25198 <g_77>
   141f6:	48 89 45 a8          	mov    %rax,-0x58(%rbp)
   141fa:	48 8d 85 c0 ef ff ff 	lea    -0x1040(%rbp),%rax
   14201:	48 89 85 28 f0 ff ff 	mov    %rax,-0xfd8(%rbp)
   14208:	48 8d 05 59 10 01 00 	lea    0x11059(%rip),%rax        # 25268 <g_871+0x8>
   1420f:	48 89 85 30 f0 ff ff 	mov    %rax,-0xfd0(%rbp)
   14216:	48 c7 85 90 f2 ff ff 	movq   $0x0,-0xd70(%rbp)
   1421d:	00 00 00 00 
   14221:	48 c7 85 98 f2 ff ff 	movq   $0x0,-0xd68(%rbp)
   14228:	00 00 00 00 
   1422c:	48 c7 85 a0 f2 ff ff 	movq   $0x0,-0xd60(%rbp)
   14233:	00 00 00 00 
   14237:	48 c7 85 a8 f2 ff ff 	movq   $0x0,-0xd58(%rbp)
   1423e:	00 00 00 00 
   14242:	48 c7 85 b0 f2 ff ff 	movq   $0x0,-0xd50(%rbp)
   14249:	00 00 00 00 
   1424d:	48 c7 85 b8 f2 ff ff 	movq   $0x0,-0xd48(%rbp)
   14254:	00 00 00 00 
   14258:	48 c7 85 c0 f2 ff ff 	movq   $0x0,-0xd40(%rbp)
   1425f:	00 00 00 00 
   14263:	48 8b 05 5e 40 01 00 	mov    0x1405e(%rip),%rax        # 282c8 <g_60>
   1426a:	48 8b 95 d8 ee ff ff 	mov    -0x1128(%rbp),%rdx
   14271:	48 89 10             	mov    %rdx,(%rax)
   14274:	8b 9d 30 ef ff ff    	mov    -0x10d0(%rbp),%ebx
   1427a:	66 83 bd d4 ee ff ff 	cmpw   $0x1,-0x112c(%rbp)
   14281:	01 
   14282:	0f 95 c0             	setne  %al
   14285:	44 0f b6 e0          	movzbl %al,%r12d
   14289:	8b 95 34 f2 ff ff    	mov    -0xdcc(%rbp),%edx
   1428f:	48 8b 85 18 f5 ff ff 	mov    -0xae8(%rbp),%rax
   14296:	48 85 c0             	test   %rax,%rax
   14299:	0f 95 c0             	setne  %al
   1429c:	0f b6 c0             	movzbl %al,%eax
   1429f:	09 d0                	or     %edx,%eax
   142a1:	89 85 34 f2 ff ff    	mov    %eax,-0xdcc(%rbp)
   142a7:	66 83 bd ea ee ff ff 	cmpw   $0x32,-0x1116(%rbp)
   142ae:	32 
   142af:	0f 95 c0             	setne  %al
   142b2:	0f b6 d0             	movzbl %al,%edx
   142b5:	0f bf 85 d4 ee ff ff 	movswl -0x112c(%rbp),%eax
   142bc:	39 c2                	cmp    %eax,%edx
   142be:	0f 95 c0             	setne  %al
   142c1:	0f b6 d0             	movzbl %al,%edx
   142c4:	48 8b 05 1d 48 01 00 	mov    0x1481d(%rip),%rax        # 28ae8 <g_429>
   142cb:	48 8b 08             	mov    (%rax),%rcx
   142ce:	48 63 d2             	movslq %edx,%rdx
   142d1:	48 8b 05 10 48 01 00 	mov    0x14810(%rip),%rax        # 28ae8 <g_429>
   142d8:	48 21 ca             	and    %rcx,%rdx
   142db:	48 89 10             	mov    %rdx,(%rax)
   142de:	48 8b 00             	mov    (%rax),%rax
   142e1:	89 85 48 ef ff ff    	mov    %eax,-0x10b8(%rbp)
   142e7:	0f b6 85 32 f4 ff ff 	movzbl -0xbce(%rbp),%eax
   142ee:	0f be c0             	movsbl %al,%eax
   142f1:	39 85 48 ef ff ff    	cmp    %eax,-0x10b8(%rbp)
   142f7:	0f 95 c0             	setne  %al
   142fa:	0f b6 d0             	movzbl %al,%edx
   142fd:	8b 05 f9 0f 01 00    	mov    0x10ff9(%rip),%eax        # 252fc <g_2132>
   14303:	39 c2                	cmp    %eax,%edx
   14305:	48 8b 05 84 52 01 00 	mov    0x15284(%rip),%rax        # 29590 <g_1556>
   1430c:	0f b7 85 d4 ee ff ff 	movzwl -0x112c(%rbp),%eax
   14313:	0f be c0             	movsbl %al,%eax
   14316:	be 01 00 00 00       	mov    $0x1,%esi
   1431b:	89 c7                	mov    %eax,%edi
   1431d:	e8 cc 8f ff ff       	callq  d2ee <safe_lshift_func_int8_t_s_u>
   14322:	48 8b 05 d7 39 01 00 	mov    0x139d7(%rip),%rax        # 27d00 <g_16>
   14329:	c7 00 01 00 00 00    	movl   $0x1,(%rax)
   1432f:	8b 00                	mov    (%rax),%eax
   14331:	41 39 c4             	cmp    %eax,%r12d
   14334:	0f 94 c2             	sete   %dl
   14337:	48 8b 05 52 52 01 00 	mov    0x15252(%rip),%rax        # 29590 <g_1556>
   1433e:	48 8b 00             	mov    (%rax),%rax
   14341:	88 10                	mov    %dl,(%rax)
   14343:	0f b6 00             	movzbl (%rax),%eax
   14346:	0f be c0             	movsbl %al,%eax
   14349:	be 64 00 00 00       	mov    $0x64,%esi
   1434e:	89 c7                	mov    %eax,%edi
   14350:	e8 9d 8e ff ff       	callq  d1f2 <safe_sub_func_int8_t_s_s>
   14355:	be 52 9f 63 79       	mov    $0x79639f52,%esi
   1435a:	bf 01 00 00 00       	mov    $0x1,%edi
   1435f:	e8 c1 9b ff ff       	callq  df25 <safe_div_func_uint32_t_u_u>
   14364:	89 de                	mov    %ebx,%esi
   14366:	89 c7                	mov    %eax,%edi
   14368:	e8 b8 9b ff ff       	callq  df25 <safe_div_func_uint32_t_u_u>
   1436d:	89 85 1c f2 ff ff    	mov    %eax,-0xde4(%rbp)
   14373:	0f bf 95 d4 ee ff ff 	movswl -0x112c(%rbp),%edx
   1437a:	48 8d 85 c0 ef ff ff 	lea    -0x1040(%rbp),%rax
   14381:	48 39 85 28 f0 ff ff 	cmp    %rax,-0xfd8(%rbp)
   14388:	0f 95 c0             	setne  %al
   1438b:	0f b6 c0             	movzbl %al,%eax
   1438e:	21 d0                	and    %edx,%eax
   14390:	48 63 d0             	movslq %eax,%rdx
   14393:	48 8b 85 c8 ef ff ff 	mov    -0x1038(%rbp),%rax
   1439a:	48 21 c2             	and    %rax,%rdx
   1439d:	48 8b 85 30 f0 ff ff 	mov    -0xfd0(%rbp),%rax
   143a4:	8b 00                	mov    (%rax),%eax
   143a6:	89 c1                	mov    %eax,%ecx
   143a8:	89 d0                	mov    %edx,%eax
   143aa:	31 c8                	xor    %ecx,%eax
   143ac:	89 c2                	mov    %eax,%edx
   143ae:	48 8b 85 30 f0 ff ff 	mov    -0xfd0(%rbp),%rax
   143b5:	89 10                	mov    %edx,(%rax)
   143b7:	48 8b 85 30 f0 ff ff 	mov    -0xfd0(%rbp),%rax
   143be:	8b 00                	mov    (%rax),%eax
   143c0:	89 85 f8 ee ff ff    	mov    %eax,-0x1108(%rbp)
   143c6:	8b 85 f8 ee ff ff    	mov    -0x1108(%rbp),%eax
   143cc:	09 85 34 ef ff ff    	or     %eax,-0x10cc(%rbp)
   143d2:	8b 85 34 ef ff ff    	mov    -0x10cc(%rbp),%eax
   143d8:	66 33 85 ec ee ff ff 	xor    -0x1114(%rbp),%ax
   143df:	0f b7 c0             	movzwl %ax,%eax
   143e2:	be 01 00 00 00       	mov    $0x1,%esi
   143e7:	89 c7                	mov    %eax,%edi
   143e9:	e8 a0 99 ff ff       	callq  dd8e <safe_div_func_uint16_t_u_u>
   143ee:	0f be c0             	movsbl %al,%eax
   143f1:	be f7 ff ff ff       	mov    $0xfffffff7,%esi
   143f6:	89 c7                	mov    %eax,%edi
   143f8:	e8 f5 8d ff ff       	callq  d1f2 <safe_sub_func_int8_t_s_s>
   143fd:	84 c0                	test   %al,%al
   143ff:	0f 84 9e 05 00 00    	je     149a3 <func_13+0x462e>
   14405:	c7 85 50 ef ff ff ff 	movl   $0xffffffff,-0x10b0(%rbp)
   1440c:	ff ff ff 
   1440f:	c7 85 54 ef ff ff 05 	movl   $0x5,-0x10ac(%rbp)
   14416:	00 00 00 
   14419:	48 c7 85 38 f0 ff ff 	movq   $0x0,-0xfc8(%rbp)
   14420:	00 00 00 00 
   14424:	66 c7 05 7b 0d 01 00 	movw   $0x0,0x10d7b(%rip)        # 251a8 <g_126>
   1442b:	00 00 
   1442d:	e9 10 05 00 00       	jmpq   14942 <func_13+0x45cd>
   14432:	48 8d 85 50 f1 ff ff 	lea    -0xeb0(%rbp),%rax
   14439:	48 89 85 90 f5 ff ff 	mov    %rax,-0xa70(%rbp)
   14440:	48 8d 85 c8 ef ff ff 	lea    -0x1038(%rbp),%rax
   14447:	48 89 85 98 f5 ff ff 	mov    %rax,-0xa68(%rbp)
   1444e:	48 8d 85 50 f1 ff ff 	lea    -0xeb0(%rbp),%rax
   14455:	48 89 85 a0 f5 ff ff 	mov    %rax,-0xa60(%rbp)
   1445c:	48 8d 85 50 f1 ff ff 	lea    -0xeb0(%rbp),%rax
   14463:	48 89 85 a8 f5 ff ff 	mov    %rax,-0xa58(%rbp)
   1446a:	48 8d 85 c8 ef ff ff 	lea    -0x1038(%rbp),%rax
   14471:	48 89 85 b0 f5 ff ff 	mov    %rax,-0xa50(%rbp)
   14478:	48 8d 85 50 f1 ff ff 	lea    -0xeb0(%rbp),%rax
   1447f:	48 89 85 b8 f5 ff ff 	mov    %rax,-0xa48(%rbp)
   14486:	48 8d 85 50 f1 ff ff 	lea    -0xeb0(%rbp),%rax
   1448d:	48 89 85 c0 f5 ff ff 	mov    %rax,-0xa40(%rbp)
   14494:	48 8d 85 c8 ef ff ff 	lea    -0x1038(%rbp),%rax
   1449b:	48 89 85 c8 f5 ff ff 	mov    %rax,-0xa38(%rbp)
   144a2:	48 8d 85 c8 ef ff ff 	lea    -0x1038(%rbp),%rax
   144a9:	48 89 85 d0 f5 ff ff 	mov    %rax,-0xa30(%rbp)
   144b0:	48 8d 85 50 f1 ff ff 	lea    -0xeb0(%rbp),%rax
   144b7:	48 89 85 d8 f5 ff ff 	mov    %rax,-0xa28(%rbp)
   144be:	48 8d 85 50 f1 ff ff 	lea    -0xeb0(%rbp),%rax
   144c5:	48 89 85 e0 f5 ff ff 	mov    %rax,-0xa20(%rbp)
   144cc:	48 8d 85 c8 ef ff ff 	lea    -0x1038(%rbp),%rax
   144d3:	48 89 85 e8 f5 ff ff 	mov    %rax,-0xa18(%rbp)
   144da:	48 8d 85 50 f1 ff ff 	lea    -0xeb0(%rbp),%rax
   144e1:	48 89 85 f0 f5 ff ff 	mov    %rax,-0xa10(%rbp)
   144e8:	48 8d 85 50 f1 ff ff 	lea    -0xeb0(%rbp),%rax
   144ef:	48 89 85 f8 f5 ff ff 	mov    %rax,-0xa08(%rbp)
   144f6:	48 8d 85 c8 ef ff ff 	lea    -0x1038(%rbp),%rax
   144fd:	48 89 85 00 f6 ff ff 	mov    %rax,-0xa00(%rbp)
   14504:	48 8d 85 50 f1 ff ff 	lea    -0xeb0(%rbp),%rax
   1450b:	48 89 85 08 f6 ff ff 	mov    %rax,-0x9f8(%rbp)
   14512:	48 8d 85 c8 ef ff ff 	lea    -0x1038(%rbp),%rax
   14519:	48 89 85 10 f6 ff ff 	mov    %rax,-0x9f0(%rbp)
   14520:	48 8d 85 c8 ef ff ff 	lea    -0x1038(%rbp),%rax
   14527:	48 89 85 18 f6 ff ff 	mov    %rax,-0x9e8(%rbp)
   1452e:	48 8d 05 eb 0c 01 00 	lea    0x10ceb(%rip),%rax        # 25220 <g_265>
   14535:	48 89 85 20 f6 ff ff 	mov    %rax,-0x9e0(%rbp)
   1453c:	48 8d 85 c8 ef ff ff 	lea    -0x1038(%rbp),%rax
   14543:	48 89 85 28 f6 ff ff 	mov    %rax,-0x9d8(%rbp)
   1454a:	48 8d 85 c8 ef ff ff 	lea    -0x1038(%rbp),%rax
   14551:	48 89 85 30 f6 ff ff 	mov    %rax,-0x9d0(%rbp)
   14558:	48 8d 05 c1 0c 01 00 	lea    0x10cc1(%rip),%rax        # 25220 <g_265>
   1455f:	48 89 85 38 f6 ff ff 	mov    %rax,-0x9c8(%rbp)
   14566:	48 8d 85 c8 ef ff ff 	lea    -0x1038(%rbp),%rax
   1456d:	48 89 85 40 f6 ff ff 	mov    %rax,-0x9c0(%rbp)
   14574:	48 8d 85 c8 ef ff ff 	lea    -0x1038(%rbp),%rax
   1457b:	48 89 85 48 f6 ff ff 	mov    %rax,-0x9b8(%rbp)
   14582:	48 8d 85 50 f1 ff ff 	lea    -0xeb0(%rbp),%rax
   14589:	48 89 85 50 f6 ff ff 	mov    %rax,-0x9b0(%rbp)
   14590:	48 8d 85 c8 ef ff ff 	lea    -0x1038(%rbp),%rax
   14597:	48 89 85 58 f6 ff ff 	mov    %rax,-0x9a8(%rbp)
   1459e:	48 8d 85 50 f1 ff ff 	lea    -0xeb0(%rbp),%rax
   145a5:	48 89 85 60 f6 ff ff 	mov    %rax,-0x9a0(%rbp)
   145ac:	48 8d 85 50 f1 ff ff 	lea    -0xeb0(%rbp),%rax
   145b3:	48 89 85 68 f6 ff ff 	mov    %rax,-0x998(%rbp)
   145ba:	48 8d 85 c8 ef ff ff 	lea    -0x1038(%rbp),%rax
   145c1:	48 89 85 70 f6 ff ff 	mov    %rax,-0x990(%rbp)
   145c8:	48 8d 85 50 f1 ff ff 	lea    -0xeb0(%rbp),%rax
   145cf:	48 89 85 78 f6 ff ff 	mov    %rax,-0x988(%rbp)
   145d6:	48 8d 85 50 f1 ff ff 	lea    -0xeb0(%rbp),%rax
   145dd:	48 89 85 80 f6 ff ff 	mov    %rax,-0x980(%rbp)
   145e4:	48 8d 85 c8 ef ff ff 	lea    -0x1038(%rbp),%rax
   145eb:	48 89 85 88 f6 ff ff 	mov    %rax,-0x978(%rbp)
   145f2:	66 c7 85 ee ee ff ff 	movw   $0x9,-0x1112(%rbp)
   145f9:	09 00 
   145fb:	c7 85 58 ef ff ff f7 	movl   $0xfffffff7,-0x10a8(%rbp)
   14602:	ff ff ff 
   14605:	8b 85 34 f2 ff ff    	mov    -0xdcc(%rbp),%eax
   1460b:	41 89 c7             	mov    %eax,%r15d
   1460e:	0f b7 85 d4 ee ff ff 	movzwl -0x112c(%rbp),%eax
   14615:	0f b6 d8             	movzbl %al,%ebx
   14618:	44 8b a5 54 ef ff ff 	mov    -0x10ac(%rbp),%r12d
   1461f:	44 8b ad 50 ef ff ff 	mov    -0x10b0(%rbp),%r13d
   14626:	48 8b 05 5b 0b 01 00 	mov    0x10b5b(%rip),%rax        # 25188 <g_63>
   1462d:	48 8d 50 ff          	lea    -0x1(%rax),%rdx
   14631:	48 89 15 50 0b 01 00 	mov    %rdx,0x10b50(%rip)        # 25188 <g_63>
   14638:	48 85 c0             	test   %rax,%rax
   1463b:	0f 85 92 00 00 00    	jne    146d3 <func_13+0x435e>
   14641:	0f b7 85 d4 ee ff ff 	movzwl -0x112c(%rbp),%eax
   14648:	44 0f b6 f0          	movzbl %al,%r14d
   1464c:	48 c7 85 c8 ee ff ff 	movq   $0x1,-0x1138(%rbp)
   14653:	01 00 00 00 
   14657:	48 8b 85 98 ef ff ff 	mov    -0x1068(%rbp),%rax
   1465e:	48 8b 00             	mov    (%rax),%rax
   14661:	48 8b 00             	mov    (%rax),%rax
   14664:	8b 10                	mov    (%rax),%edx
   14666:	0f b7 85 ec ee ff ff 	movzwl -0x1114(%rbp),%eax
   1466d:	0f b6 c0             	movzbl %al,%eax
   14670:	89 d6                	mov    %edx,%esi
   14672:	89 c7                	mov    %eax,%edi
   14674:	e8 8c 95 ff ff       	callq  dc05 <safe_lshift_func_uint8_t_u_s>
   14679:	0f b6 c0             	movzbl %al,%eax
   1467c:	66 21 85 ee ee ff ff 	and    %ax,-0x1112(%rbp)
   14683:	be 01 00 00 00       	mov    $0x1,%esi
   14688:	bf 06 00 00 00       	mov    $0x6,%edi
   1468d:	e8 b6 97 ff ff       	callq  de48 <safe_rshift_func_uint16_t_u_s>
   14692:	0f b7 c0             	movzwl %ax,%eax
   14695:	48 8b b5 c8 ee ff ff 	mov    -0x1138(%rbp),%rsi
   1469c:	48 89 c7             	mov    %rax,%rdi
   1469f:	e8 10 93 ff ff       	callq  d9b4 <safe_mod_func_int64_t_s_s>
   146a4:	89 c2                	mov    %eax,%edx
   146a6:	48 8b 05 73 47 01 00 	mov    0x14773(%rip),%rax        # 28e20 <g_859>
   146ad:	8b 00                	mov    (%rax),%eax
   146af:	31 d0                	xor    %edx,%eax
   146b1:	0f b7 d0             	movzwl %ax,%edx
   146b4:	8b 85 34 ef ff ff    	mov    -0x10cc(%rbp),%eax
   146ba:	0f b7 c0             	movzwl %ax,%eax
   146bd:	89 d6                	mov    %edx,%esi
   146bf:	89 c7                	mov    %eax,%edi
   146c1:	e8 59 96 ff ff       	callq  dd1f <safe_sub_func_uint16_t_u_u>
   146c6:	0f b6 c0             	movzbl %al,%eax
   146c9:	44 89 f6             	mov    %r14d,%esi
   146cc:	89 c7                	mov    %eax,%edi
   146ce:	e8 c0 94 ff ff       	callq  db93 <safe_mul_func_uint8_t_u_u>
   146d3:	b8 01 00 00 00       	mov    $0x1,%eax
   146d8:	48 98                	cltq   
   146da:	48 be 4e 89 11 dd 21 	movabs $0x1b7b4221dd11894e,%rsi
   146e1:	42 7b 1b 
   146e4:	48 89 c7             	mov    %rax,%rdi
   146e7:	e8 bc 91 ff ff       	callq  d8a8 <safe_sub_func_int64_t_s_s>
   146ec:	be 0d 00 00 00       	mov    $0xd,%esi
   146f1:	bf 00 00 00 00       	mov    $0x0,%edi
   146f6:	e8 7f 97 ff ff       	callq  de7a <safe_rshift_func_uint16_t_u_u>
   146fb:	0f b7 c0             	movzwl %ax,%eax
   146fe:	4c 89 ee             	mov    %r13,%rsi
   14701:	48 89 c7             	mov    %rax,%rdi
   14704:	e8 77 99 ff ff       	callq  e080 <safe_mod_func_uint64_t_u_u>
   14709:	44 89 e6             	mov    %r12d,%esi
   1470c:	89 c7                	mov    %eax,%edi
   1470e:	e8 bd 97 ff ff       	callq  ded0 <safe_sub_func_uint32_t_u_u>
   14713:	0f bf 95 d4 ee ff ff 	movswl -0x112c(%rbp),%edx
   1471a:	39 d0                	cmp    %edx,%eax
   1471c:	0f 93 c0             	setae  %al
   1471f:	0f b6 c0             	movzbl %al,%eax
   14722:	8b 95 58 ef ff ff    	mov    -0x10a8(%rbp),%edx
   14728:	89 d6                	mov    %edx,%esi
   1472a:	89 c7                	mov    %eax,%edi
   1472c:	e8 17 97 ff ff       	callq  de48 <safe_rshift_func_uint16_t_u_s>
   14731:	0f b6 c0             	movzbl %al,%eax
   14734:	89 de                	mov    %ebx,%esi
   14736:	89 c7                	mov    %eax,%edi
   14738:	e8 1d 94 ff ff       	callq  db5a <safe_add_func_uint8_t_u_u>
   1473d:	48 8b 85 a0 f2 ff ff 	mov    -0xd60(%rbp),%rax
   14744:	48 39 85 30 f0 ff ff 	cmp    %rax,-0xfd0(%rbp)
   1474b:	75 07                	jne    14754 <func_13+0x43df>
   1474d:	ba 01 00 00 00       	mov    $0x1,%edx
   14752:	eb 05                	jmp    14759 <func_13+0x43e4>
   14754:	ba 00 00 00 00       	mov    $0x0,%edx
   14759:	48 8b 85 98 ef ff ff 	mov    -0x1068(%rbp),%rax
   14760:	48 85 c0             	test   %rax,%rax
   14763:	0f 95 c0             	setne  %al
   14766:	0f b6 c0             	movzbl %al,%eax
   14769:	48 89 d6             	mov    %rdx,%rsi
   1476c:	48 89 c7             	mov    %rax,%rdi
   1476f:	e8 34 91 ff ff       	callq  d8a8 <safe_sub_func_int64_t_s_s>
   14774:	48 8b 95 18 f0 ff ff 	mov    -0xfe8(%rbp),%rdx
   1477b:	0f b7 12             	movzwl (%rdx),%edx
   1477e:	09 c2                	or     %eax,%edx
   14780:	48 8b 85 18 f0 ff ff 	mov    -0xfe8(%rbp),%rax
   14787:	66 89 10             	mov    %dx,(%rax)
   1478a:	48 8b 85 18 f0 ff ff 	mov    -0xfe8(%rbp),%rax
   14791:	0f b7 00             	movzwl (%rax),%eax
   14794:	98                   	cwtl   
   14795:	44 89 fe             	mov    %r15d,%esi
   14798:	89 c7                	mov    %eax,%edi
   1479a:	e8 c4 8d ff ff       	callq  d563 <safe_rshift_func_int16_t_s_u>
   1479f:	0f be c0             	movsbl %al,%eax
   147a2:	be ea ff ff ff       	mov    $0xffffffea,%esi
   147a7:	89 c7                	mov    %eax,%edi
   147a9:	e8 44 8a ff ff       	callq  d1f2 <safe_sub_func_int8_t_s_s>
   147ae:	0f be c0             	movsbl %al,%eax
   147b1:	89 85 48 ef ff ff    	mov    %eax,-0x10b8(%rbp)
   147b7:	0f b7 85 d4 ee ff ff 	movzwl -0x112c(%rbp),%eax
   147be:	0f b7 c0             	movzwl %ax,%eax
   147c1:	48 8b 15 18 48 01 00 	mov    0x14818(%rip),%rdx        # 28fe0 <g_1078>
   147c8:	0f b7 12             	movzwl (%rdx),%edx
   147cb:	66 c1 ea 0f          	shr    $0xf,%dx
   147cf:	89 d1                	mov    %edx,%ecx
   147d1:	48 8b 95 08 f0 ff ff 	mov    -0xff8(%rbp),%rdx
   147d8:	88 0a                	mov    %cl,(%rdx)
   147da:	48 8b 95 08 f0 ff ff 	mov    -0xff8(%rbp),%rdx
   147e1:	0f b6 12             	movzbl (%rdx),%edx
   147e4:	0f b6 d2             	movzbl %dl,%edx
   147e7:	89 95 34 ef ff ff    	mov    %edx,-0x10cc(%rbp)
   147ed:	0f bf 95 d4 ee ff ff 	movswl -0x112c(%rbp),%edx
   147f4:	39 95 34 ef ff ff    	cmp    %edx,-0x10cc(%rbp)
   147fa:	89 c6                	mov    %eax,%esi
   147fc:	bf 01 00 00 00       	mov    $0x1,%edi
   14801:	e8 f9 94 ff ff       	callq  dcff <safe_add_func_uint16_t_u_u>
   14806:	48 8b 05 db 42 01 00 	mov    0x142db(%rip),%rax        # 28ae8 <g_429>
   1480d:	48 c7 00 01 00 00 00 	movq   $0x1,(%rax)
   14814:	48 8b 05 dd 47 01 00 	mov    0x147dd(%rip),%rax        # 28ff8 <g_1205>
   1481b:	48 8b 00             	mov    (%rax),%rax
   1481e:	48 85 c0             	test   %rax,%rax
   14821:	74 07                	je     1482a <func_13+0x44b5>
   14823:	b8 01 00 00 00       	mov    $0x1,%eax
   14828:	eb 05                	jmp    1482f <func_13+0x44ba>
   1482a:	b8 00 00 00 00       	mov    $0x0,%eax
   1482f:	0f b6 d0             	movzbl %al,%edx
   14832:	66 83 bd d4 ee ff ff 	cmpw   $0x0,-0x112c(%rbp)
   14839:	00 
   1483a:	74 11                	je     1484d <func_13+0x44d8>
   1483c:	c7 85 48 ef ff ff 07 	movl   $0x7,-0x10b8(%rbp)
   14843:	00 00 00 
   14846:	b8 01 00 00 00       	mov    $0x1,%eax
   1484b:	eb 05                	jmp    14852 <func_13+0x44dd>
   1484d:	b8 00 00 00 00       	mov    $0x0,%eax
   14852:	0f b6 c0             	movzbl %al,%eax
   14855:	89 d6                	mov    %edx,%esi
   14857:	89 c7                	mov    %eax,%edi
   14859:	e8 50 93 ff ff       	callq  dbae <safe_mod_func_uint8_t_u_u>
   1485e:	0f b6 d0             	movzbl %al,%edx
   14861:	0f bf 85 ea ee ff ff 	movswl -0x1116(%rbp),%eax
   14868:	39 c2                	cmp    %eax,%edx
   1486a:	0f 94 c0             	sete   %al
   1486d:	0f b6 d0             	movzbl %al,%edx
   14870:	48 8b 85 98 ef ff ff 	mov    -0x1068(%rbp),%rax
   14877:	48 8b 00             	mov    (%rax),%rax
   1487a:	48 8b 00             	mov    (%rax),%rax
   1487d:	8b 00                	mov    (%rax),%eax
   1487f:	39 c2                	cmp    %eax,%edx
   14881:	0f 9e c0             	setle  %al
   14884:	0f b6 d0             	movzbl %al,%edx
   14887:	0f bf 85 d4 ee ff ff 	movswl -0x112c(%rbp),%eax
   1488e:	39 c2                	cmp    %eax,%edx
   14890:	0f 9f c2             	setg   %dl
   14893:	48 8b 05 b6 49 01 00 	mov    0x149b6(%rip),%rax        # 29250 <g_1349>
   1489a:	48 8b 00             	mov    (%rax),%rax
   1489d:	48 8b 00             	mov    (%rax),%rax
   148a0:	0f b6 d2             	movzbl %dl,%edx
   148a3:	89 10                	mov    %edx,(%rax)
   148a5:	48 83 bd 38 f0 ff ff 	cmpq   $0x0,-0xfc8(%rbp)
   148ac:	00 
   148ad:	48 8b 05 5c 42 01 00 	mov    0x1425c(%rip),%rax        # 28b10 <g_483>
   148b4:	48 8b 00             	mov    (%rax),%rax
   148b7:	48 85 c0             	test   %rax,%rax
   148ba:	0f b7 05 f7 09 01 00 	movzwl 0x109f7(%rip),%eax        # 252b8 <g_1624>
   148c1:	0f b7 d0             	movzwl %ax,%edx
   148c4:	48 8b 85 30 f0 ff ff 	mov    -0xfd0(%rbp),%rax
   148cb:	8b 00                	mov    (%rax),%eax
   148cd:	3d f6 ff 00 00       	cmp    $0xfff6,%eax
   148d2:	0f 95 c0             	setne  %al
   148d5:	0f b6 c8             	movzbl %al,%ecx
   148d8:	0f bf 85 d4 ee ff ff 	movswl -0x112c(%rbp),%eax
   148df:	21 c8                	and    %ecx,%eax
   148e1:	39 c2                	cmp    %eax,%edx
   148e3:	74 0b                	je     148f0 <func_13+0x457b>
   148e5:	0f b6 05 9c 09 01 00 	movzbl 0x1099c(%rip),%eax        # 25288 <g_1009>
   148ec:	84 c0                	test   %al,%al
   148ee:	74 07                	je     148f7 <func_13+0x4582>
   148f0:	ba 01 00 00 00       	mov    $0x1,%edx
   148f5:	eb 05                	jmp    148fc <func_13+0x4587>
   148f7:	ba 00 00 00 00       	mov    $0x0,%edx
   148fc:	48 8b 85 d8 ee ff ff 	mov    -0x1128(%rbp),%rax
   14903:	8b 00                	mov    (%rax),%eax
   14905:	39 c2                	cmp    %eax,%edx
   14907:	0f 94 c0             	sete   %al
   1490a:	0f b6 d0             	movzbl %al,%edx
   1490d:	0f b7 85 d4 ee ff ff 	movzwl -0x112c(%rbp),%eax
   14914:	0f be c0             	movsbl %al,%eax
   14917:	89 d6                	mov    %edx,%esi
   14919:	89 c7                	mov    %eax,%edi
   1491b:	e8 f2 88 ff ff       	callq  d212 <safe_mul_func_int8_t_s_s>
   14920:	8b 95 20 f2 ff ff    	mov    -0xde0(%rbp),%edx
   14926:	0f be c0             	movsbl %al,%eax
   14929:	09 d0                	or     %edx,%eax
   1492b:	89 85 20 f2 ff ff    	mov    %eax,-0xde0(%rbp)
   14931:	0f b7 05 70 08 01 00 	movzwl 0x10870(%rip),%eax        # 251a8 <g_126>
   14938:	83 c0 01             	add    $0x1,%eax
   1493b:	66 89 05 66 08 01 00 	mov    %ax,0x10866(%rip)        # 251a8 <g_126>
   14942:	0f b7 05 5f 08 01 00 	movzwl 0x1085f(%rip),%eax        # 251a8 <g_126>
   14949:	66 83 f8 01          	cmp    $0x1,%ax
   1494d:	0f 86 df fa ff ff    	jbe    14432 <func_13+0x40bd>
   14953:	66 c7 85 d4 ee ff ff 	movw   $0x0,-0x112c(%rbp)
   1495a:	00 00 
   1495c:	eb 36                	jmp    14994 <func_13+0x461f>
   1495e:	48 8b 85 98 ef ff ff 	mov    -0x1068(%rbp),%rax
   14965:	48 8b 00             	mov    (%rax),%rax
   14968:	48 8b 95 d8 ee ff ff 	mov    -0x1128(%rbp),%rdx
   1496f:	48 89 10             	mov    %rdx,(%rax)
   14972:	48 8b 85 d8 ee ff ff 	mov    -0x1128(%rbp),%rax
   14979:	8b 00                	mov    (%rax),%eax
   1497b:	85 c0                	test   %eax,%eax
   1497d:	0f 85 25 01 00 00    	jne    14aa8 <func_13+0x4733>
   14983:	0f b7 85 d4 ee ff ff 	movzwl -0x112c(%rbp),%eax
   1498a:	83 c0 01             	add    $0x1,%eax
   1498d:	66 89 85 d4 ee ff ff 	mov    %ax,-0x112c(%rbp)
   14994:	66 83 bd d4 ee ff ff 	cmpw   $0x4,-0x112c(%rbp)
   1499b:	04 
   1499c:	7e c0                	jle    1495e <func_13+0x45e9>
   1499e:	e9 06 01 00 00       	jmpq   14aa9 <func_13+0x4734>
   149a3:	66 c7 85 e8 ee ff ff 	movw   $0xfff7,-0x1118(%rbp)
   149aa:	f7 ff 
   149ac:	c7 85 4c ef ff ff c9 	movl   $0x4cb2e0c9,-0x10b4(%rbp)
   149b3:	e0 b2 4c 
   149b6:	c7 85 34 ef ff ff 00 	movl   $0x0,-0x10cc(%rbp)
   149bd:	00 00 00 
   149c0:	eb 76                	jmp    14a38 <func_13+0x46c3>
   149c2:	48 b8 44 fb fb 44 fb 	movabs $0xfb44fbfb44fbfb44,%rax
   149c9:	fb 44 fb 
   149cc:	48 89 45 bf          	mov    %rax,-0x41(%rbp)
   149d0:	c6 45 c7 fb          	movb   $0xfb,-0x39(%rbp)
   149d4:	8b 05 26 09 01 00    	mov    0x10926(%rip),%eax        # 25300 <g_2185>
   149da:	83 e8 01             	sub    $0x1,%eax
   149dd:	89 05 1d 09 01 00    	mov    %eax,0x1091d(%rip)        # 25300 <g_2185>
   149e3:	0f b7 85 e8 ee ff ff 	movzwl -0x1118(%rbp),%eax
   149ea:	83 e8 01             	sub    $0x1,%eax
   149ed:	66 89 85 e8 ee ff ff 	mov    %ax,-0x1118(%rbp)
   149f4:	48 83 bd 20 f0 ff ff 	cmpq   $0x0,-0xfe0(%rbp)
   149fb:	00 
   149fc:	0f 95 c0             	setne  %al
   149ff:	0f b6 c0             	movzbl %al,%eax
   14a02:	89 c6                	mov    %eax,%esi
   14a04:	bf b4 ff ff ff       	mov    $0xffffffb4,%edi
   14a09:	e8 04 88 ff ff       	callq  d212 <safe_mul_func_int8_t_s_s>
   14a0e:	48 8b 95 98 ef ff ff 	mov    -0x1068(%rbp),%rdx
   14a15:	48 8b 12             	mov    (%rdx),%rdx
   14a18:	48 8b 12             	mov    (%rdx),%rdx
   14a1b:	8b 0a                	mov    (%rdx),%ecx
   14a1d:	0f be d0             	movsbl %al,%edx
   14a20:	48 8b 85 98 ef ff ff 	mov    -0x1068(%rbp),%rax
   14a27:	48 8b 00             	mov    (%rax),%rax
   14a2a:	48 8b 00             	mov    (%rax),%rax
   14a2d:	21 ca                	and    %ecx,%edx
   14a2f:	89 10                	mov    %edx,(%rax)
   14a31:	83 ad 34 ef ff ff 01 	subl   $0x1,-0x10cc(%rbp)
   14a38:	83 bd 34 ef ff ff e7 	cmpl   $0xffffffe7,-0x10cc(%rbp)
   14a3f:	75 81                	jne    149c2 <func_13+0x464d>
   14a41:	66 c7 05 ca 07 01 00 	movw   $0x0,0x107ca(%rip)        # 25214 <g_188>
   14a48:	00 00 
   14a4a:	eb 19                	jmp    14a65 <func_13+0x46f0>
   14a4c:	48 83 85 d8 ef ff ff 	addq   $0x1,-0x1028(%rbp)
   14a53:	01 
   14a54:	0f b7 05 b9 07 01 00 	movzwl 0x107b9(%rip),%eax        # 25214 <g_188>
   14a5b:	83 c0 01             	add    $0x1,%eax
   14a5e:	66 89 05 af 07 01 00 	mov    %ax,0x107af(%rip)        # 25214 <g_188>
   14a65:	0f b7 05 a8 07 01 00 	movzwl 0x107a8(%rip),%eax        # 25214 <g_188>
   14a6c:	66 83 f8 02          	cmp    $0x2,%ax
   14a70:	7e da                	jle    14a4c <func_13+0x46d7>
   14a72:	48 8b 85 98 ef ff ff 	mov    -0x1068(%rbp),%rax
   14a79:	48 8b 00             	mov    (%rax),%rax
   14a7c:	48 8b 00             	mov    (%rax),%rax
   14a7f:	48 8b 95 d8 ee ff ff 	mov    -0x1128(%rbp),%rdx
   14a86:	8b 12                	mov    (%rdx),%edx
   14a88:	89 10                	mov    %edx,(%rax)
   14a8a:	eb 1d                	jmp    14aa9 <func_13+0x4734>
   14a8c:	48 8b 05 35 38 01 00 	mov    0x13835(%rip),%rax        # 282c8 <g_60>
   14a93:	48 8b 00             	mov    (%rax),%rax
   14a96:	8b 95 44 ef ff ff    	mov    -0x10bc(%rbp),%edx
   14a9c:	89 10                	mov    %edx,(%rax)
   14a9e:	8b 00                	mov    (%rax),%eax
   14aa0:	89 85 30 ef ff ff    	mov    %eax,-0x10d0(%rbp)
   14aa6:	eb 01                	jmp    14aa9 <func_13+0x4734>
   14aa8:	90                   	nop
   14aa9:	48 8b 85 98 ef ff ff 	mov    -0x1068(%rbp),%rax
   14ab0:	48 8b 00             	mov    (%rax),%rax
   14ab3:	48 8b 00             	mov    (%rax),%rax
   14ab6:	8b 10                	mov    (%rax),%edx
   14ab8:	48 8b 85 d8 ee ff ff 	mov    -0x1128(%rbp),%rax
   14abf:	89 10                	mov    %edx,(%rax)
   14ac1:	8b 85 44 ef ff ff    	mov    -0x10bc(%rbp),%eax
   14ac7:	48 63 c8             	movslq %eax,%rcx
   14aca:	0f b7 85 d4 ee ff ff 	movzwl -0x112c(%rbp),%eax
   14ad1:	0f b7 c0             	movzwl %ax,%eax
   14ad4:	48 8b 1d ed 37 01 00 	mov    0x137ed(%rip),%rbx        # 282c8 <g_60>
   14adb:	48 8b 95 10 f0 ff ff 	mov    -0xff0(%rbp),%rdx
   14ae2:	48 89 ce             	mov    %rcx,%rsi
   14ae5:	89 c7                	mov    %eax,%edi
   14ae7:	e8 bc ad 00 00       	callq  1f8a8 <func_38>
   14aec:	48 89 03             	mov    %rax,(%rbx)
   14aef:	0f b6 05 a6 07 01 00 	movzbl 0x107a6(%rip),%eax        # 2529c <g_1194>
   14af6:	84 c0                	test   %al,%al
   14af8:	74 05                	je     14aff <func_13+0x478a>
   14afa:	e9 be e4 ff ff       	jmpq   12fbd <func_13+0x2c48>
   14aff:	48 83 85 00 f0 ff ff 	addq   $0x1,-0x1000(%rbp)
   14b06:	01 
   14b07:	48 8b 85 98 ef ff ff 	mov    -0x1068(%rbp),%rax
   14b0e:	48 8b 00             	mov    (%rax),%rax
   14b11:	48 8b 00             	mov    (%rax),%rax
   14b14:	8b 00                	mov    (%rax),%eax
   14b16:	85 c0                	test   %eax,%eax
   14b18:	0f 84 8a 0d 00 00    	je     158a8 <func_13+0x5533>
   14b1e:	48 8d 85 58 f1 ff ff 	lea    -0xea8(%rbp),%rax
   14b25:	48 89 85 c0 f0 ff ff 	mov    %rax,-0xf40(%rbp)
   14b2c:	48 8d 85 a0 ef ff ff 	lea    -0x1060(%rbp),%rax
   14b33:	48 89 85 c8 f0 ff ff 	mov    %rax,-0xf38(%rbp)
   14b3a:	48 8d 85 20 f3 ff ff 	lea    -0xce0(%rbp),%rax
   14b41:	48 83 c0 60          	add    $0x60,%rax
   14b45:	48 89 85 d0 f0 ff ff 	mov    %rax,-0xf30(%rbp)
   14b4c:	c7 85 68 ef ff ff ff 	movl   $0xffffffff,-0x1098(%rbp)
   14b53:	ff ff ff 
   14b56:	48 8d 85 50 f1 ff ff 	lea    -0xeb0(%rbp),%rax
   14b5d:	48 89 85 d8 f0 ff ff 	mov    %rax,-0xf28(%rbp)
   14b64:	c7 85 6c ef ff ff ff 	movl   $0xffffffff,-0x1094(%rbp)
   14b6b:	ff ff ff 
   14b6e:	48 8d 85 a0 f4 ff ff 	lea    -0xb60(%rbp),%rax
   14b75:	48 83 c0 20          	add    $0x20,%rax
   14b79:	48 89 85 e0 f0 ff ff 	mov    %rax,-0xf20(%rbp)
   14b80:	48 8d 05 e5 06 01 00 	lea    0x106e5(%rip),%rax        # 2526c <g_871+0xc>
   14b87:	48 89 85 d0 f7 ff ff 	mov    %rax,-0x830(%rbp)
   14b8e:	48 8d 05 d7 06 01 00 	lea    0x106d7(%rip),%rax        # 2526c <g_871+0xc>
   14b95:	48 89 85 d8 f7 ff ff 	mov    %rax,-0x828(%rbp)
   14b9c:	48 8d 05 c9 06 01 00 	lea    0x106c9(%rip),%rax        # 2526c <g_871+0xc>
   14ba3:	48 89 85 e0 f7 ff ff 	mov    %rax,-0x820(%rbp)
   14baa:	48 8d 05 bb 06 01 00 	lea    0x106bb(%rip),%rax        # 2526c <g_871+0xc>
   14bb1:	48 89 85 e8 f7 ff ff 	mov    %rax,-0x818(%rbp)
   14bb8:	48 8d 05 ad 06 01 00 	lea    0x106ad(%rip),%rax        # 2526c <g_871+0xc>
   14bbf:	48 89 85 f0 f7 ff ff 	mov    %rax,-0x810(%rbp)
   14bc6:	48 8d 05 9f 06 01 00 	lea    0x1069f(%rip),%rax        # 2526c <g_871+0xc>
   14bcd:	48 89 85 f8 f7 ff ff 	mov    %rax,-0x808(%rbp)
   14bd4:	48 8d 05 91 06 01 00 	lea    0x10691(%rip),%rax        # 2526c <g_871+0xc>
   14bdb:	48 89 85 00 f8 ff ff 	mov    %rax,-0x800(%rbp)
   14be2:	48 8d 05 83 06 01 00 	lea    0x10683(%rip),%rax        # 2526c <g_871+0xc>
   14be9:	48 89 85 08 f8 ff ff 	mov    %rax,-0x7f8(%rbp)
   14bf0:	c7 85 38 ef ff ff 00 	movl   $0x0,-0x10c8(%rbp)
   14bf7:	00 00 00 
   14bfa:	eb 1b                	jmp    14c17 <func_13+0x48a2>
   14bfc:	8b 85 38 ef ff ff    	mov    -0x10c8(%rbp),%eax
   14c02:	48 98                	cltq   
   14c04:	48 c7 84 c5 a0 f4 ff 	movq   $0x0,-0xb60(%rbp,%rax,8)
   14c0b:	ff 00 00 00 00 
   14c10:	83 85 38 ef ff ff 01 	addl   $0x1,-0x10c8(%rbp)
   14c17:	83 bd 38 ef ff ff 04 	cmpl   $0x4,-0x10c8(%rbp)
   14c1e:	7e dc                	jle    14bfc <func_13+0x4887>
   14c20:	48 0f bf 9d d4 ee ff 	movswq -0x112c(%rbp),%rbx
   14c27:	ff 
   14c28:	8b 85 68 ef ff ff    	mov    -0x1098(%rbp),%eax
   14c2e:	98                   	cwtl   
   14c2f:	89 c7                	mov    %eax,%edi
   14c31:	e8 67 87 ff ff       	callq  d39d <safe_unary_minus_func_int16_t_s>
   14c36:	48 0f bf c0          	movswq %ax,%rax
   14c3a:	48 c7 c6 fc ff ff ff 	mov    $0xfffffffffffffffc,%rsi
   14c41:	48 89 c7             	mov    %rax,%rdi
   14c44:	e8 37 94 ff ff       	callq  e080 <safe_mod_func_uint64_t_u_u>
   14c49:	48 8b 95 d8 f0 ff ff 	mov    -0xf28(%rbp),%rdx
   14c50:	48 89 02             	mov    %rax,(%rdx)
   14c53:	48 8b 85 d8 f0 ff ff 	mov    -0xf28(%rbp),%rax
   14c5a:	48 8b 10             	mov    (%rax),%rdx
   14c5d:	48 8b 85 98 ef ff ff 	mov    -0x1068(%rbp),%rax
   14c64:	48 8b 00             	mov    (%rax),%rax
   14c67:	48 8b 00             	mov    (%rax),%rax
   14c6a:	8b 00                	mov    (%rax),%eax
   14c6c:	48 98                	cltq   
   14c6e:	48 39 c2             	cmp    %rax,%rdx
   14c71:	0f 92 c0             	setb   %al
   14c74:	0f b6 d0             	movzbl %al,%edx
   14c77:	48 8b 8d 58 f1 ff ff 	mov    -0xea8(%rbp),%rcx
   14c7e:	48 8b 85 c0 f0 ff ff 	mov    -0xf40(%rbp),%rax
   14c85:	48 89 08             	mov    %rcx,(%rax)
   14c88:	48 8b 8d a0 ef ff ff 	mov    -0x1060(%rbp),%rcx
   14c8f:	48 8b 85 c8 f0 ff ff 	mov    -0xf38(%rbp),%rax
   14c96:	48 89 08             	mov    %rcx,(%rax)
   14c99:	48 8b 8d 80 f3 ff ff 	mov    -0xc80(%rbp),%rcx
   14ca0:	48 8b 85 d0 f0 ff ff 	mov    -0xf30(%rbp),%rax
   14ca7:	48 89 08             	mov    %rcx,(%rax)
   14caa:	48 8b 85 d0 f0 ff ff 	mov    -0xf30(%rbp),%rax
   14cb1:	48 8b 08             	mov    (%rax),%rcx
   14cb4:	48 8b 05 dd 48 01 00 	mov    0x148dd(%rip),%rax        # 29598 <g_1610>
   14cbb:	48 8b 00             	mov    (%rax),%rax
   14cbe:	48 39 c1             	cmp    %rax,%rcx
   14cc1:	0f 94 c0             	sete   %al
   14cc4:	0f b6 c0             	movzbl %al,%eax
   14cc7:	89 d6                	mov    %edx,%esi
   14cc9:	89 c7                	mov    %eax,%edi
   14ccb:	e8 5a 88 ff ff       	callq  d52a <safe_rshift_func_int16_t_s_s>
   14cd0:	0f b7 c0             	movzwl %ax,%eax
   14cd3:	be 0d 00 00 00       	mov    $0xd,%esi
   14cd8:	89 c7                	mov    %eax,%edi
   14cda:	e8 9b 91 ff ff       	callq  de7a <safe_rshift_func_uint16_t_u_u>
   14cdf:	0f b7 c0             	movzwl %ax,%eax
   14ce2:	48 89 de             	mov    %rbx,%rsi
   14ce5:	48 89 c7             	mov    %rax,%rdi
   14ce8:	e8 bb 8b ff ff       	callq  d8a8 <safe_sub_func_int64_t_s_s>
   14ced:	0f b7 c0             	movzwl %ax,%eax
   14cf0:	be ff ff 00 00       	mov    $0xffff,%esi
   14cf5:	89 c7                	mov    %eax,%edi
   14cf7:	e8 92 90 ff ff       	callq  dd8e <safe_div_func_uint16_t_u_u>
   14cfc:	83 bd 68 ef ff ff 00 	cmpl   $0x0,-0x1098(%rbp)
   14d03:	0f 9f c0             	setg   %al
   14d06:	0f b6 c0             	movzbl %al,%eax
   14d09:	be 01 00 00 00       	mov    $0x1,%esi
   14d0e:	89 c7                	mov    %eax,%edi
   14d10:	e8 20 86 ff ff       	callq  d335 <safe_rshift_func_int8_t_s_s>
   14d15:	3c 6e                	cmp    $0x6e,%al
   14d17:	0f 84 10 06 00 00    	je     1532d <func_13+0x4fb8>
   14d1d:	48 c7 85 18 f1 ff ff 	movq   $0x0,-0xee8(%rbp)
   14d24:	00 00 00 00 
   14d28:	c7 85 84 ef ff ff ff 	movl   $0xffffffff,-0x107c(%rbp)
   14d2f:	ff ff ff 
   14d32:	c7 85 88 ef ff ff 00 	movl   $0x0,-0x1078(%rbp)
   14d39:	00 00 00 
   14d3c:	48 b8 a5 d1 1c 61 64 	movabs $0xbba02064611cd1a5,%rax
   14d43:	20 a0 bb 
   14d46:	48 89 85 20 f1 ff ff 	mov    %rax,-0xee0(%rbp)
   14d4d:	c7 85 8c ef ff ff b3 	movl   $0xdd136cb3,-0x1074(%rbp)
   14d54:	6c 13 dd 
   14d57:	48 c7 85 28 f1 ff ff 	movq   $0x0,-0xed8(%rbp)
   14d5e:	00 00 00 00 
   14d62:	48 8d 05 7d 05 01 00 	lea    0x1057d(%rip),%rax        # 252e6 <g_1794+0x6>
   14d69:	48 89 85 30 f1 ff ff 	mov    %rax,-0xed0(%rbp)
   14d70:	48 8d 05 21 05 01 00 	lea    0x10521(%rip),%rax        # 25298 <g_1084+0x8>
   14d77:	48 89 85 38 f1 ff ff 	mov    %rax,-0xec8(%rbp)
   14d7e:	48 8d 05 9b 3d 01 00 	lea    0x13d9b(%rip),%rax        # 28b20 <g_487>
   14d85:	48 89 85 40 f1 ff ff 	mov    %rax,-0xec0(%rbp)
   14d8c:	48 8d 05 95 04 01 00 	lea    0x10495(%rip),%rax        # 25228 <g_430>
   14d93:	48 39 85 18 f1 ff ff 	cmp    %rax,-0xee8(%rbp)
   14d9a:	0f 94 c0             	sete   %al
   14d9d:	44 0f b6 f8          	movzbl %al,%r15d
   14da1:	8b 85 84 ef ff ff    	mov    -0x107c(%rbp),%eax
   14da7:	0f b7 d8             	movzwl %ax,%ebx
   14daa:	0f b7 05 07 05 01 00 	movzwl 0x10507(%rip),%eax        # 252b8 <g_1624>
   14db1:	44 0f b7 e0          	movzwl %ax,%r12d
   14db5:	0f b7 85 d4 ee ff ff 	movzwl -0x112c(%rbp),%eax
   14dbc:	44 0f b7 e8          	movzwl %ax,%r13d
   14dc0:	0f b7 85 d4 ee ff ff 	movzwl -0x112c(%rbp),%eax
   14dc7:	44 0f b6 f0          	movzbl %al,%r14d
   14dcb:	83 bd 68 ef ff ff 00 	cmpl   $0x0,-0x1098(%rbp)
   14dd2:	74 69                	je     14e3d <func_13+0x4ac8>
   14dd4:	48 8b 85 d0 f0 ff ff 	mov    -0xf30(%rbp),%rax
   14ddb:	48 8b 00             	mov    (%rax),%rax
   14dde:	48 8b 00             	mov    (%rax),%rax
   14de1:	48 8b 00             	mov    (%rax),%rax
   14de4:	8b 10                	mov    (%rax),%edx
   14de6:	8d 4a 01             	lea    0x1(%rdx),%ecx
   14de9:	89 08                	mov    %ecx,(%rax)
   14deb:	48 8b 85 20 f1 ff ff 	mov    -0xee0(%rbp),%rax
   14df2:	89 c1                	mov    %eax,%ecx
   14df4:	8b 85 84 ef ff ff    	mov    -0x107c(%rbp),%eax
   14dfa:	31 c1                	xor    %eax,%ecx
   14dfc:	48 8b 85 98 ef ff ff 	mov    -0x1068(%rbp),%rax
   14e03:	48 8b 00             	mov    (%rax),%rax
   14e06:	48 8b 00             	mov    (%rax),%rax
   14e09:	89 08                	mov    %ecx,(%rax)
   14e0b:	8b 00                	mov    (%rax),%eax
   14e0d:	31 d0                	xor    %edx,%eax
   14e0f:	89 c2                	mov    %eax,%edx
   14e11:	8b 85 68 ef ff ff    	mov    -0x1098(%rbp),%eax
   14e17:	89 c6                	mov    %eax,%esi
   14e19:	89 d7                	mov    %edx,%edi
   14e1b:	e8 df 88 ff ff       	callq  d6ff <safe_div_func_int32_t_s_s>
   14e20:	0f b7 15 71 04 01 00 	movzwl 0x10471(%rip),%edx        # 25298 <g_1084+0x8>
   14e27:	0f bf d2             	movswl %dx,%edx
   14e2a:	39 d0                	cmp    %edx,%eax
   14e2c:	48 83 bd 20 f1 ff ff 	cmpq   $0x0,-0xee0(%rbp)
   14e33:	00 
   14e34:	75 07                	jne    14e3d <func_13+0x4ac8>
   14e36:	b8 01 00 00 00       	mov    $0x1,%eax
   14e3b:	eb 05                	jmp    14e42 <func_13+0x4acd>
   14e3d:	b8 00 00 00 00       	mov    $0x0,%eax
   14e42:	98                   	cwtl   
   14e43:	be 01 00 00 00       	mov    $0x1,%esi
   14e48:	89 c7                	mov    %eax,%edi
   14e4a:	e8 db 86 ff ff       	callq  d52a <safe_rshift_func_int16_t_s_s>
   14e4f:	0f b6 c0             	movzbl %al,%eax
   14e52:	be 07 00 00 00       	mov    $0x7,%esi
   14e57:	89 c7                	mov    %eax,%edi
   14e59:	e8 60 8e ff ff       	callq  dcbe <safe_rshift_func_uint8_t_u_u>
   14e5e:	0f b6 d0             	movzbl %al,%edx
   14e61:	8b 85 84 ef ff ff    	mov    -0x107c(%rbp),%eax
   14e67:	09 85 88 ef ff ff    	or     %eax,-0x1078(%rbp)
   14e6d:	8b 85 68 ef ff ff    	mov    -0x1098(%rbp),%eax
   14e73:	89 d6                	mov    %edx,%esi
   14e75:	89 c7                	mov    %eax,%edi
   14e77:	e8 83 88 ff ff       	callq  d6ff <safe_div_func_int32_t_s_s>
   14e7c:	48 98                	cltq   
   14e7e:	48 89 c7             	mov    %rax,%rdi
   14e81:	e8 90 89 ff ff       	callq  d816 <safe_unary_minus_func_int64_t_s>
   14e86:	48 8b 95 20 f1 ff ff 	mov    -0xee0(%rbp),%rdx
   14e8d:	48 39 d0             	cmp    %rdx,%rax
   14e90:	0f 95 c0             	setne  %al
   14e93:	0f b6 c0             	movzbl %al,%eax
   14e96:	44 89 f6             	mov    %r14d,%esi
   14e99:	89 c7                	mov    %eax,%edi
   14e9b:	e8 d8 8c ff ff       	callq  db78 <safe_sub_func_uint8_t_u_u>
   14ea0:	84 c0                	test   %al,%al
   14ea2:	0f 94 c0             	sete   %al
   14ea5:	0f b6 c0             	movzbl %al,%eax
   14ea8:	44 89 ee             	mov    %r13d,%esi
   14eab:	89 c7                	mov    %eax,%edi
   14ead:	e8 6d 8e ff ff       	callq  dd1f <safe_sub_func_uint16_t_u_u>
   14eb2:	0f b7 c0             	movzwl %ax,%eax
   14eb5:	39 85 68 ef ff ff    	cmp    %eax,-0x1098(%rbp)
   14ebb:	7f 13                	jg     14ed0 <func_13+0x4b5b>
   14ebd:	48 8b 85 98 ef ff ff 	mov    -0x1068(%rbp),%rax
   14ec4:	48 8b 00             	mov    (%rax),%rax
   14ec7:	48 8b 00             	mov    (%rax),%rax
   14eca:	8b 00                	mov    (%rax),%eax
   14ecc:	85 c0                	test   %eax,%eax
   14ece:	74 07                	je     14ed7 <func_13+0x4b62>
   14ed0:	b8 01 00 00 00       	mov    $0x1,%eax
   14ed5:	eb 05                	jmp    14edc <func_13+0x4b67>
   14ed7:	b8 00 00 00 00       	mov    $0x0,%eax
   14edc:	48 98                	cltq   
   14ede:	48 89 c6             	mov    %rax,%rsi
   14ee1:	48 bf 61 ec 26 d5 76 	movabs $0xf07e1576d526ec61,%rdi
   14ee8:	15 7e f0 
   14eeb:	e8 5b 91 ff ff       	callq  e04b <safe_sub_func_uint64_t_u_u>
   14ef0:	48 89 c2             	mov    %rax,%rdx
   14ef3:	48 8b 85 20 f1 ff ff 	mov    -0xee0(%rbp),%rax
   14efa:	48 89 c6             	mov    %rax,%rsi
   14efd:	48 89 d7             	mov    %rdx,%rdi
   14f00:	e8 29 91 ff ff       	callq  e02e <safe_add_func_uint64_t_u_u>
   14f05:	8b 85 84 ef ff ff    	mov    -0x107c(%rbp),%eax
   14f0b:	48 98                	cltq   
   14f0d:	48 be 9e 04 78 a1 c7 	movabs $0x3c342ec7a178049e,%rsi
   14f14:	2e 34 3c 
   14f17:	48 89 c7             	mov    %rax,%rdi
   14f1a:	e8 90 91 ff ff       	callq  e0af <safe_div_func_uint64_t_u_u>
   14f1f:	4c 89 e6             	mov    %r12,%rsi
   14f22:	48 c7 c7 fe ff ff ff 	mov    $0xfffffffffffffffe,%rdi
   14f29:	e8 13 89 ff ff       	callq  d841 <safe_add_func_int64_t_s_s>
   14f2e:	0f b7 c0             	movzwl %ax,%eax
   14f31:	89 de                	mov    %ebx,%esi
   14f33:	89 c7                	mov    %eax,%edi
   14f35:	e8 22 8e ff ff       	callq  dd5c <safe_mod_func_uint16_t_u_u>
   14f3a:	0f b7 c0             	movzwl %ax,%eax
   14f3d:	44 09 f8             	or     %r15d,%eax
   14f40:	31 85 8c ef ff ff    	xor    %eax,-0x1074(%rbp)
   14f46:	0f bf 9d d4 ee ff ff 	movswl -0x112c(%rbp),%ebx
   14f4d:	44 0f bf a5 d4 ee ff 	movswl -0x112c(%rbp),%r12d
   14f54:	ff 
   14f55:	44 8b ad 84 ef ff ff 	mov    -0x107c(%rbp),%r13d
   14f5c:	0f b7 85 d4 ee ff ff 	movzwl -0x112c(%rbp),%eax
   14f63:	44 0f b7 f0          	movzwl %ax,%r14d
   14f67:	48 83 bd 20 f1 ff ff 	cmpq   $0x0,-0xee0(%rbp)
   14f6e:	00 
   14f6f:	0f 85 e5 00 00 00    	jne    1505a <func_13+0x4ce5>
   14f75:	48 8b 85 98 ef ff ff 	mov    -0x1068(%rbp),%rax
   14f7c:	48 8b 00             	mov    (%rax),%rax
   14f7f:	48 8b 00             	mov    (%rax),%rax
   14f82:	8b 00                	mov    (%rax),%eax
   14f84:	44 0f b6 f8          	movzbl %al,%r15d
   14f88:	0f bf 85 d4 ee ff ff 	movswl -0x112c(%rbp),%eax
   14f8f:	89 85 c8 ee ff ff    	mov    %eax,-0x1138(%rbp)
   14f95:	8b 05 65 03 01 00    	mov    0x10365(%rip),%eax        # 25300 <g_2185>
   14f9b:	83 c8 01             	or     $0x1,%eax
   14f9e:	89 05 5c 03 01 00    	mov    %eax,0x1035c(%rip)        # 25300 <g_2185>
   14fa4:	48 8b 85 30 f1 ff ff 	mov    -0xed0(%rbp),%rax
   14fab:	66 c7 00 00 00       	movw   $0x0,(%rax)
   14fb0:	48 8b 85 30 f1 ff ff 	mov    -0xed0(%rbp),%rax
   14fb7:	0f b7 00             	movzwl (%rax),%eax
   14fba:	0f b7 c0             	movzwl %ax,%eax
   14fbd:	89 c6                	mov    %eax,%esi
   14fbf:	bf 00 00 00 00       	mov    $0x0,%edi
   14fc4:	e8 18 85 ff ff       	callq  d4e1 <safe_lshift_func_int16_t_s_u>
   14fc9:	98                   	cwtl   
   14fca:	8b b5 c8 ee ff ff    	mov    -0x1138(%rbp),%esi
   14fd0:	89 c7                	mov    %eax,%edi
   14fd2:	e8 4e 8f ff ff       	callq  df25 <safe_div_func_uint32_t_u_u>
   14fd7:	0f b6 c0             	movzbl %al,%eax
   14fda:	44 89 fe             	mov    %r15d,%esi
   14fdd:	89 c7                	mov    %eax,%edi
   14fdf:	e8 ca 8b ff ff       	callq  dbae <safe_mod_func_uint8_t_u_u>
   14fe4:	48 8b 85 98 ef ff ff 	mov    -0x1068(%rbp),%rax
   14feb:	48 8b 00             	mov    (%rax),%rax
   14fee:	48 8b 00             	mov    (%rax),%rax
   14ff1:	8b 00                	mov    (%rax),%eax
   14ff3:	83 f8 01             	cmp    $0x1,%eax
   14ff6:	0f 9f c0             	setg   %al
   14ff9:	0f b6 d0             	movzbl %al,%edx
   14ffc:	48 8b 85 98 ef ff ff 	mov    -0x1068(%rbp),%rax
   15003:	48 8b 00             	mov    (%rax),%rax
   15006:	48 8b 00             	mov    (%rax),%rax
   15009:	8b 00                	mov    (%rax),%eax
   1500b:	39 c2                	cmp    %eax,%edx
   1500d:	0f 9c c0             	setl   %al
   15010:	0f b6 c0             	movzbl %al,%eax
   15013:	21 85 88 ef ff ff    	and    %eax,-0x1078(%rbp)
   15019:	0f bf 85 d4 ee ff ff 	movswl -0x112c(%rbp),%eax
   15020:	39 85 88 ef ff ff    	cmp    %eax,-0x1078(%rbp)
   15026:	0f 94 c0             	sete   %al
   15029:	0f b6 c0             	movzbl %al,%eax
   1502c:	48 39 85 20 f1 ff ff 	cmp    %rax,-0xee0(%rbp)
   15033:	0f 92 c0             	setb   %al
   15036:	0f b6 c0             	movzbl %al,%eax
   15039:	be f7 ff ff ff       	mov    $0xfffffff7,%esi
   1503e:	89 c7                	mov    %eax,%edi
   15040:	e8 6e 83 ff ff       	callq  d3b3 <safe_add_func_int16_t_s_s>
   15045:	f7 d0                	not    %eax
   15047:	98                   	cwtl   
   15048:	be 15 0b 00 00       	mov    $0xb15,%esi
   1504d:	89 c7                	mov    %eax,%edi
   1504f:	e8 7f 83 ff ff       	callq  d3d3 <safe_sub_func_int16_t_s_s>
   15054:	66 83 f8 01          	cmp    $0x1,%ax
   15058:	76 07                	jbe    15061 <func_13+0x4cec>
   1505a:	b8 01 00 00 00       	mov    $0x1,%eax
   1505f:	eb 05                	jmp    15066 <func_13+0x4cf1>
   15061:	b8 00 00 00 00       	mov    $0x0,%eax
   15066:	89 c2                	mov    %eax,%edx
   15068:	48 8b 85 20 f1 ff ff 	mov    -0xee0(%rbp),%rax
   1506f:	31 d0                	xor    %edx,%eax
   15071:	0f b7 c0             	movzwl %ax,%eax
   15074:	44 89 f6             	mov    %r14d,%esi
   15077:	89 c7                	mov    %eax,%edi
   15079:	e8 bf 8c ff ff       	callq  dd3d <safe_mul_func_uint16_t_u_u>
   1507e:	0f b7 c0             	movzwl %ax,%eax
   15081:	44 89 ee             	mov    %r13d,%esi
   15084:	89 c7                	mov    %eax,%edi
   15086:	e8 45 8e ff ff       	callq  ded0 <safe_sub_func_uint32_t_u_u>
   1508b:	98                   	cwtl   
   1508c:	44 89 e6             	mov    %r12d,%esi
   1508f:	89 c7                	mov    %eax,%edi
   15091:	e8 5f 83 ff ff       	callq  d3f5 <safe_mul_func_int16_t_s_s>
   15096:	48 0f bf c0          	movswq %ax,%rax
   1509a:	25 a3 e4 00 00       	and    $0xe4a3,%eax
   1509f:	48 3d fd 00 00 00    	cmp    $0xfd,%rax
   150a5:	0f 96 c0             	setbe  %al
   150a8:	44 0f b6 e0          	movzbl %al,%r12d
   150ac:	48 8d 85 98 ef ff ff 	lea    -0x1068(%rbp),%rax
   150b3:	48 39 85 e0 f0 ff ff 	cmp    %rax,-0xf20(%rbp)
   150ba:	0f 95 c0             	setne  %al
   150bd:	0f b6 c0             	movzbl %al,%eax
   150c0:	be 08 00 00 00       	mov    $0x8,%esi
   150c5:	89 c7                	mov    %eax,%edi
   150c7:	e8 3a 8d ff ff       	callq  de06 <safe_lshift_func_uint16_t_u_u>
   150cc:	0f b7 c0             	movzwl %ax,%eax
   150cf:	44 89 e6             	mov    %r12d,%esi
   150d2:	89 c7                	mov    %eax,%edi
   150d4:	e8 64 8c ff ff       	callq  dd3d <safe_mul_func_uint16_t_u_u>
   150d9:	0f b6 c0             	movzbl %al,%eax
   150dc:	be 06 00 00 00       	mov    $0x6,%esi
   150e1:	89 c7                	mov    %eax,%edi
   150e3:	e8 1d 8b ff ff       	callq  dc05 <safe_lshift_func_uint8_t_u_s>
   150e8:	0f b6 c0             	movzbl %al,%eax
   150eb:	48 39 85 20 f1 ff ff 	cmp    %rax,-0xee0(%rbp)
   150f2:	0f 92 c0             	setb   %al
   150f5:	0f b6 c0             	movzbl %al,%eax
   150f8:	89 de                	mov    %ebx,%esi
   150fa:	89 c7                	mov    %eax,%edi
   150fc:	e8 8c 8b ff ff       	callq  dc8d <safe_rshift_func_uint8_t_u_s>
   15101:	48 8b 05 d8 3e 01 00 	mov    0x13ed8(%rip),%rax        # 28fe0 <g_1078>
   15108:	0f b7 00             	movzwl (%rax),%eax
   1510b:	98                   	cwtl   
   1510c:	be 01 00 00 00       	mov    $0x1,%esi
   15111:	89 c7                	mov    %eax,%edi
   15113:	e8 fe 82 ff ff       	callq  d416 <safe_mod_func_int16_t_s_s>
   15118:	83 f0 08             	xor    $0x8,%eax
   1511b:	89 c2                	mov    %eax,%edx
   1511d:	0f b7 85 d4 ee ff ff 	movzwl -0x112c(%rbp),%eax
   15124:	66 39 c2             	cmp    %ax,%dx
   15127:	0f 97 c0             	seta   %al
   1512a:	0f b6 c0             	movzbl %al,%eax
   1512d:	39 85 68 ef ff ff    	cmp    %eax,-0x1098(%rbp)
   15133:	0f 9f c0             	setg   %al
   15136:	0f b6 d0             	movzbl %al,%edx
   15139:	0f b7 05 68 01 01 00 	movzwl 0x10168(%rip),%eax        # 252a8 <g_1438+0x4>
   15140:	98                   	cwtl   
   15141:	39 c2                	cmp    %eax,%edx
   15143:	0f 9e c2             	setle  %dl
   15146:	48 8b 05 b3 2b 01 00 	mov    0x12bb3(%rip),%rax        # 27d00 <g_16>
   1514d:	0f b6 d2             	movzbl %dl,%edx
   15150:	89 10                	mov    %edx,(%rax)
   15152:	44 0f bf bd d4 ee ff 	movswl -0x112c(%rbp),%r15d
   15159:	ff 
   1515a:	48 8b 85 98 ef ff ff 	mov    -0x1068(%rbp),%rax
   15161:	48 8b 00             	mov    (%rax),%rax
   15164:	48 8b 00             	mov    (%rax),%rax
   15167:	8b 00                	mov    (%rax),%eax
   15169:	0f b7 d8             	movzwl %ax,%ebx
   1516c:	0f b7 85 d4 ee ff ff 	movzwl -0x112c(%rbp),%eax
   15173:	44 0f b6 e0          	movzbl %al,%r12d
   15177:	0f b7 85 d4 ee ff ff 	movzwl -0x112c(%rbp),%eax
   1517e:	44 0f be e8          	movsbl %al,%r13d
   15182:	0f b7 85 d4 ee ff ff 	movzwl -0x112c(%rbp),%eax
   15189:	0f b7 c0             	movzwl %ax,%eax
   1518c:	89 c6                	mov    %eax,%esi
   1518e:	bf ff ff 00 00       	mov    $0xffff,%edi
   15193:	e8 a5 8b ff ff       	callq  dd3d <safe_mul_func_uint16_t_u_u>
   15198:	44 0f b7 f0          	movzwl %ax,%r14d
   1519c:	be 01 00 00 00       	mov    $0x1,%esi
   151a1:	bf 06 00 00 00       	mov    $0x6,%edi
   151a6:	e8 0d 8d ff ff       	callq  deb8 <safe_add_func_uint32_t_u_u>
   151ab:	89 c0                	mov    %eax,%eax
   151ad:	4c 89 f6             	mov    %r14,%rsi
   151b0:	48 89 c7             	mov    %rax,%rdi
   151b3:	e8 93 8e ff ff       	callq  e04b <safe_sub_func_uint64_t_u_u>
   151b8:	0f bf d0             	movswl %ax,%edx
   151bb:	48 8b 85 20 f1 ff ff 	mov    -0xee0(%rbp),%rax
   151c2:	98                   	cwtl   
   151c3:	89 d6                	mov    %edx,%esi
   151c5:	89 c7                	mov    %eax,%edi
   151c7:	e8 29 82 ff ff       	callq  d3f5 <safe_mul_func_int16_t_s_s>
   151cc:	48 8b 85 c0 f0 ff ff 	mov    -0xf40(%rbp),%rax
   151d3:	48 8b 00             	mov    (%rax),%rax
   151d6:	48 8b 00             	mov    (%rax),%rax
   151d9:	c6 00 01             	movb   $0x1,(%rax)
   151dc:	66 83 bd d4 ee ff ff 	cmpw   $0x0,-0x112c(%rbp)
   151e3:	00 
   151e4:	0f 9f c0             	setg   %al
   151e7:	0f b6 d0             	movzbl %al,%edx
   151ea:	0f bf 85 d4 ee ff ff 	movswl -0x112c(%rbp),%eax
   151f1:	39 c2                	cmp    %eax,%edx
   151f3:	0f 9f c0             	setg   %al
   151f6:	0f b6 c0             	movzbl %al,%eax
   151f9:	be 08 00 00 00       	mov    $0x8,%esi
   151fe:	89 c7                	mov    %eax,%edi
   15200:	e8 01 8c ff ff       	callq  de06 <safe_lshift_func_uint16_t_u_u>
   15205:	0f b7 d0             	movzwl %ax,%edx
   15208:	48 8b 85 98 ef ff ff 	mov    -0x1068(%rbp),%rax
   1520f:	48 8b 00             	mov    (%rax),%rax
   15212:	48 8b 00             	mov    (%rax),%rax
   15215:	8b 00                	mov    (%rax),%eax
   15217:	39 c2                	cmp    %eax,%edx
   15219:	0f 95 c0             	setne  %al
   1521c:	0f b6 c0             	movzbl %al,%eax
   1521f:	be fd ff 00 00       	mov    $0xfffd,%esi
   15224:	89 c7                	mov    %eax,%edi
   15226:	e8 12 8b ff ff       	callq  dd3d <safe_mul_func_uint16_t_u_u>
   1522b:	0f be c0             	movsbl %al,%eax
   1522e:	44 89 ee             	mov    %r13d,%esi
   15231:	89 c7                	mov    %eax,%edi
   15233:	e8 9c 7f ff ff       	callq  d1d4 <safe_add_func_int8_t_s_s>
   15238:	84 c0                	test   %al,%al
   1523a:	75 13                	jne    1524f <func_13+0x4eda>
   1523c:	48 8b 85 98 ef ff ff 	mov    -0x1068(%rbp),%rax
   15243:	48 8b 00             	mov    (%rax),%rax
   15246:	48 8b 00             	mov    (%rax),%rax
   15249:	8b 00                	mov    (%rax),%eax
   1524b:	85 c0                	test   %eax,%eax
   1524d:	74 07                	je     15256 <func_13+0x4ee1>
   1524f:	b8 01 00 00 00       	mov    $0x1,%eax
   15254:	eb 05                	jmp    1525b <func_13+0x4ee6>
   15256:	b8 00 00 00 00       	mov    $0x0,%eax
   1525b:	89 c2                	mov    %eax,%edx
   1525d:	48 8b 85 38 f1 ff ff 	mov    -0xec8(%rbp),%rax
   15264:	66 89 10             	mov    %dx,(%rax)
   15267:	48 8b 85 38 f1 ff ff 	mov    -0xec8(%rbp),%rax
   1526e:	0f b7 00             	movzwl (%rax),%eax
   15271:	0f bf d0             	movswl %ax,%edx
   15274:	48 8b 85 98 ef ff ff 	mov    -0x1068(%rbp),%rax
   1527b:	48 8b 00             	mov    (%rax),%rax
   1527e:	48 8b 00             	mov    (%rax),%rax
   15281:	8b 00                	mov    (%rax),%eax
   15283:	31 d0                	xor    %edx,%eax
   15285:	3d f1 95 00 00       	cmp    $0x95f1,%eax
   1528a:	0f 95 c0             	setne  %al
   1528d:	0f b6 c0             	movzbl %al,%eax
   15290:	44 89 e6             	mov    %r12d,%esi
   15293:	89 c7                	mov    %eax,%edi
   15295:	e8 14 89 ff ff       	callq  dbae <safe_mod_func_uint8_t_u_u>
   1529a:	0f b6 c0             	movzbl %al,%eax
   1529d:	89 de                	mov    %ebx,%esi
   1529f:	89 c7                	mov    %eax,%edi
   152a1:	e8 97 8a ff ff       	callq  dd3d <safe_mul_func_uint16_t_u_u>
   152a6:	0f b7 d0             	movzwl %ax,%edx
   152a9:	0f bf 85 d4 ee ff ff 	movswl -0x112c(%rbp),%eax
   152b0:	39 c2                	cmp    %eax,%edx
   152b2:	0f 9e c0             	setle  %al
   152b5:	0f b6 c0             	movzbl %al,%eax
   152b8:	44 21 f8             	and    %r15d,%eax
   152bb:	be fb 5b 30 28       	mov    $0x28305bfb,%esi
   152c0:	89 c7                	mov    %eax,%edi
   152c2:	e8 f1 8b ff ff       	callq  deb8 <safe_add_func_uint32_t_u_u>
   152c7:	0f bf 95 d4 ee ff ff 	movswl -0x112c(%rbp),%edx
   152ce:	39 d0                	cmp    %edx,%eax
   152d0:	48 8b 05 59 38 01 00 	mov    0x13859(%rip),%rax        # 28b30 <g_485>
   152d7:	48 8b 00             	mov    (%rax),%rax
   152da:	48 39 85 40 f1 ff ff 	cmp    %rax,-0xec0(%rbp)
   152e1:	0f 95 c0             	setne  %al
   152e4:	0f b6 c0             	movzbl %al,%eax
   152e7:	48 c7 c6 ff ff ff ff 	mov    $0xffffffffffffffff,%rsi
   152ee:	48 89 c7             	mov    %rax,%rdi
   152f1:	e8 be 86 ff ff       	callq  d9b4 <safe_mod_func_int64_t_s_s>
   152f6:	48 8b 85 a0 f1 ff ff 	mov    -0xe60(%rbp),%rax
   152fd:	48 85 c0             	test   %rax,%rax
   15300:	74 07                	je     15309 <func_13+0x4f94>
   15302:	ba 01 00 00 00       	mov    $0x1,%edx
   15307:	eb 05                	jmp    1530e <func_13+0x4f99>
   15309:	ba 00 00 00 00       	mov    $0x0,%edx
   1530e:	48 8b 05 eb 29 01 00 	mov    0x129eb(%rip),%rax        # 27d00 <g_16>
   15315:	89 10                	mov    %edx,(%rax)
   15317:	48 8b 05 e2 29 01 00 	mov    0x129e2(%rip),%rax        # 27d00 <g_16>
   1531e:	8b 00                	mov    (%rax),%eax
   15320:	85 c0                	test   %eax,%eax
   15322:	0f 85 94 05 00 00    	jne    158bc <func_13+0x5547>
   15328:	e9 a1 05 00 00       	jmpq   158ce <func_13+0x5559>
   1532d:	c7 85 70 ef ff ff ed 	movl   $0x1544beed,-0x1090(%rbp)
   15334:	be 44 15 
   15337:	c7 85 3c ef ff ff 00 	movl   $0x0,-0x10c4(%rbp)
   1533e:	00 00 00 
   15341:	eb 22                	jmp    15365 <func_13+0x4ff0>
   15343:	8b 85 3c ef ff ff    	mov    -0x10c4(%rbp),%eax
   15349:	48 98                	cltq   
   1534b:	48 8d 95 90 f6 ff ff 	lea    -0x970(%rbp),%rdx
   15352:	48 83 c2 28          	add    $0x28,%rdx
   15356:	48 89 94 c5 90 f5 ff 	mov    %rdx,-0xa70(%rbp,%rax,8)
   1535d:	ff 
   1535e:	83 85 3c ef ff ff 01 	addl   $0x1,-0x10c4(%rbp)
   15365:	83 bd 3c ef ff ff 06 	cmpl   $0x6,-0x10c4(%rbp)
   1536c:	7e d5                	jle    15343 <func_13+0x4fce>
   1536e:	c7 85 3c ef ff ff 00 	movl   $0x0,-0x10c4(%rbp)
   15375:	00 00 00 
   15378:	eb 1a                	jmp    15394 <func_13+0x501f>
   1537a:	8b 85 3c ef ff ff    	mov    -0x10c4(%rbp),%eax
   15380:	48 98                	cltq   
   15382:	c7 84 85 90 f2 ff ff 	movl   $0xffffffff,-0xd70(%rbp,%rax,4)
   15389:	ff ff ff ff 
   1538d:	83 85 3c ef ff ff 01 	addl   $0x1,-0x10c4(%rbp)
   15394:	83 bd 3c ef ff ff 00 	cmpl   $0x0,-0x10c4(%rbp)
   1539b:	7e dd                	jle    1537a <func_13+0x5005>
   1539d:	48 8b 85 98 ef ff ff 	mov    -0x1068(%rbp),%rax
   153a4:	48 8b 00             	mov    (%rax),%rax
   153a7:	48 8b 00             	mov    (%rax),%rax
   153aa:	8b 00                	mov    (%rax),%eax
   153ac:	85 c0                	test   %eax,%eax
   153ae:	74 15                	je     153c5 <func_13+0x5050>
   153b0:	c7 85 80 ef ff ff 9b 	movl   $0x595aac9b,-0x1080(%rbp)
   153b7:	ac 5a 59 
   153ba:	8b 85 80 ef ff ff    	mov    -0x1080(%rbp),%eax
   153c0:	e9 d6 06 00 00       	jmpq   15a9b <func_13+0x5726>
   153c5:	48 c7 85 e8 f0 ff ff 	movq   $0x0,-0xf18(%rbp)
   153cc:	00 00 00 00 
   153d0:	48 8d 85 90 f5 ff ff 	lea    -0xa70(%rbp),%rax
   153d7:	48 83 c0 10          	add    $0x10,%rax
   153db:	48 89 85 f0 f0 ff ff 	mov    %rax,-0xf10(%rbp)
   153e2:	c7 85 74 ef ff ff 8e 	movl   $0x3e673c8e,-0x108c(%rbp)
   153e9:	3c 67 3e 
   153ec:	48 8d 85 90 f6 ff ff 	lea    -0x970(%rbp),%rax
   153f3:	48 05 88 00 00 00    	add    $0x88,%rax
   153f9:	48 89 85 f8 f0 ff ff 	mov    %rax,-0xf08(%rbp)
   15400:	48 c7 85 00 f1 ff ff 	movq   $0x0,-0xf00(%rbp)
   15407:	00 00 00 00 
   1540b:	48 8d 05 88 fe 00 00 	lea    0xfe88(%rip),%rax        # 2529a <g_1086>
   15412:	48 89 85 08 f1 ff ff 	mov    %rax,-0xef8(%rbp)
   15419:	66 c7 85 f4 ee ff ff 	movw   $0x9,-0x110c(%rbp)
   15420:	09 00 
   15422:	48 8b 15 bf 36 01 00 	mov    0x136bf(%rip),%rdx        # 28ae8 <g_429>
   15429:	48 8b 05 b8 36 01 00 	mov    0x136b8(%rip),%rax        # 28ae8 <g_429>
   15430:	48 8b 12             	mov    (%rdx),%rdx
   15433:	48 89 10             	mov    %rdx,(%rax)
   15436:	4c 8b 30             	mov    (%rax),%r14
   15439:	44 0f bf bd d4 ee ff 	movswl -0x112c(%rbp),%r15d
   15440:	ff 
   15441:	8b 85 90 f2 ff ff    	mov    -0xd70(%rbp),%eax
   15447:	4c 63 e0             	movslq %eax,%r12
   1544a:	48 8b 85 d8 f0 ff ff 	mov    -0xf28(%rbp),%rax
   15451:	48 8b 00             	mov    (%rax),%rax
   15454:	48 8d 50 ff          	lea    -0x1(%rax),%rdx
   15458:	48 8b 85 d8 f0 ff ff 	mov    -0xf28(%rbp),%rax
   1545f:	48 89 10             	mov    %rdx,(%rax)
   15462:	0f bf 85 d4 ee ff ff 	movswl -0x112c(%rbp),%eax
   15469:	89 85 c8 ee ff ff    	mov    %eax,-0x1138(%rbp)
   1546f:	48 8b 85 d8 f0 ff ff 	mov    -0xf28(%rbp),%rax
   15476:	48 8b 18             	mov    (%rax),%rbx
   15479:	48 8d 53 ff          	lea    -0x1(%rbx),%rdx
   1547d:	48 8b 85 d8 f0 ff ff 	mov    -0xf28(%rbp),%rax
   15484:	48 89 10             	mov    %rdx,(%rax)
   15487:	8b 95 74 ef ff ff    	mov    -0x108c(%rbp),%edx
   1548d:	48 8b b5 60 f2 ff ff 	mov    -0xda0(%rbp),%rsi
   15494:	48 8b 8d b0 f5 ff ff 	mov    -0xa50(%rbp),%rcx
   1549b:	48 8b 85 f0 f0 ff ff 	mov    -0xf10(%rbp),%rax
   154a2:	48 89 08             	mov    %rcx,(%rax)
   154a5:	48 8b 85 f0 f0 ff ff 	mov    -0xf10(%rbp),%rax
   154ac:	48 8b 00             	mov    (%rax),%rax
   154af:	48 39 c6             	cmp    %rax,%rsi
   154b2:	0f 94 c0             	sete   %al
   154b5:	0f b6 c0             	movzbl %al,%eax
   154b8:	89 d6                	mov    %edx,%esi
   154ba:	89 c7                	mov    %eax,%edi
   154bc:	e8 3c 8a ff ff       	callq  defd <safe_mod_func_uint32_t_u_u>
   154c1:	41 89 c5             	mov    %eax,%r13d
   154c4:	48 8b 85 98 ef ff ff 	mov    -0x1068(%rbp),%rax
   154cb:	48 8b 00             	mov    (%rax),%rax
   154ce:	48 8b 00             	mov    (%rax),%rax
   154d1:	8b 00                	mov    (%rax),%eax
   154d3:	89 c1                	mov    %eax,%ecx
   154d5:	48 8d 05 0c 3b 01 00 	lea    0x13b0c(%rip),%rax        # 28fe8 <g_1077>
   154dc:	48 39 85 f8 f0 ff ff 	cmp    %rax,-0xf08(%rbp)
   154e3:	0f 94 c0             	sete   %al
   154e6:	0f b6 d0             	movzbl %al,%edx
   154e9:	0f bf 85 d4 ee ff ff 	movswl -0x112c(%rbp),%eax
   154f0:	39 c2                	cmp    %eax,%edx
   154f2:	0f 9d c0             	setge  %al
   154f5:	0f b6 c0             	movzbl %al,%eax
   154f8:	89 ce                	mov    %ecx,%esi
   154fa:	89 c7                	mov    %eax,%edi
   154fc:	e8 e0 7f ff ff       	callq  d4e1 <safe_lshift_func_int16_t_s_u>
   15501:	98                   	cwtl   
   15502:	41 39 c5             	cmp    %eax,%r13d
   15505:	0f 95 c0             	setne  %al
   15508:	0f b6 c0             	movzbl %al,%eax
   1550b:	be 09 00 00 00       	mov    $0x9,%esi
   15510:	89 c7                	mov    %eax,%edi
   15512:	e8 13 80 ff ff       	callq  d52a <safe_rshift_func_int16_t_s_s>
   15517:	0f b6 15 e6 fd 00 00 	movzbl 0xfde6(%rip),%edx        # 25304 <g_2344>
   1551e:	66 0f be d2          	movsbw %dl,%dx
   15522:	66 39 d0             	cmp    %dx,%ax
   15525:	0f bf 85 d4 ee ff ff 	movswl -0x112c(%rbp),%eax
   1552c:	89 c6                	mov    %eax,%esi
   1552e:	bf 36 00 00 00       	mov    $0x36,%edi
   15533:	e8 fd 7d ff ff       	callq  d335 <safe_rshift_func_int8_t_s_s>
   15538:	48 8b 05 e1 38 01 00 	mov    0x138e1(%rip),%rax        # 28e20 <g_859>
   1553f:	0f bf 95 d4 ee ff ff 	movswl -0x112c(%rbp),%edx
   15546:	89 10                	mov    %edx,(%rax)
   15548:	48 83 bd 00 f1 ff ff 	cmpq   $0x0,-0xf00(%rbp)
   1554f:	00 
   15550:	0f 95 c0             	setne  %al
   15553:	0f b6 d0             	movzbl %al,%edx
   15556:	48 8b 85 98 ef ff ff 	mov    -0x1068(%rbp),%rax
   1555d:	48 8b 00             	mov    (%rax),%rax
   15560:	48 8b 00             	mov    (%rax),%rax
   15563:	8b 00                	mov    (%rax),%eax
   15565:	31 d0                	xor    %edx,%eax
   15567:	be af 07 cc 11       	mov    $0x11cc07af,%esi
   1556c:	89 c7                	mov    %eax,%edi
   1556e:	e8 5d 89 ff ff       	callq  ded0 <safe_sub_func_uint32_t_u_u>
   15573:	89 c2                	mov    %eax,%edx
   15575:	48 8b 85 08 f1 ff ff 	mov    -0xef8(%rbp),%rax
   1557c:	66 89 10             	mov    %dx,(%rax)
   1557f:	48 8b 85 08 f1 ff ff 	mov    -0xef8(%rbp),%rax
   15586:	0f b7 10             	movzwl (%rax),%edx
   15589:	0f b6 05 75 fd 00 00 	movzbl 0xfd75(%rip),%eax        # 25305 <g_2347>
   15590:	0f b6 c0             	movzbl %al,%eax
   15593:	66 39 c2             	cmp    %ax,%dx
   15596:	0f 95 c0             	setne  %al
   15599:	0f b6 c0             	movzbl %al,%eax
   1559c:	48 39 c3             	cmp    %rax,%rbx
   1559f:	72 1a                	jb     155bb <func_13+0x5246>
   155a1:	48 8b 85 98 ef ff ff 	mov    -0x1068(%rbp),%rax
   155a8:	48 8b 00             	mov    (%rax),%rax
   155ab:	48 8b 00             	mov    (%rax),%rax
   155ae:	8b 00                	mov    (%rax),%eax
   155b0:	85 c0                	test   %eax,%eax
   155b2:	74 07                	je     155bb <func_13+0x5246>
   155b4:	b8 01 00 00 00       	mov    $0x1,%eax
   155b9:	eb 05                	jmp    155c0 <func_13+0x524b>
   155bb:	b8 00 00 00 00       	mov    $0x0,%eax
   155c0:	3b 85 c8 ee ff ff    	cmp    -0x1138(%rbp),%eax
   155c6:	0f 9c c0             	setl   %al
   155c9:	0f b6 d0             	movzbl %al,%edx
   155cc:	8b 05 ae fc 00 00    	mov    0xfcae(%rip),%eax        # 25280 <g_895>
   155d2:	39 c2                	cmp    %eax,%edx
   155d4:	0f 92 c2             	setb   %dl
   155d7:	48 8b 05 ea 2c 01 00 	mov    0x12cea(%rip),%rax        # 282c8 <g_60>
   155de:	48 8b 00             	mov    (%rax),%rax
   155e1:	0f b6 d2             	movzbl %dl,%edx
   155e4:	89 10                	mov    %edx,(%rax)
   155e6:	8b 10                	mov    (%rax),%edx
   155e8:	8b 85 90 f2 ff ff    	mov    -0xd70(%rbp),%eax
   155ee:	39 c2                	cmp    %eax,%edx
   155f0:	0f 9f c0             	setg   %al
   155f3:	0f b6 d0             	movzbl %al,%edx
   155f6:	0f bf 85 d4 ee ff ff 	movswl -0x112c(%rbp),%eax
   155fd:	31 d0                	xor    %edx,%eax
   155ff:	3d a3 3d 00 00       	cmp    $0x3da3,%eax
   15604:	0f 9f c0             	setg   %al
   15607:	0f b6 c0             	movzbl %al,%eax
   1560a:	4c 89 e6             	mov    %r12,%rsi
   1560d:	48 89 c7             	mov    %rax,%rdi
   15610:	e8 9f 83 ff ff       	callq  d9b4 <safe_mod_func_int64_t_s_s>
   15615:	48 85 c0             	test   %rax,%rax
   15618:	0f 94 c0             	sete   %al
   1561b:	0f b6 d0             	movzbl %al,%edx
   1561e:	0f bf 85 d4 ee ff ff 	movswl -0x112c(%rbp),%eax
   15625:	39 c2                	cmp    %eax,%edx
   15627:	0f 95 c0             	setne  %al
   1562a:	0f b6 c0             	movzbl %al,%eax
   1562d:	89 85 90 f2 ff ff    	mov    %eax,-0xd70(%rbp)
   15633:	8b 85 74 ef ff ff    	mov    -0x108c(%rbp),%eax
   15639:	89 85 1c f2 ff ff    	mov    %eax,-0xde4(%rbp)
   1563f:	8b 85 1c f2 ff ff    	mov    -0xde4(%rbp),%eax
   15645:	89 c2                	mov    %eax,%edx
   15647:	48 8b 05 b2 34 01 00 	mov    0x134b2(%rip),%rax        # 28b00 <g_447>
   1564e:	48 8b 00             	mov    (%rax),%rax
   15651:	48 8b 00             	mov    (%rax),%rax
   15654:	8b 00                	mov    (%rax),%eax
   15656:	39 c2                	cmp    %eax,%edx
   15658:	74 0d                	je     15667 <func_13+0x52f2>
   1565a:	48 8b 05 8f 34 01 00 	mov    0x1348f(%rip),%rax        # 28af0 <g_449>
   15661:	8b 00                	mov    (%rax),%eax
   15663:	85 c0                	test   %eax,%eax
   15665:	74 11                	je     15678 <func_13+0x5303>
   15667:	66 83 bd f4 ee ff ff 	cmpw   $0x0,-0x110c(%rbp)
   1566e:	00 
   1566f:	74 07                	je     15678 <func_13+0x5303>
   15671:	ba 01 00 00 00       	mov    $0x1,%edx
   15676:	eb 05                	jmp    1567d <func_13+0x5308>
   15678:	ba 00 00 00 00       	mov    $0x0,%edx
   1567d:	0f bf 85 d4 ee ff ff 	movswl -0x112c(%rbp),%eax
   15684:	39 c2                	cmp    %eax,%edx
   15686:	7f 1b                	jg     156a3 <func_13+0x532e>
   15688:	66 83 bd f4 ee ff ff 	cmpw   $0x0,-0x110c(%rbp)
   1568f:	00 
   15690:	74 11                	je     156a3 <func_13+0x532e>
   15692:	66 83 bd f4 ee ff ff 	cmpw   $0x0,-0x110c(%rbp)
   15699:	00 
   1569a:	74 07                	je     156a3 <func_13+0x532e>
   1569c:	ba 01 00 00 00       	mov    $0x1,%edx
   156a1:	eb 05                	jmp    156a8 <func_13+0x5333>
   156a3:	ba 00 00 00 00       	mov    $0x0,%edx
   156a8:	0f bf 85 f4 ee ff ff 	movswl -0x110c(%rbp),%eax
   156af:	39 c2                	cmp    %eax,%edx
   156b1:	0f 9e c0             	setle  %al
   156b4:	0f b6 c0             	movzbl %al,%eax
   156b7:	44 31 f8             	xor    %r15d,%eax
   156ba:	48 98                	cltq   
   156bc:	49 39 c6             	cmp    %rax,%r14
   156bf:	0f 9d c0             	setge  %al
   156c2:	0f b6 c0             	movzbl %al,%eax
   156c5:	89 85 70 ef ff ff    	mov    %eax,-0x1090(%rbp)
   156cb:	0f bf 9d d4 ee ff ff 	movswl -0x112c(%rbp),%ebx
   156d2:	66 83 bd d4 ee ff ff 	cmpw   $0x0,-0x112c(%rbp)
   156d9:	00 
   156da:	74 7e                	je     1575a <func_13+0x53e5>
   156dc:	48 8b 05 ad 3e 01 00 	mov    0x13ead(%rip),%rax        # 29590 <g_1556>
   156e3:	48 8b 00             	mov    (%rax),%rax
   156e6:	0f b6 00             	movzbl (%rax),%eax
   156e9:	44 0f b6 e0          	movzbl %al,%r12d
   156ed:	be 01 00 00 00       	mov    $0x1,%esi
   156f2:	bf d3 7f 00 00       	mov    $0x7fd3,%edi
   156f7:	e8 4c 87 ff ff       	callq  de48 <safe_rshift_func_uint16_t_u_s>
   156fc:	0f b7 85 d4 ee ff ff 	movzwl -0x112c(%rbp),%eax
   15703:	0f b7 c0             	movzwl %ax,%eax
   15706:	be 06 00 00 00       	mov    $0x6,%esi
   1570b:	89 c7                	mov    %eax,%edi
   1570d:	e8 f4 86 ff ff       	callq  de06 <safe_lshift_func_uint16_t_u_u>
   15712:	0f b7 c0             	movzwl %ax,%eax
   15715:	89 c6                	mov    %eax,%esi
   15717:	bf 4c 0e 00 00       	mov    $0xe4c,%edi
   1571c:	e8 9d 86 ff ff       	callq  ddbe <safe_lshift_func_uint16_t_u_s>
   15721:	8b 85 90 f2 ff ff    	mov    -0xd70(%rbp),%eax
   15727:	83 f8 01             	cmp    $0x1,%eax
   1572a:	0f 95 c0             	setne  %al
   1572d:	0f b6 d0             	movzbl %al,%edx
   15730:	48 8b 85 98 ef ff ff 	mov    -0x1068(%rbp),%rax
   15737:	48 8b 00             	mov    (%rax),%rax
   1573a:	48 8b 00             	mov    (%rax),%rax
   1573d:	8b 00                	mov    (%rax),%eax
   1573f:	0f be c0             	movsbl %al,%eax
   15742:	89 d6                	mov    %edx,%esi
   15744:	89 c7                	mov    %eax,%edi
   15746:	e8 56 7b ff ff       	callq  d2a1 <safe_lshift_func_int8_t_s_s>
   1574b:	0f b6 c0             	movzbl %al,%eax
   1574e:	44 89 e6             	mov    %r12d,%esi
   15751:	89 c7                	mov    %eax,%edi
   15753:	e8 02 84 ff ff       	callq  db5a <safe_add_func_uint8_t_u_u>
   15758:	84 c0                	test   %al,%al
   1575a:	66 83 bd d4 ee ff ff 	cmpw   $0x0,-0x112c(%rbp)
   15761:	00 
   15762:	74 19                	je     1577d <func_13+0x5408>
   15764:	48 8b 05 7d 38 01 00 	mov    0x1387d(%rip),%rax        # 28fe8 <g_1077>
   1576b:	48 8b 00             	mov    (%rax),%rax
   1576e:	0f b7 00             	movzwl (%rax),%eax
   15771:	66 85 c0             	test   %ax,%ax
   15774:	74 07                	je     1577d <func_13+0x5408>
   15776:	b8 01 00 00 00       	mov    $0x1,%eax
   1577b:	eb 05                	jmp    15782 <func_13+0x540d>
   1577d:	b8 00 00 00 00       	mov    $0x0,%eax
   15782:	89 c7                	mov    %eax,%edi
   15784:	e8 0d 7e ff ff       	callq  d596 <safe_unary_minus_func_int32_t_s>
   15789:	66 89 05 08 fb 00 00 	mov    %ax,0xfb08(%rip)        # 25298 <g_1084+0x8>
   15790:	0f b7 05 01 fb 00 00 	movzwl 0xfb01(%rip),%eax        # 25298 <g_1084+0x8>
   15797:	98                   	cwtl   
   15798:	89 de                	mov    %ebx,%esi
   1579a:	89 c7                	mov    %eax,%edi
   1579c:	e8 75 7c ff ff       	callq  d416 <safe_mod_func_int16_t_s_s>
   157a1:	66 85 c0             	test   %ax,%ax
   157a4:	74 1e                	je     157c4 <func_13+0x544f>
   157a6:	48 8b 05 4b 38 01 00 	mov    0x1384b(%rip),%rax        # 28ff8 <g_1205>
   157ad:	48 8b 00             	mov    (%rax),%rax
   157b0:	48 89 c7             	mov    %rax,%rdi
   157b3:	e8 b2 50 00 00       	callq  1a86a <func_21>
   157b8:	48 89 85 d8 ee ff ff 	mov    %rax,-0x1128(%rbp)
   157bf:	e9 d2 00 00 00       	jmpq   15896 <func_13+0x5521>
   157c4:	c7 85 78 ef ff ff 01 	movl   $0x1,-0x1088(%rbp)
   157cb:	00 00 00 
   157ce:	48 8d 05 43 fa 00 00 	lea    0xfa43(%rip),%rax        # 25218 <g_219>
   157d5:	48 89 85 10 f1 ff ff 	mov    %rax,-0xef0(%rbp)
   157dc:	c7 85 7c ef ff ff 01 	movl   $0x1,-0x1084(%rbp)
   157e3:	00 00 00 
   157e6:	48 8b 85 98 ef ff ff 	mov    -0x1068(%rbp),%rax
   157ed:	48 8b 00             	mov    (%rax),%rax
   157f0:	48 8b 00             	mov    (%rax),%rax
   157f3:	0f bf 95 d4 ee ff ff 	movswl -0x112c(%rbp),%edx
   157fa:	89 10                	mov    %edx,(%rax)
   157fc:	48 8b 85 c0 f0 ff ff 	mov    -0xf40(%rbp),%rax
   15803:	48 8b 00             	mov    (%rax),%rax
   15806:	48 8b 00             	mov    (%rax),%rax
   15809:	c6 00 5a             	movb   $0x5a,(%rax)
   1580c:	48 8b 05 cd 37 01 00 	mov    0x137cd(%rip),%rax        # 28fe0 <g_1078>
   15813:	0f b7 00             	movzwl (%rax),%eax
   15816:	98                   	cwtl   
   15817:	89 c6                	mov    %eax,%esi
   15819:	bf 00 00 00 00       	mov    $0x0,%edi
   1581e:	e8 07 7d ff ff       	callq  d52a <safe_rshift_func_int16_t_s_s>
   15823:	98                   	cwtl   
   15824:	39 85 74 ef ff ff    	cmp    %eax,-0x108c(%rbp)
   1582a:	48 8b 85 d8 ee ff ff 	mov    -0x1128(%rbp),%rax
   15831:	48 89 85 08 f8 ff ff 	mov    %rax,-0x7f8(%rbp)
   15838:	48 8b 85 08 f8 ff ff 	mov    -0x7f8(%rbp),%rax
   1583f:	48 85 c0             	test   %rax,%rax
   15842:	0f 95 c0             	setne  %al
   15845:	0f b6 d0             	movzbl %al,%edx
   15848:	0f bf 85 d4 ee ff ff 	movswl -0x112c(%rbp),%eax
   1584f:	21 d0                	and    %edx,%eax
   15851:	3d b6 c4 69 57       	cmp    $0x5769c4b6,%eax
   15856:	7f 10                	jg     15868 <func_13+0x54f3>
   15858:	83 bd 70 ef ff ff 00 	cmpl   $0x0,-0x1090(%rbp)
   1585f:	74 07                	je     15868 <func_13+0x54f3>
   15861:	ba 01 00 00 00       	mov    $0x1,%edx
   15866:	eb 05                	jmp    1586d <func_13+0x54f8>
   15868:	ba 00 00 00 00       	mov    $0x0,%edx
   1586d:	48 8b 85 10 f1 ff ff 	mov    -0xef0(%rbp),%rax
   15874:	8b 00                	mov    (%rax),%eax
   15876:	09 c2                	or     %eax,%edx
   15878:	48 8b 85 10 f1 ff ff 	mov    -0xef0(%rbp),%rax
   1587f:	89 10                	mov    %edx,(%rax)
   15881:	48 8b 85 98 ef ff ff 	mov    -0x1068(%rbp),%rax
   15888:	48 8b 00             	mov    (%rax),%rax
   1588b:	48 8b 00             	mov    (%rax),%rax
   1588e:	8b 00                	mov    (%rax),%eax
   15890:	89 85 7c ef ff ff    	mov    %eax,-0x1084(%rbp)
   15896:	48 8b 05 f3 3c 01 00 	mov    0x13cf3(%rip),%rax        # 29590 <g_1556>
   1589d:	48 8b 00             	mov    (%rax),%rax
   158a0:	0f b6 00             	movzbl (%rax),%eax
   158a3:	e9 f3 01 00 00       	jmpq   15a9b <func_13+0x5726>
   158a8:	48 8b 85 98 ef ff ff 	mov    -0x1068(%rbp),%rax
   158af:	48 8b 00             	mov    (%rax),%rax
   158b2:	48 8b 00             	mov    (%rax),%rax
   158b5:	8b 00                	mov    (%rax),%eax
   158b7:	e9 df 01 00 00       	jmpq   15a9b <func_13+0x5726>
   158bc:	48 8b 05 cd 3c 01 00 	mov    0x13ccd(%rip),%rax        # 29590 <g_1556>
   158c3:	48 8b 00             	mov    (%rax),%rax
   158c6:	0f b6 00             	movzbl (%rax),%eax
   158c9:	e9 cd 01 00 00       	jmpq   15a9b <func_13+0x5726>
   158ce:	66 c7 85 f6 ee ff ff 	movw   $0x7,-0x110a(%rbp)
   158d5:	07 00 
   158d7:	c7 85 90 ef ff ff 49 	movl   $0x9e057549,-0x1070(%rbp)
   158de:	75 05 9e 
   158e1:	c7 85 94 ef ff ff 08 	movl   $0x8,-0x106c(%rbp)
   158e8:	00 00 00 
   158eb:	c6 05 aa f9 00 00 17 	movb   $0x17,0xf9aa(%rip)        # 2529c <g_1194>
   158f2:	e9 8b 01 00 00       	jmpq   15a82 <func_13+0x570d>
   158f7:	c6 85 e7 ee ff ff 89 	movb   $0x89,-0x1119(%rbp)
   158fe:	48 8d 05 97 f8 00 00 	lea    0xf897(%rip),%rax        # 2519c <g_104>
   15905:	48 89 85 48 f1 ff ff 	mov    %rax,-0xeb8(%rbp)
   1590c:	48 8b 05 d5 31 01 00 	mov    0x131d5(%rip),%rax        # 28ae8 <g_429>
   15913:	48 8b 18             	mov    (%rax),%rbx
   15916:	44 0f bf a5 d4 ee ff 	movswl -0x112c(%rbp),%r12d
   1591d:	ff 
   1591e:	48 8b 05 c3 31 01 00 	mov    0x131c3(%rip),%rax        # 28ae8 <g_429>
   15925:	48 8b 00             	mov    (%rax),%rax
   15928:	48 85 c0             	test   %rax,%rax
   1592b:	74 5f                	je     1598c <func_13+0x5617>
   1592d:	48 8b 85 98 ef ff ff 	mov    -0x1068(%rbp),%rax
   15934:	48 8b 00             	mov    (%rax),%rax
   15937:	48 8b 00             	mov    (%rax),%rax
   1593a:	8b 00                	mov    (%rax),%eax
   1593c:	0f b7 c0             	movzwl %ax,%eax
   1593f:	be 06 00 00 00       	mov    $0x6,%esi
   15944:	89 c7                	mov    %eax,%edi
   15946:	e8 73 84 ff ff       	callq  ddbe <safe_lshift_func_uint16_t_u_s>
   1594b:	48 0f bf 85 d4 ee ff 	movswq -0x112c(%rbp),%rax
   15952:	ff 
   15953:	48 89 c6             	mov    %rax,%rsi
   15956:	bf 04 00 00 00       	mov    $0x4,%edi
   1595b:	e8 48 7f ff ff       	callq  d8a8 <safe_sub_func_int64_t_s_s>
   15960:	66 89 85 f6 ee ff ff 	mov    %ax,-0x110a(%rbp)
   15967:	0f b7 85 f6 ee ff ff 	movzwl -0x110a(%rbp),%eax
   1596e:	66 0b 85 d4 ee ff ff 	or     -0x112c(%rbp),%ax
   15975:	98                   	cwtl   
   15976:	89 85 90 ef ff ff    	mov    %eax,-0x1070(%rbp)
   1597c:	83 bd 90 ef ff ff 48 	cmpl   $0x48,-0x1070(%rbp)
   15983:	74 07                	je     1598c <func_13+0x5617>
   15985:	ba 01 00 00 00       	mov    $0x1,%edx
   1598a:	eb 05                	jmp    15991 <func_13+0x561c>
   1598c:	ba 00 00 00 00       	mov    $0x0,%edx
   15991:	48 8b 85 a8 ef ff ff 	mov    -0x1058(%rbp),%rax
   15998:	66 89 10             	mov    %dx,(%rax)
   1599b:	0f b7 00             	movzwl (%rax),%eax
   1599e:	66 85 c0             	test   %ax,%ax
   159a1:	74 10                	je     159b3 <func_13+0x563e>
   159a3:	80 bd e7 ee ff ff 00 	cmpb   $0x0,-0x1119(%rbp)
   159aa:	74 07                	je     159b3 <func_13+0x563e>
   159ac:	b8 01 00 00 00       	mov    $0x1,%eax
   159b1:	eb 05                	jmp    159b8 <func_13+0x5643>
   159b3:	b8 00 00 00 00       	mov    $0x0,%eax
   159b8:	3b 85 94 ef ff ff    	cmp    -0x106c(%rbp),%eax
   159be:	0f 9c c0             	setl   %al
   159c1:	0f b6 c0             	movzbl %al,%eax
   159c4:	be 06 00 00 00       	mov    $0x6,%esi
   159c9:	89 c7                	mov    %eax,%edi
   159cb:	e8 7c 82 ff ff       	callq  dc4c <safe_lshift_func_uint8_t_u_u>
   159d0:	0f b6 c0             	movzbl %al,%eax
   159d3:	41 39 c4             	cmp    %eax,%r12d
   159d6:	75 09                	jne    159e1 <func_13+0x566c>
   159d8:	83 bd 94 ef ff ff 00 	cmpl   $0x0,-0x106c(%rbp)
   159df:	74 07                	je     159e8 <func_13+0x5673>
   159e1:	b8 01 00 00 00       	mov    $0x1,%eax
   159e6:	eb 05                	jmp    159ed <func_13+0x5678>
   159e8:	b8 00 00 00 00       	mov    $0x0,%eax
   159ed:	48 98                	cltq   
   159ef:	48 21 c3             	and    %rax,%rbx
   159f2:	48 89 da             	mov    %rbx,%rdx
   159f5:	48 0f bf 85 d4 ee ff 	movswq -0x112c(%rbp),%rax
   159fc:	ff 
   159fd:	48 39 c2             	cmp    %rax,%rdx
   15a00:	0f 95 c0             	setne  %al
   15a03:	0f b6 c0             	movzbl %al,%eax
   15a06:	be 3d 00 00 00       	mov    $0x3d,%esi
   15a0b:	89 c7                	mov    %eax,%edi
   15a0d:	e8 9c 81 ff ff       	callq  dbae <safe_mod_func_uint8_t_u_u>
   15a12:	48 8b 95 48 f1 ff ff 	mov    -0xeb8(%rbp),%rdx
   15a19:	8b 12                	mov    (%rdx),%edx
   15a1b:	0f b6 c0             	movzbl %al,%eax
   15a1e:	31 c2                	xor    %eax,%edx
   15a20:	48 8b 85 48 f1 ff ff 	mov    -0xeb8(%rbp),%rax
   15a27:	89 10                	mov    %edx,(%rax)
   15a29:	48 8b 85 98 ef ff ff 	mov    -0x1068(%rbp),%rax
   15a30:	48 8b 00             	mov    (%rax),%rax
   15a33:	48 8b 00             	mov    (%rax),%rax
   15a36:	48 8b 95 48 f1 ff ff 	mov    -0xeb8(%rbp),%rdx
   15a3d:	8b 12                	mov    (%rdx),%edx
   15a3f:	89 10                	mov    %edx,(%rax)
   15a41:	48 8b 85 98 ef ff ff 	mov    -0x1068(%rbp),%rax
   15a48:	48 8b 00             	mov    (%rax),%rax
   15a4b:	48 8b 00             	mov    (%rax),%rax
   15a4e:	8b 00                	mov    (%rax),%eax
   15a50:	85 c0                	test   %eax,%eax
   15a52:	75 0f                	jne    15a63 <func_13+0x56ee>
   15a54:	48 8b 85 48 f1 ff ff 	mov    -0xeb8(%rbp),%rax
   15a5b:	8b 00                	mov    (%rax),%eax
   15a5d:	85 c0                	test   %eax,%eax
   15a5f:	75 32                	jne    15a93 <func_13+0x571e>
   15a61:	eb 01                	jmp    15a64 <func_13+0x56ef>
   15a63:	90                   	nop
   15a64:	0f b6 05 31 f8 00 00 	movzbl 0xf831(%rip),%eax        # 2529c <g_1194>
   15a6b:	66 98                	cbtw   
   15a6d:	0f b7 c0             	movzwl %ax,%eax
   15a70:	be 08 00 00 00       	mov    $0x8,%esi
   15a75:	89 c7                	mov    %eax,%edi
   15a77:	e8 a3 82 ff ff       	callq  dd1f <safe_sub_func_uint16_t_u_u>
   15a7c:	88 05 1a f8 00 00    	mov    %al,0xf81a(%rip)        # 2529c <g_1194>
   15a82:	0f b6 05 13 f8 00 00 	movzbl 0xf813(%rip),%eax        # 2529c <g_1194>
   15a89:	3c 12                	cmp    $0x12,%al
   15a8b:	0f 8f 66 fe ff ff    	jg     158f7 <func_13+0x5582>
   15a91:	eb 01                	jmp    15a94 <func_13+0x571f>
   15a93:	90                   	nop
   15a94:	0f b7 85 d4 ee ff ff 	movzwl -0x112c(%rbp),%eax
   15a9b:	48 8b 5d c8          	mov    -0x38(%rbp),%rbx
   15a9f:	64 48 33 1c 25 28 00 	xor    %fs:0x28,%rbx
   15aa6:	00 00 
   15aa8:	74 05                	je     15aaf <func_13+0x573a>
   15aaa:	e8 c1 75 ff ff       	callq  d070 <__stack_chk_fail@plt>
   15aaf:	48 81 c4 18 11 00 00 	add    $0x1118,%rsp
   15ab6:	5b                   	pop    %rbx
   15ab7:	41 5c                	pop    %r12
   15ab9:	41 5d                	pop    %r13
   15abb:	41 5e                	pop    %r14
   15abd:	41 5f                	pop    %r15
   15abf:	5d                   	pop    %rbp
   15ac0:	c3                   	retq   

0000000000015ac1 <func_18>:
   15ac1:	f3 0f 1e fa          	endbr64 
   15ac5:	55                   	push   %rbp
   15ac6:	48 89 e5             	mov    %rsp,%rbp
   15ac9:	41 57                	push   %r15
   15acb:	41 56                	push   %r14
   15acd:	41 55                	push   %r13
   15acf:	41 54                	push   %r12
   15ad1:	53                   	push   %rbx
   15ad2:	48 81 ec 00 10 00 00 	sub    $0x1000,%rsp
   15ad9:	48 83 0c 24 00       	orq    $0x0,(%rsp)
   15ade:	48 81 ec f8 00 00 00 	sub    $0xf8,%rsp
   15ae5:	48 89 bd e8 ee ff ff 	mov    %rdi,-0x1118(%rbp)
   15aec:	89 f0                	mov    %esi,%eax
   15aee:	66 89 85 e4 ee ff ff 	mov    %ax,-0x111c(%rbp)
   15af5:	64 48 8b 04 25 28 00 	mov    %fs:0x28,%rax
   15afc:	00 00 
   15afe:	48 89 45 c8          	mov    %rax,-0x38(%rbp)
   15b02:	31 c0                	xor    %eax,%eax
   15b04:	48 8d 05 1d 33 01 00 	lea    0x1331d(%rip),%rax        # 28e28 <g_858>
   15b0b:	48 89 85 e0 f3 ff ff 	mov    %rax,-0xc20(%rbp)
   15b12:	48 8d 05 0f 33 01 00 	lea    0x1330f(%rip),%rax        # 28e28 <g_858>
   15b19:	48 89 85 e8 f3 ff ff 	mov    %rax,-0xc18(%rbp)
   15b20:	48 8d 05 01 33 01 00 	lea    0x13301(%rip),%rax        # 28e28 <g_858>
   15b27:	48 89 85 f0 f3 ff ff 	mov    %rax,-0xc10(%rbp)
   15b2e:	48 8d 05 f3 32 01 00 	lea    0x132f3(%rip),%rax        # 28e28 <g_858>
   15b35:	48 89 85 f8 f3 ff ff 	mov    %rax,-0xc08(%rbp)
   15b3c:	48 8d 05 e5 32 01 00 	lea    0x132e5(%rip),%rax        # 28e28 <g_858>
   15b43:	48 89 85 00 f4 ff ff 	mov    %rax,-0xc00(%rbp)
   15b4a:	48 8d 05 d7 32 01 00 	lea    0x132d7(%rip),%rax        # 28e28 <g_858>
   15b51:	48 89 85 08 f4 ff ff 	mov    %rax,-0xbf8(%rbp)
   15b58:	48 8d 05 c9 32 01 00 	lea    0x132c9(%rip),%rax        # 28e28 <g_858>
   15b5f:	48 89 85 10 f4 ff ff 	mov    %rax,-0xbf0(%rbp)
   15b66:	48 8d 05 bb 32 01 00 	lea    0x132bb(%rip),%rax        # 28e28 <g_858>
   15b6d:	48 89 85 18 f4 ff ff 	mov    %rax,-0xbe8(%rbp)
   15b74:	48 8d 05 ad 32 01 00 	lea    0x132ad(%rip),%rax        # 28e28 <g_858>
   15b7b:	48 89 85 20 f4 ff ff 	mov    %rax,-0xbe0(%rbp)
   15b82:	48 8d 05 9f 32 01 00 	lea    0x1329f(%rip),%rax        # 28e28 <g_858>
   15b89:	48 89 85 28 f4 ff ff 	mov    %rax,-0xbd8(%rbp)
   15b90:	48 8d 05 91 32 01 00 	lea    0x13291(%rip),%rax        # 28e28 <g_858>
   15b97:	48 89 85 30 f4 ff ff 	mov    %rax,-0xbd0(%rbp)
   15b9e:	48 8d 05 83 32 01 00 	lea    0x13283(%rip),%rax        # 28e28 <g_858>
   15ba5:	48 89 85 38 f4 ff ff 	mov    %rax,-0xbc8(%rbp)
   15bac:	48 8d 05 7d 2f 01 00 	lea    0x12f7d(%rip),%rax        # 28b30 <g_485>
   15bb3:	48 89 85 a0 f3 ff ff 	mov    %rax,-0xc60(%rbp)
   15bba:	48 8d 05 6f 2f 01 00 	lea    0x12f6f(%rip),%rax        # 28b30 <g_485>
   15bc1:	48 89 85 a8 f3 ff ff 	mov    %rax,-0xc58(%rbp)
   15bc8:	48 8d 05 61 2f 01 00 	lea    0x12f61(%rip),%rax        # 28b30 <g_485>
   15bcf:	48 89 85 b0 f3 ff ff 	mov    %rax,-0xc50(%rbp)
   15bd6:	48 8d 05 53 2f 01 00 	lea    0x12f53(%rip),%rax        # 28b30 <g_485>
   15bdd:	48 89 85 b8 f3 ff ff 	mov    %rax,-0xc48(%rbp)
   15be4:	48 8d 05 45 2f 01 00 	lea    0x12f45(%rip),%rax        # 28b30 <g_485>
   15beb:	48 89 85 c0 f3 ff ff 	mov    %rax,-0xc40(%rbp)
   15bf2:	48 8d 05 37 2f 01 00 	lea    0x12f37(%rip),%rax        # 28b30 <g_485>
   15bf9:	48 89 85 c8 f3 ff ff 	mov    %rax,-0xc38(%rbp)
   15c00:	48 8d 05 29 2f 01 00 	lea    0x12f29(%rip),%rax        # 28b30 <g_485>
   15c07:	48 89 85 d0 f3 ff ff 	mov    %rax,-0xc30(%rbp)
   15c0e:	48 8d 05 1b 2f 01 00 	lea    0x12f1b(%rip),%rax        # 28b30 <g_485>
   15c15:	48 89 85 d8 f3 ff ff 	mov    %rax,-0xc28(%rbp)
   15c1c:	c7 85 0c ef ff ff ff 	movl   $0xffffffff,-0x10f4(%rbp)
   15c23:	ff ff ff 
   15c26:	48 c7 85 f8 ef ff ff 	movq   $0x0,-0x1008(%rbp)
   15c2d:	00 00 00 00 
   15c31:	48 8d 05 90 26 01 00 	lea    0x12690(%rip),%rax        # 282c8 <g_60>
   15c38:	48 89 85 00 f3 ff ff 	mov    %rax,-0xd00(%rbp)
   15c3f:	48 8d 05 82 26 01 00 	lea    0x12682(%rip),%rax        # 282c8 <g_60>
   15c46:	48 89 85 08 f3 ff ff 	mov    %rax,-0xcf8(%rbp)
   15c4d:	48 8d 05 74 26 01 00 	lea    0x12674(%rip),%rax        # 282c8 <g_60>
   15c54:	48 89 85 10 f3 ff ff 	mov    %rax,-0xcf0(%rbp)
   15c5b:	48 8d 05 66 26 01 00 	lea    0x12666(%rip),%rax        # 282c8 <g_60>
   15c62:	48 89 85 18 f3 ff ff 	mov    %rax,-0xce8(%rbp)
   15c69:	48 8d 05 58 26 01 00 	lea    0x12658(%rip),%rax        # 282c8 <g_60>
   15c70:	48 89 85 20 f3 ff ff 	mov    %rax,-0xce0(%rbp)
   15c77:	48 8d 05 4a 26 01 00 	lea    0x1264a(%rip),%rax        # 282c8 <g_60>
   15c7e:	48 89 85 28 f3 ff ff 	mov    %rax,-0xcd8(%rbp)
   15c85:	c7 85 10 ef ff ff ee 	movl   $0xb35b52ee,-0x10f0(%rbp)
   15c8c:	52 5b b3 
   15c8f:	c6 85 fc ee ff ff cd 	movb   $0xcd,-0x1104(%rbp)
   15c96:	48 c7 85 a0 f0 ff ff 	movq   $0x0,-0xf60(%rbp)
   15c9d:	00 00 00 00 
   15ca1:	48 8d 05 18 f6 00 00 	lea    0xf618(%rip),%rax        # 252c0 <g_1661>
   15ca8:	48 89 85 00 f0 ff ff 	mov    %rax,-0x1000(%rbp)
   15caf:	48 8d 85 00 f0 ff ff 	lea    -0x1000(%rbp),%rax
   15cb6:	48 89 85 08 f0 ff ff 	mov    %rax,-0xff8(%rbp)
   15cbd:	48 8d 85 08 f0 ff ff 	lea    -0xff8(%rbp),%rax
   15cc4:	48 89 85 a8 f0 ff ff 	mov    %rax,-0xf58(%rbp)
   15ccb:	48 b8 80 d5 86 4f 95 	movabs $0xf9551b954f86d580,%rax
   15cd2:	1b 55 f9 
   15cd5:	48 89 85 10 f0 ff ff 	mov    %rax,-0xff0(%rbp)
   15cdc:	48 8d 05 95 38 01 00 	lea    0x13895(%rip),%rax        # 29578 <g_1557+0x38>
   15ce3:	48 89 85 b0 f0 ff ff 	mov    %rax,-0xf50(%rbp)
   15cea:	48 c7 85 b8 f0 ff ff 	movq   $0x0,-0xf48(%rbp)
   15cf1:	00 00 00 00 
   15cf5:	48 c7 85 c0 f0 ff ff 	movq   $0x0,-0xf40(%rbp)
   15cfc:	00 00 00 00 
   15d00:	48 8d 85 10 f0 ff ff 	lea    -0xff0(%rbp),%rax
   15d07:	48 89 85 c8 f0 ff ff 	mov    %rax,-0xf38(%rbp)
   15d0e:	c6 85 fd ee ff ff 1e 	movb   $0x1e,-0x1103(%rbp)
   15d15:	48 8d 05 f8 f4 00 00 	lea    0xf4f8(%rip),%rax        # 25214 <g_188>
   15d1c:	48 89 85 18 f0 ff ff 	mov    %rax,-0xfe8(%rbp)
   15d23:	48 8d 85 18 f0 ff ff 	lea    -0xfe8(%rbp),%rax
   15d2a:	48 89 85 20 f0 ff ff 	mov    %rax,-0xfe0(%rbp)
   15d31:	48 8d 85 20 f0 ff ff 	lea    -0xfe0(%rbp),%rax
   15d38:	48 89 85 d0 f0 ff ff 	mov    %rax,-0xf30(%rbp)
   15d3f:	66 c7 85 04 ef ff ff 	movw   $0x9,-0x10fc(%rbp)
   15d46:	09 00 
   15d48:	66 c7 85 06 ef ff ff 	movw   $0x1,-0x10fa(%rbp)
   15d4f:	01 00 
   15d51:	c7 85 5c ef ff ff 01 	movl   $0x1,-0x10a4(%rbp)
   15d58:	00 00 00 
   15d5b:	48 8d 05 5e 43 01 00 	lea    0x1435e(%rip),%rax        # 2a0c0 <g_1806>
   15d62:	48 89 85 d8 f0 ff ff 	mov    %rax,-0xf28(%rbp)
   15d69:	66 c7 85 4c f2 ff ff 	movw   $0xf633,-0xdb4(%rbp)
   15d70:	33 f6 
   15d72:	66 c7 85 4e f2 ff ff 	movw   $0xf633,-0xdb2(%rbp)
   15d79:	33 f6 
   15d7b:	66 c7 85 50 f2 ff ff 	movw   $0xf633,-0xdb0(%rbp)
   15d82:	33 f6 
   15d84:	66 c7 85 52 f2 ff ff 	movw   $0xf633,-0xdae(%rbp)
   15d8b:	33 f6 
   15d8d:	48 8d 05 74 f4 00 00 	lea    0xf474(%rip),%rax        # 25208 <g_133+0x48>
   15d94:	48 89 85 e0 f0 ff ff 	mov    %rax,-0xf20(%rbp)
   15d9b:	c6 05 fa f4 00 00 00 	movb   $0x0,0xf4fa(%rip)        # 2529c <g_1194>
   15da2:	90                   	nop
   15da3:	0f b6 05 f2 f4 00 00 	movzbl 0xf4f2(%rip),%eax        # 2529c <g_1194>
   15daa:	3c 04                	cmp    $0x4,%al
   15dac:	0f 8f 0f 32 00 00    	jg     18fc1 <func_18+0x3500>
   15db2:	48 8d 05 17 23 01 00 	lea    0x12317(%rip),%rax        # 280d0 <g_42+0x3b0>
   15db9:	48 89 85 48 f1 ff ff 	mov    %rax,-0xeb8(%rbp)
   15dc0:	48 c7 85 28 f0 ff ff 	movq   $0x0,-0xfd8(%rbp)
   15dc7:	00 00 00 00 
   15dcb:	48 8d 85 28 f0 ff ff 	lea    -0xfd8(%rbp),%rax
   15dd2:	48 89 85 30 f0 ff ff 	mov    %rax,-0xfd0(%rbp)
   15dd9:	48 8d 85 30 f0 ff ff 	lea    -0xfd0(%rbp),%rax
   15de0:	48 89 85 38 f0 ff ff 	mov    %rax,-0xfc8(%rbp)
   15de7:	48 8d 85 38 f0 ff ff 	lea    -0xfc8(%rbp),%rax
   15dee:	48 89 85 40 f0 ff ff 	mov    %rax,-0xfc0(%rbp)
   15df5:	48 8d 85 40 f0 ff ff 	lea    -0xfc0(%rbp),%rax
   15dfc:	48 89 85 50 f1 ff ff 	mov    %rax,-0xeb0(%rbp)
   15e03:	c7 85 14 ef ff ff 7d 	movl   $0x531fca7d,-0x10ec(%rbp)
   15e0a:	ca 1f 53 
   15e0d:	c7 85 18 ef ff ff c4 	movl   $0xd378ddc4,-0x10e8(%rbp)
   15e14:	dd 78 d3 
   15e17:	c7 85 58 ef ff ff ff 	movl   $0xffffffff,-0x10a8(%rbp)
   15e1e:	ff ff ff 
   15e21:	48 8d 85 00 f3 ff ff 	lea    -0xd00(%rbp),%rax
   15e28:	48 83 c0 28          	add    $0x28,%rax
   15e2c:	48 89 85 48 f0 ff ff 	mov    %rax,-0xfb8(%rbp)
   15e33:	48 c7 85 58 f1 ff ff 	movq   $0x0,-0xea8(%rbp)
   15e3a:	00 00 00 00 
   15e3e:	c7 85 ac ef ff ff bd 	movl   $0xe12596bd,-0x1054(%rbp)
   15e45:	96 25 e1 
   15e48:	c7 85 b0 ef ff ff ab 	movl   $0x657f4aab,-0x1050(%rbp)
   15e4f:	4a 7f 65 
   15e52:	c7 85 1c ef ff ff 00 	movl   $0x0,-0x10e4(%rbp)
   15e59:	00 00 00 
   15e5c:	c7 85 20 ef ff ff f8 	movl   $0xfffffff8,-0x10e0(%rbp)
   15e63:	ff ff ff 
   15e66:	c7 85 24 ef ff ff 01 	movl   $0x1,-0x10dc(%rbp)
   15e6d:	00 00 00 
   15e70:	c7 85 b4 ef ff ff 07 	movl   $0x7,-0x104c(%rbp)
   15e77:	00 00 00 
   15e7a:	48 8d 85 48 f0 ff ff 	lea    -0xfb8(%rbp),%rax
   15e81:	48 89 85 88 f0 ff ff 	mov    %rax,-0xf78(%rbp)
   15e88:	c7 85 54 ef ff ff 00 	movl   $0x0,-0x10ac(%rbp)
   15e8f:	00 00 00 
   15e92:	eb 1a                	jmp    15eae <func_18+0x3ed>
   15e94:	8b 85 54 ef ff ff    	mov    -0x10ac(%rbp),%eax
   15e9a:	48 98                	cltq   
   15e9c:	c7 84 85 c0 f4 ff ff 	movl   $0x863c6cb6,-0xb40(%rbp,%rax,4)
   15ea3:	b6 6c 3c 86 
   15ea7:	83 85 54 ef ff ff 01 	addl   $0x1,-0x10ac(%rbp)
   15eae:	83 bd 54 ef ff ff 07 	cmpl   $0x7,-0x10ac(%rbp)
   15eb5:	7e dd                	jle    15e94 <func_18+0x3d3>
   15eb7:	66 c7 05 54 f3 00 00 	movw   $0x1,0xf354(%rip)        # 25214 <g_188>
   15ebe:	01 00 
   15ec0:	e9 da 30 00 00       	jmpq   18f9f <func_18+0x34de>
   15ec5:	c6 85 fb ee ff ff ed 	movb   $0xed,-0x1105(%rbp)
   15ecc:	c7 85 4c ef ff ff 5a 	movl   $0x7df7bc5a,-0x10b4(%rbp)
   15ed3:	bc f7 7d 
   15ed6:	48 c7 85 60 f1 ff ff 	movq   $0x0,-0xea0(%rbp)
   15edd:	00 00 00 00 
   15ee1:	48 c7 85 68 f1 ff ff 	movq   $0x0,-0xe98(%rbp)
   15ee8:	00 00 00 00 
   15eec:	48 c7 85 50 f0 ff ff 	movq   $0x0,-0xfb0(%rbp)
   15ef3:	00 00 00 00 
   15ef7:	48 c7 85 58 f0 ff ff 	movq   $0x0,-0xfa8(%rbp)
   15efe:	00 00 00 00 
   15f02:	48 8d 85 58 f0 ff ff 	lea    -0xfa8(%rbp),%rax
   15f09:	48 89 85 60 f0 ff ff 	mov    %rax,-0xfa0(%rbp)
   15f10:	48 b8 1c 40 da d1 d1 	movabs $0xb49c05d1d1da401c,%rax
   15f17:	05 9c b4 
   15f1a:	48 89 85 70 f1 ff ff 	mov    %rax,-0xe90(%rbp)
   15f21:	48 8d 85 28 f0 ff ff 	lea    -0xfd8(%rbp),%rax
   15f28:	48 89 85 78 f1 ff ff 	mov    %rax,-0xe88(%rbp)
   15f2f:	48 8d 05 f2 2e 01 00 	lea    0x12ef2(%rip),%rax        # 28e28 <g_858>
   15f36:	48 89 85 80 f1 ff ff 	mov    %rax,-0xe80(%rbp)
   15f3d:	c6 85 01 ef ff ff 50 	movb   $0x50,-0x10ff(%rbp)
   15f44:	c7 85 50 ef ff ff 00 	movl   $0x0,-0x10b0(%rbp)
   15f4b:	00 00 00 
   15f4e:	eb 1a                	jmp    15f6a <func_18+0x4a9>
   15f50:	8b 85 50 ef ff ff    	mov    -0x10b0(%rbp),%eax
   15f56:	48 98                	cltq   
   15f58:	c7 84 85 30 f3 ff ff 	movl   $0x3,-0xcd0(%rbp,%rax,4)
   15f5f:	03 00 00 00 
   15f63:	83 85 50 ef ff ff 01 	addl   $0x1,-0x10b0(%rbp)
   15f6a:	83 bd 50 ef ff ff 01 	cmpl   $0x1,-0x10b0(%rbp)
   15f71:	7e dd                	jle    15f50 <func_18+0x48f>
   15f73:	c7 85 50 ef ff ff 00 	movl   $0x0,-0x10b0(%rbp)
   15f7a:	00 00 00 
   15f7d:	eb 1e                	jmp    15f9d <func_18+0x4dc>
   15f7f:	8b 85 50 ef ff ff    	mov    -0x10b0(%rbp),%eax
   15f85:	48 98                	cltq   
   15f87:	48 8d 15 3a 23 01 00 	lea    0x1233a(%rip),%rdx        # 282c8 <g_60>
   15f8e:	48 89 94 c5 60 f3 ff 	mov    %rdx,-0xca0(%rbp,%rax,8)
   15f95:	ff 
   15f96:	83 85 50 ef ff ff 01 	addl   $0x1,-0x10b0(%rbp)
   15f9d:	83 bd 50 ef ff ff 01 	cmpl   $0x1,-0x10b0(%rbp)
   15fa4:	7e d9                	jle    15f7f <func_18+0x4be>
   15fa6:	c7 85 50 ef ff ff 00 	movl   $0x0,-0x10b0(%rbp)
   15fad:	00 00 00 
   15fb0:	eb 19                	jmp    15fcb <func_18+0x50a>
   15fb2:	8b 85 50 ef ff ff    	mov    -0x10b0(%rbp),%eax
   15fb8:	48 98                	cltq   
   15fba:	66 c7 84 45 d0 f2 ff 	movw   $0x0,-0xd30(%rbp,%rax,2)
   15fc1:	ff 00 00 
   15fc4:	83 85 50 ef ff ff 01 	addl   $0x1,-0x10b0(%rbp)
   15fcb:	83 bd 50 ef ff ff 01 	cmpl   $0x1,-0x10b0(%rbp)
   15fd2:	7e de                	jle    15fb2 <func_18+0x4f1>
   15fd4:	66 c7 05 63 f2 00 00 	movw   $0x0,0xf263(%rip)        # 25240 <g_807>
   15fdb:	00 00 
   15fdd:	e9 0d 2e 00 00       	jmpq   18def <func_18+0x332e>
   15fe2:	c6 85 02 ef ff ff 01 	movb   $0x1,-0x10fe(%rbp)
   15fe9:	c7 85 b8 ef ff ff ff 	movl   $0xffffffff,-0x1048(%rbp)
   15ff0:	ff ff ff 
   15ff3:	48 c7 85 88 f1 ff ff 	movq   $0x0,-0xe78(%rbp)
   15ffa:	00 00 00 00 
   15ffe:	48 8d 05 91 f1 00 00 	lea    0xf191(%rip),%rax        # 25196 <g_70>
   16005:	48 89 85 90 f1 ff ff 	mov    %rax,-0xe70(%rbp)
   1600c:	48 c7 85 98 f1 ff ff 	movq   $0x0,-0xe68(%rbp)
   16013:	00 00 00 00 
   16017:	48 c7 85 a0 f1 ff ff 	movq   $0x0,-0xe60(%rbp)
   1601e:	00 00 00 00 
   16022:	48 8d 05 5f f1 00 00 	lea    0xf15f(%rip),%rax        # 25188 <g_63>
   16029:	48 89 85 a8 f1 ff ff 	mov    %rax,-0xe58(%rbp)
   16030:	48 8d 05 5d f1 00 00 	lea    0xf15d(%rip),%rax        # 25194 <g_68>
   16037:	48 89 85 68 f0 ff ff 	mov    %rax,-0xf98(%rbp)
   1603e:	48 8d 05 63 f2 00 00 	lea    0xf263(%rip),%rax        # 252a8 <g_1438+0x4>
   16045:	48 89 85 b0 f1 ff ff 	mov    %rax,-0xe50(%rbp)
   1604c:	48 c7 85 b8 f1 ff ff 	movq   $0x0,-0xe48(%rbp)
   16053:	00 00 00 00 
   16057:	c7 85 28 ef ff ff 01 	movl   $0x1,-0x10d8(%rbp)
   1605e:	00 00 00 
   16061:	c7 85 2c ef ff ff d9 	movl   $0xb6a3abd9,-0x10d4(%rbp)
   16068:	ab a3 b6 
   1606b:	c7 85 50 f5 ff ff 0d 	movl   $0x7b067d0d,-0xab0(%rbp)
   16072:	7d 06 7b 
   16075:	c7 85 54 f5 ff ff 35 	movl   $0x851a9a35,-0xaac(%rbp)
   1607c:	9a 1a 85 
   1607f:	c7 85 58 f5 ff ff 35 	movl   $0x851a9a35,-0xaa8(%rbp)
   16086:	9a 1a 85 
   16089:	c7 85 5c f5 ff ff 0d 	movl   $0x7b067d0d,-0xaa4(%rbp)
   16090:	7d 06 7b 
   16093:	c7 85 60 f5 ff ff 35 	movl   $0x851a9a35,-0xaa0(%rbp)
   1609a:	9a 1a 85 
   1609d:	c7 85 64 f5 ff ff 35 	movl   $0x851a9a35,-0xa9c(%rbp)
   160a4:	9a 1a 85 
   160a7:	c7 85 68 f5 ff ff 0d 	movl   $0x7b067d0d,-0xa98(%rbp)
   160ae:	7d 06 7b 
   160b1:	c7 85 6c f5 ff ff 35 	movl   $0x851a9a35,-0xa94(%rbp)
   160b8:	9a 1a 85 
   160bb:	c7 85 70 f5 ff ff 0d 	movl   $0x7b067d0d,-0xa90(%rbp)
   160c2:	7d 06 7b 
   160c5:	c7 85 74 f5 ff ff 0d 	movl   $0x7b067d0d,-0xa8c(%rbp)
   160cc:	7d 06 7b 
   160cf:	c7 85 78 f5 ff ff 93 	movl   $0x558fc493,-0xa88(%rbp)
   160d6:	c4 8f 55 
   160d9:	c7 85 7c f5 ff ff 0d 	movl   $0x7b067d0d,-0xa84(%rbp)
   160e0:	7d 06 7b 
   160e3:	c7 85 80 f5 ff ff 0d 	movl   $0x7b067d0d,-0xa80(%rbp)
   160ea:	7d 06 7b 
   160ed:	c7 85 84 f5 ff ff 93 	movl   $0x558fc493,-0xa7c(%rbp)
   160f4:	c4 8f 55 
   160f7:	c7 85 88 f5 ff ff 0d 	movl   $0x7b067d0d,-0xa78(%rbp)
   160fe:	7d 06 7b 
   16101:	c7 85 8c f5 ff ff 0d 	movl   $0x7b067d0d,-0xa74(%rbp)
   16108:	7d 06 7b 
   1610b:	c7 85 90 f5 ff ff 35 	movl   $0x851a9a35,-0xa70(%rbp)
   16112:	9a 1a 85 
   16115:	c7 85 94 f5 ff ff 35 	movl   $0x851a9a35,-0xa6c(%rbp)
   1611c:	9a 1a 85 
   1611f:	c7 85 98 f5 ff ff 93 	movl   $0x558fc493,-0xa68(%rbp)
   16126:	c4 8f 55 
   16129:	c7 85 9c f5 ff ff 93 	movl   $0x558fc493,-0xa64(%rbp)
   16130:	c4 8f 55 
   16133:	c7 85 a0 f5 ff ff 35 	movl   $0x851a9a35,-0xa60(%rbp)
   1613a:	9a 1a 85 
   1613d:	c7 85 a4 f5 ff ff 93 	movl   $0x558fc493,-0xa5c(%rbp)
   16144:	c4 8f 55 
   16147:	c7 85 a8 f5 ff ff 93 	movl   $0x558fc493,-0xa58(%rbp)
   1614e:	c4 8f 55 
   16151:	c7 85 ac f5 ff ff 35 	movl   $0x851a9a35,-0xa54(%rbp)
   16158:	9a 1a 85 
   1615b:	c7 85 b0 f5 ff ff 35 	movl   $0x851a9a35,-0xa50(%rbp)
   16162:	9a 1a 85 
   16165:	c7 85 b4 f5 ff ff 93 	movl   $0x558fc493,-0xa4c(%rbp)
   1616c:	c4 8f 55 
   1616f:	c7 85 b8 f5 ff ff 93 	movl   $0x558fc493,-0xa48(%rbp)
   16176:	c4 8f 55 
   16179:	c7 85 bc f5 ff ff 35 	movl   $0x851a9a35,-0xa44(%rbp)
   16180:	9a 1a 85 
   16183:	c7 85 c0 f5 ff ff 93 	movl   $0x558fc493,-0xa40(%rbp)
   1618a:	c4 8f 55 
   1618d:	c7 85 c4 f5 ff ff 93 	movl   $0x558fc493,-0xa3c(%rbp)
   16194:	c4 8f 55 
   16197:	c7 85 c8 f5 ff ff 35 	movl   $0x851a9a35,-0xa38(%rbp)
   1619e:	9a 1a 85 
   161a1:	c7 85 cc f5 ff ff 93 	movl   $0x558fc493,-0xa34(%rbp)
   161a8:	c4 8f 55 
   161ab:	48 8d 85 0c ef ff ff 	lea    -0x10f4(%rbp),%rax
   161b2:	48 89 85 90 f0 ff ff 	mov    %rax,-0xf70(%rbp)
   161b9:	48 c7 85 c0 f1 ff ff 	movq   $0x0,-0xe40(%rbp)
   161c0:	00 00 00 00 
   161c4:	66 c7 85 0a ef ff ff 	movw   $0x1,-0x10f6(%rbp)
   161cb:	01 00 
   161cd:	48 8d 05 14 29 01 00 	lea    0x12914(%rip),%rax        # 28ae8 <g_429>
   161d4:	48 89 85 70 f0 ff ff 	mov    %rax,-0xf90(%rbp)
   161db:	48 8d 85 70 f0 ff ff 	lea    -0xf90(%rbp),%rax
   161e2:	48 89 85 c8 f1 ff ff 	mov    %rax,-0xe38(%rbp)
   161e9:	66 c7 05 a4 ef 00 00 	movw   $0x0,0xefa4(%rip)        # 25196 <g_70>
   161f0:	00 00 
   161f2:	e9 9c 04 00 00       	jmpq   16693 <func_18+0xbd2>
   161f7:	48 8d 05 5e ee 00 00 	lea    0xee5e(%rip),%rax        # 2505c <g_43+0x1c>
   161fe:	48 89 85 38 f2 ff ff 	mov    %rax,-0xdc8(%rbp)
   16205:	48 8d 85 30 f8 ff ff 	lea    -0x7d0(%rbp),%rax
   1620c:	48 8d 15 0d 04 01 00 	lea    0x1040d(%rip),%rdx        # 26620 <g_3117+0x1254>
   16213:	b9 48 00 00 00       	mov    $0x48,%ecx
   16218:	48 89 c7             	mov    %rax,%rdi
   1621b:	48 89 d6             	mov    %rdx,%rsi
   1621e:	f3 48 a5             	rep movsq %ds:(%rsi),%es:(%rdi)
   16221:	48 c7 85 40 f2 ff ff 	movq   $0x0,-0xdc0(%rbp)
   16228:	00 00 00 00 
   1622c:	48 8d 05 35 f0 00 00 	lea    0xf035(%rip),%rax        # 25268 <g_871+0x8>
   16233:	48 89 85 70 f6 ff ff 	mov    %rax,-0x990(%rbp)
   1623a:	48 8d 05 27 f0 00 00 	lea    0xf027(%rip),%rax        # 25268 <g_871+0x8>
   16241:	48 89 85 78 f6 ff ff 	mov    %rax,-0x988(%rbp)
   16248:	48 8d 05 19 f0 00 00 	lea    0xf019(%rip),%rax        # 25268 <g_871+0x8>
   1624f:	48 89 85 80 f6 ff ff 	mov    %rax,-0x980(%rbp)
   16256:	48 8d 05 0b f0 00 00 	lea    0xf00b(%rip),%rax        # 25268 <g_871+0x8>
   1625d:	48 89 85 88 f6 ff ff 	mov    %rax,-0x978(%rbp)
   16264:	48 8d 05 fd ef 00 00 	lea    0xeffd(%rip),%rax        # 25268 <g_871+0x8>
   1626b:	48 89 85 90 f6 ff ff 	mov    %rax,-0x970(%rbp)
   16272:	48 8d 05 ef ef 00 00 	lea    0xefef(%rip),%rax        # 25268 <g_871+0x8>
   16279:	48 89 85 98 f6 ff ff 	mov    %rax,-0x968(%rbp)
   16280:	48 8d 05 e1 ef 00 00 	lea    0xefe1(%rip),%rax        # 25268 <g_871+0x8>
   16287:	48 89 85 a0 f6 ff ff 	mov    %rax,-0x960(%rbp)
   1628e:	48 8d 05 d3 ef 00 00 	lea    0xefd3(%rip),%rax        # 25268 <g_871+0x8>
   16295:	48 89 85 a8 f6 ff ff 	mov    %rax,-0x958(%rbp)
   1629c:	0f b7 85 e4 ee ff ff 	movzwl -0x111c(%rbp),%eax
   162a3:	0f b7 d8             	movzwl %ax,%ebx
   162a6:	0f be 85 02 ef ff ff 	movsbl -0x10fe(%rbp),%eax
   162ad:	be 03 00 00 00       	mov    $0x3,%esi
   162b2:	89 c7                	mov    %eax,%edi
   162b4:	e8 d9 71 ff ff       	callq  d492 <safe_lshift_func_int16_t_s_s>
   162b9:	66 3d dc 79          	cmp    $0x79dc,%ax
   162bd:	0f 9e c0             	setle  %al
   162c0:	0f b6 c0             	movzbl %al,%eax
   162c3:	89 85 b8 ef ff ff    	mov    %eax,-0x1048(%rbp)
   162c9:	8b 85 b8 ef ff ff    	mov    -0x1048(%rbp),%eax
   162cf:	0f b6 c0             	movzbl %al,%eax
   162d2:	be 04 00 00 00       	mov    $0x4,%esi
   162d7:	89 c7                	mov    %eax,%edi
   162d9:	e8 6e 79 ff ff       	callq  dc4c <safe_lshift_func_uint8_t_u_u>
   162de:	84 c0                	test   %al,%al
   162e0:	75 0c                	jne    162ee <func_18+0x82d>
   162e2:	0f b7 85 e4 ee ff ff 	movzwl -0x111c(%rbp),%eax
   162e9:	66 85 c0             	test   %ax,%ax
   162ec:	74 07                	je     162f5 <func_18+0x834>
   162ee:	ba 01 00 00 00       	mov    $0x1,%edx
   162f3:	eb 05                	jmp    162fa <func_18+0x839>
   162f5:	ba 00 00 00 00       	mov    $0x0,%edx
   162fa:	0f b7 85 e4 ee ff ff 	movzwl -0x111c(%rbp),%eax
   16301:	0f b7 c0             	movzwl %ax,%eax
   16304:	39 c2                	cmp    %eax,%edx
   16306:	0f 94 c0             	sete   %al
   16309:	0f b6 c0             	movzbl %al,%eax
   1630c:	89 de                	mov    %ebx,%esi
   1630e:	89 c7                	mov    %eax,%edi
   16310:	e8 57 70 ff ff       	callq  d36c <safe_rshift_func_int8_t_s_u>
   16315:	66 98                	cbtw   
   16317:	0f b7 d0             	movzwl %ax,%edx
   1631a:	48 8b 85 38 f2 ff ff 	mov    -0xdc8(%rbp),%rax
   16321:	0f b7 00             	movzwl (%rax),%eax
   16324:	66 25 18 62          	and    $0x6218,%ax
   16328:	89 c1                	mov    %eax,%ecx
   1632a:	48 8b 85 38 f2 ff ff 	mov    -0xdc8(%rbp),%rax
   16331:	66 89 08             	mov    %cx,(%rax)
   16334:	48 8b 85 38 f2 ff ff 	mov    -0xdc8(%rbp),%rax
   1633b:	0f b7 00             	movzwl (%rax),%eax
   1633e:	0f b7 c0             	movzwl %ax,%eax
   16341:	89 d6                	mov    %edx,%esi
   16343:	89 c7                	mov    %eax,%edi
   16345:	e8 44 7a ff ff       	callq  dd8e <safe_div_func_uint16_t_u_u>
   1634a:	0f b7 d8             	movzwl %ax,%ebx
   1634d:	0f b6 85 fb ee ff ff 	movzbl -0x1105(%rbp),%eax
   16354:	66 98                	cbtw   
   16356:	0f b7 d0             	movzwl %ax,%edx
   16359:	48 8b 05 f0 2e 01 00 	mov    0x12ef0(%rip),%rax        # 29250 <g_1349>
   16360:	48 89 85 18 f4 ff ff 	mov    %rax,-0xbe8(%rbp)
   16367:	48 8b 85 18 f4 ff ff 	mov    -0xbe8(%rbp),%rax
   1636e:	48 85 c0             	test   %rax,%rax
   16371:	0f 95 c0             	setne  %al
   16374:	0f b6 c8             	movzbl %al,%ecx
   16377:	8b 05 b3 ee 00 00    	mov    0xeeb3(%rip),%eax        # 25230 <g_450>
   1637d:	39 c1                	cmp    %eax,%ecx
   1637f:	0f 93 c0             	setae  %al
   16382:	0f b6 c0             	movzbl %al,%eax
   16385:	89 d6                	mov    %edx,%esi
   16387:	89 c7                	mov    %eax,%edi
   16389:	e8 71 79 ff ff       	callq  dcff <safe_add_func_uint16_t_u_u>
   1638e:	0f b7 c0             	movzwl %ax,%eax
   16391:	be f8 09 00 00       	mov    $0x9f8,%esi
   16396:	89 c7                	mov    %eax,%edi
   16398:	e8 82 79 ff ff       	callq  dd1f <safe_sub_func_uint16_t_u_u>
   1639d:	66 85 c0             	test   %ax,%ax
   163a0:	74 07                	je     163a9 <func_18+0x8e8>
   163a2:	b8 01 00 00 00       	mov    $0x1,%eax
   163a7:	eb 05                	jmp    163ae <func_18+0x8ed>
   163a9:	b8 00 00 00 00       	mov    $0x0,%eax
   163ae:	39 d8                	cmp    %ebx,%eax
   163b0:	0f 9c c0             	setl   %al
   163b3:	0f b6 c0             	movzbl %al,%eax
   163b6:	be 2e 00 00 00       	mov    $0x2e,%esi
   163bb:	89 c7                	mov    %eax,%edi
   163bd:	e8 d1 77 ff ff       	callq  db93 <safe_mul_func_uint8_t_u_u>
   163c2:	48 8b 05 ff 1e 01 00 	mov    0x11eff(%rip),%rax        # 282c8 <g_60>
   163c9:	48 8b 00             	mov    (%rax),%rax
   163cc:	8b 00                	mov    (%rax),%eax
   163ce:	21 85 4c ef ff ff    	and    %eax,-0x10b4(%rbp)
   163d4:	bf 09 00 00 00       	mov    $0x9,%edi
   163d9:	e8 0b 79 ff ff       	callq  dce9 <safe_unary_minus_func_uint16_t_u>
   163de:	0f b7 c0             	movzwl %ax,%eax
   163e1:	89 c7                	mov    %eax,%edi
   163e3:	e8 01 79 ff ff       	callq  dce9 <safe_unary_minus_func_uint16_t_u>
   163e8:	0f b7 85 e4 ee ff ff 	movzwl -0x111c(%rbp),%eax
   163ef:	0f b7 c0             	movzwl %ax,%eax
   163f2:	be 06 00 00 00       	mov    $0x6,%esi
   163f7:	48 89 c7             	mov    %rax,%rdi
   163fa:	e8 a9 74 ff ff       	callq  d8a8 <safe_sub_func_int64_t_s_s>
   163ff:	48 83 bd 48 f1 ff ff 	cmpq   $0x0,-0xeb8(%rbp)
   16406:	00 
   16407:	0f 95 c0             	setne  %al
   1640a:	0f b6 d0             	movzbl %al,%edx
   1640d:	0f b7 85 e4 ee ff ff 	movzwl -0x111c(%rbp),%eax
   16414:	0f b7 c0             	movzwl %ax,%eax
   16417:	09 d0                	or     %edx,%eax
   16419:	85 c0                	test   %eax,%eax
   1641b:	74 13                	je     16430 <func_18+0x96f>
   1641d:	0f b7 85 e4 ee ff ff 	movzwl -0x111c(%rbp),%eax
   16424:	66 85 c0             	test   %ax,%ax
   16427:	74 07                	je     16430 <func_18+0x96f>
   16429:	b8 01 00 00 00       	mov    $0x1,%eax
   1642e:	eb 05                	jmp    16435 <func_18+0x974>
   16430:	b8 00 00 00 00       	mov    $0x0,%eax
   16435:	0f b6 c0             	movzbl %al,%eax
   16438:	be 07 00 00 00       	mov    $0x7,%esi
   1643d:	89 c7                	mov    %eax,%edi
   1643f:	e8 7a 78 ff ff       	callq  dcbe <safe_rshift_func_uint8_t_u_u>
   16444:	0f b6 d0             	movzbl %al,%edx
   16447:	48 8b 85 38 f2 ff ff 	mov    -0xdc8(%rbp),%rax
   1644e:	66 89 10             	mov    %dx,(%rax)
   16451:	48 8b 85 38 f2 ff ff 	mov    -0xdc8(%rbp),%rax
   16458:	0f b7 00             	movzwl (%rax),%eax
   1645b:	66 85 c0             	test   %ax,%ax
   1645e:	0f 95 c0             	setne  %al
   16461:	0f b6 d0             	movzbl %al,%edx
   16464:	48 8b 05 7d 26 01 00 	mov    0x1267d(%rip),%rax        # 28ae8 <g_429>
   1646b:	48 8b 08             	mov    (%rax),%rcx
   1646e:	48 63 d2             	movslq %edx,%rdx
   16471:	48 8b 05 70 26 01 00 	mov    0x12670(%rip),%rax        # 28ae8 <g_429>
   16478:	48 09 ca             	or     %rcx,%rdx
   1647b:	48 89 10             	mov    %rdx,(%rax)
   1647e:	48 8b 00             	mov    (%rax),%rax
   16481:	48 8b 1d d0 2d 01 00 	mov    0x12dd0(%rip),%rbx        # 29258 <g_1366>
   16488:	48 8b 95 38 f2 ff ff 	mov    -0xdc8(%rbp),%rdx
   1648f:	48 89 c6             	mov    %rax,%rsi
   16492:	bf 01 00 00 00       	mov    $0x1,%edi
   16497:	e8 0c 94 00 00       	callq  1f8a8 <func_38>
   1649c:	48 89 03             	mov    %rax,(%rbx)
   1649f:	48 8b 05 3a 2b 01 00 	mov    0x12b3a(%rip),%rax        # 28fe0 <g_1078>
   164a6:	0f b7 00             	movzwl (%rax),%eax
   164a9:	0f bf d8             	movswl %ax,%ebx
   164ac:	0f b7 05 df ed 00 00 	movzwl 0xeddf(%rip),%eax        # 25292 <g_1084+0x2>
   164b3:	44 0f bf f8          	movswl %ax,%r15d
   164b7:	0f b7 85 e4 ee ff ff 	movzwl -0x111c(%rbp),%eax
   164be:	44 0f b7 e0          	movzwl %ax,%r12d
   164c2:	0f b7 85 e4 ee ff ff 	movzwl -0x111c(%rbp),%eax
   164c9:	44 0f be e8          	movsbl %al,%r13d
   164cd:	0f b7 85 e4 ee ff ff 	movzwl -0x111c(%rbp),%eax
   164d4:	44 0f b7 f0          	movzwl %ax,%r14d
   164d8:	0f b7 85 e4 ee ff ff 	movzwl -0x111c(%rbp),%eax
   164df:	0f b6 d0             	movzbl %al,%edx
   164e2:	48 8b 85 e8 ee ff ff 	mov    -0x1118(%rbp),%rax
   164e9:	8b 00                	mov    (%rax),%eax
   164eb:	89 c6                	mov    %eax,%esi
   164ed:	48 8b 05 3c 29 01 00 	mov    0x1293c(%rip),%rax        # 28e30 <g_857>
   164f4:	48 8b 08             	mov    (%rax),%rcx
   164f7:	48 8b 05 02 26 01 00 	mov    0x12602(%rip),%rax        # 28b00 <g_447>
   164fe:	48 8b 00             	mov    (%rax),%rax
   16501:	48 39 c1             	cmp    %rax,%rcx
   16504:	0f 94 c0             	sete   %al
   16507:	21 f0                	and    %esi,%eax
   16509:	0f b6 c0             	movzbl %al,%eax
   1650c:	89 d6                	mov    %edx,%esi
   1650e:	89 c7                	mov    %eax,%edi
   16510:	e8 c6 76 ff ff       	callq  dbdb <safe_div_func_uint8_t_u_u>
   16515:	48 83 bd 50 f1 ff ff 	cmpq   $0x0,-0xeb0(%rbp)
   1651c:	00 
   1651d:	0f 95 c0             	setne  %al
   16520:	0f b6 c0             	movzbl %al,%eax
   16523:	44 89 f6             	mov    %r14d,%esi
   16526:	89 c7                	mov    %eax,%edi
   16528:	e8 b4 6f ff ff       	callq  d4e1 <safe_lshift_func_int16_t_s_u>
   1652d:	0f bf d0             	movswl %ax,%edx
   16530:	48 8b 85 e8 ee ff ff 	mov    -0x1118(%rbp),%rax
   16537:	8b 00                	mov    (%rax),%eax
   16539:	39 c2                	cmp    %eax,%edx
   1653b:	0f 9d c0             	setge  %al
   1653e:	0f b6 c0             	movzbl %al,%eax
   16541:	44 89 ee             	mov    %r13d,%esi
   16544:	89 c7                	mov    %eax,%edi
   16546:	e8 89 6c ff ff       	callq  d1d4 <safe_add_func_int8_t_s_s>
   1654b:	0f be d0             	movsbl %al,%edx
   1654e:	0f b7 85 e4 ee ff ff 	movzwl -0x111c(%rbp),%eax
   16555:	0f b7 c0             	movzwl %ax,%eax
   16558:	39 c2                	cmp    %eax,%edx
   1655a:	75 07                	jne    16563 <func_18+0xaa2>
   1655c:	b8 01 00 00 00       	mov    $0x1,%eax
   16561:	eb 05                	jmp    16568 <func_18+0xaa7>
   16563:	b8 00 00 00 00       	mov    $0x0,%eax
   16568:	98                   	cwtl   
   16569:	be cc e9 ff ff       	mov    $0xffffe9cc,%esi
   1656e:	89 c7                	mov    %eax,%edi
   16570:	e8 a1 6e ff ff       	callq  d416 <safe_mod_func_int16_t_s_s>
   16575:	0f bf d0             	movswl %ax,%edx
   16578:	48 8b 05 d1 2c 01 00 	mov    0x12cd1(%rip),%rax        # 29250 <g_1349>
   1657f:	48 8b 00             	mov    (%rax),%rax
   16582:	48 8b 00             	mov    (%rax),%rax
   16585:	8b 00                	mov    (%rax),%eax
   16587:	39 c2                	cmp    %eax,%edx
   16589:	0f 93 c0             	setae  %al
   1658c:	0f b6 d0             	movzbl %al,%edx
   1658f:	8b 85 4c ef ff ff    	mov    -0x10b4(%rbp),%eax
   16595:	89 d6                	mov    %edx,%esi
   16597:	89 c7                	mov    %eax,%edi
   16599:	e8 18 70 ff ff       	callq  d5b6 <safe_add_func_int32_t_s_s>
   1659e:	f7 d0                	not    %eax
   165a0:	c1 e8 1f             	shr    $0x1f,%eax
   165a3:	0f b6 c0             	movzbl %al,%eax
   165a6:	44 89 e6             	mov    %r12d,%esi
   165a9:	89 c7                	mov    %eax,%edi
   165ab:	e8 85 6d ff ff       	callq  d335 <safe_rshift_func_int8_t_s_s>
   165b0:	0f be c0             	movsbl %al,%eax
   165b3:	44 21 f8             	and    %r15d,%eax
   165b6:	41 89 c4             	mov    %eax,%r12d
   165b9:	0f b7 85 e4 ee ff ff 	movzwl -0x111c(%rbp),%eax
   165c0:	0f b7 c0             	movzwl %ax,%eax
   165c3:	48 89 c6             	mov    %rax,%rsi
   165c6:	bf 01 00 00 00       	mov    $0x1,%edi
   165cb:	e8 27 74 ff ff       	callq  d9f7 <safe_div_func_int64_t_s_s>
   165d0:	44 89 e6             	mov    %r12d,%esi
   165d3:	89 c7                	mov    %eax,%edi
   165d5:	e8 23 79 ff ff       	callq  defd <safe_mod_func_uint32_t_u_u>
   165da:	89 c0                	mov    %eax,%eax
   165dc:	48 be be a0 4c a4 37 	movabs $0xb8183d37a44ca0be,%rsi
   165e3:	3d 18 b8 
   165e6:	48 89 c7             	mov    %rax,%rdi
   165e9:	e8 09 74 ff ff       	callq  d9f7 <safe_div_func_int64_t_s_s>
   165ee:	0f b7 95 e4 ee ff ff 	movzwl -0x111c(%rbp),%edx
   165f5:	0f b7 d2             	movzwl %dx,%edx
   165f8:	48 39 d0             	cmp    %rdx,%rax
   165fb:	7c 07                	jl     16604 <func_18+0xb43>
   165fd:	ba 31 04 7a 40       	mov    $0x407a0431,%edx
   16602:	eb 05                	jmp    16609 <func_18+0xb48>
   16604:	ba 30 04 7a 40       	mov    $0x407a0430,%edx
   16609:	48 0f be 85 02 ef ff 	movsbq -0x10fe(%rbp),%rax
   16610:	ff 
   16611:	48 39 c2             	cmp    %rax,%rdx
   16614:	0f 9c c2             	setl   %dl
   16617:	48 8b 85 e8 ee ff ff 	mov    -0x1118(%rbp),%rax
   1661e:	0f b6 d2             	movzbl %dl,%edx
   16621:	89 10                	mov    %edx,(%rax)
   16623:	8b 10                	mov    (%rax),%edx
   16625:	0f b7 85 e4 ee ff ff 	movzwl -0x111c(%rbp),%eax
   1662c:	0f b7 c0             	movzwl %ax,%eax
   1662f:	39 c2                	cmp    %eax,%edx
   16631:	0f 95 c2             	setne  %dl
   16634:	0f b7 05 5b eb 00 00 	movzwl 0xeb5b(%rip),%eax        # 25196 <g_70>
   1663b:	0f b7 c0             	movzwl %ax,%eax
   1663e:	83 c0 03             	add    $0x3,%eax
   16641:	0f b6 d2             	movzbl %dl,%edx
   16644:	48 63 c8             	movslq %eax,%rcx
   16647:	48 8d 34 09          	lea    (%rcx,%rcx,1),%rsi
   1664b:	48 8d 0d 3e ec 00 00 	lea    0xec3e(%rip),%rcx        # 25290 <g_1084>
   16652:	66 89 14 0e          	mov    %dx,(%rsi,%rcx,1)
   16656:	48 98                	cltq   
   16658:	48 8d 14 00          	lea    (%rax,%rax,1),%rdx
   1665c:	48 8d 05 2d ec 00 00 	lea    0xec2d(%rip),%rax        # 25290 <g_1084>
   16663:	0f b7 04 02          	movzwl (%rdx,%rax,1),%eax
   16667:	98                   	cwtl   
   16668:	89 de                	mov    %ebx,%esi
   1666a:	89 c7                	mov    %eax,%edi
   1666c:	e8 84 6d ff ff       	callq  d3f5 <safe_mul_func_int16_t_s_s>
   16671:	0f bf d0             	movswl %ax,%edx
   16674:	8b 05 22 eb 00 00    	mov    0xeb22(%rip),%eax        # 2519c <g_104>
   1667a:	31 d0                	xor    %edx,%eax
   1667c:	89 05 1a eb 00 00    	mov    %eax,0xeb1a(%rip)        # 2519c <g_104>
   16682:	0f b7 05 0d eb 00 00 	movzwl 0xeb0d(%rip),%eax        # 25196 <g_70>
   16689:	83 c0 01             	add    $0x1,%eax
   1668c:	66 89 05 03 eb 00 00 	mov    %ax,0xeb03(%rip)        # 25196 <g_70>
   16693:	0f b7 05 fc ea 00 00 	movzwl 0xeafc(%rip),%eax        # 25196 <g_70>
   1669a:	66 83 f8 01          	cmp    $0x1,%ax
   1669e:	0f 86 53 fb ff ff    	jbe    161f7 <func_18+0x736>
   166a4:	48 8b 85 e8 ee ff ff 	mov    -0x1118(%rbp),%rax
   166ab:	8b 00                	mov    (%rax),%eax
   166ad:	85 c0                	test   %eax,%eax
   166af:	0f 85 28 27 00 00    	jne    18ddd <func_18+0x331c>
   166b5:	4c 8b a5 f8 ef ff ff 	mov    -0x1008(%rbp),%r12
   166bc:	0f b7 85 e4 ee ff ff 	movzwl -0x111c(%rbp),%eax
   166c3:	0f b7 d8             	movzwl %ax,%ebx
   166c6:	0f b7 85 e4 ee ff ff 	movzwl -0x111c(%rbp),%eax
   166cd:	44 0f b7 f8          	movzwl %ax,%r15d
   166d1:	0f b6 85 fb ee ff ff 	movzbl -0x1105(%rbp),%eax
   166d8:	44 0f be e8          	movsbl %al,%r13d
   166dc:	44 8b b5 0c ef ff ff 	mov    -0x10f4(%rbp),%r14d
   166e3:	be 03 00 00 00       	mov    $0x3,%esi
   166e8:	bf b9 bf 00 00       	mov    $0xbfb9,%edi
   166ed:	e8 88 77 ff ff       	callq  de7a <safe_rshift_func_uint16_t_u_u>
   166f2:	48 8b 05 f7 23 01 00 	mov    0x123f7(%rip),%rax        # 28af0 <g_449>
   166f9:	8b 00                	mov    (%rax),%eax
   166fb:	85 c0                	test   %eax,%eax
   166fd:	0f 95 c0             	setne  %al
   16700:	0f b6 c8             	movzbl %al,%ecx
   16703:	48 8b 85 e8 ee ff ff 	mov    -0x1118(%rbp),%rax
   1670a:	8b 10                	mov    (%rax),%edx
   1670c:	48 8b 85 e8 ee ff ff 	mov    -0x1118(%rbp),%rax
   16713:	31 ca                	xor    %ecx,%edx
   16715:	89 10                	mov    %edx,(%rax)
   16717:	8b 00                	mov    (%rax),%eax
   16719:	44 89 f6             	mov    %r14d,%esi
   1671c:	89 c7                	mov    %eax,%edi
   1671e:	e8 dc 6f ff ff       	callq  d6ff <safe_div_func_int32_t_s_s>
   16723:	89 85 4c ef ff ff    	mov    %eax,-0x10b4(%rbp)
   16729:	81 bd 4c ef ff ff e8 	cmpl   $0xf7e8,-0x10b4(%rbp)
   16730:	f7 00 00 
   16733:	0f 94 c0             	sete   %al
   16736:	0f b6 c0             	movzbl %al,%eax
   16739:	48 be 60 e4 03 db 60 	movabs $0xb71e3e60db03e460,%rsi
   16740:	3e 1e b7 
   16743:	48 89 c7             	mov    %rax,%rdi
   16746:	e8 64 79 ff ff       	callq  e0af <safe_div_func_uint64_t_u_u>
   1674b:	0f b7 85 e4 ee ff ff 	movzwl -0x111c(%rbp),%eax
   16752:	0f b7 c0             	movzwl %ax,%eax
   16755:	89 85 34 f3 ff ff    	mov    %eax,-0xccc(%rbp)
   1675b:	8b 85 34 f3 ff ff    	mov    -0xccc(%rbp),%eax
   16761:	89 c2                	mov    %eax,%edx
   16763:	48 8b 85 90 f1 ff ff 	mov    -0xe70(%rbp),%rax
   1676a:	66 89 10             	mov    %dx,(%rax)
   1676d:	48 8b 85 90 f1 ff ff 	mov    -0xe70(%rbp),%rax
   16774:	0f b7 00             	movzwl (%rax),%eax
   16777:	0f b7 c0             	movzwl %ax,%eax
   1677a:	be 02 00 00 00       	mov    $0x2,%esi
   1677f:	89 c7                	mov    %eax,%edi
   16781:	e8 c2 76 ff ff       	callq  de48 <safe_rshift_func_uint16_t_u_s>
   16786:	0f be c0             	movsbl %al,%eax
   16789:	44 89 ee             	mov    %r13d,%esi
   1678c:	89 c7                	mov    %eax,%edi
   1678e:	e8 5b 6b ff ff       	callq  d2ee <safe_lshift_func_int8_t_s_u>
   16793:	0f be c0             	movsbl %al,%eax
   16796:	89 85 18 ef ff ff    	mov    %eax,-0x10e8(%rbp)
   1679c:	8b 85 18 ef ff ff    	mov    -0x10e8(%rbp),%eax
   167a2:	41 39 c7             	cmp    %eax,%r15d
   167a5:	0f 9e c0             	setle  %al
   167a8:	0f b6 d0             	movzbl %al,%edx
   167ab:	8b 85 14 ef ff ff    	mov    -0x10ec(%rbp),%eax
   167b1:	0f be c0             	movsbl %al,%eax
   167b4:	89 d6                	mov    %edx,%esi
   167b6:	89 c7                	mov    %eax,%edi
   167b8:	e8 55 6a ff ff       	callq  d212 <safe_mul_func_int8_t_s_s>
   167bd:	8b 85 18 ef ff ff    	mov    -0x10e8(%rbp),%eax
   167c3:	0f b7 c0             	movzwl %ax,%eax
   167c6:	4c 89 e2             	mov    %r12,%rdx
   167c9:	48 89 de             	mov    %rbx,%rsi
   167cc:	89 c7                	mov    %eax,%edi
   167ce:	e8 d5 90 00 00       	callq  1f8a8 <func_38>
   167d3:	48 89 85 e8 ee ff ff 	mov    %rax,-0x1118(%rbp)
   167da:	0f b7 85 e4 ee ff ff 	movzwl -0x111c(%rbp),%eax
   167e1:	0f b7 d8             	movzwl %ax,%ebx
   167e4:	48 8b 05 b5 e9 00 00 	mov    0xe9b5(%rip),%rax        # 251a0 <g_117>
   167eb:	48 89 c2             	mov    %rax,%rdx
   167ee:	48 8b 85 a8 f1 ff ff 	mov    -0xe58(%rbp),%rax
   167f5:	48 89 10             	mov    %rdx,(%rax)
   167f8:	0f b7 95 e4 ee ff ff 	movzwl -0x111c(%rbp),%edx
   167ff:	48 8b 85 68 f0 ff ff 	mov    -0xf98(%rbp),%rax
   16806:	88 10                	mov    %dl,(%rax)
   16808:	0f b6 00             	movzbl (%rax),%eax
   1680b:	0f be d0             	movsbl %al,%edx
   1680e:	0f b7 85 e4 ee ff ff 	movzwl -0x111c(%rbp),%eax
   16815:	0f b7 c0             	movzwl %ax,%eax
   16818:	39 c2                	cmp    %eax,%edx
   1681a:	bf fe ff ff ff       	mov    $0xfffffffe,%edi
   1681f:	e8 79 6b ff ff       	callq  d39d <safe_unary_minus_func_int16_t_s>
   16824:	89 c2                	mov    %eax,%edx
   16826:	48 8b 05 bb 22 01 00 	mov    0x122bb(%rip),%rax        # 28ae8 <g_429>
   1682d:	48 0f bf d2          	movswq %dx,%rdx
   16831:	48 89 10             	mov    %rdx,(%rax)
   16834:	48 8b 00             	mov    (%rax),%rax
   16837:	0f b7 c0             	movzwl %ax,%eax
   1683a:	25 80 ab 00 00       	and    $0xab80,%eax
   1683f:	89 c6                	mov    %eax,%esi
   16841:	bf 08 00 00 00       	mov    $0x8,%edi
   16846:	e8 d4 74 ff ff       	callq  dd1f <safe_sub_func_uint16_t_u_u>
   1684b:	89 c2                	mov    %eax,%edx
   1684d:	0f b7 05 ec e9 00 00 	movzwl 0xe9ec(%rip),%eax        # 25240 <g_807>
   16854:	0f b7 c0             	movzwl %ax,%eax
   16857:	89 d6                	mov    %edx,%esi
   16859:	48 63 d0             	movslq %eax,%rdx
   1685c:	48 8d 0c 12          	lea    (%rdx,%rdx,1),%rcx
   16860:	48 8d 15 29 ea 00 00 	lea    0xea29(%rip),%rdx        # 25290 <g_1084>
   16867:	66 89 34 11          	mov    %si,(%rcx,%rdx,1)
   1686b:	48 98                	cltq   
   1686d:	48 8d 14 00          	lea    (%rax,%rax,1),%rdx
   16871:	48 8d 05 18 ea 00 00 	lea    0xea18(%rip),%rax        # 25290 <g_1084>
   16878:	0f b7 04 02          	movzwl (%rdx,%rax,1),%eax
   1687c:	98                   	cwtl   
   1687d:	89 de                	mov    %ebx,%esi
   1687f:	89 c7                	mov    %eax,%edi
   16881:	e8 5b 6c ff ff       	callq  d4e1 <safe_lshift_func_int16_t_s_u>
   16886:	8b 85 58 ef ff ff    	mov    -0x10a8(%rbp),%eax
   1688c:	0f b7 c0             	movzwl %ax,%eax
   1688f:	be ff ff 00 00       	mov    $0xffff,%esi
   16894:	89 c7                	mov    %eax,%edi
   16896:	e8 a2 74 ff ff       	callq  dd3d <safe_mul_func_uint16_t_u_u>
   1689b:	48 8b 05 8e 25 01 00 	mov    0x1258e(%rip),%rax        # 28e30 <g_857>
   168a2:	48 8b 00             	mov    (%rax),%rax
   168a5:	48 8b 00             	mov    (%rax),%rax
   168a8:	c7 00 01 00 00 00    	movl   $0x1,(%rax)
   168ae:	be 31 12 00 00       	mov    $0x1231,%esi
   168b3:	bf 01 00 00 00       	mov    $0x1,%edi
   168b8:	e8 f6 6a ff ff       	callq  d3b3 <safe_add_func_int16_t_s_s>
   168bd:	48 8b 95 b0 f1 ff ff 	mov    -0xe50(%rbp),%rdx
   168c4:	66 89 02             	mov    %ax,(%rdx)
   168c7:	48 8b 85 b0 f1 ff ff 	mov    -0xe50(%rbp),%rax
   168ce:	0f b7 00             	movzwl (%rax),%eax
   168d1:	0f bf d0             	movswl %ax,%edx
   168d4:	48 8b 05 05 27 01 00 	mov    0x12705(%rip),%rax        # 28fe0 <g_1078>
   168db:	0f b7 08             	movzwl (%rax),%ecx
   168de:	48 8b 05 03 27 01 00 	mov    0x12703(%rip),%rax        # 28fe8 <g_1077>
   168e5:	48 8b 00             	mov    (%rax),%rax
   168e8:	0f b7 00             	movzwl (%rax),%eax
   168eb:	66 39 c1             	cmp    %ax,%cx
   168ee:	0f 95 c0             	setne  %al
   168f1:	0f b6 c0             	movzbl %al,%eax
   168f4:	89 d6                	mov    %edx,%esi
   168f6:	89 c7                	mov    %eax,%edi
   168f8:	e8 2d 6c ff ff       	callq  d52a <safe_rshift_func_int16_t_s_s>
   168fd:	66 85 c0             	test   %ax,%ax
   16900:	0f 84 a1 06 00 00    	je     16fa7 <func_18+0x14e6>
   16906:	48 c7 85 70 f6 ff ff 	movq   $0x0,-0x990(%rbp)
   1690d:	00 00 00 00 
   16911:	48 8d 85 50 f0 ff ff 	lea    -0xfb0(%rbp),%rax
   16918:	48 89 85 78 f6 ff ff 	mov    %rax,-0x988(%rbp)
   1691f:	48 8d 85 50 f0 ff ff 	lea    -0xfb0(%rbp),%rax
   16926:	48 89 85 80 f6 ff ff 	mov    %rax,-0x980(%rbp)
   1692d:	48 c7 85 88 f6 ff ff 	movq   $0x0,-0x978(%rbp)
   16934:	00 00 00 00 
   16938:	48 8d 85 50 f0 ff ff 	lea    -0xfb0(%rbp),%rax
   1693f:	48 89 85 90 f6 ff ff 	mov    %rax,-0x970(%rbp)
   16946:	48 8d 85 50 f0 ff ff 	lea    -0xfb0(%rbp),%rax
   1694d:	48 89 85 98 f6 ff ff 	mov    %rax,-0x968(%rbp)
   16954:	48 c7 85 a0 f6 ff ff 	movq   $0x0,-0x960(%rbp)
   1695b:	00 00 00 00 
   1695f:	48 8d 85 50 f0 ff ff 	lea    -0xfb0(%rbp),%rax
   16966:	48 89 85 a8 f6 ff ff 	mov    %rax,-0x958(%rbp)
   1696d:	48 8d 85 50 f0 ff ff 	lea    -0xfb0(%rbp),%rax
   16974:	48 89 85 b0 f6 ff ff 	mov    %rax,-0x950(%rbp)
   1697b:	48 c7 85 b8 f6 ff ff 	movq   $0x0,-0x948(%rbp)
   16982:	00 00 00 00 
   16986:	48 8d 85 50 f0 ff ff 	lea    -0xfb0(%rbp),%rax
   1698d:	48 89 85 c0 f6 ff ff 	mov    %rax,-0x940(%rbp)
   16994:	48 8d 85 50 f0 ff ff 	lea    -0xfb0(%rbp),%rax
   1699b:	48 89 85 c8 f6 ff ff 	mov    %rax,-0x938(%rbp)
   169a2:	48 c7 85 d0 f6 ff ff 	movq   $0x0,-0x930(%rbp)
   169a9:	00 00 00 00 
   169ad:	48 8d 85 50 f0 ff ff 	lea    -0xfb0(%rbp),%rax
   169b4:	48 89 85 d8 f6 ff ff 	mov    %rax,-0x928(%rbp)
   169bb:	48 8d 85 50 f0 ff ff 	lea    -0xfb0(%rbp),%rax
   169c2:	48 89 85 e0 f6 ff ff 	mov    %rax,-0x920(%rbp)
   169c9:	48 c7 85 e8 f6 ff ff 	movq   $0x0,-0x918(%rbp)
   169d0:	00 00 00 00 
   169d4:	48 8d 85 50 f0 ff ff 	lea    -0xfb0(%rbp),%rax
   169db:	48 89 85 f0 f6 ff ff 	mov    %rax,-0x910(%rbp)
   169e2:	48 8d 85 50 f0 ff ff 	lea    -0xfb0(%rbp),%rax
   169e9:	48 89 85 f8 f6 ff ff 	mov    %rax,-0x908(%rbp)
   169f0:	48 c7 85 30 f2 ff ff 	movq   $0x0,-0xdd0(%rbp)
   169f7:	00 00 00 00 
   169fb:	c7 85 e8 ef ff ff 96 	movl   $0xa3be796,-0x1018(%rbp)
   16a02:	e7 3b 0a 
   16a05:	0f b7 85 e4 ee ff ff 	movzwl -0x111c(%rbp),%eax
   16a0c:	0f bf d8             	movswl %ax,%ebx
   16a0f:	48 8b 85 50 f0 ff ff 	mov    -0xfb0(%rbp),%rax
   16a16:	48 89 85 50 f0 ff ff 	mov    %rax,-0xfb0(%rbp)
   16a1d:	48 8b 95 50 f0 ff ff 	mov    -0xfb0(%rbp),%rdx
   16a24:	48 8b 85 00 f3 ff ff 	mov    -0xd00(%rbp),%rax
   16a2b:	48 39 c2             	cmp    %rax,%rdx
   16a2e:	0f 95 c0             	setne  %al
   16a31:	0f b6 d0             	movzbl %al,%edx
   16a34:	0f b7 85 e4 ee ff ff 	movzwl -0x111c(%rbp),%eax
   16a3b:	0f b7 c0             	movzwl %ax,%eax
   16a3e:	39 c2                	cmp    %eax,%edx
   16a40:	0f 9f c0             	setg   %al
   16a43:	0f b6 d0             	movzbl %al,%edx
   16a46:	48 83 bd b8 f1 ff ff 	cmpq   $0x0,-0xe48(%rbp)
   16a4d:	00 
   16a4e:	0f 94 c0             	sete   %al
   16a51:	0f b6 c0             	movzbl %al,%eax
   16a54:	31 d0                	xor    %edx,%eax
   16a56:	f7 d0                	not    %eax
   16a58:	89 c7                	mov    %eax,%edi
   16a5a:	e8 47 74 ff ff       	callq  dea6 <safe_unary_minus_func_uint32_t_u>
   16a5f:	98                   	cwtl   
   16a60:	89 de                	mov    %ebx,%esi
   16a62:	89 c7                	mov    %eax,%edi
   16a64:	e8 ad 69 ff ff       	callq  d416 <safe_mod_func_int16_t_s_s>
   16a69:	48 8b 05 70 25 01 00 	mov    0x12570(%rip),%rax        # 28fe0 <g_1078>
   16a70:	0f b7 00             	movzwl (%rax),%eax
   16a73:	66 83 f8 01          	cmp    $0x1,%ax
   16a77:	75 07                	jne    16a80 <func_18+0xfbf>
   16a79:	b8 fc ff ff ff       	mov    $0xfffffffc,%eax
   16a7e:	eb 05                	jmp    16a85 <func_18+0xfc4>
   16a80:	b8 fd ff ff ff       	mov    $0xfffffffd,%eax
   16a85:	be 69 00 00 00       	mov    $0x69,%esi
   16a8a:	89 c7                	mov    %eax,%edi
   16a8c:	e8 a0 67 ff ff       	callq  d231 <safe_mod_func_int8_t_s_s>
   16a91:	0f b7 85 e4 ee ff ff 	movzwl -0x111c(%rbp),%eax
   16a98:	66 85 c0             	test   %ax,%ax
   16a9b:	48 8b 85 e8 ee ff ff 	mov    -0x1118(%rbp),%rax
   16aa2:	8b 00                	mov    (%rax),%eax
   16aa4:	21 85 58 ef ff ff    	and    %eax,-0x10a8(%rbp)
   16aaa:	48 8b 05 ff e7 00 00 	mov    0xe7ff(%rip),%rax        # 252b0 <g_1456>
   16ab1:	48 83 e8 01          	sub    $0x1,%rax
   16ab5:	48 89 05 f4 e7 00 00 	mov    %rax,0xe7f4(%rip)        # 252b0 <g_1456>
   16abc:	c6 05 d1 e6 00 00 05 	movb   $0x5,0xe6d1(%rip)        # 25194 <g_68>
   16ac3:	90                   	nop
   16ac4:	0f b6 05 c9 e6 00 00 	movzbl 0xe6c9(%rip),%eax        # 25194 <g_68>
   16acb:	84 c0                	test   %al,%al
   16acd:	0f 88 c2 04 00 00    	js     16f95 <func_18+0x14d4>
   16ad3:	48 8d 85 68 f0 ff ff 	lea    -0xf98(%rbp),%rax
   16ada:	48 89 85 30 f8 ff ff 	mov    %rax,-0x7d0(%rbp)
   16ae1:	48 8d 85 68 f0 ff ff 	lea    -0xf98(%rbp),%rax
   16ae8:	48 89 85 38 f8 ff ff 	mov    %rax,-0x7c8(%rbp)
   16aef:	48 c7 85 40 f8 ff ff 	movq   $0x0,-0x7c0(%rbp)
   16af6:	00 00 00 00 
   16afa:	48 8d 85 68 f0 ff ff 	lea    -0xf98(%rbp),%rax
   16b01:	48 89 85 48 f8 ff ff 	mov    %rax,-0x7b8(%rbp)
   16b08:	48 c7 85 50 f8 ff ff 	movq   $0x0,-0x7b0(%rbp)
   16b0f:	00 00 00 00 
   16b13:	48 8d 85 68 f0 ff ff 	lea    -0xf98(%rbp),%rax
   16b1a:	48 89 85 58 f8 ff ff 	mov    %rax,-0x7a8(%rbp)
   16b21:	48 8d 85 68 f0 ff ff 	lea    -0xf98(%rbp),%rax
   16b28:	48 89 85 60 f8 ff ff 	mov    %rax,-0x7a0(%rbp)
   16b2f:	48 c7 85 68 f8 ff ff 	movq   $0x0,-0x798(%rbp)
   16b36:	00 00 00 00 
   16b3a:	48 8d 85 68 f0 ff ff 	lea    -0xf98(%rbp),%rax
   16b41:	48 89 85 70 f8 ff ff 	mov    %rax,-0x790(%rbp)
   16b48:	48 c7 85 78 f8 ff ff 	movq   $0x0,-0x788(%rbp)
   16b4f:	00 00 00 00 
   16b53:	48 8d 85 68 f0 ff ff 	lea    -0xf98(%rbp),%rax
   16b5a:	48 89 85 80 f8 ff ff 	mov    %rax,-0x780(%rbp)
   16b61:	48 c7 85 88 f8 ff ff 	movq   $0x0,-0x778(%rbp)
   16b68:	00 00 00 00 
   16b6c:	48 c7 85 90 f8 ff ff 	movq   $0x0,-0x770(%rbp)
   16b73:	00 00 00 00 
   16b77:	48 c7 85 98 f8 ff ff 	movq   $0x0,-0x768(%rbp)
   16b7e:	00 00 00 00 
   16b82:	48 c7 85 a0 f8 ff ff 	movq   $0x0,-0x760(%rbp)
   16b89:	00 00 00 00 
   16b8d:	48 8d 85 68 f0 ff ff 	lea    -0xf98(%rbp),%rax
   16b94:	48 89 85 a8 f8 ff ff 	mov    %rax,-0x758(%rbp)
   16b9b:	48 c7 85 b0 f8 ff ff 	movq   $0x0,-0x750(%rbp)
   16ba2:	00 00 00 00 
   16ba6:	48 c7 85 b8 f8 ff ff 	movq   $0x0,-0x748(%rbp)
   16bad:	00 00 00 00 
   16bb1:	48 c7 85 c0 f8 ff ff 	movq   $0x0,-0x740(%rbp)
   16bb8:	00 00 00 00 
   16bbc:	48 c7 85 c8 f8 ff ff 	movq   $0x0,-0x738(%rbp)
   16bc3:	00 00 00 00 
   16bc7:	48 c7 85 d0 f8 ff ff 	movq   $0x0,-0x730(%rbp)
   16bce:	00 00 00 00 
   16bd2:	48 c7 85 d8 f8 ff ff 	movq   $0x0,-0x728(%rbp)
   16bd9:	00 00 00 00 
   16bdd:	48 8d 85 68 f0 ff ff 	lea    -0xf98(%rbp),%rax
   16be4:	48 89 85 e0 f8 ff ff 	mov    %rax,-0x720(%rbp)
   16beb:	48 c7 85 e8 f8 ff ff 	movq   $0x0,-0x718(%rbp)
   16bf2:	00 00 00 00 
   16bf6:	48 c7 85 f0 f8 ff ff 	movq   $0x0,-0x710(%rbp)
   16bfd:	00 00 00 00 
   16c01:	48 c7 85 f8 f8 ff ff 	movq   $0x0,-0x708(%rbp)
   16c08:	00 00 00 00 
   16c0c:	48 c7 85 00 f9 ff ff 	movq   $0x0,-0x700(%rbp)
   16c13:	00 00 00 00 
   16c17:	48 8d 85 68 f0 ff ff 	lea    -0xf98(%rbp),%rax
   16c1e:	48 89 85 08 f9 ff ff 	mov    %rax,-0x6f8(%rbp)
   16c25:	48 c7 85 10 f9 ff ff 	movq   $0x0,-0x6f0(%rbp)
   16c2c:	00 00 00 00 
   16c30:	48 8d 85 68 f0 ff ff 	lea    -0xf98(%rbp),%rax
   16c37:	48 89 85 18 f9 ff ff 	mov    %rax,-0x6e8(%rbp)
   16c3e:	48 c7 85 20 f9 ff ff 	movq   $0x0,-0x6e0(%rbp)
   16c45:	00 00 00 00 
   16c49:	48 8d 85 68 f0 ff ff 	lea    -0xf98(%rbp),%rax
   16c50:	48 89 85 28 f9 ff ff 	mov    %rax,-0x6d8(%rbp)
   16c57:	48 8d 85 68 f0 ff ff 	lea    -0xf98(%rbp),%rax
   16c5e:	48 89 85 30 f9 ff ff 	mov    %rax,-0x6d0(%rbp)
   16c65:	48 c7 85 38 f9 ff ff 	movq   $0x0,-0x6c8(%rbp)
   16c6c:	00 00 00 00 
   16c70:	48 8d 85 68 f0 ff ff 	lea    -0xf98(%rbp),%rax
   16c77:	48 89 85 40 f9 ff ff 	mov    %rax,-0x6c0(%rbp)
   16c7e:	48 c7 85 48 f9 ff ff 	movq   $0x0,-0x6b8(%rbp)
   16c85:	00 00 00 00 
   16c89:	48 c7 85 50 f9 ff ff 	movq   $0x0,-0x6b0(%rbp)
   16c90:	00 00 00 00 
   16c94:	48 8d 85 68 f0 ff ff 	lea    -0xf98(%rbp),%rax
   16c9b:	48 89 85 58 f9 ff ff 	mov    %rax,-0x6a8(%rbp)
   16ca2:	48 8d 85 68 f0 ff ff 	lea    -0xf98(%rbp),%rax
   16ca9:	48 89 85 60 f9 ff ff 	mov    %rax,-0x6a0(%rbp)
   16cb0:	48 8d 85 68 f0 ff ff 	lea    -0xf98(%rbp),%rax
   16cb7:	48 89 85 68 f9 ff ff 	mov    %rax,-0x698(%rbp)
   16cbe:	48 8d 85 68 f0 ff ff 	lea    -0xf98(%rbp),%rax
   16cc5:	48 89 85 70 f9 ff ff 	mov    %rax,-0x690(%rbp)
   16ccc:	48 c7 85 78 f9 ff ff 	movq   $0x0,-0x688(%rbp)
   16cd3:	00 00 00 00 
   16cd7:	48 8d 85 68 f0 ff ff 	lea    -0xf98(%rbp),%rax
   16cde:	48 89 85 80 f9 ff ff 	mov    %rax,-0x680(%rbp)
   16ce5:	48 8d 85 68 f0 ff ff 	lea    -0xf98(%rbp),%rax
   16cec:	48 89 85 88 f9 ff ff 	mov    %rax,-0x678(%rbp)
   16cf3:	48 8d 85 68 f0 ff ff 	lea    -0xf98(%rbp),%rax
   16cfa:	48 89 85 90 f9 ff ff 	mov    %rax,-0x670(%rbp)
   16d01:	48 8d 85 68 f0 ff ff 	lea    -0xf98(%rbp),%rax
   16d08:	48 89 85 98 f9 ff ff 	mov    %rax,-0x668(%rbp)
   16d0f:	48 8d 85 68 f0 ff ff 	lea    -0xf98(%rbp),%rax
   16d16:	48 89 85 a0 f9 ff ff 	mov    %rax,-0x660(%rbp)
   16d1d:	48 c7 85 a8 f9 ff ff 	movq   $0x0,-0x658(%rbp)
   16d24:	00 00 00 00 
   16d28:	48 8d 85 68 f0 ff ff 	lea    -0xf98(%rbp),%rax
   16d2f:	48 89 85 b0 f9 ff ff 	mov    %rax,-0x650(%rbp)
   16d36:	48 c7 85 b8 f9 ff ff 	movq   $0x0,-0x648(%rbp)
   16d3d:	00 00 00 00 
   16d41:	48 8d 85 68 f0 ff ff 	lea    -0xf98(%rbp),%rax
   16d48:	48 89 85 c0 f9 ff ff 	mov    %rax,-0x640(%rbp)
   16d4f:	48 8d 85 68 f0 ff ff 	lea    -0xf98(%rbp),%rax
   16d56:	48 89 85 c8 f9 ff ff 	mov    %rax,-0x638(%rbp)
   16d5d:	48 c7 85 d0 f9 ff ff 	movq   $0x0,-0x630(%rbp)
   16d64:	00 00 00 00 
   16d68:	48 8d 85 68 f0 ff ff 	lea    -0xf98(%rbp),%rax
   16d6f:	48 89 85 d8 f9 ff ff 	mov    %rax,-0x628(%rbp)
   16d76:	c7 85 ec ef ff ff 01 	movl   $0x1,-0x1014(%rbp)
   16d7d:	00 00 00 
   16d80:	c7 85 f0 ef ff ff 08 	movl   $0x8,-0x1010(%rbp)
   16d87:	00 00 00 
   16d8a:	c7 85 f4 ef ff ff 5f 	movl   $0x3afdaa5f,-0x100c(%rbp)
   16d91:	aa fd 3a 
   16d94:	8b 85 bc f5 ff ff    	mov    -0xa44(%rbp),%eax
   16d9a:	41 89 c6             	mov    %eax,%r14d
   16d9d:	48 8b 05 24 15 01 00 	mov    0x11524(%rip),%rax        # 282c8 <g_60>
   16da4:	48 8b 00             	mov    (%rax),%rax
   16da7:	8b 00                	mov    (%rax),%eax
   16da9:	41 89 c7             	mov    %eax,%r15d
   16dac:	48 8d 05 e9 e4 00 00 	lea    0xe4e9(%rip),%rax        # 2529c <g_1194>
   16db3:	48 89 85 30 f2 ff ff 	mov    %rax,-0xdd0(%rbp)
   16dba:	0f b7 85 e4 ee ff ff 	movzwl -0x111c(%rbp),%eax
   16dc1:	0f b7 d8             	movzwl %ax,%ebx
   16dc4:	0f b7 05 dd e4 00 00 	movzwl 0xe4dd(%rip),%eax        # 252a8 <g_1438+0x4>
   16dcb:	44 0f b6 e0          	movzbl %al,%r12d
   16dcf:	0f b7 85 e4 ee ff ff 	movzwl -0x111c(%rbp),%eax
   16dd6:	44 0f be e8          	movsbl %al,%r13d
   16dda:	0f b7 85 e4 ee ff ff 	movzwl -0x111c(%rbp),%eax
   16de1:	0f b7 c0             	movzwl %ax,%eax
   16de4:	be 09 00 00 00       	mov    $0x9,%esi
   16de9:	89 c7                	mov    %eax,%edi
   16deb:	e8 58 70 ff ff       	callq  de48 <safe_rshift_func_uint16_t_u_s>
   16df0:	83 bd ec ef ff ff 00 	cmpl   $0x0,-0x1014(%rbp)
   16df7:	74 07                	je     16e00 <func_18+0x133f>
   16df9:	b8 01 00 00 00       	mov    $0x1,%eax
   16dfe:	eb 05                	jmp    16e05 <func_18+0x1344>
   16e00:	b8 00 00 00 00       	mov    $0x0,%eax
   16e05:	83 c8 10             	or     $0x10,%eax
   16e08:	0f b6 c0             	movzbl %al,%eax
   16e0b:	be 09 00 00 00       	mov    $0x9,%esi
   16e10:	89 c7                	mov    %eax,%edi
   16e12:	e8 43 6d ff ff       	callq  db5a <safe_add_func_uint8_t_u_u>
   16e17:	0f b7 85 e4 ee ff ff 	movzwl -0x111c(%rbp),%eax
   16e1e:	0f b7 c0             	movzwl %ax,%eax
   16e21:	be 0c 00 00 00       	mov    $0xc,%esi
   16e26:	89 c7                	mov    %eax,%edi
   16e28:	e8 d9 6f ff ff       	callq  de06 <safe_lshift_func_uint16_t_u_u>
   16e2d:	48 8b 95 90 f6 ff ff 	mov    -0x970(%rbp),%rdx
   16e34:	48 8b 05 f5 26 01 00 	mov    0x126f5(%rip),%rax        # 29530 <g_1483>
   16e3b:	48 39 c2             	cmp    %rax,%rdx
   16e3e:	0f 94 c0             	sete   %al
   16e41:	0f b6 c0             	movzbl %al,%eax
   16e44:	be 05 00 00 00       	mov    $0x5,%esi
   16e49:	89 c7                	mov    %eax,%edi
   16e4b:	e8 b5 6d ff ff       	callq  dc05 <safe_lshift_func_uint8_t_u_s>
   16e50:	0f b6 d0             	movzbl %al,%edx
   16e53:	48 8b 85 e8 ee ff ff 	mov    -0x1118(%rbp),%rax
   16e5a:	8b 00                	mov    (%rax),%eax
   16e5c:	21 d0                	and    %edx,%eax
   16e5e:	83 f8 53             	cmp    $0x53,%eax
   16e61:	0f 9f c0             	setg   %al
   16e64:	89 c2                	mov    %eax,%edx
   16e66:	8b 85 58 ef ff ff    	mov    -0x10a8(%rbp),%eax
   16e6c:	31 d0                	xor    %edx,%eax
   16e6e:	f7 d0                	not    %eax
   16e70:	0f be c0             	movsbl %al,%eax
   16e73:	44 89 ee             	mov    %r13d,%esi
   16e76:	89 c7                	mov    %eax,%edi
   16e78:	e8 95 63 ff ff       	callq  d212 <safe_mul_func_int8_t_s_s>
   16e7d:	0f b6 c0             	movzbl %al,%eax
   16e80:	44 89 e6             	mov    %r12d,%esi
   16e83:	89 c7                	mov    %eax,%edi
   16e85:	e8 09 6d ff ff       	callq  db93 <safe_mul_func_uint8_t_u_u>
   16e8a:	b8 01 00 00 00       	mov    $0x1,%eax
   16e8f:	0f b7 d0             	movzwl %ax,%edx
   16e92:	0f b7 85 e4 ee ff ff 	movzwl -0x111c(%rbp),%eax
   16e99:	0f b7 c0             	movzwl %ax,%eax
   16e9c:	89 d6                	mov    %edx,%esi
   16e9e:	89 c7                	mov    %eax,%edi
   16ea0:	e8 b7 6e ff ff       	callq  dd5c <safe_mod_func_uint16_t_u_u>
   16ea5:	0f b7 d0             	movzwl %ax,%edx
   16ea8:	0f b7 85 e4 ee ff ff 	movzwl -0x111c(%rbp),%eax
   16eaf:	0f b7 c0             	movzwl %ax,%eax
   16eb2:	89 d6                	mov    %edx,%esi
   16eb4:	89 c7                	mov    %eax,%edi
   16eb6:	e8 64 6e ff ff       	callq  dd1f <safe_sub_func_uint16_t_u_u>
   16ebb:	48 8b 05 76 e3 00 00 	mov    0xe376(%rip),%rax        # 25238 <g_589>
   16ec2:	48 85 c0             	test   %rax,%rax
   16ec5:	0f 95 c0             	setne  %al
   16ec8:	89 c2                	mov    %eax,%edx
   16eca:	8b 05 dc e2 00 00    	mov    0xe2dc(%rip),%eax        # 251ac <g_131>
   16ed0:	09 d0                	or     %edx,%eax
   16ed2:	0f b6 c0             	movzbl %al,%eax
   16ed5:	89 de                	mov    %ebx,%esi
   16ed7:	89 c7                	mov    %eax,%edi
   16ed9:	e8 af 6d ff ff       	callq  dc8d <safe_rshift_func_uint8_t_u_s>
   16ede:	0f b6 c0             	movzbl %al,%eax
   16ee1:	be ff ff ff ff       	mov    $0xffffffff,%esi
   16ee6:	89 c7                	mov    %eax,%edi
   16ee8:	e8 68 65 ff ff       	callq  d455 <safe_div_func_int16_t_s_s>
   16eed:	0f bf d0             	movswl %ax,%edx
   16ef0:	0f b7 85 e4 ee ff ff 	movzwl -0x111c(%rbp),%eax
   16ef7:	0f b7 c0             	movzwl %ax,%eax
   16efa:	39 c2                	cmp    %eax,%edx
   16efc:	0f 95 c0             	setne  %al
   16eff:	0f b6 c0             	movzbl %al,%eax
   16f02:	09 85 f0 ef ff ff    	or     %eax,-0x1010(%rbp)
   16f08:	8b 85 f0 ef ff ff    	mov    -0x1010(%rbp),%eax
   16f0e:	44 89 fe             	mov    %r15d,%esi
   16f11:	89 c7                	mov    %eax,%edi
   16f13:	e8 e5 6f ff ff       	callq  defd <safe_mod_func_uint32_t_u_u>
   16f18:	85 c0                	test   %eax,%eax
   16f1a:	75 0d                	jne    16f29 <func_18+0x1468>
   16f1c:	48 8b 85 e8 ee ff ff 	mov    -0x1118(%rbp),%rax
   16f23:	8b 00                	mov    (%rax),%eax
   16f25:	85 c0                	test   %eax,%eax
   16f27:	74 07                	je     16f30 <func_18+0x146f>
   16f29:	b8 01 00 00 00       	mov    $0x1,%eax
   16f2e:	eb 05                	jmp    16f35 <func_18+0x1474>
   16f30:	b8 00 00 00 00       	mov    $0x0,%eax
   16f35:	0f be c0             	movsbl %al,%eax
   16f38:	89 c6                	mov    %eax,%esi
   16f3a:	bf fb ff ff ff       	mov    $0xfffffffb,%edi
   16f3f:	e8 90 62 ff ff       	callq  d1d4 <safe_add_func_int8_t_s_s>
   16f44:	0f be d0             	movsbl %al,%edx
   16f47:	48 8b 05 02 23 01 00 	mov    0x12302(%rip),%rax        # 29250 <g_1349>
   16f4e:	48 8b 00             	mov    (%rax),%rax
   16f51:	48 8b 00             	mov    (%rax),%rax
   16f54:	8b 00                	mov    (%rax),%eax
   16f56:	39 c2                	cmp    %eax,%edx
   16f58:	0f 93 c0             	setae  %al
   16f5b:	0f b6 c0             	movzbl %al,%eax
   16f5e:	44 89 f6             	mov    %r14d,%esi
   16f61:	89 c7                	mov    %eax,%edi
   16f63:	e8 68 6f ff ff       	callq  ded0 <safe_sub_func_uint32_t_u_u>
   16f68:	85 c0                	test   %eax,%eax
   16f6a:	74 07                	je     16f73 <func_18+0x14b2>
   16f6c:	ba 01 00 00 00       	mov    $0x1,%edx
   16f71:	eb 05                	jmp    16f78 <func_18+0x14b7>
   16f73:	ba 00 00 00 00       	mov    $0x0,%edx
   16f78:	8b 85 68 f5 ff ff    	mov    -0xa98(%rbp),%eax
   16f7e:	09 d0                	or     %edx,%eax
   16f80:	31 85 f4 ef ff ff    	xor    %eax,-0x100c(%rbp)
   16f86:	48 8b 05 53 20 01 00 	mov    0x12053(%rip),%rax        # 28fe0 <g_1078>
   16f8d:	0f b7 00             	movzwl (%rax),%eax
   16f90:	e9 af 38 00 00       	jmpq   1a844 <func_18+0x4d83>
   16f95:	48 8b 85 e8 ee ff ff 	mov    -0x1118(%rbp),%rax
   16f9c:	c7 00 77 1a 8c 07    	movl   $0x78c1a77,(%rax)
   16fa2:	e9 37 1e 00 00       	jmpq   18dde <func_18+0x331d>
   16fa7:	48 b8 73 4a 13 e0 ca 	movabs $0xba8036cae0134a73,%rax
   16fae:	36 80 ba 
   16fb1:	48 89 85 70 f6 ff ff 	mov    %rax,-0x990(%rbp)
   16fb8:	48 c7 85 78 f6 ff ff 	movq   $0x0,-0x988(%rbp)
   16fbf:	00 00 00 00 
   16fc3:	48 89 85 80 f6 ff ff 	mov    %rax,-0x980(%rbp)
   16fca:	48 89 85 88 f6 ff ff 	mov    %rax,-0x978(%rbp)
   16fd1:	48 c7 85 90 f6 ff ff 	movq   $0x0,-0x970(%rbp)
   16fd8:	00 00 00 00 
   16fdc:	48 89 85 98 f6 ff ff 	mov    %rax,-0x968(%rbp)
   16fe3:	48 8d 05 96 30 01 00 	lea    0x13096(%rip),%rax        # 2a080 <g_346>
   16fea:	48 89 85 d0 f1 ff ff 	mov    %rax,-0xe30(%rbp)
   16ff1:	48 8d 85 58 f0 ff ff 	lea    -0xfa8(%rbp),%rax
   16ff8:	48 89 85 78 f0 ff ff 	mov    %rax,-0xf88(%rbp)
   16fff:	48 8d 85 78 f0 ff ff 	lea    -0xf88(%rbp),%rax
   17006:	48 89 85 d8 f1 ff ff 	mov    %rax,-0xe28(%rbp)
   1700d:	c7 85 bc ef ff ff 06 	movl   $0x6,-0x1044(%rbp)
   17014:	00 00 00 
   17017:	c7 85 30 ef ff ff c5 	movl   $0x39520c5,-0x10d0(%rbp)
   1701e:	20 95 03 
   17021:	c7 85 34 ef ff ff 00 	movl   $0x0,-0x10cc(%rbp)
   17028:	00 00 00 
   1702b:	c7 85 c0 ef ff ff 92 	movl   $0xd7ca5392,-0x1040(%rbp)
   17032:	53 ca d7 
   17035:	c7 85 38 ef ff ff d9 	movl   $0x9b48e6d9,-0x10c8(%rbp)
   1703c:	e6 48 9b 
   1703f:	c7 85 3c ef ff ff 8e 	movl   $0xe63d158e,-0x10c4(%rbp)
   17046:	15 3d e6 
   17049:	c7 85 40 ef ff ff 47 	movl   $0xcc206447,-0x10c0(%rbp)
   17050:	64 20 cc 
   17053:	c7 85 c4 ef ff ff 64 	movl   $0x7ef21d64,-0x103c(%rbp)
   1705a:	1d f2 7e 
   1705d:	c6 85 03 ef ff ff d9 	movb   $0xd9,-0x10fd(%rbp)
   17064:	c7 85 c8 ef ff ff 9d 	movl   $0x5673c69d,-0x1038(%rbp)
   1706b:	c6 73 56 
   1706e:	c7 85 cc ef ff ff 09 	movl   $0x9,-0x1034(%rbp)
   17075:	00 00 00 
   17078:	c7 85 44 ef ff ff 03 	movl   $0x3,-0x10bc(%rbp)
   1707f:	00 00 00 
   17082:	c7 85 48 ef ff ff ff 	movl   $0xffffffff,-0x10b8(%rbp)
   17089:	ff ff ff 
   1708c:	48 8d 85 48 f0 ff ff 	lea    -0xfb8(%rbp),%rax
   17093:	48 89 85 e0 f1 ff ff 	mov    %rax,-0xe20(%rbp)
   1709a:	0f b6 05 f7 e0 00 00 	movzbl 0xe0f7(%rip),%eax        # 25198 <g_77>
   170a1:	0f be d0             	movsbl %al,%edx
   170a4:	0f b7 85 e4 ee ff ff 	movzwl -0x111c(%rbp),%eax
   170ab:	0f b7 c0             	movzwl %ax,%eax
   170ae:	89 85 58 ef ff ff    	mov    %eax,-0x10a8(%rbp)
   170b4:	0f b7 85 e4 ee ff ff 	movzwl -0x111c(%rbp),%eax
   170bb:	0f b7 c0             	movzwl %ax,%eax
   170be:	39 85 58 ef ff ff    	cmp    %eax,-0x10a8(%rbp)
   170c4:	0f 9e c0             	setle  %al
   170c7:	0f b6 c0             	movzbl %al,%eax
   170ca:	89 d6                	mov    %edx,%esi
   170cc:	89 c7                	mov    %eax,%edi
   170ce:	e8 3f 61 ff ff       	callq  d212 <safe_mul_func_int8_t_s_s>
   170d3:	84 c0                	test   %al,%al
   170d5:	74 52                	je     17129 <func_18+0x1668>
   170d7:	48 8b 05 ea 11 01 00 	mov    0x111ea(%rip),%rax        # 282c8 <g_60>
   170de:	48 8b 00             	mov    (%rax),%rax
   170e1:	8b 10                	mov    (%rax),%edx
   170e3:	48 8b 05 de 11 01 00 	mov    0x111de(%rip),%rax        # 282c8 <g_60>
   170ea:	48 8b 00             	mov    (%rax),%rax
   170ed:	81 ca cb 1d 00 00    	or     $0x1dcb,%edx
   170f3:	89 10                	mov    %edx,(%rax)
   170f5:	48 8b 85 48 f1 ff ff 	mov    -0xeb8(%rbp),%rax
   170fc:	48 8b 10             	mov    (%rax),%rdx
   170ff:	0f b7 85 e4 ee ff ff 	movzwl -0x111c(%rbp),%eax
   17106:	0f b7 c8             	movzwl %ax,%ecx
   17109:	0f b7 85 e4 ee ff ff 	movzwl -0x111c(%rbp),%eax
   17110:	0f b7 c0             	movzwl %ax,%eax
   17113:	48 89 ce             	mov    %rcx,%rsi
   17116:	89 c7                	mov    %eax,%edi
   17118:	e8 8b 87 00 00       	callq  1f8a8 <func_38>
   1711d:	48 89 85 90 f0 ff ff 	mov    %rax,-0xf70(%rbp)
   17124:	e9 08 02 00 00       	jmpq   17331 <func_18+0x1870>
   17129:	c7 85 d0 ef ff ff 4d 	movl   $0x9458f4d,-0x1030(%rbp)
   17130:	8f 45 09 
   17133:	c7 85 d4 ef ff ff 2a 	movl   $0x5365cf2a,-0x102c(%rbp)
   1713a:	cf 65 53 
   1713d:	48 8d 05 d4 e0 00 00 	lea    0xe0d4(%rip),%rax        # 25218 <g_219>
   17144:	48 89 85 e8 f1 ff ff 	mov    %rax,-0xe18(%rbp)
   1714b:	83 85 d0 ef ff ff 01 	addl   $0x1,-0x1030(%rbp)
   17152:	b9 01 00 00 00       	mov    $0x1,%ecx
   17157:	48 8b 85 e8 ee ff ff 	mov    -0x1118(%rbp),%rax
   1715e:	8b 10                	mov    (%rax),%edx
   17160:	48 8b 85 e8 ee ff ff 	mov    -0x1118(%rbp),%rax
   17167:	21 ca                	and    %ecx,%edx
   17169:	89 10                	mov    %edx,(%rax)
   1716b:	8b 05 47 2f 01 00    	mov    0x12f47(%rip),%eax        # 2a0b8 <g_1506>
   17171:	83 c0 01             	add    $0x1,%eax
   17174:	89 05 3e 2f 01 00    	mov    %eax,0x12f3e(%rip)        # 2a0b8 <g_1506>
   1717a:	8b 85 d4 ef ff ff    	mov    -0x102c(%rbp),%eax
   17180:	0f b7 d8             	movzwl %ax,%ebx
   17183:	48 8b 85 e8 ee ff ff 	mov    -0x1118(%rbp),%rax
   1718a:	8b 00                	mov    (%rax),%eax
   1718c:	41 89 c6             	mov    %eax,%r14d
   1718f:	0f b7 85 e4 ee ff ff 	movzwl -0x111c(%rbp),%eax
   17196:	44 0f b7 e0          	movzwl %ax,%r12d
   1719a:	48 8b 85 80 f6 ff ff 	mov    -0x980(%rbp),%rax
   171a1:	49 89 c7             	mov    %rax,%r15
   171a4:	0f b7 85 e4 ee ff ff 	movzwl -0x111c(%rbp),%eax
   171ab:	44 0f b7 e8          	movzwl %ax,%r13d
   171af:	8b 15 d7 e0 00 00    	mov    0xe0d7(%rip),%edx        # 2528c <g_1083>
   171b5:	0f b7 8d e4 ee ff ff 	movzwl -0x111c(%rbp),%ecx
   171bc:	48 8b 85 68 f0 ff ff 	mov    -0xf98(%rbp),%rax
   171c3:	88 08                	mov    %cl,(%rax)
   171c5:	0f b6 00             	movzbl (%rax),%eax
   171c8:	3c ff                	cmp    $0xff,%al
   171ca:	74 0a                	je     171d6 <func_18+0x1715>
   171cc:	0f b7 85 e4 ee ff ff 	movzwl -0x111c(%rbp),%eax
   171d3:	66 85 c0             	test   %ax,%ax
   171d6:	89 d6                	mov    %edx,%esi
   171d8:	bf 47 00 00 00       	mov    $0x47,%edi
   171dd:	e8 ab 6a ff ff       	callq  dc8d <safe_rshift_func_uint8_t_u_s>
   171e2:	0f b7 85 e4 ee ff ff 	movzwl -0x111c(%rbp),%eax
   171e9:	0f be d0             	movsbl %al,%edx
   171ec:	0f b7 05 29 e0 00 00 	movzwl 0xe029(%rip),%eax        # 2521c <g_263>
   171f3:	0f be c0             	movsbl %al,%eax
   171f6:	89 d6                	mov    %edx,%esi
   171f8:	89 c7                	mov    %eax,%edi
   171fa:	e8 13 60 ff ff       	callq  d212 <safe_mul_func_int8_t_s_s>
   171ff:	0f be c0             	movsbl %al,%eax
   17202:	8b 95 14 ef ff ff    	mov    -0x10ec(%rbp),%edx
   17208:	89 c6                	mov    %eax,%esi
   1720a:	89 d7                	mov    %edx,%edi
   1720c:	e8 a7 6c ff ff       	callq  deb8 <safe_add_func_uint32_t_u_u>
   17211:	be 01 00 00 00       	mov    $0x1,%esi
   17216:	bf 01 00 00 00       	mov    $0x1,%edi
   1721b:	e8 8f 6e ff ff       	callq  e0af <safe_div_func_uint64_t_u_u>
   17220:	48 85 c0             	test   %rax,%rax
   17223:	75 07                	jne    1722c <func_18+0x176b>
   17225:	b8 01 00 00 00       	mov    $0x1,%eax
   1722a:	eb 05                	jmp    17231 <func_18+0x1770>
   1722c:	b8 00 00 00 00       	mov    $0x0,%eax
   17231:	3b 85 58 ef ff ff    	cmp    -0x10a8(%rbp),%eax
   17237:	0f 9d c0             	setge  %al
   1723a:	0f b6 d0             	movzbl %al,%edx
   1723d:	8b 85 58 ef ff ff    	mov    -0x10a8(%rbp),%eax
   17243:	0f b6 c0             	movzbl %al,%eax
   17246:	89 d6                	mov    %edx,%esi
   17248:	89 c7                	mov    %eax,%edi
   1724a:	e8 44 69 ff ff       	callq  db93 <safe_mul_func_uint8_t_u_u>
   1724f:	48 8b 05 92 1d 01 00 	mov    0x11d92(%rip),%rax        # 28fe8 <g_1077>
   17256:	48 8b 00             	mov    (%rax),%rax
   17259:	0f b7 00             	movzwl (%rax),%eax
   1725c:	0f b7 95 e4 ee ff ff 	movzwl -0x111c(%rbp),%edx
   17263:	21 d0                	and    %edx,%eax
   17265:	0f b7 c0             	movzwl %ax,%eax
   17268:	44 89 ee             	mov    %r13d,%esi
   1726b:	89 c7                	mov    %eax,%edi
   1726d:	e8 ad 6a ff ff       	callq  dd1f <safe_sub_func_uint16_t_u_u>
   17272:	0f b7 c0             	movzwl %ax,%eax
   17275:	4c 89 fe             	mov    %r15,%rsi
   17278:	48 89 c7             	mov    %rax,%rdi
   1727b:	e8 cb 6d ff ff       	callq  e04b <safe_sub_func_uint64_t_u_u>
   17280:	48 8b 95 e8 ee ff ff 	mov    -0x1118(%rbp),%rdx
   17287:	8b 12                	mov    (%rdx),%edx
   17289:	48 63 d2             	movslq %edx,%rdx
   1728c:	48 39 d0             	cmp    %rdx,%rax
   1728f:	0f b7 85 e4 ee ff ff 	movzwl -0x111c(%rbp),%eax
   17296:	0f b7 c0             	movzwl %ax,%eax
   17299:	44 89 e6             	mov    %r12d,%esi
   1729c:	89 c7                	mov    %eax,%edi
   1729e:	e8 63 6b ff ff       	callq  de06 <safe_lshift_func_uint16_t_u_u>
   172a3:	0f b7 c0             	movzwl %ax,%eax
   172a6:	0d 1a 07 1f 56       	or     $0x561f071a,%eax
   172ab:	89 c2                	mov    %eax,%edx
   172ad:	48 8b 85 e8 f1 ff ff 	mov    -0xe18(%rbp),%rax
   172b4:	89 10                	mov    %edx,(%rax)
   172b6:	8b 15 d0 df 00 00    	mov    0xdfd0(%rip),%edx        # 2528c <g_1083>
   172bc:	8b 85 18 ef ff ff    	mov    -0x10e8(%rbp),%eax
   172c2:	31 d0                	xor    %edx,%eax
   172c4:	44 89 f6             	mov    %r14d,%esi
   172c7:	89 c7                	mov    %eax,%edi
   172c9:	e8 02 6c ff ff       	callq  ded0 <safe_sub_func_uint32_t_u_u>
   172ce:	be 35 e7 cb d3       	mov    $0xd3cbe735,%esi
   172d3:	89 c7                	mov    %eax,%edi
   172d5:	e8 de 6b ff ff       	callq  deb8 <safe_add_func_uint32_t_u_u>
   172da:	48 8b 85 90 f0 ff ff 	mov    -0xf70(%rbp),%rax
   172e1:	c7 00 01 00 00 00    	movl   $0x1,(%rax)
   172e7:	48 8b 85 90 f0 ff ff 	mov    -0xf70(%rbp),%rax
   172ee:	8b 00                	mov    (%rax),%eax
   172f0:	be 00 00 00 00       	mov    $0x0,%esi
   172f5:	89 c7                	mov    %eax,%edi
   172f7:	e8 ba 62 ff ff       	callq  d5b6 <safe_add_func_int32_t_s_s>
   172fc:	89 de                	mov    %ebx,%esi
   172fe:	bf 08 00 00 00       	mov    $0x8,%edi
   17303:	e8 f7 69 ff ff       	callq  dcff <safe_add_func_uint16_t_u_u>
   17308:	0f b7 c0             	movzwl %ax,%eax
   1730b:	be a5 7b 00 00       	mov    $0x7ba5,%esi
   17310:	89 c7                	mov    %eax,%edi
   17312:	e8 e8 69 ff ff       	callq  dcff <safe_add_func_uint16_t_u_u>
   17317:	b8 01 00 00 00       	mov    $0x1,%eax
   1731c:	83 f0 01             	xor    $0x1,%eax
   1731f:	48 98                	cltq   
   17321:	89 c2                	mov    %eax,%edx
   17323:	8b 85 28 ef ff ff    	mov    -0x10d8(%rbp),%eax
   17329:	21 d0                	and    %edx,%eax
   1732b:	89 85 28 ef ff ff    	mov    %eax,-0x10d8(%rbp)
   17331:	48 c7 05 fc de 00 00 	movq   $0x1,0xdefc(%rip)        # 25238 <g_589>
   17338:	01 00 00 00 
   1733c:	90                   	nop
   1733d:	48 8b 05 f4 de 00 00 	mov    0xdef4(%rip),%rax        # 25238 <g_589>
   17344:	48 83 f8 05          	cmp    $0x5,%rax
   17348:	0f 8f 06 0f 00 00    	jg     18254 <func_18+0x2793>
   1734e:	48 8d 85 60 f0 ff ff 	lea    -0xfa0(%rbp),%rax
   17355:	48 89 85 20 f2 ff ff 	mov    %rax,-0xde0(%rbp)
   1735c:	c7 85 40 f4 ff ff fc 	movl   $0xfffffffc,-0xbc0(%rbp)
   17363:	ff ff ff 
   17366:	c7 85 44 f4 ff ff fc 	movl   $0xfffffffc,-0xbbc(%rbp)
   1736d:	ff ff ff 
   17370:	c7 85 48 f4 ff ff fc 	movl   $0xfffffffc,-0xbb8(%rbp)
   17377:	ff ff ff 
   1737a:	c7 85 4c f4 ff ff fc 	movl   $0xfffffffc,-0xbb4(%rbp)
   17381:	ff ff ff 
   17384:	48 8d 05 95 17 01 00 	lea    0x11795(%rip),%rax        # 28b20 <g_487>
   1738b:	48 89 85 80 f0 ff ff 	mov    %rax,-0xf80(%rbp)
   17392:	48 8d 85 80 f0 ff ff 	lea    -0xf80(%rbp),%rax
   17399:	48 89 85 30 f8 ff ff 	mov    %rax,-0x7d0(%rbp)
   173a0:	48 8d 85 80 f0 ff ff 	lea    -0xf80(%rbp),%rax
   173a7:	48 89 85 38 f8 ff ff 	mov    %rax,-0x7c8(%rbp)
   173ae:	48 8d 85 80 f0 ff ff 	lea    -0xf80(%rbp),%rax
   173b5:	48 89 85 40 f8 ff ff 	mov    %rax,-0x7c0(%rbp)
   173bc:	48 8d 85 80 f0 ff ff 	lea    -0xf80(%rbp),%rax
   173c3:	48 89 85 48 f8 ff ff 	mov    %rax,-0x7b8(%rbp)
   173ca:	48 8d 85 80 f0 ff ff 	lea    -0xf80(%rbp),%rax
   173d1:	48 89 85 50 f8 ff ff 	mov    %rax,-0x7b0(%rbp)
   173d8:	48 8d 85 80 f0 ff ff 	lea    -0xf80(%rbp),%rax
   173df:	48 89 85 58 f8 ff ff 	mov    %rax,-0x7a8(%rbp)
   173e6:	48 8d 85 80 f0 ff ff 	lea    -0xf80(%rbp),%rax
   173ed:	48 89 85 60 f8 ff ff 	mov    %rax,-0x7a0(%rbp)
   173f4:	48 8d 85 80 f0 ff ff 	lea    -0xf80(%rbp),%rax
   173fb:	48 89 85 68 f8 ff ff 	mov    %rax,-0x798(%rbp)
   17402:	48 8d 85 80 f0 ff ff 	lea    -0xf80(%rbp),%rax
   17409:	48 89 85 70 f8 ff ff 	mov    %rax,-0x790(%rbp)
   17410:	48 8d 85 80 f0 ff ff 	lea    -0xf80(%rbp),%rax
   17417:	48 89 85 78 f8 ff ff 	mov    %rax,-0x788(%rbp)
   1741e:	48 8d 85 80 f0 ff ff 	lea    -0xf80(%rbp),%rax
   17425:	48 89 85 80 f8 ff ff 	mov    %rax,-0x780(%rbp)
   1742c:	48 8d 85 80 f0 ff ff 	lea    -0xf80(%rbp),%rax
   17433:	48 89 85 88 f8 ff ff 	mov    %rax,-0x778(%rbp)
   1743a:	48 8d 85 80 f0 ff ff 	lea    -0xf80(%rbp),%rax
   17441:	48 89 85 90 f8 ff ff 	mov    %rax,-0x770(%rbp)
   17448:	48 8d 85 80 f0 ff ff 	lea    -0xf80(%rbp),%rax
   1744f:	48 89 85 98 f8 ff ff 	mov    %rax,-0x768(%rbp)
   17456:	48 8d 85 80 f0 ff ff 	lea    -0xf80(%rbp),%rax
   1745d:	48 89 85 a0 f8 ff ff 	mov    %rax,-0x760(%rbp)
   17464:	48 8d 85 80 f0 ff ff 	lea    -0xf80(%rbp),%rax
   1746b:	48 89 85 a8 f8 ff ff 	mov    %rax,-0x758(%rbp)
   17472:	48 8d 85 80 f0 ff ff 	lea    -0xf80(%rbp),%rax
   17479:	48 89 85 b0 f8 ff ff 	mov    %rax,-0x750(%rbp)
   17480:	48 8d 85 80 f0 ff ff 	lea    -0xf80(%rbp),%rax
   17487:	48 89 85 b8 f8 ff ff 	mov    %rax,-0x748(%rbp)
   1748e:	48 8d 85 80 f0 ff ff 	lea    -0xf80(%rbp),%rax
   17495:	48 89 85 c0 f8 ff ff 	mov    %rax,-0x740(%rbp)
   1749c:	48 8d 85 80 f0 ff ff 	lea    -0xf80(%rbp),%rax
   174a3:	48 89 85 c8 f8 ff ff 	mov    %rax,-0x738(%rbp)
   174aa:	48 8d 85 80 f0 ff ff 	lea    -0xf80(%rbp),%rax
   174b1:	48 89 85 d0 f8 ff ff 	mov    %rax,-0x730(%rbp)
   174b8:	48 8d 85 80 f0 ff ff 	lea    -0xf80(%rbp),%rax
   174bf:	48 89 85 d8 f8 ff ff 	mov    %rax,-0x728(%rbp)
   174c6:	48 8d 85 80 f0 ff ff 	lea    -0xf80(%rbp),%rax
   174cd:	48 89 85 e0 f8 ff ff 	mov    %rax,-0x720(%rbp)
   174d4:	48 8d 85 80 f0 ff ff 	lea    -0xf80(%rbp),%rax
   174db:	48 89 85 e8 f8 ff ff 	mov    %rax,-0x718(%rbp)
   174e2:	48 8d 85 80 f0 ff ff 	lea    -0xf80(%rbp),%rax
   174e9:	48 89 85 f0 f8 ff ff 	mov    %rax,-0x710(%rbp)
   174f0:	48 8d 85 80 f0 ff ff 	lea    -0xf80(%rbp),%rax
   174f7:	48 89 85 f8 f8 ff ff 	mov    %rax,-0x708(%rbp)
   174fe:	48 8d 85 80 f0 ff ff 	lea    -0xf80(%rbp),%rax
   17505:	48 89 85 00 f9 ff ff 	mov    %rax,-0x700(%rbp)
   1750c:	48 8d 85 80 f0 ff ff 	lea    -0xf80(%rbp),%rax
   17513:	48 89 85 08 f9 ff ff 	mov    %rax,-0x6f8(%rbp)
   1751a:	48 8d 85 80 f0 ff ff 	lea    -0xf80(%rbp),%rax
   17521:	48 89 85 10 f9 ff ff 	mov    %rax,-0x6f0(%rbp)
   17528:	48 8d 85 80 f0 ff ff 	lea    -0xf80(%rbp),%rax
   1752f:	48 89 85 18 f9 ff ff 	mov    %rax,-0x6e8(%rbp)
   17536:	48 8d 85 80 f0 ff ff 	lea    -0xf80(%rbp),%rax
   1753d:	48 89 85 20 f9 ff ff 	mov    %rax,-0x6e0(%rbp)
   17544:	48 8d 85 80 f0 ff ff 	lea    -0xf80(%rbp),%rax
   1754b:	48 89 85 28 f9 ff ff 	mov    %rax,-0x6d8(%rbp)
   17552:	48 8d 85 80 f0 ff ff 	lea    -0xf80(%rbp),%rax
   17559:	48 89 85 30 f9 ff ff 	mov    %rax,-0x6d0(%rbp)
   17560:	48 8d 85 80 f0 ff ff 	lea    -0xf80(%rbp),%rax
   17567:	48 89 85 38 f9 ff ff 	mov    %rax,-0x6c8(%rbp)
   1756e:	48 8d 85 80 f0 ff ff 	lea    -0xf80(%rbp),%rax
   17575:	48 89 85 40 f9 ff ff 	mov    %rax,-0x6c0(%rbp)
   1757c:	48 8d 85 80 f0 ff ff 	lea    -0xf80(%rbp),%rax
   17583:	48 89 85 48 f9 ff ff 	mov    %rax,-0x6b8(%rbp)
   1758a:	48 8d 85 80 f0 ff ff 	lea    -0xf80(%rbp),%rax
   17591:	48 89 85 50 f9 ff ff 	mov    %rax,-0x6b0(%rbp)
   17598:	48 8d 85 80 f0 ff ff 	lea    -0xf80(%rbp),%rax
   1759f:	48 89 85 58 f9 ff ff 	mov    %rax,-0x6a8(%rbp)
   175a6:	48 8d 85 80 f0 ff ff 	lea    -0xf80(%rbp),%rax
   175ad:	48 89 85 60 f9 ff ff 	mov    %rax,-0x6a0(%rbp)
   175b4:	48 8d 85 80 f0 ff ff 	lea    -0xf80(%rbp),%rax
   175bb:	48 89 85 68 f9 ff ff 	mov    %rax,-0x698(%rbp)
   175c2:	48 8d 85 80 f0 ff ff 	lea    -0xf80(%rbp),%rax
   175c9:	48 89 85 70 f9 ff ff 	mov    %rax,-0x690(%rbp)
   175d0:	48 8d 85 80 f0 ff ff 	lea    -0xf80(%rbp),%rax
   175d7:	48 89 85 78 f9 ff ff 	mov    %rax,-0x688(%rbp)
   175de:	48 8d 85 80 f0 ff ff 	lea    -0xf80(%rbp),%rax
   175e5:	48 89 85 80 f9 ff ff 	mov    %rax,-0x680(%rbp)
   175ec:	48 8d 85 80 f0 ff ff 	lea    -0xf80(%rbp),%rax
   175f3:	48 89 85 88 f9 ff ff 	mov    %rax,-0x678(%rbp)
   175fa:	48 8d 85 80 f0 ff ff 	lea    -0xf80(%rbp),%rax
   17601:	48 89 85 90 f9 ff ff 	mov    %rax,-0x670(%rbp)
   17608:	48 8d 85 80 f0 ff ff 	lea    -0xf80(%rbp),%rax
   1760f:	48 89 85 98 f9 ff ff 	mov    %rax,-0x668(%rbp)
   17616:	48 8d 85 80 f0 ff ff 	lea    -0xf80(%rbp),%rax
   1761d:	48 89 85 a0 f9 ff ff 	mov    %rax,-0x660(%rbp)
   17624:	48 8d 85 80 f0 ff ff 	lea    -0xf80(%rbp),%rax
   1762b:	48 89 85 a8 f9 ff ff 	mov    %rax,-0x658(%rbp)
   17632:	48 8d 85 80 f0 ff ff 	lea    -0xf80(%rbp),%rax
   17639:	48 89 85 b0 f9 ff ff 	mov    %rax,-0x650(%rbp)
   17640:	48 8d 85 80 f0 ff ff 	lea    -0xf80(%rbp),%rax
   17647:	48 89 85 b8 f9 ff ff 	mov    %rax,-0x648(%rbp)
   1764e:	48 8d 85 80 f0 ff ff 	lea    -0xf80(%rbp),%rax
   17655:	48 89 85 c0 f9 ff ff 	mov    %rax,-0x640(%rbp)
   1765c:	48 8d 85 80 f0 ff ff 	lea    -0xf80(%rbp),%rax
   17663:	48 89 85 c8 f9 ff ff 	mov    %rax,-0x638(%rbp)
   1766a:	48 8d 85 80 f0 ff ff 	lea    -0xf80(%rbp),%rax
   17671:	48 89 85 d0 f9 ff ff 	mov    %rax,-0x630(%rbp)
   17678:	48 8d 85 80 f0 ff ff 	lea    -0xf80(%rbp),%rax
   1767f:	48 89 85 d8 f9 ff ff 	mov    %rax,-0x628(%rbp)
   17686:	48 8d 85 80 f0 ff ff 	lea    -0xf80(%rbp),%rax
   1768d:	48 89 85 e0 f9 ff ff 	mov    %rax,-0x620(%rbp)
   17694:	48 8d 85 80 f0 ff ff 	lea    -0xf80(%rbp),%rax
   1769b:	48 89 85 e8 f9 ff ff 	mov    %rax,-0x618(%rbp)
   176a2:	48 8d 85 80 f0 ff ff 	lea    -0xf80(%rbp),%rax
   176a9:	48 89 85 f0 f9 ff ff 	mov    %rax,-0x610(%rbp)
   176b0:	48 8d 85 80 f0 ff ff 	lea    -0xf80(%rbp),%rax
   176b7:	48 89 85 f8 f9 ff ff 	mov    %rax,-0x608(%rbp)
   176be:	48 8d 85 80 f0 ff ff 	lea    -0xf80(%rbp),%rax
   176c5:	48 89 85 00 fa ff ff 	mov    %rax,-0x600(%rbp)
   176cc:	48 8d 85 80 f0 ff ff 	lea    -0xf80(%rbp),%rax
   176d3:	48 89 85 08 fa ff ff 	mov    %rax,-0x5f8(%rbp)
   176da:	48 8d 85 80 f0 ff ff 	lea    -0xf80(%rbp),%rax
   176e1:	48 89 85 10 fa ff ff 	mov    %rax,-0x5f0(%rbp)
   176e8:	48 8d 85 80 f0 ff ff 	lea    -0xf80(%rbp),%rax
   176ef:	48 89 85 18 fa ff ff 	mov    %rax,-0x5e8(%rbp)
   176f6:	48 8d 85 80 f0 ff ff 	lea    -0xf80(%rbp),%rax
   176fd:	48 89 85 20 fa ff ff 	mov    %rax,-0x5e0(%rbp)
   17704:	48 8d 85 80 f0 ff ff 	lea    -0xf80(%rbp),%rax
   1770b:	48 89 85 28 fa ff ff 	mov    %rax,-0x5d8(%rbp)
   17712:	48 8d 85 80 f0 ff ff 	lea    -0xf80(%rbp),%rax
   17719:	48 89 85 30 fa ff ff 	mov    %rax,-0x5d0(%rbp)
   17720:	48 8d 85 80 f0 ff ff 	lea    -0xf80(%rbp),%rax
   17727:	48 89 85 38 fa ff ff 	mov    %rax,-0x5c8(%rbp)
   1772e:	48 8d 85 80 f0 ff ff 	lea    -0xf80(%rbp),%rax
   17735:	48 89 85 40 fa ff ff 	mov    %rax,-0x5c0(%rbp)
   1773c:	48 8d 85 80 f0 ff ff 	lea    -0xf80(%rbp),%rax
   17743:	48 89 85 48 fa ff ff 	mov    %rax,-0x5b8(%rbp)
   1774a:	48 8d 85 80 f0 ff ff 	lea    -0xf80(%rbp),%rax
   17751:	48 89 85 50 fa ff ff 	mov    %rax,-0x5b0(%rbp)
   17758:	48 8d 85 80 f0 ff ff 	lea    -0xf80(%rbp),%rax
   1775f:	48 89 85 58 fa ff ff 	mov    %rax,-0x5a8(%rbp)
   17766:	48 8d 85 80 f0 ff ff 	lea    -0xf80(%rbp),%rax
   1776d:	48 89 85 60 fa ff ff 	mov    %rax,-0x5a0(%rbp)
   17774:	48 8d 85 80 f0 ff ff 	lea    -0xf80(%rbp),%rax
   1777b:	48 89 85 68 fa ff ff 	mov    %rax,-0x598(%rbp)
   17782:	48 8d 85 80 f0 ff ff 	lea    -0xf80(%rbp),%rax
   17789:	48 89 85 70 fa ff ff 	mov    %rax,-0x590(%rbp)
   17790:	48 8d 85 80 f0 ff ff 	lea    -0xf80(%rbp),%rax
   17797:	48 89 85 78 fa ff ff 	mov    %rax,-0x588(%rbp)
   1779e:	48 8d 85 80 f0 ff ff 	lea    -0xf80(%rbp),%rax
   177a5:	48 89 85 80 fa ff ff 	mov    %rax,-0x580(%rbp)
   177ac:	48 8d 85 80 f0 ff ff 	lea    -0xf80(%rbp),%rax
   177b3:	48 89 85 88 fa ff ff 	mov    %rax,-0x578(%rbp)
   177ba:	48 8d 85 80 f0 ff ff 	lea    -0xf80(%rbp),%rax
   177c1:	48 89 85 90 fa ff ff 	mov    %rax,-0x570(%rbp)
   177c8:	48 8d 85 80 f0 ff ff 	lea    -0xf80(%rbp),%rax
   177cf:	48 89 85 98 fa ff ff 	mov    %rax,-0x568(%rbp)
   177d6:	48 8d 85 80 f0 ff ff 	lea    -0xf80(%rbp),%rax
   177dd:	48 89 85 a0 fa ff ff 	mov    %rax,-0x560(%rbp)
   177e4:	48 8d 85 80 f0 ff ff 	lea    -0xf80(%rbp),%rax
   177eb:	48 89 85 a8 fa ff ff 	mov    %rax,-0x558(%rbp)
   177f2:	48 8d 85 80 f0 ff ff 	lea    -0xf80(%rbp),%rax
   177f9:	48 89 85 b0 fa ff ff 	mov    %rax,-0x550(%rbp)
   17800:	48 8d 85 80 f0 ff ff 	lea    -0xf80(%rbp),%rax
   17807:	48 89 85 b8 fa ff ff 	mov    %rax,-0x548(%rbp)
   1780e:	48 8d 85 80 f0 ff ff 	lea    -0xf80(%rbp),%rax
   17815:	48 89 85 c0 fa ff ff 	mov    %rax,-0x540(%rbp)
   1781c:	48 8d 85 80 f0 ff ff 	lea    -0xf80(%rbp),%rax
   17823:	48 89 85 c8 fa ff ff 	mov    %rax,-0x538(%rbp)
   1782a:	48 8d 85 80 f0 ff ff 	lea    -0xf80(%rbp),%rax
   17831:	48 89 85 d0 fa ff ff 	mov    %rax,-0x530(%rbp)
   17838:	48 8d 85 80 f0 ff ff 	lea    -0xf80(%rbp),%rax
   1783f:	48 89 85 d8 fa ff ff 	mov    %rax,-0x528(%rbp)
   17846:	48 8d 85 80 f0 ff ff 	lea    -0xf80(%rbp),%rax
   1784d:	48 89 85 e0 fa ff ff 	mov    %rax,-0x520(%rbp)
   17854:	48 8d 85 80 f0 ff ff 	lea    -0xf80(%rbp),%rax
   1785b:	48 89 85 e8 fa ff ff 	mov    %rax,-0x518(%rbp)
   17862:	48 8d 85 80 f0 ff ff 	lea    -0xf80(%rbp),%rax
   17869:	48 89 85 f0 fa ff ff 	mov    %rax,-0x510(%rbp)
   17870:	48 8d 85 80 f0 ff ff 	lea    -0xf80(%rbp),%rax
   17877:	48 89 85 f8 fa ff ff 	mov    %rax,-0x508(%rbp)
   1787e:	48 8d 85 80 f0 ff ff 	lea    -0xf80(%rbp),%rax
   17885:	48 89 85 00 fb ff ff 	mov    %rax,-0x500(%rbp)
   1788c:	48 8d 85 80 f0 ff ff 	lea    -0xf80(%rbp),%rax
   17893:	48 89 85 08 fb ff ff 	mov    %rax,-0x4f8(%rbp)
   1789a:	48 8d 85 80 f0 ff ff 	lea    -0xf80(%rbp),%rax
   178a1:	48 89 85 10 fb ff ff 	mov    %rax,-0x4f0(%rbp)
   178a8:	48 8d 85 80 f0 ff ff 	lea    -0xf80(%rbp),%rax
   178af:	48 89 85 18 fb ff ff 	mov    %rax,-0x4e8(%rbp)
   178b6:	48 8d 85 80 f0 ff ff 	lea    -0xf80(%rbp),%rax
   178bd:	48 89 85 20 fb ff ff 	mov    %rax,-0x4e0(%rbp)
   178c4:	48 8d 85 80 f0 ff ff 	lea    -0xf80(%rbp),%rax
   178cb:	48 89 85 28 fb ff ff 	mov    %rax,-0x4d8(%rbp)
   178d2:	48 8d 85 80 f0 ff ff 	lea    -0xf80(%rbp),%rax
   178d9:	48 89 85 30 fb ff ff 	mov    %rax,-0x4d0(%rbp)
   178e0:	48 8d 85 80 f0 ff ff 	lea    -0xf80(%rbp),%rax
   178e7:	48 89 85 38 fb ff ff 	mov    %rax,-0x4c8(%rbp)
   178ee:	48 8d 85 80 f0 ff ff 	lea    -0xf80(%rbp),%rax
   178f5:	48 89 85 40 fb ff ff 	mov    %rax,-0x4c0(%rbp)
   178fc:	48 8d 85 80 f0 ff ff 	lea    -0xf80(%rbp),%rax
   17903:	48 89 85 48 fb ff ff 	mov    %rax,-0x4b8(%rbp)
   1790a:	48 8d 85 80 f0 ff ff 	lea    -0xf80(%rbp),%rax
   17911:	48 89 85 50 fb ff ff 	mov    %rax,-0x4b0(%rbp)
   17918:	48 8d 85 80 f0 ff ff 	lea    -0xf80(%rbp),%rax
   1791f:	48 89 85 58 fb ff ff 	mov    %rax,-0x4a8(%rbp)
   17926:	48 8d 85 80 f0 ff ff 	lea    -0xf80(%rbp),%rax
   1792d:	48 89 85 60 fb ff ff 	mov    %rax,-0x4a0(%rbp)
   17934:	48 8d 85 80 f0 ff ff 	lea    -0xf80(%rbp),%rax
   1793b:	48 89 85 68 fb ff ff 	mov    %rax,-0x498(%rbp)
   17942:	48 8d 85 80 f0 ff ff 	lea    -0xf80(%rbp),%rax
   17949:	48 89 85 70 fb ff ff 	mov    %rax,-0x490(%rbp)
   17950:	48 8d 85 80 f0 ff ff 	lea    -0xf80(%rbp),%rax
   17957:	48 89 85 78 fb ff ff 	mov    %rax,-0x488(%rbp)
   1795e:	48 8d 85 80 f0 ff ff 	lea    -0xf80(%rbp),%rax
   17965:	48 89 85 80 fb ff ff 	mov    %rax,-0x480(%rbp)
   1796c:	48 8d 85 80 f0 ff ff 	lea    -0xf80(%rbp),%rax
   17973:	48 89 85 88 fb ff ff 	mov    %rax,-0x478(%rbp)
   1797a:	48 8d 85 80 f0 ff ff 	lea    -0xf80(%rbp),%rax
   17981:	48 89 85 90 fb ff ff 	mov    %rax,-0x470(%rbp)
   17988:	48 8d 85 80 f0 ff ff 	lea    -0xf80(%rbp),%rax
   1798f:	48 89 85 98 fb ff ff 	mov    %rax,-0x468(%rbp)
   17996:	48 8d 85 80 f0 ff ff 	lea    -0xf80(%rbp),%rax
   1799d:	48 89 85 a0 fb ff ff 	mov    %rax,-0x460(%rbp)
   179a4:	48 8d 85 80 f0 ff ff 	lea    -0xf80(%rbp),%rax
   179ab:	48 89 85 a8 fb ff ff 	mov    %rax,-0x458(%rbp)
   179b2:	48 8d 85 80 f0 ff ff 	lea    -0xf80(%rbp),%rax
   179b9:	48 89 85 b0 fb ff ff 	mov    %rax,-0x450(%rbp)
   179c0:	48 8d 85 80 f0 ff ff 	lea    -0xf80(%rbp),%rax
   179c7:	48 89 85 b8 fb ff ff 	mov    %rax,-0x448(%rbp)
   179ce:	48 8d 85 80 f0 ff ff 	lea    -0xf80(%rbp),%rax
   179d5:	48 89 85 c0 fb ff ff 	mov    %rax,-0x440(%rbp)
   179dc:	48 8d 85 80 f0 ff ff 	lea    -0xf80(%rbp),%rax
   179e3:	48 89 85 c8 fb ff ff 	mov    %rax,-0x438(%rbp)
   179ea:	48 8d 85 80 f0 ff ff 	lea    -0xf80(%rbp),%rax
   179f1:	48 89 85 d0 fb ff ff 	mov    %rax,-0x430(%rbp)
   179f8:	48 8d 85 80 f0 ff ff 	lea    -0xf80(%rbp),%rax
   179ff:	48 89 85 d8 fb ff ff 	mov    %rax,-0x428(%rbp)
   17a06:	48 8d 85 80 f0 ff ff 	lea    -0xf80(%rbp),%rax
   17a0d:	48 89 85 e0 fb ff ff 	mov    %rax,-0x420(%rbp)
   17a14:	48 8d 85 80 f0 ff ff 	lea    -0xf80(%rbp),%rax
   17a1b:	48 89 85 e8 fb ff ff 	mov    %rax,-0x418(%rbp)
   17a22:	48 8d 85 80 f0 ff ff 	lea    -0xf80(%rbp),%rax
   17a29:	48 89 85 f0 fb ff ff 	mov    %rax,-0x410(%rbp)
   17a30:	48 8d 85 80 f0 ff ff 	lea    -0xf80(%rbp),%rax
   17a37:	48 89 85 f8 fb ff ff 	mov    %rax,-0x408(%rbp)
   17a3e:	48 8d 85 80 f0 ff ff 	lea    -0xf80(%rbp),%rax
   17a45:	48 89 85 00 fc ff ff 	mov    %rax,-0x400(%rbp)
   17a4c:	48 8d 85 80 f0 ff ff 	lea    -0xf80(%rbp),%rax
   17a53:	48 89 85 08 fc ff ff 	mov    %rax,-0x3f8(%rbp)
   17a5a:	48 8d 85 80 f0 ff ff 	lea    -0xf80(%rbp),%rax
   17a61:	48 89 85 10 fc ff ff 	mov    %rax,-0x3f0(%rbp)
   17a68:	48 8d 85 80 f0 ff ff 	lea    -0xf80(%rbp),%rax
   17a6f:	48 89 85 18 fc ff ff 	mov    %rax,-0x3e8(%rbp)
   17a76:	48 8d 85 80 f0 ff ff 	lea    -0xf80(%rbp),%rax
   17a7d:	48 89 85 20 fc ff ff 	mov    %rax,-0x3e0(%rbp)
   17a84:	48 8d 85 80 f0 ff ff 	lea    -0xf80(%rbp),%rax
   17a8b:	48 89 85 28 fc ff ff 	mov    %rax,-0x3d8(%rbp)
   17a92:	48 8d 85 80 f0 ff ff 	lea    -0xf80(%rbp),%rax
   17a99:	48 89 85 30 fc ff ff 	mov    %rax,-0x3d0(%rbp)
   17aa0:	48 8d 85 80 f0 ff ff 	lea    -0xf80(%rbp),%rax
   17aa7:	48 89 85 38 fc ff ff 	mov    %rax,-0x3c8(%rbp)
   17aae:	48 8d 85 80 f0 ff ff 	lea    -0xf80(%rbp),%rax
   17ab5:	48 89 85 40 fc ff ff 	mov    %rax,-0x3c0(%rbp)
   17abc:	48 8d 85 80 f0 ff ff 	lea    -0xf80(%rbp),%rax
   17ac3:	48 89 85 48 fc ff ff 	mov    %rax,-0x3b8(%rbp)
   17aca:	48 8d 85 80 f0 ff ff 	lea    -0xf80(%rbp),%rax
   17ad1:	48 89 85 50 fc ff ff 	mov    %rax,-0x3b0(%rbp)
   17ad8:	48 8d 85 80 f0 ff ff 	lea    -0xf80(%rbp),%rax
   17adf:	48 89 85 58 fc ff ff 	mov    %rax,-0x3a8(%rbp)
   17ae6:	48 8d 85 80 f0 ff ff 	lea    -0xf80(%rbp),%rax
   17aed:	48 89 85 60 fc ff ff 	mov    %rax,-0x3a0(%rbp)
   17af4:	48 8d 85 80 f0 ff ff 	lea    -0xf80(%rbp),%rax
   17afb:	48 89 85 68 fc ff ff 	mov    %rax,-0x398(%rbp)
   17b02:	48 8d 85 80 f0 ff ff 	lea    -0xf80(%rbp),%rax
   17b09:	48 89 85 70 fc ff ff 	mov    %rax,-0x390(%rbp)
   17b10:	48 8d 85 80 f0 ff ff 	lea    -0xf80(%rbp),%rax
   17b17:	48 89 85 78 fc ff ff 	mov    %rax,-0x388(%rbp)
   17b1e:	48 8d 85 80 f0 ff ff 	lea    -0xf80(%rbp),%rax
   17b25:	48 89 85 80 fc ff ff 	mov    %rax,-0x380(%rbp)
   17b2c:	48 8d 85 80 f0 ff ff 	lea    -0xf80(%rbp),%rax
   17b33:	48 89 85 88 fc ff ff 	mov    %rax,-0x378(%rbp)
   17b3a:	48 8d 85 80 f0 ff ff 	lea    -0xf80(%rbp),%rax
   17b41:	48 89 85 90 fc ff ff 	mov    %rax,-0x370(%rbp)
   17b48:	48 8d 85 80 f0 ff ff 	lea    -0xf80(%rbp),%rax
   17b4f:	48 89 85 98 fc ff ff 	mov    %rax,-0x368(%rbp)
   17b56:	48 8d 85 80 f0 ff ff 	lea    -0xf80(%rbp),%rax
   17b5d:	48 89 85 a0 fc ff ff 	mov    %rax,-0x360(%rbp)
   17b64:	48 8d 85 80 f0 ff ff 	lea    -0xf80(%rbp),%rax
   17b6b:	48 89 85 a8 fc ff ff 	mov    %rax,-0x358(%rbp)
   17b72:	48 8d 85 80 f0 ff ff 	lea    -0xf80(%rbp),%rax
   17b79:	48 89 85 b0 fc ff ff 	mov    %rax,-0x350(%rbp)
   17b80:	48 8d 85 80 f0 ff ff 	lea    -0xf80(%rbp),%rax
   17b87:	48 89 85 b8 fc ff ff 	mov    %rax,-0x348(%rbp)
   17b8e:	48 8d 85 80 f0 ff ff 	lea    -0xf80(%rbp),%rax
   17b95:	48 89 85 c0 fc ff ff 	mov    %rax,-0x340(%rbp)
   17b9c:	48 8d 85 80 f0 ff ff 	lea    -0xf80(%rbp),%rax
   17ba3:	48 89 85 c8 fc ff ff 	mov    %rax,-0x338(%rbp)
   17baa:	48 8d 85 80 f0 ff ff 	lea    -0xf80(%rbp),%rax
   17bb1:	48 89 85 d0 fc ff ff 	mov    %rax,-0x330(%rbp)
   17bb8:	48 8d 85 80 f0 ff ff 	lea    -0xf80(%rbp),%rax
   17bbf:	48 89 85 d8 fc ff ff 	mov    %rax,-0x328(%rbp)
   17bc6:	48 8d 85 80 f0 ff ff 	lea    -0xf80(%rbp),%rax
   17bcd:	48 89 85 e0 fc ff ff 	mov    %rax,-0x320(%rbp)
   17bd4:	48 8d 85 80 f0 ff ff 	lea    -0xf80(%rbp),%rax
   17bdb:	48 89 85 e8 fc ff ff 	mov    %rax,-0x318(%rbp)
   17be2:	48 8d 85 80 f0 ff ff 	lea    -0xf80(%rbp),%rax
   17be9:	48 89 85 f0 fc ff ff 	mov    %rax,-0x310(%rbp)
   17bf0:	48 8d 85 80 f0 ff ff 	lea    -0xf80(%rbp),%rax
   17bf7:	48 89 85 f8 fc ff ff 	mov    %rax,-0x308(%rbp)
   17bfe:	48 8d 85 80 f0 ff ff 	lea    -0xf80(%rbp),%rax
   17c05:	48 89 85 00 fd ff ff 	mov    %rax,-0x300(%rbp)
   17c0c:	48 8d 85 80 f0 ff ff 	lea    -0xf80(%rbp),%rax
   17c13:	48 89 85 08 fd ff ff 	mov    %rax,-0x2f8(%rbp)
   17c1a:	48 8d 85 80 f0 ff ff 	lea    -0xf80(%rbp),%rax
   17c21:	48 89 85 10 fd ff ff 	mov    %rax,-0x2f0(%rbp)
   17c28:	48 8d 85 80 f0 ff ff 	lea    -0xf80(%rbp),%rax
   17c2f:	48 89 85 18 fd ff ff 	mov    %rax,-0x2e8(%rbp)
   17c36:	48 8d 85 80 f0 ff ff 	lea    -0xf80(%rbp),%rax
   17c3d:	48 89 85 20 fd ff ff 	mov    %rax,-0x2e0(%rbp)
   17c44:	48 8d 85 80 f0 ff ff 	lea    -0xf80(%rbp),%rax
   17c4b:	48 89 85 28 fd ff ff 	mov    %rax,-0x2d8(%rbp)
   17c52:	48 8d 85 80 f0 ff ff 	lea    -0xf80(%rbp),%rax
   17c59:	48 89 85 30 fd ff ff 	mov    %rax,-0x2d0(%rbp)
   17c60:	48 8d 85 80 f0 ff ff 	lea    -0xf80(%rbp),%rax
   17c67:	48 89 85 38 fd ff ff 	mov    %rax,-0x2c8(%rbp)
   17c6e:	48 8d 85 80 f0 ff ff 	lea    -0xf80(%rbp),%rax
   17c75:	48 89 85 40 fd ff ff 	mov    %rax,-0x2c0(%rbp)
   17c7c:	48 8d 85 80 f0 ff ff 	lea    -0xf80(%rbp),%rax
   17c83:	48 89 85 48 fd ff ff 	mov    %rax,-0x2b8(%rbp)
   17c8a:	48 8d 85 80 f0 ff ff 	lea    -0xf80(%rbp),%rax
   17c91:	48 89 85 50 fd ff ff 	mov    %rax,-0x2b0(%rbp)
   17c98:	48 8d 85 80 f0 ff ff 	lea    -0xf80(%rbp),%rax
   17c9f:	48 89 85 58 fd ff ff 	mov    %rax,-0x2a8(%rbp)
   17ca6:	48 8d 85 80 f0 ff ff 	lea    -0xf80(%rbp),%rax
   17cad:	48 89 85 60 fd ff ff 	mov    %rax,-0x2a0(%rbp)
   17cb4:	48 8d 85 80 f0 ff ff 	lea    -0xf80(%rbp),%rax
   17cbb:	48 89 85 68 fd ff ff 	mov    %rax,-0x298(%rbp)
   17cc2:	48 8d 85 80 f0 ff ff 	lea    -0xf80(%rbp),%rax
   17cc9:	48 89 85 70 fd ff ff 	mov    %rax,-0x290(%rbp)
   17cd0:	48 8d 85 80 f0 ff ff 	lea    -0xf80(%rbp),%rax
   17cd7:	48 89 85 78 fd ff ff 	mov    %rax,-0x288(%rbp)
   17cde:	48 8d 85 80 f0 ff ff 	lea    -0xf80(%rbp),%rax
   17ce5:	48 89 85 80 fd ff ff 	mov    %rax,-0x280(%rbp)
   17cec:	48 8d 85 80 f0 ff ff 	lea    -0xf80(%rbp),%rax
   17cf3:	48 89 85 88 fd ff ff 	mov    %rax,-0x278(%rbp)
   17cfa:	48 8d 85 80 f0 ff ff 	lea    -0xf80(%rbp),%rax
   17d01:	48 89 85 90 fd ff ff 	mov    %rax,-0x270(%rbp)
   17d08:	48 8d 85 80 f0 ff ff 	lea    -0xf80(%rbp),%rax
   17d0f:	48 89 85 98 fd ff ff 	mov    %rax,-0x268(%rbp)
   17d16:	48 8d 85 80 f0 ff ff 	lea    -0xf80(%rbp),%rax
   17d1d:	48 89 85 a0 fd ff ff 	mov    %rax,-0x260(%rbp)
   17d24:	48 8d 85 80 f0 ff ff 	lea    -0xf80(%rbp),%rax
   17d2b:	48 89 85 a8 fd ff ff 	mov    %rax,-0x258(%rbp)
   17d32:	48 8d 85 80 f0 ff ff 	lea    -0xf80(%rbp),%rax
   17d39:	48 89 85 b0 fd ff ff 	mov    %rax,-0x250(%rbp)
   17d40:	48 8d 85 80 f0 ff ff 	lea    -0xf80(%rbp),%rax
   17d47:	48 89 85 b8 fd ff ff 	mov    %rax,-0x248(%rbp)
   17d4e:	48 8d 85 80 f0 ff ff 	lea    -0xf80(%rbp),%rax
   17d55:	48 89 85 c0 fd ff ff 	mov    %rax,-0x240(%rbp)
   17d5c:	48 8d 85 80 f0 ff ff 	lea    -0xf80(%rbp),%rax
   17d63:	48 89 85 c8 fd ff ff 	mov    %rax,-0x238(%rbp)
   17d6a:	48 8d 85 80 f0 ff ff 	lea    -0xf80(%rbp),%rax
   17d71:	48 89 85 d0 fd ff ff 	mov    %rax,-0x230(%rbp)
   17d78:	48 8d 85 80 f0 ff ff 	lea    -0xf80(%rbp),%rax
   17d7f:	48 89 85 d8 fd ff ff 	mov    %rax,-0x228(%rbp)
   17d86:	48 8d 85 80 f0 ff ff 	lea    -0xf80(%rbp),%rax
   17d8d:	48 89 85 e0 fd ff ff 	mov    %rax,-0x220(%rbp)
   17d94:	48 8d 85 80 f0 ff ff 	lea    -0xf80(%rbp),%rax
   17d9b:	48 89 85 e8 fd ff ff 	mov    %rax,-0x218(%rbp)
   17da2:	48 8d 85 80 f0 ff ff 	lea    -0xf80(%rbp),%rax
   17da9:	48 89 85 f0 fd ff ff 	mov    %rax,-0x210(%rbp)
   17db0:	48 8d 85 80 f0 ff ff 	lea    -0xf80(%rbp),%rax
   17db7:	48 89 85 f8 fd ff ff 	mov    %rax,-0x208(%rbp)
   17dbe:	48 8d 85 80 f0 ff ff 	lea    -0xf80(%rbp),%rax
   17dc5:	48 89 85 00 fe ff ff 	mov    %rax,-0x200(%rbp)
   17dcc:	48 8d 85 80 f0 ff ff 	lea    -0xf80(%rbp),%rax
   17dd3:	48 89 85 08 fe ff ff 	mov    %rax,-0x1f8(%rbp)
   17dda:	48 8d 85 80 f0 ff ff 	lea    -0xf80(%rbp),%rax
   17de1:	48 89 85 10 fe ff ff 	mov    %rax,-0x1f0(%rbp)
   17de8:	48 8d 85 80 f0 ff ff 	lea    -0xf80(%rbp),%rax
   17def:	48 89 85 18 fe ff ff 	mov    %rax,-0x1e8(%rbp)
   17df6:	48 8d 85 80 f0 ff ff 	lea    -0xf80(%rbp),%rax
   17dfd:	48 89 85 20 fe ff ff 	mov    %rax,-0x1e0(%rbp)
   17e04:	48 8d 85 80 f0 ff ff 	lea    -0xf80(%rbp),%rax
   17e0b:	48 89 85 28 fe ff ff 	mov    %rax,-0x1d8(%rbp)
   17e12:	48 8d 85 80 f0 ff ff 	lea    -0xf80(%rbp),%rax
   17e19:	48 89 85 30 fe ff ff 	mov    %rax,-0x1d0(%rbp)
   17e20:	48 8d 85 80 f0 ff ff 	lea    -0xf80(%rbp),%rax
   17e27:	48 89 85 38 fe ff ff 	mov    %rax,-0x1c8(%rbp)
   17e2e:	48 8d 85 80 f0 ff ff 	lea    -0xf80(%rbp),%rax
   17e35:	48 89 85 40 fe ff ff 	mov    %rax,-0x1c0(%rbp)
   17e3c:	48 8d 85 80 f0 ff ff 	lea    -0xf80(%rbp),%rax
   17e43:	48 89 85 48 fe ff ff 	mov    %rax,-0x1b8(%rbp)
   17e4a:	48 8d 85 80 f0 ff ff 	lea    -0xf80(%rbp),%rax
   17e51:	48 89 85 50 fe ff ff 	mov    %rax,-0x1b0(%rbp)
   17e58:	48 8d 85 80 f0 ff ff 	lea    -0xf80(%rbp),%rax
   17e5f:	48 89 85 58 fe ff ff 	mov    %rax,-0x1a8(%rbp)
   17e66:	48 8d 85 80 f0 ff ff 	lea    -0xf80(%rbp),%rax
   17e6d:	48 89 85 60 fe ff ff 	mov    %rax,-0x1a0(%rbp)
   17e74:	48 8d 85 80 f0 ff ff 	lea    -0xf80(%rbp),%rax
   17e7b:	48 89 85 68 fe ff ff 	mov    %rax,-0x198(%rbp)
   17e82:	48 8d 85 80 f0 ff ff 	lea    -0xf80(%rbp),%rax
   17e89:	48 89 85 70 fe ff ff 	mov    %rax,-0x190(%rbp)
   17e90:	48 8d 85 80 f0 ff ff 	lea    -0xf80(%rbp),%rax
   17e97:	48 89 85 78 fe ff ff 	mov    %rax,-0x188(%rbp)
   17e9e:	48 8d 85 80 f0 ff ff 	lea    -0xf80(%rbp),%rax
   17ea5:	48 89 85 80 fe ff ff 	mov    %rax,-0x180(%rbp)
   17eac:	48 8d 85 80 f0 ff ff 	lea    -0xf80(%rbp),%rax
   17eb3:	48 89 85 88 fe ff ff 	mov    %rax,-0x178(%rbp)
   17eba:	48 8d 85 80 f0 ff ff 	lea    -0xf80(%rbp),%rax
   17ec1:	48 89 85 90 fe ff ff 	mov    %rax,-0x170(%rbp)
   17ec8:	48 8d 85 80 f0 ff ff 	lea    -0xf80(%rbp),%rax
   17ecf:	48 89 85 98 fe ff ff 	mov    %rax,-0x168(%rbp)
   17ed6:	48 8d 85 80 f0 ff ff 	lea    -0xf80(%rbp),%rax
   17edd:	48 89 85 a0 fe ff ff 	mov    %rax,-0x160(%rbp)
   17ee4:	48 8d 85 80 f0 ff ff 	lea    -0xf80(%rbp),%rax
   17eeb:	48 89 85 a8 fe ff ff 	mov    %rax,-0x158(%rbp)
   17ef2:	48 8d 85 80 f0 ff ff 	lea    -0xf80(%rbp),%rax
   17ef9:	48 89 85 b0 fe ff ff 	mov    %rax,-0x150(%rbp)
   17f00:	48 8d 85 80 f0 ff ff 	lea    -0xf80(%rbp),%rax
   17f07:	48 89 85 b8 fe ff ff 	mov    %rax,-0x148(%rbp)
   17f0e:	48 8d 85 80 f0 ff ff 	lea    -0xf80(%rbp),%rax
   17f15:	48 89 85 c0 fe ff ff 	mov    %rax,-0x140(%rbp)
   17f1c:	48 8d 85 80 f0 ff ff 	lea    -0xf80(%rbp),%rax
   17f23:	48 89 85 c8 fe ff ff 	mov    %rax,-0x138(%rbp)
   17f2a:	48 8d 85 80 f0 ff ff 	lea    -0xf80(%rbp),%rax
   17f31:	48 89 85 d0 fe ff ff 	mov    %rax,-0x130(%rbp)
   17f38:	48 8d 85 80 f0 ff ff 	lea    -0xf80(%rbp),%rax
   17f3f:	48 89 85 d8 fe ff ff 	mov    %rax,-0x128(%rbp)
   17f46:	48 8d 85 80 f0 ff ff 	lea    -0xf80(%rbp),%rax
   17f4d:	48 89 85 e0 fe ff ff 	mov    %rax,-0x120(%rbp)
   17f54:	48 8d 85 80 f0 ff ff 	lea    -0xf80(%rbp),%rax
   17f5b:	48 89 85 e8 fe ff ff 	mov    %rax,-0x118(%rbp)
   17f62:	48 8d 85 80 f0 ff ff 	lea    -0xf80(%rbp),%rax
   17f69:	48 89 85 f0 fe ff ff 	mov    %rax,-0x110(%rbp)
   17f70:	48 8d 85 80 f0 ff ff 	lea    -0xf80(%rbp),%rax
   17f77:	48 89 85 f8 fe ff ff 	mov    %rax,-0x108(%rbp)
   17f7e:	48 8d 85 80 f0 ff ff 	lea    -0xf80(%rbp),%rax
   17f85:	48 89 85 00 ff ff ff 	mov    %rax,-0x100(%rbp)
   17f8c:	48 8d 85 80 f0 ff ff 	lea    -0xf80(%rbp),%rax
   17f93:	48 89 85 08 ff ff ff 	mov    %rax,-0xf8(%rbp)
   17f9a:	48 8d 85 80 f0 ff ff 	lea    -0xf80(%rbp),%rax
   17fa1:	48 89 85 10 ff ff ff 	mov    %rax,-0xf0(%rbp)
   17fa8:	48 8d 85 80 f0 ff ff 	lea    -0xf80(%rbp),%rax
   17faf:	48 89 85 18 ff ff ff 	mov    %rax,-0xe8(%rbp)
   17fb6:	48 8d 85 80 f0 ff ff 	lea    -0xf80(%rbp),%rax
   17fbd:	48 89 85 20 ff ff ff 	mov    %rax,-0xe0(%rbp)
   17fc4:	48 8d 85 80 f0 ff ff 	lea    -0xf80(%rbp),%rax
   17fcb:	48 89 85 28 ff ff ff 	mov    %rax,-0xd8(%rbp)
   17fd2:	48 8d 85 80 f0 ff ff 	lea    -0xf80(%rbp),%rax
   17fd9:	48 89 85 30 ff ff ff 	mov    %rax,-0xd0(%rbp)
   17fe0:	48 8d 85 80 f0 ff ff 	lea    -0xf80(%rbp),%rax
   17fe7:	48 89 85 38 ff ff ff 	mov    %rax,-0xc8(%rbp)
   17fee:	48 8d 85 80 f0 ff ff 	lea    -0xf80(%rbp),%rax
   17ff5:	48 89 85 40 ff ff ff 	mov    %rax,-0xc0(%rbp)
   17ffc:	48 8d 85 80 f0 ff ff 	lea    -0xf80(%rbp),%rax
   18003:	48 89 85 48 ff ff ff 	mov    %rax,-0xb8(%rbp)
   1800a:	48 8d 85 80 f0 ff ff 	lea    -0xf80(%rbp),%rax
   18011:	48 89 85 50 ff ff ff 	mov    %rax,-0xb0(%rbp)
   18018:	48 8d 85 80 f0 ff ff 	lea    -0xf80(%rbp),%rax
   1801f:	48 89 85 58 ff ff ff 	mov    %rax,-0xa8(%rbp)
   18026:	48 8d 85 80 f0 ff ff 	lea    -0xf80(%rbp),%rax
   1802d:	48 89 85 60 ff ff ff 	mov    %rax,-0xa0(%rbp)
   18034:	48 8d 85 80 f0 ff ff 	lea    -0xf80(%rbp),%rax
   1803b:	48 89 85 68 ff ff ff 	mov    %rax,-0x98(%rbp)
   18042:	48 8d 85 80 f0 ff ff 	lea    -0xf80(%rbp),%rax
   18049:	48 89 85 70 ff ff ff 	mov    %rax,-0x90(%rbp)
   18050:	48 8d 85 80 f0 ff ff 	lea    -0xf80(%rbp),%rax
   18057:	48 89 85 78 ff ff ff 	mov    %rax,-0x88(%rbp)
   1805e:	48 8d 85 80 f0 ff ff 	lea    -0xf80(%rbp),%rax
   18065:	48 89 45 80          	mov    %rax,-0x80(%rbp)
   18069:	48 8d 85 80 f0 ff ff 	lea    -0xf80(%rbp),%rax
   18070:	48 89 45 88          	mov    %rax,-0x78(%rbp)
   18074:	48 8d 85 80 f0 ff ff 	lea    -0xf80(%rbp),%rax
   1807b:	48 89 45 90          	mov    %rax,-0x70(%rbp)
   1807f:	48 8d 85 80 f0 ff ff 	lea    -0xf80(%rbp),%rax
   18086:	48 89 45 98          	mov    %rax,-0x68(%rbp)
   1808a:	48 8d 85 80 f0 ff ff 	lea    -0xf80(%rbp),%rax
   18091:	48 89 45 a0          	mov    %rax,-0x60(%rbp)
   18095:	48 8d 85 80 f0 ff ff 	lea    -0xf80(%rbp),%rax
   1809c:	48 89 45 a8          	mov    %rax,-0x58(%rbp)
   180a0:	48 8d 85 80 f0 ff ff 	lea    -0xf80(%rbp),%rax
   180a7:	48 89 45 b0          	mov    %rax,-0x50(%rbp)
   180ab:	48 8d 85 80 f0 ff ff 	lea    -0xf80(%rbp),%rax
   180b2:	48 89 45 b8          	mov    %rax,-0x48(%rbp)
   180b6:	48 8d 85 80 f0 ff ff 	lea    -0xf80(%rbp),%rax
   180bd:	48 89 45 c0          	mov    %rax,-0x40(%rbp)
   180c1:	48 8d 85 30 f8 ff ff 	lea    -0x7d0(%rbp),%rax
   180c8:	48 05 58 05 00 00    	add    $0x558,%rax
   180ce:	48 89 85 28 f2 ff ff 	mov    %rax,-0xdd8(%rbp)
   180d5:	48 8b 05 04 0a 01 00 	mov    0x10a04(%rip),%rax        # 28ae0 <g_348>
   180dc:	48 8b 08             	mov    (%rax),%rcx
   180df:	48 8b 95 60 f0 ff ff 	mov    -0xfa0(%rbp),%rdx
   180e6:	48 8b 85 20 f2 ff ff 	mov    -0xde0(%rbp),%rax
   180ed:	48 89 10             	mov    %rdx,(%rax)
   180f0:	48 8b 85 20 f2 ff ff 	mov    -0xde0(%rbp),%rax
   180f7:	48 8b 00             	mov    (%rax),%rax
   180fa:	48 39 c1             	cmp    %rax,%rcx
   180fd:	0f 94 c2             	sete   %dl
   18100:	48 8b 85 68 f0 ff ff 	mov    -0xf98(%rbp),%rax
   18107:	88 10                	mov    %dl,(%rax)
   18109:	0f b6 00             	movzbl (%rax),%eax
   1810c:	0f be c0             	movsbl %al,%eax
   1810f:	be f9 ff ff ff       	mov    $0xfffffff9,%esi
   18114:	89 c7                	mov    %eax,%edi
   18116:	e8 d7 50 ff ff       	callq  d1f2 <safe_sub_func_int8_t_s_s>
   1811b:	66 0f be d0          	movsbw %al,%dx
   1811f:	48 8b 85 48 f0 ff ff 	mov    -0xfb8(%rbp),%rax
   18126:	48 85 c0             	test   %rax,%rax
   18129:	0f 94 c0             	sete   %al
   1812c:	0f b6 c0             	movzbl %al,%eax
   1812f:	31 c2                	xor    %eax,%edx
   18131:	48 8b 85 b0 f1 ff ff 	mov    -0xe50(%rbp),%rax
   18138:	66 89 10             	mov    %dx,(%rax)
   1813b:	bf ff ff ff ff       	mov    $0xffffffff,%edi
   18140:	e8 7a 50 ff ff       	callq  d1bf <safe_unary_minus_func_int8_t_s>
   18145:	48 0f be d0          	movsbq %al,%rdx
   18149:	48 8b 05 98 09 01 00 	mov    0x10998(%rip),%rax        # 28ae8 <g_429>
   18150:	48 8b 00             	mov    (%rax),%rax
   18153:	48 39 c2             	cmp    %rax,%rdx
   18156:	0f 95 c0             	setne  %al
   18159:	0f b6 c0             	movzbl %al,%eax
   1815c:	48 be 4f 6c 7e 27 da 	movabs $0xc72db8da277e6c4f,%rsi
   18163:	b8 2d c7 
   18166:	48 89 c7             	mov    %rax,%rdi
   18169:	e8 46 58 ff ff       	callq  d9b4 <safe_mod_func_int64_t_s_s>
   1816e:	48 8b 95 90 f0 ff ff 	mov    -0xf70(%rbp),%rdx
   18175:	8b 12                	mov    (%rdx),%edx
   18177:	48 63 d2             	movslq %edx,%rdx
   1817a:	48 31 c2             	xor    %rax,%rdx
   1817d:	48 b8 4f eb e5 51 f1 	movabs $0x6ce51cf151e5eb4f,%rax
   18184:	1c e5 6c 
   18187:	48 39 c2             	cmp    %rax,%rdx
   1818a:	0f 94 c0             	sete   %al
   1818d:	0f b6 c0             	movzbl %al,%eax
   18190:	89 c2                	mov    %eax,%edx
   18192:	0f b6 85 fc ee ff ff 	movzbl -0x1104(%rbp),%eax
   18199:	31 d0                	xor    %edx,%eax
   1819b:	88 85 fc ee ff ff    	mov    %al,-0x1104(%rbp)
   181a1:	48 8b 05 58 fb 00 00 	mov    0xfb58(%rip),%rax        # 27d00 <g_16>
   181a8:	c7 00 00 00 00 00    	movl   $0x0,(%rax)
   181ae:	48 8b 05 33 0e 01 00 	mov    0x10e33(%rip),%rax        # 28fe8 <g_1077>
   181b5:	48 8b 00             	mov    (%rax),%rax
   181b8:	0f b7 00             	movzwl (%rax),%eax
   181bb:	66 85 c0             	test   %ax,%ax
   181be:	75 76                	jne    18236 <func_18+0x2775>
   181c0:	48 8b 05 c9 13 01 00 	mov    0x113c9(%rip),%rax        # 29590 <g_1556>
   181c7:	48 39 85 58 f1 ff ff 	cmp    %rax,-0xea8(%rbp)
   181ce:	0f 95 c0             	setne  %al
   181d1:	44 0f b6 e0          	movzbl %al,%r12d
   181d5:	0f b7 85 e4 ee ff ff 	movzwl -0x111c(%rbp),%eax
   181dc:	0f b7 d8             	movzwl %ax,%ebx
   181df:	48 8b 85 48 f0 ff ff 	mov    -0xfb8(%rbp),%rax
   181e6:	48 8b 00             	mov    (%rax),%rax
   181e9:	48 8b 00             	mov    (%rax),%rax
   181ec:	48 8b 00             	mov    (%rax),%rax
   181ef:	c7 00 00 00 00 00    	movl   $0x0,(%rax)
   181f5:	be 02 00 00 00       	mov    $0x2,%esi
   181fa:	bf ff ff 00 00       	mov    $0xffff,%edi
   181ff:	e8 44 5c ff ff       	callq  de48 <safe_rshift_func_uint16_t_u_s>
   18204:	be 03 00 00 00       	mov    $0x3,%esi
   18209:	bf 00 00 00 00       	mov    $0x0,%edi
   1820e:	e8 7a 5a ff ff       	callq  dc8d <safe_rshift_func_uint8_t_u_s>
   18213:	0f b6 c0             	movzbl %al,%eax
   18216:	89 de                	mov    %ebx,%esi
   18218:	89 c7                	mov    %eax,%edi
   1821a:	e8 9f 5a ff ff       	callq  dcbe <safe_rshift_func_uint8_t_u_u>
   1821f:	3c 08                	cmp    $0x8,%al
   18221:	0f 96 c0             	setbe  %al
   18224:	0f b6 c0             	movzbl %al,%eax
   18227:	41 39 c4             	cmp    %eax,%r12d
   1822a:	0f b7 85 e4 ee ff ff 	movzwl -0x111c(%rbp),%eax
   18231:	66 85 c0             	test   %ax,%ax
   18234:	74 07                	je     1823d <func_18+0x277c>
   18236:	b8 01 00 00 00       	mov    $0x1,%eax
   1823b:	eb 05                	jmp    18242 <func_18+0x2781>
   1823d:	b8 00 00 00 00       	mov    $0x0,%eax
   18242:	89 85 18 ef ff ff    	mov    %eax,-0x10e8(%rbp)
   18248:	48 8b 85 88 f6 ff ff 	mov    -0x978(%rbp),%rax
   1824f:	e9 f0 25 00 00       	jmpq   1a844 <func_18+0x4d83>
   18254:	48 8b 85 48 f0 ff ff 	mov    -0xfb8(%rbp),%rax
   1825b:	48 8b 00             	mov    (%rax),%rax
   1825e:	48 8b 00             	mov    (%rax),%rax
   18261:	48 8b 00             	mov    (%rax),%rax
   18264:	8b 00                	mov    (%rax),%eax
   18266:	83 f0 01             	xor    $0x1,%eax
   18269:	89 c1                	mov    %eax,%ecx
   1826b:	0f b7 85 e4 ee ff ff 	movzwl -0x111c(%rbp),%eax
   18272:	66 85 c0             	test   %ax,%ax
   18275:	75 1e                	jne    18295 <func_18+0x27d4>
   18277:	48 83 bd c0 f1 ff ff 	cmpq   $0x0,-0xe40(%rbp)
   1827e:	00 
   1827f:	75 14                	jne    18295 <func_18+0x27d4>
   18281:	48 8b 85 48 f0 ff ff 	mov    -0xfb8(%rbp),%rax
   18288:	48 8b 00             	mov    (%rax),%rax
   1828b:	48 8b 00             	mov    (%rax),%rax
   1828e:	48 8b 00             	mov    (%rax),%rax
   18291:	8b 00                	mov    (%rax),%eax
   18293:	85 c0                	test   %eax,%eax
   18295:	90                   	nop
   18296:	48 8b 85 d0 f1 ff ff 	mov    -0xe30(%rbp),%rax
   1829d:	48 c7 00 00 00 00 00 	movq   $0x0,(%rax)
   182a4:	48 8b 85 d0 f1 ff ff 	mov    -0xe30(%rbp),%rax
   182ab:	48 8b 10             	mov    (%rax),%rdx
   182ae:	48 8b 85 d8 f1 ff ff 	mov    -0xe28(%rbp),%rax
   182b5:	48 89 10             	mov    %rdx,(%rax)
   182b8:	48 8b 85 d8 f1 ff ff 	mov    -0xe28(%rbp),%rax
   182bf:	48 8b 10             	mov    (%rax),%rdx
   182c2:	48 8d 85 58 f0 ff ff 	lea    -0xfa8(%rbp),%rax
   182c9:	48 39 c2             	cmp    %rax,%rdx
   182cc:	0f 95 c0             	setne  %al
   182cf:	0f b6 c0             	movzbl %al,%eax
   182d2:	21 c8                	and    %ecx,%eax
   182d4:	85 c0                	test   %eax,%eax
   182d6:	0f 84 bc 01 00 00    	je     18498 <func_18+0x29d7>
   182dc:	0f b7 85 e4 ee ff ff 	movzwl -0x111c(%rbp),%eax
   182e3:	66 85 c0             	test   %ax,%ax
   182e6:	0f 84 ac 01 00 00    	je     18498 <func_18+0x29d7>
   182ec:	48 c7 85 f0 f1 ff ff 	movq   $0x0,-0xe10(%rbp)
   182f3:	00 00 00 00 
   182f7:	c7 85 d8 ef ff ff 00 	movl   $0x0,-0x1028(%rbp)
   182fe:	00 00 00 
   18301:	c7 85 dc ef ff ff 61 	movl   $0xdb019f61,-0x1024(%rbp)
   18308:	9f 01 db 
   1830b:	c7 85 e0 ef ff ff 04 	movl   $0x4,-0x1020(%rbp)
   18312:	00 00 00 
   18315:	c7 85 e4 ef ff ff 01 	movl   $0x1,-0x101c(%rbp)
   1831c:	00 00 00 
   1831f:	48 8d 05 fa ce 00 00 	lea    0xcefa(%rip),%rax        # 25220 <g_265>
   18326:	48 89 85 f8 f1 ff ff 	mov    %rax,-0xe08(%rbp)
   1832d:	c7 85 60 ef ff ff 00 	movl   $0x0,-0x10a0(%rbp)
   18334:	00 00 00 
   18337:	eb 1a                	jmp    18353 <func_18+0x2892>
   18339:	8b 85 60 ef ff ff    	mov    -0x10a0(%rbp),%eax
   1833f:	48 98                	cltq   
   18341:	c7 84 85 30 f8 ff ff 	movl   $0x8,-0x7d0(%rbp,%rax,4)
   18348:	08 00 00 00 
   1834c:	83 85 60 ef ff ff 01 	addl   $0x1,-0x10a0(%rbp)
   18353:	83 bd 60 ef ff ff 06 	cmpl   $0x6,-0x10a0(%rbp)
   1835a:	7e dd                	jle    18339 <func_18+0x2878>
   1835c:	8b 85 48 ef ff ff    	mov    -0x10b8(%rbp),%eax
   18362:	83 e8 01             	sub    $0x1,%eax
   18365:	89 85 48 ef ff ff    	mov    %eax,-0x10b8(%rbp)
   1836b:	0f b7 85 e4 ee ff ff 	movzwl -0x111c(%rbp),%eax
   18372:	0f b7 d8             	movzwl %ax,%ebx
   18375:	8b 85 e0 ef ff ff    	mov    -0x1020(%rbp),%eax
   1837b:	48 63 d0             	movslq %eax,%rdx
   1837e:	48 8b 85 f8 f1 ff ff 	mov    -0xe08(%rbp),%rax
   18385:	48 89 10             	mov    %rdx,(%rax)
   18388:	48 8b 85 f8 f1 ff ff 	mov    -0xe08(%rbp),%rax
   1838f:	48 8b 10             	mov    (%rax),%rdx
   18392:	48 8b 85 a8 f1 ff ff 	mov    -0xe58(%rbp),%rax
   18399:	48 8b 00             	mov    (%rax),%rax
   1839c:	48 8d 48 ff          	lea    -0x1(%rax),%rcx
   183a0:	48 8b 85 a8 f1 ff ff 	mov    -0xe58(%rbp),%rax
   183a7:	48 89 08             	mov    %rcx,(%rax)
   183aa:	48 8b 85 a8 f1 ff ff 	mov    -0xe58(%rbp),%rax
   183b1:	48 8b 08             	mov    (%rax),%rcx
   183b4:	48 8b 85 90 f0 ff ff 	mov    -0xf70(%rbp),%rax
   183bb:	8b 00                	mov    (%rax),%eax
   183bd:	f7 d0                	not    %eax
   183bf:	c1 e8 1f             	shr    $0x1f,%eax
   183c2:	0f b6 c0             	movzbl %al,%eax
   183c5:	48 39 c1             	cmp    %rax,%rcx
   183c8:	0f 97 c0             	seta   %al
   183cb:	0f b6 c0             	movzbl %al,%eax
   183ce:	48 89 d6             	mov    %rdx,%rsi
   183d1:	48 89 c7             	mov    %rax,%rdi
   183d4:	e8 d6 5c ff ff       	callq  e0af <safe_div_func_uint64_t_u_u>
   183d9:	b9 c3 00 00 00       	mov    $0xc3,%ecx
   183de:	48 8b 85 68 f0 ff ff 	mov    -0xf98(%rbp),%rax
   183e5:	0f b6 10             	movzbl (%rax),%edx
   183e8:	48 8b 85 68 f0 ff ff 	mov    -0xf98(%rbp),%rax
   183ef:	31 ca                	xor    %ecx,%edx
   183f1:	88 10                	mov    %dl,(%rax)
   183f3:	0f b6 00             	movzbl (%rax),%eax
   183f6:	44 0f be e0          	movsbl %al,%r12d
   183fa:	48 83 bd 78 f1 ff ff 	cmpq   $0x0,-0xe88(%rbp)
   18401:	00 
   18402:	0f 94 c0             	sete   %al
   18405:	0f b6 c0             	movzbl %al,%eax
   18408:	be 06 00 00 00       	mov    $0x6,%esi
   1840d:	89 c7                	mov    %eax,%edi
   1840f:	e8 f2 59 ff ff       	callq  de06 <safe_lshift_func_uint16_t_u_u>
   18414:	8b 85 40 f8 ff ff    	mov    -0x7c0(%rbp),%eax
   1841a:	89 c2                	mov    %eax,%edx
   1841c:	48 8b 05 d5 06 01 00 	mov    0x106d5(%rip),%rax        # 28af8 <g_448>
   18423:	48 8b 00             	mov    (%rax),%rax
   18426:	8b 00                	mov    (%rax),%eax
   18428:	39 c2                	cmp    %eax,%edx
   1842a:	0f 97 c0             	seta   %al
   1842d:	0f b6 c0             	movzbl %al,%eax
   18430:	44 89 e6             	mov    %r12d,%esi
   18433:	89 c7                	mov    %eax,%edi
   18435:	e8 f7 4d ff ff       	callq  d231 <safe_mod_func_int8_t_s_s>
   1843a:	48 89 de             	mov    %rbx,%rsi
   1843d:	bf 00 00 00 00       	mov    $0x0,%edi
   18442:	e8 61 54 ff ff       	callq  d8a8 <safe_sub_func_int64_t_s_s>
   18447:	0f b7 85 e4 ee ff ff 	movzwl -0x111c(%rbp),%eax
   1844e:	0f b7 c0             	movzwl %ax,%eax
   18451:	39 85 e0 ef ff ff    	cmp    %eax,-0x1020(%rbp)
   18457:	0f 9c c0             	setl   %al
   1845a:	0f b6 d0             	movzbl %al,%edx
   1845d:	0f b7 85 e4 ee ff ff 	movzwl -0x111c(%rbp),%eax
   18464:	0f b7 c0             	movzwl %ax,%eax
   18467:	39 c2                	cmp    %eax,%edx
   18469:	0f 9e c2             	setle  %dl
   1846c:	48 8b 85 e8 ee ff ff 	mov    -0x1118(%rbp),%rax
   18473:	0f b6 d2             	movzbl %dl,%edx
   18476:	89 10                	mov    %edx,(%rax)
   18478:	c7 85 38 ef ff ff 00 	movl   $0x0,-0x10c8(%rbp)
   1847f:	00 00 00 
   18482:	48 8b 05 0f 11 01 00 	mov    0x1110f(%rip),%rax        # 29598 <g_1610>
   18489:	48 8b 95 80 f1 ff ff 	mov    -0xe80(%rbp),%rdx
   18490:	48 89 10             	mov    %rdx,(%rax)
   18493:	e9 c4 02 00 00       	jmpq   1875c <func_18+0x2c9b>
   18498:	48 8d 85 30 f3 ff ff 	lea    -0xcd0(%rbp),%rax
   1849f:	48 83 c0 04          	add    $0x4,%rax
   184a3:	48 89 85 00 f2 ff ff 	mov    %rax,-0xe00(%rbp)
   184aa:	48 8d 85 48 ef ff ff 	lea    -0x10b8(%rbp),%rax
   184b1:	48 89 85 80 f0 ff ff 	mov    %rax,-0xf80(%rbp)
   184b8:	48 8d 85 80 f0 ff ff 	lea    -0xf80(%rbp),%rax
   184bf:	48 89 85 08 f2 ff ff 	mov    %rax,-0xdf8(%rbp)
   184c6:	48 8b 05 1b 06 01 00 	mov    0x1061b(%rip),%rax        # 28ae8 <g_429>
   184cd:	48 8b 18             	mov    (%rax),%rbx
   184d0:	48 8b 05 29 06 01 00 	mov    0x10629(%rip),%rax        # 28b00 <g_447>
   184d7:	48 8b 00             	mov    (%rax),%rax
   184da:	48 8b 00             	mov    (%rax),%rax
   184dd:	8b 08                	mov    (%rax),%ecx
   184df:	48 8b 05 42 09 01 00 	mov    0x10942(%rip),%rax        # 28e28 <g_858>
   184e6:	48 8b 00             	mov    (%rax),%rax
   184e9:	8b 10                	mov    (%rax),%edx
   184eb:	48 8b 05 36 09 01 00 	mov    0x10936(%rip),%rax        # 28e28 <g_858>
   184f2:	48 8b 00             	mov    (%rax),%rax
   184f5:	09 ca                	or     %ecx,%edx
   184f7:	89 10                	mov    %edx,(%rax)
   184f9:	44 8b 28             	mov    (%rax),%r13d
   184fc:	0f b7 85 e4 ee ff ff 	movzwl -0x111c(%rbp),%eax
   18503:	44 0f b7 e0          	movzwl %ax,%r12d
   18507:	c7 85 3c ef ff ff cb 	movl   $0xe9acc1cb,-0x10c4(%rbp)
   1850e:	c1 ac e9 
   18511:	0f b7 85 e4 ee ff ff 	movzwl -0x111c(%rbp),%eax
   18518:	0f be c0             	movsbl %al,%eax
   1851b:	be 01 00 00 00       	mov    $0x1,%esi
   18520:	89 c7                	mov    %eax,%edi
   18522:	e8 c7 4d ff ff       	callq  d2ee <safe_lshift_func_int8_t_s_u>
   18527:	66 0f be d0          	movsbw %al,%dx
   1852b:	0f b7 05 e2 cc 00 00 	movzwl 0xcce2(%rip),%eax        # 25214 <g_188>
   18532:	66 39 c2             	cmp    %ax,%dx
   18535:	0f 9d c0             	setge  %al
   18538:	0f b6 c0             	movzbl %al,%eax
   1853b:	89 c7                	mov    %eax,%edi
   1853d:	e8 03 56 ff ff       	callq  db45 <safe_unary_minus_func_uint8_t_u>
   18542:	48 8b 05 cf 05 01 00 	mov    0x105cf(%rip),%rax        # 28b18 <g_488>
   18549:	0f b6 00             	movzbl (%rax),%eax
   1854c:	89 c2                	mov    %eax,%edx
   1854e:	48 8b 85 90 f0 ff ff 	mov    -0xf70(%rbp),%rax
   18555:	8b 00                	mov    (%rax),%eax
   18557:	31 c2                	xor    %eax,%edx
   18559:	48 8b 05 b8 05 01 00 	mov    0x105b8(%rip),%rax        # 28b18 <g_488>
   18560:	88 10                	mov    %dl,(%rax)
   18562:	0f b6 00             	movzbl (%rax),%eax
   18565:	0f b6 c0             	movzbl %al,%eax
   18568:	23 85 b4 ef ff ff    	and    -0x104c(%rbp),%eax
   1856e:	41 89 c6             	mov    %eax,%r14d
   18571:	48 8b 85 e8 ee ff ff 	mov    -0x1118(%rbp),%rax
   18578:	8b 00                	mov    (%rax),%eax
   1857a:	be 01 00 00 00       	mov    $0x1,%esi
   1857f:	89 c7                	mov    %eax,%edi
   18581:	e8 79 51 ff ff       	callq  d6ff <safe_div_func_int32_t_s_s>
   18586:	48 8b 95 48 f0 ff ff 	mov    -0xfb8(%rbp),%rdx
   1858d:	48 8b 12             	mov    (%rdx),%rdx
   18590:	48 8b 12             	mov    (%rdx),%rdx
   18593:	48 8b 12             	mov    (%rdx),%rdx
   18596:	8b 12                	mov    (%rdx),%edx
   18598:	09 d0                	or     %edx,%eax
   1859a:	48 63 d0             	movslq %eax,%rdx
   1859d:	0f b7 85 e4 ee ff ff 	movzwl -0x111c(%rbp),%eax
   185a4:	0f b7 c0             	movzwl %ax,%eax
   185a7:	48 39 c2             	cmp    %rax,%rdx
   185aa:	75 0a                	jne    185b6 <func_18+0x2af5>
   185ac:	0f b7 85 e4 ee ff ff 	movzwl -0x111c(%rbp),%eax
   185b3:	66 85 c0             	test   %ax,%ax
   185b6:	48 8d 05 bb 0f 01 00 	lea    0x10fbb(%rip),%rax        # 29578 <g_1557+0x38>
   185bd:	48 39 85 58 f1 ff ff 	cmp    %rax,-0xea8(%rbp)
   185c4:	0f 95 c0             	setne  %al
   185c7:	0f b6 d0             	movzbl %al,%edx
   185ca:	0f b7 85 e4 ee ff ff 	movzwl -0x111c(%rbp),%eax
   185d1:	0f b7 c0             	movzwl %ax,%eax
   185d4:	21 d0                	and    %edx,%eax
   185d6:	85 c0                	test   %eax,%eax
   185d8:	74 07                	je     185e1 <func_18+0x2b20>
   185da:	b8 01 00 00 00       	mov    $0x1,%eax
   185df:	eb 05                	jmp    185e6 <func_18+0x2b25>
   185e1:	b8 00 00 00 00       	mov    $0x0,%eax
   185e6:	44 21 f0             	and    %r14d,%eax
   185e9:	85 c0                	test   %eax,%eax
   185eb:	74 0a                	je     185f7 <func_18+0x2b36>
   185ed:	48 8b 05 2c cc 00 00 	mov    0xcc2c(%rip),%rax        # 25220 <g_265>
   185f4:	48 85 c0             	test   %rax,%rax
   185f7:	b8 00 00 00 00       	mov    $0x0,%eax
   185fc:	89 c2                	mov    %eax,%edx
   185fe:	0f b7 05 b3 cc 00 00 	movzwl 0xccb3(%rip),%eax        # 252b8 <g_1624>
   18605:	09 d0                	or     %edx,%eax
   18607:	66 89 05 aa cc 00 00 	mov    %ax,0xccaa(%rip)        # 252b8 <g_1624>
   1860e:	0f b7 05 a3 cc 00 00 	movzwl 0xcca3(%rip),%eax        # 252b8 <g_1624>
   18615:	0f b6 c0             	movzbl %al,%eax
   18618:	44 89 e6             	mov    %r12d,%esi
   1861b:	89 c7                	mov    %eax,%edi
   1861d:	e8 e3 55 ff ff       	callq  dc05 <safe_lshift_func_uint8_t_u_s>
   18622:	be 06 00 00 00       	mov    $0x6,%esi
   18627:	bf 01 00 00 00       	mov    $0x1,%edi
   1862c:	e8 d4 55 ff ff       	callq  dc05 <safe_lshift_func_uint8_t_u_s>
   18631:	0f b6 c0             	movzbl %al,%eax
   18634:	41 39 c5             	cmp    %eax,%r13d
   18637:	0f 96 c0             	setbe  %al
   1863a:	0f b6 d0             	movzbl %al,%edx
   1863d:	48 8b 85 90 f1 ff ff 	mov    -0xe70(%rbp),%rax
   18644:	66 89 10             	mov    %dx,(%rax)
   18647:	48 8b 85 90 f1 ff ff 	mov    -0xe70(%rbp),%rax
   1864e:	0f b7 00             	movzwl (%rax),%eax
   18651:	0f b7 c0             	movzwl %ax,%eax
   18654:	48 8d 15 01 ca 00 00 	lea    0xca01(%rip),%rdx        # 2505c <g_43+0x1c>
   1865b:	48 89 de             	mov    %rbx,%rsi
   1865e:	89 c7                	mov    %eax,%edi
   18660:	e8 43 72 00 00       	callq  1f8a8 <func_38>
   18665:	48 89 85 00 f2 ff ff 	mov    %rax,-0xe00(%rbp)
   1866c:	0f b7 85 e4 ee ff ff 	movzwl -0x111c(%rbp),%eax
   18673:	0f b7 d8             	movzwl %ax,%ebx
   18676:	0f b7 85 e4 ee ff ff 	movzwl -0x111c(%rbp),%eax
   1867d:	44 0f bf e0          	movswl %ax,%r12d
   18681:	4c 0f bf ad 0a ef ff 	movswq -0x10f6(%rbp),%r13
   18688:	ff 
   18689:	0f b7 85 e4 ee ff ff 	movzwl -0x111c(%rbp),%eax
   18690:	44 0f b7 f0          	movzwl %ax,%r14d
   18694:	48 8b 85 08 f2 ff ff 	mov    -0xdf8(%rbp),%rax
   1869b:	48 8d 15 76 cb 00 00 	lea    0xcb76(%rip),%rdx        # 25218 <g_219>
   186a2:	48 89 10             	mov    %rdx,(%rax)
   186a5:	be a6 65 00 00       	mov    $0x65a6,%esi
   186aa:	bf da b7 00 00       	mov    $0xb7da,%edi
   186af:	e8 89 56 ff ff       	callq  dd3d <safe_mul_func_uint16_t_u_u>
   186b4:	89 c2                	mov    %eax,%edx
   186b6:	48 8b 85 b0 f1 ff ff 	mov    -0xe50(%rbp),%rax
   186bd:	66 89 10             	mov    %dx,(%rax)
   186c0:	48 8b 85 b0 f1 ff ff 	mov    -0xe50(%rbp),%rax
   186c7:	0f b7 00             	movzwl (%rax),%eax
   186ca:	66 85 c0             	test   %ax,%ax
   186cd:	74 07                	je     186d6 <func_18+0x2c15>
   186cf:	b8 01 00 00 00       	mov    $0x1,%eax
   186d4:	eb 05                	jmp    186db <func_18+0x2c1a>
   186d6:	b8 00 00 00 00       	mov    $0x0,%eax
   186db:	0f b7 c0             	movzwl %ax,%eax
   186de:	be 0d 00 00 00       	mov    $0xd,%esi
   186e3:	89 c7                	mov    %eax,%edi
   186e5:	e8 90 57 ff ff       	callq  de7a <safe_rshift_func_uint16_t_u_u>
   186ea:	4c 89 f6             	mov    %r14,%rsi
   186ed:	bf 00 00 00 00       	mov    $0x0,%edi
   186f2:	e8 b8 59 ff ff       	callq  e0af <safe_div_func_uint64_t_u_u>
   186f7:	4c 89 ee             	mov    %r13,%rsi
   186fa:	48 89 c7             	mov    %rax,%rdi
   186fd:	e8 a6 51 ff ff       	callq  d8a8 <safe_sub_func_int64_t_s_s>
   18702:	48 83 f8 03          	cmp    $0x3,%rax
   18706:	0f 95 c0             	setne  %al
   18709:	0f b6 d0             	movzbl %al,%edx
   1870c:	0f b7 85 e4 ee ff ff 	movzwl -0x111c(%rbp),%eax
   18713:	0f b6 c0             	movzbl %al,%eax
   18716:	89 d6                	mov    %edx,%esi
   18718:	89 c7                	mov    %eax,%edi
   1871a:	e8 3b 54 ff ff       	callq  db5a <safe_add_func_uint8_t_u_u>
   1871f:	0f b6 c0             	movzbl %al,%eax
   18722:	44 89 e6             	mov    %r12d,%esi
   18725:	89 c7                	mov    %eax,%edi
   18727:	e8 c9 4c ff ff       	callq  d3f5 <safe_mul_func_int16_t_s_s>
   1872c:	89 de                	mov    %ebx,%esi
   1872e:	bf fe ff 00 00       	mov    $0xfffe,%edi
   18733:	e8 05 56 ff ff       	callq  dd3d <safe_mul_func_uint16_t_u_u>
   18738:	89 c2                	mov    %eax,%edx
   1873a:	48 8b 05 87 fb 00 00 	mov    0xfb87(%rip),%rax        # 282c8 <g_60>
   18741:	48 8b 00             	mov    (%rax),%rax
   18744:	0f b7 d2             	movzwl %dx,%edx
   18747:	89 10                	mov    %edx,(%rax)
   18749:	48 8b 85 e8 ee ff ff 	mov    -0x1118(%rbp),%rax
   18750:	8b 00                	mov    (%rax),%eax
   18752:	85 c0                	test   %eax,%eax
   18754:	74 06                	je     1875c <func_18+0x2c9b>
   18756:	90                   	nop
   18757:	e9 81 06 00 00       	jmpq   18ddd <func_18+0x331c>
   1875c:	48 8b 85 90 f0 ff ff 	mov    -0xf70(%rbp),%rax
   18763:	8b 00                	mov    (%rax),%eax
   18765:	85 c0                	test   %eax,%eax
   18767:	7e 1d                	jle    18786 <func_18+0x2cc5>
   18769:	48 8b 85 e8 ee ff ff 	mov    -0x1118(%rbp),%rax
   18770:	8b 00                	mov    (%rax),%eax
   18772:	85 c0                	test   %eax,%eax
   18774:	0f 85 86 06 00 00    	jne    18e00 <func_18+0x333f>
   1877a:	0f b7 85 e4 ee ff ff 	movzwl -0x111c(%rbp),%eax
   18781:	e9 be 20 00 00       	jmpq   1a844 <func_18+0x4d83>
   18786:	48 8d 85 10 ef ff ff 	lea    -0x10f0(%rbp),%rax
   1878d:	48 89 85 10 f2 ff ff 	mov    %rax,-0xdf0(%rbp)
   18794:	c7 85 80 f0 ff ff fc 	movl   $0xfffffffc,-0xf80(%rbp)
   1879b:	ff ff ff 
   1879e:	48 8d 85 fb ee ff ff 	lea    -0x1105(%rbp),%rax
   187a5:	48 89 85 18 f2 ff ff 	mov    %rax,-0xde8(%rbp)
   187ac:	48 8d 85 3c ef ff ff 	lea    -0x10c4(%rbp),%rax
   187b3:	48 89 85 30 f8 ff ff 	mov    %rax,-0x7d0(%rbp)
   187ba:	48 c7 85 38 f8 ff ff 	movq   $0x0,-0x7c8(%rbp)
   187c1:	00 00 00 00 
   187c5:	48 8d 85 50 f5 ff ff 	lea    -0xab0(%rbp),%rax
   187cc:	48 83 c0 30          	add    $0x30,%rax
   187d0:	48 89 85 40 f8 ff ff 	mov    %rax,-0x7c0(%rbp)
   187d7:	48 8d 85 14 ef ff ff 	lea    -0x10ec(%rbp),%rax
   187de:	48 89 85 48 f8 ff ff 	mov    %rax,-0x7b8(%rbp)
   187e5:	48 8d 85 28 ef ff ff 	lea    -0x10d8(%rbp),%rax
   187ec:	48 89 85 50 f8 ff ff 	mov    %rax,-0x7b0(%rbp)
   187f3:	48 8d 85 80 f0 ff ff 	lea    -0xf80(%rbp),%rax
   187fa:	48 89 85 58 f8 ff ff 	mov    %rax,-0x7a8(%rbp)
   18801:	48 8d 05 64 ca 00 00 	lea    0xca64(%rip),%rax        # 2526c <g_871+0xc>
   18808:	48 89 85 60 f8 ff ff 	mov    %rax,-0x7a0(%rbp)
   1880f:	48 8d 85 1c ef ff ff 	lea    -0x10e4(%rbp),%rax
   18816:	48 89 85 68 f8 ff ff 	mov    %rax,-0x798(%rbp)
   1881d:	48 8d 85 0c ef ff ff 	lea    -0x10f4(%rbp),%rax
   18824:	48 89 85 70 f8 ff ff 	mov    %rax,-0x790(%rbp)
   1882b:	48 8d 05 3a ca 00 00 	lea    0xca3a(%rip),%rax        # 2526c <g_871+0xc>
   18832:	48 89 85 78 f8 ff ff 	mov    %rax,-0x788(%rbp)
   18839:	48 8d 85 50 f5 ff ff 	lea    -0xab0(%rbp),%rax
   18840:	48 83 c0 30          	add    $0x30,%rax
   18844:	48 89 85 80 f8 ff ff 	mov    %rax,-0x780(%rbp)
   1884b:	48 8d 85 50 f5 ff ff 	lea    -0xab0(%rbp),%rax
   18852:	48 83 c0 08          	add    $0x8,%rax
   18856:	48 89 85 88 f8 ff ff 	mov    %rax,-0x778(%rbp)
   1885d:	48 8d 85 24 ef ff ff 	lea    -0x10dc(%rbp),%rax
   18864:	48 89 85 90 f8 ff ff 	mov    %rax,-0x770(%rbp)
   1886b:	48 8d 85 38 ef ff ff 	lea    -0x10c8(%rbp),%rax
   18872:	48 89 85 98 f8 ff ff 	mov    %rax,-0x768(%rbp)
   18879:	48 8d 85 34 ef ff ff 	lea    -0x10cc(%rbp),%rax
   18880:	48 89 85 a0 f8 ff ff 	mov    %rax,-0x760(%rbp)
   18887:	48 c7 85 a8 f8 ff ff 	movq   $0x0,-0x758(%rbp)
   1888e:	00 00 00 00 
   18892:	48 8d 85 2c ef ff ff 	lea    -0x10d4(%rbp),%rax
   18899:	48 89 85 b0 f8 ff ff 	mov    %rax,-0x750(%rbp)
   188a0:	48 8d 85 0c ef ff ff 	lea    -0x10f4(%rbp),%rax
   188a7:	48 89 85 b8 f8 ff ff 	mov    %rax,-0x748(%rbp)
   188ae:	48 8d 85 34 ef ff ff 	lea    -0x10cc(%rbp),%rax
   188b5:	48 89 85 c0 f8 ff ff 	mov    %rax,-0x740(%rbp)
   188bc:	48 8d 85 34 ef ff ff 	lea    -0x10cc(%rbp),%rax
   188c3:	48 89 85 c8 f8 ff ff 	mov    %rax,-0x738(%rbp)
   188ca:	48 8d 05 9b c9 00 00 	lea    0xc99b(%rip),%rax        # 2526c <g_871+0xc>
   188d1:	48 89 85 d0 f8 ff ff 	mov    %rax,-0x730(%rbp)
   188d8:	48 c7 85 d8 f8 ff ff 	movq   $0x0,-0x728(%rbp)
   188df:	00 00 00 00 
   188e3:	48 8d 85 3c ef ff ff 	lea    -0x10c4(%rbp),%rax
   188ea:	48 89 85 e0 f8 ff ff 	mov    %rax,-0x720(%rbp)
   188f1:	48 8d 85 40 ef ff ff 	lea    -0x10c0(%rbp),%rax
   188f8:	48 89 85 e8 f8 ff ff 	mov    %rax,-0x718(%rbp)
   188ff:	48 8d 85 18 ef ff ff 	lea    -0x10e8(%rbp),%rax
   18906:	48 89 85 f0 f8 ff ff 	mov    %rax,-0x710(%rbp)
   1890d:	48 8d 85 44 ef ff ff 	lea    -0x10bc(%rbp),%rax
   18914:	48 89 85 f8 f8 ff ff 	mov    %rax,-0x708(%rbp)
   1891b:	48 8d 85 44 ef ff ff 	lea    -0x10bc(%rbp),%rax
   18922:	48 89 85 00 f9 ff ff 	mov    %rax,-0x700(%rbp)
   18929:	48 8d 85 34 ef ff ff 	lea    -0x10cc(%rbp),%rax
   18930:	48 89 85 08 f9 ff ff 	mov    %rax,-0x6f8(%rbp)
   18937:	48 8d 85 30 ef ff ff 	lea    -0x10d0(%rbp),%rax
   1893e:	48 89 85 10 f9 ff ff 	mov    %rax,-0x6f0(%rbp)
   18945:	48 c7 85 18 f9 ff ff 	movq   $0x0,-0x6e8(%rbp)
   1894c:	00 00 00 00 
   18950:	48 8d 85 40 ef ff ff 	lea    -0x10c0(%rbp),%rax
   18957:	48 89 85 20 f9 ff ff 	mov    %rax,-0x6e0(%rbp)
   1895e:	48 c7 85 28 f9 ff ff 	movq   $0x0,-0x6d8(%rbp)
   18965:	00 00 00 00 
   18969:	48 8d 85 30 ef ff ff 	lea    -0x10d0(%rbp),%rax
   18970:	48 89 85 30 f9 ff ff 	mov    %rax,-0x6d0(%rbp)
   18977:	48 8d 85 34 ef ff ff 	lea    -0x10cc(%rbp),%rax
   1897e:	48 89 85 38 f9 ff ff 	mov    %rax,-0x6c8(%rbp)
   18985:	48 8d 85 1c ef ff ff 	lea    -0x10e4(%rbp),%rax
   1898c:	48 89 85 40 f9 ff ff 	mov    %rax,-0x6c0(%rbp)
   18993:	48 8d 85 38 ef ff ff 	lea    -0x10c8(%rbp),%rax
   1899a:	48 89 85 48 f9 ff ff 	mov    %rax,-0x6b8(%rbp)
   189a1:	48 8d 05 c4 c8 00 00 	lea    0xc8c4(%rip),%rax        # 2526c <g_871+0xc>
   189a8:	48 89 85 50 f9 ff ff 	mov    %rax,-0x6b0(%rbp)
   189af:	48 8d 85 2c ef ff ff 	lea    -0x10d4(%rbp),%rax
   189b6:	48 89 85 58 f9 ff ff 	mov    %rax,-0x6a8(%rbp)
   189bd:	48 8d 05 a8 c8 00 00 	lea    0xc8a8(%rip),%rax        # 2526c <g_871+0xc>
   189c4:	48 89 85 60 f9 ff ff 	mov    %rax,-0x6a0(%rbp)
   189cb:	48 8d 85 50 f5 ff ff 	lea    -0xab0(%rbp),%rax
   189d2:	48 83 c0 30          	add    $0x30,%rax
   189d6:	48 89 85 68 f9 ff ff 	mov    %rax,-0x698(%rbp)
   189dd:	48 8d 85 34 ef ff ff 	lea    -0x10cc(%rbp),%rax
   189e4:	48 89 85 70 f9 ff ff 	mov    %rax,-0x690(%rbp)
   189eb:	48 c7 85 78 f9 ff ff 	movq   $0x0,-0x688(%rbp)
   189f2:	00 00 00 00 
   189f6:	48 8d 85 c0 f4 ff ff 	lea    -0xb40(%rbp),%rax
   189fd:	48 83 c0 0c          	add    $0xc,%rax
   18a01:	48 89 85 80 f9 ff ff 	mov    %rax,-0x680(%rbp)
   18a08:	48 8d 85 18 ef ff ff 	lea    -0x10e8(%rbp),%rax
   18a0f:	48 89 85 88 f9 ff ff 	mov    %rax,-0x678(%rbp)
   18a16:	48 c7 85 90 f9 ff ff 	movq   $0x0,-0x670(%rbp)
   18a1d:	00 00 00 00 
   18a21:	48 8d 85 3c ef ff ff 	lea    -0x10c4(%rbp),%rax
   18a28:	48 89 85 98 f9 ff ff 	mov    %rax,-0x668(%rbp)
   18a2f:	48 c7 85 a0 f9 ff ff 	movq   $0x0,-0x660(%rbp)
   18a36:	00 00 00 00 
   18a3a:	48 8d 05 c7 c7 00 00 	lea    0xc7c7(%rip),%rax        # 25208 <g_133+0x48>
   18a41:	48 89 85 a8 f9 ff ff 	mov    %rax,-0x658(%rbp)
   18a48:	48 8d 85 38 ef ff ff 	lea    -0x10c8(%rbp),%rax
   18a4f:	48 89 85 b0 f9 ff ff 	mov    %rax,-0x650(%rbp)
   18a56:	48 8d 85 1c ef ff ff 	lea    -0x10e4(%rbp),%rax
   18a5d:	48 89 85 b8 f9 ff ff 	mov    %rax,-0x648(%rbp)
   18a64:	48 8d 85 34 ef ff ff 	lea    -0x10cc(%rbp),%rax
   18a6b:	48 89 85 c0 f9 ff ff 	mov    %rax,-0x640(%rbp)
   18a72:	48 8d 85 38 ef ff ff 	lea    -0x10c8(%rbp),%rax
   18a79:	48 89 85 c8 f9 ff ff 	mov    %rax,-0x638(%rbp)
   18a80:	48 8d 85 1c ef ff ff 	lea    -0x10e4(%rbp),%rax
   18a87:	48 89 85 d0 f9 ff ff 	mov    %rax,-0x630(%rbp)
   18a8e:	48 8d 85 20 ef ff ff 	lea    -0x10e0(%rbp),%rax
   18a95:	48 89 85 d8 f9 ff ff 	mov    %rax,-0x628(%rbp)
   18a9c:	48 8d 85 0c ef ff ff 	lea    -0x10f4(%rbp),%rax
   18aa3:	48 89 85 e0 f9 ff ff 	mov    %rax,-0x620(%rbp)
   18aaa:	48 8d 85 38 ef ff ff 	lea    -0x10c8(%rbp),%rax
   18ab1:	48 89 85 e8 f9 ff ff 	mov    %rax,-0x618(%rbp)
   18ab8:	48 8d 05 ad c7 00 00 	lea    0xc7ad(%rip),%rax        # 2526c <g_871+0xc>
   18abf:	48 89 85 f0 f9 ff ff 	mov    %rax,-0x610(%rbp)
   18ac6:	48 8d 05 3b c7 00 00 	lea    0xc73b(%rip),%rax        # 25208 <g_133+0x48>
   18acd:	48 89 85 f8 f9 ff ff 	mov    %rax,-0x608(%rbp)
   18ad4:	48 8d 85 c0 f4 ff ff 	lea    -0xb40(%rbp),%rax
   18adb:	48 83 c0 0c          	add    $0xc,%rax
   18adf:	48 89 85 00 fa ff ff 	mov    %rax,-0x600(%rbp)
   18ae6:	48 8d 85 38 ef ff ff 	lea    -0x10c8(%rbp),%rax
   18aed:	48 89 85 08 fa ff ff 	mov    %rax,-0x5f8(%rbp)
   18af4:	48 c7 85 10 fa ff ff 	movq   $0x0,-0x5f0(%rbp)
   18afb:	00 00 00 00 
   18aff:	48 8d 85 44 ef ff ff 	lea    -0x10bc(%rbp),%rax
   18b06:	48 89 85 18 fa ff ff 	mov    %rax,-0x5e8(%rbp)
   18b0d:	48 8d 85 80 f0 ff ff 	lea    -0xf80(%rbp),%rax
   18b14:	48 89 85 20 fa ff ff 	mov    %rax,-0x5e0(%rbp)
   18b1b:	48 8d 85 2c ef ff ff 	lea    -0x10d4(%rbp),%rax
   18b22:	48 89 85 28 fa ff ff 	mov    %rax,-0x5d8(%rbp)
   18b29:	48 8d 85 80 f0 ff ff 	lea    -0xf80(%rbp),%rax
   18b30:	48 89 85 30 fa ff ff 	mov    %rax,-0x5d0(%rbp)
   18b37:	48 8d 85 18 ef ff ff 	lea    -0x10e8(%rbp),%rax
   18b3e:	48 89 85 38 fa ff ff 	mov    %rax,-0x5c8(%rbp)
   18b45:	48 8d 85 1c ef ff ff 	lea    -0x10e4(%rbp),%rax
   18b4c:	48 89 85 40 fa ff ff 	mov    %rax,-0x5c0(%rbp)
   18b53:	48 8d 85 2c ef ff ff 	lea    -0x10d4(%rbp),%rax
   18b5a:	48 89 85 48 fa ff ff 	mov    %rax,-0x5b8(%rbp)
   18b61:	48 8d 85 38 ef ff ff 	lea    -0x10c8(%rbp),%rax
   18b68:	48 89 85 50 fa ff ff 	mov    %rax,-0x5b0(%rbp)
   18b6f:	48 8d 85 38 ef ff ff 	lea    -0x10c8(%rbp),%rax
   18b76:	48 89 85 58 fa ff ff 	mov    %rax,-0x5a8(%rbp)
   18b7d:	48 8d 85 2c ef ff ff 	lea    -0x10d4(%rbp),%rax
   18b84:	48 89 85 60 fa ff ff 	mov    %rax,-0x5a0(%rbp)
   18b8b:	48 8d 85 1c ef ff ff 	lea    -0x10e4(%rbp),%rax
   18b92:	48 89 85 68 fa ff ff 	mov    %rax,-0x598(%rbp)
   18b99:	48 8d 85 44 ef ff ff 	lea    -0x10bc(%rbp),%rax
   18ba0:	48 89 85 70 fa ff ff 	mov    %rax,-0x590(%rbp)
   18ba7:	48 8d 05 5a c6 00 00 	lea    0xc65a(%rip),%rax        # 25208 <g_133+0x48>
   18bae:	48 89 85 78 fa ff ff 	mov    %rax,-0x588(%rbp)
   18bb5:	48 8d 85 44 ef ff ff 	lea    -0x10bc(%rbp),%rax
   18bbc:	48 89 85 80 fa ff ff 	mov    %rax,-0x580(%rbp)
   18bc3:	48 8d 85 30 ef ff ff 	lea    -0x10d0(%rbp),%rax
   18bca:	48 89 85 88 fa ff ff 	mov    %rax,-0x578(%rbp)
   18bd1:	48 8d 85 20 ef ff ff 	lea    -0x10e0(%rbp),%rax
   18bd8:	48 89 85 90 fa ff ff 	mov    %rax,-0x570(%rbp)
   18bdf:	48 8d 85 34 ef ff ff 	lea    -0x10cc(%rbp),%rax
   18be6:	48 89 85 98 fa ff ff 	mov    %rax,-0x568(%rbp)
   18bed:	48 8d 05 78 c6 00 00 	lea    0xc678(%rip),%rax        # 2526c <g_871+0xc>
   18bf4:	48 89 85 a0 fa ff ff 	mov    %rax,-0x560(%rbp)
   18bfb:	48 8d 85 1c ef ff ff 	lea    -0x10e4(%rbp),%rax
   18c02:	48 89 85 a8 fa ff ff 	mov    %rax,-0x558(%rbp)
   18c09:	48 c7 85 b0 fa ff ff 	movq   $0x0,-0x550(%rbp)
   18c10:	00 00 00 00 
   18c14:	48 8d 85 1c ef ff ff 	lea    -0x10e4(%rbp),%rax
   18c1b:	48 89 85 b8 fa ff ff 	mov    %rax,-0x548(%rbp)
   18c22:	48 8d 85 18 ef ff ff 	lea    -0x10e8(%rbp),%rax
   18c29:	48 89 85 c0 fa ff ff 	mov    %rax,-0x540(%rbp)
   18c30:	48 8d 85 3c ef ff ff 	lea    -0x10c4(%rbp),%rax
   18c37:	48 89 85 c8 fa ff ff 	mov    %rax,-0x538(%rbp)
   18c3e:	48 8d 05 27 c6 00 00 	lea    0xc627(%rip),%rax        # 2526c <g_871+0xc>
   18c45:	48 89 85 d0 fa ff ff 	mov    %rax,-0x530(%rbp)
   18c4c:	48 8d 85 38 ef ff ff 	lea    -0x10c8(%rbp),%rax
   18c53:	48 89 85 d8 fa ff ff 	mov    %rax,-0x528(%rbp)
   18c5a:	48 c7 85 e0 fa ff ff 	movq   $0x0,-0x520(%rbp)
   18c61:	00 00 00 00 
   18c65:	48 8d 85 38 ef ff ff 	lea    -0x10c8(%rbp),%rax
   18c6c:	48 89 85 e8 fa ff ff 	mov    %rax,-0x518(%rbp)
   18c73:	48 8d 85 30 ef ff ff 	lea    -0x10d0(%rbp),%rax
   18c7a:	48 89 85 f0 fa ff ff 	mov    %rax,-0x510(%rbp)
   18c81:	48 8d 85 50 f5 ff ff 	lea    -0xab0(%rbp),%rax
   18c88:	48 83 c0 30          	add    $0x30,%rax
   18c8c:	48 89 85 f8 fa ff ff 	mov    %rax,-0x508(%rbp)
   18c93:	0f b7 85 d0 f2 ff ff 	movzwl -0xd30(%rbp),%eax
   18c9a:	83 c0 01             	add    $0x1,%eax
   18c9d:	66 89 85 d0 f2 ff ff 	mov    %ax,-0xd30(%rbp)
   18ca4:	48 8b 85 e8 ee ff ff 	mov    -0x1118(%rbp),%rax
   18cab:	8b 00                	mov    (%rax),%eax
   18cad:	85 c0                	test   %eax,%eax
   18caf:	74 06                	je     18cb7 <func_18+0x31f6>
   18cb1:	90                   	nop
   18cb2:	e9 26 01 00 00       	jmpq   18ddd <func_18+0x331c>
   18cb7:	48 8b 05 2a fe 00 00 	mov    0xfe2a(%rip),%rax        # 28ae8 <g_429>
   18cbe:	48 8b 18             	mov    (%rax),%rbx
   18cc1:	48 8b 85 e8 ee ff ff 	mov    -0x1118(%rbp),%rax
   18cc8:	44 8b 20             	mov    (%rax),%r12d
   18ccb:	48 8b 05 16 fe 00 00 	mov    0xfe16(%rip),%rax        # 28ae8 <g_429>
   18cd2:	48 8b 00             	mov    (%rax),%rax
   18cd5:	be 01 00 00 00       	mov    $0x1,%esi
   18cda:	48 89 c7             	mov    %rax,%rdi
   18cdd:	e8 c6 4b ff ff       	callq  d8a8 <safe_sub_func_int64_t_s_s>
   18ce2:	48 8b 95 48 f0 ff ff 	mov    -0xfb8(%rbp),%rdx
   18ce9:	48 8b 12             	mov    (%rdx),%rdx
   18cec:	48 8b 12             	mov    (%rdx),%rdx
   18cef:	48 8b 12             	mov    (%rdx),%rdx
   18cf2:	8b 12                	mov    (%rdx),%edx
   18cf4:	83 fa 02             	cmp    $0x2,%edx
   18cf7:	0f 96 c2             	setbe  %dl
   18cfa:	0f b6 d2             	movzbl %dl,%edx
   18cfd:	48 39 d0             	cmp    %rdx,%rax
   18d00:	0f 9e c0             	setle  %al
   18d03:	0f b6 d0             	movzbl %al,%edx
   18d06:	48 8b 85 e8 ee ff ff 	mov    -0x1118(%rbp),%rax
   18d0d:	8b 00                	mov    (%rax),%eax
   18d0f:	09 d0                	or     %edx,%eax
   18d11:	44 89 e6             	mov    %r12d,%esi
   18d14:	89 c7                	mov    %eax,%edi
   18d16:	e8 e4 49 ff ff       	callq  d6ff <safe_div_func_int32_t_s_s>
   18d1b:	48 63 d0             	movslq %eax,%rdx
   18d1e:	48 8b 85 10 f2 ff ff 	mov    -0xdf0(%rbp),%rax
   18d25:	c7 00 ff ff ff ff    	movl   $0xffffffff,(%rax)
   18d2b:	8b 85 80 f0 ff ff    	mov    -0xf80(%rbp),%eax
   18d31:	39 85 c4 ef ff ff    	cmp    %eax,-0x103c(%rbp)
   18d37:	0f 9c c0             	setl   %al
   18d3a:	0f b6 c0             	movzbl %al,%eax
   18d3d:	48 89 d6             	mov    %rdx,%rsi
   18d40:	48 89 c7             	mov    %rax,%rdi
   18d43:	e8 38 53 ff ff       	callq  e080 <safe_mod_func_uint64_t_u_u>
   18d48:	48 83 f8 07          	cmp    $0x7,%rax
   18d4c:	48 c7 85 a8 f0 ff ff 	movq   $0x0,-0xf58(%rbp)
   18d53:	00 00 00 00 
   18d57:	48 8b 85 a8 f0 ff ff 	mov    -0xf58(%rbp),%rax
   18d5e:	48 3b 85 c8 f1 ff ff 	cmp    -0xe38(%rbp),%rax
   18d65:	0f 95 c0             	setne  %al
   18d68:	0f b6 c8             	movzbl %al,%ecx
   18d6b:	48 8b 85 68 f0 ff ff 	mov    -0xf98(%rbp),%rax
   18d72:	0f b6 10             	movzbl (%rax),%edx
   18d75:	48 8b 85 68 f0 ff ff 	mov    -0xf98(%rbp),%rax
   18d7c:	09 ca                	or     %ecx,%edx
   18d7e:	88 10                	mov    %dl,(%rax)
   18d80:	0f b6 10             	movzbl (%rax),%edx
   18d83:	48 8b 85 18 f2 ff ff 	mov    -0xde8(%rbp),%rax
   18d8a:	88 10                	mov    %dl,(%rax)
   18d8c:	48 c7 c7 f8 ff ff ff 	mov    $0xfffffffffffffff8,%rdi
   18d93:	e8 7e 4a ff ff       	callq  d816 <safe_unary_minus_func_int64_t_s>
   18d98:	89 c2                	mov    %eax,%edx
   18d9a:	48 8b 85 90 f0 ff ff 	mov    -0xf70(%rbp),%rax
   18da1:	89 10                	mov    %edx,(%rax)
   18da3:	be 10 00 00 00       	mov    $0x10,%esi
   18da8:	bf 04 00 00 00       	mov    $0x4,%edi
   18dad:	e8 a8 4d ff ff       	callq  db5a <safe_add_func_uint8_t_u_u>
   18db2:	0f b6 c0             	movzbl %al,%eax
   18db5:	48 8b 95 88 f1 ff ff 	mov    -0xe78(%rbp),%rdx
   18dbc:	48 89 de             	mov    %rbx,%rsi
   18dbf:	89 c7                	mov    %eax,%edi
   18dc1:	e8 e2 6a 00 00       	callq  1f8a8 <func_38>
   18dc6:	48 89 85 b0 fa ff ff 	mov    %rax,-0x550(%rbp)
   18dcd:	48 8b 85 e0 f1 ff ff 	mov    -0xe20(%rbp),%rax
   18dd4:	48 89 85 88 f0 ff ff 	mov    %rax,-0xf78(%rbp)
   18ddb:	eb 01                	jmp    18dde <func_18+0x331d>
   18ddd:	90                   	nop
   18dde:	0f b7 05 5b c4 00 00 	movzwl 0xc45b(%rip),%eax        # 25240 <g_807>
   18de5:	83 c0 01             	add    $0x1,%eax
   18de8:	66 89 05 51 c4 00 00 	mov    %ax,0xc451(%rip)        # 25240 <g_807>
   18def:	0f b7 05 4a c4 00 00 	movzwl 0xc44a(%rip),%eax        # 25240 <g_807>
   18df6:	66 83 f8 04          	cmp    $0x4,%ax
   18dfa:	0f 86 e2 d1 ff ff    	jbe    15fe2 <func_18+0x521>
   18e00:	48 8b 85 88 f0 ff ff 	mov    -0xf78(%rbp),%rax
   18e07:	48 8b 00             	mov    (%rax),%rax
   18e0a:	48 8b 00             	mov    (%rax),%rax
   18e0d:	48 8b 00             	mov    (%rax),%rax
   18e10:	48 8b 00             	mov    (%rax),%rax
   18e13:	8b 00                	mov    (%rax),%eax
   18e15:	0f be c0             	movsbl %al,%eax
   18e18:	89 c7                	mov    %eax,%edi
   18e1a:	e8 a0 43 ff ff       	callq  d1bf <safe_unary_minus_func_int8_t_s>
   18e1f:	89 c2                	mov    %eax,%edx
   18e21:	48 8b 85 e8 ee ff ff 	mov    -0x1118(%rbp),%rax
   18e28:	0f be d2             	movsbl %dl,%edx
   18e2b:	89 10                	mov    %edx,(%rax)
   18e2d:	8b 05 a9 c4 00 00    	mov    0xc4a9(%rip),%eax        # 252dc <g_1691>
   18e33:	41 89 c5             	mov    %eax,%r13d
   18e36:	48 8b 85 48 f0 ff ff 	mov    -0xfb8(%rbp),%rax
   18e3d:	48 8b 00             	mov    (%rax),%rax
   18e40:	48 8b 00             	mov    (%rax),%rax
   18e43:	48 8b 00             	mov    (%rax),%rax
   18e46:	8b 00                	mov    (%rax),%eax
   18e48:	0f be c0             	movsbl %al,%eax
   18e4b:	89 c6                	mov    %eax,%esi
   18e4d:	bf 93 ff ff ff       	mov    $0xffffff93,%edi
   18e52:	e8 7d 43 ff ff       	callq  d1d4 <safe_add_func_int8_t_s_s>
   18e57:	44 0f be e0          	movsbl %al,%r12d
   18e5b:	0f b6 9d 01 ef ff ff 	movzbl -0x10ff(%rbp),%ebx
   18e62:	0f b7 85 e4 ee ff ff 	movzwl -0x111c(%rbp),%eax
   18e69:	66 85 c0             	test   %ax,%ax
   18e6c:	74 6f                	je     18edd <func_18+0x341c>
   18e6e:	48 8b 85 e8 ee ff ff 	mov    -0x1118(%rbp),%rax
   18e75:	8b 00                	mov    (%rax),%eax
   18e77:	89 c2                	mov    %eax,%edx
   18e79:	48 8b 05 a8 ff 00 00 	mov    0xffa8(%rip),%rax        # 28e28 <g_858>
   18e80:	48 8b 00             	mov    (%rax),%rax
   18e83:	8b 00                	mov    (%rax),%eax
   18e85:	89 d6                	mov    %edx,%esi
   18e87:	89 c7                	mov    %eax,%edi
   18e89:	e8 6f 50 ff ff       	callq  defd <safe_mod_func_uint32_t_u_u>
   18e8e:	0f be c0             	movsbl %al,%eax
   18e91:	be 00 00 00 00       	mov    $0x0,%esi
   18e96:	89 c7                	mov    %eax,%edi
   18e98:	e8 51 44 ff ff       	callq  d2ee <safe_lshift_func_int8_t_s_u>
   18e9d:	84 c0                	test   %al,%al
   18e9f:	74 22                	je     18ec3 <func_18+0x3402>
   18ea1:	48 8b 85 10 f0 ff ff 	mov    -0xff0(%rbp),%rax
   18ea8:	48 85 c0             	test   %rax,%rax
   18eab:	74 16                	je     18ec3 <func_18+0x3402>
   18ead:	48 8b 05 44 01 01 00 	mov    0x10144(%rip),%rax        # 28ff8 <g_1205>
   18eb4:	48 8b 00             	mov    (%rax),%rax
   18eb7:	48 85 c0             	test   %rax,%rax
   18eba:	74 07                	je     18ec3 <func_18+0x3402>
   18ebc:	ba 01 00 00 00       	mov    $0x1,%edx
   18ec1:	eb 05                	jmp    18ec8 <func_18+0x3407>
   18ec3:	ba 00 00 00 00       	mov    $0x0,%edx
   18ec8:	0f b7 05 09 c4 00 00 	movzwl 0xc409(%rip),%eax        # 252d8 <g_1688>
   18ecf:	98                   	cwtl   
   18ed0:	21 d0                	and    %edx,%eax
   18ed2:	85 c0                	test   %eax,%eax
   18ed4:	74 07                	je     18edd <func_18+0x341c>
   18ed6:	b8 01 00 00 00       	mov    $0x1,%eax
   18edb:	eb 05                	jmp    18ee2 <func_18+0x3421>
   18edd:	b8 00 00 00 00       	mov    $0x0,%eax
   18ee2:	89 c6                	mov    %eax,%esi
   18ee4:	bf 3d 18 00 00       	mov    $0x183d,%edi
   18ee9:	e8 f3 45 ff ff       	callq  d4e1 <safe_lshift_func_int16_t_s_u>
   18eee:	48 8b 05 23 fc 00 00 	mov    0xfc23(%rip),%rax        # 28b18 <g_488>
   18ef5:	0f b6 00             	movzbl (%rax),%eax
   18ef8:	0f b6 c0             	movzbl %al,%eax
   18efb:	89 de                	mov    %ebx,%esi
   18efd:	89 c7                	mov    %eax,%edi
   18eff:	e8 56 4c ff ff       	callq  db5a <safe_add_func_uint8_t_u_u>
   18f04:	0f b6 d0             	movzbl %al,%edx
   18f07:	8b 05 8b 11 01 00    	mov    0x1118b(%rip),%eax        # 2a098 <g_805>
   18f0d:	48 98                	cltq   
   18f0f:	48 89 d6             	mov    %rdx,%rsi
   18f12:	48 89 c7             	mov    %rax,%rdi
   18f15:	e8 14 51 ff ff       	callq  e02e <safe_add_func_uint64_t_u_u>
   18f1a:	0f b6 c0             	movzbl %al,%eax
   18f1d:	89 c6                	mov    %eax,%esi
   18f1f:	bf 23 00 00 00       	mov    $0x23,%edi
   18f24:	e8 b2 4c ff ff       	callq  dbdb <safe_div_func_uint8_t_u_u>
   18f29:	be cd c4 23 6b       	mov    $0x6b23c4cd,%esi
   18f2e:	bf eb ba b2 30       	mov    $0x30b2baeb,%edi
   18f33:	e8 98 4f ff ff       	callq  ded0 <safe_sub_func_uint32_t_u_u>
   18f38:	0f b7 85 e4 ee ff ff 	movzwl -0x111c(%rbp),%eax
   18f3f:	66 85 c0             	test   %ax,%ax
   18f42:	75 0f                	jne    18f53 <func_18+0x3492>
   18f44:	48 8b 05 9d fb 00 00 	mov    0xfb9d(%rip),%rax        # 28ae8 <g_429>
   18f4b:	48 8b 00             	mov    (%rax),%rax
   18f4e:	48 85 c0             	test   %rax,%rax
   18f51:	74 07                	je     18f5a <func_18+0x3499>
   18f53:	b8 01 00 00 00       	mov    $0x1,%eax
   18f58:	eb 05                	jmp    18f5f <func_18+0x349e>
   18f5a:	b8 00 00 00 00       	mov    $0x0,%eax
   18f5f:	85 c0                	test   %eax,%eax
   18f61:	0f 94 c0             	sete   %al
   18f64:	0f b6 c0             	movzbl %al,%eax
   18f67:	41 39 c4             	cmp    %eax,%r12d
   18f6a:	0f 9d c2             	setge  %dl
   18f6d:	48 8b 05 54 f3 00 00 	mov    0xf354(%rip),%rax        # 282c8 <g_60>
   18f74:	48 8b 00             	mov    (%rax),%rax
   18f77:	0f b6 d2             	movzbl %dl,%edx
   18f7a:	89 10                	mov    %edx,(%rax)
   18f7c:	8b 00                	mov    (%rax),%eax
   18f7e:	44 89 ee             	mov    %r13d,%esi
   18f81:	89 c7                	mov    %eax,%edi
   18f83:	e8 77 47 ff ff       	callq  d6ff <safe_div_func_int32_t_s_s>
   18f88:	89 85 cc f4 ff ff    	mov    %eax,-0xb34(%rbp)
   18f8e:	0f b7 05 7f c2 00 00 	movzwl 0xc27f(%rip),%eax        # 25214 <g_188>
   18f95:	83 e8 01             	sub    $0x1,%eax
   18f98:	66 89 05 75 c2 00 00 	mov    %ax,0xc275(%rip)        # 25214 <g_188>
   18f9f:	0f b7 05 6e c2 00 00 	movzwl 0xc26e(%rip),%eax        # 25214 <g_188>
   18fa6:	66 85 c0             	test   %ax,%ax
   18fa9:	0f 89 16 cf ff ff    	jns    15ec5 <func_18+0x404>
   18faf:	48 8b 05 32 00 01 00 	mov    0x10032(%rip),%rax        # 28fe8 <g_1077>
   18fb6:	48 8b 00             	mov    (%rax),%rax
   18fb9:	0f b7 00             	movzwl (%rax),%eax
   18fbc:	e9 83 18 00 00       	jmpq   1a844 <func_18+0x4d83>
   18fc1:	48 8b 85 e8 ee ff ff 	mov    -0x1118(%rbp),%rax
   18fc8:	48 89 85 e8 ee ff ff 	mov    %rax,-0x1118(%rbp)
   18fcf:	48 83 bd b0 f0 ff ff 	cmpq   $0x0,-0xf50(%rbp)
   18fd6:	00 
   18fd7:	0f 95 c2             	setne  %dl
   18fda:	48 8b 85 e8 ee ff ff 	mov    -0x1118(%rbp),%rax
   18fe1:	0f b6 d2             	movzbl %dl,%edx
   18fe4:	89 10                	mov    %edx,(%rax)
   18fe6:	0f b7 85 e4 ee ff ff 	movzwl -0x111c(%rbp),%eax
   18fed:	0f b7 d8             	movzwl %ax,%ebx
   18ff0:	0f b7 85 e4 ee ff ff 	movzwl -0x111c(%rbp),%eax
   18ff7:	44 0f be e0          	movsbl %al,%r12d
   18ffb:	0f b7 95 e4 ee ff ff 	movzwl -0x111c(%rbp),%edx
   19002:	48 8b 05 0f fb 00 00 	mov    0xfb0f(%rip),%rax        # 28b18 <g_488>
   19009:	88 10                	mov    %dl,(%rax)
   1900b:	48 8b 85 c8 f0 ff ff 	mov    -0xf38(%rbp),%rax
   19012:	48 8b 00             	mov    (%rax),%rax
   19015:	48 8d 50 01          	lea    0x1(%rax),%rdx
   19019:	48 8b 85 c8 f0 ff ff 	mov    -0xf38(%rbp),%rax
   19020:	48 89 10             	mov    %rdx,(%rax)
   19023:	48 8b 95 20 f0 ff ff 	mov    -0xfe0(%rbp),%rdx
   1902a:	48 8b 85 d0 f0 ff ff 	mov    -0xf30(%rbp),%rax
   19031:	48 89 10             	mov    %rdx,(%rax)
   19034:	be a1 bf 7a 1d       	mov    $0x1d7abfa1,%esi
   19039:	bf 01 00 00 00       	mov    $0x1,%edi
   1903e:	e8 ba 4e ff ff       	callq  defd <safe_mod_func_uint32_t_u_u>
   19043:	be 0f 00 00 00       	mov    $0xf,%esi
   19048:	bf 01 00 00 00       	mov    $0x1,%edi
   1904d:	e8 f6 4d ff ff       	callq  de48 <safe_rshift_func_uint16_t_u_s>
   19052:	44 89 e6             	mov    %r12d,%esi
   19055:	bf 00 00 00 00       	mov    $0x0,%edi
   1905a:	e8 b3 41 ff ff       	callq  d212 <safe_mul_func_int8_t_s_s>
   1905f:	0f b7 85 e4 ee ff ff 	movzwl -0x111c(%rbp),%eax
   19066:	0f b7 c0             	movzwl %ax,%eax
   19069:	89 de                	mov    %ebx,%esi
   1906b:	89 c7                	mov    %eax,%edi
   1906d:	e8 cb 4c ff ff       	callq  dd3d <safe_mul_func_uint16_t_u_u>
   19072:	0f b7 95 e4 ee ff ff 	movzwl -0x111c(%rbp),%edx
   19079:	31 d0                	xor    %edx,%eax
   1907b:	0f b7 d0             	movzwl %ax,%edx
   1907e:	48 8b 05 7b ec 00 00 	mov    0xec7b(%rip),%rax        # 27d00 <g_16>
   19085:	8b 00                	mov    (%rax),%eax
   19087:	39 c2                	cmp    %eax,%edx
   19089:	0f 95 c0             	setne  %al
   1908c:	0f b6 d0             	movzbl %al,%edx
   1908f:	48 8b 05 6a fa 00 00 	mov    0xfa6a(%rip),%rax        # 28b00 <g_447>
   19096:	48 8b 00             	mov    (%rax),%rax
   19099:	48 8b 00             	mov    (%rax),%rax
   1909c:	8b 00                	mov    (%rax),%eax
   1909e:	09 d0                	or     %edx,%eax
   190a0:	66 89 85 04 ef ff ff 	mov    %ax,-0x10fc(%rbp)
   190a7:	0f bf 95 04 ef ff ff 	movswl -0x10fc(%rbp),%edx
   190ae:	0f b7 85 e4 ee ff ff 	movzwl -0x111c(%rbp),%eax
   190b5:	0f b7 c0             	movzwl %ax,%eax
   190b8:	31 d0                	xor    %edx,%eax
   190ba:	83 f8 f7             	cmp    $0xfffffff7,%eax
   190bd:	7d 64                	jge    19123 <func_18+0x3662>
   190bf:	c7 85 64 ef ff ff 00 	movl   $0x0,-0x109c(%rbp)
   190c6:	00 00 00 
   190c9:	eb 1e                	jmp    190e9 <func_18+0x3628>
   190cb:	8b 85 64 ef ff ff    	mov    -0x109c(%rbp),%eax
   190d1:	48 98                	cltq   
   190d3:	48 8d 15 92 c1 00 00 	lea    0xc192(%rip),%rdx        # 2526c <g_871+0xc>
   190da:	48 89 94 c5 30 f8 ff 	mov    %rdx,-0x7d0(%rbp,%rax,8)
   190e1:	ff 
   190e2:	83 85 64 ef ff ff 01 	addl   $0x1,-0x109c(%rbp)
   190e9:	83 bd 64 ef ff ff 07 	cmpl   $0x7,-0x109c(%rbp)
   190f0:	7e d9                	jle    190cb <func_18+0x360a>
   190f2:	48 8b 85 e8 ee ff ff 	mov    -0x1118(%rbp),%rax
   190f9:	48 89 85 e8 ee ff ff 	mov    %rax,-0x1118(%rbp)
   19100:	48 8b 05 f9 fe 00 00 	mov    0xfef9(%rip),%rax        # 29000 <g_1309>
   19107:	48 8b 95 38 f8 ff ff 	mov    -0x7c8(%rbp),%rdx
   1910e:	48 89 10             	mov    %rdx,(%rax)
   19111:	48 8b 05 d0 fe 00 00 	mov    0xfed0(%rip),%rax        # 28fe8 <g_1077>
   19118:	48 8b 00             	mov    (%rax),%rax
   1911b:	0f b7 00             	movzwl (%rax),%eax
   1911e:	e9 21 17 00 00       	jmpq   1a844 <func_18+0x4d83>
   19123:	c7 85 60 f3 ff ff 6d 	movl   $0x86897c6d,-0xca0(%rbp)
   1912a:	7c 89 86 
   1912d:	c7 85 64 f3 ff ff 6d 	movl   $0x86897c6d,-0xc9c(%rbp)
   19134:	7c 89 86 
   19137:	c7 85 68 f3 ff ff 36 	movl   $0xc4d7bd36,-0xc98(%rbp)
   1913e:	bd d7 c4 
   19141:	c7 85 6c f3 ff ff 6d 	movl   $0x86897c6d,-0xc94(%rbp)
   19148:	7c 89 86 
   1914b:	c7 85 70 f3 ff ff 6d 	movl   $0x86897c6d,-0xc90(%rbp)
   19152:	7c 89 86 
   19155:	c7 85 74 f3 ff ff 36 	movl   $0xc4d7bd36,-0xc8c(%rbp)
   1915c:	bd d7 c4 
   1915f:	c7 85 78 f3 ff ff 6d 	movl   $0x86897c6d,-0xc88(%rbp)
   19166:	7c 89 86 
   19169:	c7 85 7c f3 ff ff 6d 	movl   $0x86897c6d,-0xc84(%rbp)
   19170:	7c 89 86 
   19173:	c7 85 80 f3 ff ff 36 	movl   $0xc4d7bd36,-0xc80(%rbp)
   1917a:	bd d7 c4 
   1917d:	c7 85 84 f3 ff ff 6d 	movl   $0x86897c6d,-0xc7c(%rbp)
   19184:	7c 89 86 
   19187:	c7 85 88 f3 ff ff 6d 	movl   $0x86897c6d,-0xc78(%rbp)
   1918e:	7c 89 86 
   19191:	c7 85 8c f3 ff ff 36 	movl   $0xc4d7bd36,-0xc74(%rbp)
   19198:	bd d7 c4 
   1919b:	c7 85 90 f3 ff ff 6d 	movl   $0x86897c6d,-0xc70(%rbp)
   191a2:	7c 89 86 
   191a5:	c7 85 94 f3 ff ff 6d 	movl   $0x86897c6d,-0xc6c(%rbp)
   191ac:	7c 89 86 
   191af:	c7 85 98 f3 ff ff 36 	movl   $0xc4d7bd36,-0xc68(%rbp)
   191b6:	bd d7 c4 
   191b9:	c7 85 68 ef ff ff 09 	movl   $0x9,-0x1098(%rbp)
   191c0:	00 00 00 
   191c3:	c7 85 8c ef ff ff 7f 	movl   $0xf5e3fa7f,-0x1074(%rbp)
   191ca:	fa e3 f5 
   191cd:	c7 85 70 f2 ff ff a5 	movl   $0x3b558ca5,-0xd90(%rbp)
   191d4:	8c 55 3b 
   191d7:	c7 85 74 f2 ff ff a5 	movl   $0x3b558ca5,-0xd8c(%rbp)
   191de:	8c 55 3b 
   191e1:	c7 85 78 f2 ff ff a5 	movl   $0x3b558ca5,-0xd88(%rbp)
   191e8:	8c 55 3b 
   191eb:	c7 85 7c f2 ff ff a5 	movl   $0x3b558ca5,-0xd84(%rbp)
   191f2:	8c 55 3b 
   191f5:	c7 85 80 f2 ff ff a5 	movl   $0x3b558ca5,-0xd80(%rbp)
   191fc:	8c 55 3b 
   191ff:	48 8d 05 2a f9 00 00 	lea    0xf92a(%rip),%rax        # 28b30 <g_485>
   19206:	48 89 85 e8 f0 ff ff 	mov    %rax,-0xf18(%rbp)
   1920d:	48 8d 85 30 f8 ff ff 	lea    -0x7d0(%rbp),%rax
   19214:	48 8d 15 45 d6 00 00 	lea    0xd645(%rip),%rdx        # 26860 <g_3117+0x1494>
   1921b:	b9 f3 00 00 00       	mov    $0xf3,%ecx
   19220:	48 89 c7             	mov    %rax,%rdi
   19223:	48 89 d6             	mov    %rdx,%rsi
   19226:	f3 48 a5             	rep movsq %ds:(%rsi),%es:(%rdi)
   19229:	c7 85 90 ef ff ff 01 	movl   $0x1,-0x1070(%rbp)
   19230:	00 00 00 
   19233:	48 c7 85 60 f0 ff ff 	movq   $0x0,-0xfa0(%rbp)
   1923a:	00 00 00 00 
   1923e:	48 8d 85 60 f0 ff ff 	lea    -0xfa0(%rbp),%rax
   19245:	48 89 85 f0 f0 ff ff 	mov    %rax,-0xf10(%rbp)
   1924c:	66 c7 85 08 ef ff ff 	movw   $0x0,-0x10f8(%rbp)
   19253:	00 00 
   19255:	48 b8 b6 76 58 96 25 	movabs $0x4f62e525965876b6,%rax
   1925c:	e5 62 4f 
   1925f:	48 89 85 f8 f0 ff ff 	mov    %rax,-0xf08(%rbp)
   19266:	c7 85 94 ef ff ff 7f 	movl   $0x90f5247f,-0x106c(%rbp)
   1926d:	24 f5 90 
   19270:	8b 85 64 f3 ff ff    	mov    -0xc9c(%rbp),%eax
   19276:	85 c0                	test   %eax,%eax
   19278:	0f 85 99 00 00 00    	jne    19317 <func_18+0x3856>
   1927e:	0f b7 85 e4 ee ff ff 	movzwl -0x111c(%rbp),%eax
   19285:	0f b6 d8             	movzbl %al,%ebx
   19288:	0f b7 85 e4 ee ff ff 	movzwl -0x111c(%rbp),%eax
   1928f:	44 0f b7 e0          	movzwl %ax,%r12d
   19293:	0f b7 85 e4 ee ff ff 	movzwl -0x111c(%rbp),%eax
   1929a:	66 85 c0             	test   %ax,%ax
   1929d:	74 22                	je     192c1 <func_18+0x3800>
   1929f:	0f b7 85 e4 ee ff ff 	movzwl -0x111c(%rbp),%eax
   192a6:	0f b7 c0             	movzwl %ax,%eax
   192a9:	be 01 00 00 00       	mov    $0x1,%esi
   192ae:	89 c7                	mov    %eax,%edi
   192b0:	e8 c5 4b ff ff       	callq  de7a <safe_rshift_func_uint16_t_u_u>
   192b5:	66 85 c0             	test   %ax,%ax
   192b8:	74 07                	je     192c1 <func_18+0x3800>
   192ba:	b8 01 00 00 00       	mov    $0x1,%eax
   192bf:	eb 05                	jmp    192c6 <func_18+0x3805>
   192c1:	b8 00 00 00 00       	mov    $0x0,%eax
   192c6:	0f b6 c0             	movzbl %al,%eax
   192c9:	be 02 00 00 00       	mov    $0x2,%esi
   192ce:	89 c7                	mov    %eax,%edi
   192d0:	e8 30 49 ff ff       	callq  dc05 <safe_lshift_func_uint8_t_u_s>
   192d5:	89 c2                	mov    %eax,%edx
   192d7:	48 8b 85 20 f0 ff ff 	mov    -0xfe0(%rbp),%rax
   192de:	48 8b 00             	mov    (%rax),%rax
   192e1:	0f b6 d2             	movzbl %dl,%edx
   192e4:	66 89 10             	mov    %dx,(%rax)
   192e7:	0f b7 00             	movzwl (%rax),%eax
   192ea:	98                   	cwtl   
   192eb:	41 39 c4             	cmp    %eax,%r12d
   192ee:	0f 95 c0             	setne  %al
   192f1:	0f b6 c0             	movzbl %al,%eax
   192f4:	89 de                	mov    %ebx,%esi
   192f6:	89 c7                	mov    %eax,%edi
   192f8:	e8 de 48 ff ff       	callq  dbdb <safe_div_func_uint8_t_u_u>
   192fd:	0f b6 c0             	movzbl %al,%eax
   19300:	48 be 76 4c 38 dc 97 	movabs $0xa6a72f97dc384c76,%rsi
   19307:	2f a7 a6 
   1930a:	48 89 c7             	mov    %rax,%rdi
   1930d:	e8 1c 4d ff ff       	callq  e02e <safe_add_func_uint64_t_u_u>
   19312:	48 85 c0             	test   %rax,%rax
   19315:	74 07                	je     1931e <func_18+0x385d>
   19317:	ba 01 00 00 00       	mov    $0x1,%edx
   1931c:	eb 05                	jmp    19323 <func_18+0x3862>
   1931e:	ba 00 00 00 00       	mov    $0x0,%edx
   19323:	8b 85 70 f2 ff ff    	mov    -0xd90(%rbp),%eax
   19329:	09 d0                	or     %edx,%eax
   1932b:	89 85 70 f2 ff ff    	mov    %eax,-0xd90(%rbp)
   19331:	8b 85 70 f2 ff ff    	mov    -0xd90(%rbp),%eax
   19337:	85 c0                	test   %eax,%eax
   19339:	74 0f                	je     1934a <func_18+0x3889>
   1933b:	48 8b 05 9e fc 00 00 	mov    0xfc9e(%rip),%rax        # 28fe0 <g_1078>
   19342:	0f b7 00             	movzwl (%rax),%eax
   19345:	e9 fa 14 00 00       	jmpq   1a844 <func_18+0x4d83>
   1934a:	48 8d 05 49 bf 00 00 	lea    0xbf49(%rip),%rax        # 2529a <g_1086>
   19351:	48 89 85 00 f1 ff ff 	mov    %rax,-0xf00(%rbp)
   19358:	c7 85 6c ef ff ff ff 	movl   $0xffffffff,-0x1094(%rbp)
   1935f:	ff ff ff 
   19362:	48 8d 05 2f be 00 00 	lea    0xbe2f(%rip),%rax        # 25198 <g_77>
   19369:	48 89 85 68 f0 ff ff 	mov    %rax,-0xf98(%rbp)
   19370:	48 8d 85 68 f0 ff ff 	lea    -0xf98(%rbp),%rax
   19377:	48 89 85 40 f4 ff ff 	mov    %rax,-0xbc0(%rbp)
   1937e:	48 8d 85 68 f0 ff ff 	lea    -0xf98(%rbp),%rax
   19385:	48 89 85 48 f4 ff ff 	mov    %rax,-0xbb8(%rbp)
   1938c:	48 8d 85 68 f0 ff ff 	lea    -0xf98(%rbp),%rax
   19393:	48 89 85 50 f4 ff ff 	mov    %rax,-0xbb0(%rbp)
   1939a:	48 8d 85 68 f0 ff ff 	lea    -0xf98(%rbp),%rax
   193a1:	48 89 85 58 f4 ff ff 	mov    %rax,-0xba8(%rbp)
   193a8:	48 8d 85 68 f0 ff ff 	lea    -0xf98(%rbp),%rax
   193af:	48 89 85 60 f4 ff ff 	mov    %rax,-0xba0(%rbp)
   193b6:	48 8d 85 68 f0 ff ff 	lea    -0xf98(%rbp),%rax
   193bd:	48 89 85 68 f4 ff ff 	mov    %rax,-0xb98(%rbp)
   193c4:	48 8d 85 68 f0 ff ff 	lea    -0xf98(%rbp),%rax
   193cb:	48 89 85 70 f4 ff ff 	mov    %rax,-0xb90(%rbp)
   193d2:	48 8d 85 68 f0 ff ff 	lea    -0xf98(%rbp),%rax
   193d9:	48 89 85 78 f4 ff ff 	mov    %rax,-0xb88(%rbp)
   193e0:	48 8d 85 68 f0 ff ff 	lea    -0xf98(%rbp),%rax
   193e7:	48 89 85 80 f4 ff ff 	mov    %rax,-0xb80(%rbp)
   193ee:	48 8d 85 68 f0 ff ff 	lea    -0xf98(%rbp),%rax
   193f5:	48 89 85 88 f4 ff ff 	mov    %rax,-0xb78(%rbp)
   193fc:	48 8d 85 68 f0 ff ff 	lea    -0xf98(%rbp),%rax
   19403:	48 89 85 90 f4 ff ff 	mov    %rax,-0xb70(%rbp)
   1940a:	48 8d 85 68 f0 ff ff 	lea    -0xf98(%rbp),%rax
   19411:	48 89 85 98 f4 ff ff 	mov    %rax,-0xb68(%rbp)
   19418:	48 8d 85 68 f0 ff ff 	lea    -0xf98(%rbp),%rax
   1941f:	48 89 85 a0 f4 ff ff 	mov    %rax,-0xb60(%rbp)
   19426:	48 8d 85 68 f0 ff ff 	lea    -0xf98(%rbp),%rax
   1942d:	48 89 85 a8 f4 ff ff 	mov    %rax,-0xb58(%rbp)
   19434:	48 8d 85 68 f0 ff ff 	lea    -0xf98(%rbp),%rax
   1943b:	48 89 85 b0 f4 ff ff 	mov    %rax,-0xb50(%rbp)
   19442:	48 c7 85 08 f1 ff ff 	movq   $0x0,-0xef8(%rbp)
   19449:	00 00 00 00 
   1944d:	c7 85 c0 f4 ff ff 01 	movl   $0x1,-0xb40(%rbp)
   19454:	00 00 00 
   19457:	c7 85 c4 f4 ff ff 01 	movl   $0x1,-0xb3c(%rbp)
   1945e:	00 00 00 
   19461:	c7 85 c8 f4 ff ff 44 	movl   $0x8651e344,-0xb38(%rbp)
   19468:	e3 51 86 
   1946b:	c7 85 cc f4 ff ff c2 	movl   $0x41f6b0c2,-0xb34(%rbp)
   19472:	b0 f6 41 
   19475:	c7 85 d0 f4 ff ff 44 	movl   $0x8651e344,-0xb30(%rbp)
   1947c:	e3 51 86 
   1947f:	c7 85 d4 f4 ff ff 44 	movl   $0x8651e344,-0xb2c(%rbp)
   19486:	e3 51 86 
   19489:	c7 85 d8 f4 ff ff 44 	movl   $0x8651e344,-0xb28(%rbp)
   19490:	e3 51 86 
   19493:	c7 85 dc f4 ff ff fe 	movl   $0xfffffffe,-0xb24(%rbp)
   1949a:	ff ff ff 
   1949d:	c7 85 e0 f4 ff ff 00 	movl   $0x0,-0xb20(%rbp)
   194a4:	00 00 00 
   194a7:	c7 85 e4 f4 ff ff c2 	movl   $0x41f6b0c2,-0xb1c(%rbp)
   194ae:	b0 f6 41 
   194b1:	c7 85 e8 f4 ff ff fe 	movl   $0xfffffffe,-0xb18(%rbp)
   194b8:	ff ff ff 
   194bb:	c7 85 ec f4 ff ff c2 	movl   $0x41f6b0c2,-0xb14(%rbp)
   194c2:	b0 f6 41 
   194c5:	c7 85 f0 f4 ff ff 01 	movl   $0x1,-0xb10(%rbp)
   194cc:	00 00 00 
   194cf:	c7 85 f4 f4 ff ff 44 	movl   $0x8651e344,-0xb0c(%rbp)
   194d6:	e3 51 86 
   194d9:	c7 85 f8 f4 ff ff 00 	movl   $0x0,-0xb08(%rbp)
   194e0:	00 00 00 
   194e3:	c7 85 fc f4 ff ff 01 	movl   $0x1,-0xb04(%rbp)
   194ea:	00 00 00 
   194ed:	c7 85 00 f5 ff ff 01 	movl   $0x1,-0xb00(%rbp)
   194f4:	00 00 00 
   194f7:	c7 85 04 f5 ff ff 44 	movl   $0x8651e344,-0xafc(%rbp)
   194fe:	e3 51 86 
   19501:	c7 85 08 f5 ff ff c2 	movl   $0x41f6b0c2,-0xaf8(%rbp)
   19508:	b0 f6 41 
   1950b:	c7 85 0c f5 ff ff 44 	movl   $0x8651e344,-0xaf4(%rbp)
   19512:	e3 51 86 
   19515:	c7 85 10 f5 ff ff 44 	movl   $0x8651e344,-0xaf0(%rbp)
   1951c:	e3 51 86 
   1951f:	c7 85 14 f5 ff ff 44 	movl   $0x8651e344,-0xaec(%rbp)
   19526:	e3 51 86 
   19529:	c7 85 18 f5 ff ff fe 	movl   $0xfffffffe,-0xae8(%rbp)
   19530:	ff ff ff 
   19533:	c7 85 1c f5 ff ff 00 	movl   $0x0,-0xae4(%rbp)
   1953a:	00 00 00 
   1953d:	c7 85 20 f5 ff ff c2 	movl   $0x41f6b0c2,-0xae0(%rbp)
   19544:	b0 f6 41 
   19547:	c7 85 24 f5 ff ff fe 	movl   $0xfffffffe,-0xadc(%rbp)
   1954e:	ff ff ff 
   19551:	c7 85 28 f5 ff ff c2 	movl   $0x41f6b0c2,-0xad8(%rbp)
   19558:	b0 f6 41 
   1955b:	c7 85 2c f5 ff ff 01 	movl   $0x1,-0xad4(%rbp)
   19562:	00 00 00 
   19565:	c7 85 30 f5 ff ff 44 	movl   $0x8651e344,-0xad0(%rbp)
   1956c:	e3 51 86 
   1956f:	c7 85 34 f5 ff ff 00 	movl   $0x0,-0xacc(%rbp)
   19576:	00 00 00 
   19579:	c7 85 38 f5 ff ff 01 	movl   $0x1,-0xac8(%rbp)
   19580:	00 00 00 
   19583:	c7 85 3c f5 ff ff 01 	movl   $0x1,-0xac4(%rbp)
   1958a:	00 00 00 
   1958d:	c7 85 40 f5 ff ff 44 	movl   $0x8651e344,-0xac0(%rbp)
   19594:	e3 51 86 
   19597:	c7 85 44 f5 ff ff c2 	movl   $0x41f6b0c2,-0xabc(%rbp)
   1959e:	b0 f6 41 
   195a1:	c7 85 48 f5 ff ff 44 	movl   $0x8651e344,-0xab8(%rbp)
   195a8:	e3 51 86 
   195ab:	c7 85 4c f5 ff ff 44 	movl   $0x8651e344,-0xab4(%rbp)
   195b2:	e3 51 86 
   195b5:	c7 85 98 ef ff ff a8 	movl   $0x386818a8,-0x1068(%rbp)
   195bc:	18 68 38 
   195bf:	c7 85 70 ef ff ff 00 	movl   $0x0,-0x1090(%rbp)
   195c6:	00 00 00 
   195c9:	eb 19                	jmp    195e4 <func_18+0x3b23>
   195cb:	8b 85 70 ef ff ff    	mov    -0x1090(%rbp),%eax
   195d1:	48 98                	cltq   
   195d3:	66 c7 84 45 62 f2 ff 	movw   $0x1,-0xd9e(%rbp,%rax,2)
   195da:	ff 01 00 
   195dd:	83 85 70 ef ff ff 01 	addl   $0x1,-0x1090(%rbp)
   195e4:	83 bd 70 ef ff ff 06 	cmpl   $0x6,-0x1090(%rbp)
   195eb:	7e de                	jle    195cb <func_18+0x3b0a>
   195ed:	c7 85 70 ef ff ff 00 	movl   $0x0,-0x1090(%rbp)
   195f4:	00 00 00 
   195f7:	eb 76                	jmp    1966f <func_18+0x3bae>
   195f9:	c7 85 74 ef ff ff 00 	movl   $0x0,-0x108c(%rbp)
   19600:	00 00 00 
   19603:	eb 5a                	jmp    1965f <func_18+0x3b9e>
   19605:	c7 85 78 ef ff ff 00 	movl   $0x0,-0x1088(%rbp)
   1960c:	00 00 00 
   1960f:	eb 3e                	jmp    1964f <func_18+0x3b8e>
   19611:	8b 85 78 ef ff ff    	mov    -0x1088(%rbp),%eax
   19617:	48 63 c8             	movslq %eax,%rcx
   1961a:	8b 85 70 ef ff ff    	mov    -0x1090(%rbp),%eax
   19620:	48 63 d0             	movslq %eax,%rdx
   19623:	8b 85 74 ef ff ff    	mov    -0x108c(%rbp),%eax
   19629:	48 98                	cltq   
   1962b:	48 01 c2             	add    %rax,%rdx
   1962e:	48 89 d0             	mov    %rdx,%rax
   19631:	48 c1 e0 02          	shl    $0x2,%rax
   19635:	48 01 d0             	add    %rdx,%rax
   19638:	48 01 c0             	add    %rax,%rax
   1963b:	48 01 c8             	add    %rcx,%rax
   1963e:	66 c7 84 45 90 f2 ff 	movw   $0xcf72,-0xd70(%rbp,%rax,2)
   19645:	ff 72 cf 
   19648:	83 85 78 ef ff ff 01 	addl   $0x1,-0x1088(%rbp)
   1964f:	83 bd 78 ef ff ff 09 	cmpl   $0x9,-0x1088(%rbp)
   19656:	7e b9                	jle    19611 <func_18+0x3b50>
   19658:	83 85 74 ef ff ff 01 	addl   $0x1,-0x108c(%rbp)
   1965f:	83 bd 74 ef ff ff 00 	cmpl   $0x0,-0x108c(%rbp)
   19666:	7e 9d                	jle    19605 <func_18+0x3b44>
   19668:	83 85 70 ef ff ff 01 	addl   $0x1,-0x1090(%rbp)
   1966f:	83 bd 70 ef ff ff 00 	cmpl   $0x0,-0x1090(%rbp)
   19676:	7e 81                	jle    195f9 <func_18+0x3b38>
   19678:	c6 85 fc ee ff ff 03 	movb   $0x3,-0x1104(%rbp)
   1967f:	e9 9b 11 00 00       	jmpq   1a81f <func_18+0x4d5e>
   19684:	48 8d 05 1d bb 00 00 	lea    0xbb1d(%rip),%rax        # 251a8 <g_126>
   1968b:	48 89 85 10 f1 ff ff 	mov    %rax,-0xef0(%rbp)
   19692:	48 8d 05 97 f4 00 00 	lea    0xf497(%rip),%rax        # 28b30 <g_485>
   19699:	48 89 85 18 f1 ff ff 	mov    %rax,-0xee8(%rbp)
   196a0:	48 8d 05 71 f4 00 00 	lea    0xf471(%rip),%rax        # 28b18 <g_488>
   196a7:	48 89 85 70 f0 ff ff 	mov    %rax,-0xf90(%rbp)
   196ae:	48 8d 85 70 f0 ff ff 	lea    -0xf90(%rbp),%rax
   196b5:	48 89 85 50 f5 ff ff 	mov    %rax,-0xab0(%rbp)
   196bc:	48 c7 85 58 f5 ff ff 	movq   $0x0,-0xaa8(%rbp)
   196c3:	00 00 00 00 
   196c7:	48 8d 85 70 f0 ff ff 	lea    -0xf90(%rbp),%rax
   196ce:	48 89 85 60 f5 ff ff 	mov    %rax,-0xaa0(%rbp)
   196d5:	48 c7 85 68 f5 ff ff 	movq   $0x0,-0xa98(%rbp)
   196dc:	00 00 00 00 
   196e0:	48 8d 85 70 f0 ff ff 	lea    -0xf90(%rbp),%rax
   196e7:	48 89 85 70 f5 ff ff 	mov    %rax,-0xa90(%rbp)
   196ee:	48 c7 85 78 f5 ff ff 	movq   $0x0,-0xa88(%rbp)
   196f5:	00 00 00 00 
   196f9:	48 8d 85 70 f0 ff ff 	lea    -0xf90(%rbp),%rax
   19700:	48 89 85 80 f5 ff ff 	mov    %rax,-0xa80(%rbp)
   19707:	48 8d 85 70 f0 ff ff 	lea    -0xf90(%rbp),%rax
   1970e:	48 89 85 88 f5 ff ff 	mov    %rax,-0xa78(%rbp)
   19715:	48 8d 85 70 f0 ff ff 	lea    -0xf90(%rbp),%rax
   1971c:	48 89 85 90 f5 ff ff 	mov    %rax,-0xa70(%rbp)
   19723:	48 8d 85 70 f0 ff ff 	lea    -0xf90(%rbp),%rax
   1972a:	48 89 85 98 f5 ff ff 	mov    %rax,-0xa68(%rbp)
   19731:	48 8d 85 70 f0 ff ff 	lea    -0xf90(%rbp),%rax
   19738:	48 89 85 a0 f5 ff ff 	mov    %rax,-0xa60(%rbp)
   1973f:	48 8d 85 70 f0 ff ff 	lea    -0xf90(%rbp),%rax
   19746:	48 89 85 a8 f5 ff ff 	mov    %rax,-0xa58(%rbp)
   1974d:	48 8d 85 70 f0 ff ff 	lea    -0xf90(%rbp),%rax
   19754:	48 89 85 b0 f5 ff ff 	mov    %rax,-0xa50(%rbp)
   1975b:	48 8d 85 70 f0 ff ff 	lea    -0xf90(%rbp),%rax
   19762:	48 89 85 b8 f5 ff ff 	mov    %rax,-0xa48(%rbp)
   19769:	48 8d 85 70 f0 ff ff 	lea    -0xf90(%rbp),%rax
   19770:	48 89 85 c0 f5 ff ff 	mov    %rax,-0xa40(%rbp)
   19777:	48 8d 85 70 f0 ff ff 	lea    -0xf90(%rbp),%rax
   1977e:	48 89 85 c8 f5 ff ff 	mov    %rax,-0xa38(%rbp)
   19785:	48 8d 85 70 f0 ff ff 	lea    -0xf90(%rbp),%rax
   1978c:	48 89 85 d0 f5 ff ff 	mov    %rax,-0xa30(%rbp)
   19793:	48 c7 85 d8 f5 ff ff 	movq   $0x0,-0xa28(%rbp)
   1979a:	00 00 00 00 
   1979e:	48 8d 85 70 f0 ff ff 	lea    -0xf90(%rbp),%rax
   197a5:	48 89 85 e0 f5 ff ff 	mov    %rax,-0xa20(%rbp)
   197ac:	48 8d 85 70 f0 ff ff 	lea    -0xf90(%rbp),%rax
   197b3:	48 89 85 e8 f5 ff ff 	mov    %rax,-0xa18(%rbp)
   197ba:	48 8d 85 70 f0 ff ff 	lea    -0xf90(%rbp),%rax
   197c1:	48 89 85 f0 f5 ff ff 	mov    %rax,-0xa10(%rbp)
   197c8:	48 8d 85 70 f0 ff ff 	lea    -0xf90(%rbp),%rax
   197cf:	48 89 85 f8 f5 ff ff 	mov    %rax,-0xa08(%rbp)
   197d6:	48 8d 85 70 f0 ff ff 	lea    -0xf90(%rbp),%rax
   197dd:	48 89 85 00 f6 ff ff 	mov    %rax,-0xa00(%rbp)
   197e4:	48 8d 85 70 f0 ff ff 	lea    -0xf90(%rbp),%rax
   197eb:	48 89 85 08 f6 ff ff 	mov    %rax,-0x9f8(%rbp)
   197f2:	48 8d 85 70 f0 ff ff 	lea    -0xf90(%rbp),%rax
   197f9:	48 89 85 10 f6 ff ff 	mov    %rax,-0x9f0(%rbp)
   19800:	48 8d 85 70 f0 ff ff 	lea    -0xf90(%rbp),%rax
   19807:	48 89 85 18 f6 ff ff 	mov    %rax,-0x9e8(%rbp)
   1980e:	48 8d 85 70 f0 ff ff 	lea    -0xf90(%rbp),%rax
   19815:	48 89 85 20 f6 ff ff 	mov    %rax,-0x9e0(%rbp)
   1981c:	48 8d 85 70 f0 ff ff 	lea    -0xf90(%rbp),%rax
   19823:	48 89 85 28 f6 ff ff 	mov    %rax,-0x9d8(%rbp)
   1982a:	48 8d 85 70 f0 ff ff 	lea    -0xf90(%rbp),%rax
   19831:	48 89 85 30 f6 ff ff 	mov    %rax,-0x9d0(%rbp)
   19838:	48 8d 85 70 f0 ff ff 	lea    -0xf90(%rbp),%rax
   1983f:	48 89 85 38 f6 ff ff 	mov    %rax,-0x9c8(%rbp)
   19846:	48 8d 85 70 f0 ff ff 	lea    -0xf90(%rbp),%rax
   1984d:	48 89 85 40 f6 ff ff 	mov    %rax,-0x9c0(%rbp)
   19854:	48 8d 85 70 f0 ff ff 	lea    -0xf90(%rbp),%rax
   1985b:	48 89 85 48 f6 ff ff 	mov    %rax,-0x9b8(%rbp)
   19862:	48 8d 85 70 f0 ff ff 	lea    -0xf90(%rbp),%rax
   19869:	48 89 85 50 f6 ff ff 	mov    %rax,-0x9b0(%rbp)
   19870:	48 8d 85 70 f0 ff ff 	lea    -0xf90(%rbp),%rax
   19877:	48 89 85 58 f6 ff ff 	mov    %rax,-0x9a8(%rbp)
   1987e:	48 8d 85 70 f0 ff ff 	lea    -0xf90(%rbp),%rax
   19885:	48 89 85 60 f6 ff ff 	mov    %rax,-0x9a0(%rbp)
   1988c:	48 8d 85 b0 f2 ff ff 	lea    -0xd50(%rbp),%rax
   19893:	48 89 85 20 f1 ff ff 	mov    %rax,-0xee0(%rbp)
   1989a:	c7 85 9c ef ff ff 00 	movl   $0x0,-0x1064(%rbp)
   198a1:	00 00 00 
   198a4:	48 8d 85 68 f0 ff ff 	lea    -0xf98(%rbp),%rax
   198ab:	48 89 85 78 f0 ff ff 	mov    %rax,-0xf88(%rbp)
   198b2:	48 8d 85 78 f0 ff ff 	lea    -0xf88(%rbp),%rax
   198b9:	48 89 85 28 f1 ff ff 	mov    %rax,-0xed8(%rbp)
   198c0:	48 8d 85 68 f0 ff ff 	lea    -0xf98(%rbp),%rax
   198c7:	48 89 85 80 f0 ff ff 	mov    %rax,-0xf80(%rbp)
   198ce:	48 b8 70 bb 98 fa 3d 	movabs $0x26df8f3dfa98bb70,%rax
   198d5:	8f df 26 
   198d8:	48 89 85 98 f0 ff ff 	mov    %rax,-0xf68(%rbp)
   198df:	48 8d 05 3a f5 00 00 	lea    0xf53a(%rip),%rax        # 28e20 <g_859>
   198e6:	48 89 85 30 f1 ff ff 	mov    %rax,-0xed0(%rbp)
   198ed:	c7 85 7c ef ff ff 00 	movl   $0x0,-0x1084(%rbp)
   198f4:	00 00 00 
   198f7:	eb 1a                	jmp    19913 <func_18+0x3e52>
   198f9:	8b 85 7c ef ff ff    	mov    -0x1084(%rbp),%eax
   198ff:	48 98                	cltq   
   19901:	c7 84 85 54 f2 ff ff 	movl   $0xffffffff,-0xdac(%rbp,%rax,4)
   19908:	ff ff ff ff 
   1990c:	83 85 7c ef ff ff 01 	addl   $0x1,-0x1084(%rbp)
   19913:	83 bd 7c ef ff ff 02 	cmpl   $0x2,-0x1084(%rbp)
   1991a:	7e dd                	jle    198f9 <func_18+0x3e38>
   1991c:	c7 85 7c ef ff ff 00 	movl   $0x0,-0x1084(%rbp)
   19923:	00 00 00 
   19926:	eb 25                	jmp    1994d <func_18+0x3e8c>
   19928:	8b 85 7c ef ff ff    	mov    -0x1084(%rbp),%eax
   1992e:	48 98                	cltq   
   19930:	48 8d 95 50 f5 ff ff 	lea    -0xab0(%rbp),%rdx
   19937:	48 81 c2 b8 00 00 00 	add    $0xb8,%rdx
   1993e:	48 89 94 c5 b0 f2 ff 	mov    %rdx,-0xd50(%rbp,%rax,8)
   19945:	ff 
   19946:	83 85 7c ef ff ff 01 	addl   $0x1,-0x1084(%rbp)
   1994d:	83 bd 7c ef ff ff 02 	cmpl   $0x2,-0x1084(%rbp)
   19954:	7e d2                	jle    19928 <func_18+0x3e67>
   19956:	c7 85 7c ef ff ff 00 	movl   $0x0,-0x1084(%rbp)
   1995d:	00 00 00 
   19960:	eb 1e                	jmp    19980 <func_18+0x3ebf>
   19962:	8b 85 7c ef ff ff    	mov    -0x1084(%rbp),%eax
   19968:	48 98                	cltq   
   1996a:	48 8d 95 80 f0 ff ff 	lea    -0xf80(%rbp),%rdx
   19971:	48 89 94 c5 30 f3 ff 	mov    %rdx,-0xcd0(%rbp,%rax,8)
   19978:	ff 
   19979:	83 85 7c ef ff ff 01 	addl   $0x1,-0x1084(%rbp)
   19980:	83 bd 7c ef ff ff 05 	cmpl   $0x5,-0x1084(%rbp)
   19987:	7e d9                	jle    19962 <func_18+0x3ea1>
   19989:	66 83 bd 06 ef ff ff 	cmpw   $0x0,-0x10fa(%rbp)
   19990:	00 
   19991:	0f 85 97 0e 00 00    	jne    1a82e <func_18+0x4d6d>
   19997:	48 8b 85 10 f1 ff ff 	mov    -0xef0(%rbp),%rax
   1999e:	66 c7 00 09 00       	movw   $0x9,(%rax)
   199a3:	48 8b 05 e6 fb 00 00 	mov    0xfbe6(%rip),%rax        # 29590 <g_1556>
   199aa:	0f b7 85 68 f2 ff ff 	movzwl -0xd98(%rbp),%eax
   199b1:	48 0f bf c0          	movswq %ax,%rax
   199b5:	48 be 05 5b fc 61 ec 	movabs $0xaa23e3ec61fc5b05,%rsi
   199bc:	e3 23 aa 
   199bf:	48 89 c7             	mov    %rax,%rdi
   199c2:	e8 ed 3f ff ff       	callq  d9b4 <safe_mod_func_int64_t_s_s>
   199c7:	89 85 70 f2 ff ff    	mov    %eax,-0xd90(%rbp)
   199cd:	8b 85 70 f2 ff ff    	mov    -0xd90(%rbp),%eax
   199d3:	48 98                	cltq   
   199d5:	48 89 c6             	mov    %rax,%rsi
   199d8:	48 c7 c7 fe ff ff ff 	mov    $0xfffffffffffffffe,%rdi
   199df:	e8 67 46 ff ff       	callq  e04b <safe_sub_func_uint64_t_u_u>
   199e4:	be 03 00 00 00       	mov    $0x3,%esi
   199e9:	bf 00 00 00 00       	mov    $0x0,%edi
   199ee:	e8 cb 43 ff ff       	callq  ddbe <safe_lshift_func_uint16_t_u_s>
   199f3:	48 8d 85 e4 ee ff ff 	lea    -0x111c(%rbp),%rax
   199fa:	48 39 85 00 f1 ff ff 	cmp    %rax,-0xf00(%rbp)
   19a01:	8b 85 54 f2 ff ff    	mov    -0xdac(%rbp),%eax
   19a07:	98                   	cwtl   
   19a08:	be 04 00 00 00       	mov    $0x4,%esi
   19a0d:	89 c7                	mov    %eax,%edi
   19a0f:	e8 4f 3b ff ff       	callq  d563 <safe_rshift_func_int16_t_s_u>
   19a14:	66 85 c0             	test   %ax,%ax
   19a17:	74 12                	je     19a2b <func_18+0x3f6a>
   19a19:	48 8b 05 c8 f5 00 00 	mov    0xf5c8(%rip),%rax        # 28fe8 <g_1077>
   19a20:	48 8b 00             	mov    (%rax),%rax
   19a23:	0f b7 00             	movzwl (%rax),%eax
   19a26:	e9 19 0e 00 00       	jmpq   1a844 <func_18+0x4d83>
   19a2b:	c7 85 a0 ef ff ff ff 	movl   $0xffffffff,-0x1060(%rbp)
   19a32:	ff ff ff 
   19a35:	48 c7 05 e0 b7 00 00 	movq   $0x0,0xb7e0(%rip)        # 25220 <g_265>
   19a3c:	00 00 00 00 
   19a40:	90                   	nop
   19a41:	48 8b 05 d8 b7 00 00 	mov    0xb7d8(%rip),%rax        # 25220 <g_265>
   19a48:	48 85 c0             	test   %rax,%rax
   19a4b:	75 0f                	jne    19a5c <func_18+0x3f9b>
   19a4d:	48 8b 05 8c f5 00 00 	mov    0xf58c(%rip),%rax        # 28fe0 <g_1078>
   19a54:	0f b7 00             	movzwl (%rax),%eax
   19a57:	e9 e8 0d 00 00       	jmpq   1a844 <func_18+0x4d83>
   19a5c:	48 8b 85 e8 ee ff ff 	mov    -0x1118(%rbp),%rax
   19a63:	c7 00 49 1e 1a a6    	movl   $0xa61a1e49,(%rax)
   19a69:	66 c7 05 66 b8 00 00 	movw   $0x8,0xb866(%rip)        # 252d8 <g_1688>
   19a70:	08 00 
   19a72:	90                   	nop
   19a73:	0f b7 05 5e b8 00 00 	movzwl 0xb85e(%rip),%eax        # 252d8 <g_1688>
   19a7a:	66 85 c0             	test   %ax,%ax
   19a7d:	0f 88 9b 01 00 00    	js     19c1e <func_18+0x415d>
   19a83:	66 c7 85 70 f6 ff ff 	movw   $0x338d,-0x990(%rbp)
   19a8a:	8d 33 
   19a8c:	66 c7 85 72 f6 ff ff 	movw   $0x338d,-0x98e(%rbp)
   19a93:	8d 33 
   19a95:	66 c7 85 74 f6 ff ff 	movw   $0x338d,-0x98c(%rbp)
   19a9c:	8d 33 
   19a9e:	66 c7 85 76 f6 ff ff 	movw   $0x338d,-0x98a(%rbp)
   19aa5:	8d 33 
   19aa7:	66 c7 85 78 f6 ff ff 	movw   $0x338d,-0x988(%rbp)
   19aae:	8d 33 
   19ab0:	66 c7 85 7a f6 ff ff 	movw   $0x338d,-0x986(%rbp)
   19ab7:	8d 33 
   19ab9:	66 c7 85 7c f6 ff ff 	movw   $0x338d,-0x984(%rbp)
   19ac0:	8d 33 
   19ac2:	66 c7 85 7e f6 ff ff 	movw   $0x338d,-0x982(%rbp)
   19ac9:	8d 33 
   19acb:	8b 9d 9c ef ff ff    	mov    -0x1064(%rbp),%ebx
   19ad1:	0f b7 85 70 f6 ff ff 	movzwl -0x990(%rbp),%eax
   19ad8:	0f bf d0             	movswl %ax,%edx
   19adb:	48 8b 05 3e f3 00 00 	mov    0xf33e(%rip),%rax        # 28e20 <g_859>
   19ae2:	8b 00                	mov    (%rax),%eax
   19ae4:	09 d0                	or     %edx,%eax
   19ae6:	41 89 c4             	mov    %eax,%r12d
   19ae9:	be f7 00 00 00       	mov    $0xf7,%esi
   19aee:	bf 01 00 00 00       	mov    $0x1,%edi
   19af3:	e8 e3 40 ff ff       	callq  dbdb <safe_div_func_uint8_t_u_u>
   19af8:	0f be c0             	movsbl %al,%eax
   19afb:	be 04 00 00 00       	mov    $0x4,%esi
   19b00:	89 c7                	mov    %eax,%edi
   19b02:	e8 65 38 ff ff       	callq  d36c <safe_rshift_func_int8_t_s_u>
   19b07:	48 0f be d0          	movsbq %al,%rdx
   19b0b:	48 8b 05 d6 ef 00 00 	mov    0xefd6(%rip),%rax        # 28ae8 <g_429>
   19b12:	48 8b 00             	mov    (%rax),%rax
   19b15:	48 09 d0             	or     %rdx,%rax
   19b18:	49 39 c4             	cmp    %rax,%r12
   19b1b:	0f 9e c0             	setle  %al
   19b1e:	0f b6 d0             	movzbl %al,%edx
   19b21:	48 8b 05 68 fa 00 00 	mov    0xfa68(%rip),%rax        # 29590 <g_1556>
   19b28:	48 8b 00             	mov    (%rax),%rax
   19b2b:	0f b6 00             	movzbl (%rax),%eax
   19b2e:	0f be c0             	movsbl %al,%eax
   19b31:	31 c2                	xor    %eax,%edx
   19b33:	0f b7 85 e4 ee ff ff 	movzwl -0x111c(%rbp),%eax
   19b3a:	0f b7 c0             	movzwl %ax,%eax
   19b3d:	39 c2                	cmp    %eax,%edx
   19b3f:	0f 9d c0             	setge  %al
   19b42:	0f b6 d0             	movzbl %al,%edx
   19b45:	0f b7 05 5c b7 00 00 	movzwl 0xb75c(%rip),%eax        # 252a8 <g_1438+0x4>
   19b4c:	98                   	cwtl   
   19b4d:	39 c2                	cmp    %eax,%edx
   19b4f:	0f 9c c0             	setl   %al
   19b52:	0f b6 c0             	movzbl %al,%eax
   19b55:	89 de                	mov    %ebx,%esi
   19b57:	89 c7                	mov    %eax,%edi
   19b59:	e8 a7 3a ff ff       	callq  d605 <safe_sub_func_int32_t_s_s>
   19b5e:	48 63 d0             	movslq %eax,%rdx
   19b61:	0f b7 85 e4 ee ff ff 	movzwl -0x111c(%rbp),%eax
   19b68:	0f b7 c8             	movzwl %ax,%ecx
   19b6b:	48 8b 85 c8 f0 ff ff 	mov    -0xf38(%rbp),%rax
   19b72:	48 89 08             	mov    %rcx,(%rax)
   19b75:	48 8b 85 c8 f0 ff ff 	mov    -0xf38(%rbp),%rax
   19b7c:	48 8b 00             	mov    (%rax),%rax
   19b7f:	48 89 d6             	mov    %rdx,%rsi
   19b82:	48 89 c7             	mov    %rax,%rdi
   19b85:	e8 a4 44 ff ff       	callq  e02e <safe_add_func_uint64_t_u_u>
   19b8a:	48 8b 95 e8 ee ff ff 	mov    -0x1118(%rbp),%rdx
   19b91:	8b 12                	mov    (%rdx),%edx
   19b93:	48 63 d2             	movslq %edx,%rdx
   19b96:	48 39 d0             	cmp    %rdx,%rax
   19b99:	0f 95 c0             	setne  %al
   19b9c:	89 c2                	mov    %eax,%edx
   19b9e:	8b 85 8c ef ff ff    	mov    -0x1074(%rbp),%eax
   19ba4:	31 d0                	xor    %edx,%eax
   19ba6:	0f be d0             	movsbl %al,%edx
   19ba9:	48 8b 85 e8 f0 ff ff 	mov    -0xf18(%rbp),%rax
   19bb0:	48 89 85 18 f1 ff ff 	mov    %rax,-0xee8(%rbp)
   19bb7:	48 8b 85 18 f1 ff ff 	mov    -0xee8(%rbp),%rax
   19bbe:	48 3b 85 20 f1 ff ff 	cmp    -0xee0(%rbp),%rax
   19bc5:	0f 95 c0             	setne  %al
   19bc8:	0f b6 c0             	movzbl %al,%eax
   19bcb:	89 d6                	mov    %edx,%esi
   19bcd:	89 c7                	mov    %eax,%edi
   19bcf:	e8 1e 36 ff ff       	callq  d1f2 <safe_sub_func_int8_t_s_s>
   19bd4:	48 8b 85 e8 ee ff ff 	mov    -0x1118(%rbp),%rax
   19bdb:	8b 00                	mov    (%rax),%eax
   19bdd:	31 85 a0 ef ff ff    	xor    %eax,-0x1060(%rbp)
   19be3:	8b 95 a0 ef ff ff    	mov    -0x1060(%rbp),%edx
   19be9:	8b 85 6c ef ff ff    	mov    -0x1094(%rbp),%eax
   19bef:	09 d0                	or     %edx,%eax
   19bf1:	89 85 6c ef ff ff    	mov    %eax,-0x1094(%rbp)
   19bf7:	48 8b 95 e8 ee ff ff 	mov    -0x1118(%rbp),%rdx
   19bfe:	48 8b 05 c3 e6 00 00 	mov    0xe6c3(%rip),%rax        # 282c8 <g_60>
   19c05:	48 8b 00             	mov    (%rax),%rax
   19c08:	8b 12                	mov    (%rdx),%edx
   19c0a:	89 10                	mov    %edx,(%rax)
   19c0c:	48 8b 05 d5 f3 00 00 	mov    0xf3d5(%rip),%rax        # 28fe8 <g_1077>
   19c13:	48 8b 00             	mov    (%rax),%rax
   19c16:	0f b7 00             	movzwl (%rax),%eax
   19c19:	e9 26 0c 00 00       	jmpq   1a844 <func_18+0x4d83>
   19c1e:	0f b7 85 e4 ee ff ff 	movzwl -0x111c(%rbp),%eax
   19c25:	0f b7 d8             	movzwl %ax,%ebx
   19c28:	0f b6 05 6a b5 00 00 	movzbl 0xb56a(%rip),%eax        # 25199 <g_93>
   19c2f:	44 0f b6 e0          	movzbl %al,%r12d
   19c33:	0f b7 85 e4 ee ff ff 	movzwl -0x111c(%rbp),%eax
   19c3a:	0f b7 c0             	movzwl %ax,%eax
   19c3d:	89 c6                	mov    %eax,%esi
   19c3f:	bf 5c 53 00 00       	mov    $0x535c,%edi
   19c44:	e8 1a 39 ff ff       	callq  d563 <safe_rshift_func_int16_t_s_u>
   19c49:	89 c2                	mov    %eax,%edx
   19c4b:	48 8b 85 40 ff ff ff 	mov    -0xc0(%rbp),%rax
   19c52:	48 85 c0             	test   %rax,%rax
   19c55:	0f 94 c1             	sete   %cl
   19c58:	48 8b 85 a8 f4 ff ff 	mov    -0xb58(%rbp),%rax
   19c5f:	48 85 c0             	test   %rax,%rax
   19c62:	0f 94 c0             	sete   %al
   19c65:	21 c1                	and    %eax,%ecx
   19c67:	48 8b 85 b0 f0 ff ff 	mov    -0xf50(%rbp),%rax
   19c6e:	48 8b 00             	mov    (%rax),%rax
   19c71:	88 08                	mov    %cl,(%rax)
   19c73:	0f b6 00             	movzbl (%rax),%eax
   19c76:	66 98                	cbtw   
   19c78:	66 39 c2             	cmp    %ax,%dx
   19c7b:	7c 07                	jl     19c84 <func_18+0x41c3>
   19c7d:	ba 01 00 00 00       	mov    $0x1,%edx
   19c82:	eb 05                	jmp    19c89 <func_18+0x41c8>
   19c84:	ba 00 00 00 00       	mov    $0x0,%edx
   19c89:	48 8b 05 60 ee 00 00 	mov    0xee60(%rip),%rax        # 28af0 <g_449>
   19c90:	8b 00                	mov    (%rax),%eax
   19c92:	21 d0                	and    %edx,%eax
   19c94:	89 c0                	mov    %eax,%eax
   19c96:	4c 89 e6             	mov    %r12,%rsi
   19c99:	48 89 c7             	mov    %rax,%rdi
   19c9c:	e8 aa 43 ff ff       	callq  e04b <safe_sub_func_uint64_t_u_u>
   19ca1:	48 8b 05 40 f3 00 00 	mov    0xf340(%rip),%rax        # 28fe8 <g_1077>
   19ca8:	48 8b 00             	mov    (%rax),%rax
   19cab:	0f b7 00             	movzwl (%rax),%eax
   19cae:	98                   	cwtl   
   19caf:	89 de                	mov    %ebx,%esi
   19cb1:	89 c7                	mov    %eax,%edi
   19cb3:	e8 ab 38 ff ff       	callq  d563 <safe_rshift_func_int16_t_s_u>
   19cb8:	98                   	cwtl   
   19cb9:	33 85 a0 ef ff ff    	xor    -0x1060(%rbp),%eax
   19cbf:	89 c2                	mov    %eax,%edx
   19cc1:	48 8b 05 38 e0 00 00 	mov    0xe038(%rip),%rax        # 27d00 <g_16>
   19cc8:	8b 00                	mov    (%rax),%eax
   19cca:	31 c2                	xor    %eax,%edx
   19ccc:	48 8b 05 2d e0 00 00 	mov    0xe02d(%rip),%rax        # 27d00 <g_16>
   19cd3:	89 10                	mov    %edx,(%rax)
   19cd5:	48 8b 85 28 f1 ff ff 	mov    -0xed8(%rbp),%rax
   19cdc:	48 c7 00 00 00 00 00 	movq   $0x0,(%rax)
   19ce3:	48 8b 85 28 f1 ff ff 	mov    -0xed8(%rbp),%rax
   19cea:	48 8b 00             	mov    (%rax),%rax
   19ced:	0f b7 15 b4 b4 00 00 	movzwl 0xb4b4(%rip),%edx        # 251a8 <g_126>
   19cf4:	89 d1                	mov    %edx,%ecx
   19cf6:	48 8b 95 b0 f0 ff ff 	mov    -0xf50(%rbp),%rdx
   19cfd:	48 8b 12             	mov    (%rdx),%rdx
   19d00:	f7 d1                	not    %ecx
   19d02:	88 0a                	mov    %cl,(%rdx)
   19d04:	48 c7 85 f0 f0 ff ff 	movq   $0x0,-0xf10(%rbp)
   19d0b:	00 00 00 00 
   19d0f:	48 39 85 f0 f0 ff ff 	cmp    %rax,-0xf10(%rbp)
   19d16:	0f 95 c0             	setne  %al
   19d19:	0f b6 d0             	movzbl %al,%edx
   19d1c:	8b 85 90 ef ff ff    	mov    -0x1070(%rbp),%eax
   19d22:	0f b7 c0             	movzwl %ax,%eax
   19d25:	89 d6                	mov    %edx,%esi
   19d27:	89 c7                	mov    %eax,%edi
   19d29:	e8 d1 3f ff ff       	callq  dcff <safe_add_func_uint16_t_u_u>
   19d2e:	0f b7 d0             	movzwl %ax,%edx
   19d31:	48 8b 85 e8 ee ff ff 	mov    -0x1118(%rbp),%rax
   19d38:	8b 00                	mov    (%rax),%eax
   19d3a:	39 c2                	cmp    %eax,%edx
   19d3c:	0f 9c c0             	setl   %al
   19d3f:	0f b6 d8             	movzbl %al,%ebx
   19d42:	0f b7 85 e4 ee ff ff 	movzwl -0x111c(%rbp),%eax
   19d49:	0f b6 c0             	movzbl %al,%eax
   19d4c:	89 c7                	mov    %eax,%edi
   19d4e:	e8 f2 3d ff ff       	callq  db45 <safe_unary_minus_func_uint8_t_u>
   19d53:	0f b6 d0             	movzbl %al,%edx
   19d56:	0f b7 85 e4 ee ff ff 	movzwl -0x111c(%rbp),%eax
   19d5d:	66 39 c2             	cmp    %ax,%dx
   19d60:	0f 95 c0             	setne  %al
   19d63:	0f b6 c0             	movzbl %al,%eax
   19d66:	89 de                	mov    %ebx,%esi
   19d68:	89 c7                	mov    %eax,%edi
   19d6a:	e8 f4 37 ff ff       	callq  d563 <safe_rshift_func_int16_t_s_u>
   19d6f:	98                   	cwtl   
   19d70:	09 85 5c ef ff ff    	or     %eax,-0x10a4(%rbp)
   19d76:	c7 85 10 ef ff ff 01 	movl   $0x1,-0x10f0(%rbp)
   19d7d:	00 00 00 
   19d80:	e9 fd 05 00 00       	jmpq   1a382 <func_18+0x48c1>
   19d85:	c6 85 58 f0 ff ff 01 	movb   $0x1,-0xfa8(%rbp)
   19d8c:	c7 85 d0 f2 ff ff 02 	movl   $0x2,-0xd30(%rbp)
   19d93:	00 00 00 
   19d96:	c7 85 d4 f2 ff ff 02 	movl   $0x2,-0xd2c(%rbp)
   19d9d:	00 00 00 
   19da0:	c7 85 d8 f2 ff ff 02 	movl   $0x2,-0xd28(%rbp)
   19da7:	00 00 00 
   19daa:	c7 85 dc f2 ff ff 02 	movl   $0x2,-0xd24(%rbp)
   19db1:	00 00 00 
   19db4:	c7 85 e0 f2 ff ff 02 	movl   $0x2,-0xd20(%rbp)
   19dbb:	00 00 00 
   19dbe:	c7 85 e4 f2 ff ff 02 	movl   $0x2,-0xd1c(%rbp)
   19dc5:	00 00 00 
   19dc8:	c7 85 e8 f2 ff ff 02 	movl   $0x2,-0xd18(%rbp)
   19dcf:	00 00 00 
   19dd2:	c7 85 ec f2 ff ff 02 	movl   $0x2,-0xd14(%rbp)
   19dd9:	00 00 00 
   19ddc:	c7 85 a4 ef ff ff 00 	movl   $0x0,-0x105c(%rbp)
   19de3:	00 00 00 
   19de6:	c6 85 fe ee ff ff 2d 	movb   $0x2d,-0x1102(%rbp)
   19ded:	48 8d 05 24 ed 00 00 	lea    0xed24(%rip),%rax        # 28b18 <g_488>
   19df4:	48 89 85 38 f1 ff ff 	mov    %rax,-0xec8(%rbp)
   19dfb:	48 83 bd e8 f0 ff ff 	cmpq   $0x0,-0xf18(%rbp)
   19e02:	00 
   19e03:	0f 94 c2             	sete   %dl
   19e06:	48 8b 05 bb e4 00 00 	mov    0xe4bb(%rip),%rax        # 282c8 <g_60>
   19e0d:	48 8b 00             	mov    (%rax),%rax
   19e10:	0f b6 d2             	movzbl %dl,%edx
   19e13:	89 10                	mov    %edx,(%rax)
   19e15:	8b 00                	mov    (%rax),%eax
   19e17:	21 85 6c ef ff ff    	and    %eax,-0x1094(%rbp)
   19e1d:	66 c7 05 f6 b3 00 00 	movw   $0x0,0xb3f6(%rip)        # 2521c <g_263>
   19e24:	00 00 
   19e26:	e9 db 00 00 00       	jmpq   19f06 <func_18+0x4445>
   19e2b:	0f b7 05 ea b3 00 00 	movzwl 0xb3ea(%rip),%eax        # 2521c <g_263>
   19e32:	98                   	cwtl   
   19e33:	8d 50 01             	lea    0x1(%rax),%edx
   19e36:	0f b7 05 df b3 00 00 	movzwl 0xb3df(%rip),%eax        # 2521c <g_263>
   19e3d:	98                   	cwtl   
   19e3e:	8d 48 04             	lea    0x4(%rax),%ecx
   19e41:	0f b7 05 d4 b3 00 00 	movzwl 0xb3d4(%rip),%eax        # 2521c <g_263>
   19e48:	0f bf f8             	movswl %ax,%edi
   19e4b:	0f b7 05 ca b3 00 00 	movzwl 0xb3ca(%rip),%eax        # 2521c <g_263>
   19e52:	98                   	cwtl   
   19e53:	8d 70 05             	lea    0x5(%rax),%esi
   19e56:	48 63 c9             	movslq %ecx,%rcx
   19e59:	48 63 d2             	movslq %edx,%rdx
   19e5c:	48 89 d0             	mov    %rdx,%rax
   19e5f:	48 c1 e0 02          	shl    $0x2,%rax
   19e63:	48 01 d0             	add    %rdx,%rax
   19e66:	48 01 c0             	add    %rax,%rax
   19e69:	48 01 c8             	add    %rcx,%rax
   19e6c:	48 8d 14 85 00 00 00 	lea    0x0(,%rax,4),%rdx
   19e73:	00 
   19e74:	48 8d 05 45 b3 00 00 	lea    0xb345(%rip),%rax        # 251c0 <g_133>
   19e7b:	8b 0c 02             	mov    (%rdx,%rax,1),%ecx
   19e7e:	48 63 f6             	movslq %esi,%rsi
   19e81:	48 63 d7             	movslq %edi,%rdx
   19e84:	48 89 d0             	mov    %rdx,%rax
   19e87:	48 c1 e0 02          	shl    $0x2,%rax
   19e8b:	48 01 d0             	add    %rdx,%rax
   19e8e:	48 01 c0             	add    %rax,%rax
   19e91:	48 01 f0             	add    %rsi,%rax
   19e94:	48 8d 14 85 00 00 00 	lea    0x0(,%rax,4),%rdx
   19e9b:	00 
   19e9c:	48 8d 05 1d b3 00 00 	lea    0xb31d(%rip),%rax        # 251c0 <g_133>
   19ea3:	89 0c 02             	mov    %ecx,(%rdx,%rax,1)
   19ea6:	0f b7 05 6f b3 00 00 	movzwl 0xb36f(%rip),%eax        # 2521c <g_263>
   19ead:	98                   	cwtl   
   19eae:	8d 50 01             	lea    0x1(%rax),%edx
   19eb1:	0f b6 85 fc ee ff ff 	movzbl -0x1104(%rbp),%eax
   19eb8:	48 63 c8             	movslq %eax,%rcx
   19ebb:	48 63 d2             	movslq %edx,%rdx
   19ebe:	48 89 d0             	mov    %rdx,%rax
   19ec1:	48 c1 e0 02          	shl    $0x2,%rax
   19ec5:	48 01 d0             	add    %rdx,%rax
   19ec8:	48 01 c0             	add    %rax,%rax
   19ecb:	48 01 c8             	add    %rcx,%rax
   19ece:	48 8d 14 85 00 00 00 	lea    0x0(,%rax,4),%rdx
   19ed5:	00 
   19ed6:	48 8d 05 e3 b2 00 00 	lea    0xb2e3(%rip),%rax        # 251c0 <g_133>
   19edd:	8b 04 02             	mov    (%rdx,%rax,1),%eax
   19ee0:	85 c0                	test   %eax,%eax
   19ee2:	75 34                	jne    19f18 <func_18+0x4457>
   19ee4:	0f b7 05 01 b4 00 00 	movzwl 0xb401(%rip),%eax        # 252ec <g_1794+0xc>
   19eeb:	83 e8 01             	sub    $0x1,%eax
   19eee:	66 89 05 f7 b3 00 00 	mov    %ax,0xb3f7(%rip)        # 252ec <g_1794+0xc>
   19ef5:	0f b7 05 20 b3 00 00 	movzwl 0xb320(%rip),%eax        # 2521c <g_263>
   19efc:	83 c0 01             	add    $0x1,%eax
   19eff:	66 89 05 16 b3 00 00 	mov    %ax,0xb316(%rip)        # 2521c <g_263>
   19f06:	0f b7 05 0f b3 00 00 	movzwl 0xb30f(%rip),%eax        # 2521c <g_263>
   19f0d:	66 85 c0             	test   %ax,%ax
   19f10:	0f 8e 15 ff ff ff    	jle    19e2b <func_18+0x436a>
   19f16:	eb 01                	jmp    19f19 <func_18+0x4458>
   19f18:	90                   	nop
   19f19:	0f b6 9d fe ee ff ff 	movzbl -0x1102(%rbp),%ebx
   19f20:	48 8b 85 00 f1 ff ff 	mov    -0xf00(%rbp),%rax
   19f27:	48 3b 85 10 f1 ff ff 	cmp    -0xef0(%rbp),%rax
   19f2e:	0f 95 c0             	setne  %al
   19f31:	0f b6 d0             	movzbl %al,%edx
   19f34:	0f b7 85 e4 ee ff ff 	movzwl -0x111c(%rbp),%eax
   19f3b:	0f b7 c0             	movzwl %ax,%eax
   19f3e:	39 c2                	cmp    %eax,%edx
   19f40:	0f 9c c0             	setl   %al
   19f43:	44 0f b6 f8          	movzbl %al,%r15d
   19f47:	0f b7 85 e4 ee ff ff 	movzwl -0x111c(%rbp),%eax
   19f4e:	44 0f b7 e0          	movzwl %ax,%r12d
   19f52:	0f b7 85 e4 ee ff ff 	movzwl -0x111c(%rbp),%eax
   19f59:	44 0f b6 e8          	movzbl %al,%r13d
   19f5d:	48 8b 05 3c f6 00 00 	mov    0xf63c(%rip),%rax        # 295a0 <g_1805>
   19f64:	48 39 85 d8 f0 ff ff 	cmp    %rax,-0xf28(%rbp)
   19f6b:	74 72                	je     19fdf <func_18+0x451e>
   19f6d:	0f b7 85 68 f2 ff ff 	movzwl -0xd98(%rbp),%eax
   19f74:	44 0f be f0          	movsbl %al,%r14d
   19f78:	48 8b 05 11 f6 00 00 	mov    0xf611(%rip),%rax        # 29590 <g_1556>
   19f7f:	48 8b 00             	mov    (%rax),%rax
   19f82:	0f b6 00             	movzbl (%rax),%eax
   19f85:	0f be d0             	movsbl %al,%edx
   19f88:	48 8b 85 e8 ee ff ff 	mov    -0x1118(%rbp),%rax
   19f8f:	8b 00                	mov    (%rax),%eax
   19f91:	89 c1                	mov    %eax,%ecx
   19f93:	0f b7 85 e4 ee ff ff 	movzwl -0x111c(%rbp),%eax
   19f9a:	21 c8                	and    %ecx,%eax
   19f9c:	0f be c0             	movsbl %al,%eax
   19f9f:	89 d6                	mov    %edx,%esi
   19fa1:	89 c7                	mov    %eax,%edi
   19fa3:	e8 89 32 ff ff       	callq  d231 <safe_mod_func_int8_t_s_s>
   19fa8:	0f be c0             	movsbl %al,%eax
   19fab:	44 89 f6             	mov    %r14d,%esi
   19fae:	89 c7                	mov    %eax,%edi
   19fb0:	e8 5d 32 ff ff       	callq  d212 <safe_mul_func_int8_t_s_s>
   19fb5:	48 8b 05 44 eb 00 00 	mov    0xeb44(%rip),%rax        # 28b00 <g_447>
   19fbc:	48 8b 00             	mov    (%rax),%rax
   19fbf:	48 8b 00             	mov    (%rax),%rax
   19fc2:	8b 00                	mov    (%rax),%eax
   19fc4:	48 8b 05 55 ee 00 00 	mov    0xee55(%rip),%rax        # 28e20 <g_859>
   19fcb:	c7 00 ff ff ff ff    	movl   $0xffffffff,(%rax)
   19fd1:	8b 10                	mov    (%rax),%edx
   19fd3:	0f b7 85 6a f2 ff ff 	movzwl -0xd96(%rbp),%eax
   19fda:	98                   	cwtl   
   19fdb:	39 c2                	cmp    %eax,%edx
   19fdd:	76 07                	jbe    19fe6 <func_18+0x4525>
   19fdf:	b8 01 00 00 00       	mov    $0x1,%eax
   19fe4:	eb 05                	jmp    19feb <func_18+0x452a>
   19fe6:	b8 00 00 00 00       	mov    $0x0,%eax
   19feb:	0f b6 c0             	movzbl %al,%eax
   19fee:	44 89 ee             	mov    %r13d,%esi
   19ff1:	89 c7                	mov    %eax,%edi
   19ff3:	e8 80 3b ff ff       	callq  db78 <safe_sub_func_uint8_t_u_u>
   19ff8:	0f b6 c0             	movzbl %al,%eax
   19ffb:	8b 95 54 f2 ff ff    	mov    -0xdac(%rbp),%edx
   1a001:	21 d0                	and    %edx,%eax
   1a003:	0f b7 c0             	movzwl %ax,%eax
   1a006:	44 89 e6             	mov    %r12d,%esi
   1a009:	89 c7                	mov    %eax,%edi
   1a00b:	e8 0f 3d ff ff       	callq  dd1f <safe_sub_func_uint16_t_u_u>
   1a010:	0f b7 d0             	movzwl %ax,%edx
   1a013:	8b 05 c3 b2 00 00    	mov    0xb2c3(%rip),%eax        # 252dc <g_1691>
   1a019:	39 c2                	cmp    %eax,%edx
   1a01b:	72 07                	jb     1a024 <func_18+0x4563>
   1a01d:	b8 01 00 00 00       	mov    $0x1,%eax
   1a022:	eb 05                	jmp    1a029 <func_18+0x4568>
   1a024:	b8 00 00 00 00       	mov    $0x0,%eax
   1a029:	3b 85 a4 ef ff ff    	cmp    -0x105c(%rbp),%eax
   1a02f:	0f 9d c0             	setge  %al
   1a032:	0f b6 c0             	movzbl %al,%eax
   1a035:	41 39 c7             	cmp    %eax,%r15d
   1a038:	0f 9c c0             	setl   %al
   1a03b:	0f b6 c0             	movzbl %al,%eax
   1a03e:	89 de                	mov    %ebx,%esi
   1a040:	89 c7                	mov    %eax,%edi
   1a042:	e8 d8 3c ff ff       	callq  dd1f <safe_sub_func_uint16_t_u_u>
   1a047:	66 85 c0             	test   %ax,%ax
   1a04a:	0f 84 dd 00 00 00    	je     1a12d <func_18+0x466c>
   1a050:	c7 85 80 ef ff ff 00 	movl   $0x0,-0x1080(%rbp)
   1a057:	00 00 00 
   1a05a:	eb 1b                	jmp    1a077 <func_18+0x45b6>
   1a05c:	8b 85 80 ef ff ff    	mov    -0x1080(%rbp),%eax
   1a062:	48 98                	cltq   
   1a064:	48 c7 84 c5 70 f6 ff 	movq   $0x0,-0x990(%rbp,%rax,8)
   1a06b:	ff 00 00 00 00 
   1a070:	83 85 80 ef ff ff 01 	addl   $0x1,-0x1080(%rbp)
   1a077:	83 bd 80 ef ff ff 00 	cmpl   $0x0,-0x1080(%rbp)
   1a07e:	7e dc                	jle    1a05c <func_18+0x459b>
   1a080:	48 8b 85 e8 ee ff ff 	mov    -0x1118(%rbp),%rax
   1a087:	8b 00                	mov    (%rax),%eax
   1a089:	85 c0                	test   %eax,%eax
   1a08b:	0f 85 01 03 00 00    	jne    1a392 <func_18+0x48d1>
   1a091:	48 8b 05 00 f5 00 00 	mov    0xf500(%rip),%rax        # 29598 <g_1610>
   1a098:	0f b7 85 e4 ee ff ff 	movzwl -0x111c(%rbp),%eax
   1a09f:	98                   	cwtl   
   1a0a0:	be 01 00 00 00       	mov    $0x1,%esi
   1a0a5:	89 c7                	mov    %eax,%edi
   1a0a7:	e8 27 33 ff ff       	callq  d3d3 <safe_sub_func_int16_t_s_s>
   1a0ac:	0f b7 85 e4 ee ff ff 	movzwl -0x111c(%rbp),%eax
   1a0b3:	0f b6 d0             	movzbl %al,%edx
   1a0b6:	48 8d 05 03 e2 00 00 	lea    0xe203(%rip),%rax        # 282c0 <g_61>
   1a0bd:	48 89 85 08 f1 ff ff 	mov    %rax,-0xef8(%rbp)
   1a0c4:	48 8d 85 e8 ee ff ff 	lea    -0x1118(%rbp),%rax
   1a0cb:	48 39 85 08 f1 ff ff 	cmp    %rax,-0xef8(%rbp)
   1a0d2:	0f 94 c0             	sete   %al
   1a0d5:	0f b6 c0             	movzbl %al,%eax
   1a0d8:	89 d6                	mov    %edx,%esi
   1a0da:	89 c7                	mov    %eax,%edi
   1a0dc:	e8 97 3a ff ff       	callq  db78 <safe_sub_func_uint8_t_u_u>
   1a0e1:	0f b6 c0             	movzbl %al,%eax
   1a0e4:	66 89 05 31 b1 00 00 	mov    %ax,0xb131(%rip)        # 2521c <g_263>
   1a0eb:	0f b7 05 2a b1 00 00 	movzwl 0xb12a(%rip),%eax        # 2521c <g_263>
   1a0f2:	48 0f bf c0          	movswq %ax,%rax
   1a0f6:	48 39 85 f8 f0 ff ff 	cmp    %rax,-0xf08(%rbp)
   1a0fd:	0f 94 c0             	sete   %al
   1a100:	0f b6 c0             	movzbl %al,%eax
   1a103:	be 07 00 00 00       	mov    $0x7,%esi
   1a108:	89 c7                	mov    %eax,%edi
   1a10a:	e8 6b 3d ff ff       	callq  de7a <safe_rshift_func_uint16_t_u_u>
   1a10f:	b8 00 00 00 00       	mov    $0x0,%eax
   1a114:	48 98                	cltq   
   1a116:	48 31 85 98 f0 ff ff 	xor    %rax,-0xf68(%rbp)
   1a11d:	48 8b 85 e8 ee ff ff 	mov    -0x1118(%rbp),%rax
   1a124:	48 89 85 70 f6 ff ff 	mov    %rax,-0x990(%rbp)
   1a12b:	eb 53                	jmp    1a180 <func_18+0x46bf>
   1a12d:	c7 85 84 ef ff ff 00 	movl   $0x0,-0x107c(%rbp)
   1a134:	00 00 00 
   1a137:	eb 22                	jmp    1a15b <func_18+0x469a>
   1a139:	8b 85 84 ef ff ff    	mov    -0x107c(%rbp),%eax
   1a13f:	48 98                	cltq   
   1a141:	48 8d 95 54 f2 ff ff 	lea    -0xdac(%rbp),%rdx
   1a148:	48 83 c2 04          	add    $0x4,%rdx
   1a14c:	48 89 94 c5 70 f6 ff 	mov    %rdx,-0x990(%rbp,%rax,8)
   1a153:	ff 
   1a154:	83 85 84 ef ff ff 01 	addl   $0x1,-0x107c(%rbp)
   1a15b:	83 bd 84 ef ff ff 06 	cmpl   $0x6,-0x107c(%rbp)
   1a162:	7e d5                	jle    1a139 <func_18+0x4678>
   1a164:	8b 85 e8 f2 ff ff    	mov    -0xd18(%rbp),%eax
   1a16a:	85 c0                	test   %eax,%eax
   1a16c:	0f 85 23 02 00 00    	jne    1a395 <func_18+0x48d4>
   1a172:	48 8b 85 e8 ee ff ff 	mov    -0x1118(%rbp),%rax
   1a179:	48 89 85 80 f6 ff ff 	mov    %rax,-0x980(%rbp)
   1a180:	66 c7 05 11 b1 00 00 	movw   $0x0,0xb111(%rip)        # 2529a <g_1086>
   1a187:	00 00 
   1a189:	e9 d4 01 00 00       	jmpq   1a362 <func_18+0x48a1>
   1a18e:	c7 85 a8 ef ff ff 8a 	movl   $0x42e5c38a,-0x1058(%rbp)
   1a195:	c3 e5 42 
   1a198:	48 8b 05 61 db 00 00 	mov    0xdb61(%rip),%rax        # 27d00 <g_16>
   1a19f:	8b 00                	mov    (%rax),%eax
   1a1a1:	89 85 54 f2 ff ff    	mov    %eax,-0xdac(%rbp)
   1a1a7:	48 8b 05 52 db 00 00 	mov    0xdb52(%rip),%rax        # 27d00 <g_16>
   1a1ae:	8b 95 54 f2 ff ff    	mov    -0xdac(%rbp),%edx
   1a1b4:	89 10                	mov    %edx,(%rax)
   1a1b6:	0f b7 05 eb b0 00 00 	movzwl 0xb0eb(%rip),%eax        # 252a8 <g_1438+0x4>
   1a1bd:	8b 95 a8 ef ff ff    	mov    -0x1058(%rbp),%edx
   1a1c3:	21 d0                	and    %edx,%eax
   1a1c5:	66 89 05 dc b0 00 00 	mov    %ax,0xb0dc(%rip)        # 252a8 <g_1438+0x4>
   1a1cc:	0f b7 05 d5 b0 00 00 	movzwl 0xb0d5(%rip),%eax        # 252a8 <g_1438+0x4>
   1a1d3:	66 3d c4 47          	cmp    $0x47c4,%ax
   1a1d7:	0f 9f c0             	setg   %al
   1a1da:	0f b6 c0             	movzbl %al,%eax
   1a1dd:	89 85 a4 ef ff ff    	mov    %eax,-0x105c(%rbp)
   1a1e3:	0f b7 85 e4 ee ff ff 	movzwl -0x111c(%rbp),%eax
   1a1ea:	0f b7 d8             	movzwl %ax,%ebx
   1a1ed:	48 8b 05 3c ec 00 00 	mov    0xec3c(%rip),%rax        # 28e30 <g_857>
   1a1f4:	48 8b 00             	mov    (%rax),%rax
   1a1f7:	48 8b 00             	mov    (%rax),%rax
   1a1fa:	44 8b 20             	mov    (%rax),%r12d
   1a1fd:	48 83 bd 38 f1 ff ff 	cmpq   $0x0,-0xec8(%rbp)
   1a204:	00 
   1a205:	0f 94 c0             	sete   %al
   1a208:	44 0f b6 f8          	movzbl %al,%r15d
   1a20c:	0f b7 85 e4 ee ff ff 	movzwl -0x111c(%rbp),%eax
   1a213:	44 0f b7 e8          	movzwl %ax,%r13d
   1a217:	83 bd a8 ef ff ff 00 	cmpl   $0x0,-0x1058(%rbp)
   1a21e:	74 7b                	je     1a29b <func_18+0x47da>
   1a220:	0f b7 85 e4 ee ff ff 	movzwl -0x111c(%rbp),%eax
   1a227:	44 0f b7 f0          	movzwl %ax,%r14d
   1a22b:	8b 85 a8 ef ff ff    	mov    -0x1058(%rbp),%eax
   1a231:	0f b7 c0             	movzwl %ax,%eax
   1a234:	be 11 80 00 00       	mov    $0x8011,%esi
   1a239:	89 c7                	mov    %eax,%edi
   1a23b:	e8 4e 3b ff ff       	callq  dd8e <safe_div_func_uint16_t_u_u>
   1a240:	0f be d0             	movsbl %al,%edx
   1a243:	0f b7 85 e4 ee ff ff 	movzwl -0x111c(%rbp),%eax
   1a24a:	0f be c0             	movsbl %al,%eax
   1a24d:	89 d6                	mov    %edx,%esi
   1a24f:	89 c7                	mov    %eax,%edi
   1a251:	e8 bc 2f ff ff       	callq  d212 <safe_mul_func_int8_t_s_s>
   1a256:	0f b7 85 e4 ee ff ff 	movzwl -0x111c(%rbp),%eax
   1a25d:	0f b7 d0             	movzwl %ax,%edx
   1a260:	48 8b 05 29 f3 00 00 	mov    0xf329(%rip),%rax        # 29590 <g_1556>
   1a267:	48 8b 00             	mov    (%rax),%rax
   1a26a:	0f b6 00             	movzbl (%rax),%eax
   1a26d:	0f be c0             	movsbl %al,%eax
   1a270:	39 c2                	cmp    %eax,%edx
   1a272:	0f b7 85 e4 ee ff ff 	movzwl -0x111c(%rbp),%eax
   1a279:	89 c2                	mov    %eax,%edx
   1a27b:	48 8b 05 6e b0 00 00 	mov    0xb06e(%rip),%rax        # 252f0 <g_1848>
   1a282:	09 d0                	or     %edx,%eax
   1a284:	0f b6 c0             	movzbl %al,%eax
   1a287:	44 89 f6             	mov    %r14d,%esi
   1a28a:	89 c7                	mov    %eax,%edi
   1a28c:	e8 2d 3a ff ff       	callq  dcbe <safe_rshift_func_uint8_t_u_u>
   1a291:	0f b7 85 e4 ee ff ff 	movzwl -0x111c(%rbp),%eax
   1a298:	66 85 c0             	test   %ax,%ax
   1a29b:	8b 85 a8 ef ff ff    	mov    -0x1058(%rbp),%eax
   1a2a1:	0f be c0             	movsbl %al,%eax
   1a2a4:	89 c6                	mov    %eax,%esi
   1a2a6:	bf f6 ff ff ff       	mov    $0xfffffff6,%edi
   1a2ab:	e8 42 2f ff ff       	callq  d1f2 <safe_sub_func_int8_t_s_s>
   1a2b0:	8b 85 58 f2 ff ff    	mov    -0xda8(%rbp),%eax
   1a2b6:	0f b7 c0             	movzwl %ax,%eax
   1a2b9:	25 36 a8 00 00       	and    $0xa836,%eax
   1a2be:	44 89 ee             	mov    %r13d,%esi
   1a2c1:	89 c7                	mov    %eax,%edi
   1a2c3:	e8 3e 3b ff ff       	callq  de06 <safe_lshift_func_uint16_t_u_u>
   1a2c8:	0f b7 c0             	movzwl %ax,%eax
   1a2cb:	41 39 c7             	cmp    %eax,%r15d
   1a2ce:	0f 95 c0             	setne  %al
   1a2d1:	0f b6 c0             	movzbl %al,%eax
   1a2d4:	44 89 e6             	mov    %r12d,%esi
   1a2d7:	89 c7                	mov    %eax,%edi
   1a2d9:	e8 da 3b ff ff       	callq  deb8 <safe_add_func_uint32_t_u_u>
   1a2de:	89 de                	mov    %ebx,%esi
   1a2e0:	89 c7                	mov    %eax,%edi
   1a2e2:	e8 e5 33 ff ff       	callq  d6cc <safe_mod_func_int32_t_s_s>
   1a2e7:	0f b7 d0             	movzwl %ax,%edx
   1a2ea:	0f b7 85 e4 ee ff ff 	movzwl -0x111c(%rbp),%eax
   1a2f1:	0f b7 c0             	movzwl %ax,%eax
   1a2f4:	89 d6                	mov    %edx,%esi
   1a2f6:	89 c7                	mov    %eax,%edi
   1a2f8:	e8 5f 3a ff ff       	callq  dd5c <safe_mod_func_uint16_t_u_u>
   1a2fd:	0f b7 d0             	movzwl %ax,%edx
   1a300:	0f b7 85 e4 ee ff ff 	movzwl -0x111c(%rbp),%eax
   1a307:	0f b7 c0             	movzwl %ax,%eax
   1a30a:	89 d6                	mov    %edx,%esi
   1a30c:	89 c7                	mov    %eax,%edi
   1a30e:	e8 f3 3a ff ff       	callq  de06 <safe_lshift_func_uint16_t_u_u>
   1a313:	8b 8d 38 f5 ff ff    	mov    -0xac8(%rbp),%ecx
   1a319:	48 8b 85 e8 ee ff ff 	mov    -0x1118(%rbp),%rax
   1a320:	8b 10                	mov    (%rax),%edx
   1a322:	48 8b 85 e8 ee ff ff 	mov    -0x1118(%rbp),%rax
   1a329:	09 ca                	or     %ecx,%edx
   1a32b:	89 10                	mov    %edx,(%rax)
   1a32d:	0f b7 85 e4 ee ff ff 	movzwl -0x111c(%rbp),%eax
   1a334:	83 c0 01             	add    $0x1,%eax
   1a337:	66 89 85 e4 ee ff ff 	mov    %ax,-0x111c(%rbp)
   1a33e:	0f b7 95 e4 ee ff ff 	movzwl -0x111c(%rbp),%edx
   1a345:	48 8b 05 b4 d9 00 00 	mov    0xd9b4(%rip),%rax        # 27d00 <g_16>
   1a34c:	0f b7 d2             	movzwl %dx,%edx
   1a34f:	89 10                	mov    %edx,(%rax)
   1a351:	0f b7 05 42 af 00 00 	movzwl 0xaf42(%rip),%eax        # 2529a <g_1086>
   1a358:	83 c0 01             	add    $0x1,%eax
   1a35b:	66 89 05 38 af 00 00 	mov    %ax,0xaf38(%rip)        # 2529a <g_1086>
   1a362:	0f b7 05 31 af 00 00 	movzwl 0xaf31(%rip),%eax        # 2529a <g_1086>
   1a369:	66 83 f8 01          	cmp    $0x1,%ax
   1a36d:	0f 86 1b fe ff ff    	jbe    1a18e <func_18+0x46cd>
   1a373:	8b 85 10 ef ff ff    	mov    -0x10f0(%rbp),%eax
   1a379:	83 e8 01             	sub    $0x1,%eax
   1a37c:	89 85 10 ef ff ff    	mov    %eax,-0x10f0(%rbp)
   1a382:	8b 85 10 ef ff ff    	mov    -0x10f0(%rbp),%eax
   1a388:	85 c0                	test   %eax,%eax
   1a38a:	0f 89 f5 f9 ff ff    	jns    19d85 <func_18+0x42c4>
   1a390:	eb 04                	jmp    1a396 <func_18+0x48d5>
   1a392:	90                   	nop
   1a393:	eb 01                	jmp    1a396 <func_18+0x48d5>
   1a395:	90                   	nop
   1a396:	c7 85 68 ef ff ff 00 	movl   $0x0,-0x1098(%rbp)
   1a39d:	00 00 00 
   1a3a0:	e9 66 04 00 00       	jmpq   1a80b <func_18+0x4d4a>
   1a3a5:	c6 85 ff ee ff ff 07 	movb   $0x7,-0x1101(%rbp)
   1a3ac:	48 8d 95 70 f6 ff ff 	lea    -0x990(%rbp),%rdx
   1a3b3:	b8 00 00 00 00       	mov    $0x0,%eax
   1a3b8:	b9 38 00 00 00       	mov    $0x38,%ecx
   1a3bd:	48 89 d7             	mov    %rdx,%rdi
   1a3c0:	f3 48 ab             	rep stos %rax,%es:(%rdi)
   1a3c3:	48 c7 85 40 f1 ff ff 	movq   $0x0,-0xec0(%rbp)
   1a3ca:	00 00 00 00 
   1a3ce:	c7 85 88 ef ff ff 00 	movl   $0x0,-0x1078(%rbp)
   1a3d5:	00 00 00 
   1a3d8:	eb 1a                	jmp    1a3f4 <func_18+0x4933>
   1a3da:	8b 85 88 ef ff ff    	mov    -0x1078(%rbp),%eax
   1a3e0:	48 98                	cltq   
   1a3e2:	c7 84 85 d0 f2 ff ff 	movl   $0x6f42f399,-0xd30(%rbp,%rax,4)
   1a3e9:	99 f3 42 6f 
   1a3ed:	83 85 88 ef ff ff 01 	addl   $0x1,-0x1078(%rbp)
   1a3f4:	83 bd 88 ef ff ff 09 	cmpl   $0x9,-0x1078(%rbp)
   1a3fb:	7e dd                	jle    1a3da <func_18+0x4919>
   1a3fd:	0f b7 85 e4 ee ff ff 	movzwl -0x111c(%rbp),%eax
   1a404:	0f be d8             	movsbl %al,%ebx
   1a407:	c6 85 ff ee ff ff fa 	movb   $0xfa,-0x1101(%rbp)
   1a40e:	48 8b 85 a8 f0 ff ff 	mov    -0xf58(%rbp),%rax
   1a415:	48 8b 00             	mov    (%rax),%rax
   1a418:	48 8b 00             	mov    (%rax),%rax
   1a41b:	48 8b 10             	mov    (%rax),%rdx
   1a41e:	48 8b 85 a8 f0 ff ff 	mov    -0xf58(%rbp),%rax
   1a425:	48 8b 00             	mov    (%rax),%rax
   1a428:	48 8b 00             	mov    (%rax),%rax
   1a42b:	83 e2 01             	and    $0x1,%edx
   1a42e:	48 89 10             	mov    %rdx,(%rax)
   1a431:	48 8b 00             	mov    (%rax),%rax
   1a434:	48 85 c0             	test   %rax,%rax
   1a437:	0f 84 16 01 00 00    	je     1a553 <func_18+0x4a92>
   1a43d:	0f b7 05 18 ac 00 00 	movzwl 0xac18(%rip),%eax        # 2505c <g_43+0x1c>
   1a444:	44 0f b7 e0          	movzwl %ax,%r12d
   1a448:	0f b7 85 e4 ee ff ff 	movzwl -0x111c(%rbp),%eax
   1a44f:	44 0f b7 e8          	movzwl %ax,%r13d
   1a453:	0f b7 85 e4 ee ff ff 	movzwl -0x111c(%rbp),%eax
   1a45a:	0f b7 d0             	movzwl %ax,%edx
   1a45d:	48 8b 05 ec ed 00 00 	mov    0xedec(%rip),%rax        # 29250 <g_1349>
   1a464:	48 8b 00             	mov    (%rax),%rax
   1a467:	48 39 85 30 f1 ff ff 	cmp    %rax,-0xed0(%rbp)
   1a46e:	0f 94 c0             	sete   %al
   1a471:	0f b6 c0             	movzbl %al,%eax
   1a474:	89 d6                	mov    %edx,%esi
   1a476:	89 c7                	mov    %eax,%edi
   1a478:	e8 b8 2e ff ff       	callq  d335 <safe_rshift_func_int8_t_s_s>
   1a47d:	48 0f be c0          	movsbq %al,%rax
   1a481:	48 be fb 07 a1 aa cf 	movabs $0x6cc3ffcfaaa107fb,%rsi
   1a488:	ff c3 6c 
   1a48b:	48 89 c7             	mov    %rax,%rdi
   1a48e:	e8 64 35 ff ff       	callq  d9f7 <safe_div_func_int64_t_s_s>
   1a493:	48 8b 05 f6 f0 00 00 	mov    0xf0f6(%rip),%rax        # 29590 <g_1556>
   1a49a:	48 8b 10             	mov    (%rax),%rdx
   1a49d:	48 8b 85 b0 f0 ff ff 	mov    -0xf50(%rbp),%rax
   1a4a4:	48 8b 00             	mov    (%rax),%rax
   1a4a7:	0f b6 12             	movzbl (%rdx),%edx
   1a4aa:	88 10                	mov    %dl,(%rax)
   1a4ac:	0f b6 00             	movzbl (%rax),%eax
   1a4af:	0f be d0             	movsbl %al,%edx
   1a4b2:	0f b7 85 e4 ee ff ff 	movzwl -0x111c(%rbp),%eax
   1a4b9:	0f b7 c0             	movzwl %ax,%eax
   1a4bc:	39 c2                	cmp    %eax,%edx
   1a4be:	0f 95 c0             	setne  %al
   1a4c1:	0f b6 c0             	movzbl %al,%eax
   1a4c4:	48 be 6e 3c 7a 46 7e 	movabs $0xe4edcc7e467a3c6e,%rsi
   1a4cb:	cc ed e4 
   1a4ce:	48 89 c7             	mov    %rax,%rdi
   1a4d1:	e8 de 34 ff ff       	callq  d9b4 <safe_mod_func_int64_t_s_s>
   1a4d6:	89 85 d0 f2 ff ff    	mov    %eax,-0xd30(%rbp)
   1a4dc:	8b 85 d0 f2 ff ff    	mov    -0xd30(%rbp),%eax
   1a4e2:	41 39 c5             	cmp    %eax,%r13d
   1a4e5:	0f 9f c0             	setg   %al
   1a4e8:	0f b6 d0             	movzbl %al,%edx
   1a4eb:	48 8b 85 00 f1 ff ff 	mov    -0xf00(%rbp),%rax
   1a4f2:	66 89 10             	mov    %dx,(%rax)
   1a4f5:	48 8b 85 00 f1 ff ff 	mov    -0xf00(%rbp),%rax
   1a4fc:	0f b7 00             	movzwl (%rax),%eax
   1a4ff:	0f b7 c0             	movzwl %ax,%eax
   1a502:	be 03 00 00 00       	mov    $0x3,%esi
   1a507:	89 c7                	mov    %eax,%edi
   1a509:	e8 f8 38 ff ff       	callq  de06 <safe_lshift_func_uint16_t_u_u>
   1a50e:	0f b7 85 e4 ee ff ff 	movzwl -0x111c(%rbp),%eax
   1a515:	8b 95 58 f2 ff ff    	mov    -0xda8(%rbp),%edx
   1a51b:	0f b7 c0             	movzwl %ax,%eax
   1a51e:	09 d0                	or     %edx,%eax
   1a520:	89 85 58 f2 ff ff    	mov    %eax,-0xda8(%rbp)
   1a526:	8b 85 58 f2 ff ff    	mov    -0xda8(%rbp),%eax
   1a52c:	48 98                	cltq   
   1a52e:	48 89 05 53 ac 00 00 	mov    %rax,0xac53(%rip)        # 25188 <g_63>
   1a535:	48 8b 05 4c ac 00 00 	mov    0xac4c(%rip),%rax        # 25188 <g_63>
   1a53c:	4c 89 e6             	mov    %r12,%rsi
   1a53f:	48 89 c7             	mov    %rax,%rdi
   1a542:	e8 68 3b ff ff       	callq  e0af <safe_div_func_uint64_t_u_u>
   1a547:	48 85 c0             	test   %rax,%rax
   1a54a:	74 07                	je     1a553 <func_18+0x4a92>
   1a54c:	ba 01 00 00 00       	mov    $0x1,%edx
   1a551:	eb 05                	jmp    1a558 <func_18+0x4a97>
   1a553:	ba 00 00 00 00       	mov    $0x0,%edx
   1a558:	0f b7 85 e4 ee ff ff 	movzwl -0x111c(%rbp),%eax
   1a55f:	0f b7 c0             	movzwl %ax,%eax
   1a562:	09 d0                	or     %edx,%eax
   1a564:	48 63 d0             	movslq %eax,%rdx
   1a567:	48 8b 85 00 f3 ff ff 	mov    -0xd00(%rbp),%rax
   1a56e:	48 85 c0             	test   %rax,%rax
   1a571:	0f 95 c0             	setne  %al
   1a574:	0f b6 c8             	movzbl %al,%ecx
   1a577:	0f b7 85 e4 ee ff ff 	movzwl -0x111c(%rbp),%eax
   1a57e:	0f b7 c0             	movzwl %ax,%eax
   1a581:	39 c1                	cmp    %eax,%ecx
   1a583:	0f 95 c0             	setne  %al
   1a586:	0f b6 c0             	movzbl %al,%eax
   1a589:	33 85 94 ef ff ff    	xor    -0x106c(%rbp),%eax
   1a58f:	89 c1                	mov    %eax,%ecx
   1a591:	48 8b 85 c8 f0 ff ff 	mov    -0xf38(%rbp),%rax
   1a598:	48 89 08             	mov    %rcx,(%rax)
   1a59b:	48 8b 85 c8 f0 ff ff 	mov    -0xf38(%rbp),%rax
   1a5a2:	48 8b 00             	mov    (%rax),%rax
   1a5a5:	48 89 d6             	mov    %rdx,%rsi
   1a5a8:	48 89 c7             	mov    %rax,%rdi
   1a5ab:	e8 ff 3a ff ff       	callq  e0af <safe_div_func_uint64_t_u_u>
   1a5b0:	89 de                	mov    %ebx,%esi
   1a5b2:	bf 00 00 00 00       	mov    $0x0,%edi
   1a5b7:	e8 56 2c ff ff       	callq  d212 <safe_mul_func_int8_t_s_s>
   1a5bc:	84 c0                	test   %al,%al
   1a5be:	75 0d                	jne    1a5cd <func_18+0x4b0c>
   1a5c0:	48 8b 05 19 ea 00 00 	mov    0xea19(%rip),%rax        # 28fe0 <g_1078>
   1a5c7:	0f b7 00             	movzwl (%rax),%eax
   1a5ca:	66 85 c0             	test   %ax,%ax
   1a5cd:	0f b7 85 e4 ee ff ff 	movzwl -0x111c(%rbp),%eax
   1a5d4:	83 f0 65             	xor    $0x65,%eax
   1a5d7:	0f b7 c8             	movzwl %ax,%ecx
   1a5da:	48 8b 85 e8 ee ff ff 	mov    -0x1118(%rbp),%rax
   1a5e1:	8b 10                	mov    (%rax),%edx
   1a5e3:	48 8b 85 e8 ee ff ff 	mov    -0x1118(%rbp),%rax
   1a5ea:	09 ca                	or     %ecx,%edx
   1a5ec:	89 10                	mov    %edx,(%rax)
   1a5ee:	48 c7 85 98 f0 ff ff 	movq   $0x0,-0xf68(%rbp)
   1a5f5:	00 00 00 00 
   1a5f9:	e9 f8 01 00 00       	jmpq   1a7f6 <func_18+0x4d35>
   1a5fe:	c6 85 00 ef ff ff 7d 	movb   $0x7d,-0x1100(%rbp)
   1a605:	48 8b 05 84 ef 00 00 	mov    0xef84(%rip),%rax        # 29590 <g_1556>
   1a60c:	48 8b 00             	mov    (%rax),%rax
   1a60f:	0f b6 00             	movzbl (%rax),%eax
   1a612:	0f be d0             	movsbl %al,%edx
   1a615:	8b 85 d0 f2 ff ff    	mov    -0xd30(%rbp),%eax
   1a61b:	39 c2                	cmp    %eax,%edx
   1a61d:	0f 9c c0             	setl   %al
   1a620:	0f b6 d8             	movzbl %al,%ebx
   1a623:	8b 85 58 f2 ff ff    	mov    -0xda8(%rbp),%eax
   1a629:	48 98                	cltq   
   1a62b:	48 89 c6             	mov    %rax,%rsi
   1a62e:	48 bf 5b 28 65 4e 64 	movabs $0xa6e46e644e65285b,%rdi
   1a635:	6e e4 a6 
   1a638:	e8 ba 33 ff ff       	callq  d9f7 <safe_div_func_int64_t_s_s>
   1a63d:	0f b7 c0             	movzwl %ax,%eax
   1a640:	89 de                	mov    %ebx,%esi
   1a642:	89 c7                	mov    %eax,%edi
   1a644:	e8 75 37 ff ff       	callq  ddbe <safe_lshift_func_uint16_t_u_s>
   1a649:	89 c1                	mov    %eax,%ecx
   1a64b:	0f b7 85 e4 ee ff ff 	movzwl -0x111c(%rbp),%eax
   1a652:	0f b7 d0             	movzwl %ax,%edx
   1a655:	48 8b 05 9c e9 00 00 	mov    0xe99c(%rip),%rax        # 28ff8 <g_1205>
   1a65c:	48 8b 00             	mov    (%rax),%rax
   1a65f:	48 21 c2             	and    %rax,%rdx
   1a662:	48 8b 05 e7 eb 00 00 	mov    0xebe7(%rip),%rax        # 29250 <g_1349>
   1a669:	48 8b 00             	mov    (%rax),%rax
   1a66c:	48 8b 00             	mov    (%rax),%rax
   1a66f:	8b 00                	mov    (%rax),%eax
   1a671:	89 c0                	mov    %eax,%eax
   1a673:	48 39 c2             	cmp    %rax,%rdx
   1a676:	75 07                	jne    1a67f <func_18+0x4bbe>
   1a678:	ba 05 00 00 00       	mov    $0x5,%edx
   1a67d:	eb 05                	jmp    1a684 <func_18+0x4bc3>
   1a67f:	ba 04 00 00 00       	mov    $0x4,%edx
   1a684:	0f b7 85 e4 ee ff ff 	movzwl -0x111c(%rbp),%eax
   1a68b:	0f b7 c0             	movzwl %ax,%eax
   1a68e:	48 39 c2             	cmp    %rax,%rdx
   1a691:	0f 95 c0             	setne  %al
   1a694:	21 c8                	and    %ecx,%eax
   1a696:	88 85 00 ef ff ff    	mov    %al,-0x1100(%rbp)
   1a69c:	8b 9d 98 ef ff ff    	mov    -0x1068(%rbp),%ebx
   1a6a2:	48 8b 05 3f e9 00 00 	mov    0xe93f(%rip),%rax        # 28fe8 <g_1077>
   1a6a9:	48 8b 00             	mov    (%rax),%rax
   1a6ac:	0f b7 00             	movzwl (%rax),%eax
   1a6af:	44 0f bf e0          	movswl %ax,%r12d
   1a6b3:	0f b6 85 00 ef ff ff 	movzbl -0x1100(%rbp),%eax
   1a6ba:	0f be c0             	movsbl %al,%eax
   1a6bd:	89 c6                	mov    %eax,%esi
   1a6bf:	bf 63 00 00 00       	mov    $0x63,%edi
   1a6c4:	e8 a1 2b ff ff       	callq  d26a <safe_div_func_int8_t_s_s>
   1a6c9:	84 c0                	test   %al,%al
   1a6cb:	74 4f                	je     1a71c <func_18+0x4c5b>
   1a6cd:	0f b7 85 90 f2 ff ff 	movzwl -0xd70(%rbp),%eax
   1a6d4:	44 0f bf e8          	movswl %ax,%r13d
   1a6d8:	83 bd 9c ef ff ff 00 	cmpl   $0x0,-0x1064(%rbp)
   1a6df:	0f 94 c0             	sete   %al
   1a6e2:	0f b6 c0             	movzbl %al,%eax
   1a6e5:	be ff ff ff ff       	mov    $0xffffffff,%esi
   1a6ea:	89 c7                	mov    %eax,%edi
   1a6ec:	e8 40 2b ff ff       	callq  d231 <safe_mod_func_int8_t_s_s>
   1a6f1:	48 c7 c6 fd ff ff ff 	mov    $0xfffffffffffffffd,%rsi
   1a6f8:	48 bf fb e2 8f bf 62 	movabs $0xc5c53062bf8fe2fb,%rdi
   1a6ff:	30 c5 c5 
   1a702:	e8 44 39 ff ff       	callq  e04b <safe_sub_func_uint64_t_u_u>
   1a707:	44 89 ee             	mov    %r13d,%esi
   1a70a:	89 c7                	mov    %eax,%edi
   1a70c:	e8 a7 37 ff ff       	callq  deb8 <safe_add_func_uint32_t_u_u>
   1a711:	85 c0                	test   %eax,%eax
   1a713:	74 07                	je     1a71c <func_18+0x4c5b>
   1a715:	b8 01 00 00 00       	mov    $0x1,%eax
   1a71a:	eb 05                	jmp    1a721 <func_18+0x4c60>
   1a71c:	b8 00 00 00 00       	mov    $0x0,%eax
   1a721:	48 98                	cltq   
   1a723:	48 89 c6             	mov    %rax,%rsi
   1a726:	bf 01 00 00 00       	mov    $0x1,%edi
   1a72b:	e8 fe 38 ff ff       	callq  e02e <safe_add_func_uint64_t_u_u>
   1a730:	0f b7 c0             	movzwl %ax,%eax
   1a733:	44 89 e6             	mov    %r12d,%esi
   1a736:	89 c7                	mov    %eax,%edi
   1a738:	e8 81 36 ff ff       	callq  ddbe <safe_lshift_func_uint16_t_u_s>
   1a73d:	89 c2                	mov    %eax,%edx
   1a73f:	48 8b 05 0a eb 00 00 	mov    0xeb0a(%rip),%rax        # 29250 <g_1349>
   1a746:	48 8b 00             	mov    (%rax),%rax
   1a749:	48 8b 00             	mov    (%rax),%rax
   1a74c:	0f b7 d2             	movzwl %dx,%edx
   1a74f:	89 10                	mov    %edx,(%rax)
   1a751:	8b 00                	mov    (%rax),%eax
   1a753:	89 05 27 ab 00 00    	mov    %eax,0xab27(%rip)        # 25280 <g_895>
   1a759:	8b 05 21 ab 00 00    	mov    0xab21(%rip),%eax        # 25280 <g_895>
   1a75f:	85 c0                	test   %eax,%eax
   1a761:	75 07                	jne    1a76a <func_18+0x4ca9>
   1a763:	ba 01 00 00 00       	mov    $0x1,%edx
   1a768:	eb 05                	jmp    1a76f <func_18+0x4cae>
   1a76a:	ba 00 00 00 00       	mov    $0x0,%edx
   1a76f:	8b 85 58 f2 ff ff    	mov    -0xda8(%rbp),%eax
   1a775:	39 c2                	cmp    %eax,%edx
   1a777:	0f 9c c0             	setl   %al
   1a77a:	89 c2                	mov    %eax,%edx
   1a77c:	0f b6 85 00 ef ff ff 	movzbl -0x1100(%rbp),%eax
   1a783:	31 d0                	xor    %edx,%eax
   1a785:	0f be c0             	movsbl %al,%eax
   1a788:	be 05 00 00 00       	mov    $0x5,%esi
   1a78d:	89 c7                	mov    %eax,%edi
   1a78f:	e8 0d 2b ff ff       	callq  d2a1 <safe_lshift_func_int8_t_s_s>
   1a794:	66 98                	cbtw   
   1a796:	0f b7 95 e4 ee ff ff 	movzwl -0x111c(%rbp),%edx
   1a79d:	09 d0                	or     %edx,%eax
   1a79f:	0f b7 c0             	movzwl %ax,%eax
   1a7a2:	89 de                	mov    %ebx,%esi
   1a7a4:	89 c7                	mov    %eax,%edi
   1a7a6:	e8 5b 36 ff ff       	callq  de06 <safe_lshift_func_uint16_t_u_u>
   1a7ab:	48 c7 c1 ff ff ff ff 	mov    $0xffffffffffffffff,%rcx
   1a7b2:	48 8b 05 47 d5 00 00 	mov    0xd547(%rip),%rax        # 27d00 <g_16>
   1a7b9:	8b 10                	mov    (%rax),%edx
   1a7bb:	48 8b 05 3e d5 00 00 	mov    0xd53e(%rip),%rax        # 27d00 <g_16>
   1a7c2:	09 ca                	or     %ecx,%edx
   1a7c4:	89 10                	mov    %edx,(%rax)
   1a7c6:	48 8b 85 e8 ee ff ff 	mov    -0x1118(%rbp),%rax
   1a7cd:	8b 00                	mov    (%rax),%eax
   1a7cf:	23 85 9c ef ff ff    	and    -0x1064(%rbp),%eax
   1a7d5:	89 c2                	mov    %eax,%edx
   1a7d7:	48 8b 85 e8 ee ff ff 	mov    -0x1118(%rbp),%rax
   1a7de:	89 10                	mov    %edx,(%rax)
   1a7e0:	48 8b 85 e8 ee ff ff 	mov    -0x1118(%rbp),%rax
   1a7e7:	48 89 85 e0 f0 ff ff 	mov    %rax,-0xf20(%rbp)
   1a7ee:	48 83 85 98 f0 ff ff 	addq   $0x1,-0xf68(%rbp)
   1a7f5:	01 
   1a7f6:	48 83 bd 98 f0 ff ff 	cmpq   $0x1,-0xf68(%rbp)
   1a7fd:	01 
   1a7fe:	0f 8e fa fd ff ff    	jle    1a5fe <func_18+0x4b3d>
   1a804:	83 85 68 ef ff ff 01 	addl   $0x1,-0x1098(%rbp)
   1a80b:	83 bd 68 ef ff ff 01 	cmpl   $0x1,-0x1098(%rbp)
   1a812:	0f 8e 8d fb ff ff    	jle    1a3a5 <func_18+0x48e4>
   1a818:	80 85 fc ee ff ff 01 	addb   $0x1,-0x1104(%rbp)
   1a81f:	80 bd fc ee ff ff 08 	cmpb   $0x8,-0x1104(%rbp)
   1a826:	0f 86 58 ee ff ff    	jbe    19684 <func_18+0x3bc3>
   1a82c:	eb 01                	jmp    1a82f <func_18+0x4d6e>
   1a82e:	90                   	nop
   1a82f:	48 8b 05 8a f0 00 00 	mov    0xf08a(%rip),%rax        # 298c0 <g_1896+0x300>
   1a836:	48 89 05 83 f0 00 00 	mov    %rax,0xf083(%rip)        # 298c0 <g_1896+0x300>
   1a83d:	0f b7 85 e4 ee ff ff 	movzwl -0x111c(%rbp),%eax
   1a844:	48 8b 5d c8          	mov    -0x38(%rbp),%rbx
   1a848:	64 48 33 1c 25 28 00 	xor    %fs:0x28,%rbx
   1a84f:	00 00 
   1a851:	74 05                	je     1a858 <func_18+0x4d97>
   1a853:	e8 18 28 ff ff       	callq  d070 <__stack_chk_fail@plt>
   1a858:	48 81 c4 f8 10 00 00 	add    $0x10f8,%rsp
   1a85f:	5b                   	pop    %rbx
   1a860:	41 5c                	pop    %r12
   1a862:	41 5d                	pop    %r13
   1a864:	41 5e                	pop    %r14
   1a866:	41 5f                	pop    %r15
   1a868:	5d                   	pop    %rbp
   1a869:	c3                   	retq   

000000000001a86a <func_21>:
   1a86a:	f3 0f 1e fa          	endbr64 
   1a86e:	55                   	push   %rbp
   1a86f:	48 89 e5             	mov    %rsp,%rbp
   1a872:	48 83 c4 80          	add    $0xffffffffffffff80,%rsp
   1a876:	48 89 7d 88          	mov    %rdi,-0x78(%rbp)
   1a87a:	64 48 8b 04 25 28 00 	mov    %fs:0x28,%rax
   1a881:	00 00 
   1a883:	48 89 45 f8          	mov    %rax,-0x8(%rbp)
   1a887:	31 c0                	xor    %eax,%eax
   1a889:	48 8d 05 84 a9 00 00 	lea    0xa984(%rip),%rax        # 25214 <g_188>
   1a890:	48 89 45 a0          	mov    %rax,-0x60(%rbp)
   1a894:	48 8d 45 b0          	lea    -0x50(%rbp),%rax
   1a898:	48 83 c0 28          	add    $0x28,%rax
   1a89c:	48 89 45 a8          	mov    %rax,-0x58(%rbp)
   1a8a0:	c7 45 9c 00 00 00 00 	movl   $0x0,-0x64(%rbp)
   1a8a7:	eb 15                	jmp    1a8be <func_21+0x54>
   1a8a9:	8b 45 9c             	mov    -0x64(%rbp),%eax
   1a8ac:	48 98                	cltq   
   1a8ae:	48 8d 15 ab a9 00 00 	lea    0xa9ab(%rip),%rdx        # 25260 <g_871>
   1a8b5:	48 89 54 c5 b0       	mov    %rdx,-0x50(%rbp,%rax,8)
   1a8ba:	83 45 9c 01          	addl   $0x1,-0x64(%rbp)
   1a8be:	83 7d 9c 07          	cmpl   $0x7,-0x64(%rbp)
   1a8c2:	7e e5                	jle    1a8a9 <func_21+0x3f>
   1a8c4:	48 8b 45 a0          	mov    -0x60(%rbp),%rax
   1a8c8:	0f b7 00             	movzwl (%rax),%eax
   1a8cb:	66 0d 05 33          	or     $0x3305,%ax
   1a8cf:	89 c2                	mov    %eax,%edx
   1a8d1:	48 8b 45 a0          	mov    -0x60(%rbp),%rax
   1a8d5:	66 89 10             	mov    %dx,(%rax)
   1a8d8:	b9 01 00 00 00       	mov    $0x1,%ecx
   1a8dd:	48 8b 05 e4 d9 00 00 	mov    0xd9e4(%rip),%rax        # 282c8 <g_60>
   1a8e4:	48 8b 00             	mov    (%rax),%rax
   1a8e7:	8b 10                	mov    (%rax),%edx
   1a8e9:	48 8b 05 d8 d9 00 00 	mov    0xd9d8(%rip),%rax        # 282c8 <g_60>
   1a8f0:	48 8b 00             	mov    (%rax),%rax
   1a8f3:	09 ca                	or     %ecx,%edx
   1a8f5:	89 10                	mov    %edx,(%rax)
   1a8f7:	48 8b 55 d8          	mov    -0x28(%rbp),%rdx
   1a8fb:	48 8b 45 a8          	mov    -0x58(%rbp),%rax
   1a8ff:	48 89 10             	mov    %rdx,(%rax)
   1a902:	48 8b 05 bf d9 00 00 	mov    0xd9bf(%rip),%rax        # 282c8 <g_60>
   1a909:	48 8b 00             	mov    (%rax),%rax
   1a90c:	48 8b 75 f8          	mov    -0x8(%rbp),%rsi
   1a910:	64 48 33 34 25 28 00 	xor    %fs:0x28,%rsi
   1a917:	00 00 
   1a919:	74 05                	je     1a920 <func_21+0xb6>
   1a91b:	e8 50 27 ff ff       	callq  d070 <__stack_chk_fail@plt>
   1a920:	c9                   	leaveq 
   1a921:	c3                   	retq   

000000000001a922 <func_27>:
   1a922:	f3 0f 1e fa          	endbr64 
   1a926:	55                   	push   %rbp
   1a927:	48 89 e5             	mov    %rsp,%rbp
   1a92a:	41 57                	push   %r15
   1a92c:	41 56                	push   %r14
   1a92e:	41 55                	push   %r13
   1a930:	41 54                	push   %r12
   1a932:	53                   	push   %rbx
   1a933:	48 81 ec 00 10 00 00 	sub    $0x1000,%rsp
   1a93a:	48 83 0c 24 00       	orq    $0x0,(%rsp)
   1a93f:	48 81 ec 18 09 00 00 	sub    $0x918,%rsp
   1a946:	48 89 bd c8 e6 ff ff 	mov    %rdi,-0x1938(%rbp)
   1a94d:	64 48 8b 04 25 28 00 	mov    %fs:0x28,%rax
   1a954:	00 00 
   1a956:	48 89 45 c8          	mov    %rax,-0x38(%rbp)
   1a95a:	31 c0                	xor    %eax,%eax
   1a95c:	48 8d 05 36 a8 00 00 	lea    0xa836(%rip),%rax        # 25199 <g_93>
   1a963:	48 89 85 08 e8 ff ff 	mov    %rax,-0x17f8(%rbp)
   1a96a:	48 8d 05 df d7 00 00 	lea    0xd7df(%rip),%rax        # 28150 <g_42+0x430>
   1a971:	48 89 85 80 ea ff ff 	mov    %rax,-0x1580(%rbp)
   1a978:	48 c7 85 88 ea ff ff 	movq   $0x0,-0x1578(%rbp)
   1a97f:	00 00 00 00 
   1a983:	48 c7 85 90 ea ff ff 	movq   $0x0,-0x1570(%rbp)
   1a98a:	00 00 00 00 
   1a98e:	48 8d 05 bb d7 00 00 	lea    0xd7bb(%rip),%rax        # 28150 <g_42+0x430>
   1a995:	48 89 85 98 ea ff ff 	mov    %rax,-0x1568(%rbp)
   1a99c:	48 c7 85 a0 ea ff ff 	movq   $0x0,-0x1560(%rbp)
   1a9a3:	00 00 00 00 
   1a9a7:	48 c7 85 a8 ea ff ff 	movq   $0x0,-0x1558(%rbp)
   1a9ae:	00 00 00 00 
   1a9b2:	48 8d 05 97 d7 00 00 	lea    0xd797(%rip),%rax        # 28150 <g_42+0x430>
   1a9b9:	48 89 85 b0 ea ff ff 	mov    %rax,-0x1550(%rbp)
   1a9c0:	48 c7 85 b0 f0 ff ff 	movq   $0x0,-0xf50(%rbp)
   1a9c7:	00 00 00 00 
   1a9cb:	48 8d 85 80 ea ff ff 	lea    -0x1580(%rbp),%rax
   1a9d2:	48 83 c0 30          	add    $0x30,%rax
   1a9d6:	48 89 85 b8 f0 ff ff 	mov    %rax,-0xf48(%rbp)
   1a9dd:	48 8d 85 80 ea ff ff 	lea    -0x1580(%rbp),%rax
   1a9e4:	48 83 c0 20          	add    $0x20,%rax
   1a9e8:	48 89 85 c0 f0 ff ff 	mov    %rax,-0xf40(%rbp)
   1a9ef:	48 8d 85 80 ea ff ff 	lea    -0x1580(%rbp),%rax
   1a9f6:	48 89 85 c8 f0 ff ff 	mov    %rax,-0xf38(%rbp)
   1a9fd:	48 8d 85 80 ea ff ff 	lea    -0x1580(%rbp),%rax
   1aa04:	48 83 c0 30          	add    $0x30,%rax
   1aa08:	48 89 85 d0 f0 ff ff 	mov    %rax,-0xf30(%rbp)
   1aa0f:	48 8d 85 80 ea ff ff 	lea    -0x1580(%rbp),%rax
   1aa16:	48 89 85 d8 f0 ff ff 	mov    %rax,-0xf28(%rbp)
   1aa1d:	48 8d 85 80 ea ff ff 	lea    -0x1580(%rbp),%rax
   1aa24:	48 83 c0 20          	add    $0x20,%rax
   1aa28:	48 89 85 e0 f0 ff ff 	mov    %rax,-0xf20(%rbp)
   1aa2f:	48 8d 85 80 ea ff ff 	lea    -0x1580(%rbp),%rax
   1aa36:	48 83 c0 30          	add    $0x30,%rax
   1aa3a:	48 89 85 e8 f0 ff ff 	mov    %rax,-0xf18(%rbp)
   1aa41:	48 c7 85 f0 f0 ff ff 	movq   $0x0,-0xf10(%rbp)
   1aa48:	00 00 00 00 
   1aa4c:	48 c7 85 f8 f0 ff ff 	movq   $0x0,-0xf08(%rbp)
   1aa53:	00 00 00 00 
   1aa57:	48 8d 85 80 ea ff ff 	lea    -0x1580(%rbp),%rax
   1aa5e:	48 83 c0 30          	add    $0x30,%rax
   1aa62:	48 89 85 00 f1 ff ff 	mov    %rax,-0xf00(%rbp)
   1aa69:	48 8d 85 80 ea ff ff 	lea    -0x1580(%rbp),%rax
   1aa70:	48 83 c0 20          	add    $0x20,%rax
   1aa74:	48 89 85 08 f1 ff ff 	mov    %rax,-0xef8(%rbp)
   1aa7b:	48 8d 85 80 ea ff ff 	lea    -0x1580(%rbp),%rax
   1aa82:	48 89 85 10 f1 ff ff 	mov    %rax,-0xef0(%rbp)
   1aa89:	48 8d 85 80 ea ff ff 	lea    -0x1580(%rbp),%rax
   1aa90:	48 83 c0 30          	add    $0x30,%rax
   1aa94:	48 89 85 18 f1 ff ff 	mov    %rax,-0xee8(%rbp)
   1aa9b:	48 8d 85 80 ea ff ff 	lea    -0x1580(%rbp),%rax
   1aaa2:	48 89 85 20 f1 ff ff 	mov    %rax,-0xee0(%rbp)
   1aaa9:	48 8d 85 80 ea ff ff 	lea    -0x1580(%rbp),%rax
   1aab0:	48 89 85 28 f1 ff ff 	mov    %rax,-0xed8(%rbp)
   1aab7:	48 c7 85 30 f1 ff ff 	movq   $0x0,-0xed0(%rbp)
   1aabe:	00 00 00 00 
   1aac2:	48 8d 85 80 ea ff ff 	lea    -0x1580(%rbp),%rax
   1aac9:	48 89 85 38 f1 ff ff 	mov    %rax,-0xec8(%rbp)
   1aad0:	48 8d 85 80 ea ff ff 	lea    -0x1580(%rbp),%rax
   1aad7:	48 89 85 40 f1 ff ff 	mov    %rax,-0xec0(%rbp)
   1aade:	48 c7 85 48 f1 ff ff 	movq   $0x0,-0xeb8(%rbp)
   1aae5:	00 00 00 00 
   1aae9:	48 8d 85 80 ea ff ff 	lea    -0x1580(%rbp),%rax
   1aaf0:	48 89 85 50 f1 ff ff 	mov    %rax,-0xeb0(%rbp)
   1aaf7:	48 8d 85 80 ea ff ff 	lea    -0x1580(%rbp),%rax
   1aafe:	48 83 c0 08          	add    $0x8,%rax
   1ab02:	48 89 85 58 f1 ff ff 	mov    %rax,-0xea8(%rbp)
   1ab09:	48 c7 85 60 f1 ff ff 	movq   $0x0,-0xea0(%rbp)
   1ab10:	00 00 00 00 
   1ab14:	48 8d 85 80 ea ff ff 	lea    -0x1580(%rbp),%rax
   1ab1b:	48 83 c0 08          	add    $0x8,%rax
   1ab1f:	48 89 85 68 f1 ff ff 	mov    %rax,-0xe98(%rbp)
   1ab26:	48 8d 85 80 ea ff ff 	lea    -0x1580(%rbp),%rax
   1ab2d:	48 89 85 70 f1 ff ff 	mov    %rax,-0xe90(%rbp)
   1ab34:	48 c7 85 78 f1 ff ff 	movq   $0x0,-0xe88(%rbp)
   1ab3b:	00 00 00 00 
   1ab3f:	48 8d 85 80 ea ff ff 	lea    -0x1580(%rbp),%rax
   1ab46:	48 89 85 80 f1 ff ff 	mov    %rax,-0xe80(%rbp)
   1ab4d:	48 8d 85 80 ea ff ff 	lea    -0x1580(%rbp),%rax
   1ab54:	48 89 85 88 f1 ff ff 	mov    %rax,-0xe78(%rbp)
   1ab5b:	48 c7 85 90 f1 ff ff 	movq   $0x0,-0xe70(%rbp)
   1ab62:	00 00 00 00 
   1ab66:	48 8d 85 80 ea ff ff 	lea    -0x1580(%rbp),%rax
   1ab6d:	48 89 85 98 f1 ff ff 	mov    %rax,-0xe68(%rbp)
   1ab74:	48 8d 85 80 ea ff ff 	lea    -0x1580(%rbp),%rax
   1ab7b:	48 83 c0 08          	add    $0x8,%rax
   1ab7f:	48 89 85 a0 f1 ff ff 	mov    %rax,-0xe60(%rbp)
   1ab86:	48 c7 85 a8 f1 ff ff 	movq   $0x0,-0xe58(%rbp)
   1ab8d:	00 00 00 00 
   1ab91:	48 8d 85 80 ea ff ff 	lea    -0x1580(%rbp),%rax
   1ab98:	48 83 c0 08          	add    $0x8,%rax
   1ab9c:	48 89 85 b0 f1 ff ff 	mov    %rax,-0xe50(%rbp)
   1aba3:	48 8d 85 80 ea ff ff 	lea    -0x1580(%rbp),%rax
   1abaa:	48 89 85 b8 f1 ff ff 	mov    %rax,-0xe48(%rbp)
   1abb1:	48 c7 85 c0 f1 ff ff 	movq   $0x0,-0xe40(%rbp)
   1abb8:	00 00 00 00 
   1abbc:	48 8d 85 80 ea ff ff 	lea    -0x1580(%rbp),%rax
   1abc3:	48 89 85 c8 f1 ff ff 	mov    %rax,-0xe38(%rbp)
   1abca:	48 8d 85 80 ea ff ff 	lea    -0x1580(%rbp),%rax
   1abd1:	48 89 85 d0 f1 ff ff 	mov    %rax,-0xe30(%rbp)
   1abd8:	48 c7 85 d8 f1 ff ff 	movq   $0x0,-0xe28(%rbp)
   1abdf:	00 00 00 00 
   1abe3:	48 8d 85 80 ea ff ff 	lea    -0x1580(%rbp),%rax
   1abea:	48 89 85 e0 f1 ff ff 	mov    %rax,-0xe20(%rbp)
   1abf1:	48 8d 85 80 ea ff ff 	lea    -0x1580(%rbp),%rax
   1abf8:	48 83 c0 08          	add    $0x8,%rax
   1abfc:	48 89 85 e8 f1 ff ff 	mov    %rax,-0xe18(%rbp)
   1ac03:	48 c7 85 f0 f1 ff ff 	movq   $0x0,-0xe10(%rbp)
   1ac0a:	00 00 00 00 
   1ac0e:	48 8d 85 80 ea ff ff 	lea    -0x1580(%rbp),%rax
   1ac15:	48 83 c0 08          	add    $0x8,%rax
   1ac19:	48 89 85 f8 f1 ff ff 	mov    %rax,-0xe08(%rbp)
   1ac20:	48 8d 85 80 ea ff ff 	lea    -0x1580(%rbp),%rax
   1ac27:	48 89 85 00 f2 ff ff 	mov    %rax,-0xe00(%rbp)
   1ac2e:	48 c7 85 08 f2 ff ff 	movq   $0x0,-0xdf8(%rbp)
   1ac35:	00 00 00 00 
   1ac39:	48 8d 85 80 ea ff ff 	lea    -0x1580(%rbp),%rax
   1ac40:	48 89 85 10 f2 ff ff 	mov    %rax,-0xdf0(%rbp)
   1ac47:	48 8d 85 80 ea ff ff 	lea    -0x1580(%rbp),%rax
   1ac4e:	48 89 85 18 f2 ff ff 	mov    %rax,-0xde8(%rbp)
   1ac55:	48 c7 85 20 f2 ff ff 	movq   $0x0,-0xde0(%rbp)
   1ac5c:	00 00 00 00 
   1ac60:	48 8d 85 80 ea ff ff 	lea    -0x1580(%rbp),%rax
   1ac67:	48 89 85 28 f2 ff ff 	mov    %rax,-0xdd8(%rbp)
   1ac6e:	48 8d 85 80 ea ff ff 	lea    -0x1580(%rbp),%rax
   1ac75:	48 83 c0 08          	add    $0x8,%rax
   1ac79:	48 89 85 30 f2 ff ff 	mov    %rax,-0xdd0(%rbp)
   1ac80:	48 c7 85 38 f2 ff ff 	movq   $0x0,-0xdc8(%rbp)
   1ac87:	00 00 00 00 
   1ac8b:	48 8d 85 80 ea ff ff 	lea    -0x1580(%rbp),%rax
   1ac92:	48 83 c0 08          	add    $0x8,%rax
   1ac96:	48 89 85 40 f2 ff ff 	mov    %rax,-0xdc0(%rbp)
   1ac9d:	48 8d 85 80 ea ff ff 	lea    -0x1580(%rbp),%rax
   1aca4:	48 89 85 48 f2 ff ff 	mov    %rax,-0xdb8(%rbp)
   1acab:	48 c7 85 50 f2 ff ff 	movq   $0x0,-0xdb0(%rbp)
   1acb2:	00 00 00 00 
   1acb6:	48 8d 85 80 ea ff ff 	lea    -0x1580(%rbp),%rax
   1acbd:	48 89 85 58 f2 ff ff 	mov    %rax,-0xda8(%rbp)
   1acc4:	48 8d 85 80 ea ff ff 	lea    -0x1580(%rbp),%rax
   1accb:	48 89 85 60 f2 ff ff 	mov    %rax,-0xda0(%rbp)
   1acd2:	48 c7 85 68 f2 ff ff 	movq   $0x0,-0xd98(%rbp)
   1acd9:	00 00 00 00 
   1acdd:	48 8d 85 80 ea ff ff 	lea    -0x1580(%rbp),%rax
   1ace4:	48 89 85 70 f2 ff ff 	mov    %rax,-0xd90(%rbp)
   1aceb:	48 8d 85 80 ea ff ff 	lea    -0x1580(%rbp),%rax
   1acf2:	48 83 c0 08          	add    $0x8,%rax
   1acf6:	48 89 85 78 f2 ff ff 	mov    %rax,-0xd88(%rbp)
   1acfd:	48 c7 85 80 f2 ff ff 	movq   $0x0,-0xd80(%rbp)
   1ad04:	00 00 00 00 
   1ad08:	48 8d 85 80 ea ff ff 	lea    -0x1580(%rbp),%rax
   1ad0f:	48 83 c0 08          	add    $0x8,%rax
   1ad13:	48 89 85 88 f2 ff ff 	mov    %rax,-0xd78(%rbp)
   1ad1a:	48 8d 85 80 ea ff ff 	lea    -0x1580(%rbp),%rax
   1ad21:	48 89 85 90 f2 ff ff 	mov    %rax,-0xd70(%rbp)
   1ad28:	48 c7 85 98 f2 ff ff 	movq   $0x0,-0xd68(%rbp)
   1ad2f:	00 00 00 00 
   1ad33:	48 8d 85 80 ea ff ff 	lea    -0x1580(%rbp),%rax
   1ad3a:	48 89 85 a0 f2 ff ff 	mov    %rax,-0xd60(%rbp)
   1ad41:	c7 85 44 e7 ff ff 60 	movl   $0x35193160,-0x18bc(%rbp)
   1ad48:	31 19 35 
   1ad4b:	48 c7 85 40 eb ff ff 	movq   $0x0,-0x14c0(%rbp)
   1ad52:	00 00 00 00 
   1ad56:	48 8d 05 3b a4 00 00 	lea    0xa43b(%rip),%rax        # 25198 <g_77>
   1ad5d:	48 89 85 48 eb ff ff 	mov    %rax,-0x14b8(%rbp)
   1ad64:	48 c7 85 50 eb ff ff 	movq   $0x0,-0x14b0(%rbp)
   1ad6b:	00 00 00 00 
   1ad6f:	48 c7 85 58 eb ff ff 	movq   $0x0,-0x14a8(%rbp)
   1ad76:	00 00 00 00 
   1ad7a:	48 8d 05 17 a4 00 00 	lea    0xa417(%rip),%rax        # 25198 <g_77>
   1ad81:	48 89 85 60 eb ff ff 	mov    %rax,-0x14a0(%rbp)
   1ad88:	48 c7 85 68 eb ff ff 	movq   $0x0,-0x1498(%rbp)
   1ad8f:	00 00 00 00 
   1ad93:	48 c7 85 70 eb ff ff 	movq   $0x0,-0x1490(%rbp)
   1ad9a:	00 00 00 00 
   1ad9e:	48 8d 05 f3 a3 00 00 	lea    0xa3f3(%rip),%rax        # 25198 <g_77>
   1ada5:	48 89 85 78 eb ff ff 	mov    %rax,-0x1488(%rbp)
   1adac:	48 c7 85 80 eb ff ff 	movq   $0x0,-0x1480(%rbp)
   1adb3:	00 00 00 00 
   1adb7:	c7 85 f4 e6 ff ff 6c 	movl   $0x7e2d3e6c,-0x190c(%rbp)
   1adbe:	3e 2d 7e 
   1adc1:	c7 85 48 e7 ff ff f9 	movl   $0xfffffff9,-0x18b8(%rbp)
   1adc8:	ff ff ff 
   1adcb:	c7 85 f8 e6 ff ff b0 	movl   $0xbd1964b0,-0x1908(%rbp)
   1add2:	64 19 bd 
   1add5:	48 8d 85 b0 f2 ff ff 	lea    -0xd50(%rbp),%rax
   1addc:	48 8d 15 9d 6e 00 00 	lea    0x6e9d(%rip),%rdx        # 21c80 <g_1206+0xc20>
   1ade3:	b9 3f 00 00 00       	mov    $0x3f,%ecx
   1ade8:	48 89 c7             	mov    %rax,%rdi
   1adeb:	48 89 d6             	mov    %rdx,%rsi
   1adee:	f3 48 a5             	rep movsq %ds:(%rsi),%es:(%rdi)
   1adf1:	c7 85 4c e7 ff ff 00 	movl   $0x0,-0x18b4(%rbp)
   1adf8:	00 00 00 
   1adfb:	66 c7 85 dc e6 ff ff 	movw   $0xb718,-0x1924(%rbp)
   1ae02:	18 b7 
   1ae04:	c7 85 fc e6 ff ff 8b 	movl   $0xc14ae88b,-0x1904(%rbp)
   1ae0b:	e8 4a c1 
   1ae0e:	48 8d 05 23 a4 00 00 	lea    0xa423(%rip),%rax        # 25238 <g_589>
   1ae15:	48 89 85 10 e8 ff ff 	mov    %rax,-0x17f0(%rbp)
   1ae1c:	48 8d 05 05 dd 00 00 	lea    0xdd05(%rip),%rax        # 28b28 <g_486>
   1ae23:	48 89 85 50 e8 ff ff 	mov    %rax,-0x17b0(%rbp)
   1ae2a:	48 8d 05 d7 a3 00 00 	lea    0xa3d7(%rip),%rax        # 25208 <g_133+0x48>
   1ae31:	48 89 85 90 eb ff ff 	mov    %rax,-0x1470(%rbp)
   1ae38:	48 8d 05 c9 a3 00 00 	lea    0xa3c9(%rip),%rax        # 25208 <g_133+0x48>
   1ae3f:	48 89 85 98 eb ff ff 	mov    %rax,-0x1468(%rbp)
   1ae46:	48 8d 05 bb a3 00 00 	lea    0xa3bb(%rip),%rax        # 25208 <g_133+0x48>
   1ae4d:	48 89 85 a0 eb ff ff 	mov    %rax,-0x1460(%rbp)
   1ae54:	48 8d 05 ad a3 00 00 	lea    0xa3ad(%rip),%rax        # 25208 <g_133+0x48>
   1ae5b:	48 89 85 a8 eb ff ff 	mov    %rax,-0x1458(%rbp)
   1ae62:	48 8d 05 9f a3 00 00 	lea    0xa39f(%rip),%rax        # 25208 <g_133+0x48>
   1ae69:	48 89 85 b0 eb ff ff 	mov    %rax,-0x1450(%rbp)
   1ae70:	48 8d 05 91 a3 00 00 	lea    0xa391(%rip),%rax        # 25208 <g_133+0x48>
   1ae77:	48 89 85 b8 eb ff ff 	mov    %rax,-0x1448(%rbp)
   1ae7e:	48 8d 05 83 a3 00 00 	lea    0xa383(%rip),%rax        # 25208 <g_133+0x48>
   1ae85:	48 89 85 c0 eb ff ff 	mov    %rax,-0x1440(%rbp)
   1ae8c:	48 8d 05 75 a3 00 00 	lea    0xa375(%rip),%rax        # 25208 <g_133+0x48>
   1ae93:	48 89 85 c8 eb ff ff 	mov    %rax,-0x1438(%rbp)
   1ae9a:	48 8d 05 67 a3 00 00 	lea    0xa367(%rip),%rax        # 25208 <g_133+0x48>
   1aea1:	48 89 85 d0 eb ff ff 	mov    %rax,-0x1430(%rbp)
   1aea8:	48 8d 05 59 a3 00 00 	lea    0xa359(%rip),%rax        # 25208 <g_133+0x48>
   1aeaf:	48 89 85 d8 eb ff ff 	mov    %rax,-0x1428(%rbp)
   1aeb6:	48 c7 85 18 e8 ff ff 	movq   $0x0,-0x17e8(%rbp)
   1aebd:	00 00 00 00 
   1aec1:	c7 85 50 e7 ff ff ff 	movl   $0xffffffff,-0x18b0(%rbp)
   1aec8:	ff ff ff 
   1aecb:	48 8d 05 5e df 00 00 	lea    0xdf5e(%rip),%rax        # 28e30 <g_857>
   1aed2:	48 89 85 58 e8 ff ff 	mov    %rax,-0x17a8(%rbp)
   1aed9:	48 8d 05 a0 f1 00 00 	lea    0xf1a0(%rip),%rax        # 2a080 <g_346>
   1aee0:	48 89 85 60 e8 ff ff 	mov    %rax,-0x17a0(%rbp)
   1aee7:	c7 85 54 e7 ff ff af 	movl   $0x8bc14aaf,-0x18ac(%rbp)
   1aeee:	4a c1 8b 
   1aef1:	48 8d 05 d8 d1 00 00 	lea    0xd1d8(%rip),%rax        # 280d0 <g_42+0x3b0>
   1aef8:	48 89 85 68 e8 ff ff 	mov    %rax,-0x1798(%rbp)
   1aeff:	48 c7 85 70 e8 ff ff 	movq   $0xfffffffffffffffb,-0x1790(%rbp)
   1af06:	fb ff ff ff 
   1af0a:	c7 85 58 e7 ff ff 5c 	movl   $0xa9b9255c,-0x18a8(%rbp)
   1af11:	25 b9 a9 
   1af14:	c7 85 08 e7 ff ff 00 	movl   $0x0,-0x18f8(%rbp)
   1af1b:	00 00 00 
   1af1e:	eb 42                	jmp    1af62 <func_27+0x640>
   1af20:	c7 85 0c e7 ff ff 00 	movl   $0x0,-0x18f4(%rbp)
   1af27:	00 00 00 
   1af2a:	eb 26                	jmp    1af52 <func_27+0x630>
   1af2c:	8b 85 0c e7 ff ff    	mov    -0x18f4(%rbp),%eax
   1af32:	48 63 d0             	movslq %eax,%rdx
   1af35:	8b 85 08 e7 ff ff    	mov    -0x18f8(%rbp),%eax
   1af3b:	48 98                	cltq   
   1af3d:	48 01 d0             	add    %rdx,%rax
   1af40:	c7 84 85 18 ea ff ff 	movl   $0xfffffffd,-0x15e8(%rbp,%rax,4)
   1af47:	fd ff ff ff 
   1af4b:	83 85 0c e7 ff ff 01 	addl   $0x1,-0x18f4(%rbp)
   1af52:	83 bd 0c e7 ff ff 00 	cmpl   $0x0,-0x18f4(%rbp)
   1af59:	7e d1                	jle    1af2c <func_27+0x60a>
   1af5b:	83 85 08 e7 ff ff 01 	addl   $0x1,-0x18f8(%rbp)
   1af62:	83 bd 08 e7 ff ff 02 	cmpl   $0x2,-0x18f8(%rbp)
   1af69:	7e b5                	jle    1af20 <func_27+0x5fe>
   1af6b:	c7 85 08 e7 ff ff 00 	movl   $0x0,-0x18f8(%rbp)
   1af72:	00 00 00 
   1af75:	eb 14                	jmp    1af8b <func_27+0x669>
   1af77:	8b 85 08 e7 ff ff    	mov    -0x18f8(%rbp),%eax
   1af7d:	48 98                	cltq   
   1af7f:	c6 44 05 c1 00       	movb   $0x0,-0x3f(%rbp,%rax,1)
   1af84:	83 85 08 e7 ff ff 01 	addl   $0x1,-0x18f8(%rbp)
   1af8b:	83 bd 08 e7 ff ff 06 	cmpl   $0x6,-0x18f8(%rbp)
   1af92:	7e e3                	jle    1af77 <func_27+0x655>
   1af94:	8b 85 f4 e6 ff ff    	mov    -0x190c(%rbp),%eax
   1af9a:	0f b7 d8             	movzwl %ax,%ebx
   1af9d:	8b 85 48 e7 ff ff    	mov    -0x18b8(%rbp),%eax
   1afa3:	44 0f b6 e0          	movzbl %al,%r12d
   1afa7:	8b 85 f4 e6 ff ff    	mov    -0x190c(%rbp),%eax
   1afad:	0f be d0             	movsbl %al,%edx
   1afb0:	48 8b 85 78 f2 ff ff 	mov    -0xd88(%rbp),%rax
   1afb7:	48 85 c0             	test   %rax,%rax
   1afba:	0f 95 c0             	setne  %al
   1afbd:	0f b6 c0             	movzbl %al,%eax
   1afc0:	89 85 44 e7 ff ff    	mov    %eax,-0x18bc(%rbp)
   1afc6:	8b 85 44 e7 ff ff    	mov    -0x18bc(%rbp),%eax
   1afcc:	83 c8 01             	or     $0x1,%eax
   1afcf:	89 c1                	mov    %eax,%ecx
   1afd1:	0f b6 05 c0 a1 00 00 	movzbl 0xa1c0(%rip),%eax        # 25198 <g_77>
   1afd8:	21 c8                	and    %ecx,%eax
   1afda:	88 05 b8 a1 00 00    	mov    %al,0xa1b8(%rip)        # 25198 <g_77>
   1afe0:	0f b6 05 b1 a1 00 00 	movzbl 0xa1b1(%rip),%eax        # 25198 <g_77>
   1afe7:	0f be c0             	movsbl %al,%eax
   1afea:	89 d6                	mov    %edx,%esi
   1afec:	89 c7                	mov    %eax,%edi
   1afee:	e8 ff 21 ff ff       	callq  d1f2 <safe_sub_func_int8_t_s_s>
   1aff3:	0f be d0             	movsbl %al,%edx
   1aff6:	48 8b 85 08 e8 ff ff 	mov    -0x17f8(%rbp),%rax
   1affd:	48 85 c0             	test   %rax,%rax
   1b000:	0f 94 c0             	sete   %al
   1b003:	0f b6 c0             	movzbl %al,%eax
   1b006:	89 d6                	mov    %edx,%esi
   1b008:	89 c7                	mov    %eax,%edi
   1b00a:	e8 f0 26 ff ff       	callq  d6ff <safe_div_func_int32_t_s_s>
   1b00f:	89 c2                	mov    %eax,%edx
   1b011:	48 8b 05 00 db 00 00 	mov    0xdb00(%rip),%rax        # 28b18 <g_488>
   1b018:	0f b6 00             	movzbl (%rax),%eax
   1b01b:	89 c1                	mov    %eax,%ecx
   1b01d:	89 d0                	mov    %edx,%eax
   1b01f:	31 c1                	xor    %eax,%ecx
   1b021:	89 ca                	mov    %ecx,%edx
   1b023:	48 8b 05 ee da 00 00 	mov    0xdaee(%rip),%rax        # 28b18 <g_488>
   1b02a:	88 10                	mov    %dl,(%rax)
   1b02c:	0f b6 00             	movzbl (%rax),%eax
   1b02f:	0f b6 c0             	movzbl %al,%eax
   1b032:	44 89 e6             	mov    %r12d,%esi
   1b035:	89 c7                	mov    %eax,%edi
   1b037:	e8 9f 2b ff ff       	callq  dbdb <safe_div_func_uint8_t_u_u>
   1b03c:	0f b6 c0             	movzbl %al,%eax
   1b03f:	89 de                	mov    %ebx,%esi
   1b041:	89 c7                	mov    %eax,%edi
   1b043:	e8 d7 2c ff ff       	callq  dd1f <safe_sub_func_uint16_t_u_u>
   1b048:	0f b7 c0             	movzwl %ax,%eax
   1b04b:	48 39 85 c8 e6 ff ff 	cmp    %rax,-0x1938(%rbp)
   1b052:	0f 92 c0             	setb   %al
   1b055:	0f b6 c0             	movzbl %al,%eax
   1b058:	89 c7                	mov    %eax,%edi
   1b05a:	e8 e6 2a ff ff       	callq  db45 <safe_unary_minus_func_uint8_t_u>
   1b05f:	84 c0                	test   %al,%al
   1b061:	0f 84 da 35 00 00    	je     1e641 <func_27+0x3d1f>
   1b067:	c7 85 80 e7 ff ff 07 	movl   $0x7,-0x1880(%rbp)
   1b06e:	00 00 00 
   1b071:	48 8d 85 20 ef ff ff 	lea    -0x10e0(%rbp),%rax
   1b078:	48 8d 15 81 bf 00 00 	lea    0xbf81(%rip),%rdx        # 27000 <g_3117+0x1c34>
   1b07f:	b9 31 00 00 00       	mov    $0x31,%ecx
   1b084:	48 89 c7             	mov    %rax,%rdi
   1b087:	48 89 d6             	mov    %rdx,%rsi
   1b08a:	f3 48 a5             	rep movsq %ds:(%rsi),%es:(%rdi)
   1b08d:	c6 85 d3 e6 ff ff 00 	movb   $0x0,-0x192d(%rbp)
   1b094:	c6 85 d5 e6 ff ff 01 	movb   $0x1,-0x192b(%rbp)
   1b09b:	48 8d 05 1e d2 00 00 	lea    0xd21e(%rip),%rax        # 282c0 <g_61>
   1b0a2:	48 89 85 20 e8 ff ff 	mov    %rax,-0x17e0(%rbp)
   1b0a9:	c7 85 00 e7 ff ff ff 	movl   $0xffffffff,-0x1900(%rbp)
   1b0b0:	ff ff ff 
   1b0b3:	66 c7 85 e2 e6 ff ff 	movw   $0xfff9,-0x191e(%rbp)
   1b0ba:	f9 ff 
   1b0bc:	48 8d 05 bd ef 00 00 	lea    0xefbd(%rip),%rax        # 2a080 <g_346>
   1b0c3:	48 89 85 98 e8 ff ff 	mov    %rax,-0x1768(%rbp)
   1b0ca:	c7 85 10 e7 ff ff 08 	movl   $0x8,-0x18f0(%rbp)
   1b0d1:	00 00 00 
   1b0d4:	48 b8 c4 1b bc df e3 	movabs $0x661a9fe3dfbc1bc4,%rax
   1b0db:	9f 1a 66 
   1b0de:	48 89 85 28 e8 ff ff 	mov    %rax,-0x17d8(%rbp)
   1b0e5:	c7 85 84 e7 ff ff f6 	movl   $0xfffffff6,-0x187c(%rbp)
   1b0ec:	ff ff ff 
   1b0ef:	66 c7 85 e4 e6 ff ff 	movw   $0xeaef,-0x191c(%rbp)
   1b0f6:	ef ea 
   1b0f8:	48 8d 05 29 da 00 00 	lea    0xda29(%rip),%rax        # 28b28 <g_486>
   1b0ff:	48 89 85 a0 e8 ff ff 	mov    %rax,-0x1760(%rbp)
   1b106:	c7 85 88 e7 ff ff fb 	movl   $0xfffffffb,-0x1878(%rbp)
   1b10d:	ff ff ff 
   1b110:	c7 85 14 e7 ff ff 00 	movl   $0x0,-0x18ec(%rbp)
   1b117:	00 00 00 
   1b11a:	eb 77                	jmp    1b193 <func_27+0x871>
   1b11c:	c7 85 18 e7 ff ff 00 	movl   $0x0,-0x18e8(%rbp)
   1b123:	00 00 00 
   1b126:	eb 5b                	jmp    1b183 <func_27+0x861>
   1b128:	c7 85 1c e7 ff ff 00 	movl   $0x0,-0x18e4(%rbp)
   1b12f:	00 00 00 
   1b132:	eb 3f                	jmp    1b173 <func_27+0x851>
   1b134:	8b 85 1c e7 ff ff    	mov    -0x18e4(%rbp),%eax
   1b13a:	48 63 c8             	movslq %eax,%rcx
   1b13d:	8b 85 14 e7 ff ff    	mov    -0x18ec(%rbp),%eax
   1b143:	48 63 d0             	movslq %eax,%rdx
   1b146:	8b 85 18 e7 ff ff    	mov    -0x18e8(%rbp),%eax
   1b14c:	48 98                	cltq   
   1b14e:	48 01 c2             	add    %rax,%rdx
   1b151:	48 89 d0             	mov    %rdx,%rax
   1b154:	48 c1 e0 02          	shl    $0x2,%rax
   1b158:	48 01 d0             	add    %rdx,%rax
   1b15b:	48 01 c0             	add    %rax,%rax
   1b15e:	48 01 c8             	add    %rcx,%rax
   1b161:	c7 84 85 e0 ec ff ff 	movl   $0x5,-0x1320(%rbp,%rax,4)
   1b168:	05 00 00 00 
   1b16c:	83 85 1c e7 ff ff 01 	addl   $0x1,-0x18e4(%rbp)
   1b173:	83 bd 1c e7 ff ff 09 	cmpl   $0x9,-0x18e4(%rbp)
   1b17a:	7e b8                	jle    1b134 <func_27+0x812>
   1b17c:	83 85 18 e7 ff ff 01 	addl   $0x1,-0x18e8(%rbp)
   1b183:	83 bd 18 e7 ff ff 00 	cmpl   $0x0,-0x18e8(%rbp)
   1b18a:	7e 9c                	jle    1b128 <func_27+0x806>
   1b18c:	83 85 14 e7 ff ff 01 	addl   $0x1,-0x18ec(%rbp)
   1b193:	83 bd 14 e7 ff ff 06 	cmpl   $0x6,-0x18ec(%rbp)
   1b19a:	7e 80                	jle    1b11c <func_27+0x7fa>
   1b19c:	c7 05 7e 9e 00 00 00 	movl   $0x0,0x9e7e(%rip)        # 25024 <g_17>
   1b1a3:	00 00 00 
   1b1a6:	e9 90 00 00 00       	jmpq   1b23b <func_27+0x919>
   1b1ab:	48 8d 05 ea 9f 00 00 	lea    0x9fea(%rip),%rax        # 2519c <g_104>
   1b1b2:	48 89 85 f8 e9 ff ff 	mov    %rax,-0x1608(%rbp)
   1b1b9:	48 8d 05 b0 db 00 00 	lea    0xdbb0(%rip),%rax        # 28d70 <g_699>
   1b1c0:	48 89 85 00 ea ff ff 	mov    %rax,-0x1600(%rbp)
   1b1c7:	c7 85 20 e7 ff ff 00 	movl   $0x0,-0x18e0(%rbp)
   1b1ce:	00 00 00 
   1b1d1:	eb 1a                	jmp    1b1ed <func_27+0x8cb>
   1b1d3:	8b 85 20 e7 ff ff    	mov    -0x18e0(%rbp),%eax
   1b1d9:	48 98                	cltq   
   1b1db:	c7 84 85 10 f8 ff ff 	movl   $0x0,-0x7f0(%rbp,%rax,4)
   1b1e2:	00 00 00 00 
   1b1e6:	83 85 20 e7 ff ff 01 	addl   $0x1,-0x18e0(%rbp)
   1b1ed:	83 bd 20 e7 ff ff 08 	cmpl   $0x8,-0x18e0(%rbp)
   1b1f4:	7e dd                	jle    1b1d3 <func_27+0x8b1>
   1b1f6:	8b 95 30 f8 ff ff    	mov    -0x7d0(%rbp),%edx
   1b1fc:	48 8b 85 78 ef ff ff 	mov    -0x1088(%rbp),%rax
   1b203:	48 8d 0d 12 a0 00 00 	lea    0xa012(%rip),%rcx        # 2521c <g_263>
   1b20a:	48 39 c8             	cmp    %rcx,%rax
   1b20d:	0f 94 c0             	sete   %al
   1b210:	0f b6 c0             	movzbl %al,%eax
   1b213:	21 d0                	and    %edx,%eax
   1b215:	89 85 30 f8 ff ff    	mov    %eax,-0x7d0(%rbp)
   1b21b:	48 8b 85 00 ea ff ff 	mov    -0x1600(%rbp),%rax
   1b222:	48 8b 95 f8 e9 ff ff 	mov    -0x1608(%rbp),%rdx
   1b229:	48 89 10             	mov    %rdx,(%rax)
   1b22c:	8b 05 f2 9d 00 00    	mov    0x9df2(%rip),%eax        # 25024 <g_17>
   1b232:	83 c0 01             	add    $0x1,%eax
   1b235:	89 05 e9 9d 00 00    	mov    %eax,0x9de9(%rip)        # 25024 <g_17>
   1b23b:	8b 05 e3 9d 00 00    	mov    0x9de3(%rip),%eax        # 25024 <g_17>
   1b241:	83 f8 1a             	cmp    $0x1a,%eax
   1b244:	0f 8f 61 ff ff ff    	jg     1b1ab <func_27+0x889>
   1b24a:	0f b6 85 d3 e6 ff ff 	movzbl -0x192d(%rbp),%eax
   1b251:	84 c0                	test   %al,%al
   1b253:	0f 84 56 05 00 00    	je     1b7af <func_27+0xe8d>
   1b259:	48 8d 85 80 ea ff ff 	lea    -0x1580(%rbp),%rax
   1b260:	48 83 c0 10          	add    $0x10,%rax
   1b264:	48 89 85 b0 f4 ff ff 	mov    %rax,-0xb50(%rbp)
   1b26b:	48 8d 85 80 ea ff ff 	lea    -0x1580(%rbp),%rax
   1b272:	48 83 c0 10          	add    $0x10,%rax
   1b276:	48 89 85 b8 f4 ff ff 	mov    %rax,-0xb48(%rbp)
   1b27d:	48 8d 85 80 ea ff ff 	lea    -0x1580(%rbp),%rax
   1b284:	48 83 c0 10          	add    $0x10,%rax
   1b288:	48 89 85 c0 f4 ff ff 	mov    %rax,-0xb40(%rbp)
   1b28f:	48 8d 85 80 ea ff ff 	lea    -0x1580(%rbp),%rax
   1b296:	48 83 c0 10          	add    $0x10,%rax
   1b29a:	48 89 85 c8 f4 ff ff 	mov    %rax,-0xb38(%rbp)
   1b2a1:	48 8d 85 80 ea ff ff 	lea    -0x1580(%rbp),%rax
   1b2a8:	48 83 c0 10          	add    $0x10,%rax
   1b2ac:	48 89 85 d0 f4 ff ff 	mov    %rax,-0xb30(%rbp)
   1b2b3:	48 8d 85 80 ea ff ff 	lea    -0x1580(%rbp),%rax
   1b2ba:	48 83 c0 10          	add    $0x10,%rax
   1b2be:	48 89 85 d8 f4 ff ff 	mov    %rax,-0xb28(%rbp)
   1b2c5:	48 8d 85 80 ea ff ff 	lea    -0x1580(%rbp),%rax
   1b2cc:	48 83 c0 10          	add    $0x10,%rax
   1b2d0:	48 89 85 e0 f4 ff ff 	mov    %rax,-0xb20(%rbp)
   1b2d7:	48 8d 85 80 ea ff ff 	lea    -0x1580(%rbp),%rax
   1b2de:	48 83 c0 10          	add    $0x10,%rax
   1b2e2:	48 89 85 e8 f4 ff ff 	mov    %rax,-0xb18(%rbp)
   1b2e9:	48 8d 85 80 ea ff ff 	lea    -0x1580(%rbp),%rax
   1b2f0:	48 83 c0 10          	add    $0x10,%rax
   1b2f4:	48 89 85 f0 f4 ff ff 	mov    %rax,-0xb10(%rbp)
   1b2fb:	48 8d 85 80 ea ff ff 	lea    -0x1580(%rbp),%rax
   1b302:	48 83 c0 10          	add    $0x10,%rax
   1b306:	48 89 85 f8 f4 ff ff 	mov    %rax,-0xb08(%rbp)
   1b30d:	48 8d 85 80 ea ff ff 	lea    -0x1580(%rbp),%rax
   1b314:	48 83 c0 10          	add    $0x10,%rax
   1b318:	48 89 85 00 f5 ff ff 	mov    %rax,-0xb00(%rbp)
   1b31f:	48 8d 85 80 ea ff ff 	lea    -0x1580(%rbp),%rax
   1b326:	48 83 c0 10          	add    $0x10,%rax
   1b32a:	48 89 85 08 f5 ff ff 	mov    %rax,-0xaf8(%rbp)
   1b331:	48 8d 85 80 ea ff ff 	lea    -0x1580(%rbp),%rax
   1b338:	48 83 c0 10          	add    $0x10,%rax
   1b33c:	48 89 85 10 f5 ff ff 	mov    %rax,-0xaf0(%rbp)
   1b343:	48 8d 85 80 ea ff ff 	lea    -0x1580(%rbp),%rax
   1b34a:	48 83 c0 10          	add    $0x10,%rax
   1b34e:	48 89 85 18 f5 ff ff 	mov    %rax,-0xae8(%rbp)
   1b355:	48 8d 85 80 ea ff ff 	lea    -0x1580(%rbp),%rax
   1b35c:	48 83 c0 10          	add    $0x10,%rax
   1b360:	48 89 85 20 f5 ff ff 	mov    %rax,-0xae0(%rbp)
   1b367:	48 8d 85 80 ea ff ff 	lea    -0x1580(%rbp),%rax
   1b36e:	48 83 c0 10          	add    $0x10,%rax
   1b372:	48 89 85 28 f5 ff ff 	mov    %rax,-0xad8(%rbp)
   1b379:	48 8d 85 80 ea ff ff 	lea    -0x1580(%rbp),%rax
   1b380:	48 83 c0 10          	add    $0x10,%rax
   1b384:	48 89 85 30 f5 ff ff 	mov    %rax,-0xad0(%rbp)
   1b38b:	48 8d 85 80 ea ff ff 	lea    -0x1580(%rbp),%rax
   1b392:	48 83 c0 10          	add    $0x10,%rax
   1b396:	48 89 85 38 f5 ff ff 	mov    %rax,-0xac8(%rbp)
   1b39d:	48 8d 85 80 ea ff ff 	lea    -0x1580(%rbp),%rax
   1b3a4:	48 83 c0 10          	add    $0x10,%rax
   1b3a8:	48 89 85 40 f5 ff ff 	mov    %rax,-0xac0(%rbp)
   1b3af:	48 8d 85 80 ea ff ff 	lea    -0x1580(%rbp),%rax
   1b3b6:	48 83 c0 10          	add    $0x10,%rax
   1b3ba:	48 89 85 48 f5 ff ff 	mov    %rax,-0xab8(%rbp)
   1b3c1:	48 8d 85 d3 e6 ff ff 	lea    -0x192d(%rbp),%rax
   1b3c8:	48 89 85 10 e9 ff ff 	mov    %rax,-0x16f0(%rbp)
   1b3cf:	c6 85 d8 e6 ff ff 00 	movb   $0x0,-0x1928(%rbp)
   1b3d6:	c7 85 e0 e7 ff ff 88 	movl   $0xcd3caa88,-0x1820(%rbp)
   1b3dd:	aa 3c cd 
   1b3e0:	c7 85 e4 e7 ff ff 00 	movl   $0x0,-0x181c(%rbp)
   1b3e7:	00 00 00 
   1b3ea:	48 8d 85 f4 e6 ff ff 	lea    -0x190c(%rbp),%rax
   1b3f1:	48 89 85 18 e9 ff ff 	mov    %rax,-0x16e8(%rbp)
   1b3f8:	48 8d 05 91 9d 00 00 	lea    0x9d91(%rip),%rax        # 25190 <g_66>
   1b3ff:	48 89 85 10 f8 ff ff 	mov    %rax,-0x7f0(%rbp)
   1b406:	48 8d 05 83 9d 00 00 	lea    0x9d83(%rip),%rax        # 25190 <g_66>
   1b40d:	48 89 85 18 f8 ff ff 	mov    %rax,-0x7e8(%rbp)
   1b414:	48 8d 05 75 9d 00 00 	lea    0x9d75(%rip),%rax        # 25190 <g_66>
   1b41b:	48 89 85 20 f8 ff ff 	mov    %rax,-0x7e0(%rbp)
   1b422:	48 8d 05 67 9d 00 00 	lea    0x9d67(%rip),%rax        # 25190 <g_66>
   1b429:	48 89 85 28 f8 ff ff 	mov    %rax,-0x7d8(%rbp)
   1b430:	48 8d 05 59 9d 00 00 	lea    0x9d59(%rip),%rax        # 25190 <g_66>
   1b437:	48 89 85 30 f8 ff ff 	mov    %rax,-0x7d0(%rbp)
   1b43e:	48 c7 85 38 f8 ff ff 	movq   $0x0,-0x7c8(%rbp)
   1b445:	00 00 00 00 
   1b449:	48 8d 05 40 9d 00 00 	lea    0x9d40(%rip),%rax        # 25190 <g_66>
   1b450:	48 89 85 40 f8 ff ff 	mov    %rax,-0x7c0(%rbp)
   1b457:	48 8d 05 32 9d 00 00 	lea    0x9d32(%rip),%rax        # 25190 <g_66>
   1b45e:	48 89 85 48 f8 ff ff 	mov    %rax,-0x7b8(%rbp)
   1b465:	48 8d 05 24 9d 00 00 	lea    0x9d24(%rip),%rax        # 25190 <g_66>
   1b46c:	48 89 85 50 f8 ff ff 	mov    %rax,-0x7b0(%rbp)
   1b473:	48 8d 05 16 9d 00 00 	lea    0x9d16(%rip),%rax        # 25190 <g_66>
   1b47a:	48 89 85 58 f8 ff ff 	mov    %rax,-0x7a8(%rbp)
   1b481:	48 8d 05 08 9d 00 00 	lea    0x9d08(%rip),%rax        # 25190 <g_66>
   1b488:	48 89 85 60 f8 ff ff 	mov    %rax,-0x7a0(%rbp)
   1b48f:	48 8d 05 fa 9c 00 00 	lea    0x9cfa(%rip),%rax        # 25190 <g_66>
   1b496:	48 89 85 68 f8 ff ff 	mov    %rax,-0x798(%rbp)
   1b49d:	48 8d 05 ec 9c 00 00 	lea    0x9cec(%rip),%rax        # 25190 <g_66>
   1b4a4:	48 89 85 70 f8 ff ff 	mov    %rax,-0x790(%rbp)
   1b4ab:	48 8d 05 de 9c 00 00 	lea    0x9cde(%rip),%rax        # 25190 <g_66>
   1b4b2:	48 89 85 78 f8 ff ff 	mov    %rax,-0x788(%rbp)
   1b4b9:	48 8d 05 d0 9c 00 00 	lea    0x9cd0(%rip),%rax        # 25190 <g_66>
   1b4c0:	48 89 85 80 f8 ff ff 	mov    %rax,-0x780(%rbp)
   1b4c7:	48 8d 05 c2 9c 00 00 	lea    0x9cc2(%rip),%rax        # 25190 <g_66>
   1b4ce:	48 89 85 88 f8 ff ff 	mov    %rax,-0x778(%rbp)
   1b4d5:	48 8d 05 b4 9c 00 00 	lea    0x9cb4(%rip),%rax        # 25190 <g_66>
   1b4dc:	48 89 85 90 f8 ff ff 	mov    %rax,-0x770(%rbp)
   1b4e3:	48 c7 85 98 f8 ff ff 	movq   $0x0,-0x768(%rbp)
   1b4ea:	00 00 00 00 
   1b4ee:	48 c7 85 a0 f8 ff ff 	movq   $0x0,-0x760(%rbp)
   1b4f5:	00 00 00 00 
   1b4f9:	48 8d 05 90 9c 00 00 	lea    0x9c90(%rip),%rax        # 25190 <g_66>
   1b500:	48 89 85 a8 f8 ff ff 	mov    %rax,-0x758(%rbp)
   1b507:	48 8d 05 82 9c 00 00 	lea    0x9c82(%rip),%rax        # 25190 <g_66>
   1b50e:	48 89 85 b0 f8 ff ff 	mov    %rax,-0x750(%rbp)
   1b515:	48 8d 05 74 9c 00 00 	lea    0x9c74(%rip),%rax        # 25190 <g_66>
   1b51c:	48 89 85 b8 f8 ff ff 	mov    %rax,-0x748(%rbp)
   1b523:	48 c7 85 c0 f8 ff ff 	movq   $0x0,-0x740(%rbp)
   1b52a:	00 00 00 00 
   1b52e:	48 8d 05 5b 9c 00 00 	lea    0x9c5b(%rip),%rax        # 25190 <g_66>
   1b535:	48 89 85 c8 f8 ff ff 	mov    %rax,-0x738(%rbp)
   1b53c:	48 8d 05 4d 9c 00 00 	lea    0x9c4d(%rip),%rax        # 25190 <g_66>
   1b543:	48 89 85 d0 f8 ff ff 	mov    %rax,-0x730(%rbp)
   1b54a:	48 8d 05 3f 9c 00 00 	lea    0x9c3f(%rip),%rax        # 25190 <g_66>
   1b551:	48 89 85 d8 f8 ff ff 	mov    %rax,-0x728(%rbp)
   1b558:	48 8d 05 31 9c 00 00 	lea    0x9c31(%rip),%rax        # 25190 <g_66>
   1b55f:	48 89 85 e0 f8 ff ff 	mov    %rax,-0x720(%rbp)
   1b566:	48 8d 05 23 9c 00 00 	lea    0x9c23(%rip),%rax        # 25190 <g_66>
   1b56d:	48 89 85 e8 f8 ff ff 	mov    %rax,-0x718(%rbp)
   1b574:	48 8d 05 15 9c 00 00 	lea    0x9c15(%rip),%rax        # 25190 <g_66>
   1b57b:	48 89 85 f0 f8 ff ff 	mov    %rax,-0x710(%rbp)
   1b582:	48 c7 85 f8 f8 ff ff 	movq   $0x0,-0x708(%rbp)
   1b589:	00 00 00 00 
   1b58d:	48 8d 05 fc 9b 00 00 	lea    0x9bfc(%rip),%rax        # 25190 <g_66>
   1b594:	48 89 85 00 f9 ff ff 	mov    %rax,-0x700(%rbp)
   1b59b:	48 8d 05 ee 9b 00 00 	lea    0x9bee(%rip),%rax        # 25190 <g_66>
   1b5a2:	48 89 85 08 f9 ff ff 	mov    %rax,-0x6f8(%rbp)
   1b5a9:	48 8d 85 10 f8 ff ff 	lea    -0x7f0(%rbp),%rax
   1b5b0:	48 83 c0 78          	add    $0x78,%rax
   1b5b4:	48 89 85 40 e8 ff ff 	mov    %rax,-0x17c0(%rbp)
   1b5bb:	48 8d 85 40 e8 ff ff 	lea    -0x17c0(%rbp),%rax
   1b5c2:	48 89 85 48 e8 ff ff 	mov    %rax,-0x17b8(%rbp)
   1b5c9:	48 8d 85 48 e8 ff ff 	lea    -0x17b8(%rbp),%rax
   1b5d0:	48 89 85 20 e9 ff ff 	mov    %rax,-0x16e0(%rbp)
   1b5d7:	c7 85 e8 e7 ff ff 01 	movl   $0x1,-0x1818(%rbp)
   1b5de:	00 00 00 
   1b5e1:	66 c7 05 2a 9c 00 00 	movw   $0x0,0x9c2a(%rip)        # 25214 <g_188>
   1b5e8:	00 00 
   1b5ea:	e9 99 01 00 00       	jmpq   1b788 <func_27+0xe66>
   1b5ef:	48 8d 85 20 e8 ff ff 	lea    -0x17e0(%rbp),%rax
   1b5f6:	48 89 85 28 e9 ff ff 	mov    %rax,-0x16d8(%rbp)
   1b5fd:	48 8d 05 8c 9b 00 00 	lea    0x9b8c(%rip),%rax        # 25190 <g_66>
   1b604:	48 89 85 00 ee ff ff 	mov    %rax,-0x1200(%rbp)
   1b60b:	48 8d 05 7e 9b 00 00 	lea    0x9b7e(%rip),%rax        # 25190 <g_66>
   1b612:	48 89 85 08 ee ff ff 	mov    %rax,-0x11f8(%rbp)
   1b619:	48 8d 05 70 9b 00 00 	lea    0x9b70(%rip),%rax        # 25190 <g_66>
   1b620:	48 89 85 10 ee ff ff 	mov    %rax,-0x11f0(%rbp)
   1b627:	48 8d 05 62 9b 00 00 	lea    0x9b62(%rip),%rax        # 25190 <g_66>
   1b62e:	48 89 85 18 ee ff ff 	mov    %rax,-0x11e8(%rbp)
   1b635:	48 8d 05 54 9b 00 00 	lea    0x9b54(%rip),%rax        # 25190 <g_66>
   1b63c:	48 89 85 20 ee ff ff 	mov    %rax,-0x11e0(%rbp)
   1b643:	48 8d 05 46 9b 00 00 	lea    0x9b46(%rip),%rax        # 25190 <g_66>
   1b64a:	48 89 85 28 ee ff ff 	mov    %rax,-0x11d8(%rbp)
   1b651:	48 8d 05 38 9b 00 00 	lea    0x9b38(%rip),%rax        # 25190 <g_66>
   1b658:	48 89 85 30 ee ff ff 	mov    %rax,-0x11d0(%rbp)
   1b65f:	48 8d 05 2a 9b 00 00 	lea    0x9b2a(%rip),%rax        # 25190 <g_66>
   1b666:	48 89 85 38 ee ff ff 	mov    %rax,-0x11c8(%rbp)
   1b66d:	48 8d 05 25 9b 00 00 	lea    0x9b25(%rip),%rax        # 25199 <g_93>
   1b674:	48 89 85 30 e9 ff ff 	mov    %rax,-0x16d0(%rbp)
   1b67b:	c7 85 ec e7 ff ff 00 	movl   $0x0,-0x1814(%rbp)
   1b682:	00 00 00 
   1b685:	c7 85 f0 e7 ff ff ff 	movl   $0xffffffff,-0x1810(%rbp)
   1b68c:	ff ff ff 
   1b68f:	66 c7 05 84 9b 00 00 	movw   $0x5,0x9b84(%rip)        # 2521c <g_263>
   1b696:	05 00 
   1b698:	e9 b2 00 00 00       	jmpq   1b74f <func_27+0xe2d>
   1b69d:	c6 85 d3 e6 ff ff 00 	movb   $0x0,-0x192d(%rbp)
   1b6a4:	eb 76                	jmp    1b71c <func_27+0xdfa>
   1b6a6:	0f b6 85 d3 e6 ff ff 	movzbl -0x192d(%rbp),%eax
   1b6ad:	0f b6 c0             	movzbl %al,%eax
   1b6b0:	0f b7 15 65 9b 00 00 	movzwl 0x9b65(%rip),%edx        # 2521c <g_263>
   1b6b7:	0f bf d2             	movswl %dx,%edx
   1b6ba:	83 c2 01             	add    $0x1,%edx
   1b6bd:	48 8b 8d b0 f4 ff ff 	mov    -0xb50(%rbp),%rcx
   1b6c4:	48 63 f2             	movslq %edx,%rsi
   1b6c7:	48 63 d0             	movslq %eax,%rdx
   1b6ca:	48 89 d0             	mov    %rdx,%rax
   1b6cd:	48 c1 e0 03          	shl    $0x3,%rax
   1b6d1:	48 01 d0             	add    %rdx,%rax
   1b6d4:	48 01 f0             	add    %rsi,%rax
   1b6d7:	48 89 8c c5 b0 f0 ff 	mov    %rcx,-0xf50(%rbp,%rax,8)
   1b6de:	ff 
   1b6df:	0f be 85 d5 e6 ff ff 	movsbl -0x192b(%rbp),%eax
   1b6e6:	89 c6                	mov    %eax,%esi
   1b6e8:	bf fb ff ff ff       	mov    $0xfffffffb,%edi
   1b6ed:	e8 de 27 ff ff       	callq  ded0 <safe_sub_func_uint32_t_u_u>
   1b6f2:	48 8b 15 cf cb 00 00 	mov    0xcbcf(%rip),%rdx        # 282c8 <g_60>
   1b6f9:	48 8b 12             	mov    (%rdx),%rdx
   1b6fc:	8b 12                	mov    (%rdx),%edx
   1b6fe:	09 c2                	or     %eax,%edx
   1b700:	48 8b 05 c1 cb 00 00 	mov    0xcbc1(%rip),%rax        # 282c8 <g_60>
   1b707:	48 8b 00             	mov    (%rax),%rax
   1b70a:	89 10                	mov    %edx,(%rax)
   1b70c:	0f b6 85 d3 e6 ff ff 	movzbl -0x192d(%rbp),%eax
   1b713:	83 c0 01             	add    $0x1,%eax
   1b716:	88 85 d3 e6 ff ff    	mov    %al,-0x192d(%rbp)
   1b71c:	0f b6 85 d3 e6 ff ff 	movzbl -0x192d(%rbp),%eax
   1b723:	3c 06                	cmp    $0x6,%al
   1b725:	0f 86 7b ff ff ff    	jbe    1b6a6 <func_27+0xd84>
   1b72b:	48 8b 05 96 cb 00 00 	mov    0xcb96(%rip),%rax        # 282c8 <g_60>
   1b732:	48 8b 00             	mov    (%rax),%rax
   1b735:	48 8b 95 c8 e6 ff ff 	mov    -0x1938(%rbp),%rdx
   1b73c:	89 10                	mov    %edx,(%rax)
   1b73e:	0f b7 05 d7 9a 00 00 	movzwl 0x9ad7(%rip),%eax        # 2521c <g_263>
   1b745:	83 e8 01             	sub    $0x1,%eax
   1b748:	66 89 05 cd 9a 00 00 	mov    %ax,0x9acd(%rip)        # 2521c <g_263>
   1b74f:	0f b7 05 c6 9a 00 00 	movzwl 0x9ac6(%rip),%eax        # 2521c <g_263>
   1b756:	66 85 c0             	test   %ax,%ax
   1b759:	0f 89 3e ff ff ff    	jns    1b69d <func_27+0xd7b>
   1b75f:	48 8b 05 2a e9 00 00 	mov    0xe92a(%rip),%rax        # 2a090 <g_708>
   1b766:	48 89 05 23 e9 00 00 	mov    %rax,0xe923(%rip)        # 2a090 <g_708>
   1b76d:	0f b7 05 a0 9a 00 00 	movzwl 0x9aa0(%rip),%eax        # 25214 <g_188>
   1b774:	98                   	cwtl   
   1b775:	be 02 00 00 00       	mov    $0x2,%esi
   1b77a:	89 c7                	mov    %eax,%edi
   1b77c:	e8 4f 27 ff ff       	callq  ded0 <safe_sub_func_uint32_t_u_u>
   1b781:	66 89 05 8c 9a 00 00 	mov    %ax,0x9a8c(%rip)        # 25214 <g_188>
   1b788:	0f b7 05 85 9a 00 00 	movzwl 0x9a85(%rip),%eax        # 25214 <g_188>
   1b78f:	66 83 f8 fc          	cmp    $0xfffc,%ax
   1b793:	0f 8c 56 fe ff ff    	jl     1b5ef <func_27+0xccd>
   1b799:	48 8b 05 28 cb 00 00 	mov    0xcb28(%rip),%rax        # 282c8 <g_60>
   1b7a0:	48 8b 00             	mov    (%rax),%rax
   1b7a3:	48 89 85 18 e9 ff ff 	mov    %rax,-0x16e8(%rbp)
   1b7aa:	e9 2b 0b 00 00       	jmpq   1c2da <func_27+0x19b8>
   1b7af:	66 c7 85 b0 f4 ff ff 	movw   $0x9147,-0xb50(%rbp)
   1b7b6:	47 91 
   1b7b8:	66 c7 85 b2 f4 ff ff 	movw   $0xc17b,-0xb4e(%rbp)
   1b7bf:	7b c1 
   1b7c1:	66 c7 85 b4 f4 ff ff 	movw   $0xc17b,-0xb4c(%rbp)
   1b7c8:	7b c1 
   1b7ca:	66 c7 85 b6 f4 ff ff 	movw   $0x9147,-0xb4a(%rbp)
   1b7d1:	47 91 
   1b7d3:	66 c7 85 b8 f4 ff ff 	movw   $0xf0d7,-0xb48(%rbp)
   1b7da:	d7 f0 
   1b7dc:	66 c7 85 ba f4 ff ff 	movw   $0xffff,-0xb46(%rbp)
   1b7e3:	ff ff 
   1b7e5:	66 c7 85 bc f4 ff ff 	movw   $0x192f,-0xb44(%rbp)
   1b7ec:	2f 19 
   1b7ee:	66 c7 85 be f4 ff ff 	movw   $0x9b86,-0xb42(%rbp)
   1b7f5:	86 9b 
   1b7f7:	66 c7 85 c0 f4 ff ff 	movw   $0xffff,-0xb40(%rbp)
   1b7fe:	ff ff 
   1b800:	66 c7 85 c2 f4 ff ff 	movw   $0x9147,-0xb3e(%rbp)
   1b807:	47 91 
   1b809:	66 c7 85 c4 f4 ff ff 	movw   $0xffff,-0xb3c(%rbp)
   1b810:	ff ff 
   1b812:	66 c7 85 c6 f4 ff ff 	movw   $0x66bc,-0xb3a(%rbp)
   1b819:	bc 66 
   1b81b:	66 c7 85 c8 f4 ff ff 	movw   $0x9147,-0xb38(%rbp)
   1b822:	47 91 
   1b824:	66 c7 85 ca f4 ff ff 	movw   $0xffff,-0xb36(%rbp)
   1b82b:	ff ff 
   1b82d:	66 c7 85 cc f4 ff ff 	movw   $0x66bc,-0xb34(%rbp)
   1b834:	bc 66 
   1b836:	66 c7 85 ce f4 ff ff 	movw   $0x0,-0xb32(%rbp)
   1b83d:	00 00 
   1b83f:	66 c7 85 d0 f4 ff ff 	movw   $0xffff,-0xb30(%rbp)
   1b846:	ff ff 
   1b848:	66 c7 85 d2 f4 ff ff 	movw   $0x9b86,-0xb2e(%rbp)
   1b84f:	86 9b 
   1b851:	66 c7 85 d4 f4 ff ff 	movw   $0x2a8d,-0xb2c(%rbp)
   1b858:	8d 2a 
   1b85a:	66 c7 85 d6 f4 ff ff 	movw   $0x9b86,-0xb2a(%rbp)
   1b861:	86 9b 
   1b863:	66 c7 85 d8 f4 ff ff 	movw   $0xf0d7,-0xb28(%rbp)
   1b86a:	d7 f0 
   1b86c:	66 c7 85 da f4 ff ff 	movw   $0x192f,-0xb26(%rbp)
   1b873:	2f 19 
   1b875:	66 c7 85 dc f4 ff ff 	movw   $0xf0d7,-0xb24(%rbp)
   1b87c:	d7 f0 
   1b87e:	66 c7 85 de f4 ff ff 	movw   $0x9b86,-0xb22(%rbp)
   1b885:	86 9b 
   1b887:	66 c7 85 e0 f4 ff ff 	movw   $0x1,-0xb20(%rbp)
   1b88e:	01 00 
   1b890:	66 c7 85 e2 f4 ff ff 	movw   $0xc17b,-0xb1e(%rbp)
   1b897:	7b c1 
   1b899:	66 c7 85 e4 f4 ff ff 	movw   $0x66bc,-0xb1c(%rbp)
   1b8a0:	bc 66 
   1b8a2:	66 c7 85 e6 f4 ff ff 	movw   $0x12b,-0xb1a(%rbp)
   1b8a9:	2b 01 
   1b8ab:	66 c7 85 e8 f4 ff ff 	movw   $0xffff,-0xb18(%rbp)
   1b8b2:	ff ff 
   1b8b4:	66 c7 85 ea f4 ff ff 	movw   $0x66bc,-0xb16(%rbp)
   1b8bb:	bc 66 
   1b8bd:	66 c7 85 ec f4 ff ff 	movw   $0x1,-0xb14(%rbp)
   1b8c4:	01 00 
   1b8c6:	66 c7 85 ee f4 ff ff 	movw   $0xf0d7,-0xb12(%rbp)
   1b8cd:	d7 f0 
   1b8cf:	66 c7 85 f0 f4 ff ff 	movw   $0xffff,-0xb10(%rbp)
   1b8d6:	ff ff 
   1b8d8:	66 c7 85 f2 f4 ff ff 	movw   $0x192f,-0xb0e(%rbp)
   1b8df:	2f 19 
   1b8e1:	66 c7 85 f4 f4 ff ff 	movw   $0x559,-0xb0c(%rbp)
   1b8e8:	59 05 
   1b8ea:	66 c7 85 f6 f4 ff ff 	movw   $0xffff,-0xb0a(%rbp)
   1b8f1:	ff ff 
   1b8f3:	66 c7 85 f8 f4 ff ff 	movw   $0x2a8d,-0xb08(%rbp)
   1b8fa:	8d 2a 
   1b8fc:	66 c7 85 fa f4 ff ff 	movw   $0xf0d7,-0xb06(%rbp)
   1b903:	d7 f0 
   1b905:	66 c7 85 fc f4 ff ff 	movw   $0xc17b,-0xb04(%rbp)
   1b90c:	7b c1 
   1b90e:	66 c7 85 fe f4 ff ff 	movw   $0x0,-0xb02(%rbp)
   1b915:	00 00 
   1b917:	66 c7 85 00 f5 ff ff 	movw   $0xffff,-0xb00(%rbp)
   1b91e:	ff ff 
   1b920:	66 c7 85 02 f5 ff ff 	movw   $0xffff,-0xafe(%rbp)
   1b927:	ff ff 
   1b929:	66 c7 85 04 f5 ff ff 	movw   $0x9147,-0xafc(%rbp)
   1b930:	47 91 
   1b932:	66 c7 85 06 f5 ff ff 	movw   $0xc17b,-0xafa(%rbp)
   1b939:	7b c1 
   1b93b:	66 c7 85 08 f5 ff ff 	movw   $0xc17b,-0xaf8(%rbp)
   1b942:	7b c1 
   1b944:	66 c7 85 0a f5 ff ff 	movw   $0x9147,-0xaf6(%rbp)
   1b94b:	47 91 
   1b94d:	66 c7 85 0c f5 ff ff 	movw   $0xf0d7,-0xaf4(%rbp)
   1b954:	d7 f0 
   1b956:	66 c7 85 0e f5 ff ff 	movw   $0xffff,-0xaf2(%rbp)
   1b95d:	ff ff 
   1b95f:	66 c7 85 10 f5 ff ff 	movw   $0x192f,-0xaf0(%rbp)
   1b966:	2f 19 
   1b968:	66 c7 85 12 f5 ff ff 	movw   $0x9b86,-0xaee(%rbp)
   1b96f:	86 9b 
   1b971:	66 c7 85 14 f5 ff ff 	movw   $0xffff,-0xaec(%rbp)
   1b978:	ff ff 
   1b97a:	66 c7 85 16 f5 ff ff 	movw   $0x9147,-0xaea(%rbp)
   1b981:	47 91 
   1b983:	66 c7 85 18 f5 ff ff 	movw   $0xffff,-0xae8(%rbp)
   1b98a:	ff ff 
   1b98c:	66 c7 85 1a f5 ff ff 	movw   $0x66bc,-0xae6(%rbp)
   1b993:	bc 66 
   1b995:	48 8d 85 08 e8 ff ff 	lea    -0x17f8(%rbp),%rax
   1b99c:	48 89 85 a8 e8 ff ff 	mov    %rax,-0x1758(%rbp)
   1b9a3:	c7 85 30 e8 ff ff d5 	movl   $0xf0ed4fd5,-0x17d0(%rbp)
   1b9aa:	4f ed f0 
   1b9ad:	c7 85 8c e7 ff ff fc 	movl   $0xfffffffc,-0x1874(%rbp)
   1b9b4:	ff ff ff 
   1b9b7:	c7 85 90 e7 ff ff 40 	movl   $0xdefefb40,-0x1870(%rbp)
   1b9be:	fb fe de 
   1b9c1:	c7 85 94 e7 ff ff 01 	movl   $0x1,-0x186c(%rbp)
   1b9c8:	00 00 00 
   1b9cb:	c7 85 98 e7 ff ff b9 	movl   $0x6640dcb9,-0x1868(%rbp)
   1b9d2:	dc 40 66 
   1b9d5:	c7 85 9c e7 ff ff 00 	movl   $0x0,-0x1864(%rbp)
   1b9dc:	00 00 00 
   1b9df:	c7 85 a0 e7 ff ff 00 	movl   $0x0,-0x1860(%rbp)
   1b9e6:	00 00 00 
   1b9e9:	c7 85 a4 e7 ff ff 00 	movl   $0x0,-0x185c(%rbp)
   1b9f0:	00 00 00 
   1b9f3:	c7 85 a8 e7 ff ff f2 	movl   $0x965885f2,-0x1858(%rbp)
   1b9fa:	85 58 96 
   1b9fd:	c7 85 00 eb ff ff de 	movl   $0x89fad6de,-0x1500(%rbp)
   1ba04:	d6 fa 89 
   1ba07:	c7 85 04 eb ff ff 00 	movl   $0x0,-0x14fc(%rbp)
   1ba0e:	00 00 00 
   1ba11:	c7 85 08 eb ff ff 00 	movl   $0x0,-0x14f8(%rbp)
   1ba18:	00 00 00 
   1ba1b:	c7 85 0c eb ff ff de 	movl   $0x89fad6de,-0x14f4(%rbp)
   1ba22:	d6 fa 89 
   1ba25:	c7 85 10 eb ff ff 00 	movl   $0x0,-0x14f0(%rbp)
   1ba2c:	00 00 00 
   1ba2f:	c7 85 14 eb ff ff 00 	movl   $0x0,-0x14ec(%rbp)
   1ba36:	00 00 00 
   1ba39:	c7 85 18 eb ff ff de 	movl   $0x89fad6de,-0x14e8(%rbp)
   1ba40:	d6 fa 89 
   1ba43:	c7 85 ac e7 ff ff 76 	movl   $0x40b10976,-0x1854(%rbp)
   1ba4a:	09 b1 40 
   1ba4d:	48 8d 05 6c c8 00 00 	lea    0xc86c(%rip),%rax        # 282c0 <g_61>
   1ba54:	48 89 85 b0 e8 ff ff 	mov    %rax,-0x1750(%rbp)
   1ba5b:	c7 05 2b 97 00 00 00 	movl   $0x0,0x972b(%rip)        # 25190 <g_66>
   1ba62:	00 00 00 
   1ba65:	e9 50 08 00 00       	jmpq   1c2ba <func_27+0x1998>
   1ba6a:	48 8d 05 af d0 00 00 	lea    0xd0af(%rip),%rax        # 28b20 <g_487>
   1ba71:	48 89 85 b8 e8 ff ff 	mov    %rax,-0x1748(%rbp)
   1ba78:	c7 85 38 e8 ff ff ca 	movl   $0x4cffd8ca,-0x17c8(%rbp)
   1ba7f:	d8 ff 4c 
   1ba82:	c7 85 b0 e7 ff ff ff 	movl   $0xffffffff,-0x1850(%rbp)
   1ba89:	ff ff ff 
   1ba8c:	c7 85 b4 e7 ff ff f6 	movl   $0xfffffff6,-0x184c(%rbp)
   1ba93:	ff ff ff 
   1ba96:	c7 85 b8 e7 ff ff 02 	movl   $0x2,-0x1848(%rbp)
   1ba9d:	00 00 00 
   1baa0:	c7 85 bc e7 ff ff f6 	movl   $0xfffffff6,-0x1844(%rbp)
   1baa7:	ff ff ff 
   1baaa:	c7 85 c0 e7 ff ff 5a 	movl   $0xa3a4e35a,-0x1840(%rbp)
   1bab1:	e3 a4 a3 
   1bab4:	c7 85 c4 e7 ff ff ff 	movl   $0xffffffff,-0x183c(%rbp)
   1babb:	ff ff ff 
   1babe:	c7 85 c8 e7 ff ff ff 	movl   $0xffffffff,-0x1838(%rbp)
   1bac5:	ff ff ff 
   1bac8:	c7 85 c0 ea ff ff a4 	movl   $0xb09ada4,-0x1540(%rbp)
   1bacf:	ad 09 0b 
   1bad2:	c7 85 c4 ea ff ff a4 	movl   $0xb09ada4,-0x153c(%rbp)
   1bad9:	ad 09 0b 
   1badc:	c7 85 c8 ea ff ff a4 	movl   $0xb09ada4,-0x1538(%rbp)
   1bae3:	ad 09 0b 
   1bae6:	c7 85 cc ea ff ff a4 	movl   $0xb09ada4,-0x1534(%rbp)
   1baed:	ad 09 0b 
   1baf0:	c7 85 d0 ea ff ff a4 	movl   $0xb09ada4,-0x1530(%rbp)
   1baf7:	ad 09 0b 
   1bafa:	c7 85 d4 ea ff ff a4 	movl   $0xb09ada4,-0x152c(%rbp)
   1bb01:	ad 09 0b 
   1bb04:	c6 85 d6 e6 ff ff ff 	movb   $0xff,-0x192a(%rbp)
   1bb0b:	c7 85 cc e7 ff ff d4 	movl   $0xa1785fd4,-0x1834(%rbp)
   1bb12:	5f 78 a1 
   1bb15:	c7 05 61 97 00 00 00 	movl   $0x0,0x9761(%rip)        # 25280 <g_895>
   1bb1c:	00 00 00 
   1bb1f:	e9 6d 07 00 00       	jmpq   1c291 <func_27+0x196f>
   1bb24:	c7 85 d0 e7 ff ff 07 	movl   $0x7,-0x1830(%rbp)
   1bb2b:	00 00 00 
   1bb2e:	c7 85 40 e8 ff ff 88 	movl   $0xa4c7ec88,-0x17c0(%rbp)
   1bb35:	ec c7 a4 
   1bb38:	48 c7 85 c0 e8 ff ff 	movq   $0x0,-0x1740(%rbp)
   1bb3f:	00 00 00 00 
   1bb43:	48 8d 05 d6 96 00 00 	lea    0x96d6(%rip),%rax        # 25220 <g_265>
   1bb4a:	48 89 85 c8 e8 ff ff 	mov    %rax,-0x1738(%rbp)
   1bb51:	c7 85 48 e8 ff ff 00 	movl   $0x0,-0x17b8(%rbp)
   1bb58:	00 00 00 
   1bb5b:	48 8d 05 0e d2 00 00 	lea    0xd20e(%rip),%rax        # 28d70 <g_699>
   1bb62:	48 89 85 d0 e8 ff ff 	mov    %rax,-0x1730(%rbp)
   1bb69:	c7 85 e0 eb ff ff 40 	movl   $0x6d400340,-0x1420(%rbp)
   1bb70:	03 40 6d 
   1bb73:	c7 85 e4 eb ff ff 21 	movl   $0x72570b21,-0x141c(%rbp)
   1bb7a:	0b 57 72 
   1bb7d:	c7 85 e8 eb ff ff 21 	movl   $0x72570b21,-0x1418(%rbp)
   1bb84:	0b 57 72 
   1bb87:	c7 85 ec eb ff ff 40 	movl   $0x6d400340,-0x1414(%rbp)
   1bb8e:	03 40 6d 
   1bb91:	c7 85 f0 eb ff ff 21 	movl   $0x72570b21,-0x1410(%rbp)
   1bb98:	0b 57 72 
   1bb9b:	c7 85 f4 eb ff ff 21 	movl   $0x72570b21,-0x140c(%rbp)
   1bba2:	0b 57 72 
   1bba5:	c7 85 f8 eb ff ff 40 	movl   $0x6d400340,-0x1408(%rbp)
   1bbac:	03 40 6d 
   1bbaf:	c7 85 fc eb ff ff 21 	movl   $0x72570b21,-0x1404(%rbp)
   1bbb6:	0b 57 72 
   1bbb9:	c7 85 d4 e7 ff ff 02 	movl   $0xac65d02,-0x182c(%rbp)
   1bbc0:	5d c6 0a 
   1bbc3:	c7 85 d8 e7 ff ff 48 	movl   $0xa9017b48,-0x1828(%rbp)
   1bbca:	7b 01 a9 
   1bbcd:	c7 85 24 e7 ff ff 00 	movl   $0x0,-0x18dc(%rbp)
   1bbd4:	00 00 00 
   1bbd7:	eb 1a                	jmp    1bbf3 <func_27+0x12d1>
   1bbd9:	8b 85 24 e7 ff ff    	mov    -0x18dc(%rbp),%eax
   1bbdf:	48 98                	cltq   
   1bbe1:	c7 84 85 50 ea ff ff 	movl   $0x1,-0x15b0(%rbp,%rax,4)
   1bbe8:	01 00 00 00 
   1bbec:	83 85 24 e7 ff ff 01 	addl   $0x1,-0x18dc(%rbp)
   1bbf3:	83 bd 24 e7 ff ff 01 	cmpl   $0x1,-0x18dc(%rbp)
   1bbfa:	7e dd                	jle    1bbd9 <func_27+0x12b7>
   1bbfc:	0f b7 85 18 f5 ff ff 	movzwl -0xae8(%rbp),%eax
   1bc03:	0f b6 c0             	movzbl %al,%eax
   1bc06:	89 c6                	mov    %eax,%esi
   1bc08:	bf 01 00 00 00       	mov    $0x1,%edi
   1bc0d:	e8 c9 1f ff ff       	callq  dbdb <safe_div_func_uint8_t_u_u>
   1bc12:	3c 04                	cmp    $0x4,%al
   1bc14:	0f 97 c0             	seta   %al
   1bc17:	0f b6 c0             	movzbl %al,%eax
   1bc1a:	48 39 85 c8 e6 ff ff 	cmp    %rax,-0x1938(%rbp)
   1bc21:	0f 92 c0             	setb   %al
   1bc24:	0f b6 d0             	movzbl %al,%edx
   1bc27:	8b 85 00 e7 ff ff    	mov    -0x1900(%rbp),%eax
   1bc2d:	31 d0                	xor    %edx,%eax
   1bc2f:	89 85 00 e7 ff ff    	mov    %eax,-0x1900(%rbp)
   1bc35:	c7 85 d0 e7 ff ff 8b 	movl   $0x14ba628b,-0x1830(%rbp)
   1bc3c:	62 ba 14 
   1bc3f:	48 8b 85 c8 e6 ff ff 	mov    -0x1938(%rbp),%rax
   1bc46:	25 8b 62 ba 14       	and    $0x14ba628b,%eax
   1bc4b:	be 01 00 00 00       	mov    $0x1,%esi
   1bc50:	89 c7                	mov    %eax,%edi
   1bc52:	e8 ae 19 ff ff       	callq  d605 <safe_sub_func_int32_t_s_s>
   1bc57:	48 98                	cltq   
   1bc59:	48 39 85 c8 e6 ff ff 	cmp    %rax,-0x1938(%rbp)
   1bc60:	0f 97 c0             	seta   %al
   1bc63:	44 0f b6 f8          	movzbl %al,%r15d
   1bc67:	48 8b 85 c8 e6 ff ff 	mov    -0x1938(%rbp),%rax
   1bc6e:	0f be d8             	movsbl %al,%ebx
   1bc71:	c7 85 40 e8 ff ff f8 	movl   $0xfffffff8,-0x17c0(%rbp)
   1bc78:	ff ff ff 
   1bc7b:	8b 85 48 e8 ff ff    	mov    -0x17b8(%rbp),%eax
   1bc81:	44 0f bf e0          	movswl %ax,%r12d
   1bc85:	48 8b 85 c8 e6 ff ff 	mov    -0x1938(%rbp),%rax
   1bc8c:	44 0f be e8          	movsbl %al,%r13d
   1bc90:	48 8b 85 20 e8 ff ff 	mov    -0x17e0(%rbp),%rax
   1bc97:	48 8b 00             	mov    (%rax),%rax
   1bc9a:	8b 00                	mov    (%rax),%eax
   1bc9c:	4c 63 f0             	movslq %eax,%r14
   1bc9f:	48 8b 85 c8 e8 ff ff 	mov    -0x1738(%rbp),%rax
   1bca6:	48 8b 00             	mov    (%rax),%rax
   1bca9:	48 8d 50 ff          	lea    -0x1(%rax),%rdx
   1bcad:	48 8b 85 c8 e8 ff ff 	mov    -0x1738(%rbp),%rax
   1bcb4:	48 89 10             	mov    %rdx,(%rax)
   1bcb7:	be d6 7a b4 e7       	mov    $0xe7b47ad6,%esi
   1bcbc:	bf 01 00 00 00       	mov    $0x1,%edi
   1bcc1:	e8 5f 22 ff ff       	callq  df25 <safe_div_func_uint32_t_u_u>
   1bcc6:	48 8b 85 20 e8 ff ff 	mov    -0x17e0(%rbp),%rax
   1bccd:	48 8b 00             	mov    (%rax),%rax
   1bcd0:	8b 00                	mov    (%rax),%eax
   1bcd2:	85 c0                	test   %eax,%eax
   1bcd4:	48 8b 05 55 ce 00 00 	mov    0xce55(%rip),%rax        # 28b30 <g_485>
   1bcdb:	48 8b 00             	mov    (%rax),%rax
   1bcde:	48 8b 10             	mov    (%rax),%rdx
   1bce1:	48 8d 85 08 e8 ff ff 	lea    -0x17f8(%rbp),%rax
   1bce8:	48 39 c2             	cmp    %rax,%rdx
   1bceb:	0f 95 c0             	setne  %al
   1bcee:	0f b6 c0             	movzbl %al,%eax
   1bcf1:	4c 89 f6             	mov    %r14,%rsi
   1bcf4:	48 89 c7             	mov    %rax,%rdi
   1bcf7:	e8 b3 23 ff ff       	callq  e0af <safe_div_func_uint64_t_u_u>
   1bcfc:	44 89 ee             	mov    %r13d,%esi
   1bcff:	bf 00 00 00 00       	mov    $0x0,%edi
   1bd04:	e8 e9 14 ff ff       	callq  d1f2 <safe_sub_func_int8_t_s_s>
   1bd09:	44 89 e6             	mov    %r12d,%esi
   1bd0c:	bf 01 00 00 00       	mov    $0x1,%edi
   1bd11:	e8 bd 16 ff ff       	callq  d3d3 <safe_sub_func_int16_t_s_s>
   1bd16:	0f b6 c0             	movzbl %al,%eax
   1bd19:	be 02 00 00 00       	mov    $0x2,%esi
   1bd1e:	89 c7                	mov    %eax,%edi
   1bd20:	e8 68 1f ff ff       	callq  dc8d <safe_rshift_func_uint8_t_u_s>
   1bd25:	8b 85 40 e8 ff ff    	mov    -0x17c0(%rbp),%eax
   1bd2b:	85 c0                	test   %eax,%eax
   1bd2d:	89 de                	mov    %ebx,%esi
   1bd2f:	bf 01 00 00 00       	mov    $0x1,%edi
   1bd34:	e8 d9 14 ff ff       	callq  d212 <safe_mul_func_int8_t_s_s>
   1bd39:	3c 03                	cmp    $0x3,%al
   1bd3b:	0f 9f c0             	setg   %al
   1bd3e:	0f b6 c0             	movzbl %al,%eax
   1bd41:	41 39 c7             	cmp    %eax,%r15d
   1bd44:	0f 9e c0             	setle  %al
   1bd47:	0f b6 d0             	movzbl %al,%edx
   1bd4a:	8b 85 f4 e6 ff ff    	mov    -0x190c(%rbp),%eax
   1bd50:	09 d0                	or     %edx,%eax
   1bd52:	89 85 f4 e6 ff ff    	mov    %eax,-0x190c(%rbp)
   1bd58:	48 8b 85 d0 e8 ff ff 	mov    -0x1730(%rbp),%rax
   1bd5f:	48 8d 95 48 e8 ff ff 	lea    -0x17b8(%rbp),%rdx
   1bd66:	48 89 10             	mov    %rdx,(%rax)
   1bd69:	48 8b 85 20 e8 ff ff 	mov    -0x17e0(%rbp),%rax
   1bd70:	48 8b 00             	mov    (%rax),%rax
   1bd73:	8b 00                	mov    (%rax),%eax
   1bd75:	0f b7 d8             	movzwl %ax,%ebx
   1bd78:	48 8b 85 c8 e6 ff ff 	mov    -0x1938(%rbp),%rax
   1bd7f:	41 89 c6             	mov    %eax,%r14d
   1bd82:	8b 85 38 e8 ff ff    	mov    -0x17c8(%rbp),%eax
   1bd88:	44 0f b6 e0          	movzbl %al,%r12d
   1bd8c:	48 8b 85 c8 e6 ff ff 	mov    -0x1938(%rbp),%rax
   1bd93:	44 0f be e8          	movsbl %al,%r13d
   1bd97:	48 83 bd c8 e6 ff ff 	cmpq   $0x0,-0x1938(%rbp)
   1bd9e:	00 
   1bd9f:	75 1d                	jne    1bdbe <func_27+0x149c>
   1bda1:	48 8b 05 88 cd 00 00 	mov    0xcd88(%rip),%rax        # 28b30 <g_485>
   1bda8:	48 8b 00             	mov    (%rax),%rax
   1bdab:	48 8b 00             	mov    (%rax),%rax
   1bdae:	48 39 85 a8 e8 ff ff 	cmp    %rax,-0x1758(%rbp)
   1bdb5:	74 07                	je     1bdbe <func_27+0x149c>
   1bdb7:	b8 01 00 00 00       	mov    $0x1,%eax
   1bdbc:	eb 05                	jmp    1bdc3 <func_27+0x14a1>
   1bdbe:	b8 00 00 00 00       	mov    $0x0,%eax
   1bdc3:	41 89 c7             	mov    %eax,%r15d
   1bdc6:	48 8b 05 f3 c4 00 00 	mov    0xc4f3(%rip),%rax        # 282c0 <g_61>
   1bdcd:	8b 00                	mov    (%rax),%eax
   1bdcf:	48 63 d0             	movslq %eax,%rdx
   1bdd2:	0f b7 05 3b 94 00 00 	movzwl 0x943b(%rip),%eax        # 25214 <g_188>
   1bdd9:	48 0f bf c0          	movswq %ax,%rax
   1bddd:	83 e0 09             	and    $0x9,%eax
   1bde0:	48 85 c0             	test   %rax,%rax
   1bde3:	75 0a                	jne    1bdef <func_27+0x14cd>
   1bde5:	48 83 bd c8 e6 ff ff 	cmpq   $0x0,-0x1938(%rbp)
   1bdec:	00 
   1bded:	74 07                	je     1bdf6 <func_27+0x14d4>
   1bdef:	b8 01 00 00 00       	mov    $0x1,%eax
   1bdf4:	eb 05                	jmp    1bdfb <func_27+0x14d9>
   1bdf6:	b8 00 00 00 00       	mov    $0x0,%eax
   1bdfb:	48 98                	cltq   
   1bdfd:	48 23 85 c8 e6 ff ff 	and    -0x1938(%rbp),%rax
   1be04:	48 21 d0             	and    %rdx,%rax
   1be07:	48 39 85 c8 e6 ff ff 	cmp    %rax,-0x1938(%rbp)
   1be0e:	0f 94 c0             	sete   %al
   1be11:	0f b6 c0             	movzbl %al,%eax
   1be14:	48 8b 95 c8 e6 ff ff 	mov    -0x1938(%rbp),%rdx
   1be1b:	21 d0                	and    %edx,%eax
   1be1d:	83 c8 62             	or     $0x62,%eax
   1be20:	0f b7 c0             	movzwl %ax,%eax
   1be23:	be 0c 65 00 00       	mov    $0x650c,%esi
   1be28:	89 c7                	mov    %eax,%edi
   1be2a:	e8 f0 1e ff ff       	callq  dd1f <safe_sub_func_uint16_t_u_u>
   1be2f:	0f b7 c0             	movzwl %ax,%eax
   1be32:	89 85 44 e7 ff ff    	mov    %eax,-0x18bc(%rbp)
   1be38:	8b 85 44 e7 ff ff    	mov    -0x18bc(%rbp),%eax
   1be3e:	48 98                	cltq   
   1be40:	48 39 85 c8 e6 ff ff 	cmp    %rax,-0x1938(%rbp)
   1be47:	0f 92 c0             	setb   %al
   1be4a:	0f b6 c0             	movzbl %al,%eax
   1be4d:	44 31 f8             	xor    %r15d,%eax
   1be50:	0f b7 c0             	movzwl %ax,%eax
   1be53:	be 57 7c 00 00       	mov    $0x7c57,%esi
   1be58:	89 c7                	mov    %eax,%edi
   1be5a:	e8 c0 1e ff ff       	callq  dd1f <safe_sub_func_uint16_t_u_u>
   1be5f:	0f b7 d0             	movzwl %ax,%edx
   1be62:	0f b7 85 18 f5 ff ff 	movzwl -0xae8(%rbp),%eax
   1be69:	0f b7 c0             	movzwl %ax,%eax
   1be6c:	89 d6                	mov    %edx,%esi
   1be6e:	89 c7                	mov    %eax,%edi
   1be70:	e8 91 1f ff ff       	callq  de06 <safe_lshift_func_uint16_t_u_u>
   1be75:	0f be c0             	movsbl %al,%eax
   1be78:	44 89 ee             	mov    %r13d,%esi
   1be7b:	89 c7                	mov    %eax,%edi
   1be7d:	e8 af 13 ff ff       	callq  d231 <safe_mod_func_int8_t_s_s>
   1be82:	0f b6 c0             	movzbl %al,%eax
   1be85:	44 89 e6             	mov    %r12d,%esi
   1be88:	89 c7                	mov    %eax,%edi
   1be8a:	e8 04 1d ff ff       	callq  db93 <safe_mul_func_uint8_t_u_u>
   1be8f:	0f b6 c0             	movzbl %al,%eax
   1be92:	44 89 f6             	mov    %r14d,%esi
   1be95:	89 c7                	mov    %eax,%edi
   1be97:	e8 8e 16 ff ff       	callq  d52a <safe_rshift_func_int16_t_s_s>
   1be9c:	0f b7 c0             	movzwl %ax,%eax
   1be9f:	89 de                	mov    %ebx,%esi
   1bea1:	89 c7                	mov    %eax,%edi
   1bea3:	e8 77 1e ff ff       	callq  dd1f <safe_sub_func_uint16_t_u_u>
   1bea8:	89 c2                	mov    %eax,%edx
   1beaa:	48 8b 05 0f c4 00 00 	mov    0xc40f(%rip),%rax        # 282c0 <g_61>
   1beb1:	0f b7 d2             	movzwl %dx,%edx
   1beb4:	89 10                	mov    %edx,(%rax)
   1beb6:	c7 05 dc 92 00 00 00 	movl   $0x0,0x92dc(%rip)        # 2519c <g_104>
   1bebd:	00 00 00 
   1bec0:	e9 af 03 00 00       	jmpq   1c274 <func_27+0x1952>
   1bec5:	48 8d 85 f8 e6 ff ff 	lea    -0x1908(%rbp),%rax
   1becc:	48 89 85 d8 e8 ff ff 	mov    %rax,-0x1728(%rbp)
   1bed3:	48 8d 85 40 e8 ff ff 	lea    -0x17c0(%rbp),%rax
   1beda:	48 89 85 e0 e8 ff ff 	mov    %rax,-0x1720(%rbp)
   1bee1:	48 8d 05 20 93 00 00 	lea    0x9320(%rip),%rax        # 25208 <g_133+0x48>
   1bee8:	48 89 85 e8 e8 ff ff 	mov    %rax,-0x1718(%rbp)
   1beef:	48 8d 05 6e 93 00 00 	lea    0x936e(%rip),%rax        # 25264 <g_871+0x4>
   1bef6:	48 89 85 f0 e8 ff ff 	mov    %rax,-0x1710(%rbp)
   1befd:	48 8d 85 38 e8 ff ff 	lea    -0x17c8(%rbp),%rax
   1bf04:	48 89 85 10 f8 ff ff 	mov    %rax,-0x7f0(%rbp)
   1bf0b:	48 8d 85 30 e8 ff ff 	lea    -0x17d0(%rbp),%rax
   1bf12:	48 89 85 18 f8 ff ff 	mov    %rax,-0x7e8(%rbp)
   1bf19:	48 8d 85 38 e8 ff ff 	lea    -0x17c8(%rbp),%rax
   1bf20:	48 89 85 20 f8 ff ff 	mov    %rax,-0x7e0(%rbp)
   1bf27:	48 8d 05 32 93 00 00 	lea    0x9332(%rip),%rax        # 25260 <g_871>
   1bf2e:	48 89 85 28 f8 ff ff 	mov    %rax,-0x7d8(%rbp)
   1bf35:	48 8d 05 28 93 00 00 	lea    0x9328(%rip),%rax        # 25264 <g_871+0x4>
   1bf3c:	48 89 85 30 f8 ff ff 	mov    %rax,-0x7d0(%rbp)
   1bf43:	48 8d 05 16 93 00 00 	lea    0x9316(%rip),%rax        # 25260 <g_871>
   1bf4a:	48 89 85 38 f8 ff ff 	mov    %rax,-0x7c8(%rbp)
   1bf51:	48 8d 85 30 e8 ff ff 	lea    -0x17d0(%rbp),%rax
   1bf58:	48 89 85 40 f8 ff ff 	mov    %rax,-0x7c0(%rbp)
   1bf5f:	48 8d 05 fa 92 00 00 	lea    0x92fa(%rip),%rax        # 25260 <g_871>
   1bf66:	48 89 85 48 f8 ff ff 	mov    %rax,-0x7b8(%rbp)
   1bf6d:	48 8d 05 08 93 00 00 	lea    0x9308(%rip),%rax        # 2527c <g_871+0x1c>
   1bf74:	48 89 85 50 f8 ff ff 	mov    %rax,-0x7b0(%rbp)
   1bf7b:	48 8d 85 30 e8 ff ff 	lea    -0x17d0(%rbp),%rax
   1bf82:	48 89 85 58 f8 ff ff 	mov    %rax,-0x7a8(%rbp)
   1bf89:	48 8d 05 ec 92 00 00 	lea    0x92ec(%rip),%rax        # 2527c <g_871+0x1c>
   1bf90:	48 89 85 60 f8 ff ff 	mov    %rax,-0x7a0(%rbp)
   1bf97:	48 8d 05 c2 92 00 00 	lea    0x92c2(%rip),%rax        # 25260 <g_871>
   1bf9e:	48 89 85 68 f8 ff ff 	mov    %rax,-0x798(%rbp)
   1bfa5:	48 8d 85 38 e8 ff ff 	lea    -0x17c8(%rbp),%rax
   1bfac:	48 89 85 70 f8 ff ff 	mov    %rax,-0x790(%rbp)
   1bfb3:	48 8d 05 a6 92 00 00 	lea    0x92a6(%rip),%rax        # 25260 <g_871>
   1bfba:	48 89 85 78 f8 ff ff 	mov    %rax,-0x788(%rbp)
   1bfc1:	48 8d 05 9c 92 00 00 	lea    0x929c(%rip),%rax        # 25264 <g_871+0x4>
   1bfc8:	48 89 85 80 f8 ff ff 	mov    %rax,-0x780(%rbp)
   1bfcf:	48 8d 85 30 e8 ff ff 	lea    -0x17d0(%rbp),%rax
   1bfd6:	48 89 85 88 f8 ff ff 	mov    %rax,-0x778(%rbp)
   1bfdd:	48 8d 05 80 92 00 00 	lea    0x9280(%rip),%rax        # 25264 <g_871+0x4>
   1bfe4:	48 89 85 90 f8 ff ff 	mov    %rax,-0x770(%rbp)
   1bfeb:	48 8d 05 6e 92 00 00 	lea    0x926e(%rip),%rax        # 25260 <g_871>
   1bff2:	48 89 85 98 f8 ff ff 	mov    %rax,-0x768(%rbp)
   1bff9:	48 8d 85 30 e8 ff ff 	lea    -0x17d0(%rbp),%rax
   1c000:	48 89 85 a0 f8 ff ff 	mov    %rax,-0x760(%rbp)
   1c007:	48 8d 05 52 92 00 00 	lea    0x9252(%rip),%rax        # 25260 <g_871>
   1c00e:	48 89 85 a8 f8 ff ff 	mov    %rax,-0x758(%rbp)
   1c015:	48 8d 05 60 92 00 00 	lea    0x9260(%rip),%rax        # 2527c <g_871+0x1c>
   1c01c:	48 89 85 b0 f8 ff ff 	mov    %rax,-0x750(%rbp)
   1c023:	48 8d 85 30 e8 ff ff 	lea    -0x17d0(%rbp),%rax
   1c02a:	48 89 85 b8 f8 ff ff 	mov    %rax,-0x748(%rbp)
   1c031:	48 8d 05 44 92 00 00 	lea    0x9244(%rip),%rax        # 2527c <g_871+0x1c>
   1c038:	48 89 85 c0 f8 ff ff 	mov    %rax,-0x740(%rbp)
   1c03f:	48 8d 05 1a 92 00 00 	lea    0x921a(%rip),%rax        # 25260 <g_871>
   1c046:	48 89 85 c8 f8 ff ff 	mov    %rax,-0x738(%rbp)
   1c04d:	48 8d 85 38 e8 ff ff 	lea    -0x17c8(%rbp),%rax
   1c054:	48 89 85 d0 f8 ff ff 	mov    %rax,-0x730(%rbp)
   1c05b:	48 8d 05 fe 91 00 00 	lea    0x91fe(%rip),%rax        # 25260 <g_871>
   1c062:	48 89 85 d8 f8 ff ff 	mov    %rax,-0x728(%rbp)
   1c069:	48 8d 05 f4 91 00 00 	lea    0x91f4(%rip),%rax        # 25264 <g_871+0x4>
   1c070:	48 89 85 e0 f8 ff ff 	mov    %rax,-0x720(%rbp)
   1c077:	48 8d 85 30 e8 ff ff 	lea    -0x17d0(%rbp),%rax
   1c07e:	48 89 85 e8 f8 ff ff 	mov    %rax,-0x718(%rbp)
   1c085:	48 8d 05 d8 91 00 00 	lea    0x91d8(%rip),%rax        # 25264 <g_871+0x4>
   1c08c:	48 89 85 f0 f8 ff ff 	mov    %rax,-0x710(%rbp)
   1c093:	48 8d 05 c6 91 00 00 	lea    0x91c6(%rip),%rax        # 25260 <g_871>
   1c09a:	48 89 85 f8 f8 ff ff 	mov    %rax,-0x708(%rbp)
   1c0a1:	48 8d 85 30 e8 ff ff 	lea    -0x17d0(%rbp),%rax
   1c0a8:	48 89 85 00 f9 ff ff 	mov    %rax,-0x700(%rbp)
   1c0af:	48 8d 05 aa 91 00 00 	lea    0x91aa(%rip),%rax        # 25260 <g_871>
   1c0b6:	48 89 85 08 f9 ff ff 	mov    %rax,-0x6f8(%rbp)
   1c0bd:	48 8d 05 b8 91 00 00 	lea    0x91b8(%rip),%rax        # 2527c <g_871+0x1c>
   1c0c4:	48 89 85 10 f9 ff ff 	mov    %rax,-0x6f0(%rbp)
   1c0cb:	48 8d 85 30 e8 ff ff 	lea    -0x17d0(%rbp),%rax
   1c0d2:	48 89 85 18 f9 ff ff 	mov    %rax,-0x6e8(%rbp)
   1c0d9:	48 8d 05 9c 91 00 00 	lea    0x919c(%rip),%rax        # 2527c <g_871+0x1c>
   1c0e0:	48 89 85 20 f9 ff ff 	mov    %rax,-0x6e0(%rbp)
   1c0e7:	48 8d 05 72 91 00 00 	lea    0x9172(%rip),%rax        # 25260 <g_871>
   1c0ee:	48 89 85 28 f9 ff ff 	mov    %rax,-0x6d8(%rbp)
   1c0f5:	48 8d 85 38 e8 ff ff 	lea    -0x17c8(%rbp),%rax
   1c0fc:	48 89 85 30 f9 ff ff 	mov    %rax,-0x6d0(%rbp)
   1c103:	48 8d 05 56 91 00 00 	lea    0x9156(%rip),%rax        # 25260 <g_871>
   1c10a:	48 89 85 38 f9 ff ff 	mov    %rax,-0x6c8(%rbp)
   1c111:	48 8d 05 4c 91 00 00 	lea    0x914c(%rip),%rax        # 25264 <g_871+0x4>
   1c118:	48 89 85 40 f9 ff ff 	mov    %rax,-0x6c0(%rbp)
   1c11f:	48 8d 85 30 e8 ff ff 	lea    -0x17d0(%rbp),%rax
   1c126:	48 89 85 48 f9 ff ff 	mov    %rax,-0x6b8(%rbp)
   1c12d:	48 8d 05 30 91 00 00 	lea    0x9130(%rip),%rax        # 25264 <g_871+0x4>
   1c134:	48 89 85 50 f9 ff ff 	mov    %rax,-0x6b0(%rbp)
   1c13b:	48 8d 05 1e 91 00 00 	lea    0x911e(%rip),%rax        # 25260 <g_871>
   1c142:	48 89 85 58 f9 ff ff 	mov    %rax,-0x6a8(%rbp)
   1c149:	48 8d 85 30 e8 ff ff 	lea    -0x17d0(%rbp),%rax
   1c150:	48 89 85 60 f9 ff ff 	mov    %rax,-0x6a0(%rbp)
   1c157:	48 8d 05 02 91 00 00 	lea    0x9102(%rip),%rax        # 25260 <g_871>
   1c15e:	48 89 85 68 f9 ff ff 	mov    %rax,-0x698(%rbp)
   1c165:	48 8d 05 10 91 00 00 	lea    0x9110(%rip),%rax        # 2527c <g_871+0x1c>
   1c16c:	48 89 85 70 f9 ff ff 	mov    %rax,-0x690(%rbp)
   1c173:	48 8d 85 30 e8 ff ff 	lea    -0x17d0(%rbp),%rax
   1c17a:	48 89 85 78 f9 ff ff 	mov    %rax,-0x688(%rbp)
   1c181:	48 8d 05 f4 90 00 00 	lea    0x90f4(%rip),%rax        # 2527c <g_871+0x1c>
   1c188:	48 89 85 80 f9 ff ff 	mov    %rax,-0x680(%rbp)
   1c18f:	48 8d 05 ca 90 00 00 	lea    0x90ca(%rip),%rax        # 25260 <g_871>
   1c196:	48 89 85 88 f9 ff ff 	mov    %rax,-0x678(%rbp)
   1c19d:	66 c7 85 e6 e6 ff ff 	movw   $0x3,-0x191a(%rbp)
   1c1a4:	03 00 
   1c1a6:	48 b8 e4 25 a8 5c e5 	movabs $0xc09b61e55ca825e4,%rax
   1c1ad:	61 9b c0 
   1c1b0:	48 89 85 f8 e8 ff ff 	mov    %rax,-0x1708(%rbp)
   1c1b7:	c7 85 00 ee ff ff 04 	movl   $0x4,-0x1200(%rbp)
   1c1be:	00 00 00 
   1c1c1:	c7 85 04 ee ff ff 04 	movl   $0x4,-0x11fc(%rbp)
   1c1c8:	00 00 00 
   1c1cb:	c7 85 08 ee ff ff 04 	movl   $0x4,-0x11f8(%rbp)
   1c1d2:	00 00 00 
   1c1d5:	c7 85 0c ee ff ff 04 	movl   $0x4,-0x11f4(%rbp)
   1c1dc:	00 00 00 
   1c1df:	c7 85 10 ee ff ff 04 	movl   $0x4,-0x11f0(%rbp)
   1c1e6:	00 00 00 
   1c1e9:	c7 85 14 ee ff ff 04 	movl   $0x4,-0x11ec(%rbp)
   1c1f0:	00 00 00 
   1c1f3:	c7 85 18 ee ff ff 04 	movl   $0x4,-0x11e8(%rbp)
   1c1fa:	00 00 00 
   1c1fd:	c7 85 1c ee ff ff 04 	movl   $0x4,-0x11e4(%rbp)
   1c204:	00 00 00 
   1c207:	c7 85 20 ee ff ff 04 	movl   $0x4,-0x11e0(%rbp)
   1c20e:	00 00 00 
   1c211:	c7 85 24 ee ff ff 04 	movl   $0x4,-0x11dc(%rbp)
   1c218:	00 00 00 
   1c21b:	48 c7 85 00 e9 ff ff 	movq   $0xffffffffffffffff,-0x1700(%rbp)
   1c222:	ff ff ff ff 
   1c226:	48 c7 85 08 e9 ff ff 	movq   $0xffffffffffffffff,-0x16f8(%rbp)
   1c22d:	ff ff ff ff 
   1c231:	c6 85 d7 e6 ff ff 1a 	movb   $0x1a,-0x1929(%rbp)
   1c238:	c7 85 dc e7 ff ff 02 	movl   $0x2,-0x1824(%rbp)
   1c23f:	00 00 00 
   1c242:	48 8b 85 28 e8 ff ff 	mov    -0x17d8(%rbp),%rax
   1c249:	48 83 e8 01          	sub    $0x1,%rax
   1c24d:	48 89 85 28 e8 ff ff 	mov    %rax,-0x17d8(%rbp)
   1c254:	83 85 dc e7 ff ff 01 	addl   $0x1,-0x1824(%rbp)
   1c25b:	0f b6 45 c3          	movzbl -0x3d(%rbp),%eax
   1c25f:	83 e8 01             	sub    $0x1,%eax
   1c262:	88 45 c3             	mov    %al,-0x3d(%rbp)
   1c265:	8b 05 31 8f 00 00    	mov    0x8f31(%rip),%eax        # 2519c <g_104>
   1c26b:	83 c0 01             	add    $0x1,%eax
   1c26e:	89 05 28 8f 00 00    	mov    %eax,0x8f28(%rip)        # 2519c <g_104>
   1c274:	8b 05 22 8f 00 00    	mov    0x8f22(%rip),%eax        # 2519c <g_104>
   1c27a:	85 c0                	test   %eax,%eax
   1c27c:	0f 8e 43 fc ff ff    	jle    1bec5 <func_27+0x15a3>
   1c282:	8b 05 f8 8f 00 00    	mov    0x8ff8(%rip),%eax        # 25280 <g_895>
   1c288:	83 c0 01             	add    $0x1,%eax
   1c28b:	89 05 ef 8f 00 00    	mov    %eax,0x8fef(%rip)        # 25280 <g_895>
   1c291:	8b 05 e9 8f 00 00    	mov    0x8fe9(%rip),%eax        # 25280 <g_895>
   1c297:	85 c0                	test   %eax,%eax
   1c299:	0f 84 85 f8 ff ff    	je     1bb24 <func_27+0x1202>
   1c29f:	8b 05 eb 8e 00 00    	mov    0x8eeb(%rip),%eax        # 25190 <g_66>
   1c2a5:	89 c0                	mov    %eax,%eax
   1c2a7:	be 03 00 00 00       	mov    $0x3,%esi
   1c2ac:	48 89 c7             	mov    %rax,%rdi
   1c2af:	e8 8d 15 ff ff       	callq  d841 <safe_add_func_int64_t_s_s>
   1c2b4:	89 05 d6 8e 00 00    	mov    %eax,0x8ed6(%rip)        # 25190 <g_66>
   1c2ba:	8b 05 d0 8e 00 00    	mov    0x8ed0(%rip),%eax        # 25190 <g_66>
   1c2c0:	83 f8 16             	cmp    $0x16,%eax
   1c2c3:	0f 86 a1 f7 ff ff    	jbe    1ba6a <func_27+0x1148>
   1c2c9:	48 8b 85 b0 e8 ff ff 	mov    -0x1750(%rbp),%rax
   1c2d0:	48 8d 95 f8 e6 ff ff 	lea    -0x1908(%rbp),%rdx
   1c2d7:	48 89 10             	mov    %rdx,(%rax)
   1c2da:	48 83 bd c8 e6 ff ff 	cmpq   $0x0,-0x1938(%rbp)
   1c2e1:	00 
   1c2e2:	0f 84 34 22 00 00    	je     1e51c <func_27+0x3bfa>
   1c2e8:	48 8d 05 31 cb 00 00 	lea    0xcb31(%rip),%rax        # 28e20 <g_859>
   1c2ef:	48 89 85 38 e9 ff ff 	mov    %rax,-0x16c8(%rbp)
   1c2f6:	48 8d 05 eb c7 00 00 	lea    0xc7eb(%rip),%rax        # 28ae8 <g_429>
   1c2fd:	48 89 85 30 e8 ff ff 	mov    %rax,-0x17d0(%rbp)
   1c304:	48 c7 85 38 e8 ff ff 	movq   $0x1,-0x17c8(%rbp)
   1c30b:	01 00 00 00 
   1c30f:	48 8d 05 12 c8 00 00 	lea    0xc812(%rip),%rax        # 28b28 <g_486>
   1c316:	48 89 85 40 e9 ff ff 	mov    %rax,-0x16c0(%rbp)
   1c31d:	c7 85 04 e7 ff ff b7 	movl   $0x1a9ac5b7,-0x18fc(%rbp)
   1c324:	c5 9a 1a 
   1c327:	48 c7 85 48 e9 ff ff 	movq   $0x0,-0x16b8(%rbp)
   1c32e:	00 00 00 00 
   1c332:	48 c7 85 00 eb ff ff 	movq   $0x0,-0x1500(%rbp)
   1c339:	00 00 00 00 
   1c33d:	48 b8 08 60 9c 3c f2 	movabs $0x4276dff23c9c6008,%rax
   1c344:	df 76 42 
   1c347:	48 89 85 08 eb ff ff 	mov    %rax,-0x14f8(%rbp)
   1c34e:	48 c7 85 10 eb ff ff 	movq   $0x0,-0x14f0(%rbp)
   1c355:	00 00 00 00 
   1c359:	48 c7 85 18 eb ff ff 	movq   $0x0,-0x14e8(%rbp)
   1c360:	00 00 00 00 
   1c364:	48 89 85 20 eb ff ff 	mov    %rax,-0x14e0(%rbp)
   1c36b:	48 c7 85 28 eb ff ff 	movq   $0x0,-0x14d8(%rbp)
   1c372:	00 00 00 00 
   1c376:	48 c7 85 30 eb ff ff 	movq   $0x0,-0x14d0(%rbp)
   1c37d:	00 00 00 00 
   1c381:	48 89 85 38 eb ff ff 	mov    %rax,-0x14c8(%rbp)
   1c388:	66 c7 85 ea e6 ff ff 	movw   $0xece7,-0x1916(%rbp)
   1c38f:	e7 ec 
   1c391:	48 8d 05 e8 dc 00 00 	lea    0xdce8(%rip),%rax        # 2a080 <g_346>
   1c398:	48 89 85 50 e9 ff ff 	mov    %rax,-0x16b0(%rbp)
   1c39f:	c7 85 f4 e7 ff ff f8 	movl   $0xfffffff8,-0x180c(%rbp)
   1c3a6:	ff ff ff 
   1c3a9:	c7 85 28 e7 ff ff 00 	movl   $0x0,-0x18d8(%rbp)
   1c3b0:	00 00 00 
   1c3b3:	eb 1a                	jmp    1c3cf <func_27+0x1aad>
   1c3b5:	8b 85 28 e7 ff ff    	mov    -0x18d8(%rbp),%eax
   1c3bb:	48 98                	cltq   
   1c3bd:	c7 84 85 24 ea ff ff 	movl   $0xf8034023,-0x15dc(%rbp,%rax,4)
   1c3c4:	23 40 03 f8 
   1c3c8:	83 85 28 e7 ff ff 01 	addl   $0x1,-0x18d8(%rbp)
   1c3cf:	83 bd 28 e7 ff ff 02 	cmpl   $0x2,-0x18d8(%rbp)
   1c3d6:	7e dd                	jle    1c3b5 <func_27+0x1a93>
   1c3d8:	0f b6 05 ba 8d 00 00 	movzbl 0x8dba(%rip),%eax        # 25199 <g_93>
   1c3df:	0f b6 c0             	movzbl %al,%eax
   1c3e2:	48 39 85 c8 e6 ff ff 	cmp    %rax,-0x1938(%rbp)
   1c3e9:	0f 83 e6 05 00 00    	jae    1c9d5 <func_27+0x20b3>
   1c3ef:	48 8d 85 10 f8 ff ff 	lea    -0x7f0(%rbp),%rax
   1c3f6:	48 8d 15 a3 ad 00 00 	lea    0xada3(%rip),%rdx        # 271a0 <g_3117+0x1dd4>
   1c3fd:	b9 51 00 00 00       	mov    $0x51,%ecx
   1c402:	48 89 c7             	mov    %rax,%rdi
   1c405:	48 89 d6             	mov    %rdx,%rsi
   1c408:	f3 48 a5             	rep movsq %ds:(%rsi),%es:(%rdi)
   1c40b:	48 8d 85 10 f8 ff ff 	lea    -0x7f0(%rbp),%rax
   1c412:	48 05 a0 01 00 00    	add    $0x1a0,%rax
   1c418:	48 89 85 e0 e9 ff ff 	mov    %rax,-0x1620(%rbp)
   1c41f:	48 8b 85 10 e8 ff ff 	mov    -0x17f0(%rbp),%rax
   1c426:	48 85 c0             	test   %rax,%rax
   1c429:	0f 95 c0             	setne  %al
   1c42c:	0f b6 c0             	movzbl %al,%eax
   1c42f:	be 02 00 00 00       	mov    $0x2,%esi
   1c434:	89 c7                	mov    %eax,%edi
   1c436:	e8 ca 17 ff ff       	callq  dc05 <safe_lshift_func_uint8_t_u_s>
   1c43b:	84 c0                	test   %al,%al
   1c43d:	75 19                	jne    1c458 <func_27+0x1b36>
   1c43f:	48 8b 05 ea c9 00 00 	mov    0xc9ea(%rip),%rax        # 28e30 <g_857>
   1c446:	48 8b 95 38 e9 ff ff 	mov    -0x16c8(%rbp),%rdx
   1c44d:	48 89 10             	mov    %rdx,(%rax)
   1c450:	48 8b 00             	mov    (%rax),%rax
   1c453:	48 85 c0             	test   %rax,%rax
   1c456:	75 47                	jne    1c49f <func_27+0x1b7d>
   1c458:	48 8d 05 61 be 00 00 	lea    0xbe61(%rip),%rax        # 282c0 <g_61>
   1c45f:	48 89 85 f0 e9 ff ff 	mov    %rax,-0x1610(%rbp)
   1c466:	48 8b 85 f0 e9 ff ff 	mov    -0x1610(%rbp),%rax
   1c46d:	48 c7 00 00 00 00 00 	movq   $0x0,(%rax)
   1c474:	48 8b 85 f0 e9 ff ff 	mov    -0x1610(%rbp),%rax
   1c47b:	48 c7 00 00 00 00 00 	movq   $0x0,(%rax)
   1c482:	48 8b 85 f0 e9 ff ff 	mov    -0x1610(%rbp),%rax
   1c489:	48 8d 95 b0 f2 ff ff 	lea    -0xd50(%rbp),%rdx
   1c490:	48 81 c2 10 01 00 00 	add    $0x110,%rdx
   1c497:	48 89 10             	mov    %rdx,(%rax)
   1c49a:	e9 92 20 00 00       	jmpq   1e531 <func_27+0x3c0f>
   1c49f:	48 8d 05 82 8d 00 00 	lea    0x8d82(%rip),%rax        # 25228 <g_430>
   1c4a6:	48 89 85 00 ee ff ff 	mov    %rax,-0x1200(%rbp)
   1c4ad:	48 8d 05 ec 8c 00 00 	lea    0x8cec(%rip),%rax        # 251a0 <g_117>
   1c4b4:	48 89 85 08 ee ff ff 	mov    %rax,-0x11f8(%rbp)
   1c4bb:	48 8d 05 de 8c 00 00 	lea    0x8cde(%rip),%rax        # 251a0 <g_117>
   1c4c2:	48 89 85 10 ee ff ff 	mov    %rax,-0x11f0(%rbp)
   1c4c9:	48 8d 05 58 8d 00 00 	lea    0x8d58(%rip),%rax        # 25228 <g_430>
   1c4d0:	48 89 85 18 ee ff ff 	mov    %rax,-0x11e8(%rbp)
   1c4d7:	48 8d 05 c2 8c 00 00 	lea    0x8cc2(%rip),%rax        # 251a0 <g_117>
   1c4de:	48 89 85 20 ee ff ff 	mov    %rax,-0x11e0(%rbp)
   1c4e5:	48 8d 05 b4 8c 00 00 	lea    0x8cb4(%rip),%rax        # 251a0 <g_117>
   1c4ec:	48 89 85 28 ee ff ff 	mov    %rax,-0x11d8(%rbp)
   1c4f3:	48 8d 05 2e 8d 00 00 	lea    0x8d2e(%rip),%rax        # 25228 <g_430>
   1c4fa:	48 89 85 30 ee ff ff 	mov    %rax,-0x11d0(%rbp)
   1c501:	48 8d 05 98 8c 00 00 	lea    0x8c98(%rip),%rax        # 251a0 <g_117>
   1c508:	48 89 85 38 ee ff ff 	mov    %rax,-0x11c8(%rbp)
   1c50f:	48 8d 05 8a 8c 00 00 	lea    0x8c8a(%rip),%rax        # 251a0 <g_117>
   1c516:	48 89 85 40 ee ff ff 	mov    %rax,-0x11c0(%rbp)
   1c51d:	48 8d 05 04 8d 00 00 	lea    0x8d04(%rip),%rax        # 25228 <g_430>
   1c524:	48 89 85 48 ee ff ff 	mov    %rax,-0x11b8(%rbp)
   1c52b:	48 8d 85 00 ee ff ff 	lea    -0x1200(%rbp),%rax
   1c532:	48 89 85 48 e8 ff ff 	mov    %rax,-0x17b8(%rbp)
   1c539:	48 8d 85 48 e8 ff ff 	lea    -0x17b8(%rbp),%rax
   1c540:	48 89 85 b0 f4 ff ff 	mov    %rax,-0xb50(%rbp)
   1c547:	48 8d 85 48 e8 ff ff 	lea    -0x17b8(%rbp),%rax
   1c54e:	48 89 85 b8 f4 ff ff 	mov    %rax,-0xb48(%rbp)
   1c555:	48 8d 85 48 e8 ff ff 	lea    -0x17b8(%rbp),%rax
   1c55c:	48 89 85 c0 f4 ff ff 	mov    %rax,-0xb40(%rbp)
   1c563:	48 8d 85 48 e8 ff ff 	lea    -0x17b8(%rbp),%rax
   1c56a:	48 89 85 c8 f4 ff ff 	mov    %rax,-0xb38(%rbp)
   1c571:	48 8d 85 48 e8 ff ff 	lea    -0x17b8(%rbp),%rax
   1c578:	48 89 85 d0 f4 ff ff 	mov    %rax,-0xb30(%rbp)
   1c57f:	48 8d 85 48 e8 ff ff 	lea    -0x17b8(%rbp),%rax
   1c586:	48 89 85 d8 f4 ff ff 	mov    %rax,-0xb28(%rbp)
   1c58d:	48 8d 85 48 e8 ff ff 	lea    -0x17b8(%rbp),%rax
   1c594:	48 89 85 e0 f4 ff ff 	mov    %rax,-0xb20(%rbp)
   1c59b:	48 8d 85 48 e8 ff ff 	lea    -0x17b8(%rbp),%rax
   1c5a2:	48 89 85 e8 f4 ff ff 	mov    %rax,-0xb18(%rbp)
   1c5a9:	48 8d 85 48 e8 ff ff 	lea    -0x17b8(%rbp),%rax
   1c5b0:	48 89 85 f0 f4 ff ff 	mov    %rax,-0xb10(%rbp)
   1c5b7:	48 8d 85 48 e8 ff ff 	lea    -0x17b8(%rbp),%rax
   1c5be:	48 89 85 f8 f4 ff ff 	mov    %rax,-0xb08(%rbp)
   1c5c5:	48 8d 85 48 e8 ff ff 	lea    -0x17b8(%rbp),%rax
   1c5cc:	48 89 85 00 f5 ff ff 	mov    %rax,-0xb00(%rbp)
   1c5d3:	48 8d 85 48 e8 ff ff 	lea    -0x17b8(%rbp),%rax
   1c5da:	48 89 85 08 f5 ff ff 	mov    %rax,-0xaf8(%rbp)
   1c5e1:	48 8d 85 48 e8 ff ff 	lea    -0x17b8(%rbp),%rax
   1c5e8:	48 89 85 10 f5 ff ff 	mov    %rax,-0xaf0(%rbp)
   1c5ef:	48 8d 85 48 e8 ff ff 	lea    -0x17b8(%rbp),%rax
   1c5f6:	48 89 85 18 f5 ff ff 	mov    %rax,-0xae8(%rbp)
   1c5fd:	48 8d 85 48 e8 ff ff 	lea    -0x17b8(%rbp),%rax
   1c604:	48 89 85 20 f5 ff ff 	mov    %rax,-0xae0(%rbp)
   1c60b:	48 8d 85 48 e8 ff ff 	lea    -0x17b8(%rbp),%rax
   1c612:	48 89 85 28 f5 ff ff 	mov    %rax,-0xad8(%rbp)
   1c619:	48 8d 85 48 e8 ff ff 	lea    -0x17b8(%rbp),%rax
   1c620:	48 89 85 30 f5 ff ff 	mov    %rax,-0xad0(%rbp)
   1c627:	48 8d 85 48 e8 ff ff 	lea    -0x17b8(%rbp),%rax
   1c62e:	48 89 85 38 f5 ff ff 	mov    %rax,-0xac8(%rbp)
   1c635:	48 8d 85 48 e8 ff ff 	lea    -0x17b8(%rbp),%rax
   1c63c:	48 89 85 40 f5 ff ff 	mov    %rax,-0xac0(%rbp)
   1c643:	48 8d 85 48 e8 ff ff 	lea    -0x17b8(%rbp),%rax
   1c64a:	48 89 85 48 f5 ff ff 	mov    %rax,-0xab8(%rbp)
   1c651:	48 8d 85 48 e8 ff ff 	lea    -0x17b8(%rbp),%rax
   1c658:	48 89 85 50 f5 ff ff 	mov    %rax,-0xab0(%rbp)
   1c65f:	48 8d 85 48 e8 ff ff 	lea    -0x17b8(%rbp),%rax
   1c666:	48 89 85 58 f5 ff ff 	mov    %rax,-0xaa8(%rbp)
   1c66d:	48 8d 85 48 e8 ff ff 	lea    -0x17b8(%rbp),%rax
   1c674:	48 89 85 60 f5 ff ff 	mov    %rax,-0xaa0(%rbp)
   1c67b:	48 8d 85 48 e8 ff ff 	lea    -0x17b8(%rbp),%rax
   1c682:	48 89 85 68 f5 ff ff 	mov    %rax,-0xa98(%rbp)
   1c689:	48 8d 85 48 e8 ff ff 	lea    -0x17b8(%rbp),%rax
   1c690:	48 89 85 70 f5 ff ff 	mov    %rax,-0xa90(%rbp)
   1c697:	48 8d 85 48 e8 ff ff 	lea    -0x17b8(%rbp),%rax
   1c69e:	48 89 85 78 f5 ff ff 	mov    %rax,-0xa88(%rbp)
   1c6a5:	48 8d 85 48 e8 ff ff 	lea    -0x17b8(%rbp),%rax
   1c6ac:	48 89 85 80 f5 ff ff 	mov    %rax,-0xa80(%rbp)
   1c6b3:	48 8d 85 48 e8 ff ff 	lea    -0x17b8(%rbp),%rax
   1c6ba:	48 89 85 88 f5 ff ff 	mov    %rax,-0xa78(%rbp)
   1c6c1:	48 8d 05 a4 8b 00 00 	lea    0x8ba4(%rip),%rax        # 2526c <g_871+0xc>
   1c6c8:	48 89 85 e8 e9 ff ff 	mov    %rax,-0x1618(%rbp)
   1c6cf:	48 8b 85 30 e8 ff ff 	mov    -0x17d0(%rbp),%rax
   1c6d6:	48 85 c0             	test   %rax,%rax
   1c6d9:	0f 94 c0             	sete   %al
   1c6dc:	0f b6 d0             	movzbl %al,%edx
   1c6df:	0f b6 05 a2 8b 00 00 	movzbl 0x8ba2(%rip),%eax        # 25288 <g_1009>
   1c6e6:	0f be c0             	movsbl %al,%eax
   1c6e9:	89 d3                	mov    %edx,%ebx
   1c6eb:	31 c3                	xor    %eax,%ebx
   1c6ed:	8b 85 2c ea ff ff    	mov    -0x15d4(%rbp),%eax
   1c6f3:	85 c0                	test   %eax,%eax
   1c6f5:	74 7d                	je     1c774 <func_27+0x1e52>
   1c6f7:	0f b6 05 9a 8a 00 00 	movzbl 0x8a9a(%rip),%eax        # 25198 <g_77>
   1c6fe:	84 c0                	test   %al,%al
   1c700:	75 1e                	jne    1c720 <func_27+0x1dfe>
   1c702:	48 8b 85 48 e8 ff ff 	mov    -0x17b8(%rbp),%rax
   1c709:	48 89 85 e0 e9 ff ff 	mov    %rax,-0x1620(%rbp)
   1c710:	48 8d 85 10 e8 ff ff 	lea    -0x17f0(%rbp),%rax
   1c717:	48 39 85 e0 e9 ff ff 	cmp    %rax,-0x1620(%rbp)
   1c71e:	74 07                	je     1c727 <func_27+0x1e05>
   1c720:	b8 01 00 00 00       	mov    $0x1,%eax
   1c725:	eb 05                	jmp    1c72c <func_27+0x1e0a>
   1c727:	b8 00 00 00 00       	mov    $0x0,%eax
   1c72c:	f7 d0                	not    %eax
   1c72e:	48 98                	cltq   
   1c730:	48 be 66 62 4a df 5f 	movabs $0x910dac5fdf4a6266,%rsi
   1c737:	ac 0d 91 
   1c73a:	48 89 c7             	mov    %rax,%rdi
   1c73d:	e8 6d 19 ff ff       	callq  e0af <safe_div_func_uint64_t_u_u>
   1c742:	48 85 c0             	test   %rax,%rax
   1c745:	74 16                	je     1c75d <func_27+0x1e3b>
   1c747:	48 8b 05 9a c3 00 00 	mov    0xc39a(%rip),%rax        # 28ae8 <g_429>
   1c74e:	48 8b 00             	mov    (%rax),%rax
   1c751:	48 85 c0             	test   %rax,%rax
   1c754:	74 07                	je     1c75d <func_27+0x1e3b>
   1c756:	b8 01 00 00 00       	mov    $0x1,%eax
   1c75b:	eb 05                	jmp    1c762 <func_27+0x1e40>
   1c75d:	b8 00 00 00 00       	mov    $0x0,%eax
   1c762:	48 98                	cltq   
   1c764:	48 39 85 c8 e6 ff ff 	cmp    %rax,-0x1938(%rbp)
   1c76b:	74 07                	je     1c774 <func_27+0x1e52>
   1c76d:	b8 01 00 00 00       	mov    $0x1,%eax
   1c772:	eb 05                	jmp    1c779 <func_27+0x1e57>
   1c774:	b8 00 00 00 00       	mov    $0x0,%eax
   1c779:	0d 92 28 ef 21       	or     $0x21ef2892,%eax
   1c77e:	39 c3                	cmp    %eax,%ebx
   1c780:	0f 94 c0             	sete   %al
   1c783:	0f b6 d0             	movzbl %al,%edx
   1c786:	48 8b 85 e8 e9 ff ff 	mov    -0x1618(%rbp),%rax
   1c78d:	8b 00                	mov    (%rax),%eax
   1c78f:	21 c2                	and    %eax,%edx
   1c791:	48 8b 85 e8 e9 ff ff 	mov    -0x1618(%rbp),%rax
   1c798:	89 10                	mov    %edx,(%rax)
   1c79a:	48 8b 85 e8 e9 ff ff 	mov    -0x1618(%rbp),%rax
   1c7a1:	8b 10                	mov    (%rax),%edx
   1c7a3:	48 8b 05 16 bb 00 00 	mov    0xbb16(%rip),%rax        # 282c0 <g_61>
   1c7aa:	8b 00                	mov    (%rax),%eax
   1c7ac:	31 c2                	xor    %eax,%edx
   1c7ae:	48 8b 85 e8 e9 ff ff 	mov    -0x1618(%rbp),%rax
   1c7b5:	89 10                	mov    %edx,(%rax)
   1c7b7:	66 c7 05 68 88 00 00 	movw   $0x0,0x8868(%rip)        # 25028 <g_34>
   1c7be:	00 00 
   1c7c0:	e9 fa 01 00 00       	jmpq   1c9bf <func_27+0x209d>
   1c7c5:	c6 85 db e6 ff ff 01 	movb   $0x1,-0x1925(%rbp)
   1c7cc:	66 c7 85 f2 e6 ff ff 	movw   $0xfffe,-0x190e(%rbp)
   1c7d3:	fe ff 
   1c7d5:	c7 85 04 e8 ff ff 7d 	movl   $0x31299e7d,-0x17fc(%rbp)
   1c7dc:	9e 29 31 
   1c7df:	48 8b 85 20 e8 ff ff 	mov    -0x17e0(%rbp),%rax
   1c7e6:	48 8b 00             	mov    (%rax),%rax
   1c7e9:	44 8b 30             	mov    (%rax),%r14d
   1c7ec:	0f bf 9d f2 e6 ff ff 	movswl -0x190e(%rbp),%ebx
   1c7f3:	48 8b 85 20 e8 ff ff 	mov    -0x17e0(%rbp),%rax
   1c7fa:	48 8b 00             	mov    (%rax),%rax
   1c7fd:	8b 00                	mov    (%rax),%eax
   1c7ff:	44 0f b7 e0          	movzwl %ax,%r12d
   1c803:	44 0f be ad db e6 ff 	movsbl -0x1925(%rbp),%r13d
   1c80a:	ff 
   1c80b:	48 8b 85 30 e8 ff ff 	mov    -0x17d0(%rbp),%rax
   1c812:	48 8b 00             	mov    (%rax),%rax
   1c815:	48 b9 61 c6 64 4b 93 	movabs $0xbbfa11934b64c661,%rcx
   1c81c:	11 fa bb 
   1c81f:	48 89 08             	mov    %rcx,(%rax)
   1c822:	48 8b 85 c8 e6 ff ff 	mov    -0x1938(%rbp),%rax
   1c829:	89 85 c4 e6 ff ff    	mov    %eax,-0x193c(%rbp)
   1c82f:	8b 85 2c ea ff ff    	mov    -0x15d4(%rbp),%eax
   1c835:	89 85 c0 e6 ff ff    	mov    %eax,-0x1940(%rbp)
   1c83b:	44 8b bd c0 f3 ff ff 	mov    -0xc40(%rbp),%r15d
   1c842:	48 8b 85 c8 e6 ff ff 	mov    -0x1938(%rbp),%rax
   1c849:	0f b7 c0             	movzwl %ax,%eax
   1c84c:	be 06 00 00 00       	mov    $0x6,%esi
   1c851:	89 c7                	mov    %eax,%edi
   1c853:	e8 ae 15 ff ff       	callq  de06 <safe_lshift_func_uint16_t_u_u>
   1c858:	0f b7 d0             	movzwl %ax,%edx
   1c85b:	8b 05 4b 89 00 00    	mov    0x894b(%rip),%eax        # 251ac <g_131>
   1c861:	39 c2                	cmp    %eax,%edx
   1c863:	0f 9d c0             	setge  %al
   1c866:	0f b6 d0             	movzbl %al,%edx
   1c869:	48 8b 05 b0 89 00 00 	mov    0x89b0(%rip),%rax        # 25220 <g_265>
   1c870:	48 39 c2             	cmp    %rax,%rdx
   1c873:	0f 95 c0             	setne  %al
   1c876:	0f b6 c0             	movzbl %al,%eax
   1c879:	48 39 85 c8 e6 ff ff 	cmp    %rax,-0x1938(%rbp)
   1c880:	0f 95 c0             	setne  %al
   1c883:	0f b6 c0             	movzbl %al,%eax
   1c886:	89 c7                	mov    %eax,%edi
   1c888:	e8 10 0b ff ff       	callq  d39d <safe_unary_minus_func_int16_t_s>
   1c88d:	98                   	cwtl   
   1c88e:	41 39 c7             	cmp    %eax,%r15d
   1c891:	0f 95 c0             	setne  %al
   1c894:	0f b6 c0             	movzbl %al,%eax
   1c897:	8b b5 c0 e6 ff ff    	mov    -0x1940(%rbp),%esi
   1c89d:	89 c7                	mov    %eax,%edi
   1c89f:	e8 14 16 ff ff       	callq  deb8 <safe_add_func_uint32_t_u_u>
   1c8a4:	8b b5 c4 e6 ff ff    	mov    -0x193c(%rbp),%esi
   1c8aa:	bf fc ff ff ff       	mov    $0xfffffffc,%edi
   1c8af:	e8 02 0d ff ff       	callq  d5b6 <safe_add_func_int32_t_s_s>
   1c8b4:	48 8b 85 c8 e6 ff ff 	mov    -0x1938(%rbp),%rax
   1c8bb:	be 01 00 00 00       	mov    $0x1,%esi
   1c8c0:	48 89 c7             	mov    %rax,%rdi
   1c8c3:	e8 83 17 ff ff       	callq  e04b <safe_sub_func_uint64_t_u_u>
   1c8c8:	48 8b 85 c8 e6 ff ff 	mov    -0x1938(%rbp),%rax
   1c8cf:	89 c2                	mov    %eax,%edx
   1c8d1:	48 8b 85 e8 e9 ff ff 	mov    -0x1618(%rbp),%rax
   1c8d8:	89 10                	mov    %edx,(%rax)
   1c8da:	48 8b 85 e8 e9 ff ff 	mov    -0x1618(%rbp),%rax
   1c8e1:	8b 10                	mov    (%rax),%edx
   1c8e3:	48 8b 05 36 c5 00 00 	mov    0xc536(%rip),%rax        # 28e20 <g_859>
   1c8ea:	8b 00                	mov    (%rax),%eax
   1c8ec:	85 c0                	test   %eax,%eax
   1c8ee:	0f 95 c0             	setne  %al
   1c8f1:	0f b6 c0             	movzbl %al,%eax
   1c8f4:	39 c2                	cmp    %eax,%edx
   1c8f6:	0f 95 c0             	setne  %al
   1c8f9:	0f b6 d0             	movzbl %al,%edx
   1c8fc:	0f b7 05 19 89 00 00 	movzwl 0x8919(%rip),%eax        # 2521c <g_263>
   1c903:	98                   	cwtl   
   1c904:	39 c2                	cmp    %eax,%edx
   1c906:	0f 9e c0             	setle  %al
   1c909:	0f b6 c0             	movzbl %al,%eax
   1c90c:	44 89 ee             	mov    %r13d,%esi
   1c90f:	89 c7                	mov    %eax,%edi
   1c911:	e8 a0 0c ff ff       	callq  d5b6 <safe_add_func_int32_t_s_s>
   1c916:	48 8b 85 c8 e6 ff ff 	mov    -0x1938(%rbp),%rax
   1c91d:	48 35 f0 3a fc 10    	xor    $0x10fc3af0,%rax
   1c923:	48 89 c2             	mov    %rax,%rdx
   1c926:	48 0f be 85 db e6 ff 	movsbq -0x1925(%rbp),%rax
   1c92d:	ff 
   1c92e:	48 39 c2             	cmp    %rax,%rdx
   1c931:	0f 92 c0             	setb   %al
   1c934:	0f b6 c0             	movzbl %al,%eax
   1c937:	be 9d d1 ff ff       	mov    $0xffffd19d,%esi
   1c93c:	89 c7                	mov    %eax,%edi
   1c93e:	e8 d3 0a ff ff       	callq  d416 <safe_mod_func_int16_t_s_s>
   1c943:	0f bf d0             	movswl %ax,%edx
   1c946:	8b 05 44 88 00 00    	mov    0x8844(%rip),%eax        # 25190 <g_66>
   1c94c:	39 c2                	cmp    %eax,%edx
   1c94e:	0f 97 c0             	seta   %al
   1c951:	0f b6 c0             	movzbl %al,%eax
   1c954:	44 89 e6             	mov    %r12d,%esi
   1c957:	89 c7                	mov    %eax,%edi
   1c959:	e8 df 13 ff ff       	callq  dd3d <safe_mul_func_uint16_t_u_u>
   1c95e:	0f b7 c0             	movzwl %ax,%eax
   1c961:	48 8b 95 c8 e6 ff ff 	mov    -0x1938(%rbp),%rdx
   1c968:	48 89 d6             	mov    %rdx,%rsi
   1c96b:	48 89 c7             	mov    %rax,%rdi
   1c96e:	e8 0d 17 ff ff       	callq  e080 <safe_mod_func_uint64_t_u_u>
   1c973:	ba 35 4e eb e7       	mov    $0xe7eb4e35,%edx
   1c978:	48 39 d0             	cmp    %rdx,%rax
   1c97b:	0f 94 c0             	sete   %al
   1c97e:	0f b6 c0             	movzbl %al,%eax
   1c981:	89 de                	mov    %ebx,%esi
   1c983:	89 c7                	mov    %eax,%edi
   1c985:	e8 57 0b ff ff       	callq  d4e1 <safe_lshift_func_int16_t_s_u>
   1c98a:	98                   	cwtl   
   1c98b:	41 39 c6             	cmp    %eax,%r14d
   1c98e:	0f 9e c0             	setle  %al
   1c991:	0f b6 c0             	movzbl %al,%eax
   1c994:	be 04 00 00 00       	mov    $0x4,%esi
   1c999:	89 c7                	mov    %eax,%edi
   1c99b:	e8 cc 09 ff ff       	callq  d36c <safe_rshift_func_int8_t_s_u>
   1c9a0:	84 c0                	test   %al,%al
   1c9a2:	0f 9e c0             	setle  %al
   1c9a5:	0f b6 c0             	movzbl %al,%eax
   1c9a8:	09 85 04 e8 ff ff    	or     %eax,-0x17fc(%rbp)
   1c9ae:	0f b7 05 73 86 00 00 	movzwl 0x8673(%rip),%eax        # 25028 <g_34>
   1c9b5:	83 c0 01             	add    $0x1,%eax
   1c9b8:	66 89 05 69 86 00 00 	mov    %ax,0x8669(%rip)        # 25028 <g_34>
   1c9bf:	0f b7 05 62 86 00 00 	movzwl 0x8662(%rip),%eax        # 25028 <g_34>
   1c9c6:	66 83 f8 06          	cmp    $0x6,%ax
   1c9ca:	0f 86 f5 fd ff ff    	jbe    1c7c5 <func_27+0x1ea3>
   1c9d0:	e9 5c 1b 00 00       	jmpq   1e531 <func_27+0x3c0f>
   1c9d5:	48 8d 85 e0 ec ff ff 	lea    -0x1320(%rbp),%rax
   1c9dc:	48 83 c0 58          	add    $0x58,%rax
   1c9e0:	48 89 85 58 e9 ff ff 	mov    %rax,-0x16a8(%rbp)
   1c9e7:	48 c7 85 60 e9 ff ff 	movq   $0x0,-0x16a0(%rbp)
   1c9ee:	00 00 00 00 
   1c9f2:	48 8d 85 e0 ec ff ff 	lea    -0x1320(%rbp),%rax
   1c9f9:	48 89 85 68 e9 ff ff 	mov    %rax,-0x1698(%rbp)
   1ca00:	48 8d 05 01 88 00 00 	lea    0x8801(%rip),%rax        # 25208 <g_133+0x48>
   1ca07:	48 89 85 e0 eb ff ff 	mov    %rax,-0x1420(%rbp)
   1ca0e:	48 c7 85 e8 eb ff ff 	movq   $0x0,-0x1418(%rbp)
   1ca15:	00 00 00 00 
   1ca19:	48 8d 05 e8 87 00 00 	lea    0x87e8(%rip),%rax        # 25208 <g_133+0x48>
   1ca20:	48 89 85 f0 eb ff ff 	mov    %rax,-0x1410(%rbp)
   1ca27:	48 8d 85 e0 ec ff ff 	lea    -0x1320(%rbp),%rax
   1ca2e:	48 83 c0 28          	add    $0x28,%rax
   1ca32:	48 89 85 f8 eb ff ff 	mov    %rax,-0x1408(%rbp)
   1ca39:	48 8d 05 20 88 00 00 	lea    0x8820(%rip),%rax        # 25260 <g_871>
   1ca40:	48 89 85 00 ec ff ff 	mov    %rax,-0x1400(%rbp)
   1ca47:	48 8d 05 ae 87 00 00 	lea    0x87ae(%rip),%rax        # 251fc <g_133+0x3c>
   1ca4e:	48 89 85 08 ec ff ff 	mov    %rax,-0x13f8(%rbp)
   1ca55:	48 8d 85 e0 ec ff ff 	lea    -0x1320(%rbp),%rax
   1ca5c:	48 83 c0 28          	add    $0x28,%rax
   1ca60:	48 89 85 10 ec ff ff 	mov    %rax,-0x13f0(%rbp)
   1ca67:	48 8d 85 e0 ec ff ff 	lea    -0x1320(%rbp),%rax
   1ca6e:	48 83 c0 28          	add    $0x28,%rax
   1ca72:	48 89 85 18 ec ff ff 	mov    %rax,-0x13e8(%rbp)
   1ca79:	48 c7 85 20 ec ff ff 	movq   $0x0,-0x13e0(%rbp)
   1ca80:	00 00 00 00 
   1ca84:	48 c7 85 28 ec ff ff 	movq   $0x0,-0x13d8(%rbp)
   1ca8b:	00 00 00 00 
   1ca8f:	48 c7 85 30 ec ff ff 	movq   $0x0,-0x13d0(%rbp)
   1ca96:	00 00 00 00 
   1ca9a:	48 8d 85 e0 ec ff ff 	lea    -0x1320(%rbp),%rax
   1caa1:	48 83 c0 28          	add    $0x28,%rax
   1caa5:	48 89 85 38 ec ff ff 	mov    %rax,-0x13c8(%rbp)
   1caac:	48 8d 85 e0 ec ff ff 	lea    -0x1320(%rbp),%rax
   1cab3:	48 83 c0 28          	add    $0x28,%rax
   1cab7:	48 89 85 40 ec ff ff 	mov    %rax,-0x13c0(%rbp)
   1cabe:	48 8d 05 43 87 00 00 	lea    0x8743(%rip),%rax        # 25208 <g_133+0x48>
   1cac5:	48 89 85 48 ec ff ff 	mov    %rax,-0x13b8(%rbp)
   1cacc:	48 c7 85 50 ec ff ff 	movq   $0x0,-0x13b0(%rbp)
   1cad3:	00 00 00 00 
   1cad7:	48 8d 05 2a 87 00 00 	lea    0x872a(%rip),%rax        # 25208 <g_133+0x48>
   1cade:	48 89 85 58 ec ff ff 	mov    %rax,-0x13a8(%rbp)
   1cae5:	48 8d 05 f4 86 00 00 	lea    0x86f4(%rip),%rax        # 251e0 <g_133+0x20>
   1caec:	48 89 85 60 ec ff ff 	mov    %rax,-0x13a0(%rbp)
   1caf3:	48 8d 05 02 87 00 00 	lea    0x8702(%rip),%rax        # 251fc <g_133+0x3c>
   1cafa:	48 89 85 68 ec ff ff 	mov    %rax,-0x1398(%rbp)
   1cb01:	48 8d 85 00 e7 ff ff 	lea    -0x1900(%rbp),%rax
   1cb08:	48 89 85 70 ec ff ff 	mov    %rax,-0x1390(%rbp)
   1cb0f:	48 c7 85 78 ec ff ff 	movq   $0x0,-0x1388(%rbp)
   1cb16:	00 00 00 00 
   1cb1a:	48 8d 05 e7 86 00 00 	lea    0x86e7(%rip),%rax        # 25208 <g_133+0x48>
   1cb21:	48 89 85 80 ec ff ff 	mov    %rax,-0x1380(%rbp)
   1cb28:	48 8d 05 cd 86 00 00 	lea    0x86cd(%rip),%rax        # 251fc <g_133+0x3c>
   1cb2f:	48 89 85 88 ec ff ff 	mov    %rax,-0x1378(%rbp)
   1cb36:	48 8d 05 bf 86 00 00 	lea    0x86bf(%rip),%rax        # 251fc <g_133+0x3c>
   1cb3d:	48 89 85 90 ec ff ff 	mov    %rax,-0x1370(%rbp)
   1cb44:	48 8d 05 bd 86 00 00 	lea    0x86bd(%rip),%rax        # 25208 <g_133+0x48>
   1cb4b:	48 89 85 98 ec ff ff 	mov    %rax,-0x1368(%rbp)
   1cb52:	48 8d 05 a3 86 00 00 	lea    0x86a3(%rip),%rax        # 251fc <g_133+0x3c>
   1cb59:	48 89 85 a0 ec ff ff 	mov    %rax,-0x1360(%rbp)
   1cb60:	48 8d 05 a1 86 00 00 	lea    0x86a1(%rip),%rax        # 25208 <g_133+0x48>
   1cb67:	48 89 85 a8 ec ff ff 	mov    %rax,-0x1358(%rbp)
   1cb6e:	48 8d 05 6b 86 00 00 	lea    0x866b(%rip),%rax        # 251e0 <g_133+0x20>
   1cb75:	48 89 85 b0 ec ff ff 	mov    %rax,-0x1350(%rbp)
   1cb7c:	48 8d 85 e0 ec ff ff 	lea    -0x1320(%rbp),%rax
   1cb83:	48 83 c0 28          	add    $0x28,%rax
   1cb87:	48 89 85 b8 ec ff ff 	mov    %rax,-0x1348(%rbp)
   1cb8e:	48 8d 05 67 86 00 00 	lea    0x8667(%rip),%rax        # 251fc <g_133+0x3c>
   1cb95:	48 89 85 c0 ec ff ff 	mov    %rax,-0x1340(%rbp)
   1cb9c:	48 8d 05 3d 86 00 00 	lea    0x863d(%rip),%rax        # 251e0 <g_133+0x20>
   1cba3:	48 89 85 c8 ec ff ff 	mov    %rax,-0x1338(%rbp)
   1cbaa:	48 8d 05 4b 86 00 00 	lea    0x864b(%rip),%rax        # 251fc <g_133+0x3c>
   1cbb1:	48 89 85 d0 ec ff ff 	mov    %rax,-0x1330(%rbp)
   1cbb8:	48 8d 85 00 e7 ff ff 	lea    -0x1900(%rbp),%rax
   1cbbf:	48 89 85 d8 ec ff ff 	mov    %rax,-0x1328(%rbp)
   1cbc6:	48 8d 85 18 e8 ff ff 	lea    -0x17e8(%rbp),%rax
   1cbcd:	48 89 85 b0 f4 ff ff 	mov    %rax,-0xb50(%rbp)
   1cbd4:	48 8d 85 18 e8 ff ff 	lea    -0x17e8(%rbp),%rax
   1cbdb:	48 89 85 b8 f4 ff ff 	mov    %rax,-0xb48(%rbp)
   1cbe2:	48 c7 85 c0 f4 ff ff 	movq   $0x0,-0xb40(%rbp)
   1cbe9:	00 00 00 00 
   1cbed:	48 c7 85 c8 f4 ff ff 	movq   $0x0,-0xb38(%rbp)
   1cbf4:	00 00 00 00 
   1cbf8:	48 c7 85 d0 f4 ff ff 	movq   $0x0,-0xb30(%rbp)
   1cbff:	00 00 00 00 
   1cc03:	48 c7 85 d8 f4 ff ff 	movq   $0x0,-0xb28(%rbp)
   1cc0a:	00 00 00 00 
   1cc0e:	48 8d 85 18 e8 ff ff 	lea    -0x17e8(%rbp),%rax
   1cc15:	48 89 85 e0 f4 ff ff 	mov    %rax,-0xb20(%rbp)
   1cc1c:	48 8d 85 18 e8 ff ff 	lea    -0x17e8(%rbp),%rax
   1cc23:	48 89 85 e8 f4 ff ff 	mov    %rax,-0xb18(%rbp)
   1cc2a:	48 8d 85 18 e8 ff ff 	lea    -0x17e8(%rbp),%rax
   1cc31:	48 89 85 f0 f4 ff ff 	mov    %rax,-0xb10(%rbp)
   1cc38:	48 8d 05 e1 be 00 00 	lea    0xbee1(%rip),%rax        # 28b20 <g_487>
   1cc3f:	48 89 85 f8 f4 ff ff 	mov    %rax,-0xb08(%rbp)
   1cc46:	48 c7 85 00 f5 ff ff 	movq   $0x0,-0xb00(%rbp)
   1cc4d:	00 00 00 00 
   1cc51:	48 8d 85 18 e8 ff ff 	lea    -0x17e8(%rbp),%rax
   1cc58:	48 89 85 08 f5 ff ff 	mov    %rax,-0xaf8(%rbp)
   1cc5f:	48 8d 85 18 e8 ff ff 	lea    -0x17e8(%rbp),%rax
   1cc66:	48 89 85 10 f5 ff ff 	mov    %rax,-0xaf0(%rbp)
   1cc6d:	48 8d 85 18 e8 ff ff 	lea    -0x17e8(%rbp),%rax
   1cc74:	48 89 85 18 f5 ff ff 	mov    %rax,-0xae8(%rbp)
   1cc7b:	48 8d 05 9e be 00 00 	lea    0xbe9e(%rip),%rax        # 28b20 <g_487>
   1cc82:	48 89 85 20 f5 ff ff 	mov    %rax,-0xae0(%rbp)
   1cc89:	48 8d 85 18 e8 ff ff 	lea    -0x17e8(%rbp),%rax
   1cc90:	48 89 85 28 f5 ff ff 	mov    %rax,-0xad8(%rbp)
   1cc97:	48 8d 85 18 e8 ff ff 	lea    -0x17e8(%rbp),%rax
   1cc9e:	48 89 85 30 f5 ff ff 	mov    %rax,-0xad0(%rbp)
   1cca5:	48 8d 85 18 e8 ff ff 	lea    -0x17e8(%rbp),%rax
   1ccac:	48 89 85 38 f5 ff ff 	mov    %rax,-0xac8(%rbp)
   1ccb3:	48 c7 85 40 f5 ff ff 	movq   $0x0,-0xac0(%rbp)
   1ccba:	00 00 00 00 
   1ccbe:	48 c7 85 48 f5 ff ff 	movq   $0x0,-0xab8(%rbp)
   1ccc5:	00 00 00 00 
   1ccc9:	48 8d 85 18 e8 ff ff 	lea    -0x17e8(%rbp),%rax
   1ccd0:	48 89 85 50 f5 ff ff 	mov    %rax,-0xab0(%rbp)
   1ccd7:	48 8d 05 42 be 00 00 	lea    0xbe42(%rip),%rax        # 28b20 <g_487>
   1ccde:	48 89 85 58 f5 ff ff 	mov    %rax,-0xaa8(%rbp)
   1cce5:	48 8d 85 18 e8 ff ff 	lea    -0x17e8(%rbp),%rax
   1ccec:	48 89 85 60 f5 ff ff 	mov    %rax,-0xaa0(%rbp)
   1ccf3:	48 8d 05 26 be 00 00 	lea    0xbe26(%rip),%rax        # 28b20 <g_487>
   1ccfa:	48 89 85 68 f5 ff ff 	mov    %rax,-0xa98(%rbp)
   1cd01:	48 8d 85 18 e8 ff ff 	lea    -0x17e8(%rbp),%rax
   1cd08:	48 89 85 70 f5 ff ff 	mov    %rax,-0xa90(%rbp)
   1cd0f:	48 8d 85 18 e8 ff ff 	lea    -0x17e8(%rbp),%rax
   1cd16:	48 89 85 78 f5 ff ff 	mov    %rax,-0xa88(%rbp)
   1cd1d:	48 8d 05 fc bd 00 00 	lea    0xbdfc(%rip),%rax        # 28b20 <g_487>
   1cd24:	48 89 85 80 f5 ff ff 	mov    %rax,-0xa80(%rbp)
   1cd2b:	48 8d 85 18 e8 ff ff 	lea    -0x17e8(%rbp),%rax
   1cd32:	48 89 85 88 f5 ff ff 	mov    %rax,-0xa78(%rbp)
   1cd39:	48 8d 05 e0 bd 00 00 	lea    0xbde0(%rip),%rax        # 28b20 <g_487>
   1cd40:	48 89 85 90 f5 ff ff 	mov    %rax,-0xa70(%rbp)
   1cd47:	48 8d 85 18 e8 ff ff 	lea    -0x17e8(%rbp),%rax
   1cd4e:	48 89 85 98 f5 ff ff 	mov    %rax,-0xa68(%rbp)
   1cd55:	48 8d 05 c4 bd 00 00 	lea    0xbdc4(%rip),%rax        # 28b20 <g_487>
   1cd5c:	48 89 85 a0 f5 ff ff 	mov    %rax,-0xa60(%rbp)
   1cd63:	48 8d 85 18 e8 ff ff 	lea    -0x17e8(%rbp),%rax
   1cd6a:	48 89 85 a8 f5 ff ff 	mov    %rax,-0xa58(%rbp)
   1cd71:	48 c7 85 b0 f5 ff ff 	movq   $0x0,-0xa50(%rbp)
   1cd78:	00 00 00 00 
   1cd7c:	48 8d 05 9d bd 00 00 	lea    0xbd9d(%rip),%rax        # 28b20 <g_487>
   1cd83:	48 89 85 b8 f5 ff ff 	mov    %rax,-0xa48(%rbp)
   1cd8a:	48 8d 05 8f bd 00 00 	lea    0xbd8f(%rip),%rax        # 28b20 <g_487>
   1cd91:	48 89 85 c0 f5 ff ff 	mov    %rax,-0xa40(%rbp)
   1cd98:	48 8d 85 18 e8 ff ff 	lea    -0x17e8(%rbp),%rax
   1cd9f:	48 89 85 c8 f5 ff ff 	mov    %rax,-0xa38(%rbp)
   1cda6:	48 8d 05 73 bd 00 00 	lea    0xbd73(%rip),%rax        # 28b20 <g_487>
   1cdad:	48 89 85 d0 f5 ff ff 	mov    %rax,-0xa30(%rbp)
   1cdb4:	48 8d 05 65 bd 00 00 	lea    0xbd65(%rip),%rax        # 28b20 <g_487>
   1cdbb:	48 89 85 d8 f5 ff ff 	mov    %rax,-0xa28(%rbp)
   1cdc2:	48 c7 85 e0 f5 ff ff 	movq   $0x0,-0xa20(%rbp)
   1cdc9:	00 00 00 00 
   1cdcd:	48 8d 85 18 e8 ff ff 	lea    -0x17e8(%rbp),%rax
   1cdd4:	48 89 85 e8 f5 ff ff 	mov    %rax,-0xa18(%rbp)
   1cddb:	48 c7 85 f0 f5 ff ff 	movq   $0x0,-0xa10(%rbp)
   1cde2:	00 00 00 00 
   1cde6:	48 8d 85 18 e8 ff ff 	lea    -0x17e8(%rbp),%rax
   1cded:	48 89 85 f8 f5 ff ff 	mov    %rax,-0xa08(%rbp)
   1cdf4:	48 8d 85 18 e8 ff ff 	lea    -0x17e8(%rbp),%rax
   1cdfb:	48 89 85 00 f6 ff ff 	mov    %rax,-0xa00(%rbp)
   1ce02:	48 8d 85 18 e8 ff ff 	lea    -0x17e8(%rbp),%rax
   1ce09:	48 89 85 08 f6 ff ff 	mov    %rax,-0x9f8(%rbp)
   1ce10:	48 8d 05 09 bd 00 00 	lea    0xbd09(%rip),%rax        # 28b20 <g_487>
   1ce17:	48 89 85 10 f6 ff ff 	mov    %rax,-0x9f0(%rbp)
   1ce1e:	48 8d 05 fb bc 00 00 	lea    0xbcfb(%rip),%rax        # 28b20 <g_487>
   1ce25:	48 89 85 18 f6 ff ff 	mov    %rax,-0x9e8(%rbp)
   1ce2c:	48 8d 05 ed bc 00 00 	lea    0xbced(%rip),%rax        # 28b20 <g_487>
   1ce33:	48 89 85 20 f6 ff ff 	mov    %rax,-0x9e0(%rbp)
   1ce3a:	48 8d 05 df bc 00 00 	lea    0xbcdf(%rip),%rax        # 28b20 <g_487>
   1ce41:	48 89 85 28 f6 ff ff 	mov    %rax,-0x9d8(%rbp)
   1ce48:	48 8d 85 18 e8 ff ff 	lea    -0x17e8(%rbp),%rax
   1ce4f:	48 89 85 30 f6 ff ff 	mov    %rax,-0x9d0(%rbp)
   1ce56:	48 8d 85 18 e8 ff ff 	lea    -0x17e8(%rbp),%rax
   1ce5d:	48 89 85 38 f6 ff ff 	mov    %rax,-0x9c8(%rbp)
   1ce64:	48 8d 05 b5 bc 00 00 	lea    0xbcb5(%rip),%rax        # 28b20 <g_487>
   1ce6b:	48 89 85 40 f6 ff ff 	mov    %rax,-0x9c0(%rbp)
   1ce72:	48 8d 05 a7 bc 00 00 	lea    0xbca7(%rip),%rax        # 28b20 <g_487>
   1ce79:	48 89 85 48 f6 ff ff 	mov    %rax,-0x9b8(%rbp)
   1ce80:	48 8d 05 99 bc 00 00 	lea    0xbc99(%rip),%rax        # 28b20 <g_487>
   1ce87:	48 89 85 50 f6 ff ff 	mov    %rax,-0x9b0(%rbp)
   1ce8e:	48 c7 85 58 f6 ff ff 	movq   $0x0,-0x9a8(%rbp)
   1ce95:	00 00 00 00 
   1ce99:	48 8d 85 18 e8 ff ff 	lea    -0x17e8(%rbp),%rax
   1cea0:	48 89 85 60 f6 ff ff 	mov    %rax,-0x9a0(%rbp)
   1cea7:	48 8d 05 72 bc 00 00 	lea    0xbc72(%rip),%rax        # 28b20 <g_487>
   1ceae:	48 89 85 68 f6 ff ff 	mov    %rax,-0x998(%rbp)
   1ceb5:	48 c7 85 70 f6 ff ff 	movq   $0x0,-0x990(%rbp)
   1cebc:	00 00 00 00 
   1cec0:	48 8d 05 59 bc 00 00 	lea    0xbc59(%rip),%rax        # 28b20 <g_487>
   1cec7:	48 89 85 78 f6 ff ff 	mov    %rax,-0x988(%rbp)
   1cece:	48 8d 85 18 e8 ff ff 	lea    -0x17e8(%rbp),%rax
   1ced5:	48 89 85 80 f6 ff ff 	mov    %rax,-0x980(%rbp)
   1cedc:	48 c7 85 88 f6 ff ff 	movq   $0x0,-0x978(%rbp)
   1cee3:	00 00 00 00 
   1cee7:	48 c7 85 90 f6 ff ff 	movq   $0x0,-0x970(%rbp)
   1ceee:	00 00 00 00 
   1cef2:	48 8d 85 18 e8 ff ff 	lea    -0x17e8(%rbp),%rax
   1cef9:	48 89 85 98 f6 ff ff 	mov    %rax,-0x968(%rbp)
   1cf00:	48 c7 85 a0 f6 ff ff 	movq   $0x0,-0x960(%rbp)
   1cf07:	00 00 00 00 
   1cf0b:	48 8d 05 0e bc 00 00 	lea    0xbc0e(%rip),%rax        # 28b20 <g_487>
   1cf12:	48 89 85 a8 f6 ff ff 	mov    %rax,-0x958(%rbp)
   1cf19:	48 8d 05 00 bc 00 00 	lea    0xbc00(%rip),%rax        # 28b20 <g_487>
   1cf20:	48 89 85 b0 f6 ff ff 	mov    %rax,-0x950(%rbp)
   1cf27:	48 8d 85 18 e8 ff ff 	lea    -0x17e8(%rbp),%rax
   1cf2e:	48 89 85 b8 f6 ff ff 	mov    %rax,-0x948(%rbp)
   1cf35:	48 c7 85 c0 f6 ff ff 	movq   $0x0,-0x940(%rbp)
   1cf3c:	00 00 00 00 
   1cf40:	48 c7 85 c8 f6 ff ff 	movq   $0x0,-0x938(%rbp)
   1cf47:	00 00 00 00 
   1cf4b:	48 8d 85 18 e8 ff ff 	lea    -0x17e8(%rbp),%rax
   1cf52:	48 89 85 d0 f6 ff ff 	mov    %rax,-0x930(%rbp)
   1cf59:	48 8d 05 c0 bb 00 00 	lea    0xbbc0(%rip),%rax        # 28b20 <g_487>
   1cf60:	48 89 85 d8 f6 ff ff 	mov    %rax,-0x928(%rbp)
   1cf67:	48 8d 05 b2 bb 00 00 	lea    0xbbb2(%rip),%rax        # 28b20 <g_487>
   1cf6e:	48 89 85 e0 f6 ff ff 	mov    %rax,-0x920(%rbp)
   1cf75:	48 8d 05 a4 bb 00 00 	lea    0xbba4(%rip),%rax        # 28b20 <g_487>
   1cf7c:	48 89 85 e8 f6 ff ff 	mov    %rax,-0x918(%rbp)
   1cf83:	48 8d 05 96 bb 00 00 	lea    0xbb96(%rip),%rax        # 28b20 <g_487>
   1cf8a:	48 89 85 f0 f6 ff ff 	mov    %rax,-0x910(%rbp)
   1cf91:	48 8d 05 88 bb 00 00 	lea    0xbb88(%rip),%rax        # 28b20 <g_487>
   1cf98:	48 89 85 f8 f6 ff ff 	mov    %rax,-0x908(%rbp)
   1cf9f:	48 c7 85 00 f7 ff ff 	movq   $0x0,-0x900(%rbp)
   1cfa6:	00 00 00 00 
   1cfaa:	48 8d 85 18 e8 ff ff 	lea    -0x17e8(%rbp),%rax
   1cfb1:	48 89 85 08 f7 ff ff 	mov    %rax,-0x8f8(%rbp)
   1cfb8:	48 8d 05 61 bb 00 00 	lea    0xbb61(%rip),%rax        # 28b20 <g_487>
   1cfbf:	48 89 85 10 f7 ff ff 	mov    %rax,-0x8f0(%rbp)
   1cfc6:	48 c7 85 18 f7 ff ff 	movq   $0x0,-0x8e8(%rbp)
   1cfcd:	00 00 00 00 
   1cfd1:	48 8d 05 48 bb 00 00 	lea    0xbb48(%rip),%rax        # 28b20 <g_487>
   1cfd8:	48 89 85 20 f7 ff ff 	mov    %rax,-0x8e0(%rbp)
   1cfdf:	48 8d 85 18 e8 ff ff 	lea    -0x17e8(%rbp),%rax
   1cfe6:	48 89 85 28 f7 ff ff 	mov    %rax,-0x8d8(%rbp)
   1cfed:	48 8d 85 18 e8 ff ff 	lea    -0x17e8(%rbp),%rax
   1cff4:	48 89 85 30 f7 ff ff 	mov    %rax,-0x8d0(%rbp)
   1cffb:	48 8d 85 18 e8 ff ff 	lea    -0x17e8(%rbp),%rax
   1d002:	48 89 85 38 f7 ff ff 	mov    %rax,-0x8c8(%rbp)
   1d009:	48 c7 85 40 f7 ff ff 	movq   $0x0,-0x8c0(%rbp)
   1d010:	00 00 00 00 
   1d014:	48 8d 85 18 e8 ff ff 	lea    -0x17e8(%rbp),%rax
   1d01b:	48 89 85 48 f7 ff ff 	mov    %rax,-0x8b8(%rbp)
   1d022:	48 8d 85 18 e8 ff ff 	lea    -0x17e8(%rbp),%rax
   1d029:	48 89 85 50 f7 ff ff 	mov    %rax,-0x8b0(%rbp)
   1d030:	48 8d 85 18 e8 ff ff 	lea    -0x17e8(%rbp),%rax
   1d037:	48 89 85 58 f7 ff ff 	mov    %rax,-0x8a8(%rbp)
   1d03e:	48 8d 05 db ba 00 00 	lea    0xbadb(%rip),%rax        # 28b20 <g_487>
   1d045:	48 89 85 60 f7 ff ff 	mov    %rax,-0x8a0(%rbp)
   1d04c:	48 8d 05 cd ba 00 00 	lea    0xbacd(%rip),%rax        # 28b20 <g_487>
   1d053:	48 89 85 68 f7 ff ff 	mov    %rax,-0x898(%rbp)
   1d05a:	48 8d 05 bf ba 00 00 	lea    0xbabf(%rip),%rax        # 28b20 <g_487>
   1d061:	48 89 85 70 f7 ff ff 	mov    %rax,-0x890(%rbp)
   1d068:	48 8d 05 b1 ba 00 00 	lea    0xbab1(%rip),%rax        # 28b20 <g_487>
   1d06f:	48 89 85 78 f7 ff ff 	mov    %rax,-0x888(%rbp)
   1d076:	48 8d 85 b0 f4 ff ff 	lea    -0xb50(%rbp),%rax
   1d07d:	48 05 c0 00 00 00    	add    $0xc0,%rax
   1d083:	48 89 85 70 e9 ff ff 	mov    %rax,-0x1690(%rbp)
   1d08a:	48 8d 05 9f bd 00 00 	lea    0xbd9f(%rip),%rax        # 28e30 <g_857>
   1d091:	48 89 85 78 e9 ff ff 	mov    %rax,-0x1688(%rbp)
   1d098:	48 8d 05 89 7f 00 00 	lea    0x7f89(%rip),%rax        # 25028 <g_34>
   1d09f:	48 89 85 10 f8 ff ff 	mov    %rax,-0x7f0(%rbp)
   1d0a6:	48 8d 05 9b 80 00 00 	lea    0x809b(%rip),%rax        # 25148 <g_43+0x108>
   1d0ad:	48 89 85 18 f8 ff ff 	mov    %rax,-0x7e8(%rbp)
   1d0b4:	48 8d 05 6d 7f 00 00 	lea    0x7f6d(%rip),%rax        # 25028 <g_34>
   1d0bb:	48 89 85 20 f8 ff ff 	mov    %rax,-0x7e0(%rbp)
   1d0c2:	48 8d 05 cd 80 00 00 	lea    0x80cd(%rip),%rax        # 25196 <g_70>
   1d0c9:	48 89 85 28 f8 ff ff 	mov    %rax,-0x7d8(%rbp)
   1d0d0:	48 8d 85 dc e6 ff ff 	lea    -0x1924(%rbp),%rax
   1d0d7:	48 89 85 30 f8 ff ff 	mov    %rax,-0x7d0(%rbp)
   1d0de:	48 8d 05 43 7f 00 00 	lea    0x7f43(%rip),%rax        # 25028 <g_34>
   1d0e5:	48 89 85 38 f8 ff ff 	mov    %rax,-0x7c8(%rbp)
   1d0ec:	48 c7 85 40 f8 ff ff 	movq   $0x0,-0x7c0(%rbp)
   1d0f3:	00 00 00 00 
   1d0f7:	48 8d 85 dc e6 ff ff 	lea    -0x1924(%rbp),%rax
   1d0fe:	48 89 85 48 f8 ff ff 	mov    %rax,-0x7b8(%rbp)
   1d105:	48 8d 05 3c 80 00 00 	lea    0x803c(%rip),%rax        # 25148 <g_43+0x108>
   1d10c:	48 89 85 50 f8 ff ff 	mov    %rax,-0x7b0(%rbp)
   1d113:	48 8d 05 36 7f 00 00 	lea    0x7f36(%rip),%rax        # 25050 <g_43+0x10>
   1d11a:	48 89 85 58 f8 ff ff 	mov    %rax,-0x7a8(%rbp)
   1d121:	48 8d 85 dc e6 ff ff 	lea    -0x1924(%rbp),%rax
   1d128:	48 89 85 60 f8 ff ff 	mov    %rax,-0x7a0(%rbp)
   1d12f:	48 8d 05 12 80 00 00 	lea    0x8012(%rip),%rax        # 25148 <g_43+0x108>
   1d136:	48 89 85 68 f8 ff ff 	mov    %rax,-0x798(%rbp)
   1d13d:	48 c7 85 70 f8 ff ff 	movq   $0x0,-0x790(%rbp)
   1d144:	00 00 00 00 
   1d148:	48 8d 05 f9 7f 00 00 	lea    0x7ff9(%rip),%rax        # 25148 <g_43+0x108>
   1d14f:	48 89 85 78 f8 ff ff 	mov    %rax,-0x788(%rbp)
   1d156:	48 8d 05 e3 80 00 00 	lea    0x80e3(%rip),%rax        # 25240 <g_807>
   1d15d:	48 89 85 80 f8 ff ff 	mov    %rax,-0x780(%rbp)
   1d164:	48 8d 05 2b 80 00 00 	lea    0x802b(%rip),%rax        # 25196 <g_70>
   1d16b:	48 89 85 88 f8 ff ff 	mov    %rax,-0x778(%rbp)
   1d172:	48 8d 05 1d 80 00 00 	lea    0x801d(%rip),%rax        # 25196 <g_70>
   1d179:	48 89 85 90 f8 ff ff 	mov    %rax,-0x770(%rbp)
   1d180:	48 8d 05 b9 80 00 00 	lea    0x80b9(%rip),%rax        # 25240 <g_807>
   1d187:	48 89 85 98 f8 ff ff 	mov    %rax,-0x768(%rbp)
   1d18e:	48 c7 85 a0 f8 ff ff 	movq   $0x0,-0x760(%rbp)
   1d195:	00 00 00 00 
   1d199:	48 8d 05 88 7e 00 00 	lea    0x7e88(%rip),%rax        # 25028 <g_34>
   1d1a0:	48 89 85 a8 f8 ff ff 	mov    %rax,-0x758(%rbp)
   1d1a7:	48 8d 85 dc e6 ff ff 	lea    -0x1924(%rbp),%rax
   1d1ae:	48 89 85 b0 f8 ff ff 	mov    %rax,-0x750(%rbp)
   1d1b5:	48 c7 85 b8 f8 ff ff 	movq   $0x0,-0x748(%rbp)
   1d1bc:	00 00 00 00 
   1d1c0:	48 8d 05 61 7e 00 00 	lea    0x7e61(%rip),%rax        # 25028 <g_34>
   1d1c7:	48 89 85 c0 f8 ff ff 	mov    %rax,-0x740(%rbp)
   1d1ce:	48 8d 05 c1 7f 00 00 	lea    0x7fc1(%rip),%rax        # 25196 <g_70>
   1d1d5:	48 89 85 c8 f8 ff ff 	mov    %rax,-0x738(%rbp)
   1d1dc:	48 8d 05 c5 7f 00 00 	lea    0x7fc5(%rip),%rax        # 251a8 <g_126>
   1d1e3:	48 89 85 d0 f8 ff ff 	mov    %rax,-0x730(%rbp)
   1d1ea:	48 8d 85 dc e6 ff ff 	lea    -0x1924(%rbp),%rax
   1d1f1:	48 89 85 d8 f8 ff ff 	mov    %rax,-0x728(%rbp)
   1d1f8:	48 c7 85 e0 f8 ff ff 	movq   $0x0,-0x720(%rbp)
   1d1ff:	00 00 00 00 
   1d203:	48 c7 85 e8 f8 ff ff 	movq   $0x0,-0x718(%rbp)
   1d20a:	00 00 00 00 
   1d20e:	48 8d 05 13 7e 00 00 	lea    0x7e13(%rip),%rax        # 25028 <g_34>
   1d215:	48 89 85 f0 f8 ff ff 	mov    %rax,-0x710(%rbp)
   1d21c:	48 8d 85 dc e6 ff ff 	lea    -0x1924(%rbp),%rax
   1d223:	48 89 85 f8 f8 ff ff 	mov    %rax,-0x708(%rbp)
   1d22a:	48 8d 05 1f 7e 00 00 	lea    0x7e1f(%rip),%rax        # 25050 <g_43+0x10>
   1d231:	48 89 85 00 f9 ff ff 	mov    %rax,-0x700(%rbp)
   1d238:	48 8d 85 dc e6 ff ff 	lea    -0x1924(%rbp),%rax
   1d23f:	48 89 85 08 f9 ff ff 	mov    %rax,-0x6f8(%rbp)
   1d246:	48 8d 05 db 7d 00 00 	lea    0x7ddb(%rip),%rax        # 25028 <g_34>
   1d24d:	48 89 85 10 f9 ff ff 	mov    %rax,-0x6f0(%rbp)
   1d254:	48 8d 05 e5 7f 00 00 	lea    0x7fe5(%rip),%rax        # 25240 <g_807>
   1d25b:	48 89 85 18 f9 ff ff 	mov    %rax,-0x6e8(%rbp)
   1d262:	48 8d 85 dc e6 ff ff 	lea    -0x1924(%rbp),%rax
   1d269:	48 89 85 20 f9 ff ff 	mov    %rax,-0x6e0(%rbp)
   1d270:	48 8d 05 c9 7f 00 00 	lea    0x7fc9(%rip),%rax        # 25240 <g_807>
   1d277:	48 89 85 28 f9 ff ff 	mov    %rax,-0x6d8(%rbp)
   1d27e:	48 c7 85 30 f9 ff ff 	movq   $0x0,-0x6d0(%rbp)
   1d285:	00 00 00 00 
   1d289:	48 8d 05 98 7d 00 00 	lea    0x7d98(%rip),%rax        # 25028 <g_34>
   1d290:	48 89 85 38 f9 ff ff 	mov    %rax,-0x6c8(%rbp)
   1d297:	48 8d 85 dc e6 ff ff 	lea    -0x1924(%rbp),%rax
   1d29e:	48 89 85 40 f9 ff ff 	mov    %rax,-0x6c0(%rbp)
   1d2a5:	48 8d 05 ea 7e 00 00 	lea    0x7eea(%rip),%rax        # 25196 <g_70>
   1d2ac:	48 89 85 48 f9 ff ff 	mov    %rax,-0x6b8(%rbp)
   1d2b3:	48 8d 05 6e 7d 00 00 	lea    0x7d6e(%rip),%rax        # 25028 <g_34>
   1d2ba:	48 89 85 50 f9 ff ff 	mov    %rax,-0x6b0(%rbp)
   1d2c1:	48 8d 05 80 7e 00 00 	lea    0x7e80(%rip),%rax        # 25148 <g_43+0x108>
   1d2c8:	48 89 85 58 f9 ff ff 	mov    %rax,-0x6a8(%rbp)
   1d2cf:	48 8d 05 c0 7e 00 00 	lea    0x7ec0(%rip),%rax        # 25196 <g_70>
   1d2d6:	48 89 85 60 f9 ff ff 	mov    %rax,-0x6a0(%rbp)
   1d2dd:	48 8d 05 64 7e 00 00 	lea    0x7e64(%rip),%rax        # 25148 <g_43+0x108>
   1d2e4:	48 89 85 68 f9 ff ff 	mov    %rax,-0x698(%rbp)
   1d2eb:	48 8d 05 b6 7e 00 00 	lea    0x7eb6(%rip),%rax        # 251a8 <g_126>
   1d2f2:	48 89 85 70 f9 ff ff 	mov    %rax,-0x690(%rbp)
   1d2f9:	48 8d 05 a8 7e 00 00 	lea    0x7ea8(%rip),%rax        # 251a8 <g_126>
   1d300:	48 89 85 78 f9 ff ff 	mov    %rax,-0x688(%rbp)
   1d307:	48 8d 05 3a 7e 00 00 	lea    0x7e3a(%rip),%rax        # 25148 <g_43+0x108>
   1d30e:	48 89 85 80 f9 ff ff 	mov    %rax,-0x680(%rbp)
   1d315:	48 8d 05 7a 7e 00 00 	lea    0x7e7a(%rip),%rax        # 25196 <g_70>
   1d31c:	48 89 85 88 f9 ff ff 	mov    %rax,-0x678(%rbp)
   1d323:	48 c7 85 90 f9 ff ff 	movq   $0x0,-0x670(%rbp)
   1d32a:	00 00 00 00 
   1d32e:	48 8d 05 0b 7f 00 00 	lea    0x7f0b(%rip),%rax        # 25240 <g_807>
   1d335:	48 89 85 98 f9 ff ff 	mov    %rax,-0x668(%rbp)
   1d33c:	48 8d 85 dc e6 ff ff 	lea    -0x1924(%rbp),%rax
   1d343:	48 89 85 a0 f9 ff ff 	mov    %rax,-0x660(%rbp)
   1d34a:	48 c7 85 a8 f9 ff ff 	movq   $0x0,-0x658(%rbp)
   1d351:	00 00 00 00 
   1d355:	48 8d 05 e4 7e 00 00 	lea    0x7ee4(%rip),%rax        # 25240 <g_807>
   1d35c:	48 89 85 b0 f9 ff ff 	mov    %rax,-0x650(%rbp)
   1d363:	48 8d 05 de 7d 00 00 	lea    0x7dde(%rip),%rax        # 25148 <g_43+0x108>
   1d36a:	48 89 85 b8 f9 ff ff 	mov    %rax,-0x648(%rbp)
   1d371:	48 c7 85 c0 f9 ff ff 	movq   $0x0,-0x640(%rbp)
   1d378:	00 00 00 00 
   1d37c:	48 8d 85 dc e6 ff ff 	lea    -0x1924(%rbp),%rax
   1d383:	48 89 85 c8 f9 ff ff 	mov    %rax,-0x638(%rbp)
   1d38a:	48 8d 05 97 7c 00 00 	lea    0x7c97(%rip),%rax        # 25028 <g_34>
   1d391:	48 89 85 d0 f9 ff ff 	mov    %rax,-0x630(%rbp)
   1d398:	48 c7 85 d8 f9 ff ff 	movq   $0x0,-0x628(%rbp)
   1d39f:	00 00 00 00 
   1d3a3:	48 8d 05 ec 7d 00 00 	lea    0x7dec(%rip),%rax        # 25196 <g_70>
   1d3aa:	48 89 85 e0 f9 ff ff 	mov    %rax,-0x620(%rbp)
   1d3b1:	48 8d 85 dc e6 ff ff 	lea    -0x1924(%rbp),%rax
   1d3b8:	48 89 85 e8 f9 ff ff 	mov    %rax,-0x618(%rbp)
   1d3bf:	48 8d 05 d0 7d 00 00 	lea    0x7dd0(%rip),%rax        # 25196 <g_70>
   1d3c6:	48 89 85 f0 f9 ff ff 	mov    %rax,-0x610(%rbp)
   1d3cd:	48 c7 85 f8 f9 ff ff 	movq   $0x0,-0x608(%rbp)
   1d3d4:	00 00 00 00 
   1d3d8:	48 8d 05 49 7c 00 00 	lea    0x7c49(%rip),%rax        # 25028 <g_34>
   1d3df:	48 89 85 00 fa ff ff 	mov    %rax,-0x600(%rbp)
   1d3e6:	48 c7 85 08 fa ff ff 	movq   $0x0,-0x5f8(%rbp)
   1d3ed:	00 00 00 00 
   1d3f1:	48 8d 85 dc e6 ff ff 	lea    -0x1924(%rbp),%rax
   1d3f8:	48 89 85 10 fa ff ff 	mov    %rax,-0x5f0(%rbp)
   1d3ff:	48 8d 05 a2 7d 00 00 	lea    0x7da2(%rip),%rax        # 251a8 <g_126>
   1d406:	48 89 85 18 fa ff ff 	mov    %rax,-0x5e8(%rbp)
   1d40d:	48 8d 05 82 7d 00 00 	lea    0x7d82(%rip),%rax        # 25196 <g_70>
   1d414:	48 89 85 20 fa ff ff 	mov    %rax,-0x5e0(%rbp)
   1d41b:	48 8d 05 06 7c 00 00 	lea    0x7c06(%rip),%rax        # 25028 <g_34>
   1d422:	48 89 85 28 fa ff ff 	mov    %rax,-0x5d8(%rbp)
   1d429:	48 c7 85 30 fa ff ff 	movq   $0x0,-0x5d0(%rbp)
   1d430:	00 00 00 00 
   1d434:	48 8d 05 5b 7d 00 00 	lea    0x7d5b(%rip),%rax        # 25196 <g_70>
   1d43b:	48 89 85 38 fa ff ff 	mov    %rax,-0x5c8(%rbp)
   1d442:	48 8d 05 f7 7d 00 00 	lea    0x7df7(%rip),%rax        # 25240 <g_807>
   1d449:	48 89 85 40 fa ff ff 	mov    %rax,-0x5c0(%rbp)
   1d450:	48 8d 05 f1 7c 00 00 	lea    0x7cf1(%rip),%rax        # 25148 <g_43+0x108>
   1d457:	48 89 85 48 fa ff ff 	mov    %rax,-0x5b8(%rbp)
   1d45e:	48 c7 85 50 fa ff ff 	movq   $0x0,-0x5b0(%rbp)
   1d465:	00 00 00 00 
   1d469:	48 8d 85 dc e6 ff ff 	lea    -0x1924(%rbp),%rax
   1d470:	48 89 85 58 fa ff ff 	mov    %rax,-0x5a8(%rbp)
   1d477:	48 8d 85 dc e6 ff ff 	lea    -0x1924(%rbp),%rax
   1d47e:	48 89 85 60 fa ff ff 	mov    %rax,-0x5a0(%rbp)
   1d485:	48 c7 85 68 fa ff ff 	movq   $0x0,-0x598(%rbp)
   1d48c:	00 00 00 00 
   1d490:	48 8d 05 b1 7c 00 00 	lea    0x7cb1(%rip),%rax        # 25148 <g_43+0x108>
   1d497:	48 89 85 70 fa ff ff 	mov    %rax,-0x590(%rbp)
   1d49e:	48 8d 85 dc e6 ff ff 	lea    -0x1924(%rbp),%rax
   1d4a5:	48 89 85 78 fa ff ff 	mov    %rax,-0x588(%rbp)
   1d4ac:	48 8d 05 8d 7d 00 00 	lea    0x7d8d(%rip),%rax        # 25240 <g_807>
   1d4b3:	48 89 85 80 fa ff ff 	mov    %rax,-0x580(%rbp)
   1d4ba:	48 8d 05 67 7b 00 00 	lea    0x7b67(%rip),%rax        # 25028 <g_34>
   1d4c1:	48 89 85 88 fa ff ff 	mov    %rax,-0x578(%rbp)
   1d4c8:	48 c7 85 90 fa ff ff 	movq   $0x0,-0x570(%rbp)
   1d4cf:	00 00 00 00 
   1d4d3:	48 8d 05 66 7d 00 00 	lea    0x7d66(%rip),%rax        # 25240 <g_807>
   1d4da:	48 89 85 98 fa ff ff 	mov    %rax,-0x568(%rbp)
   1d4e1:	48 c7 85 a0 fa ff ff 	movq   $0x0,-0x560(%rbp)
   1d4e8:	00 00 00 00 
   1d4ec:	48 c7 85 a8 fa ff ff 	movq   $0x0,-0x558(%rbp)
   1d4f3:	00 00 00 00 
   1d4f7:	48 8d 05 52 7b 00 00 	lea    0x7b52(%rip),%rax        # 25050 <g_43+0x10>
   1d4fe:	48 89 85 b0 fa ff ff 	mov    %rax,-0x550(%rbp)
   1d505:	48 8d 05 1c 7b 00 00 	lea    0x7b1c(%rip),%rax        # 25028 <g_34>
   1d50c:	48 89 85 b8 fa ff ff 	mov    %rax,-0x548(%rbp)
   1d513:	48 c7 85 c0 fa ff ff 	movq   $0x0,-0x540(%rbp)
   1d51a:	00 00 00 00 
   1d51e:	48 8d 05 2b 7b 00 00 	lea    0x7b2b(%rip),%rax        # 25050 <g_43+0x10>
   1d525:	48 89 85 c8 fa ff ff 	mov    %rax,-0x538(%rbp)
   1d52c:	48 c7 85 d0 fa ff ff 	movq   $0x0,-0x530(%rbp)
   1d533:	00 00 00 00 
   1d537:	48 8d 05 12 7b 00 00 	lea    0x7b12(%rip),%rax        # 25050 <g_43+0x10>
   1d53e:	48 89 85 d8 fa ff ff 	mov    %rax,-0x528(%rbp)
   1d545:	48 c7 85 e0 fa ff ff 	movq   $0x0,-0x520(%rbp)
   1d54c:	00 00 00 00 
   1d550:	48 8d 05 3f 7c 00 00 	lea    0x7c3f(%rip),%rax        # 25196 <g_70>
   1d557:	48 89 85 e8 fa ff ff 	mov    %rax,-0x518(%rbp)
   1d55e:	48 8d 05 31 7c 00 00 	lea    0x7c31(%rip),%rax        # 25196 <g_70>
   1d565:	48 89 85 f0 fa ff ff 	mov    %rax,-0x510(%rbp)
   1d56c:	48 8d 05 cd 7c 00 00 	lea    0x7ccd(%rip),%rax        # 25240 <g_807>
   1d573:	48 89 85 f8 fa ff ff 	mov    %rax,-0x508(%rbp)
   1d57a:	48 c7 85 00 fb ff ff 	movq   $0x0,-0x500(%rbp)
   1d581:	00 00 00 00 
   1d585:	48 8d 05 9c 7a 00 00 	lea    0x7a9c(%rip),%rax        # 25028 <g_34>
   1d58c:	48 89 85 08 fb ff ff 	mov    %rax,-0x4f8(%rbp)
   1d593:	48 8d 85 dc e6 ff ff 	lea    -0x1924(%rbp),%rax
   1d59a:	48 89 85 10 fb ff ff 	mov    %rax,-0x4f0(%rbp)
   1d5a1:	48 8d 05 ee 7b 00 00 	lea    0x7bee(%rip),%rax        # 25196 <g_70>
   1d5a8:	48 89 85 18 fb ff ff 	mov    %rax,-0x4e8(%rbp)
   1d5af:	48 8d 05 e0 7b 00 00 	lea    0x7be0(%rip),%rax        # 25196 <g_70>
   1d5b6:	48 89 85 20 fb ff ff 	mov    %rax,-0x4e0(%rbp)
   1d5bd:	48 c7 85 28 fb ff ff 	movq   $0x0,-0x4d8(%rbp)
   1d5c4:	00 00 00 00 
   1d5c8:	48 8d 05 59 7a 00 00 	lea    0x7a59(%rip),%rax        # 25028 <g_34>
   1d5cf:	48 89 85 30 fb ff ff 	mov    %rax,-0x4d0(%rbp)
   1d5d6:	48 8d 05 4b 7a 00 00 	lea    0x7a4b(%rip),%rax        # 25028 <g_34>
   1d5dd:	48 89 85 38 fb ff ff 	mov    %rax,-0x4c8(%rbp)
   1d5e4:	48 c7 85 40 fb ff ff 	movq   $0x0,-0x4c0(%rbp)
   1d5eb:	00 00 00 00 
   1d5ef:	48 c7 85 48 fb ff ff 	movq   $0x0,-0x4b8(%rbp)
   1d5f6:	00 00 00 00 
   1d5fa:	48 8d 05 27 7a 00 00 	lea    0x7a27(%rip),%rax        # 25028 <g_34>
   1d601:	48 89 85 50 fb ff ff 	mov    %rax,-0x4b0(%rbp)
   1d608:	48 8d 05 41 7a 00 00 	lea    0x7a41(%rip),%rax        # 25050 <g_43+0x10>
   1d60f:	48 89 85 58 fb ff ff 	mov    %rax,-0x4a8(%rbp)
   1d616:	48 c7 85 60 fb ff ff 	movq   $0x0,-0x4a0(%rbp)
   1d61d:	00 00 00 00 
   1d621:	48 8d 05 28 7a 00 00 	lea    0x7a28(%rip),%rax        # 25050 <g_43+0x10>
   1d628:	48 89 85 68 fb ff ff 	mov    %rax,-0x498(%rbp)
   1d62f:	48 c7 85 70 fb ff ff 	movq   $0x0,-0x490(%rbp)
   1d636:	00 00 00 00 
   1d63a:	48 8d 05 e7 79 00 00 	lea    0x79e7(%rip),%rax        # 25028 <g_34>
   1d641:	48 89 85 78 fb ff ff 	mov    %rax,-0x488(%rbp)
   1d648:	48 8d 05 01 7a 00 00 	lea    0x7a01(%rip),%rax        # 25050 <g_43+0x10>
   1d64f:	48 89 85 80 fb ff ff 	mov    %rax,-0x480(%rbp)
   1d656:	48 8d 05 e3 7b 00 00 	lea    0x7be3(%rip),%rax        # 25240 <g_807>
   1d65d:	48 89 85 88 fb ff ff 	mov    %rax,-0x478(%rbp)
   1d664:	48 8d 05 bd 79 00 00 	lea    0x79bd(%rip),%rax        # 25028 <g_34>
   1d66b:	48 89 85 90 fb ff ff 	mov    %rax,-0x470(%rbp)
   1d672:	48 c7 85 98 fb ff ff 	movq   $0x0,-0x468(%rbp)
   1d679:	00 00 00 00 
   1d67d:	48 8d 05 c4 7a 00 00 	lea    0x7ac4(%rip),%rax        # 25148 <g_43+0x108>
   1d684:	48 89 85 a0 fb ff ff 	mov    %rax,-0x460(%rbp)
   1d68b:	48 c7 85 a8 fb ff ff 	movq   $0x0,-0x458(%rbp)
   1d692:	00 00 00 00 
   1d696:	48 c7 85 b0 fb ff ff 	movq   $0x0,-0x450(%rbp)
   1d69d:	00 00 00 00 
   1d6a1:	48 8d 05 98 7b 00 00 	lea    0x7b98(%rip),%rax        # 25240 <g_807>
   1d6a8:	48 89 85 b8 fb ff ff 	mov    %rax,-0x448(%rbp)
   1d6af:	48 c7 85 c0 fb ff ff 	movq   $0x0,-0x440(%rbp)
   1d6b6:	00 00 00 00 
   1d6ba:	48 8d 05 e7 7a 00 00 	lea    0x7ae7(%rip),%rax        # 251a8 <g_126>
   1d6c1:	48 89 85 c8 fb ff ff 	mov    %rax,-0x438(%rbp)
   1d6c8:	48 c7 85 d0 fb ff ff 	movq   $0x0,-0x430(%rbp)
   1d6cf:	00 00 00 00 
   1d6d3:	48 c7 85 d8 fb ff ff 	movq   $0x0,-0x428(%rbp)
   1d6da:	00 00 00 00 
   1d6de:	48 8d 05 c3 7a 00 00 	lea    0x7ac3(%rip),%rax        # 251a8 <g_126>
   1d6e5:	48 89 85 e0 fb ff ff 	mov    %rax,-0x420(%rbp)
   1d6ec:	48 8d 05 4d 7b 00 00 	lea    0x7b4d(%rip),%rax        # 25240 <g_807>
   1d6f3:	48 89 85 e8 fb ff ff 	mov    %rax,-0x418(%rbp)
   1d6fa:	48 8d 05 4f 79 00 00 	lea    0x794f(%rip),%rax        # 25050 <g_43+0x10>
   1d701:	48 89 85 f0 fb ff ff 	mov    %rax,-0x410(%rbp)
   1d708:	48 8d 05 19 79 00 00 	lea    0x7919(%rip),%rax        # 25028 <g_34>
   1d70f:	48 89 85 f8 fb ff ff 	mov    %rax,-0x408(%rbp)
   1d716:	48 c7 85 40 e8 ff ff 	movq   $0x0,-0x17c0(%rbp)
   1d71d:	00 00 00 00 
   1d721:	66 c7 85 ec e6 ff ff 	movw   $0xffff,-0x1914(%rbp)
   1d728:	ff ff 
   1d72a:	c7 85 2c e7 ff ff 00 	movl   $0x0,-0x18d4(%rbp)
   1d731:	00 00 00 
   1d734:	eb 1e                	jmp    1d754 <func_27+0x2e32>
   1d736:	8b 85 2c e7 ff ff    	mov    -0x18d4(%rbp),%eax
   1d73c:	48 98                	cltq   
   1d73e:	48 8d 95 40 e8 ff ff 	lea    -0x17c0(%rbp),%rdx
   1d745:	48 89 94 c5 50 ea ff 	mov    %rdx,-0x15b0(%rbp,%rax,8)
   1d74c:	ff 
   1d74d:	83 85 2c e7 ff ff 01 	addl   $0x1,-0x18d4(%rbp)
   1d754:	83 bd 2c e7 ff ff 05 	cmpl   $0x5,-0x18d4(%rbp)
   1d75b:	7e d9                	jle    1d736 <func_27+0x2e14>
   1d75d:	48 8b 85 38 e8 ff ff 	mov    -0x17c8(%rbp),%rax
   1d764:	48 83 c0 01          	add    $0x1,%rax
   1d768:	48 89 85 38 e8 ff ff 	mov    %rax,-0x17c8(%rbp)
   1d76f:	48 8b 85 58 e9 ff ff 	mov    -0x16a8(%rbp),%rax
   1d776:	48 89 85 90 eb ff ff 	mov    %rax,-0x1470(%rbp)
   1d77d:	48 8b 05 a4 b3 00 00 	mov    0xb3a4(%rip),%rax        # 28b28 <g_486>
   1d784:	48 8b 95 18 e8 ff ff 	mov    -0x17e8(%rbp),%rdx
   1d78b:	48 89 10             	mov    %rdx,(%rax)
   1d78e:	48 8b 05 9b b3 00 00 	mov    0xb39b(%rip),%rax        # 28b30 <g_485>
   1d795:	48 8b 10             	mov    (%rax),%rdx
   1d798:	48 8b 85 50 e8 ff ff 	mov    -0x17b0(%rbp),%rax
   1d79f:	48 89 10             	mov    %rdx,(%rax)
   1d7a2:	48 8b 85 50 e8 ff ff 	mov    -0x17b0(%rbp),%rax
   1d7a9:	48 8b 10             	mov    (%rax),%rdx
   1d7ac:	48 8b 85 70 e9 ff ff 	mov    -0x1690(%rbp),%rax
   1d7b3:	48 89 10             	mov    %rdx,(%rax)
   1d7b6:	48 8b 85 70 e9 ff ff 	mov    -0x1690(%rbp),%rax
   1d7bd:	48 8b 00             	mov    (%rax),%rax
   1d7c0:	48 85 c0             	test   %rax,%rax
   1d7c3:	0f 94 c0             	sete   %al
   1d7c6:	0f b6 c0             	movzbl %al,%eax
   1d7c9:	66 89 05 44 7a 00 00 	mov    %ax,0x7a44(%rip)        # 25214 <g_188>
   1d7d0:	48 8b 85 68 e9 ff ff 	mov    -0x1698(%rbp),%rax
   1d7d7:	8b 18                	mov    (%rax),%ebx
   1d7d9:	48 8b 85 c8 e6 ff ff 	mov    -0x1938(%rbp),%rax
   1d7e0:	0f bf d0             	movswl %ax,%edx
   1d7e3:	48 8b 85 c8 e6 ff ff 	mov    -0x1938(%rbp),%rax
   1d7ea:	98                   	cwtl   
   1d7eb:	89 d6                	mov    %edx,%esi
   1d7ed:	89 c7                	mov    %eax,%edi
   1d7ef:	e8 01 fc fe ff       	callq  d3f5 <safe_mul_func_int16_t_s_s>
   1d7f4:	98                   	cwtl   
   1d7f5:	39 c3                	cmp    %eax,%ebx
   1d7f7:	0f 9e c0             	setle  %al
   1d7fa:	0f b6 d8             	movzbl %al,%ebx
   1d7fd:	8b 85 2c ea ff ff    	mov    -0x15d4(%rbp),%eax
   1d803:	48 63 d0             	movslq %eax,%rdx
   1d806:	8b 05 a0 79 00 00    	mov    0x79a0(%rip),%eax        # 251ac <g_131>
   1d80c:	48 98                	cltq   
   1d80e:	48 89 d6             	mov    %rdx,%rsi
   1d811:	48 89 c7             	mov    %rax,%rdi
   1d814:	e8 67 08 ff ff       	callq  e080 <safe_mod_func_uint64_t_u_u>
   1d819:	48 39 c3             	cmp    %rax,%rbx
   1d81c:	74 16                	je     1d834 <func_27+0x2f12>
   1d81e:	48 83 bd c8 e6 ff ff 	cmpq   $0x0,-0x1938(%rbp)
   1d825:	00 
   1d826:	74 0c                	je     1d834 <func_27+0x2f12>
   1d828:	48 8b 85 c8 e6 ff ff 	mov    -0x1938(%rbp),%rax
   1d82f:	e9 8d 1c 00 00       	jmpq   1f4c1 <func_27+0x4b9f>
   1d834:	c6 85 d9 e6 ff ff 01 	movb   $0x1,-0x1927(%rbp)
   1d83b:	c7 85 f8 e7 ff ff f6 	movl   $0xfffffff6,-0x1808(%rbp)
   1d842:	ff ff ff 
   1d845:	c7 85 fc e7 ff ff 3c 	movl   $0x180de33c,-0x1804(%rbp)
   1d84c:	e3 0d 18 
   1d84f:	48 8d 85 28 e8 ff ff 	lea    -0x17d8(%rbp),%rax
   1d856:	48 89 85 00 ee ff ff 	mov    %rax,-0x1200(%rbp)
   1d85d:	48 8d 85 28 e8 ff ff 	lea    -0x17d8(%rbp),%rax
   1d864:	48 89 85 08 ee ff ff 	mov    %rax,-0x11f8(%rbp)
   1d86b:	48 8d 85 38 e8 ff ff 	lea    -0x17c8(%rbp),%rax
   1d872:	48 89 85 10 ee ff ff 	mov    %rax,-0x11f0(%rbp)
   1d879:	48 8d 85 38 e8 ff ff 	lea    -0x17c8(%rbp),%rax
   1d880:	48 89 85 18 ee ff ff 	mov    %rax,-0x11e8(%rbp)
   1d887:	48 c7 85 20 ee ff ff 	movq   $0x0,-0x11e0(%rbp)
   1d88e:	00 00 00 00 
   1d892:	48 8d 85 28 e8 ff ff 	lea    -0x17d8(%rbp),%rax
   1d899:	48 89 85 28 ee ff ff 	mov    %rax,-0x11d8(%rbp)
   1d8a0:	48 8d 85 38 e8 ff ff 	lea    -0x17c8(%rbp),%rax
   1d8a7:	48 89 85 30 ee ff ff 	mov    %rax,-0x11d0(%rbp)
   1d8ae:	48 8d 85 38 e8 ff ff 	lea    -0x17c8(%rbp),%rax
   1d8b5:	48 89 85 38 ee ff ff 	mov    %rax,-0x11c8(%rbp)
   1d8bc:	48 8d 85 28 e8 ff ff 	lea    -0x17d8(%rbp),%rax
   1d8c3:	48 89 85 40 ee ff ff 	mov    %rax,-0x11c0(%rbp)
   1d8ca:	48 8d 85 28 e8 ff ff 	lea    -0x17d8(%rbp),%rax
   1d8d1:	48 89 85 48 ee ff ff 	mov    %rax,-0x11b8(%rbp)
   1d8d8:	48 8d 85 38 e8 ff ff 	lea    -0x17c8(%rbp),%rax
   1d8df:	48 89 85 50 ee ff ff 	mov    %rax,-0x11b0(%rbp)
   1d8e6:	48 8d 85 38 e8 ff ff 	lea    -0x17c8(%rbp),%rax
   1d8ed:	48 89 85 58 ee ff ff 	mov    %rax,-0x11a8(%rbp)
   1d8f4:	48 c7 85 60 ee ff ff 	movq   $0x0,-0x11a0(%rbp)
   1d8fb:	00 00 00 00 
   1d8ff:	48 8d 85 28 e8 ff ff 	lea    -0x17d8(%rbp),%rax
   1d906:	48 89 85 68 ee ff ff 	mov    %rax,-0x1198(%rbp)
   1d90d:	48 8d 85 38 e8 ff ff 	lea    -0x17c8(%rbp),%rax
   1d914:	48 89 85 70 ee ff ff 	mov    %rax,-0x1190(%rbp)
   1d91b:	48 8d 85 38 e8 ff ff 	lea    -0x17c8(%rbp),%rax
   1d922:	48 89 85 78 ee ff ff 	mov    %rax,-0x1188(%rbp)
   1d929:	48 8d 85 28 e8 ff ff 	lea    -0x17d8(%rbp),%rax
   1d930:	48 89 85 80 ee ff ff 	mov    %rax,-0x1180(%rbp)
   1d937:	48 8d 85 28 e8 ff ff 	lea    -0x17d8(%rbp),%rax
   1d93e:	48 89 85 88 ee ff ff 	mov    %rax,-0x1178(%rbp)
   1d945:	48 8d 85 38 e8 ff ff 	lea    -0x17c8(%rbp),%rax
   1d94c:	48 89 85 90 ee ff ff 	mov    %rax,-0x1170(%rbp)
   1d953:	48 8d 85 38 e8 ff ff 	lea    -0x17c8(%rbp),%rax
   1d95a:	48 89 85 98 ee ff ff 	mov    %rax,-0x1168(%rbp)
   1d961:	48 c7 85 a0 ee ff ff 	movq   $0x0,-0x1160(%rbp)
   1d968:	00 00 00 00 
   1d96c:	48 8d 85 28 e8 ff ff 	lea    -0x17d8(%rbp),%rax
   1d973:	48 89 85 a8 ee ff ff 	mov    %rax,-0x1158(%rbp)
   1d97a:	48 8d 85 38 e8 ff ff 	lea    -0x17c8(%rbp),%rax
   1d981:	48 89 85 b0 ee ff ff 	mov    %rax,-0x1150(%rbp)
   1d988:	48 8d 85 38 e8 ff ff 	lea    -0x17c8(%rbp),%rax
   1d98f:	48 89 85 b8 ee ff ff 	mov    %rax,-0x1148(%rbp)
   1d996:	48 8d 85 28 e8 ff ff 	lea    -0x17d8(%rbp),%rax
   1d99d:	48 89 85 c0 ee ff ff 	mov    %rax,-0x1140(%rbp)
   1d9a4:	48 8d 85 28 e8 ff ff 	lea    -0x17d8(%rbp),%rax
   1d9ab:	48 89 85 c8 ee ff ff 	mov    %rax,-0x1138(%rbp)
   1d9b2:	48 8d 85 38 e8 ff ff 	lea    -0x17c8(%rbp),%rax
   1d9b9:	48 89 85 d0 ee ff ff 	mov    %rax,-0x1130(%rbp)
   1d9c0:	48 8d 85 38 e8 ff ff 	lea    -0x17c8(%rbp),%rax
   1d9c7:	48 89 85 d8 ee ff ff 	mov    %rax,-0x1128(%rbp)
   1d9ce:	48 c7 85 e0 ee ff ff 	movq   $0x0,-0x1120(%rbp)
   1d9d5:	00 00 00 00 
   1d9d9:	48 8d 85 28 e8 ff ff 	lea    -0x17d8(%rbp),%rax
   1d9e0:	48 89 85 e8 ee ff ff 	mov    %rax,-0x1118(%rbp)
   1d9e7:	48 8d 85 38 e8 ff ff 	lea    -0x17c8(%rbp),%rax
   1d9ee:	48 89 85 f0 ee ff ff 	mov    %rax,-0x1110(%rbp)
   1d9f5:	48 8d 85 38 e8 ff ff 	lea    -0x17c8(%rbp),%rax
   1d9fc:	48 89 85 f8 ee ff ff 	mov    %rax,-0x1108(%rbp)
   1da03:	48 8d 85 28 e8 ff ff 	lea    -0x17d8(%rbp),%rax
   1da0a:	48 89 85 00 ef ff ff 	mov    %rax,-0x1100(%rbp)
   1da11:	48 8d 85 28 e8 ff ff 	lea    -0x17d8(%rbp),%rax
   1da18:	48 89 85 08 ef ff ff 	mov    %rax,-0x10f8(%rbp)
   1da1f:	48 8d 85 38 e8 ff ff 	lea    -0x17c8(%rbp),%rax
   1da26:	48 89 85 10 ef ff ff 	mov    %rax,-0x10f0(%rbp)
   1da2d:	48 8d 85 38 e8 ff ff 	lea    -0x17c8(%rbp),%rax
   1da34:	48 89 85 18 ef ff ff 	mov    %rax,-0x10e8(%rbp)
   1da3b:	48 8d 85 20 ef ff ff 	lea    -0x10e0(%rbp),%rax
   1da42:	48 83 c0 58          	add    $0x58,%rax
   1da46:	48 89 85 48 e8 ff ff 	mov    %rax,-0x17b8(%rbp)
   1da4d:	48 8d 85 48 e8 ff ff 	lea    -0x17b8(%rbp),%rax
   1da54:	48 89 85 80 e9 ff ff 	mov    %rax,-0x1680(%rbp)
   1da5b:	66 c7 85 ee e6 ff ff 	movw   $0xfff7,-0x1912(%rbp)
   1da62:	f7 ff 
   1da64:	48 8d 05 15 c6 00 00 	lea    0xc615(%rip),%rax        # 2a080 <g_346>
   1da6b:	48 89 85 88 e9 ff ff 	mov    %rax,-0x1678(%rbp)
   1da72:	48 c7 85 90 e9 ff ff 	movq   $0x0,-0x1670(%rbp)
   1da79:	00 00 00 00 
   1da7d:	48 8d 85 04 e7 ff ff 	lea    -0x18fc(%rbp),%rax
   1da84:	48 89 85 98 e9 ff ff 	mov    %rax,-0x1668(%rbp)
   1da8b:	48 c7 85 a0 e9 ff ff 	movq   $0x0,-0x1660(%rbp)
   1da92:	00 00 00 00 
   1da96:	48 8d 85 fc e6 ff ff 	lea    -0x1904(%rbp),%rax
   1da9d:	48 89 85 a8 e9 ff ff 	mov    %rax,-0x1658(%rbp)
   1daa4:	48 c7 85 b0 e9 ff ff 	movq   $0xfffffffffffffffe,-0x1650(%rbp)
   1daab:	fe ff ff ff 
   1daaf:	c7 85 30 e7 ff ff 00 	movl   $0x0,-0x18d0(%rbp)
   1dab6:	00 00 00 
   1dab9:	eb 1a                	jmp    1dad5 <func_27+0x31b3>
   1dabb:	8b 85 30 e7 ff ff    	mov    -0x18d0(%rbp),%eax
   1dac1:	48 98                	cltq   
   1dac3:	c7 84 85 10 ea ff ff 	movl   $0x9b49f3a1,-0x15f0(%rbp,%rax,4)
   1daca:	a1 f3 49 9b 
   1dace:	83 85 30 e7 ff ff 01 	addl   $0x1,-0x18d0(%rbp)
   1dad5:	83 bd 30 e7 ff ff 01 	cmpl   $0x1,-0x18d0(%rbp)
   1dadc:	7e dd                	jle    1dabb <func_27+0x3199>
   1dade:	c7 85 30 e7 ff ff 00 	movl   $0x0,-0x18d0(%rbp)
   1dae5:	00 00 00 
   1dae8:	eb 1b                	jmp    1db05 <func_27+0x31e3>
   1daea:	8b 85 30 e7 ff ff    	mov    -0x18d0(%rbp),%eax
   1daf0:	48 98                	cltq   
   1daf2:	48 c7 84 c5 30 ea ff 	movq   $0xfffffffffffffffb,-0x15d0(%rbp,%rax,8)
   1daf9:	ff fb ff ff ff 
   1dafe:	83 85 30 e7 ff ff 01 	addl   $0x1,-0x18d0(%rbp)
   1db05:	83 bd 30 e7 ff ff 03 	cmpl   $0x3,-0x18d0(%rbp)
   1db0c:	7e dc                	jle    1daea <func_27+0x31c8>
   1db0e:	c7 85 10 e7 ff ff 01 	movl   $0x1,-0x18f0(%rbp)
   1db15:	00 00 00 
   1db18:	e9 1a 03 00 00       	jmpq   1de37 <func_27+0x3515>
   1db1d:	48 8d 05 c4 b4 00 00 	lea    0xb4c4(%rip),%rax        # 28fe8 <g_1077>
   1db24:	48 89 85 c8 e9 ff ff 	mov    %rax,-0x1638(%rbp)
   1db2b:	48 8d 05 ee 76 00 00 	lea    0x76ee(%rip),%rax        # 25220 <g_265>
   1db32:	48 89 85 d0 e9 ff ff 	mov    %rax,-0x1630(%rbp)
   1db39:	48 c7 85 d8 e9 ff ff 	movq   $0xfffffffffffffffb,-0x1628(%rbp)
   1db40:	fb ff ff ff 
   1db44:	48 8d 85 18 ea ff ff 	lea    -0x15e8(%rbp),%rax
   1db4b:	48 83 c0 04          	add    $0x4,%rax
   1db4f:	48 89 85 c0 ea ff ff 	mov    %rax,-0x1540(%rbp)
   1db56:	48 8d 05 23 77 00 00 	lea    0x7723(%rip),%rax        # 25280 <g_895>
   1db5d:	48 89 85 c8 ea ff ff 	mov    %rax,-0x1538(%rbp)
   1db64:	48 8d 85 18 ea ff ff 	lea    -0x15e8(%rbp),%rax
   1db6b:	48 83 c0 04          	add    $0x4,%rax
   1db6f:	48 89 85 d0 ea ff ff 	mov    %rax,-0x1530(%rbp)
   1db76:	48 8d 85 18 ea ff ff 	lea    -0x15e8(%rbp),%rax
   1db7d:	48 83 c0 04          	add    $0x4,%rax
   1db81:	48 89 85 d8 ea ff ff 	mov    %rax,-0x1528(%rbp)
   1db88:	48 8d 05 f1 76 00 00 	lea    0x76f1(%rip),%rax        # 25280 <g_895>
   1db8f:	48 89 85 e0 ea ff ff 	mov    %rax,-0x1520(%rbp)
   1db96:	48 8d 85 18 ea ff ff 	lea    -0x15e8(%rbp),%rax
   1db9d:	48 83 c0 04          	add    $0x4,%rax
   1dba1:	48 89 85 e8 ea ff ff 	mov    %rax,-0x1518(%rbp)
   1dba8:	48 8d 85 18 ea ff ff 	lea    -0x15e8(%rbp),%rax
   1dbaf:	48 83 c0 04          	add    $0x4,%rax
   1dbb3:	48 89 85 f0 ea ff ff 	mov    %rax,-0x1510(%rbp)
   1dbba:	c7 85 34 e7 ff ff 00 	movl   $0x0,-0x18cc(%rbp)
   1dbc1:	00 00 00 
   1dbc4:	eb 1a                	jmp    1dbe0 <func_27+0x32be>
   1dbc6:	8b 85 34 e7 ff ff    	mov    -0x18cc(%rbp),%eax
   1dbcc:	48 98                	cltq   
   1dbce:	c7 84 85 0c ea ff ff 	movl   $0x23ff20b2,-0x15f4(%rbp,%rax,4)
   1dbd5:	b2 20 ff 23 
   1dbd9:	83 85 34 e7 ff ff 01 	addl   $0x1,-0x18cc(%rbp)
   1dbe0:	83 bd 34 e7 ff ff 00 	cmpl   $0x0,-0x18cc(%rbp)
   1dbe7:	7e dd                	jle    1dbc6 <func_27+0x32a4>
   1dbe9:	48 8b 85 58 e9 ff ff 	mov    -0x16a8(%rbp),%rax
   1dbf0:	8b 00                	mov    (%rax),%eax
   1dbf2:	0f b7 d8             	movzwl %ax,%ebx
   1dbf5:	48 8b 85 c8 e6 ff ff 	mov    -0x1938(%rbp),%rax
   1dbfc:	41 89 c6             	mov    %eax,%r14d
   1dbff:	80 bd d9 e6 ff ff 00 	cmpb   $0x0,-0x1927(%rbp)
   1dc06:	75 72                	jne    1dc7a <func_27+0x3358>
   1dc08:	48 8b 85 c8 e6 ff ff 	mov    -0x1938(%rbp),%rax
   1dc0f:	44 0f b7 e0          	movzwl %ax,%r12d
   1dc13:	48 8b 85 38 e8 ff ff 	mov    -0x17c8(%rbp),%rax
   1dc1a:	44 0f b7 e8          	movzwl %ax,%r13d
   1dc1e:	48 83 bd 68 e9 ff ff 	cmpq   $0x0,-0x1698(%rbp)
   1dc25:	00 
   1dc26:	74 0e                	je     1dc36 <func_27+0x3314>
   1dc28:	48 8b 05 e9 ae 00 00 	mov    0xaee9(%rip),%rax        # 28b18 <g_488>
   1dc2f:	0f b6 00             	movzbl (%rax),%eax
   1dc32:	84 c0                	test   %al,%al
   1dc34:	75 19                	jne    1dc4f <func_27+0x332d>
   1dc36:	8b 85 50 e7 ff ff    	mov    -0x18b0(%rbp),%eax
   1dc3c:	0f be c0             	movsbl %al,%eax
   1dc3f:	89 c6                	mov    %eax,%esi
   1dc41:	bf 00 00 00 00       	mov    $0x0,%edi
   1dc46:	e8 1f f6 fe ff       	callq  d26a <safe_div_func_int8_t_s_s>
   1dc4b:	84 c0                	test   %al,%al
   1dc4d:	74 07                	je     1dc56 <func_27+0x3334>
   1dc4f:	b8 01 00 00 00       	mov    $0x1,%eax
   1dc54:	eb 05                	jmp    1dc5b <func_27+0x3339>
   1dc56:	b8 00 00 00 00       	mov    $0x0,%eax
   1dc5b:	0f b7 c0             	movzwl %ax,%eax
   1dc5e:	44 89 ee             	mov    %r13d,%esi
   1dc61:	89 c7                	mov    %eax,%edi
   1dc63:	e8 f4 00 ff ff       	callq  dd5c <safe_mod_func_uint16_t_u_u>
   1dc68:	0f b7 c0             	movzwl %ax,%eax
   1dc6b:	44 89 e6             	mov    %r12d,%esi
   1dc6e:	89 c7                	mov    %eax,%edi
   1dc70:	e8 19 01 ff ff       	callq  dd8e <safe_div_func_uint16_t_u_u>
   1dc75:	66 85 c0             	test   %ax,%ax
   1dc78:	74 07                	je     1dc81 <func_27+0x335f>
   1dc7a:	b8 01 00 00 00       	mov    $0x1,%eax
   1dc7f:	eb 05                	jmp    1dc86 <func_27+0x3364>
   1dc81:	b8 00 00 00 00       	mov    $0x0,%eax
   1dc86:	0f b6 d0             	movzbl %al,%edx
   1dc89:	8b 8d 2c ea ff ff    	mov    -0x15d4(%rbp),%ecx
   1dc8f:	48 8b 05 82 ae 00 00 	mov    0xae82(%rip),%rax        # 28b18 <g_488>
   1dc96:	0f b6 00             	movzbl (%rax),%eax
   1dc99:	0f b6 c0             	movzbl %al,%eax
   1dc9c:	21 c8                	and    %ecx,%eax
   1dc9e:	89 85 2c ea ff ff    	mov    %eax,-0x15d4(%rbp)
   1dca4:	8b 85 2c ea ff ff    	mov    -0x15d4(%rbp),%eax
   1dcaa:	48 98                	cltq   
   1dcac:	48 39 85 c8 e6 ff ff 	cmp    %rax,-0x1938(%rbp)
   1dcb3:	0f 94 c0             	sete   %al
   1dcb6:	0f b6 c0             	movzbl %al,%eax
   1dcb9:	89 d6                	mov    %edx,%esi
   1dcbb:	89 c7                	mov    %eax,%edi
   1dcbd:	e8 19 ff fe ff       	callq  dbdb <safe_div_func_uint8_t_u_u>
   1dcc2:	0f b6 c0             	movzbl %al,%eax
   1dcc5:	44 89 f6             	mov    %r14d,%esi
   1dcc8:	89 c7                	mov    %eax,%edi
   1dcca:	e8 e9 01 ff ff       	callq  deb8 <safe_add_func_uint32_t_u_u>
   1dccf:	89 c0                	mov    %eax,%eax
   1dcd1:	48 39 85 c8 e6 ff ff 	cmp    %rax,-0x1938(%rbp)
   1dcd8:	0f 96 c0             	setbe  %al
   1dcdb:	0f b6 c0             	movzbl %al,%eax
   1dcde:	89 de                	mov    %ebx,%esi
   1dce0:	89 c7                	mov    %eax,%edi
   1dce2:	e8 38 00 ff ff       	callq  dd1f <safe_sub_func_uint16_t_u_u>
   1dce7:	48 8b 15 fa b2 00 00 	mov    0xb2fa(%rip),%rdx        # 28fe8 <g_1077>
   1dcee:	48 8b 85 c8 e9 ff ff 	mov    -0x1638(%rbp),%rax
   1dcf5:	48 89 10             	mov    %rdx,(%rax)
   1dcf8:	48 8b 85 c8 e6 ff ff 	mov    -0x1938(%rbp),%rax
   1dcff:	89 c2                	mov    %eax,%edx
   1dd01:	48 8b 85 58 e9 ff ff 	mov    -0x16a8(%rbp),%rax
   1dd08:	89 10                	mov    %edx,(%rax)
   1dd0a:	0f b7 05 89 75 00 00 	movzwl 0x7589(%rip),%eax        # 2529a <g_1086>
   1dd11:	83 e8 01             	sub    $0x1,%eax
   1dd14:	66 89 05 7f 75 00 00 	mov    %ax,0x757f(%rip)        # 2529a <g_1086>
   1dd1b:	48 8b 05 06 b1 00 00 	mov    0xb106(%rip),%rax        # 28e28 <g_858>
   1dd22:	48 8b 00             	mov    (%rax),%rax
   1dd25:	8b 18                	mov    (%rax),%ebx
   1dd27:	0f b7 05 dc 73 00 00 	movzwl 0x73dc(%rip),%eax        # 2510a <g_43+0xca>
   1dd2e:	0f be c0             	movsbl %al,%eax
   1dd31:	be 03 00 00 00       	mov    $0x3,%esi
   1dd36:	89 c7                	mov    %eax,%edi
   1dd38:	e8 b1 f5 fe ff       	callq  d2ee <safe_lshift_func_int8_t_s_u>
   1dd3d:	0f be c0             	movsbl %al,%eax
   1dd40:	39 c3                	cmp    %eax,%ebx
   1dd42:	0f 93 c0             	setae  %al
   1dd45:	0f b6 c8             	movzbl %al,%ecx
   1dd48:	48 8b 85 d0 e9 ff ff 	mov    -0x1630(%rbp),%rax
   1dd4f:	48 8b 10             	mov    (%rax),%rdx
   1dd52:	48 63 c1             	movslq %ecx,%rax
   1dd55:	48 31 c2             	xor    %rax,%rdx
   1dd58:	48 8b 85 d0 e9 ff ff 	mov    -0x1630(%rbp),%rax
   1dd5f:	48 89 10             	mov    %rdx,(%rax)
   1dd62:	48 8b 85 d0 e9 ff ff 	mov    -0x1630(%rbp),%rax
   1dd69:	48 8b 18             	mov    (%rax),%rbx
   1dd6c:	48 83 ad d8 e9 ff ff 	subq   $0x1,-0x1628(%rbp)
   1dd73:	01 
   1dd74:	48 83 bd d8 e9 ff ff 	cmpq   $0x0,-0x1628(%rbp)
   1dd7b:	00 
   1dd7c:	75 59                	jne    1ddd7 <func_27+0x34b5>
   1dd7e:	48 8d 85 b0 f4 ff ff 	lea    -0xb50(%rbp),%rax
   1dd85:	48 05 c0 00 00 00    	add    $0xc0,%rax
   1dd8b:	48 39 85 40 e9 ff ff 	cmp    %rax,-0x16c0(%rbp)
   1dd92:	0f 94 c0             	sete   %al
   1dd95:	0f b6 c0             	movzbl %al,%eax
   1dd98:	89 c6                	mov    %eax,%esi
   1dd9a:	bf 01 00 00 00       	mov    $0x1,%edi
   1dd9f:	e8 d4 fd fe ff       	callq  db78 <safe_sub_func_uint8_t_u_u>
   1dda4:	0f b6 d0             	movzbl %al,%edx
   1dda7:	48 8b 85 c8 e6 ff ff 	mov    -0x1938(%rbp),%rax
   1ddae:	0d 9a bc 25 ac       	or     $0xac25bc9a,%eax
   1ddb3:	89 85 0c ea ff ff    	mov    %eax,-0x15f4(%rbp)
   1ddb9:	8b 85 0c ea ff ff    	mov    -0x15f4(%rbp),%eax
   1ddbf:	39 c2                	cmp    %eax,%edx
   1ddc1:	0f 9c c0             	setl   %al
   1ddc4:	0f b6 c0             	movzbl %al,%eax
   1ddc7:	89 85 10 ea ff ff    	mov    %eax,-0x15f0(%rbp)
   1ddcd:	8b 85 10 ea ff ff    	mov    -0x15f0(%rbp),%eax
   1ddd3:	85 c0                	test   %eax,%eax
   1ddd5:	74 07                	je     1ddde <func_27+0x34bc>
   1ddd7:	b8 01 00 00 00       	mov    $0x1,%eax
   1dddc:	eb 05                	jmp    1dde3 <func_27+0x34c1>
   1ddde:	b8 00 00 00 00       	mov    $0x0,%eax
   1dde3:	48 98                	cltq   
   1dde5:	48 be ad 19 02 82 ad 	movabs $0xe54b3aad820219ad,%rsi
   1ddec:	3a 4b e5 
   1ddef:	48 89 c7             	mov    %rax,%rdi
   1ddf2:	e8 37 02 ff ff       	callq  e02e <safe_add_func_uint64_t_u_u>
   1ddf7:	48 39 c3             	cmp    %rax,%rbx
   1ddfa:	0f 97 c0             	seta   %al
   1ddfd:	0f b6 d0             	movzbl %al,%edx
   1de00:	8b 85 f8 e7 ff ff    	mov    -0x1808(%rbp),%eax
   1de06:	48 98                	cltq   
   1de08:	48 89 d6             	mov    %rdx,%rsi
   1de0b:	48 89 c7             	mov    %rax,%rdi
   1de0e:	e8 38 02 ff ff       	callq  e04b <safe_sub_func_uint64_t_u_u>
   1de13:	89 c6                	mov    %eax,%esi
   1de15:	bf 79 00 00 00       	mov    $0x79,%edi
   1de1a:	e8 9f fe fe ff       	callq  dcbe <safe_rshift_func_uint8_t_u_u>
   1de1f:	89 c2                	mov    %eax,%edx
   1de21:	48 8b 05 a0 a4 00 00 	mov    0xa4a0(%rip),%rax        # 282c8 <g_60>
   1de28:	48 8b 00             	mov    (%rax),%rax
   1de2b:	0f b6 d2             	movzbl %dl,%edx
   1de2e:	89 10                	mov    %edx,(%rax)
   1de30:	83 ad 10 e7 ff ff 01 	subl   $0x1,-0x18f0(%rbp)
   1de37:	83 bd 10 e7 ff ff 00 	cmpl   $0x0,-0x18f0(%rbp)
   1de3e:	0f 89 d9 fc ff ff    	jns    1db1d <func_27+0x31fb>
   1de44:	48 8b 85 c8 e6 ff ff 	mov    -0x1938(%rbp),%rax
   1de4b:	0f b7 d8             	movzwl %ax,%ebx
   1de4e:	48 8b 85 20 e8 ff ff 	mov    -0x17e0(%rbp),%rax
   1de55:	48 8b 00             	mov    (%rax),%rax
   1de58:	8b 00                	mov    (%rax),%eax
   1de5a:	0f b7 c0             	movzwl %ax,%eax
   1de5d:	be 08 00 00 00       	mov    $0x8,%esi
   1de62:	89 c7                	mov    %eax,%edi
   1de64:	e8 55 ff fe ff       	callq  ddbe <safe_lshift_func_uint16_t_u_s>
   1de69:	0f b7 c0             	movzwl %ax,%eax
   1de6c:	89 de                	mov    %ebx,%esi
   1de6e:	89 c7                	mov    %eax,%edi
   1de70:	e8 8a fe fe ff       	callq  dcff <safe_add_func_uint16_t_u_u>
   1de75:	0f b7 c0             	movzwl %ax,%eax
   1de78:	48 89 05 09 73 00 00 	mov    %rax,0x7309(%rip)        # 25188 <g_63>
   1de7f:	48 8b 15 02 73 00 00 	mov    0x7302(%rip),%rdx        # 25188 <g_63>
   1de86:	48 8b 85 20 e8 ff ff 	mov    -0x17e0(%rbp),%rax
   1de8d:	48 8b 00             	mov    (%rax),%rax
   1de90:	8b 00                	mov    (%rax),%eax
   1de92:	48 98                	cltq   
   1de94:	48 89 d6             	mov    %rdx,%rsi
   1de97:	48 89 c7             	mov    %rax,%rdi
   1de9a:	e8 e1 01 ff ff       	callq  e080 <safe_mod_func_uint64_t_u_u>
   1de9f:	48 85 c0             	test   %rax,%rax
   1dea2:	0f 84 de 00 00 00    	je     1df86 <func_27+0x3664>
   1dea8:	c6 85 da e6 ff ff 51 	movb   $0x51,-0x1926(%rbp)
   1deaf:	48 8d 05 62 ac 00 00 	lea    0xac62(%rip),%rax        # 28b18 <g_488>
   1deb6:	48 89 85 c0 e9 ff ff 	mov    %rax,-0x1640(%rbp)
   1debd:	48 8b 85 40 e9 ff ff 	mov    -0x16c0(%rbp),%rax
   1dec4:	48 8b 00             	mov    (%rax),%rax
   1dec7:	48 8b 18             	mov    (%rax),%rbx
   1deca:	0f b7 05 c9 73 00 00 	movzwl 0x73c9(%rip),%eax        # 2529a <g_1086>
   1ded1:	0f b7 d0             	movzwl %ax,%edx
   1ded4:	48 8b 85 a0 ee ff ff 	mov    -0x1160(%rbp),%rax
   1dedb:	48 8d 0d 46 73 00 00 	lea    0x7346(%rip),%rcx        # 25228 <g_430>
   1dee2:	48 39 c8             	cmp    %rcx,%rax
   1dee5:	0f 94 c0             	sete   %al
   1dee8:	0f b6 c0             	movzbl %al,%eax
   1deeb:	39 c2                	cmp    %eax,%edx
   1deed:	48 8b 05 fc ab 00 00 	mov    0xabfc(%rip),%rax        # 28af0 <g_449>
   1def4:	8b 00                	mov    (%rax),%eax
   1def6:	89 c0                	mov    %eax,%eax
   1def8:	48 0b 85 c8 e6 ff ff 	or     -0x1938(%rbp),%rax
   1deff:	48 85 c0             	test   %rax,%rax
   1df02:	75 1e                	jne    1df22 <func_27+0x3600>
   1df04:	0f be 95 da e6 ff ff 	movsbl -0x1926(%rbp),%edx
   1df0b:	8b 85 04 e7 ff ff    	mov    -0x18fc(%rbp),%eax
   1df11:	31 d0                	xor    %edx,%eax
   1df13:	35 b6 57 71 2d       	xor    $0x2d7157b6,%eax
   1df18:	0b 85 fc e7 ff ff    	or     -0x1804(%rbp),%eax
   1df1e:	85 c0                	test   %eax,%eax
   1df20:	74 07                	je     1df29 <func_27+0x3607>
   1df22:	b8 01 00 00 00       	mov    $0x1,%eax
   1df27:	eb 05                	jmp    1df2e <func_27+0x360c>
   1df29:	b8 00 00 00 00       	mov    $0x0,%eax
   1df2e:	be d8 b8 99 e1       	mov    $0xe199b8d8,%esi
   1df33:	89 c7                	mov    %eax,%edi
   1df35:	e8 c3 ff fe ff       	callq  defd <safe_mod_func_uint32_t_u_u>
   1df3a:	3d cf a2 00 00       	cmp    $0xa2cf,%eax
   1df3f:	8b 85 04 e7 ff ff    	mov    -0x18fc(%rbp),%eax
   1df45:	83 f8 01             	cmp    $0x1,%eax
   1df48:	0f 94 c2             	sete   %dl
   1df4b:	48 8b 05 c6 ab 00 00 	mov    0xabc6(%rip),%rax        # 28b18 <g_488>
   1df52:	88 10                	mov    %dl,(%rax)
   1df54:	48 8b 85 50 e8 ff ff 	mov    -0x17b0(%rbp),%rax
   1df5b:	48 8b 00             	mov    (%rax),%rax
   1df5e:	48 8b 00             	mov    (%rax),%rax
   1df61:	48 89 85 c0 e9 ff ff 	mov    %rax,-0x1640(%rbp)
   1df68:	48 39 9d c0 e9 ff ff 	cmp    %rbx,-0x1640(%rbp)
   1df6f:	0f 94 c2             	sete   %dl
   1df72:	48 8b 05 4f a3 00 00 	mov    0xa34f(%rip),%rax        # 282c8 <g_60>
   1df79:	48 8b 00             	mov    (%rax),%rax
   1df7c:	0f b6 d2             	movzbl %dl,%edx
   1df7f:	89 10                	mov    %edx,(%rax)
   1df81:	e9 7e 02 00 00       	jmpq   1e204 <func_27+0x38e2>
   1df86:	66 c7 85 f0 e6 ff ff 	movw   $0x6,-0x1910(%rbp)
   1df8d:	06 00 
   1df8f:	c7 85 00 e8 ff ff fe 	movl   $0xea173bfe,-0x1800(%rbp)
   1df96:	3b 17 ea 
   1df99:	48 b8 5e 82 f7 a6 23 	movabs $0xb75e8023a6f7825e,%rax
   1dfa0:	80 5e b7 
   1dfa3:	48 89 85 b8 e9 ff ff 	mov    %rax,-0x1648(%rbp)
   1dfaa:	c7 85 38 e7 ff ff 00 	movl   $0x0,-0x18c8(%rbp)
   1dfb1:	00 00 00 
   1dfb4:	eb 6d                	jmp    1e023 <func_27+0x3701>
   1dfb6:	c7 85 3c e7 ff ff 00 	movl   $0x0,-0x18c4(%rbp)
   1dfbd:	00 00 00 
   1dfc0:	eb 51                	jmp    1e013 <func_27+0x36f1>
   1dfc2:	c7 85 40 e7 ff ff 00 	movl   $0x0,-0x18c0(%rbp)
   1dfc9:	00 00 00 
   1dfcc:	eb 35                	jmp    1e003 <func_27+0x36e1>
   1dfce:	8b 85 40 e7 ff ff    	mov    -0x18c0(%rbp),%eax
   1dfd4:	48 63 d0             	movslq %eax,%rdx
   1dfd7:	8b 85 3c e7 ff ff    	mov    -0x18c4(%rbp),%eax
   1dfdd:	48 98                	cltq   
   1dfdf:	8b 8d 38 e7 ff ff    	mov    -0x18c8(%rbp),%ecx
   1dfe5:	48 63 c9             	movslq %ecx,%rcx
   1dfe8:	48 01 c9             	add    %rcx,%rcx
   1dfeb:	48 01 ca             	add    %rcx,%rdx
   1dfee:	48 01 d0             	add    %rdx,%rax
   1dff1:	c7 84 85 c0 ea ff ff 	movl   $0xfffffff9,-0x1540(%rbp,%rax,4)
   1dff8:	f9 ff ff ff 
   1dffc:	83 85 40 e7 ff ff 01 	addl   $0x1,-0x18c0(%rbp)
   1e003:	83 bd 40 e7 ff ff 00 	cmpl   $0x0,-0x18c0(%rbp)
   1e00a:	7e c2                	jle    1dfce <func_27+0x36ac>
   1e00c:	83 85 3c e7 ff ff 01 	addl   $0x1,-0x18c4(%rbp)
   1e013:	83 bd 3c e7 ff ff 01 	cmpl   $0x1,-0x18c4(%rbp)
   1e01a:	7e a6                	jle    1dfc2 <func_27+0x36a0>
   1e01c:	83 85 38 e7 ff ff 01 	addl   $0x1,-0x18c8(%rbp)
   1e023:	83 bd 38 e7 ff ff 00 	cmpl   $0x0,-0x18c8(%rbp)
   1e02a:	7e 8a                	jle    1dfb6 <func_27+0x3694>
   1e02c:	48 83 bd c8 e6 ff ff 	cmpq   $0x0,-0x1938(%rbp)
   1e033:	00 
   1e034:	74 4e                	je     1e084 <func_27+0x3762>
   1e036:	48 8b 85 c8 e6 ff ff 	mov    -0x1938(%rbp),%rax
   1e03d:	0f b6 d8             	movzbl %al,%ebx
   1e040:	48 8b 05 81 a2 00 00 	mov    0xa281(%rip),%rax        # 282c8 <g_60>
   1e047:	48 8b 00             	mov    (%rax),%rax
   1e04a:	8b 00                	mov    (%rax),%eax
   1e04c:	89 c6                	mov    %eax,%esi
   1e04e:	bf 00 00 00 00       	mov    $0x0,%edi
   1e053:	e8 a5 fe fe ff       	callq  defd <safe_mod_func_uint32_t_u_u>
   1e058:	0f b6 c0             	movzbl %al,%eax
   1e05b:	89 de                	mov    %ebx,%esi
   1e05d:	89 c7                	mov    %eax,%edi
   1e05f:	e8 77 fb fe ff       	callq  dbdb <safe_div_func_uint8_t_u_u>
   1e064:	0f b6 c0             	movzbl %al,%eax
   1e067:	be 93 da c4 07       	mov    $0x7c4da93,%esi
   1e06c:	89 c7                	mov    %eax,%edi
   1e06e:	e8 b2 fe fe ff       	callq  df25 <safe_div_func_uint32_t_u_u>
   1e073:	8b 85 14 ea ff ff    	mov    -0x15ec(%rbp),%eax
   1e079:	85 c0                	test   %eax,%eax
   1e07b:	74 07                	je     1e084 <func_27+0x3762>
   1e07d:	ba 01 00 00 00       	mov    $0x1,%edx
   1e082:	eb 05                	jmp    1e089 <func_27+0x3767>
   1e084:	ba 00 00 00 00       	mov    $0x0,%edx
   1e089:	0f b7 85 f0 e6 ff ff 	movzwl -0x1910(%rbp),%eax
   1e090:	39 c2                	cmp    %eax,%edx
   1e092:	0f 94 c0             	sete   %al
   1e095:	0f b6 c0             	movzbl %al,%eax
   1e098:	89 c6                	mov    %eax,%esi
   1e09a:	bf 01 00 00 00       	mov    $0x1,%edi
   1e09f:	e8 d6 fd fe ff       	callq  de7a <safe_rshift_func_uint16_t_u_u>
   1e0a4:	0f b7 c0             	movzwl %ax,%eax
   1e0a7:	89 85 14 ea ff ff    	mov    %eax,-0x15ec(%rbp)
   1e0ad:	0f b7 85 f0 e6 ff ff 	movzwl -0x1910(%rbp),%eax
   1e0b4:	83 c8 01             	or     $0x1,%eax
   1e0b7:	0f b7 c0             	movzwl %ax,%eax
   1e0ba:	21 85 f8 e7 ff ff    	and    %eax,-0x1808(%rbp)
   1e0c0:	66 83 85 ee e6 ff ff 	addw   $0x1,-0x1912(%rbp)
   1e0c7:	01 
   1e0c8:	48 8b 85 c8 e6 ff ff 	mov    -0x1938(%rbp),%rax
   1e0cf:	89 c3                	mov    %eax,%ebx
   1e0d1:	48 8b 05 28 aa 00 00 	mov    0xaa28(%rip),%rax        # 28b00 <g_447>
   1e0d8:	48 8b 00             	mov    (%rax),%rax
   1e0db:	bf 01 00 00 00       	mov    $0x1,%edi
   1e0e0:	e8 34 ff fe ff       	callq  e019 <safe_unary_minus_func_uint64_t_u>
   1e0e5:	89 de                	mov    %ebx,%esi
   1e0e7:	89 c7                	mov    %eax,%edi
   1e0e9:	e8 17 f5 fe ff       	callq  d605 <safe_sub_func_int32_t_s_s>
   1e0ee:	48 8b 85 78 e9 ff ff 	mov    -0x1688(%rbp),%rax
   1e0f5:	48 89 85 58 e8 ff ff 	mov    %rax,-0x17a8(%rbp)
   1e0fc:	48 8d 05 2d ad 00 00 	lea    0xad2d(%rip),%rax        # 28e30 <g_857>
   1e103:	48 39 85 58 e8 ff ff 	cmp    %rax,-0x17a8(%rbp)
   1e10a:	0f 95 c2             	setne  %dl
   1e10d:	48 8b 05 ac a1 00 00 	mov    0xa1ac(%rip),%rax        # 282c0 <g_61>
   1e114:	0f b6 d2             	movzbl %dl,%edx
   1e117:	89 10                	mov    %edx,(%rax)
   1e119:	48 8b 05 d0 a9 00 00 	mov    0xa9d0(%rip),%rax        # 28af0 <g_449>
   1e120:	8b 00                	mov    (%rax),%eax
   1e122:	48 8b 85 c8 e6 ff ff 	mov    -0x1938(%rbp),%rax
   1e129:	41 89 c4             	mov    %eax,%r12d
   1e12c:	48 8b 85 58 e9 ff ff 	mov    -0x16a8(%rbp),%rax
   1e133:	c7 00 04 00 00 00    	movl   $0x4,(%rax)
   1e139:	48 8b 85 c8 e6 ff ff 	mov    -0x1938(%rbp),%rax
   1e140:	41 89 c5             	mov    %eax,%r13d
   1e143:	48 8b 85 20 e8 ff ff 	mov    -0x17e0(%rbp),%rax
   1e14a:	48 8b 00             	mov    (%rax),%rax
   1e14d:	8b 00                	mov    (%rax),%eax
   1e14f:	48 63 d8             	movslq %eax,%rbx
   1e152:	48 8b 85 20 e8 ff ff 	mov    -0x17e0(%rbp),%rax
   1e159:	48 8b 00             	mov    (%rax),%rax
   1e15c:	8b 00                	mov    (%rax),%eax
   1e15e:	48 98                	cltq   
   1e160:	48 89 c6             	mov    %rax,%rsi
   1e163:	bf 01 00 00 00       	mov    $0x1,%edi
   1e168:	e8 42 ff fe ff       	callq  e0af <safe_div_func_uint64_t_u_u>
   1e16d:	48 89 de             	mov    %rbx,%rsi
   1e170:	48 89 c7             	mov    %rax,%rdi
   1e173:	e8 d3 fe fe ff       	callq  e04b <safe_sub_func_uint64_t_u_u>
   1e178:	34 a9                	xor    $0xa9,%al
   1e17a:	44 89 ee             	mov    %r13d,%esi
   1e17d:	89 c7                	mov    %eax,%edi
   1e17f:	e8 48 f5 fe ff       	callq  d6cc <safe_mod_func_int32_t_s_s>
   1e184:	0f b6 c0             	movzbl %al,%eax
   1e187:	be 43 00 00 00       	mov    $0x43,%esi
   1e18c:	89 c7                	mov    %eax,%edi
   1e18e:	e8 1b fa fe ff       	callq  dbae <safe_mod_func_uint8_t_u_u>
   1e193:	48 8b 05 7e a9 00 00 	mov    0xa97e(%rip),%rax        # 28b18 <g_488>
   1e19a:	0f b6 00             	movzbl (%rax),%eax
   1e19d:	83 c8 04             	or     $0x4,%eax
   1e1a0:	0f b6 c0             	movzbl %al,%eax
   1e1a3:	44 89 e6             	mov    %r12d,%esi
   1e1a6:	89 c7                	mov    %eax,%edi
   1e1a8:	e8 7d f3 fe ff       	callq  d52a <safe_rshift_func_int16_t_s_s>
   1e1ad:	0f bf d0             	movswl %ax,%edx
   1e1b0:	48 8b 85 20 e8 ff ff 	mov    -0x17e0(%rbp),%rax
   1e1b7:	48 8b 00             	mov    (%rax),%rax
   1e1ba:	8b 00                	mov    (%rax),%eax
   1e1bc:	39 c2                	cmp    %eax,%edx
   1e1be:	0f 95 c0             	setne  %al
   1e1c1:	0f b6 c0             	movzbl %al,%eax
   1e1c4:	48 8b 15 bd 6f 00 00 	mov    0x6fbd(%rip),%rdx        # 25188 <g_63>
   1e1cb:	21 d0                	and    %edx,%eax
   1e1cd:	89 c3                	mov    %eax,%ebx
   1e1cf:	8b 85 c0 ea ff ff    	mov    -0x1540(%rbp),%eax
   1e1d5:	0f b6 d0             	movzbl %al,%edx
   1e1d8:	48 8b 85 c8 e6 ff ff 	mov    -0x1938(%rbp),%rax
   1e1df:	0f b6 c0             	movzbl %al,%eax
   1e1e2:	89 d6                	mov    %edx,%esi
   1e1e4:	89 c7                	mov    %eax,%edi
   1e1e6:	e8 6f f9 fe ff       	callq  db5a <safe_add_func_uint8_t_u_u>
   1e1eb:	b8 01 00 00 00       	mov    $0x1,%eax
   1e1f0:	89 de                	mov    %ebx,%esi
   1e1f2:	89 c7                	mov    %eax,%edi
   1e1f4:	e8 2c fd fe ff       	callq  df25 <safe_div_func_uint32_t_u_u>
   1e1f9:	89 c2                	mov    %eax,%edx
   1e1fb:	48 8b 05 fe 9a 00 00 	mov    0x9afe(%rip),%rax        # 27d00 <g_16>
   1e202:	89 10                	mov    %edx,(%rax)
   1e204:	4c 8b a5 d0 fa ff ff 	mov    -0x530(%rbp),%r12
   1e20b:	48 8b 9d c8 e6 ff ff 	mov    -0x1938(%rbp),%rbx
   1e212:	48 8b 85 c8 e6 ff ff 	mov    -0x1938(%rbp),%rax
   1e219:	41 89 c6             	mov    %eax,%r14d
   1e21c:	48 8b 85 08 e8 ff ff 	mov    -0x17f8(%rbp),%rax
   1e223:	0f b6 10             	movzbl (%rax),%edx
   1e226:	83 ea 01             	sub    $0x1,%edx
   1e229:	88 10                	mov    %dl,(%rax)
   1e22b:	48 8b 85 50 e9 ff ff 	mov    -0x16b0(%rbp),%rax
   1e232:	48 89 85 60 e8 ff ff 	mov    %rax,-0x17a0(%rbp)
   1e239:	48 8b 85 60 e8 ff ff 	mov    -0x17a0(%rbp),%rax
   1e240:	48 3b 85 88 e9 ff ff 	cmp    -0x1678(%rbp),%rax
   1e247:	0f 95 c0             	setne  %al
   1e24a:	44 0f b6 e8          	movzbl %al,%r13d
   1e24e:	8b 85 04 e7 ff ff    	mov    -0x18fc(%rbp),%eax
   1e254:	0f bf d0             	movswl %ax,%edx
   1e257:	c7 85 2c ea ff ff 06 	movl   $0x9806,-0x15d4(%rbp)
   1e25e:	98 00 00 
   1e261:	8b 85 2c ea ff ff    	mov    -0x15d4(%rbp),%eax
   1e267:	09 85 f4 e7 ff ff    	or     %eax,-0x180c(%rbp)
   1e26d:	8b 85 f4 e7 ff ff    	mov    -0x180c(%rbp),%eax
   1e273:	89 c1                	mov    %eax,%ecx
   1e275:	48 8b 85 c8 e6 ff ff 	mov    -0x1938(%rbp),%rax
   1e27c:	21 c8                	and    %ecx,%eax
   1e27e:	98                   	cwtl   
   1e27f:	89 d6                	mov    %edx,%esi
   1e281:	89 c7                	mov    %eax,%edi
   1e283:	e8 8e f1 fe ff       	callq  d416 <safe_mod_func_int16_t_s_s>
   1e288:	98                   	cwtl   
   1e289:	39 85 54 e7 ff ff    	cmp    %eax,-0x18ac(%rbp)
   1e28f:	0f 9e c0             	setle  %al
   1e292:	0f b6 d0             	movzbl %al,%edx
   1e295:	48 8b 85 20 e8 ff ff 	mov    -0x17e0(%rbp),%rax
   1e29c:	48 8b 00             	mov    (%rax),%rax
   1e29f:	8b 00                	mov    (%rax),%eax
   1e2a1:	98                   	cwtl   
   1e2a2:	89 d6                	mov    %edx,%esi
   1e2a4:	89 c7                	mov    %eax,%edi
   1e2a6:	e8 08 f1 fe ff       	callq  d3b3 <safe_add_func_int16_t_s_s>
   1e2ab:	0f bf d0             	movswl %ax,%edx
   1e2ae:	48 8b 85 98 e9 ff ff 	mov    -0x1668(%rbp),%rax
   1e2b5:	89 10                	mov    %edx,(%rax)
   1e2b7:	48 8b 85 98 e9 ff ff 	mov    -0x1668(%rbp),%rax
   1e2be:	8b 10                	mov    (%rax),%edx
   1e2c0:	48 8b 85 a8 e9 ff ff 	mov    -0x1658(%rbp),%rax
   1e2c7:	89 10                	mov    %edx,(%rax)
   1e2c9:	48 8b 05 10 ad 00 00 	mov    0xad10(%rip),%rax        # 28fe0 <g_1078>
   1e2d0:	0f b7 00             	movzwl (%rax),%eax
   1e2d3:	48 0f bf c0          	movswq %ax,%rax
   1e2d7:	48 33 85 c8 e6 ff ff 	xor    -0x1938(%rbp),%rax
   1e2de:	48 89 c7             	mov    %rax,%rdi
   1e2e1:	e8 30 f5 fe ff       	callq  d816 <safe_unary_minus_func_int64_t_s>
   1e2e6:	49 39 c5             	cmp    %rax,%r13
   1e2e9:	0f 9f c0             	setg   %al
   1e2ec:	0f b6 d0             	movzbl %al,%edx
   1e2ef:	48 8b 85 30 ea ff ff 	mov    -0x15d0(%rbp),%rax
   1e2f6:	48 39 c2             	cmp    %rax,%rdx
   1e2f9:	0f 9f c0             	setg   %al
   1e2fc:	0f b6 c0             	movzbl %al,%eax
   1e2ff:	be 07 00 00 00       	mov    $0x7,%esi
   1e304:	89 c7                	mov    %eax,%edi
   1e306:	e8 41 f9 fe ff       	callq  dc4c <safe_lshift_func_uint8_t_u_u>
   1e30b:	84 c0                	test   %al,%al
   1e30d:	75 0a                	jne    1e319 <func_27+0x39f7>
   1e30f:	48 83 bd c8 e6 ff ff 	cmpq   $0x0,-0x1938(%rbp)
   1e316:	00 
   1e317:	74 07                	je     1e320 <func_27+0x39fe>
   1e319:	b8 01 00 00 00       	mov    $0x1,%eax
   1e31e:	eb 05                	jmp    1e325 <func_27+0x3a03>
   1e320:	b8 00 00 00 00       	mov    $0x0,%eax
   1e325:	0f be c0             	movsbl %al,%eax
   1e328:	89 c7                	mov    %eax,%edi
   1e32a:	e8 90 ee fe ff       	callq  d1bf <safe_unary_minus_func_int8_t_s>
   1e32f:	48 0f be c0          	movsbq %al,%rax
   1e333:	48 39 85 c8 e6 ff ff 	cmp    %rax,-0x1938(%rbp)
   1e33a:	0f 92 c0             	setb   %al
   1e33d:	0f b6 c0             	movzbl %al,%eax
   1e340:	be ff ff 00 00       	mov    $0xffff,%esi
   1e345:	89 c7                	mov    %eax,%edi
   1e347:	e8 f1 f9 fe ff       	callq  dd3d <safe_mul_func_uint16_t_u_u>
   1e34c:	66 85 c0             	test   %ax,%ax
   1e34f:	0f 95 c0             	setne  %al
   1e352:	0f b6 c0             	movzbl %al,%eax
   1e355:	66 33 85 ea e6 ff ff 	xor    -0x1916(%rbp),%ax
   1e35c:	98                   	cwtl   
   1e35d:	be 04 00 00 00       	mov    $0x4,%esi
   1e362:	89 c7                	mov    %eax,%edi
   1e364:	e8 fa f1 fe ff       	callq  d563 <safe_rshift_func_int16_t_s_u>
   1e369:	48 0f bf d0          	movswq %ax,%rdx
   1e36d:	48 8b 05 4c 9f 00 00 	mov    0x9f4c(%rip),%rax        # 282c0 <g_61>
   1e374:	8b 00                	mov    (%rax),%eax
   1e376:	85 c0                	test   %eax,%eax
   1e378:	0f 94 c0             	sete   %al
   1e37b:	0f b6 c0             	movzbl %al,%eax
   1e37e:	48 89 d6             	mov    %rdx,%rsi
   1e381:	48 89 c7             	mov    %rax,%rdi
   1e384:	e8 1f f5 fe ff       	callq  d8a8 <safe_sub_func_int64_t_s_s>
   1e389:	48 83 bd c8 e6 ff ff 	cmpq   $0x0,-0x1938(%rbp)
   1e390:	00 
   1e391:	74 11                	je     1e3a4 <func_27+0x3a82>
   1e393:	48 83 bd c8 e6 ff ff 	cmpq   $0x0,-0x1938(%rbp)
   1e39a:	00 
   1e39b:	74 07                	je     1e3a4 <func_27+0x3a82>
   1e39d:	b8 01 00 00 00       	mov    $0x1,%eax
   1e3a2:	eb 05                	jmp    1e3a9 <func_27+0x3a87>
   1e3a4:	b8 00 00 00 00       	mov    $0x0,%eax
   1e3a9:	98                   	cwtl   
   1e3aa:	be 01 00 00 00       	mov    $0x1,%esi
   1e3af:	89 c7                	mov    %eax,%edi
   1e3b1:	e8 1d f0 fe ff       	callq  d3d3 <safe_sub_func_int16_t_s_s>
   1e3b6:	48 8b 85 58 e9 ff ff 	mov    -0x16a8(%rbp),%rax
   1e3bd:	8b 00                	mov    (%rax),%eax
   1e3bf:	0f be c0             	movsbl %al,%eax
   1e3c2:	44 89 f6             	mov    %r14d,%esi
   1e3c5:	89 c7                	mov    %eax,%edi
   1e3c7:	e8 69 ef fe ff       	callq  d335 <safe_rshift_func_int8_t_s_s>
   1e3cc:	48 8b 85 b0 e9 ff ff 	mov    -0x1650(%rbp),%rax
   1e3d3:	0f b7 c0             	movzwl %ax,%eax
   1e3d6:	be 02 00 00 00       	mov    $0x2,%esi
   1e3db:	89 c7                	mov    %eax,%edi
   1e3dd:	e8 66 fa fe ff       	callq  de48 <safe_rshift_func_uint16_t_u_s>
   1e3e2:	0f b7 c0             	movzwl %ax,%eax
   1e3e5:	be 07 00 00 00       	mov    $0x7,%esi
   1e3ea:	89 c7                	mov    %eax,%edi
   1e3ec:	e8 57 fa fe ff       	callq  de48 <safe_rshift_func_uint16_t_u_s>
   1e3f1:	b8 f1 00 00 00       	mov    $0xf1,%eax
   1e3f6:	89 c2                	mov    %eax,%edx
   1e3f8:	0f b6 05 9d 6e 00 00 	movzbl 0x6e9d(%rip),%eax        # 2529c <g_1194>
   1e3ff:	21 d0                	and    %edx,%eax
   1e401:	88 05 95 6e 00 00    	mov    %al,0x6e95(%rip)        # 2529c <g_1194>
   1e407:	0f b6 05 8e 6e 00 00 	movzbl 0x6e8e(%rip),%eax        # 2529c <g_1194>
   1e40e:	66 98                	cbtw   
   1e410:	0f b7 c0             	movzwl %ax,%eax
   1e413:	4c 8b 2d d6 ab 00 00 	mov    0xabd6(%rip),%r13        # 28ff0 <g_1196>
   1e41a:	4c 89 e2             	mov    %r12,%rdx
   1e41d:	48 89 de             	mov    %rbx,%rsi
   1e420:	89 c7                	mov    %eax,%edi
   1e422:	e8 81 14 00 00       	callq  1f8a8 <func_38>
   1e427:	49 89 45 00          	mov    %rax,0x0(%r13)
   1e42b:	48 8b 85 c8 e6 ff ff 	mov    -0x1938(%rbp),%rax
   1e432:	89 c3                	mov    %eax,%ebx
   1e434:	48 8b 85 20 e8 ff ff 	mov    -0x17e0(%rbp),%rax
   1e43b:	48 8b 00             	mov    (%rax),%rax
   1e43e:	c7 00 00 00 00 00    	movl   $0x0,(%rax)
   1e444:	be 01 00 00 00       	mov    $0x1,%esi
   1e449:	bf ac 00 00 00       	mov    $0xac,%edi
   1e44e:	e8 f9 f7 fe ff       	callq  dc4c <safe_lshift_func_uint8_t_u_u>
   1e453:	48 8b 85 30 e8 ff ff 	mov    -0x17d0(%rbp),%rax
   1e45a:	48 8b 00             	mov    (%rax),%rax
   1e45d:	48 89 05 94 ab 00 00 	mov    %rax,0xab94(%rip)        # 28ff8 <g_1205>
   1e464:	48 8b 15 8d ab 00 00 	mov    0xab8d(%rip),%rdx        # 28ff8 <g_1205>
   1e46b:	48 8b 85 30 e8 ff ff 	mov    -0x17d0(%rbp),%rax
   1e472:	48 8b 00             	mov    (%rax),%rax
   1e475:	48 39 c2             	cmp    %rax,%rdx
   1e478:	0f 94 c0             	sete   %al
   1e47b:	0f b6 d0             	movzbl %al,%edx
   1e47e:	48 8b 8d 18 fa ff ff 	mov    -0x5e8(%rbp),%rcx
   1e485:	48 8b 05 5c ab 00 00 	mov    0xab5c(%rip),%rax        # 28fe8 <g_1077>
   1e48c:	48 8b 00             	mov    (%rax),%rax
   1e48f:	48 39 c1             	cmp    %rax,%rcx
   1e492:	0f 94 c0             	sete   %al
   1e495:	0f b6 c0             	movzbl %al,%eax
   1e498:	48 23 85 c8 e6 ff ff 	and    -0x1938(%rbp),%rax
   1e49f:	48 39 c2             	cmp    %rax,%rdx
   1e4a2:	0f 94 c0             	sete   %al
   1e4a5:	0f b6 c0             	movzbl %al,%eax
   1e4a8:	89 de                	mov    %ebx,%esi
   1e4aa:	89 c7                	mov    %eax,%edi
   1e4ac:	e8 54 f1 fe ff       	callq  d605 <safe_sub_func_int32_t_s_s>
   1e4b1:	48 98                	cltq   
   1e4b3:	48 39 85 c8 e6 ff ff 	cmp    %rax,-0x1938(%rbp)
   1e4ba:	0f 94 c0             	sete   %al
   1e4bd:	0f b6 c0             	movzbl %al,%eax
   1e4c0:	48 39 85 48 e9 ff ff 	cmp    %rax,-0x16b8(%rbp)
   1e4c7:	0f 9f c0             	setg   %al
   1e4ca:	0f b6 d0             	movzbl %al,%edx
   1e4cd:	48 8b 05 54 a9 00 00 	mov    0xa954(%rip),%rax        # 28e28 <g_858>
   1e4d4:	48 8b 00             	mov    (%rax),%rax
   1e4d7:	8b 00                	mov    (%rax),%eax
   1e4d9:	89 d6                	mov    %edx,%esi
   1e4db:	89 c7                	mov    %eax,%edi
   1e4dd:	e8 ee f9 fe ff       	callq  ded0 <safe_sub_func_uint32_t_u_u>
   1e4e2:	b8 01 00 00 00       	mov    $0x1,%eax
   1e4e7:	0f be c0             	movsbl %al,%eax
   1e4ea:	be ff ff ff ff       	mov    $0xffffffff,%esi
   1e4ef:	89 c7                	mov    %eax,%edi
   1e4f1:	e8 1c ed fe ff       	callq  d212 <safe_mul_func_int8_t_s_s>
   1e4f6:	b8 00 00 00 00       	mov    $0x0,%eax
   1e4fb:	3d 2c 1d 00 00       	cmp    $0x1d2c,%eax
   1e500:	0f 9e c0             	setle  %al
   1e503:	0f b6 c0             	movzbl %al,%eax
   1e506:	48 8b 95 c8 e6 ff ff 	mov    -0x1938(%rbp),%rdx
   1e50d:	31 d0                	xor    %edx,%eax
   1e50f:	89 c2                	mov    %eax,%edx
   1e511:	48 8b 85 58 e9 ff ff 	mov    -0x16a8(%rbp),%rax
   1e518:	89 10                	mov    %edx,(%rax)
   1e51a:	eb 15                	jmp    1e531 <func_27+0x3c0f>
   1e51c:	66 c7 85 e8 e6 ff ff 	movw   $0x96c3,-0x1918(%rbp)
   1e523:	c3 96 
   1e525:	0f b7 85 e8 e6 ff ff 	movzwl -0x1918(%rbp),%eax
   1e52c:	e9 90 0f 00 00       	jmpq   1f4c1 <func_27+0x4b9f>
   1e531:	48 8b 05 b0 aa 00 00 	mov    0xaab0(%rip),%rax        # 28fe8 <g_1077>
   1e538:	48 8b 00             	mov    (%rax),%rax
   1e53b:	0f b7 00             	movzwl (%rax),%eax
   1e53e:	0f b7 d8             	movzwl %ax,%ebx
   1e541:	48 8b 85 c8 e6 ff ff 	mov    -0x1938(%rbp),%rax
   1e548:	0f be c0             	movsbl %al,%eax
   1e54b:	89 c7                	mov    %eax,%edi
   1e54d:	e8 6d ec fe ff       	callq  d1bf <safe_unary_minus_func_int8_t_s>
   1e552:	4c 0f be e0          	movsbq %al,%r12
   1e556:	48 8b 85 c8 e6 ff ff 	mov    -0x1938(%rbp),%rax
   1e55d:	41 89 c5             	mov    %eax,%r13d
   1e560:	48 8b 05 81 a5 00 00 	mov    0xa581(%rip),%rax        # 28ae8 <g_429>
   1e567:	48 8b 00             	mov    (%rax),%rax
   1e56a:	49 89 c6             	mov    %rax,%r14
   1e56d:	48 8b 85 20 e8 ff ff 	mov    -0x17e0(%rbp),%rax
   1e574:	48 8b 00             	mov    (%rax),%rax
   1e577:	8b 10                	mov    (%rax),%edx
   1e579:	48 8b 85 20 e8 ff ff 	mov    -0x17e0(%rbp),%rax
   1e580:	48 8b 00             	mov    (%rax),%rax
   1e583:	8b 00                	mov    (%rax),%eax
   1e585:	0f be c0             	movsbl %al,%eax
   1e588:	89 d6                	mov    %edx,%esi
   1e58a:	89 c7                	mov    %eax,%edi
   1e58c:	e8 10 ed fe ff       	callq  d2a1 <safe_lshift_func_int8_t_s_s>
   1e591:	48 0f be c0          	movsbq %al,%rax
   1e595:	4c 89 f6             	mov    %r14,%rsi
   1e598:	48 89 c7             	mov    %rax,%rdi
   1e59b:	e8 0f fb fe ff       	callq  e0af <safe_div_func_uint64_t_u_u>
   1e5a0:	8b 05 fa 6c 00 00    	mov    0x6cfa(%rip),%eax        # 252a0 <g_1224>
   1e5a6:	89 c2                	mov    %eax,%edx
   1e5a8:	48 8b 05 69 a5 00 00 	mov    0xa569(%rip),%rax        # 28b18 <g_488>
   1e5af:	0f b6 00             	movzbl (%rax),%eax
   1e5b2:	0f b6 c0             	movzbl %al,%eax
   1e5b5:	89 d6                	mov    %edx,%esi
   1e5b7:	89 c7                	mov    %eax,%edi
   1e5b9:	e8 cf f6 fe ff       	callq  dc8d <safe_rshift_func_uint8_t_u_s>
   1e5be:	48 8d 05 63 a5 00 00 	lea    0xa563(%rip),%rax        # 28b28 <g_486>
   1e5c5:	48 39 85 a0 e8 ff ff 	cmp    %rax,-0x1760(%rbp)
   1e5cc:	74 0e                	je     1e5dc <func_27+0x3cba>
   1e5ce:	48 8b 05 23 aa 00 00 	mov    0xaa23(%rip),%rax        # 28ff8 <g_1205>
   1e5d5:	48 8b 00             	mov    (%rax),%rax
   1e5d8:	48 85 c0             	test   %rax,%rax
   1e5db:	90                   	nop
   1e5dc:	44 89 ee             	mov    %r13d,%esi
   1e5df:	bf 01 00 00 00       	mov    $0x1,%edi
   1e5e4:	e8 83 ed fe ff       	callq  d36c <safe_rshift_func_int8_t_s_u>
   1e5e9:	48 0f be c0          	movsbq %al,%rax
   1e5ed:	25 72 9a 69 fd       	and    $0xfd699a72,%eax
   1e5f2:	49 39 c4             	cmp    %rax,%r12
   1e5f5:	0f 9e c0             	setle  %al
   1e5f8:	0f b6 d0             	movzbl %al,%edx
   1e5fb:	48 8b 85 10 e8 ff ff 	mov    -0x17f0(%rbp),%rax
   1e602:	48 8b 08             	mov    (%rax),%rcx
   1e605:	48 63 d2             	movslq %edx,%rdx
   1e608:	48 8b 85 10 e8 ff ff 	mov    -0x17f0(%rbp),%rax
   1e60f:	48 09 ca             	or     %rcx,%rdx
   1e612:	48 89 10             	mov    %rdx,(%rax)
   1e615:	48 8b 00             	mov    (%rax),%rax
   1e618:	48 39 85 c8 e6 ff ff 	cmp    %rax,-0x1938(%rbp)
   1e61f:	0f 93 c0             	setae  %al
   1e622:	0f b6 c0             	movzbl %al,%eax
   1e625:	89 de                	mov    %ebx,%esi
   1e627:	89 c7                	mov    %eax,%edi
   1e629:	e8 f1 f6 fe ff       	callq  dd1f <safe_sub_func_uint16_t_u_u>
   1e62e:	89 c2                	mov    %eax,%edx
   1e630:	48 8b 05 c9 96 00 00 	mov    0x96c9(%rip),%rax        # 27d00 <g_16>
   1e637:	0f b7 d2             	movzwl %dx,%edx
   1e63a:	89 10                	mov    %edx,(%rax)
   1e63c:	e9 79 0e 00 00       	jmpq   1f4ba <func_27+0x4b98>
   1e641:	48 8d 05 40 99 00 00 	lea    0x9940(%rip),%rax        # 27f88 <g_42+0x268>
   1e648:	48 89 85 78 e8 ff ff 	mov    %rax,-0x1788(%rbp)
   1e64f:	48 8d 05 a2 a9 00 00 	lea    0xa9a2(%rip),%rax        # 28ff8 <g_1205>
   1e656:	48 89 85 40 e8 ff ff 	mov    %rax,-0x17c0(%rbp)
   1e65d:	48 8d 85 40 e8 ff ff 	lea    -0x17c0(%rbp),%rax
   1e664:	48 89 85 10 f8 ff ff 	mov    %rax,-0x7f0(%rbp)
   1e66b:	48 c7 85 18 f8 ff ff 	movq   $0x0,-0x7e8(%rbp)
   1e672:	00 00 00 00 
   1e676:	48 8d 85 40 e8 ff ff 	lea    -0x17c0(%rbp),%rax
   1e67d:	48 89 85 20 f8 ff ff 	mov    %rax,-0x7e0(%rbp)
   1e684:	48 8d 85 40 e8 ff ff 	lea    -0x17c0(%rbp),%rax
   1e68b:	48 89 85 28 f8 ff ff 	mov    %rax,-0x7d8(%rbp)
   1e692:	48 8d 85 40 e8 ff ff 	lea    -0x17c0(%rbp),%rax
   1e699:	48 89 85 30 f8 ff ff 	mov    %rax,-0x7d0(%rbp)
   1e6a0:	48 8d 85 40 e8 ff ff 	lea    -0x17c0(%rbp),%rax
   1e6a7:	48 89 85 38 f8 ff ff 	mov    %rax,-0x7c8(%rbp)
   1e6ae:	48 8d 85 40 e8 ff ff 	lea    -0x17c0(%rbp),%rax
   1e6b5:	48 89 85 40 f8 ff ff 	mov    %rax,-0x7c0(%rbp)
   1e6bc:	48 8d 85 40 e8 ff ff 	lea    -0x17c0(%rbp),%rax
   1e6c3:	48 89 85 48 f8 ff ff 	mov    %rax,-0x7b8(%rbp)
   1e6ca:	48 8d 85 40 e8 ff ff 	lea    -0x17c0(%rbp),%rax
   1e6d1:	48 89 85 50 f8 ff ff 	mov    %rax,-0x7b0(%rbp)
   1e6d8:	48 8d 85 40 e8 ff ff 	lea    -0x17c0(%rbp),%rax
   1e6df:	48 89 85 58 f8 ff ff 	mov    %rax,-0x7a8(%rbp)
   1e6e6:	48 8d 85 40 e8 ff ff 	lea    -0x17c0(%rbp),%rax
   1e6ed:	48 89 85 60 f8 ff ff 	mov    %rax,-0x7a0(%rbp)
   1e6f4:	48 8d 85 40 e8 ff ff 	lea    -0x17c0(%rbp),%rax
   1e6fb:	48 89 85 68 f8 ff ff 	mov    %rax,-0x798(%rbp)
   1e702:	48 8d 85 40 e8 ff ff 	lea    -0x17c0(%rbp),%rax
   1e709:	48 89 85 70 f8 ff ff 	mov    %rax,-0x790(%rbp)
   1e710:	48 8d 85 40 e8 ff ff 	lea    -0x17c0(%rbp),%rax
   1e717:	48 89 85 78 f8 ff ff 	mov    %rax,-0x788(%rbp)
   1e71e:	48 8d 85 40 e8 ff ff 	lea    -0x17c0(%rbp),%rax
   1e725:	48 89 85 80 f8 ff ff 	mov    %rax,-0x780(%rbp)
   1e72c:	48 8d 85 40 e8 ff ff 	lea    -0x17c0(%rbp),%rax
   1e733:	48 89 85 88 f8 ff ff 	mov    %rax,-0x778(%rbp)
   1e73a:	48 8d 85 40 e8 ff ff 	lea    -0x17c0(%rbp),%rax
   1e741:	48 89 85 90 f8 ff ff 	mov    %rax,-0x770(%rbp)
   1e748:	48 8d 85 40 e8 ff ff 	lea    -0x17c0(%rbp),%rax
   1e74f:	48 89 85 98 f8 ff ff 	mov    %rax,-0x768(%rbp)
   1e756:	48 8d 85 40 e8 ff ff 	lea    -0x17c0(%rbp),%rax
   1e75d:	48 89 85 a0 f8 ff ff 	mov    %rax,-0x760(%rbp)
   1e764:	48 c7 85 a8 f8 ff ff 	movq   $0x0,-0x758(%rbp)
   1e76b:	00 00 00 00 
   1e76f:	48 8d 85 40 e8 ff ff 	lea    -0x17c0(%rbp),%rax
   1e776:	48 89 85 b0 f8 ff ff 	mov    %rax,-0x750(%rbp)
   1e77d:	48 8d 85 40 e8 ff ff 	lea    -0x17c0(%rbp),%rax
   1e784:	48 89 85 b8 f8 ff ff 	mov    %rax,-0x748(%rbp)
   1e78b:	48 8d 85 40 e8 ff ff 	lea    -0x17c0(%rbp),%rax
   1e792:	48 89 85 c0 f8 ff ff 	mov    %rax,-0x740(%rbp)
   1e799:	48 8d 85 40 e8 ff ff 	lea    -0x17c0(%rbp),%rax
   1e7a0:	48 89 85 c8 f8 ff ff 	mov    %rax,-0x738(%rbp)
   1e7a7:	48 8d 85 40 e8 ff ff 	lea    -0x17c0(%rbp),%rax
   1e7ae:	48 89 85 d0 f8 ff ff 	mov    %rax,-0x730(%rbp)
   1e7b5:	48 8d 85 40 e8 ff ff 	lea    -0x17c0(%rbp),%rax
   1e7bc:	48 89 85 d8 f8 ff ff 	mov    %rax,-0x728(%rbp)
   1e7c3:	48 8d 85 40 e8 ff ff 	lea    -0x17c0(%rbp),%rax
   1e7ca:	48 89 85 e0 f8 ff ff 	mov    %rax,-0x720(%rbp)
   1e7d1:	48 8d 85 40 e8 ff ff 	lea    -0x17c0(%rbp),%rax
   1e7d8:	48 89 85 e8 f8 ff ff 	mov    %rax,-0x718(%rbp)
   1e7df:	48 8d 85 40 e8 ff ff 	lea    -0x17c0(%rbp),%rax
   1e7e6:	48 89 85 f0 f8 ff ff 	mov    %rax,-0x710(%rbp)
   1e7ed:	48 8d 85 40 e8 ff ff 	lea    -0x17c0(%rbp),%rax
   1e7f4:	48 89 85 f8 f8 ff ff 	mov    %rax,-0x708(%rbp)
   1e7fb:	48 8d 85 40 e8 ff ff 	lea    -0x17c0(%rbp),%rax
   1e802:	48 89 85 00 f9 ff ff 	mov    %rax,-0x700(%rbp)
   1e809:	48 8d 85 40 e8 ff ff 	lea    -0x17c0(%rbp),%rax
   1e810:	48 89 85 08 f9 ff ff 	mov    %rax,-0x6f8(%rbp)
   1e817:	48 8d 85 40 e8 ff ff 	lea    -0x17c0(%rbp),%rax
   1e81e:	48 89 85 10 f9 ff ff 	mov    %rax,-0x6f0(%rbp)
   1e825:	48 c7 85 18 f9 ff ff 	movq   $0x0,-0x6e8(%rbp)
   1e82c:	00 00 00 00 
   1e830:	48 8d 85 40 e8 ff ff 	lea    -0x17c0(%rbp),%rax
   1e837:	48 89 85 20 f9 ff ff 	mov    %rax,-0x6e0(%rbp)
   1e83e:	48 8d 85 40 e8 ff ff 	lea    -0x17c0(%rbp),%rax
   1e845:	48 89 85 28 f9 ff ff 	mov    %rax,-0x6d8(%rbp)
   1e84c:	48 8d 85 40 e8 ff ff 	lea    -0x17c0(%rbp),%rax
   1e853:	48 89 85 30 f9 ff ff 	mov    %rax,-0x6d0(%rbp)
   1e85a:	48 8d 85 40 e8 ff ff 	lea    -0x17c0(%rbp),%rax
   1e861:	48 89 85 38 f9 ff ff 	mov    %rax,-0x6c8(%rbp)
   1e868:	48 c7 85 40 f9 ff ff 	movq   $0x0,-0x6c0(%rbp)
   1e86f:	00 00 00 00 
   1e873:	48 8d 85 40 e8 ff ff 	lea    -0x17c0(%rbp),%rax
   1e87a:	48 89 85 48 f9 ff ff 	mov    %rax,-0x6b8(%rbp)
   1e881:	48 c7 85 50 f9 ff ff 	movq   $0x0,-0x6b0(%rbp)
   1e888:	00 00 00 00 
   1e88c:	48 c7 85 58 f9 ff ff 	movq   $0x0,-0x6a8(%rbp)
   1e893:	00 00 00 00 
   1e897:	48 8d 85 40 e8 ff ff 	lea    -0x17c0(%rbp),%rax
   1e89e:	48 89 85 60 f9 ff ff 	mov    %rax,-0x6a0(%rbp)
   1e8a5:	48 8d 85 40 e8 ff ff 	lea    -0x17c0(%rbp),%rax
   1e8ac:	48 89 85 68 f9 ff ff 	mov    %rax,-0x698(%rbp)
   1e8b3:	48 8d 85 40 e8 ff ff 	lea    -0x17c0(%rbp),%rax
   1e8ba:	48 89 85 70 f9 ff ff 	mov    %rax,-0x690(%rbp)
   1e8c1:	48 8d 85 40 e8 ff ff 	lea    -0x17c0(%rbp),%rax
   1e8c8:	48 89 85 78 f9 ff ff 	mov    %rax,-0x688(%rbp)
   1e8cf:	48 8d 85 40 e8 ff ff 	lea    -0x17c0(%rbp),%rax
   1e8d6:	48 89 85 80 f9 ff ff 	mov    %rax,-0x680(%rbp)
   1e8dd:	48 8d 85 40 e8 ff ff 	lea    -0x17c0(%rbp),%rax
   1e8e4:	48 89 85 88 f9 ff ff 	mov    %rax,-0x678(%rbp)
   1e8eb:	48 8d 85 40 e8 ff ff 	lea    -0x17c0(%rbp),%rax
   1e8f2:	48 89 85 90 f9 ff ff 	mov    %rax,-0x670(%rbp)
   1e8f9:	48 8d 85 40 e8 ff ff 	lea    -0x17c0(%rbp),%rax
   1e900:	48 89 85 98 f9 ff ff 	mov    %rax,-0x668(%rbp)
   1e907:	48 8d 85 40 e8 ff ff 	lea    -0x17c0(%rbp),%rax
   1e90e:	48 89 85 a0 f9 ff ff 	mov    %rax,-0x660(%rbp)
   1e915:	48 8d 85 40 e8 ff ff 	lea    -0x17c0(%rbp),%rax
   1e91c:	48 89 85 a8 f9 ff ff 	mov    %rax,-0x658(%rbp)
   1e923:	48 8d 85 40 e8 ff ff 	lea    -0x17c0(%rbp),%rax
   1e92a:	48 89 85 b0 f9 ff ff 	mov    %rax,-0x650(%rbp)
   1e931:	48 8d 85 40 e8 ff ff 	lea    -0x17c0(%rbp),%rax
   1e938:	48 89 85 b8 f9 ff ff 	mov    %rax,-0x648(%rbp)
   1e93f:	48 8d 85 40 e8 ff ff 	lea    -0x17c0(%rbp),%rax
   1e946:	48 89 85 c0 f9 ff ff 	mov    %rax,-0x640(%rbp)
   1e94d:	48 8d 85 40 e8 ff ff 	lea    -0x17c0(%rbp),%rax
   1e954:	48 89 85 c8 f9 ff ff 	mov    %rax,-0x638(%rbp)
   1e95b:	48 c7 85 d0 f9 ff ff 	movq   $0x0,-0x630(%rbp)
   1e962:	00 00 00 00 
   1e966:	48 8d 85 40 e8 ff ff 	lea    -0x17c0(%rbp),%rax
   1e96d:	48 89 85 d8 f9 ff ff 	mov    %rax,-0x628(%rbp)
   1e974:	48 8d 85 40 e8 ff ff 	lea    -0x17c0(%rbp),%rax
   1e97b:	48 89 85 e0 f9 ff ff 	mov    %rax,-0x620(%rbp)
   1e982:	48 8d 85 40 e8 ff ff 	lea    -0x17c0(%rbp),%rax
   1e989:	48 89 85 e8 f9 ff ff 	mov    %rax,-0x618(%rbp)
   1e990:	48 8d 85 40 e8 ff ff 	lea    -0x17c0(%rbp),%rax
   1e997:	48 89 85 f0 f9 ff ff 	mov    %rax,-0x610(%rbp)
   1e99e:	48 8d 85 40 e8 ff ff 	lea    -0x17c0(%rbp),%rax
   1e9a5:	48 89 85 f8 f9 ff ff 	mov    %rax,-0x608(%rbp)
   1e9ac:	48 8d 85 40 e8 ff ff 	lea    -0x17c0(%rbp),%rax
   1e9b3:	48 89 85 00 fa ff ff 	mov    %rax,-0x600(%rbp)
   1e9ba:	48 c7 85 08 fa ff ff 	movq   $0x0,-0x5f8(%rbp)
   1e9c1:	00 00 00 00 
   1e9c5:	48 8d 85 40 e8 ff ff 	lea    -0x17c0(%rbp),%rax
   1e9cc:	48 89 85 10 fa ff ff 	mov    %rax,-0x5f0(%rbp)
   1e9d3:	48 8d 85 40 e8 ff ff 	lea    -0x17c0(%rbp),%rax
   1e9da:	48 89 85 18 fa ff ff 	mov    %rax,-0x5e8(%rbp)
   1e9e1:	48 8d 85 40 e8 ff ff 	lea    -0x17c0(%rbp),%rax
   1e9e8:	48 89 85 20 fa ff ff 	mov    %rax,-0x5e0(%rbp)
   1e9ef:	48 8d 85 40 e8 ff ff 	lea    -0x17c0(%rbp),%rax
   1e9f6:	48 89 85 28 fa ff ff 	mov    %rax,-0x5d8(%rbp)
   1e9fd:	48 8d 85 40 e8 ff ff 	lea    -0x17c0(%rbp),%rax
   1ea04:	48 89 85 30 fa ff ff 	mov    %rax,-0x5d0(%rbp)
   1ea0b:	48 8d 85 40 e8 ff ff 	lea    -0x17c0(%rbp),%rax
   1ea12:	48 89 85 38 fa ff ff 	mov    %rax,-0x5c8(%rbp)
   1ea19:	48 c7 85 40 fa ff ff 	movq   $0x0,-0x5c0(%rbp)
   1ea20:	00 00 00 00 
   1ea24:	48 8d 85 40 e8 ff ff 	lea    -0x17c0(%rbp),%rax
   1ea2b:	48 89 85 48 fa ff ff 	mov    %rax,-0x5b8(%rbp)
   1ea32:	48 8d 85 40 e8 ff ff 	lea    -0x17c0(%rbp),%rax
   1ea39:	48 89 85 50 fa ff ff 	mov    %rax,-0x5b0(%rbp)
   1ea40:	48 c7 85 58 fa ff ff 	movq   $0x0,-0x5a8(%rbp)
   1ea47:	00 00 00 00 
   1ea4b:	48 8d 85 40 e8 ff ff 	lea    -0x17c0(%rbp),%rax
   1ea52:	48 89 85 60 fa ff ff 	mov    %rax,-0x5a0(%rbp)
   1ea59:	48 8d 85 40 e8 ff ff 	lea    -0x17c0(%rbp),%rax
   1ea60:	48 89 85 68 fa ff ff 	mov    %rax,-0x598(%rbp)
   1ea67:	48 8d 85 40 e8 ff ff 	lea    -0x17c0(%rbp),%rax
   1ea6e:	48 89 85 70 fa ff ff 	mov    %rax,-0x590(%rbp)
   1ea75:	48 8d 85 40 e8 ff ff 	lea    -0x17c0(%rbp),%rax
   1ea7c:	48 89 85 78 fa ff ff 	mov    %rax,-0x588(%rbp)
   1ea83:	48 8d 85 40 e8 ff ff 	lea    -0x17c0(%rbp),%rax
   1ea8a:	48 89 85 80 fa ff ff 	mov    %rax,-0x580(%rbp)
   1ea91:	48 8d 85 40 e8 ff ff 	lea    -0x17c0(%rbp),%rax
   1ea98:	48 89 85 88 fa ff ff 	mov    %rax,-0x578(%rbp)
   1ea9f:	48 8d 85 40 e8 ff ff 	lea    -0x17c0(%rbp),%rax
   1eaa6:	48 89 85 90 fa ff ff 	mov    %rax,-0x570(%rbp)
   1eaad:	48 8d 85 40 e8 ff ff 	lea    -0x17c0(%rbp),%rax
   1eab4:	48 89 85 98 fa ff ff 	mov    %rax,-0x568(%rbp)
   1eabb:	48 8d 85 40 e8 ff ff 	lea    -0x17c0(%rbp),%rax
   1eac2:	48 89 85 a0 fa ff ff 	mov    %rax,-0x560(%rbp)
   1eac9:	48 8d 85 40 e8 ff ff 	lea    -0x17c0(%rbp),%rax
   1ead0:	48 89 85 a8 fa ff ff 	mov    %rax,-0x558(%rbp)
   1ead7:	48 8d 85 40 e8 ff ff 	lea    -0x17c0(%rbp),%rax
   1eade:	48 89 85 b0 fa ff ff 	mov    %rax,-0x550(%rbp)
   1eae5:	48 8d 85 40 e8 ff ff 	lea    -0x17c0(%rbp),%rax
   1eaec:	48 89 85 b8 fa ff ff 	mov    %rax,-0x548(%rbp)
   1eaf3:	48 8d 85 40 e8 ff ff 	lea    -0x17c0(%rbp),%rax
   1eafa:	48 89 85 c0 fa ff ff 	mov    %rax,-0x540(%rbp)
   1eb01:	48 8d 85 40 e8 ff ff 	lea    -0x17c0(%rbp),%rax
   1eb08:	48 89 85 c8 fa ff ff 	mov    %rax,-0x538(%rbp)
   1eb0f:	48 8d 85 40 e8 ff ff 	lea    -0x17c0(%rbp),%rax
   1eb16:	48 89 85 d0 fa ff ff 	mov    %rax,-0x530(%rbp)
   1eb1d:	48 8d 85 40 e8 ff ff 	lea    -0x17c0(%rbp),%rax
   1eb24:	48 89 85 d8 fa ff ff 	mov    %rax,-0x528(%rbp)
   1eb2b:	48 8d 85 40 e8 ff ff 	lea    -0x17c0(%rbp),%rax
   1eb32:	48 89 85 e0 fa ff ff 	mov    %rax,-0x520(%rbp)
   1eb39:	48 c7 85 e8 fa ff ff 	movq   $0x0,-0x518(%rbp)
   1eb40:	00 00 00 00 
   1eb44:	48 8d 85 40 e8 ff ff 	lea    -0x17c0(%rbp),%rax
   1eb4b:	48 89 85 f0 fa ff ff 	mov    %rax,-0x510(%rbp)
   1eb52:	48 8d 85 40 e8 ff ff 	lea    -0x17c0(%rbp),%rax
   1eb59:	48 89 85 f8 fa ff ff 	mov    %rax,-0x508(%rbp)
   1eb60:	48 c7 85 00 fb ff ff 	movq   $0x0,-0x500(%rbp)
   1eb67:	00 00 00 00 
   1eb6b:	48 c7 85 08 fb ff ff 	movq   $0x0,-0x4f8(%rbp)
   1eb72:	00 00 00 00 
   1eb76:	48 8d 85 40 e8 ff ff 	lea    -0x17c0(%rbp),%rax
   1eb7d:	48 89 85 10 fb ff ff 	mov    %rax,-0x4f0(%rbp)
   1eb84:	48 8d 85 40 e8 ff ff 	lea    -0x17c0(%rbp),%rax
   1eb8b:	48 89 85 18 fb ff ff 	mov    %rax,-0x4e8(%rbp)
   1eb92:	48 8d 85 40 e8 ff ff 	lea    -0x17c0(%rbp),%rax
   1eb99:	48 89 85 20 fb ff ff 	mov    %rax,-0x4e0(%rbp)
   1eba0:	48 8d 85 40 e8 ff ff 	lea    -0x17c0(%rbp),%rax
   1eba7:	48 89 85 28 fb ff ff 	mov    %rax,-0x4d8(%rbp)
   1ebae:	48 c7 85 30 fb ff ff 	movq   $0x0,-0x4d0(%rbp)
   1ebb5:	00 00 00 00 
   1ebb9:	48 8d 85 40 e8 ff ff 	lea    -0x17c0(%rbp),%rax
   1ebc0:	48 89 85 38 fb ff ff 	mov    %rax,-0x4c8(%rbp)
   1ebc7:	48 8d 85 40 e8 ff ff 	lea    -0x17c0(%rbp),%rax
   1ebce:	48 89 85 40 fb ff ff 	mov    %rax,-0x4c0(%rbp)
   1ebd5:	48 8d 85 40 e8 ff ff 	lea    -0x17c0(%rbp),%rax
   1ebdc:	48 89 85 48 fb ff ff 	mov    %rax,-0x4b8(%rbp)
   1ebe3:	48 8d 85 40 e8 ff ff 	lea    -0x17c0(%rbp),%rax
   1ebea:	48 89 85 50 fb ff ff 	mov    %rax,-0x4b0(%rbp)
   1ebf1:	48 8d 85 40 e8 ff ff 	lea    -0x17c0(%rbp),%rax
   1ebf8:	48 89 85 58 fb ff ff 	mov    %rax,-0x4a8(%rbp)
   1ebff:	48 8d 85 40 e8 ff ff 	lea    -0x17c0(%rbp),%rax
   1ec06:	48 89 85 60 fb ff ff 	mov    %rax,-0x4a0(%rbp)
   1ec0d:	48 8d 85 40 e8 ff ff 	lea    -0x17c0(%rbp),%rax
   1ec14:	48 89 85 68 fb ff ff 	mov    %rax,-0x498(%rbp)
   1ec1b:	48 c7 85 70 fb ff ff 	movq   $0x0,-0x490(%rbp)
   1ec22:	00 00 00 00 
   1ec26:	48 8d 85 40 e8 ff ff 	lea    -0x17c0(%rbp),%rax
   1ec2d:	48 89 85 78 fb ff ff 	mov    %rax,-0x488(%rbp)
   1ec34:	48 8d 85 40 e8 ff ff 	lea    -0x17c0(%rbp),%rax
   1ec3b:	48 89 85 80 fb ff ff 	mov    %rax,-0x480(%rbp)
   1ec42:	48 8d 85 40 e8 ff ff 	lea    -0x17c0(%rbp),%rax
   1ec49:	48 89 85 88 fb ff ff 	mov    %rax,-0x478(%rbp)
   1ec50:	48 8d 85 40 e8 ff ff 	lea    -0x17c0(%rbp),%rax
   1ec57:	48 89 85 90 fb ff ff 	mov    %rax,-0x470(%rbp)
   1ec5e:	48 8d 85 40 e8 ff ff 	lea    -0x17c0(%rbp),%rax
   1ec65:	48 89 85 98 fb ff ff 	mov    %rax,-0x468(%rbp)
   1ec6c:	48 c7 85 a0 fb ff ff 	movq   $0x0,-0x460(%rbp)
   1ec73:	00 00 00 00 
   1ec77:	48 8d 85 40 e8 ff ff 	lea    -0x17c0(%rbp),%rax
   1ec7e:	48 89 85 a8 fb ff ff 	mov    %rax,-0x458(%rbp)
   1ec85:	48 8d 85 40 e8 ff ff 	lea    -0x17c0(%rbp),%rax
   1ec8c:	48 89 85 b0 fb ff ff 	mov    %rax,-0x450(%rbp)
   1ec93:	48 c7 85 b8 fb ff ff 	movq   $0x0,-0x448(%rbp)
   1ec9a:	00 00 00 00 
   1ec9e:	48 c7 85 c0 fb ff ff 	movq   $0x0,-0x440(%rbp)
   1eca5:	00 00 00 00 
   1eca9:	48 8d 85 40 e8 ff ff 	lea    -0x17c0(%rbp),%rax
   1ecb0:	48 89 85 c8 fb ff ff 	mov    %rax,-0x438(%rbp)
   1ecb7:	48 8d 85 40 e8 ff ff 	lea    -0x17c0(%rbp),%rax
   1ecbe:	48 89 85 d0 fb ff ff 	mov    %rax,-0x430(%rbp)
   1ecc5:	48 8d 85 40 e8 ff ff 	lea    -0x17c0(%rbp),%rax
   1eccc:	48 89 85 d8 fb ff ff 	mov    %rax,-0x428(%rbp)
   1ecd3:	48 8d 85 40 e8 ff ff 	lea    -0x17c0(%rbp),%rax
   1ecda:	48 89 85 e0 fb ff ff 	mov    %rax,-0x420(%rbp)
   1ece1:	48 8d 85 40 e8 ff ff 	lea    -0x17c0(%rbp),%rax
   1ece8:	48 89 85 e8 fb ff ff 	mov    %rax,-0x418(%rbp)
   1ecef:	48 8d 85 40 e8 ff ff 	lea    -0x17c0(%rbp),%rax
   1ecf6:	48 89 85 f0 fb ff ff 	mov    %rax,-0x410(%rbp)
   1ecfd:	48 c7 85 f8 fb ff ff 	movq   $0x0,-0x408(%rbp)
   1ed04:	00 00 00 00 
   1ed08:	48 8d 85 40 e8 ff ff 	lea    -0x17c0(%rbp),%rax
   1ed0f:	48 89 85 00 fc ff ff 	mov    %rax,-0x400(%rbp)
   1ed16:	48 8d 85 40 e8 ff ff 	lea    -0x17c0(%rbp),%rax
   1ed1d:	48 89 85 08 fc ff ff 	mov    %rax,-0x3f8(%rbp)
   1ed24:	48 8d 85 40 e8 ff ff 	lea    -0x17c0(%rbp),%rax
   1ed2b:	48 89 85 10 fc ff ff 	mov    %rax,-0x3f0(%rbp)
   1ed32:	48 c7 85 18 fc ff ff 	movq   $0x0,-0x3e8(%rbp)
   1ed39:	00 00 00 00 
   1ed3d:	48 8d 85 40 e8 ff ff 	lea    -0x17c0(%rbp),%rax
   1ed44:	48 89 85 20 fc ff ff 	mov    %rax,-0x3e0(%rbp)
   1ed4b:	48 8d 85 40 e8 ff ff 	lea    -0x17c0(%rbp),%rax
   1ed52:	48 89 85 28 fc ff ff 	mov    %rax,-0x3d8(%rbp)
   1ed59:	48 8d 85 40 e8 ff ff 	lea    -0x17c0(%rbp),%rax
   1ed60:	48 89 85 30 fc ff ff 	mov    %rax,-0x3d0(%rbp)
   1ed67:	48 8d 85 40 e8 ff ff 	lea    -0x17c0(%rbp),%rax
   1ed6e:	48 89 85 38 fc ff ff 	mov    %rax,-0x3c8(%rbp)
   1ed75:	48 8d 85 40 e8 ff ff 	lea    -0x17c0(%rbp),%rax
   1ed7c:	48 89 85 40 fc ff ff 	mov    %rax,-0x3c0(%rbp)
   1ed83:	48 8d 85 40 e8 ff ff 	lea    -0x17c0(%rbp),%rax
   1ed8a:	48 89 85 48 fc ff ff 	mov    %rax,-0x3b8(%rbp)
   1ed91:	48 8d 85 40 e8 ff ff 	lea    -0x17c0(%rbp),%rax
   1ed98:	48 89 85 50 fc ff ff 	mov    %rax,-0x3b0(%rbp)
   1ed9f:	48 8d 85 40 e8 ff ff 	lea    -0x17c0(%rbp),%rax
   1eda6:	48 89 85 58 fc ff ff 	mov    %rax,-0x3a8(%rbp)
   1edad:	48 8d 85 40 e8 ff ff 	lea    -0x17c0(%rbp),%rax
   1edb4:	48 89 85 60 fc ff ff 	mov    %rax,-0x3a0(%rbp)
   1edbb:	48 8d 85 40 e8 ff ff 	lea    -0x17c0(%rbp),%rax
   1edc2:	48 89 85 68 fc ff ff 	mov    %rax,-0x398(%rbp)
   1edc9:	48 8d 85 40 e8 ff ff 	lea    -0x17c0(%rbp),%rax
   1edd0:	48 89 85 70 fc ff ff 	mov    %rax,-0x390(%rbp)
   1edd7:	48 8d 85 40 e8 ff ff 	lea    -0x17c0(%rbp),%rax
   1edde:	48 89 85 78 fc ff ff 	mov    %rax,-0x388(%rbp)
   1ede5:	48 8d 85 40 e8 ff ff 	lea    -0x17c0(%rbp),%rax
   1edec:	48 89 85 80 fc ff ff 	mov    %rax,-0x380(%rbp)
   1edf3:	48 8d 85 40 e8 ff ff 	lea    -0x17c0(%rbp),%rax
   1edfa:	48 89 85 88 fc ff ff 	mov    %rax,-0x378(%rbp)
   1ee01:	48 8d 85 40 e8 ff ff 	lea    -0x17c0(%rbp),%rax
   1ee08:	48 89 85 90 fc ff ff 	mov    %rax,-0x370(%rbp)
   1ee0f:	48 8d 85 40 e8 ff ff 	lea    -0x17c0(%rbp),%rax
   1ee16:	48 89 85 98 fc ff ff 	mov    %rax,-0x368(%rbp)
   1ee1d:	48 8d 85 40 e8 ff ff 	lea    -0x17c0(%rbp),%rax
   1ee24:	48 89 85 a0 fc ff ff 	mov    %rax,-0x360(%rbp)
   1ee2b:	48 8d 85 40 e8 ff ff 	lea    -0x17c0(%rbp),%rax
   1ee32:	48 89 85 a8 fc ff ff 	mov    %rax,-0x358(%rbp)
   1ee39:	48 8d 85 40 e8 ff ff 	lea    -0x17c0(%rbp),%rax
   1ee40:	48 89 85 b0 fc ff ff 	mov    %rax,-0x350(%rbp)
   1ee47:	48 8d 85 40 e8 ff ff 	lea    -0x17c0(%rbp),%rax
   1ee4e:	48 89 85 b8 fc ff ff 	mov    %rax,-0x348(%rbp)
   1ee55:	48 c7 85 c0 fc ff ff 	movq   $0x0,-0x340(%rbp)
   1ee5c:	00 00 00 00 
   1ee60:	48 c7 85 c8 fc ff ff 	movq   $0x0,-0x338(%rbp)
   1ee67:	00 00 00 00 
   1ee6b:	48 c7 85 d0 fc ff ff 	movq   $0x0,-0x330(%rbp)
   1ee72:	00 00 00 00 
   1ee76:	48 8d 85 40 e8 ff ff 	lea    -0x17c0(%rbp),%rax
   1ee7d:	48 89 85 d8 fc ff ff 	mov    %rax,-0x328(%rbp)
   1ee84:	48 8d 85 40 e8 ff ff 	lea    -0x17c0(%rbp),%rax
   1ee8b:	48 89 85 e0 fc ff ff 	mov    %rax,-0x320(%rbp)
   1ee92:	48 8d 85 40 e8 ff ff 	lea    -0x17c0(%rbp),%rax
   1ee99:	48 89 85 e8 fc ff ff 	mov    %rax,-0x318(%rbp)
   1eea0:	48 8d 85 40 e8 ff ff 	lea    -0x17c0(%rbp),%rax
   1eea7:	48 89 85 f0 fc ff ff 	mov    %rax,-0x310(%rbp)
   1eeae:	48 8d 85 40 e8 ff ff 	lea    -0x17c0(%rbp),%rax
   1eeb5:	48 89 85 f8 fc ff ff 	mov    %rax,-0x308(%rbp)
   1eebc:	48 8d 85 40 e8 ff ff 	lea    -0x17c0(%rbp),%rax
   1eec3:	48 89 85 00 fd ff ff 	mov    %rax,-0x300(%rbp)
   1eeca:	48 8d 85 40 e8 ff ff 	lea    -0x17c0(%rbp),%rax
   1eed1:	48 89 85 08 fd ff ff 	mov    %rax,-0x2f8(%rbp)
   1eed8:	48 8d 85 40 e8 ff ff 	lea    -0x17c0(%rbp),%rax
   1eedf:	48 89 85 10 fd ff ff 	mov    %rax,-0x2f0(%rbp)
   1eee6:	48 8d 85 40 e8 ff ff 	lea    -0x17c0(%rbp),%rax
   1eeed:	48 89 85 18 fd ff ff 	mov    %rax,-0x2e8(%rbp)
   1eef4:	48 8d 85 40 e8 ff ff 	lea    -0x17c0(%rbp),%rax
   1eefb:	48 89 85 20 fd ff ff 	mov    %rax,-0x2e0(%rbp)
   1ef02:	48 8d 85 40 e8 ff ff 	lea    -0x17c0(%rbp),%rax
   1ef09:	48 89 85 28 fd ff ff 	mov    %rax,-0x2d8(%rbp)
   1ef10:	48 8d 85 40 e8 ff ff 	lea    -0x17c0(%rbp),%rax
   1ef17:	48 89 85 30 fd ff ff 	mov    %rax,-0x2d0(%rbp)
   1ef1e:	48 8d 85 40 e8 ff ff 	lea    -0x17c0(%rbp),%rax
   1ef25:	48 89 85 38 fd ff ff 	mov    %rax,-0x2c8(%rbp)
   1ef2c:	48 8d 85 40 e8 ff ff 	lea    -0x17c0(%rbp),%rax
   1ef33:	48 89 85 40 fd ff ff 	mov    %rax,-0x2c0(%rbp)
   1ef3a:	48 8d 85 40 e8 ff ff 	lea    -0x17c0(%rbp),%rax
   1ef41:	48 89 85 48 fd ff ff 	mov    %rax,-0x2b8(%rbp)
   1ef48:	48 8d 85 40 e8 ff ff 	lea    -0x17c0(%rbp),%rax
   1ef4f:	48 89 85 50 fd ff ff 	mov    %rax,-0x2b0(%rbp)
   1ef56:	48 8d 85 40 e8 ff ff 	lea    -0x17c0(%rbp),%rax
   1ef5d:	48 89 85 58 fd ff ff 	mov    %rax,-0x2a8(%rbp)
   1ef64:	48 8d 85 40 e8 ff ff 	lea    -0x17c0(%rbp),%rax
   1ef6b:	48 89 85 60 fd ff ff 	mov    %rax,-0x2a0(%rbp)
   1ef72:	48 8d 85 40 e8 ff ff 	lea    -0x17c0(%rbp),%rax
   1ef79:	48 89 85 68 fd ff ff 	mov    %rax,-0x298(%rbp)
   1ef80:	48 8d 85 40 e8 ff ff 	lea    -0x17c0(%rbp),%rax
   1ef87:	48 89 85 70 fd ff ff 	mov    %rax,-0x290(%rbp)
   1ef8e:	48 8d 85 40 e8 ff ff 	lea    -0x17c0(%rbp),%rax
   1ef95:	48 89 85 78 fd ff ff 	mov    %rax,-0x288(%rbp)
   1ef9c:	48 8d 85 40 e8 ff ff 	lea    -0x17c0(%rbp),%rax
   1efa3:	48 89 85 80 fd ff ff 	mov    %rax,-0x280(%rbp)
   1efaa:	48 8d 85 40 e8 ff ff 	lea    -0x17c0(%rbp),%rax
   1efb1:	48 89 85 88 fd ff ff 	mov    %rax,-0x278(%rbp)
   1efb8:	48 8d 85 40 e8 ff ff 	lea    -0x17c0(%rbp),%rax
   1efbf:	48 89 85 90 fd ff ff 	mov    %rax,-0x270(%rbp)
   1efc6:	48 8d 85 40 e8 ff ff 	lea    -0x17c0(%rbp),%rax
   1efcd:	48 89 85 98 fd ff ff 	mov    %rax,-0x268(%rbp)
   1efd4:	48 8d 85 40 e8 ff ff 	lea    -0x17c0(%rbp),%rax
   1efdb:	48 89 85 a0 fd ff ff 	mov    %rax,-0x260(%rbp)
   1efe2:	48 8d 85 40 e8 ff ff 	lea    -0x17c0(%rbp),%rax
   1efe9:	48 89 85 a8 fd ff ff 	mov    %rax,-0x258(%rbp)
   1eff0:	48 8d 85 40 e8 ff ff 	lea    -0x17c0(%rbp),%rax
   1eff7:	48 89 85 b0 fd ff ff 	mov    %rax,-0x250(%rbp)
   1effe:	48 8d 85 40 e8 ff ff 	lea    -0x17c0(%rbp),%rax
   1f005:	48 89 85 b8 fd ff ff 	mov    %rax,-0x248(%rbp)
   1f00c:	48 8d 85 40 e8 ff ff 	lea    -0x17c0(%rbp),%rax
   1f013:	48 89 85 c0 fd ff ff 	mov    %rax,-0x240(%rbp)
   1f01a:	48 8d 85 40 e8 ff ff 	lea    -0x17c0(%rbp),%rax
   1f021:	48 89 85 c8 fd ff ff 	mov    %rax,-0x238(%rbp)
   1f028:	48 8d 85 40 e8 ff ff 	lea    -0x17c0(%rbp),%rax
   1f02f:	48 89 85 d0 fd ff ff 	mov    %rax,-0x230(%rbp)
   1f036:	48 c7 85 d8 fd ff ff 	movq   $0x0,-0x228(%rbp)
   1f03d:	00 00 00 00 
   1f041:	48 8d 85 40 e8 ff ff 	lea    -0x17c0(%rbp),%rax
   1f048:	48 89 85 e0 fd ff ff 	mov    %rax,-0x220(%rbp)
   1f04f:	48 8d 85 40 e8 ff ff 	lea    -0x17c0(%rbp),%rax
   1f056:	48 89 85 e8 fd ff ff 	mov    %rax,-0x218(%rbp)
   1f05d:	48 8d 85 40 e8 ff ff 	lea    -0x17c0(%rbp),%rax
   1f064:	48 89 85 f0 fd ff ff 	mov    %rax,-0x210(%rbp)
   1f06b:	48 8d 85 40 e8 ff ff 	lea    -0x17c0(%rbp),%rax
   1f072:	48 89 85 f8 fd ff ff 	mov    %rax,-0x208(%rbp)
   1f079:	48 c7 85 00 fe ff ff 	movq   $0x0,-0x200(%rbp)
   1f080:	00 00 00 00 
   1f084:	48 8d 85 40 e8 ff ff 	lea    -0x17c0(%rbp),%rax
   1f08b:	48 89 85 08 fe ff ff 	mov    %rax,-0x1f8(%rbp)
   1f092:	48 8d 85 40 e8 ff ff 	lea    -0x17c0(%rbp),%rax
   1f099:	48 89 85 10 fe ff ff 	mov    %rax,-0x1f0(%rbp)
   1f0a0:	48 8d 85 40 e8 ff ff 	lea    -0x17c0(%rbp),%rax
   1f0a7:	48 89 85 18 fe ff ff 	mov    %rax,-0x1e8(%rbp)
   1f0ae:	48 8d 85 40 e8 ff ff 	lea    -0x17c0(%rbp),%rax
   1f0b5:	48 89 85 20 fe ff ff 	mov    %rax,-0x1e0(%rbp)
   1f0bc:	48 8d 85 40 e8 ff ff 	lea    -0x17c0(%rbp),%rax
   1f0c3:	48 89 85 28 fe ff ff 	mov    %rax,-0x1d8(%rbp)
   1f0ca:	48 8d 85 40 e8 ff ff 	lea    -0x17c0(%rbp),%rax
   1f0d1:	48 89 85 30 fe ff ff 	mov    %rax,-0x1d0(%rbp)
   1f0d8:	48 8d 85 40 e8 ff ff 	lea    -0x17c0(%rbp),%rax
   1f0df:	48 89 85 38 fe ff ff 	mov    %rax,-0x1c8(%rbp)
   1f0e6:	48 8d 85 40 e8 ff ff 	lea    -0x17c0(%rbp),%rax
   1f0ed:	48 89 85 40 fe ff ff 	mov    %rax,-0x1c0(%rbp)
   1f0f4:	48 c7 85 48 fe ff ff 	movq   $0x0,-0x1b8(%rbp)
   1f0fb:	00 00 00 00 
   1f0ff:	48 8d 85 40 e8 ff ff 	lea    -0x17c0(%rbp),%rax
   1f106:	48 89 85 50 fe ff ff 	mov    %rax,-0x1b0(%rbp)
   1f10d:	48 8d 85 40 e8 ff ff 	lea    -0x17c0(%rbp),%rax
   1f114:	48 89 85 58 fe ff ff 	mov    %rax,-0x1a8(%rbp)
   1f11b:	48 8d 85 40 e8 ff ff 	lea    -0x17c0(%rbp),%rax
   1f122:	48 89 85 60 fe ff ff 	mov    %rax,-0x1a0(%rbp)
   1f129:	48 8d 85 40 e8 ff ff 	lea    -0x17c0(%rbp),%rax
   1f130:	48 89 85 68 fe ff ff 	mov    %rax,-0x198(%rbp)
   1f137:	48 8d 85 40 e8 ff ff 	lea    -0x17c0(%rbp),%rax
   1f13e:	48 89 85 70 fe ff ff 	mov    %rax,-0x190(%rbp)
   1f145:	48 8d 85 40 e8 ff ff 	lea    -0x17c0(%rbp),%rax
   1f14c:	48 89 85 78 fe ff ff 	mov    %rax,-0x188(%rbp)
   1f153:	48 8d 85 40 e8 ff ff 	lea    -0x17c0(%rbp),%rax
   1f15a:	48 89 85 80 fe ff ff 	mov    %rax,-0x180(%rbp)
   1f161:	48 8d 85 40 e8 ff ff 	lea    -0x17c0(%rbp),%rax
   1f168:	48 89 85 88 fe ff ff 	mov    %rax,-0x178(%rbp)
   1f16f:	48 8d 85 40 e8 ff ff 	lea    -0x17c0(%rbp),%rax
   1f176:	48 89 85 90 fe ff ff 	mov    %rax,-0x170(%rbp)
   1f17d:	48 8d 85 40 e8 ff ff 	lea    -0x17c0(%rbp),%rax
   1f184:	48 89 85 98 fe ff ff 	mov    %rax,-0x168(%rbp)
   1f18b:	48 c7 85 a0 fe ff ff 	movq   $0x0,-0x160(%rbp)
   1f192:	00 00 00 00 
   1f196:	48 8d 85 40 e8 ff ff 	lea    -0x17c0(%rbp),%rax
   1f19d:	48 89 85 a8 fe ff ff 	mov    %rax,-0x158(%rbp)
   1f1a4:	48 8d 85 40 e8 ff ff 	lea    -0x17c0(%rbp),%rax
   1f1ab:	48 89 85 b0 fe ff ff 	mov    %rax,-0x150(%rbp)
   1f1b2:	48 c7 85 b8 fe ff ff 	movq   $0x0,-0x148(%rbp)
   1f1b9:	00 00 00 00 
   1f1bd:	48 c7 85 c0 fe ff ff 	movq   $0x0,-0x140(%rbp)
   1f1c4:	00 00 00 00 
   1f1c8:	48 c7 85 c8 fe ff ff 	movq   $0x0,-0x138(%rbp)
   1f1cf:	00 00 00 00 
   1f1d3:	48 8d 85 40 e8 ff ff 	lea    -0x17c0(%rbp),%rax
   1f1da:	48 89 85 d0 fe ff ff 	mov    %rax,-0x130(%rbp)
   1f1e1:	48 c7 85 d8 fe ff ff 	movq   $0x0,-0x128(%rbp)
   1f1e8:	00 00 00 00 
   1f1ec:	48 8d 85 40 e8 ff ff 	lea    -0x17c0(%rbp),%rax
   1f1f3:	48 89 85 e0 fe ff ff 	mov    %rax,-0x120(%rbp)
   1f1fa:	48 8d 85 40 e8 ff ff 	lea    -0x17c0(%rbp),%rax
   1f201:	48 89 85 e8 fe ff ff 	mov    %rax,-0x118(%rbp)
   1f208:	48 8d 85 40 e8 ff ff 	lea    -0x17c0(%rbp),%rax
   1f20f:	48 89 85 f0 fe ff ff 	mov    %rax,-0x110(%rbp)
   1f216:	48 8d 85 40 e8 ff ff 	lea    -0x17c0(%rbp),%rax
   1f21d:	48 89 85 f8 fe ff ff 	mov    %rax,-0x108(%rbp)
   1f224:	48 8d 85 40 e8 ff ff 	lea    -0x17c0(%rbp),%rax
   1f22b:	48 89 85 00 ff ff ff 	mov    %rax,-0x100(%rbp)
   1f232:	48 8d 85 40 e8 ff ff 	lea    -0x17c0(%rbp),%rax
   1f239:	48 89 85 08 ff ff ff 	mov    %rax,-0xf8(%rbp)
   1f240:	48 8d 85 40 e8 ff ff 	lea    -0x17c0(%rbp),%rax
   1f247:	48 89 85 10 ff ff ff 	mov    %rax,-0xf0(%rbp)
   1f24e:	48 8d 85 40 e8 ff ff 	lea    -0x17c0(%rbp),%rax
   1f255:	48 89 85 18 ff ff ff 	mov    %rax,-0xe8(%rbp)
   1f25c:	48 8d 85 40 e8 ff ff 	lea    -0x17c0(%rbp),%rax
   1f263:	48 89 85 20 ff ff ff 	mov    %rax,-0xe0(%rbp)
   1f26a:	48 8d 85 40 e8 ff ff 	lea    -0x17c0(%rbp),%rax
   1f271:	48 89 85 28 ff ff ff 	mov    %rax,-0xd8(%rbp)
   1f278:	48 8d 85 40 e8 ff ff 	lea    -0x17c0(%rbp),%rax
   1f27f:	48 89 85 30 ff ff ff 	mov    %rax,-0xd0(%rbp)
   1f286:	48 8d 85 40 e8 ff ff 	lea    -0x17c0(%rbp),%rax
   1f28d:	48 89 85 38 ff ff ff 	mov    %rax,-0xc8(%rbp)
   1f294:	48 8d 85 40 e8 ff ff 	lea    -0x17c0(%rbp),%rax
   1f29b:	48 89 85 40 ff ff ff 	mov    %rax,-0xc0(%rbp)
   1f2a2:	48 8d 85 40 e8 ff ff 	lea    -0x17c0(%rbp),%rax
   1f2a9:	48 89 85 48 ff ff ff 	mov    %rax,-0xb8(%rbp)
   1f2b0:	48 c7 85 50 ff ff ff 	movq   $0x0,-0xb0(%rbp)
   1f2b7:	00 00 00 00 
   1f2bb:	48 8d 85 40 e8 ff ff 	lea    -0x17c0(%rbp),%rax
   1f2c2:	48 89 85 58 ff ff ff 	mov    %rax,-0xa8(%rbp)
   1f2c9:	48 c7 85 60 ff ff ff 	movq   $0x0,-0xa0(%rbp)
   1f2d0:	00 00 00 00 
   1f2d4:	48 8d 85 40 e8 ff ff 	lea    -0x17c0(%rbp),%rax
   1f2db:	48 89 85 68 ff ff ff 	mov    %rax,-0x98(%rbp)
   1f2e2:	48 8d 85 40 e8 ff ff 	lea    -0x17c0(%rbp),%rax
   1f2e9:	48 89 85 70 ff ff ff 	mov    %rax,-0x90(%rbp)
   1f2f0:	48 c7 85 78 ff ff ff 	movq   $0x0,-0x88(%rbp)
   1f2f7:	00 00 00 00 
   1f2fb:	48 8d 85 40 e8 ff ff 	lea    -0x17c0(%rbp),%rax
   1f302:	48 89 45 80          	mov    %rax,-0x80(%rbp)
   1f306:	48 8d 85 40 e8 ff ff 	lea    -0x17c0(%rbp),%rax
   1f30d:	48 89 45 88          	mov    %rax,-0x78(%rbp)
   1f311:	48 8d 85 40 e8 ff ff 	lea    -0x17c0(%rbp),%rax
   1f318:	48 89 45 90          	mov    %rax,-0x70(%rbp)
   1f31c:	48 c7 45 98 00 00 00 	movq   $0x0,-0x68(%rbp)
   1f323:	00 
   1f324:	48 8d 85 40 e8 ff ff 	lea    -0x17c0(%rbp),%rax
   1f32b:	48 89 45 a0          	mov    %rax,-0x60(%rbp)
   1f32f:	48 8d 85 40 e8 ff ff 	lea    -0x17c0(%rbp),%rax
   1f336:	48 89 45 a8          	mov    %rax,-0x58(%rbp)
   1f33a:	48 8d 85 40 e8 ff ff 	lea    -0x17c0(%rbp),%rax
   1f341:	48 89 45 b0          	mov    %rax,-0x50(%rbp)
   1f345:	c7 85 5c e7 ff ff f8 	movl   $0xfffffff8,-0x18a4(%rbp)
   1f34c:	ff ff ff 
   1f34f:	48 c7 85 80 e8 ff ff 	movq   $0x0,-0x1780(%rbp)
   1f356:	00 00 00 00 
   1f35a:	c7 85 60 e7 ff ff ff 	movl   $0xffffffff,-0x18a0(%rbp)
   1f361:	ff ff ff 
   1f364:	c7 85 64 e7 ff ff ec 	movl   $0xf18f70ec,-0x189c(%rbp)
   1f36b:	70 8f f1 
   1f36e:	48 8d 85 b0 f4 ff ff 	lea    -0xb50(%rbp),%rax
   1f375:	48 8d 15 04 2b 00 00 	lea    0x2b04(%rip),%rdx        # 21e80 <g_1206+0xe20>
   1f37c:	b9 6c 00 00 00       	mov    $0x6c,%ecx
   1f381:	48 89 c7             	mov    %rax,%rdi
   1f384:	48 89 d6             	mov    %rdx,%rsi
   1f387:	f3 48 a5             	rep movsq %ds:(%rsi),%es:(%rdi)
   1f38a:	c7 85 68 e7 ff ff d6 	movl   $0xa3e6c4d6,-0x1898(%rbp)
   1f391:	c4 e6 a3 
   1f394:	c7 85 f4 e6 ff ff 02 	movl   $0x2,-0x190c(%rbp)
   1f39b:	00 00 00 
   1f39e:	e9 08 01 00 00       	jmpq   1f4ab <func_27+0x4b89>
   1f3a3:	c7 85 6c e7 ff ff e6 	movl   $0x2932e8e6,-0x1894(%rbp)
   1f3aa:	e8 32 29 
   1f3ad:	48 8d 85 80 ea ff ff 	lea    -0x1580(%rbp),%rax
   1f3b4:	48 89 85 48 e8 ff ff 	mov    %rax,-0x17b8(%rbp)
   1f3bb:	48 8d 85 48 e8 ff ff 	lea    -0x17b8(%rbp),%rax
   1f3c2:	48 89 85 20 ef ff ff 	mov    %rax,-0x10e0(%rbp)
   1f3c9:	48 8d 85 48 e8 ff ff 	lea    -0x17b8(%rbp),%rax
   1f3d0:	48 89 85 28 ef ff ff 	mov    %rax,-0x10d8(%rbp)
   1f3d7:	48 8d 85 48 e8 ff ff 	lea    -0x17b8(%rbp),%rax
   1f3de:	48 89 85 30 ef ff ff 	mov    %rax,-0x10d0(%rbp)
   1f3e5:	48 8d 85 48 e8 ff ff 	lea    -0x17b8(%rbp),%rax
   1f3ec:	48 89 85 38 ef ff ff 	mov    %rax,-0x10c8(%rbp)
   1f3f3:	48 8d 85 20 ef ff ff 	lea    -0x10e0(%rbp),%rax
   1f3fa:	48 89 85 88 e8 ff ff 	mov    %rax,-0x1778(%rbp)
   1f401:	c6 85 d4 e6 ff ff 01 	movb   $0x1,-0x192c(%rbp)
   1f408:	48 8d 85 b0 f2 ff ff 	lea    -0xd50(%rbp),%rax
   1f40f:	48 05 10 01 00 00    	add    $0x110,%rax
   1f415:	48 89 85 90 e8 ff ff 	mov    %rax,-0x1770(%rbp)
   1f41c:	66 c7 85 de e6 ff ff 	movw   $0x6,-0x1922(%rbp)
   1f423:	06 00 
   1f425:	c7 85 70 e7 ff ff 01 	movl   $0x1,-0x1890(%rbp)
   1f42c:	00 00 00 
   1f42f:	c7 85 74 e7 ff ff 49 	movl   $0x437e8649,-0x188c(%rbp)
   1f436:	86 7e 43 
   1f439:	c7 85 78 e7 ff ff 01 	movl   $0x1,-0x1888(%rbp)
   1f440:	00 00 00 
   1f443:	c7 85 7c e7 ff ff cd 	movl   $0xc2c744cd,-0x1884(%rbp)
   1f44a:	44 c7 c2 
   1f44d:	c7 85 00 ee ff ff 2d 	movl   $0x1296822d,-0x1200(%rbp)
   1f454:	82 96 12 
   1f457:	c7 85 04 ee ff ff 2d 	movl   $0x1296822d,-0x11fc(%rbp)
   1f45e:	82 96 12 
   1f461:	c7 85 08 ee ff ff 2d 	movl   $0x1296822d,-0x11f8(%rbp)
   1f468:	82 96 12 
   1f46b:	c7 85 0c ee ff ff 2d 	movl   $0x1296822d,-0x11f4(%rbp)
   1f472:	82 96 12 
   1f475:	c7 85 10 ee ff ff 2d 	movl   $0x1296822d,-0x11f0(%rbp)
   1f47c:	82 96 12 
   1f47f:	c7 85 14 ee ff ff 2d 	movl   $0x1296822d,-0x11ec(%rbp)
   1f486:	82 96 12 
   1f489:	c7 85 18 ee ff ff 2d 	movl   $0x1296822d,-0x11e8(%rbp)
   1f490:	82 96 12 
   1f493:	66 c7 85 e0 e6 ff ff 	movw   $0x0,-0x1920(%rbp)
   1f49a:	00 00 
   1f49c:	8b 85 f4 e6 ff ff    	mov    -0x190c(%rbp),%eax
   1f4a2:	83 c0 01             	add    $0x1,%eax
   1f4a5:	89 85 f4 e6 ff ff    	mov    %eax,-0x190c(%rbp)
   1f4ab:	8b 85 f4 e6 ff ff    	mov    -0x190c(%rbp),%eax
   1f4b1:	83 f8 1d             	cmp    $0x1d,%eax
   1f4b4:	0f 84 e9 fe ff ff    	je     1f3a3 <func_27+0x4a81>
   1f4ba:	48 8b 85 c8 e6 ff ff 	mov    -0x1938(%rbp),%rax
   1f4c1:	48 8b 4d c8          	mov    -0x38(%rbp),%rcx
   1f4c5:	64 48 33 0c 25 28 00 	xor    %fs:0x28,%rcx
   1f4cc:	00 00 
   1f4ce:	74 05                	je     1f4d5 <func_27+0x4bb3>
   1f4d0:	e8 9b db fe ff       	callq  d070 <__stack_chk_fail@plt>
   1f4d5:	48 81 c4 18 19 00 00 	add    $0x1918,%rsp
   1f4dc:	5b                   	pop    %rbx
   1f4dd:	41 5c                	pop    %r12
   1f4df:	41 5d                	pop    %r13
   1f4e1:	41 5e                	pop    %r14
   1f4e3:	41 5f                	pop    %r15
   1f4e5:	5d                   	pop    %rbp
   1f4e6:	c3                   	retq   

000000000001f4e7 <func_29>:
   1f4e7:	f3 0f 1e fa          	endbr64 
   1f4eb:	55                   	push   %rbp
   1f4ec:	48 89 e5             	mov    %rsp,%rbp
   1f4ef:	41 54                	push   %r12
   1f4f1:	53                   	push   %rbx
   1f4f2:	48 81 ec 20 0a 00 00 	sub    $0xa20,%rsp
   1f4f9:	89 f8                	mov    %edi,%eax
   1f4fb:	48 89 b5 e0 f5 ff ff 	mov    %rsi,-0xa20(%rbp)
   1f502:	48 89 95 d8 f5 ff ff 	mov    %rdx,-0xa28(%rbp)
   1f509:	88 85 ec f5 ff ff    	mov    %al,-0xa14(%rbp)
   1f50f:	64 48 8b 04 25 28 00 	mov    %fs:0x28,%rax
   1f516:	00 00 
   1f518:	48 89 45 e8          	mov    %rax,-0x18(%rbp)
   1f51c:	31 c0                	xor    %eax,%eax
   1f51e:	48 8d 85 20 f7 ff ff 	lea    -0x8e0(%rbp),%rax
   1f525:	48 8d 15 14 7f 00 00 	lea    0x7f14(%rip),%rdx        # 27440 <g_3117+0x2074>
   1f52c:	b9 64 00 00 00       	mov    $0x64,%ecx
   1f531:	48 89 c7             	mov    %rax,%rdi
   1f534:	48 89 d6             	mov    %rdx,%rsi
   1f537:	f3 48 a5             	rep movsq %ds:(%rsi),%es:(%rdi)
   1f53a:	c7 85 fc f5 ff ff 83 	movl   $0x55a41183,-0xa04(%rbp)
   1f541:	11 a4 55 
   1f544:	48 8d 05 b5 87 00 00 	lea    0x87b5(%rip),%rax        # 27d00 <g_16>
   1f54b:	48 89 85 08 f6 ff ff 	mov    %rax,-0x9f8(%rbp)
   1f552:	48 8d 05 a7 87 00 00 	lea    0x87a7(%rip),%rax        # 27d00 <g_16>
   1f559:	48 89 85 a0 f6 ff ff 	mov    %rax,-0x960(%rbp)
   1f560:	48 8d 05 99 87 00 00 	lea    0x8799(%rip),%rax        # 27d00 <g_16>
   1f567:	48 89 85 a8 f6 ff ff 	mov    %rax,-0x958(%rbp)
   1f56e:	48 8d 05 8b 87 00 00 	lea    0x878b(%rip),%rax        # 27d00 <g_16>
   1f575:	48 89 85 b0 f6 ff ff 	mov    %rax,-0x950(%rbp)
   1f57c:	48 8d 05 7d 87 00 00 	lea    0x877d(%rip),%rax        # 27d00 <g_16>
   1f583:	48 89 85 b8 f6 ff ff 	mov    %rax,-0x948(%rbp)
   1f58a:	48 8d 05 6f 87 00 00 	lea    0x876f(%rip),%rax        # 27d00 <g_16>
   1f591:	48 89 85 c0 f6 ff ff 	mov    %rax,-0x940(%rbp)
   1f598:	48 8d 05 61 87 00 00 	lea    0x8761(%rip),%rax        # 27d00 <g_16>
   1f59f:	48 89 85 c8 f6 ff ff 	mov    %rax,-0x938(%rbp)
   1f5a6:	48 8d 05 db 5b 00 00 	lea    0x5bdb(%rip),%rax        # 25188 <g_63>
   1f5ad:	48 89 85 10 f6 ff ff 	mov    %rax,-0x9f0(%rbp)
   1f5b4:	48 c7 85 18 f6 ff ff 	movq   $0x0,-0x9e8(%rbp)
   1f5bb:	00 00 00 00 
   1f5bf:	48 8d 05 ca 5b 00 00 	lea    0x5bca(%rip),%rax        # 25190 <g_66>
   1f5c6:	48 89 85 20 f6 ff ff 	mov    %rax,-0x9e0(%rbp)
   1f5cd:	48 c7 85 28 f6 ff ff 	movq   $0x0,-0x9d8(%rbp)
   1f5d4:	00 00 00 00 
   1f5d8:	c6 85 f4 f5 ff ff ae 	movb   $0xae,-0xa0c(%rbp)
   1f5df:	48 8d 85 40 fa ff ff 	lea    -0x5c0(%rbp),%rax
   1f5e6:	48 8d 15 73 81 00 00 	lea    0x8173(%rip),%rdx        # 27760 <g_3117+0x2394>
   1f5ed:	b9 b4 00 00 00       	mov    $0xb4,%ecx
   1f5f2:	48 89 c7             	mov    %rax,%rdi
   1f5f5:	48 89 d6             	mov    %rdx,%rsi
   1f5f8:	f3 48 a5             	rep movsq %ds:(%rsi),%es:(%rdi)
   1f5fb:	48 8d 05 86 5b 00 00 	lea    0x5b86(%rip),%rax        # 25188 <g_63>
   1f602:	48 89 85 30 f6 ff ff 	mov    %rax,-0x9d0(%rbp)
   1f609:	48 8d 05 80 5b 00 00 	lea    0x5b80(%rip),%rax        # 25190 <g_66>
   1f610:	48 89 85 38 f6 ff ff 	mov    %rax,-0x9c8(%rbp)
   1f617:	c6 85 f5 f5 ff ff c2 	movb   $0xc2,-0xa0b(%rbp)
   1f61e:	c6 85 f6 f5 ff ff d1 	movb   $0xd1,-0xa0a(%rbp)
   1f625:	66 c7 45 e5 fe fe    	movw   $0xfefe,-0x1b(%rbp)
   1f62b:	c6 45 e7 fe          	movb   $0xfe,-0x19(%rbp)
   1f62f:	c7 85 80 f6 ff ff a9 	movl   $0x8aa92ca9,-0x980(%rbp)
   1f636:	2c a9 8a 
   1f639:	c7 85 84 f6 ff ff a9 	movl   $0x8aa92ca9,-0x97c(%rbp)
   1f640:	2c a9 8a 
   1f643:	c7 85 88 f6 ff ff a9 	movl   $0x8aa92ca9,-0x978(%rbp)
   1f64a:	2c a9 8a 
   1f64d:	c7 85 8c f6 ff ff a9 	movl   $0x8aa92ca9,-0x974(%rbp)
   1f654:	2c a9 8a 
   1f657:	c7 85 90 f6 ff ff a9 	movl   $0x8aa92ca9,-0x970(%rbp)
   1f65e:	2c a9 8a 
   1f661:	c7 85 94 f6 ff ff a9 	movl   $0x8aa92ca9,-0x96c(%rbp)
   1f668:	2c a9 8a 
   1f66b:	c7 85 98 f6 ff ff a9 	movl   $0x8aa92ca9,-0x968(%rbp)
   1f672:	2c a9 8a 
   1f675:	c7 85 9c f6 ff ff a9 	movl   $0x8aa92ca9,-0x964(%rbp)
   1f67c:	2c a9 8a 
   1f67f:	48 b8 dc b2 ec 86 71 	movabs $0x779fa27186ecb2dc,%rax
   1f686:	a2 9f 77 
   1f689:	48 89 85 40 f6 ff ff 	mov    %rax,-0x9c0(%rbp)
   1f690:	48 8d 85 40 fa ff ff 	lea    -0x5c0(%rbp),%rax
   1f697:	48 05 88 02 00 00    	add    $0x288,%rax
   1f69d:	48 89 85 00 f6 ff ff 	mov    %rax,-0xa00(%rbp)
   1f6a4:	48 8d 85 00 f6 ff ff 	lea    -0xa00(%rbp),%rax
   1f6ab:	48 89 85 48 f6 ff ff 	mov    %rax,-0x9b8(%rbp)
   1f6b2:	48 c7 85 50 f6 ff ff 	movq   $0x0,-0x9b0(%rbp)
   1f6b9:	00 00 00 00 
   1f6bd:	c6 85 f7 f5 ff ff ff 	movb   $0xff,-0xa09(%rbp)
   1f6c4:	c7 85 f8 f5 ff ff 00 	movl   $0x0,-0xa08(%rbp)
   1f6cb:	00 00 00 
   1f6ce:	eb 22                	jmp    1f6f2 <func_29+0x20b>
   1f6d0:	8b 85 f8 f5 ff ff    	mov    -0xa08(%rbp),%eax
   1f6d6:	48 98                	cltq   
   1f6d8:	48 8d 95 a0 f6 ff ff 	lea    -0x960(%rbp),%rdx
   1f6df:	48 83 c2 10          	add    $0x10,%rdx
   1f6e3:	48 89 94 c5 d0 f6 ff 	mov    %rdx,-0x930(%rbp,%rax,8)
   1f6ea:	ff 
   1f6eb:	83 85 f8 f5 ff ff 01 	addl   $0x1,-0xa08(%rbp)
   1f6f2:	83 bd f8 f5 ff ff 09 	cmpl   $0x9,-0xa08(%rbp)
   1f6f9:	7e d5                	jle    1f6d0 <func_29+0x1e9>
   1f6fb:	c7 85 f8 f5 ff ff 00 	movl   $0x0,-0xa08(%rbp)
   1f702:	00 00 00 
   1f705:	eb 1a                	jmp    1f721 <func_29+0x23a>
   1f707:	8b 85 f8 f5 ff ff    	mov    -0xa08(%rbp),%eax
   1f70d:	48 98                	cltq   
   1f70f:	c7 84 85 60 f6 ff ff 	movl   $0xffffffff,-0x9a0(%rbp,%rax,4)
   1f716:	ff ff ff ff 
   1f71a:	83 85 f8 f5 ff ff 01 	addl   $0x1,-0xa08(%rbp)
   1f721:	83 bd f8 f5 ff ff 04 	cmpl   $0x4,-0xa08(%rbp)
   1f728:	7e dd                	jle    1f707 <func_29+0x220>
   1f72a:	c7 85 f8 f5 ff ff 00 	movl   $0x0,-0xa08(%rbp)
   1f731:	00 00 00 
   1f734:	eb 1b                	jmp    1f751 <func_29+0x26a>
   1f736:	8b 85 f8 f5 ff ff    	mov    -0xa08(%rbp),%eax
   1f73c:	48 98                	cltq   
   1f73e:	48 c7 84 c5 58 f6 ff 	movq   $0x0,-0x9a8(%rbp,%rax,8)
   1f745:	ff 00 00 00 00 
   1f74a:	83 85 f8 f5 ff ff 01 	addl   $0x1,-0xa08(%rbp)
   1f751:	83 bd f8 f5 ff ff 00 	cmpl   $0x0,-0xa08(%rbp)
   1f758:	7e dc                	jle    1f736 <func_29+0x24f>
   1f75a:	0f b6 9d ec f5 ff ff 	movzbl -0xa14(%rbp),%ebx
   1f761:	48 8b 85 08 f6 ff ff 	mov    -0x9f8(%rbp),%rax
   1f768:	48 8b 00             	mov    (%rax),%rax
   1f76b:	44 8b 20             	mov    (%rax),%r12d
   1f76e:	0f b6 95 ec f5 ff ff 	movzbl -0xa14(%rbp),%edx
   1f775:	48 8d 05 84 85 00 00 	lea    0x8584(%rip),%rax        # 27d00 <g_16>
   1f77c:	48 89 05 45 8b 00 00 	mov    %rax,0x8b45(%rip)        # 282c8 <g_60>
   1f783:	48 8b 05 3e 8b 00 00 	mov    0x8b3e(%rip),%rax        # 282c8 <g_60>
   1f78a:	48 39 85 08 f6 ff ff 	cmp    %rax,-0x9f8(%rbp)
   1f791:	74 09                	je     1f79c <func_29+0x2b5>
   1f793:	80 bd ec f5 ff ff 00 	cmpb   $0x0,-0xa14(%rbp)
   1f79a:	74 07                	je     1f7a3 <func_29+0x2bc>
   1f79c:	b8 01 00 00 00       	mov    $0x1,%eax
   1f7a1:	eb 05                	jmp    1f7a8 <func_29+0x2c1>
   1f7a3:	b8 00 00 00 00       	mov    $0x0,%eax
   1f7a8:	0f b7 c0             	movzwl %ax,%eax
   1f7ab:	89 d6                	mov    %edx,%esi
   1f7ad:	89 c7                	mov    %eax,%edi
   1f7af:	e8 c6 e6 fe ff       	callq  de7a <safe_rshift_func_uint16_t_u_u>
   1f7b4:	0f b7 c0             	movzwl %ax,%eax
   1f7b7:	44 89 e6             	mov    %r12d,%esi
   1f7ba:	89 c7                	mov    %eax,%edi
   1f7bc:	e8 44 de fe ff       	callq  d605 <safe_sub_func_int32_t_s_s>
   1f7c1:	48 63 d0             	movslq %eax,%rdx
   1f7c4:	48 8b 85 10 f6 ff ff 	mov    -0x9f0(%rbp),%rax
   1f7cb:	48 89 10             	mov    %rdx,(%rax)
   1f7ce:	48 8b 85 10 f6 ff ff 	mov    -0x9f0(%rbp),%rax
   1f7d5:	48 8b 10             	mov    (%rax),%rdx
   1f7d8:	0f b7 05 7d 58 00 00 	movzwl 0x587d(%rip),%eax        # 2505c <g_43+0x1c>
   1f7df:	0f b7 c0             	movzwl %ax,%eax
   1f7e2:	48 39 c2             	cmp    %rax,%rdx
   1f7e5:	0f 95 c0             	setne  %al
   1f7e8:	0f b6 d0             	movzbl %al,%edx
   1f7eb:	0f b6 85 ec f5 ff ff 	movzbl -0xa14(%rbp),%eax
   1f7f2:	48 89 d6             	mov    %rdx,%rsi
   1f7f5:	48 89 c7             	mov    %rax,%rdi
   1f7f8:	e8 44 e0 fe ff       	callq  d841 <safe_add_func_int64_t_s_s>
   1f7fd:	0f b7 15 24 58 00 00 	movzwl 0x5824(%rip),%edx        # 25028 <g_34>
   1f804:	0f b7 d2             	movzwl %dx,%edx
   1f807:	48 39 d0             	cmp    %rdx,%rax
   1f80a:	0f 9d c0             	setge  %al
   1f80d:	0f b6 d0             	movzbl %al,%edx
   1f810:	48 8b 85 20 f6 ff ff 	mov    -0x9e0(%rbp),%rax
   1f817:	8b 00                	mov    (%rax),%eax
   1f819:	31 c2                	xor    %eax,%edx
   1f81b:	48 8b 85 20 f6 ff ff 	mov    -0x9e0(%rbp),%rax
   1f822:	89 10                	mov    %edx,(%rax)
   1f824:	48 8b 85 20 f6 ff ff 	mov    -0x9e0(%rbp),%rax
   1f82b:	8b 00                	mov    (%rax),%eax
   1f82d:	3d 53 96 b5 2d       	cmp    $0x2db59653,%eax
   1f832:	0f 94 c0             	sete   %al
   1f835:	89 c2                	mov    %eax,%edx
   1f837:	8b 85 fc f5 ff ff    	mov    -0xa04(%rbp),%eax
   1f83d:	09 d0                	or     %edx,%eax
   1f83f:	88 05 4f 59 00 00    	mov    %al,0x594f(%rip)        # 25194 <g_68>
   1f845:	0f b6 05 48 59 00 00 	movzbl 0x5948(%rip),%eax        # 25194 <g_68>
   1f84c:	84 c0                	test   %al,%al
   1f84e:	74 09                	je     1f859 <func_29+0x372>
   1f850:	0f b6 05 3d 59 00 00 	movzbl 0x593d(%rip),%eax        # 25194 <g_68>
   1f857:	84 c0                	test   %al,%al
   1f859:	89 de                	mov    %ebx,%esi
   1f85b:	bf 01 00 00 00       	mov    $0x1,%edi
   1f860:	e8 6e db fe ff       	callq  d3d3 <safe_sub_func_int16_t_s_s>
   1f865:	b8 38 25 eb 35       	mov    $0x35eb2538,%eax
   1f86a:	08 85 f4 f5 ff ff    	or     %al,-0xa0c(%rbp)
   1f870:	0f b7 05 1f 59 00 00 	movzwl 0x591f(%rip),%eax        # 25196 <g_70>
   1f877:	83 c0 01             	add    $0x1,%eax
   1f87a:	66 89 05 15 59 00 00 	mov    %ax,0x5915(%rip)        # 25196 <g_70>
   1f881:	0f b6 85 ec f5 ff ff 	movzbl -0xa14(%rbp),%eax
   1f888:	48 8b 5d e8          	mov    -0x18(%rbp),%rbx
   1f88c:	64 48 33 1c 25 28 00 	xor    %fs:0x28,%rbx
   1f893:	00 00 
   1f895:	74 05                	je     1f89c <func_29+0x3b5>
   1f897:	e8 d4 d7 fe ff       	callq  d070 <__stack_chk_fail@plt>
   1f89c:	48 81 c4 20 0a 00 00 	add    $0xa20,%rsp
   1f8a3:	5b                   	pop    %rbx
   1f8a4:	41 5c                	pop    %r12
   1f8a6:	5d                   	pop    %rbp
   1f8a7:	c3                   	retq   

000000000001f8a8 <func_38>:
   1f8a8:	f3 0f 1e fa          	endbr64 
   1f8ac:	55                   	push   %rbp
   1f8ad:	48 89 e5             	mov    %rsp,%rbp
   1f8b0:	48 83 ec 40          	sub    $0x40,%rsp
   1f8b4:	89 f8                	mov    %edi,%eax
   1f8b6:	48 89 75 d0          	mov    %rsi,-0x30(%rbp)
   1f8ba:	48 89 55 c8          	mov    %rdx,-0x38(%rbp)
   1f8be:	66 89 45 dc          	mov    %ax,-0x24(%rbp)
   1f8c2:	64 48 8b 04 25 28 00 	mov    %fs:0x28,%rax
   1f8c9:	00 00 
   1f8cb:	48 89 45 f8          	mov    %rax,-0x8(%rbp)
   1f8cf:	31 c0                	xor    %eax,%eax
   1f8d1:	48 8d 05 4c 57 00 00 	lea    0x574c(%rip),%rax        # 25024 <g_17>
   1f8d8:	48 89 45 e0          	mov    %rax,-0x20(%rbp)
   1f8dc:	48 8d 45 e0          	lea    -0x20(%rbp),%rax
   1f8e0:	48 89 45 e8          	mov    %rax,-0x18(%rbp)
   1f8e4:	48 8d 05 39 57 00 00 	lea    0x5739(%rip),%rax        # 25024 <g_17>
   1f8eb:	48 89 45 f0          	mov    %rax,-0x10(%rbp)
   1f8ef:	48 8b 55 e0          	mov    -0x20(%rbp),%rdx
   1f8f3:	48 8b 45 e8          	mov    -0x18(%rbp),%rax
   1f8f7:	48 89 10             	mov    %rdx,(%rax)
   1f8fa:	48 8b 45 f0          	mov    -0x10(%rbp),%rax
   1f8fe:	48 8b 4d f8          	mov    -0x8(%rbp),%rcx
   1f902:	64 48 33 0c 25 28 00 	xor    %fs:0x28,%rcx
   1f909:	00 00 
   1f90b:	74 05                	je     1f912 <func_38+0x6a>
   1f90d:	e8 5e d7 fe ff       	callq  d070 <__stack_chk_fail@plt>
   1f912:	c9                   	leaveq 
   1f913:	c3                   	retq   

000000000001f914 <main>:
   1f914:	f3 0f 1e fa          	endbr64 
   1f918:	55                   	push   %rbp
   1f919:	48 89 e5             	mov    %rsp,%rbp
   1f91c:	48 83 ec 20          	sub    $0x20,%rsp
   1f920:	89 7d ec             	mov    %edi,-0x14(%rbp)
   1f923:	48 89 75 e0          	mov    %rsi,-0x20(%rbp)
   1f927:	c7 45 fc 00 00 00 00 	movl   $0x0,-0x4(%rbp)
   1f92e:	83 7d ec 02          	cmpl   $0x2,-0x14(%rbp)
   1f932:	75 25                	jne    1f959 <main+0x45>
   1f934:	48 8b 45 e0          	mov    -0x20(%rbp),%rax
   1f938:	48 83 c0 08          	add    $0x8,%rax
   1f93c:	48 8b 00             	mov    (%rax),%rax
   1f93f:	48 8d 35 9a 28 00 00 	lea    0x289a(%rip),%rsi        # 221e0 <g_1206+0x1180>
   1f946:	48 89 c7             	mov    %rax,%rdi
   1f949:	e8 42 d7 fe ff       	callq  d090 <strcmp@plt>
   1f94e:	85 c0                	test   %eax,%eax
   1f950:	75 07                	jne    1f959 <main+0x45>
   1f952:	c7 45 fc 01 00 00 00 	movl   $0x1,-0x4(%rbp)
   1f959:	e8 2b d8 fe ff       	callq  d189 <platform_main_begin>
   1f95e:	e8 35 ec fe ff       	callq  e598 <crc32_gentab>
   1f963:	e8 4d ee fe ff       	callq  e7b5 <func_1>
   1f968:	8b 05 b6 56 00 00    	mov    0x56b6(%rip),%eax        # 25024 <g_17>
   1f96e:	48 98                	cltq   
   1f970:	8b 55 fc             	mov    -0x4(%rbp),%edx
   1f973:	48 8d 35 68 28 00 00 	lea    0x2868(%rip),%rsi        # 221e2 <g_1206+0x1182>
   1f97a:	48 89 c7             	mov    %rax,%rdi
   1f97d:	e8 71 ed fe ff       	callq  e6f3 <transparent_crc>
   1f982:	0f b7 05 9f 56 00 00 	movzwl 0x569f(%rip),%eax        # 25028 <g_34>
   1f989:	0f b7 c0             	movzwl %ax,%eax
   1f98c:	8b 55 fc             	mov    -0x4(%rbp),%edx
   1f98f:	48 8d 35 51 28 00 00 	lea    0x2851(%rip),%rsi        # 221e7 <g_1206+0x1187>
   1f996:	48 89 c7             	mov    %rax,%rdi
   1f999:	e8 55 ed fe ff       	callq  e6f3 <transparent_crc>
   1f99e:	c7 45 f0 00 00 00 00 	movl   $0x0,-0x10(%rbp)
   1f9a5:	e9 b7 00 00 00       	jmpq   1fa61 <main+0x14d>
   1f9aa:	c7 45 f4 00 00 00 00 	movl   $0x0,-0xc(%rbp)
   1f9b1:	e9 9d 00 00 00       	jmpq   1fa53 <main+0x13f>
   1f9b6:	c7 45 f8 00 00 00 00 	movl   $0x0,-0x8(%rbp)
   1f9bd:	e9 83 00 00 00       	jmpq   1fa45 <main+0x131>
   1f9c2:	8b 45 f8             	mov    -0x8(%rbp),%eax
   1f9c5:	48 63 f0             	movslq %eax,%rsi
   1f9c8:	8b 45 f0             	mov    -0x10(%rbp),%eax
   1f9cb:	48 63 d0             	movslq %eax,%rdx
   1f9ce:	8b 45 f4             	mov    -0xc(%rbp),%eax
   1f9d1:	48 63 c8             	movslq %eax,%rcx
   1f9d4:	48 89 d0             	mov    %rdx,%rax
   1f9d7:	48 01 c0             	add    %rax,%rax
   1f9da:	48 01 d0             	add    %rdx,%rax
   1f9dd:	48 8d 14 c5 00 00 00 	lea    0x0(,%rax,8),%rdx
   1f9e4:	00 
   1f9e5:	48 01 d0             	add    %rdx,%rax
   1f9e8:	48 01 c0             	add    %rax,%rax
   1f9eb:	48 89 ca             	mov    %rcx,%rdx
   1f9ee:	48 c1 e2 03          	shl    $0x3,%rdx
   1f9f2:	48 01 ca             	add    %rcx,%rdx
   1f9f5:	48 01 d0             	add    %rdx,%rax
   1f9f8:	48 01 f0             	add    %rsi,%rax
   1f9fb:	48 8d 14 00          	lea    (%rax,%rax,1),%rdx
   1f9ff:	48 8d 05 3a 56 00 00 	lea    0x563a(%rip),%rax        # 25040 <g_43>
   1fa06:	0f b7 04 02          	movzwl (%rdx,%rax,1),%eax
   1fa0a:	0f b7 c0             	movzwl %ax,%eax
   1fa0d:	8b 55 fc             	mov    -0x4(%rbp),%edx
   1fa10:	48 8d 35 d5 27 00 00 	lea    0x27d5(%rip),%rsi        # 221ec <g_1206+0x118c>
   1fa17:	48 89 c7             	mov    %rax,%rdi
   1fa1a:	e8 d4 ec fe ff       	callq  e6f3 <transparent_crc>
   1fa1f:	83 7d fc 00          	cmpl   $0x0,-0x4(%rbp)
   1fa23:	74 1c                	je     1fa41 <main+0x12d>
   1fa25:	8b 4d f8             	mov    -0x8(%rbp),%ecx
   1fa28:	8b 55 f4             	mov    -0xc(%rbp),%edx
   1fa2b:	8b 45 f0             	mov    -0x10(%rbp),%eax
   1fa2e:	89 c6                	mov    %eax,%esi
   1fa30:	48 8d 3d c3 27 00 00 	lea    0x27c3(%rip),%rdi        # 221fa <g_1206+0x119a>
   1fa37:	b8 00 00 00 00       	mov    $0x0,%eax
   1fa3c:	e8 3f d6 fe ff       	callq  d080 <printf@plt>
   1fa41:	83 45 f8 01          	addl   $0x1,-0x8(%rbp)
   1fa45:	83 7d f8 08          	cmpl   $0x8,-0x8(%rbp)
   1fa49:	0f 8e 73 ff ff ff    	jle    1f9c2 <main+0xae>
   1fa4f:	83 45 f4 01          	addl   $0x1,-0xc(%rbp)
   1fa53:	83 7d f4 05          	cmpl   $0x5,-0xc(%rbp)
   1fa57:	0f 8e 59 ff ff ff    	jle    1f9b6 <main+0xa2>
   1fa5d:	83 45 f0 01          	addl   $0x1,-0x10(%rbp)
   1fa61:	83 7d f0 02          	cmpl   $0x2,-0x10(%rbp)
   1fa65:	0f 8e 3f ff ff ff    	jle    1f9aa <main+0x96>
   1fa6b:	48 8b 05 16 57 00 00 	mov    0x5716(%rip),%rax        # 25188 <g_63>
   1fa72:	8b 55 fc             	mov    -0x4(%rbp),%edx
   1fa75:	48 8d 35 94 27 00 00 	lea    0x2794(%rip),%rsi        # 22210 <g_1206+0x11b0>
   1fa7c:	48 89 c7             	mov    %rax,%rdi
   1fa7f:	e8 6f ec fe ff       	callq  e6f3 <transparent_crc>
   1fa84:	8b 05 06 57 00 00    	mov    0x5706(%rip),%eax        # 25190 <g_66>
   1fa8a:	89 c1                	mov    %eax,%ecx
   1fa8c:	8b 45 fc             	mov    -0x4(%rbp),%eax
   1fa8f:	89 c2                	mov    %eax,%edx
   1fa91:	48 8d 35 7d 27 00 00 	lea    0x277d(%rip),%rsi        # 22215 <g_1206+0x11b5>
   1fa98:	48 89 cf             	mov    %rcx,%rdi
   1fa9b:	e8 53 ec fe ff       	callq  e6f3 <transparent_crc>
   1faa0:	0f b6 05 ed 56 00 00 	movzbl 0x56ed(%rip),%eax        # 25194 <g_68>
   1faa7:	48 0f be c0          	movsbq %al,%rax
   1faab:	8b 55 fc             	mov    -0x4(%rbp),%edx
   1faae:	48 8d 35 65 27 00 00 	lea    0x2765(%rip),%rsi        # 2221a <g_1206+0x11ba>
   1fab5:	48 89 c7             	mov    %rax,%rdi
   1fab8:	e8 36 ec fe ff       	callq  e6f3 <transparent_crc>
   1fabd:	0f b7 05 d2 56 00 00 	movzwl 0x56d2(%rip),%eax        # 25196 <g_70>
   1fac4:	0f b7 c0             	movzwl %ax,%eax
   1fac7:	8b 55 fc             	mov    -0x4(%rbp),%edx
   1faca:	48 8d 35 4e 27 00 00 	lea    0x274e(%rip),%rsi        # 2221f <g_1206+0x11bf>
   1fad1:	48 89 c7             	mov    %rax,%rdi
   1fad4:	e8 1a ec fe ff       	callq  e6f3 <transparent_crc>
   1fad9:	0f b6 05 b8 56 00 00 	movzbl 0x56b8(%rip),%eax        # 25198 <g_77>
   1fae0:	48 0f be c0          	movsbq %al,%rax
   1fae4:	8b 55 fc             	mov    -0x4(%rbp),%edx
   1fae7:	48 8d 35 36 27 00 00 	lea    0x2736(%rip),%rsi        # 22224 <g_1206+0x11c4>
   1faee:	48 89 c7             	mov    %rax,%rdi
   1faf1:	e8 fd eb fe ff       	callq  e6f3 <transparent_crc>
   1faf6:	0f b6 05 9c 56 00 00 	movzbl 0x569c(%rip),%eax        # 25199 <g_93>
   1fafd:	0f b6 c0             	movzbl %al,%eax
   1fb00:	8b 55 fc             	mov    -0x4(%rbp),%edx
   1fb03:	48 8d 35 1f 27 00 00 	lea    0x271f(%rip),%rsi        # 22229 <g_1206+0x11c9>
   1fb0a:	48 89 c7             	mov    %rax,%rdi
   1fb0d:	e8 e1 eb fe ff       	callq  e6f3 <transparent_crc>
   1fb12:	8b 05 84 56 00 00    	mov    0x5684(%rip),%eax        # 2519c <g_104>
   1fb18:	48 98                	cltq   
   1fb1a:	8b 55 fc             	mov    -0x4(%rbp),%edx
   1fb1d:	48 8d 35 0a 27 00 00 	lea    0x270a(%rip),%rsi        # 2222e <g_1206+0x11ce>
   1fb24:	48 89 c7             	mov    %rax,%rdi
   1fb27:	e8 c7 eb fe ff       	callq  e6f3 <transparent_crc>
   1fb2c:	48 8b 05 6d 56 00 00 	mov    0x566d(%rip),%rax        # 251a0 <g_117>
   1fb33:	48 89 c1             	mov    %rax,%rcx
   1fb36:	8b 45 fc             	mov    -0x4(%rbp),%eax
   1fb39:	89 c2                	mov    %eax,%edx
   1fb3b:	48 8d 35 f2 26 00 00 	lea    0x26f2(%rip),%rsi        # 22234 <g_1206+0x11d4>
   1fb42:	48 89 cf             	mov    %rcx,%rdi
   1fb45:	e8 a9 eb fe ff       	callq  e6f3 <transparent_crc>
   1fb4a:	0f b7 05 57 56 00 00 	movzwl 0x5657(%rip),%eax        # 251a8 <g_126>
   1fb51:	0f b7 c0             	movzwl %ax,%eax
   1fb54:	8b 55 fc             	mov    -0x4(%rbp),%edx
   1fb57:	48 8d 35 dc 26 00 00 	lea    0x26dc(%rip),%rsi        # 2223a <g_1206+0x11da>
   1fb5e:	48 89 c7             	mov    %rax,%rdi
   1fb61:	e8 8d eb fe ff       	callq  e6f3 <transparent_crc>
   1fb66:	8b 05 40 56 00 00    	mov    0x5640(%rip),%eax        # 251ac <g_131>
   1fb6c:	48 98                	cltq   
   1fb6e:	8b 55 fc             	mov    -0x4(%rbp),%edx
   1fb71:	48 8d 35 c8 26 00 00 	lea    0x26c8(%rip),%rsi        # 22240 <g_1206+0x11e0>
   1fb78:	48 89 c7             	mov    %rax,%rdi
   1fb7b:	e8 73 eb fe ff       	callq  e6f3 <transparent_crc>
   1fb80:	c7 45 f0 00 00 00 00 	movl   $0x0,-0x10(%rbp)
   1fb87:	eb 78                	jmp    1fc01 <main+0x2ed>
   1fb89:	c7 45 f4 00 00 00 00 	movl   $0x0,-0xc(%rbp)
   1fb90:	eb 65                	jmp    1fbf7 <main+0x2e3>
   1fb92:	8b 45 f4             	mov    -0xc(%rbp),%eax
   1fb95:	48 63 c8             	movslq %eax,%rcx
   1fb98:	8b 45 f0             	mov    -0x10(%rbp),%eax
   1fb9b:	48 63 d0             	movslq %eax,%rdx
   1fb9e:	48 89 d0             	mov    %rdx,%rax
   1fba1:	48 c1 e0 02          	shl    $0x2,%rax
   1fba5:	48 01 d0             	add    %rdx,%rax
   1fba8:	48 01 c0             	add    %rax,%rax
   1fbab:	48 01 c8             	add    %rcx,%rax
   1fbae:	48 8d 14 85 00 00 00 	lea    0x0(,%rax,4),%rdx
   1fbb5:	00 
   1fbb6:	48 8d 05 03 56 00 00 	lea    0x5603(%rip),%rax        # 251c0 <g_133>
   1fbbd:	8b 04 02             	mov    (%rdx,%rax,1),%eax
   1fbc0:	48 98                	cltq   
   1fbc2:	8b 55 fc             	mov    -0x4(%rbp),%edx
   1fbc5:	48 8d 35 7a 26 00 00 	lea    0x267a(%rip),%rsi        # 22246 <g_1206+0x11e6>
   1fbcc:	48 89 c7             	mov    %rax,%rdi
   1fbcf:	e8 1f eb fe ff       	callq  e6f3 <transparent_crc>
   1fbd4:	83 7d fc 00          	cmpl   $0x0,-0x4(%rbp)
   1fbd8:	74 19                	je     1fbf3 <main+0x2df>
   1fbda:	8b 55 f4             	mov    -0xc(%rbp),%edx
   1fbdd:	8b 45 f0             	mov    -0x10(%rbp),%eax
   1fbe0:	89 c6                	mov    %eax,%esi
   1fbe2:	48 8d 3d 69 26 00 00 	lea    0x2669(%rip),%rdi        # 22252 <g_1206+0x11f2>
   1fbe9:	b8 00 00 00 00       	mov    $0x0,%eax
   1fbee:	e8 8d d4 fe ff       	callq  d080 <printf@plt>
   1fbf3:	83 45 f4 01          	addl   $0x1,-0xc(%rbp)
   1fbf7:	83 7d f4 09          	cmpl   $0x9,-0xc(%rbp)
   1fbfb:	7e 95                	jle    1fb92 <main+0x27e>
   1fbfd:	83 45 f0 01          	addl   $0x1,-0x10(%rbp)
   1fc01:	83 7d f0 01          	cmpl   $0x1,-0x10(%rbp)
   1fc05:	7e 82                	jle    1fb89 <main+0x275>
   1fc07:	8b 05 03 56 00 00    	mov    0x5603(%rip),%eax        # 25210 <g_173>
   1fc0d:	48 98                	cltq   
   1fc0f:	8b 55 fc             	mov    -0x4(%rbp),%edx
   1fc12:	48 8d 35 4b 26 00 00 	lea    0x264b(%rip),%rsi        # 22264 <g_1206+0x1204>
   1fc19:	48 89 c7             	mov    %rax,%rdi
   1fc1c:	e8 d2 ea fe ff       	callq  e6f3 <transparent_crc>
   1fc21:	0f b7 05 ec 55 00 00 	movzwl 0x55ec(%rip),%eax        # 25214 <g_188>
   1fc28:	48 0f bf c0          	movswq %ax,%rax
   1fc2c:	8b 55 fc             	mov    -0x4(%rbp),%edx
   1fc2f:	48 8d 35 34 26 00 00 	lea    0x2634(%rip),%rsi        # 2226a <g_1206+0x120a>
   1fc36:	48 89 c7             	mov    %rax,%rdi
   1fc39:	e8 b5 ea fe ff       	callq  e6f3 <transparent_crc>
   1fc3e:	8b 05 d4 55 00 00    	mov    0x55d4(%rip),%eax        # 25218 <g_219>
   1fc44:	89 c1                	mov    %eax,%ecx
   1fc46:	8b 45 fc             	mov    -0x4(%rbp),%eax
   1fc49:	89 c2                	mov    %eax,%edx
   1fc4b:	48 8d 35 1e 26 00 00 	lea    0x261e(%rip),%rsi        # 22270 <g_1206+0x1210>
   1fc52:	48 89 cf             	mov    %rcx,%rdi
   1fc55:	e8 99 ea fe ff       	callq  e6f3 <transparent_crc>
   1fc5a:	0f b7 05 bb 55 00 00 	movzwl 0x55bb(%rip),%eax        # 2521c <g_263>
   1fc61:	48 0f bf c0          	movswq %ax,%rax
   1fc65:	8b 55 fc             	mov    -0x4(%rbp),%edx
   1fc68:	48 8d 35 07 26 00 00 	lea    0x2607(%rip),%rsi        # 22276 <g_1206+0x1216>
   1fc6f:	48 89 c7             	mov    %rax,%rdi
   1fc72:	e8 7c ea fe ff       	callq  e6f3 <transparent_crc>
   1fc77:	48 8b 05 a2 55 00 00 	mov    0x55a2(%rip),%rax        # 25220 <g_265>
   1fc7e:	8b 55 fc             	mov    -0x4(%rbp),%edx
   1fc81:	48 8d 35 f4 25 00 00 	lea    0x25f4(%rip),%rsi        # 2227c <g_1206+0x121c>
   1fc88:	48 89 c7             	mov    %rax,%rdi
   1fc8b:	e8 63 ea fe ff       	callq  e6f3 <transparent_crc>
   1fc90:	48 8b 05 91 55 00 00 	mov    0x5591(%rip),%rax        # 25228 <g_430>
   1fc97:	48 89 c1             	mov    %rax,%rcx
   1fc9a:	8b 45 fc             	mov    -0x4(%rbp),%eax
   1fc9d:	89 c2                	mov    %eax,%edx
   1fc9f:	48 8d 35 dc 25 00 00 	lea    0x25dc(%rip),%rsi        # 22282 <g_1206+0x1222>
   1fca6:	48 89 cf             	mov    %rcx,%rdi
   1fca9:	e8 45 ea fe ff       	callq  e6f3 <transparent_crc>
   1fcae:	8b 05 7c 55 00 00    	mov    0x557c(%rip),%eax        # 25230 <g_450>
   1fcb4:	89 c1                	mov    %eax,%ecx
   1fcb6:	8b 45 fc             	mov    -0x4(%rbp),%eax
   1fcb9:	89 c2                	mov    %eax,%edx
   1fcbb:	48 8d 35 c6 25 00 00 	lea    0x25c6(%rip),%rsi        # 22288 <g_1206+0x1228>
   1fcc2:	48 89 cf             	mov    %rcx,%rdi
   1fcc5:	e8 29 ea fe ff       	callq  e6f3 <transparent_crc>
   1fcca:	48 8b 05 67 55 00 00 	mov    0x5567(%rip),%rax        # 25238 <g_589>
   1fcd1:	48 89 c1             	mov    %rax,%rcx
   1fcd4:	8b 45 fc             	mov    -0x4(%rbp),%eax
   1fcd7:	89 c2                	mov    %eax,%edx
   1fcd9:	48 8d 35 ae 25 00 00 	lea    0x25ae(%rip),%rsi        # 2228e <g_1206+0x122e>
   1fce0:	48 89 cf             	mov    %rcx,%rdi
   1fce3:	e8 0b ea fe ff       	callq  e6f3 <transparent_crc>
   1fce8:	8b 05 aa a3 00 00    	mov    0xa3aa(%rip),%eax        # 2a098 <g_805>
   1fcee:	48 98                	cltq   
   1fcf0:	8b 55 fc             	mov    -0x4(%rbp),%edx
   1fcf3:	48 8d 35 9a 25 00 00 	lea    0x259a(%rip),%rsi        # 22294 <g_1206+0x1234>
   1fcfa:	48 89 c7             	mov    %rax,%rdi
   1fcfd:	e8 f1 e9 fe ff       	callq  e6f3 <transparent_crc>
   1fd02:	0f b7 05 37 55 00 00 	movzwl 0x5537(%rip),%eax        # 25240 <g_807>
   1fd09:	0f b7 c0             	movzwl %ax,%eax
   1fd0c:	8b 55 fc             	mov    -0x4(%rbp),%edx
   1fd0f:	48 8d 35 84 25 00 00 	lea    0x2584(%rip),%rsi        # 2229a <g_1206+0x123a>
   1fd16:	48 89 c7             	mov    %rax,%rdi
   1fd19:	e8 d5 e9 fe ff       	callq  e6f3 <transparent_crc>
   1fd1e:	c7 45 f0 00 00 00 00 	movl   $0x0,-0x10(%rbp)
   1fd25:	eb 4b                	jmp    1fd72 <main+0x45e>
   1fd27:	8b 45 f0             	mov    -0x10(%rbp),%eax
   1fd2a:	48 98                	cltq   
   1fd2c:	48 8d 14 85 00 00 00 	lea    0x0(,%rax,4),%rdx
   1fd33:	00 
   1fd34:	48 8d 05 25 55 00 00 	lea    0x5525(%rip),%rax        # 25260 <g_871>
   1fd3b:	8b 04 02             	mov    (%rdx,%rax,1),%eax
   1fd3e:	48 98                	cltq   
   1fd40:	8b 55 fc             	mov    -0x4(%rbp),%edx
   1fd43:	48 8d 35 56 25 00 00 	lea    0x2556(%rip),%rsi        # 222a0 <g_1206+0x1240>
   1fd4a:	48 89 c7             	mov    %rax,%rdi
   1fd4d:	e8 a1 e9 fe ff       	callq  e6f3 <transparent_crc>
   1fd52:	83 7d fc 00          	cmpl   $0x0,-0x4(%rbp)
   1fd56:	74 16                	je     1fd6e <main+0x45a>
   1fd58:	8b 45 f0             	mov    -0x10(%rbp),%eax
   1fd5b:	89 c6                	mov    %eax,%esi
   1fd5d:	48 8d 3d 45 25 00 00 	lea    0x2545(%rip),%rdi        # 222a9 <g_1206+0x1249>
   1fd64:	b8 00 00 00 00       	mov    $0x0,%eax
   1fd69:	e8 12 d3 fe ff       	callq  d080 <printf@plt>
   1fd6e:	83 45 f0 01          	addl   $0x1,-0x10(%rbp)
   1fd72:	83 7d f0 07          	cmpl   $0x7,-0x10(%rbp)
   1fd76:	7e af                	jle    1fd27 <main+0x413>
   1fd78:	8b 05 02 55 00 00    	mov    0x5502(%rip),%eax        # 25280 <g_895>
   1fd7e:	89 c1                	mov    %eax,%ecx
   1fd80:	8b 45 fc             	mov    -0x4(%rbp),%eax
   1fd83:	89 c2                	mov    %eax,%edx
   1fd85:	48 8d 35 2b 25 00 00 	lea    0x252b(%rip),%rsi        # 222b7 <g_1206+0x1257>
   1fd8c:	48 89 cf             	mov    %rcx,%rdi
   1fd8f:	e8 5f e9 fe ff       	callq  e6f3 <transparent_crc>
   1fd94:	8b 05 ea 54 00 00    	mov    0x54ea(%rip),%eax        # 25284 <g_983>
   1fd9a:	48 98                	cltq   
   1fd9c:	8b 55 fc             	mov    -0x4(%rbp),%edx
   1fd9f:	48 8d 35 17 25 00 00 	lea    0x2517(%rip),%rsi        # 222bd <g_1206+0x125d>
   1fda6:	48 89 c7             	mov    %rax,%rdi
   1fda9:	e8 45 e9 fe ff       	callq  e6f3 <transparent_crc>
   1fdae:	0f b6 05 d3 54 00 00 	movzbl 0x54d3(%rip),%eax        # 25288 <g_1009>
   1fdb5:	48 0f be c0          	movsbq %al,%rax
   1fdb9:	8b 55 fc             	mov    -0x4(%rbp),%edx
   1fdbc:	48 8d 35 00 25 00 00 	lea    0x2500(%rip),%rsi        # 222c3 <g_1206+0x1263>
   1fdc3:	48 89 c7             	mov    %rax,%rdi
   1fdc6:	e8 28 e9 fe ff       	callq  e6f3 <transparent_crc>
   1fdcb:	b8 00 00 00 00       	mov    $0x0,%eax
   1fdd0:	48 89 c1             	mov    %rax,%rcx
   1fdd3:	8b 45 fc             	mov    -0x4(%rbp),%eax
   1fdd6:	89 c2                	mov    %eax,%edx
   1fdd8:	48 8d 35 eb 24 00 00 	lea    0x24eb(%rip),%rsi        # 222ca <g_1206+0x126a>
   1fddf:	48 89 cf             	mov    %rcx,%rdi
   1fde2:	e8 0c e9 fe ff       	callq  e6f3 <transparent_crc>
   1fde7:	8b 05 9f 54 00 00    	mov    0x549f(%rip),%eax        # 2528c <g_1083>
   1fded:	48 98                	cltq   
   1fdef:	8b 55 fc             	mov    -0x4(%rbp),%edx
   1fdf2:	48 8d 35 d8 24 00 00 	lea    0x24d8(%rip),%rsi        # 222d1 <g_1206+0x1271>
   1fdf9:	48 89 c7             	mov    %rax,%rdi
   1fdfc:	e8 f2 e8 fe ff       	callq  e6f3 <transparent_crc>
   1fe01:	c7 45 f0 00 00 00 00 	movl   $0x0,-0x10(%rbp)
   1fe08:	eb 4a                	jmp    1fe54 <main+0x540>
   1fe0a:	8b 45 f0             	mov    -0x10(%rbp),%eax
   1fe0d:	48 98                	cltq   
   1fe0f:	48 8d 14 00          	lea    (%rax,%rax,1),%rdx
   1fe13:	48 8d 05 76 54 00 00 	lea    0x5476(%rip),%rax        # 25290 <g_1084>
   1fe1a:	0f b7 04 02          	movzwl (%rdx,%rax,1),%eax
   1fe1e:	48 0f bf c0          	movswq %ax,%rax
   1fe22:	8b 55 fc             	mov    -0x4(%rbp),%edx
   1fe25:	48 8d 35 ac 24 00 00 	lea    0x24ac(%rip),%rsi        # 222d8 <g_1206+0x1278>
   1fe2c:	48 89 c7             	mov    %rax,%rdi
   1fe2f:	e8 bf e8 fe ff       	callq  e6f3 <transparent_crc>
   1fe34:	83 7d fc 00          	cmpl   $0x0,-0x4(%rbp)
   1fe38:	74 16                	je     1fe50 <main+0x53c>
   1fe3a:	8b 45 f0             	mov    -0x10(%rbp),%eax
   1fe3d:	89 c6                	mov    %eax,%esi
   1fe3f:	48 8d 3d 63 24 00 00 	lea    0x2463(%rip),%rdi        # 222a9 <g_1206+0x1249>
   1fe46:	b8 00 00 00 00       	mov    $0x0,%eax
   1fe4b:	e8 30 d2 fe ff       	callq  d080 <printf@plt>
   1fe50:	83 45 f0 01          	addl   $0x1,-0x10(%rbp)
   1fe54:	83 7d f0 04          	cmpl   $0x4,-0x10(%rbp)
   1fe58:	7e b0                	jle    1fe0a <main+0x4f6>
   1fe5a:	0f b7 05 39 54 00 00 	movzwl 0x5439(%rip),%eax        # 2529a <g_1086>
   1fe61:	0f b7 c0             	movzwl %ax,%eax
   1fe64:	8b 55 fc             	mov    -0x4(%rbp),%edx
   1fe67:	48 8d 35 74 24 00 00 	lea    0x2474(%rip),%rsi        # 222e2 <g_1206+0x1282>
   1fe6e:	48 89 c7             	mov    %rax,%rdi
   1fe71:	e8 7d e8 fe ff       	callq  e6f3 <transparent_crc>
   1fe76:	0f b6 05 1f 54 00 00 	movzbl 0x541f(%rip),%eax        # 2529c <g_1194>
   1fe7d:	48 0f be c0          	movsbq %al,%rax
   1fe81:	8b 55 fc             	mov    -0x4(%rbp),%edx
   1fe84:	48 8d 35 5e 24 00 00 	lea    0x245e(%rip),%rsi        # 222e9 <g_1206+0x1289>
   1fe8b:	48 89 c7             	mov    %rax,%rdi
   1fe8e:	e8 60 e8 fe ff       	callq  e6f3 <transparent_crc>
   1fe93:	b8 01 00 00 00       	mov    $0x1,%eax
   1fe98:	48 89 c1             	mov    %rax,%rcx
   1fe9b:	8b 45 fc             	mov    -0x4(%rbp),%eax
   1fe9e:	89 c2                	mov    %eax,%edx
   1fea0:	48 8d 35 49 24 00 00 	lea    0x2449(%rip),%rsi        # 222f0 <g_1206+0x1290>
   1fea7:	48 89 cf             	mov    %rcx,%rdi
   1feaa:	e8 44 e8 fe ff       	callq  e6f3 <transparent_crc>
   1feaf:	8b 05 eb 53 00 00    	mov    0x53eb(%rip),%eax        # 252a0 <g_1224>
   1feb5:	89 c1                	mov    %eax,%ecx
   1feb7:	8b 45 fc             	mov    -0x4(%rbp),%eax
   1feba:	89 c2                	mov    %eax,%edx
   1febc:	48 8d 35 34 24 00 00 	lea    0x2434(%rip),%rsi        # 222f7 <g_1206+0x1297>
   1fec3:	48 89 cf             	mov    %rcx,%rdi
   1fec6:	e8 28 e8 fe ff       	callq  e6f3 <transparent_crc>
   1fecb:	c7 45 f0 00 00 00 00 	movl   $0x0,-0x10(%rbp)
   1fed2:	eb 4a                	jmp    1ff1e <main+0x60a>
   1fed4:	8b 45 f0             	mov    -0x10(%rbp),%eax
   1fed7:	48 98                	cltq   
   1fed9:	48 8d 14 00          	lea    (%rax,%rax,1),%rdx
   1fedd:	48 8d 05 c0 53 00 00 	lea    0x53c0(%rip),%rax        # 252a4 <g_1438>
   1fee4:	0f b7 04 02          	movzwl (%rdx,%rax,1),%eax
   1fee8:	48 0f bf c0          	movswq %ax,%rax
   1feec:	8b 55 fc             	mov    -0x4(%rbp),%edx
   1feef:	48 8d 35 08 24 00 00 	lea    0x2408(%rip),%rsi        # 222fe <g_1206+0x129e>
   1fef6:	48 89 c7             	mov    %rax,%rdi
   1fef9:	e8 f5 e7 fe ff       	callq  e6f3 <transparent_crc>
   1fefe:	83 7d fc 00          	cmpl   $0x0,-0x4(%rbp)
   1ff02:	74 16                	je     1ff1a <main+0x606>
   1ff04:	8b 45 f0             	mov    -0x10(%rbp),%eax
   1ff07:	89 c6                	mov    %eax,%esi
   1ff09:	48 8d 3d 99 23 00 00 	lea    0x2399(%rip),%rdi        # 222a9 <g_1206+0x1249>
   1ff10:	b8 00 00 00 00       	mov    $0x0,%eax
   1ff15:	e8 66 d1 fe ff       	callq  d080 <printf@plt>
   1ff1a:	83 45 f0 01          	addl   $0x1,-0x10(%rbp)
   1ff1e:	83 7d f0 02          	cmpl   $0x2,-0x10(%rbp)
   1ff22:	7e b0                	jle    1fed4 <main+0x5c0>
   1ff24:	48 8b 05 85 53 00 00 	mov    0x5385(%rip),%rax        # 252b0 <g_1456>
   1ff2b:	8b 55 fc             	mov    -0x4(%rbp),%edx
   1ff2e:	48 8d 35 d3 23 00 00 	lea    0x23d3(%rip),%rsi        # 22308 <g_1206+0x12a8>
   1ff35:	48 89 c7             	mov    %rax,%rdi
   1ff38:	e8 b6 e7 fe ff       	callq  e6f3 <transparent_crc>
   1ff3d:	8b 05 75 a1 00 00    	mov    0xa175(%rip),%eax        # 2a0b8 <g_1506>
   1ff43:	89 c1                	mov    %eax,%ecx
   1ff45:	8b 45 fc             	mov    -0x4(%rbp),%eax
   1ff48:	89 c2                	mov    %eax,%edx
   1ff4a:	48 8d 35 be 23 00 00 	lea    0x23be(%rip),%rsi        # 2230f <g_1206+0x12af>
   1ff51:	48 89 cf             	mov    %rcx,%rdi
   1ff54:	e8 9a e7 fe ff       	callq  e6f3 <transparent_crc>
   1ff59:	0f b7 05 58 53 00 00 	movzwl 0x5358(%rip),%eax        # 252b8 <g_1624>
   1ff60:	0f b7 c0             	movzwl %ax,%eax
   1ff63:	8b 55 fc             	mov    -0x4(%rbp),%edx
   1ff66:	48 8d 35 a9 23 00 00 	lea    0x23a9(%rip),%rsi        # 22316 <g_1206+0x12b6>
   1ff6d:	48 89 c7             	mov    %rax,%rdi
   1ff70:	e8 7e e7 fe ff       	callq  e6f3 <transparent_crc>
   1ff75:	c7 45 f0 00 00 00 00 	movl   $0x0,-0x10(%rbp)
   1ff7c:	eb 4f                	jmp    1ffcd <main+0x6b9>
   1ff7e:	8b 45 f0             	mov    -0x10(%rbp),%eax
   1ff81:	48 98                	cltq   
   1ff83:	48 8d 14 c5 00 00 00 	lea    0x0(,%rax,8),%rdx
   1ff8a:	00 
   1ff8b:	48 8d 05 2e 53 00 00 	lea    0x532e(%rip),%rax        # 252c0 <g_1661>
   1ff92:	48 8b 04 02          	mov    (%rdx,%rax,1),%rax
   1ff96:	48 89 c1             	mov    %rax,%rcx
   1ff99:	8b 45 fc             	mov    -0x4(%rbp),%eax
   1ff9c:	89 c2                	mov    %eax,%edx
   1ff9e:	48 8d 35 78 23 00 00 	lea    0x2378(%rip),%rsi        # 2231d <g_1206+0x12bd>
   1ffa5:	48 89 cf             	mov    %rcx,%rdi
   1ffa8:	e8 46 e7 fe ff       	callq  e6f3 <transparent_crc>
   1ffad:	83 7d fc 00          	cmpl   $0x0,-0x4(%rbp)
   1ffb1:	74 16                	je     1ffc9 <main+0x6b5>
   1ffb3:	8b 45 f0             	mov    -0x10(%rbp),%eax
   1ffb6:	89 c6                	mov    %eax,%esi
   1ffb8:	48 8d 3d ea 22 00 00 	lea    0x22ea(%rip),%rdi        # 222a9 <g_1206+0x1249>
   1ffbf:	b8 00 00 00 00       	mov    $0x0,%eax
   1ffc4:	e8 b7 d0 fe ff       	callq  d080 <printf@plt>
   1ffc9:	83 45 f0 01          	addl   $0x1,-0x10(%rbp)
   1ffcd:	83 7d f0 02          	cmpl   $0x2,-0x10(%rbp)
   1ffd1:	7e ab                	jle    1ff7e <main+0x66a>
   1ffd3:	0f b7 05 fe 52 00 00 	movzwl 0x52fe(%rip),%eax        # 252d8 <g_1688>
   1ffda:	48 0f bf c0          	movswq %ax,%rax
   1ffde:	8b 55 fc             	mov    -0x4(%rbp),%edx
   1ffe1:	48 8d 35 3f 23 00 00 	lea    0x233f(%rip),%rsi        # 22327 <g_1206+0x12c7>
   1ffe8:	48 89 c7             	mov    %rax,%rdi
   1ffeb:	e8 03 e7 fe ff       	callq  e6f3 <transparent_crc>
   1fff0:	8b 05 e6 52 00 00    	mov    0x52e6(%rip),%eax        # 252dc <g_1691>
   1fff6:	89 c1                	mov    %eax,%ecx
   1fff8:	8b 45 fc             	mov    -0x4(%rbp),%eax
   1fffb:	89 c2                	mov    %eax,%edx
   1fffd:	48 8d 35 2a 23 00 00 	lea    0x232a(%rip),%rsi        # 2232e <g_1206+0x12ce>
   20004:	48 89 cf             	mov    %rcx,%rdi
   20007:	e8 e7 e6 fe ff       	callq  e6f3 <transparent_crc>
   2000c:	c7 45 f0 00 00 00 00 	movl   $0x0,-0x10(%rbp)
   20013:	eb 49                	jmp    2005e <main+0x74a>
   20015:	8b 45 f0             	mov    -0x10(%rbp),%eax
   20018:	48 98                	cltq   
   2001a:	48 8d 14 00          	lea    (%rax,%rax,1),%rdx
   2001e:	48 8d 05 bb 52 00 00 	lea    0x52bb(%rip),%rax        # 252e0 <g_1794>
   20025:	0f b7 04 02          	movzwl (%rdx,%rax,1),%eax
   20029:	0f b7 c0             	movzwl %ax,%eax
   2002c:	8b 55 fc             	mov    -0x4(%rbp),%edx
   2002f:	48 8d 35 ff 22 00 00 	lea    0x22ff(%rip),%rsi        # 22335 <g_1206+0x12d5>
   20036:	48 89 c7             	mov    %rax,%rdi
   20039:	e8 b5 e6 fe ff       	callq  e6f3 <transparent_crc>
   2003e:	83 7d fc 00          	cmpl   $0x0,-0x4(%rbp)
   20042:	74 16                	je     2005a <main+0x746>
   20044:	8b 45 f0             	mov    -0x10(%rbp),%eax
   20047:	89 c6                	mov    %eax,%esi
   20049:	48 8d 3d 59 22 00 00 	lea    0x2259(%rip),%rdi        # 222a9 <g_1206+0x1249>
   20050:	b8 00 00 00 00       	mov    $0x0,%eax
   20055:	e8 26 d0 fe ff       	callq  d080 <printf@plt>
   2005a:	83 45 f0 01          	addl   $0x1,-0x10(%rbp)
   2005e:	83 7d f0 07          	cmpl   $0x7,-0x10(%rbp)
   20062:	7e b1                	jle    20015 <main+0x701>
   20064:	48 8b 05 85 52 00 00 	mov    0x5285(%rip),%rax        # 252f0 <g_1848>
   2006b:	48 89 c1             	mov    %rax,%rcx
   2006e:	8b 45 fc             	mov    -0x4(%rbp),%eax
   20071:	89 c2                	mov    %eax,%edx
   20073:	48 8d 35 c5 22 00 00 	lea    0x22c5(%rip),%rsi        # 2233f <g_1206+0x12df>
   2007a:	48 89 cf             	mov    %rcx,%rdi
   2007d:	e8 71 e6 fe ff       	callq  e6f3 <transparent_crc>
   20082:	8b 05 70 52 00 00    	mov    0x5270(%rip),%eax        # 252f8 <g_2039>
   20088:	48 98                	cltq   
   2008a:	8b 55 fc             	mov    -0x4(%rbp),%edx
   2008d:	48 8d 35 b2 22 00 00 	lea    0x22b2(%rip),%rsi        # 22346 <g_1206+0x12e6>
   20094:	48 89 c7             	mov    %rax,%rdi
   20097:	e8 57 e6 fe ff       	callq  e6f3 <transparent_crc>
   2009c:	8b 05 5a 52 00 00    	mov    0x525a(%rip),%eax        # 252fc <g_2132>
   200a2:	48 98                	cltq   
   200a4:	8b 55 fc             	mov    -0x4(%rbp),%edx
   200a7:	48 8d 35 9f 22 00 00 	lea    0x229f(%rip),%rsi        # 2234d <g_1206+0x12ed>
   200ae:	48 89 c7             	mov    %rax,%rdi
   200b1:	e8 3d e6 fe ff       	callq  e6f3 <transparent_crc>
   200b6:	8b 05 44 52 00 00    	mov    0x5244(%rip),%eax        # 25300 <g_2185>
   200bc:	89 c1                	mov    %eax,%ecx
   200be:	8b 45 fc             	mov    -0x4(%rbp),%eax
   200c1:	89 c2                	mov    %eax,%edx
   200c3:	48 8d 35 8a 22 00 00 	lea    0x228a(%rip),%rsi        # 22354 <g_1206+0x12f4>
   200ca:	48 89 cf             	mov    %rcx,%rdi
   200cd:	e8 21 e6 fe ff       	callq  e6f3 <transparent_crc>
   200d2:	0f b6 05 2b 52 00 00 	movzbl 0x522b(%rip),%eax        # 25304 <g_2344>
   200d9:	48 0f be c0          	movsbq %al,%rax
   200dd:	8b 55 fc             	mov    -0x4(%rbp),%edx
   200e0:	48 8d 35 74 22 00 00 	lea    0x2274(%rip),%rsi        # 2235b <g_1206+0x12fb>
   200e7:	48 89 c7             	mov    %rax,%rdi
   200ea:	e8 04 e6 fe ff       	callq  e6f3 <transparent_crc>
   200ef:	0f b6 05 0f 52 00 00 	movzbl 0x520f(%rip),%eax        # 25305 <g_2347>
   200f6:	0f b6 c0             	movzbl %al,%eax
   200f9:	8b 55 fc             	mov    -0x4(%rbp),%edx
   200fc:	48 8d 35 5f 22 00 00 	lea    0x225f(%rip),%rsi        # 22362 <g_1206+0x1302>
   20103:	48 89 c7             	mov    %rax,%rdi
   20106:	e8 e8 e5 fe ff       	callq  e6f3 <transparent_crc>
   2010b:	48 8b 05 f6 51 00 00 	mov    0x51f6(%rip),%rax        # 25308 <g_2409>
   20112:	8b 55 fc             	mov    -0x4(%rbp),%edx
   20115:	48 8d 35 4d 22 00 00 	lea    0x224d(%rip),%rsi        # 22369 <g_1206+0x1309>
   2011c:	48 89 c7             	mov    %rax,%rdi
   2011f:	e8 cf e5 fe ff       	callq  e6f3 <transparent_crc>
   20124:	48 8b 05 e5 51 00 00 	mov    0x51e5(%rip),%rax        # 25310 <g_2766>
   2012b:	48 89 c1             	mov    %rax,%rcx
   2012e:	8b 45 fc             	mov    -0x4(%rbp),%eax
   20131:	89 c2                	mov    %eax,%edx
   20133:	48 8d 35 36 22 00 00 	lea    0x2236(%rip),%rsi        # 22370 <g_1206+0x1310>
   2013a:	48 89 cf             	mov    %rcx,%rdi
   2013d:	e8 b1 e5 fe ff       	callq  e6f3 <transparent_crc>
   20142:	8b 05 d0 51 00 00    	mov    0x51d0(%rip),%eax        # 25318 <g_2806>
   20148:	48 98                	cltq   
   2014a:	8b 55 fc             	mov    -0x4(%rbp),%edx
   2014d:	48 8d 35 23 22 00 00 	lea    0x2223(%rip),%rsi        # 22377 <g_1206+0x1317>
   20154:	48 89 c7             	mov    %rax,%rdi
   20157:	e8 97 e5 fe ff       	callq  e6f3 <transparent_crc>
   2015c:	8b 05 ba 51 00 00    	mov    0x51ba(%rip),%eax        # 2531c <g_2809>
   20162:	48 98                	cltq   
   20164:	8b 55 fc             	mov    -0x4(%rbp),%edx
   20167:	48 8d 35 10 22 00 00 	lea    0x2210(%rip),%rsi        # 2237e <g_1206+0x131e>
   2016e:	48 89 c7             	mov    %rax,%rdi
   20171:	e8 7d e5 fe ff       	callq  e6f3 <transparent_crc>
   20176:	c7 45 f0 00 00 00 00 	movl   $0x0,-0x10(%rbp)
   2017d:	eb 46                	jmp    201c5 <main+0x8b1>
   2017f:	8b 45 f0             	mov    -0x10(%rbp),%eax
   20182:	48 98                	cltq   
   20184:	48 8d 15 95 51 00 00 	lea    0x5195(%rip),%rdx        # 25320 <g_2820>
   2018b:	0f b6 04 10          	movzbl (%rax,%rdx,1),%eax
   2018f:	48 0f be c0          	movsbq %al,%rax
   20193:	8b 55 fc             	mov    -0x4(%rbp),%edx
   20196:	48 8d 35 e8 21 00 00 	lea    0x21e8(%rip),%rsi        # 22385 <g_1206+0x1325>
   2019d:	48 89 c7             	mov    %rax,%rdi
   201a0:	e8 4e e5 fe ff       	callq  e6f3 <transparent_crc>
   201a5:	83 7d fc 00          	cmpl   $0x0,-0x4(%rbp)
   201a9:	74 16                	je     201c1 <main+0x8ad>
   201ab:	8b 45 f0             	mov    -0x10(%rbp),%eax
   201ae:	89 c6                	mov    %eax,%esi
   201b0:	48 8d 3d f2 20 00 00 	lea    0x20f2(%rip),%rdi        # 222a9 <g_1206+0x1249>
   201b7:	b8 00 00 00 00       	mov    $0x0,%eax
   201bc:	e8 bf ce fe ff       	callq  d080 <printf@plt>
   201c1:	83 45 f0 01          	addl   $0x1,-0x10(%rbp)
   201c5:	83 7d f0 02          	cmpl   $0x2,-0x10(%rbp)
   201c9:	7e b4                	jle    2017f <main+0x86b>
   201cb:	0f b6 05 51 51 00 00 	movzbl 0x5151(%rip),%eax        # 25323 <g_2821>
   201d2:	48 0f be c0          	movsbq %al,%rax
   201d6:	8b 55 fc             	mov    -0x4(%rbp),%edx
   201d9:	48 8d 35 af 21 00 00 	lea    0x21af(%rip),%rsi        # 2238f <g_1206+0x132f>
   201e0:	48 89 c7             	mov    %rax,%rdi
   201e3:	e8 0b e5 fe ff       	callq  e6f3 <transparent_crc>
   201e8:	0f b6 05 35 51 00 00 	movzbl 0x5135(%rip),%eax        # 25324 <g_2829>
   201ef:	48 0f be c0          	movsbq %al,%rax
   201f3:	8b 55 fc             	mov    -0x4(%rbp),%edx
   201f6:	48 8d 35 99 21 00 00 	lea    0x2199(%rip),%rsi        # 22396 <g_1206+0x1336>
   201fd:	48 89 c7             	mov    %rax,%rdi
   20200:	e8 ee e4 fe ff       	callq  e6f3 <transparent_crc>
   20205:	48 8b 05 1c 51 00 00 	mov    0x511c(%rip),%rax        # 25328 <g_2964>
   2020c:	48 89 c1             	mov    %rax,%rcx
   2020f:	8b 45 fc             	mov    -0x4(%rbp),%eax
   20212:	89 c2                	mov    %eax,%edx
   20214:	48 8d 35 82 21 00 00 	lea    0x2182(%rip),%rsi        # 2239d <g_1206+0x133d>
   2021b:	48 89 cf             	mov    %rcx,%rdi
   2021e:	e8 d0 e4 fe ff       	callq  e6f3 <transparent_crc>
   20223:	8b 05 07 51 00 00    	mov    0x5107(%rip),%eax        # 25330 <g_3009>
   20229:	89 c1                	mov    %eax,%ecx
   2022b:	8b 45 fc             	mov    -0x4(%rbp),%eax
   2022e:	89 c2                	mov    %eax,%edx
   20230:	48 8d 35 6d 21 00 00 	lea    0x216d(%rip),%rsi        # 223a4 <g_1206+0x1344>
   20237:	48 89 cf             	mov    %rcx,%rdi
   2023a:	e8 b4 e4 fe ff       	callq  e6f3 <transparent_crc>
   2023f:	c7 45 f0 00 00 00 00 	movl   $0x0,-0x10(%rbp)
   20246:	e9 9c 00 00 00       	jmpq   202e7 <main+0x9d3>
   2024b:	c7 45 f4 00 00 00 00 	movl   $0x0,-0xc(%rbp)
   20252:	e9 82 00 00 00       	jmpq   202d9 <main+0x9c5>
   20257:	c7 45 f8 00 00 00 00 	movl   $0x0,-0x8(%rbp)
   2025e:	eb 6f                	jmp    202cf <main+0x9bb>
   20260:	8b 45 f8             	mov    -0x8(%rbp),%eax
   20263:	48 63 f0             	movslq %eax,%rsi
   20266:	8b 45 f4             	mov    -0xc(%rbp),%eax
   20269:	48 63 c8             	movslq %eax,%rcx
   2026c:	8b 45 f0             	mov    -0x10(%rbp),%eax
   2026f:	48 63 d0             	movslq %eax,%rdx
   20272:	48 89 d0             	mov    %rdx,%rax
   20275:	48 c1 e0 02          	shl    $0x2,%rax
   20279:	48 01 d0             	add    %rdx,%rax
   2027c:	48 01 c0             	add    %rax,%rax
   2027f:	48 01 f0             	add    %rsi,%rax
   20282:	48 01 c8             	add    %rcx,%rax
   20285:	48 8d 14 00          	lea    (%rax,%rax,1),%rdx
   20289:	48 8d 05 b0 50 00 00 	lea    0x50b0(%rip),%rax        # 25340 <g_3115>
   20290:	0f b7 04 02          	movzwl (%rdx,%rax,1),%eax
   20294:	0f b7 c0             	movzwl %ax,%eax
   20297:	8b 55 fc             	mov    -0x4(%rbp),%edx
   2029a:	48 8d 35 0a 21 00 00 	lea    0x210a(%rip),%rsi        # 223ab <g_1206+0x134b>
   202a1:	48 89 c7             	mov    %rax,%rdi
   202a4:	e8 4a e4 fe ff       	callq  e6f3 <transparent_crc>
   202a9:	83 7d fc 00          	cmpl   $0x0,-0x4(%rbp)
   202ad:	74 1c                	je     202cb <main+0x9b7>
   202af:	8b 4d f8             	mov    -0x8(%rbp),%ecx
   202b2:	8b 55 f4             	mov    -0xc(%rbp),%edx
   202b5:	8b 45 f0             	mov    -0x10(%rbp),%eax
   202b8:	89 c6                	mov    %eax,%esi
   202ba:	48 8d 3d 39 1f 00 00 	lea    0x1f39(%rip),%rdi        # 221fa <g_1206+0x119a>
   202c1:	b8 00 00 00 00       	mov    $0x0,%eax
   202c6:	e8 b5 cd fe ff       	callq  d080 <printf@plt>
   202cb:	83 45 f8 01          	addl   $0x1,-0x8(%rbp)
   202cf:	83 7d f8 00          	cmpl   $0x0,-0x8(%rbp)
   202d3:	7e 8b                	jle    20260 <main+0x94c>
   202d5:	83 45 f4 01          	addl   $0x1,-0xc(%rbp)
   202d9:	83 7d f4 09          	cmpl   $0x9,-0xc(%rbp)
   202dd:	0f 8e 74 ff ff ff    	jle    20257 <main+0x943>
   202e3:	83 45 f0 01          	addl   $0x1,-0x10(%rbp)
   202e7:	83 7d f0 06          	cmpl   $0x6,-0x10(%rbp)
   202eb:	0f 8e 5a ff ff ff    	jle    2024b <main+0x937>
   202f1:	8b 05 d5 50 00 00    	mov    0x50d5(%rip),%eax        # 253cc <g_3117>
   202f7:	48 98                	cltq   
   202f9:	8b 55 fc             	mov    -0x4(%rbp),%edx
   202fc:	48 8d 35 b8 20 00 00 	lea    0x20b8(%rip),%rsi        # 223bb <g_1206+0x135b>
   20303:	48 89 c7             	mov    %rax,%rdi
   20306:	e8 e8 e3 fe ff       	callq  e6f3 <transparent_crc>
   2030b:	8b 05 bf 9d 00 00    	mov    0x9dbf(%rip),%eax        # 2a0d0 <g_3126>
   20311:	48 98                	cltq   
   20313:	8b 55 fc             	mov    -0x4(%rbp),%edx
   20316:	48 8d 35 a5 20 00 00 	lea    0x20a5(%rip),%rsi        # 223c2 <g_1206+0x1362>
   2031d:	48 89 c7             	mov    %rax,%rdi
   20320:	e8 ce e3 fe ff       	callq  e6f3 <transparent_crc>
   20325:	8b 05 f5 4c 00 00    	mov    0x4cf5(%rip),%eax        # 25020 <crc32_context>
   2032b:	f7 d0                	not    %eax
   2032d:	89 c2                	mov    %eax,%edx
   2032f:	8b 45 fc             	mov    -0x4(%rbp),%eax
   20332:	89 c6                	mov    %eax,%esi
   20334:	89 d7                	mov    %edx,%edi
   20336:	e8 59 ce fe ff       	callq  d194 <platform_main_end>
   2033b:	b8 00 00 00 00       	mov    $0x0,%eax
   20340:	c9                   	leaveq 
   20341:	c3                   	retq   
   20342:	66 2e 0f 1f 84 00 00 	nopw   %cs:0x0(%rax,%rax,1)
   20349:	00 00 00 
   2034c:	0f 1f 40 00          	nopl   0x0(%rax)

0000000000020350 <__libc_csu_init>:
   20350:	f3 0f 1e fa          	endbr64 
   20354:	41 57                	push   %r15
   20356:	4c 8d 3d 43 4a 00 00 	lea    0x4a43(%rip),%r15        # 24da0 <__frame_dummy_init_array_entry>
   2035d:	41 56                	push   %r14
   2035f:	49 89 d6             	mov    %rdx,%r14
   20362:	41 55                	push   %r13
   20364:	49 89 f5             	mov    %rsi,%r13
   20367:	41 54                	push   %r12
   20369:	41 89 fc             	mov    %edi,%r12d
   2036c:	55                   	push   %rbp
   2036d:	48 8d 2d 34 4a 00 00 	lea    0x4a34(%rip),%rbp        # 24da8 <__do_global_dtors_aux_fini_array_entry>
   20374:	53                   	push   %rbx
   20375:	4c 29 fd             	sub    %r15,%rbp
   20378:	48 83 ec 08          	sub    $0x8,%rsp
   2037c:	e8 7f cc fe ff       	callq  d000 <_init>
   20381:	48 c1 fd 03          	sar    $0x3,%rbp
   20385:	74 1f                	je     203a6 <__libc_csu_init+0x56>
   20387:	31 db                	xor    %ebx,%ebx
   20389:	0f 1f 80 00 00 00 00 	nopl   0x0(%rax)
   20390:	4c 89 f2             	mov    %r14,%rdx
   20393:	4c 89 ee             	mov    %r13,%rsi
   20396:	44 89 e7             	mov    %r12d,%edi
   20399:	41 ff 14 df          	callq  *(%r15,%rbx,8)
   2039d:	48 83 c3 01          	add    $0x1,%rbx
   203a1:	48 39 dd             	cmp    %rbx,%rbp
   203a4:	75 ea                	jne    20390 <__libc_csu_init+0x40>
   203a6:	48 83 c4 08          	add    $0x8,%rsp
   203aa:	5b                   	pop    %rbx
   203ab:	5d                   	pop    %rbp
   203ac:	41 5c                	pop    %r12
   203ae:	41 5d                	pop    %r13
   203b0:	41 5e                	pop    %r14
   203b2:	41 5f                	pop    %r15
   203b4:	c3                   	retq   
   203b5:	66 66 2e 0f 1f 84 00 	data16 nopw %cs:0x0(%rax,%rax,1)
   203bc:	00 00 00 00 

00000000000203c0 <__libc_csu_fini>:
   203c0:	f3 0f 1e fa          	endbr64 
   203c4:	c3                   	retq   
