


Disassembly of section .text:

000000000000b0a0 <_start>:
    b0a0:	f3 0f 1e fa          	endbr64 
    b0a4:	31 ed                	xor    %ebp,%ebp
    b0a6:	49 89 d1             	mov    %rdx,%r9
    b0a9:	5e                   	pop    %rsi
    b0aa:	48 89 e2             	mov    %rsp,%rdx
    b0ad:	48 83 e4 f0          	and    $0xfffffffffffffff0,%rsp
    b0b1:	50                   	push   %rax
    b0b2:	54                   	push   %rsp
    b0b3:	4c 8d 05 66 33 01 00 	lea    0x13366(%rip),%r8        # 1e420 <__libc_csu_fini>
    b0ba:	48 8d 0d ef 32 01 00 	lea    0x132ef(%rip),%rcx        # 1e3b0 <__libc_csu_init>
    b0c1:	48 8d 3d a7 26 01 00 	lea    0x126a7(%rip),%rdi        # 1d76f <main>
    b0c8:	ff 15 12 9f 01 00    	callq  *0x19f12(%rip)        # 24fe0 <__libc_start_main@GLIBC_2.2.5>
    b0ce:	f4                   	hlt    
    b0cf:	90                   	nop

000000000000b0d0 <deregister_tm_clones>:
    b0d0:	48 8d 3d e9 f8 01 00 	lea    0x1f8e9(%rip),%rdi        # 2a9c0 <__TMC_END__>
    b0d7:	48 8d 05 e2 f8 01 00 	lea    0x1f8e2(%rip),%rax        # 2a9c0 <__TMC_END__>
    b0de:	48 39 f8             	cmp    %rdi,%rax
    b0e1:	74 15                	je     b0f8 <deregister_tm_clones+0x28>
    b0e3:	48 8b 05 ee 9e 01 00 	mov    0x19eee(%rip),%rax        # 24fd8 <_ITM_deregisterTMCloneTable>
    b0ea:	48 85 c0             	test   %rax,%rax
    b0ed:	74 09                	je     b0f8 <deregister_tm_clones+0x28>
    b0ef:	ff e0                	jmpq   *%rax
    b0f1:	0f 1f 80 00 00 00 00 	nopl   0x0(%rax)
    b0f8:	c3                   	retq   
    b0f9:	0f 1f 80 00 00 00 00 	nopl   0x0(%rax)

000000000000b100 <register_tm_clones>:
    b100:	48 8d 3d b9 f8 01 00 	lea    0x1f8b9(%rip),%rdi        # 2a9c0 <__TMC_END__>
    b107:	48 8d 35 b2 f8 01 00 	lea    0x1f8b2(%rip),%rsi        # 2a9c0 <__TMC_END__>
    b10e:	48 29 fe             	sub    %rdi,%rsi
    b111:	48 89 f0             	mov    %rsi,%rax
    b114:	48 c1 ee 3f          	shr    $0x3f,%rsi
    b118:	48 c1 f8 03          	sar    $0x3,%rax
    b11c:	48 01 c6             	add    %rax,%rsi
    b11f:	48 d1 fe             	sar    %rsi
    b122:	74 14                	je     b138 <register_tm_clones+0x38>
    b124:	48 8b 05 c5 9e 01 00 	mov    0x19ec5(%rip),%rax        # 24ff0 <_ITM_registerTMCloneTable>
    b12b:	48 85 c0             	test   %rax,%rax
    b12e:	74 08                	je     b138 <register_tm_clones+0x38>
    b130:	ff e0                	jmpq   *%rax
    b132:	66 0f 1f 44 00 00    	nopw   0x0(%rax,%rax,1)
    b138:	c3                   	retq   
    b139:	0f 1f 80 00 00 00 00 	nopl   0x0(%rax)

000000000000b140 <__do_global_dtors_aux>:
    b140:	f3 0f 1e fa          	endbr64 
    b144:	80 3d 75 f8 01 00 00 	cmpb   $0x0,0x1f875(%rip)        # 2a9c0 <__TMC_END__>
    b14b:	75 2b                	jne    b178 <__do_global_dtors_aux+0x38>
    b14d:	55                   	push   %rbp
    b14e:	48 83 3d a2 9e 01 00 	cmpq   $0x0,0x19ea2(%rip)        # 24ff8 <__cxa_finalize@GLIBC_2.2.5>
    b155:	00 
    b156:	48 89 e5             	mov    %rsp,%rbp
    b159:	74 0c                	je     b167 <__do_global_dtors_aux+0x27>
    b15b:	48 8b 3d a6 9e 01 00 	mov    0x19ea6(%rip),%rdi        # 25008 <__dso_handle>
    b162:	e8 f9 fe ff ff       	callq  b060 <__cxa_finalize@plt>
    b167:	e8 64 ff ff ff       	callq  b0d0 <deregister_tm_clones>
    b16c:	c6 05 4d f8 01 00 01 	movb   $0x1,0x1f84d(%rip)        # 2a9c0 <__TMC_END__>
    b173:	5d                   	pop    %rbp
    b174:	c3                   	retq   
    b175:	0f 1f 00             	nopl   (%rax)
    b178:	c3                   	retq   
    b179:	0f 1f 80 00 00 00 00 	nopl   0x0(%rax)

000000000000b180 <frame_dummy>:
    b180:	f3 0f 1e fa          	endbr64 
    b184:	e9 77 ff ff ff       	jmpq   b100 <register_tm_clones>

000000000000b189 <platform_main_begin>:
    b189:	f3 0f 1e fa          	endbr64 
    b18d:	55                   	push   %rbp
    b18e:	48 89 e5             	mov    %rsp,%rbp
    b191:	90                   	nop
    b192:	5d                   	pop    %rbp
    b193:	c3                   	retq   

000000000000b194 <platform_main_end>:
    b194:	f3 0f 1e fa          	endbr64 
    b198:	55                   	push   %rbp
    b199:	48 89 e5             	mov    %rsp,%rbp
    b19c:	48 83 ec 10          	sub    $0x10,%rsp
    b1a0:	89 7d fc             	mov    %edi,-0x4(%rbp)
    b1a3:	89 75 f8             	mov    %esi,-0x8(%rbp)
    b1a6:	8b 45 fc             	mov    -0x4(%rbp),%eax
    b1a9:	89 c6                	mov    %eax,%esi
    b1ab:	48 8d 3d 6e 3e 01 00 	lea    0x13e6e(%rip),%rdi        # 1f020 <_IO_stdin_used+0x20>
    b1b2:	b8 00 00 00 00       	mov    $0x0,%eax
    b1b7:	e8 c4 fe ff ff       	callq  b080 <printf@plt>
    b1bc:	90                   	nop
    b1bd:	c9                   	leaveq 
    b1be:	c3                   	retq   

000000000000b1bf <safe_unary_minus_func_int8_t_s>:
    b1bf:	f3 0f 1e fa          	endbr64 
    b1c3:	55                   	push   %rbp
    b1c4:	48 89 e5             	mov    %rsp,%rbp
    b1c7:	89 f8                	mov    %edi,%eax
    b1c9:	88 45 fc             	mov    %al,-0x4(%rbp)
    b1cc:	0f b6 45 fc          	movzbl -0x4(%rbp),%eax
    b1d0:	f7 d8                	neg    %eax
    b1d2:	5d                   	pop    %rbp
    b1d3:	c3                   	retq   

000000000000b1d4 <safe_add_func_int8_t_s_s>:
    b1d4:	f3 0f 1e fa          	endbr64 
    b1d8:	55                   	push   %rbp
    b1d9:	48 89 e5             	mov    %rsp,%rbp
    b1dc:	89 fa                	mov    %edi,%edx
    b1de:	89 f0                	mov    %esi,%eax
    b1e0:	88 55 fc             	mov    %dl,-0x4(%rbp)
    b1e3:	88 45 f8             	mov    %al,-0x8(%rbp)
    b1e6:	0f b6 55 fc          	movzbl -0x4(%rbp),%edx
    b1ea:	0f b6 45 f8          	movzbl -0x8(%rbp),%eax
    b1ee:	01 d0                	add    %edx,%eax
    b1f0:	5d                   	pop    %rbp
    b1f1:	c3                   	retq   

000000000000b1f2 <safe_sub_func_int8_t_s_s>:
    b1f2:	f3 0f 1e fa          	endbr64 
    b1f6:	55                   	push   %rbp
    b1f7:	48 89 e5             	mov    %rsp,%rbp
    b1fa:	89 fa                	mov    %edi,%edx
    b1fc:	89 f0                	mov    %esi,%eax
    b1fe:	88 55 fc             	mov    %dl,-0x4(%rbp)
    b201:	88 45 f8             	mov    %al,-0x8(%rbp)
    b204:	0f b6 55 fc          	movzbl -0x4(%rbp),%edx
    b208:	0f b6 45 f8          	movzbl -0x8(%rbp),%eax
    b20c:	29 c2                	sub    %eax,%edx
    b20e:	89 d0                	mov    %edx,%eax
    b210:	5d                   	pop    %rbp
    b211:	c3                   	retq   

000000000000b212 <safe_mul_func_int8_t_s_s>:
    b212:	f3 0f 1e fa          	endbr64 
    b216:	55                   	push   %rbp
    b217:	48 89 e5             	mov    %rsp,%rbp
    b21a:	89 fa                	mov    %edi,%edx
    b21c:	89 f0                	mov    %esi,%eax
    b21e:	88 55 fc             	mov    %dl,-0x4(%rbp)
    b221:	88 45 f8             	mov    %al,-0x8(%rbp)
    b224:	0f b6 45 fc          	movzbl -0x4(%rbp),%eax
    b228:	0f b6 55 f8          	movzbl -0x8(%rbp),%edx
    b22c:	0f af c2             	imul   %edx,%eax
    b22f:	5d                   	pop    %rbp
    b230:	c3                   	retq   

000000000000b231 <safe_mod_func_int8_t_s_s>:
    b231:	f3 0f 1e fa          	endbr64 
    b235:	55                   	push   %rbp
    b236:	48 89 e5             	mov    %rsp,%rbp
    b239:	89 fa                	mov    %edi,%edx
    b23b:	89 f0                	mov    %esi,%eax
    b23d:	88 55 fc             	mov    %dl,-0x4(%rbp)
    b240:	88 45 f8             	mov    %al,-0x8(%rbp)
    b243:	80 7d f8 00          	cmpb   $0x0,-0x8(%rbp)
    b247:	74 1b                	je     b264 <safe_mod_func_int8_t_s_s+0x33>
    b249:	80 7d fc 80          	cmpb   $0x80,-0x4(%rbp)
    b24d:	75 06                	jne    b255 <safe_mod_func_int8_t_s_s+0x24>
    b24f:	80 7d f8 ff          	cmpb   $0xff,-0x8(%rbp)
    b253:	74 0f                	je     b264 <safe_mod_func_int8_t_s_s+0x33>
    b255:	0f be 45 fc          	movsbl -0x4(%rbp),%eax
    b259:	0f be 4d f8          	movsbl -0x8(%rbp),%ecx
    b25d:	99                   	cltd   
    b25e:	f7 f9                	idiv   %ecx
    b260:	89 d0                	mov    %edx,%eax
    b262:	eb 04                	jmp    b268 <safe_mod_func_int8_t_s_s+0x37>
    b264:	0f b6 45 fc          	movzbl -0x4(%rbp),%eax
    b268:	5d                   	pop    %rbp
    b269:	c3                   	retq   

000000000000b26a <safe_div_func_int8_t_s_s>:
    b26a:	f3 0f 1e fa          	endbr64 
    b26e:	55                   	push   %rbp
    b26f:	48 89 e5             	mov    %rsp,%rbp
    b272:	89 fa                	mov    %edi,%edx
    b274:	89 f0                	mov    %esi,%eax
    b276:	88 55 fc             	mov    %dl,-0x4(%rbp)
    b279:	88 45 f8             	mov    %al,-0x8(%rbp)
    b27c:	80 7d f8 00          	cmpb   $0x0,-0x8(%rbp)
    b280:	74 19                	je     b29b <safe_div_func_int8_t_s_s+0x31>
    b282:	80 7d fc 80          	cmpb   $0x80,-0x4(%rbp)
    b286:	75 06                	jne    b28e <safe_div_func_int8_t_s_s+0x24>
    b288:	80 7d f8 ff          	cmpb   $0xff,-0x8(%rbp)
    b28c:	74 0d                	je     b29b <safe_div_func_int8_t_s_s+0x31>
    b28e:	0f be 45 fc          	movsbl -0x4(%rbp),%eax
    b292:	0f be 4d f8          	movsbl -0x8(%rbp),%ecx
    b296:	99                   	cltd   
    b297:	f7 f9                	idiv   %ecx
    b299:	eb 04                	jmp    b29f <safe_div_func_int8_t_s_s+0x35>
    b29b:	0f b6 45 fc          	movzbl -0x4(%rbp),%eax
    b29f:	5d                   	pop    %rbp
    b2a0:	c3                   	retq   

000000000000b2a1 <safe_lshift_func_int8_t_s_s>:
    b2a1:	f3 0f 1e fa          	endbr64 
    b2a5:	55                   	push   %rbp
    b2a6:	48 89 e5             	mov    %rsp,%rbp
    b2a9:	89 f8                	mov    %edi,%eax
    b2ab:	89 75 f8             	mov    %esi,-0x8(%rbp)
    b2ae:	88 45 fc             	mov    %al,-0x4(%rbp)
    b2b1:	80 7d fc 00          	cmpb   $0x0,-0x4(%rbp)
    b2b5:	78 31                	js     b2e8 <safe_lshift_func_int8_t_s_s+0x47>
    b2b7:	83 7d f8 00          	cmpl   $0x0,-0x8(%rbp)
    b2bb:	78 2b                	js     b2e8 <safe_lshift_func_int8_t_s_s+0x47>
    b2bd:	83 7d f8 1f          	cmpl   $0x1f,-0x8(%rbp)
    b2c1:	7f 25                	jg     b2e8 <safe_lshift_func_int8_t_s_s+0x47>
    b2c3:	0f be 55 fc          	movsbl -0x4(%rbp),%edx
    b2c7:	8b 45 f8             	mov    -0x8(%rbp),%eax
    b2ca:	be 7f 00 00 00       	mov    $0x7f,%esi
    b2cf:	89 c1                	mov    %eax,%ecx
    b2d1:	d3 fe                	sar    %cl,%esi
    b2d3:	89 f0                	mov    %esi,%eax
    b2d5:	39 c2                	cmp    %eax,%edx
    b2d7:	7f 0f                	jg     b2e8 <safe_lshift_func_int8_t_s_s+0x47>
    b2d9:	0f be 55 fc          	movsbl -0x4(%rbp),%edx
    b2dd:	8b 45 f8             	mov    -0x8(%rbp),%eax
    b2e0:	89 c1                	mov    %eax,%ecx
    b2e2:	d3 e2                	shl    %cl,%edx
    b2e4:	89 d0                	mov    %edx,%eax
    b2e6:	eb 04                	jmp    b2ec <safe_lshift_func_int8_t_s_s+0x4b>
    b2e8:	0f b6 45 fc          	movzbl -0x4(%rbp),%eax
    b2ec:	5d                   	pop    %rbp
    b2ed:	c3                   	retq   

000000000000b2ee <safe_lshift_func_int8_t_s_u>:
    b2ee:	f3 0f 1e fa          	endbr64 
    b2f2:	55                   	push   %rbp
    b2f3:	48 89 e5             	mov    %rsp,%rbp
    b2f6:	89 f8                	mov    %edi,%eax
    b2f8:	89 75 f8             	mov    %esi,-0x8(%rbp)
    b2fb:	88 45 fc             	mov    %al,-0x4(%rbp)
    b2fe:	80 7d fc 00          	cmpb   $0x0,-0x4(%rbp)
    b302:	78 2b                	js     b32f <safe_lshift_func_int8_t_s_u+0x41>
    b304:	83 7d f8 1f          	cmpl   $0x1f,-0x8(%rbp)
    b308:	77 25                	ja     b32f <safe_lshift_func_int8_t_s_u+0x41>
    b30a:	0f be 55 fc          	movsbl -0x4(%rbp),%edx
    b30e:	8b 45 f8             	mov    -0x8(%rbp),%eax
    b311:	be 7f 00 00 00       	mov    $0x7f,%esi
    b316:	89 c1                	mov    %eax,%ecx
    b318:	d3 fe                	sar    %cl,%esi
    b31a:	89 f0                	mov    %esi,%eax
    b31c:	39 c2                	cmp    %eax,%edx
    b31e:	7f 0f                	jg     b32f <safe_lshift_func_int8_t_s_u+0x41>
    b320:	0f be 55 fc          	movsbl -0x4(%rbp),%edx
    b324:	8b 45 f8             	mov    -0x8(%rbp),%eax
    b327:	89 c1                	mov    %eax,%ecx
    b329:	d3 e2                	shl    %cl,%edx
    b32b:	89 d0                	mov    %edx,%eax
    b32d:	eb 04                	jmp    b333 <safe_lshift_func_int8_t_s_u+0x45>
    b32f:	0f b6 45 fc          	movzbl -0x4(%rbp),%eax
    b333:	5d                   	pop    %rbp
    b334:	c3                   	retq   

000000000000b335 <safe_rshift_func_int8_t_s_s>:
    b335:	f3 0f 1e fa          	endbr64 
    b339:	55                   	push   %rbp
    b33a:	48 89 e5             	mov    %rsp,%rbp
    b33d:	89 f8                	mov    %edi,%eax
    b33f:	89 75 f8             	mov    %esi,-0x8(%rbp)
    b342:	88 45 fc             	mov    %al,-0x4(%rbp)
    b345:	80 7d fc 00          	cmpb   $0x0,-0x4(%rbp)
    b349:	78 1b                	js     b366 <safe_rshift_func_int8_t_s_s+0x31>
    b34b:	83 7d f8 00          	cmpl   $0x0,-0x8(%rbp)
    b34f:	78 15                	js     b366 <safe_rshift_func_int8_t_s_s+0x31>
    b351:	83 7d f8 1f          	cmpl   $0x1f,-0x8(%rbp)
    b355:	7f 0f                	jg     b366 <safe_rshift_func_int8_t_s_s+0x31>
    b357:	0f be 55 fc          	movsbl -0x4(%rbp),%edx
    b35b:	8b 45 f8             	mov    -0x8(%rbp),%eax
    b35e:	89 c1                	mov    %eax,%ecx
    b360:	d3 fa                	sar    %cl,%edx
    b362:	89 d0                	mov    %edx,%eax
    b364:	eb 04                	jmp    b36a <safe_rshift_func_int8_t_s_s+0x35>
    b366:	0f b6 45 fc          	movzbl -0x4(%rbp),%eax
    b36a:	5d                   	pop    %rbp
    b36b:	c3                   	retq   

000000000000b36c <safe_rshift_func_int8_t_s_u>:
    b36c:	f3 0f 1e fa          	endbr64 
    b370:	55                   	push   %rbp
    b371:	48 89 e5             	mov    %rsp,%rbp
    b374:	89 f8                	mov    %edi,%eax
    b376:	89 75 f8             	mov    %esi,-0x8(%rbp)
    b379:	88 45 fc             	mov    %al,-0x4(%rbp)
    b37c:	80 7d fc 00          	cmpb   $0x0,-0x4(%rbp)
    b380:	78 15                	js     b397 <safe_rshift_func_int8_t_s_u+0x2b>
    b382:	83 7d f8 1f          	cmpl   $0x1f,-0x8(%rbp)
    b386:	77 0f                	ja     b397 <safe_rshift_func_int8_t_s_u+0x2b>
    b388:	0f be 55 fc          	movsbl -0x4(%rbp),%edx
    b38c:	8b 45 f8             	mov    -0x8(%rbp),%eax
    b38f:	89 c1                	mov    %eax,%ecx
    b391:	d3 fa                	sar    %cl,%edx
    b393:	89 d0                	mov    %edx,%eax
    b395:	eb 04                	jmp    b39b <safe_rshift_func_int8_t_s_u+0x2f>
    b397:	0f b6 45 fc          	movzbl -0x4(%rbp),%eax
    b39b:	5d                   	pop    %rbp
    b39c:	c3                   	retq   

000000000000b39d <safe_unary_minus_func_int16_t_s>:
    b39d:	f3 0f 1e fa          	endbr64 
    b3a1:	55                   	push   %rbp
    b3a2:	48 89 e5             	mov    %rsp,%rbp
    b3a5:	89 f8                	mov    %edi,%eax
    b3a7:	66 89 45 fc          	mov    %ax,-0x4(%rbp)
    b3ab:	0f b7 45 fc          	movzwl -0x4(%rbp),%eax
    b3af:	f7 d8                	neg    %eax
    b3b1:	5d                   	pop    %rbp
    b3b2:	c3                   	retq   

000000000000b3b3 <safe_add_func_int16_t_s_s>:
    b3b3:	f3 0f 1e fa          	endbr64 
    b3b7:	55                   	push   %rbp
    b3b8:	48 89 e5             	mov    %rsp,%rbp
    b3bb:	89 fa                	mov    %edi,%edx
    b3bd:	89 f0                	mov    %esi,%eax
    b3bf:	66 89 55 fc          	mov    %dx,-0x4(%rbp)
    b3c3:	66 89 45 f8          	mov    %ax,-0x8(%rbp)
    b3c7:	0f b7 55 fc          	movzwl -0x4(%rbp),%edx
    b3cb:	0f b7 45 f8          	movzwl -0x8(%rbp),%eax
    b3cf:	01 d0                	add    %edx,%eax
    b3d1:	5d                   	pop    %rbp
    b3d2:	c3                   	retq   

000000000000b3d3 <safe_sub_func_int16_t_s_s>:
    b3d3:	f3 0f 1e fa          	endbr64 
    b3d7:	55                   	push   %rbp
    b3d8:	48 89 e5             	mov    %rsp,%rbp
    b3db:	89 fa                	mov    %edi,%edx
    b3dd:	89 f0                	mov    %esi,%eax
    b3df:	66 89 55 fc          	mov    %dx,-0x4(%rbp)
    b3e3:	66 89 45 f8          	mov    %ax,-0x8(%rbp)
    b3e7:	0f b7 55 fc          	movzwl -0x4(%rbp),%edx
    b3eb:	0f b7 45 f8          	movzwl -0x8(%rbp),%eax
    b3ef:	29 c2                	sub    %eax,%edx
    b3f1:	89 d0                	mov    %edx,%eax
    b3f3:	5d                   	pop    %rbp
    b3f4:	c3                   	retq   

000000000000b3f5 <safe_mul_func_int16_t_s_s>:
    b3f5:	f3 0f 1e fa          	endbr64 
    b3f9:	55                   	push   %rbp
    b3fa:	48 89 e5             	mov    %rsp,%rbp
    b3fd:	89 fa                	mov    %edi,%edx
    b3ff:	89 f0                	mov    %esi,%eax
    b401:	66 89 55 fc          	mov    %dx,-0x4(%rbp)
    b405:	66 89 45 f8          	mov    %ax,-0x8(%rbp)
    b409:	0f b7 55 fc          	movzwl -0x4(%rbp),%edx
    b40d:	0f b7 45 f8          	movzwl -0x8(%rbp),%eax
    b411:	0f af c2             	imul   %edx,%eax
    b414:	5d                   	pop    %rbp
    b415:	c3                   	retq   

000000000000b416 <safe_mod_func_int16_t_s_s>:
    b416:	f3 0f 1e fa          	endbr64 
    b41a:	55                   	push   %rbp
    b41b:	48 89 e5             	mov    %rsp,%rbp
    b41e:	89 fa                	mov    %edi,%edx
    b420:	89 f0                	mov    %esi,%eax
    b422:	66 89 55 fc          	mov    %dx,-0x4(%rbp)
    b426:	66 89 45 f8          	mov    %ax,-0x8(%rbp)
    b42a:	66 83 7d f8 00       	cmpw   $0x0,-0x8(%rbp)
    b42f:	74 1e                	je     b44f <safe_mod_func_int16_t_s_s+0x39>
    b431:	66 81 7d fc 00 80    	cmpw   $0x8000,-0x4(%rbp)
    b437:	75 07                	jne    b440 <safe_mod_func_int16_t_s_s+0x2a>
    b439:	66 83 7d f8 ff       	cmpw   $0xffff,-0x8(%rbp)
    b43e:	74 0f                	je     b44f <safe_mod_func_int16_t_s_s+0x39>
    b440:	0f bf 45 fc          	movswl -0x4(%rbp),%eax
    b444:	0f bf 4d f8          	movswl -0x8(%rbp),%ecx
    b448:	99                   	cltd   
    b449:	f7 f9                	idiv   %ecx
    b44b:	89 d0                	mov    %edx,%eax
    b44d:	eb 04                	jmp    b453 <safe_mod_func_int16_t_s_s+0x3d>
    b44f:	0f b7 45 fc          	movzwl -0x4(%rbp),%eax
    b453:	5d                   	pop    %rbp
    b454:	c3                   	retq   

000000000000b455 <safe_div_func_int16_t_s_s>:
    b455:	f3 0f 1e fa          	endbr64 
    b459:	55                   	push   %rbp
    b45a:	48 89 e5             	mov    %rsp,%rbp
    b45d:	89 fa                	mov    %edi,%edx
    b45f:	89 f0                	mov    %esi,%eax
    b461:	66 89 55 fc          	mov    %dx,-0x4(%rbp)
    b465:	66 89 45 f8          	mov    %ax,-0x8(%rbp)
    b469:	66 83 7d f8 00       	cmpw   $0x0,-0x8(%rbp)
    b46e:	74 1c                	je     b48c <safe_div_func_int16_t_s_s+0x37>
    b470:	66 81 7d fc 00 80    	cmpw   $0x8000,-0x4(%rbp)
    b476:	75 07                	jne    b47f <safe_div_func_int16_t_s_s+0x2a>
    b478:	66 83 7d f8 ff       	cmpw   $0xffff,-0x8(%rbp)
    b47d:	74 0d                	je     b48c <safe_div_func_int16_t_s_s+0x37>
    b47f:	0f bf 45 fc          	movswl -0x4(%rbp),%eax
    b483:	0f bf 4d f8          	movswl -0x8(%rbp),%ecx
    b487:	99                   	cltd   
    b488:	f7 f9                	idiv   %ecx
    b48a:	eb 04                	jmp    b490 <safe_div_func_int16_t_s_s+0x3b>
    b48c:	0f b7 45 fc          	movzwl -0x4(%rbp),%eax
    b490:	5d                   	pop    %rbp
    b491:	c3                   	retq   

000000000000b492 <safe_lshift_func_int16_t_s_s>:
    b492:	f3 0f 1e fa          	endbr64 
    b496:	55                   	push   %rbp
    b497:	48 89 e5             	mov    %rsp,%rbp
    b49a:	89 f8                	mov    %edi,%eax
    b49c:	89 75 f8             	mov    %esi,-0x8(%rbp)
    b49f:	66 89 45 fc          	mov    %ax,-0x4(%rbp)
    b4a3:	66 83 7d fc 00       	cmpw   $0x0,-0x4(%rbp)
    b4a8:	78 31                	js     b4db <safe_lshift_func_int16_t_s_s+0x49>
    b4aa:	83 7d f8 00          	cmpl   $0x0,-0x8(%rbp)
    b4ae:	78 2b                	js     b4db <safe_lshift_func_int16_t_s_s+0x49>
    b4b0:	83 7d f8 1f          	cmpl   $0x1f,-0x8(%rbp)
    b4b4:	7f 25                	jg     b4db <safe_lshift_func_int16_t_s_s+0x49>
    b4b6:	0f bf 55 fc          	movswl -0x4(%rbp),%edx
    b4ba:	8b 45 f8             	mov    -0x8(%rbp),%eax
    b4bd:	be ff 7f 00 00       	mov    $0x7fff,%esi
    b4c2:	89 c1                	mov    %eax,%ecx
    b4c4:	d3 fe                	sar    %cl,%esi
    b4c6:	89 f0                	mov    %esi,%eax
    b4c8:	39 c2                	cmp    %eax,%edx
    b4ca:	7f 0f                	jg     b4db <safe_lshift_func_int16_t_s_s+0x49>
    b4cc:	0f bf 55 fc          	movswl -0x4(%rbp),%edx
    b4d0:	8b 45 f8             	mov    -0x8(%rbp),%eax
    b4d3:	89 c1                	mov    %eax,%ecx
    b4d5:	d3 e2                	shl    %cl,%edx
    b4d7:	89 d0                	mov    %edx,%eax
    b4d9:	eb 04                	jmp    b4df <safe_lshift_func_int16_t_s_s+0x4d>
    b4db:	0f b7 45 fc          	movzwl -0x4(%rbp),%eax
    b4df:	5d                   	pop    %rbp
    b4e0:	c3                   	retq   

000000000000b4e1 <safe_lshift_func_int16_t_s_u>:
    b4e1:	f3 0f 1e fa          	endbr64 
    b4e5:	55                   	push   %rbp
    b4e6:	48 89 e5             	mov    %rsp,%rbp
    b4e9:	89 f8                	mov    %edi,%eax
    b4eb:	89 75 f8             	mov    %esi,-0x8(%rbp)
    b4ee:	66 89 45 fc          	mov    %ax,-0x4(%rbp)
    b4f2:	66 83 7d fc 00       	cmpw   $0x0,-0x4(%rbp)
    b4f7:	78 2b                	js     b524 <safe_lshift_func_int16_t_s_u+0x43>
    b4f9:	83 7d f8 1f          	cmpl   $0x1f,-0x8(%rbp)
    b4fd:	77 25                	ja     b524 <safe_lshift_func_int16_t_s_u+0x43>
    b4ff:	0f bf 55 fc          	movswl -0x4(%rbp),%edx
    b503:	8b 45 f8             	mov    -0x8(%rbp),%eax
    b506:	be ff 7f 00 00       	mov    $0x7fff,%esi
    b50b:	89 c1                	mov    %eax,%ecx
    b50d:	d3 fe                	sar    %cl,%esi
    b50f:	89 f0                	mov    %esi,%eax
    b511:	39 c2                	cmp    %eax,%edx
    b513:	7f 0f                	jg     b524 <safe_lshift_func_int16_t_s_u+0x43>
    b515:	0f bf 55 fc          	movswl -0x4(%rbp),%edx
    b519:	8b 45 f8             	mov    -0x8(%rbp),%eax
    b51c:	89 c1                	mov    %eax,%ecx
    b51e:	d3 e2                	shl    %cl,%edx
    b520:	89 d0                	mov    %edx,%eax
    b522:	eb 04                	jmp    b528 <safe_lshift_func_int16_t_s_u+0x47>
    b524:	0f b7 45 fc          	movzwl -0x4(%rbp),%eax
    b528:	5d                   	pop    %rbp
    b529:	c3                   	retq   

000000000000b52a <safe_rshift_func_int16_t_s_s>:
    b52a:	f3 0f 1e fa          	endbr64 
    b52e:	55                   	push   %rbp
    b52f:	48 89 e5             	mov    %rsp,%rbp
    b532:	89 f8                	mov    %edi,%eax
    b534:	89 75 f8             	mov    %esi,-0x8(%rbp)
    b537:	66 89 45 fc          	mov    %ax,-0x4(%rbp)
    b53b:	66 83 7d fc 00       	cmpw   $0x0,-0x4(%rbp)
    b540:	78 1b                	js     b55d <safe_rshift_func_int16_t_s_s+0x33>
    b542:	83 7d f8 00          	cmpl   $0x0,-0x8(%rbp)
    b546:	78 15                	js     b55d <safe_rshift_func_int16_t_s_s+0x33>
    b548:	83 7d f8 1f          	cmpl   $0x1f,-0x8(%rbp)
    b54c:	7f 0f                	jg     b55d <safe_rshift_func_int16_t_s_s+0x33>
    b54e:	0f bf 55 fc          	movswl -0x4(%rbp),%edx
    b552:	8b 45 f8             	mov    -0x8(%rbp),%eax
    b555:	89 c1                	mov    %eax,%ecx
    b557:	d3 fa                	sar    %cl,%edx
    b559:	89 d0                	mov    %edx,%eax
    b55b:	eb 04                	jmp    b561 <safe_rshift_func_int16_t_s_s+0x37>
    b55d:	0f b7 45 fc          	movzwl -0x4(%rbp),%eax
    b561:	5d                   	pop    %rbp
    b562:	c3                   	retq   

000000000000b563 <safe_rshift_func_int16_t_s_u>:
    b563:	f3 0f 1e fa          	endbr64 
    b567:	55                   	push   %rbp
    b568:	48 89 e5             	mov    %rsp,%rbp
    b56b:	89 f8                	mov    %edi,%eax
    b56d:	89 75 f8             	mov    %esi,-0x8(%rbp)
    b570:	66 89 45 fc          	mov    %ax,-0x4(%rbp)
    b574:	66 83 7d fc 00       	cmpw   $0x0,-0x4(%rbp)
    b579:	78 15                	js     b590 <safe_rshift_func_int16_t_s_u+0x2d>
    b57b:	83 7d f8 1f          	cmpl   $0x1f,-0x8(%rbp)
    b57f:	77 0f                	ja     b590 <safe_rshift_func_int16_t_s_u+0x2d>
    b581:	0f bf 55 fc          	movswl -0x4(%rbp),%edx
    b585:	8b 45 f8             	mov    -0x8(%rbp),%eax
    b588:	89 c1                	mov    %eax,%ecx
    b58a:	d3 fa                	sar    %cl,%edx
    b58c:	89 d0                	mov    %edx,%eax
    b58e:	eb 04                	jmp    b594 <safe_rshift_func_int16_t_s_u+0x31>
    b590:	0f b7 45 fc          	movzwl -0x4(%rbp),%eax
    b594:	5d                   	pop    %rbp
    b595:	c3                   	retq   

000000000000b596 <safe_unary_minus_func_int32_t_s>:
    b596:	f3 0f 1e fa          	endbr64 
    b59a:	55                   	push   %rbp
    b59b:	48 89 e5             	mov    %rsp,%rbp
    b59e:	89 7d fc             	mov    %edi,-0x4(%rbp)
    b5a1:	81 7d fc 00 00 00 80 	cmpl   $0x80000000,-0x4(%rbp)
    b5a8:	74 07                	je     b5b1 <safe_unary_minus_func_int32_t_s+0x1b>
    b5aa:	8b 45 fc             	mov    -0x4(%rbp),%eax
    b5ad:	f7 d8                	neg    %eax
    b5af:	eb 03                	jmp    b5b4 <safe_unary_minus_func_int32_t_s+0x1e>
    b5b1:	8b 45 fc             	mov    -0x4(%rbp),%eax
    b5b4:	5d                   	pop    %rbp
    b5b5:	c3                   	retq   

000000000000b5b6 <safe_add_func_int32_t_s_s>:
    b5b6:	f3 0f 1e fa          	endbr64 
    b5ba:	55                   	push   %rbp
    b5bb:	48 89 e5             	mov    %rsp,%rbp
    b5be:	89 7d fc             	mov    %edi,-0x4(%rbp)
    b5c1:	89 75 f8             	mov    %esi,-0x8(%rbp)
    b5c4:	83 7d fc 00          	cmpl   $0x0,-0x4(%rbp)
    b5c8:	7e 13                	jle    b5dd <safe_add_func_int32_t_s_s+0x27>
    b5ca:	83 7d f8 00          	cmpl   $0x0,-0x8(%rbp)
    b5ce:	7e 0d                	jle    b5dd <safe_add_func_int32_t_s_s+0x27>
    b5d0:	b8 ff ff ff 7f       	mov    $0x7fffffff,%eax
    b5d5:	2b 45 f8             	sub    -0x8(%rbp),%eax
    b5d8:	39 45 fc             	cmp    %eax,-0x4(%rbp)
    b5db:	7f 23                	jg     b600 <safe_add_func_int32_t_s_s+0x4a>
    b5dd:	83 7d fc 00          	cmpl   $0x0,-0x4(%rbp)
    b5e1:	79 13                	jns    b5f6 <safe_add_func_int32_t_s_s+0x40>
    b5e3:	83 7d f8 00          	cmpl   $0x0,-0x8(%rbp)
    b5e7:	79 0d                	jns    b5f6 <safe_add_func_int32_t_s_s+0x40>
    b5e9:	b8 00 00 00 80       	mov    $0x80000000,%eax
    b5ee:	2b 45 f8             	sub    -0x8(%rbp),%eax
    b5f1:	39 45 fc             	cmp    %eax,-0x4(%rbp)
    b5f4:	7c 0a                	jl     b600 <safe_add_func_int32_t_s_s+0x4a>
    b5f6:	8b 55 fc             	mov    -0x4(%rbp),%edx
    b5f9:	8b 45 f8             	mov    -0x8(%rbp),%eax
    b5fc:	01 d0                	add    %edx,%eax
    b5fe:	eb 03                	jmp    b603 <safe_add_func_int32_t_s_s+0x4d>
    b600:	8b 45 fc             	mov    -0x4(%rbp),%eax
    b603:	5d                   	pop    %rbp
    b604:	c3                   	retq   

000000000000b605 <safe_sub_func_int32_t_s_s>:
    b605:	f3 0f 1e fa          	endbr64 
    b609:	55                   	push   %rbp
    b60a:	48 89 e5             	mov    %rsp,%rbp
    b60d:	89 7d fc             	mov    %edi,-0x4(%rbp)
    b610:	89 75 f8             	mov    %esi,-0x8(%rbp)
    b613:	8b 45 fc             	mov    -0x4(%rbp),%eax
    b616:	33 45 f8             	xor    -0x8(%rbp),%eax
    b619:	89 c2                	mov    %eax,%edx
    b61b:	8b 45 fc             	mov    -0x4(%rbp),%eax
    b61e:	33 45 f8             	xor    -0x8(%rbp),%eax
    b621:	25 00 00 00 80       	and    $0x80000000,%eax
    b626:	33 45 fc             	xor    -0x4(%rbp),%eax
    b629:	2b 45 f8             	sub    -0x8(%rbp),%eax
    b62c:	33 45 f8             	xor    -0x8(%rbp),%eax
    b62f:	21 d0                	and    %edx,%eax
    b631:	85 c0                	test   %eax,%eax
    b633:	78 08                	js     b63d <safe_sub_func_int32_t_s_s+0x38>
    b635:	8b 45 fc             	mov    -0x4(%rbp),%eax
    b638:	2b 45 f8             	sub    -0x8(%rbp),%eax
    b63b:	eb 03                	jmp    b640 <safe_sub_func_int32_t_s_s+0x3b>
    b63d:	8b 45 fc             	mov    -0x4(%rbp),%eax
    b640:	5d                   	pop    %rbp
    b641:	c3                   	retq   

000000000000b642 <safe_mul_func_int32_t_s_s>:
    b642:	f3 0f 1e fa          	endbr64 
    b646:	55                   	push   %rbp
    b647:	48 89 e5             	mov    %rsp,%rbp
    b64a:	89 7d fc             	mov    %edi,-0x4(%rbp)
    b64d:	89 75 f8             	mov    %esi,-0x8(%rbp)
    b650:	83 7d fc 00          	cmpl   $0x0,-0x4(%rbp)
    b654:	7e 14                	jle    b66a <safe_mul_func_int32_t_s_s+0x28>
    b656:	83 7d f8 00          	cmpl   $0x0,-0x8(%rbp)
    b65a:	7e 0e                	jle    b66a <safe_mul_func_int32_t_s_s+0x28>
    b65c:	b8 ff ff ff 7f       	mov    $0x7fffffff,%eax
    b661:	99                   	cltd   
    b662:	f7 7d f8             	idivl  -0x8(%rbp)
    b665:	39 45 fc             	cmp    %eax,-0x4(%rbp)
    b668:	7f 5d                	jg     b6c7 <safe_mul_func_int32_t_s_s+0x85>
    b66a:	83 7d fc 00          	cmpl   $0x0,-0x4(%rbp)
    b66e:	7e 14                	jle    b684 <safe_mul_func_int32_t_s_s+0x42>
    b670:	83 7d f8 00          	cmpl   $0x0,-0x8(%rbp)
    b674:	7f 0e                	jg     b684 <safe_mul_func_int32_t_s_s+0x42>
    b676:	b8 00 00 00 80       	mov    $0x80000000,%eax
    b67b:	99                   	cltd   
    b67c:	f7 7d fc             	idivl  -0x4(%rbp)
    b67f:	39 45 f8             	cmp    %eax,-0x8(%rbp)
    b682:	7c 43                	jl     b6c7 <safe_mul_func_int32_t_s_s+0x85>
    b684:	83 7d fc 00          	cmpl   $0x0,-0x4(%rbp)
    b688:	7f 14                	jg     b69e <safe_mul_func_int32_t_s_s+0x5c>
    b68a:	83 7d f8 00          	cmpl   $0x0,-0x8(%rbp)
    b68e:	7e 0e                	jle    b69e <safe_mul_func_int32_t_s_s+0x5c>
    b690:	b8 00 00 00 80       	mov    $0x80000000,%eax
    b695:	99                   	cltd   
    b696:	f7 7d f8             	idivl  -0x8(%rbp)
    b699:	39 45 fc             	cmp    %eax,-0x4(%rbp)
    b69c:	7c 29                	jl     b6c7 <safe_mul_func_int32_t_s_s+0x85>
    b69e:	83 7d fc 00          	cmpl   $0x0,-0x4(%rbp)
    b6a2:	7f 1a                	jg     b6be <safe_mul_func_int32_t_s_s+0x7c>
    b6a4:	83 7d f8 00          	cmpl   $0x0,-0x8(%rbp)
    b6a8:	7f 14                	jg     b6be <safe_mul_func_int32_t_s_s+0x7c>
    b6aa:	83 7d fc 00          	cmpl   $0x0,-0x4(%rbp)
    b6ae:	74 0e                	je     b6be <safe_mul_func_int32_t_s_s+0x7c>
    b6b0:	b8 ff ff ff 7f       	mov    $0x7fffffff,%eax
    b6b5:	99                   	cltd   
    b6b6:	f7 7d fc             	idivl  -0x4(%rbp)
    b6b9:	39 45 f8             	cmp    %eax,-0x8(%rbp)
    b6bc:	7c 09                	jl     b6c7 <safe_mul_func_int32_t_s_s+0x85>
    b6be:	8b 45 fc             	mov    -0x4(%rbp),%eax
    b6c1:	0f af 45 f8          	imul   -0x8(%rbp),%eax
    b6c5:	eb 03                	jmp    b6ca <safe_mul_func_int32_t_s_s+0x88>
    b6c7:	8b 45 fc             	mov    -0x4(%rbp),%eax
    b6ca:	5d                   	pop    %rbp
    b6cb:	c3                   	retq   

000000000000b6cc <safe_mod_func_int32_t_s_s>:
    b6cc:	f3 0f 1e fa          	endbr64 
    b6d0:	55                   	push   %rbp
    b6d1:	48 89 e5             	mov    %rsp,%rbp
    b6d4:	89 7d fc             	mov    %edi,-0x4(%rbp)
    b6d7:	89 75 f8             	mov    %esi,-0x8(%rbp)
    b6da:	83 7d f8 00          	cmpl   $0x0,-0x8(%rbp)
    b6de:	74 1a                	je     b6fa <safe_mod_func_int32_t_s_s+0x2e>
    b6e0:	81 7d fc 00 00 00 80 	cmpl   $0x80000000,-0x4(%rbp)
    b6e7:	75 06                	jne    b6ef <safe_mod_func_int32_t_s_s+0x23>
    b6e9:	83 7d f8 ff          	cmpl   $0xffffffff,-0x8(%rbp)
    b6ed:	74 0b                	je     b6fa <safe_mod_func_int32_t_s_s+0x2e>
    b6ef:	8b 45 fc             	mov    -0x4(%rbp),%eax
    b6f2:	99                   	cltd   
    b6f3:	f7 7d f8             	idivl  -0x8(%rbp)
    b6f6:	89 d0                	mov    %edx,%eax
    b6f8:	eb 03                	jmp    b6fd <safe_mod_func_int32_t_s_s+0x31>
    b6fa:	8b 45 fc             	mov    -0x4(%rbp),%eax
    b6fd:	5d                   	pop    %rbp
    b6fe:	c3                   	retq   

000000000000b6ff <safe_div_func_int32_t_s_s>:
    b6ff:	f3 0f 1e fa          	endbr64 
    b703:	55                   	push   %rbp
    b704:	48 89 e5             	mov    %rsp,%rbp
    b707:	89 7d fc             	mov    %edi,-0x4(%rbp)
    b70a:	89 75 f8             	mov    %esi,-0x8(%rbp)
    b70d:	83 7d f8 00          	cmpl   $0x0,-0x8(%rbp)
    b711:	74 18                	je     b72b <safe_div_func_int32_t_s_s+0x2c>
    b713:	81 7d fc 00 00 00 80 	cmpl   $0x80000000,-0x4(%rbp)
    b71a:	75 06                	jne    b722 <safe_div_func_int32_t_s_s+0x23>
    b71c:	83 7d f8 ff          	cmpl   $0xffffffff,-0x8(%rbp)
    b720:	74 09                	je     b72b <safe_div_func_int32_t_s_s+0x2c>
    b722:	8b 45 fc             	mov    -0x4(%rbp),%eax
    b725:	99                   	cltd   
    b726:	f7 7d f8             	idivl  -0x8(%rbp)
    b729:	eb 03                	jmp    b72e <safe_div_func_int32_t_s_s+0x2f>
    b72b:	8b 45 fc             	mov    -0x4(%rbp),%eax
    b72e:	5d                   	pop    %rbp
    b72f:	c3                   	retq   

000000000000b730 <safe_lshift_func_int32_t_s_s>:
    b730:	f3 0f 1e fa          	endbr64 
    b734:	55                   	push   %rbp
    b735:	48 89 e5             	mov    %rsp,%rbp
    b738:	89 7d fc             	mov    %edi,-0x4(%rbp)
    b73b:	89 75 f8             	mov    %esi,-0x8(%rbp)
    b73e:	83 7d fc 00          	cmpl   $0x0,-0x4(%rbp)
    b742:	78 2d                	js     b771 <safe_lshift_func_int32_t_s_s+0x41>
    b744:	83 7d f8 00          	cmpl   $0x0,-0x8(%rbp)
    b748:	78 27                	js     b771 <safe_lshift_func_int32_t_s_s+0x41>
    b74a:	83 7d f8 1f          	cmpl   $0x1f,-0x8(%rbp)
    b74e:	7f 21                	jg     b771 <safe_lshift_func_int32_t_s_s+0x41>
    b750:	8b 45 f8             	mov    -0x8(%rbp),%eax
    b753:	ba ff ff ff 7f       	mov    $0x7fffffff,%edx
    b758:	89 c1                	mov    %eax,%ecx
    b75a:	d3 fa                	sar    %cl,%edx
    b75c:	89 d0                	mov    %edx,%eax
    b75e:	39 45 fc             	cmp    %eax,-0x4(%rbp)
    b761:	7f 0e                	jg     b771 <safe_lshift_func_int32_t_s_s+0x41>
    b763:	8b 45 f8             	mov    -0x8(%rbp),%eax
    b766:	8b 55 fc             	mov    -0x4(%rbp),%edx
    b769:	89 c1                	mov    %eax,%ecx
    b76b:	d3 e2                	shl    %cl,%edx
    b76d:	89 d0                	mov    %edx,%eax
    b76f:	eb 03                	jmp    b774 <safe_lshift_func_int32_t_s_s+0x44>
    b771:	8b 45 fc             	mov    -0x4(%rbp),%eax
    b774:	5d                   	pop    %rbp
    b775:	c3                   	retq   

000000000000b776 <safe_lshift_func_int32_t_s_u>:
    b776:	f3 0f 1e fa          	endbr64 
    b77a:	55                   	push   %rbp
    b77b:	48 89 e5             	mov    %rsp,%rbp
    b77e:	89 7d fc             	mov    %edi,-0x4(%rbp)
    b781:	89 75 f8             	mov    %esi,-0x8(%rbp)
    b784:	83 7d fc 00          	cmpl   $0x0,-0x4(%rbp)
    b788:	78 27                	js     b7b1 <safe_lshift_func_int32_t_s_u+0x3b>
    b78a:	83 7d f8 1f          	cmpl   $0x1f,-0x8(%rbp)
    b78e:	77 21                	ja     b7b1 <safe_lshift_func_int32_t_s_u+0x3b>
    b790:	8b 45 f8             	mov    -0x8(%rbp),%eax
    b793:	ba ff ff ff 7f       	mov    $0x7fffffff,%edx
    b798:	89 c1                	mov    %eax,%ecx
    b79a:	d3 fa                	sar    %cl,%edx
    b79c:	89 d0                	mov    %edx,%eax
    b79e:	39 45 fc             	cmp    %eax,-0x4(%rbp)
    b7a1:	7f 0e                	jg     b7b1 <safe_lshift_func_int32_t_s_u+0x3b>
    b7a3:	8b 45 f8             	mov    -0x8(%rbp),%eax
    b7a6:	8b 55 fc             	mov    -0x4(%rbp),%edx
    b7a9:	89 c1                	mov    %eax,%ecx
    b7ab:	d3 e2                	shl    %cl,%edx
    b7ad:	89 d0                	mov    %edx,%eax
    b7af:	eb 03                	jmp    b7b4 <safe_lshift_func_int32_t_s_u+0x3e>
    b7b1:	8b 45 fc             	mov    -0x4(%rbp),%eax
    b7b4:	5d                   	pop    %rbp
    b7b5:	c3                   	retq   

000000000000b7b6 <safe_rshift_func_int32_t_s_s>:
    b7b6:	f3 0f 1e fa          	endbr64 
    b7ba:	55                   	push   %rbp
    b7bb:	48 89 e5             	mov    %rsp,%rbp
    b7be:	89 7d fc             	mov    %edi,-0x4(%rbp)
    b7c1:	89 75 f8             	mov    %esi,-0x8(%rbp)
    b7c4:	83 7d fc 00          	cmpl   $0x0,-0x4(%rbp)
    b7c8:	78 1a                	js     b7e4 <safe_rshift_func_int32_t_s_s+0x2e>
    b7ca:	83 7d f8 00          	cmpl   $0x0,-0x8(%rbp)
    b7ce:	78 14                	js     b7e4 <safe_rshift_func_int32_t_s_s+0x2e>
    b7d0:	83 7d f8 1f          	cmpl   $0x1f,-0x8(%rbp)
    b7d4:	7f 0e                	jg     b7e4 <safe_rshift_func_int32_t_s_s+0x2e>
    b7d6:	8b 45 f8             	mov    -0x8(%rbp),%eax
    b7d9:	8b 55 fc             	mov    -0x4(%rbp),%edx
    b7dc:	89 c1                	mov    %eax,%ecx
    b7de:	d3 fa                	sar    %cl,%edx
    b7e0:	89 d0                	mov    %edx,%eax
    b7e2:	eb 03                	jmp    b7e7 <safe_rshift_func_int32_t_s_s+0x31>
    b7e4:	8b 45 fc             	mov    -0x4(%rbp),%eax
    b7e7:	5d                   	pop    %rbp
    b7e8:	c3                   	retq   

000000000000b7e9 <safe_rshift_func_int32_t_s_u>:
    b7e9:	f3 0f 1e fa          	endbr64 
    b7ed:	55                   	push   %rbp
    b7ee:	48 89 e5             	mov    %rsp,%rbp
    b7f1:	89 7d fc             	mov    %edi,-0x4(%rbp)
    b7f4:	89 75 f8             	mov    %esi,-0x8(%rbp)
    b7f7:	83 7d fc 00          	cmpl   $0x0,-0x4(%rbp)
    b7fb:	78 14                	js     b811 <safe_rshift_func_int32_t_s_u+0x28>
    b7fd:	83 7d f8 1f          	cmpl   $0x1f,-0x8(%rbp)
    b801:	77 0e                	ja     b811 <safe_rshift_func_int32_t_s_u+0x28>
    b803:	8b 45 f8             	mov    -0x8(%rbp),%eax
    b806:	8b 55 fc             	mov    -0x4(%rbp),%edx
    b809:	89 c1                	mov    %eax,%ecx
    b80b:	d3 fa                	sar    %cl,%edx
    b80d:	89 d0                	mov    %edx,%eax
    b80f:	eb 03                	jmp    b814 <safe_rshift_func_int32_t_s_u+0x2b>
    b811:	8b 45 fc             	mov    -0x4(%rbp),%eax
    b814:	5d                   	pop    %rbp
    b815:	c3                   	retq   

000000000000b816 <safe_unary_minus_func_int64_t_s>:
    b816:	f3 0f 1e fa          	endbr64 
    b81a:	55                   	push   %rbp
    b81b:	48 89 e5             	mov    %rsp,%rbp
    b81e:	48 89 7d f8          	mov    %rdi,-0x8(%rbp)
    b822:	48 b8 00 00 00 00 00 	movabs $0x8000000000000000,%rax
    b829:	00 00 80 
    b82c:	48 39 45 f8          	cmp    %rax,-0x8(%rbp)
    b830:	74 09                	je     b83b <safe_unary_minus_func_int64_t_s+0x25>
    b832:	48 8b 45 f8          	mov    -0x8(%rbp),%rax
    b836:	48 f7 d8             	neg    %rax
    b839:	eb 04                	jmp    b83f <safe_unary_minus_func_int64_t_s+0x29>
    b83b:	48 8b 45 f8          	mov    -0x8(%rbp),%rax
    b83f:	5d                   	pop    %rbp
    b840:	c3                   	retq   

000000000000b841 <safe_add_func_int64_t_s_s>:
    b841:	f3 0f 1e fa          	endbr64 
    b845:	55                   	push   %rbp
    b846:	48 89 e5             	mov    %rsp,%rbp
    b849:	48 89 7d f8          	mov    %rdi,-0x8(%rbp)
    b84d:	48 89 75 f0          	mov    %rsi,-0x10(%rbp)
    b851:	48 83 7d f8 00       	cmpq   $0x0,-0x8(%rbp)
    b856:	7e 1b                	jle    b873 <safe_add_func_int64_t_s_s+0x32>
    b858:	48 83 7d f0 00       	cmpq   $0x0,-0x10(%rbp)
    b85d:	7e 14                	jle    b873 <safe_add_func_int64_t_s_s+0x32>
    b85f:	48 b8 ff ff ff ff ff 	movabs $0x7fffffffffffffff,%rax
    b866:	ff ff 7f 
    b869:	48 2b 45 f0          	sub    -0x10(%rbp),%rax
    b86d:	48 39 45 f8          	cmp    %rax,-0x8(%rbp)
    b871:	7f 2f                	jg     b8a2 <safe_add_func_int64_t_s_s+0x61>
    b873:	48 83 7d f8 00       	cmpq   $0x0,-0x8(%rbp)
    b878:	79 1b                	jns    b895 <safe_add_func_int64_t_s_s+0x54>
    b87a:	48 83 7d f0 00       	cmpq   $0x0,-0x10(%rbp)
    b87f:	79 14                	jns    b895 <safe_add_func_int64_t_s_s+0x54>
    b881:	48 b8 00 00 00 00 00 	movabs $0x8000000000000000,%rax
    b888:	00 00 80 
    b88b:	48 2b 45 f0          	sub    -0x10(%rbp),%rax
    b88f:	48 39 45 f8          	cmp    %rax,-0x8(%rbp)
    b893:	7c 0d                	jl     b8a2 <safe_add_func_int64_t_s_s+0x61>
    b895:	48 8b 55 f8          	mov    -0x8(%rbp),%rdx
    b899:	48 8b 45 f0          	mov    -0x10(%rbp),%rax
    b89d:	48 01 d0             	add    %rdx,%rax
    b8a0:	eb 04                	jmp    b8a6 <safe_add_func_int64_t_s_s+0x65>
    b8a2:	48 8b 45 f8          	mov    -0x8(%rbp),%rax
    b8a6:	5d                   	pop    %rbp
    b8a7:	c3                   	retq   

000000000000b8a8 <safe_sub_func_int64_t_s_s>:
    b8a8:	f3 0f 1e fa          	endbr64 
    b8ac:	55                   	push   %rbp
    b8ad:	48 89 e5             	mov    %rsp,%rbp
    b8b0:	48 89 7d f8          	mov    %rdi,-0x8(%rbp)
    b8b4:	48 89 75 f0          	mov    %rsi,-0x10(%rbp)
    b8b8:	48 8b 45 f8          	mov    -0x8(%rbp),%rax
    b8bc:	48 33 45 f0          	xor    -0x10(%rbp),%rax
    b8c0:	48 89 c2             	mov    %rax,%rdx
    b8c3:	48 8b 45 f8          	mov    -0x8(%rbp),%rax
    b8c7:	48 33 45 f0          	xor    -0x10(%rbp),%rax
    b8cb:	48 b9 00 00 00 00 00 	movabs $0x8000000000000000,%rcx
    b8d2:	00 00 80 
    b8d5:	48 21 c8             	and    %rcx,%rax
    b8d8:	48 33 45 f8          	xor    -0x8(%rbp),%rax
    b8dc:	48 2b 45 f0          	sub    -0x10(%rbp),%rax
    b8e0:	48 33 45 f0          	xor    -0x10(%rbp),%rax
    b8e4:	48 21 d0             	and    %rdx,%rax
    b8e7:	48 85 c0             	test   %rax,%rax
    b8ea:	78 0a                	js     b8f6 <safe_sub_func_int64_t_s_s+0x4e>
    b8ec:	48 8b 45 f8          	mov    -0x8(%rbp),%rax
    b8f0:	48 2b 45 f0          	sub    -0x10(%rbp),%rax
    b8f4:	eb 04                	jmp    b8fa <safe_sub_func_int64_t_s_s+0x52>
    b8f6:	48 8b 45 f8          	mov    -0x8(%rbp),%rax
    b8fa:	5d                   	pop    %rbp
    b8fb:	c3                   	retq   

000000000000b8fc <safe_mul_func_int64_t_s_s>:
    b8fc:	f3 0f 1e fa          	endbr64 
    b900:	55                   	push   %rbp
    b901:	48 89 e5             	mov    %rsp,%rbp
    b904:	48 89 7d f8          	mov    %rdi,-0x8(%rbp)
    b908:	48 89 75 f0          	mov    %rsi,-0x10(%rbp)
    b90c:	48 83 7d f8 00       	cmpq   $0x0,-0x8(%rbp)
    b911:	7e 1d                	jle    b930 <safe_mul_func_int64_t_s_s+0x34>
    b913:	48 83 7d f0 00       	cmpq   $0x0,-0x10(%rbp)
    b918:	7e 16                	jle    b930 <safe_mul_func_int64_t_s_s+0x34>
    b91a:	48 b8 ff ff ff ff ff 	movabs $0x7fffffffffffffff,%rax
    b921:	ff ff 7f 
    b924:	48 99                	cqto   
    b926:	48 f7 7d f0          	idivq  -0x10(%rbp)
    b92a:	48 39 45 f8          	cmp    %rax,-0x8(%rbp)
    b92e:	7f 7e                	jg     b9ae <safe_mul_func_int64_t_s_s+0xb2>
    b930:	48 83 7d f8 00       	cmpq   $0x0,-0x8(%rbp)
    b935:	7e 1d                	jle    b954 <safe_mul_func_int64_t_s_s+0x58>
    b937:	48 83 7d f0 00       	cmpq   $0x0,-0x10(%rbp)
    b93c:	7f 16                	jg     b954 <safe_mul_func_int64_t_s_s+0x58>
    b93e:	48 b8 00 00 00 00 00 	movabs $0x8000000000000000,%rax
    b945:	00 00 80 
    b948:	48 99                	cqto   
    b94a:	48 f7 7d f8          	idivq  -0x8(%rbp)
    b94e:	48 39 45 f0          	cmp    %rax,-0x10(%rbp)
    b952:	7c 5a                	jl     b9ae <safe_mul_func_int64_t_s_s+0xb2>
    b954:	48 83 7d f8 00       	cmpq   $0x0,-0x8(%rbp)
    b959:	7f 1d                	jg     b978 <safe_mul_func_int64_t_s_s+0x7c>
    b95b:	48 83 7d f0 00       	cmpq   $0x0,-0x10(%rbp)
    b960:	7e 16                	jle    b978 <safe_mul_func_int64_t_s_s+0x7c>
    b962:	48 b8 00 00 00 00 00 	movabs $0x8000000000000000,%rax
    b969:	00 00 80 
    b96c:	48 99                	cqto   
    b96e:	48 f7 7d f0          	idivq  -0x10(%rbp)
    b972:	48 39 45 f8          	cmp    %rax,-0x8(%rbp)
    b976:	7c 36                	jl     b9ae <safe_mul_func_int64_t_s_s+0xb2>
    b978:	48 83 7d f8 00       	cmpq   $0x0,-0x8(%rbp)
    b97d:	7f 24                	jg     b9a3 <safe_mul_func_int64_t_s_s+0xa7>
    b97f:	48 83 7d f0 00       	cmpq   $0x0,-0x10(%rbp)
    b984:	7f 1d                	jg     b9a3 <safe_mul_func_int64_t_s_s+0xa7>
    b986:	48 83 7d f8 00       	cmpq   $0x0,-0x8(%rbp)
    b98b:	74 16                	je     b9a3 <safe_mul_func_int64_t_s_s+0xa7>
    b98d:	48 b8 ff ff ff ff ff 	movabs $0x7fffffffffffffff,%rax
    b994:	ff ff 7f 
    b997:	48 99                	cqto   
    b999:	48 f7 7d f8          	idivq  -0x8(%rbp)
    b99d:	48 39 45 f0          	cmp    %rax,-0x10(%rbp)
    b9a1:	7c 0b                	jl     b9ae <safe_mul_func_int64_t_s_s+0xb2>
    b9a3:	48 8b 45 f8          	mov    -0x8(%rbp),%rax
    b9a7:	48 0f af 45 f0       	imul   -0x10(%rbp),%rax
    b9ac:	eb 04                	jmp    b9b2 <safe_mul_func_int64_t_s_s+0xb6>
    b9ae:	48 8b 45 f8          	mov    -0x8(%rbp),%rax
    b9b2:	5d                   	pop    %rbp
    b9b3:	c3                   	retq   

000000000000b9b4 <safe_mod_func_int64_t_s_s>:
    b9b4:	f3 0f 1e fa          	endbr64 
    b9b8:	55                   	push   %rbp
    b9b9:	48 89 e5             	mov    %rsp,%rbp
    b9bc:	48 89 7d f8          	mov    %rdi,-0x8(%rbp)
    b9c0:	48 89 75 f0          	mov    %rsi,-0x10(%rbp)
    b9c4:	48 83 7d f0 00       	cmpq   $0x0,-0x10(%rbp)
    b9c9:	74 26                	je     b9f1 <safe_mod_func_int64_t_s_s+0x3d>
    b9cb:	48 b8 00 00 00 00 00 	movabs $0x8000000000000000,%rax
    b9d2:	00 00 80 
    b9d5:	48 39 45 f8          	cmp    %rax,-0x8(%rbp)
    b9d9:	75 07                	jne    b9e2 <safe_mod_func_int64_t_s_s+0x2e>
    b9db:	48 83 7d f0 ff       	cmpq   $0xffffffffffffffff,-0x10(%rbp)
    b9e0:	74 0f                	je     b9f1 <safe_mod_func_int64_t_s_s+0x3d>
    b9e2:	48 8b 45 f8          	mov    -0x8(%rbp),%rax
    b9e6:	48 99                	cqto   
    b9e8:	48 f7 7d f0          	idivq  -0x10(%rbp)
    b9ec:	48 89 d0             	mov    %rdx,%rax
    b9ef:	eb 04                	jmp    b9f5 <safe_mod_func_int64_t_s_s+0x41>
    b9f1:	48 8b 45 f8          	mov    -0x8(%rbp),%rax
    b9f5:	5d                   	pop    %rbp
    b9f6:	c3                   	retq   

000000000000b9f7 <safe_div_func_int64_t_s_s>:
    b9f7:	f3 0f 1e fa          	endbr64 
    b9fb:	55                   	push   %rbp
    b9fc:	48 89 e5             	mov    %rsp,%rbp
    b9ff:	48 89 7d f8          	mov    %rdi,-0x8(%rbp)
    ba03:	48 89 75 f0          	mov    %rsi,-0x10(%rbp)
    ba07:	48 83 7d f0 00       	cmpq   $0x0,-0x10(%rbp)
    ba0c:	74 23                	je     ba31 <safe_div_func_int64_t_s_s+0x3a>
    ba0e:	48 b8 00 00 00 00 00 	movabs $0x8000000000000000,%rax
    ba15:	00 00 80 
    ba18:	48 39 45 f8          	cmp    %rax,-0x8(%rbp)
    ba1c:	75 07                	jne    ba25 <safe_div_func_int64_t_s_s+0x2e>
    ba1e:	48 83 7d f0 ff       	cmpq   $0xffffffffffffffff,-0x10(%rbp)
    ba23:	74 0c                	je     ba31 <safe_div_func_int64_t_s_s+0x3a>
    ba25:	48 8b 45 f8          	mov    -0x8(%rbp),%rax
    ba29:	48 99                	cqto   
    ba2b:	48 f7 7d f0          	idivq  -0x10(%rbp)
    ba2f:	eb 04                	jmp    ba35 <safe_div_func_int64_t_s_s+0x3e>
    ba31:	48 8b 45 f8          	mov    -0x8(%rbp),%rax
    ba35:	5d                   	pop    %rbp
    ba36:	c3                   	retq   

000000000000ba37 <safe_lshift_func_int64_t_s_s>:
    ba37:	f3 0f 1e fa          	endbr64 
    ba3b:	55                   	push   %rbp
    ba3c:	48 89 e5             	mov    %rsp,%rbp
    ba3f:	48 89 7d f8          	mov    %rdi,-0x8(%rbp)
    ba43:	89 75 f4             	mov    %esi,-0xc(%rbp)
    ba46:	48 83 7d f8 00       	cmpq   $0x0,-0x8(%rbp)
    ba4b:	78 38                	js     ba85 <safe_lshift_func_int64_t_s_s+0x4e>
    ba4d:	83 7d f4 00          	cmpl   $0x0,-0xc(%rbp)
    ba51:	78 32                	js     ba85 <safe_lshift_func_int64_t_s_s+0x4e>
    ba53:	83 7d f4 1f          	cmpl   $0x1f,-0xc(%rbp)
    ba57:	7f 2c                	jg     ba85 <safe_lshift_func_int64_t_s_s+0x4e>
    ba59:	8b 45 f4             	mov    -0xc(%rbp),%eax
    ba5c:	48 ba ff ff ff ff ff 	movabs $0x7fffffffffffffff,%rdx
    ba63:	ff ff 7f 
    ba66:	89 c1                	mov    %eax,%ecx
    ba68:	48 d3 fa             	sar    %cl,%rdx
    ba6b:	48 89 d0             	mov    %rdx,%rax
    ba6e:	48 39 45 f8          	cmp    %rax,-0x8(%rbp)
    ba72:	7f 11                	jg     ba85 <safe_lshift_func_int64_t_s_s+0x4e>
    ba74:	8b 45 f4             	mov    -0xc(%rbp),%eax
    ba77:	48 8b 55 f8          	mov    -0x8(%rbp),%rdx
    ba7b:	89 c1                	mov    %eax,%ecx
    ba7d:	48 d3 e2             	shl    %cl,%rdx
    ba80:	48 89 d0             	mov    %rdx,%rax
    ba83:	eb 04                	jmp    ba89 <safe_lshift_func_int64_t_s_s+0x52>
    ba85:	48 8b 45 f8          	mov    -0x8(%rbp),%rax
    ba89:	5d                   	pop    %rbp
    ba8a:	c3                   	retq   

000000000000ba8b <safe_lshift_func_int64_t_s_u>:
    ba8b:	f3 0f 1e fa          	endbr64 
    ba8f:	55                   	push   %rbp
    ba90:	48 89 e5             	mov    %rsp,%rbp
    ba93:	48 89 7d f8          	mov    %rdi,-0x8(%rbp)
    ba97:	89 75 f4             	mov    %esi,-0xc(%rbp)
    ba9a:	48 83 7d f8 00       	cmpq   $0x0,-0x8(%rbp)
    ba9f:	78 32                	js     bad3 <safe_lshift_func_int64_t_s_u+0x48>
    baa1:	83 7d f4 1f          	cmpl   $0x1f,-0xc(%rbp)
    baa5:	77 2c                	ja     bad3 <safe_lshift_func_int64_t_s_u+0x48>
    baa7:	8b 45 f4             	mov    -0xc(%rbp),%eax
    baaa:	48 ba ff ff ff ff ff 	movabs $0x7fffffffffffffff,%rdx
    bab1:	ff ff 7f 
    bab4:	89 c1                	mov    %eax,%ecx
    bab6:	48 d3 fa             	sar    %cl,%rdx
    bab9:	48 89 d0             	mov    %rdx,%rax
    babc:	48 39 45 f8          	cmp    %rax,-0x8(%rbp)
    bac0:	7f 11                	jg     bad3 <safe_lshift_func_int64_t_s_u+0x48>
    bac2:	8b 45 f4             	mov    -0xc(%rbp),%eax
    bac5:	48 8b 55 f8          	mov    -0x8(%rbp),%rdx
    bac9:	89 c1                	mov    %eax,%ecx
    bacb:	48 d3 e2             	shl    %cl,%rdx
    bace:	48 89 d0             	mov    %rdx,%rax
    bad1:	eb 04                	jmp    bad7 <safe_lshift_func_int64_t_s_u+0x4c>
    bad3:	48 8b 45 f8          	mov    -0x8(%rbp),%rax
    bad7:	5d                   	pop    %rbp
    bad8:	c3                   	retq   

000000000000bad9 <safe_rshift_func_int64_t_s_s>:
    bad9:	f3 0f 1e fa          	endbr64 
    badd:	55                   	push   %rbp
    bade:	48 89 e5             	mov    %rsp,%rbp
    bae1:	48 89 7d f8          	mov    %rdi,-0x8(%rbp)
    bae5:	89 75 f4             	mov    %esi,-0xc(%rbp)
    bae8:	48 83 7d f8 00       	cmpq   $0x0,-0x8(%rbp)
    baed:	78 1d                	js     bb0c <safe_rshift_func_int64_t_s_s+0x33>
    baef:	83 7d f4 00          	cmpl   $0x0,-0xc(%rbp)
    baf3:	78 17                	js     bb0c <safe_rshift_func_int64_t_s_s+0x33>
    baf5:	83 7d f4 1f          	cmpl   $0x1f,-0xc(%rbp)
    baf9:	7f 11                	jg     bb0c <safe_rshift_func_int64_t_s_s+0x33>
    bafb:	8b 45 f4             	mov    -0xc(%rbp),%eax
    bafe:	48 8b 55 f8          	mov    -0x8(%rbp),%rdx
    bb02:	89 c1                	mov    %eax,%ecx
    bb04:	48 d3 fa             	sar    %cl,%rdx
    bb07:	48 89 d0             	mov    %rdx,%rax
    bb0a:	eb 04                	jmp    bb10 <safe_rshift_func_int64_t_s_s+0x37>
    bb0c:	48 8b 45 f8          	mov    -0x8(%rbp),%rax
    bb10:	5d                   	pop    %rbp
    bb11:	c3                   	retq   

000000000000bb12 <safe_rshift_func_int64_t_s_u>:
    bb12:	f3 0f 1e fa          	endbr64 
    bb16:	55                   	push   %rbp
    bb17:	48 89 e5             	mov    %rsp,%rbp
    bb1a:	48 89 7d f8          	mov    %rdi,-0x8(%rbp)
    bb1e:	89 75 f4             	mov    %esi,-0xc(%rbp)
    bb21:	48 83 7d f8 00       	cmpq   $0x0,-0x8(%rbp)
    bb26:	78 17                	js     bb3f <safe_rshift_func_int64_t_s_u+0x2d>
    bb28:	83 7d f4 1f          	cmpl   $0x1f,-0xc(%rbp)
    bb2c:	77 11                	ja     bb3f <safe_rshift_func_int64_t_s_u+0x2d>
    bb2e:	8b 45 f4             	mov    -0xc(%rbp),%eax
    bb31:	48 8b 55 f8          	mov    -0x8(%rbp),%rdx
    bb35:	89 c1                	mov    %eax,%ecx
    bb37:	48 d3 fa             	sar    %cl,%rdx
    bb3a:	48 89 d0             	mov    %rdx,%rax
    bb3d:	eb 04                	jmp    bb43 <safe_rshift_func_int64_t_s_u+0x31>
    bb3f:	48 8b 45 f8          	mov    -0x8(%rbp),%rax
    bb43:	5d                   	pop    %rbp
    bb44:	c3                   	retq   

000000000000bb45 <safe_unary_minus_func_uint8_t_u>:
    bb45:	f3 0f 1e fa          	endbr64 
    bb49:	55                   	push   %rbp
    bb4a:	48 89 e5             	mov    %rsp,%rbp
    bb4d:	89 f8                	mov    %edi,%eax
    bb4f:	88 45 fc             	mov    %al,-0x4(%rbp)
    bb52:	0f b6 45 fc          	movzbl -0x4(%rbp),%eax
    bb56:	f7 d8                	neg    %eax
    bb58:	5d                   	pop    %rbp
    bb59:	c3                   	retq   

000000000000bb5a <safe_add_func_uint8_t_u_u>:
    bb5a:	f3 0f 1e fa          	endbr64 
    bb5e:	55                   	push   %rbp
    bb5f:	48 89 e5             	mov    %rsp,%rbp
    bb62:	89 fa                	mov    %edi,%edx
    bb64:	89 f0                	mov    %esi,%eax
    bb66:	88 55 fc             	mov    %dl,-0x4(%rbp)
    bb69:	88 45 f8             	mov    %al,-0x8(%rbp)
    bb6c:	0f b6 55 fc          	movzbl -0x4(%rbp),%edx
    bb70:	0f b6 45 f8          	movzbl -0x8(%rbp),%eax
    bb74:	01 d0                	add    %edx,%eax
    bb76:	5d                   	pop    %rbp
    bb77:	c3                   	retq   

000000000000bb78 <safe_sub_func_uint8_t_u_u>:
    bb78:	f3 0f 1e fa          	endbr64 
    bb7c:	55                   	push   %rbp
    bb7d:	48 89 e5             	mov    %rsp,%rbp
    bb80:	89 fa                	mov    %edi,%edx
    bb82:	89 f0                	mov    %esi,%eax
    bb84:	88 55 fc             	mov    %dl,-0x4(%rbp)
    bb87:	88 45 f8             	mov    %al,-0x8(%rbp)
    bb8a:	0f b6 45 fc          	movzbl -0x4(%rbp),%eax
    bb8e:	2a 45 f8             	sub    -0x8(%rbp),%al
    bb91:	5d                   	pop    %rbp
    bb92:	c3                   	retq   

000000000000bb93 <safe_mul_func_uint8_t_u_u>:
    bb93:	f3 0f 1e fa          	endbr64 
    bb97:	55                   	push   %rbp
    bb98:	48 89 e5             	mov    %rsp,%rbp
    bb9b:	89 fa                	mov    %edi,%edx
    bb9d:	89 f0                	mov    %esi,%eax
    bb9f:	88 55 fc             	mov    %dl,-0x4(%rbp)
    bba2:	88 45 f8             	mov    %al,-0x8(%rbp)
    bba5:	0f b6 45 fc          	movzbl -0x4(%rbp),%eax
    bba9:	f6 65 f8             	mulb   -0x8(%rbp)
    bbac:	5d                   	pop    %rbp
    bbad:	c3                   	retq   

000000000000bbae <safe_mod_func_uint8_t_u_u>:
    bbae:	f3 0f 1e fa          	endbr64 
    bbb2:	55                   	push   %rbp
    bbb3:	48 89 e5             	mov    %rsp,%rbp
    bbb6:	89 fa                	mov    %edi,%edx
    bbb8:	89 f0                	mov    %esi,%eax
    bbba:	88 55 fc             	mov    %dl,-0x4(%rbp)
    bbbd:	88 45 f8             	mov    %al,-0x8(%rbp)
    bbc0:	80 7d f8 00          	cmpb   $0x0,-0x8(%rbp)
    bbc4:	74 0f                	je     bbd5 <safe_mod_func_uint8_t_u_u+0x27>
    bbc6:	0f b6 45 fc          	movzbl -0x4(%rbp),%eax
    bbca:	0f b6 c0             	movzbl %al,%eax
    bbcd:	f6 75 f8             	divb   -0x8(%rbp)
    bbd0:	0f b6 c4             	movzbl %ah,%eax
    bbd3:	eb 04                	jmp    bbd9 <safe_mod_func_uint8_t_u_u+0x2b>
    bbd5:	0f b6 45 fc          	movzbl -0x4(%rbp),%eax
    bbd9:	5d                   	pop    %rbp
    bbda:	c3                   	retq   

000000000000bbdb <safe_div_func_uint8_t_u_u>:
    bbdb:	f3 0f 1e fa          	endbr64 
    bbdf:	55                   	push   %rbp
    bbe0:	48 89 e5             	mov    %rsp,%rbp
    bbe3:	89 fa                	mov    %edi,%edx
    bbe5:	89 f0                	mov    %esi,%eax
    bbe7:	88 55 fc             	mov    %dl,-0x4(%rbp)
    bbea:	88 45 f8             	mov    %al,-0x8(%rbp)
    bbed:	80 7d f8 00          	cmpb   $0x0,-0x8(%rbp)
    bbf1:	74 0c                	je     bbff <safe_div_func_uint8_t_u_u+0x24>
    bbf3:	0f b6 45 fc          	movzbl -0x4(%rbp),%eax
    bbf7:	0f b6 c0             	movzbl %al,%eax
    bbfa:	f6 75 f8             	divb   -0x8(%rbp)
    bbfd:	eb 04                	jmp    bc03 <safe_div_func_uint8_t_u_u+0x28>
    bbff:	0f b6 45 fc          	movzbl -0x4(%rbp),%eax
    bc03:	5d                   	pop    %rbp
    bc04:	c3                   	retq   

000000000000bc05 <safe_lshift_func_uint8_t_u_s>:
    bc05:	f3 0f 1e fa          	endbr64 
    bc09:	55                   	push   %rbp
    bc0a:	48 89 e5             	mov    %rsp,%rbp
    bc0d:	89 f8                	mov    %edi,%eax
    bc0f:	89 75 f8             	mov    %esi,-0x8(%rbp)
    bc12:	88 45 fc             	mov    %al,-0x4(%rbp)
    bc15:	83 7d f8 00          	cmpl   $0x0,-0x8(%rbp)
    bc19:	78 2b                	js     bc46 <safe_lshift_func_uint8_t_u_s+0x41>
    bc1b:	83 7d f8 1f          	cmpl   $0x1f,-0x8(%rbp)
    bc1f:	7f 25                	jg     bc46 <safe_lshift_func_uint8_t_u_s+0x41>
    bc21:	0f b6 55 fc          	movzbl -0x4(%rbp),%edx
    bc25:	8b 45 f8             	mov    -0x8(%rbp),%eax
    bc28:	be ff 00 00 00       	mov    $0xff,%esi
    bc2d:	89 c1                	mov    %eax,%ecx
    bc2f:	d3 fe                	sar    %cl,%esi
    bc31:	89 f0                	mov    %esi,%eax
    bc33:	39 c2                	cmp    %eax,%edx
    bc35:	7f 0f                	jg     bc46 <safe_lshift_func_uint8_t_u_s+0x41>
    bc37:	0f b6 55 fc          	movzbl -0x4(%rbp),%edx
    bc3b:	8b 45 f8             	mov    -0x8(%rbp),%eax
    bc3e:	89 c1                	mov    %eax,%ecx
    bc40:	d3 e2                	shl    %cl,%edx
    bc42:	89 d0                	mov    %edx,%eax
    bc44:	eb 04                	jmp    bc4a <safe_lshift_func_uint8_t_u_s+0x45>
    bc46:	0f b6 45 fc          	movzbl -0x4(%rbp),%eax
    bc4a:	5d                   	pop    %rbp
    bc4b:	c3                   	retq   

000000000000bc4c <safe_lshift_func_uint8_t_u_u>:
    bc4c:	f3 0f 1e fa          	endbr64 
    bc50:	55                   	push   %rbp
    bc51:	48 89 e5             	mov    %rsp,%rbp
    bc54:	89 f8                	mov    %edi,%eax
    bc56:	89 75 f8             	mov    %esi,-0x8(%rbp)
    bc59:	88 45 fc             	mov    %al,-0x4(%rbp)
    bc5c:	83 7d f8 1f          	cmpl   $0x1f,-0x8(%rbp)
    bc60:	77 25                	ja     bc87 <safe_lshift_func_uint8_t_u_u+0x3b>
    bc62:	0f b6 55 fc          	movzbl -0x4(%rbp),%edx
    bc66:	8b 45 f8             	mov    -0x8(%rbp),%eax
    bc69:	be ff 00 00 00       	mov    $0xff,%esi
    bc6e:	89 c1                	mov    %eax,%ecx
    bc70:	d3 fe                	sar    %cl,%esi
    bc72:	89 f0                	mov    %esi,%eax
    bc74:	39 c2                	cmp    %eax,%edx
    bc76:	7f 0f                	jg     bc87 <safe_lshift_func_uint8_t_u_u+0x3b>
    bc78:	0f b6 55 fc          	movzbl -0x4(%rbp),%edx
    bc7c:	8b 45 f8             	mov    -0x8(%rbp),%eax
    bc7f:	89 c1                	mov    %eax,%ecx
    bc81:	d3 e2                	shl    %cl,%edx
    bc83:	89 d0                	mov    %edx,%eax
    bc85:	eb 04                	jmp    bc8b <safe_lshift_func_uint8_t_u_u+0x3f>
    bc87:	0f b6 45 fc          	movzbl -0x4(%rbp),%eax
    bc8b:	5d                   	pop    %rbp
    bc8c:	c3                   	retq   

000000000000bc8d <safe_rshift_func_uint8_t_u_s>:
    bc8d:	f3 0f 1e fa          	endbr64 
    bc91:	55                   	push   %rbp
    bc92:	48 89 e5             	mov    %rsp,%rbp
    bc95:	89 f8                	mov    %edi,%eax
    bc97:	89 75 f8             	mov    %esi,-0x8(%rbp)
    bc9a:	88 45 fc             	mov    %al,-0x4(%rbp)
    bc9d:	83 7d f8 00          	cmpl   $0x0,-0x8(%rbp)
    bca1:	78 15                	js     bcb8 <safe_rshift_func_uint8_t_u_s+0x2b>
    bca3:	83 7d f8 1f          	cmpl   $0x1f,-0x8(%rbp)
    bca7:	7f 0f                	jg     bcb8 <safe_rshift_func_uint8_t_u_s+0x2b>
    bca9:	0f b6 55 fc          	movzbl -0x4(%rbp),%edx
    bcad:	8b 45 f8             	mov    -0x8(%rbp),%eax
    bcb0:	89 c1                	mov    %eax,%ecx
    bcb2:	d3 fa                	sar    %cl,%edx
    bcb4:	89 d0                	mov    %edx,%eax
    bcb6:	eb 04                	jmp    bcbc <safe_rshift_func_uint8_t_u_s+0x2f>
    bcb8:	0f b6 45 fc          	movzbl -0x4(%rbp),%eax
    bcbc:	5d                   	pop    %rbp
    bcbd:	c3                   	retq   

000000000000bcbe <safe_rshift_func_uint8_t_u_u>:
    bcbe:	f3 0f 1e fa          	endbr64 
    bcc2:	55                   	push   %rbp
    bcc3:	48 89 e5             	mov    %rsp,%rbp
    bcc6:	89 f8                	mov    %edi,%eax
    bcc8:	89 75 f8             	mov    %esi,-0x8(%rbp)
    bccb:	88 45 fc             	mov    %al,-0x4(%rbp)
    bcce:	83 7d f8 1f          	cmpl   $0x1f,-0x8(%rbp)
    bcd2:	77 0f                	ja     bce3 <safe_rshift_func_uint8_t_u_u+0x25>
    bcd4:	0f b6 55 fc          	movzbl -0x4(%rbp),%edx
    bcd8:	8b 45 f8             	mov    -0x8(%rbp),%eax
    bcdb:	89 c1                	mov    %eax,%ecx
    bcdd:	d3 fa                	sar    %cl,%edx
    bcdf:	89 d0                	mov    %edx,%eax
    bce1:	eb 04                	jmp    bce7 <safe_rshift_func_uint8_t_u_u+0x29>
    bce3:	0f b6 45 fc          	movzbl -0x4(%rbp),%eax
    bce7:	5d                   	pop    %rbp
    bce8:	c3                   	retq   

000000000000bce9 <safe_unary_minus_func_uint16_t_u>:
    bce9:	f3 0f 1e fa          	endbr64 
    bced:	55                   	push   %rbp
    bcee:	48 89 e5             	mov    %rsp,%rbp
    bcf1:	89 f8                	mov    %edi,%eax
    bcf3:	66 89 45 fc          	mov    %ax,-0x4(%rbp)
    bcf7:	0f b7 45 fc          	movzwl -0x4(%rbp),%eax
    bcfb:	f7 d8                	neg    %eax
    bcfd:	5d                   	pop    %rbp
    bcfe:	c3                   	retq   

000000000000bcff <safe_add_func_uint16_t_u_u>:
    bcff:	f3 0f 1e fa          	endbr64 
    bd03:	55                   	push   %rbp
    bd04:	48 89 e5             	mov    %rsp,%rbp
    bd07:	89 fa                	mov    %edi,%edx
    bd09:	89 f0                	mov    %esi,%eax
    bd0b:	66 89 55 fc          	mov    %dx,-0x4(%rbp)
    bd0f:	66 89 45 f8          	mov    %ax,-0x8(%rbp)
    bd13:	0f b7 55 fc          	movzwl -0x4(%rbp),%edx
    bd17:	0f b7 45 f8          	movzwl -0x8(%rbp),%eax
    bd1b:	01 d0                	add    %edx,%eax
    bd1d:	5d                   	pop    %rbp
    bd1e:	c3                   	retq   

000000000000bd1f <safe_sub_func_uint16_t_u_u>:
    bd1f:	f3 0f 1e fa          	endbr64 
    bd23:	55                   	push   %rbp
    bd24:	48 89 e5             	mov    %rsp,%rbp
    bd27:	89 fa                	mov    %edi,%edx
    bd29:	89 f0                	mov    %esi,%eax
    bd2b:	66 89 55 fc          	mov    %dx,-0x4(%rbp)
    bd2f:	66 89 45 f8          	mov    %ax,-0x8(%rbp)
    bd33:	0f b7 45 fc          	movzwl -0x4(%rbp),%eax
    bd37:	66 2b 45 f8          	sub    -0x8(%rbp),%ax
    bd3b:	5d                   	pop    %rbp
    bd3c:	c3                   	retq   

000000000000bd3d <safe_mul_func_uint16_t_u_u>:
    bd3d:	f3 0f 1e fa          	endbr64 
    bd41:	55                   	push   %rbp
    bd42:	48 89 e5             	mov    %rsp,%rbp
    bd45:	89 fa                	mov    %edi,%edx
    bd47:	89 f0                	mov    %esi,%eax
    bd49:	66 89 55 fc          	mov    %dx,-0x4(%rbp)
    bd4d:	66 89 45 f8          	mov    %ax,-0x8(%rbp)
    bd51:	0f b7 45 fc          	movzwl -0x4(%rbp),%eax
    bd55:	66 0f af 45 f8       	imul   -0x8(%rbp),%ax
    bd5a:	5d                   	pop    %rbp
    bd5b:	c3                   	retq   

000000000000bd5c <safe_mod_func_uint16_t_u_u>:
    bd5c:	f3 0f 1e fa          	endbr64 
    bd60:	55                   	push   %rbp
    bd61:	48 89 e5             	mov    %rsp,%rbp
    bd64:	89 fa                	mov    %edi,%edx
    bd66:	89 f0                	mov    %esi,%eax
    bd68:	66 89 55 fc          	mov    %dx,-0x4(%rbp)
    bd6c:	66 89 45 f8          	mov    %ax,-0x8(%rbp)
    bd70:	66 83 7d f8 00       	cmpw   $0x0,-0x8(%rbp)
    bd75:	74 11                	je     bd88 <safe_mod_func_uint16_t_u_u+0x2c>
    bd77:	0f b7 45 fc          	movzwl -0x4(%rbp),%eax
    bd7b:	ba 00 00 00 00       	mov    $0x0,%edx
    bd80:	66 f7 75 f8          	divw   -0x8(%rbp)
    bd84:	89 d0                	mov    %edx,%eax
    bd86:	eb 04                	jmp    bd8c <safe_mod_func_uint16_t_u_u+0x30>
    bd88:	0f b7 45 fc          	movzwl -0x4(%rbp),%eax
    bd8c:	5d                   	pop    %rbp
    bd8d:	c3                   	retq   

000000000000bd8e <safe_div_func_uint16_t_u_u>:
    bd8e:	f3 0f 1e fa          	endbr64 
    bd92:	55                   	push   %rbp
    bd93:	48 89 e5             	mov    %rsp,%rbp
    bd96:	89 fa                	mov    %edi,%edx
    bd98:	89 f0                	mov    %esi,%eax
    bd9a:	66 89 55 fc          	mov    %dx,-0x4(%rbp)
    bd9e:	66 89 45 f8          	mov    %ax,-0x8(%rbp)
    bda2:	66 83 7d f8 00       	cmpw   $0x0,-0x8(%rbp)
    bda7:	74 0f                	je     bdb8 <safe_div_func_uint16_t_u_u+0x2a>
    bda9:	0f b7 45 fc          	movzwl -0x4(%rbp),%eax
    bdad:	ba 00 00 00 00       	mov    $0x0,%edx
    bdb2:	66 f7 75 f8          	divw   -0x8(%rbp)
    bdb6:	eb 04                	jmp    bdbc <safe_div_func_uint16_t_u_u+0x2e>
    bdb8:	0f b7 45 fc          	movzwl -0x4(%rbp),%eax
    bdbc:	5d                   	pop    %rbp
    bdbd:	c3                   	retq   

000000000000bdbe <safe_lshift_func_uint16_t_u_s>:
    bdbe:	f3 0f 1e fa          	endbr64 
    bdc2:	55                   	push   %rbp
    bdc3:	48 89 e5             	mov    %rsp,%rbp
    bdc6:	89 f8                	mov    %edi,%eax
    bdc8:	89 75 f8             	mov    %esi,-0x8(%rbp)
    bdcb:	66 89 45 fc          	mov    %ax,-0x4(%rbp)
    bdcf:	83 7d f8 00          	cmpl   $0x0,-0x8(%rbp)
    bdd3:	78 2b                	js     be00 <safe_lshift_func_uint16_t_u_s+0x42>
    bdd5:	83 7d f8 1f          	cmpl   $0x1f,-0x8(%rbp)
    bdd9:	7f 25                	jg     be00 <safe_lshift_func_uint16_t_u_s+0x42>
    bddb:	0f b7 55 fc          	movzwl -0x4(%rbp),%edx
    bddf:	8b 45 f8             	mov    -0x8(%rbp),%eax
    bde2:	be ff ff 00 00       	mov    $0xffff,%esi
    bde7:	89 c1                	mov    %eax,%ecx
    bde9:	d3 fe                	sar    %cl,%esi
    bdeb:	89 f0                	mov    %esi,%eax
    bded:	39 c2                	cmp    %eax,%edx
    bdef:	7f 0f                	jg     be00 <safe_lshift_func_uint16_t_u_s+0x42>
    bdf1:	0f b7 55 fc          	movzwl -0x4(%rbp),%edx
    bdf5:	8b 45 f8             	mov    -0x8(%rbp),%eax
    bdf8:	89 c1                	mov    %eax,%ecx
    bdfa:	d3 e2                	shl    %cl,%edx
    bdfc:	89 d0                	mov    %edx,%eax
    bdfe:	eb 04                	jmp    be04 <safe_lshift_func_uint16_t_u_s+0x46>
    be00:	0f b7 45 fc          	movzwl -0x4(%rbp),%eax
    be04:	5d                   	pop    %rbp
    be05:	c3                   	retq   

000000000000be06 <safe_lshift_func_uint16_t_u_u>:
    be06:	f3 0f 1e fa          	endbr64 
    be0a:	55                   	push   %rbp
    be0b:	48 89 e5             	mov    %rsp,%rbp
    be0e:	89 f8                	mov    %edi,%eax
    be10:	89 75 f8             	mov    %esi,-0x8(%rbp)
    be13:	66 89 45 fc          	mov    %ax,-0x4(%rbp)
    be17:	83 7d f8 1f          	cmpl   $0x1f,-0x8(%rbp)
    be1b:	77 25                	ja     be42 <safe_lshift_func_uint16_t_u_u+0x3c>
    be1d:	0f b7 55 fc          	movzwl -0x4(%rbp),%edx
    be21:	8b 45 f8             	mov    -0x8(%rbp),%eax
    be24:	be ff ff 00 00       	mov    $0xffff,%esi
    be29:	89 c1                	mov    %eax,%ecx
    be2b:	d3 fe                	sar    %cl,%esi
    be2d:	89 f0                	mov    %esi,%eax
    be2f:	39 c2                	cmp    %eax,%edx
    be31:	7f 0f                	jg     be42 <safe_lshift_func_uint16_t_u_u+0x3c>
    be33:	0f b7 55 fc          	movzwl -0x4(%rbp),%edx
    be37:	8b 45 f8             	mov    -0x8(%rbp),%eax
    be3a:	89 c1                	mov    %eax,%ecx
    be3c:	d3 e2                	shl    %cl,%edx
    be3e:	89 d0                	mov    %edx,%eax
    be40:	eb 04                	jmp    be46 <safe_lshift_func_uint16_t_u_u+0x40>
    be42:	0f b7 45 fc          	movzwl -0x4(%rbp),%eax
    be46:	5d                   	pop    %rbp
    be47:	c3                   	retq   

000000000000be48 <safe_rshift_func_uint16_t_u_s>:
    be48:	f3 0f 1e fa          	endbr64 
    be4c:	55                   	push   %rbp
    be4d:	48 89 e5             	mov    %rsp,%rbp
    be50:	89 f8                	mov    %edi,%eax
    be52:	89 75 f8             	mov    %esi,-0x8(%rbp)
    be55:	66 89 45 fc          	mov    %ax,-0x4(%rbp)
    be59:	83 7d f8 00          	cmpl   $0x0,-0x8(%rbp)
    be5d:	78 15                	js     be74 <safe_rshift_func_uint16_t_u_s+0x2c>
    be5f:	83 7d f8 1f          	cmpl   $0x1f,-0x8(%rbp)
    be63:	7f 0f                	jg     be74 <safe_rshift_func_uint16_t_u_s+0x2c>
    be65:	0f b7 55 fc          	movzwl -0x4(%rbp),%edx
    be69:	8b 45 f8             	mov    -0x8(%rbp),%eax
    be6c:	89 c1                	mov    %eax,%ecx
    be6e:	d3 fa                	sar    %cl,%edx
    be70:	89 d0                	mov    %edx,%eax
    be72:	eb 04                	jmp    be78 <safe_rshift_func_uint16_t_u_s+0x30>
    be74:	0f b7 45 fc          	movzwl -0x4(%rbp),%eax
    be78:	5d                   	pop    %rbp
    be79:	c3                   	retq   

000000000000be7a <safe_rshift_func_uint16_t_u_u>:
    be7a:	f3 0f 1e fa          	endbr64 
    be7e:	55                   	push   %rbp
    be7f:	48 89 e5             	mov    %rsp,%rbp
    be82:	89 f8                	mov    %edi,%eax
    be84:	89 75 f8             	mov    %esi,-0x8(%rbp)
    be87:	66 89 45 fc          	mov    %ax,-0x4(%rbp)
    be8b:	83 7d f8 1f          	cmpl   $0x1f,-0x8(%rbp)
    be8f:	77 0f                	ja     bea0 <safe_rshift_func_uint16_t_u_u+0x26>
    be91:	0f b7 55 fc          	movzwl -0x4(%rbp),%edx
    be95:	8b 45 f8             	mov    -0x8(%rbp),%eax
    be98:	89 c1                	mov    %eax,%ecx
    be9a:	d3 fa                	sar    %cl,%edx
    be9c:	89 d0                	mov    %edx,%eax
    be9e:	eb 04                	jmp    bea4 <safe_rshift_func_uint16_t_u_u+0x2a>
    bea0:	0f b7 45 fc          	movzwl -0x4(%rbp),%eax
    bea4:	5d                   	pop    %rbp
    bea5:	c3                   	retq   

000000000000bea6 <safe_unary_minus_func_uint32_t_u>:
    bea6:	f3 0f 1e fa          	endbr64 
    beaa:	55                   	push   %rbp
    beab:	48 89 e5             	mov    %rsp,%rbp
    beae:	89 7d fc             	mov    %edi,-0x4(%rbp)
    beb1:	8b 45 fc             	mov    -0x4(%rbp),%eax
    beb4:	f7 d8                	neg    %eax
    beb6:	5d                   	pop    %rbp
    beb7:	c3                   	retq   

000000000000beb8 <safe_add_func_uint32_t_u_u>:
    beb8:	f3 0f 1e fa          	endbr64 
    bebc:	55                   	push   %rbp
    bebd:	48 89 e5             	mov    %rsp,%rbp
    bec0:	89 7d fc             	mov    %edi,-0x4(%rbp)
    bec3:	89 75 f8             	mov    %esi,-0x8(%rbp)
    bec6:	8b 55 fc             	mov    -0x4(%rbp),%edx
    bec9:	8b 45 f8             	mov    -0x8(%rbp),%eax
    becc:	01 d0                	add    %edx,%eax
    bece:	5d                   	pop    %rbp
    becf:	c3                   	retq   

000000000000bed0 <safe_sub_func_uint32_t_u_u>:
    bed0:	f3 0f 1e fa          	endbr64 
    bed4:	55                   	push   %rbp
    bed5:	48 89 e5             	mov    %rsp,%rbp
    bed8:	89 7d fc             	mov    %edi,-0x4(%rbp)
    bedb:	89 75 f8             	mov    %esi,-0x8(%rbp)
    bede:	8b 45 fc             	mov    -0x4(%rbp),%eax
    bee1:	2b 45 f8             	sub    -0x8(%rbp),%eax
    bee4:	5d                   	pop    %rbp
    bee5:	c3                   	retq   

000000000000bee6 <safe_mul_func_uint32_t_u_u>:
    bee6:	f3 0f 1e fa          	endbr64 
    beea:	55                   	push   %rbp
    beeb:	48 89 e5             	mov    %rsp,%rbp
    beee:	89 7d fc             	mov    %edi,-0x4(%rbp)
    bef1:	89 75 f8             	mov    %esi,-0x8(%rbp)
    bef4:	8b 45 fc             	mov    -0x4(%rbp),%eax
    bef7:	0f af 45 f8          	imul   -0x8(%rbp),%eax
    befb:	5d                   	pop    %rbp
    befc:	c3                   	retq   

000000000000befd <safe_mod_func_uint32_t_u_u>:
    befd:	f3 0f 1e fa          	endbr64 
    bf01:	55                   	push   %rbp
    bf02:	48 89 e5             	mov    %rsp,%rbp
    bf05:	89 7d fc             	mov    %edi,-0x4(%rbp)
    bf08:	89 75 f8             	mov    %esi,-0x8(%rbp)
    bf0b:	83 7d f8 00          	cmpl   $0x0,-0x8(%rbp)
    bf0f:	74 0f                	je     bf20 <safe_mod_func_uint32_t_u_u+0x23>
    bf11:	8b 45 fc             	mov    -0x4(%rbp),%eax
    bf14:	ba 00 00 00 00       	mov    $0x0,%edx
    bf19:	f7 75 f8             	divl   -0x8(%rbp)
    bf1c:	89 d0                	mov    %edx,%eax
    bf1e:	eb 03                	jmp    bf23 <safe_mod_func_uint32_t_u_u+0x26>
    bf20:	8b 45 fc             	mov    -0x4(%rbp),%eax
    bf23:	5d                   	pop    %rbp
    bf24:	c3                   	retq   

000000000000bf25 <safe_div_func_uint32_t_u_u>:
    bf25:	f3 0f 1e fa          	endbr64 
    bf29:	55                   	push   %rbp
    bf2a:	48 89 e5             	mov    %rsp,%rbp
    bf2d:	89 7d fc             	mov    %edi,-0x4(%rbp)
    bf30:	89 75 f8             	mov    %esi,-0x8(%rbp)
    bf33:	83 7d f8 00          	cmpl   $0x0,-0x8(%rbp)
    bf37:	74 0d                	je     bf46 <safe_div_func_uint32_t_u_u+0x21>
    bf39:	8b 45 fc             	mov    -0x4(%rbp),%eax
    bf3c:	ba 00 00 00 00       	mov    $0x0,%edx
    bf41:	f7 75 f8             	divl   -0x8(%rbp)
    bf44:	eb 03                	jmp    bf49 <safe_div_func_uint32_t_u_u+0x24>
    bf46:	8b 45 fc             	mov    -0x4(%rbp),%eax
    bf49:	5d                   	pop    %rbp
    bf4a:	c3                   	retq   

000000000000bf4b <safe_lshift_func_uint32_t_u_s>:
    bf4b:	f3 0f 1e fa          	endbr64 
    bf4f:	55                   	push   %rbp
    bf50:	48 89 e5             	mov    %rsp,%rbp
    bf53:	89 7d fc             	mov    %edi,-0x4(%rbp)
    bf56:	89 75 f8             	mov    %esi,-0x8(%rbp)
    bf59:	83 7d f8 00          	cmpl   $0x0,-0x8(%rbp)
    bf5d:	78 27                	js     bf86 <safe_lshift_func_uint32_t_u_s+0x3b>
    bf5f:	83 7d f8 1f          	cmpl   $0x1f,-0x8(%rbp)
    bf63:	7f 21                	jg     bf86 <safe_lshift_func_uint32_t_u_s+0x3b>
    bf65:	8b 45 f8             	mov    -0x8(%rbp),%eax
    bf68:	ba ff ff ff ff       	mov    $0xffffffff,%edx
    bf6d:	89 c1                	mov    %eax,%ecx
    bf6f:	d3 ea                	shr    %cl,%edx
    bf71:	89 d0                	mov    %edx,%eax
    bf73:	39 45 fc             	cmp    %eax,-0x4(%rbp)
    bf76:	77 0e                	ja     bf86 <safe_lshift_func_uint32_t_u_s+0x3b>
    bf78:	8b 45 f8             	mov    -0x8(%rbp),%eax
    bf7b:	8b 55 fc             	mov    -0x4(%rbp),%edx
    bf7e:	89 c1                	mov    %eax,%ecx
    bf80:	d3 e2                	shl    %cl,%edx
    bf82:	89 d0                	mov    %edx,%eax
    bf84:	eb 03                	jmp    bf89 <safe_lshift_func_uint32_t_u_s+0x3e>
    bf86:	8b 45 fc             	mov    -0x4(%rbp),%eax
    bf89:	5d                   	pop    %rbp
    bf8a:	c3                   	retq   

000000000000bf8b <safe_lshift_func_uint32_t_u_u>:
    bf8b:	f3 0f 1e fa          	endbr64 
    bf8f:	55                   	push   %rbp
    bf90:	48 89 e5             	mov    %rsp,%rbp
    bf93:	89 7d fc             	mov    %edi,-0x4(%rbp)
    bf96:	89 75 f8             	mov    %esi,-0x8(%rbp)
    bf99:	83 7d f8 1f          	cmpl   $0x1f,-0x8(%rbp)
    bf9d:	77 21                	ja     bfc0 <safe_lshift_func_uint32_t_u_u+0x35>
    bf9f:	8b 45 f8             	mov    -0x8(%rbp),%eax
    bfa2:	ba ff ff ff ff       	mov    $0xffffffff,%edx
    bfa7:	89 c1                	mov    %eax,%ecx
    bfa9:	d3 ea                	shr    %cl,%edx
    bfab:	89 d0                	mov    %edx,%eax
    bfad:	39 45 fc             	cmp    %eax,-0x4(%rbp)
    bfb0:	77 0e                	ja     bfc0 <safe_lshift_func_uint32_t_u_u+0x35>
    bfb2:	8b 45 f8             	mov    -0x8(%rbp),%eax
    bfb5:	8b 55 fc             	mov    -0x4(%rbp),%edx
    bfb8:	89 c1                	mov    %eax,%ecx
    bfba:	d3 e2                	shl    %cl,%edx
    bfbc:	89 d0                	mov    %edx,%eax
    bfbe:	eb 03                	jmp    bfc3 <safe_lshift_func_uint32_t_u_u+0x38>
    bfc0:	8b 45 fc             	mov    -0x4(%rbp),%eax
    bfc3:	5d                   	pop    %rbp
    bfc4:	c3                   	retq   

000000000000bfc5 <safe_rshift_func_uint32_t_u_s>:
    bfc5:	f3 0f 1e fa          	endbr64 
    bfc9:	55                   	push   %rbp
    bfca:	48 89 e5             	mov    %rsp,%rbp
    bfcd:	89 7d fc             	mov    %edi,-0x4(%rbp)
    bfd0:	89 75 f8             	mov    %esi,-0x8(%rbp)
    bfd3:	83 7d f8 00          	cmpl   $0x0,-0x8(%rbp)
    bfd7:	78 14                	js     bfed <safe_rshift_func_uint32_t_u_s+0x28>
    bfd9:	83 7d f8 1f          	cmpl   $0x1f,-0x8(%rbp)
    bfdd:	7f 0e                	jg     bfed <safe_rshift_func_uint32_t_u_s+0x28>
    bfdf:	8b 45 f8             	mov    -0x8(%rbp),%eax
    bfe2:	8b 55 fc             	mov    -0x4(%rbp),%edx
    bfe5:	89 c1                	mov    %eax,%ecx
    bfe7:	d3 ea                	shr    %cl,%edx
    bfe9:	89 d0                	mov    %edx,%eax
    bfeb:	eb 03                	jmp    bff0 <safe_rshift_func_uint32_t_u_s+0x2b>
    bfed:	8b 45 fc             	mov    -0x4(%rbp),%eax
    bff0:	5d                   	pop    %rbp
    bff1:	c3                   	retq   

000000000000bff2 <safe_rshift_func_uint32_t_u_u>:
    bff2:	f3 0f 1e fa          	endbr64 
    bff6:	55                   	push   %rbp
    bff7:	48 89 e5             	mov    %rsp,%rbp
    bffa:	89 7d fc             	mov    %edi,-0x4(%rbp)
    bffd:	89 75 f8             	mov    %esi,-0x8(%rbp)
    c000:	83 7d f8 1f          	cmpl   $0x1f,-0x8(%rbp)
    c004:	77 0e                	ja     c014 <safe_rshift_func_uint32_t_u_u+0x22>
    c006:	8b 45 f8             	mov    -0x8(%rbp),%eax
    c009:	8b 55 fc             	mov    -0x4(%rbp),%edx
    c00c:	89 c1                	mov    %eax,%ecx
    c00e:	d3 ea                	shr    %cl,%edx
    c010:	89 d0                	mov    %edx,%eax
    c012:	eb 03                	jmp    c017 <safe_rshift_func_uint32_t_u_u+0x25>
    c014:	8b 45 fc             	mov    -0x4(%rbp),%eax
    c017:	5d                   	pop    %rbp
    c018:	c3                   	retq   

000000000000c019 <safe_unary_minus_func_uint64_t_u>:
    c019:	f3 0f 1e fa          	endbr64 
    c01d:	55                   	push   %rbp
    c01e:	48 89 e5             	mov    %rsp,%rbp
    c021:	48 89 7d f8          	mov    %rdi,-0x8(%rbp)
    c025:	48 8b 45 f8          	mov    -0x8(%rbp),%rax
    c029:	48 f7 d8             	neg    %rax
    c02c:	5d                   	pop    %rbp
    c02d:	c3                   	retq   

000000000000c02e <safe_add_func_uint64_t_u_u>:
    c02e:	f3 0f 1e fa          	endbr64 
    c032:	55                   	push   %rbp
    c033:	48 89 e5             	mov    %rsp,%rbp
    c036:	48 89 7d f8          	mov    %rdi,-0x8(%rbp)
    c03a:	48 89 75 f0          	mov    %rsi,-0x10(%rbp)
    c03e:	48 8b 55 f8          	mov    -0x8(%rbp),%rdx
    c042:	48 8b 45 f0          	mov    -0x10(%rbp),%rax
    c046:	48 01 d0             	add    %rdx,%rax
    c049:	5d                   	pop    %rbp
    c04a:	c3                   	retq   

000000000000c04b <safe_sub_func_uint64_t_u_u>:
    c04b:	f3 0f 1e fa          	endbr64 
    c04f:	55                   	push   %rbp
    c050:	48 89 e5             	mov    %rsp,%rbp
    c053:	48 89 7d f8          	mov    %rdi,-0x8(%rbp)
    c057:	48 89 75 f0          	mov    %rsi,-0x10(%rbp)
    c05b:	48 8b 45 f8          	mov    -0x8(%rbp),%rax
    c05f:	48 2b 45 f0          	sub    -0x10(%rbp),%rax
    c063:	5d                   	pop    %rbp
    c064:	c3                   	retq   

000000000000c065 <safe_mul_func_uint64_t_u_u>:
    c065:	f3 0f 1e fa          	endbr64 
    c069:	55                   	push   %rbp
    c06a:	48 89 e5             	mov    %rsp,%rbp
    c06d:	48 89 7d f8          	mov    %rdi,-0x8(%rbp)
    c071:	48 89 75 f0          	mov    %rsi,-0x10(%rbp)
    c075:	48 8b 45 f8          	mov    -0x8(%rbp),%rax
    c079:	48 0f af 45 f0       	imul   -0x10(%rbp),%rax
    c07e:	5d                   	pop    %rbp
    c07f:	c3                   	retq   

000000000000c080 <safe_mod_func_uint64_t_u_u>:
    c080:	f3 0f 1e fa          	endbr64 
    c084:	55                   	push   %rbp
    c085:	48 89 e5             	mov    %rsp,%rbp
    c088:	48 89 7d f8          	mov    %rdi,-0x8(%rbp)
    c08c:	48 89 75 f0          	mov    %rsi,-0x10(%rbp)
    c090:	48 83 7d f0 00       	cmpq   $0x0,-0x10(%rbp)
    c095:	74 12                	je     c0a9 <safe_mod_func_uint64_t_u_u+0x29>
    c097:	48 8b 45 f8          	mov    -0x8(%rbp),%rax
    c09b:	ba 00 00 00 00       	mov    $0x0,%edx
    c0a0:	48 f7 75 f0          	divq   -0x10(%rbp)
    c0a4:	48 89 d0             	mov    %rdx,%rax
    c0a7:	eb 04                	jmp    c0ad <safe_mod_func_uint64_t_u_u+0x2d>
    c0a9:	48 8b 45 f8          	mov    -0x8(%rbp),%rax
    c0ad:	5d                   	pop    %rbp
    c0ae:	c3                   	retq   

000000000000c0af <safe_div_func_uint64_t_u_u>:
    c0af:	f3 0f 1e fa          	endbr64 
    c0b3:	55                   	push   %rbp
    c0b4:	48 89 e5             	mov    %rsp,%rbp
    c0b7:	48 89 7d f8          	mov    %rdi,-0x8(%rbp)
    c0bb:	48 89 75 f0          	mov    %rsi,-0x10(%rbp)
    c0bf:	48 83 7d f0 00       	cmpq   $0x0,-0x10(%rbp)
    c0c4:	74 0f                	je     c0d5 <safe_div_func_uint64_t_u_u+0x26>
    c0c6:	48 8b 45 f8          	mov    -0x8(%rbp),%rax
    c0ca:	ba 00 00 00 00       	mov    $0x0,%edx
    c0cf:	48 f7 75 f0          	divq   -0x10(%rbp)
    c0d3:	eb 04                	jmp    c0d9 <safe_div_func_uint64_t_u_u+0x2a>
    c0d5:	48 8b 45 f8          	mov    -0x8(%rbp),%rax
    c0d9:	5d                   	pop    %rbp
    c0da:	c3                   	retq   

000000000000c0db <safe_lshift_func_uint64_t_u_s>:
    c0db:	f3 0f 1e fa          	endbr64 
    c0df:	55                   	push   %rbp
    c0e0:	48 89 e5             	mov    %rsp,%rbp
    c0e3:	48 89 7d f8          	mov    %rdi,-0x8(%rbp)
    c0e7:	89 75 f4             	mov    %esi,-0xc(%rbp)
    c0ea:	83 7d f4 00          	cmpl   $0x0,-0xc(%rbp)
    c0ee:	78 2f                	js     c11f <safe_lshift_func_uint64_t_u_s+0x44>
    c0f0:	83 7d f4 1f          	cmpl   $0x1f,-0xc(%rbp)
    c0f4:	7f 29                	jg     c11f <safe_lshift_func_uint64_t_u_s+0x44>
    c0f6:	8b 45 f4             	mov    -0xc(%rbp),%eax
    c0f9:	48 c7 c2 ff ff ff ff 	mov    $0xffffffffffffffff,%rdx
    c100:	89 c1                	mov    %eax,%ecx
    c102:	48 d3 ea             	shr    %cl,%rdx
    c105:	48 89 d0             	mov    %rdx,%rax
    c108:	48 39 45 f8          	cmp    %rax,-0x8(%rbp)
    c10c:	77 11                	ja     c11f <safe_lshift_func_uint64_t_u_s+0x44>
    c10e:	8b 45 f4             	mov    -0xc(%rbp),%eax
    c111:	48 8b 55 f8          	mov    -0x8(%rbp),%rdx
    c115:	89 c1                	mov    %eax,%ecx
    c117:	48 d3 e2             	shl    %cl,%rdx
    c11a:	48 89 d0             	mov    %rdx,%rax
    c11d:	eb 04                	jmp    c123 <safe_lshift_func_uint64_t_u_s+0x48>
    c11f:	48 8b 45 f8          	mov    -0x8(%rbp),%rax
    c123:	5d                   	pop    %rbp
    c124:	c3                   	retq   

000000000000c125 <safe_lshift_func_uint64_t_u_u>:
    c125:	f3 0f 1e fa          	endbr64 
    c129:	55                   	push   %rbp
    c12a:	48 89 e5             	mov    %rsp,%rbp
    c12d:	48 89 7d f8          	mov    %rdi,-0x8(%rbp)
    c131:	89 75 f4             	mov    %esi,-0xc(%rbp)
    c134:	83 7d f4 1f          	cmpl   $0x1f,-0xc(%rbp)
    c138:	77 29                	ja     c163 <safe_lshift_func_uint64_t_u_u+0x3e>
    c13a:	8b 45 f4             	mov    -0xc(%rbp),%eax
    c13d:	48 c7 c2 ff ff ff ff 	mov    $0xffffffffffffffff,%rdx
    c144:	89 c1                	mov    %eax,%ecx
    c146:	48 d3 ea             	shr    %cl,%rdx
    c149:	48 89 d0             	mov    %rdx,%rax
    c14c:	48 39 45 f8          	cmp    %rax,-0x8(%rbp)
    c150:	77 11                	ja     c163 <safe_lshift_func_uint64_t_u_u+0x3e>
    c152:	8b 45 f4             	mov    -0xc(%rbp),%eax
    c155:	48 8b 55 f8          	mov    -0x8(%rbp),%rdx
    c159:	89 c1                	mov    %eax,%ecx
    c15b:	48 d3 e2             	shl    %cl,%rdx
    c15e:	48 89 d0             	mov    %rdx,%rax
    c161:	eb 04                	jmp    c167 <safe_lshift_func_uint64_t_u_u+0x42>
    c163:	48 8b 45 f8          	mov    -0x8(%rbp),%rax
    c167:	5d                   	pop    %rbp
    c168:	c3                   	retq   

000000000000c169 <safe_rshift_func_uint64_t_u_s>:
    c169:	f3 0f 1e fa          	endbr64 
    c16d:	55                   	push   %rbp
    c16e:	48 89 e5             	mov    %rsp,%rbp
    c171:	48 89 7d f8          	mov    %rdi,-0x8(%rbp)
    c175:	89 75 f4             	mov    %esi,-0xc(%rbp)
    c178:	83 7d f4 00          	cmpl   $0x0,-0xc(%rbp)
    c17c:	78 17                	js     c195 <safe_rshift_func_uint64_t_u_s+0x2c>
    c17e:	83 7d f4 1f          	cmpl   $0x1f,-0xc(%rbp)
    c182:	7f 11                	jg     c195 <safe_rshift_func_uint64_t_u_s+0x2c>
    c184:	8b 45 f4             	mov    -0xc(%rbp),%eax
    c187:	48 8b 55 f8          	mov    -0x8(%rbp),%rdx
    c18b:	89 c1                	mov    %eax,%ecx
    c18d:	48 d3 ea             	shr    %cl,%rdx
    c190:	48 89 d0             	mov    %rdx,%rax
    c193:	eb 04                	jmp    c199 <safe_rshift_func_uint64_t_u_s+0x30>
    c195:	48 8b 45 f8          	mov    -0x8(%rbp),%rax
    c199:	5d                   	pop    %rbp
    c19a:	c3                   	retq   

000000000000c19b <safe_rshift_func_uint64_t_u_u>:
    c19b:	f3 0f 1e fa          	endbr64 
    c19f:	55                   	push   %rbp
    c1a0:	48 89 e5             	mov    %rsp,%rbp
    c1a3:	48 89 7d f8          	mov    %rdi,-0x8(%rbp)
    c1a7:	89 75 f4             	mov    %esi,-0xc(%rbp)
    c1aa:	83 7d f4 1f          	cmpl   $0x1f,-0xc(%rbp)
    c1ae:	77 11                	ja     c1c1 <safe_rshift_func_uint64_t_u_u+0x26>
    c1b0:	8b 45 f4             	mov    -0xc(%rbp),%eax
    c1b3:	48 8b 55 f8          	mov    -0x8(%rbp),%rdx
    c1b7:	89 c1                	mov    %eax,%ecx
    c1b9:	48 d3 ea             	shr    %cl,%rdx
    c1bc:	48 89 d0             	mov    %rdx,%rax
    c1bf:	eb 04                	jmp    c1c5 <safe_rshift_func_uint64_t_u_u+0x2a>
    c1c1:	48 8b 45 f8          	mov    -0x8(%rbp),%rax
    c1c5:	5d                   	pop    %rbp
    c1c6:	c3                   	retq   

000000000000c1c7 <safe_add_func_float_f_f>:
    c1c7:	f3 0f 1e fa          	endbr64 
    c1cb:	55                   	push   %rbp
    c1cc:	48 89 e5             	mov    %rsp,%rbp
    c1cf:	f3 0f 11 45 fc       	movss  %xmm0,-0x4(%rbp)
    c1d4:	f3 0f 11 4d f8       	movss  %xmm1,-0x8(%rbp)
    c1d9:	f3 0f 10 4d fc       	movss  -0x4(%rbp),%xmm1
    c1de:	f3 0f 10 05 de 5e 01 	movss  0x15ede(%rip),%xmm0        # 220c4 <l_1614.5228+0x24>
    c1e5:	00 
    c1e6:	f3 0f 59 c8          	mulss  %xmm0,%xmm1
    c1ea:	f3 0f 10 55 f8       	movss  -0x8(%rbp),%xmm2
    c1ef:	f3 0f 10 05 cd 5e 01 	movss  0x15ecd(%rip),%xmm0        # 220c4 <l_1614.5228+0x24>
    c1f6:	00 
    c1f7:	f3 0f 59 c2          	mulss  %xmm2,%xmm0
    c1fb:	f3 0f 58 c1          	addss  %xmm1,%xmm0
    c1ff:	f3 0f 10 0d c9 5e 01 	movss  0x15ec9(%rip),%xmm1        # 220d0 <l_1614.5228+0x30>
    c206:	00 
    c207:	0f 54 c1             	andps  %xmm1,%xmm0
    c20a:	0f 2f 05 cf 5e 01 00 	comiss 0x15ecf(%rip),%xmm0        # 220e0 <l_1614.5228+0x40>
    c211:	76 07                	jbe    c21a <safe_add_func_float_f_f+0x53>
    c213:	f3 0f 10 45 fc       	movss  -0x4(%rbp),%xmm0
    c218:	eb 0a                	jmp    c224 <safe_add_func_float_f_f+0x5d>
    c21a:	f3 0f 10 45 fc       	movss  -0x4(%rbp),%xmm0
    c21f:	f3 0f 58 45 f8       	addss  -0x8(%rbp),%xmm0
    c224:	5d                   	pop    %rbp
    c225:	c3                   	retq   

000000000000c226 <safe_sub_func_float_f_f>:
    c226:	f3 0f 1e fa          	endbr64 
    c22a:	55                   	push   %rbp
    c22b:	48 89 e5             	mov    %rsp,%rbp
    c22e:	f3 0f 11 45 fc       	movss  %xmm0,-0x4(%rbp)
    c233:	f3 0f 11 4d f8       	movss  %xmm1,-0x8(%rbp)
    c238:	f3 0f 10 4d fc       	movss  -0x4(%rbp),%xmm1
    c23d:	f3 0f 10 05 7f 5e 01 	movss  0x15e7f(%rip),%xmm0        # 220c4 <l_1614.5228+0x24>
    c244:	00 
    c245:	f3 0f 59 c1          	mulss  %xmm1,%xmm0
    c249:	f3 0f 10 55 f8       	movss  -0x8(%rbp),%xmm2
    c24e:	f3 0f 10 0d 6e 5e 01 	movss  0x15e6e(%rip),%xmm1        # 220c4 <l_1614.5228+0x24>
    c255:	00 
    c256:	f3 0f 59 ca          	mulss  %xmm2,%xmm1
    c25a:	f3 0f 5c c1          	subss  %xmm1,%xmm0
    c25e:	f3 0f 10 0d 6a 5e 01 	movss  0x15e6a(%rip),%xmm1        # 220d0 <l_1614.5228+0x30>
    c265:	00 
    c266:	0f 54 c1             	andps  %xmm1,%xmm0
    c269:	0f 2f 05 70 5e 01 00 	comiss 0x15e70(%rip),%xmm0        # 220e0 <l_1614.5228+0x40>
    c270:	76 07                	jbe    c279 <safe_sub_func_float_f_f+0x53>
    c272:	f3 0f 10 45 fc       	movss  -0x4(%rbp),%xmm0
    c277:	eb 0a                	jmp    c283 <safe_sub_func_float_f_f+0x5d>
    c279:	f3 0f 10 45 fc       	movss  -0x4(%rbp),%xmm0
    c27e:	f3 0f 5c 45 f8       	subss  -0x8(%rbp),%xmm0
    c283:	5d                   	pop    %rbp
    c284:	c3                   	retq   

000000000000c285 <safe_mul_func_float_f_f>:
    c285:	f3 0f 1e fa          	endbr64 
    c289:	55                   	push   %rbp
    c28a:	48 89 e5             	mov    %rsp,%rbp
    c28d:	f3 0f 11 45 fc       	movss  %xmm0,-0x4(%rbp)
    c292:	f3 0f 11 4d f8       	movss  %xmm1,-0x8(%rbp)
    c297:	f3 0f 10 4d fc       	movss  -0x4(%rbp),%xmm1
    c29c:	f3 0f 10 05 40 5e 01 	movss  0x15e40(%rip),%xmm0        # 220e4 <l_1614.5228+0x44>
    c2a3:	00 
    c2a4:	f3 0f 59 c8          	mulss  %xmm0,%xmm1
    c2a8:	f3 0f 10 55 f8       	movss  -0x8(%rbp),%xmm2
    c2ad:	f3 0f 10 05 33 5e 01 	movss  0x15e33(%rip),%xmm0        # 220e8 <l_1614.5228+0x48>
    c2b4:	00 
    c2b5:	f3 0f 59 c2          	mulss  %xmm2,%xmm0
    c2b9:	f3 0f 59 c1          	mulss  %xmm1,%xmm0
    c2bd:	f3 0f 10 0d 0b 5e 01 	movss  0x15e0b(%rip),%xmm1        # 220d0 <l_1614.5228+0x30>
    c2c4:	00 
    c2c5:	0f 54 c1             	andps  %xmm1,%xmm0
    c2c8:	0f 2f 05 1d 5e 01 00 	comiss 0x15e1d(%rip),%xmm0        # 220ec <l_1614.5228+0x4c>
    c2cf:	76 07                	jbe    c2d8 <safe_mul_func_float_f_f+0x53>
    c2d1:	f3 0f 10 45 fc       	movss  -0x4(%rbp),%xmm0
    c2d6:	eb 0a                	jmp    c2e2 <safe_mul_func_float_f_f+0x5d>
    c2d8:	f3 0f 10 45 fc       	movss  -0x4(%rbp),%xmm0
    c2dd:	f3 0f 59 45 f8       	mulss  -0x8(%rbp),%xmm0
    c2e2:	5d                   	pop    %rbp
    c2e3:	c3                   	retq   

000000000000c2e4 <safe_div_func_float_f_f>:
    c2e4:	f3 0f 1e fa          	endbr64 
    c2e8:	55                   	push   %rbp
    c2e9:	48 89 e5             	mov    %rsp,%rbp
    c2ec:	f3 0f 11 45 fc       	movss  %xmm0,-0x4(%rbp)
    c2f1:	f3 0f 11 4d f8       	movss  %xmm1,-0x8(%rbp)
    c2f6:	f3 0f 10 45 f8       	movss  -0x8(%rbp),%xmm0
    c2fb:	f3 0f 10 0d cd 5d 01 	movss  0x15dcd(%rip),%xmm1        # 220d0 <l_1614.5228+0x30>
    c302:	00 
    c303:	0f 54 c8             	andps  %xmm0,%xmm1
    c306:	f3 0f 10 05 e2 5d 01 	movss  0x15de2(%rip),%xmm0        # 220f0 <l_1614.5228+0x50>
    c30d:	00 
    c30e:	0f 2f c1             	comiss %xmm1,%xmm0
    c311:	0f 97 c0             	seta   %al
    c314:	83 f0 01             	xor    $0x1,%eax
    c317:	84 c0                	test   %al,%al
    c319:	75 56                	jne    c371 <safe_div_func_float_f_f+0x8d>
    c31b:	66 0f ef c0          	pxor   %xmm0,%xmm0
    c31f:	0f 2e 45 f8          	ucomiss -0x8(%rbp),%xmm0
    c323:	7a 0a                	jp     c32f <safe_div_func_float_f_f+0x4b>
    c325:	66 0f ef c0          	pxor   %xmm0,%xmm0
    c329:	0f 2e 45 f8          	ucomiss -0x8(%rbp),%xmm0
    c32d:	74 4e                	je     c37d <safe_div_func_float_f_f+0x99>
    c32f:	f3 0f 10 4d fc       	movss  -0x4(%rbp),%xmm1
    c334:	f3 0f 10 05 b8 5d 01 	movss  0x15db8(%rip),%xmm0        # 220f4 <l_1614.5228+0x54>
    c33b:	00 
    c33c:	f3 0f 59 c1          	mulss  %xmm1,%xmm0
    c340:	f3 0f 10 55 f8       	movss  -0x8(%rbp),%xmm2
    c345:	f3 0f 10 0d ab 5d 01 	movss  0x15dab(%rip),%xmm1        # 220f8 <l_1614.5228+0x58>
    c34c:	00 
    c34d:	f3 0f 59 ca          	mulss  %xmm2,%xmm1
    c351:	f3 0f 5e c1          	divss  %xmm1,%xmm0
    c355:	f3 0f 10 0d 73 5d 01 	movss  0x15d73(%rip),%xmm1        # 220d0 <l_1614.5228+0x30>
    c35c:	00 
    c35d:	0f 54 c1             	andps  %xmm1,%xmm0
    c360:	0f 2f 05 95 5d 01 00 	comiss 0x15d95(%rip),%xmm0        # 220fc <l_1614.5228+0x5c>
    c367:	0f 97 c0             	seta   %al
    c36a:	83 f0 01             	xor    $0x1,%eax
    c36d:	84 c0                	test   %al,%al
    c36f:	74 0c                	je     c37d <safe_div_func_float_f_f+0x99>
    c371:	f3 0f 10 45 fc       	movss  -0x4(%rbp),%xmm0
    c376:	f3 0f 5e 45 f8       	divss  -0x8(%rbp),%xmm0
    c37b:	eb 05                	jmp    c382 <safe_div_func_float_f_f+0x9e>
    c37d:	f3 0f 10 45 fc       	movss  -0x4(%rbp),%xmm0
    c382:	5d                   	pop    %rbp
    c383:	c3                   	retq   

000000000000c384 <safe_add_func_double_f_f>:
    c384:	f3 0f 1e fa          	endbr64 
    c388:	55                   	push   %rbp
    c389:	48 89 e5             	mov    %rsp,%rbp
    c38c:	f2 0f 11 45 f8       	movsd  %xmm0,-0x8(%rbp)
    c391:	f2 0f 11 4d f0       	movsd  %xmm1,-0x10(%rbp)
    c396:	f2 0f 10 4d f8       	movsd  -0x8(%rbp),%xmm1
    c39b:	f2 0f 10 05 5d 5d 01 	movsd  0x15d5d(%rip),%xmm0        # 22100 <l_1614.5228+0x60>
    c3a2:	00 
    c3a3:	f2 0f 59 c8          	mulsd  %xmm0,%xmm1
    c3a7:	f2 0f 10 55 f0       	movsd  -0x10(%rbp),%xmm2
    c3ac:	f2 0f 10 05 4c 5d 01 	movsd  0x15d4c(%rip),%xmm0        # 22100 <l_1614.5228+0x60>
    c3b3:	00 
    c3b4:	f2 0f 59 c2          	mulsd  %xmm2,%xmm0
    c3b8:	f2 0f 58 c1          	addsd  %xmm1,%xmm0
    c3bc:	f3 0f 7e 0d 4c 5d 01 	movq   0x15d4c(%rip),%xmm1        # 22110 <l_1614.5228+0x70>
    c3c3:	00 
    c3c4:	66 0f 54 c1          	andpd  %xmm1,%xmm0
    c3c8:	66 0f 2f 05 50 5d 01 	comisd 0x15d50(%rip),%xmm0        # 22120 <l_1614.5228+0x80>
    c3cf:	00 
    c3d0:	76 07                	jbe    c3d9 <safe_add_func_double_f_f+0x55>
    c3d2:	f2 0f 10 45 f8       	movsd  -0x8(%rbp),%xmm0
    c3d7:	eb 0a                	jmp    c3e3 <safe_add_func_double_f_f+0x5f>
    c3d9:	f2 0f 10 45 f8       	movsd  -0x8(%rbp),%xmm0
    c3de:	f2 0f 58 45 f0       	addsd  -0x10(%rbp),%xmm0
    c3e3:	5d                   	pop    %rbp
    c3e4:	c3                   	retq   

000000000000c3e5 <safe_sub_func_double_f_f>:
    c3e5:	f3 0f 1e fa          	endbr64 
    c3e9:	55                   	push   %rbp
    c3ea:	48 89 e5             	mov    %rsp,%rbp
    c3ed:	f2 0f 11 45 f8       	movsd  %xmm0,-0x8(%rbp)
    c3f2:	f2 0f 11 4d f0       	movsd  %xmm1,-0x10(%rbp)
    c3f7:	f2 0f 10 4d f8       	movsd  -0x8(%rbp),%xmm1
    c3fc:	f2 0f 10 05 fc 5c 01 	movsd  0x15cfc(%rip),%xmm0        # 22100 <l_1614.5228+0x60>
    c403:	00 
    c404:	f2 0f 59 c1          	mulsd  %xmm1,%xmm0
    c408:	f2 0f 10 55 f0       	movsd  -0x10(%rbp),%xmm2
    c40d:	f2 0f 10 0d eb 5c 01 	movsd  0x15ceb(%rip),%xmm1        # 22100 <l_1614.5228+0x60>
    c414:	00 
    c415:	f2 0f 59 ca          	mulsd  %xmm2,%xmm1
    c419:	f2 0f 5c c1          	subsd  %xmm1,%xmm0
    c41d:	f3 0f 7e 0d eb 5c 01 	movq   0x15ceb(%rip),%xmm1        # 22110 <l_1614.5228+0x70>
    c424:	00 
    c425:	66 0f 54 c1          	andpd  %xmm1,%xmm0
    c429:	66 0f 2f 05 ef 5c 01 	comisd 0x15cef(%rip),%xmm0        # 22120 <l_1614.5228+0x80>
    c430:	00 
    c431:	76 07                	jbe    c43a <safe_sub_func_double_f_f+0x55>
    c433:	f2 0f 10 45 f8       	movsd  -0x8(%rbp),%xmm0
    c438:	eb 0a                	jmp    c444 <safe_sub_func_double_f_f+0x5f>
    c43a:	f2 0f 10 45 f8       	movsd  -0x8(%rbp),%xmm0
    c43f:	f2 0f 5c 45 f0       	subsd  -0x10(%rbp),%xmm0
    c444:	5d                   	pop    %rbp
    c445:	c3                   	retq   

000000000000c446 <safe_mul_func_double_f_f>:
    c446:	f3 0f 1e fa          	endbr64 
    c44a:	55                   	push   %rbp
    c44b:	48 89 e5             	mov    %rsp,%rbp
    c44e:	f2 0f 11 45 f8       	movsd  %xmm0,-0x8(%rbp)
    c453:	f2 0f 11 4d f0       	movsd  %xmm1,-0x10(%rbp)
    c458:	f2 0f 10 4d f8       	movsd  -0x8(%rbp),%xmm1
    c45d:	f2 0f 10 05 c3 5c 01 	movsd  0x15cc3(%rip),%xmm0        # 22128 <l_1614.5228+0x88>
    c464:	00 
    c465:	f2 0f 59 c8          	mulsd  %xmm0,%xmm1
    c469:	f2 0f 10 55 f0       	movsd  -0x10(%rbp),%xmm2
    c46e:	f2 0f 10 05 ba 5c 01 	movsd  0x15cba(%rip),%xmm0        # 22130 <l_1614.5228+0x90>
    c475:	00 
    c476:	f2 0f 59 c2          	mulsd  %xmm2,%xmm0
    c47a:	f2 0f 59 c1          	mulsd  %xmm1,%xmm0
    c47e:	f3 0f 7e 0d 8a 5c 01 	movq   0x15c8a(%rip),%xmm1        # 22110 <l_1614.5228+0x70>
    c485:	00 
    c486:	66 0f 54 c1          	andpd  %xmm1,%xmm0
    c48a:	66 0f 2f 05 a6 5c 01 	comisd 0x15ca6(%rip),%xmm0        # 22138 <l_1614.5228+0x98>
    c491:	00 
    c492:	76 07                	jbe    c49b <safe_mul_func_double_f_f+0x55>
    c494:	f2 0f 10 45 f8       	movsd  -0x8(%rbp),%xmm0
    c499:	eb 0a                	jmp    c4a5 <safe_mul_func_double_f_f+0x5f>
    c49b:	f2 0f 10 45 f8       	movsd  -0x8(%rbp),%xmm0
    c4a0:	f2 0f 59 45 f0       	mulsd  -0x10(%rbp),%xmm0
    c4a5:	5d                   	pop    %rbp
    c4a6:	c3                   	retq   

000000000000c4a7 <safe_div_func_double_f_f>:
    c4a7:	f3 0f 1e fa          	endbr64 
    c4ab:	55                   	push   %rbp
    c4ac:	48 89 e5             	mov    %rsp,%rbp
    c4af:	f2 0f 11 45 f8       	movsd  %xmm0,-0x8(%rbp)
    c4b4:	f2 0f 11 4d f0       	movsd  %xmm1,-0x10(%rbp)
    c4b9:	f2 0f 10 45 f0       	movsd  -0x10(%rbp),%xmm0
    c4be:	f3 0f 7e 0d 4a 5c 01 	movq   0x15c4a(%rip),%xmm1        # 22110 <l_1614.5228+0x70>
    c4c5:	00 
    c4c6:	66 0f 54 c8          	andpd  %xmm0,%xmm1
    c4ca:	f2 0f 10 05 6e 5c 01 	movsd  0x15c6e(%rip),%xmm0        # 22140 <l_1614.5228+0xa0>
    c4d1:	00 
    c4d2:	66 0f 2f c1          	comisd %xmm1,%xmm0
    c4d6:	0f 97 c0             	seta   %al
    c4d9:	83 f0 01             	xor    $0x1,%eax
    c4dc:	84 c0                	test   %al,%al
    c4de:	75 5a                	jne    c53a <safe_div_func_double_f_f+0x93>
    c4e0:	66 0f ef c0          	pxor   %xmm0,%xmm0
    c4e4:	66 0f 2e 45 f0       	ucomisd -0x10(%rbp),%xmm0
    c4e9:	7a 0b                	jp     c4f6 <safe_div_func_double_f_f+0x4f>
    c4eb:	66 0f ef c0          	pxor   %xmm0,%xmm0
    c4ef:	66 0f 2e 45 f0       	ucomisd -0x10(%rbp),%xmm0
    c4f4:	74 50                	je     c546 <safe_div_func_double_f_f+0x9f>
    c4f6:	f2 0f 10 4d f8       	movsd  -0x8(%rbp),%xmm1
    c4fb:	f2 0f 10 05 45 5c 01 	movsd  0x15c45(%rip),%xmm0        # 22148 <l_1614.5228+0xa8>
    c502:	00 
    c503:	f2 0f 59 c1          	mulsd  %xmm1,%xmm0
    c507:	f2 0f 10 55 f0       	movsd  -0x10(%rbp),%xmm2
    c50c:	f2 0f 10 0d 3c 5c 01 	movsd  0x15c3c(%rip),%xmm1        # 22150 <l_1614.5228+0xb0>
    c513:	00 
    c514:	f2 0f 59 ca          	mulsd  %xmm2,%xmm1
    c518:	f2 0f 5e c1          	divsd  %xmm1,%xmm0
    c51c:	f3 0f 7e 0d ec 5b 01 	movq   0x15bec(%rip),%xmm1        # 22110 <l_1614.5228+0x70>
    c523:	00 
    c524:	66 0f 54 c1          	andpd  %xmm1,%xmm0
    c528:	66 0f 2f 05 28 5c 01 	comisd 0x15c28(%rip),%xmm0        # 22158 <l_1614.5228+0xb8>
    c52f:	00 
    c530:	0f 97 c0             	seta   %al
    c533:	83 f0 01             	xor    $0x1,%eax
    c536:	84 c0                	test   %al,%al
    c538:	74 0c                	je     c546 <safe_div_func_double_f_f+0x9f>
    c53a:	f2 0f 10 45 f8       	movsd  -0x8(%rbp),%xmm0
    c53f:	f2 0f 5e 45 f0       	divsd  -0x10(%rbp),%xmm0
    c544:	eb 05                	jmp    c54b <safe_div_func_double_f_f+0xa4>
    c546:	f2 0f 10 45 f8       	movsd  -0x8(%rbp),%xmm0
    c54b:	5d                   	pop    %rbp
    c54c:	c3                   	retq   

000000000000c54d <safe_convert_func_float_to_int32_t>:
    c54d:	f3 0f 1e fa          	endbr64 
    c551:	55                   	push   %rbp
    c552:	48 89 e5             	mov    %rsp,%rbp
    c555:	f3 0f 11 45 fc       	movss  %xmm0,-0x4(%rbp)
    c55a:	f3 0f 10 05 fe 5b 01 	movss  0x15bfe(%rip),%xmm0        # 22160 <l_1614.5228+0xc0>
    c561:	00 
    c562:	0f 2f 45 fc          	comiss -0x4(%rbp),%xmm0
    c566:	0f 93 c0             	setae  %al
    c569:	83 f0 01             	xor    $0x1,%eax
    c56c:	84 c0                	test   %al,%al
    c56e:	74 21                	je     c591 <safe_convert_func_float_to_int32_t+0x44>
    c570:	f3 0f 10 45 fc       	movss  -0x4(%rbp),%xmm0
    c575:	0f 2f 05 e8 5b 01 00 	comiss 0x15be8(%rip),%xmm0        # 22164 <l_1614.5228+0xc4>
    c57c:	0f 93 c0             	setae  %al
    c57f:	83 f0 01             	xor    $0x1,%eax
    c582:	84 c0                	test   %al,%al
    c584:	74 0b                	je     c591 <safe_convert_func_float_to_int32_t+0x44>
    c586:	f3 0f 10 45 fc       	movss  -0x4(%rbp),%xmm0
    c58b:	f3 0f 2c c0          	cvttss2si %xmm0,%eax
    c58f:	eb 05                	jmp    c596 <safe_convert_func_float_to_int32_t+0x49>
    c591:	b8 ff ff ff 7f       	mov    $0x7fffffff,%eax
    c596:	5d                   	pop    %rbp
    c597:	c3                   	retq   

000000000000c598 <crc32_gentab>:
    c598:	f3 0f 1e fa          	endbr64 
    c59c:	55                   	push   %rbp
    c59d:	48 89 e5             	mov    %rsp,%rbp
    c5a0:	c7 45 fc 20 83 b8 ed 	movl   $0xedb88320,-0x4(%rbp)
    c5a7:	c7 45 f4 00 00 00 00 	movl   $0x0,-0xc(%rbp)
    c5ae:	eb 51                	jmp    c601 <crc32_gentab+0x69>
    c5b0:	8b 45 f4             	mov    -0xc(%rbp),%eax
    c5b3:	89 45 f0             	mov    %eax,-0x10(%rbp)
    c5b6:	c7 45 f8 08 00 00 00 	movl   $0x8,-0x8(%rbp)
    c5bd:	eb 1e                	jmp    c5dd <crc32_gentab+0x45>
    c5bf:	8b 45 f0             	mov    -0x10(%rbp),%eax
    c5c2:	83 e0 01             	and    $0x1,%eax
    c5c5:	85 c0                	test   %eax,%eax
    c5c7:	74 0d                	je     c5d6 <crc32_gentab+0x3e>
    c5c9:	8b 45 f0             	mov    -0x10(%rbp),%eax
    c5cc:	d1 e8                	shr    %eax
    c5ce:	33 45 fc             	xor    -0x4(%rbp),%eax
    c5d1:	89 45 f0             	mov    %eax,-0x10(%rbp)
    c5d4:	eb 03                	jmp    c5d9 <crc32_gentab+0x41>
    c5d6:	d1 6d f0             	shrl   -0x10(%rbp)
    c5d9:	83 6d f8 01          	subl   $0x1,-0x8(%rbp)
    c5dd:	83 7d f8 00          	cmpl   $0x0,-0x8(%rbp)
    c5e1:	7f dc                	jg     c5bf <crc32_gentab+0x27>
    c5e3:	8b 45 f4             	mov    -0xc(%rbp),%eax
    c5e6:	48 98                	cltq   
    c5e8:	48 8d 0c 85 00 00 00 	lea    0x0(,%rax,4),%rcx
    c5ef:	00 
    c5f0:	48 8d 15 e9 e3 01 00 	lea    0x1e3e9(%rip),%rdx        # 2a9e0 <crc32_tab>
    c5f7:	8b 45 f0             	mov    -0x10(%rbp),%eax
    c5fa:	89 04 11             	mov    %eax,(%rcx,%rdx,1)
    c5fd:	83 45 f4 01          	addl   $0x1,-0xc(%rbp)
    c601:	81 7d f4 ff 00 00 00 	cmpl   $0xff,-0xc(%rbp)
    c608:	7e a6                	jle    c5b0 <crc32_gentab+0x18>
    c60a:	90                   	nop
    c60b:	90                   	nop
    c60c:	5d                   	pop    %rbp
    c60d:	c3                   	retq   

000000000000c60e <crc32_byte>:
    c60e:	f3 0f 1e fa          	endbr64 
    c612:	55                   	push   %rbp
    c613:	48 89 e5             	mov    %rsp,%rbp
    c616:	89 f8                	mov    %edi,%eax
    c618:	88 45 fc             	mov    %al,-0x4(%rbp)
    c61b:	8b 05 ff 89 01 00    	mov    0x189ff(%rip),%eax        # 25020 <crc32_context>
    c621:	c1 e8 08             	shr    $0x8,%eax
    c624:	89 c1                	mov    %eax,%ecx
    c626:	0f b6 55 fc          	movzbl -0x4(%rbp),%edx
    c62a:	8b 05 f0 89 01 00    	mov    0x189f0(%rip),%eax        # 25020 <crc32_context>
    c630:	31 d0                	xor    %edx,%eax
    c632:	0f b6 c0             	movzbl %al,%eax
    c635:	89 c0                	mov    %eax,%eax
    c637:	48 8d 14 85 00 00 00 	lea    0x0(,%rax,4),%rdx
    c63e:	00 
    c63f:	48 8d 05 9a e3 01 00 	lea    0x1e39a(%rip),%rax        # 2a9e0 <crc32_tab>
    c646:	8b 04 02             	mov    (%rdx,%rax,1),%eax
    c649:	31 c8                	xor    %ecx,%eax
    c64b:	89 05 cf 89 01 00    	mov    %eax,0x189cf(%rip)        # 25020 <crc32_context>
    c651:	90                   	nop
    c652:	5d                   	pop    %rbp
    c653:	c3                   	retq   

000000000000c654 <crc32_8bytes>:
    c654:	f3 0f 1e fa          	endbr64 
    c658:	55                   	push   %rbp
    c659:	48 89 e5             	mov    %rsp,%rbp
    c65c:	48 83 ec 08          	sub    $0x8,%rsp
    c660:	48 89 7d f8          	mov    %rdi,-0x8(%rbp)
    c664:	48 8b 45 f8          	mov    -0x8(%rbp),%rax
    c668:	0f b6 c0             	movzbl %al,%eax
    c66b:	89 c7                	mov    %eax,%edi
    c66d:	e8 9c ff ff ff       	callq  c60e <crc32_byte>
    c672:	48 8b 45 f8          	mov    -0x8(%rbp),%rax
    c676:	48 c1 e8 08          	shr    $0x8,%rax
    c67a:	0f b6 c0             	movzbl %al,%eax
    c67d:	89 c7                	mov    %eax,%edi
    c67f:	e8 8a ff ff ff       	callq  c60e <crc32_byte>
    c684:	48 8b 45 f8          	mov    -0x8(%rbp),%rax
    c688:	48 c1 e8 10          	shr    $0x10,%rax
    c68c:	0f b6 c0             	movzbl %al,%eax
    c68f:	89 c7                	mov    %eax,%edi
    c691:	e8 78 ff ff ff       	callq  c60e <crc32_byte>
    c696:	48 8b 45 f8          	mov    -0x8(%rbp),%rax
    c69a:	48 c1 e8 18          	shr    $0x18,%rax
    c69e:	0f b6 c0             	movzbl %al,%eax
    c6a1:	89 c7                	mov    %eax,%edi
    c6a3:	e8 66 ff ff ff       	callq  c60e <crc32_byte>
    c6a8:	48 8b 45 f8          	mov    -0x8(%rbp),%rax
    c6ac:	48 c1 e8 20          	shr    $0x20,%rax
    c6b0:	0f b6 c0             	movzbl %al,%eax
    c6b3:	89 c7                	mov    %eax,%edi
    c6b5:	e8 54 ff ff ff       	callq  c60e <crc32_byte>
    c6ba:	48 8b 45 f8          	mov    -0x8(%rbp),%rax
    c6be:	48 c1 e8 28          	shr    $0x28,%rax
    c6c2:	0f b6 c0             	movzbl %al,%eax
    c6c5:	89 c7                	mov    %eax,%edi
    c6c7:	e8 42 ff ff ff       	callq  c60e <crc32_byte>
    c6cc:	48 8b 45 f8          	mov    -0x8(%rbp),%rax
    c6d0:	48 c1 e8 30          	shr    $0x30,%rax
    c6d4:	0f b6 c0             	movzbl %al,%eax
    c6d7:	89 c7                	mov    %eax,%edi
    c6d9:	e8 30 ff ff ff       	callq  c60e <crc32_byte>
    c6de:	48 8b 45 f8          	mov    -0x8(%rbp),%rax
    c6e2:	48 c1 e8 38          	shr    $0x38,%rax
    c6e6:	0f b6 c0             	movzbl %al,%eax
    c6e9:	89 c7                	mov    %eax,%edi
    c6eb:	e8 1e ff ff ff       	callq  c60e <crc32_byte>
    c6f0:	90                   	nop
    c6f1:	c9                   	leaveq 
    c6f2:	c3                   	retq   

000000000000c6f3 <transparent_crc>:
    c6f3:	f3 0f 1e fa          	endbr64 
    c6f7:	55                   	push   %rbp
    c6f8:	48 89 e5             	mov    %rsp,%rbp
    c6fb:	48 83 ec 20          	sub    $0x20,%rsp
    c6ff:	48 89 7d f8          	mov    %rdi,-0x8(%rbp)
    c703:	48 89 75 f0          	mov    %rsi,-0x10(%rbp)
    c707:	89 55 ec             	mov    %edx,-0x14(%rbp)
    c70a:	48 8b 45 f8          	mov    -0x8(%rbp),%rax
    c70e:	48 89 c7             	mov    %rax,%rdi
    c711:	e8 3e ff ff ff       	callq  c654 <crc32_8bytes>
    c716:	83 7d ec 00          	cmpl   $0x0,-0x14(%rbp)
    c71a:	74 22                	je     c73e <transparent_crc+0x4b>
    c71c:	8b 05 fe 88 01 00    	mov    0x188fe(%rip),%eax        # 25020 <crc32_context>
    c722:	f7 d0                	not    %eax
    c724:	89 c2                	mov    %eax,%edx
    c726:	48 8b 45 f0          	mov    -0x10(%rbp),%rax
    c72a:	48 89 c6             	mov    %rax,%rsi
    c72d:	48 8d 3d fc 28 01 00 	lea    0x128fc(%rip),%rdi        # 1f030 <_IO_stdin_used+0x30>
    c734:	b8 00 00 00 00       	mov    $0x0,%eax
    c739:	e8 42 e9 ff ff       	callq  b080 <printf@plt>
    c73e:	90                   	nop
    c73f:	c9                   	leaveq 
    c740:	c3                   	retq   

000000000000c741 <transparent_crc_bytes>:
    c741:	f3 0f 1e fa          	endbr64 
    c745:	55                   	push   %rbp
    c746:	48 89 e5             	mov    %rsp,%rbp
    c749:	48 83 ec 30          	sub    $0x30,%rsp
    c74d:	48 89 7d e8          	mov    %rdi,-0x18(%rbp)
    c751:	89 75 e4             	mov    %esi,-0x1c(%rbp)
    c754:	48 89 55 d8          	mov    %rdx,-0x28(%rbp)
    c758:	89 4d e0             	mov    %ecx,-0x20(%rbp)
    c75b:	c7 45 fc 00 00 00 00 	movl   $0x0,-0x4(%rbp)
    c762:	eb 1e                	jmp    c782 <transparent_crc_bytes+0x41>
    c764:	8b 45 fc             	mov    -0x4(%rbp),%eax
    c767:	48 63 d0             	movslq %eax,%rdx
    c76a:	48 8b 45 e8          	mov    -0x18(%rbp),%rax
    c76e:	48 01 d0             	add    %rdx,%rax
    c771:	0f b6 00             	movzbl (%rax),%eax
    c774:	0f b6 c0             	movzbl %al,%eax
    c777:	89 c7                	mov    %eax,%edi
    c779:	e8 90 fe ff ff       	callq  c60e <crc32_byte>
    c77e:	83 45 fc 01          	addl   $0x1,-0x4(%rbp)
    c782:	8b 45 fc             	mov    -0x4(%rbp),%eax
    c785:	3b 45 e4             	cmp    -0x1c(%rbp),%eax
    c788:	7c da                	jl     c764 <transparent_crc_bytes+0x23>
    c78a:	83 7d e0 00          	cmpl   $0x0,-0x20(%rbp)
    c78e:	74 22                	je     c7b2 <transparent_crc_bytes+0x71>
    c790:	8b 05 8a 88 01 00    	mov    0x1888a(%rip),%eax        # 25020 <crc32_context>
    c796:	f7 d0                	not    %eax
    c798:	89 c2                	mov    %eax,%edx
    c79a:	48 8b 45 d8          	mov    -0x28(%rbp),%rax
    c79e:	48 89 c6             	mov    %rax,%rsi
    c7a1:	48 8d 3d 88 28 01 00 	lea    0x12888(%rip),%rdi        # 1f030 <_IO_stdin_used+0x30>
    c7a8:	b8 00 00 00 00       	mov    $0x0,%eax
    c7ad:	e8 ce e8 ff ff       	callq  b080 <printf@plt>
    c7b2:	90                   	nop
    c7b3:	c9                   	leaveq 
    c7b4:	c3                   	retq   

000000000000c7b5 <func_1>:
    c7b5:	f3 0f 1e fa          	endbr64 
    c7b9:	55                   	push   %rbp
    c7ba:	48 89 e5             	mov    %rsp,%rbp
    c7bd:	41 57                	push   %r15
    c7bf:	41 56                	push   %r14
    c7c1:	41 55                	push   %r13
    c7c3:	41 54                	push   %r12
    c7c5:	53                   	push   %rbx
    c7c6:	48 81 ec 00 10 00 00 	sub    $0x1000,%rsp
    c7cd:	48 83 0c 24 00       	orq    $0x0,(%rsp)
    c7d2:	48 81 ec f8 09 00 00 	sub    $0x9f8,%rsp
    c7d9:	64 48 8b 04 25 28 00 	mov    %fs:0x28,%rax
    c7e0:	00 00 
    c7e2:	48 89 45 c8          	mov    %rax,-0x38(%rbp)
    c7e6:	31 c0                	xor    %eax,%eax
    c7e8:	48 8d 85 20 ee ff ff 	lea    -0x11e0(%rbp),%rax
    c7ef:	48 8d 15 8a 28 01 00 	lea    0x1288a(%rip),%rdx        # 1f080 <g_3910+0x14>
    c7f6:	b9 24 00 00 00       	mov    $0x24,%ecx
    c7fb:	48 89 c7             	mov    %rax,%rdi
    c7fe:	48 89 d6             	mov    %rdx,%rsi
    c801:	f3 48 a5             	rep movsq %ds:(%rsi),%es:(%rdi)
    c804:	48 8d 85 40 ef ff ff 	lea    -0x10c0(%rbp),%rax
    c80b:	48 8d 15 0e 9c 01 00 	lea    0x19c0e(%rip),%rdx        # 26420 <g_4523+0x20>
    c812:	b9 40 00 00 00       	mov    $0x40,%ecx
    c817:	48 89 c7             	mov    %rax,%rdi
    c81a:	48 89 d6             	mov    %rdx,%rsi
    c81d:	f3 48 a5             	rep movsq %ds:(%rsi),%es:(%rdi)
    c820:	c6 85 e3 e5 ff ff 06 	movb   $0x6,-0x1a1d(%rbp)
    c827:	48 c7 85 58 e7 ff ff 	movq   $0x8,-0x18a8(%rbp)
    c82e:	08 00 00 00 
    c832:	48 8d 05 3b 91 01 00 	lea    0x1913b(%rip),%rax        # 25974 <g_1997>
    c839:	48 89 85 60 e7 ff ff 	mov    %rax,-0x18a0(%rbp)
    c840:	48 8d 05 c1 88 01 00 	lea    0x188c1(%rip),%rax        # 25108 <g_801>
    c847:	48 89 85 68 e7 ff ff 	mov    %rax,-0x1898(%rbp)
    c84e:	c7 85 50 e6 ff ff 01 	movl   $0x1,-0x19b0(%rbp)
    c855:	00 00 00 
    c858:	48 c7 85 70 e7 ff ff 	movq   $0xfffffffffffffff9,-0x1890(%rbp)
    c85f:	f9 ff ff ff 
    c863:	c6 85 e4 e5 ff ff ff 	movb   $0xff,-0x1a1c(%rbp)
    c86a:	66 c7 85 f4 e5 ff ff 	movw   $0x1,-0x1a0c(%rbp)
    c871:	01 00 
    c873:	48 8d 05 be e5 01 00 	lea    0x1e5be(%rip),%rax        # 2ae38 <g_1937>
    c87a:	48 89 85 70 ea ff ff 	mov    %rax,-0x1590(%rbp)
    c881:	48 8d 05 b0 e5 01 00 	lea    0x1e5b0(%rip),%rax        # 2ae38 <g_1937>
    c888:	48 89 85 78 ea ff ff 	mov    %rax,-0x1588(%rbp)
    c88f:	48 8d 05 a2 e5 01 00 	lea    0x1e5a2(%rip),%rax        # 2ae38 <g_1937>
    c896:	48 89 85 80 ea ff ff 	mov    %rax,-0x1580(%rbp)
    c89d:	48 8d 05 94 e5 01 00 	lea    0x1e594(%rip),%rax        # 2ae38 <g_1937>
    c8a4:	48 89 85 88 ea ff ff 	mov    %rax,-0x1578(%rbp)
    c8ab:	48 8d 05 86 e5 01 00 	lea    0x1e586(%rip),%rax        # 2ae38 <g_1937>
    c8b2:	48 89 85 90 ea ff ff 	mov    %rax,-0x1570(%rbp)
    c8b9:	48 8d 05 78 e5 01 00 	lea    0x1e578(%rip),%rax        # 2ae38 <g_1937>
    c8c0:	48 89 85 98 ea ff ff 	mov    %rax,-0x1568(%rbp)
    c8c7:	c7 85 1c e6 ff ff ac 	movl   $0xb1405cac,-0x19e4(%rbp)
    c8ce:	5c 40 b1 
    c8d1:	48 8d 05 b8 e5 01 00 	lea    0x1e5b8(%rip),%rax        # 2ae90 <g_2423>
    c8d8:	48 89 85 78 e7 ff ff 	mov    %rax,-0x1888(%rbp)
    c8df:	48 c7 85 d8 e6 ff ff 	movq   $0x0,-0x1928(%rbp)
    c8e6:	00 00 00 00 
    c8ea:	48 8d 85 d8 e6 ff ff 	lea    -0x1928(%rbp),%rax
    c8f1:	48 89 85 e0 e6 ff ff 	mov    %rax,-0x1920(%rbp)
    c8f8:	48 8d 85 e0 e6 ff ff 	lea    -0x1920(%rbp),%rax
    c8ff:	48 89 85 80 e7 ff ff 	mov    %rax,-0x1880(%rbp)
    c906:	66 c7 85 f6 e5 ff ff 	movw   $0xffff,-0x1a0a(%rbp)
    c90d:	ff ff 
    c90f:	48 8d 05 72 e5 01 00 	lea    0x1e572(%rip),%rax        # 2ae88 <g_2418>
    c916:	48 89 85 88 e7 ff ff 	mov    %rax,-0x1878(%rbp)
    c91d:	66 c7 85 f8 e5 ff ff 	movw   $0x1,-0x1a08(%rbp)
    c924:	01 00 
    c926:	c6 85 e5 e5 ff ff df 	movb   $0xdf,-0x1a1b(%rbp)
    c92d:	48 b8 c5 b6 7f 77 a0 	movabs $0x584a73a0777fb6c5,%rax
    c934:	73 4a 58 
    c937:	48 89 85 40 e7 ff ff 	mov    %rax,-0x18c0(%rbp)
    c93e:	c7 85 40 ec ff ff f6 	movl   $0xfffffff6,-0x13c0(%rbp)
    c945:	ff ff ff 
    c948:	c7 85 44 ec ff ff 01 	movl   $0x1,-0x13bc(%rbp)
    c94f:	00 00 00 
    c952:	c7 85 48 ec ff ff 01 	movl   $0x1,-0x13b8(%rbp)
    c959:	00 00 00 
    c95c:	c7 85 4c ec ff ff 9b 	movl   $0x588e389b,-0x13b4(%rbp)
    c963:	38 8e 58 
    c966:	c7 85 50 ec ff ff 01 	movl   $0x1,-0x13b0(%rbp)
    c96d:	00 00 00 
    c970:	c7 85 54 ec ff ff 01 	movl   $0x1,-0x13ac(%rbp)
    c977:	00 00 00 
    c97a:	c7 85 58 ec ff ff 9b 	movl   $0x588e389b,-0x13a8(%rbp)
    c981:	38 8e 58 
    c984:	c7 85 5c ec ff ff 08 	movl   $0x8,-0x13a4(%rbp)
    c98b:	00 00 00 
    c98e:	c7 85 60 ec ff ff cd 	movl   $0x66e057cd,-0x13a0(%rbp)
    c995:	57 e0 66 
    c998:	c7 85 64 ec ff ff 08 	movl   $0x8,-0x139c(%rbp)
    c99f:	00 00 00 
    c9a2:	c7 85 68 ec ff ff fa 	movl   $0xa3ca34fa,-0x1398(%rbp)
    c9a9:	34 ca a3 
    c9ac:	c7 85 6c ec ff ff f7 	movl   $0xfffffff7,-0x1394(%rbp)
    c9b3:	ff ff ff 
    c9b6:	c7 85 70 ec ff ff fa 	movl   $0xa3ca34fa,-0x1390(%rbp)
    c9bd:	34 ca a3 
    c9c0:	c7 85 74 ec ff ff 08 	movl   $0x8,-0x138c(%rbp)
    c9c7:	00 00 00 
    c9ca:	c7 85 78 ec ff ff f6 	movl   $0xfffffff6,-0x1388(%rbp)
    c9d1:	ff ff ff 
    c9d4:	c7 85 7c ec ff ff 9b 	movl   $0x588e389b,-0x1384(%rbp)
    c9db:	38 8e 58 
    c9de:	c7 85 80 ec ff ff f8 	movl   $0x309000f8,-0x1380(%rbp)
    c9e5:	00 90 30 
    c9e8:	c7 85 84 ec ff ff f6 	movl   $0xfffffff6,-0x137c(%rbp)
    c9ef:	ff ff ff 
    c9f2:	c7 85 88 ec ff ff f6 	movl   $0xfffffff6,-0x1378(%rbp)
    c9f9:	ff ff ff 
    c9fc:	c7 85 8c ec ff ff f8 	movl   $0x309000f8,-0x1374(%rbp)
    ca03:	00 90 30 
    ca06:	c7 85 90 ec ff ff 9b 	movl   $0x588e389b,-0x1370(%rbp)
    ca0d:	38 8e 58 
    ca10:	c7 85 94 ec ff ff 01 	movl   $0x1,-0x136c(%rbp)
    ca17:	00 00 00 
    ca1a:	c7 85 98 ec ff ff fa 	movl   $0xa3ca34fa,-0x1368(%rbp)
    ca21:	34 ca a3 
    ca24:	c7 85 9c ec ff ff fc 	movl   $0xfffffffc,-0x1364(%rbp)
    ca2b:	ff ff ff 
    ca2e:	c7 85 a0 ec ff ff cd 	movl   $0x66e057cd,-0x1360(%rbp)
    ca35:	57 e0 66 
    ca38:	c7 85 a4 ec ff ff fc 	movl   $0xfffffffc,-0x135c(%rbp)
    ca3f:	ff ff ff 
    ca42:	c7 85 a8 ec ff ff fa 	movl   $0xa3ca34fa,-0x1358(%rbp)
    ca49:	34 ca a3 
    ca4c:	c7 85 ac ec ff ff 01 	movl   $0x1,-0x1354(%rbp)
    ca53:	00 00 00 
    ca56:	c7 85 b0 ec ff ff 01 	movl   $0x1,-0x1350(%rbp)
    ca5d:	00 00 00 
    ca60:	c7 85 b4 ec ff ff f6 	movl   $0xfffffff6,-0x134c(%rbp)
    ca67:	ff ff ff 
    ca6a:	c7 85 b8 ec ff ff 01 	movl   $0x1,-0x1348(%rbp)
    ca71:	00 00 00 
    ca74:	c7 85 bc ec ff ff 01 	movl   $0x1,-0x1344(%rbp)
    ca7b:	00 00 00 
    ca7e:	c7 85 c0 ec ff ff f6 	movl   $0xfffffff6,-0x1340(%rbp)
    ca85:	ff ff ff 
    ca88:	c7 85 c4 ec ff ff 01 	movl   $0x1,-0x133c(%rbp)
    ca8f:	00 00 00 
    ca92:	c7 85 c8 ec ff ff 01 	movl   $0x1,-0x1338(%rbp)
    ca99:	00 00 00 
    ca9c:	c7 85 cc ec ff ff f7 	movl   $0xfffffff7,-0x1334(%rbp)
    caa3:	ff ff ff 
    caa6:	c7 85 d0 ec ff ff cd 	movl   $0x66e057cd,-0x1330(%rbp)
    caad:	57 e0 66 
    cab0:	c7 85 d4 ec ff ff 08 	movl   $0xeb296c08,-0x132c(%rbp)
    cab7:	6c 29 eb 
    caba:	c7 85 d8 ec ff ff cd 	movl   $0x66e057cd,-0x1328(%rbp)
    cac1:	57 e0 66 
    cac4:	c7 85 dc ec ff ff f7 	movl   $0xfffffff7,-0x1324(%rbp)
    cacb:	ff ff ff 
    cace:	c7 85 e0 ec ff ff 01 	movl   $0x1,-0x1320(%rbp)
    cad5:	00 00 00 
    cad8:	c7 85 e4 ec ff ff f7 	movl   $0xfffffff7,-0x131c(%rbp)
    cadf:	ff ff ff 
    cae2:	c7 85 e8 ec ff ff f6 	movl   $0xfffffff6,-0x1318(%rbp)
    cae9:	ff ff ff 
    caec:	c7 85 ec ec ff ff 01 	movl   $0x1,-0x1314(%rbp)
    caf3:	00 00 00 
    caf6:	c7 85 f0 ec ff ff 01 	movl   $0x1,-0x1310(%rbp)
    cafd:	00 00 00 
    cb00:	c7 85 f4 ec ff ff f6 	movl   $0xfffffff6,-0x130c(%rbp)
    cb07:	ff ff ff 
    cb0a:	c7 85 f8 ec ff ff 01 	movl   $0x1,-0x1308(%rbp)
    cb11:	00 00 00 
    cb14:	c7 85 fc ec ff ff 01 	movl   $0x1,-0x1304(%rbp)
    cb1b:	00 00 00 
    cb1e:	c7 85 00 ed ff ff 9b 	movl   $0x588e389b,-0x1300(%rbp)
    cb25:	38 8e 58 
    cb28:	c7 85 04 ed ff ff fc 	movl   $0xfffffffc,-0x12fc(%rbp)
    cb2f:	ff ff ff 
    cb32:	c7 85 08 ed ff ff cd 	movl   $0x66e057cd,-0x12f8(%rbp)
    cb39:	57 e0 66 
    cb3c:	c7 85 0c ed ff ff fc 	movl   $0xfffffffc,-0x12f4(%rbp)
    cb43:	ff ff ff 
    cb46:	c7 85 10 ed ff ff fa 	movl   $0xa3ca34fa,-0x12f0(%rbp)
    cb4d:	34 ca a3 
    cb50:	c7 85 14 ed ff ff 01 	movl   $0x1,-0x12ec(%rbp)
    cb57:	00 00 00 
    cb5a:	c7 85 18 ed ff ff fa 	movl   $0xa3ca34fa,-0x12e8(%rbp)
    cb61:	34 ca a3 
    cb64:	c7 85 1c ed ff ff fc 	movl   $0xfffffffc,-0x12e4(%rbp)
    cb6b:	ff ff ff 
    cb6e:	48 c7 85 e8 e6 ff ff 	movq   $0xfffffffffffffff6,-0x1918(%rbp)
    cb75:	f6 ff ff ff 
    cb79:	c7 85 40 ea ff ff 82 	movl   $0xe2a7182,-0x15c0(%rbp)
    cb80:	71 2a 0e 
    cb83:	c7 85 44 ea ff ff 82 	movl   $0xe2a7182,-0x15bc(%rbp)
    cb8a:	71 2a 0e 
    cb8d:	c7 85 48 ea ff ff 82 	movl   $0xe2a7182,-0x15b8(%rbp)
    cb94:	71 2a 0e 
    cb97:	c7 85 4c ea ff ff 82 	movl   $0xe2a7182,-0x15b4(%rbp)
    cb9e:	71 2a 0e 
    cba1:	c7 85 50 ea ff ff 82 	movl   $0xe2a7182,-0x15b0(%rbp)
    cba8:	71 2a 0e 
    cbab:	c7 85 54 ea ff ff 82 	movl   $0xe2a7182,-0x15ac(%rbp)
    cbb2:	71 2a 0e 
    cbb5:	c7 85 58 ea ff ff 82 	movl   $0xe2a7182,-0x15a8(%rbp)
    cbbc:	71 2a 0e 
    cbbf:	c7 85 5c ea ff ff 82 	movl   $0xe2a7182,-0x15a4(%rbp)
    cbc6:	71 2a 0e 
    cbc9:	c7 85 60 ea ff ff 82 	movl   $0xe2a7182,-0x15a0(%rbp)
    cbd0:	71 2a 0e 
    cbd3:	c7 85 64 ea ff ff 82 	movl   $0xe2a7182,-0x159c(%rbp)
    cbda:	71 2a 0e 
    cbdd:	c7 85 54 e6 ff ff 87 	movl   $0x8cbed087,-0x19ac(%rbp)
    cbe4:	d0 be 8c 
    cbe7:	48 c7 85 f0 e6 ff ff 	movq   $0x0,-0x1910(%rbp)
    cbee:	00 00 00 00 
    cbf2:	c7 85 58 e6 ff ff 00 	movl   $0x0,-0x19a8(%rbp)
    cbf9:	00 00 00 
    cbfc:	c6 85 e0 e5 ff ff 01 	movb   $0x1,-0x1a20(%rbp)
    cc03:	c7 85 5c e6 ff ff cb 	movl   $0xd323edcb,-0x19a4(%rbp)
    cc0a:	ed 23 d3 
    cc0d:	c7 85 60 e6 ff ff a2 	movl   $0x3f661aa2,-0x19a0(%rbp)
    cc14:	1a 66 3f 
    cc17:	c6 85 e6 e5 ff ff 01 	movb   $0x1,-0x1a1a(%rbp)
    cc1e:	c6 85 e7 e5 ff ff 00 	movb   $0x0,-0x1a19(%rbp)
    cc25:	48 8d 85 40 ec ff ff 	lea    -0x13c0(%rbp),%rax
    cc2c:	48 83 c0 04          	add    $0x4,%rax
    cc30:	48 89 85 90 e7 ff ff 	mov    %rax,-0x1870(%rbp)
    cc37:	c7 85 64 e6 ff ff 4f 	movl   $0x7a4fae4f,-0x199c(%rbp)
    cc3e:	ae 4f 7a 
    cc41:	c6 85 e8 e5 ff ff 17 	movb   $0x17,-0x1a18(%rbp)
    cc48:	c7 85 68 e6 ff ff 49 	movl   $0x80fc749,-0x1998(%rbp)
    cc4f:	c7 0f 08 
    cc52:	48 8d 05 d7 e1 01 00 	lea    0x1e1d7(%rip),%rax        # 2ae30 <g_1856>
    cc59:	48 89 85 f8 e6 ff ff 	mov    %rax,-0x1908(%rbp)
    cc60:	c7 85 6c e6 ff ff 01 	movl   $0x1,-0x1994(%rbp)
    cc67:	00 00 00 
    cc6a:	c7 85 70 e6 ff ff 00 	movl   $0x0,-0x1990(%rbp)
    cc71:	00 00 00 
    cc74:	48 c7 85 98 e7 ff ff 	movq   $0x0,-0x1868(%rbp)
    cc7b:	00 00 00 00 
    cc7f:	c7 85 20 e6 ff ff 06 	movl   $0x6,-0x19e0(%rbp)
    cc86:	00 00 00 
    cc89:	48 c7 85 48 e7 ff ff 	movq   $0xfffffffffffffffe,-0x18b8(%rbp)
    cc90:	fe ff ff ff 
    cc94:	c6 85 e9 e5 ff ff 01 	movb   $0x1,-0x1a17(%rbp)
    cc9b:	66 c7 85 fa e5 ff ff 	movw   $0x3314,-0x1a06(%rbp)
    cca2:	14 33 
    cca4:	48 8d 05 8d e2 01 00 	lea    0x1e28d(%rip),%rax        # 2af38 <g_3680+0x18>
    ccab:	48 89 85 00 e7 ff ff 	mov    %rax,-0x1900(%rbp)
    ccb2:	48 8d 85 00 e7 ff ff 	lea    -0x1900(%rbp),%rax
    ccb9:	48 89 85 08 e7 ff ff 	mov    %rax,-0x18f8(%rbp)
    ccc0:	48 b8 9d 35 bd 2e ca 	movabs $0xfbb161ca2ebd359d,%rax
    ccc7:	61 b1 fb 
    ccca:	48 89 85 a0 e7 ff ff 	mov    %rax,-0x1860(%rbp)
    ccd1:	48 b8 f0 30 23 f6 62 	movabs $0xa718af62f62330f0,%rax
    ccd8:	af 18 a7 
    ccdb:	48 89 85 a8 e7 ff ff 	mov    %rax,-0x1858(%rbp)
    cce2:	c6 85 ea e5 ff ff ff 	movb   $0xff,-0x1a16(%rbp)
    cce9:	48 8d 85 f8 e5 ff ff 	lea    -0x1a08(%rbp),%rax
    ccf0:	48 89 85 b0 e7 ff ff 	mov    %rax,-0x1850(%rbp)
    ccf7:	c6 85 e1 e5 ff ff c4 	movb   $0xc4,-0x1a1f(%rbp)
    ccfe:	c7 85 74 e6 ff ff ff 	movl   $0xffffffff,-0x198c(%rbp)
    cd05:	ff ff ff 
    cd08:	66 c7 85 fc e5 ff ff 	movw   $0xfff8,-0x1a04(%rbp)
    cd0f:	f8 ff 
    cd11:	66 c7 85 fe e5 ff ff 	movw   $0xfff6,-0x1a02(%rbp)
    cd18:	f6 ff 
    cd1a:	c7 85 78 e6 ff ff 1a 	movl   $0xc74af81a,-0x1988(%rbp)
    cd21:	f8 4a c7 
    cd24:	c7 85 2c e6 ff ff 00 	movl   $0x0,-0x19d4(%rbp)
    cd2b:	00 00 00 
    cd2e:	eb 1b                	jmp    cd4b <func_1+0x596>
    cd30:	8b 85 2c e6 ff ff    	mov    -0x19d4(%rbp),%eax
    cd36:	48 98                	cltq   
    cd38:	48 c7 84 c5 50 e9 ff 	movq   $0x0,-0x16b0(%rbp,%rax,8)
    cd3f:	ff 00 00 00 00 
    cd44:	83 85 2c e6 ff ff 01 	addl   $0x1,-0x19d4(%rbp)
    cd4b:	83 bd 2c e6 ff ff 02 	cmpl   $0x2,-0x19d4(%rbp)
    cd52:	7e dc                	jle    cd30 <func_1+0x57b>
    cd54:	c7 85 2c e6 ff ff 00 	movl   $0x0,-0x19d4(%rbp)
    cd5b:	00 00 00 
    cd5e:	eb 14                	jmp    cd74 <func_1+0x5bf>
    cd60:	8b 85 2c e6 ff ff    	mov    -0x19d4(%rbp),%eax
    cd66:	48 98                	cltq   
    cd68:	c6 44 05 c7 ff       	movb   $0xff,-0x39(%rbp,%rax,1)
    cd6d:	83 85 2c e6 ff ff 01 	addl   $0x1,-0x19d4(%rbp)
    cd74:	83 bd 2c e6 ff ff 00 	cmpl   $0x0,-0x19d4(%rbp)
    cd7b:	7e e3                	jle    cd60 <func_1+0x5ab>
    cd7d:	c7 85 2c e6 ff ff 00 	movl   $0x0,-0x19d4(%rbp)
    cd84:	00 00 00 
    cd87:	eb 19                	jmp    cda2 <func_1+0x5ed>
    cd89:	8b 85 2c e6 ff ff    	mov    -0x19d4(%rbp),%eax
    cd8f:	48 98                	cltq   
    cd91:	66 c7 84 45 16 e9 ff 	movw   $0xfffe,-0x16ea(%rbp,%rax,2)
    cd98:	ff fe ff 
    cd9b:	83 85 2c e6 ff ff 01 	addl   $0x1,-0x19d4(%rbp)
    cda2:	83 bd 2c e6 ff ff 04 	cmpl   $0x4,-0x19d4(%rbp)
    cda9:	7e de                	jle    cd89 <func_1+0x5d4>
    cdab:	c7 85 2c e6 ff ff 00 	movl   $0x0,-0x19d4(%rbp)
    cdb2:	00 00 00 
    cdb5:	eb 1e                	jmp    cdd5 <func_1+0x620>
    cdb7:	8b 85 2c e6 ff ff    	mov    -0x19d4(%rbp),%eax
    cdbd:	48 98                	cltq   
    cdbf:	48 8d 15 02 bb 01 00 	lea    0x1bb02(%rip),%rdx        # 288c8 <g_512>
    cdc6:	48 89 94 c5 10 ea ff 	mov    %rdx,-0x15f0(%rbp,%rax,8)
    cdcd:	ff 
    cdce:	83 85 2c e6 ff ff 01 	addl   $0x1,-0x19d4(%rbp)
    cdd5:	83 bd 2c e6 ff ff 04 	cmpl   $0x4,-0x19d4(%rbp)
    cddc:	7e d9                	jle    cdb7 <func_1+0x602>
    cdde:	c7 85 2c e6 ff ff 00 	movl   $0x0,-0x19d4(%rbp)
    cde5:	00 00 00 
    cde8:	eb 21                	jmp    ce0b <func_1+0x656>
    cdea:	8b 85 2c e6 ff ff    	mov    -0x19d4(%rbp),%eax
    cdf0:	48 98                	cltq   
    cdf2:	48 bb 40 15 b3 8c 7d 	movabs $0x9cf6aa7d8cb31540,%rbx
    cdf9:	aa f6 9c 
    cdfc:	48 89 9c c5 b0 e9 ff 	mov    %rbx,-0x1650(%rbp,%rax,8)
    ce03:	ff 
    ce04:	83 85 2c e6 ff ff 01 	addl   $0x1,-0x19d4(%rbp)
    ce0b:	83 bd 2c e6 ff ff 03 	cmpl   $0x3,-0x19d4(%rbp)
    ce12:	7e d6                	jle    cdea <func_1+0x635>
    ce14:	c7 85 2c e6 ff ff 00 	movl   $0x0,-0x19d4(%rbp)
    ce1b:	00 00 00 
    ce1e:	eb 49                	jmp    ce69 <func_1+0x6b4>
    ce20:	c7 85 30 e6 ff ff 00 	movl   $0x0,-0x19d0(%rbp)
    ce27:	00 00 00 
    ce2a:	eb 2d                	jmp    ce59 <func_1+0x6a4>
    ce2c:	8b 85 30 e6 ff ff    	mov    -0x19d0(%rbp),%eax
    ce32:	48 98                	cltq   
    ce34:	8b 95 2c e6 ff ff    	mov    -0x19d4(%rbp),%edx
    ce3a:	48 63 d2             	movslq %edx,%rdx
    ce3d:	48 01 d2             	add    %rdx,%rdx
    ce40:	48 01 d0             	add    %rdx,%rax
    ce43:	48 8d 15 ee da 01 00 	lea    0x1daee(%rip),%rdx        # 2a938 <g_4024>
    ce4a:	48 89 94 c5 20 e9 ff 	mov    %rdx,-0x16e0(%rbp,%rax,8)
    ce51:	ff 
    ce52:	83 85 30 e6 ff ff 01 	addl   $0x1,-0x19d0(%rbp)
    ce59:	83 bd 30 e6 ff ff 01 	cmpl   $0x1,-0x19d0(%rbp)
    ce60:	7e ca                	jle    ce2c <func_1+0x677>
    ce62:	83 85 2c e6 ff ff 01 	addl   $0x1,-0x19d4(%rbp)
    ce69:	83 bd 2c e6 ff ff 00 	cmpl   $0x0,-0x19d4(%rbp)
    ce70:	7e ae                	jle    ce20 <func_1+0x66b>
    ce72:	90                   	nop
    ce73:	c7 05 a7 81 01 00 01 	movl   $0x1,0x181a7(%rip)        # 25024 <g_3>
    ce7a:	00 00 00 
    ce7d:	e9 6f 07 00 00       	jmpq   d5f1 <func_1+0xe3c>
    ce82:	c6 85 f1 e5 ff ff 74 	movb   $0x74,-0x1a0f(%rbp)
    ce89:	48 c7 85 90 e8 ff ff 	movq   $0x0,-0x1770(%rbp)
    ce90:	00 00 00 00 
    ce94:	48 8d 85 40 ef ff ff 	lea    -0x10c0(%rbp),%rax
    ce9b:	48 05 90 00 00 00    	add    $0x90,%rax
    cea1:	48 89 85 98 e8 ff ff 	mov    %rax,-0x1768(%rbp)
    cea8:	c7 85 b8 e6 ff ff 46 	movl   $0xe9901c46,-0x1948(%rbp)
    ceaf:	1c 90 e9 
    ceb2:	48 8d 05 4f 82 01 00 	lea    0x1824f(%rip),%rax        # 25108 <g_801>
    ceb9:	48 89 85 a0 e8 ff ff 	mov    %rax,-0x1760(%rbp)
    cec0:	48 8d 85 20 ee ff ff 	lea    -0x11e0(%rbp),%rax
    cec7:	48 83 c0 5c          	add    $0x5c,%rax
    cecb:	48 89 85 a8 e8 ff ff 	mov    %rax,-0x1758(%rbp)
    ced2:	48 8d 05 8f 8a 01 00 	lea    0x18a8f(%rip),%rax        # 25968 <g_1612>
    ced9:	48 89 85 b0 e8 ff ff 	mov    %rax,-0x1750(%rbp)
    cee0:	48 8d 05 2d 82 01 00 	lea    0x1822d(%rip),%rax        # 25114 <g_849>
    cee7:	48 89 85 10 e7 ff ff 	mov    %rax,-0x18f0(%rbp)
    ceee:	48 8d 85 10 e7 ff ff 	lea    -0x18f0(%rbp),%rax
    cef5:	48 89 85 18 e7 ff ff 	mov    %rax,-0x18e8(%rbp)
    cefc:	48 8d 85 18 e7 ff ff 	lea    -0x18e8(%rbp),%rax
    cf03:	48 89 85 b8 e8 ff ff 	mov    %rax,-0x1748(%rbp)
    cf0a:	48 8d 05 87 df 01 00 	lea    0x1df87(%rip),%rax        # 2ae98 <g_2511>
    cf11:	48 89 85 c0 e8 ff ff 	mov    %rax,-0x1740(%rbp)
    cf18:	c7 85 bc e6 ff ff 50 	movl   $0x6dd56f50,-0x1944(%rbp)
    cf1f:	6f d5 6d 
    cf22:	48 c7 85 c8 e8 ff ff 	movq   $0x0,-0x1738(%rbp)
    cf29:	00 00 00 00 
    cf2d:	48 8d 05 c4 81 01 00 	lea    0x181c4(%rip),%rax        # 250f8 <g_708>
    cf34:	48 89 85 d0 e8 ff ff 	mov    %rax,-0x1730(%rbp)
    cf3b:	48 8d 05 ae de 01 00 	lea    0x1deae(%rip),%rax        # 2adf0 <g_177>
    cf42:	48 89 85 20 e7 ff ff 	mov    %rax,-0x18e0(%rbp)
    cf49:	48 8d 85 20 e7 ff ff 	lea    -0x18e0(%rbp),%rax
    cf50:	48 89 85 d8 e8 ff ff 	mov    %rax,-0x1728(%rbp)
    cf57:	48 c7 85 28 e7 ff ff 	movq   $0xfffffffffffffffc,-0x18d8(%rbp)
    cf5e:	fc ff ff ff 
    cf62:	48 8d 85 28 e7 ff ff 	lea    -0x18d8(%rbp),%rax
    cf69:	48 89 85 30 e7 ff ff 	mov    %rax,-0x18d0(%rbp)
    cf70:	48 8d 85 30 e7 ff ff 	lea    -0x18d0(%rbp),%rax
    cf77:	48 89 85 e0 e8 ff ff 	mov    %rax,-0x1720(%rbp)
    cf7e:	48 c7 85 70 eb ff ff 	movq   $0x0,-0x1490(%rbp)
    cf85:	00 00 00 00 
    cf89:	48 c7 85 78 eb ff ff 	movq   $0x0,-0x1488(%rbp)
    cf90:	00 00 00 00 
    cf94:	48 8d 85 70 eb ff ff 	lea    -0x1490(%rbp),%rax
    cf9b:	48 83 c0 08          	add    $0x8,%rax
    cf9f:	48 89 85 38 e7 ff ff 	mov    %rax,-0x18c8(%rbp)
    cfa6:	48 8d 85 38 e7 ff ff 	lea    -0x18c8(%rbp),%rax
    cfad:	48 89 85 e8 e8 ff ff 	mov    %rax,-0x1718(%rbp)
    cfb4:	c7 85 c0 e6 ff ff 07 	movl   $0x7,-0x1940(%rbp)
    cfbb:	00 00 00 
    cfbe:	c6 85 f2 e5 ff ff 4e 	movb   $0x4e,-0x1a0e(%rbp)
    cfc5:	66 c7 85 0a e6 ff ff 	movw   $0x53a0,-0x19f6(%rbp)
    cfcc:	a0 53 
    cfce:	48 8d 05 a3 80 01 00 	lea    0x180a3(%rip),%rax        # 25078 <g_64>
    cfd5:	48 89 85 f0 e8 ff ff 	mov    %rax,-0x1710(%rbp)
    cfdc:	c7 85 24 e6 ff ff 00 	movl   $0x20db9e00,-0x19dc(%rbp)
    cfe3:	9e db 20 
    cfe6:	48 8d 85 c0 f8 ff ff 	lea    -0x740(%rbp),%rax
    cfed:	48 8d 15 ac 21 01 00 	lea    0x121ac(%rip),%rdx        # 1f1a0 <g_3910+0x134>
    cff4:	b9 70 00 00 00       	mov    $0x70,%ecx
    cff9:	48 89 c7             	mov    %rax,%rdi
    cffc:	48 89 d6             	mov    %rdx,%rsi
    cfff:	f3 48 a5             	rep movsq %ds:(%rsi),%es:(%rdi)
    d002:	48 89 f2             	mov    %rsi,%rdx
    d005:	48 89 f8             	mov    %rdi,%rax
    d008:	8b 0a                	mov    (%rdx),%ecx
    d00a:	89 08                	mov    %ecx,(%rax)
    d00c:	48 8d 40 04          	lea    0x4(%rax),%rax
    d010:	48 8d 52 04          	lea    0x4(%rdx),%rdx
    d014:	c7 85 c4 e6 ff ff ff 	movl   $0xffffffff,-0x193c(%rbp)
    d01b:	ff ff ff 
    d01e:	c7 85 28 e6 ff ff f8 	movl   $0xfffffff8,-0x19d8(%rbp)
    d025:	ff ff ff 
    d028:	66 c7 85 40 f1 ff ff 	movw   $0x5e73,-0xec0(%rbp)
    d02f:	73 5e 
    d031:	66 c7 85 42 f1 ff ff 	movw   $0x9,-0xebe(%rbp)
    d038:	09 00 
    d03a:	66 c7 85 44 f1 ff ff 	movw   $0x0,-0xebc(%rbp)
    d041:	00 00 
    d043:	66 c7 85 46 f1 ff ff 	movw   $0x0,-0xeba(%rbp)
    d04a:	00 00 
    d04c:	66 c7 85 48 f1 ff ff 	movw   $0x6,-0xeb8(%rbp)
    d053:	06 00 
    d055:	66 c7 85 4a f1 ff ff 	movw   $0xaacf,-0xeb6(%rbp)
    d05c:	cf aa 
    d05e:	66 c7 85 4c f1 ff ff 	movw   $0x6,-0xeb4(%rbp)
    d065:	06 00 
    d067:	66 c7 85 4e f1 ff ff 	movw   $0x0,-0xeb2(%rbp)
    d06e:	00 00 
    d070:	66 c7 85 50 f1 ff ff 	movw   $0x0,-0xeb0(%rbp)
    d077:	00 00 
    d079:	66 c7 85 52 f1 ff ff 	movw   $0x9b6d,-0xeae(%rbp)
    d080:	6d 9b 
    d082:	66 c7 85 54 f1 ff ff 	movw   $0x3,-0xeac(%rbp)
    d089:	03 00 
    d08b:	66 c7 85 56 f1 ff ff 	movw   $0x3,-0xeaa(%rbp)
    d092:	03 00 
    d094:	66 c7 85 58 f1 ff ff 	movw   $0x0,-0xea8(%rbp)
    d09b:	00 00 
    d09d:	66 c7 85 5a f1 ff ff 	movw   $0x87a9,-0xea6(%rbp)
    d0a4:	a9 87 
    d0a6:	66 c7 85 5c f1 ff ff 	movw   $0x3,-0xea4(%rbp)
    d0ad:	03 00 
    d0af:	66 c7 85 5e f1 ff ff 	movw   $0x3,-0xea2(%rbp)
    d0b6:	03 00 
    d0b8:	66 c7 85 60 f1 ff ff 	movw   $0x87a9,-0xea0(%rbp)
    d0bf:	a9 87 
    d0c1:	66 c7 85 62 f1 ff ff 	movw   $0x0,-0xe9e(%rbp)
    d0c8:	00 00 
    d0ca:	66 c7 85 64 f1 ff ff 	movw   $0xcfe2,-0xe9c(%rbp)
    d0d1:	e2 cf 
    d0d3:	66 c7 85 66 f1 ff ff 	movw   $0x9,-0xe9a(%rbp)
    d0da:	09 00 
    d0dc:	66 c7 85 68 f1 ff ff 	movw   $0xcfe2,-0xe98(%rbp)
    d0e3:	e2 cf 
    d0e5:	66 c7 85 6a f1 ff ff 	movw   $0xaacf,-0xe96(%rbp)
    d0ec:	cf aa 
    d0ee:	66 c7 85 6c f1 ff ff 	movw   $0x5,-0xe94(%rbp)
    d0f5:	05 00 
    d0f7:	66 c7 85 6e f1 ff ff 	movw   $0xffff,-0xe92(%rbp)
    d0fe:	ff ff 
    d100:	66 c7 85 70 f1 ff ff 	movw   $0x6e6a,-0xe90(%rbp)
    d107:	6a 6e 
    d109:	66 c7 85 72 f1 ff ff 	movw   $0xffff,-0xe8e(%rbp)
    d110:	ff ff 
    d112:	66 c7 85 74 f1 ff ff 	movw   $0x5,-0xe8c(%rbp)
    d119:	05 00 
    d11b:	66 c7 85 76 f1 ff ff 	movw   $0xa574,-0xe8a(%rbp)
    d122:	74 a5 
    d124:	66 c7 85 78 f1 ff ff 	movw   $0x87a9,-0xe88(%rbp)
    d12b:	a9 87 
    d12d:	66 c7 85 7a f1 ff ff 	movw   $0x3,-0xe86(%rbp)
    d134:	03 00 
    d136:	66 c7 85 7c f1 ff ff 	movw   $0x85b,-0xe84(%rbp)
    d13d:	5b 08 
    d13f:	66 c7 85 7e f1 ff ff 	movw   $0xf3fa,-0xe82(%rbp)
    d146:	fa f3 
    d148:	66 c7 85 80 f1 ff ff 	movw   $0xa574,-0xe80(%rbp)
    d14f:	74 a5 
    d151:	66 c7 85 82 f1 ff ff 	movw   $0x3,-0xe7e(%rbp)
    d158:	03 00 
    d15a:	66 c7 85 84 f1 ff ff 	movw   $0x3,-0xe7c(%rbp)
    d161:	03 00 
    d163:	66 c7 85 86 f1 ff ff 	movw   $0xa574,-0xe7a(%rbp)
    d16a:	74 a5 
    d16c:	66 c7 85 88 f1 ff ff 	movw   $0xffff,-0xe78(%rbp)
    d173:	ff ff 
    d175:	66 c7 85 8a f1 ff ff 	movw   $0xaacf,-0xe76(%rbp)
    d17c:	cf aa 
    d17e:	66 c7 85 8c f1 ff ff 	movw   $0x0,-0xe74(%rbp)
    d185:	00 00 
    d187:	66 c7 85 8e f1 ff ff 	movw   $0xaacf,-0xe72(%rbp)
    d18e:	cf aa 
    d190:	66 c7 85 90 f1 ff ff 	movw   $0xffff,-0xe70(%rbp)
    d197:	ff ff 
    d199:	66 c7 85 92 f1 ff ff 	movw   $0x57ad,-0xe6e(%rbp)
    d1a0:	ad 57 
    d1a2:	66 c7 85 94 f1 ff ff 	movw   $0x5e73,-0xe6c(%rbp)
    d1a9:	73 5e 
    d1ab:	66 c7 85 96 f1 ff ff 	movw   $0x0,-0xe6a(%rbp)
    d1b2:	00 00 
    d1b4:	66 c7 85 98 f1 ff ff 	movw   $0x5e73,-0xe68(%rbp)
    d1bb:	73 5e 
    d1bd:	66 c7 85 9a f1 ff ff 	movw   $0x87a9,-0xe66(%rbp)
    d1c4:	a9 87 
    d1c6:	66 c7 85 9c f1 ff ff 	movw   $0xe9f8,-0xe64(%rbp)
    d1cd:	f8 e9 
    d1cf:	66 c7 85 9e f1 ff ff 	movw   $0x1,-0xe62(%rbp)
    d1d6:	01 00 
    d1d8:	66 c7 85 a0 f1 ff ff 	movw   $0x0,-0xe60(%rbp)
    d1df:	00 00 
    d1e1:	66 c7 85 a2 f1 ff ff 	movw   $0xf3fa,-0xe5e(%rbp)
    d1e8:	fa f3 
    d1ea:	66 c7 85 a4 f1 ff ff 	movw   $0x3,-0xe5c(%rbp)
    d1f1:	03 00 
    d1f3:	66 c7 85 a6 f1 ff ff 	movw   $0xe9f8,-0xe5a(%rbp)
    d1fa:	f8 e9 
    d1fc:	66 c7 85 a8 f1 ff ff 	movw   $0x0,-0xe58(%rbp)
    d203:	00 00 
    d205:	66 c7 85 aa f1 ff ff 	movw   $0x0,-0xe56(%rbp)
    d20c:	00 00 
    d20e:	66 c7 85 ac f1 ff ff 	movw   $0x67a3,-0xe54(%rbp)
    d215:	a3 67 
    d217:	66 c7 85 ae f1 ff ff 	movw   $0x57ad,-0xe52(%rbp)
    d21e:	ad 57 
    d220:	66 c7 85 b0 f1 ff ff 	movw   $0x5,-0xe50(%rbp)
    d227:	05 00 
    d229:	66 c7 85 b2 f1 ff ff 	movw   $0x0,-0xe4e(%rbp)
    d230:	00 00 
    d232:	66 c7 85 b4 f1 ff ff 	movw   $0x5,-0xe4c(%rbp)
    d239:	05 00 
    d23b:	66 c7 85 b6 f1 ff ff 	movw   $0xaacf,-0xe4a(%rbp)
    d242:	cf aa 
    d244:	66 c7 85 b8 f1 ff ff 	movw   $0x5,-0xe48(%rbp)
    d24b:	05 00 
    d24d:	66 c7 85 ba f1 ff ff 	movw   $0xffff,-0xe46(%rbp)
    d254:	ff ff 
    d256:	66 c7 85 bc f1 ff ff 	movw   $0x6e6a,-0xe44(%rbp)
    d25d:	6a 6e 
    d25f:	66 c7 85 be f1 ff ff 	movw   $0x0,-0xe42(%rbp)
    d266:	00 00 
    d268:	66 c7 85 c0 f1 ff ff 	movw   $0x9b6d,-0xe40(%rbp)
    d26f:	6d 9b 
    d271:	66 c7 85 c2 f1 ff ff 	movw   $0x1,-0xe3e(%rbp)
    d278:	01 00 
    d27a:	66 c7 85 c4 f1 ff ff 	movw   $0x85b,-0xe3c(%rbp)
    d281:	5b 08 
    d283:	66 c7 85 c6 f1 ff ff 	movw   $0xa574,-0xe3a(%rbp)
    d28a:	74 a5 
    d28c:	66 c7 85 c8 f1 ff ff 	movw   $0x0,-0xe38(%rbp)
    d293:	00 00 
    d295:	66 c7 85 ca f1 ff ff 	movw   $0x3,-0xe36(%rbp)
    d29c:	03 00 
    d29e:	66 c7 85 cc f1 ff ff 	movw   $0x1,-0xe34(%rbp)
    d2a5:	01 00 
    d2a7:	66 c7 85 ce f1 ff ff 	movw   $0xa574,-0xe32(%rbp)
    d2ae:	74 a5 
    d2b0:	66 c7 85 d0 f1 ff ff 	movw   $0x0,-0xe30(%rbp)
    d2b7:	00 00 
    d2b9:	66 c7 85 d2 f1 ff ff 	movw   $0xffff,-0xe2e(%rbp)
    d2c0:	ff ff 
    d2c2:	66 c7 85 d4 f1 ff ff 	movw   $0x6,-0xe2c(%rbp)
    d2c9:	06 00 
    d2cb:	66 c7 85 d6 f1 ff ff 	movw   $0x0,-0xe2a(%rbp)
    d2d2:	00 00 
    d2d4:	66 c7 85 d8 f1 ff ff 	movw   $0xffff,-0xe28(%rbp)
    d2db:	ff ff 
    d2dd:	66 c7 85 da f1 ff ff 	movw   $0x0,-0xe26(%rbp)
    d2e4:	00 00 
    d2e6:	66 c7 85 dc f1 ff ff 	movw   $0x6,-0xe24(%rbp)
    d2ed:	06 00 
    d2ef:	66 c7 85 de f1 ff ff 	movw   $0xffff,-0xe22(%rbp)
    d2f6:	ff ff 
    d2f8:	66 c7 85 e0 f1 ff ff 	movw   $0x0,-0xe20(%rbp)
    d2ff:	00 00 
    d301:	48 8d 45 c7          	lea    -0x39(%rbp),%rax
    d305:	48 89 85 f8 e8 ff ff 	mov    %rax,-0x1708(%rbp)
    d30c:	66 c7 85 0c e6 ff ff 	movw   $0x0,-0x19f4(%rbp)
    d313:	00 00 
    d315:	66 c7 85 0e e6 ff ff 	movw   $0xffff,-0x19f2(%rbp)
    d31c:	ff ff 
    d31e:	66 c7 85 20 eb ff ff 	movw   $0xfffe,-0x14e0(%rbp)
    d325:	fe ff 
    d327:	66 c7 85 22 eb ff ff 	movw   $0xfffe,-0x14de(%rbp)
    d32e:	fe ff 
    d330:	66 c7 85 24 eb ff ff 	movw   $0xfffe,-0x14dc(%rbp)
    d337:	fe ff 
    d339:	66 c7 85 26 eb ff ff 	movw   $0xfffe,-0x14da(%rbp)
    d340:	fe ff 
    d342:	66 c7 85 28 eb ff ff 	movw   $0xfffe,-0x14d8(%rbp)
    d349:	fe ff 
    d34b:	66 c7 85 10 e6 ff ff 	movw   $0xfffb,-0x19f0(%rbp)
    d352:	fb ff 
    d354:	c6 85 f3 e5 ff ff b8 	movb   $0xb8,-0x1a0d(%rbp)
    d35b:	48 8d 85 c0 f8 ff ff 	lea    -0x740(%rbp),%rax
    d362:	48 05 e0 02 00 00    	add    $0x2e0,%rax
    d368:	48 89 85 00 f5 ff ff 	mov    %rax,-0xb00(%rbp)
    d36f:	48 8d 85 24 e6 ff ff 	lea    -0x19dc(%rbp),%rax
    d376:	48 89 85 08 f5 ff ff 	mov    %rax,-0xaf8(%rbp)
    d37d:	48 8d 85 28 e6 ff ff 	lea    -0x19d8(%rbp),%rax
    d384:	48 89 85 10 f5 ff ff 	mov    %rax,-0xaf0(%rbp)
    d38b:	48 8d 85 24 e6 ff ff 	lea    -0x19dc(%rbp),%rax
    d392:	48 89 85 18 f5 ff ff 	mov    %rax,-0xae8(%rbp)
    d399:	48 8d 85 c0 f8 ff ff 	lea    -0x740(%rbp),%rax
    d3a0:	48 05 e0 02 00 00    	add    $0x2e0,%rax
    d3a6:	48 89 85 20 f5 ff ff 	mov    %rax,-0xae0(%rbp)
    d3ad:	48 8d 85 c0 f8 ff ff 	lea    -0x740(%rbp),%rax
    d3b4:	48 05 e0 02 00 00    	add    $0x2e0,%rax
    d3ba:	48 89 85 28 f5 ff ff 	mov    %rax,-0xad8(%rbp)
    d3c1:	48 8d 85 24 e6 ff ff 	lea    -0x19dc(%rbp),%rax
    d3c8:	48 89 85 30 f5 ff ff 	mov    %rax,-0xad0(%rbp)
    d3cf:	48 8d 85 c0 f8 ff ff 	lea    -0x740(%rbp),%rax
    d3d6:	48 05 a8 02 00 00    	add    $0x2a8,%rax
    d3dc:	48 89 85 38 f5 ff ff 	mov    %rax,-0xac8(%rbp)
    d3e3:	48 8d 05 8a 7c 01 00 	lea    0x17c8a(%rip),%rax        # 25074 <g_56>
    d3ea:	48 89 85 40 f5 ff ff 	mov    %rax,-0xac0(%rbp)
    d3f1:	48 8d 85 c0 f8 ff ff 	lea    -0x740(%rbp),%rax
    d3f8:	48 05 a8 02 00 00    	add    $0x2a8,%rax
    d3fe:	48 89 85 48 f5 ff ff 	mov    %rax,-0xab8(%rbp)
    d405:	48 8d 85 24 e6 ff ff 	lea    -0x19dc(%rbp),%rax
    d40c:	48 89 85 50 f5 ff ff 	mov    %rax,-0xab0(%rbp)
    d413:	48 8d 85 24 e6 ff ff 	lea    -0x19dc(%rbp),%rax
    d41a:	48 89 85 58 f5 ff ff 	mov    %rax,-0xaa8(%rbp)
    d421:	48 8d 85 c0 f8 ff ff 	lea    -0x740(%rbp),%rax
    d428:	48 05 a8 02 00 00    	add    $0x2a8,%rax
    d42e:	48 89 85 60 f5 ff ff 	mov    %rax,-0xaa0(%rbp)
    d435:	48 8d 05 38 7c 01 00 	lea    0x17c38(%rip),%rax        # 25074 <g_56>
    d43c:	48 89 85 68 f5 ff ff 	mov    %rax,-0xa98(%rbp)
    d443:	48 8d 85 24 e6 ff ff 	lea    -0x19dc(%rbp),%rax
    d44a:	48 89 85 70 f5 ff ff 	mov    %rax,-0xa90(%rbp)
    d451:	48 8d 05 1c 7c 01 00 	lea    0x17c1c(%rip),%rax        # 25074 <g_56>
    d458:	48 89 85 78 f5 ff ff 	mov    %rax,-0xa88(%rbp)
    d45f:	48 8d 85 28 e6 ff ff 	lea    -0x19d8(%rbp),%rax
    d466:	48 89 85 80 f5 ff ff 	mov    %rax,-0xa80(%rbp)
    d46d:	48 8d 85 28 e6 ff ff 	lea    -0x19d8(%rbp),%rax
    d474:	48 89 85 88 f5 ff ff 	mov    %rax,-0xa78(%rbp)
    d47b:	48 8d 05 f2 7b 01 00 	lea    0x17bf2(%rip),%rax        # 25074 <g_56>
    d482:	48 89 85 90 f5 ff ff 	mov    %rax,-0xa70(%rbp)
    d489:	48 8d 85 24 e6 ff ff 	lea    -0x19dc(%rbp),%rax
    d490:	48 89 85 98 f5 ff ff 	mov    %rax,-0xa68(%rbp)
    d497:	48 8d 05 d6 7b 01 00 	lea    0x17bd6(%rip),%rax        # 25074 <g_56>
    d49e:	48 89 85 a0 f5 ff ff 	mov    %rax,-0xa60(%rbp)
    d4a5:	48 8d 85 c0 f8 ff ff 	lea    -0x740(%rbp),%rax
    d4ac:	48 05 a8 02 00 00    	add    $0x2a8,%rax
    d4b2:	48 89 85 a8 f5 ff ff 	mov    %rax,-0xa58(%rbp)
    d4b9:	48 8d 85 24 e6 ff ff 	lea    -0x19dc(%rbp),%rax
    d4c0:	48 89 85 b0 f5 ff ff 	mov    %rax,-0xa50(%rbp)
    d4c7:	48 8d 85 24 e6 ff ff 	lea    -0x19dc(%rbp),%rax
    d4ce:	48 89 85 b8 f5 ff ff 	mov    %rax,-0xa48(%rbp)
    d4d5:	48 8d 85 c0 f8 ff ff 	lea    -0x740(%rbp),%rax
    d4dc:	48 05 a8 02 00 00    	add    $0x2a8,%rax
    d4e2:	48 89 85 c0 f5 ff ff 	mov    %rax,-0xa40(%rbp)
    d4e9:	48 8d 05 84 7b 01 00 	lea    0x17b84(%rip),%rax        # 25074 <g_56>
    d4f0:	48 89 85 c8 f5 ff ff 	mov    %rax,-0xa38(%rbp)
    d4f7:	48 8d 85 c0 f8 ff ff 	lea    -0x740(%rbp),%rax
    d4fe:	48 05 a8 02 00 00    	add    $0x2a8,%rax
    d504:	48 89 85 d0 f5 ff ff 	mov    %rax,-0xa30(%rbp)
    d50b:	48 8d 85 24 e6 ff ff 	lea    -0x19dc(%rbp),%rax
    d512:	48 89 85 d8 f5 ff ff 	mov    %rax,-0xa28(%rbp)
    d519:	66 c7 85 12 e6 ff ff 	movw   $0x4321,-0x19ee(%rbp)
    d520:	21 43 
    d522:	66 c7 85 14 e6 ff ff 	movw   $0x9c21,-0x19ec(%rbp)
    d529:	21 9c 
    d52b:	c7 85 c8 e6 ff ff ff 	movl   $0xffffffff,-0x1938(%rbp)
    d532:	ff ff ff 
    d535:	66 c7 85 16 e6 ff ff 	movw   $0x8da9,-0x19ea(%rbp)
    d53c:	a9 8d 
    d53e:	48 c7 85 20 ed ff ff 	movq   $0x0,-0x12e0(%rbp)
    d545:	00 00 00 00 
    d549:	48 c7 85 28 ed ff ff 	movq   $0x0,-0x12d8(%rbp)
    d550:	00 00 00 00 
    d554:	48 c7 85 30 ed ff ff 	movq   $0x0,-0x12d0(%rbp)
    d55b:	00 00 00 00 
    d55f:	48 c7 85 38 ed ff ff 	movq   $0x0,-0x12c8(%rbp)
    d566:	00 00 00 00 
    d56a:	c7 85 cc e6 ff ff 01 	movl   $0x1,-0x1934(%rbp)
    d571:	00 00 00 
    d574:	48 8d 05 0d 84 01 00 	lea    0x1840d(%rip),%rax        # 25988 <g_2538>
    d57b:	48 89 85 00 e9 ff ff 	mov    %rax,-0x1700(%rbp)
    d582:	c7 85 d0 e6 ff ff fc 	movl   $0xfffffffc,-0x1930(%rbp)
    d589:	ff ff ff 
    d58c:	48 c7 85 08 e9 ff ff 	movq   $0x0,-0x16f8(%rbp)
    d593:	00 00 00 00 
    d597:	66 c7 85 18 e6 ff ff 	movw   $0x5d92,-0x19e8(%rbp)
    d59e:	92 5d 
    d5a0:	c7 85 d4 e6 ff ff 91 	movl   $0x3b3bde91,-0x192c(%rbp)
    d5a7:	de 3b 3b 
    d5aa:	66 c7 85 1a e6 ff ff 	movw   $0x9,-0x19e6(%rbp)
    d5b1:	09 00 
    d5b3:	c7 85 34 e6 ff ff 00 	movl   $0x0,-0x19cc(%rbp)
    d5ba:	00 00 00 
    d5bd:	eb 1a                	jmp    d5d9 <func_1+0xe24>
    d5bf:	8b 85 34 e6 ff ff    	mov    -0x19cc(%rbp),%eax
    d5c5:	48 98                	cltq   
    d5c7:	c7 84 85 e0 ea ff ff 	movl   $0x4460a8d7,-0x1520(%rbp,%rax,4)
    d5ce:	d7 a8 60 44 
    d5d2:	83 85 34 e6 ff ff 01 	addl   $0x1,-0x19cc(%rbp)
    d5d9:	83 bd 34 e6 ff ff 01 	cmpl   $0x1,-0x19cc(%rbp)
    d5e0:	7e dd                	jle    d5bf <func_1+0xe0a>
    d5e2:	8b 05 3c 7a 01 00    	mov    0x17a3c(%rip),%eax        # 25024 <g_3>
    d5e8:	83 e8 01             	sub    $0x1,%eax
    d5eb:	89 05 33 7a 01 00    	mov    %eax,0x17a33(%rip)        # 25024 <g_3>
    d5f1:	8b 05 2d 7a 01 00    	mov    0x17a2d(%rip),%eax        # 25024 <g_3>
    d5f7:	85 c0                	test   %eax,%eax
    d5f9:	0f 89 83 f8 ff ff    	jns    ce82 <func_1+0x6cd>
    d5ff:	48 8b 85 60 e7 ff ff 	mov    -0x18a0(%rbp),%rax
    d606:	8b 10                	mov    (%rax),%edx
    d608:	0f be 85 e9 e5 ff ff 	movsbl -0x1a17(%rbp),%eax
    d60f:	21 c2                	and    %eax,%edx
    d611:	48 8b 85 60 e7 ff ff 	mov    -0x18a0(%rbp),%rax
    d618:	89 10                	mov    %edx,(%rax)
    d61a:	48 8b 85 60 e7 ff ff 	mov    -0x18a0(%rbp),%rax
    d621:	8b 08                	mov    (%rax),%ecx
    d623:	48 8b 05 a6 d2 01 00 	mov    0x1d2a6(%rip),%rax        # 2a8d0 <g_3475>
    d62a:	48 8b 00             	mov    (%rax),%rax
    d62d:	8b 10                	mov    (%rax),%edx
    d62f:	09 ca                	or     %ecx,%edx
    d631:	89 10                	mov    %edx,(%rax)
    d633:	8b 00                	mov    (%rax),%eax
    d635:	85 c0                	test   %eax,%eax
    d637:	0f 84 52 08 00 00    	je     de8f <func_1+0x16da>
    d63d:	48 b8 02 aa aa 02 aa 	movabs $0xaa02aaaa02aaaa02,%rax
    d644:	aa 02 aa 
    d647:	48 89 85 40 f1 ff ff 	mov    %rax,-0xec0(%rbp)
    d64e:	48 bb 02 02 01 02 02 	movabs $0x202010202010202,%rbx
    d655:	01 02 02 
    d658:	48 89 9d 48 f1 ff ff 	mov    %rbx,-0xeb8(%rbp)
    d65f:	48 b9 aa 02 aa aa 02 	movabs $0x2aaaa02aaaa02aa,%rcx
    d666:	aa aa 02 
    d669:	48 89 8d 50 f1 ff ff 	mov    %rcx,-0xeb0(%rbp)
    d670:	48 89 85 58 f1 ff ff 	mov    %rax,-0xea8(%rbp)
    d677:	48 89 9d 60 f1 ff ff 	mov    %rbx,-0xea0(%rbp)
    d67e:	48 89 8d 68 f1 ff ff 	mov    %rcx,-0xe98(%rbp)
    d685:	48 8d 85 20 e6 ff ff 	lea    -0x19e0(%rbp),%rax
    d68c:	48 89 85 60 e8 ff ff 	mov    %rax,-0x17a0(%rbp)
    d693:	48 8d 85 08 e7 ff ff 	lea    -0x18f8(%rbp),%rax
    d69a:	48 89 85 68 e8 ff ff 	mov    %rax,-0x1798(%rbp)
    d6a1:	48 8d 85 e0 e5 ff ff 	lea    -0x1a20(%rbp),%rax
    d6a8:	48 89 85 70 e8 ff ff 	mov    %rax,-0x1790(%rbp)
    d6af:	48 8d 85 c0 f8 ff ff 	lea    -0x740(%rbp),%rax
    d6b6:	48 8d 15 83 1e 01 00 	lea    0x11e83(%rip),%rdx        # 1f540 <g_3910+0x4d4>
    d6bd:	b9 2d 00 00 00       	mov    $0x2d,%ecx
    d6c2:	48 89 c7             	mov    %rax,%rdi
    d6c5:	48 89 d6             	mov    %rdx,%rsi
    d6c8:	f3 48 a5             	rep movsq %ds:(%rsi),%es:(%rdi)
    d6cb:	66 c7 85 08 e6 ff ff 	movw   $0x86af,-0x19f8(%rbp)
    d6d2:	af 86 
    d6d4:	c7 85 a8 e6 ff ff ff 	movl   $0xffffffff,-0x1958(%rbp)
    d6db:	ff ff ff 
    d6de:	c7 85 ac e6 ff ff ff 	movl   $0xffffffff,-0x1954(%rbp)
    d6e5:	ff ff ff 
    d6e8:	48 8d 85 f8 e6 ff ff 	lea    -0x1908(%rbp),%rax
    d6ef:	48 89 85 78 e8 ff ff 	mov    %rax,-0x1788(%rbp)
    d6f6:	48 8b 85 60 e7 ff ff 	mov    -0x18a0(%rbp),%rax
    d6fd:	8b 00                	mov    (%rax),%eax
    d6ff:	0f bf d8             	movswl %ax,%ebx
    d702:	48 8b 85 60 e7 ff ff 	mov    -0x18a0(%rbp),%rax
    d709:	8b 00                	mov    (%rax),%eax
    d70b:	44 0f bf e0          	movswl %ax,%r12d
    d70f:	48 8b 05 ba b1 01 00 	mov    0x1b1ba(%rip),%rax        # 288d0 <g_602>
    d716:	48 8b 05 2b af 01 00 	mov    0x1af2b(%rip),%rax        # 28648 <g_356>
    d71d:	48 8b 00             	mov    (%rax),%rax
    d720:	0f b7 00             	movzwl (%rax),%eax
    d723:	0f b7 c0             	movzwl %ax,%eax
    d726:	be 08 00 00 00       	mov    $0x8,%esi
    d72b:	89 c7                	mov    %eax,%edi
    d72d:	e8 16 e7 ff ff       	callq  be48 <safe_rshift_func_uint16_t_u_s>
    d732:	48 8b 85 68 e7 ff ff 	mov    -0x1898(%rbp),%rax
    d739:	8b 00                	mov    (%rax),%eax
    d73b:	85 c0                	test   %eax,%eax
    d73d:	0f 9f c0             	setg   %al
    d740:	0f b6 d0             	movzbl %al,%edx
    d743:	48 8b 85 60 e8 ff ff 	mov    -0x17a0(%rbp),%rax
    d74a:	8b 00                	mov    (%rax),%eax
    d74c:	39 c2                	cmp    %eax,%edx
    d74e:	0f 9c c0             	setl   %al
    d751:	0f b6 c0             	movzbl %al,%eax
    d754:	44 89 e6             	mov    %r12d,%esi
    d757:	89 c7                	mov    %eax,%edi
    d759:	e8 75 dc ff ff       	callq  b3d3 <safe_sub_func_int16_t_s_s>
    d75e:	0f bf d0             	movswl %ax,%edx
    d761:	48 8b 85 60 e7 ff ff 	mov    -0x18a0(%rbp),%rax
    d768:	8b 00                	mov    (%rax),%eax
    d76a:	39 c2                	cmp    %eax,%edx
    d76c:	0f 95 c0             	setne  %al
    d76f:	0f b6 d0             	movzbl %al,%edx
    d772:	48 8b 85 60 e8 ff ff 	mov    -0x17a0(%rbp),%rax
    d779:	8b 00                	mov    (%rax),%eax
    d77b:	21 d0                	and    %edx,%eax
    d77d:	0d 3f 9c 00 00       	or     $0x9c3f,%eax
    d782:	f7 d0                	not    %eax
    d784:	c1 e8 1f             	shr    $0x1f,%eax
    d787:	0f b6 d0             	movzbl %al,%edx
    d78a:	48 8b 05 af d1 01 00 	mov    0x1d1af(%rip),%rax        # 2a940 <g_4023>
    d791:	48 8b 00             	mov    (%rax),%rax
    d794:	48 8b 00             	mov    (%rax),%rax
    d797:	8b 08                	mov    (%rax),%ecx
    d799:	8b 05 1d 82 01 00    	mov    0x1821d(%rip),%eax        # 259bc <g_3130+0x1c>
    d79f:	83 e8 01             	sub    $0x1,%eax
    d7a2:	89 05 14 82 01 00    	mov    %eax,0x18214(%rip)        # 259bc <g_3130+0x1c>
    d7a8:	8b 05 0e 82 01 00    	mov    0x1820e(%rip),%eax        # 259bc <g_3130+0x1c>
    d7ae:	39 c1                	cmp    %eax,%ecx
    d7b0:	0f 95 c0             	setne  %al
    d7b3:	0f b6 c0             	movzbl %al,%eax
    d7b6:	89 d6                	mov    %edx,%esi
    d7b8:	89 c7                	mov    %eax,%edi
    d7ba:	e8 d4 e3 ff ff       	callq  bb93 <safe_mul_func_uint8_t_u_u>
    d7bf:	0f b6 c0             	movzbl %al,%eax
    d7c2:	89 de                	mov    %ebx,%esi
    d7c4:	89 c7                	mov    %eax,%edi
    d7c6:	e8 2a dc ff ff       	callq  b3f5 <safe_mul_func_int16_t_s_s>
    d7cb:	48 8b 05 66 d1 01 00 	mov    0x1d166(%rip),%rax        # 2a938 <g_4024>
    d7d2:	48 8b 00             	mov    (%rax),%rax
    d7d5:	8b 10                	mov    (%rax),%edx
    d7d7:	48 8b 05 da d0 01 00 	mov    0x1d0da(%rip),%rax        # 2a8b8 <g_2990>
    d7de:	8b 00                	mov    (%rax),%eax
    d7e0:	39 c2                	cmp    %eax,%edx
    d7e2:	77 08                	ja     d7ec <func_1+0x1037>
    d7e4:	66 83 bd fa e5 ff ff 	cmpw   $0x0,-0x1a06(%rbp)
    d7eb:	00 
    d7ec:	48 8b 05 65 b6 01 00 	mov    0x1b665(%rip),%rax        # 28e58 <g_1177>
    d7f3:	66 c7 00 00 00       	movw   $0x0,(%rax)
    d7f8:	0f b7 00             	movzwl (%rax),%eax
    d7fb:	0f b7 c0             	movzwl %ax,%eax
    d7fe:	be 08 00 00 00       	mov    $0x8,%esi
    d803:	89 c7                	mov    %eax,%edi
    d805:	e8 b4 e5 ff ff       	callq  bdbe <safe_lshift_func_uint16_t_u_s>
    d80a:	0f b7 d0             	movzwl %ax,%edx
    d80d:	48 8b 85 60 e8 ff ff 	mov    -0x17a0(%rbp),%rax
    d814:	89 10                	mov    %edx,(%rax)
    d816:	8b 05 64 81 01 00    	mov    0x18164(%rip),%eax        # 25980 <g_2154>
    d81c:	0f be d8             	movsbl %al,%ebx
    d81f:	48 8b 05 1a ae 01 00 	mov    0x1ae1a(%rip),%rax        # 28640 <g_357>
    d826:	0f b7 00             	movzwl (%rax),%eax
    d829:	44 0f bf e0          	movswl %ax,%r12d
    d82d:	48 8b 85 60 e8 ff ff 	mov    -0x17a0(%rbp),%rax
    d834:	8b 00                	mov    (%rax),%eax
    d836:	44 0f b6 e8          	movzbl %al,%r13d
    d83a:	48 8b 85 60 e8 ff ff 	mov    -0x17a0(%rbp),%rax
    d841:	44 8b 38             	mov    (%rax),%r15d
    d844:	48 8b 85 60 e8 ff ff 	mov    -0x17a0(%rbp),%rax
    d84b:	8b 00                	mov    (%rax),%eax
    d84d:	44 0f bf f0          	movswl %ax,%r14d
    d851:	48 8b 85 60 e8 ff ff 	mov    -0x17a0(%rbp),%rax
    d858:	8b 00                	mov    (%rax),%eax
    d85a:	85 c0                	test   %eax,%eax
    d85c:	74 07                	je     d865 <func_1+0x10b0>
    d85e:	ba 01 00 00 00       	mov    $0x1,%edx
    d863:	eb 05                	jmp    d86a <func_1+0x10b5>
    d865:	ba 00 00 00 00       	mov    $0x0,%edx
    d86a:	48 8b 85 60 e7 ff ff 	mov    -0x18a0(%rbp),%rax
    d871:	89 10                	mov    %edx,(%rax)
    d873:	48 8b 85 60 e7 ff ff 	mov    -0x18a0(%rbp),%rax
    d87a:	8b 00                	mov    (%rax),%eax
    d87c:	89 c1                	mov    %eax,%ecx
    d87e:	48 8b 95 08 e7 ff ff 	mov    -0x18f8(%rbp),%rdx
    d885:	48 8b 85 68 e8 ff ff 	mov    -0x1798(%rbp),%rax
    d88c:	48 89 10             	mov    %rdx,(%rax)
    d88f:	48 8b 85 68 e8 ff ff 	mov    -0x1798(%rbp),%rax
    d896:	48 8b 00             	mov    (%rax),%rax
    d899:	48 8d 15 68 d6 01 00 	lea    0x1d668(%rip),%rdx        # 2af08 <g_2801>
    d8a0:	48 39 d0             	cmp    %rdx,%rax
    d8a3:	0f 94 c2             	sete   %dl
    d8a6:	48 8b 05 0b d0 01 00 	mov    0x1d00b(%rip),%rax        # 2a8b8 <g_2990>
    d8ad:	0f b6 d2             	movzbl %dl,%edx
    d8b0:	89 10                	mov    %edx,(%rax)
    d8b2:	8b 00                	mov    (%rax),%eax
    d8b4:	89 c2                	mov    %eax,%edx
    d8b6:	48 8b 05 db d6 01 00 	mov    0x1d6db(%rip),%rax        # 2af98 <g_4159>
    d8bd:	48 39 c2             	cmp    %rax,%rdx
    d8c0:	0f 92 c0             	setb   %al
    d8c3:	0f b6 c0             	movzbl %al,%eax
    d8c6:	89 ce                	mov    %ecx,%esi
    d8c8:	89 c7                	mov    %eax,%edi
    d8ca:	e8 01 e6 ff ff       	callq  bed0 <safe_sub_func_uint32_t_u_u>
    d8cf:	89 c2                	mov    %eax,%edx
    d8d1:	48 8b 85 70 e8 ff ff 	mov    -0x1790(%rbp),%rax
    d8d8:	88 10                	mov    %dl,(%rax)
    d8da:	48 8b 85 70 e8 ff ff 	mov    -0x1790(%rbp),%rax
    d8e1:	0f b6 00             	movzbl (%rax),%eax
    d8e4:	0f b6 d0             	movzbl %al,%edx
    d8e7:	48 8b 05 2a ad 01 00 	mov    0x1ad2a(%rip),%rax        # 28618 <g_128>
    d8ee:	0f b6 00             	movzbl (%rax),%eax
    d8f1:	0f be c0             	movsbl %al,%eax
    d8f4:	39 c2                	cmp    %eax,%edx
    d8f6:	0f 94 c0             	sete   %al
    d8f9:	0f b6 d0             	movzbl %al,%edx
    d8fc:	8b 85 0c f9 ff ff    	mov    -0x6f4(%rbp),%eax
    d902:	21 d0                	and    %edx,%eax
    d904:	89 85 0c f9 ff ff    	mov    %eax,-0x6f4(%rbp)
    d90a:	8b 85 0c f9 ff ff    	mov    -0x6f4(%rbp),%eax
    d910:	89 c2                	mov    %eax,%edx
    d912:	48 8b 85 68 e7 ff ff 	mov    -0x1898(%rbp),%rax
    d919:	8b 00                	mov    (%rax),%eax
    d91b:	0f b6 c0             	movzbl %al,%eax
    d91e:	89 d6                	mov    %edx,%esi
    d920:	89 c7                	mov    %eax,%edi
    d922:	e8 97 e3 ff ff       	callq  bcbe <safe_rshift_func_uint8_t_u_u>
    d927:	0f b6 c0             	movzbl %al,%eax
    d92a:	44 89 f6             	mov    %r14d,%esi
    d92d:	89 c7                	mov    %eax,%edi
    d92f:	e8 c1 da ff ff       	callq  b3f5 <safe_mul_func_int16_t_s_s>
    d934:	98                   	cwtl   
    d935:	41 39 c7             	cmp    %eax,%r15d
    d938:	0f 9d c0             	setge  %al
    d93b:	0f b6 c0             	movzbl %al,%eax
    d93e:	be ff 00 00 00       	mov    $0xff,%esi
    d943:	89 c7                	mov    %eax,%edi
    d945:	e8 49 e2 ff ff       	callq  bb93 <safe_mul_func_uint8_t_u_u>
    d94a:	48 8b 05 ef cf 01 00 	mov    0x1cfef(%rip),%rax        # 2a940 <g_4023>
    d951:	48 8b 00             	mov    (%rax),%rax
    d954:	48 85 c0             	test   %rax,%rax
    d957:	0f 94 c0             	sete   %al
    d95a:	0f b6 c0             	movzbl %al,%eax
    d95d:	44 89 ee             	mov    %r13d,%esi
    d960:	89 c7                	mov    %eax,%edi
    d962:	e8 2c e2 ff ff       	callq  bb93 <safe_mul_func_uint8_t_u_u>
    d967:	89 c2                	mov    %eax,%edx
    d969:	48 8b 05 a8 ac 01 00 	mov    0x1aca8(%rip),%rax        # 28618 <g_128>
    d970:	88 10                	mov    %dl,(%rax)
    d972:	0f b6 00             	movzbl (%rax),%eax
    d975:	0f be c0             	movsbl %al,%eax
    d978:	be 00 00 00 00       	mov    $0x0,%esi
    d97d:	89 c7                	mov    %eax,%edi
    d97f:	e8 50 d8 ff ff       	callq  b1d4 <safe_add_func_int8_t_s_s>
    d984:	0f be d0             	movsbl %al,%edx
    d987:	48 8b 85 90 e7 ff ff 	mov    -0x1870(%rbp),%rax
    d98e:	8b 00                	mov    (%rax),%eax
    d990:	09 c2                	or     %eax,%edx
    d992:	0f b7 85 08 e6 ff ff 	movzwl -0x19f8(%rbp),%eax
    d999:	39 c2                	cmp    %eax,%edx
    d99b:	0f 9c c0             	setl   %al
    d99e:	0f b6 c0             	movzbl %al,%eax
    d9a1:	be 00 00 00 00       	mov    $0x0,%esi
    d9a6:	89 c7                	mov    %eax,%edi
    d9a8:	e8 bf d9 ff ff       	callq  b36c <safe_rshift_func_int8_t_s_u>
    d9ad:	0f be c0             	movsbl %al,%eax
    d9b0:	be 0a 00 00 00       	mov    $0xa,%esi
    d9b5:	89 c7                	mov    %eax,%edi
    d9b7:	e8 6e db ff ff       	callq  b52a <safe_rshift_func_int16_t_s_s>
    d9bc:	98                   	cwtl   
    d9bd:	44 89 e6             	mov    %r12d,%esi
    d9c0:	89 c7                	mov    %eax,%edi
    d9c2:	e8 4f da ff ff       	callq  b416 <safe_mod_func_int16_t_s_s>
    d9c7:	89 de                	mov    %ebx,%esi
    d9c9:	bf 01 00 00 00       	mov    $0x1,%edi
    d9ce:	e8 97 d8 ff ff       	callq  b26a <safe_div_func_int8_t_s_s>
    d9d3:	89 c2                	mov    %eax,%edx
    d9d5:	48 8b 85 60 e8 ff ff 	mov    -0x17a0(%rbp),%rax
    d9dc:	8b 00                	mov    (%rax),%eax
    d9de:	31 c2                	xor    %eax,%edx
    d9e0:	8b 85 a8 e6 ff ff    	mov    -0x1958(%rbp),%eax
    d9e6:	09 d0                	or     %edx,%eax
    d9e8:	89 c2                	mov    %eax,%edx
    d9ea:	8b 85 ac e6 ff ff    	mov    -0x1954(%rbp),%eax
    d9f0:	21 d0                	and    %edx,%eax
    d9f2:	0f b6 c0             	movzbl %al,%eax
    d9f5:	be 1d 00 00 00       	mov    $0x1d,%esi
    d9fa:	89 c7                	mov    %eax,%edi
    d9fc:	e8 92 e1 ff ff       	callq  bb93 <safe_mul_func_uint8_t_u_u>
    da01:	48 8b 05 40 b4 01 00 	mov    0x1b440(%rip),%rax        # 28e48 <g_1091>
    da08:	48 8b 00             	mov    (%rax),%rax
    da0b:	8b 08                	mov    (%rax),%ecx
    da0d:	48 8b 05 14 ac 01 00 	mov    0x1ac14(%rip),%rax        # 28628 <g_181>
    da14:	8b 10                	mov    (%rax),%edx
    da16:	48 8b 05 0b ac 01 00 	mov    0x1ac0b(%rip),%rax        # 28628 <g_181>
    da1d:	31 ca                	xor    %ecx,%edx
    da1f:	89 10                	mov    %edx,(%rax)
    da21:	48 8b 05 70 d5 01 00 	mov    0x1d570(%rip),%rax        # 2af98 <g_4159>
    da28:	48 85 c0             	test   %rax,%rax
    da2b:	74 05                	je     da32 <func_1+0x127d>
    da2d:	e9 41 f4 ff ff       	jmpq   ce73 <func_1+0x6be>
    da32:	48 8b 85 a8 e7 ff ff 	mov    -0x1858(%rbp),%rax
    da39:	0f bf d8             	movswl %ax,%ebx
    da3c:	48 8b 85 60 e8 ff ff 	mov    -0x17a0(%rbp),%rax
    da43:	44 8b 20             	mov    (%rax),%r12d
    da46:	48 8b 05 6b ce 01 00 	mov    0x1ce6b(%rip),%rax        # 2a8b8 <g_2990>
    da4d:	8b 00                	mov    (%rax),%eax
    da4f:	83 f8 07             	cmp    $0x7,%eax
    da52:	0f 94 c0             	sete   %al
    da55:	0f b6 c0             	movzbl %al,%eax
    da58:	89 c6                	mov    %eax,%esi
    da5a:	bf ff ff ff ff       	mov    $0xffffffff,%edi
    da5f:	e8 70 d7 ff ff       	callq  b1d4 <safe_add_func_int8_t_s_s>
    da64:	66 98                	cbtw   
    da66:	0f b7 c0             	movzwl %ax,%eax
    da69:	be 01 00 00 00       	mov    $0x1,%esi
    da6e:	89 c7                	mov    %eax,%edi
    da70:	e8 c8 e2 ff ff       	callq  bd3d <safe_mul_func_uint16_t_u_u>
    da75:	0f b7 d0             	movzwl %ax,%edx
    da78:	48 8b 85 90 e7 ff ff 	mov    -0x1870(%rbp),%rax
    da7f:	8b 00                	mov    (%rax),%eax
    da81:	39 c2                	cmp    %eax,%edx
    da83:	0f 9c c0             	setl   %al
    da86:	0f b6 c0             	movzbl %al,%eax
    da89:	44 89 e6             	mov    %r12d,%esi
    da8c:	89 c7                	mov    %eax,%edi
    da8e:	e8 ff d9 ff ff       	callq  b492 <safe_lshift_func_int16_t_s_s>
    da93:	66 85 c0             	test   %ax,%ax
    da96:	74 11                	je     daa9 <func_1+0x12f4>
    da98:	48 83 bd a0 e7 ff ff 	cmpq   $0x0,-0x1860(%rbp)
    da9f:	00 
    daa0:	74 07                	je     daa9 <func_1+0x12f4>
    daa2:	ba 01 00 00 00       	mov    $0x1,%edx
    daa7:	eb 05                	jmp    daae <func_1+0x12f9>
    daa9:	ba 00 00 00 00       	mov    $0x0,%edx
    daae:	48 8b 85 68 e7 ff ff 	mov    -0x1898(%rbp),%rax
    dab5:	8b 00                	mov    (%rax),%eax
    dab7:	21 c2                	and    %eax,%edx
    dab9:	48 8b 85 60 e8 ff ff 	mov    -0x17a0(%rbp),%rax
    dac0:	8b 00                	mov    (%rax),%eax
    dac2:	31 c2                	xor    %eax,%edx
    dac4:	48 8b 05 05 ae 01 00 	mov    0x1ae05(%rip),%rax        # 288d0 <g_602>
    dacb:	48 8b 00             	mov    (%rax),%rax
    dace:	8b 00                	mov    (%rax),%eax
    dad0:	39 c2                	cmp    %eax,%edx
    dad2:	0f 94 c0             	sete   %al
    dad5:	0f b6 d0             	movzbl %al,%edx
    dad8:	48 8d 05 d1 c3 01 00 	lea    0x1c3d1(%rip),%rax        # 29eb0 <g_1645>
    dadf:	48 39 85 78 e8 ff ff 	cmp    %rax,-0x1788(%rbp)
    dae6:	0f 94 c0             	sete   %al
    dae9:	0f b6 c0             	movzbl %al,%eax
    daec:	89 d6                	mov    %edx,%esi
    daee:	89 c7                	mov    %eax,%edi
    daf0:	e8 de d8 ff ff       	callq  b3d3 <safe_sub_func_int16_t_s_s>
    daf5:	44 0f bf e0          	movswl %ax,%r12d
    daf9:	48 8b 85 60 e8 ff ff 	mov    -0x17a0(%rbp),%rax
    db00:	8b 00                	mov    (%rax),%eax
    db02:	83 f8 01             	cmp    $0x1,%eax
    db05:	0f 9e c0             	setle  %al
    db08:	0f b6 d0             	movzbl %al,%edx
    db0b:	48 8b 05 06 ab 01 00 	mov    0x1ab06(%rip),%rax        # 28618 <g_128>
    db12:	0f b6 00             	movzbl (%rax),%eax
    db15:	0f be c0             	movsbl %al,%eax
    db18:	4c 8b 2d f9 aa 01 00 	mov    0x1aaf9(%rip),%r13        # 28618 <g_128>
    db1f:	89 d6                	mov    %edx,%esi
    db21:	89 c7                	mov    %eax,%edi
    db23:	e8 ac d6 ff ff       	callq  b1d4 <safe_add_func_int8_t_s_s>
    db28:	41 88 45 00          	mov    %al,0x0(%r13)
    db2c:	48 8b 85 70 e8 ff ff 	mov    -0x1790(%rbp),%rax
    db33:	c6 00 00             	movb   $0x0,(%rax)
    db36:	48 8b 85 70 e8 ff ff 	mov    -0x1790(%rbp),%rax
    db3d:	0f b6 00             	movzbl (%rax),%eax
    db40:	0f b6 c0             	movzbl %al,%eax
    db43:	44 89 e6             	mov    %r12d,%esi
    db46:	89 c7                	mov    %eax,%edi
    db48:	e8 71 e1 ff ff       	callq  bcbe <safe_rshift_func_uint8_t_u_u>
    db4d:	0f b6 d0             	movzbl %al,%edx
    db50:	48 8b 05 01 b3 01 00 	mov    0x1b301(%rip),%rax        # 28e58 <g_1177>
    db57:	0f b7 00             	movzwl (%rax),%eax
    db5a:	0f b7 c0             	movzwl %ax,%eax
    db5d:	89 d6                	mov    %edx,%esi
    db5f:	89 c7                	mov    %eax,%edi
    db61:	e8 d7 e1 ff ff       	callq  bd3d <safe_mul_func_uint16_t_u_u>
    db66:	98                   	cwtl   
    db67:	89 de                	mov    %ebx,%esi
    db69:	89 c7                	mov    %eax,%edi
    db6b:	e8 43 d8 ff ff       	callq  b3b3 <safe_add_func_int16_t_s_s>
    db70:	66 85 c0             	test   %ax,%ax
    db73:	74 53                	je     dbc8 <func_1+0x1413>
    db75:	48 c7 85 00 f5 ff ff 	movq   $0xfffffffffffffffb,-0xb00(%rbp)
    db7c:	fb ff ff ff 
    db80:	48 b8 50 a6 fb 11 88 	movabs $0xe080f98811fba650,%rax
    db87:	f9 80 e0 
    db8a:	48 89 85 08 f5 ff ff 	mov    %rax,-0xaf8(%rbp)
    db91:	48 89 85 10 f5 ff ff 	mov    %rax,-0xaf0(%rbp)
    db98:	48 c7 85 18 f5 ff ff 	movq   $0xfffffffffffffffb,-0xae8(%rbp)
    db9f:	fb ff ff ff 
    dba3:	48 89 85 20 f5 ff ff 	mov    %rax,-0xae0(%rbp)
    dbaa:	48 89 85 28 f5 ff ff 	mov    %rax,-0xad8(%rbp)
    dbb1:	48 c7 85 30 f5 ff ff 	movq   $0xfffffffffffffffb,-0xad0(%rbp)
    dbb8:	fb ff ff ff 
    dbbc:	48 8b 85 10 f5 ff ff 	mov    -0xaf0(%rbp),%rax
    dbc3:	e9 c9 20 00 00       	jmpq   fc91 <func_1+0x34dc>
    dbc8:	c7 85 b0 e6 ff ff 55 	movl   $0x14a66755,-0x1950(%rbp)
    dbcf:	67 a6 14 
    dbd2:	48 b8 ff 0f e4 38 03 	movabs $0x5abb530338e40fff,%rax
    dbd9:	53 bb 5a 
    dbdc:	48 89 85 50 e7 ff ff 	mov    %rax,-0x18b0(%rbp)
    dbe3:	c7 85 00 f5 ff ff ff 	movl   $0xffffffff,-0xb00(%rbp)
    dbea:	ff ff ff 
    dbed:	c7 85 04 f5 ff ff 00 	movl   $0x0,-0xafc(%rbp)
    dbf4:	00 00 00 
    dbf7:	c7 85 08 f5 ff ff ff 	movl   $0xffffffff,-0xaf8(%rbp)
    dbfe:	ff ff ff 
    dc01:	c7 85 0c f5 ff ff 5f 	movl   $0xb5fac05f,-0xaf4(%rbp)
    dc08:	c0 fa b5 
    dc0b:	c7 85 10 f5 ff ff 5f 	movl   $0xb5fac05f,-0xaf0(%rbp)
    dc12:	c0 fa b5 
    dc15:	c7 85 14 f5 ff ff ff 	movl   $0xffffffff,-0xaec(%rbp)
    dc1c:	ff ff ff 
    dc1f:	c7 85 18 f5 ff ff 00 	movl   $0x0,-0xae8(%rbp)
    dc26:	00 00 00 
    dc29:	c7 85 1c f5 ff ff ff 	movl   $0xffffffff,-0xae4(%rbp)
    dc30:	ff ff ff 
    dc33:	c7 85 20 f5 ff ff 5f 	movl   $0xb5fac05f,-0xae0(%rbp)
    dc3a:	c0 fa b5 
    dc3d:	c7 85 24 f5 ff ff 5f 	movl   $0xb5fac05f,-0xadc(%rbp)
    dc44:	c0 fa b5 
    dc47:	c7 85 38 e6 ff ff 86 	movl   $0xb1260e86,-0x19c8(%rbp)
    dc4e:	0e 26 b1 
    dc51:	66 c7 85 f8 e5 ff ff 	movw   $0xfffa,-0x1a08(%rbp)
    dc58:	fa ff 
    dc5a:	e9 04 02 00 00       	jmpq   de63 <func_1+0x16ae>
    dc5f:	48 8d 05 da b1 01 00 	lea    0x1b1da(%rip),%rax        # 28e40 <g_1055>
    dc66:	48 89 85 80 e8 ff ff 	mov    %rax,-0x1780(%rbp)
    dc6d:	c7 85 b4 e6 ff ff ff 	movl   $0xffffffff,-0x194c(%rbp)
    dc74:	ff ff ff 
    dc77:	48 8b 85 68 e7 ff ff 	mov    -0x1898(%rbp),%rax
    dc7e:	8b 10                	mov    (%rax),%edx
    dc80:	48 8b 85 60 e7 ff ff 	mov    -0x18a0(%rbp),%rax
    dc87:	8b 00                	mov    (%rax),%eax
    dc89:	09 c2                	or     %eax,%edx
    dc8b:	48 8b 85 68 e7 ff ff 	mov    -0x1898(%rbp),%rax
    dc92:	89 10                	mov    %edx,(%rax)
    dc94:	48 8b 05 95 a9 01 00 	mov    0x1a995(%rip),%rax        # 28630 <g_180>
    dc9b:	48 8b 00             	mov    (%rax),%rax
    dc9e:	8b 00                	mov    (%rax),%eax
    dca0:	85 c0                	test   %eax,%eax
    dca2:	0f 85 ce 01 00 00    	jne    de76 <func_1+0x16c1>
    dca8:	48 8b 05 09 ac 01 00 	mov    0x1ac09(%rip),%rax        # 288b8 <g_425>
    dcaf:	48 8b 00             	mov    (%rax),%rax
    dcb2:	8b 18                	mov    (%rax),%ebx
    dcb4:	48 8b 85 90 e7 ff ff 	mov    -0x1870(%rbp),%rax
    dcbb:	8b 00                	mov    (%rax),%eax
    dcbd:	44 0f b7 e0          	movzwl %ax,%r12d
    dcc1:	48 8b 85 60 e8 ff ff 	mov    -0x17a0(%rbp),%rax
    dcc8:	8b 00                	mov    (%rax),%eax
    dcca:	48 63 d0             	movslq %eax,%rdx
    dccd:	48 8b 05 0c cc 01 00 	mov    0x1cc0c(%rip),%rax        # 2a8e0 <g_3765>
    dcd4:	48 8b 00             	mov    (%rax),%rax
    dcd7:	48 85 c0             	test   %rax,%rax
    dcda:	0f 94 c0             	sete   %al
    dcdd:	0f b6 c0             	movzbl %al,%eax
    dce0:	48 89 d6             	mov    %rdx,%rsi
    dce3:	48 89 c7             	mov    %rax,%rdi
    dce6:	e8 95 e3 ff ff       	callq  c080 <safe_mod_func_uint64_t_u_u>
    dceb:	89 c2                	mov    %eax,%edx
    dced:	48 8b 85 60 e8 ff ff 	mov    -0x17a0(%rbp),%rax
    dcf4:	89 10                	mov    %edx,(%rax)
    dcf6:	48 8b 05 db ab 01 00 	mov    0x1abdb(%rip),%rax        # 288d8 <g_803>
    dcfd:	48 8b 00             	mov    (%rax),%rax
    dd00:	8b 10                	mov    (%rax),%edx
    dd02:	48 8b 05 a7 c1 01 00 	mov    0x1c1a7(%rip),%rax        # 29eb0 <g_1645>
    dd09:	48 8b 00             	mov    (%rax),%rax
    dd0c:	48 8b 00             	mov    (%rax),%rax
    dd0f:	48 85 c0             	test   %rax,%rax
    dd12:	0f 95 c0             	setne  %al
    dd15:	0f b6 c0             	movzbl %al,%eax
    dd18:	39 c2                	cmp    %eax,%edx
    dd1a:	7d 13                	jge    dd2f <func_1+0x157a>
    dd1c:	48 8b 05 25 cb 01 00 	mov    0x1cb25(%rip),%rax        # 2a848 <g_2388>
    dd23:	48 8b 00             	mov    (%rax),%rax
    dd26:	48 39 85 80 e8 ff ff 	cmp    %rax,-0x1780(%rbp)
    dd2d:	75 07                	jne    dd36 <func_1+0x1581>
    dd2f:	b8 01 00 00 00       	mov    $0x1,%eax
    dd34:	eb 05                	jmp    dd3b <func_1+0x1586>
    dd36:	b8 00 00 00 00       	mov    $0x0,%eax
    dd3b:	0f b7 c0             	movzwl %ax,%eax
    dd3e:	44 89 e6             	mov    %r12d,%esi
    dd41:	89 c7                	mov    %eax,%edi
    dd43:	e8 46 e0 ff ff       	callq  bd8e <safe_div_func_uint16_t_u_u>
    dd48:	81 bd b0 e6 ff ff 28 	cmpl   $0x8a28,-0x1950(%rbp)
    dd4f:	8a 00 00 
    dd52:	0f 95 c0             	setne  %al
    dd55:	0f b6 d0             	movzbl %al,%edx
    dd58:	48 8b 05 41 ac 01 00 	mov    0x1ac41(%rip),%rax        # 289a0 <g_1028>
    dd5f:	48 8b 00             	mov    (%rax),%rax
    dd62:	31 d0                	xor    %edx,%eax
    dd64:	89 de                	mov    %ebx,%esi
    dd66:	89 c7                	mov    %eax,%edi
    dd68:	e8 98 d8 ff ff       	callq  b605 <safe_sub_func_int32_t_s_s>
    dd6d:	85 c0                	test   %eax,%eax
    dd6f:	74 10                	je     dd81 <func_1+0x15cc>
    dd71:	83 bd b4 e6 ff ff 00 	cmpl   $0x0,-0x194c(%rbp)
    dd78:	74 07                	je     dd81 <func_1+0x15cc>
    dd7a:	b8 01 00 00 00       	mov    $0x1,%eax
    dd7f:	eb 05                	jmp    dd86 <func_1+0x15d1>
    dd81:	b8 00 00 00 00       	mov    $0x0,%eax
    dd86:	48 98                	cltq   
    dd88:	48 21 85 50 e7 ff ff 	and    %rax,-0x18b0(%rbp)
    dd8f:	c7 05 77 73 01 00 00 	movl   $0x0,0x17377(%rip)        # 25110 <g_845>
    dd96:	00 00 00 
    dd99:	e9 99 00 00 00       	jmpq   de37 <func_1+0x1682>
    dd9e:	48 8d 85 c0 f8 ff ff 	lea    -0x740(%rbp),%rax
    dda5:	48 83 c0 4c          	add    $0x4c,%rax
    dda9:	48 89 85 88 e8 ff ff 	mov    %rax,-0x1778(%rbp)
    ddb0:	48 8b 05 09 a8 01 00 	mov    0x1a809(%rip),%rax        # 285c0 <g_91>
    ddb7:	8b 10                	mov    (%rax),%edx
    ddb9:	48 8b 05 00 a8 01 00 	mov    0x1a800(%rip),%rax        # 285c0 <g_91>
    ddc0:	83 ca 2c             	or     $0x2c,%edx
    ddc3:	89 10                	mov    %edx,(%rax)
    ddc5:	48 c7 05 30 73 01 00 	movq   $0x0,0x17330(%rip)        # 25100 <g_709>
    ddcc:	00 00 00 00 
    ddd0:	eb 3a                	jmp    de0c <func_1+0x1657>
    ddd2:	48 8b 05 5f a8 01 00 	mov    0x1a85f(%rip),%rax        # 28638 <g_301>
    ddd9:	48 8b 95 88 e8 ff ff 	mov    -0x1778(%rbp),%rdx
    dde0:	48 89 10             	mov    %rdx,(%rax)
    dde3:	48 8b 05 e6 aa 01 00 	mov    0x1aae6(%rip),%rax        # 288d0 <g_602>
    ddea:	48 8b 00             	mov    (%rax),%rax
    dded:	8b 00                	mov    (%rax),%eax
    ddef:	85 c0                	test   %eax,%eax
    ddf1:	75 28                	jne    de1b <func_1+0x1666>
    ddf3:	83 85 38 e6 ff ff 01 	addl   $0x1,-0x19c8(%rbp)
    ddfa:	48 8b 05 ff 72 01 00 	mov    0x172ff(%rip),%rax        # 25100 <g_709>
    de01:	48 83 c0 01          	add    $0x1,%rax
    de05:	48 89 05 f4 72 01 00 	mov    %rax,0x172f4(%rip)        # 25100 <g_709>
    de0c:	48 8b 05 ed 72 01 00 	mov    0x172ed(%rip),%rax        # 25100 <g_709>
    de13:	48 83 f8 0d          	cmp    $0xd,%rax
    de17:	7f b9                	jg     ddd2 <func_1+0x161d>
    de19:	eb 01                	jmp    de1c <func_1+0x1667>
    de1b:	90                   	nop
    de1c:	8b 05 ee 72 01 00    	mov    0x172ee(%rip),%eax        # 25110 <g_845>
    de22:	89 c0                	mov    %eax,%eax
    de24:	be 06 00 00 00       	mov    $0x6,%esi
    de29:	48 89 c7             	mov    %rax,%rdi
    de2c:	e8 10 da ff ff       	callq  b841 <safe_add_func_int64_t_s_s>
    de31:	89 05 d9 72 01 00    	mov    %eax,0x172d9(%rip)        # 25110 <g_845>
    de37:	8b 05 d3 72 01 00    	mov    0x172d3(%rip),%eax        # 25110 <g_845>
    de3d:	83 f8 02             	cmp    $0x2,%eax
    de40:	0f 86 58 ff ff ff    	jbe    dd9e <func_1+0x15e9>
    de46:	0f b7 85 f8 e5 ff ff 	movzwl -0x1a08(%rbp),%eax
    de4d:	0f b7 c0             	movzwl %ax,%eax
    de50:	be 01 00 00 00       	mov    $0x1,%esi
    de55:	89 c7                	mov    %eax,%edi
    de57:	e8 a3 de ff ff       	callq  bcff <safe_add_func_uint16_t_u_u>
    de5c:	66 89 85 f8 e5 ff ff 	mov    %ax,-0x1a08(%rbp)
    de63:	0f b7 85 f8 e5 ff ff 	movzwl -0x1a08(%rbp),%eax
    de6a:	66 83 f8 19          	cmp    $0x19,%ax
    de6e:	0f 8e eb fd ff ff    	jle    dc5f <func_1+0x14aa>
    de74:	eb 01                	jmp    de77 <func_1+0x16c2>
    de76:	90                   	nop
    de77:	48 8b 05 32 c0 01 00 	mov    0x1c032(%rip),%rax        # 29eb0 <g_1645>
    de7e:	48 8b 00             	mov    (%rax),%rax
    de81:	48 8b 00             	mov    (%rax),%rax
    de84:	48 8b 00             	mov    (%rax),%rax
    de87:	48 8b 00             	mov    (%rax),%rax
    de8a:	e9 02 1e 00 00       	jmpq   fc91 <func_1+0x34dc>
    de8f:	48 8d 05 52 cf 01 00 	lea    0x1cf52(%rip),%rax        # 2ade8 <g_96>
    de96:	48 89 85 b8 e7 ff ff 	mov    %rax,-0x1848(%rbp)
    de9d:	48 c7 85 18 e7 ff ff 	movq   $0x0,-0x18e8(%rbp)
    dea4:	00 00 00 00 
    dea8:	66 c7 85 00 e6 ff ff 	movw   $0xfff8,-0x1a00(%rbp)
    deaf:	f8 ff 
    deb1:	48 8d 05 b0 7a 01 00 	lea    0x17ab0(%rip),%rax        # 25968 <g_1612>
    deb8:	48 89 85 c0 e7 ff ff 	mov    %rax,-0x1840(%rbp)
    debf:	48 c7 85 d0 e9 ff ff 	movq   $0x0,-0x1630(%rbp)
    dec6:	00 00 00 00 
    deca:	48 8d 05 8f af 01 00 	lea    0x1af8f(%rip),%rax        # 28e60 <g_1176>
    ded1:	48 89 85 d8 e9 ff ff 	mov    %rax,-0x1628(%rbp)
    ded8:	48 c7 85 e0 e9 ff ff 	movq   $0x0,-0x1620(%rbp)
    dedf:	00 00 00 00 
    dee3:	48 8d 05 76 af 01 00 	lea    0x1af76(%rip),%rax        # 28e60 <g_1176>
    deea:	48 89 85 e8 e9 ff ff 	mov    %rax,-0x1618(%rbp)
    def1:	48 8d 05 84 71 01 00 	lea    0x17184(%rip),%rax        # 2507c <g_65>
    def8:	48 89 85 c8 e7 ff ff 	mov    %rax,-0x1838(%rbp)
    deff:	48 8d 85 f4 e5 ff ff 	lea    -0x1a0c(%rbp),%rax
    df06:	48 89 85 a0 ea ff ff 	mov    %rax,-0x1560(%rbp)
    df0d:	48 8d 85 f6 e5 ff ff 	lea    -0x1a0a(%rbp),%rax
    df14:	48 89 85 a8 ea ff ff 	mov    %rax,-0x1558(%rbp)
    df1b:	48 8d 85 f6 e5 ff ff 	lea    -0x1a0a(%rbp),%rax
    df22:	48 89 85 b0 ea ff ff 	mov    %rax,-0x1550(%rbp)
    df29:	48 8d 85 f4 e5 ff ff 	lea    -0x1a0c(%rbp),%rax
    df30:	48 89 85 b8 ea ff ff 	mov    %rax,-0x1548(%rbp)
    df37:	48 8d 85 f6 e5 ff ff 	lea    -0x1a0a(%rbp),%rax
    df3e:	48 89 85 c0 ea ff ff 	mov    %rax,-0x1540(%rbp)
    df45:	48 8d 85 f6 e5 ff ff 	lea    -0x1a0a(%rbp),%rax
    df4c:	48 89 85 c8 ea ff ff 	mov    %rax,-0x1538(%rbp)
    df53:	48 8d 85 f4 e5 ff ff 	lea    -0x1a0c(%rbp),%rax
    df5a:	48 89 85 d0 ea ff ff 	mov    %rax,-0x1530(%rbp)
    df61:	48 8d 05 0c 71 01 00 	lea    0x1710c(%rip),%rax        # 25074 <g_56>
    df68:	48 89 85 d0 e7 ff ff 	mov    %rax,-0x1830(%rbp)
    df6f:	c7 85 3c e6 ff ff 6e 	movl   $0x1555576e,-0x19c4(%rbp)
    df76:	57 55 15 
    df79:	c7 85 28 e6 ff ff ff 	movl   $0xffffffff,-0x19d8(%rbp)
    df80:	ff ff ff 
    df83:	c7 85 10 e7 ff ff 6b 	movl   $0x51c9236b,-0x18f0(%rbp)
    df8a:	23 c9 51 
    df8d:	c7 85 90 e9 ff ff ff 	movl   $0xffffffff,-0x1670(%rbp)
    df94:	ff ff ff 
    df97:	c7 85 94 e9 ff ff ff 	movl   $0xffffffff,-0x166c(%rbp)
    df9e:	ff ff ff 
    dfa1:	c7 85 98 e9 ff ff ff 	movl   $0xffffffff,-0x1668(%rbp)
    dfa8:	ff ff ff 
    dfab:	c7 85 9c e9 ff ff ff 	movl   $0xffffffff,-0x1664(%rbp)
    dfb2:	ff ff ff 
    dfb5:	c7 85 a0 e9 ff ff ff 	movl   $0xffffffff,-0x1660(%rbp)
    dfbc:	ff ff ff 
    dfbf:	c7 85 a4 e9 ff ff ff 	movl   $0xffffffff,-0x165c(%rbp)
    dfc6:	ff ff ff 
    dfc9:	c7 85 a8 e9 ff ff ff 	movl   $0xffffffff,-0x1658(%rbp)
    dfd0:	ff ff ff 
    dfd3:	66 c7 85 24 e6 ff ff 	movw   $0xfeaa,-0x19dc(%rbp)
    dfda:	aa fe 
    dfdc:	48 8d 85 24 e6 ff ff 	lea    -0x19dc(%rbp),%rax
    dfe3:	48 89 85 20 ed ff ff 	mov    %rax,-0x12e0(%rbp)
    dfea:	48 8d 85 24 e6 ff ff 	lea    -0x19dc(%rbp),%rax
    dff1:	48 89 85 28 ed ff ff 	mov    %rax,-0x12d8(%rbp)
    dff8:	48 c7 85 30 ed ff ff 	movq   $0x0,-0x12d0(%rbp)
    dfff:	00 00 00 00 
    e003:	48 8d 85 f6 e5 ff ff 	lea    -0x1a0a(%rbp),%rax
    e00a:	48 89 85 38 ed ff ff 	mov    %rax,-0x12c8(%rbp)
    e011:	48 8d 05 d0 70 01 00 	lea    0x170d0(%rip),%rax        # 250e8 <g_327>
    e018:	48 89 85 40 ed ff ff 	mov    %rax,-0x12c0(%rbp)
    e01f:	48 8d 05 c2 70 01 00 	lea    0x170c2(%rip),%rax        # 250e8 <g_327>
    e026:	48 89 85 48 ed ff ff 	mov    %rax,-0x12b8(%rbp)
    e02d:	48 8d 85 f6 e5 ff ff 	lea    -0x1a0a(%rbp),%rax
    e034:	48 89 85 50 ed ff ff 	mov    %rax,-0x12b0(%rbp)
    e03b:	48 c7 85 58 ed ff ff 	movq   $0x0,-0x12a8(%rbp)
    e042:	00 00 00 00 
    e046:	48 8d 85 24 e6 ff ff 	lea    -0x19dc(%rbp),%rax
    e04d:	48 89 85 60 ed ff ff 	mov    %rax,-0x12a0(%rbp)
    e054:	48 8d 85 24 e6 ff ff 	lea    -0x19dc(%rbp),%rax
    e05b:	48 89 85 68 ed ff ff 	mov    %rax,-0x1298(%rbp)
    e062:	48 c7 85 70 ed ff ff 	movq   $0x0,-0x1290(%rbp)
    e069:	00 00 00 00 
    e06d:	48 8d 85 f6 e5 ff ff 	lea    -0x1a0a(%rbp),%rax
    e074:	48 89 85 78 ed ff ff 	mov    %rax,-0x1288(%rbp)
    e07b:	48 8d 05 66 70 01 00 	lea    0x17066(%rip),%rax        # 250e8 <g_327>
    e082:	48 89 85 80 ed ff ff 	mov    %rax,-0x1280(%rbp)
    e089:	48 8d 05 58 70 01 00 	lea    0x17058(%rip),%rax        # 250e8 <g_327>
    e090:	48 89 85 88 ed ff ff 	mov    %rax,-0x1278(%rbp)
    e097:	48 8d 85 f6 e5 ff ff 	lea    -0x1a0a(%rbp),%rax
    e09e:	48 89 85 90 ed ff ff 	mov    %rax,-0x1270(%rbp)
    e0a5:	48 c7 85 98 ed ff ff 	movq   $0x0,-0x1268(%rbp)
    e0ac:	00 00 00 00 
    e0b0:	48 8d 85 24 e6 ff ff 	lea    -0x19dc(%rbp),%rax
    e0b7:	48 89 85 a0 ed ff ff 	mov    %rax,-0x1260(%rbp)
    e0be:	48 8d 85 24 e6 ff ff 	lea    -0x19dc(%rbp),%rax
    e0c5:	48 89 85 a8 ed ff ff 	mov    %rax,-0x1258(%rbp)
    e0cc:	48 c7 85 b0 ed ff ff 	movq   $0x0,-0x1250(%rbp)
    e0d3:	00 00 00 00 
    e0d7:	48 8d 85 f6 e5 ff ff 	lea    -0x1a0a(%rbp),%rax
    e0de:	48 89 85 b8 ed ff ff 	mov    %rax,-0x1248(%rbp)
    e0e5:	48 8d 05 fc 6f 01 00 	lea    0x16ffc(%rip),%rax        # 250e8 <g_327>
    e0ec:	48 89 85 c0 ed ff ff 	mov    %rax,-0x1240(%rbp)
    e0f3:	48 8d 05 ee 6f 01 00 	lea    0x16fee(%rip),%rax        # 250e8 <g_327>
    e0fa:	48 89 85 c8 ed ff ff 	mov    %rax,-0x1238(%rbp)
    e101:	48 8d 85 f6 e5 ff ff 	lea    -0x1a0a(%rbp),%rax
    e108:	48 89 85 d0 ed ff ff 	mov    %rax,-0x1230(%rbp)
    e10f:	48 c7 85 d8 ed ff ff 	movq   $0x0,-0x1228(%rbp)
    e116:	00 00 00 00 
    e11a:	48 8d 85 24 e6 ff ff 	lea    -0x19dc(%rbp),%rax
    e121:	48 89 85 e0 ed ff ff 	mov    %rax,-0x1220(%rbp)
    e128:	48 8d 85 24 e6 ff ff 	lea    -0x19dc(%rbp),%rax
    e12f:	48 89 85 e8 ed ff ff 	mov    %rax,-0x1218(%rbp)
    e136:	48 c7 85 f0 ed ff ff 	movq   $0x0,-0x1210(%rbp)
    e13d:	00 00 00 00 
    e141:	48 8d 85 f6 e5 ff ff 	lea    -0x1a0a(%rbp),%rax
    e148:	48 89 85 f8 ed ff ff 	mov    %rax,-0x1208(%rbp)
    e14f:	48 8d 05 92 6f 01 00 	lea    0x16f92(%rip),%rax        # 250e8 <g_327>
    e156:	48 89 85 00 ee ff ff 	mov    %rax,-0x1200(%rbp)
    e15d:	48 8d 05 84 6f 01 00 	lea    0x16f84(%rip),%rax        # 250e8 <g_327>
    e164:	48 89 85 08 ee ff ff 	mov    %rax,-0x11f8(%rbp)
    e16b:	48 8d 85 f6 e5 ff ff 	lea    -0x1a0a(%rbp),%rax
    e172:	48 89 85 10 ee ff ff 	mov    %rax,-0x11f0(%rbp)
    e179:	48 c7 85 18 ee ff ff 	movq   $0x0,-0x11e8(%rbp)
    e180:	00 00 00 00 
    e184:	48 8d 05 d5 77 01 00 	lea    0x177d5(%rip),%rax        # 25960 <g_1516>
    e18b:	48 89 85 20 e7 ff ff 	mov    %rax,-0x18e0(%rbp)
    e192:	66 c7 85 20 eb ff ff 	movw   $0x2,-0x14e0(%rbp)
    e199:	02 00 
    e19b:	66 c7 85 22 eb ff ff 	movw   $0xfff6,-0x14de(%rbp)
    e1a2:	f6 ff 
    e1a4:	66 c7 85 24 eb ff ff 	movw   $0x2,-0x14dc(%rbp)
    e1ab:	02 00 
    e1ad:	66 c7 85 26 eb ff ff 	movw   $0x263d,-0x14da(%rbp)
    e1b4:	3d 26 
    e1b6:	66 c7 85 28 eb ff ff 	movw   $0xf679,-0x14d8(%rbp)
    e1bd:	79 f6 
    e1bf:	66 c7 85 2a eb ff ff 	movw   $0x0,-0x14d6(%rbp)
    e1c6:	00 00 
    e1c8:	66 c7 85 2c eb ff ff 	movw   $0x263d,-0x14d4(%rbp)
    e1cf:	3d 26 
    e1d1:	66 c7 85 2e eb ff ff 	movw   $0x263d,-0x14d2(%rbp)
    e1d8:	3d 26 
    e1da:	66 c7 85 30 eb ff ff 	movw   $0xfff6,-0x14d0(%rbp)
    e1e1:	f6 ff 
    e1e3:	66 c7 85 32 eb ff ff 	movw   $0xfff6,-0x14ce(%rbp)
    e1ea:	f6 ff 
    e1ec:	66 c7 85 34 eb ff ff 	movw   $0x5d81,-0x14cc(%rbp)
    e1f3:	81 5d 
    e1f5:	66 c7 85 36 eb ff ff 	movw   $0x0,-0x14ca(%rbp)
    e1fc:	00 00 
    e1fe:	66 c7 85 38 eb ff ff 	movw   $0x0,-0x14c8(%rbp)
    e205:	00 00 
    e207:	66 c7 85 3a eb ff ff 	movw   $0xf679,-0x14c6(%rbp)
    e20e:	79 f6 
    e210:	66 c7 85 3c eb ff ff 	movw   $0x5d81,-0x14c4(%rbp)
    e217:	81 5d 
    e219:	66 c7 85 3e eb ff ff 	movw   $0xf679,-0x14c2(%rbp)
    e220:	79 f6 
    e222:	66 c7 85 40 eb ff ff 	movw   $0xfff6,-0x14c0(%rbp)
    e229:	f6 ff 
    e22b:	66 c7 85 42 eb ff ff 	movw   $0x2,-0x14be(%rbp)
    e232:	02 00 
    e234:	66 c7 85 44 eb ff ff 	movw   $0x263d,-0x14bc(%rbp)
    e23b:	3d 26 
    e23d:	66 c7 85 46 eb ff ff 	movw   $0x5d81,-0x14ba(%rbp)
    e244:	81 5d 
    e246:	66 c7 85 48 eb ff ff 	movw   $0xf679,-0x14b8(%rbp)
    e24d:	79 f6 
    e24f:	66 c7 85 4a eb ff ff 	movw   $0x2,-0x14b6(%rbp)
    e256:	02 00 
    e258:	66 c7 85 4c eb ff ff 	movw   $0x2,-0x14b4(%rbp)
    e25f:	02 00 
    e261:	66 c7 85 4e eb ff ff 	movw   $0xf679,-0x14b2(%rbp)
    e268:	79 f6 
    e26a:	66 c7 85 50 eb ff ff 	movw   $0x2,-0x14b0(%rbp)
    e271:	02 00 
    e273:	66 c7 85 52 eb ff ff 	movw   $0xf679,-0x14ae(%rbp)
    e27a:	79 f6 
    e27c:	66 c7 85 54 eb ff ff 	movw   $0xfff6,-0x14ac(%rbp)
    e283:	f6 ff 
    e285:	66 c7 85 56 eb ff ff 	movw   $0x0,-0x14aa(%rbp)
    e28c:	00 00 
    e28e:	66 c7 85 58 eb ff ff 	movw   $0x2,-0x14a8(%rbp)
    e295:	02 00 
    e297:	66 c7 85 5a eb ff ff 	movw   $0xfff6,-0x14a6(%rbp)
    e29e:	f6 ff 
    e2a0:	66 c7 85 5c eb ff ff 	movw   $0x2,-0x14a4(%rbp)
    e2a7:	02 00 
    e2a9:	66 c7 85 5e eb ff ff 	movw   $0x263d,-0x14a2(%rbp)
    e2b0:	3d 26 
    e2b2:	66 c7 85 60 eb ff ff 	movw   $0xf679,-0x14a0(%rbp)
    e2b9:	79 f6 
    e2bb:	66 c7 85 62 eb ff ff 	movw   $0x0,-0x149e(%rbp)
    e2c2:	00 00 
    e2c4:	66 c7 85 64 eb ff ff 	movw   $0x263d,-0x149c(%rbp)
    e2cb:	3d 26 
    e2cd:	66 c7 85 66 eb ff ff 	movw   $0x263d,-0x149a(%rbp)
    e2d4:	3d 26 
    e2d6:	66 c7 85 68 eb ff ff 	movw   $0xfff6,-0x1498(%rbp)
    e2dd:	f6 ff 
    e2df:	66 c7 85 6a eb ff ff 	movw   $0xfff6,-0x1496(%rbp)
    e2e6:	f6 ff 
    e2e8:	66 c7 85 6c eb ff ff 	movw   $0x5d81,-0x1494(%rbp)
    e2ef:	81 5d 
    e2f1:	66 c7 85 6e eb ff ff 	movw   $0x0,-0x1492(%rbp)
    e2f8:	00 00 
    e2fa:	c7 85 40 e6 ff ff 00 	movl   $0x0,-0x19c0(%rbp)
    e301:	00 00 00 
    e304:	eb 1e                	jmp    e324 <func_1+0x1b6f>
    e306:	8b 85 40 e6 ff ff    	mov    -0x19c0(%rbp),%eax
    e30c:	48 98                	cltq   
    e30e:	48 8d 95 20 e7 ff ff 	lea    -0x18e0(%rbp),%rdx
    e315:	48 89 94 c5 e0 ea ff 	mov    %rdx,-0x1520(%rbp,%rax,8)
    e31c:	ff 
    e31d:	83 85 40 e6 ff ff 01 	addl   $0x1,-0x19c0(%rbp)
    e324:	83 bd 40 e6 ff ff 07 	cmpl   $0x7,-0x19c0(%rbp)
    e32b:	7e d9                	jle    e306 <func_1+0x1b51>
    e32d:	48 c7 05 50 76 01 00 	movq   $0x0,0x17650(%rip)        # 25988 <g_2538>
    e334:	00 00 00 00 
    e338:	e9 b7 18 00 00       	jmpq   fbf4 <func_1+0x343f>
    e33d:	c6 85 ec e5 ff ff 00 	movb   $0x0,-0x1a14(%rbp)
    e344:	c6 85 e2 e5 ff ff 01 	movb   $0x1,-0x1a1e(%rbp)
    e34b:	c6 85 ed e5 ff ff e8 	movb   $0xe8,-0x1a13(%rbp)
    e352:	48 8d 05 1f 6d 01 00 	lea    0x16d1f(%rip),%rax        # 25078 <g_64>
    e359:	48 89 85 d8 e7 ff ff 	mov    %rax,-0x1828(%rbp)
    e360:	48 c7 85 e0 e7 ff ff 	movq   $0x9,-0x1820(%rbp)
    e367:	09 00 00 00 
    e36b:	c7 85 7c e6 ff ff 00 	movl   $0x0,-0x1984(%rbp)
    e372:	00 00 00 
    e375:	c7 85 80 e6 ff ff e8 	movl   $0xcb5d35e8,-0x1980(%rbp)
    e37c:	35 5d cb 
    e37f:	c7 85 84 e6 ff ff fa 	movl   $0xfffffffa,-0x197c(%rbp)
    e386:	ff ff ff 
    e389:	48 8d 85 40 f1 ff ff 	lea    -0xec0(%rbp),%rax
    e390:	48 8d 15 29 13 01 00 	lea    0x11329(%rip),%rdx        # 1f6c0 <g_3910+0x654>
    e397:	b9 78 00 00 00       	mov    $0x78,%ecx
    e39c:	48 89 c7             	mov    %rax,%rdi
    e39f:	48 89 d6             	mov    %rdx,%rsi
    e3a2:	f3 48 a5             	rep movsq %ds:(%rsi),%es:(%rdi)
    e3a5:	48 8d 85 a0 ea ff ff 	lea    -0x1560(%rbp),%rax
    e3ac:	48 83 c0 10          	add    $0x10,%rax
    e3b0:	48 89 85 e8 e7 ff ff 	mov    %rax,-0x1818(%rbp)
    e3b7:	66 c7 85 02 e6 ff ff 	movw   $0x358a,-0x19fe(%rbp)
    e3be:	8a 35 
    e3c0:	48 c7 85 f0 e7 ff ff 	movq   $0x0,-0x1810(%rbp)
    e3c7:	00 00 00 00 
    e3cb:	48 8d 85 28 e6 ff ff 	lea    -0x19d8(%rbp),%rax
    e3d2:	48 89 85 f8 e7 ff ff 	mov    %rax,-0x1808(%rbp)
    e3d9:	48 8d 85 00 f5 ff ff 	lea    -0xb00(%rbp),%rax
    e3e0:	48 8d 15 99 16 01 00 	lea    0x11699(%rip),%rdx        # 1fa80 <g_3910+0xa14>
    e3e7:	b9 78 00 00 00       	mov    $0x78,%ecx
    e3ec:	48 89 c7             	mov    %rax,%rdi
    e3ef:	48 89 d6             	mov    %rdx,%rsi
    e3f2:	f3 48 a5             	rep movsq %ds:(%rsi),%es:(%rdi)
    e3f5:	48 8d 05 ec c9 01 00 	lea    0x1c9ec(%rip),%rax        # 2ade8 <g_96>
    e3fc:	48 89 85 00 e8 ff ff 	mov    %rax,-0x1800(%rbp)
    e403:	48 b8 82 b2 cf 1d 36 	movabs $0xe2c44e361dcfb282,%rax
    e40a:	4e c4 e2 
    e40d:	48 89 85 08 e8 ff ff 	mov    %rax,-0x17f8(%rbp)
    e414:	66 c7 85 f4 e5 ff ff 	movw   $0x2,-0x1a0c(%rbp)
    e41b:	02 00 
    e41d:	e9 88 0f 00 00       	jmpq   f3aa <func_1+0x2bf5>
    e422:	c6 85 f0 e5 ff ff 56 	movb   $0x56,-0x1a10(%rbp)
    e429:	c7 85 f0 e9 ff ff f2 	movl   $0xa76b0ef2,-0x1610(%rbp)
    e430:	0e 6b a7 
    e433:	c7 85 f4 e9 ff ff f2 	movl   $0xa76b0ef2,-0x160c(%rbp)
    e43a:	0e 6b a7 
    e43d:	c7 85 f8 e9 ff ff f8 	movl   $0x8e86f5f8,-0x1608(%rbp)
    e444:	f5 86 8e 
    e447:	c7 85 fc e9 ff ff f2 	movl   $0xa76b0ef2,-0x1604(%rbp)
    e44e:	0e 6b a7 
    e451:	c7 85 00 ea ff ff f2 	movl   $0xa76b0ef2,-0x1600(%rbp)
    e458:	0e 6b a7 
    e45b:	c7 85 04 ea ff ff f8 	movl   $0x8e86f5f8,-0x15fc(%rbp)
    e462:	f5 86 8e 
    e465:	c7 85 08 ea ff ff f2 	movl   $0xa76b0ef2,-0x15f8(%rbp)
    e46c:	0e 6b a7 
    e46f:	c7 85 0c ea ff ff f2 	movl   $0xa76b0ef2,-0x15f4(%rbp)
    e476:	0e 6b a7 
    e479:	48 8d 05 d8 a9 01 00 	lea    0x1a9d8(%rip),%rax        # 28e58 <g_1177>
    e480:	48 89 85 28 e8 ff ff 	mov    %rax,-0x17d8(%rbp)
    e487:	66 c7 85 04 e6 ff ff 	movw   $0x8879,-0x19fc(%rbp)
    e48e:	79 88 
    e490:	c7 85 90 e6 ff ff 5f 	movl   $0xd221595f,-0x1970(%rbp)
    e497:	59 21 d2 
    e49a:	48 8d 85 18 e7 ff ff 	lea    -0x18e8(%rbp),%rax
    e4a1:	48 89 85 28 e7 ff ff 	mov    %rax,-0x18d8(%rbp)
    e4a8:	c7 85 94 e6 ff ff 04 	movl   $0x4,-0x196c(%rbp)
    e4af:	00 00 00 
    e4b2:	c7 85 98 e6 ff ff 85 	movl   $0x9ec24785,-0x1968(%rbp)
    e4b9:	47 c2 9e 
    e4bc:	66 c7 85 06 e6 ff ff 	movw   $0x538b,-0x19fa(%rbp)
    e4c3:	8b 53 
    e4c5:	c7 85 44 e6 ff ff 00 	movl   $0x0,-0x19bc(%rbp)
    e4cc:	00 00 00 
    e4cf:	eb 1e                	jmp    e4ef <func_1+0x1d3a>
    e4d1:	8b 85 44 e6 ff ff    	mov    -0x19bc(%rbp),%eax
    e4d7:	48 98                	cltq   
    e4d9:	48 8d 95 28 e7 ff ff 	lea    -0x18d8(%rbp),%rdx
    e4e0:	48 89 94 c5 30 e9 ff 	mov    %rdx,-0x16d0(%rbp,%rax,8)
    e4e7:	ff 
    e4e8:	83 85 44 e6 ff ff 01 	addl   $0x1,-0x19bc(%rbp)
    e4ef:	83 bd 44 e6 ff ff 01 	cmpl   $0x1,-0x19bc(%rbp)
    e4f6:	7e d9                	jle    e4d1 <func_1+0x1d1c>
    e4f8:	c7 85 44 e6 ff ff 00 	movl   $0x0,-0x19bc(%rbp)
    e4ff:	00 00 00 
    e502:	eb 1b                	jmp    e51f <func_1+0x1d6a>
    e504:	8b 85 44 e6 ff ff    	mov    -0x19bc(%rbp),%eax
    e50a:	48 98                	cltq   
    e50c:	48 c7 84 c5 70 e9 ff 	movq   $0x0,-0x1690(%rbp,%rax,8)
    e513:	ff 00 00 00 00 
    e518:	83 85 44 e6 ff ff 01 	addl   $0x1,-0x19bc(%rbp)
    e51f:	83 bd 44 e6 ff ff 02 	cmpl   $0x2,-0x19bc(%rbp)
    e526:	7e dc                	jle    e504 <func_1+0x1d4f>
    e528:	c7 85 44 e6 ff ff 00 	movl   $0x0,-0x19bc(%rbp)
    e52f:	00 00 00 
    e532:	eb 1b                	jmp    e54f <func_1+0x1d9a>
    e534:	8b 85 44 e6 ff ff    	mov    -0x19bc(%rbp),%eax
    e53a:	48 98                	cltq   
    e53c:	48 c7 84 c5 40 e9 ff 	movq   $0x0,-0x16c0(%rbp,%rax,8)
    e543:	ff 00 00 00 00 
    e548:	83 85 44 e6 ff ff 01 	addl   $0x1,-0x19bc(%rbp)
    e54f:	83 bd 44 e6 ff ff 01 	cmpl   $0x1,-0x19bc(%rbp)
    e556:	7e dc                	jle    e534 <func_1+0x1d7f>
    e558:	48 c7 85 40 e7 ff ff 	movq   $0x0,-0x18c0(%rbp)
    e55f:	00 00 00 00 
    e563:	eb 2b                	jmp    e590 <func_1+0x1ddb>
    e565:	c7 85 a4 e6 ff ff 35 	movl   $0x71e4e035,-0x195c(%rbp)
    e56c:	e0 e4 71 
    e56f:	48 8d 85 f8 e5 ff ff 	lea    -0x1a08(%rbp),%rax
    e576:	48 89 85 50 e8 ff ff 	mov    %rax,-0x17b0(%rbp)
    e57d:	48 c7 85 58 e8 ff ff 	movq   $0xfffffffffffffff7,-0x17a8(%rbp)
    e584:	f7 ff ff ff 
    e588:	48 83 85 40 e7 ff ff 	addq   $0x1,-0x18c0(%rbp)
    e58f:	01 
    e590:	48 83 bd 40 e7 ff ff 	cmpq   $0x6,-0x18c0(%rbp)
    e597:	06 
    e598:	76 cb                	jbe    e565 <func_1+0x1db0>
    e59a:	48 c7 85 48 e7 ff ff 	movq   $0x0,-0x18b8(%rbp)
    e5a1:	00 00 00 00 
    e5a5:	e9 e1 0d 00 00       	jmpq   f38b <func_1+0x2bd6>
    e5aa:	48 8d 85 f0 e6 ff ff 	lea    -0x1910(%rbp),%rax
    e5b1:	48 89 85 30 e8 ff ff 	mov    %rax,-0x17d0(%rbp)
    e5b8:	c7 85 9c e6 ff ff d2 	movl   $0x9aefdad2,-0x1964(%rbp)
    e5bf:	da ef 9a 
    e5c2:	c7 85 70 eb ff ff 7e 	movl   $0x754d287e,-0x1490(%rbp)
    e5c9:	28 4d 75 
    e5cc:	c7 85 74 eb ff ff 94 	movl   $0x87445e94,-0x148c(%rbp)
    e5d3:	5e 44 87 
    e5d6:	c7 85 78 eb ff ff 01 	movl   $0x1,-0x1488(%rbp)
    e5dd:	00 00 00 
    e5e0:	c7 85 7c eb ff ff 01 	movl   $0x1,-0x1484(%rbp)
    e5e7:	00 00 00 
    e5ea:	c7 85 80 eb ff ff 94 	movl   $0x87445e94,-0x1480(%rbp)
    e5f1:	5e 44 87 
    e5f4:	c7 85 84 eb ff ff 7e 	movl   $0x754d287e,-0x147c(%rbp)
    e5fb:	28 4d 75 
    e5fe:	c7 85 88 eb ff ff d3 	movl   $0xe3c54fd3,-0x1478(%rbp)
    e605:	4f c5 e3 
    e608:	c7 85 8c eb ff ff b1 	movl   $0xbfd0f9b1,-0x1474(%rbp)
    e60f:	f9 d0 bf 
    e612:	c7 85 90 eb ff ff fb 	movl   $0xfffffffb,-0x1470(%rbp)
    e619:	ff ff ff 
    e61c:	c7 85 94 eb ff ff ff 	movl   $0xffffffff,-0x146c(%rbp)
    e623:	ff ff ff 
    e626:	c7 85 98 eb ff ff b1 	movl   $0xbfd0f9b1,-0x1468(%rbp)
    e62d:	f9 d0 bf 
    e630:	c7 85 9c eb ff ff 94 	movl   $0x87445e94,-0x1464(%rbp)
    e637:	5e 44 87 
    e63a:	c7 85 a0 eb ff ff ce 	movl   $0xbe719ace,-0x1460(%rbp)
    e641:	9a 71 be 
    e644:	c7 85 a4 eb ff ff fb 	movl   $0xfffffffb,-0x145c(%rbp)
    e64b:	ff ff ff 
    e64e:	c7 85 a8 eb ff ff c9 	movl   $0x4e466cc9,-0x1458(%rbp)
    e655:	6c 46 4e 
    e658:	c7 85 ac eb ff ff ff 	movl   $0xffffffff,-0x1454(%rbp)
    e65f:	ff ff ff 
    e662:	c7 85 b0 eb ff ff 7e 	movl   $0x754d287e,-0x1450(%rbp)
    e669:	28 4d 75 
    e66c:	c7 85 b4 eb ff ff 80 	movl   $0x53c36080,-0x144c(%rbp)
    e673:	60 c3 53 
    e676:	c7 85 b8 eb ff ff 7e 	movl   $0x754d287e,-0x1448(%rbp)
    e67d:	28 4d 75 
    e680:	c7 85 bc eb ff ff ff 	movl   $0xffffffff,-0x1444(%rbp)
    e687:	ff ff ff 
    e68a:	c7 85 c0 eb ff ff c9 	movl   $0x4e466cc9,-0x1440(%rbp)
    e691:	6c 46 4e 
    e694:	c7 85 c4 eb ff ff ff 	movl   $0xffffffff,-0x143c(%rbp)
    e69b:	ff ff ff 
    e69e:	c7 85 c8 eb ff ff fb 	movl   $0xfffffffb,-0x1438(%rbp)
    e6a5:	ff ff ff 
    e6a8:	c7 85 cc eb ff ff 01 	movl   $0x1,-0x1434(%rbp)
    e6af:	00 00 00 
    e6b2:	c7 85 d0 eb ff ff 7e 	movl   $0x754d287e,-0x1430(%rbp)
    e6b9:	28 4d 75 
    e6bc:	c7 85 d4 eb ff ff c9 	movl   $0x4e466cc9,-0x142c(%rbp)
    e6c3:	6c 46 4e 
    e6c6:	c7 85 d8 eb ff ff ff 	movl   $0xffffffff,-0x1428(%rbp)
    e6cd:	ff ff ff 
    e6d0:	c7 85 dc eb ff ff 7e 	movl   $0x754d287e,-0x1424(%rbp)
    e6d7:	28 4d 75 
    e6da:	c7 85 e0 eb ff ff b1 	movl   $0xbfd0f9b1,-0x1420(%rbp)
    e6e1:	f9 d0 bf 
    e6e4:	c7 85 e4 eb ff ff 94 	movl   $0x87445e94,-0x141c(%rbp)
    e6eb:	5e 44 87 
    e6ee:	c7 85 e8 eb ff ff ce 	movl   $0xbe719ace,-0x1418(%rbp)
    e6f5:	9a 71 be 
    e6f8:	c7 85 ec eb ff ff fb 	movl   $0xfffffffb,-0x1414(%rbp)
    e6ff:	ff ff ff 
    e702:	c7 85 f0 eb ff ff fb 	movl   $0xfffffffb,-0x1410(%rbp)
    e709:	ff ff ff 
    e70c:	c7 85 f4 eb ff ff ce 	movl   $0xbe719ace,-0x140c(%rbp)
    e713:	9a 71 be 
    e716:	c7 85 f8 eb ff ff 94 	movl   $0x87445e94,-0x1408(%rbp)
    e71d:	5e 44 87 
    e720:	c7 85 fc eb ff ff fb 	movl   $0xfffffffb,-0x1404(%rbp)
    e727:	ff ff ff 
    e72a:	c7 85 00 ec ff ff d3 	movl   $0xe3c54fd3,-0x1400(%rbp)
    e731:	4f c5 e3 
    e734:	c7 85 04 ec ff ff 01 	movl   $0x1,-0x13fc(%rbp)
    e73b:	00 00 00 
    e73e:	c7 85 08 ec ff ff 80 	movl   $0x53c36080,-0x13f8(%rbp)
    e745:	60 c3 53 
    e748:	c7 85 0c ec ff ff d3 	movl   $0xe3c54fd3,-0x13f4(%rbp)
    e74f:	4f c5 e3 
    e752:	c7 85 10 ec ff ff 7e 	movl   $0x754d287e,-0x13f0(%rbp)
    e759:	28 4d 75 
    e75c:	c7 85 14 ec ff ff 94 	movl   $0x87445e94,-0x13ec(%rbp)
    e763:	5e 44 87 
    e766:	c7 85 18 ec ff ff 08 	movl   $0x8,-0x13e8(%rbp)
    e76d:	00 00 00 
    e770:	c7 85 1c ec ff ff fb 	movl   $0xfffffffb,-0x13e4(%rbp)
    e777:	ff ff ff 
    e77a:	c7 85 20 ec ff ff 7e 	movl   $0x754d287e,-0x13e0(%rbp)
    e781:	28 4d 75 
    e784:	c7 85 24 ec ff ff 08 	movl   $0x8,-0x13dc(%rbp)
    e78b:	00 00 00 
    e78e:	c7 85 28 ec ff ff 94 	movl   $0x87445e94,-0x13d8(%rbp)
    e795:	5e 44 87 
    e798:	c7 85 2c ec ff ff 08 	movl   $0x8,-0x13d4(%rbp)
    e79f:	00 00 00 
    e7a2:	c7 85 30 ec ff ff 7e 	movl   $0x754d287e,-0x13d0(%rbp)
    e7a9:	28 4d 75 
    e7ac:	48 8d 85 1c e6 ff ff 	lea    -0x19e4(%rbp),%rax
    e7b3:	48 89 85 30 e7 ff ff 	mov    %rax,-0x18d0(%rbp)
    e7ba:	48 8d 85 30 e7 ff ff 	lea    -0x18d0(%rbp),%rax
    e7c1:	48 89 85 38 e7 ff ff 	mov    %rax,-0x18c8(%rbp)
    e7c8:	48 8d 85 38 e7 ff ff 	lea    -0x18c8(%rbp),%rax
    e7cf:	48 89 85 c0 f8 ff ff 	mov    %rax,-0x740(%rbp)
    e7d6:	48 8d 85 38 e7 ff ff 	lea    -0x18c8(%rbp),%rax
    e7dd:	48 89 85 c8 f8 ff ff 	mov    %rax,-0x738(%rbp)
    e7e4:	48 8d 85 38 e7 ff ff 	lea    -0x18c8(%rbp),%rax
    e7eb:	48 89 85 d0 f8 ff ff 	mov    %rax,-0x730(%rbp)
    e7f2:	48 8d 85 38 e7 ff ff 	lea    -0x18c8(%rbp),%rax
    e7f9:	48 89 85 d8 f8 ff ff 	mov    %rax,-0x728(%rbp)
    e800:	48 8d 85 38 e7 ff ff 	lea    -0x18c8(%rbp),%rax
    e807:	48 89 85 e0 f8 ff ff 	mov    %rax,-0x720(%rbp)
    e80e:	48 8d 85 38 e7 ff ff 	lea    -0x18c8(%rbp),%rax
    e815:	48 89 85 e8 f8 ff ff 	mov    %rax,-0x718(%rbp)
    e81c:	48 8d 85 38 e7 ff ff 	lea    -0x18c8(%rbp),%rax
    e823:	48 89 85 f0 f8 ff ff 	mov    %rax,-0x710(%rbp)
    e82a:	48 8d 85 38 e7 ff ff 	lea    -0x18c8(%rbp),%rax
    e831:	48 89 85 f8 f8 ff ff 	mov    %rax,-0x708(%rbp)
    e838:	48 8d 85 38 e7 ff ff 	lea    -0x18c8(%rbp),%rax
    e83f:	48 89 85 00 f9 ff ff 	mov    %rax,-0x700(%rbp)
    e846:	48 8d 85 38 e7 ff ff 	lea    -0x18c8(%rbp),%rax
    e84d:	48 89 85 08 f9 ff ff 	mov    %rax,-0x6f8(%rbp)
    e854:	48 8d 85 38 e7 ff ff 	lea    -0x18c8(%rbp),%rax
    e85b:	48 89 85 10 f9 ff ff 	mov    %rax,-0x6f0(%rbp)
    e862:	48 8d 85 38 e7 ff ff 	lea    -0x18c8(%rbp),%rax
    e869:	48 89 85 18 f9 ff ff 	mov    %rax,-0x6e8(%rbp)
    e870:	48 c7 85 20 f9 ff ff 	movq   $0x0,-0x6e0(%rbp)
    e877:	00 00 00 00 
    e87b:	48 8d 85 38 e7 ff ff 	lea    -0x18c8(%rbp),%rax
    e882:	48 89 85 28 f9 ff ff 	mov    %rax,-0x6d8(%rbp)
    e889:	48 8d 85 38 e7 ff ff 	lea    -0x18c8(%rbp),%rax
    e890:	48 89 85 30 f9 ff ff 	mov    %rax,-0x6d0(%rbp)
    e897:	48 c7 85 38 f9 ff ff 	movq   $0x0,-0x6c8(%rbp)
    e89e:	00 00 00 00 
    e8a2:	48 8d 85 38 e7 ff ff 	lea    -0x18c8(%rbp),%rax
    e8a9:	48 89 85 40 f9 ff ff 	mov    %rax,-0x6c0(%rbp)
    e8b0:	48 c7 85 48 f9 ff ff 	movq   $0x0,-0x6b8(%rbp)
    e8b7:	00 00 00 00 
    e8bb:	48 c7 85 50 f9 ff ff 	movq   $0x0,-0x6b0(%rbp)
    e8c2:	00 00 00 00 
    e8c6:	48 8d 85 38 e7 ff ff 	lea    -0x18c8(%rbp),%rax
    e8cd:	48 89 85 58 f9 ff ff 	mov    %rax,-0x6a8(%rbp)
    e8d4:	48 8d 85 38 e7 ff ff 	lea    -0x18c8(%rbp),%rax
    e8db:	48 89 85 60 f9 ff ff 	mov    %rax,-0x6a0(%rbp)
    e8e2:	48 8d 85 38 e7 ff ff 	lea    -0x18c8(%rbp),%rax
    e8e9:	48 89 85 68 f9 ff ff 	mov    %rax,-0x698(%rbp)
    e8f0:	48 8d 85 38 e7 ff ff 	lea    -0x18c8(%rbp),%rax
    e8f7:	48 89 85 70 f9 ff ff 	mov    %rax,-0x690(%rbp)
    e8fe:	48 8d 85 38 e7 ff ff 	lea    -0x18c8(%rbp),%rax
    e905:	48 89 85 78 f9 ff ff 	mov    %rax,-0x688(%rbp)
    e90c:	48 8d 85 38 e7 ff ff 	lea    -0x18c8(%rbp),%rax
    e913:	48 89 85 80 f9 ff ff 	mov    %rax,-0x680(%rbp)
    e91a:	48 8d 85 38 e7 ff ff 	lea    -0x18c8(%rbp),%rax
    e921:	48 89 85 88 f9 ff ff 	mov    %rax,-0x678(%rbp)
    e928:	48 8d 85 38 e7 ff ff 	lea    -0x18c8(%rbp),%rax
    e92f:	48 89 85 90 f9 ff ff 	mov    %rax,-0x670(%rbp)
    e936:	48 c7 85 98 f9 ff ff 	movq   $0x0,-0x668(%rbp)
    e93d:	00 00 00 00 
    e941:	48 8d 85 38 e7 ff ff 	lea    -0x18c8(%rbp),%rax
    e948:	48 89 85 a0 f9 ff ff 	mov    %rax,-0x660(%rbp)
    e94f:	48 c7 85 a8 f9 ff ff 	movq   $0x0,-0x658(%rbp)
    e956:	00 00 00 00 
    e95a:	48 8d 85 38 e7 ff ff 	lea    -0x18c8(%rbp),%rax
    e961:	48 89 85 b0 f9 ff ff 	mov    %rax,-0x650(%rbp)
    e968:	48 8d 85 38 e7 ff ff 	lea    -0x18c8(%rbp),%rax
    e96f:	48 89 85 b8 f9 ff ff 	mov    %rax,-0x648(%rbp)
    e976:	48 c7 85 c0 f9 ff ff 	movq   $0x0,-0x640(%rbp)
    e97d:	00 00 00 00 
    e981:	48 8d 85 38 e7 ff ff 	lea    -0x18c8(%rbp),%rax
    e988:	48 89 85 c8 f9 ff ff 	mov    %rax,-0x638(%rbp)
    e98f:	48 c7 85 d0 f9 ff ff 	movq   $0x0,-0x630(%rbp)
    e996:	00 00 00 00 
    e99a:	48 8d 85 38 e7 ff ff 	lea    -0x18c8(%rbp),%rax
    e9a1:	48 89 85 d8 f9 ff ff 	mov    %rax,-0x628(%rbp)
    e9a8:	48 c7 85 e0 f9 ff ff 	movq   $0x0,-0x620(%rbp)
    e9af:	00 00 00 00 
    e9b3:	48 8d 85 38 e7 ff ff 	lea    -0x18c8(%rbp),%rax
    e9ba:	48 89 85 e8 f9 ff ff 	mov    %rax,-0x618(%rbp)
    e9c1:	48 8d 85 38 e7 ff ff 	lea    -0x18c8(%rbp),%rax
    e9c8:	48 89 85 f0 f9 ff ff 	mov    %rax,-0x610(%rbp)
    e9cf:	48 8d 85 38 e7 ff ff 	lea    -0x18c8(%rbp),%rax
    e9d6:	48 89 85 f8 f9 ff ff 	mov    %rax,-0x608(%rbp)
    e9dd:	48 8d 85 38 e7 ff ff 	lea    -0x18c8(%rbp),%rax
    e9e4:	48 89 85 00 fa ff ff 	mov    %rax,-0x600(%rbp)
    e9eb:	48 c7 85 08 fa ff ff 	movq   $0x0,-0x5f8(%rbp)
    e9f2:	00 00 00 00 
    e9f6:	48 8d 85 38 e7 ff ff 	lea    -0x18c8(%rbp),%rax
    e9fd:	48 89 85 10 fa ff ff 	mov    %rax,-0x5f0(%rbp)
    ea04:	48 8d 85 38 e7 ff ff 	lea    -0x18c8(%rbp),%rax
    ea0b:	48 89 85 18 fa ff ff 	mov    %rax,-0x5e8(%rbp)
    ea12:	48 8d 85 38 e7 ff ff 	lea    -0x18c8(%rbp),%rax
    ea19:	48 89 85 20 fa ff ff 	mov    %rax,-0x5e0(%rbp)
    ea20:	48 8d 85 38 e7 ff ff 	lea    -0x18c8(%rbp),%rax
    ea27:	48 89 85 28 fa ff ff 	mov    %rax,-0x5d8(%rbp)
    ea2e:	48 8d 85 38 e7 ff ff 	lea    -0x18c8(%rbp),%rax
    ea35:	48 89 85 30 fa ff ff 	mov    %rax,-0x5d0(%rbp)
    ea3c:	48 c7 85 38 fa ff ff 	movq   $0x0,-0x5c8(%rbp)
    ea43:	00 00 00 00 
    ea47:	48 c7 85 40 fa ff ff 	movq   $0x0,-0x5c0(%rbp)
    ea4e:	00 00 00 00 
    ea52:	48 8d 85 38 e7 ff ff 	lea    -0x18c8(%rbp),%rax
    ea59:	48 89 85 48 fa ff ff 	mov    %rax,-0x5b8(%rbp)
    ea60:	48 c7 85 50 fa ff ff 	movq   $0x0,-0x5b0(%rbp)
    ea67:	00 00 00 00 
    ea6b:	48 8d 85 38 e7 ff ff 	lea    -0x18c8(%rbp),%rax
    ea72:	48 89 85 58 fa ff ff 	mov    %rax,-0x5a8(%rbp)
    ea79:	48 8d 85 38 e7 ff ff 	lea    -0x18c8(%rbp),%rax
    ea80:	48 89 85 60 fa ff ff 	mov    %rax,-0x5a0(%rbp)
    ea87:	48 8d 85 38 e7 ff ff 	lea    -0x18c8(%rbp),%rax
    ea8e:	48 89 85 68 fa ff ff 	mov    %rax,-0x598(%rbp)
    ea95:	48 8d 85 38 e7 ff ff 	lea    -0x18c8(%rbp),%rax
    ea9c:	48 89 85 70 fa ff ff 	mov    %rax,-0x590(%rbp)
    eaa3:	48 8d 85 38 e7 ff ff 	lea    -0x18c8(%rbp),%rax
    eaaa:	48 89 85 78 fa ff ff 	mov    %rax,-0x588(%rbp)
    eab1:	48 8d 85 38 e7 ff ff 	lea    -0x18c8(%rbp),%rax
    eab8:	48 89 85 80 fa ff ff 	mov    %rax,-0x580(%rbp)
    eabf:	48 8d 85 38 e7 ff ff 	lea    -0x18c8(%rbp),%rax
    eac6:	48 89 85 88 fa ff ff 	mov    %rax,-0x578(%rbp)
    eacd:	48 c7 85 90 fa ff ff 	movq   $0x0,-0x570(%rbp)
    ead4:	00 00 00 00 
    ead8:	48 8d 85 38 e7 ff ff 	lea    -0x18c8(%rbp),%rax
    eadf:	48 89 85 98 fa ff ff 	mov    %rax,-0x568(%rbp)
    eae6:	48 8d 85 38 e7 ff ff 	lea    -0x18c8(%rbp),%rax
    eaed:	48 89 85 a0 fa ff ff 	mov    %rax,-0x560(%rbp)
    eaf4:	48 8d 85 38 e7 ff ff 	lea    -0x18c8(%rbp),%rax
    eafb:	48 89 85 a8 fa ff ff 	mov    %rax,-0x558(%rbp)
    eb02:	48 8d 85 38 e7 ff ff 	lea    -0x18c8(%rbp),%rax
    eb09:	48 89 85 b0 fa ff ff 	mov    %rax,-0x550(%rbp)
    eb10:	48 8d 85 38 e7 ff ff 	lea    -0x18c8(%rbp),%rax
    eb17:	48 89 85 b8 fa ff ff 	mov    %rax,-0x548(%rbp)
    eb1e:	48 8d 85 38 e7 ff ff 	lea    -0x18c8(%rbp),%rax
    eb25:	48 89 85 c0 fa ff ff 	mov    %rax,-0x540(%rbp)
    eb2c:	48 c7 85 c8 fa ff ff 	movq   $0x0,-0x538(%rbp)
    eb33:	00 00 00 00 
    eb37:	48 8d 85 38 e7 ff ff 	lea    -0x18c8(%rbp),%rax
    eb3e:	48 89 85 d0 fa ff ff 	mov    %rax,-0x530(%rbp)
    eb45:	48 8d 85 38 e7 ff ff 	lea    -0x18c8(%rbp),%rax
    eb4c:	48 89 85 d8 fa ff ff 	mov    %rax,-0x528(%rbp)
    eb53:	48 8d 85 38 e7 ff ff 	lea    -0x18c8(%rbp),%rax
    eb5a:	48 89 85 e0 fa ff ff 	mov    %rax,-0x520(%rbp)
    eb61:	48 c7 85 e8 fa ff ff 	movq   $0x0,-0x518(%rbp)
    eb68:	00 00 00 00 
    eb6c:	48 8d 85 38 e7 ff ff 	lea    -0x18c8(%rbp),%rax
    eb73:	48 89 85 f0 fa ff ff 	mov    %rax,-0x510(%rbp)
    eb7a:	48 8d 85 38 e7 ff ff 	lea    -0x18c8(%rbp),%rax
    eb81:	48 89 85 f8 fa ff ff 	mov    %rax,-0x508(%rbp)
    eb88:	48 c7 85 00 fb ff ff 	movq   $0x0,-0x500(%rbp)
    eb8f:	00 00 00 00 
    eb93:	48 8d 85 38 e7 ff ff 	lea    -0x18c8(%rbp),%rax
    eb9a:	48 89 85 08 fb ff ff 	mov    %rax,-0x4f8(%rbp)
    eba1:	48 8d 85 38 e7 ff ff 	lea    -0x18c8(%rbp),%rax
    eba8:	48 89 85 10 fb ff ff 	mov    %rax,-0x4f0(%rbp)
    ebaf:	48 8d 85 38 e7 ff ff 	lea    -0x18c8(%rbp),%rax
    ebb6:	48 89 85 18 fb ff ff 	mov    %rax,-0x4e8(%rbp)
    ebbd:	48 c7 85 20 fb ff ff 	movq   $0x0,-0x4e0(%rbp)
    ebc4:	00 00 00 00 
    ebc8:	48 8d 85 38 e7 ff ff 	lea    -0x18c8(%rbp),%rax
    ebcf:	48 89 85 28 fb ff ff 	mov    %rax,-0x4d8(%rbp)
    ebd6:	48 8d 85 38 e7 ff ff 	lea    -0x18c8(%rbp),%rax
    ebdd:	48 89 85 30 fb ff ff 	mov    %rax,-0x4d0(%rbp)
    ebe4:	48 8d 85 38 e7 ff ff 	lea    -0x18c8(%rbp),%rax
    ebeb:	48 89 85 38 fb ff ff 	mov    %rax,-0x4c8(%rbp)
    ebf2:	48 8d 85 38 e7 ff ff 	lea    -0x18c8(%rbp),%rax
    ebf9:	48 89 85 40 fb ff ff 	mov    %rax,-0x4c0(%rbp)
    ec00:	48 8d 85 38 e7 ff ff 	lea    -0x18c8(%rbp),%rax
    ec07:	48 89 85 48 fb ff ff 	mov    %rax,-0x4b8(%rbp)
    ec0e:	48 8d 85 38 e7 ff ff 	lea    -0x18c8(%rbp),%rax
    ec15:	48 89 85 50 fb ff ff 	mov    %rax,-0x4b0(%rbp)
    ec1c:	48 c7 85 58 fb ff ff 	movq   $0x0,-0x4a8(%rbp)
    ec23:	00 00 00 00 
    ec27:	48 8d 85 38 e7 ff ff 	lea    -0x18c8(%rbp),%rax
    ec2e:	48 89 85 60 fb ff ff 	mov    %rax,-0x4a0(%rbp)
    ec35:	48 8d 85 38 e7 ff ff 	lea    -0x18c8(%rbp),%rax
    ec3c:	48 89 85 68 fb ff ff 	mov    %rax,-0x498(%rbp)
    ec43:	48 8d 85 38 e7 ff ff 	lea    -0x18c8(%rbp),%rax
    ec4a:	48 89 85 70 fb ff ff 	mov    %rax,-0x490(%rbp)
    ec51:	48 c7 85 78 fb ff ff 	movq   $0x0,-0x488(%rbp)
    ec58:	00 00 00 00 
    ec5c:	48 c7 85 80 fb ff ff 	movq   $0x0,-0x480(%rbp)
    ec63:	00 00 00 00 
    ec67:	48 8d 85 38 e7 ff ff 	lea    -0x18c8(%rbp),%rax
    ec6e:	48 89 85 88 fb ff ff 	mov    %rax,-0x478(%rbp)
    ec75:	48 c7 85 90 fb ff ff 	movq   $0x0,-0x470(%rbp)
    ec7c:	00 00 00 00 
    ec80:	48 8d 85 38 e7 ff ff 	lea    -0x18c8(%rbp),%rax
    ec87:	48 89 85 98 fb ff ff 	mov    %rax,-0x468(%rbp)
    ec8e:	48 8d 85 38 e7 ff ff 	lea    -0x18c8(%rbp),%rax
    ec95:	48 89 85 a0 fb ff ff 	mov    %rax,-0x460(%rbp)
    ec9c:	48 8d 85 38 e7 ff ff 	lea    -0x18c8(%rbp),%rax
    eca3:	48 89 85 a8 fb ff ff 	mov    %rax,-0x458(%rbp)
    ecaa:	48 8d 85 38 e7 ff ff 	lea    -0x18c8(%rbp),%rax
    ecb1:	48 89 85 b0 fb ff ff 	mov    %rax,-0x450(%rbp)
    ecb8:	48 8d 85 38 e7 ff ff 	lea    -0x18c8(%rbp),%rax
    ecbf:	48 89 85 b8 fb ff ff 	mov    %rax,-0x448(%rbp)
    ecc6:	48 c7 85 c0 fb ff ff 	movq   $0x0,-0x440(%rbp)
    eccd:	00 00 00 00 
    ecd1:	48 c7 85 c8 fb ff ff 	movq   $0x0,-0x438(%rbp)
    ecd8:	00 00 00 00 
    ecdc:	48 8d 85 38 e7 ff ff 	lea    -0x18c8(%rbp),%rax
    ece3:	48 89 85 d0 fb ff ff 	mov    %rax,-0x430(%rbp)
    ecea:	48 c7 85 d8 fb ff ff 	movq   $0x0,-0x428(%rbp)
    ecf1:	00 00 00 00 
    ecf5:	48 8d 85 38 e7 ff ff 	lea    -0x18c8(%rbp),%rax
    ecfc:	48 89 85 e0 fb ff ff 	mov    %rax,-0x420(%rbp)
    ed03:	48 8d 85 38 e7 ff ff 	lea    -0x18c8(%rbp),%rax
    ed0a:	48 89 85 e8 fb ff ff 	mov    %rax,-0x418(%rbp)
    ed11:	48 8d 85 38 e7 ff ff 	lea    -0x18c8(%rbp),%rax
    ed18:	48 89 85 f0 fb ff ff 	mov    %rax,-0x410(%rbp)
    ed1f:	48 8d 85 38 e7 ff ff 	lea    -0x18c8(%rbp),%rax
    ed26:	48 89 85 f8 fb ff ff 	mov    %rax,-0x408(%rbp)
    ed2d:	48 8d 85 38 e7 ff ff 	lea    -0x18c8(%rbp),%rax
    ed34:	48 89 85 00 fc ff ff 	mov    %rax,-0x400(%rbp)
    ed3b:	48 8d 85 38 e7 ff ff 	lea    -0x18c8(%rbp),%rax
    ed42:	48 89 85 08 fc ff ff 	mov    %rax,-0x3f8(%rbp)
    ed49:	48 8d 85 38 e7 ff ff 	lea    -0x18c8(%rbp),%rax
    ed50:	48 89 85 10 fc ff ff 	mov    %rax,-0x3f0(%rbp)
    ed57:	48 8d 85 38 e7 ff ff 	lea    -0x18c8(%rbp),%rax
    ed5e:	48 89 85 18 fc ff ff 	mov    %rax,-0x3e8(%rbp)
    ed65:	48 c7 85 20 fc ff ff 	movq   $0x0,-0x3e0(%rbp)
    ed6c:	00 00 00 00 
    ed70:	48 8d 85 38 e7 ff ff 	lea    -0x18c8(%rbp),%rax
    ed77:	48 89 85 28 fc ff ff 	mov    %rax,-0x3d8(%rbp)
    ed7e:	48 8d 85 38 e7 ff ff 	lea    -0x18c8(%rbp),%rax
    ed85:	48 89 85 30 fc ff ff 	mov    %rax,-0x3d0(%rbp)
    ed8c:	48 8d 85 38 e7 ff ff 	lea    -0x18c8(%rbp),%rax
    ed93:	48 89 85 38 fc ff ff 	mov    %rax,-0x3c8(%rbp)
    ed9a:	48 8d 85 38 e7 ff ff 	lea    -0x18c8(%rbp),%rax
    eda1:	48 89 85 40 fc ff ff 	mov    %rax,-0x3c0(%rbp)
    eda8:	48 c7 85 48 fc ff ff 	movq   $0x0,-0x3b8(%rbp)
    edaf:	00 00 00 00 
    edb3:	48 8d 85 38 e7 ff ff 	lea    -0x18c8(%rbp),%rax
    edba:	48 89 85 50 fc ff ff 	mov    %rax,-0x3b0(%rbp)
    edc1:	48 8d 85 38 e7 ff ff 	lea    -0x18c8(%rbp),%rax
    edc8:	48 89 85 58 fc ff ff 	mov    %rax,-0x3a8(%rbp)
    edcf:	48 c7 85 60 fc ff ff 	movq   $0x0,-0x3a0(%rbp)
    edd6:	00 00 00 00 
    edda:	48 8d 85 38 e7 ff ff 	lea    -0x18c8(%rbp),%rax
    ede1:	48 89 85 68 fc ff ff 	mov    %rax,-0x398(%rbp)
    ede8:	48 8d 85 38 e7 ff ff 	lea    -0x18c8(%rbp),%rax
    edef:	48 89 85 70 fc ff ff 	mov    %rax,-0x390(%rbp)
    edf6:	48 8d 85 38 e7 ff ff 	lea    -0x18c8(%rbp),%rax
    edfd:	48 89 85 78 fc ff ff 	mov    %rax,-0x388(%rbp)
    ee04:	48 8d 85 38 e7 ff ff 	lea    -0x18c8(%rbp),%rax
    ee0b:	48 89 85 80 fc ff ff 	mov    %rax,-0x380(%rbp)
    ee12:	48 8d 85 38 e7 ff ff 	lea    -0x18c8(%rbp),%rax
    ee19:	48 89 85 88 fc ff ff 	mov    %rax,-0x378(%rbp)
    ee20:	48 8d 85 38 e7 ff ff 	lea    -0x18c8(%rbp),%rax
    ee27:	48 89 85 90 fc ff ff 	mov    %rax,-0x370(%rbp)
    ee2e:	48 c7 85 98 fc ff ff 	movq   $0x0,-0x368(%rbp)
    ee35:	00 00 00 00 
    ee39:	48 8d 85 38 e7 ff ff 	lea    -0x18c8(%rbp),%rax
    ee40:	48 89 85 a0 fc ff ff 	mov    %rax,-0x360(%rbp)
    ee47:	48 8d 85 38 e7 ff ff 	lea    -0x18c8(%rbp),%rax
    ee4e:	48 89 85 a8 fc ff ff 	mov    %rax,-0x358(%rbp)
    ee55:	48 c7 85 b0 fc ff ff 	movq   $0x0,-0x350(%rbp)
    ee5c:	00 00 00 00 
    ee60:	48 8d 85 38 e7 ff ff 	lea    -0x18c8(%rbp),%rax
    ee67:	48 89 85 b8 fc ff ff 	mov    %rax,-0x348(%rbp)
    ee6e:	48 8d 85 38 e7 ff ff 	lea    -0x18c8(%rbp),%rax
    ee75:	48 89 85 c0 fc ff ff 	mov    %rax,-0x340(%rbp)
    ee7c:	48 8d 85 38 e7 ff ff 	lea    -0x18c8(%rbp),%rax
    ee83:	48 89 85 c8 fc ff ff 	mov    %rax,-0x338(%rbp)
    ee8a:	48 8d 85 38 e7 ff ff 	lea    -0x18c8(%rbp),%rax
    ee91:	48 89 85 d0 fc ff ff 	mov    %rax,-0x330(%rbp)
    ee98:	48 8d 85 38 e7 ff ff 	lea    -0x18c8(%rbp),%rax
    ee9f:	48 89 85 d8 fc ff ff 	mov    %rax,-0x328(%rbp)
    eea6:	48 8d 85 38 e7 ff ff 	lea    -0x18c8(%rbp),%rax
    eead:	48 89 85 e0 fc ff ff 	mov    %rax,-0x320(%rbp)
    eeb4:	48 c7 85 e8 fc ff ff 	movq   $0x0,-0x318(%rbp)
    eebb:	00 00 00 00 
    eebf:	48 8d 85 38 e7 ff ff 	lea    -0x18c8(%rbp),%rax
    eec6:	48 89 85 f0 fc ff ff 	mov    %rax,-0x310(%rbp)
    eecd:	48 8d 85 38 e7 ff ff 	lea    -0x18c8(%rbp),%rax
    eed4:	48 89 85 f8 fc ff ff 	mov    %rax,-0x308(%rbp)
    eedb:	48 c7 85 00 fd ff ff 	movq   $0x0,-0x300(%rbp)
    eee2:	00 00 00 00 
    eee6:	48 8d 85 38 e7 ff ff 	lea    -0x18c8(%rbp),%rax
    eeed:	48 89 85 08 fd ff ff 	mov    %rax,-0x2f8(%rbp)
    eef4:	48 c7 85 10 fd ff ff 	movq   $0x0,-0x2f0(%rbp)
    eefb:	00 00 00 00 
    eeff:	48 8d 85 38 e7 ff ff 	lea    -0x18c8(%rbp),%rax
    ef06:	48 89 85 18 fd ff ff 	mov    %rax,-0x2e8(%rbp)
    ef0d:	48 c7 85 20 fd ff ff 	movq   $0x0,-0x2e0(%rbp)
    ef14:	00 00 00 00 
    ef18:	48 8d 85 38 e7 ff ff 	lea    -0x18c8(%rbp),%rax
    ef1f:	48 89 85 28 fd ff ff 	mov    %rax,-0x2d8(%rbp)
    ef26:	48 8d 85 38 e7 ff ff 	lea    -0x18c8(%rbp),%rax
    ef2d:	48 89 85 30 fd ff ff 	mov    %rax,-0x2d0(%rbp)
    ef34:	48 8d 85 38 e7 ff ff 	lea    -0x18c8(%rbp),%rax
    ef3b:	48 89 85 38 fd ff ff 	mov    %rax,-0x2c8(%rbp)
    ef42:	48 8d 85 38 e7 ff ff 	lea    -0x18c8(%rbp),%rax
    ef49:	48 89 85 40 fd ff ff 	mov    %rax,-0x2c0(%rbp)
    ef50:	48 8d 85 38 e7 ff ff 	lea    -0x18c8(%rbp),%rax
    ef57:	48 89 85 48 fd ff ff 	mov    %rax,-0x2b8(%rbp)
    ef5e:	48 c7 85 50 fd ff ff 	movq   $0x0,-0x2b0(%rbp)
    ef65:	00 00 00 00 
    ef69:	48 8d 85 38 e7 ff ff 	lea    -0x18c8(%rbp),%rax
    ef70:	48 89 85 58 fd ff ff 	mov    %rax,-0x2a8(%rbp)
    ef77:	48 8d 85 38 e7 ff ff 	lea    -0x18c8(%rbp),%rax
    ef7e:	48 89 85 60 fd ff ff 	mov    %rax,-0x2a0(%rbp)
    ef85:	48 8d 85 38 e7 ff ff 	lea    -0x18c8(%rbp),%rax
    ef8c:	48 89 85 68 fd ff ff 	mov    %rax,-0x298(%rbp)
    ef93:	48 8d 85 38 e7 ff ff 	lea    -0x18c8(%rbp),%rax
    ef9a:	48 89 85 70 fd ff ff 	mov    %rax,-0x290(%rbp)
    efa1:	48 8d 85 38 e7 ff ff 	lea    -0x18c8(%rbp),%rax
    efa8:	48 89 85 78 fd ff ff 	mov    %rax,-0x288(%rbp)
    efaf:	48 8d 85 38 e7 ff ff 	lea    -0x18c8(%rbp),%rax
    efb6:	48 89 85 80 fd ff ff 	mov    %rax,-0x280(%rbp)
    efbd:	48 8d 85 38 e7 ff ff 	lea    -0x18c8(%rbp),%rax
    efc4:	48 89 85 88 fd ff ff 	mov    %rax,-0x278(%rbp)
    efcb:	48 8d 85 38 e7 ff ff 	lea    -0x18c8(%rbp),%rax
    efd2:	48 89 85 90 fd ff ff 	mov    %rax,-0x270(%rbp)
    efd9:	48 8d 85 38 e7 ff ff 	lea    -0x18c8(%rbp),%rax
    efe0:	48 89 85 98 fd ff ff 	mov    %rax,-0x268(%rbp)
    efe7:	48 c7 85 a0 fd ff ff 	movq   $0x0,-0x260(%rbp)
    efee:	00 00 00 00 
    eff2:	48 c7 85 a8 fd ff ff 	movq   $0x0,-0x258(%rbp)
    eff9:	00 00 00 00 
    effd:	48 8d 85 38 e7 ff ff 	lea    -0x18c8(%rbp),%rax
    f004:	48 89 85 b0 fd ff ff 	mov    %rax,-0x250(%rbp)
    f00b:	48 8d 85 38 e7 ff ff 	lea    -0x18c8(%rbp),%rax
    f012:	48 89 85 b8 fd ff ff 	mov    %rax,-0x248(%rbp)
    f019:	48 8d 85 38 e7 ff ff 	lea    -0x18c8(%rbp),%rax
    f020:	48 89 85 c0 fd ff ff 	mov    %rax,-0x240(%rbp)
    f027:	48 8d 85 38 e7 ff ff 	lea    -0x18c8(%rbp),%rax
    f02e:	48 89 85 c8 fd ff ff 	mov    %rax,-0x238(%rbp)
    f035:	48 8d 85 38 e7 ff ff 	lea    -0x18c8(%rbp),%rax
    f03c:	48 89 85 d0 fd ff ff 	mov    %rax,-0x230(%rbp)
    f043:	48 8d 85 38 e7 ff ff 	lea    -0x18c8(%rbp),%rax
    f04a:	48 89 85 d8 fd ff ff 	mov    %rax,-0x228(%rbp)
    f051:	48 8d 85 38 e7 ff ff 	lea    -0x18c8(%rbp),%rax
    f058:	48 89 85 e0 fd ff ff 	mov    %rax,-0x220(%rbp)
    f05f:	48 8d 85 38 e7 ff ff 	lea    -0x18c8(%rbp),%rax
    f066:	48 89 85 e8 fd ff ff 	mov    %rax,-0x218(%rbp)
    f06d:	48 c7 85 f0 fd ff ff 	movq   $0x0,-0x210(%rbp)
    f074:	00 00 00 00 
    f078:	48 c7 85 f8 fd ff ff 	movq   $0x0,-0x208(%rbp)
    f07f:	00 00 00 00 
    f083:	48 8d 85 38 e7 ff ff 	lea    -0x18c8(%rbp),%rax
    f08a:	48 89 85 00 fe ff ff 	mov    %rax,-0x200(%rbp)
    f091:	48 c7 85 08 fe ff ff 	movq   $0x0,-0x1f8(%rbp)
    f098:	00 00 00 00 
    f09c:	48 8d 85 38 e7 ff ff 	lea    -0x18c8(%rbp),%rax
    f0a3:	48 89 85 10 fe ff ff 	mov    %rax,-0x1f0(%rbp)
    f0aa:	48 8d 85 38 e7 ff ff 	lea    -0x18c8(%rbp),%rax
    f0b1:	48 89 85 18 fe ff ff 	mov    %rax,-0x1e8(%rbp)
    f0b8:	48 8d 85 38 e7 ff ff 	lea    -0x18c8(%rbp),%rax
    f0bf:	48 89 85 20 fe ff ff 	mov    %rax,-0x1e0(%rbp)
    f0c6:	48 8d 85 38 e7 ff ff 	lea    -0x18c8(%rbp),%rax
    f0cd:	48 89 85 28 fe ff ff 	mov    %rax,-0x1d8(%rbp)
    f0d4:	48 8d 85 38 e7 ff ff 	lea    -0x18c8(%rbp),%rax
    f0db:	48 89 85 30 fe ff ff 	mov    %rax,-0x1d0(%rbp)
    f0e2:	48 c7 85 38 fe ff ff 	movq   $0x0,-0x1c8(%rbp)
    f0e9:	00 00 00 00 
    f0ed:	48 c7 85 40 fe ff ff 	movq   $0x0,-0x1c0(%rbp)
    f0f4:	00 00 00 00 
    f0f8:	48 8d 85 38 e7 ff ff 	lea    -0x18c8(%rbp),%rax
    f0ff:	48 89 85 48 fe ff ff 	mov    %rax,-0x1b8(%rbp)
    f106:	48 8d 85 38 e7 ff ff 	lea    -0x18c8(%rbp),%rax
    f10d:	48 89 85 50 fe ff ff 	mov    %rax,-0x1b0(%rbp)
    f114:	48 8d 85 38 e7 ff ff 	lea    -0x18c8(%rbp),%rax
    f11b:	48 89 85 58 fe ff ff 	mov    %rax,-0x1a8(%rbp)
    f122:	48 8d 85 38 e7 ff ff 	lea    -0x18c8(%rbp),%rax
    f129:	48 89 85 60 fe ff ff 	mov    %rax,-0x1a0(%rbp)
    f130:	48 c7 85 68 fe ff ff 	movq   $0x0,-0x198(%rbp)
    f137:	00 00 00 00 
    f13b:	48 8d 85 38 e7 ff ff 	lea    -0x18c8(%rbp),%rax
    f142:	48 89 85 70 fe ff ff 	mov    %rax,-0x190(%rbp)
    f149:	48 8d 85 38 e7 ff ff 	lea    -0x18c8(%rbp),%rax
    f150:	48 89 85 78 fe ff ff 	mov    %rax,-0x188(%rbp)
    f157:	48 8d 85 38 e7 ff ff 	lea    -0x18c8(%rbp),%rax
    f15e:	48 89 85 80 fe ff ff 	mov    %rax,-0x180(%rbp)
    f165:	48 8d 85 38 e7 ff ff 	lea    -0x18c8(%rbp),%rax
    f16c:	48 89 85 88 fe ff ff 	mov    %rax,-0x178(%rbp)
    f173:	48 8d 85 38 e7 ff ff 	lea    -0x18c8(%rbp),%rax
    f17a:	48 89 85 90 fe ff ff 	mov    %rax,-0x170(%rbp)
    f181:	48 8d 85 38 e7 ff ff 	lea    -0x18c8(%rbp),%rax
    f188:	48 89 85 98 fe ff ff 	mov    %rax,-0x168(%rbp)
    f18f:	48 c7 85 a0 fe ff ff 	movq   $0x0,-0x160(%rbp)
    f196:	00 00 00 00 
    f19a:	48 8d 85 38 e7 ff ff 	lea    -0x18c8(%rbp),%rax
    f1a1:	48 89 85 a8 fe ff ff 	mov    %rax,-0x158(%rbp)
    f1a8:	48 8d 85 38 e7 ff ff 	lea    -0x18c8(%rbp),%rax
    f1af:	48 89 85 b0 fe ff ff 	mov    %rax,-0x150(%rbp)
    f1b6:	48 8d 85 38 e7 ff ff 	lea    -0x18c8(%rbp),%rax
    f1bd:	48 89 85 b8 fe ff ff 	mov    %rax,-0x148(%rbp)
    f1c4:	48 c7 85 c0 fe ff ff 	movq   $0x0,-0x140(%rbp)
    f1cb:	00 00 00 00 
    f1cf:	48 c7 85 c8 fe ff ff 	movq   $0x0,-0x138(%rbp)
    f1d6:	00 00 00 00 
    f1da:	48 8d 85 38 e7 ff ff 	lea    -0x18c8(%rbp),%rax
    f1e1:	48 89 85 d0 fe ff ff 	mov    %rax,-0x130(%rbp)
    f1e8:	48 8d 85 38 e7 ff ff 	lea    -0x18c8(%rbp),%rax
    f1ef:	48 89 85 d8 fe ff ff 	mov    %rax,-0x128(%rbp)
    f1f6:	48 c7 85 e0 fe ff ff 	movq   $0x0,-0x120(%rbp)
    f1fd:	00 00 00 00 
    f201:	48 8d 85 38 e7 ff ff 	lea    -0x18c8(%rbp),%rax
    f208:	48 89 85 e8 fe ff ff 	mov    %rax,-0x118(%rbp)
    f20f:	48 8d 85 38 e7 ff ff 	lea    -0x18c8(%rbp),%rax
    f216:	48 89 85 f0 fe ff ff 	mov    %rax,-0x110(%rbp)
    f21d:	48 8d 85 38 e7 ff ff 	lea    -0x18c8(%rbp),%rax
    f224:	48 89 85 f8 fe ff ff 	mov    %rax,-0x108(%rbp)
    f22b:	48 8d 85 38 e7 ff ff 	lea    -0x18c8(%rbp),%rax
    f232:	48 89 85 00 ff ff ff 	mov    %rax,-0x100(%rbp)
    f239:	48 8d 85 38 e7 ff ff 	lea    -0x18c8(%rbp),%rax
    f240:	48 89 85 08 ff ff ff 	mov    %rax,-0xf8(%rbp)
    f247:	48 c7 85 10 ff ff ff 	movq   $0x0,-0xf0(%rbp)
    f24e:	00 00 00 00 
    f252:	48 8d 85 38 e7 ff ff 	lea    -0x18c8(%rbp),%rax
    f259:	48 89 85 18 ff ff ff 	mov    %rax,-0xe8(%rbp)
    f260:	48 8d 85 38 e7 ff ff 	lea    -0x18c8(%rbp),%rax
    f267:	48 89 85 20 ff ff ff 	mov    %rax,-0xe0(%rbp)
    f26e:	48 8d 85 38 e7 ff ff 	lea    -0x18c8(%rbp),%rax
    f275:	48 89 85 28 ff ff ff 	mov    %rax,-0xd8(%rbp)
    f27c:	48 c7 85 30 ff ff ff 	movq   $0x0,-0xd0(%rbp)
    f283:	00 00 00 00 
    f287:	48 8d 85 38 e7 ff ff 	lea    -0x18c8(%rbp),%rax
    f28e:	48 89 85 38 ff ff ff 	mov    %rax,-0xc8(%rbp)
    f295:	48 8d 85 38 e7 ff ff 	lea    -0x18c8(%rbp),%rax
    f29c:	48 89 85 40 ff ff ff 	mov    %rax,-0xc0(%rbp)
    f2a3:	48 8d 85 38 e7 ff ff 	lea    -0x18c8(%rbp),%rax
    f2aa:	48 89 85 48 ff ff ff 	mov    %rax,-0xb8(%rbp)
    f2b1:	48 8d 85 38 e7 ff ff 	lea    -0x18c8(%rbp),%rax
    f2b8:	48 89 85 50 ff ff ff 	mov    %rax,-0xb0(%rbp)
    f2bf:	48 8d 85 38 e7 ff ff 	lea    -0x18c8(%rbp),%rax
    f2c6:	48 89 85 58 ff ff ff 	mov    %rax,-0xa8(%rbp)
    f2cd:	48 8d 85 38 e7 ff ff 	lea    -0x18c8(%rbp),%rax
    f2d4:	48 89 85 60 ff ff ff 	mov    %rax,-0xa0(%rbp)
    f2db:	48 8d 85 38 e7 ff ff 	lea    -0x18c8(%rbp),%rax
    f2e2:	48 89 85 68 ff ff ff 	mov    %rax,-0x98(%rbp)
    f2e9:	48 8d 85 38 e7 ff ff 	lea    -0x18c8(%rbp),%rax
    f2f0:	48 89 85 70 ff ff ff 	mov    %rax,-0x90(%rbp)
    f2f7:	48 8d 85 38 e7 ff ff 	lea    -0x18c8(%rbp),%rax
    f2fe:	48 89 85 78 ff ff ff 	mov    %rax,-0x88(%rbp)
    f305:	48 c7 45 80 00 00 00 	movq   $0x0,-0x80(%rbp)
    f30c:	00 
    f30d:	48 c7 45 88 00 00 00 	movq   $0x0,-0x78(%rbp)
    f314:	00 
    f315:	48 c7 45 90 00 00 00 	movq   $0x0,-0x70(%rbp)
    f31c:	00 
    f31d:	48 c7 45 98 00 00 00 	movq   $0x0,-0x68(%rbp)
    f324:	00 
    f325:	48 c7 45 a0 00 00 00 	movq   $0x0,-0x60(%rbp)
    f32c:	00 
    f32d:	48 8d 85 38 e7 ff ff 	lea    -0x18c8(%rbp),%rax
    f334:	48 89 45 a8          	mov    %rax,-0x58(%rbp)
    f338:	48 8d 85 38 e7 ff ff 	lea    -0x18c8(%rbp),%rax
    f33f:	48 89 45 b0          	mov    %rax,-0x50(%rbp)
    f343:	48 8d 85 38 e7 ff ff 	lea    -0x18c8(%rbp),%rax
    f34a:	48 89 45 b8          	mov    %rax,-0x48(%rbp)
    f34e:	c7 85 a0 e6 ff ff da 	movl   $0xbec9c2da,-0x1960(%rbp)
    f355:	c2 c9 be 
    f358:	48 8d 85 a0 ea ff ff 	lea    -0x1560(%rbp),%rax
    f35f:	48 83 c0 10          	add    $0x10,%rax
    f363:	48 89 85 38 e8 ff ff 	mov    %rax,-0x17c8(%rbp)
    f36a:	48 8d 85 e1 e5 ff ff 	lea    -0x1a1f(%rbp),%rax
    f371:	48 89 85 40 e8 ff ff 	mov    %rax,-0x17c0(%rbp)
    f378:	48 c7 85 48 e8 ff ff 	movq   $0x0,-0x17b8(%rbp)
    f37f:	00 00 00 00 
    f383:	48 83 85 48 e7 ff ff 	addq   $0x1,-0x18b8(%rbp)
    f38a:	01 
    f38b:	48 83 bd 48 e7 ff ff 	cmpq   $0x3,-0x18b8(%rbp)
    f392:	03 
    f393:	0f 8e 11 f2 ff ff    	jle    e5aa <func_1+0x1df5>
    f399:	0f b7 85 f4 e5 ff ff 	movzwl -0x1a0c(%rbp),%eax
    f3a0:	83 e8 01             	sub    $0x1,%eax
    f3a3:	66 89 85 f4 e5 ff ff 	mov    %ax,-0x1a0c(%rbp)
    f3aa:	0f b7 85 f4 e5 ff ff 	movzwl -0x1a0c(%rbp),%eax
    f3b1:	66 85 c0             	test   %ax,%ax
    f3b4:	0f 89 68 f0 ff ff    	jns    e422 <func_1+0x1c6d>
    f3ba:	c6 85 e1 e5 ff ff 00 	movb   $0x0,-0x1a1f(%rbp)
    f3c1:	e9 0d 08 00 00       	jmpq   fbd3 <func_1+0x341e>
    f3c6:	c7 85 88 e6 ff ff f7 	movl   $0xfffffff7,-0x1978(%rbp)
    f3cd:	ff ff ff 
    f3d0:	48 8d 85 10 e7 ff ff 	lea    -0x18f0(%rbp),%rax
    f3d7:	48 89 85 10 e8 ff ff 	mov    %rax,-0x17f0(%rbp)
    f3de:	48 8d 85 f0 e9 ff ff 	lea    -0x1610(%rbp),%rax
    f3e5:	48 89 85 18 e8 ff ff 	mov    %rax,-0x17e8(%rbp)
    f3ec:	c7 85 48 e6 ff ff 00 	movl   $0x0,-0x19b8(%rbp)
    f3f3:	00 00 00 
    f3f6:	eb 1b                	jmp    f413 <func_1+0x2c5e>
    f3f8:	8b 85 48 e6 ff ff    	mov    -0x19b8(%rbp),%eax
    f3fe:	48 98                	cltq   
    f400:	48 c7 84 c5 f0 e9 ff 	movq   $0x0,-0x1610(%rbp,%rax,8)
    f407:	ff 00 00 00 00 
    f40c:	83 85 48 e6 ff ff 01 	addl   $0x1,-0x19b8(%rbp)
    f413:	83 bd 48 e6 ff ff 00 	cmpl   $0x0,-0x19b8(%rbp)
    f41a:	7e dc                	jle    f3f8 <func_1+0x2c43>
    f41c:	48 8b 85 68 e7 ff ff 	mov    -0x1898(%rbp),%rax
    f423:	8b 00                	mov    (%rax),%eax
    f425:	0b 85 88 e6 ff ff    	or     -0x1978(%rbp),%eax
    f42b:	89 c2                	mov    %eax,%edx
    f42d:	48 8b 85 68 e7 ff ff 	mov    -0x1898(%rbp),%rax
    f434:	89 10                	mov    %edx,(%rax)
    f436:	48 c7 85 10 e8 ff ff 	movq   $0x0,-0x17f0(%rbp)
    f43d:	00 00 00 00 
    f441:	48 83 bd 10 e8 ff ff 	cmpq   $0x0,-0x17f0(%rbp)
    f448:	00 
    f449:	0f 94 c0             	sete   %al
    f44c:	0f b6 d0             	movzbl %al,%edx
    f44f:	48 8b 85 60 e7 ff ff 	mov    -0x18a0(%rbp),%rax
    f456:	89 10                	mov    %edx,(%rax)
    f458:	c7 85 3c e6 ff ff 03 	movl   $0x3,-0x19c4(%rbp)
    f45f:	00 00 00 
    f462:	e9 a6 05 00 00       	jmpq   fa0d <func_1+0x3258>
    f467:	c6 85 ee e5 ff ff 68 	movb   $0x68,-0x1a12(%rbp)
    f46e:	c7 85 4c e6 ff ff 00 	movl   $0x0,-0x19b4(%rbp)
    f475:	00 00 00 
    f478:	eb 1e                	jmp    f498 <func_1+0x2ce3>
    f47a:	8b 85 4c e6 ff ff    	mov    -0x19b4(%rbp),%eax
    f480:	48 98                	cltq   
    f482:	48 8d 15 9b 5b 01 00 	lea    0x15b9b(%rip),%rdx        # 25024 <g_3>
    f489:	48 89 94 c5 70 eb ff 	mov    %rdx,-0x1490(%rbp,%rax,8)
    f490:	ff 
    f491:	83 85 4c e6 ff ff 01 	addl   $0x1,-0x19b4(%rbp)
    f498:	83 bd 4c e6 ff ff 02 	cmpl   $0x2,-0x19b4(%rbp)
    f49f:	7e d9                	jle    f47a <func_1+0x2cc5>
    f4a1:	c7 05 c9 5b 01 00 00 	movl   $0x0,0x15bc9(%rip)        # 25074 <g_56>
    f4a8:	00 00 00 
    f4ab:	e9 a8 03 00 00       	jmpq   f858 <func_1+0x30a3>
    f4b0:	c6 85 ef e5 ff ff 3f 	movb   $0x3f,-0x1a11(%rbp)
    f4b7:	48 8d 85 e8 e6 ff ff 	lea    -0x1918(%rbp),%rax
    f4be:	48 89 85 20 e8 ff ff 	mov    %rax,-0x17e0(%rbp)
    f4c5:	48 8b 05 fc b3 01 00 	mov    0x1b3fc(%rip),%rax        # 2a8c8 <g_3474>
    f4cc:	48 8b 95 80 eb ff ff 	mov    -0x1480(%rbp),%rdx
    f4d3:	48 89 10             	mov    %rdx,(%rax)
    f4d6:	8b 0d 98 5b 01 00    	mov    0x15b98(%rip),%ecx        # 25074 <g_56>
    f4dc:	8b 05 92 5b 01 00    	mov    0x15b92(%rip),%eax        # 25074 <g_56>
    f4e2:	8d 78 02             	lea    0x2(%rax),%edi
    f4e5:	8b 85 3c e6 ff ff    	mov    -0x19c4(%rbp),%eax
    f4eb:	4c 63 c0             	movslq %eax,%r8
    f4ee:	48 63 c1             	movslq %ecx,%rax
    f4f1:	48 63 f7             	movslq %edi,%rsi
    f4f4:	48 89 c2             	mov    %rax,%rdx
    f4f7:	48 c1 e2 06          	shl    $0x6,%rdx
    f4fb:	48 29 c2             	sub    %rax,%rdx
    f4fe:	48 89 f0             	mov    %rsi,%rax
    f501:	48 c1 e0 03          	shl    $0x3,%rax
    f505:	48 01 f0             	add    %rsi,%rax
    f508:	48 01 d0             	add    %rdx,%rax
    f50b:	4c 01 c0             	add    %r8,%rax
    f50e:	48 8d 14 c5 00 00 00 	lea    0x0(,%rax,8),%rdx
    f515:	00 
    f516:	48 8d 05 63 5c 01 00 	lea    0x15c63(%rip),%rax        # 25180 <g_1346>
    f51d:	48 8b 04 02          	mov    (%rdx,%rax,1),%rax
    f521:	4c 8d 40 ff          	lea    -0x1(%rax),%r8
    f525:	8b 85 3c e6 ff ff    	mov    -0x19c4(%rbp),%eax
    f52b:	4c 63 c8             	movslq %eax,%r9
    f52e:	48 63 c1             	movslq %ecx,%rax
    f531:	48 63 f7             	movslq %edi,%rsi
    f534:	48 89 c2             	mov    %rax,%rdx
    f537:	48 c1 e2 06          	shl    $0x6,%rdx
    f53b:	48 29 c2             	sub    %rax,%rdx
    f53e:	48 89 f0             	mov    %rsi,%rax
    f541:	48 c1 e0 03          	shl    $0x3,%rax
    f545:	48 01 f0             	add    %rsi,%rax
    f548:	48 01 d0             	add    %rdx,%rax
    f54b:	4c 01 c8             	add    %r9,%rax
    f54e:	48 8d 14 c5 00 00 00 	lea    0x0(,%rax,8),%rdx
    f555:	00 
    f556:	48 8d 05 23 5c 01 00 	lea    0x15c23(%rip),%rax        # 25180 <g_1346>
    f55d:	4c 89 04 02          	mov    %r8,(%rdx,%rax,1)
    f561:	48 63 d1             	movslq %ecx,%rdx
    f564:	48 89 d0             	mov    %rdx,%rax
    f567:	48 c1 e0 06          	shl    $0x6,%rax
    f56b:	48 29 d0             	sub    %rdx,%rax
    f56e:	48 8b 85 f8 e7 ff ff 	mov    -0x1808(%rbp),%rax
    f575:	8b 10                	mov    (%rax),%edx
    f577:	48 8b 05 aa 90 01 00 	mov    0x190aa(%rip),%rax        # 28628 <g_181>
    f57e:	f7 d2                	not    %edx
    f580:	89 10                	mov    %edx,(%rax)
    f582:	48 8b 85 d8 e7 ff ff 	mov    -0x1828(%rbp),%rax
    f589:	8b 00                	mov    (%rax),%eax
    f58b:	0f bf d8             	movswl %ax,%ebx
    f58e:	4c 0f be a5 ef e5 ff 	movsbq -0x1a11(%rbp),%r12
    f595:	ff 
    f596:	48 8b 05 a3 90 01 00 	mov    0x190a3(%rip),%rax        # 28640 <g_357>
    f59d:	0f b7 00             	movzwl (%rax),%eax
    f5a0:	44 0f b7 e8          	movzwl %ax,%r13d
    f5a4:	0f b6 85 e1 e5 ff ff 	movzbl -0x1a1f(%rbp),%eax
    f5ab:	0f b6 f8             	movzbl %al,%edi
    f5ae:	48 8b 05 d3 63 01 00 	mov    0x163d3(%rip),%rax        # 25988 <g_2538>
    f5b5:	48 8d 50 01          	lea    0x1(%rax),%rdx
    f5b9:	8b 05 b5 5a 01 00    	mov    0x15ab5(%rip),%eax        # 25074 <g_56>
    f5bf:	44 8d 40 05          	lea    0x5(%rax),%r8d
    f5c3:	49 63 f0             	movslq %r8d,%rsi
    f5c6:	48 63 c7             	movslq %edi,%rax
    f5c9:	48 89 c1             	mov    %rax,%rcx
    f5cc:	48 c1 e1 06          	shl    $0x6,%rcx
    f5d0:	48 29 c1             	sub    %rax,%rcx
    f5d3:	48 89 d0             	mov    %rdx,%rax
    f5d6:	48 c1 e0 03          	shl    $0x3,%rax
    f5da:	48 01 d0             	add    %rdx,%rax
    f5dd:	48 01 c8             	add    %rcx,%rax
    f5e0:	48 01 f0             	add    %rsi,%rax
    f5e3:	48 8d 0c c5 00 00 00 	lea    0x0(,%rax,8),%rcx
    f5ea:	00 
    f5eb:	48 8d 05 8e 5b 01 00 	lea    0x15b8e(%rip),%rax        # 25180 <g_1346>
    f5f2:	48 8b 34 01          	mov    (%rcx,%rax,1),%rsi
    f5f6:	4c 8d 4e 01          	lea    0x1(%rsi),%r9
    f5fa:	4d 63 c0             	movslq %r8d,%r8
    f5fd:	48 63 c7             	movslq %edi,%rax
    f600:	48 89 c1             	mov    %rax,%rcx
    f603:	48 c1 e1 06          	shl    $0x6,%rcx
    f607:	48 29 c1             	sub    %rax,%rcx
    f60a:	48 89 d0             	mov    %rdx,%rax
    f60d:	48 c1 e0 03          	shl    $0x3,%rax
    f611:	48 01 d0             	add    %rdx,%rax
    f614:	48 01 c8             	add    %rcx,%rax
    f617:	4c 01 c0             	add    %r8,%rax
    f61a:	48 8d 14 c5 00 00 00 	lea    0x0(,%rax,8),%rdx
    f621:	00 
    f622:	48 8d 05 57 5b 01 00 	lea    0x15b57(%rip),%rax        # 25180 <g_1346>
    f629:	4c 89 0c 02          	mov    %r9,(%rdx,%rax,1)
    f62d:	48 85 f6             	test   %rsi,%rsi
    f630:	0f 85 56 01 00 00    	jne    f78c <func_1+0x2fd7>
    f636:	48 8b 85 90 e7 ff ff 	mov    -0x1870(%rbp),%rax
    f63d:	8b 00                	mov    (%rax),%eax
    f63f:	89 c7                	mov    %eax,%edi
    f641:	e8 50 bf ff ff       	callq  b596 <safe_unary_minus_func_int32_t_s>
    f646:	66 0f be 85 ef e5 ff 	movsbw -0x1a11(%rbp),%ax
    f64d:	ff 
    f64e:	0f b7 c0             	movzwl %ax,%eax
    f651:	be 08 00 00 00       	mov    $0x8,%esi
    f656:	89 c7                	mov    %eax,%edi
    f658:	e8 31 c7 ff ff       	callq  bd8e <safe_div_func_uint16_t_u_u>
    f65d:	0f b7 f0             	movzwl %ax,%esi
    f660:	8b 05 0e 5a 01 00    	mov    0x15a0e(%rip),%eax        # 25074 <g_56>
    f666:	8b 15 08 5a 01 00    	mov    0x15a08(%rip),%edx        # 25074 <g_56>
    f66c:	8d 4a 02             	lea    0x2(%rdx),%ecx
    f66f:	8b 95 3c e6 ff ff    	mov    -0x19c4(%rbp),%edx
    f675:	48 63 fa             	movslq %edx,%rdi
    f678:	48 98                	cltq   
    f67a:	48 63 c9             	movslq %ecx,%rcx
    f67d:	48 89 c2             	mov    %rax,%rdx
    f680:	48 c1 e2 06          	shl    $0x6,%rdx
    f684:	48 29 c2             	sub    %rax,%rdx
    f687:	48 89 c8             	mov    %rcx,%rax
    f68a:	48 c1 e0 03          	shl    $0x3,%rax
    f68e:	48 01 c8             	add    %rcx,%rax
    f691:	48 01 d0             	add    %rdx,%rax
    f694:	48 01 f8             	add    %rdi,%rax
    f697:	48 8d 14 c5 00 00 00 	lea    0x0(,%rax,8),%rdx
    f69e:	00 
    f69f:	48 8d 05 da 5a 01 00 	lea    0x15ada(%rip),%rax        # 25180 <g_1346>
    f6a6:	48 8b 04 02          	mov    (%rdx,%rax,1),%rax
    f6aa:	48 39 c6             	cmp    %rax,%rsi
    f6ad:	0f 94 c0             	sete   %al
    f6b0:	44 0f b6 f0          	movzbl %al,%r14d
    f6b4:	48 8b 85 d8 e7 ff ff 	mov    -0x1828(%rbp),%rax
    f6bb:	8b 00                	mov    (%rax),%eax
    f6bd:	0f b6 c0             	movzbl %al,%eax
    f6c0:	be 01 00 00 00       	mov    $0x1,%esi
    f6c5:	89 c7                	mov    %eax,%edi
    f6c7:	e8 f2 c5 ff ff       	callq  bcbe <safe_rshift_func_uint8_t_u_u>
    f6cc:	0f b6 c0             	movzbl %al,%eax
    f6cf:	4c 89 f6             	mov    %r14,%rsi
    f6d2:	48 89 c7             	mov    %rax,%rdi
    f6d5:	e8 71 c9 ff ff       	callq  c04b <safe_sub_func_uint64_t_u_u>
    f6da:	0f b6 85 e1 e5 ff ff 	movzbl -0x1a1f(%rbp),%eax
    f6e1:	0f b6 c0             	movzbl %al,%eax
    f6e4:	48 8b 15 9d 62 01 00 	mov    0x1629d(%rip),%rdx        # 25988 <g_2538>
    f6eb:	48 8d 4a 01          	lea    0x1(%rdx),%rcx
    f6ef:	8b 15 7f 59 01 00    	mov    0x1597f(%rip),%edx        # 25074 <g_56>
    f6f5:	83 c2 05             	add    $0x5,%edx
    f6f8:	48 63 f2             	movslq %edx,%rsi
    f6fb:	48 98                	cltq   
    f6fd:	48 89 c2             	mov    %rax,%rdx
    f700:	48 c1 e2 06          	shl    $0x6,%rdx
    f704:	48 29 c2             	sub    %rax,%rdx
    f707:	48 89 c8             	mov    %rcx,%rax
    f70a:	48 c1 e0 03          	shl    $0x3,%rax
    f70e:	48 01 c8             	add    %rcx,%rax
    f711:	48 01 d0             	add    %rdx,%rax
    f714:	48 01 f0             	add    %rsi,%rax
    f717:	48 8d 14 c5 00 00 00 	lea    0x0(,%rax,8),%rdx
    f71e:	00 
    f71f:	48 8d 05 5a 5a 01 00 	lea    0x15a5a(%rip),%rax        # 25180 <g_1346>
    f726:	48 8b 14 02          	mov    (%rdx,%rax,1),%rdx
    f72a:	8b 85 2c f8 ff ff    	mov    -0x7d4(%rbp),%eax
    f730:	48 98                	cltq   
    f732:	48 39 c2             	cmp    %rax,%rdx
    f735:	0f b6 85 e1 e5 ff ff 	movzbl -0x1a1f(%rbp),%eax
    f73c:	0f b6 c0             	movzbl %al,%eax
    f73f:	48 63 d0             	movslq %eax,%rdx
    f742:	48 89 d0             	mov    %rdx,%rax
    f745:	48 c1 e0 06          	shl    $0x6,%rax
    f749:	48 29 d0             	sub    %rdx,%rax
    f74c:	48 0f be 85 ee e5 ff 	movsbq -0x1a12(%rbp),%rax
    f753:	ff 
    f754:	48 89 05 a5 65 01 00 	mov    %rax,0x165a5(%rip)        # 25d00 <g_4486+0xa0>
    f75b:	48 8b 05 9e 65 01 00 	mov    0x1659e(%rip),%rax        # 25d00 <g_4486+0xa0>
    f762:	48 85 c0             	test   %rax,%rax
    f765:	74 07                	je     f76e <func_1+0x2fb9>
    f767:	b8 01 00 00 00       	mov    $0x1,%eax
    f76c:	eb 05                	jmp    f773 <func_1+0x2fbe>
    f76e:	b8 00 00 00 00       	mov    $0x0,%eax
    f773:	83 e0 01             	and    $0x1,%eax
    f776:	83 f0 01             	xor    $0x1,%eax
    f779:	89 c2                	mov    %eax,%edx
    f77b:	48 83 bd 18 e8 ff ff 	cmpq   $0x0,-0x17e8(%rbp)
    f782:	00 
    f783:	0f 94 c0             	sete   %al
    f786:	31 d0                	xor    %edx,%eax
    f788:	84 c0                	test   %al,%al
    f78a:	74 07                	je     f793 <func_1+0x2fde>
    f78c:	b8 01 00 00 00       	mov    $0x1,%eax
    f791:	eb 05                	jmp    f798 <func_1+0x2fe3>
    f793:	b8 00 00 00 00       	mov    $0x0,%eax
    f798:	0f b7 c0             	movzwl %ax,%eax
    f79b:	44 89 ee             	mov    %r13d,%esi
    f79e:	89 c7                	mov    %eax,%edi
    f7a0:	e8 61 c6 ff ff       	callq  be06 <safe_lshift_func_uint16_t_u_u>
    f7a5:	0f b7 c0             	movzwl %ax,%eax
    f7a8:	4c 89 e6             	mov    %r12,%rsi
    f7ab:	48 89 c7             	mov    %rax,%rdi
    f7ae:	e8 98 c8 ff ff       	callq  c04b <safe_sub_func_uint64_t_u_u>
    f7b3:	48 85 c0             	test   %rax,%rax
    f7b6:	0f 95 c0             	setne  %al
    f7b9:	0f b6 d0             	movzbl %al,%edx
    f7bc:	48 8b 85 20 e8 ff ff 	mov    -0x17e0(%rbp),%rax
    f7c3:	48 89 10             	mov    %rdx,(%rax)
    f7c6:	8b 05 a8 58 01 00    	mov    0x158a8(%rip),%eax        # 25074 <g_56>
    f7cc:	8b 15 a2 58 01 00    	mov    0x158a2(%rip),%edx        # 25074 <g_56>
    f7d2:	8d 4a 02             	lea    0x2(%rdx),%ecx
    f7d5:	8b 95 3c e6 ff ff    	mov    -0x19c4(%rbp),%edx
    f7db:	48 63 f2             	movslq %edx,%rsi
    f7de:	48 98                	cltq   
    f7e0:	48 63 c9             	movslq %ecx,%rcx
    f7e3:	48 89 c2             	mov    %rax,%rdx
    f7e6:	48 c1 e2 06          	shl    $0x6,%rdx
    f7ea:	48 29 c2             	sub    %rax,%rdx
    f7ed:	48 89 c8             	mov    %rcx,%rax
    f7f0:	48 c1 e0 03          	shl    $0x3,%rax
    f7f4:	48 01 c8             	add    %rcx,%rax
    f7f7:	48 01 d0             	add    %rdx,%rax
    f7fa:	48 01 f0             	add    %rsi,%rax
    f7fd:	48 8d 14 c5 00 00 00 	lea    0x0(,%rax,8),%rdx
    f804:	00 
    f805:	48 8d 05 74 59 01 00 	lea    0x15974(%rip),%rax        # 25180 <g_1346>
    f80c:	48 8b 04 02          	mov    (%rdx,%rax,1),%rax
    f810:	98                   	cwtl   
    f811:	89 de                	mov    %ebx,%esi
    f813:	89 c7                	mov    %eax,%edi
    f815:	e8 db bb ff ff       	callq  b3f5 <safe_mul_func_int16_t_s_s>
    f81a:	0f be c0             	movsbl %al,%eax
    f81d:	be 04 00 00 00       	mov    $0x4,%esi
    f822:	89 c7                	mov    %eax,%edi
    f824:	e8 43 bb ff ff       	callq  b36c <safe_rshift_func_int8_t_s_u>
    f829:	48 8b 05 a8 90 01 00 	mov    0x190a8(%rip),%rax        # 288d8 <g_803>
    f830:	48 8b 00             	mov    (%rax),%rax
    f833:	8b 10                	mov    (%rax),%edx
    f835:	48 8b 85 68 e7 ff ff 	mov    -0x1898(%rbp),%rax
    f83c:	8b 00                	mov    (%rax),%eax
    f83e:	09 c2                	or     %eax,%edx
    f840:	48 8b 85 68 e7 ff ff 	mov    -0x1898(%rbp),%rax
    f847:	89 10                	mov    %edx,(%rax)
    f849:	8b 05 25 58 01 00    	mov    0x15825(%rip),%eax        # 25074 <g_56>
    f84f:	83 c0 01             	add    $0x1,%eax
    f852:	89 05 1c 58 01 00    	mov    %eax,0x1581c(%rip)        # 25074 <g_56>
    f858:	8b 05 16 58 01 00    	mov    0x15816(%rip),%eax        # 25074 <g_56>
    f85e:	83 f8 03             	cmp    $0x3,%eax
    f861:	0f 8e 49 fc ff ff    	jle    f4b0 <func_1+0x2cfb>
    f867:	c7 05 4b 63 01 00 00 	movl   $0x0,0x1634b(%rip)        # 25bbc <g_4346>
    f86e:	00 00 00 
    f871:	eb 6c                	jmp    f8df <func_1+0x312a>
    f873:	48 c7 85 c0 f8 ff ff 	movq   $0x0,-0x740(%rbp)
    f87a:	00 00 00 00 
    f87e:	48 c7 85 c8 f8 ff ff 	movq   $0x0,-0x738(%rbp)
    f885:	00 00 00 00 
    f889:	48 c7 85 d0 f8 ff ff 	movq   $0x0,-0x730(%rbp)
    f890:	00 00 00 00 
    f894:	48 c7 85 d8 f8 ff ff 	movq   $0x0,-0x728(%rbp)
    f89b:	00 00 00 00 
    f89f:	48 8d 85 40 f1 ff ff 	lea    -0xec0(%rbp),%rax
    f8a6:	48 83 c0 50          	add    $0x50,%rax
    f8aa:	48 89 85 10 e8 ff ff 	mov    %rax,-0x17f0(%rbp)
    f8b1:	48 8b 05 00 90 01 00 	mov    0x19000(%rip),%rax        # 288b8 <g_425>
    f8b8:	48 8b 95 d8 f8 ff ff 	mov    -0x728(%rbp),%rdx
    f8bf:	48 89 10             	mov    %rdx,(%rax)
    f8c2:	48 8b 05 ef 8f 01 00 	mov    0x18fef(%rip),%rax        # 288b8 <g_425>
    f8c9:	48 c7 00 00 00 00 00 	movq   $0x0,(%rax)
    f8d0:	8b 05 e6 62 01 00    	mov    0x162e6(%rip),%eax        # 25bbc <g_4346>
    f8d6:	83 c0 01             	add    $0x1,%eax
    f8d9:	89 05 dd 62 01 00    	mov    %eax,0x162dd(%rip)        # 25bbc <g_4346>
    f8df:	8b 05 d7 62 01 00    	mov    0x162d7(%rip),%eax        # 25bbc <g_4346>
    f8e5:	85 c0                	test   %eax,%eax
    f8e7:	74 8a                	je     f873 <func_1+0x30be>
    f8e9:	48 8b 05 b8 90 01 00 	mov    0x190b8(%rip),%rax        # 289a8 <g_1057>
    f8f0:	0f b7 00             	movzwl (%rax),%eax
    f8f3:	0f b7 d8             	movzwl %ax,%ebx
    f8f6:	48 8b 05 33 8d 01 00 	mov    0x18d33(%rip),%rax        # 28630 <g_180>
    f8fd:	48 8b 00             	mov    (%rax),%rax
    f900:	8b 10                	mov    (%rax),%edx
    f902:	48 8b 85 d0 e7 ff ff 	mov    -0x1830(%rbp),%rax
    f909:	8b 00                	mov    (%rax),%eax
    f90b:	39 c2                	cmp    %eax,%edx
    f90d:	0f 95 c0             	setne  %al
    f910:	89 c2                	mov    %eax,%edx
    f912:	48 8b 85 c8 e7 ff ff 	mov    -0x1838(%rbp),%rax
    f919:	8b 00                	mov    (%rax),%eax
    f91b:	21 d0                	and    %edx,%eax
    f91d:	0f b6 d0             	movzbl %al,%edx
    f920:	48 8b 05 a1 8f 01 00 	mov    0x18fa1(%rip),%rax        # 288c8 <g_512>
    f927:	48 8b 8d 00 e8 ff ff 	mov    -0x1800(%rbp),%rcx
    f92e:	48 89 08             	mov    %rcx,(%rax)
    f931:	48 8b 00             	mov    (%rax),%rax
    f934:	48 85 c0             	test   %rax,%rax
    f937:	74 14                	je     f94d <func_1+0x3198>
    f939:	48 8b 85 d8 e7 ff ff 	mov    -0x1828(%rbp),%rax
    f940:	8b 00                	mov    (%rax),%eax
    f942:	85 c0                	test   %eax,%eax
    f944:	74 07                	je     f94d <func_1+0x3198>
    f946:	b8 01 00 00 00       	mov    $0x1,%eax
    f94b:	eb 05                	jmp    f952 <func_1+0x319d>
    f94d:	b8 00 00 00 00       	mov    $0x0,%eax
    f952:	0f b6 c0             	movzbl %al,%eax
    f955:	89 d6                	mov    %edx,%esi
    f957:	89 c7                	mov    %eax,%edi
    f959:	e8 fc c1 ff ff       	callq  bb5a <safe_add_func_uint8_t_u_u>
    f95e:	48 8b 05 eb 94 01 00 	mov    0x194eb(%rip),%rax        # 28e50 <g_1125>
    f965:	0f b7 00             	movzwl (%rax),%eax
    f968:	0f bf d0             	movswl %ax,%edx
    f96b:	48 8b 05 ee 94 01 00 	mov    0x194ee(%rip),%rax        # 28e60 <g_1176>
    f972:	48 8b 00             	mov    (%rax),%rax
    f975:	0f b7 00             	movzwl (%rax),%eax
    f978:	0f b7 c0             	movzwl %ax,%eax
    f97b:	31 d0                	xor    %edx,%eax
    f97d:	48 63 d0             	movslq %eax,%rdx
    f980:	48 8b 05 19 90 01 00 	mov    0x19019(%rip),%rax        # 289a0 <g_1028>
    f987:	48 8b 00             	mov    (%rax),%rax
    f98a:	48 39 c2             	cmp    %rax,%rdx
    f98d:	0f 95 c0             	setne  %al
    f990:	0f b6 d0             	movzbl %al,%edx
    f993:	48 8b 05 7e 8c 01 00 	mov    0x18c7e(%rip),%rax        # 28618 <g_128>
    f99a:	0f b6 00             	movzbl (%rax),%eax
    f99d:	0f be c0             	movsbl %al,%eax
    f9a0:	39 c2                	cmp    %eax,%edx
    f9a2:	48 8b 05 87 8c 01 00 	mov    0x18c87(%rip),%rax        # 28630 <g_180>
    f9a9:	48 8b 05 10 8c 01 00 	mov    0x18c10(%rip),%rax        # 285c0 <g_91>
    f9b0:	8b 00                	mov    (%rax),%eax
    f9b2:	3d 5c 71 60 14       	cmp    $0x1460715c,%eax
    f9b7:	7e 07                	jle    f9c0 <func_1+0x320b>
    f9b9:	b8 01 00 00 00       	mov    $0x1,%eax
    f9be:	eb 05                	jmp    f9c5 <func_1+0x3210>
    f9c0:	b8 00 00 00 00       	mov    $0x0,%eax
    f9c5:	0f b7 c0             	movzwl %ax,%eax
    f9c8:	89 de                	mov    %ebx,%esi
    f9ca:	89 c7                	mov    %eax,%edi
    f9cc:	e8 8b c3 ff ff       	callq  bd5c <safe_mod_func_uint16_t_u_u>
    f9d1:	89 c2                	mov    %eax,%edx
    f9d3:	48 8b 05 3e 8c 01 00 	mov    0x18c3e(%rip),%rax        # 28618 <g_128>
    f9da:	88 10                	mov    %dl,(%rax)
    f9dc:	0f b6 00             	movzbl (%rax),%eax
    f9df:	3c 71                	cmp    $0x71,%al
    f9e1:	0f 9f c0             	setg   %al
    f9e4:	0f b6 d0             	movzbl %al,%edx
    f9e7:	48 8b 85 d8 e7 ff ff 	mov    -0x1828(%rbp),%rax
    f9ee:	8b 00                	mov    (%rax),%eax
    f9f0:	09 c2                	or     %eax,%edx
    f9f2:	48 8b 85 60 e7 ff ff 	mov    -0x18a0(%rbp),%rax
    f9f9:	8b 00                	mov    (%rax),%eax
    f9fb:	31 c2                	xor    %eax,%edx
    f9fd:	48 8b 85 60 e7 ff ff 	mov    -0x18a0(%rbp),%rax
    fa04:	89 10                	mov    %edx,(%rax)
    fa06:	83 ad 3c e6 ff ff 01 	subl   $0x1,-0x19c4(%rbp)
    fa0d:	83 bd 3c e6 ff ff 00 	cmpl   $0x0,-0x19c4(%rbp)
    fa14:	0f 89 4d fa ff ff    	jns    f467 <func_1+0x2cb2>
    fa1a:	66 c7 85 24 e6 ff ff 	movw   $0x3,-0x19dc(%rbp)
    fa21:	03 00 
    fa23:	e9 8b 01 00 00       	jmpq   fbb3 <func_1+0x33fe>
    fa28:	c7 85 8c e6 ff ff fa 	movl   $0xfffffffa,-0x1974(%rbp)
    fa2f:	ff ff ff 
    fa32:	48 8b 85 f8 e7 ff ff 	mov    -0x1808(%rbp),%rax
    fa39:	8b 00                	mov    (%rax),%eax
    fa3b:	48 63 d8             	movslq %eax,%rbx
    fa3e:	48 8b 05 0b 94 01 00 	mov    0x1940b(%rip),%rax        # 28e50 <g_1125>
    fa45:	0f b7 00             	movzwl (%rax),%eax
    fa48:	44 0f bf e0          	movswl %ax,%r12d
    fa4c:	8b 85 8c e6 ff ff    	mov    -0x1974(%rbp),%eax
    fa52:	4c 63 e8             	movslq %eax,%r13
    fa55:	48 8b 85 c8 e7 ff ff 	mov    -0x1838(%rbp),%rax
    fa5c:	44 8b 30             	mov    (%rax),%r14d
    fa5f:	48 8b 05 72 ae 01 00 	mov    0x1ae72(%rip),%rax        # 2a8d8 <g_3532>
    fa66:	48 8b 00             	mov    (%rax),%rax
    fa69:	8b 10                	mov    (%rax),%edx
    fa6b:	8b 05 9b 69 01 00    	mov    0x1699b(%rip),%eax        # 2640c <g_4523+0xc>
    fa71:	83 f8 01             	cmp    $0x1,%eax
    fa74:	0f 95 c0             	setne  %al
    fa77:	0f b6 c8             	movzbl %al,%ecx
    fa7a:	48 8b 85 c8 e7 ff ff 	mov    -0x1838(%rbp),%rax
    fa81:	8b 00                	mov    (%rax),%eax
    fa83:	09 c8                	or     %ecx,%eax
    fa85:	89 c1                	mov    %eax,%ecx
    fa87:	48 8b 05 d2 93 01 00 	mov    0x193d2(%rip),%rax        # 28e60 <g_1176>
    fa8e:	48 8b 00             	mov    (%rax),%rax
    fa91:	83 e1 09             	and    $0x9,%ecx
    fa94:	66 89 08             	mov    %cx,(%rax)
    fa97:	48 8b 8d 00 eb ff ff 	mov    -0x1500(%rbp),%rcx
    fa9e:	48 8d 85 20 e7 ff ff 	lea    -0x18e0(%rbp),%rax
    faa5:	48 39 c1             	cmp    %rax,%rcx
    faa8:	0f 94 c0             	sete   %al
    faab:	0f b6 c0             	movzbl %al,%eax
    faae:	89 d6                	mov    %edx,%esi
    fab0:	89 c7                	mov    %eax,%edi
    fab2:	e8 4e bb ff ff       	callq  b605 <safe_sub_func_int32_t_s_s>
    fab7:	41 39 c6             	cmp    %eax,%r14d
    faba:	48 8b 85 f8 e7 ff ff 	mov    -0x1808(%rbp),%rax
    fac1:	8b 00                	mov    (%rax),%eax
    fac3:	0f b7 c0             	movzwl %ax,%eax
    fac6:	be 01 00 00 00       	mov    $0x1,%esi
    facb:	89 c7                	mov    %eax,%edi
    facd:	e8 6b c2 ff ff       	callq  bd3d <safe_mul_func_uint16_t_u_u>
    fad2:	48 8b 15 3f 8b 01 00 	mov    0x18b3f(%rip),%rdx        # 28618 <g_128>
    fad9:	48 8b 05 38 8b 01 00 	mov    0x18b38(%rip),%rax        # 28618 <g_128>
    fae0:	0f b6 12             	movzbl (%rdx),%edx
    fae3:	88 10                	mov    %dl,(%rax)
    fae5:	4c 89 ee             	mov    %r13,%rsi
    fae8:	bf 01 00 00 00       	mov    $0x1,%edi
    faed:	e8 b6 bd ff ff       	callq  b8a8 <safe_sub_func_int64_t_s_s>
    faf2:	0f b7 c0             	movzwl %ax,%eax
    faf5:	44 89 e6             	mov    %r12d,%esi
    faf8:	89 c7                	mov    %eax,%edi
    fafa:	e8 49 c3 ff ff       	callq  be48 <safe_rshift_func_uint16_t_u_s>
    faff:	0f b7 c0             	movzwl %ax,%eax
    fb02:	be 02 00 00 00       	mov    $0x2,%esi
    fb07:	89 c7                	mov    %eax,%edi
    fb09:	e8 f7 ba ff ff       	callq  b605 <safe_sub_func_int32_t_s_s>
    fb0e:	85 c0                	test   %eax,%eax
    fb10:	74 07                	je     fb19 <func_1+0x3364>
    fb12:	ba 01 00 00 00       	mov    $0x1,%edx
    fb17:	eb 05                	jmp    fb1e <func_1+0x3369>
    fb19:	ba 00 00 00 00       	mov    $0x0,%edx
    fb1e:	48 8b 85 68 e7 ff ff 	mov    -0x1898(%rbp),%rax
    fb25:	8b 00                	mov    (%rax),%eax
    fb27:	39 c2                	cmp    %eax,%edx
    fb29:	0f 9f c0             	setg   %al
    fb2c:	0f b6 c0             	movzbl %al,%eax
    fb2f:	48 89 de             	mov    %rbx,%rsi
    fb32:	48 89 c7             	mov    %rax,%rdi
    fb35:	e8 6e bd ff ff       	callq  b8a8 <safe_sub_func_int64_t_s_s>
    fb3a:	48 89 c2             	mov    %rax,%rdx
    fb3d:	48 b8 db 2d 79 21 73 	movabs $0x82752a7321792ddb,%rax
    fb44:	2a 75 82 
    fb47:	48 39 c2             	cmp    %rax,%rdx
    fb4a:	0f 96 c0             	setbe  %al
    fb4d:	0f b6 d0             	movzbl %al,%edx
    fb50:	0f b7 85 66 eb ff ff 	movzwl -0x149a(%rbp),%eax
    fb57:	98                   	cwtl   
    fb58:	39 c2                	cmp    %eax,%edx
    fb5a:	0f 95 c0             	setne  %al
    fb5d:	0f b6 d8             	movzbl %al,%ebx
    fb60:	48 8d 85 e2 e5 ff ff 	lea    -0x1a1e(%rbp),%rax
    fb67:	48 39 85 c0 e7 ff ff 	cmp    %rax,-0x1840(%rbp)
    fb6e:	0f 95 c0             	setne  %al
    fb71:	0f b6 d0             	movzbl %al,%edx
    fb74:	48 8b 85 c8 e7 ff ff 	mov    -0x1838(%rbp),%rax
    fb7b:	8b 00                	mov    (%rax),%eax
    fb7d:	48 98                	cltq   
    fb7f:	48 89 d6             	mov    %rdx,%rsi
    fb82:	48 89 c7             	mov    %rax,%rdi
    fb85:	e8 b7 bc ff ff       	callq  b841 <safe_add_func_int64_t_s_s>
    fb8a:	0f b6 c0             	movzbl %al,%eax
    fb8d:	89 de                	mov    %ebx,%esi
    fb8f:	89 c7                	mov    %eax,%edi
    fb91:	e8 c4 bf ff ff       	callq  bb5a <safe_add_func_uint8_t_u_u>
    fb96:	0f b6 d0             	movzbl %al,%edx
    fb99:	48 8b 85 f8 e7 ff ff 	mov    -0x1808(%rbp),%rax
    fba0:	89 10                	mov    %edx,(%rax)
    fba2:	0f b7 85 24 e6 ff ff 	movzwl -0x19dc(%rbp),%eax
    fba9:	83 e8 01             	sub    $0x1,%eax
    fbac:	66 89 85 24 e6 ff ff 	mov    %ax,-0x19dc(%rbp)
    fbb3:	0f b7 85 24 e6 ff ff 	movzwl -0x19dc(%rbp),%eax
    fbba:	66 85 c0             	test   %ax,%ax
    fbbd:	0f 89 65 fe ff ff    	jns    fa28 <func_1+0x3273>
    fbc3:	0f b6 85 e1 e5 ff ff 	movzbl -0x1a1f(%rbp),%eax
    fbca:	83 c0 01             	add    $0x1,%eax
    fbcd:	88 85 e1 e5 ff ff    	mov    %al,-0x1a1f(%rbp)
    fbd3:	0f b6 85 e1 e5 ff ff 	movzbl -0x1a1f(%rbp),%eax
    fbda:	3c 03                	cmp    $0x3,%al
    fbdc:	0f 86 e4 f7 ff ff    	jbe    f3c6 <func_1+0x2c11>
    fbe2:	48 8b 05 9f 5d 01 00 	mov    0x15d9f(%rip),%rax        # 25988 <g_2538>
    fbe9:	48 83 c0 01          	add    $0x1,%rax
    fbed:	48 89 05 94 5d 01 00 	mov    %rax,0x15d94(%rip)        # 25988 <g_2538>
    fbf4:	48 8b 05 8d 5d 01 00 	mov    0x15d8d(%rip),%rax        # 25988 <g_2538>
    fbfb:	48 83 f8 03          	cmp    $0x3,%rax
    fbff:	0f 86 38 e7 ff ff    	jbe    e33d <func_1+0x1b88>
    fc05:	48 c7 05 e8 54 01 00 	movq   $0x0,0x154e8(%rip)        # 250f8 <g_708>
    fc0c:	00 00 00 00 
    fc10:	eb 50                	jmp    fc62 <func_1+0x34ad>
    fc12:	c7 05 60 54 01 00 00 	movl   $0x0,0x15460(%rip)        # 2507c <g_65>
    fc19:	00 00 00 
    fc1c:	eb 1d                	jmp    fc3b <func_1+0x3486>
    fc1e:	c6 85 eb e5 ff ff 01 	movb   $0x1,-0x1a15(%rbp)
    fc25:	80 85 eb e5 ff ff 01 	addb   $0x1,-0x1a15(%rbp)
    fc2c:	8b 05 4a 54 01 00    	mov    0x1544a(%rip),%eax        # 2507c <g_65>
    fc32:	83 c0 01             	add    $0x1,%eax
    fc35:	89 05 41 54 01 00    	mov    %eax,0x15441(%rip)        # 2507c <g_65>
    fc3b:	8b 05 3b 54 01 00    	mov    0x1543b(%rip),%eax        # 2507c <g_65>
    fc41:	83 f8 1a             	cmp    $0x1a,%eax
    fc44:	74 d8                	je     fc1e <func_1+0x3469>
    fc46:	48 8b 05 ab 54 01 00 	mov    0x154ab(%rip),%rax        # 250f8 <g_708>
    fc4d:	be 05 00 00 00       	mov    $0x5,%esi
    fc52:	89 c7                	mov    %eax,%edi
    fc54:	e8 5d b9 ff ff       	callq  b5b6 <safe_add_func_int32_t_s_s>
    fc59:	48 98                	cltq   
    fc5b:	48 89 05 96 54 01 00 	mov    %rax,0x15496(%rip)        # 250f8 <g_708>
    fc62:	48 8b 05 8f 54 01 00 	mov    0x1548f(%rip),%rax        # 250f8 <g_708>
    fc69:	48 83 f8 1c          	cmp    $0x1c,%rax
    fc6d:	77 a3                	ja     fc12 <func_1+0x345d>
    fc6f:	48 8b 05 b2 89 01 00 	mov    0x189b2(%rip),%rax        # 28628 <g_181>
    fc76:	8b 95 78 e6 ff ff    	mov    -0x1988(%rbp),%edx
    fc7c:	89 10                	mov    %edx,(%rax)
    fc7e:	48 8b 05 2b a2 01 00 	mov    0x1a22b(%rip),%rax        # 29eb0 <g_1645>
    fc85:	48 8b 00             	mov    (%rax),%rax
    fc88:	48 8b 00             	mov    (%rax),%rax
    fc8b:	48 8b 00             	mov    (%rax),%rax
    fc8e:	48 8b 00             	mov    (%rax),%rax
    fc91:	48 8b 5d c8          	mov    -0x38(%rbp),%rbx
    fc95:	64 48 33 1c 25 28 00 	xor    %fs:0x28,%rbx
    fc9c:	00 00 
    fc9e:	74 05                	je     fca5 <func_1+0x34f0>
    fca0:	e8 cb b3 ff ff       	callq  b070 <__stack_chk_fail@plt>
    fca5:	48 81 c4 f8 19 00 00 	add    $0x19f8,%rsp
    fcac:	5b                   	pop    %rbx
    fcad:	41 5c                	pop    %r12
    fcaf:	41 5d                	pop    %r13
    fcb1:	41 5e                	pop    %r14
    fcb3:	41 5f                	pop    %r15
    fcb5:	5d                   	pop    %rbp
    fcb6:	c3                   	retq   

000000000000fcb7 <func_4>:
    fcb7:	f3 0f 1e fa          	endbr64 
    fcbb:	55                   	push   %rbp
    fcbc:	48 89 e5             	mov    %rsp,%rbp
    fcbf:	89 7d ec             	mov    %edi,-0x14(%rbp)
    fcc2:	89 f0                	mov    %esi,%eax
    fcc4:	89 55 e4             	mov    %edx,-0x1c(%rbp)
    fcc7:	66 89 45 e8          	mov    %ax,-0x18(%rbp)
    fccb:	48 c7 45 f8 00 00 00 	movq   $0x0,-0x8(%rbp)
    fcd2:	00 
    fcd3:	48 8b 45 f8          	mov    -0x8(%rbp),%rax
    fcd7:	5d                   	pop    %rbp
    fcd8:	c3                   	retq   

000000000000fcd9 <func_10>:
    fcd9:	f3 0f 1e fa          	endbr64 
    fcdd:	55                   	push   %rbp
    fcde:	48 89 e5             	mov    %rsp,%rbp
    fce1:	41 56                	push   %r14
    fce3:	41 55                	push   %r13
    fce5:	41 54                	push   %r12
    fce7:	53                   	push   %rbx
    fce8:	48 81 ec 00 10 00 00 	sub    $0x1000,%rsp
    fcef:	48 83 0c 24 00       	orq    $0x0,(%rsp)
    fcf4:	48 81 ec d0 00 00 00 	sub    $0xd0,%rsp
    fcfb:	89 bd 1c ef ff ff    	mov    %edi,-0x10e4(%rbp)
    fd01:	48 89 b5 10 ef ff ff 	mov    %rsi,-0x10f0(%rbp)
    fd08:	64 48 8b 04 25 28 00 	mov    %fs:0x28,%rax
    fd0f:	00 00 
    fd11:	48 89 45 d8          	mov    %rax,-0x28(%rbp)
    fd15:	31 c0                	xor    %eax,%eax
    fd17:	48 c7 85 70 ef ff ff 	movq   $0x8,-0x1090(%rbp)
    fd1e:	08 00 00 00 
    fd22:	48 8d 05 67 b1 01 00 	lea    0x1b167(%rip),%rax        # 2ae90 <g_2423>
    fd29:	48 89 85 78 ef ff ff 	mov    %rax,-0x1088(%rbp)
    fd30:	c7 85 28 ef ff ff 44 	movl   $0x5ce35944,-0x10d8(%rbp)
    fd37:	59 e3 5c 
    fd3a:	48 8d 05 20 54 01 00 	lea    0x15420(%rip),%rax        # 25161 <g_929+0x41>
    fd41:	48 89 85 48 ef ff ff 	mov    %rax,-0x10b8(%rbp)
    fd48:	48 8d 85 48 ef ff ff 	lea    -0x10b8(%rbp),%rax
    fd4f:	48 89 85 80 ef ff ff 	mov    %rax,-0x1080(%rbp)
    fd56:	c7 85 2c ef ff ff 84 	movl   $0xb177d84,-0x10d4(%rbp)
    fd5d:	7d 17 0b 
    fd60:	66 c7 85 24 ef ff ff 	movw   $0xffff,-0x10dc(%rbp)
    fd67:	ff ff 
    fd69:	48 8d 05 88 b1 01 00 	lea    0x1b188(%rip),%rax        # 2aef8 <g_2679+0x38>
    fd70:	48 89 85 88 ef ff ff 	mov    %rax,-0x1078(%rbp)
    fd77:	c7 05 93 53 01 00 17 	movl   $0x17,0x15393(%rip)        # 25114 <g_849>
    fd7e:	00 00 00 
    fd81:	90                   	nop
    fd82:	8b 05 8c 53 01 00    	mov    0x1538c(%rip),%eax        # 25114 <g_849>
    fd88:	83 f8 02             	cmp    $0x2,%eax
    fd8b:	0f 86 3f 1d 00 00    	jbe    11ad0 <func_10+0x1df7>
    fd91:	48 8d 05 e4 52 01 00 	lea    0x152e4(%rip),%rax        # 2507c <g_65>
    fd98:	48 89 85 68 ef ff ff 	mov    %rax,-0x1098(%rbp)
    fd9f:	c7 85 38 ef ff ff 01 	movl   $0x1,-0x10c8(%rbp)
    fda6:	00 00 00 
    fda9:	48 8d 05 b0 90 01 00 	lea    0x190b0(%rip),%rax        # 28e60 <g_1176>
    fdb0:	48 89 85 90 ef ff ff 	mov    %rax,-0x1070(%rbp)
    fdb7:	c7 85 30 ef ff ff 00 	movl   $0x0,-0x10d0(%rbp)
    fdbe:	00 00 00 
    fdc1:	eb 1a                	jmp    fddd <func_10+0x104>
    fdc3:	8b 85 30 ef ff ff    	mov    -0x10d0(%rbp),%eax
    fdc9:	48 98                	cltq   
    fdcb:	c7 84 85 00 f0 ff ff 	movl   $0x2877a565,-0x1000(%rbp,%rax,4)
    fdd2:	65 a5 77 28 
    fdd6:	83 85 30 ef ff ff 01 	addl   $0x1,-0x10d0(%rbp)
    fddd:	83 bd 30 ef ff ff 03 	cmpl   $0x3,-0x10d0(%rbp)
    fde4:	7e dd                	jle    fdc3 <func_10+0xea>
    fde6:	48 8b 85 10 ef ff ff 	mov    -0x10f0(%rbp),%rax
    fded:	8b 00                	mov    (%rax),%eax
    fdef:	85 c0                	test   %eax,%eax
    fdf1:	0f 84 ce 1c 00 00    	je     11ac5 <func_10+0x1dec>
    fdf7:	66 c7 85 60 f0 ff ff 	movw   $0x7788,-0xfa0(%rbp)
    fdfe:	88 77 
    fe00:	66 c7 85 62 f0 ff ff 	movw   $0x7788,-0xf9e(%rbp)
    fe07:	88 77 
    fe09:	66 c7 85 64 f0 ff ff 	movw   $0x7788,-0xf9c(%rbp)
    fe10:	88 77 
    fe12:	66 c7 85 66 f0 ff ff 	movw   $0x7788,-0xf9a(%rbp)
    fe19:	88 77 
    fe1b:	66 c7 85 68 f0 ff ff 	movw   $0x7788,-0xf98(%rbp)
    fe22:	88 77 
    fe24:	66 c7 85 6a f0 ff ff 	movw   $0x7788,-0xf96(%rbp)
    fe2b:	88 77 
    fe2d:	66 c7 85 6c f0 ff ff 	movw   $0x7788,-0xf94(%rbp)
    fe34:	88 77 
    fe36:	66 c7 85 6e f0 ff ff 	movw   $0xffff,-0xf92(%rbp)
    fe3d:	ff ff 
    fe3f:	66 c7 85 70 f0 ff ff 	movw   $0xffff,-0xf90(%rbp)
    fe46:	ff ff 
    fe48:	66 c7 85 72 f0 ff ff 	movw   $0xffff,-0xf8e(%rbp)
    fe4f:	ff ff 
    fe51:	66 c7 85 74 f0 ff ff 	movw   $0xffff,-0xf8c(%rbp)
    fe58:	ff ff 
    fe5a:	66 c7 85 76 f0 ff ff 	movw   $0xffff,-0xf8a(%rbp)
    fe61:	ff ff 
    fe63:	66 c7 85 78 f0 ff ff 	movw   $0xffff,-0xf88(%rbp)
    fe6a:	ff ff 
    fe6c:	66 c7 85 7a f0 ff ff 	movw   $0xffff,-0xf86(%rbp)
    fe73:	ff ff 
    fe75:	66 c7 85 7c f0 ff ff 	movw   $0x7788,-0xf84(%rbp)
    fe7c:	88 77 
    fe7e:	66 c7 85 7e f0 ff ff 	movw   $0x7788,-0xf82(%rbp)
    fe85:	88 77 
    fe87:	66 c7 85 80 f0 ff ff 	movw   $0x7788,-0xf80(%rbp)
    fe8e:	88 77 
    fe90:	66 c7 85 82 f0 ff ff 	movw   $0x7788,-0xf7e(%rbp)
    fe97:	88 77 
    fe99:	66 c7 85 84 f0 ff ff 	movw   $0x7788,-0xf7c(%rbp)
    fea0:	88 77 
    fea2:	66 c7 85 86 f0 ff ff 	movw   $0x7788,-0xf7a(%rbp)
    fea9:	88 77 
    feab:	66 c7 85 88 f0 ff ff 	movw   $0x7788,-0xf78(%rbp)
    feb2:	88 77 
    feb4:	c6 85 22 ef ff ff c1 	movb   $0xc1,-0x10de(%rbp)
    febb:	c7 85 3c ef ff ff 1f 	movl   $0x8fd7131f,-0x10c4(%rbp)
    fec2:	13 d7 8f 
    fec5:	c7 85 40 ef ff ff 00 	movl   $0x0,-0x10c0(%rbp)
    fecc:	00 00 00 
    fecf:	48 c7 85 50 ef ff ff 	movq   $0x0,-0x10b0(%rbp)
    fed6:	00 00 00 00 
    feda:	48 8d 85 50 ef ff ff 	lea    -0x10b0(%rbp),%rax
    fee1:	48 89 85 98 ef ff ff 	mov    %rax,-0x1068(%rbp)
    fee8:	48 8b 05 99 8a 01 00 	mov    0x18a99(%rip),%rax        # 28988 <g_893>
    feef:	48 8b 00             	mov    (%rax),%rax
    fef2:	48 8b 95 10 ef ff ff 	mov    -0x10f0(%rbp),%rdx
    fef9:	48 89 10             	mov    %rdx,(%rax)
    fefc:	c7 05 e6 51 01 00 00 	movl   $0x0,0x151e6(%rip)        # 250ec <g_362>
    ff03:	00 00 00 
    ff06:	e9 a2 1b 00 00       	jmpq   11aad <func_10+0x1dd4>
    ff0b:	66 c7 85 f2 ef ff ff 	movw   $0x261c,-0x100e(%rbp)
    ff12:	1c 26 
    ff14:	66 c7 85 f4 ef ff ff 	movw   $0x261c,-0x100c(%rbp)
    ff1b:	1c 26 
    ff1d:	66 c7 85 f6 ef ff ff 	movw   $0x261c,-0x100a(%rbp)
    ff24:	1c 26 
    ff26:	66 c7 85 f8 ef ff ff 	movw   $0x261c,-0x1008(%rbp)
    ff2d:	1c 26 
    ff2f:	66 c7 85 fa ef ff ff 	movw   $0x261c,-0x1006(%rbp)
    ff36:	1c 26 
    ff38:	66 c7 85 fc ef ff ff 	movw   $0x261c,-0x1004(%rbp)
    ff3f:	1c 26 
    ff41:	66 c7 85 fe ef ff ff 	movw   $0x261c,-0x1002(%rbp)
    ff48:	1c 26 
    ff4a:	48 8d 05 3f af 01 00 	lea    0x1af3f(%rip),%rax        # 2ae90 <g_2423>
    ff51:	48 89 85 58 ef ff ff 	mov    %rax,-0x10a8(%rbp)
    ff58:	48 8d 85 58 ef ff ff 	lea    -0x10a8(%rbp),%rax
    ff5f:	48 89 85 a0 ef ff ff 	mov    %rax,-0x1060(%rbp)
    ff66:	48 8d 85 30 f8 ff ff 	lea    -0x7d0(%rbp),%rax
    ff6d:	48 8d 15 ac 66 01 00 	lea    0x166ac(%rip),%rdx        # 26620 <g_4523+0x220>
    ff74:	b9 f5 00 00 00       	mov    $0xf5,%ecx
    ff79:	48 89 c7             	mov    %rax,%rdi
    ff7c:	48 89 d6             	mov    %rdx,%rsi
    ff7f:	f3 48 a5             	rep movsq %ds:(%rsi),%es:(%rdi)
    ff82:	48 8d 85 30 f8 ff ff 	lea    -0x7d0(%rbp),%rax
    ff89:	48 05 b0 05 00 00    	add    $0x5b0,%rax
    ff8f:	48 89 85 90 f0 ff ff 	mov    %rax,-0xf70(%rbp)
    ff96:	48 8d 85 30 f8 ff ff 	lea    -0x7d0(%rbp),%rax
    ff9d:	48 05 a0 02 00 00    	add    $0x2a0,%rax
    ffa3:	48 89 85 98 f0 ff ff 	mov    %rax,-0xf68(%rbp)
    ffaa:	48 8d 85 30 f8 ff ff 	lea    -0x7d0(%rbp),%rax
    ffb1:	48 05 b0 05 00 00    	add    $0x5b0,%rax
    ffb7:	48 89 85 a0 f0 ff ff 	mov    %rax,-0xf60(%rbp)
    ffbe:	48 8d 85 30 f8 ff ff 	lea    -0x7d0(%rbp),%rax
    ffc5:	48 05 b0 05 00 00    	add    $0x5b0,%rax
    ffcb:	48 89 85 a8 f0 ff ff 	mov    %rax,-0xf58(%rbp)
    ffd2:	48 8d 85 30 f8 ff ff 	lea    -0x7d0(%rbp),%rax
    ffd9:	48 05 a0 02 00 00    	add    $0x2a0,%rax
    ffdf:	48 89 85 b0 f0 ff ff 	mov    %rax,-0xf50(%rbp)
    ffe6:	48 8d 85 30 f8 ff ff 	lea    -0x7d0(%rbp),%rax
    ffed:	48 05 b0 05 00 00    	add    $0x5b0,%rax
    fff3:	48 89 85 b8 f0 ff ff 	mov    %rax,-0xf48(%rbp)
    fffa:	48 8d 85 30 f8 ff ff 	lea    -0x7d0(%rbp),%rax
   10001:	48 05 a0 02 00 00    	add    $0x2a0,%rax
   10007:	48 89 85 c0 f0 ff ff 	mov    %rax,-0xf40(%rbp)
   1000e:	48 8d 85 30 f8 ff ff 	lea    -0x7d0(%rbp),%rax
   10015:	48 05 b0 05 00 00    	add    $0x5b0,%rax
   1001b:	48 89 85 c8 f0 ff ff 	mov    %rax,-0xf38(%rbp)
   10022:	48 8d 85 30 f8 ff ff 	lea    -0x7d0(%rbp),%rax
   10029:	48 05 b0 05 00 00    	add    $0x5b0,%rax
   1002f:	48 89 85 d0 f0 ff ff 	mov    %rax,-0xf30(%rbp)
   10036:	48 8d 85 30 f8 ff ff 	lea    -0x7d0(%rbp),%rax
   1003d:	48 05 40 06 00 00    	add    $0x640,%rax
   10043:	48 89 85 d8 f0 ff ff 	mov    %rax,-0xf28(%rbp)
   1004a:	48 8d 85 30 f8 ff ff 	lea    -0x7d0(%rbp),%rax
   10051:	48 05 40 06 00 00    	add    $0x640,%rax
   10057:	48 89 85 e0 f0 ff ff 	mov    %rax,-0xf20(%rbp)
   1005e:	48 8d 85 30 f8 ff ff 	lea    -0x7d0(%rbp),%rax
   10065:	48 05 b0 05 00 00    	add    $0x5b0,%rax
   1006b:	48 89 85 e8 f0 ff ff 	mov    %rax,-0xf18(%rbp)
   10072:	48 8d 85 30 f8 ff ff 	lea    -0x7d0(%rbp),%rax
   10079:	48 05 b0 05 00 00    	add    $0x5b0,%rax
   1007f:	48 89 85 f0 f0 ff ff 	mov    %rax,-0xf10(%rbp)
   10086:	48 8d 85 30 f8 ff ff 	lea    -0x7d0(%rbp),%rax
   1008d:	48 05 b0 05 00 00    	add    $0x5b0,%rax
   10093:	48 89 85 f8 f0 ff ff 	mov    %rax,-0xf08(%rbp)
   1009a:	48 8d 85 30 f8 ff ff 	lea    -0x7d0(%rbp),%rax
   100a1:	48 05 18 04 00 00    	add    $0x418,%rax
   100a7:	48 89 85 00 f1 ff ff 	mov    %rax,-0xf00(%rbp)
   100ae:	48 8d 85 30 f8 ff ff 	lea    -0x7d0(%rbp),%rax
   100b5:	48 05 40 06 00 00    	add    $0x640,%rax
   100bb:	48 89 85 08 f1 ff ff 	mov    %rax,-0xef8(%rbp)
   100c2:	48 8d 85 30 f8 ff ff 	lea    -0x7d0(%rbp),%rax
   100c9:	48 05 b0 05 00 00    	add    $0x5b0,%rax
   100cf:	48 89 85 10 f1 ff ff 	mov    %rax,-0xef0(%rbp)
   100d6:	48 8d 85 30 f8 ff ff 	lea    -0x7d0(%rbp),%rax
   100dd:	48 05 b0 05 00 00    	add    $0x5b0,%rax
   100e3:	48 89 85 18 f1 ff ff 	mov    %rax,-0xee8(%rbp)
   100ea:	48 8d 85 30 f8 ff ff 	lea    -0x7d0(%rbp),%rax
   100f1:	48 05 b0 05 00 00    	add    $0x5b0,%rax
   100f7:	48 89 85 20 f1 ff ff 	mov    %rax,-0xee0(%rbp)
   100fe:	48 8d 85 30 f8 ff ff 	lea    -0x7d0(%rbp),%rax
   10105:	48 05 a0 02 00 00    	add    $0x2a0,%rax
   1010b:	48 89 85 28 f1 ff ff 	mov    %rax,-0xed8(%rbp)
   10112:	48 8d 85 30 f8 ff ff 	lea    -0x7d0(%rbp),%rax
   10119:	48 05 b0 05 00 00    	add    $0x5b0,%rax
   1011f:	48 89 85 30 f1 ff ff 	mov    %rax,-0xed0(%rbp)
   10126:	48 8d 85 30 f8 ff ff 	lea    -0x7d0(%rbp),%rax
   1012d:	48 05 b0 05 00 00    	add    $0x5b0,%rax
   10133:	48 89 85 38 f1 ff ff 	mov    %rax,-0xec8(%rbp)
   1013a:	48 8d 85 30 f8 ff ff 	lea    -0x7d0(%rbp),%rax
   10141:	48 05 b0 05 00 00    	add    $0x5b0,%rax
   10147:	48 89 85 40 f1 ff ff 	mov    %rax,-0xec0(%rbp)
   1014e:	48 8d 85 30 f8 ff ff 	lea    -0x7d0(%rbp),%rax
   10155:	48 05 b0 05 00 00    	add    $0x5b0,%rax
   1015b:	48 89 85 48 f1 ff ff 	mov    %rax,-0xeb8(%rbp)
   10162:	48 8d 85 30 f8 ff ff 	lea    -0x7d0(%rbp),%rax
   10169:	48 05 a0 02 00 00    	add    $0x2a0,%rax
   1016f:	48 89 85 50 f1 ff ff 	mov    %rax,-0xeb0(%rbp)
   10176:	48 8d 85 30 f8 ff ff 	lea    -0x7d0(%rbp),%rax
   1017d:	48 05 b0 05 00 00    	add    $0x5b0,%rax
   10183:	48 89 85 58 f1 ff ff 	mov    %rax,-0xea8(%rbp)
   1018a:	48 8d 85 30 f8 ff ff 	lea    -0x7d0(%rbp),%rax
   10191:	48 05 b0 05 00 00    	add    $0x5b0,%rax
   10197:	48 89 85 60 f1 ff ff 	mov    %rax,-0xea0(%rbp)
   1019e:	48 8d 85 30 f8 ff ff 	lea    -0x7d0(%rbp),%rax
   101a5:	48 05 b0 05 00 00    	add    $0x5b0,%rax
   101ab:	48 89 85 68 f1 ff ff 	mov    %rax,-0xe98(%rbp)
   101b2:	48 8d 85 30 f8 ff ff 	lea    -0x7d0(%rbp),%rax
   101b9:	48 05 b0 05 00 00    	add    $0x5b0,%rax
   101bf:	48 89 85 70 f1 ff ff 	mov    %rax,-0xe90(%rbp)
   101c6:	48 8d 85 30 f8 ff ff 	lea    -0x7d0(%rbp),%rax
   101cd:	48 05 b0 05 00 00    	add    $0x5b0,%rax
   101d3:	48 89 85 78 f1 ff ff 	mov    %rax,-0xe88(%rbp)
   101da:	48 8d 85 30 f8 ff ff 	lea    -0x7d0(%rbp),%rax
   101e1:	48 05 b0 05 00 00    	add    $0x5b0,%rax
   101e7:	48 89 85 80 f1 ff ff 	mov    %rax,-0xe80(%rbp)
   101ee:	48 8d 85 30 f8 ff ff 	lea    -0x7d0(%rbp),%rax
   101f5:	48 05 a0 02 00 00    	add    $0x2a0,%rax
   101fb:	48 89 85 88 f1 ff ff 	mov    %rax,-0xe78(%rbp)
   10202:	48 8d 85 30 f8 ff ff 	lea    -0x7d0(%rbp),%rax
   10209:	48 05 b0 05 00 00    	add    $0x5b0,%rax
   1020f:	48 89 85 90 f1 ff ff 	mov    %rax,-0xe70(%rbp)
   10216:	48 8d 85 30 f8 ff ff 	lea    -0x7d0(%rbp),%rax
   1021d:	48 05 b0 05 00 00    	add    $0x5b0,%rax
   10223:	48 89 85 98 f1 ff ff 	mov    %rax,-0xe68(%rbp)
   1022a:	48 8d 85 30 f8 ff ff 	lea    -0x7d0(%rbp),%rax
   10231:	48 05 b0 05 00 00    	add    $0x5b0,%rax
   10237:	48 89 85 a0 f1 ff ff 	mov    %rax,-0xe60(%rbp)
   1023e:	48 8d 85 30 f8 ff ff 	lea    -0x7d0(%rbp),%rax
   10245:	48 05 b0 05 00 00    	add    $0x5b0,%rax
   1024b:	48 89 85 a8 f1 ff ff 	mov    %rax,-0xe58(%rbp)
   10252:	48 8d 85 30 f8 ff ff 	lea    -0x7d0(%rbp),%rax
   10259:	48 05 40 06 00 00    	add    $0x640,%rax
   1025f:	48 89 85 b0 f1 ff ff 	mov    %rax,-0xe50(%rbp)
   10266:	48 8d 85 30 f8 ff ff 	lea    -0x7d0(%rbp),%rax
   1026d:	48 05 b0 05 00 00    	add    $0x5b0,%rax
   10273:	48 89 85 b8 f1 ff ff 	mov    %rax,-0xe48(%rbp)
   1027a:	48 8d 85 30 f8 ff ff 	lea    -0x7d0(%rbp),%rax
   10281:	48 05 b0 05 00 00    	add    $0x5b0,%rax
   10287:	48 89 85 c0 f1 ff ff 	mov    %rax,-0xe40(%rbp)
   1028e:	48 8d 85 30 f8 ff ff 	lea    -0x7d0(%rbp),%rax
   10295:	48 05 b0 05 00 00    	add    $0x5b0,%rax
   1029b:	48 89 85 c8 f1 ff ff 	mov    %rax,-0xe38(%rbp)
   102a2:	48 8d 85 30 f8 ff ff 	lea    -0x7d0(%rbp),%rax
   102a9:	48 05 40 06 00 00    	add    $0x640,%rax
   102af:	48 89 85 d0 f1 ff ff 	mov    %rax,-0xe30(%rbp)
   102b6:	48 8d 85 30 f8 ff ff 	lea    -0x7d0(%rbp),%rax
   102bd:	48 05 18 04 00 00    	add    $0x418,%rax
   102c3:	48 89 85 d8 f1 ff ff 	mov    %rax,-0xe28(%rbp)
   102ca:	48 8d 85 30 f8 ff ff 	lea    -0x7d0(%rbp),%rax
   102d1:	48 05 b0 05 00 00    	add    $0x5b0,%rax
   102d7:	48 89 85 e0 f1 ff ff 	mov    %rax,-0xe20(%rbp)
   102de:	48 8d 85 30 f8 ff ff 	lea    -0x7d0(%rbp),%rax
   102e5:	48 05 b0 05 00 00    	add    $0x5b0,%rax
   102eb:	48 89 85 e8 f1 ff ff 	mov    %rax,-0xe18(%rbp)
   102f2:	48 8d 85 30 f8 ff ff 	lea    -0x7d0(%rbp),%rax
   102f9:	48 05 b0 05 00 00    	add    $0x5b0,%rax
   102ff:	48 89 85 f0 f1 ff ff 	mov    %rax,-0xe10(%rbp)
   10306:	48 8d 85 30 f8 ff ff 	lea    -0x7d0(%rbp),%rax
   1030d:	48 05 b0 05 00 00    	add    $0x5b0,%rax
   10313:	48 89 85 f8 f1 ff ff 	mov    %rax,-0xe08(%rbp)
   1031a:	48 8d 85 30 f8 ff ff 	lea    -0x7d0(%rbp),%rax
   10321:	48 05 a0 02 00 00    	add    $0x2a0,%rax
   10327:	48 89 85 00 f2 ff ff 	mov    %rax,-0xe00(%rbp)
   1032e:	48 8d 85 30 f8 ff ff 	lea    -0x7d0(%rbp),%rax
   10335:	48 05 b0 05 00 00    	add    $0x5b0,%rax
   1033b:	48 89 85 08 f2 ff ff 	mov    %rax,-0xdf8(%rbp)
   10342:	48 8d 85 30 f8 ff ff 	lea    -0x7d0(%rbp),%rax
   10349:	48 05 b0 05 00 00    	add    $0x5b0,%rax
   1034f:	48 89 85 10 f2 ff ff 	mov    %rax,-0xdf0(%rbp)
   10356:	48 8d 85 30 f8 ff ff 	lea    -0x7d0(%rbp),%rax
   1035d:	48 05 a0 02 00 00    	add    $0x2a0,%rax
   10363:	48 89 85 18 f2 ff ff 	mov    %rax,-0xde8(%rbp)
   1036a:	48 8d 85 30 f8 ff ff 	lea    -0x7d0(%rbp),%rax
   10371:	48 05 b0 05 00 00    	add    $0x5b0,%rax
   10377:	48 89 85 20 f2 ff ff 	mov    %rax,-0xde0(%rbp)
   1037e:	48 8d 85 30 f8 ff ff 	lea    -0x7d0(%rbp),%rax
   10385:	48 05 a0 02 00 00    	add    $0x2a0,%rax
   1038b:	48 89 85 28 f2 ff ff 	mov    %rax,-0xdd8(%rbp)
   10392:	48 8d 85 30 f8 ff ff 	lea    -0x7d0(%rbp),%rax
   10399:	48 05 b0 05 00 00    	add    $0x5b0,%rax
   1039f:	48 89 85 30 f2 ff ff 	mov    %rax,-0xdd0(%rbp)
   103a6:	48 8d 85 30 f8 ff ff 	lea    -0x7d0(%rbp),%rax
   103ad:	48 05 b0 05 00 00    	add    $0x5b0,%rax
   103b3:	48 89 85 38 f2 ff ff 	mov    %rax,-0xdc8(%rbp)
   103ba:	48 8d 85 30 f8 ff ff 	lea    -0x7d0(%rbp),%rax
   103c1:	48 05 40 06 00 00    	add    $0x640,%rax
   103c7:	48 89 85 40 f2 ff ff 	mov    %rax,-0xdc0(%rbp)
   103ce:	48 8d 85 30 f8 ff ff 	lea    -0x7d0(%rbp),%rax
   103d5:	48 05 40 06 00 00    	add    $0x640,%rax
   103db:	48 89 85 48 f2 ff ff 	mov    %rax,-0xdb8(%rbp)
   103e2:	48 8d 85 30 f8 ff ff 	lea    -0x7d0(%rbp),%rax
   103e9:	48 05 b0 05 00 00    	add    $0x5b0,%rax
   103ef:	48 89 85 50 f2 ff ff 	mov    %rax,-0xdb0(%rbp)
   103f6:	48 8d 85 30 f8 ff ff 	lea    -0x7d0(%rbp),%rax
   103fd:	48 05 b0 05 00 00    	add    $0x5b0,%rax
   10403:	48 89 85 58 f2 ff ff 	mov    %rax,-0xda8(%rbp)
   1040a:	48 8d 85 30 f8 ff ff 	lea    -0x7d0(%rbp),%rax
   10411:	48 05 b0 05 00 00    	add    $0x5b0,%rax
   10417:	48 89 85 60 f2 ff ff 	mov    %rax,-0xda0(%rbp)
   1041e:	48 8d 85 30 f8 ff ff 	lea    -0x7d0(%rbp),%rax
   10425:	48 05 18 04 00 00    	add    $0x418,%rax
   1042b:	48 89 85 68 f2 ff ff 	mov    %rax,-0xd98(%rbp)
   10432:	48 8d 85 30 f8 ff ff 	lea    -0x7d0(%rbp),%rax
   10439:	48 05 40 06 00 00    	add    $0x640,%rax
   1043f:	48 89 85 70 f2 ff ff 	mov    %rax,-0xd90(%rbp)
   10446:	48 8d 85 30 f8 ff ff 	lea    -0x7d0(%rbp),%rax
   1044d:	48 05 b0 05 00 00    	add    $0x5b0,%rax
   10453:	48 89 85 78 f2 ff ff 	mov    %rax,-0xd88(%rbp)
   1045a:	48 8d 85 30 f8 ff ff 	lea    -0x7d0(%rbp),%rax
   10461:	48 05 b0 05 00 00    	add    $0x5b0,%rax
   10467:	48 89 85 80 f2 ff ff 	mov    %rax,-0xd80(%rbp)
   1046e:	48 8d 85 30 f8 ff ff 	lea    -0x7d0(%rbp),%rax
   10475:	48 05 b0 05 00 00    	add    $0x5b0,%rax
   1047b:	48 89 85 88 f2 ff ff 	mov    %rax,-0xd78(%rbp)
   10482:	48 8d 85 30 f8 ff ff 	lea    -0x7d0(%rbp),%rax
   10489:	48 05 a0 02 00 00    	add    $0x2a0,%rax
   1048f:	48 89 85 90 f2 ff ff 	mov    %rax,-0xd70(%rbp)
   10496:	48 8d 85 30 f8 ff ff 	lea    -0x7d0(%rbp),%rax
   1049d:	48 05 b0 05 00 00    	add    $0x5b0,%rax
   104a3:	48 89 85 98 f2 ff ff 	mov    %rax,-0xd68(%rbp)
   104aa:	48 8d 85 30 f8 ff ff 	lea    -0x7d0(%rbp),%rax
   104b1:	48 05 b0 05 00 00    	add    $0x5b0,%rax
   104b7:	48 89 85 a0 f2 ff ff 	mov    %rax,-0xd60(%rbp)
   104be:	48 8d 85 30 f8 ff ff 	lea    -0x7d0(%rbp),%rax
   104c5:	48 05 b0 05 00 00    	add    $0x5b0,%rax
   104cb:	48 89 85 a8 f2 ff ff 	mov    %rax,-0xd58(%rbp)
   104d2:	48 8d 85 30 f8 ff ff 	lea    -0x7d0(%rbp),%rax
   104d9:	48 05 b0 05 00 00    	add    $0x5b0,%rax
   104df:	48 89 85 b0 f2 ff ff 	mov    %rax,-0xd50(%rbp)
   104e6:	48 8d 85 30 f8 ff ff 	lea    -0x7d0(%rbp),%rax
   104ed:	48 05 a0 02 00 00    	add    $0x2a0,%rax
   104f3:	48 89 85 b8 f2 ff ff 	mov    %rax,-0xd48(%rbp)
   104fa:	48 8d 85 30 f8 ff ff 	lea    -0x7d0(%rbp),%rax
   10501:	48 05 b0 05 00 00    	add    $0x5b0,%rax
   10507:	48 89 85 c0 f2 ff ff 	mov    %rax,-0xd40(%rbp)
   1050e:	48 8d 85 30 f8 ff ff 	lea    -0x7d0(%rbp),%rax
   10515:	48 05 b0 05 00 00    	add    $0x5b0,%rax
   1051b:	48 89 85 c8 f2 ff ff 	mov    %rax,-0xd38(%rbp)
   10522:	48 8d 85 30 f8 ff ff 	lea    -0x7d0(%rbp),%rax
   10529:	48 05 b0 05 00 00    	add    $0x5b0,%rax
   1052f:	48 89 85 d0 f2 ff ff 	mov    %rax,-0xd30(%rbp)
   10536:	48 8d 85 30 f8 ff ff 	lea    -0x7d0(%rbp),%rax
   1053d:	48 05 b0 05 00 00    	add    $0x5b0,%rax
   10543:	48 89 85 d8 f2 ff ff 	mov    %rax,-0xd28(%rbp)
   1054a:	48 8d 85 30 f8 ff ff 	lea    -0x7d0(%rbp),%rax
   10551:	48 05 b0 05 00 00    	add    $0x5b0,%rax
   10557:	48 89 85 e0 f2 ff ff 	mov    %rax,-0xd20(%rbp)
   1055e:	48 8d 85 30 f8 ff ff 	lea    -0x7d0(%rbp),%rax
   10565:	48 05 b0 05 00 00    	add    $0x5b0,%rax
   1056b:	48 89 85 e8 f2 ff ff 	mov    %rax,-0xd18(%rbp)
   10572:	48 8d 85 30 f8 ff ff 	lea    -0x7d0(%rbp),%rax
   10579:	48 05 a0 02 00 00    	add    $0x2a0,%rax
   1057f:	48 89 85 f0 f2 ff ff 	mov    %rax,-0xd10(%rbp)
   10586:	48 8d 85 30 f8 ff ff 	lea    -0x7d0(%rbp),%rax
   1058d:	48 05 b0 05 00 00    	add    $0x5b0,%rax
   10593:	48 89 85 f8 f2 ff ff 	mov    %rax,-0xd08(%rbp)
   1059a:	48 8d 85 30 f8 ff ff 	lea    -0x7d0(%rbp),%rax
   105a1:	48 05 b0 05 00 00    	add    $0x5b0,%rax
   105a7:	48 89 85 00 f3 ff ff 	mov    %rax,-0xd00(%rbp)
   105ae:	48 8d 85 30 f8 ff ff 	lea    -0x7d0(%rbp),%rax
   105b5:	48 05 b0 05 00 00    	add    $0x5b0,%rax
   105bb:	48 89 85 08 f3 ff ff 	mov    %rax,-0xcf8(%rbp)
   105c2:	48 8d 85 30 f8 ff ff 	lea    -0x7d0(%rbp),%rax
   105c9:	48 05 b0 05 00 00    	add    $0x5b0,%rax
   105cf:	48 89 85 10 f3 ff ff 	mov    %rax,-0xcf0(%rbp)
   105d6:	48 8d 85 30 f8 ff ff 	lea    -0x7d0(%rbp),%rax
   105dd:	48 05 40 06 00 00    	add    $0x640,%rax
   105e3:	48 89 85 18 f3 ff ff 	mov    %rax,-0xce8(%rbp)
   105ea:	48 8d 85 30 f8 ff ff 	lea    -0x7d0(%rbp),%rax
   105f1:	48 05 b0 05 00 00    	add    $0x5b0,%rax
   105f7:	48 89 85 20 f3 ff ff 	mov    %rax,-0xce0(%rbp)
   105fe:	48 8d 85 30 f8 ff ff 	lea    -0x7d0(%rbp),%rax
   10605:	48 05 b0 05 00 00    	add    $0x5b0,%rax
   1060b:	48 89 85 28 f3 ff ff 	mov    %rax,-0xcd8(%rbp)
   10612:	48 8d 85 30 f8 ff ff 	lea    -0x7d0(%rbp),%rax
   10619:	48 05 b0 05 00 00    	add    $0x5b0,%rax
   1061f:	48 89 85 30 f3 ff ff 	mov    %rax,-0xcd0(%rbp)
   10626:	48 8d 85 30 f8 ff ff 	lea    -0x7d0(%rbp),%rax
   1062d:	48 05 40 06 00 00    	add    $0x640,%rax
   10633:	48 89 85 38 f3 ff ff 	mov    %rax,-0xcc8(%rbp)
   1063a:	48 8d 85 30 f8 ff ff 	lea    -0x7d0(%rbp),%rax
   10641:	48 05 18 04 00 00    	add    $0x418,%rax
   10647:	48 89 85 40 f3 ff ff 	mov    %rax,-0xcc0(%rbp)
   1064e:	48 8d 85 30 f8 ff ff 	lea    -0x7d0(%rbp),%rax
   10655:	48 05 b0 05 00 00    	add    $0x5b0,%rax
   1065b:	48 89 85 48 f3 ff ff 	mov    %rax,-0xcb8(%rbp)
   10662:	48 8d 85 30 f8 ff ff 	lea    -0x7d0(%rbp),%rax
   10669:	48 05 b0 05 00 00    	add    $0x5b0,%rax
   1066f:	48 89 85 50 f3 ff ff 	mov    %rax,-0xcb0(%rbp)
   10676:	48 8d 85 30 f8 ff ff 	lea    -0x7d0(%rbp),%rax
   1067d:	48 05 b0 05 00 00    	add    $0x5b0,%rax
   10683:	48 89 85 58 f3 ff ff 	mov    %rax,-0xca8(%rbp)
   1068a:	48 8d 85 30 f8 ff ff 	lea    -0x7d0(%rbp),%rax
   10691:	48 05 b0 05 00 00    	add    $0x5b0,%rax
   10697:	48 89 85 60 f3 ff ff 	mov    %rax,-0xca0(%rbp)
   1069e:	48 8d 85 30 f8 ff ff 	lea    -0x7d0(%rbp),%rax
   106a5:	48 05 a0 02 00 00    	add    $0x2a0,%rax
   106ab:	48 89 85 68 f3 ff ff 	mov    %rax,-0xc98(%rbp)
   106b2:	48 8d 85 30 f8 ff ff 	lea    -0x7d0(%rbp),%rax
   106b9:	48 05 b0 05 00 00    	add    $0x5b0,%rax
   106bf:	48 89 85 70 f3 ff ff 	mov    %rax,-0xc90(%rbp)
   106c6:	48 8d 85 30 f8 ff ff 	lea    -0x7d0(%rbp),%rax
   106cd:	48 05 b0 05 00 00    	add    $0x5b0,%rax
   106d3:	48 89 85 78 f3 ff ff 	mov    %rax,-0xc88(%rbp)
   106da:	48 8d 85 30 f8 ff ff 	lea    -0x7d0(%rbp),%rax
   106e1:	48 05 a0 02 00 00    	add    $0x2a0,%rax
   106e7:	48 89 85 80 f3 ff ff 	mov    %rax,-0xc80(%rbp)
   106ee:	48 8d 85 30 f8 ff ff 	lea    -0x7d0(%rbp),%rax
   106f5:	48 05 b0 05 00 00    	add    $0x5b0,%rax
   106fb:	48 89 85 88 f3 ff ff 	mov    %rax,-0xc78(%rbp)
   10702:	48 8d 85 30 f8 ff ff 	lea    -0x7d0(%rbp),%rax
   10709:	48 05 a0 02 00 00    	add    $0x2a0,%rax
   1070f:	48 89 85 90 f3 ff ff 	mov    %rax,-0xc70(%rbp)
   10716:	48 8d 85 30 f8 ff ff 	lea    -0x7d0(%rbp),%rax
   1071d:	48 05 b0 05 00 00    	add    $0x5b0,%rax
   10723:	48 89 85 98 f3 ff ff 	mov    %rax,-0xc68(%rbp)
   1072a:	48 8d 85 30 f8 ff ff 	lea    -0x7d0(%rbp),%rax
   10731:	48 05 b0 05 00 00    	add    $0x5b0,%rax
   10737:	48 89 85 a0 f3 ff ff 	mov    %rax,-0xc60(%rbp)
   1073e:	48 8d 85 30 f8 ff ff 	lea    -0x7d0(%rbp),%rax
   10745:	48 05 40 06 00 00    	add    $0x640,%rax
   1074b:	48 89 85 a8 f3 ff ff 	mov    %rax,-0xc58(%rbp)
   10752:	48 8d 85 30 f8 ff ff 	lea    -0x7d0(%rbp),%rax
   10759:	48 05 40 06 00 00    	add    $0x640,%rax
   1075f:	48 89 85 b0 f3 ff ff 	mov    %rax,-0xc50(%rbp)
   10766:	48 8d 85 30 f8 ff ff 	lea    -0x7d0(%rbp),%rax
   1076d:	48 05 b0 05 00 00    	add    $0x5b0,%rax
   10773:	48 89 85 b8 f3 ff ff 	mov    %rax,-0xc48(%rbp)
   1077a:	48 8d 85 30 f8 ff ff 	lea    -0x7d0(%rbp),%rax
   10781:	48 05 b0 05 00 00    	add    $0x5b0,%rax
   10787:	48 89 85 c0 f3 ff ff 	mov    %rax,-0xc40(%rbp)
   1078e:	48 8d 85 30 f8 ff ff 	lea    -0x7d0(%rbp),%rax
   10795:	48 05 b0 05 00 00    	add    $0x5b0,%rax
   1079b:	48 89 85 c8 f3 ff ff 	mov    %rax,-0xc38(%rbp)
   107a2:	48 8d 85 30 f8 ff ff 	lea    -0x7d0(%rbp),%rax
   107a9:	48 05 18 04 00 00    	add    $0x418,%rax
   107af:	48 89 85 d0 f3 ff ff 	mov    %rax,-0xc30(%rbp)
   107b6:	48 8d 85 30 f8 ff ff 	lea    -0x7d0(%rbp),%rax
   107bd:	48 05 40 06 00 00    	add    $0x640,%rax
   107c3:	48 89 85 d8 f3 ff ff 	mov    %rax,-0xc28(%rbp)
   107ca:	48 8d 85 30 f8 ff ff 	lea    -0x7d0(%rbp),%rax
   107d1:	48 05 b0 05 00 00    	add    $0x5b0,%rax
   107d7:	48 89 85 e0 f3 ff ff 	mov    %rax,-0xc20(%rbp)
   107de:	48 8d 85 30 f8 ff ff 	lea    -0x7d0(%rbp),%rax
   107e5:	48 05 b0 05 00 00    	add    $0x5b0,%rax
   107eb:	48 89 85 e8 f3 ff ff 	mov    %rax,-0xc18(%rbp)
   107f2:	48 8d 85 30 f8 ff ff 	lea    -0x7d0(%rbp),%rax
   107f9:	48 05 b0 05 00 00    	add    $0x5b0,%rax
   107ff:	48 89 85 f0 f3 ff ff 	mov    %rax,-0xc10(%rbp)
   10806:	48 8d 85 30 f8 ff ff 	lea    -0x7d0(%rbp),%rax
   1080d:	48 05 a0 02 00 00    	add    $0x2a0,%rax
   10813:	48 89 85 f8 f3 ff ff 	mov    %rax,-0xc08(%rbp)
   1081a:	48 8d 85 30 f8 ff ff 	lea    -0x7d0(%rbp),%rax
   10821:	48 05 b0 05 00 00    	add    $0x5b0,%rax
   10827:	48 89 85 00 f4 ff ff 	mov    %rax,-0xc00(%rbp)
   1082e:	48 8d 85 30 f8 ff ff 	lea    -0x7d0(%rbp),%rax
   10835:	48 05 b0 05 00 00    	add    $0x5b0,%rax
   1083b:	48 89 85 08 f4 ff ff 	mov    %rax,-0xbf8(%rbp)
   10842:	48 8d 85 30 f8 ff ff 	lea    -0x7d0(%rbp),%rax
   10849:	48 05 b0 05 00 00    	add    $0x5b0,%rax
   1084f:	48 89 85 10 f4 ff ff 	mov    %rax,-0xbf0(%rbp)
   10856:	48 8d 85 30 f8 ff ff 	lea    -0x7d0(%rbp),%rax
   1085d:	48 05 b0 05 00 00    	add    $0x5b0,%rax
   10863:	48 89 85 18 f4 ff ff 	mov    %rax,-0xbe8(%rbp)
   1086a:	48 8d 85 30 f8 ff ff 	lea    -0x7d0(%rbp),%rax
   10871:	48 05 a0 02 00 00    	add    $0x2a0,%rax
   10877:	48 89 85 20 f4 ff ff 	mov    %rax,-0xbe0(%rbp)
   1087e:	48 8d 85 30 f8 ff ff 	lea    -0x7d0(%rbp),%rax
   10885:	48 05 b0 05 00 00    	add    $0x5b0,%rax
   1088b:	48 89 85 28 f4 ff ff 	mov    %rax,-0xbd8(%rbp)
   10892:	48 8d 85 30 f8 ff ff 	lea    -0x7d0(%rbp),%rax
   10899:	48 05 b0 05 00 00    	add    $0x5b0,%rax
   1089f:	48 89 85 30 f4 ff ff 	mov    %rax,-0xbd0(%rbp)
   108a6:	48 8d 85 30 f8 ff ff 	lea    -0x7d0(%rbp),%rax
   108ad:	48 05 b0 05 00 00    	add    $0x5b0,%rax
   108b3:	48 89 85 38 f4 ff ff 	mov    %rax,-0xbc8(%rbp)
   108ba:	48 8d 85 30 f8 ff ff 	lea    -0x7d0(%rbp),%rax
   108c1:	48 05 b0 05 00 00    	add    $0x5b0,%rax
   108c7:	48 89 85 40 f4 ff ff 	mov    %rax,-0xbc0(%rbp)
   108ce:	48 8d 85 30 f8 ff ff 	lea    -0x7d0(%rbp),%rax
   108d5:	48 05 b0 05 00 00    	add    $0x5b0,%rax
   108db:	48 89 85 48 f4 ff ff 	mov    %rax,-0xbb8(%rbp)
   108e2:	48 8d 85 30 f8 ff ff 	lea    -0x7d0(%rbp),%rax
   108e9:	48 05 b0 05 00 00    	add    $0x5b0,%rax
   108ef:	48 89 85 50 f4 ff ff 	mov    %rax,-0xbb0(%rbp)
   108f6:	48 8d 85 30 f8 ff ff 	lea    -0x7d0(%rbp),%rax
   108fd:	48 05 a0 02 00 00    	add    $0x2a0,%rax
   10903:	48 89 85 58 f4 ff ff 	mov    %rax,-0xba8(%rbp)
   1090a:	48 8d 85 30 f8 ff ff 	lea    -0x7d0(%rbp),%rax
   10911:	48 05 b0 05 00 00    	add    $0x5b0,%rax
   10917:	48 89 85 60 f4 ff ff 	mov    %rax,-0xba0(%rbp)
   1091e:	48 8d 85 30 f8 ff ff 	lea    -0x7d0(%rbp),%rax
   10925:	48 05 b0 05 00 00    	add    $0x5b0,%rax
   1092b:	48 89 85 68 f4 ff ff 	mov    %rax,-0xb98(%rbp)
   10932:	48 8d 85 30 f8 ff ff 	lea    -0x7d0(%rbp),%rax
   10939:	48 05 b0 05 00 00    	add    $0x5b0,%rax
   1093f:	48 89 85 70 f4 ff ff 	mov    %rax,-0xb90(%rbp)
   10946:	48 8d 85 30 f8 ff ff 	lea    -0x7d0(%rbp),%rax
   1094d:	48 05 b0 05 00 00    	add    $0x5b0,%rax
   10953:	48 89 85 78 f4 ff ff 	mov    %rax,-0xb88(%rbp)
   1095a:	48 8d 85 30 f8 ff ff 	lea    -0x7d0(%rbp),%rax
   10961:	48 05 40 06 00 00    	add    $0x640,%rax
   10967:	48 89 85 80 f4 ff ff 	mov    %rax,-0xb80(%rbp)
   1096e:	48 8d 85 30 f8 ff ff 	lea    -0x7d0(%rbp),%rax
   10975:	48 05 b0 05 00 00    	add    $0x5b0,%rax
   1097b:	48 89 85 88 f4 ff ff 	mov    %rax,-0xb78(%rbp)
   10982:	48 8d 85 30 f8 ff ff 	lea    -0x7d0(%rbp),%rax
   10989:	48 05 b0 05 00 00    	add    $0x5b0,%rax
   1098f:	48 89 85 90 f4 ff ff 	mov    %rax,-0xb70(%rbp)
   10996:	48 8d 85 30 f8 ff ff 	lea    -0x7d0(%rbp),%rax
   1099d:	48 05 b0 05 00 00    	add    $0x5b0,%rax
   109a3:	48 89 85 98 f4 ff ff 	mov    %rax,-0xb68(%rbp)
   109aa:	48 8d 85 30 f8 ff ff 	lea    -0x7d0(%rbp),%rax
   109b1:	48 05 40 06 00 00    	add    $0x640,%rax
   109b7:	48 89 85 a0 f4 ff ff 	mov    %rax,-0xb60(%rbp)
   109be:	48 8d 85 30 f8 ff ff 	lea    -0x7d0(%rbp),%rax
   109c5:	48 05 18 04 00 00    	add    $0x418,%rax
   109cb:	48 89 85 a8 f4 ff ff 	mov    %rax,-0xb58(%rbp)
   109d2:	48 8d 85 30 f8 ff ff 	lea    -0x7d0(%rbp),%rax
   109d9:	48 05 b0 05 00 00    	add    $0x5b0,%rax
   109df:	48 89 85 b0 f4 ff ff 	mov    %rax,-0xb50(%rbp)
   109e6:	48 8d 85 30 f8 ff ff 	lea    -0x7d0(%rbp),%rax
   109ed:	48 05 b0 05 00 00    	add    $0x5b0,%rax
   109f3:	48 89 85 b8 f4 ff ff 	mov    %rax,-0xb48(%rbp)
   109fa:	48 8d 85 30 f8 ff ff 	lea    -0x7d0(%rbp),%rax
   10a01:	48 05 b0 05 00 00    	add    $0x5b0,%rax
   10a07:	48 89 85 c0 f4 ff ff 	mov    %rax,-0xb40(%rbp)
   10a0e:	48 8d 85 30 f8 ff ff 	lea    -0x7d0(%rbp),%rax
   10a15:	48 05 b0 05 00 00    	add    $0x5b0,%rax
   10a1b:	48 89 85 c8 f4 ff ff 	mov    %rax,-0xb38(%rbp)
   10a22:	48 8d 85 30 f8 ff ff 	lea    -0x7d0(%rbp),%rax
   10a29:	48 05 a0 02 00 00    	add    $0x2a0,%rax
   10a2f:	48 89 85 d0 f4 ff ff 	mov    %rax,-0xb30(%rbp)
   10a36:	48 8d 85 30 f8 ff ff 	lea    -0x7d0(%rbp),%rax
   10a3d:	48 05 b0 05 00 00    	add    $0x5b0,%rax
   10a43:	48 89 85 d8 f4 ff ff 	mov    %rax,-0xb28(%rbp)
   10a4a:	48 8d 85 30 f8 ff ff 	lea    -0x7d0(%rbp),%rax
   10a51:	48 05 b0 05 00 00    	add    $0x5b0,%rax
   10a57:	48 89 85 e0 f4 ff ff 	mov    %rax,-0xb20(%rbp)
   10a5e:	48 8d 85 30 f8 ff ff 	lea    -0x7d0(%rbp),%rax
   10a65:	48 05 a0 02 00 00    	add    $0x2a0,%rax
   10a6b:	48 89 85 e8 f4 ff ff 	mov    %rax,-0xb18(%rbp)
   10a72:	48 8d 85 30 f8 ff ff 	lea    -0x7d0(%rbp),%rax
   10a79:	48 05 b0 05 00 00    	add    $0x5b0,%rax
   10a7f:	48 89 85 f0 f4 ff ff 	mov    %rax,-0xb10(%rbp)
   10a86:	48 8d 85 30 f8 ff ff 	lea    -0x7d0(%rbp),%rax
   10a8d:	48 05 a0 02 00 00    	add    $0x2a0,%rax
   10a93:	48 89 85 f8 f4 ff ff 	mov    %rax,-0xb08(%rbp)
   10a9a:	48 8d 85 30 f8 ff ff 	lea    -0x7d0(%rbp),%rax
   10aa1:	48 05 b0 05 00 00    	add    $0x5b0,%rax
   10aa7:	48 89 85 00 f5 ff ff 	mov    %rax,-0xb00(%rbp)
   10aae:	48 8d 85 30 f8 ff ff 	lea    -0x7d0(%rbp),%rax
   10ab5:	48 05 b0 05 00 00    	add    $0x5b0,%rax
   10abb:	48 89 85 08 f5 ff ff 	mov    %rax,-0xaf8(%rbp)
   10ac2:	48 8d 85 30 f8 ff ff 	lea    -0x7d0(%rbp),%rax
   10ac9:	48 05 40 06 00 00    	add    $0x640,%rax
   10acf:	48 89 85 10 f5 ff ff 	mov    %rax,-0xaf0(%rbp)
   10ad6:	48 8d 85 30 f8 ff ff 	lea    -0x7d0(%rbp),%rax
   10add:	48 05 40 06 00 00    	add    $0x640,%rax
   10ae3:	48 89 85 18 f5 ff ff 	mov    %rax,-0xae8(%rbp)
   10aea:	48 8d 85 30 f8 ff ff 	lea    -0x7d0(%rbp),%rax
   10af1:	48 05 b0 05 00 00    	add    $0x5b0,%rax
   10af7:	48 89 85 20 f5 ff ff 	mov    %rax,-0xae0(%rbp)
   10afe:	48 8d 85 30 f8 ff ff 	lea    -0x7d0(%rbp),%rax
   10b05:	48 05 b0 05 00 00    	add    $0x5b0,%rax
   10b0b:	48 89 85 28 f5 ff ff 	mov    %rax,-0xad8(%rbp)
   10b12:	48 8d 85 30 f8 ff ff 	lea    -0x7d0(%rbp),%rax
   10b19:	48 05 b0 05 00 00    	add    $0x5b0,%rax
   10b1f:	48 89 85 30 f5 ff ff 	mov    %rax,-0xad0(%rbp)
   10b26:	48 8d 85 30 f8 ff ff 	lea    -0x7d0(%rbp),%rax
   10b2d:	48 05 18 04 00 00    	add    $0x418,%rax
   10b33:	48 89 85 38 f5 ff ff 	mov    %rax,-0xac8(%rbp)
   10b3a:	48 8d 85 30 f8 ff ff 	lea    -0x7d0(%rbp),%rax
   10b41:	48 05 40 06 00 00    	add    $0x640,%rax
   10b47:	48 89 85 40 f5 ff ff 	mov    %rax,-0xac0(%rbp)
   10b4e:	48 8d 85 30 f8 ff ff 	lea    -0x7d0(%rbp),%rax
   10b55:	48 05 b0 05 00 00    	add    $0x5b0,%rax
   10b5b:	48 89 85 48 f5 ff ff 	mov    %rax,-0xab8(%rbp)
   10b62:	48 8d 85 30 f8 ff ff 	lea    -0x7d0(%rbp),%rax
   10b69:	48 05 b0 05 00 00    	add    $0x5b0,%rax
   10b6f:	48 89 85 50 f5 ff ff 	mov    %rax,-0xab0(%rbp)
   10b76:	48 8d 85 30 f8 ff ff 	lea    -0x7d0(%rbp),%rax
   10b7d:	48 05 b0 05 00 00    	add    $0x5b0,%rax
   10b83:	48 89 85 58 f5 ff ff 	mov    %rax,-0xaa8(%rbp)
   10b8a:	48 8d 85 30 f8 ff ff 	lea    -0x7d0(%rbp),%rax
   10b91:	48 05 a0 02 00 00    	add    $0x2a0,%rax
   10b97:	48 89 85 60 f5 ff ff 	mov    %rax,-0xaa0(%rbp)
   10b9e:	48 8d 85 30 f8 ff ff 	lea    -0x7d0(%rbp),%rax
   10ba5:	48 05 b0 05 00 00    	add    $0x5b0,%rax
   10bab:	48 89 85 68 f5 ff ff 	mov    %rax,-0xa98(%rbp)
   10bb2:	48 8d 85 30 f8 ff ff 	lea    -0x7d0(%rbp),%rax
   10bb9:	48 05 b0 05 00 00    	add    $0x5b0,%rax
   10bbf:	48 89 85 70 f5 ff ff 	mov    %rax,-0xa90(%rbp)
   10bc6:	48 8d 85 30 f8 ff ff 	lea    -0x7d0(%rbp),%rax
   10bcd:	48 05 b0 05 00 00    	add    $0x5b0,%rax
   10bd3:	48 89 85 78 f5 ff ff 	mov    %rax,-0xa88(%rbp)
   10bda:	48 8d 85 30 f8 ff ff 	lea    -0x7d0(%rbp),%rax
   10be1:	48 05 b0 05 00 00    	add    $0x5b0,%rax
   10be7:	48 89 85 80 f5 ff ff 	mov    %rax,-0xa80(%rbp)
   10bee:	48 8d 85 30 f8 ff ff 	lea    -0x7d0(%rbp),%rax
   10bf5:	48 05 a0 02 00 00    	add    $0x2a0,%rax
   10bfb:	48 89 85 88 f5 ff ff 	mov    %rax,-0xa78(%rbp)
   10c02:	48 8d 85 30 f8 ff ff 	lea    -0x7d0(%rbp),%rax
   10c09:	48 05 b0 05 00 00    	add    $0x5b0,%rax
   10c0f:	48 89 85 90 f5 ff ff 	mov    %rax,-0xa70(%rbp)
   10c16:	48 8d 85 30 f8 ff ff 	lea    -0x7d0(%rbp),%rax
   10c1d:	48 05 b0 05 00 00    	add    $0x5b0,%rax
   10c23:	48 89 85 98 f5 ff ff 	mov    %rax,-0xa68(%rbp)
   10c2a:	48 8d 85 30 f8 ff ff 	lea    -0x7d0(%rbp),%rax
   10c31:	48 05 b0 05 00 00    	add    $0x5b0,%rax
   10c37:	48 89 85 a0 f5 ff ff 	mov    %rax,-0xa60(%rbp)
   10c3e:	48 8d 85 30 f8 ff ff 	lea    -0x7d0(%rbp),%rax
   10c45:	48 05 b0 05 00 00    	add    $0x5b0,%rax
   10c4b:	48 89 85 a8 f5 ff ff 	mov    %rax,-0xa58(%rbp)
   10c52:	48 8d 85 30 f8 ff ff 	lea    -0x7d0(%rbp),%rax
   10c59:	48 05 b0 05 00 00    	add    $0x5b0,%rax
   10c5f:	48 89 85 b0 f5 ff ff 	mov    %rax,-0xa50(%rbp)
   10c66:	48 8d 85 30 f8 ff ff 	lea    -0x7d0(%rbp),%rax
   10c6d:	48 05 b0 05 00 00    	add    $0x5b0,%rax
   10c73:	48 89 85 b8 f5 ff ff 	mov    %rax,-0xa48(%rbp)
   10c7a:	48 8d 85 30 f8 ff ff 	lea    -0x7d0(%rbp),%rax
   10c81:	48 05 a0 02 00 00    	add    $0x2a0,%rax
   10c87:	48 89 85 c0 f5 ff ff 	mov    %rax,-0xa40(%rbp)
   10c8e:	48 8d 85 30 f8 ff ff 	lea    -0x7d0(%rbp),%rax
   10c95:	48 05 b0 05 00 00    	add    $0x5b0,%rax
   10c9b:	48 89 85 c8 f5 ff ff 	mov    %rax,-0xa38(%rbp)
   10ca2:	48 8d 85 30 f8 ff ff 	lea    -0x7d0(%rbp),%rax
   10ca9:	48 05 b0 05 00 00    	add    $0x5b0,%rax
   10caf:	48 89 85 d0 f5 ff ff 	mov    %rax,-0xa30(%rbp)
   10cb6:	48 8d 85 30 f8 ff ff 	lea    -0x7d0(%rbp),%rax
   10cbd:	48 05 b0 05 00 00    	add    $0x5b0,%rax
   10cc3:	48 89 85 d8 f5 ff ff 	mov    %rax,-0xa28(%rbp)
   10cca:	48 8d 85 30 f8 ff ff 	lea    -0x7d0(%rbp),%rax
   10cd1:	48 05 b0 05 00 00    	add    $0x5b0,%rax
   10cd7:	48 89 85 e0 f5 ff ff 	mov    %rax,-0xa20(%rbp)
   10cde:	48 8d 85 30 f8 ff ff 	lea    -0x7d0(%rbp),%rax
   10ce5:	48 05 40 06 00 00    	add    $0x640,%rax
   10ceb:	48 89 85 e8 f5 ff ff 	mov    %rax,-0xa18(%rbp)
   10cf2:	48 8d 85 30 f8 ff ff 	lea    -0x7d0(%rbp),%rax
   10cf9:	48 05 b0 05 00 00    	add    $0x5b0,%rax
   10cff:	48 89 85 f0 f5 ff ff 	mov    %rax,-0xa10(%rbp)
   10d06:	48 8d 85 30 f8 ff ff 	lea    -0x7d0(%rbp),%rax
   10d0d:	48 05 b0 05 00 00    	add    $0x5b0,%rax
   10d13:	48 89 85 f8 f5 ff ff 	mov    %rax,-0xa08(%rbp)
   10d1a:	48 8d 85 30 f8 ff ff 	lea    -0x7d0(%rbp),%rax
   10d21:	48 05 b0 05 00 00    	add    $0x5b0,%rax
   10d27:	48 89 85 00 f6 ff ff 	mov    %rax,-0xa00(%rbp)
   10d2e:	48 8d 85 30 f8 ff ff 	lea    -0x7d0(%rbp),%rax
   10d35:	48 05 b0 05 00 00    	add    $0x5b0,%rax
   10d3b:	48 89 85 08 f6 ff ff 	mov    %rax,-0x9f8(%rbp)
   10d42:	48 8d 85 30 f8 ff ff 	lea    -0x7d0(%rbp),%rax
   10d49:	48 05 b0 05 00 00    	add    $0x5b0,%rax
   10d4f:	48 89 85 10 f6 ff ff 	mov    %rax,-0x9f0(%rbp)
   10d56:	48 8d 85 30 f8 ff ff 	lea    -0x7d0(%rbp),%rax
   10d5d:	48 05 b0 05 00 00    	add    $0x5b0,%rax
   10d63:	48 89 85 18 f6 ff ff 	mov    %rax,-0x9e8(%rbp)
   10d6a:	48 c7 85 20 f6 ff ff 	movq   $0x0,-0x9e0(%rbp)
   10d71:	00 00 00 00 
   10d75:	48 8d 85 30 f8 ff ff 	lea    -0x7d0(%rbp),%rax
   10d7c:	48 05 b0 05 00 00    	add    $0x5b0,%rax
   10d82:	48 89 85 28 f6 ff ff 	mov    %rax,-0x9d8(%rbp)
   10d89:	48 8d 85 30 f8 ff ff 	lea    -0x7d0(%rbp),%rax
   10d90:	48 05 b0 05 00 00    	add    $0x5b0,%rax
   10d96:	48 89 85 30 f6 ff ff 	mov    %rax,-0x9d0(%rbp)
   10d9d:	48 8d 85 30 f8 ff ff 	lea    -0x7d0(%rbp),%rax
   10da4:	48 05 18 07 00 00    	add    $0x718,%rax
   10daa:	48 89 85 38 f6 ff ff 	mov    %rax,-0x9c8(%rbp)
   10db1:	48 8d 85 30 f8 ff ff 	lea    -0x7d0(%rbp),%rax
   10db8:	48 05 a0 02 00 00    	add    $0x2a0,%rax
   10dbe:	48 89 85 40 f6 ff ff 	mov    %rax,-0x9c0(%rbp)
   10dc5:	48 c7 85 48 f6 ff ff 	movq   $0x0,-0x9b8(%rbp)
   10dcc:	00 00 00 00 
   10dd0:	48 8d 85 30 f8 ff ff 	lea    -0x7d0(%rbp),%rax
   10dd7:	48 05 18 07 00 00    	add    $0x718,%rax
   10ddd:	48 89 85 50 f6 ff ff 	mov    %rax,-0x9b0(%rbp)
   10de4:	48 8d 85 30 f8 ff ff 	lea    -0x7d0(%rbp),%rax
   10deb:	48 05 b0 05 00 00    	add    $0x5b0,%rax
   10df1:	48 89 85 58 f6 ff ff 	mov    %rax,-0x9a8(%rbp)
   10df8:	48 8d 85 30 f8 ff ff 	lea    -0x7d0(%rbp),%rax
   10dff:	48 05 18 07 00 00    	add    $0x718,%rax
   10e05:	48 89 85 60 f6 ff ff 	mov    %rax,-0x9a0(%rbp)
   10e0c:	48 c7 85 68 f6 ff ff 	movq   $0x0,-0x998(%rbp)
   10e13:	00 00 00 00 
   10e17:	48 8d 85 30 f8 ff ff 	lea    -0x7d0(%rbp),%rax
   10e1e:	48 05 a0 02 00 00    	add    $0x2a0,%rax
   10e24:	48 89 85 70 f6 ff ff 	mov    %rax,-0x990(%rbp)
   10e2b:	48 8d 85 30 f8 ff ff 	lea    -0x7d0(%rbp),%rax
   10e32:	48 05 b0 05 00 00    	add    $0x5b0,%rax
   10e38:	48 89 85 78 f6 ff ff 	mov    %rax,-0x988(%rbp)
   10e3f:	48 8d 85 30 f8 ff ff 	lea    -0x7d0(%rbp),%rax
   10e46:	48 05 b0 05 00 00    	add    $0x5b0,%rax
   10e4c:	48 89 85 80 f6 ff ff 	mov    %rax,-0x980(%rbp)
   10e53:	48 8d 85 30 f8 ff ff 	lea    -0x7d0(%rbp),%rax
   10e5a:	48 05 b0 05 00 00    	add    $0x5b0,%rax
   10e60:	48 89 85 88 f6 ff ff 	mov    %rax,-0x978(%rbp)
   10e67:	48 c7 85 90 f6 ff ff 	movq   $0x0,-0x970(%rbp)
   10e6e:	00 00 00 00 
   10e72:	48 8d 85 30 f8 ff ff 	lea    -0x7d0(%rbp),%rax
   10e79:	48 05 b0 05 00 00    	add    $0x5b0,%rax
   10e7f:	48 89 85 98 f6 ff ff 	mov    %rax,-0x968(%rbp)
   10e86:	48 8d 85 30 f8 ff ff 	lea    -0x7d0(%rbp),%rax
   10e8d:	48 05 b0 05 00 00    	add    $0x5b0,%rax
   10e93:	48 89 85 a0 f6 ff ff 	mov    %rax,-0x960(%rbp)
   10e9a:	48 8d 85 30 f8 ff ff 	lea    -0x7d0(%rbp),%rax
   10ea1:	48 05 b0 05 00 00    	add    $0x5b0,%rax
   10ea7:	48 89 85 a8 f6 ff ff 	mov    %rax,-0x958(%rbp)
   10eae:	48 8d 85 30 f8 ff ff 	lea    -0x7d0(%rbp),%rax
   10eb5:	48 05 b0 05 00 00    	add    $0x5b0,%rax
   10ebb:	48 89 85 b0 f6 ff ff 	mov    %rax,-0x950(%rbp)
   10ec2:	48 8d 85 30 f8 ff ff 	lea    -0x7d0(%rbp),%rax
   10ec9:	48 05 a0 02 00 00    	add    $0x2a0,%rax
   10ecf:	48 89 85 b8 f6 ff ff 	mov    %rax,-0x948(%rbp)
   10ed6:	48 8d 85 30 f8 ff ff 	lea    -0x7d0(%rbp),%rax
   10edd:	48 05 b0 05 00 00    	add    $0x5b0,%rax
   10ee3:	48 89 85 c0 f6 ff ff 	mov    %rax,-0x940(%rbp)
   10eea:	48 8d 85 30 f8 ff ff 	lea    -0x7d0(%rbp),%rax
   10ef1:	48 05 18 07 00 00    	add    $0x718,%rax
   10ef7:	48 89 85 c8 f6 ff ff 	mov    %rax,-0x938(%rbp)
   10efe:	48 8d 85 30 f8 ff ff 	lea    -0x7d0(%rbp),%rax
   10f05:	48 05 b0 05 00 00    	add    $0x5b0,%rax
   10f0b:	48 89 85 d0 f6 ff ff 	mov    %rax,-0x930(%rbp)
   10f12:	48 8d 85 30 f8 ff ff 	lea    -0x7d0(%rbp),%rax
   10f19:	48 05 b0 05 00 00    	add    $0x5b0,%rax
   10f1f:	48 89 85 d8 f6 ff ff 	mov    %rax,-0x928(%rbp)
   10f26:	48 8d 85 30 f8 ff ff 	lea    -0x7d0(%rbp),%rax
   10f2d:	48 05 b0 05 00 00    	add    $0x5b0,%rax
   10f33:	48 89 85 e0 f6 ff ff 	mov    %rax,-0x920(%rbp)
   10f3a:	48 8d 85 30 f8 ff ff 	lea    -0x7d0(%rbp),%rax
   10f41:	48 05 b0 05 00 00    	add    $0x5b0,%rax
   10f47:	48 89 85 e8 f6 ff ff 	mov    %rax,-0x918(%rbp)
   10f4e:	48 8d 85 30 f8 ff ff 	lea    -0x7d0(%rbp),%rax
   10f55:	48 05 18 07 00 00    	add    $0x718,%rax
   10f5b:	48 89 85 f0 f6 ff ff 	mov    %rax,-0x910(%rbp)
   10f62:	48 8d 85 30 f8 ff ff 	lea    -0x7d0(%rbp),%rax
   10f69:	48 05 b0 05 00 00    	add    $0x5b0,%rax
   10f6f:	48 89 85 f8 f6 ff ff 	mov    %rax,-0x908(%rbp)
   10f76:	48 8d 85 30 f8 ff ff 	lea    -0x7d0(%rbp),%rax
   10f7d:	48 05 b0 05 00 00    	add    $0x5b0,%rax
   10f83:	48 89 85 00 f7 ff ff 	mov    %rax,-0x900(%rbp)
   10f8a:	48 8d 85 30 f8 ff ff 	lea    -0x7d0(%rbp),%rax
   10f91:	48 05 b0 05 00 00    	add    $0x5b0,%rax
   10f97:	48 89 85 08 f7 ff ff 	mov    %rax,-0x8f8(%rbp)
   10f9e:	48 8d 85 30 f8 ff ff 	lea    -0x7d0(%rbp),%rax
   10fa5:	48 05 b0 05 00 00    	add    $0x5b0,%rax
   10fab:	48 89 85 10 f7 ff ff 	mov    %rax,-0x8f0(%rbp)
   10fb2:	48 8d 85 30 f8 ff ff 	lea    -0x7d0(%rbp),%rax
   10fb9:	48 05 b0 05 00 00    	add    $0x5b0,%rax
   10fbf:	48 89 85 18 f7 ff ff 	mov    %rax,-0x8e8(%rbp)
   10fc6:	48 8d 85 30 f8 ff ff 	lea    -0x7d0(%rbp),%rax
   10fcd:	48 05 b0 05 00 00    	add    $0x5b0,%rax
   10fd3:	48 89 85 20 f7 ff ff 	mov    %rax,-0x8e0(%rbp)
   10fda:	48 8d 85 30 f8 ff ff 	lea    -0x7d0(%rbp),%rax
   10fe1:	48 05 18 07 00 00    	add    $0x718,%rax
   10fe7:	48 89 85 28 f7 ff ff 	mov    %rax,-0x8d8(%rbp)
   10fee:	48 8d 85 30 f8 ff ff 	lea    -0x7d0(%rbp),%rax
   10ff5:	48 05 b0 05 00 00    	add    $0x5b0,%rax
   10ffb:	48 89 85 30 f7 ff ff 	mov    %rax,-0x8d0(%rbp)
   11002:	48 8d 85 30 f8 ff ff 	lea    -0x7d0(%rbp),%rax
   11009:	48 05 b0 05 00 00    	add    $0x5b0,%rax
   1100f:	48 89 85 38 f7 ff ff 	mov    %rax,-0x8c8(%rbp)
   11016:	48 8d 85 30 f8 ff ff 	lea    -0x7d0(%rbp),%rax
   1101d:	48 05 b0 05 00 00    	add    $0x5b0,%rax
   11023:	48 89 85 40 f7 ff ff 	mov    %rax,-0x8c0(%rbp)
   1102a:	48 8d 85 30 f8 ff ff 	lea    -0x7d0(%rbp),%rax
   11031:	48 05 b0 05 00 00    	add    $0x5b0,%rax
   11037:	48 89 85 48 f7 ff ff 	mov    %rax,-0x8b8(%rbp)
   1103e:	48 8d 85 30 f8 ff ff 	lea    -0x7d0(%rbp),%rax
   11045:	48 05 b0 05 00 00    	add    $0x5b0,%rax
   1104b:	48 89 85 50 f7 ff ff 	mov    %rax,-0x8b0(%rbp)
   11052:	48 8d 85 30 f8 ff ff 	lea    -0x7d0(%rbp),%rax
   11059:	48 05 b0 05 00 00    	add    $0x5b0,%rax
   1105f:	48 89 85 58 f7 ff ff 	mov    %rax,-0x8a8(%rbp)
   11066:	48 8d 85 30 f8 ff ff 	lea    -0x7d0(%rbp),%rax
   1106d:	48 05 a0 02 00 00    	add    $0x2a0,%rax
   11073:	48 89 85 60 f7 ff ff 	mov    %rax,-0x8a0(%rbp)
   1107a:	48 8d 85 30 f8 ff ff 	lea    -0x7d0(%rbp),%rax
   11081:	48 05 b0 05 00 00    	add    $0x5b0,%rax
   11087:	48 89 85 68 f7 ff ff 	mov    %rax,-0x898(%rbp)
   1108e:	48 8d 85 30 f8 ff ff 	lea    -0x7d0(%rbp),%rax
   11095:	48 05 b0 05 00 00    	add    $0x5b0,%rax
   1109b:	48 89 85 70 f7 ff ff 	mov    %rax,-0x890(%rbp)
   110a2:	48 8d 85 30 f8 ff ff 	lea    -0x7d0(%rbp),%rax
   110a9:	48 05 b0 05 00 00    	add    $0x5b0,%rax
   110af:	48 89 85 78 f7 ff ff 	mov    %rax,-0x888(%rbp)
   110b6:	48 8d 85 30 f8 ff ff 	lea    -0x7d0(%rbp),%rax
   110bd:	48 05 b0 05 00 00    	add    $0x5b0,%rax
   110c3:	48 89 85 80 f7 ff ff 	mov    %rax,-0x880(%rbp)
   110ca:	48 c7 85 88 f7 ff ff 	movq   $0x0,-0x878(%rbp)
   110d1:	00 00 00 00 
   110d5:	48 8d 85 30 f8 ff ff 	lea    -0x7d0(%rbp),%rax
   110dc:	48 05 b0 05 00 00    	add    $0x5b0,%rax
   110e2:	48 89 85 90 f7 ff ff 	mov    %rax,-0x870(%rbp)
   110e9:	48 8d 85 30 f8 ff ff 	lea    -0x7d0(%rbp),%rax
   110f0:	48 05 b0 05 00 00    	add    $0x5b0,%rax
   110f6:	48 89 85 98 f7 ff ff 	mov    %rax,-0x868(%rbp)
   110fd:	48 8d 85 30 f8 ff ff 	lea    -0x7d0(%rbp),%rax
   11104:	48 05 18 07 00 00    	add    $0x718,%rax
   1110a:	48 89 85 a0 f7 ff ff 	mov    %rax,-0x860(%rbp)
   11111:	48 8d 85 30 f8 ff ff 	lea    -0x7d0(%rbp),%rax
   11118:	48 05 a0 02 00 00    	add    $0x2a0,%rax
   1111e:	48 89 85 a8 f7 ff ff 	mov    %rax,-0x858(%rbp)
   11125:	48 c7 85 b0 f7 ff ff 	movq   $0x0,-0x850(%rbp)
   1112c:	00 00 00 00 
   11130:	48 8d 85 30 f8 ff ff 	lea    -0x7d0(%rbp),%rax
   11137:	48 05 18 07 00 00    	add    $0x718,%rax
   1113d:	48 89 85 b8 f7 ff ff 	mov    %rax,-0x848(%rbp)
   11144:	48 8d 85 30 f8 ff ff 	lea    -0x7d0(%rbp),%rax
   1114b:	48 05 b0 05 00 00    	add    $0x5b0,%rax
   11151:	48 89 85 c0 f7 ff ff 	mov    %rax,-0x840(%rbp)
   11158:	48 8d 85 30 f8 ff ff 	lea    -0x7d0(%rbp),%rax
   1115f:	48 05 18 07 00 00    	add    $0x718,%rax
   11165:	48 89 85 c8 f7 ff ff 	mov    %rax,-0x838(%rbp)
   1116c:	48 c7 85 d0 f7 ff ff 	movq   $0x0,-0x830(%rbp)
   11173:	00 00 00 00 
   11177:	48 8d 85 30 f8 ff ff 	lea    -0x7d0(%rbp),%rax
   1117e:	48 05 a0 02 00 00    	add    $0x2a0,%rax
   11184:	48 89 85 d8 f7 ff ff 	mov    %rax,-0x828(%rbp)
   1118b:	48 8d 85 30 f8 ff ff 	lea    -0x7d0(%rbp),%rax
   11192:	48 05 b0 05 00 00    	add    $0x5b0,%rax
   11198:	48 89 85 e0 f7 ff ff 	mov    %rax,-0x820(%rbp)
   1119f:	48 8d 85 30 f8 ff ff 	lea    -0x7d0(%rbp),%rax
   111a6:	48 05 b0 05 00 00    	add    $0x5b0,%rax
   111ac:	48 89 85 e8 f7 ff ff 	mov    %rax,-0x818(%rbp)
   111b3:	48 8d 85 30 f8 ff ff 	lea    -0x7d0(%rbp),%rax
   111ba:	48 05 b0 05 00 00    	add    $0x5b0,%rax
   111c0:	48 89 85 f0 f7 ff ff 	mov    %rax,-0x810(%rbp)
   111c7:	48 c7 85 f8 f7 ff ff 	movq   $0x0,-0x808(%rbp)
   111ce:	00 00 00 00 
   111d2:	48 8d 85 30 f8 ff ff 	lea    -0x7d0(%rbp),%rax
   111d9:	48 05 b0 05 00 00    	add    $0x5b0,%rax
   111df:	48 89 85 00 f8 ff ff 	mov    %rax,-0x800(%rbp)
   111e6:	48 8d 85 30 f8 ff ff 	lea    -0x7d0(%rbp),%rax
   111ed:	48 05 b0 05 00 00    	add    $0x5b0,%rax
   111f3:	48 89 85 08 f8 ff ff 	mov    %rax,-0x7f8(%rbp)
   111fa:	48 8d 85 30 f8 ff ff 	lea    -0x7d0(%rbp),%rax
   11201:	48 05 b0 05 00 00    	add    $0x5b0,%rax
   11207:	48 89 85 10 f8 ff ff 	mov    %rax,-0x7f0(%rbp)
   1120e:	48 8d 85 30 f8 ff ff 	lea    -0x7d0(%rbp),%rax
   11215:	48 05 b0 05 00 00    	add    $0x5b0,%rax
   1121b:	48 89 85 18 f8 ff ff 	mov    %rax,-0x7e8(%rbp)
   11222:	48 8d 85 30 f8 ff ff 	lea    -0x7d0(%rbp),%rax
   11229:	48 05 a0 02 00 00    	add    $0x2a0,%rax
   1122f:	48 89 85 20 f8 ff ff 	mov    %rax,-0x7e0(%rbp)
   11236:	48 c7 85 30 f0 ff ff 	movq   $0x0,-0xfd0(%rbp)
   1123d:	00 00 00 00 
   11241:	48 c7 85 38 f0 ff ff 	movq   $0x0,-0xfc8(%rbp)
   11248:	00 00 00 00 
   1124c:	48 c7 85 40 f0 ff ff 	movq   $0x0,-0xfc0(%rbp)
   11253:	00 00 00 00 
   11257:	48 c7 85 48 f0 ff ff 	movq   $0x0,-0xfb8(%rbp)
   1125e:	00 00 00 00 
   11262:	c7 85 50 f0 ff ff 00 	movl   $0x0,-0xfb0(%rbp)
   11269:	00 00 00 
   1126c:	66 c7 05 23 3e 01 00 	movw   $0x2,0x13e23(%rip)        # 25098 <g_196>
   11273:	02 00 
   11275:	e9 93 00 00 00       	jmpq   1130d <func_10+0x1634>
   1127a:	48 8d 05 f7 3d 01 00 	lea    0x13df7(%rip),%rax        # 25078 <g_64>
   11281:	48 89 85 e8 ef ff ff 	mov    %rax,-0x1018(%rbp)
   11288:	48 8b 05 f9 76 01 00 	mov    0x176f9(%rip),%rax        # 28988 <g_893>
   1128f:	48 8b 00             	mov    (%rax),%rax
   11292:	48 8b 95 e8 ef ff ff 	mov    -0x1018(%rbp),%rdx
   11299:	48 89 10             	mov    %rdx,(%rax)
   1129c:	48 83 bd 70 ef ff ff 	cmpq   $0x0,-0x1090(%rbp)
   112a3:	00 
   112a4:	75 52                	jne    112f8 <func_10+0x161f>
   112a6:	c7 05 d4 46 01 00 01 	movl   $0x1,0x146d4(%rip)        # 25984 <g_2205>
   112ad:	00 00 00 
   112b0:	eb 3a                	jmp    112ec <func_10+0x1613>
   112b2:	0f b7 85 f4 ef ff ff 	movzwl -0x100c(%rbp),%eax
   112b9:	83 c0 01             	add    $0x1,%eax
   112bc:	66 89 85 f4 ef ff ff 	mov    %ax,-0x100c(%rbp)
   112c3:	48 83 bd 70 ef ff ff 	cmpq   $0x0,-0x1090(%rbp)
   112ca:	00 
   112cb:	75 0f                	jne    112dc <func_10+0x1603>
   112cd:	48 8b 85 10 ef ff ff 	mov    -0x10f0(%rbp),%rax
   112d4:	8b 00                	mov    (%rax),%eax
   112d6:	85 c0                	test   %eax,%eax
   112d8:	75 21                	jne    112fb <func_10+0x1622>
   112da:	eb 01                	jmp    112dd <func_10+0x1604>
   112dc:	90                   	nop
   112dd:	8b 05 a1 46 01 00    	mov    0x146a1(%rip),%eax        # 25984 <g_2205>
   112e3:	83 e8 01             	sub    $0x1,%eax
   112e6:	89 05 98 46 01 00    	mov    %eax,0x14698(%rip)        # 25984 <g_2205>
   112ec:	8b 05 92 46 01 00    	mov    0x14692(%rip),%eax        # 25984 <g_2205>
   112f2:	85 c0                	test   %eax,%eax
   112f4:	79 bc                	jns    112b2 <func_10+0x15d9>
   112f6:	eb 04                	jmp    112fc <func_10+0x1623>
   112f8:	90                   	nop
   112f9:	eb 01                	jmp    112fc <func_10+0x1623>
   112fb:	90                   	nop
   112fc:	0f b7 05 95 3d 01 00 	movzwl 0x13d95(%rip),%eax        # 25098 <g_196>
   11303:	83 c0 01             	add    $0x1,%eax
   11306:	66 89 05 8b 3d 01 00 	mov    %ax,0x13d8b(%rip)        # 25098 <g_196>
   1130d:	0f b7 05 84 3d 01 00 	movzwl 0x13d84(%rip),%eax        # 25098 <g_196>
   11314:	66 83 f8 07          	cmp    $0x7,%ax
   11318:	0f 8e 5c ff ff ff    	jle    1127a <func_10+0x15a1>
   1131e:	48 8b 95 58 ef ff ff 	mov    -0x10a8(%rbp),%rdx
   11325:	48 8b 85 a0 ef ff ff 	mov    -0x1060(%rbp),%rax
   1132c:	48 89 10             	mov    %rdx,(%rax)
   1132f:	48 8b 85 a0 ef ff ff 	mov    -0x1060(%rbp),%rax
   11336:	48 8b 10             	mov    (%rax),%rdx
   11339:	48 c7 85 78 ef ff ff 	movq   $0x0,-0x1088(%rbp)
   11340:	00 00 00 00 
   11344:	48 8b 85 78 ef ff ff 	mov    -0x1088(%rbp),%rax
   1134b:	48 89 05 5e 95 01 00 	mov    %rax,0x1955e(%rip)        # 2a8b0 <g_2961>
   11352:	48 8b 05 57 95 01 00 	mov    0x19557(%rip),%rax        # 2a8b0 <g_2961>
   11359:	48 39 c2             	cmp    %rax,%rdx
   1135c:	0f 95 c0             	setne  %al
   1135f:	0f b6 d0             	movzbl %al,%edx
   11362:	48 8b 85 10 ef ff ff 	mov    -0x10f0(%rbp),%rax
   11369:	8b 00                	mov    (%rax),%eax
   1136b:	21 c2                	and    %eax,%edx
   1136d:	48 8b 85 10 ef ff ff 	mov    -0x10f0(%rbp),%rax
   11374:	89 10                	mov    %edx,(%rax)
   11376:	48 8b 85 10 ef ff ff 	mov    -0x10f0(%rbp),%rax
   1137d:	8b 00                	mov    (%rax),%eax
   1137f:	89 85 28 ef ff ff    	mov    %eax,-0x10d8(%rbp)
   11385:	66 c7 05 0a 3d 01 00 	movw   $0x0,0x13d0a(%rip)        # 25098 <g_196>
   1138c:	00 00 
   1138e:	e9 fa 06 00 00       	jmpq   11a8d <func_10+0x1db4>
   11393:	48 c7 85 a8 ef ff ff 	movq   $0x0,-0x1058(%rbp)
   1139a:	00 00 00 00 
   1139e:	48 b8 35 e3 6a 57 5b 	movabs $0xed6d125b576ae335,%rax
   113a5:	12 6d ed 
   113a8:	48 89 85 b0 ef ff ff 	mov    %rax,-0x1050(%rbp)
   113af:	48 8d 05 7a 9a 01 00 	lea    0x19a7a(%rip),%rax        # 2ae30 <g_1856>
   113b6:	48 89 85 b8 ef ff ff 	mov    %rax,-0x1048(%rbp)
   113bd:	48 8d 05 28 3d 01 00 	lea    0x13d28(%rip),%rax        # 250ec <g_362>
   113c4:	48 89 85 60 ef ff ff 	mov    %rax,-0x10a0(%rbp)
   113cb:	48 8d 85 60 ef ff ff 	lea    -0x10a0(%rbp),%rax
   113d2:	48 89 85 c0 ef ff ff 	mov    %rax,-0x1040(%rbp)
   113d9:	c7 85 44 ef ff ff 00 	movl   $0x0,-0x10bc(%rbp)
   113e0:	00 00 00 
   113e3:	48 c7 85 c8 ef ff ff 	movq   $0x0,-0x1038(%rbp)
   113ea:	00 00 00 00 
   113ee:	48 8d 05 0b 3d 01 00 	lea    0x13d0b(%rip),%rax        # 25100 <g_709>
   113f5:	48 89 85 d0 ef ff ff 	mov    %rax,-0x1030(%rbp)
   113fc:	48 8d 85 30 f0 ff ff 	lea    -0xfd0(%rbp),%rax
   11403:	48 83 c0 14          	add    $0x14,%rax
   11407:	48 89 85 d8 ef ff ff 	mov    %rax,-0x1028(%rbp)
   1140e:	48 c7 05 6f 3c 01 00 	movq   $0x3,0x13c6f(%rip)        # 25088 <g_151>
   11415:	03 00 00 00 
   11419:	e9 bc 01 00 00       	jmpq   115da <func_10+0x1901>
   1141e:	c7 85 34 ef ff ff 00 	movl   $0x0,-0x10cc(%rbp)
   11425:	00 00 00 
   11428:	eb 1e                	jmp    11448 <func_10+0x176f>
   1142a:	8b 85 34 ef ff ff    	mov    -0x10cc(%rbp),%eax
   11430:	48 98                	cltq   
   11432:	48 8d 15 3b 45 01 00 	lea    0x1453b(%rip),%rdx        # 25974 <g_1997>
   11439:	48 89 94 c5 10 f0 ff 	mov    %rdx,-0xff0(%rbp,%rax,8)
   11440:	ff 
   11441:	83 85 34 ef ff ff 01 	addl   $0x1,-0x10cc(%rbp)
   11448:	83 bd 34 ef ff ff 02 	cmpl   $0x2,-0x10cc(%rbp)
   1144f:	7e d9                	jle    1142a <func_10+0x1751>
   11451:	48 8b 85 10 ef ff ff 	mov    -0x10f0(%rbp),%rax
   11458:	48 89 85 68 ef ff ff 	mov    %rax,-0x1098(%rbp)
   1145f:	48 8b 85 68 ef ff ff 	mov    -0x1098(%rbp),%rax
   11466:	8b 00                	mov    (%rax),%eax
   11468:	39 85 1c ef ff ff    	cmp    %eax,-0x10e4(%rbp)
   1146e:	0f 93 c0             	setae  %al
   11471:	0f b6 d0             	movzbl %al,%edx
   11474:	48 8b 85 68 ef ff ff 	mov    -0x1098(%rbp),%rax
   1147b:	89 10                	mov    %edx,(%rax)
   1147d:	48 8b 85 68 ef ff ff 	mov    -0x1098(%rbp),%rax
   11484:	8b 00                	mov    (%rax),%eax
   11486:	89 85 38 ef ff ff    	mov    %eax,-0x10c8(%rbp)
   1148c:	8b 9d 38 ef ff ff    	mov    -0x10c8(%rbp),%ebx
   11492:	8b 85 1c ef ff ff    	mov    -0x10e4(%rbp),%eax
   11498:	0f bf d0             	movswl %ax,%edx
   1149b:	0f b7 85 74 f0 ff ff 	movzwl -0xf8c(%rbp),%eax
   114a2:	98                   	cwtl   
   114a3:	89 d6                	mov    %edx,%esi
   114a5:	89 c7                	mov    %eax,%edi
   114a7:	e8 07 9f ff ff       	callq  b3b3 <safe_add_func_int16_t_s_s>
   114ac:	0f bf d0             	movswl %ax,%edx
   114af:	48 8b 05 92 93 01 00 	mov    0x19392(%rip),%rax        # 2a848 <g_2388>
   114b6:	48 8b 00             	mov    (%rax),%rax
   114b9:	48 39 85 a8 ef ff ff 	cmp    %rax,-0x1058(%rbp)
   114c0:	0f 94 c0             	sete   %al
   114c3:	0f b6 c0             	movzbl %al,%eax
   114c6:	f7 d0                	not    %eax
   114c8:	89 c1                	mov    %eax,%ecx
   114ca:	09 9d 28 ef ff ff    	or     %ebx,-0x10d8(%rbp)
   114d0:	0f b7 85 fc ef ff ff 	movzwl -0x1004(%rbp),%eax
   114d7:	0f b7 c0             	movzwl %ax,%eax
   114da:	39 85 28 ef ff ff    	cmp    %eax,-0x10d8(%rbp)
   114e0:	0f 95 c0             	setne  %al
   114e3:	0f b6 c0             	movzbl %al,%eax
   114e6:	39 c1                	cmp    %eax,%ecx
   114e8:	0f 94 c0             	sete   %al
   114eb:	0f b6 c0             	movzbl %al,%eax
   114ee:	39 c2                	cmp    %eax,%edx
   114f0:	0f 9c c0             	setl   %al
   114f3:	0f b6 c0             	movzbl %al,%eax
   114f6:	89 85 08 f0 ff ff    	mov    %eax,-0xff8(%rbp)
   114fc:	8b 85 08 f0 ff ff    	mov    -0xff8(%rbp),%eax
   11502:	85 c0                	test   %eax,%eax
   11504:	75 0b                	jne    11511 <func_10+0x1838>
   11506:	48 8b 85 10 ef ff ff 	mov    -0x10f0(%rbp),%rax
   1150d:	8b 00                	mov    (%rax),%eax
   1150f:	85 c0                	test   %eax,%eax
   11511:	0f b7 05 80 3b 01 00 	movzwl 0x13b80(%rip),%eax        # 25098 <g_196>
   11518:	98                   	cwtl   
   11519:	8d 48 06             	lea    0x6(%rax),%ecx
   1151c:	48 8b 05 65 3b 01 00 	mov    0x13b65(%rip),%rax        # 25088 <g_151>
   11523:	48 8d 50 03          	lea    0x3(%rax),%rdx
   11527:	48 63 c1             	movslq %ecx,%rax
   1152a:	48 c1 e0 03          	shl    $0x3,%rax
   1152e:	48 01 c2             	add    %rax,%rdx
   11531:	48 8d 05 e8 3b 01 00 	lea    0x13be8(%rip),%rax        # 25120 <g_929>
   11538:	48 01 d0             	add    %rdx,%rax
   1153b:	0f b6 00             	movzbl (%rax),%eax
   1153e:	89 c2                	mov    %eax,%edx
   11540:	48 83 bd 80 ef ff ff 	cmpq   $0x0,-0x1080(%rbp)
   11547:	00 
   11548:	0f 95 c0             	setne  %al
   1154b:	89 d1                	mov    %edx,%ecx
   1154d:	31 c1                	xor    %eax,%ecx
   1154f:	0f b7 05 42 3b 01 00 	movzwl 0x13b42(%rip),%eax        # 25098 <g_196>
   11556:	98                   	cwtl   
   11557:	8d 50 06             	lea    0x6(%rax),%edx
   1155a:	48 8b 05 27 3b 01 00 	mov    0x13b27(%rip),%rax        # 25088 <g_151>
   11561:	48 83 c0 03          	add    $0x3,%rax
   11565:	89 cf                	mov    %ecx,%edi
   11567:	48 63 ca             	movslq %edx,%rcx
   1156a:	48 c1 e1 03          	shl    $0x3,%rcx
   1156e:	48 8d 34 01          	lea    (%rcx,%rax,1),%rsi
   11572:	48 8d 0d a7 3b 01 00 	lea    0x13ba7(%rip),%rcx        # 25120 <g_929>
   11579:	48 01 f1             	add    %rsi,%rcx
   1157c:	40 88 39             	mov    %dil,(%rcx)
   1157f:	48 63 d2             	movslq %edx,%rdx
   11582:	48 c1 e2 03          	shl    $0x3,%rdx
   11586:	48 01 c2             	add    %rax,%rdx
   11589:	48 8d 05 90 3b 01 00 	lea    0x13b90(%rip),%rax        # 25120 <g_929>
   11590:	48 01 d0             	add    %rdx,%rax
   11593:	0f b6 00             	movzbl (%rax),%eax
   11596:	0f b6 c0             	movzbl %al,%eax
   11599:	48 39 85 b0 ef ff ff 	cmp    %rax,-0x1050(%rbp)
   115a0:	0f 9f c0             	setg   %al
   115a3:	0f b6 c0             	movzbl %al,%eax
   115a6:	89 c6                	mov    %eax,%esi
   115a8:	bf 74 00 00 00       	mov    $0x74,%edi
   115ad:	e8 e1 a5 ff ff       	callq  bb93 <safe_mul_func_uint8_t_u_u>
   115b2:	0f b6 c0             	movzbl %al,%eax
   115b5:	89 85 2c ef ff ff    	mov    %eax,-0x10d4(%rbp)
   115bb:	48 8b 85 10 ef ff ff 	mov    -0x10f0(%rbp),%rax
   115c2:	8b 00                	mov    (%rax),%eax
   115c4:	85 c0                	test   %eax,%eax
   115c6:	75 24                	jne    115ec <func_10+0x1913>
   115c8:	48 8b 05 b9 3a 01 00 	mov    0x13ab9(%rip),%rax        # 25088 <g_151>
   115cf:	48 83 e8 01          	sub    $0x1,%rax
   115d3:	48 89 05 ae 3a 01 00 	mov    %rax,0x13aae(%rip)        # 25088 <g_151>
   115da:	48 8b 05 a7 3a 01 00 	mov    0x13aa7(%rip),%rax        # 25088 <g_151>
   115e1:	48 85 c0             	test   %rax,%rax
   115e4:	0f 89 34 fe ff ff    	jns    1141e <func_10+0x1745>
   115ea:	eb 01                	jmp    115ed <func_10+0x1914>
   115ec:	90                   	nop
   115ed:	66 0f be 85 22 ef ff 	movsbw -0x10de(%rbp),%ax
   115f4:	ff 
   115f5:	0f b7 d8             	movzwl %ax,%ebx
   115f8:	48 8b 85 48 ef ff ff 	mov    -0x10b8(%rbp),%rax
   115ff:	0f b6 10             	movzbl (%rax),%edx
   11602:	83 ea 01             	sub    $0x1,%edx
   11605:	88 10                	mov    %dl,(%rax)
   11607:	0f b6 00             	movzbl (%rax),%eax
   1160a:	44 0f b6 e8          	movzbl %al,%r13d
   1160e:	48 8b 85 c0 ef ff ff 	mov    -0x1040(%rbp),%rax
   11615:	48 8d 15 d0 3a 01 00 	lea    0x13ad0(%rip),%rdx        # 250ec <g_362>
   1161c:	48 89 10             	mov    %rdx,(%rax)
   1161f:	48 8b 85 c0 ef ff ff 	mov    -0x1040(%rbp),%rax
   11626:	48 8b 10             	mov    (%rax),%rdx
   11629:	48 8d 05 bc 3a 01 00 	lea    0x13abc(%rip),%rax        # 250ec <g_362>
   11630:	48 89 05 81 92 01 00 	mov    %rax,0x19281(%rip)        # 2a8b8 <g_2990>
   11637:	48 8b 05 7a 92 01 00 	mov    0x1927a(%rip),%rax        # 2a8b8 <g_2990>
   1163e:	48 39 c2             	cmp    %rax,%rdx
   11641:	48 83 bd 90 ef ff ff 	cmpq   $0x0,-0x1070(%rbp)
   11648:	00 
   11649:	0f 94 c0             	sete   %al
   1164c:	0f b6 c8             	movzbl %al,%ecx
   1164f:	48 8b 85 b8 ef ff ff 	mov    -0x1048(%rbp),%rax
   11656:	48 8d 95 58 ef ff ff 	lea    -0x10a8(%rbp),%rdx
   1165d:	48 89 10             	mov    %rdx,(%rax)
   11660:	48 8b 85 b8 ef ff ff 	mov    -0x1048(%rbp),%rax
   11667:	48 8b 30             	mov    (%rax),%rsi
   1166a:	8b 05 7c 3a 01 00    	mov    0x13a7c(%rip),%eax        # 250ec <g_362>
   11670:	8d 50 03             	lea    0x3(%rax),%edx
   11673:	8b 05 73 3a 01 00    	mov    0x13a73(%rip),%eax        # 250ec <g_362>
   11679:	8d 78 01             	lea    0x1(%rax),%edi
   1167c:	8b 05 6a 3a 01 00    	mov    0x13a6a(%rip),%eax        # 250ec <g_362>
   11682:	41 89 c0             	mov    %eax,%r8d
   11685:	89 d2                	mov    %edx,%edx
   11687:	48 89 d0             	mov    %rdx,%rax
   1168a:	48 c1 e0 03          	shl    $0x3,%rax
   1168e:	48 01 d0             	add    %rdx,%rax
   11691:	48 c1 e0 02          	shl    $0x2,%rax
   11695:	48 29 d0             	sub    %rdx,%rax
   11698:	89 ff                	mov    %edi,%edi
   1169a:	48 89 fa             	mov    %rdi,%rdx
   1169d:	48 c1 e2 02          	shl    $0x2,%rdx
   116a1:	48 01 fa             	add    %rdi,%rdx
   116a4:	48 01 d0             	add    %rdx,%rax
   116a7:	4c 01 c0             	add    %r8,%rax
   116aa:	48 8d 14 c5 00 00 00 	lea    0x0(,%rax,8),%rdx
   116b1:	00 
   116b2:	48 8d 05 c7 77 01 00 	lea    0x177c7(%rip),%rax        # 28e80 <g_1261>
   116b9:	48 01 d0             	add    %rdx,%rax
   116bc:	48 39 c6             	cmp    %rax,%rsi
   116bf:	0f 94 c0             	sete   %al
   116c2:	0f b6 c0             	movzbl %al,%eax
   116c5:	39 c1                	cmp    %eax,%ecx
   116c7:	0f 9d c0             	setge  %al
   116ca:	44 0f b6 f0          	movzbl %al,%r14d
   116ce:	66 0f be 85 22 ef ff 	movsbw -0x10de(%rbp),%ax
   116d5:	ff 
   116d6:	44 0f b7 e0          	movzwl %ax,%r12d
   116da:	8b 85 48 f0 ff ff    	mov    -0xfb8(%rbp),%eax
   116e0:	0f bf d0             	movswl %ax,%edx
   116e3:	0f be 85 22 ef ff ff 	movsbl -0x10de(%rbp),%eax
   116ea:	89 d6                	mov    %edx,%esi
   116ec:	89 c7                	mov    %eax,%edi
   116ee:	e8 62 9d ff ff       	callq  b455 <safe_div_func_int16_t_s_s>
   116f3:	98                   	cwtl   
   116f4:	39 85 2c ef ff ff    	cmp    %eax,-0x10d4(%rbp)
   116fa:	0f 9f c0             	setg   %al
   116fd:	0f b6 c0             	movzbl %al,%eax
   11700:	33 85 1c ef ff ff    	xor    -0x10e4(%rbp),%eax
   11706:	89 c0                	mov    %eax,%eax
   11708:	48 be 22 bd 9a 24 86 	movabs $0xd73c2886249abd22,%rsi
   1170f:	28 3c d7 
   11712:	48 89 c7             	mov    %rax,%rdi
   11715:	e8 9a a2 ff ff       	callq  b9b4 <safe_mod_func_int64_t_s_s>
   1171a:	89 85 2c ef ff ff    	mov    %eax,-0x10d4(%rbp)
   11720:	44 89 e6             	mov    %r12d,%esi
   11723:	bf a7 33 00 00       	mov    $0x33a7,%edi
   11728:	e8 f2 a5 ff ff       	callq  bd1f <safe_sub_func_uint16_t_u_u>
   1172d:	0f b7 c0             	movzwl %ax,%eax
   11730:	41 39 c6             	cmp    %eax,%r14d
   11733:	0f 9d c0             	setge  %al
   11736:	0f b6 c0             	movzbl %al,%eax
   11739:	be 07 00 00 00       	mov    $0x7,%esi
   1173e:	89 c7                	mov    %eax,%edi
   11740:	e8 48 a5 ff ff       	callq  bc8d <safe_rshift_func_uint8_t_u_s>
   11745:	0f b6 c0             	movzbl %al,%eax
   11748:	be ff ff 00 00       	mov    $0xffff,%esi
   1174d:	89 c7                	mov    %eax,%edi
   1174f:	e8 08 a6 ff ff       	callq  bd5c <safe_mod_func_uint16_t_u_u>
   11754:	66 41 39 c5          	cmp    %ax,%r13w
   11758:	0f 94 c0             	sete   %al
   1175b:	0f b6 d0             	movzbl %al,%edx
   1175e:	0f b7 85 24 ef ff ff 	movzwl -0x10dc(%rbp),%eax
   11765:	39 c2                	cmp    %eax,%edx
   11767:	0f 9f c0             	setg   %al
   1176a:	0f b6 c0             	movzbl %al,%eax
   1176d:	89 de                	mov    %ebx,%esi
   1176f:	89 c7                	mov    %eax,%edi
   11771:	e8 a9 a5 ff ff       	callq  bd1f <safe_sub_func_uint16_t_u_u>
   11776:	66 85 c0             	test   %ax,%ax
   11779:	74 0b                	je     11786 <func_10+0x1aad>
   1177b:	8b 85 28 ef ff ff    	mov    -0x10d8(%rbp),%eax
   11781:	e9 50 03 00 00       	jmpq   11ad6 <func_10+0x1dfd>
   11786:	c6 85 23 ef ff ff 01 	movb   $0x1,-0x10dd(%rbp)
   1178d:	66 c7 85 26 ef ff ff 	movw   $0x0,-0x10da(%rbp)
   11794:	00 00 
   11796:	48 8d 05 db 38 01 00 	lea    0x138db(%rip),%rax        # 25078 <g_64>
   1179d:	48 89 85 e0 ef ff ff 	mov    %rax,-0x1020(%rbp)
   117a4:	8b 85 1c ef ff ff    	mov    -0x10e4(%rbp),%eax
   117aa:	0f bf d8             	movswl %ax,%ebx
   117ad:	44 0f bf a5 26 ef ff 	movswl -0x10da(%rbp),%r12d
   117b4:	ff 
   117b5:	0f b7 85 74 f0 ff ff 	movzwl -0xf8c(%rbp),%eax
   117bc:	44 0f bf e8          	movswl %ax,%r13d
   117c0:	44 0f b7 b5 24 ef ff 	movzwl -0x10dc(%rbp),%r14d
   117c7:	ff 
   117c8:	83 bd 1c ef ff ff ff 	cmpl   $0xffffffff,-0x10e4(%rbp)
   117cf:	0f 94 c0             	sete   %al
   117d2:	0f b6 c0             	movzbl %al,%eax
   117d5:	48 23 85 b0 ef ff ff 	and    -0x1050(%rbp),%rax
   117dc:	48 83 f8 01          	cmp    $0x1,%rax
   117e0:	0f 95 c0             	setne  %al
   117e3:	0f b6 c0             	movzbl %al,%eax
   117e6:	be 06 00 00 00       	mov    $0x6,%esi
   117eb:	89 c7                	mov    %eax,%edi
   117ed:	e8 9b a4 ff ff       	callq  bc8d <safe_rshift_func_uint8_t_u_s>
   117f2:	44 89 f6             	mov    %r14d,%esi
   117f5:	bf 01 00 00 00       	mov    $0x1,%edi
   117fa:	e8 3e a5 ff ff       	callq  bd3d <safe_mul_func_uint16_t_u_u>
   117ff:	8b 85 3c ef ff ff    	mov    -0x10c4(%rbp),%eax
   11805:	0f b6 c0             	movzbl %al,%eax
   11808:	44 89 ee             	mov    %r13d,%esi
   1180b:	89 c7                	mov    %eax,%edi
   1180d:	e8 f3 a3 ff ff       	callq  bc05 <safe_lshift_func_uint8_t_u_s>
   11812:	48 8b 05 47 76 01 00 	mov    0x17647(%rip),%rax        # 28e60 <g_1176>
   11819:	48 8b 00             	mov    (%rax),%rax
   1181c:	66 c7 00 00 00       	movw   $0x0,(%rax)
   11821:	0f b7 00             	movzwl (%rax),%eax
   11824:	98                   	cwtl   
   11825:	48 8b 95 68 ef ff ff 	mov    -0x1098(%rbp),%rdx
   1182c:	c7 02 94 8e 00 00    	movl   $0x8e94,(%rdx)
   11832:	89 c6                	mov    %eax,%esi
   11834:	bf 94 8e ff ff       	mov    $0xffff8e94,%edi
   11839:	e8 17 9c ff ff       	callq  b455 <safe_div_func_int16_t_s_s>
   1183e:	98                   	cwtl   
   1183f:	44 89 e6             	mov    %r12d,%esi
   11842:	89 c7                	mov    %eax,%edi
   11844:	e8 cd 9b ff ff       	callq  b416 <safe_mod_func_int16_t_s_s>
   11849:	98                   	cwtl   
   1184a:	be fb ff ff ff       	mov    $0xfffffffb,%esi
   1184f:	89 c7                	mov    %eax,%edi
   11851:	e8 ff 9b ff ff       	callq  b455 <safe_div_func_int16_t_s_s>
   11856:	98                   	cwtl   
   11857:	89 de                	mov    %ebx,%esi
   11859:	89 c7                	mov    %eax,%edi
   1185b:	e8 f5 9b ff ff       	callq  b455 <safe_div_func_int16_t_s_s>
   11860:	89 c2                	mov    %eax,%edx
   11862:	48 8b 85 80 ef ff ff 	mov    -0x1080(%rbp),%rax
   11869:	48 8b 00             	mov    (%rax),%rax
   1186c:	88 10                	mov    %dl,(%rax)
   1186e:	0f b6 00             	movzbl (%rax),%eax
   11871:	0f b6 c0             	movzbl %al,%eax
   11874:	48 39 85 70 ef ff ff 	cmp    %rax,-0x1090(%rbp)
   1187b:	0f 9d c0             	setge  %al
   1187e:	0f b6 d0             	movzbl %al,%edx
   11881:	48 8b 85 e0 ef ff ff 	mov    -0x1020(%rbp),%rax
   11888:	89 10                	mov    %edx,(%rax)
   1188a:	48 8b 85 e0 ef ff ff 	mov    -0x1020(%rbp),%rax
   11891:	8b 08                	mov    (%rax),%ecx
   11893:	48 8b 05 26 6d 01 00 	mov    0x16d26(%rip),%rax        # 285c0 <g_91>
   1189a:	8b 10                	mov    (%rax),%edx
   1189c:	48 8b 05 1d 6d 01 00 	mov    0x16d1d(%rip),%rax        # 285c0 <g_91>
   118a3:	21 ca                	and    %ecx,%edx
   118a5:	89 10                	mov    %edx,(%rax)
   118a7:	8b 85 44 ef ff ff    	mov    -0x10bc(%rbp),%eax
   118ad:	89 85 40 ef ff ff    	mov    %eax,-0x10c0(%rbp)
   118b3:	8b 95 40 ef ff ff    	mov    -0x10c0(%rbp),%edx
   118b9:	48 8b 85 68 ef ff ff 	mov    -0x1098(%rbp),%rax
   118c0:	8b 00                	mov    (%rax),%eax
   118c2:	31 c2                	xor    %eax,%edx
   118c4:	48 8b 85 68 ef ff ff 	mov    -0x1098(%rbp),%rax
   118cb:	89 10                	mov    %edx,(%rax)
   118cd:	8b 85 1c ef ff ff    	mov    -0x10e4(%rbp),%eax
   118d3:	0f bf d0             	movswl %ax,%edx
   118d6:	48 83 bd 98 ef ff ff 	cmpq   $0x0,-0x1068(%rbp)
   118dd:	00 
   118de:	0f 94 c0             	sete   %al
   118e1:	0f b6 c0             	movzbl %al,%eax
   118e4:	89 d6                	mov    %edx,%esi
   118e6:	89 c7                	mov    %eax,%edi
   118e8:	e8 68 9b ff ff       	callq  b455 <safe_div_func_int16_t_s_s>
   118ed:	8b 9d 1c ef ff ff    	mov    -0x10e4(%rbp),%ebx
   118f3:	8b 85 48 f0 ff ff    	mov    -0xfb8(%rbp),%eax
   118f9:	85 c0                	test   %eax,%eax
   118fb:	75 6d                	jne    1196a <func_10+0x1c91>
   118fd:	48 8b 85 68 ef ff ff 	mov    -0x1098(%rbp),%rax
   11904:	44 8b 20             	mov    (%rax),%r12d
   11907:	8b 95 1c ef ff ff    	mov    -0x10e4(%rbp),%edx
   1190d:	48 8b 05 a4 8f 01 00 	mov    0x18fa4(%rip),%rax        # 2a8b8 <g_2990>
   11914:	8b 00                	mov    (%rax),%eax
   11916:	39 85 44 ef ff ff    	cmp    %eax,-0x10bc(%rbp)
   1191c:	0f 92 c0             	setb   %al
   1191f:	0f b6 c0             	movzbl %al,%eax
   11922:	89 d6                	mov    %edx,%esi
   11924:	89 c7                	mov    %eax,%edi
   11926:	e8 62 a3 ff ff       	callq  bc8d <safe_rshift_func_uint8_t_u_s>
   1192b:	8b 95 48 f0 ff ff    	mov    -0xfb8(%rbp),%edx
   11931:	48 8b 85 10 ef ff ff 	mov    -0x10f0(%rbp),%rax
   11938:	8b 00                	mov    (%rax),%eax
   1193a:	39 c2                	cmp    %eax,%edx
   1193c:	0f 92 c0             	setb   %al
   1193f:	0f b6 c0             	movzbl %al,%eax
   11942:	44 89 e6             	mov    %r12d,%esi
   11945:	89 c7                	mov    %eax,%edi
   11947:	e8 55 99 ff ff       	callq  b2a1 <safe_lshift_func_int8_t_s_s>
   1194c:	89 c2                	mov    %eax,%edx
   1194e:	48 8b 85 80 ef ff ff 	mov    -0x1080(%rbp),%rax
   11955:	48 8b 00             	mov    (%rax),%rax
   11958:	88 10                	mov    %dl,(%rax)
   1195a:	0f b6 00             	movzbl (%rax),%eax
   1195d:	84 c0                	test   %al,%al
   1195f:	74 10                	je     11971 <func_10+0x1c98>
   11961:	83 bd 1c ef ff ff 00 	cmpl   $0x0,-0x10e4(%rbp)
   11968:	74 07                	je     11971 <func_10+0x1c98>
   1196a:	b8 01 00 00 00       	mov    $0x1,%eax
   1196f:	eb 05                	jmp    11976 <func_10+0x1c9d>
   11971:	b8 00 00 00 00       	mov    $0x0,%eax
   11976:	48 98                	cltq   
   11978:	48 89 de             	mov    %rbx,%rsi
   1197b:	48 89 c7             	mov    %rax,%rdi
   1197e:	e8 fd a6 ff ff       	callq  c080 <safe_mod_func_uint64_t_u_u>
   11983:	98                   	cwtl   
   11984:	89 c6                	mov    %eax,%esi
   11986:	bf 01 00 00 00       	mov    $0x1,%edi
   1198b:	e8 65 9a ff ff       	callq  b3f5 <safe_mul_func_int16_t_s_s>
   11990:	98                   	cwtl   
   11991:	8b 95 1c ef ff ff    	mov    -0x10e4(%rbp),%edx
   11997:	89 d6                	mov    %edx,%esi
   11999:	89 c7                	mov    %eax,%edi
   1199b:	e8 c3 9b ff ff       	callq  b563 <safe_rshift_func_int16_t_s_u>
   119a0:	0f bf d0             	movswl %ax,%edx
   119a3:	8b 85 1c ef ff ff    	mov    -0x10e4(%rbp),%eax
   119a9:	98                   	cwtl   
   119aa:	89 d6                	mov    %edx,%esi
   119ac:	89 c7                	mov    %eax,%edi
   119ae:	e8 2e 9b ff ff       	callq  b4e1 <safe_lshift_func_int16_t_s_u>
   119b3:	66 83 f8 04          	cmp    $0x4,%ax
   119b7:	0f 9f c0             	setg   %al
   119ba:	0f b6 c8             	movzbl %al,%ecx
   119bd:	48 8b 05 9c 74 01 00 	mov    0x1749c(%rip),%rax        # 28e60 <g_1176>
   119c4:	48 8b 00             	mov    (%rax),%rax
   119c7:	0f b7 10             	movzwl (%rax),%edx
   119ca:	8d 72 01             	lea    0x1(%rdx),%esi
   119cd:	66 89 30             	mov    %si,(%rax)
   119d0:	0f b7 c2             	movzwl %dx,%eax
   119d3:	89 ce                	mov    %ecx,%esi
   119d5:	89 c7                	mov    %eax,%edi
   119d7:	e8 43 a3 ff ff       	callq  bd1f <safe_sub_func_uint16_t_u_u>
   119dc:	0f b7 c0             	movzwl %ax,%eax
   119df:	39 85 1c ef ff ff    	cmp    %eax,-0x10e4(%rbp)
   119e5:	0f 97 c0             	seta   %al
   119e8:	0f b6 d0             	movzbl %al,%edx
   119eb:	48 8b 85 d0 ef ff ff 	mov    -0x1030(%rbp),%rax
   119f2:	48 89 10             	mov    %rdx,(%rax)
   119f5:	48 8b 85 d0 ef ff ff 	mov    -0x1030(%rbp),%rax
   119fc:	48 8b 10             	mov    (%rax),%rdx
   119ff:	8b 85 1c ef ff ff    	mov    -0x10e4(%rbp),%eax
   11a05:	48 39 c2             	cmp    %rax,%rdx
   11a08:	0f 94 c0             	sete   %al
   11a0b:	0f b6 d0             	movzbl %al,%edx
   11a0e:	48 8b 85 d8 ef ff ff 	mov    -0x1028(%rbp),%rax
   11a15:	89 10                	mov    %edx,(%rax)
   11a17:	83 bd 1c ef ff ff 0f 	cmpl   $0xf,-0x10e4(%rbp)
   11a1e:	0f 94 c0             	sete   %al
   11a21:	0f b6 d0             	movzbl %al,%edx
   11a24:	48 8b 05 8d 8e 01 00 	mov    0x18e8d(%rip),%rax        # 2a8b8 <g_2990>
   11a2b:	8b 00                	mov    (%rax),%eax
   11a2d:	39 c2                	cmp    %eax,%edx
   11a2f:	0f 93 c0             	setae  %al
   11a32:	0f b6 c0             	movzbl %al,%eax
   11a35:	39 85 40 ef ff ff    	cmp    %eax,-0x10c0(%rbp)
   11a3b:	0f 9d c0             	setge  %al
   11a3e:	0f b6 c0             	movzbl %al,%eax
   11a41:	39 85 44 ef ff ff    	cmp    %eax,-0x10bc(%rbp)
   11a47:	0f 96 c0             	setbe  %al
   11a4a:	0f b6 c0             	movzbl %al,%eax
   11a4d:	be 07 00 00 00       	mov    $0x7,%esi
   11a52:	89 c7                	mov    %eax,%edi
   11a54:	e8 3a a1 ff ff       	callq  bb93 <safe_mul_func_uint8_t_u_u>
   11a59:	0f b6 c0             	movzbl %al,%eax
   11a5c:	39 85 1c ef ff ff    	cmp    %eax,-0x10e4(%rbp)
   11a62:	0f 92 c0             	setb   %al
   11a65:	0f b6 c8             	movzbl %al,%ecx
   11a68:	48 8b 05 51 6b 01 00 	mov    0x16b51(%rip),%rax        # 285c0 <g_91>
   11a6f:	8b 10                	mov    (%rax),%edx
   11a71:	48 8b 05 48 6b 01 00 	mov    0x16b48(%rip),%rax        # 285c0 <g_91>
   11a78:	21 ca                	and    %ecx,%edx
   11a7a:	89 10                	mov    %edx,(%rax)
   11a7c:	0f b7 05 15 36 01 00 	movzwl 0x13615(%rip),%eax        # 25098 <g_196>
   11a83:	83 c0 01             	add    $0x1,%eax
   11a86:	66 89 05 0b 36 01 00 	mov    %ax,0x1360b(%rip)        # 25098 <g_196>
   11a8d:	0f b7 05 04 36 01 00 	movzwl 0x13604(%rip),%eax        # 25098 <g_196>
   11a94:	66 83 f8 01          	cmp    $0x1,%ax
   11a98:	0f 8e f5 f8 ff ff    	jle    11393 <func_10+0x16ba>
   11a9e:	8b 05 48 36 01 00    	mov    0x13648(%rip),%eax        # 250ec <g_362>
   11aa4:	83 c0 01             	add    $0x1,%eax
   11aa7:	89 05 3f 36 01 00    	mov    %eax,0x1363f(%rip)        # 250ec <g_362>
   11aad:	8b 05 39 36 01 00    	mov    0x13639(%rip),%eax        # 250ec <g_362>
   11ab3:	83 f8 03             	cmp    $0x3,%eax
   11ab6:	0f 86 4f e4 ff ff    	jbe    ff0b <func_10+0x232>
   11abc:	48 8b 85 70 ef ff ff 	mov    -0x1090(%rbp),%rax
   11ac3:	eb 11                	jmp    11ad6 <func_10+0x1dfd>
   11ac5:	48 8b 85 68 ef ff ff 	mov    -0x1098(%rbp),%rax
   11acc:	8b 00                	mov    (%rax),%eax
   11ace:	eb 06                	jmp    11ad6 <func_10+0x1dfd>
   11ad0:	8b 85 1c ef ff ff    	mov    -0x10e4(%rbp),%eax
   11ad6:	48 8b 5d d8          	mov    -0x28(%rbp),%rbx
   11ada:	64 48 33 1c 25 28 00 	xor    %fs:0x28,%rbx
   11ae1:	00 00 
   11ae3:	74 05                	je     11aea <func_10+0x1e11>
   11ae5:	e8 86 95 ff ff       	callq  b070 <__stack_chk_fail@plt>
   11aea:	48 81 c4 d0 10 00 00 	add    $0x10d0,%rsp
   11af1:	5b                   	pop    %rbx
   11af2:	41 5c                	pop    %r12
   11af4:	41 5d                	pop    %r13
   11af6:	41 5e                	pop    %r14
   11af8:	5d                   	pop    %rbp
   11af9:	c3                   	retq   

0000000000011afa <func_21>:
   11afa:	f3 0f 1e fa          	endbr64 
   11afe:	55                   	push   %rbp
   11aff:	48 89 e5             	mov    %rsp,%rbp
   11b02:	41 54                	push   %r12
   11b04:	53                   	push   %rbx
   11b05:	48 81 ec c0 00 00 00 	sub    $0xc0,%rsp
   11b0c:	48 89 bd 38 ff ff ff 	mov    %rdi,-0xc8(%rbp)
   11b13:	64 48 8b 04 25 28 00 	mov    %fs:0x28,%rax
   11b1a:	00 00 
   11b1c:	48 89 45 e8          	mov    %rax,-0x18(%rbp)
   11b20:	31 c0                	xor    %eax,%eax
   11b22:	48 8d 05 17 73 01 00 	lea    0x17317(%rip),%rax        # 28e40 <g_1055>
   11b29:	48 89 85 68 ff ff ff 	mov    %rax,-0x98(%rbp)
   11b30:	c7 85 54 ff ff ff 03 	movl   $0x3,-0xac(%rbp)
   11b37:	00 00 00 
   11b3a:	48 8d 05 ab 35 01 00 	lea    0x135ab(%rip),%rax        # 250ec <g_362>
   11b41:	48 89 85 70 ff ff ff 	mov    %rax,-0x90(%rbp)
   11b48:	48 8b 05 f9 8c 01 00 	mov    0x18cf9(%rip),%rax        # 2a848 <g_2388>
   11b4f:	48 8b 95 68 ff ff ff 	mov    -0x98(%rbp),%rdx
   11b56:	48 89 10             	mov    %rdx,(%rax)
   11b59:	48 c7 05 94 35 01 00 	movq   $0x0,0x13594(%rip)        # 250f8 <g_708>
   11b60:	00 00 00 00 
   11b64:	90                   	nop
   11b65:	48 8b 05 8c 35 01 00 	mov    0x1358c(%rip),%rax        # 250f8 <g_708>
   11b6c:	48 83 f8 0c          	cmp    $0xc,%rax
   11b70:	77 31                	ja     11ba3 <func_21+0xa9>
   11b72:	66 c7 85 4e ff ff ff 	movw   $0x4c9b,-0xb2(%rbp)
   11b79:	9b 4c 
   11b7b:	0f b6 05 8e 93 01 00 	movzbl 0x1938e(%rip),%eax        # 2af10 <g_2916>
   11b82:	83 e8 01             	sub    $0x1,%eax
   11b85:	88 05 85 93 01 00    	mov    %al,0x19385(%rip)        # 2af10 <g_2916>
   11b8b:	66 83 bd 4e ff ff ff 	cmpw   $0x0,-0xb2(%rbp)
   11b92:	00 
   11b93:	75 0d                	jne    11ba2 <func_21+0xa8>
   11b95:	8b 85 54 ff ff ff    	mov    -0xac(%rbp),%eax
   11b9b:	48 98                	cltq   
   11b9d:	e9 81 02 00 00       	jmpq   11e23 <func_21+0x329>
   11ba2:	90                   	nop
   11ba3:	48 8b 95 38 ff ff ff 	mov    -0xc8(%rbp),%rdx
   11baa:	48 8b 85 38 ff ff ff 	mov    -0xc8(%rbp),%rax
   11bb1:	48 89 d6             	mov    %rdx,%rsi
   11bb4:	48 89 c7             	mov    %rax,%rdi
   11bb7:	e8 3b 9e ff ff       	callq  b9f7 <safe_div_func_int64_t_s_s>
   11bbc:	48 85 c0             	test   %rax,%rax
   11bbf:	0f 84 2d 02 00 00    	je     11df2 <func_21+0x2f8>
   11bc5:	c7 85 58 ff ff ff cd 	movl   $0x989790cd,-0xa8(%rbp)
   11bcc:	90 97 98 
   11bcf:	48 c7 45 90 fc ff ff 	movq   $0xfffffffffffffffc,-0x70(%rbp)
   11bd6:	ff 
   11bd7:	48 c7 45 98 00 00 00 	movq   $0x0,-0x68(%rbp)
   11bde:	00 
   11bdf:	48 c7 45 a0 fc ff ff 	movq   $0xfffffffffffffffc,-0x60(%rbp)
   11be6:	ff 
   11be7:	48 c7 45 a8 00 00 00 	movq   $0x0,-0x58(%rbp)
   11bee:	00 
   11bef:	48 c7 45 b0 fc ff ff 	movq   $0xfffffffffffffffc,-0x50(%rbp)
   11bf6:	ff 
   11bf7:	48 c7 45 b8 00 00 00 	movq   $0x0,-0x48(%rbp)
   11bfe:	00 
   11bff:	48 c7 45 c0 fc ff ff 	movq   $0xfffffffffffffffc,-0x40(%rbp)
   11c06:	ff 
   11c07:	48 c7 45 c8 00 00 00 	movq   $0x0,-0x38(%rbp)
   11c0e:	00 
   11c0f:	48 c7 45 d0 fc ff ff 	movq   $0xfffffffffffffffc,-0x30(%rbp)
   11c16:	ff 
   11c17:	48 c7 45 d8 00 00 00 	movq   $0x0,-0x28(%rbp)
   11c1e:	00 
   11c1f:	c7 85 5c ff ff ff f8 	movl   $0xfffffff8,-0xa4(%rbp)
   11c26:	ff ff ff 
   11c29:	c7 05 31 3d 01 00 00 	movl   $0x0,0x13d31(%rip)        # 25964 <g_1549>
   11c30:	00 00 00 
   11c33:	e9 97 01 00 00       	jmpq   11dcf <func_21+0x2d5>
   11c38:	48 8d 05 59 92 01 00 	lea    0x19259(%rip),%rax        # 2ae98 <g_2511>
   11c3f:	48 89 45 80          	mov    %rax,-0x80(%rbp)
   11c43:	48 c7 45 88 00 00 00 	movq   $0x0,-0x78(%rbp)
   11c4a:	00 
   11c4b:	c7 85 60 ff ff ff c4 	movl   $0x9981fdc4,-0xa0(%rbp)
   11c52:	fd 81 99 
   11c55:	48 8b 45 c0          	mov    -0x40(%rbp),%rax
   11c59:	0f bf d8             	movswl %ax,%ebx
   11c5c:	48 8b 45 80          	mov    -0x80(%rbp),%rax
   11c60:	66 c7 00 e3 ef       	movw   $0xefe3,(%rax)
   11c65:	be 0b 00 00 00       	mov    $0xb,%esi
   11c6a:	bf e3 ef ff ff       	mov    $0xffffefe3,%edi
   11c6f:	e8 1e 98 ff ff       	callq  b492 <safe_lshift_func_int16_t_s_s>
   11c74:	48 81 bd 38 ff ff ff 	cmpq   $0xf9,-0xc8(%rbp)
   11c7b:	f9 00 00 00 
   11c7f:	0f 95 c0             	setne  %al
   11c82:	44 0f b6 e0          	movzbl %al,%r12d
   11c86:	48 83 bd 38 ff ff ff 	cmpq   $0x0,-0xc8(%rbp)
   11c8d:	00 
   11c8e:	0f 9f c0             	setg   %al
   11c91:	0f b6 c0             	movzbl %al,%eax
   11c94:	be 01 00 00 00       	mov    $0x1,%esi
   11c99:	89 c7                	mov    %eax,%edi
   11c9b:	e8 34 95 ff ff       	callq  b1d4 <safe_add_func_int8_t_s_s>
   11ca0:	0f be c0             	movsbl %al,%eax
   11ca3:	44 21 e0             	and    %r12d,%eax
   11ca6:	89 c2                	mov    %eax,%edx
   11ca8:	8b 05 be 3c 01 00    	mov    0x13cbe(%rip),%eax        # 2596c <g_1723>
   11cae:	39 c2                	cmp    %eax,%edx
   11cb0:	0f 97 c0             	seta   %al
   11cb3:	0f b6 d0             	movzbl %al,%edx
   11cb6:	48 8b 85 38 ff ff ff 	mov    -0xc8(%rbp),%rax
   11cbd:	48 89 d6             	mov    %rdx,%rsi
   11cc0:	48 89 c7             	mov    %rax,%rdi
   11cc3:	e8 e0 9b ff ff       	callq  b8a8 <safe_sub_func_int64_t_s_s>
   11cc8:	48 3d 1a 67 c8 21    	cmp    $0x21c8671a,%rax
   11cce:	8b 85 60 ff ff ff    	mov    -0xa0(%rbp),%eax
   11cd4:	83 c8 01             	or     $0x1,%eax
   11cd7:	98                   	cwtl   
   11cd8:	89 de                	mov    %ebx,%esi
   11cda:	89 c7                	mov    %eax,%edi
   11cdc:	e8 14 97 ff ff       	callq  b3f5 <safe_mul_func_int16_t_s_s>
   11ce1:	98                   	cwtl   
   11ce2:	23 85 54 ff ff ff    	and    -0xac(%rbp),%eax
   11ce8:	89 85 5c ff ff ff    	mov    %eax,-0xa4(%rbp)
   11cee:	48 8b 05 03 34 01 00 	mov    0x13403(%rip),%rax        # 250f8 <g_708>
   11cf5:	48 85 c0             	test   %rax,%rax
   11cf8:	74 05                	je     11cff <func_21+0x205>
   11cfa:	e9 49 fe ff ff       	jmpq   11b48 <func_21+0x4e>
   11cff:	c7 05 6b 3c 01 00 05 	movl   $0x5,0x13c6b(%rip)        # 25974 <g_1997>
   11d06:	00 00 00 
   11d09:	eb 62                	jmp    11d6d <func_21+0x273>
   11d0b:	c6 05 6e 33 01 00 00 	movb   $0x0,0x1336e(%rip)        # 25080 <g_112>
   11d12:	eb 3c                	jmp    11d50 <func_21+0x256>
   11d14:	c6 85 4d ff ff ff 44 	movb   $0x44,-0xb3(%rbp)
   11d1b:	48 8b 05 9e 68 01 00 	mov    0x1689e(%rip),%rax        # 285c0 <g_91>
   11d22:	8b 08                	mov    (%rax),%ecx
   11d24:	0f be 95 4d ff ff ff 	movsbl -0xb3(%rbp),%edx
   11d2b:	48 8b 05 8e 68 01 00 	mov    0x1688e(%rip),%rax        # 285c0 <g_91>
   11d32:	31 ca                	xor    %ecx,%edx
   11d34:	89 10                	mov    %edx,(%rax)
   11d36:	48 83 bd 38 ff ff ff 	cmpq   $0x0,-0xc8(%rbp)
   11d3d:	00 
   11d3e:	75 1d                	jne    11d5d <func_21+0x263>
   11d40:	0f b6 05 39 33 01 00 	movzbl 0x13339(%rip),%eax        # 25080 <g_112>
   11d47:	83 c0 01             	add    $0x1,%eax
   11d4a:	88 05 30 33 01 00    	mov    %al,0x13330(%rip)        # 25080 <g_112>
   11d50:	0f b6 05 29 33 01 00 	movzbl 0x13329(%rip),%eax        # 25080 <g_112>
   11d57:	3c 05                	cmp    $0x5,%al
   11d59:	76 b9                	jbe    11d14 <func_21+0x21a>
   11d5b:	eb 01                	jmp    11d5e <func_21+0x264>
   11d5d:	90                   	nop
   11d5e:	8b 05 10 3c 01 00    	mov    0x13c10(%rip),%eax        # 25974 <g_1997>
   11d64:	83 e8 01             	sub    $0x1,%eax
   11d67:	89 05 07 3c 01 00    	mov    %eax,0x13c07(%rip)        # 25974 <g_1997>
   11d6d:	8b 05 01 3c 01 00    	mov    0x13c01(%rip),%eax        # 25974 <g_1997>
   11d73:	85 c0                	test   %eax,%eax
   11d75:	79 94                	jns    11d0b <func_21+0x211>
   11d77:	c7 05 f3 3b 01 00 04 	movl   $0x4,0x13bf3(%rip)        # 25974 <g_1997>
   11d7e:	00 00 00 
   11d81:	eb 33                	jmp    11db6 <func_21+0x2bc>
   11d83:	c7 85 64 ff ff ff fa 	movl   $0x1347a0fa,-0x9c(%rbp)
   11d8a:	a0 47 13 
   11d8d:	48 8b 05 2c 68 01 00 	mov    0x1682c(%rip),%rax        # 285c0 <g_91>
   11d94:	8b 00                	mov    (%rax),%eax
   11d96:	23 85 64 ff ff ff    	and    -0x9c(%rbp),%eax
   11d9c:	89 c2                	mov    %eax,%edx
   11d9e:	48 8b 05 1b 68 01 00 	mov    0x1681b(%rip),%rax        # 285c0 <g_91>
   11da5:	89 10                	mov    %edx,(%rax)
   11da7:	8b 05 c7 3b 01 00    	mov    0x13bc7(%rip),%eax        # 25974 <g_1997>
   11dad:	83 e8 01             	sub    $0x1,%eax
   11db0:	89 05 be 3b 01 00    	mov    %eax,0x13bbe(%rip)        # 25974 <g_1997>
   11db6:	8b 05 b8 3b 01 00    	mov    0x13bb8(%rip),%eax        # 25974 <g_1997>
   11dbc:	85 c0                	test   %eax,%eax
   11dbe:	79 c3                	jns    11d83 <func_21+0x289>
   11dc0:	8b 05 9e 3b 01 00    	mov    0x13b9e(%rip),%eax        # 25964 <g_1549>
   11dc6:	83 c0 01             	add    $0x1,%eax
   11dc9:	89 05 95 3b 01 00    	mov    %eax,0x13b95(%rip)        # 25964 <g_1549>
   11dcf:	8b 05 8f 3b 01 00    	mov    0x13b8f(%rip),%eax        # 25964 <g_1549>
   11dd5:	83 f8 05             	cmp    $0x5,%eax
   11dd8:	0f 86 5a fe ff ff    	jbe    11c38 <func_21+0x13e>
   11dde:	8b 85 54 ff ff ff    	mov    -0xac(%rbp),%eax
   11de4:	33 85 58 ff ff ff    	xor    -0xa8(%rbp),%eax
   11dea:	89 85 54 ff ff ff    	mov    %eax,-0xac(%rbp)
   11df0:	eb 29                	jmp    11e1b <func_21+0x321>
   11df2:	48 c7 85 78 ff ff ff 	movq   $0x0,-0x88(%rbp)
   11df9:	00 00 00 00 
   11dfd:	c7 85 50 ff ff ff 12 	movl   $0x9f422c12,-0xb0(%rbp)
   11e04:	2c 42 9f 
   11e07:	48 8b 05 7a 6b 01 00 	mov    0x16b7a(%rip),%rax        # 28988 <g_893>
   11e0e:	48 8b 00             	mov    (%rax),%rax
   11e11:	48 8d 95 50 ff ff ff 	lea    -0xb0(%rbp),%rdx
   11e18:	48 89 10             	mov    %rdx,(%rax)
   11e1b:	8b 05 33 32 01 00    	mov    0x13233(%rip),%eax        # 25054 <g_52+0x14>
   11e21:	48 98                	cltq   
   11e23:	48 8b 4d e8          	mov    -0x18(%rbp),%rcx
   11e27:	64 48 33 0c 25 28 00 	xor    %fs:0x28,%rcx
   11e2e:	00 00 
   11e30:	74 05                	je     11e37 <func_21+0x33d>
   11e32:	e8 39 92 ff ff       	callq  b070 <__stack_chk_fail@plt>
   11e37:	48 81 c4 c0 00 00 00 	add    $0xc0,%rsp
   11e3e:	5b                   	pop    %rbx
   11e3f:	41 5c                	pop    %r12
   11e41:	5d                   	pop    %rbp
   11e42:	c3                   	retq   

0000000000011e43 <func_25>:
   11e43:	f3 0f 1e fa          	endbr64 
   11e47:	55                   	push   %rbp
   11e48:	48 89 e5             	mov    %rsp,%rbp
   11e4b:	41 56                	push   %r14
   11e4d:	41 55                	push   %r13
   11e4f:	41 54                	push   %r12
   11e51:	53                   	push   %rbx
   11e52:	48 81 ec 00 10 00 00 	sub    $0x1000,%rsp
   11e59:	48 83 0c 24 00       	orq    $0x0,(%rsp)
   11e5e:	48 81 ec 80 0a 00 00 	sub    $0xa80,%rsp
   11e65:	48 89 bd 78 e5 ff ff 	mov    %rdi,-0x1a88(%rbp)
   11e6c:	48 89 b5 70 e5 ff ff 	mov    %rsi,-0x1a90(%rbp)
   11e73:	48 89 95 68 e5 ff ff 	mov    %rdx,-0x1a98(%rbp)
   11e7a:	89 8d 64 e5 ff ff    	mov    %ecx,-0x1a9c(%rbp)
   11e80:	64 48 8b 04 25 28 00 	mov    %fs:0x28,%rax
   11e87:	00 00 
   11e89:	48 89 45 d8          	mov    %rax,-0x28(%rbp)
   11e8d:	31 c0                	xor    %eax,%eax
   11e8f:	66 c7 85 94 e5 ff ff 	movw   $0xffff,-0x1a6c(%rbp)
   11e96:	ff ff 
   11e98:	48 c7 85 20 e8 ff ff 	movq   $0x0,-0x17e0(%rbp)
   11e9f:	00 00 00 00 
   11ea3:	48 c7 85 28 e8 ff ff 	movq   $0x0,-0x17d8(%rbp)
   11eaa:	00 00 00 00 
   11eae:	48 c7 85 30 e8 ff ff 	movq   $0x0,-0x17d0(%rbp)
   11eb5:	00 00 00 00 
   11eb9:	48 c7 85 38 e8 ff ff 	movq   $0x0,-0x17c8(%rbp)
   11ec0:	00 00 00 00 
   11ec4:	48 8d 05 95 3a 01 00 	lea    0x13a95(%rip),%rax        # 25960 <g_1516>
   11ecb:	48 89 85 58 e6 ff ff 	mov    %rax,-0x19a8(%rbp)
   11ed2:	48 8d 05 13 32 01 00 	lea    0x13213(%rip),%rax        # 250ec <g_362>
   11ed9:	48 89 85 a8 e6 ff ff 	mov    %rax,-0x1958(%rbp)
   11ee0:	48 8d 05 41 67 01 00 	lea    0x16741(%rip),%rax        # 28628 <g_181>
   11ee7:	48 89 85 b0 e6 ff ff 	mov    %rax,-0x1950(%rbp)
   11eee:	48 8d 05 43 8f 01 00 	lea    0x18f43(%rip),%rax        # 2ae38 <g_1937>
   11ef5:	48 89 85 b8 e6 ff ff 	mov    %rax,-0x1948(%rbp)
   11efc:	c7 85 cc e5 ff ff ba 	movl   $0xe16482ba,-0x1a34(%rbp)
   11f03:	82 64 e1 
   11f06:	48 b8 7b 47 e6 3b 7c 	movabs $0x5765be7c3be6477b,%rax
   11f0d:	be 65 57 
   11f10:	48 89 85 60 e6 ff ff 	mov    %rax,-0x19a0(%rbp)
   11f17:	48 8d 05 1a 8f 01 00 	lea    0x18f1a(%rip),%rax        # 2ae38 <g_1937>
   11f1e:	48 89 85 c0 e6 ff ff 	mov    %rax,-0x1940(%rbp)
   11f25:	c7 85 d0 e5 ff ff 5b 	movl   $0xab57ed5b,-0x1a30(%rbp)
   11f2c:	ed 57 ab 
   11f2f:	c7 85 a4 e5 ff ff 31 	movl   $0xa4bd3031,-0x1a5c(%rbp)
   11f36:	30 bd a4 
   11f39:	48 c7 85 68 e6 ff ff 	movq   $0x0,-0x1998(%rbp)
   11f40:	00 00 00 00 
   11f44:	48 8d 85 68 e6 ff ff 	lea    -0x1998(%rbp),%rax
   11f4b:	48 89 85 70 e6 ff ff 	mov    %rax,-0x1990(%rbp)
   11f52:	c7 85 9c e5 ff ff ff 	movl   $0xffffffff,-0x1a64(%rbp)
   11f59:	ff ff ff 
   11f5c:	48 8d 05 35 31 01 00 	lea    0x13135(%rip),%rax        # 25098 <g_196>
   11f63:	48 89 85 c8 e6 ff ff 	mov    %rax,-0x1938(%rbp)
   11f6a:	c6 85 8a e5 ff ff 5a 	movb   $0x5a,-0x1a76(%rbp)
   11f71:	48 8d 85 50 f8 ff ff 	lea    -0x7b0(%rbp),%rax
   11f78:	48 8d 15 c1 de 00 00 	lea    0xdec1(%rip),%rdx        # 1fe40 <g_3910+0xdd4>
   11f7f:	b9 f0 00 00 00       	mov    $0xf0,%ecx
   11f84:	48 89 c7             	mov    %rax,%rdi
   11f87:	48 89 d6             	mov    %rdx,%rsi
   11f8a:	f3 48 a5             	rep movsq %ds:(%rsi),%es:(%rdi)
   11f8d:	48 c7 85 90 ec ff ff 	movq   $0x0,-0x1370(%rbp)
   11f94:	00 00 00 00 
   11f98:	48 8d 85 58 e6 ff ff 	lea    -0x19a8(%rbp),%rax
   11f9f:	48 89 85 98 ec ff ff 	mov    %rax,-0x1368(%rbp)
   11fa6:	48 c7 85 a0 ec ff ff 	movq   $0x0,-0x1360(%rbp)
   11fad:	00 00 00 00 
   11fb1:	48 8d 85 58 e6 ff ff 	lea    -0x19a8(%rbp),%rax
   11fb8:	48 89 85 a8 ec ff ff 	mov    %rax,-0x1358(%rbp)
   11fbf:	48 8d 85 58 e6 ff ff 	lea    -0x19a8(%rbp),%rax
   11fc6:	48 89 85 b0 ec ff ff 	mov    %rax,-0x1350(%rbp)
   11fcd:	48 c7 85 b8 ec ff ff 	movq   $0x0,-0x1348(%rbp)
   11fd4:	00 00 00 00 
   11fd8:	48 c7 85 c0 ec ff ff 	movq   $0x0,-0x1340(%rbp)
   11fdf:	00 00 00 00 
   11fe3:	48 c7 85 c8 ec ff ff 	movq   $0x0,-0x1338(%rbp)
   11fea:	00 00 00 00 
   11fee:	48 c7 85 d0 ec ff ff 	movq   $0x0,-0x1330(%rbp)
   11ff5:	00 00 00 00 
   11ff9:	48 c7 85 d8 ec ff ff 	movq   $0x0,-0x1328(%rbp)
   12000:	00 00 00 00 
   12004:	48 8d 85 58 e6 ff ff 	lea    -0x19a8(%rbp),%rax
   1200b:	48 89 85 e0 ec ff ff 	mov    %rax,-0x1320(%rbp)
   12012:	48 c7 85 e8 ec ff ff 	movq   $0x0,-0x1318(%rbp)
   12019:	00 00 00 00 
   1201d:	48 8d 85 58 e6 ff ff 	lea    -0x19a8(%rbp),%rax
   12024:	48 89 85 f0 ec ff ff 	mov    %rax,-0x1310(%rbp)
   1202b:	48 c7 85 f8 ec ff ff 	movq   $0x0,-0x1308(%rbp)
   12032:	00 00 00 00 
   12036:	48 8d 85 58 e6 ff ff 	lea    -0x19a8(%rbp),%rax
   1203d:	48 89 85 00 ed ff ff 	mov    %rax,-0x1300(%rbp)
   12044:	48 8d 85 58 e6 ff ff 	lea    -0x19a8(%rbp),%rax
   1204b:	48 89 85 08 ed ff ff 	mov    %rax,-0x12f8(%rbp)
   12052:	48 8d 85 58 e6 ff ff 	lea    -0x19a8(%rbp),%rax
   12059:	48 89 85 10 ed ff ff 	mov    %rax,-0x12f0(%rbp)
   12060:	48 8d 85 58 e6 ff ff 	lea    -0x19a8(%rbp),%rax
   12067:	48 89 85 18 ed ff ff 	mov    %rax,-0x12e8(%rbp)
   1206e:	48 8d 85 58 e6 ff ff 	lea    -0x19a8(%rbp),%rax
   12075:	48 89 85 20 ed ff ff 	mov    %rax,-0x12e0(%rbp)
   1207c:	48 8d 85 58 e6 ff ff 	lea    -0x19a8(%rbp),%rax
   12083:	48 89 85 28 ed ff ff 	mov    %rax,-0x12d8(%rbp)
   1208a:	48 c7 85 30 ed ff ff 	movq   $0x0,-0x12d0(%rbp)
   12091:	00 00 00 00 
   12095:	48 8d 85 58 e6 ff ff 	lea    -0x19a8(%rbp),%rax
   1209c:	48 89 85 38 ed ff ff 	mov    %rax,-0x12c8(%rbp)
   120a3:	48 c7 85 40 ed ff ff 	movq   $0x0,-0x12c0(%rbp)
   120aa:	00 00 00 00 
   120ae:	48 8d 85 58 e6 ff ff 	lea    -0x19a8(%rbp),%rax
   120b5:	48 89 85 48 ed ff ff 	mov    %rax,-0x12b8(%rbp)
   120bc:	48 8d 85 58 e6 ff ff 	lea    -0x19a8(%rbp),%rax
   120c3:	48 89 85 50 ed ff ff 	mov    %rax,-0x12b0(%rbp)
   120ca:	48 8d 85 58 e6 ff ff 	lea    -0x19a8(%rbp),%rax
   120d1:	48 89 85 58 ed ff ff 	mov    %rax,-0x12a8(%rbp)
   120d8:	48 8d 85 58 e6 ff ff 	lea    -0x19a8(%rbp),%rax
   120df:	48 89 85 60 ed ff ff 	mov    %rax,-0x12a0(%rbp)
   120e6:	48 c7 85 68 ed ff ff 	movq   $0x0,-0x1298(%rbp)
   120ed:	00 00 00 00 
   120f1:	48 8d 85 58 e6 ff ff 	lea    -0x19a8(%rbp),%rax
   120f8:	48 89 85 70 ed ff ff 	mov    %rax,-0x1290(%rbp)
   120ff:	48 8d 85 58 e6 ff ff 	lea    -0x19a8(%rbp),%rax
   12106:	48 89 85 78 ed ff ff 	mov    %rax,-0x1288(%rbp)
   1210d:	48 8d 85 58 e6 ff ff 	lea    -0x19a8(%rbp),%rax
   12114:	48 89 85 80 ed ff ff 	mov    %rax,-0x1280(%rbp)
   1211b:	48 8d 85 58 e6 ff ff 	lea    -0x19a8(%rbp),%rax
   12122:	48 89 85 88 ed ff ff 	mov    %rax,-0x1278(%rbp)
   12129:	48 8d 85 58 e6 ff ff 	lea    -0x19a8(%rbp),%rax
   12130:	48 89 85 90 ed ff ff 	mov    %rax,-0x1270(%rbp)
   12137:	48 8d 85 58 e6 ff ff 	lea    -0x19a8(%rbp),%rax
   1213e:	48 89 85 98 ed ff ff 	mov    %rax,-0x1268(%rbp)
   12145:	48 8d 85 58 e6 ff ff 	lea    -0x19a8(%rbp),%rax
   1214c:	48 89 85 a0 ed ff ff 	mov    %rax,-0x1260(%rbp)
   12153:	48 c7 85 a8 ed ff ff 	movq   $0x0,-0x1258(%rbp)
   1215a:	00 00 00 00 
   1215e:	48 8d 85 58 e6 ff ff 	lea    -0x19a8(%rbp),%rax
   12165:	48 89 85 b0 ed ff ff 	mov    %rax,-0x1250(%rbp)
   1216c:	48 8d 85 58 e6 ff ff 	lea    -0x19a8(%rbp),%rax
   12173:	48 89 85 b8 ed ff ff 	mov    %rax,-0x1248(%rbp)
   1217a:	48 c7 85 c0 ed ff ff 	movq   $0x0,-0x1240(%rbp)
   12181:	00 00 00 00 
   12185:	48 8d 85 58 e6 ff ff 	lea    -0x19a8(%rbp),%rax
   1218c:	48 89 85 c8 ed ff ff 	mov    %rax,-0x1238(%rbp)
   12193:	48 8d 85 58 e6 ff ff 	lea    -0x19a8(%rbp),%rax
   1219a:	48 89 85 d0 ed ff ff 	mov    %rax,-0x1230(%rbp)
   121a1:	48 c7 85 d8 ed ff ff 	movq   $0x0,-0x1228(%rbp)
   121a8:	00 00 00 00 
   121ac:	48 8d 85 58 e6 ff ff 	lea    -0x19a8(%rbp),%rax
   121b3:	48 89 85 e0 ed ff ff 	mov    %rax,-0x1220(%rbp)
   121ba:	48 8d 85 58 e6 ff ff 	lea    -0x19a8(%rbp),%rax
   121c1:	48 89 85 e8 ed ff ff 	mov    %rax,-0x1218(%rbp)
   121c8:	48 c7 85 f0 ed ff ff 	movq   $0x0,-0x1210(%rbp)
   121cf:	00 00 00 00 
   121d3:	48 8d 85 58 e6 ff ff 	lea    -0x19a8(%rbp),%rax
   121da:	48 89 85 f8 ed ff ff 	mov    %rax,-0x1208(%rbp)
   121e1:	48 8d 85 58 e6 ff ff 	lea    -0x19a8(%rbp),%rax
   121e8:	48 89 85 00 ee ff ff 	mov    %rax,-0x1200(%rbp)
   121ef:	48 8d 85 58 e6 ff ff 	lea    -0x19a8(%rbp),%rax
   121f6:	48 89 85 08 ee ff ff 	mov    %rax,-0x11f8(%rbp)
   121fd:	48 8d 85 58 e6 ff ff 	lea    -0x19a8(%rbp),%rax
   12204:	48 89 85 10 ee ff ff 	mov    %rax,-0x11f0(%rbp)
   1220b:	48 c7 85 18 ee ff ff 	movq   $0x0,-0x11e8(%rbp)
   12212:	00 00 00 00 
   12216:	48 8d 85 58 e6 ff ff 	lea    -0x19a8(%rbp),%rax
   1221d:	48 89 85 20 ee ff ff 	mov    %rax,-0x11e0(%rbp)
   12224:	48 c7 85 28 ee ff ff 	movq   $0x0,-0x11d8(%rbp)
   1222b:	00 00 00 00 
   1222f:	48 8d 85 58 e6 ff ff 	lea    -0x19a8(%rbp),%rax
   12236:	48 89 85 30 ee ff ff 	mov    %rax,-0x11d0(%rbp)
   1223d:	48 c7 85 38 ee ff ff 	movq   $0x0,-0x11c8(%rbp)
   12244:	00 00 00 00 
   12248:	48 8d 85 58 e6 ff ff 	lea    -0x19a8(%rbp),%rax
   1224f:	48 89 85 40 ee ff ff 	mov    %rax,-0x11c0(%rbp)
   12256:	48 8d 85 58 e6 ff ff 	lea    -0x19a8(%rbp),%rax
   1225d:	48 89 85 48 ee ff ff 	mov    %rax,-0x11b8(%rbp)
   12264:	48 8d 85 58 e6 ff ff 	lea    -0x19a8(%rbp),%rax
   1226b:	48 89 85 50 ee ff ff 	mov    %rax,-0x11b0(%rbp)
   12272:	48 8d 85 58 e6 ff ff 	lea    -0x19a8(%rbp),%rax
   12279:	48 89 85 58 ee ff ff 	mov    %rax,-0x11a8(%rbp)
   12280:	48 8d 85 58 e6 ff ff 	lea    -0x19a8(%rbp),%rax
   12287:	48 89 85 60 ee ff ff 	mov    %rax,-0x11a0(%rbp)
   1228e:	48 c7 85 68 ee ff ff 	movq   $0x0,-0x1198(%rbp)
   12295:	00 00 00 00 
   12299:	48 8d 85 58 e6 ff ff 	lea    -0x19a8(%rbp),%rax
   122a0:	48 89 85 70 ee ff ff 	mov    %rax,-0x1190(%rbp)
   122a7:	48 c7 85 78 ee ff ff 	movq   $0x0,-0x1188(%rbp)
   122ae:	00 00 00 00 
   122b2:	48 8d 85 58 e6 ff ff 	lea    -0x19a8(%rbp),%rax
   122b9:	48 89 85 80 ee ff ff 	mov    %rax,-0x1180(%rbp)
   122c0:	48 c7 85 88 ee ff ff 	movq   $0x0,-0x1178(%rbp)
   122c7:	00 00 00 00 
   122cb:	48 8d 85 58 e6 ff ff 	lea    -0x19a8(%rbp),%rax
   122d2:	48 89 85 90 ee ff ff 	mov    %rax,-0x1170(%rbp)
   122d9:	48 8d 85 58 e6 ff ff 	lea    -0x19a8(%rbp),%rax
   122e0:	48 89 85 98 ee ff ff 	mov    %rax,-0x1168(%rbp)
   122e7:	48 8d 85 58 e6 ff ff 	lea    -0x19a8(%rbp),%rax
   122ee:	48 89 85 a0 ee ff ff 	mov    %rax,-0x1160(%rbp)
   122f5:	48 8d 85 58 e6 ff ff 	lea    -0x19a8(%rbp),%rax
   122fc:	48 89 85 a8 ee ff ff 	mov    %rax,-0x1158(%rbp)
   12303:	48 c7 85 b0 ee ff ff 	movq   $0x0,-0x1150(%rbp)
   1230a:	00 00 00 00 
   1230e:	48 8d 85 58 e6 ff ff 	lea    -0x19a8(%rbp),%rax
   12315:	48 89 85 b8 ee ff ff 	mov    %rax,-0x1148(%rbp)
   1231c:	48 8d 85 58 e6 ff ff 	lea    -0x19a8(%rbp),%rax
   12323:	48 89 85 c0 ee ff ff 	mov    %rax,-0x1140(%rbp)
   1232a:	48 c7 85 c8 ee ff ff 	movq   $0x0,-0x1138(%rbp)
   12331:	00 00 00 00 
   12335:	48 8d 85 58 e6 ff ff 	lea    -0x19a8(%rbp),%rax
   1233c:	48 89 85 d0 ee ff ff 	mov    %rax,-0x1130(%rbp)
   12343:	48 c7 85 d8 ee ff ff 	movq   $0x0,-0x1128(%rbp)
   1234a:	00 00 00 00 
   1234e:	48 c7 85 e0 ee ff ff 	movq   $0x0,-0x1120(%rbp)
   12355:	00 00 00 00 
   12359:	48 8d 85 58 e6 ff ff 	lea    -0x19a8(%rbp),%rax
   12360:	48 89 85 e8 ee ff ff 	mov    %rax,-0x1118(%rbp)
   12367:	48 8d 85 58 e6 ff ff 	lea    -0x19a8(%rbp),%rax
   1236e:	48 89 85 f0 ee ff ff 	mov    %rax,-0x1110(%rbp)
   12375:	48 c7 85 f8 ee ff ff 	movq   $0x0,-0x1108(%rbp)
   1237c:	00 00 00 00 
   12380:	48 c7 85 00 ef ff ff 	movq   $0x0,-0x1100(%rbp)
   12387:	00 00 00 00 
   1238b:	48 8d 85 58 e6 ff ff 	lea    -0x19a8(%rbp),%rax
   12392:	48 89 85 08 ef ff ff 	mov    %rax,-0x10f8(%rbp)
   12399:	48 8d 85 58 e6 ff ff 	lea    -0x19a8(%rbp),%rax
   123a0:	48 89 85 10 ef ff ff 	mov    %rax,-0x10f0(%rbp)
   123a7:	48 8d 85 90 ec ff ff 	lea    -0x1370(%rbp),%rax
   123ae:	48 05 58 02 00 00    	add    $0x258,%rax
   123b4:	48 89 85 d0 e6 ff ff 	mov    %rax,-0x1930(%rbp)
   123bb:	c6 85 8b e5 ff ff ad 	movb   $0xad,-0x1a75(%rbp)
   123c2:	48 b8 5d 74 d9 6c a1 	movabs $0x9f53f0a16cd9745d,%rax
   123c9:	f0 53 9f 
   123cc:	48 89 85 78 e6 ff ff 	mov    %rax,-0x1988(%rbp)
   123d3:	48 8d 05 ee 64 01 00 	lea    0x164ee(%rip),%rax        # 288c8 <g_512>
   123da:	48 89 85 d8 e6 ff ff 	mov    %rax,-0x1928(%rbp)
   123e1:	c6 85 8c e5 ff ff f1 	movb   $0xf1,-0x1a74(%rbp)
   123e8:	48 c7 85 e0 e6 ff ff 	movq   $0x0,-0x1920(%rbp)
   123ef:	00 00 00 00 
   123f3:	48 8d 05 8e 8a 01 00 	lea    0x18a8e(%rip),%rax        # 2ae88 <g_2418>
   123fa:	48 89 85 e8 e6 ff ff 	mov    %rax,-0x1918(%rbp)
   12401:	48 c7 85 f0 e6 ff ff 	movq   $0x0,-0x1910(%rbp)
   12408:	00 00 00 00 
   1240c:	48 8d 05 8d 2c 01 00 	lea    0x12c8d(%rip),%rax        # 250a0 <g_210>
   12413:	48 89 85 f8 e6 ff ff 	mov    %rax,-0x1908(%rbp)
   1241a:	66 c7 85 96 e5 ff ff 	movw   $0x71e8,-0x1a6a(%rbp)
   12421:	e8 71 
   12423:	c7 85 d4 e5 ff ff 9d 	movl   $0x6336fe9d,-0x1a2c(%rbp)
   1242a:	fe 36 63 
   1242d:	c7 85 d8 e5 ff ff 01 	movl   $0x1,-0x1a28(%rbp)
   12434:	00 00 00 
   12437:	66 c7 85 92 e5 ff ff 	movw   $0x88b3,-0x1a6e(%rbp)
   1243e:	b3 88 
   12440:	48 c7 85 20 ef ff ff 	movq   $0x0,-0x10e0(%rbp)
   12447:	00 00 00 00 
   1244b:	48 c7 85 28 ef ff ff 	movq   $0x0,-0x10d8(%rbp)
   12452:	00 00 00 00 
   12456:	48 8d 05 2b 2c 01 00 	lea    0x12c2b(%rip),%rax        # 25088 <g_151>
   1245d:	48 89 85 30 ef ff ff 	mov    %rax,-0x10d0(%rbp)
   12464:	48 8d 05 95 2c 01 00 	lea    0x12c95(%rip),%rax        # 25100 <g_709>
   1246b:	48 89 85 38 ef ff ff 	mov    %rax,-0x10c8(%rbp)
   12472:	48 c7 85 40 ef ff ff 	movq   $0x0,-0x10c0(%rbp)
   12479:	00 00 00 00 
   1247d:	48 c7 85 48 ef ff ff 	movq   $0x0,-0x10b8(%rbp)
   12484:	00 00 00 00 
   12488:	48 8d 85 60 e6 ff ff 	lea    -0x19a0(%rbp),%rax
   1248f:	48 89 85 50 ef ff ff 	mov    %rax,-0x10b0(%rbp)
   12496:	48 8d 05 eb 2b 01 00 	lea    0x12beb(%rip),%rax        # 25088 <g_151>
   1249d:	48 89 85 58 ef ff ff 	mov    %rax,-0x10a8(%rbp)
   124a4:	48 8d 85 60 e6 ff ff 	lea    -0x19a0(%rbp),%rax
   124ab:	48 89 85 60 ef ff ff 	mov    %rax,-0x10a0(%rbp)
   124b2:	48 c7 85 68 ef ff ff 	movq   $0x0,-0x1098(%rbp)
   124b9:	00 00 00 00 
   124bd:	48 8d 05 c4 2b 01 00 	lea    0x12bc4(%rip),%rax        # 25088 <g_151>
   124c4:	48 89 85 70 ef ff ff 	mov    %rax,-0x1090(%rbp)
   124cb:	48 c7 85 78 ef ff ff 	movq   $0x0,-0x1088(%rbp)
   124d2:	00 00 00 00 
   124d6:	48 8d 05 23 2c 01 00 	lea    0x12c23(%rip),%rax        # 25100 <g_709>
   124dd:	48 89 85 80 ef ff ff 	mov    %rax,-0x1080(%rbp)
   124e4:	48 8d 05 15 2c 01 00 	lea    0x12c15(%rip),%rax        # 25100 <g_709>
   124eb:	48 89 85 88 ef ff ff 	mov    %rax,-0x1078(%rbp)
   124f2:	48 8d 05 07 2c 01 00 	lea    0x12c07(%rip),%rax        # 25100 <g_709>
   124f9:	48 89 85 90 ef ff ff 	mov    %rax,-0x1070(%rbp)
   12500:	48 8d 05 f9 2b 01 00 	lea    0x12bf9(%rip),%rax        # 25100 <g_709>
   12507:	48 89 85 98 ef ff ff 	mov    %rax,-0x1068(%rbp)
   1250e:	48 8d 05 eb 2b 01 00 	lea    0x12beb(%rip),%rax        # 25100 <g_709>
   12515:	48 89 85 a0 ef ff ff 	mov    %rax,-0x1060(%rbp)
   1251c:	48 8d 05 dd 2b 01 00 	lea    0x12bdd(%rip),%rax        # 25100 <g_709>
   12523:	48 89 85 a8 ef ff ff 	mov    %rax,-0x1058(%rbp)
   1252a:	48 8d 05 cf 2b 01 00 	lea    0x12bcf(%rip),%rax        # 25100 <g_709>
   12531:	48 89 85 b0 ef ff ff 	mov    %rax,-0x1050(%rbp)
   12538:	48 8d 05 49 2b 01 00 	lea    0x12b49(%rip),%rax        # 25088 <g_151>
   1253f:	48 89 85 b8 ef ff ff 	mov    %rax,-0x1048(%rbp)
   12546:	48 8d 05 3b 2b 01 00 	lea    0x12b3b(%rip),%rax        # 25088 <g_151>
   1254d:	48 89 85 c0 ef ff ff 	mov    %rax,-0x1040(%rbp)
   12554:	48 8d 05 a5 2b 01 00 	lea    0x12ba5(%rip),%rax        # 25100 <g_709>
   1255b:	48 89 85 c8 ef ff ff 	mov    %rax,-0x1038(%rbp)
   12562:	48 8d 05 97 2b 01 00 	lea    0x12b97(%rip),%rax        # 25100 <g_709>
   12569:	48 89 85 d0 ef ff ff 	mov    %rax,-0x1030(%rbp)
   12570:	48 8d 05 89 2b 01 00 	lea    0x12b89(%rip),%rax        # 25100 <g_709>
   12577:	48 89 85 d8 ef ff ff 	mov    %rax,-0x1028(%rbp)
   1257e:	48 8d 05 03 2b 01 00 	lea    0x12b03(%rip),%rax        # 25088 <g_151>
   12585:	48 89 85 e0 ef ff ff 	mov    %rax,-0x1020(%rbp)
   1258c:	48 c7 85 e8 ef ff ff 	movq   $0x0,-0x1018(%rbp)
   12593:	00 00 00 00 
   12597:	48 8d 05 62 2b 01 00 	lea    0x12b62(%rip),%rax        # 25100 <g_709>
   1259e:	48 89 85 f0 ef ff ff 	mov    %rax,-0x1010(%rbp)
   125a5:	48 8d 85 60 e6 ff ff 	lea    -0x19a0(%rbp),%rax
   125ac:	48 89 85 f8 ef ff ff 	mov    %rax,-0x1008(%rbp)
   125b3:	48 8d 05 46 2b 01 00 	lea    0x12b46(%rip),%rax        # 25100 <g_709>
   125ba:	48 89 85 00 f0 ff ff 	mov    %rax,-0x1000(%rbp)
   125c1:	48 8d 05 38 2b 01 00 	lea    0x12b38(%rip),%rax        # 25100 <g_709>
   125c8:	48 89 85 08 f0 ff ff 	mov    %rax,-0xff8(%rbp)
   125cf:	48 8d 05 2a 2b 01 00 	lea    0x12b2a(%rip),%rax        # 25100 <g_709>
   125d6:	48 89 85 10 f0 ff ff 	mov    %rax,-0xff0(%rbp)
   125dd:	48 8d 85 60 e6 ff ff 	lea    -0x19a0(%rbp),%rax
   125e4:	48 89 85 18 f0 ff ff 	mov    %rax,-0xfe8(%rbp)
   125eb:	48 c7 85 20 f0 ff ff 	movq   $0x0,-0xfe0(%rbp)
   125f2:	00 00 00 00 
   125f6:	48 8d 05 8b 2a 01 00 	lea    0x12a8b(%rip),%rax        # 25088 <g_151>
   125fd:	48 89 85 28 f0 ff ff 	mov    %rax,-0xfd8(%rbp)
   12604:	48 8d 05 f5 2a 01 00 	lea    0x12af5(%rip),%rax        # 25100 <g_709>
   1260b:	48 89 85 30 f0 ff ff 	mov    %rax,-0xfd0(%rbp)
   12612:	48 8d 05 6f 2a 01 00 	lea    0x12a6f(%rip),%rax        # 25088 <g_151>
   12619:	48 89 85 38 f0 ff ff 	mov    %rax,-0xfc8(%rbp)
   12620:	48 c7 85 40 f0 ff ff 	movq   $0x0,-0xfc0(%rbp)
   12627:	00 00 00 00 
   1262b:	48 8d 05 ce 2a 01 00 	lea    0x12ace(%rip),%rax        # 25100 <g_709>
   12632:	48 89 85 48 f0 ff ff 	mov    %rax,-0xfb8(%rbp)
   12639:	48 8d 05 c0 2a 01 00 	lea    0x12ac0(%rip),%rax        # 25100 <g_709>
   12640:	48 89 85 50 f0 ff ff 	mov    %rax,-0xfb0(%rbp)
   12647:	48 8d 05 b2 2a 01 00 	lea    0x12ab2(%rip),%rax        # 25100 <g_709>
   1264e:	48 89 85 58 f0 ff ff 	mov    %rax,-0xfa8(%rbp)
   12655:	48 8d 05 a4 2a 01 00 	lea    0x12aa4(%rip),%rax        # 25100 <g_709>
   1265c:	48 89 85 60 f0 ff ff 	mov    %rax,-0xfa0(%rbp)
   12663:	48 c7 85 68 f0 ff ff 	movq   $0x0,-0xf98(%rbp)
   1266a:	00 00 00 00 
   1266e:	48 c7 85 70 f0 ff ff 	movq   $0x0,-0xf90(%rbp)
   12675:	00 00 00 00 
   12679:	48 8d 05 80 2a 01 00 	lea    0x12a80(%rip),%rax        # 25100 <g_709>
   12680:	48 89 85 78 f0 ff ff 	mov    %rax,-0xf88(%rbp)
   12687:	48 8d 85 60 e6 ff ff 	lea    -0x19a0(%rbp),%rax
   1268e:	48 89 85 80 f0 ff ff 	mov    %rax,-0xf80(%rbp)
   12695:	48 8d 85 60 e6 ff ff 	lea    -0x19a0(%rbp),%rax
   1269c:	48 89 85 88 f0 ff ff 	mov    %rax,-0xf78(%rbp)
   126a3:	48 c7 85 90 f0 ff ff 	movq   $0x0,-0xf70(%rbp)
   126aa:	00 00 00 00 
   126ae:	48 8d 05 4b 2a 01 00 	lea    0x12a4b(%rip),%rax        # 25100 <g_709>
   126b5:	48 89 85 98 f0 ff ff 	mov    %rax,-0xf68(%rbp)
   126bc:	48 8d 05 3d 2a 01 00 	lea    0x12a3d(%rip),%rax        # 25100 <g_709>
   126c3:	48 89 85 a0 f0 ff ff 	mov    %rax,-0xf60(%rbp)
   126ca:	48 8d 05 2f 2a 01 00 	lea    0x12a2f(%rip),%rax        # 25100 <g_709>
   126d1:	48 89 85 a8 f0 ff ff 	mov    %rax,-0xf58(%rbp)
   126d8:	48 c7 85 b0 f0 ff ff 	movq   $0x0,-0xf50(%rbp)
   126df:	00 00 00 00 
   126e3:	48 8d 85 60 e6 ff ff 	lea    -0x19a0(%rbp),%rax
   126ea:	48 89 85 b8 f0 ff ff 	mov    %rax,-0xf48(%rbp)
   126f1:	48 8d 05 08 2a 01 00 	lea    0x12a08(%rip),%rax        # 25100 <g_709>
   126f8:	48 89 85 c0 f0 ff ff 	mov    %rax,-0xf40(%rbp)
   126ff:	48 8d 05 82 29 01 00 	lea    0x12982(%rip),%rax        # 25088 <g_151>
   12706:	48 89 85 c8 f0 ff ff 	mov    %rax,-0xf38(%rbp)
   1270d:	48 8d 05 ec 29 01 00 	lea    0x129ec(%rip),%rax        # 25100 <g_709>
   12714:	48 89 85 d0 f0 ff ff 	mov    %rax,-0xf30(%rbp)
   1271b:	48 c7 85 d8 f0 ff ff 	movq   $0x0,-0xf28(%rbp)
   12722:	00 00 00 00 
   12726:	48 8d 05 d3 29 01 00 	lea    0x129d3(%rip),%rax        # 25100 <g_709>
   1272d:	48 89 85 e0 f0 ff ff 	mov    %rax,-0xf20(%rbp)
   12734:	48 c7 85 e8 f0 ff ff 	movq   $0x0,-0xf18(%rbp)
   1273b:	00 00 00 00 
   1273f:	48 c7 85 f0 f0 ff ff 	movq   $0x0,-0xf10(%rbp)
   12746:	00 00 00 00 
   1274a:	48 8d 05 af 29 01 00 	lea    0x129af(%rip),%rax        # 25100 <g_709>
   12751:	48 89 85 f8 f0 ff ff 	mov    %rax,-0xf08(%rbp)
   12758:	48 c7 85 00 f1 ff ff 	movq   $0x0,-0xf00(%rbp)
   1275f:	00 00 00 00 
   12763:	48 8d 05 96 29 01 00 	lea    0x12996(%rip),%rax        # 25100 <g_709>
   1276a:	48 89 85 08 f1 ff ff 	mov    %rax,-0xef8(%rbp)
   12771:	48 c7 85 10 f1 ff ff 	movq   $0x0,-0xef0(%rbp)
   12778:	00 00 00 00 
   1277c:	48 8d 05 7d 29 01 00 	lea    0x1297d(%rip),%rax        # 25100 <g_709>
   12783:	48 89 85 18 f1 ff ff 	mov    %rax,-0xee8(%rbp)
   1278a:	48 8d 05 6f 29 01 00 	lea    0x1296f(%rip),%rax        # 25100 <g_709>
   12791:	48 89 85 20 f1 ff ff 	mov    %rax,-0xee0(%rbp)
   12798:	48 8d 05 e9 28 01 00 	lea    0x128e9(%rip),%rax        # 25088 <g_151>
   1279f:	48 89 85 28 f1 ff ff 	mov    %rax,-0xed8(%rbp)
   127a6:	48 8d 05 53 29 01 00 	lea    0x12953(%rip),%rax        # 25100 <g_709>
   127ad:	48 89 85 30 f1 ff ff 	mov    %rax,-0xed0(%rbp)
   127b4:	48 8d 85 60 e6 ff ff 	lea    -0x19a0(%rbp),%rax
   127bb:	48 89 85 38 f1 ff ff 	mov    %rax,-0xec8(%rbp)
   127c2:	48 8d 05 37 29 01 00 	lea    0x12937(%rip),%rax        # 25100 <g_709>
   127c9:	48 89 85 40 f1 ff ff 	mov    %rax,-0xec0(%rbp)
   127d0:	48 8d 05 b1 28 01 00 	lea    0x128b1(%rip),%rax        # 25088 <g_151>
   127d7:	48 89 85 48 f1 ff ff 	mov    %rax,-0xeb8(%rbp)
   127de:	48 8d 05 1b 29 01 00 	lea    0x1291b(%rip),%rax        # 25100 <g_709>
   127e5:	48 89 85 50 f1 ff ff 	mov    %rax,-0xeb0(%rbp)
   127ec:	48 8d 05 0d 29 01 00 	lea    0x1290d(%rip),%rax        # 25100 <g_709>
   127f3:	48 89 85 58 f1 ff ff 	mov    %rax,-0xea8(%rbp)
   127fa:	48 c7 85 60 f1 ff ff 	movq   $0x0,-0xea0(%rbp)
   12801:	00 00 00 00 
   12805:	48 c7 85 68 f1 ff ff 	movq   $0x0,-0xe98(%rbp)
   1280c:	00 00 00 00 
   12810:	48 8d 05 e9 28 01 00 	lea    0x128e9(%rip),%rax        # 25100 <g_709>
   12817:	48 89 85 70 f1 ff ff 	mov    %rax,-0xe90(%rbp)
   1281e:	48 8d 05 63 28 01 00 	lea    0x12863(%rip),%rax        # 25088 <g_151>
   12825:	48 89 85 78 f1 ff ff 	mov    %rax,-0xe88(%rbp)
   1282c:	48 c7 85 80 f1 ff ff 	movq   $0x0,-0xe80(%rbp)
   12833:	00 00 00 00 
   12837:	48 c7 85 88 f1 ff ff 	movq   $0x0,-0xe78(%rbp)
   1283e:	00 00 00 00 
   12842:	48 8d 05 3f 28 01 00 	lea    0x1283f(%rip),%rax        # 25088 <g_151>
   12849:	48 89 85 90 f1 ff ff 	mov    %rax,-0xe70(%rbp)
   12850:	48 8d 05 a9 28 01 00 	lea    0x128a9(%rip),%rax        # 25100 <g_709>
   12857:	48 89 85 98 f1 ff ff 	mov    %rax,-0xe68(%rbp)
   1285e:	48 c7 85 a0 f1 ff ff 	movq   $0x0,-0xe60(%rbp)
   12865:	00 00 00 00 
   12869:	48 8d 05 90 28 01 00 	lea    0x12890(%rip),%rax        # 25100 <g_709>
   12870:	48 89 85 a8 f1 ff ff 	mov    %rax,-0xe58(%rbp)
   12877:	48 8d 05 0a 28 01 00 	lea    0x1280a(%rip),%rax        # 25088 <g_151>
   1287e:	48 89 85 b0 f1 ff ff 	mov    %rax,-0xe50(%rbp)
   12885:	48 8d 05 fc 27 01 00 	lea    0x127fc(%rip),%rax        # 25088 <g_151>
   1288c:	48 89 85 b8 f1 ff ff 	mov    %rax,-0xe48(%rbp)
   12893:	48 8d 05 66 28 01 00 	lea    0x12866(%rip),%rax        # 25100 <g_709>
   1289a:	48 89 85 c0 f1 ff ff 	mov    %rax,-0xe40(%rbp)
   128a1:	48 8d 05 58 28 01 00 	lea    0x12858(%rip),%rax        # 25100 <g_709>
   128a8:	48 89 85 c8 f1 ff ff 	mov    %rax,-0xe38(%rbp)
   128af:	48 8d 05 4a 28 01 00 	lea    0x1284a(%rip),%rax        # 25100 <g_709>
   128b6:	48 89 85 d0 f1 ff ff 	mov    %rax,-0xe30(%rbp)
   128bd:	48 8d 05 3c 28 01 00 	lea    0x1283c(%rip),%rax        # 25100 <g_709>
   128c4:	48 89 85 d8 f1 ff ff 	mov    %rax,-0xe28(%rbp)
   128cb:	48 8d 05 2e 28 01 00 	lea    0x1282e(%rip),%rax        # 25100 <g_709>
   128d2:	48 89 85 e0 f1 ff ff 	mov    %rax,-0xe20(%rbp)
   128d9:	48 8d 05 a8 27 01 00 	lea    0x127a8(%rip),%rax        # 25088 <g_151>
   128e0:	48 89 85 e8 f1 ff ff 	mov    %rax,-0xe18(%rbp)
   128e7:	48 c7 85 f0 f1 ff ff 	movq   $0x0,-0xe10(%rbp)
   128ee:	00 00 00 00 
   128f2:	48 8d 85 60 e6 ff ff 	lea    -0x19a0(%rbp),%rax
   128f9:	48 89 85 f8 f1 ff ff 	mov    %rax,-0xe08(%rbp)
   12900:	48 8d 05 81 27 01 00 	lea    0x12781(%rip),%rax        # 25088 <g_151>
   12907:	48 89 85 00 f2 ff ff 	mov    %rax,-0xe00(%rbp)
   1290e:	48 8d 85 60 e6 ff ff 	lea    -0x19a0(%rbp),%rax
   12915:	48 89 85 08 f2 ff ff 	mov    %rax,-0xdf8(%rbp)
   1291c:	48 c7 85 10 f2 ff ff 	movq   $0x0,-0xdf0(%rbp)
   12923:	00 00 00 00 
   12927:	48 8d 85 60 e6 ff ff 	lea    -0x19a0(%rbp),%rax
   1292e:	48 89 85 18 f2 ff ff 	mov    %rax,-0xde8(%rbp)
   12935:	48 8d 85 60 e6 ff ff 	lea    -0x19a0(%rbp),%rax
   1293c:	48 89 85 20 f2 ff ff 	mov    %rax,-0xde0(%rbp)
   12943:	48 c7 85 28 f2 ff ff 	movq   $0x0,-0xdd8(%rbp)
   1294a:	00 00 00 00 
   1294e:	48 8d 85 60 e6 ff ff 	lea    -0x19a0(%rbp),%rax
   12955:	48 89 85 30 f2 ff ff 	mov    %rax,-0xdd0(%rbp)
   1295c:	48 8d 05 9d 27 01 00 	lea    0x1279d(%rip),%rax        # 25100 <g_709>
   12963:	48 89 85 38 f2 ff ff 	mov    %rax,-0xdc8(%rbp)
   1296a:	48 8d 05 17 27 01 00 	lea    0x12717(%rip),%rax        # 25088 <g_151>
   12971:	48 89 85 40 f2 ff ff 	mov    %rax,-0xdc0(%rbp)
   12978:	48 8d 05 81 27 01 00 	lea    0x12781(%rip),%rax        # 25100 <g_709>
   1297f:	48 89 85 48 f2 ff ff 	mov    %rax,-0xdb8(%rbp)
   12986:	48 8d 05 73 27 01 00 	lea    0x12773(%rip),%rax        # 25100 <g_709>
   1298d:	48 89 85 50 f2 ff ff 	mov    %rax,-0xdb0(%rbp)
   12994:	48 8d 05 ed 26 01 00 	lea    0x126ed(%rip),%rax        # 25088 <g_151>
   1299b:	48 89 85 58 f2 ff ff 	mov    %rax,-0xda8(%rbp)
   129a2:	48 8d 05 57 27 01 00 	lea    0x12757(%rip),%rax        # 25100 <g_709>
   129a9:	48 89 85 60 f2 ff ff 	mov    %rax,-0xda0(%rbp)
   129b0:	48 8d 85 60 e6 ff ff 	lea    -0x19a0(%rbp),%rax
   129b7:	48 89 85 68 f2 ff ff 	mov    %rax,-0xd98(%rbp)
   129be:	48 8d 05 3b 27 01 00 	lea    0x1273b(%rip),%rax        # 25100 <g_709>
   129c5:	48 89 85 70 f2 ff ff 	mov    %rax,-0xd90(%rbp)
   129cc:	48 8d 05 b5 26 01 00 	lea    0x126b5(%rip),%rax        # 25088 <g_151>
   129d3:	48 89 85 78 f2 ff ff 	mov    %rax,-0xd88(%rbp)
   129da:	48 8d 05 1f 27 01 00 	lea    0x1271f(%rip),%rax        # 25100 <g_709>
   129e1:	48 89 85 80 f2 ff ff 	mov    %rax,-0xd80(%rbp)
   129e8:	48 c7 85 88 f2 ff ff 	movq   $0x0,-0xd78(%rbp)
   129ef:	00 00 00 00 
   129f3:	48 8d 05 8e 26 01 00 	lea    0x1268e(%rip),%rax        # 25088 <g_151>
   129fa:	48 89 85 90 f2 ff ff 	mov    %rax,-0xd70(%rbp)
   12a01:	48 8d 05 f8 26 01 00 	lea    0x126f8(%rip),%rax        # 25100 <g_709>
   12a08:	48 89 85 98 f2 ff ff 	mov    %rax,-0xd68(%rbp)
   12a0f:	48 8d 05 ea 26 01 00 	lea    0x126ea(%rip),%rax        # 25100 <g_709>
   12a16:	48 89 85 a0 f2 ff ff 	mov    %rax,-0xd60(%rbp)
   12a1d:	48 8d 05 dc 26 01 00 	lea    0x126dc(%rip),%rax        # 25100 <g_709>
   12a24:	48 89 85 a8 f2 ff ff 	mov    %rax,-0xd58(%rbp)
   12a2b:	48 8d 05 56 26 01 00 	lea    0x12656(%rip),%rax        # 25088 <g_151>
   12a32:	48 89 85 b0 f2 ff ff 	mov    %rax,-0xd50(%rbp)
   12a39:	48 8d 05 48 26 01 00 	lea    0x12648(%rip),%rax        # 25088 <g_151>
   12a40:	48 89 85 b8 f2 ff ff 	mov    %rax,-0xd48(%rbp)
   12a47:	48 8d 05 b2 26 01 00 	lea    0x126b2(%rip),%rax        # 25100 <g_709>
   12a4e:	48 89 85 c0 f2 ff ff 	mov    %rax,-0xd40(%rbp)
   12a55:	48 8d 85 60 e6 ff ff 	lea    -0x19a0(%rbp),%rax
   12a5c:	48 89 85 c8 f2 ff ff 	mov    %rax,-0xd38(%rbp)
   12a63:	48 8d 05 96 26 01 00 	lea    0x12696(%rip),%rax        # 25100 <g_709>
   12a6a:	48 89 85 d0 f2 ff ff 	mov    %rax,-0xd30(%rbp)
   12a71:	48 8d 05 10 26 01 00 	lea    0x12610(%rip),%rax        # 25088 <g_151>
   12a78:	48 89 85 d8 f2 ff ff 	mov    %rax,-0xd28(%rbp)
   12a7f:	48 8d 05 7a 26 01 00 	lea    0x1267a(%rip),%rax        # 25100 <g_709>
   12a86:	48 89 85 e0 f2 ff ff 	mov    %rax,-0xd20(%rbp)
   12a8d:	48 8d 85 60 e6 ff ff 	lea    -0x19a0(%rbp),%rax
   12a94:	48 89 85 e8 f2 ff ff 	mov    %rax,-0xd18(%rbp)
   12a9b:	48 c7 85 f0 f2 ff ff 	movq   $0x0,-0xd10(%rbp)
   12aa2:	00 00 00 00 
   12aa6:	48 8d 05 53 26 01 00 	lea    0x12653(%rip),%rax        # 25100 <g_709>
   12aad:	48 89 85 f8 f2 ff ff 	mov    %rax,-0xd08(%rbp)
   12ab4:	48 8d 05 45 26 01 00 	lea    0x12645(%rip),%rax        # 25100 <g_709>
   12abb:	48 89 85 00 f3 ff ff 	mov    %rax,-0xd00(%rbp)
   12ac2:	48 8d 05 37 26 01 00 	lea    0x12637(%rip),%rax        # 25100 <g_709>
   12ac9:	48 89 85 08 f3 ff ff 	mov    %rax,-0xcf8(%rbp)
   12ad0:	48 8d 85 20 ef ff ff 	lea    -0x10e0(%rbp),%rax
   12ad7:	48 05 88 00 00 00    	add    $0x88,%rax
   12add:	48 89 85 00 e7 ff ff 	mov    %rax,-0x1900(%rbp)
   12ae4:	c7 85 a8 e5 ff ff 00 	movl   $0x0,-0x1a58(%rbp)
   12aeb:	00 00 00 
   12aee:	eb 1a                	jmp    12b0a <func_25+0xcc7>
   12af0:	8b 85 a8 e5 ff ff    	mov    -0x1a58(%rbp),%eax
   12af6:	48 98                	cltq   
   12af8:	c7 84 85 1c e8 ff ff 	movl   $0xc6a068d9,-0x17e4(%rbp,%rax,4)
   12aff:	d9 68 a0 c6 
   12b03:	83 85 a8 e5 ff ff 01 	addl   $0x1,-0x1a58(%rbp)
   12b0a:	83 bd a8 e5 ff ff 00 	cmpl   $0x0,-0x1a58(%rbp)
   12b11:	7e dd                	jle    12af0 <func_25+0xcad>
   12b13:	48 0f bf 85 94 e5 ff 	movswq -0x1a6c(%rbp),%rax
   12b1a:	ff 
   12b1b:	48 89 c6             	mov    %rax,%rsi
   12b1e:	48 c7 c7 f8 ff ff ff 	mov    $0xfffffffffffffff8,%rdi
   12b25:	e8 7e 8d ff ff       	callq  b8a8 <safe_sub_func_int64_t_s_s>
   12b2a:	48 89 c2             	mov    %rax,%rdx
   12b2d:	48 8b 05 e4 5a 01 00 	mov    0x15ae4(%rip),%rax        # 28618 <g_128>
   12b34:	88 10                	mov    %dl,(%rax)
   12b36:	48 8b 85 58 e6 ff ff 	mov    -0x19a8(%rbp),%rax
   12b3d:	0f b6 10             	movzbl (%rax),%edx
   12b40:	83 ea 01             	sub    $0x1,%edx
   12b43:	88 10                	mov    %dl,(%rax)
   12b45:	48 8b 85 a8 e6 ff ff 	mov    -0x1958(%rbp),%rax
   12b4c:	c7 00 b4 74 fc f0    	movl   $0xf0fc74b4,(%rax)
   12b52:	48 8b 85 a8 e6 ff ff 	mov    -0x1958(%rbp),%rax
   12b59:	8b 00                	mov    (%rax),%eax
   12b5b:	be fd ff ff ff       	mov    $0xfffffffd,%esi
   12b60:	89 c7                	mov    %eax,%edi
   12b62:	e8 be 93 ff ff       	callq  bf25 <safe_div_func_uint32_t_u_u>
   12b67:	89 c0                	mov    %eax,%eax
   12b69:	48 39 85 78 e5 ff ff 	cmp    %rax,-0x1a88(%rbp)
   12b70:	8b 85 64 e5 ff ff    	mov    -0x1a9c(%rbp),%eax
   12b76:	0f be d8             	movsbl %al,%ebx
   12b79:	48 8b 05 98 5a 01 00 	mov    0x15a98(%rip),%rax        # 28618 <g_128>
   12b80:	0f b6 00             	movzbl (%rax),%eax
   12b83:	44 0f be e0          	movsbl %al,%r12d
   12b87:	48 8b 05 d2 62 01 00 	mov    0x162d2(%rip),%rax        # 28e60 <g_1176>
   12b8e:	48 8b 00             	mov    (%rax),%rax
   12b91:	0f b7 00             	movzwl (%rax),%eax
   12b94:	98                   	cwtl   
   12b95:	89 c6                	mov    %eax,%esi
   12b97:	bf 01 00 00 00       	mov    $0x1,%edi
   12b9c:	e8 54 88 ff ff       	callq  b3f5 <safe_mul_func_int16_t_s_s>
   12ba1:	48 8b 05 18 5a 01 00 	mov    0x15a18(%rip),%rax        # 285c0 <g_91>
   12ba8:	8b 00                	mov    (%rax),%eax
   12baa:	83 bd 64 e5 ff ff 00 	cmpl   $0x0,-0x1a9c(%rbp)
   12bb1:	0f 9e c0             	setle  %al
   12bb4:	0f b6 c0             	movzbl %al,%eax
   12bb7:	44 89 e6             	mov    %r12d,%esi
   12bba:	89 c7                	mov    %eax,%edi
   12bbc:	e8 31 86 ff ff       	callq  b1f2 <safe_sub_func_int8_t_s_s>
   12bc1:	48 8b 15 50 5a 01 00 	mov    0x15a50(%rip),%rdx        # 28618 <g_128>
   12bc8:	0f b6 12             	movzbl (%rdx),%edx
   12bcb:	21 d0                	and    %edx,%eax
   12bcd:	0f be c0             	movsbl %al,%eax
   12bd0:	89 de                	mov    %ebx,%esi
   12bd2:	89 c7                	mov    %eax,%edi
   12bd4:	e8 39 86 ff ff       	callq  b212 <safe_mul_func_int8_t_s_s>
   12bd9:	89 c2                	mov    %eax,%edx
   12bdb:	48 8b 85 78 e5 ff ff 	mov    -0x1a88(%rbp),%rax
   12be2:	31 d0                	xor    %edx,%eax
   12be4:	0f b6 d0             	movzbl %al,%edx
   12be7:	0f b7 85 94 e5 ff ff 	movzwl -0x1a6c(%rbp),%eax
   12bee:	0f b6 c0             	movzbl %al,%eax
   12bf1:	89 d6                	mov    %edx,%esi
   12bf3:	89 c7                	mov    %eax,%edi
   12bf5:	e8 60 8f ff ff       	callq  bb5a <safe_add_func_uint8_t_u_u>
   12bfa:	84 c0                	test   %al,%al
   12bfc:	0f 84 e2 02 00 00    	je     12ee4 <func_25+0x10a1>
   12c02:	c7 85 dc e5 ff ff ff 	movl   $0xffffffff,-0x1a24(%rbp)
   12c09:	ff ff ff 
   12c0c:	c7 85 e0 e5 ff ff cd 	movl   $0xb60f18cd,-0x1a20(%rbp)
   12c13:	18 0f b6 
   12c16:	c7 85 e4 e5 ff ff f8 	movl   $0xfffffff8,-0x1a1c(%rbp)
   12c1d:	ff ff ff 
   12c20:	48 b8 47 e4 77 46 7a 	movabs $0x10cd837a4677e447,%rax
   12c27:	83 cd 10 
   12c2a:	48 89 85 08 e7 ff ff 	mov    %rax,-0x18f8(%rbp)
   12c31:	c6 85 8d e5 ff ff 01 	movb   $0x1,-0x1a73(%rbp)
   12c38:	66 c7 85 98 e5 ff ff 	movw   $0x1,-0x1a68(%rbp)
   12c3f:	01 00 
   12c41:	c7 85 e8 e5 ff ff 01 	movl   $0x1,-0x1a18(%rbp)
   12c48:	00 00 00 
   12c4b:	48 c7 85 90 e6 ff ff 	movq   $0x0,-0x1970(%rbp)
   12c52:	00 00 00 00 
   12c56:	48 8d 85 90 e6 ff ff 	lea    -0x1970(%rbp),%rax
   12c5d:	48 89 85 10 e7 ff ff 	mov    %rax,-0x18f0(%rbp)
   12c64:	48 c7 85 10 f3 ff ff 	movq   $0xfffffffffffffffc,-0xcf0(%rbp)
   12c6b:	fc ff ff ff 
   12c6f:	48 c7 85 18 f3 ff ff 	movq   $0xfffffffffffffffb,-0xce8(%rbp)
   12c76:	fb ff ff ff 
   12c7a:	48 c7 85 20 f3 ff ff 	movq   $0x1,-0xce0(%rbp)
   12c81:	01 00 00 00 
   12c85:	48 c7 85 28 f3 ff ff 	movq   $0x1,-0xcd8(%rbp)
   12c8c:	01 00 00 00 
   12c90:	48 bb 17 c0 11 5b 14 	movabs $0x8ef1e2145b11c017,%rbx
   12c97:	e2 f1 8e 
   12c9a:	48 89 9d 30 f3 ff ff 	mov    %rbx,-0xcd0(%rbp)
   12ca1:	48 89 9d 38 f3 ff ff 	mov    %rbx,-0xcc8(%rbp)
   12ca8:	48 c7 85 40 f3 ff ff 	movq   $0xfffffffffffffffc,-0xcc0(%rbp)
   12caf:	fc ff ff ff 
   12cb3:	48 c7 85 48 f3 ff ff 	movq   $0x1,-0xcb8(%rbp)
   12cba:	01 00 00 00 
   12cbe:	48 b8 47 0b 20 25 7c 	movabs $0xacfe627c25200b47,%rax
   12cc5:	62 fe ac 
   12cc8:	48 89 85 50 f3 ff ff 	mov    %rax,-0xcb0(%rbp)
   12ccf:	48 c7 85 58 f3 ff ff 	movq   $0xfffffffffffffffb,-0xca8(%rbp)
   12cd6:	fb ff ff ff 
   12cda:	48 89 85 60 f3 ff ff 	mov    %rax,-0xca0(%rbp)
   12ce1:	48 c7 85 68 f3 ff ff 	movq   $0xfffffffffffffffc,-0xc98(%rbp)
   12ce8:	fc ff ff ff 
   12cec:	48 c7 85 70 f3 ff ff 	movq   $0x1,-0xc90(%rbp)
   12cf3:	01 00 00 00 
   12cf7:	48 89 85 78 f3 ff ff 	mov    %rax,-0xc88(%rbp)
   12cfe:	48 89 85 80 f3 ff ff 	mov    %rax,-0xc80(%rbp)
   12d05:	48 c7 85 88 f3 ff ff 	movq   $0x1,-0xc78(%rbp)
   12d0c:	01 00 00 00 
   12d10:	48 c7 85 90 f3 ff ff 	movq   $0xfffffffffffffffc,-0xc70(%rbp)
   12d17:	fc ff ff ff 
   12d1b:	48 89 85 98 f3 ff ff 	mov    %rax,-0xc68(%rbp)
   12d22:	48 c7 85 a0 f3 ff ff 	movq   $0xfffffffffffffffb,-0xc60(%rbp)
   12d29:	fb ff ff ff 
   12d2d:	48 89 85 a8 f3 ff ff 	mov    %rax,-0xc58(%rbp)
   12d34:	48 89 85 b0 f3 ff ff 	mov    %rax,-0xc50(%rbp)
   12d3b:	48 89 9d b8 f3 ff ff 	mov    %rbx,-0xc48(%rbp)
   12d42:	48 c7 85 c0 f3 ff ff 	movq   $0xfffffffffffffffb,-0xc40(%rbp)
   12d49:	fb ff ff ff 
   12d4d:	48 c7 85 c8 f3 ff ff 	movq   $0xfffffffffffffffb,-0xc38(%rbp)
   12d54:	fb ff ff ff 
   12d58:	48 c7 85 d0 f3 ff ff 	movq   $0xfffffffffffffffc,-0xc30(%rbp)
   12d5f:	fc ff ff ff 
   12d63:	48 c7 85 d8 f3 ff ff 	movq   $0xfffffffffffffffc,-0xc28(%rbp)
   12d6a:	fc ff ff ff 
   12d6e:	48 89 85 e0 f3 ff ff 	mov    %rax,-0xc20(%rbp)
   12d75:	48 c7 85 e8 f3 ff ff 	movq   $0xfffffffffffffffb,-0xc18(%rbp)
   12d7c:	fb ff ff ff 
   12d80:	48 8d 85 68 e6 ff ff 	lea    -0x1998(%rbp),%rax
   12d87:	48 89 85 18 e7 ff ff 	mov    %rax,-0x18e8(%rbp)
   12d8e:	48 8d 85 60 e6 ff ff 	lea    -0x19a0(%rbp),%rax
   12d95:	48 89 85 20 e7 ff ff 	mov    %rax,-0x18e0(%rbp)
   12d9c:	c7 85 ec e5 ff ff 02 	movl   $0x2,-0x1a14(%rbp)
   12da3:	00 00 00 
   12da6:	48 8d 05 cb 22 01 00 	lea    0x122cb(%rip),%rax        # 25078 <g_64>
   12dad:	48 89 85 28 e7 ff ff 	mov    %rax,-0x18d8(%rbp)
   12db4:	c7 85 f0 e5 ff ff a9 	movl   $0x2338d8a9,-0x1a10(%rbp)
   12dbb:	d8 38 23 
   12dbe:	c7 85 f4 e5 ff ff 03 	movl   $0x3,-0x1a0c(%rbp)
   12dc5:	00 00 00 
   12dc8:	48 8d 05 19 80 01 00 	lea    0x18019(%rip),%rax        # 2ade8 <g_96>
   12dcf:	48 89 85 98 e6 ff ff 	mov    %rax,-0x1968(%rbp)
   12dd6:	48 8d 85 98 e6 ff ff 	lea    -0x1968(%rbp),%rax
   12ddd:	48 89 85 70 e9 ff ff 	mov    %rax,-0x1690(%rbp)
   12de4:	48 8d 85 98 e6 ff ff 	lea    -0x1968(%rbp),%rax
   12deb:	48 89 85 78 e9 ff ff 	mov    %rax,-0x1688(%rbp)
   12df2:	48 8d 85 98 e6 ff ff 	lea    -0x1968(%rbp),%rax
   12df9:	48 89 85 80 e9 ff ff 	mov    %rax,-0x1680(%rbp)
   12e00:	48 8d 85 98 e6 ff ff 	lea    -0x1968(%rbp),%rax
   12e07:	48 89 85 88 e9 ff ff 	mov    %rax,-0x1678(%rbp)
   12e0e:	48 8d 85 70 e9 ff ff 	lea    -0x1690(%rbp),%rax
   12e15:	48 83 c0 18          	add    $0x18,%rax
   12e19:	48 89 85 30 e7 ff ff 	mov    %rax,-0x18d0(%rbp)
   12e20:	c7 85 f8 e5 ff ff fb 	movl   $0xfffffffb,-0x1a08(%rbp)
   12e27:	ff ff ff 
   12e2a:	c7 85 ac e5 ff ff 00 	movl   $0x0,-0x1a54(%rbp)
   12e31:	00 00 00 
   12e34:	eb 46                	jmp    12e7c <func_25+0x1039>
   12e36:	c7 85 b0 e5 ff ff 00 	movl   $0x0,-0x1a50(%rbp)
   12e3d:	00 00 00 
   12e40:	eb 2a                	jmp    12e6c <func_25+0x1029>
   12e42:	8b 85 b0 e5 ff ff    	mov    -0x1a50(%rbp),%eax
   12e48:	48 63 d0             	movslq %eax,%rdx
   12e4b:	8b 85 ac e5 ff ff    	mov    -0x1a54(%rbp),%eax
   12e51:	48 98                	cltq   
   12e53:	48 01 d0             	add    %rdx,%rax
   12e56:	48 8d 15 0b 23 01 00 	lea    0x1230b(%rip),%rdx        # 25168 <g_1156>
   12e5d:	48 89 94 c5 80 e8 ff 	mov    %rdx,-0x1780(%rbp,%rax,8)
   12e64:	ff 
   12e65:	83 85 b0 e5 ff ff 01 	addl   $0x1,-0x1a50(%rbp)
   12e6c:	83 bd b0 e5 ff ff 00 	cmpl   $0x0,-0x1a50(%rbp)
   12e73:	7e cd                	jle    12e42 <func_25+0xfff>
   12e75:	83 85 ac e5 ff ff 01 	addl   $0x1,-0x1a54(%rbp)
   12e7c:	83 bd ac e5 ff ff 00 	cmpl   $0x0,-0x1a54(%rbp)
   12e83:	7e b1                	jle    12e36 <func_25+0xff3>
   12e85:	c7 85 ac e5 ff ff 00 	movl   $0x0,-0x1a54(%rbp)
   12e8c:	00 00 00 
   12e8f:	eb 1a                	jmp    12eab <func_25+0x1068>
   12e91:	8b 85 ac e5 ff ff    	mov    -0x1a54(%rbp),%eax
   12e97:	48 98                	cltq   
   12e99:	c7 84 85 10 ea ff ff 	movl   $0x87c4ab4c,-0x15f0(%rbp,%rax,4)
   12ea0:	4c ab c4 87 
   12ea4:	83 85 ac e5 ff ff 01 	addl   $0x1,-0x1a54(%rbp)
   12eab:	83 bd ac e5 ff ff 08 	cmpl   $0x8,-0x1a54(%rbp)
   12eb2:	7e dd                	jle    12e91 <func_25+0x104e>
   12eb4:	c7 85 ac e5 ff ff 00 	movl   $0x0,-0x1a54(%rbp)
   12ebb:	00 00 00 
   12ebe:	eb 19                	jmp    12ed9 <func_25+0x1096>
   12ec0:	8b 85 ac e5 ff ff    	mov    -0x1a54(%rbp),%eax
   12ec6:	48 98                	cltq   
   12ec8:	66 c7 84 45 e0 e8 ff 	movw   $0x4a09,-0x1720(%rbp,%rax,2)
   12ecf:	ff 09 4a 
   12ed2:	83 85 ac e5 ff ff 01 	addl   $0x1,-0x1a54(%rbp)
   12ed9:	83 bd ac e5 ff ff 04 	cmpl   $0x4,-0x1a54(%rbp)
   12ee0:	7e de                	jle    12ec0 <func_25+0x107d>
   12ee2:	eb 11                	jmp    12ef5 <func_25+0x10b2>
   12ee4:	48 8b 05 cd 59 01 00 	mov    0x159cd(%rip),%rax        # 288b8 <g_425>
   12eeb:	48 8b 95 70 e5 ff ff 	mov    -0x1a90(%rbp),%rdx
   12ef2:	48 89 10             	mov    %rdx,(%rax)
   12ef5:	48 c7 05 88 21 01 00 	movq   $0xffffffffffffffec,0x12188(%rip)        # 25088 <g_151>
   12efc:	ec ff ff ff 
   12f00:	e9 bc 0b 00 00       	jmpq   13ac1 <func_25+0x1c7e>
   12f05:	48 8d 05 a4 59 01 00 	lea    0x159a4(%rip),%rax        # 288b0 <g_426>
   12f0c:	48 89 85 80 e6 ff ff 	mov    %rax,-0x1980(%rbp)
   12f13:	48 8d 85 80 e6 ff ff 	lea    -0x1980(%rbp),%rax
   12f1a:	48 89 85 98 e7 ff ff 	mov    %rax,-0x1868(%rbp)
   12f21:	48 8d 05 38 5f 01 00 	lea    0x15f38(%rip),%rax        # 28e60 <g_1176>
   12f28:	48 89 85 88 e6 ff ff 	mov    %rax,-0x1978(%rbp)
   12f2f:	48 8d 85 88 e6 ff ff 	lea    -0x1978(%rbp),%rax
   12f36:	48 89 85 90 e6 ff ff 	mov    %rax,-0x1970(%rbp)
   12f3d:	c7 85 44 e6 ff ff fe 	movl   $0xfffffffe,-0x19bc(%rbp)
   12f44:	ff ff ff 
   12f47:	48 c7 85 a0 e7 ff ff 	movq   $0x0,-0x1860(%rbp)
   12f4e:	00 00 00 00 
   12f52:	c7 85 48 e6 ff ff 74 	movl   $0x9864a174,-0x19b8(%rbp)
   12f59:	a1 64 98 
   12f5c:	c7 85 e0 e8 ff ff fc 	movl   $0xfffffffc,-0x1720(%rbp)
   12f63:	ff ff ff 
   12f66:	c7 85 e4 e8 ff ff fc 	movl   $0xfffffffc,-0x171c(%rbp)
   12f6d:	ff ff ff 
   12f70:	c7 85 e8 e8 ff ff 01 	movl   $0x1,-0x1718(%rbp)
   12f77:	00 00 00 
   12f7a:	c7 85 ec e8 ff ff a3 	movl   $0xe3dc9da3,-0x1714(%rbp)
   12f81:	9d dc e3 
   12f84:	c7 85 f0 e8 ff ff b3 	movl   $0x7c8105b3,-0x1710(%rbp)
   12f8b:	05 81 7c 
   12f8e:	c7 85 f4 e8 ff ff 01 	movl   $0x1,-0x170c(%rbp)
   12f95:	00 00 00 
   12f98:	c7 85 f8 e8 ff ff b3 	movl   $0x7c8105b3,-0x1708(%rbp)
   12f9f:	05 81 7c 
   12fa2:	c7 85 fc e8 ff ff a3 	movl   $0xe3dc9da3,-0x1704(%rbp)
   12fa9:	9d dc e3 
   12fac:	c7 85 00 e9 ff ff 01 	movl   $0x1,-0x1700(%rbp)
   12fb3:	00 00 00 
   12fb6:	c7 85 04 e9 ff ff fc 	movl   $0xfffffffc,-0x16fc(%rbp)
   12fbd:	ff ff ff 
   12fc0:	c7 85 08 e9 ff ff b3 	movl   $0x7c8105b3,-0x16f8(%rbp)
   12fc7:	05 81 7c 
   12fca:	c7 85 0c e9 ff ff fc 	movl   $0xfffffffc,-0x16f4(%rbp)
   12fd1:	ff ff ff 
   12fd4:	c7 85 10 e9 ff ff ff 	movl   $0xffffffff,-0x16f0(%rbp)
   12fdb:	ff ff ff 
   12fde:	c7 85 14 e9 ff ff b3 	movl   $0x7c8105b3,-0x16ec(%rbp)
   12fe5:	05 81 7c 
   12fe8:	c7 85 18 e9 ff ff d3 	movl   $0x88bc01d3,-0x16e8(%rbp)
   12fef:	01 bc 88 
   12ff2:	c7 85 1c e9 ff ff d3 	movl   $0x88bc01d3,-0x16e4(%rbp)
   12ff9:	01 bc 88 
   12ffc:	c7 85 20 e9 ff ff b3 	movl   $0x7c8105b3,-0x16e0(%rbp)
   13003:	05 81 7c 
   13006:	c7 85 24 e9 ff ff ff 	movl   $0xffffffff,-0x16dc(%rbp)
   1300d:	ff ff ff 
   13010:	c7 85 28 e9 ff ff fc 	movl   $0xfffffffc,-0x16d8(%rbp)
   13017:	ff ff ff 
   1301a:	c7 85 2c e9 ff ff b3 	movl   $0x7c8105b3,-0x16d4(%rbp)
   13021:	05 81 7c 
   13024:	c7 85 b4 e5 ff ff 01 	movl   $0x1,-0x1a4c(%rbp)
   1302b:	00 00 00 
   1302e:	c7 05 2c 29 01 00 ec 	movl   $0xffffffec,0x1292c(%rip)        # 25964 <g_1549>
   13035:	ff ff ff 
   13038:	e9 63 0a 00 00       	jmpq   13aa0 <func_25+0x1c5d>
   1303d:	c7 85 a0 e5 ff ff 06 	movl   $0xc8de6106,-0x1a60(%rbp)
   13044:	61 de c8 
   13047:	48 b8 7e 75 cf b1 7e 	movabs $0x8102d77eb1cf757e,%rax
   1304e:	d7 02 81 
   13051:	48 89 85 98 e6 ff ff 	mov    %rax,-0x1968(%rbp)
   13058:	48 8d 85 88 e6 ff ff 	lea    -0x1978(%rbp),%rax
   1305f:	48 89 85 a8 e7 ff ff 	mov    %rax,-0x1858(%rbp)
   13066:	48 c7 85 b0 e7 ff ff 	movq   $0x0,-0x1850(%rbp)
   1306d:	00 00 00 00 
   13071:	48 8d 85 9c e5 ff ff 	lea    -0x1a64(%rbp),%rax
   13078:	48 89 85 b8 e7 ff ff 	mov    %rax,-0x1848(%rbp)
   1307f:	48 8d 85 a0 e5 ff ff 	lea    -0x1a60(%rbp),%rax
   13086:	48 89 85 c0 e7 ff ff 	mov    %rax,-0x1840(%rbp)
   1308d:	48 8d 85 20 e8 ff ff 	lea    -0x17e0(%rbp),%rax
   13094:	48 83 c0 08          	add    $0x8,%rax
   13098:	48 89 85 c8 e7 ff ff 	mov    %rax,-0x1838(%rbp)
   1309f:	48 8d 05 ce 28 01 00 	lea    0x128ce(%rip),%rax        # 25974 <g_1997>
   130a6:	48 89 85 d0 e7 ff ff 	mov    %rax,-0x1830(%rbp)
   130ad:	48 c7 85 d8 e7 ff ff 	movq   $0x0,-0x1828(%rbp)
   130b4:	00 00 00 00 
   130b8:	48 c7 85 e0 e7 ff ff 	movq   $0x0,-0x1820(%rbp)
   130bf:	00 00 00 00 
   130c3:	48 8d 85 9c e5 ff ff 	lea    -0x1a64(%rbp),%rax
   130ca:	48 89 85 e8 e7 ff ff 	mov    %rax,-0x1818(%rbp)
   130d1:	48 8d 05 30 20 01 00 	lea    0x12030(%rip),%rax        # 25108 <g_801>
   130d8:	48 89 85 80 e8 ff ff 	mov    %rax,-0x1780(%rbp)
   130df:	48 8d 05 22 20 01 00 	lea    0x12022(%rip),%rax        # 25108 <g_801>
   130e6:	48 89 85 88 e8 ff ff 	mov    %rax,-0x1778(%rbp)
   130ed:	48 8d 05 14 20 01 00 	lea    0x12014(%rip),%rax        # 25108 <g_801>
   130f4:	48 89 85 90 e8 ff ff 	mov    %rax,-0x1770(%rbp)
   130fb:	48 8d 05 06 20 01 00 	lea    0x12006(%rip),%rax        # 25108 <g_801>
   13102:	48 89 85 98 e8 ff ff 	mov    %rax,-0x1768(%rbp)
   13109:	48 8d 05 f8 1f 01 00 	lea    0x11ff8(%rip),%rax        # 25108 <g_801>
   13110:	48 89 85 a0 e8 ff ff 	mov    %rax,-0x1760(%rbp)
   13117:	48 8d 05 ea 1f 01 00 	lea    0x11fea(%rip),%rax        # 25108 <g_801>
   1311e:	48 89 85 a8 e8 ff ff 	mov    %rax,-0x1758(%rbp)
   13125:	48 8d 05 dc 1f 01 00 	lea    0x11fdc(%rip),%rax        # 25108 <g_801>
   1312c:	48 89 85 b0 e8 ff ff 	mov    %rax,-0x1750(%rbp)
   13133:	48 8d 05 ce 1f 01 00 	lea    0x11fce(%rip),%rax        # 25108 <g_801>
   1313a:	48 89 85 b8 e8 ff ff 	mov    %rax,-0x1748(%rbp)
   13141:	c7 85 b8 e5 ff ff 00 	movl   $0x0,-0x1a48(%rbp)
   13148:	00 00 00 
   1314b:	eb 1b                	jmp    13168 <func_25+0x1325>
   1314d:	8b 85 b8 e5 ff ff    	mov    -0x1a48(%rbp),%eax
   13153:	48 98                	cltq   
   13155:	48 c7 84 c5 40 e8 ff 	movq   $0x0,-0x17c0(%rbp,%rax,8)
   1315c:	ff 00 00 00 00 
   13161:	83 85 b8 e5 ff ff 01 	addl   $0x1,-0x1a48(%rbp)
   13168:	83 bd b8 e5 ff ff 07 	cmpl   $0x7,-0x1a48(%rbp)
   1316f:	7e dc                	jle    1314d <func_25+0x130a>
   13171:	c7 85 a4 e5 ff ff 00 	movl   $0x0,-0x1a5c(%rbp)
   13178:	00 00 00 
   1317b:	eb 3a                	jmp    131b7 <func_25+0x1374>
   1317d:	66 c7 05 e4 27 01 00 	movw   $0x0,0x127e4(%rip)        # 2596a <g_1653>
   13184:	00 00 
   13186:	90                   	nop
   13187:	0f b7 05 dc 27 01 00 	movzwl 0x127dc(%rip),%eax        # 2596a <g_1653>
   1318e:	66 83 f8 36          	cmp    $0x36,%ax
   13192:	76 1c                	jbe    131b0 <func_25+0x136d>
   13194:	48 8b 85 70 e5 ff ff 	mov    -0x1a90(%rbp),%rax
   1319b:	8b 00                	mov    (%rax),%eax
   1319d:	85 c0                	test   %eax,%eax
   1319f:	75 0e                	jne    131af <func_25+0x136c>
   131a1:	48 8b 85 70 e5 ff ff 	mov    -0x1a90(%rbp),%rax
   131a8:	8b 00                	mov    (%rax),%eax
   131aa:	e9 1a 20 00 00       	jmpq   151c9 <func_25+0x3386>
   131af:	90                   	nop
   131b0:	83 85 a4 e5 ff ff 01 	addl   $0x1,-0x1a5c(%rbp)
   131b7:	83 bd a4 e5 ff ff 1f 	cmpl   $0x1f,-0x1a5c(%rbp)
   131be:	77 bd                	ja     1317d <func_25+0x133a>
   131c0:	48 8b 85 70 e5 ff ff 	mov    -0x1a90(%rbp),%rax
   131c7:	8b 00                	mov    (%rax),%eax
   131c9:	89 c3                	mov    %eax,%ebx
   131cb:	48 83 bd 98 e7 ff ff 	cmpq   $0x0,-0x1868(%rbp)
   131d2:	00 
   131d3:	0f 94 c0             	sete   %al
   131d6:	0f b6 c0             	movzbl %al,%eax
   131d9:	39 85 64 e5 ff ff    	cmp    %eax,-0x1a9c(%rbp)
   131df:	74 0a                	je     131eb <func_25+0x13a8>
   131e1:	8b 85 1c e8 ff ff    	mov    -0x17e4(%rbp),%eax
   131e7:	85 c0                	test   %eax,%eax
   131e9:	74 07                	je     131f2 <func_25+0x13af>
   131eb:	b8 01 00 00 00       	mov    $0x1,%eax
   131f0:	eb 05                	jmp    131f7 <func_25+0x13b4>
   131f2:	b8 00 00 00 00       	mov    $0x0,%eax
   131f7:	48 63 d0             	movslq %eax,%rdx
   131fa:	48 8b 85 78 e5 ff ff 	mov    -0x1a88(%rbp),%rax
   13201:	48 89 d6             	mov    %rdx,%rsi
   13204:	48 89 c7             	mov    %rax,%rdi
   13207:	e8 74 8e ff ff       	callq  c080 <safe_mod_func_uint64_t_u_u>
   1320c:	89 c1                	mov    %eax,%ecx
   1320e:	48 8b 05 ab 56 01 00 	mov    0x156ab(%rip),%rax        # 288c0 <g_513>
   13215:	48 8b 10             	mov    (%rax),%rdx
   13218:	48 8d 85 70 e5 ff ff 	lea    -0x1a90(%rbp),%rax
   1321f:	48 39 c2             	cmp    %rax,%rdx
   13222:	0f 94 c0             	sete   %al
   13225:	0f b6 c0             	movzbl %al,%eax
   13228:	89 ce                	mov    %ecx,%esi
   1322a:	89 c7                	mov    %eax,%edi
   1322c:	e8 f4 8c ff ff       	callq  bf25 <safe_div_func_uint32_t_u_u>
   13231:	39 c3                	cmp    %eax,%ebx
   13233:	74 1f                	je     13254 <func_25+0x1411>
   13235:	48 8b 85 70 e5 ff ff 	mov    -0x1a90(%rbp),%rax
   1323c:	c7 00 08 00 00 00    	movl   $0x8,(%rax)
   13242:	80 bd 8c e5 ff ff 00 	cmpb   $0x0,-0x1a74(%rbp)
   13249:	0f 84 2c 08 00 00    	je     13a7b <func_25+0x1c38>
   1324f:	e9 5b 08 00 00       	jmpq   13aaf <func_25+0x1c6c>
   13254:	48 c7 85 f0 e7 ff ff 	movq   $0x0,-0x1810(%rbp)
   1325b:	00 00 00 00 
   1325f:	48 8d 85 78 e6 ff ff 	lea    -0x1988(%rbp),%rax
   13266:	48 89 85 f8 e7 ff ff 	mov    %rax,-0x1808(%rbp)
   1326d:	48 8d 85 90 e6 ff ff 	lea    -0x1970(%rbp),%rax
   13274:	48 89 85 10 f3 ff ff 	mov    %rax,-0xcf0(%rbp)
   1327b:	48 8d 05 b6 7b 01 00 	lea    0x17bb6(%rip),%rax        # 2ae38 <g_1937>
   13282:	48 89 85 18 f3 ff ff 	mov    %rax,-0xce8(%rbp)
   13289:	48 8d 05 a8 7b 01 00 	lea    0x17ba8(%rip),%rax        # 2ae38 <g_1937>
   13290:	48 89 85 20 f3 ff ff 	mov    %rax,-0xce0(%rbp)
   13297:	48 8d 85 90 e6 ff ff 	lea    -0x1970(%rbp),%rax
   1329e:	48 89 85 28 f3 ff ff 	mov    %rax,-0xcd8(%rbp)
   132a5:	48 8d 05 8c 7b 01 00 	lea    0x17b8c(%rip),%rax        # 2ae38 <g_1937>
   132ac:	48 89 85 30 f3 ff ff 	mov    %rax,-0xcd0(%rbp)
   132b3:	48 8d 05 7e 7b 01 00 	lea    0x17b7e(%rip),%rax        # 2ae38 <g_1937>
   132ba:	48 89 85 38 f3 ff ff 	mov    %rax,-0xcc8(%rbp)
   132c1:	48 8d 05 70 7b 01 00 	lea    0x17b70(%rip),%rax        # 2ae38 <g_1937>
   132c8:	48 89 85 40 f3 ff ff 	mov    %rax,-0xcc0(%rbp)
   132cf:	48 8d 85 90 e6 ff ff 	lea    -0x1970(%rbp),%rax
   132d6:	48 89 85 48 f3 ff ff 	mov    %rax,-0xcb8(%rbp)
   132dd:	48 8d 05 54 7b 01 00 	lea    0x17b54(%rip),%rax        # 2ae38 <g_1937>
   132e4:	48 89 85 50 f3 ff ff 	mov    %rax,-0xcb0(%rbp)
   132eb:	48 8d 05 46 7b 01 00 	lea    0x17b46(%rip),%rax        # 2ae38 <g_1937>
   132f2:	48 89 85 58 f3 ff ff 	mov    %rax,-0xca8(%rbp)
   132f9:	48 8d 05 38 7b 01 00 	lea    0x17b38(%rip),%rax        # 2ae38 <g_1937>
   13300:	48 89 85 60 f3 ff ff 	mov    %rax,-0xca0(%rbp)
   13307:	48 8d 85 90 e6 ff ff 	lea    -0x1970(%rbp),%rax
   1330e:	48 89 85 68 f3 ff ff 	mov    %rax,-0xc98(%rbp)
   13315:	48 8d 05 1c 7b 01 00 	lea    0x17b1c(%rip),%rax        # 2ae38 <g_1937>
   1331c:	48 89 85 70 f3 ff ff 	mov    %rax,-0xc90(%rbp)
   13323:	48 8d 05 0e 7b 01 00 	lea    0x17b0e(%rip),%rax        # 2ae38 <g_1937>
   1332a:	48 89 85 78 f3 ff ff 	mov    %rax,-0xc88(%rbp)
   13331:	48 8d 85 90 e6 ff ff 	lea    -0x1970(%rbp),%rax
   13338:	48 89 85 80 f3 ff ff 	mov    %rax,-0xc80(%rbp)
   1333f:	48 8d 05 f2 7a 01 00 	lea    0x17af2(%rip),%rax        # 2ae38 <g_1937>
   13346:	48 89 85 88 f3 ff ff 	mov    %rax,-0xc78(%rbp)
   1334d:	48 c7 85 90 f3 ff ff 	movq   $0x0,-0xc70(%rbp)
   13354:	00 00 00 00 
   13358:	48 c7 85 98 f3 ff ff 	movq   $0x0,-0xc68(%rbp)
   1335f:	00 00 00 00 
   13363:	48 8d 05 ce 7a 01 00 	lea    0x17ace(%rip),%rax        # 2ae38 <g_1937>
   1336a:	48 89 85 a0 f3 ff ff 	mov    %rax,-0xc60(%rbp)
   13371:	48 c7 85 a8 f3 ff ff 	movq   $0x0,-0xc58(%rbp)
   13378:	00 00 00 00 
   1337c:	48 8d 85 90 e6 ff ff 	lea    -0x1970(%rbp),%rax
   13383:	48 89 85 b0 f3 ff ff 	mov    %rax,-0xc50(%rbp)
   1338a:	48 8d 85 90 e6 ff ff 	lea    -0x1970(%rbp),%rax
   13391:	48 89 85 b8 f3 ff ff 	mov    %rax,-0xc48(%rbp)
   13398:	48 c7 85 c0 f3 ff ff 	movq   $0x0,-0xc40(%rbp)
   1339f:	00 00 00 00 
   133a3:	48 8d 85 90 e6 ff ff 	lea    -0x1970(%rbp),%rax
   133aa:	48 89 85 c8 f3 ff ff 	mov    %rax,-0xc38(%rbp)
   133b1:	48 8d 85 90 e6 ff ff 	lea    -0x1970(%rbp),%rax
   133b8:	48 89 85 d0 f3 ff ff 	mov    %rax,-0xc30(%rbp)
   133bf:	48 c7 85 d8 f3 ff ff 	movq   $0x0,-0xc28(%rbp)
   133c6:	00 00 00 00 
   133ca:	48 8d 05 67 7a 01 00 	lea    0x17a67(%rip),%rax        # 2ae38 <g_1937>
   133d1:	48 89 85 e0 f3 ff ff 	mov    %rax,-0xc20(%rbp)
   133d8:	48 c7 85 e8 f3 ff ff 	movq   $0x0,-0xc18(%rbp)
   133df:	00 00 00 00 
   133e3:	48 c7 85 f0 f3 ff ff 	movq   $0x0,-0xc10(%rbp)
   133ea:	00 00 00 00 
   133ee:	48 8d 05 43 7a 01 00 	lea    0x17a43(%rip),%rax        # 2ae38 <g_1937>
   133f5:	48 89 85 f8 f3 ff ff 	mov    %rax,-0xc08(%rbp)
   133fc:	c7 85 4c e6 ff ff bb 	movl   $0x215aefbb,-0x19b4(%rbp)
   13403:	ef 5a 21 
   13406:	48 8b 05 33 52 01 00 	mov    0x15233(%rip),%rax        # 28640 <g_357>
   1340d:	0f b7 00             	movzwl (%rax),%eax
   13410:	44 0f b7 e0          	movzwl %ax,%r12d
   13414:	8b 85 64 e5 ff ff    	mov    -0x1a9c(%rbp),%eax
   1341a:	0f be d8             	movsbl %al,%ebx
   1341d:	48 8b 85 a8 e6 ff ff 	mov    -0x1958(%rbp),%rax
   13424:	8b 00                	mov    (%rax),%eax
   13426:	25 69 b9 0a 0d       	and    $0xd0ab969,%eax
   1342b:	89 c2                	mov    %eax,%edx
   1342d:	48 8b 85 a8 e6 ff ff 	mov    -0x1958(%rbp),%rax
   13434:	89 10                	mov    %edx,(%rax)
   13436:	48 8b 95 50 e8 ff ff 	mov    -0x17b0(%rbp),%rdx
   1343d:	48 8b 05 54 74 01 00 	mov    0x17454(%rip),%rax        # 2a898 <g_2628>
   13444:	48 39 c2             	cmp    %rax,%rdx
   13447:	0f 95 c0             	setne  %al
   1344a:	0f b6 c0             	movzbl %al,%eax
   1344d:	8b 95 a0 e5 ff ff    	mov    -0x1a60(%rbp),%edx
   13453:	31 d0                	xor    %edx,%eax
   13455:	0f b7 c0             	movzwl %ax,%eax
   13458:	be 5b a1 00 00       	mov    $0xa15b,%esi
   1345d:	89 c7                	mov    %eax,%edi
   1345f:	e8 9b 88 ff ff       	callq  bcff <safe_add_func_uint16_t_u_u>
   13464:	66 85 c0             	test   %ax,%ax
   13467:	74 07                	je     13470 <func_25+0x162d>
   13469:	b8 01 00 00 00       	mov    $0x1,%eax
   1346e:	eb 05                	jmp    13475 <func_25+0x1632>
   13470:	b8 00 00 00 00       	mov    $0x0,%eax
   13475:	3b 85 64 e5 ff ff    	cmp    -0x1a9c(%rbp),%eax
   1347b:	0f 9c c0             	setl   %al
   1347e:	0f b6 d0             	movzbl %al,%edx
   13481:	48 8b 85 f8 e7 ff ff 	mov    -0x1808(%rbp),%rax
   13488:	48 89 10             	mov    %rdx,(%rax)
   1348b:	48 8b 85 f8 e7 ff ff 	mov    -0x1808(%rbp),%rax
   13492:	48 8b 00             	mov    (%rax),%rax
   13495:	48 85 c0             	test   %rax,%rax
   13498:	75 09                	jne    134a3 <func_25+0x1660>
   1349a:	0f b6 05 bf 24 01 00 	movzbl 0x124bf(%rip),%eax        # 25960 <g_1516>
   134a1:	84 c0                	test   %al,%al
   134a3:	83 bd 64 e5 ff ff 00 	cmpl   $0x0,-0x1a9c(%rbp)
   134aa:	0f 9f c0             	setg   %al
   134ad:	0f b6 d0             	movzbl %al,%edx
   134b0:	0f b7 05 2d 1c 01 00 	movzwl 0x11c2d(%rip),%eax        # 250e4 <g_256+0x24>
   134b7:	0f b6 c0             	movzbl %al,%eax
   134ba:	89 d6                	mov    %edx,%esi
   134bc:	89 c7                	mov    %eax,%edi
   134be:	e8 b5 86 ff ff       	callq  bb78 <safe_sub_func_uint8_t_u_u>
   134c3:	3c 29                	cmp    $0x29,%al
   134c5:	0f 97 c2             	seta   %dl
   134c8:	48 8b 05 89 59 01 00 	mov    0x15989(%rip),%rax        # 28e58 <g_1177>
   134cf:	0f b6 d2             	movzbl %dl,%edx
   134d2:	66 89 10             	mov    %dx,(%rax)
   134d5:	0f b7 00             	movzwl (%rax),%eax
   134d8:	66 85 c0             	test   %ax,%ax
   134db:	74 11                	je     134ee <func_25+0x16ab>
   134dd:	8b 85 a0 e5 ff ff    	mov    -0x1a60(%rbp),%eax
   134e3:	85 c0                	test   %eax,%eax
   134e5:	74 07                	je     134ee <func_25+0x16ab>
   134e7:	b8 01 00 00 00       	mov    $0x1,%eax
   134ec:	eb 05                	jmp    134f3 <func_25+0x16b0>
   134ee:	b8 00 00 00 00       	mov    $0x0,%eax
   134f3:	0f be c0             	movsbl %al,%eax
   134f6:	89 de                	mov    %ebx,%esi
   134f8:	89 c7                	mov    %eax,%edi
   134fa:	e8 13 7d ff ff       	callq  b212 <safe_mul_func_int8_t_s_s>
   134ff:	0f be c0             	movsbl %al,%eax
   13502:	41 39 c4             	cmp    %eax,%r12d
   13505:	0f 94 c0             	sete   %al
   13508:	0f b6 c0             	movzbl %al,%eax
   1350b:	48 39 85 78 e5 ff ff 	cmp    %rax,-0x1a88(%rbp)
   13512:	0f 95 c0             	setne  %al
   13515:	0f b6 c0             	movzbl %al,%eax
   13518:	48 63 d0             	movslq %eax,%rdx
   1351b:	48 8b 85 98 e6 ff ff 	mov    -0x1968(%rbp),%rax
   13522:	48 09 d0             	or     %rdx,%rax
   13525:	48 89 85 98 e6 ff ff 	mov    %rax,-0x1968(%rbp)
   1352c:	48 8b 85 98 e6 ff ff 	mov    -0x1968(%rbp),%rax
   13533:	89 c3                	mov    %eax,%ebx
   13535:	0f b7 05 ac e8 00 00 	movzwl 0xe8ac(%rip),%eax        # 21de8 <l_2649.4700>
   1353c:	0f b7 c0             	movzwl %ax,%eax
   1353f:	39 85 64 e5 ff ff    	cmp    %eax,-0x1a9c(%rbp)
   13545:	0f 9c c0             	setl   %al
   13548:	0f b6 d0             	movzbl %al,%edx
   1354b:	48 8b 85 90 e6 ff ff 	mov    -0x1970(%rbp),%rax
   13552:	48 89 85 e0 e6 ff ff 	mov    %rax,-0x1920(%rbp)
   13559:	48 8b 85 e0 e6 ff ff 	mov    -0x1920(%rbp),%rax
   13560:	48 3b 85 a8 e7 ff ff 	cmp    -0x1858(%rbp),%rax
   13567:	0f 95 c0             	setne  %al
   1356a:	0f b6 c0             	movzbl %al,%eax
   1356d:	48 89 d6             	mov    %rdx,%rsi
   13570:	48 89 c7             	mov    %rax,%rdi
   13573:	e8 c9 82 ff ff       	callq  b841 <safe_add_func_int64_t_s_s>
   13578:	48 8b 05 49 53 01 00 	mov    0x15349(%rip),%rax        # 288c8 <g_512>
   1357f:	48 8b 00             	mov    (%rax),%rax
   13582:	48 85 c0             	test   %rax,%rax
   13585:	8b 85 4c e6 ff ff    	mov    -0x19b4(%rbp),%eax
   1358b:	48 98                	cltq   
   1358d:	48 39 85 78 e5 ff ff 	cmp    %rax,-0x1a88(%rbp)
   13594:	0f 93 c0             	setae  %al
   13597:	0f b6 c0             	movzbl %al,%eax
   1359a:	be 00 00 00 00       	mov    $0x0,%esi
   1359f:	89 c7                	mov    %eax,%edi
   135a1:	e8 59 87 ff ff       	callq  bcff <safe_add_func_uint16_t_u_u>
   135a6:	8b 85 64 e5 ff ff    	mov    -0x1a9c(%rbp),%eax
   135ac:	83 f0 01             	xor    $0x1,%eax
   135af:	0f b6 c0             	movzbl %al,%eax
   135b2:	be 3f 00 00 00       	mov    $0x3f,%esi
   135b7:	89 c7                	mov    %eax,%edi
   135b9:	e8 f0 85 ff ff       	callq  bbae <safe_mod_func_uint8_t_u_u>
   135be:	be e2 00 00 00       	mov    $0xe2,%esi
   135c3:	bf 01 00 00 00       	mov    $0x1,%edi
   135c8:	e8 8d 85 ff ff       	callq  bb5a <safe_add_func_uint8_t_u_u>
   135cd:	48 8b 85 98 e6 ff ff 	mov    -0x1968(%rbp),%rax
   135d4:	f7 d0                	not    %eax
   135d6:	89 de                	mov    %ebx,%esi
   135d8:	89 c7                	mov    %eax,%edi
   135da:	e8 26 80 ff ff       	callq  b605 <safe_sub_func_int32_t_s_s>
   135df:	85 c0                	test   %eax,%eax
   135e1:	0f 84 58 04 00 00    	je     13a3f <func_25+0x1bfc>
   135e7:	c6 85 90 e5 ff ff 87 	movb   $0x87,-0x1a70(%rbp)
   135ee:	c7 85 70 e9 ff ff fe 	movl   $0xfffffffe,-0x1690(%rbp)
   135f5:	ff ff ff 
   135f8:	c7 85 74 e9 ff ff fe 	movl   $0xfffffffe,-0x168c(%rbp)
   135ff:	ff ff ff 
   13602:	c7 85 78 e9 ff ff 2c 	movl   $0x3fabe22c,-0x1688(%rbp)
   13609:	e2 ab 3f 
   1360c:	c7 85 7c e9 ff ff f8 	movl   $0xfffffff8,-0x1684(%rbp)
   13613:	ff ff ff 
   13616:	c7 85 80 e9 ff ff 2c 	movl   $0x3fabe22c,-0x1680(%rbp)
   1361d:	e2 ab 3f 
   13620:	c7 85 84 e9 ff ff fe 	movl   $0xfffffffe,-0x167c(%rbp)
   13627:	ff ff ff 
   1362a:	c7 85 88 e9 ff ff fe 	movl   $0xfffffffe,-0x1678(%rbp)
   13631:	ff ff ff 
   13634:	c7 85 8c e9 ff ff 2c 	movl   $0x3fabe22c,-0x1674(%rbp)
   1363b:	e2 ab 3f 
   1363e:	c7 85 90 e9 ff ff 09 	movl   $0x9,-0x1670(%rbp)
   13645:	00 00 00 
   13648:	c7 85 94 e9 ff ff 2c 	movl   $0x3fabe22c,-0x166c(%rbp)
   1364f:	e2 ab 3f 
   13652:	c7 85 98 e9 ff ff 2c 	movl   $0x3fabe22c,-0x1668(%rbp)
   13659:	e2 ab 3f 
   1365c:	c7 85 9c e9 ff ff 09 	movl   $0x9,-0x1664(%rbp)
   13663:	00 00 00 
   13666:	c7 85 a0 e9 ff ff 01 	movl   $0x1,-0x1660(%rbp)
   1366d:	00 00 00 
   13670:	c7 85 a4 e9 ff ff 09 	movl   $0x9,-0x165c(%rbp)
   13677:	00 00 00 
   1367a:	c7 85 a8 e9 ff ff 2c 	movl   $0x3fabe22c,-0x1658(%rbp)
   13681:	e2 ab 3f 
   13684:	c7 85 ac e9 ff ff 2c 	movl   $0x3fabe22c,-0x1654(%rbp)
   1368b:	e2 ab 3f 
   1368e:	c7 85 b0 e9 ff ff 2c 	movl   $0x3fabe22c,-0x1650(%rbp)
   13695:	e2 ab 3f 
   13698:	c7 85 b4 e9 ff ff 01 	movl   $0x1,-0x164c(%rbp)
   1369f:	00 00 00 
   136a2:	c7 85 b8 e9 ff ff f8 	movl   $0xfffffff8,-0x1648(%rbp)
   136a9:	ff ff ff 
   136ac:	c7 85 bc e9 ff ff f8 	movl   $0xfffffff8,-0x1644(%rbp)
   136b3:	ff ff ff 
   136b6:	c7 85 c0 e9 ff ff 01 	movl   $0x1,-0x1640(%rbp)
   136bd:	00 00 00 
   136c0:	c7 85 c4 e9 ff ff 2c 	movl   $0x3fabe22c,-0x163c(%rbp)
   136c7:	e2 ab 3f 
   136ca:	c7 85 c8 e9 ff ff 01 	movl   $0x1,-0x1638(%rbp)
   136d1:	00 00 00 
   136d4:	c7 85 cc e9 ff ff f8 	movl   $0xfffffff8,-0x1634(%rbp)
   136db:	ff ff ff 
   136de:	c7 85 d0 e9 ff ff 09 	movl   $0x9,-0x1630(%rbp)
   136e5:	00 00 00 
   136e8:	c7 85 d4 e9 ff ff 01 	movl   $0x1,-0x162c(%rbp)
   136ef:	00 00 00 
   136f2:	c7 85 d8 e9 ff ff 09 	movl   $0x9,-0x1628(%rbp)
   136f9:	00 00 00 
   136fc:	c7 85 dc e9 ff ff 2c 	movl   $0x3fabe22c,-0x1624(%rbp)
   13703:	e2 ab 3f 
   13706:	c7 85 e0 e9 ff ff 2c 	movl   $0x3fabe22c,-0x1620(%rbp)
   1370d:	e2 ab 3f 
   13710:	c7 85 e4 e9 ff ff 09 	movl   $0x9,-0x161c(%rbp)
   13717:	00 00 00 
   1371a:	c7 85 e8 e9 ff ff 01 	movl   $0x1,-0x1618(%rbp)
   13721:	00 00 00 
   13724:	c7 85 ec e9 ff ff 09 	movl   $0x9,-0x1614(%rbp)
   1372b:	00 00 00 
   1372e:	c7 85 54 e6 ff ff ff 	movl   $0xffffffff,-0x19ac(%rbp)
   13735:	ff ff ff 
   13738:	48 8d 85 98 e6 ff ff 	lea    -0x1968(%rbp),%rax
   1373f:	48 89 85 00 e8 ff ff 	mov    %rax,-0x1800(%rbp)
   13746:	48 8d 85 70 e9 ff ff 	lea    -0x1690(%rbp),%rax
   1374d:	48 83 c0 14          	add    $0x14,%rax
   13751:	48 89 85 08 e8 ff ff 	mov    %rax,-0x17f8(%rbp)
   13758:	c7 85 a4 e5 ff ff 00 	movl   $0x0,-0x1a5c(%rbp)
   1375f:	00 00 00 
   13762:	e9 8e 01 00 00       	jmpq   138f5 <func_25+0x1ab2>
   13767:	48 8d 05 0e 19 01 00 	lea    0x1190e(%rip),%rax        # 2507c <g_65>
   1376e:	48 89 85 10 e8 ff ff 	mov    %rax,-0x17f0(%rbp)
   13775:	48 c7 85 10 ea ff ff 	movq   $0x0,-0x15f0(%rbp)
   1377c:	00 00 00 00 
   13780:	48 c7 85 18 ea ff ff 	movq   $0x0,-0x15e8(%rbp)
   13787:	00 00 00 00 
   1378b:	48 8d 05 e2 21 01 00 	lea    0x121e2(%rip),%rax        # 25974 <g_1997>
   13792:	48 89 85 20 ea ff ff 	mov    %rax,-0x15e0(%rbp)
   13799:	48 8d 85 a0 e5 ff ff 	lea    -0x1a60(%rbp),%rax
   137a0:	48 89 85 28 ea ff ff 	mov    %rax,-0x15d8(%rbp)
   137a7:	48 8d 85 20 e8 ff ff 	lea    -0x17e0(%rbp),%rax
   137ae:	48 83 c0 04          	add    $0x4,%rax
   137b2:	48 89 85 30 ea ff ff 	mov    %rax,-0x15d0(%rbp)
   137b9:	48 8d 05 48 19 01 00 	lea    0x11948(%rip),%rax        # 25108 <g_801>
   137c0:	48 89 85 38 ea ff ff 	mov    %rax,-0x15c8(%rbp)
   137c7:	48 8d 85 20 e8 ff ff 	lea    -0x17e0(%rbp),%rax
   137ce:	48 83 c0 04          	add    $0x4,%rax
   137d2:	48 89 85 40 ea ff ff 	mov    %rax,-0x15c0(%rbp)
   137d9:	48 c7 85 48 ea ff ff 	movq   $0x0,-0x15b8(%rbp)
   137e0:	00 00 00 00 
   137e4:	48 c7 85 50 ea ff ff 	movq   $0x0,-0x15b0(%rbp)
   137eb:	00 00 00 00 
   137ef:	48 8d 85 20 e8 ff ff 	lea    -0x17e0(%rbp),%rax
   137f6:	48 83 c0 04          	add    $0x4,%rax
   137fa:	48 89 85 58 ea ff ff 	mov    %rax,-0x15a8(%rbp)
   13801:	48 8d 85 20 e8 ff ff 	lea    -0x17e0(%rbp),%rax
   13808:	48 83 c0 04          	add    $0x4,%rax
   1380c:	48 89 85 60 ea ff ff 	mov    %rax,-0x15a0(%rbp)
   13813:	48 8d 05 ee 18 01 00 	lea    0x118ee(%rip),%rax        # 25108 <g_801>
   1381a:	48 89 85 68 ea ff ff 	mov    %rax,-0x1598(%rbp)
   13821:	48 8d 05 e0 18 01 00 	lea    0x118e0(%rip),%rax        # 25108 <g_801>
   13828:	48 89 85 70 ea ff ff 	mov    %rax,-0x1590(%rbp)
   1382f:	48 8d 85 20 e8 ff ff 	lea    -0x17e0(%rbp),%rax
   13836:	48 83 c0 04          	add    $0x4,%rax
   1383a:	48 89 85 78 ea ff ff 	mov    %rax,-0x1588(%rbp)
   13841:	48 c7 85 80 ea ff ff 	movq   $0x0,-0x1580(%rbp)
   13848:	00 00 00 00 
   1384c:	48 8d 85 a0 e5 ff ff 	lea    -0x1a60(%rbp),%rax
   13853:	48 89 85 88 ea ff ff 	mov    %rax,-0x1578(%rbp)
   1385a:	48 8d 85 20 e8 ff ff 	lea    -0x17e0(%rbp),%rax
   13861:	48 83 c0 04          	add    $0x4,%rax
   13865:	48 89 85 90 ea ff ff 	mov    %rax,-0x1570(%rbp)
   1386c:	48 8d 05 01 21 01 00 	lea    0x12101(%rip),%rax        # 25974 <g_1997>
   13873:	48 89 85 98 ea ff ff 	mov    %rax,-0x1568(%rbp)
   1387a:	48 8d 85 20 e8 ff ff 	lea    -0x17e0(%rbp),%rax
   13881:	48 83 c0 04          	add    $0x4,%rax
   13885:	48 89 85 a0 ea ff ff 	mov    %rax,-0x1560(%rbp)
   1388c:	48 8d 85 a0 e5 ff ff 	lea    -0x1a60(%rbp),%rax
   13893:	48 89 85 a8 ea ff ff 	mov    %rax,-0x1558(%rbp)
   1389a:	48 8d 05 67 18 01 00 	lea    0x11867(%rip),%rax        # 25108 <g_801>
   138a1:	48 89 85 b0 ea ff ff 	mov    %rax,-0x1550(%rbp)
   138a8:	48 c7 85 b8 ea ff ff 	movq   $0x0,-0x1548(%rbp)
   138af:	00 00 00 00 
   138b3:	48 8d 05 4e 18 01 00 	lea    0x1184e(%rip),%rax        # 25108 <g_801>
   138ba:	48 89 85 c0 ea ff ff 	mov    %rax,-0x1540(%rbp)
   138c1:	48 c7 85 c8 ea ff ff 	movq   $0x0,-0x1538(%rbp)
   138c8:	00 00 00 00 
   138cc:	48 c7 85 d0 ea ff ff 	movq   $0x0,-0x1530(%rbp)
   138d3:	00 00 00 00 
   138d7:	c6 85 91 e5 ff ff 10 	movb   $0x10,-0x1a6f(%rbp)
   138de:	0f b6 85 91 e5 ff ff 	movzbl -0x1a6f(%rbp),%eax
   138e5:	83 c0 01             	add    $0x1,%eax
   138e8:	88 85 91 e5 ff ff    	mov    %al,-0x1a6f(%rbp)
   138ee:	83 85 a4 e5 ff ff 01 	addl   $0x1,-0x1a5c(%rbp)
   138f5:	83 bd a4 e5 ff ff 34 	cmpl   $0x34,-0x1a5c(%rbp)
   138fc:	0f 87 65 fe ff ff    	ja     13767 <func_25+0x1924>
   13902:	48 8b 85 68 e5 ff ff 	mov    -0x1a98(%rbp),%rax
   13909:	8b 00                	mov    (%rax),%eax
   1390b:	4c 63 e8             	movslq %eax,%r13
   1390e:	8b 85 54 e6 ff ff    	mov    -0x19ac(%rbp),%eax
   13914:	0f b7 d8             	movzwl %ax,%ebx
   13917:	0f b7 05 4c 20 01 00 	movzwl 0x1204c(%rip),%eax        # 2596a <g_1653>
   1391e:	44 0f b7 e0          	movzwl %ax,%r12d
   13922:	8b 85 4c e6 ff ff    	mov    -0x19b4(%rbp),%eax
   13928:	0f b6 c0             	movzbl %al,%eax
   1392b:	89 c6                	mov    %eax,%esi
   1392d:	bf e6 00 00 00       	mov    $0xe6,%edi
   13932:	e8 a4 82 ff ff       	callq  bbdb <safe_div_func_uint8_t_u_u>
   13937:	8b 85 a0 e5 ff ff    	mov    -0x1a60(%rbp),%eax
   1393d:	48 98                	cltq   
   1393f:	83 e0 01             	and    $0x1,%eax
   13942:	48 89 c2             	mov    %rax,%rdx
   13945:	8b 85 dc e9 ff ff    	mov    -0x1624(%rbp),%eax
   1394b:	31 d0                	xor    %edx,%eax
   1394d:	89 85 dc e9 ff ff    	mov    %eax,-0x1624(%rbp)
   13953:	8b 85 dc e9 ff ff    	mov    -0x1624(%rbp),%eax
   13959:	23 85 54 e6 ff ff    	and    -0x19ac(%rbp),%eax
   1395f:	44 89 e6             	mov    %r12d,%esi
   13962:	89 c7                	mov    %eax,%edi
   13964:	e8 4f 85 ff ff       	callq  beb8 <safe_add_func_uint32_t_u_u>
   13969:	8b 95 4c e6 ff ff    	mov    -0x19b4(%rbp),%edx
   1396f:	39 d0                	cmp    %edx,%eax
   13971:	0f 96 c0             	setbe  %al
   13974:	0f b6 d0             	movzbl %al,%edx
   13977:	48 0f be 85 90 e5 ff 	movsbq -0x1a70(%rbp),%rax
   1397e:	ff 
   1397f:	48 89 d6             	mov    %rdx,%rsi
   13982:	48 89 c7             	mov    %rax,%rdi
   13985:	e8 c1 86 ff ff       	callq  c04b <safe_sub_func_uint64_t_u_u>
   1398a:	83 bd 4c e6 ff ff 00 	cmpl   $0x0,-0x19b4(%rbp)
   13991:	74 11                	je     139a4 <func_25+0x1b61>
   13993:	48 83 bd 78 e5 ff ff 	cmpq   $0x0,-0x1a88(%rbp)
   1399a:	00 
   1399b:	74 07                	je     139a4 <func_25+0x1b61>
   1399d:	b8 01 00 00 00       	mov    $0x1,%eax
   139a2:	eb 05                	jmp    139a9 <func_25+0x1b66>
   139a4:	b8 00 00 00 00       	mov    $0x0,%eax
   139a9:	0f b7 c0             	movzwl %ax,%eax
   139ac:	89 de                	mov    %ebx,%esi
   139ae:	89 c7                	mov    %eax,%edi
   139b0:	e8 88 83 ff ff       	callq  bd3d <safe_mul_func_uint16_t_u_u>
   139b5:	83 c8 6d             	or     $0x6d,%eax
   139b8:	0f b7 c0             	movzwl %ax,%eax
   139bb:	49 39 c5             	cmp    %rax,%r13
   139be:	0f 94 c0             	sete   %al
   139c1:	0f b6 d0             	movzbl %al,%edx
   139c4:	8b 85 4c e6 ff ff    	mov    -0x19b4(%rbp),%eax
   139ca:	89 d6                	mov    %edx,%esi
   139cc:	89 c7                	mov    %eax,%edi
   139ce:	e8 32 7c ff ff       	callq  b605 <safe_sub_func_int32_t_s_s>
   139d3:	89 c2                	mov    %eax,%edx
   139d5:	48 8b 05 e4 4b 01 00 	mov    0x14be4(%rip),%rax        # 285c0 <g_91>
   139dc:	8b 08                	mov    (%rax),%ecx
   139de:	48 8b 05 db 4b 01 00 	mov    0x14bdb(%rip),%rax        # 285c0 <g_91>
   139e5:	31 ca                	xor    %ecx,%edx
   139e7:	89 10                	mov    %edx,(%rax)
   139e9:	48 8b 85 00 e8 ff ff 	mov    -0x1800(%rbp),%rax
   139f0:	48 c7 00 01 00 00 00 	movq   $0x1,(%rax)
   139f7:	48 8b 85 70 e5 ff ff 	mov    -0x1a90(%rbp),%rax
   139fe:	c7 00 fe ff ff ff    	movl   $0xfffffffe,(%rax)
   13a04:	48 8b 85 e8 e6 ff ff 	mov    -0x1918(%rbp),%rax
   13a0b:	48 3b 85 a0 e7 ff ff 	cmp    -0x1860(%rbp),%rax
   13a12:	74 09                	je     13a1d <func_25+0x1bda>
   13a14:	80 bd 90 e5 ff ff 00 	cmpb   $0x0,-0x1a70(%rbp)
   13a1b:	74 07                	je     13a24 <func_25+0x1be1>
   13a1d:	ba 01 00 00 00       	mov    $0x1,%edx
   13a22:	eb 05                	jmp    13a29 <func_25+0x1be6>
   13a24:	ba 00 00 00 00       	mov    $0x0,%edx
   13a29:	48 8b 85 08 e8 ff ff 	mov    -0x17f8(%rbp),%rax
   13a30:	8b 00                	mov    (%rax),%eax
   13a32:	09 c2                	or     %eax,%edx
   13a34:	48 8b 85 08 e8 ff ff 	mov    -0x17f8(%rbp),%rax
   13a3b:	89 10                	mov    %edx,(%rax)
   13a3d:	eb 3c                	jmp    13a7b <func_25+0x1c38>
   13a3f:	c7 05 a3 16 01 00 00 	movl   $0x0,0x116a3(%rip)        # 250ec <g_362>
   13a46:	00 00 00 
   13a49:	eb 22                	jmp    13a6d <func_25+0x1c2a>
   13a4b:	c7 85 50 e6 ff ff 00 	movl   $0x0,-0x19b0(%rbp)
   13a52:	00 00 00 
   13a55:	83 bd 50 e6 ff ff 00 	cmpl   $0x0,-0x19b0(%rbp)
   13a5c:	75 1c                	jne    13a7a <func_25+0x1c37>
   13a5e:	8b 05 88 16 01 00    	mov    0x11688(%rip),%eax        # 250ec <g_362>
   13a64:	83 c0 01             	add    $0x1,%eax
   13a67:	89 05 7f 16 01 00    	mov    %eax,0x1167f(%rip)        # 250ec <g_362>
   13a6d:	8b 05 79 16 01 00    	mov    0x11679(%rip),%eax        # 250ec <g_362>
   13a73:	83 f8 02             	cmp    $0x2,%eax
   13a76:	76 d3                	jbe    13a4b <func_25+0x1c08>
   13a78:	eb 01                	jmp    13a7b <func_25+0x1c38>
   13a7a:	90                   	nop
   13a7b:	83 85 b4 e5 ff ff 01 	addl   $0x1,-0x1a4c(%rbp)
   13a82:	8b 05 dc 1e 01 00    	mov    0x11edc(%rip),%eax        # 25964 <g_1549>
   13a88:	0f b6 c0             	movzbl %al,%eax
   13a8b:	be 04 00 00 00       	mov    $0x4,%esi
   13a90:	89 c7                	mov    %eax,%edi
   13a92:	e8 c3 80 ff ff       	callq  bb5a <safe_add_func_uint8_t_u_u>
   13a97:	0f b6 c0             	movzbl %al,%eax
   13a9a:	89 05 c4 1e 01 00    	mov    %eax,0x11ec4(%rip)        # 25964 <g_1549>
   13aa0:	8b 05 be 1e 01 00    	mov    0x11ebe(%rip),%eax        # 25964 <g_1549>
   13aa6:	83 f8 1f             	cmp    $0x1f,%eax
   13aa9:	0f 84 8e f5 ff ff    	je     1303d <func_25+0x11fa>
   13aaf:	48 8b 05 d2 15 01 00 	mov    0x115d2(%rip),%rax        # 25088 <g_151>
   13ab6:	48 83 c0 01          	add    $0x1,%rax
   13aba:	48 89 05 c7 15 01 00 	mov    %rax,0x115c7(%rip)        # 25088 <g_151>
   13ac1:	48 8b 05 c0 15 01 00 	mov    0x115c0(%rip),%rax        # 25088 <g_151>
   13ac8:	48 83 f8 f7          	cmp    $0xfffffffffffffff7,%rax
   13acc:	0f 8c 33 f4 ff ff    	jl     12f05 <func_25+0x10c2>
   13ad2:	48 8b 05 3f 4b 01 00 	mov    0x14b3f(%rip),%rax        # 28618 <g_128>
   13ad9:	0f b6 00             	movzbl (%rax),%eax
   13adc:	0f b6 d8             	movzbl %al,%ebx
   13adf:	48 8b 85 c8 e6 ff ff 	mov    -0x1938(%rbp),%rax
   13ae6:	0f b7 00             	movzwl (%rax),%eax
   13ae9:	66 35 5d 3b          	xor    $0x3b5d,%ax
   13aed:	89 c2                	mov    %eax,%edx
   13aef:	48 8b 85 c8 e6 ff ff 	mov    -0x1938(%rbp),%rax
   13af6:	66 89 10             	mov    %dx,(%rax)
   13af9:	48 8b 85 c8 e6 ff ff 	mov    -0x1938(%rbp),%rax
   13b00:	0f b7 00             	movzwl (%rax),%eax
   13b03:	0f b7 d0             	movzwl %ax,%edx
   13b06:	48 8b 05 4b 53 01 00 	mov    0x1534b(%rip),%rax        # 28e58 <g_1177>
   13b0d:	0f b7 08             	movzwl (%rax),%ecx
   13b10:	83 e9 01             	sub    $0x1,%ecx
   13b13:	66 89 08             	mov    %cx,(%rax)
   13b16:	0f b7 00             	movzwl (%rax),%eax
   13b19:	0f b7 c0             	movzwl %ax,%eax
   13b1c:	89 d6                	mov    %edx,%esi
   13b1e:	89 c7                	mov    %eax,%edi
   13b20:	e8 18 82 ff ff       	callq  bd3d <safe_mul_func_uint16_t_u_u>
   13b25:	0f b7 c0             	movzwl %ax,%eax
   13b28:	48 39 85 78 e5 ff ff 	cmp    %rax,-0x1a88(%rbp)
   13b2f:	0f 96 c0             	setbe  %al
   13b32:	0f b6 d0             	movzbl %al,%edx
   13b35:	48 8b 85 f8 e6 ff ff 	mov    -0x1908(%rbp),%rax
   13b3c:	66 89 10             	mov    %dx,(%rax)
   13b3f:	0f b7 85 96 e5 ff ff 	movzwl -0x1a6a(%rbp),%eax
   13b46:	48 39 85 78 e5 ff ff 	cmp    %rax,-0x1a88(%rbp)
   13b4d:	0f 96 c0             	setbe  %al
   13b50:	0f b6 c0             	movzbl %al,%eax
   13b53:	48 0b 85 78 e5 ff ff 	or     -0x1a88(%rbp),%rax
   13b5a:	48 85 c0             	test   %rax,%rax
   13b5d:	74 07                	je     13b66 <func_25+0x1d23>
   13b5f:	b8 01 00 00 00       	mov    $0x1,%eax
   13b64:	eb 05                	jmp    13b6b <func_25+0x1d28>
   13b66:	b8 00 00 00 00       	mov    $0x0,%eax
   13b6b:	48 98                	cltq   
   13b6d:	48 39 85 78 e5 ff ff 	cmp    %rax,-0x1a88(%rbp)
   13b74:	0f 93 c0             	setae  %al
   13b77:	0f b6 c0             	movzbl %al,%eax
   13b7a:	23 85 64 e5 ff ff    	and    -0x1a9c(%rbp),%eax
   13b80:	89 c2                	mov    %eax,%edx
   13b82:	48 8b 05 37 4a 01 00 	mov    0x14a37(%rip),%rax        # 285c0 <g_91>
   13b89:	8b 00                	mov    (%rax),%eax
   13b8b:	89 d6                	mov    %edx,%esi
   13b8d:	89 c7                	mov    %eax,%edi
   13b8f:	e8 6b 7b ff ff       	callq  b6ff <safe_div_func_int32_t_s_s>
   13b94:	39 85 64 e5 ff ff    	cmp    %eax,-0x1a9c(%rbp)
   13b9a:	0f 9d c0             	setge  %al
   13b9d:	0f b6 c0             	movzbl %al,%eax
   13ba0:	89 de                	mov    %ebx,%esi
   13ba2:	89 c7                	mov    %eax,%edi
   13ba4:	e8 05 80 ff ff       	callq  bbae <safe_mod_func_uint8_t_u_u>
   13ba9:	0f b6 c0             	movzbl %al,%eax
   13bac:	21 85 d4 e5 ff ff    	and    %eax,-0x1a2c(%rbp)
   13bb2:	48 8b 85 70 e5 ff ff 	mov    -0x1a90(%rbp),%rax
   13bb9:	8b 00                	mov    (%rax),%eax
   13bbb:	85 c0                	test   %eax,%eax
   13bbd:	0f 84 f8 01 00 00    	je     13dbb <func_25+0x1f78>
   13bc3:	48 8d 05 aa 14 01 00 	lea    0x114aa(%rip),%rax        # 25074 <g_56>
   13bca:	48 89 85 a0 e6 ff ff 	mov    %rax,-0x1960(%rbp)
   13bd1:	c7 85 3c e6 ff ff ff 	movl   $0xefef74ff,-0x19c4(%rbp)
   13bd8:	74 ef ef 
   13bdb:	48 b8 be cb cd 48 bf 	movabs $0xf512f5bf48cdcbbe,%rax
   13be2:	f5 12 f5 
   13be5:	48 89 85 90 e7 ff ff 	mov    %rax,-0x1870(%rbp)
   13bec:	48 8b 85 a0 e6 ff ff 	mov    -0x1960(%rbp),%rax
   13bf3:	48 89 85 68 e5 ff ff 	mov    %rax,-0x1a98(%rbp)
   13bfa:	48 83 bd d8 e6 ff ff 	cmpq   $0x0,-0x1928(%rbp)
   13c01:	00 
   13c02:	8b 9d 3c e6 ff ff    	mov    -0x19c4(%rbp),%ebx
   13c08:	48 8b 85 a0 e6 ff ff 	mov    -0x1960(%rbp),%rax
   13c0f:	8b 00                	mov    (%rax),%eax
   13c11:	48 98                	cltq   
   13c13:	48 89 c7             	mov    %rax,%rdi
   13c16:	e8 fe 83 ff ff       	callq  c019 <safe_unary_minus_func_uint64_t_u>
   13c1b:	49 89 c5             	mov    %rax,%r13
   13c1e:	48 8b 85 a0 e6 ff ff 	mov    -0x1960(%rbp),%rax
   13c25:	44 8b 20             	mov    (%rax),%r12d
   13c28:	48 8b 85 a0 e6 ff ff 	mov    -0x1960(%rbp),%rax
   13c2f:	8b 00                	mov    (%rax),%eax
   13c31:	85 c0                	test   %eax,%eax
   13c33:	75 19                	jne    13c4e <func_25+0x1e0b>
   13c35:	8b 85 64 e5 ff ff    	mov    -0x1a9c(%rbp),%eax
   13c3b:	0f b6 c0             	movzbl %al,%eax
   13c3e:	be 02 00 00 00       	mov    $0x2,%esi
   13c43:	89 c7                	mov    %eax,%edi
   13c45:	e8 74 80 ff ff       	callq  bcbe <safe_rshift_func_uint8_t_u_u>
   13c4a:	84 c0                	test   %al,%al
   13c4c:	74 07                	je     13c55 <func_25+0x1e12>
   13c4e:	b8 01 00 00 00       	mov    $0x1,%eax
   13c53:	eb 05                	jmp    13c5a <func_25+0x1e17>
   13c55:	b8 00 00 00 00       	mov    $0x0,%eax
   13c5a:	48 98                	cltq   
   13c5c:	48 89 c6             	mov    %rax,%rsi
   13c5f:	bf 01 00 00 00       	mov    $0x1,%edi
   13c64:	e8 3f 7c ff ff       	callq  b8a8 <safe_sub_func_int64_t_s_s>
   13c69:	48 85 c0             	test   %rax,%rax
   13c6c:	75 0c                	jne    13c7a <func_25+0x1e37>
   13c6e:	48 8b 05 a3 49 01 00 	mov    0x149a3(%rip),%rax        # 28618 <g_128>
   13c75:	0f b6 00             	movzbl (%rax),%eax
   13c78:	84 c0                	test   %al,%al
   13c7a:	8b 05 a0 e1 00 00    	mov    0xe1a0(%rip),%eax        # 21e20 <l_2727.4648+0x20>
   13c80:	44 89 e6             	mov    %r12d,%esi
   13c83:	89 c7                	mov    %eax,%edi
   13c85:	e8 2c 79 ff ff       	callq  b5b6 <safe_add_func_int32_t_s_s>
   13c8a:	48 98                	cltq   
   13c8c:	49 39 c5             	cmp    %rax,%r13
   13c8f:	0f 94 c0             	sete   %al
   13c92:	0f b6 c0             	movzbl %al,%eax
   13c95:	48 8b 95 78 e5 ff ff 	mov    -0x1a88(%rbp),%rdx
   13c9c:	31 c2                	xor    %eax,%edx
   13c9e:	48 8b 85 a8 e6 ff ff 	mov    -0x1958(%rbp),%rax
   13ca5:	89 10                	mov    %edx,(%rax)
   13ca7:	89 de                	mov    %ebx,%esi
   13ca9:	bf 01 00 00 00       	mov    $0x1,%edi
   13cae:	e8 03 79 ff ff       	callq  b5b6 <safe_add_func_int32_t_s_s>
   13cb3:	48 63 d0             	movslq %eax,%rdx
   13cb6:	48 8b 85 d0 e6 ff ff 	mov    -0x1930(%rbp),%rax
   13cbd:	48 8b 00             	mov    (%rax),%rax
   13cc0:	48 85 c0             	test   %rax,%rax
   13cc3:	0f 95 c0             	setne  %al
   13cc6:	0f b6 c0             	movzbl %al,%eax
   13cc9:	48 89 d6             	mov    %rdx,%rsi
   13ccc:	48 89 c7             	mov    %rax,%rdi
   13ccf:	e8 77 83 ff ff       	callq  c04b <safe_sub_func_uint64_t_u_u>
   13cd4:	48 8b 85 90 e7 ff ff 	mov    -0x1870(%rbp),%rax
   13cdb:	0f be c0             	movsbl %al,%eax
   13cde:	be 04 00 00 00       	mov    $0x4,%esi
   13ce3:	89 c7                	mov    %eax,%edi
   13ce5:	e8 4b 76 ff ff       	callq  b335 <safe_rshift_func_int8_t_s_s>
   13cea:	89 c2                	mov    %eax,%edx
   13cec:	48 8b 85 70 e5 ff ff 	mov    -0x1a90(%rbp),%rax
   13cf3:	0f be d2             	movsbl %dl,%edx
   13cf6:	89 10                	mov    %edx,(%rax)
   13cf8:	66 c7 05 97 71 01 00 	movw   $0x0,0x17197(%rip)        # 2ae98 <g_2511>
   13cff:	00 00 
   13d01:	e9 96 00 00 00       	jmpq   13d9c <func_25+0x1f59>
   13d06:	48 c7 85 90 e6 ff ff 	movq   $0x0,-0x1970(%rbp)
   13d0d:	00 00 00 00 
   13d11:	48 8d 85 90 e6 ff ff 	lea    -0x1970(%rbp),%rax
   13d18:	48 89 85 98 e6 ff ff 	mov    %rax,-0x1968(%rbp)
   13d1f:	48 8d 85 98 e6 ff ff 	lea    -0x1968(%rbp),%rax
   13d26:	48 89 85 10 f3 ff ff 	mov    %rax,-0xcf0(%rbp)
   13d2d:	48 8d 85 98 e6 ff ff 	lea    -0x1968(%rbp),%rax
   13d34:	48 89 85 18 f3 ff ff 	mov    %rax,-0xce8(%rbp)
   13d3b:	48 8d 85 98 e6 ff ff 	lea    -0x1968(%rbp),%rax
   13d42:	48 89 85 20 f3 ff ff 	mov    %rax,-0xce0(%rbp)
   13d49:	48 8d 85 98 e6 ff ff 	lea    -0x1968(%rbp),%rax
   13d50:	48 89 85 28 f3 ff ff 	mov    %rax,-0xcd8(%rbp)
   13d57:	48 8d 85 98 e6 ff ff 	lea    -0x1968(%rbp),%rax
   13d5e:	48 89 85 30 f3 ff ff 	mov    %rax,-0xcd0(%rbp)
   13d65:	c7 85 40 e6 ff ff fa 	movl   $0xfffffffa,-0x19c0(%rbp)
   13d6c:	ff ff ff 
   13d6f:	48 8b 85 10 f3 ff ff 	mov    -0xcf0(%rbp),%rax
   13d76:	48 89 05 2b 6b 01 00 	mov    %rax,0x16b2b(%rip)        # 2a8a8 <g_2735>
   13d7d:	48 8b 85 68 e5 ff ff 	mov    -0x1a98(%rbp),%rax
   13d84:	48 89 85 a0 e6 ff ff 	mov    %rax,-0x1960(%rbp)
   13d8b:	0f b7 05 06 71 01 00 	movzwl 0x17106(%rip),%eax        # 2ae98 <g_2511>
   13d92:	83 e8 01             	sub    $0x1,%eax
   13d95:	66 89 05 fc 70 01 00 	mov    %ax,0x170fc(%rip)        # 2ae98 <g_2511>
   13d9c:	0f b7 05 f5 70 01 00 	movzwl 0x170f5(%rip),%eax        # 2ae98 <g_2511>
   13da3:	66 83 f8 ff          	cmp    $0xffff,%ax
   13da7:	0f 8d 59 ff ff ff    	jge    13d06 <func_25+0x1ec3>
   13dad:	48 8b 85 a0 e6 ff ff 	mov    -0x1960(%rbp),%rax
   13db4:	8b 00                	mov    (%rax),%eax
   13db6:	e9 0e 14 00 00       	jmpq   151c9 <func_25+0x3386>
   13dbb:	48 8d 85 70 e6 ff ff 	lea    -0x1990(%rbp),%rax
   13dc2:	48 89 85 38 e7 ff ff 	mov    %rax,-0x18c8(%rbp)
   13dc9:	48 c7 85 40 e7 ff ff 	movq   $0x7,-0x18c0(%rbp)
   13dd0:	07 00 00 00 
   13dd4:	c7 85 bc e5 ff ff 5f 	movl   $0xde3cb25f,-0x1a44(%rbp)
   13ddb:	b2 3c de 
   13dde:	c7 85 fc e5 ff ff 00 	movl   $0x0,-0x1a04(%rbp)
   13de5:	00 00 00 
   13de8:	c6 85 89 e5 ff ff 19 	movb   $0x19,-0x1a77(%rbp)
   13def:	c6 85 8e e5 ff ff 00 	movb   $0x0,-0x1a72(%rbp)
   13df6:	c7 85 00 e6 ff ff 6e 	movl   $0x33d2486e,-0x1a00(%rbp)
   13dfd:	48 d2 33 
   13e00:	48 c7 85 48 e7 ff ff 	movq   $0x9,-0x18b8(%rbp)
   13e07:	09 00 00 00 
   13e0b:	48 8d 85 20 ef ff ff 	lea    -0x10e0(%rbp),%rax
   13e12:	48 05 b0 00 00 00    	add    $0xb0,%rax
   13e18:	48 89 85 98 e6 ff ff 	mov    %rax,-0x1968(%rbp)
   13e1f:	c7 85 c0 e5 ff ff 00 	movl   $0x0,-0x1a40(%rbp)
   13e26:	00 00 00 
   13e29:	eb 1a                	jmp    13e45 <func_25+0x2002>
   13e2b:	8b 85 c0 e5 ff ff    	mov    -0x1a40(%rbp),%eax
   13e31:	48 98                	cltq   
   13e33:	c7 84 85 40 e8 ff ff 	movl   $0x2f7adc1d,-0x17c0(%rbp,%rax,4)
   13e3a:	1d dc 7a 2f 
   13e3e:	83 85 c0 e5 ff ff 01 	addl   $0x1,-0x1a40(%rbp)
   13e45:	83 bd c0 e5 ff ff 09 	cmpl   $0x9,-0x1a40(%rbp)
   13e4c:	7e dd                	jle    13e2b <func_25+0x1fe8>
   13e4e:	48 8b 85 70 e5 ff ff 	mov    -0x1a90(%rbp),%rax
   13e55:	8b 08                	mov    (%rax),%ecx
   13e57:	48 8d 85 70 e6 ff ff 	lea    -0x1990(%rbp),%rax
   13e5e:	48 39 85 38 e7 ff ff 	cmp    %rax,-0x18c8(%rbp)
   13e65:	0f 95 c0             	setne  %al
   13e68:	0f b6 d0             	movzbl %al,%edx
   13e6b:	48 8b 85 70 e5 ff ff 	mov    -0x1a90(%rbp),%rax
   13e72:	31 ca                	xor    %ecx,%edx
   13e74:	89 10                	mov    %edx,(%rax)
   13e76:	c7 85 9c e5 ff ff 00 	movl   $0x0,-0x1a64(%rbp)
   13e7d:	00 00 00 
   13e80:	e9 ff 12 00 00       	jmpq   15184 <func_25+0x3341>
   13e85:	c6 85 8f e5 ff ff b6 	movb   $0xb6,-0x1a71(%rbp)
   13e8c:	48 8d 05 d5 1a 01 00 	lea    0x11ad5(%rip),%rax        # 25968 <g_1612>
   13e93:	48 89 85 50 e7 ff ff 	mov    %rax,-0x18b0(%rbp)
   13e9a:	48 8d 05 db 11 01 00 	lea    0x111db(%rip),%rax        # 2507c <g_65>
   13ea1:	48 89 85 10 f3 ff ff 	mov    %rax,-0xcf0(%rbp)
   13ea8:	48 8d 85 20 e8 ff ff 	lea    -0x17e0(%rbp),%rax
   13eaf:	48 83 c0 04          	add    $0x4,%rax
   13eb3:	48 89 85 18 f3 ff ff 	mov    %rax,-0xce8(%rbp)
   13eba:	48 8d 85 9c e5 ff ff 	lea    -0x1a64(%rbp),%rax
   13ec1:	48 89 85 20 f3 ff ff 	mov    %rax,-0xce0(%rbp)
   13ec8:	48 8d 05 a9 11 01 00 	lea    0x111a9(%rip),%rax        # 25078 <g_64>
   13ecf:	48 89 85 28 f3 ff ff 	mov    %rax,-0xcd8(%rbp)
   13ed6:	48 8d 85 20 e8 ff ff 	lea    -0x17e0(%rbp),%rax
   13edd:	48 83 c0 04          	add    $0x4,%rax
   13ee1:	48 89 85 30 f3 ff ff 	mov    %rax,-0xcd0(%rbp)
   13ee8:	48 8d 05 89 11 01 00 	lea    0x11189(%rip),%rax        # 25078 <g_64>
   13eef:	48 89 85 38 f3 ff ff 	mov    %rax,-0xcc8(%rbp)
   13ef6:	48 c7 85 40 f3 ff ff 	movq   $0x0,-0xcc0(%rbp)
   13efd:	00 00 00 00 
   13f01:	48 8d 05 74 11 01 00 	lea    0x11174(%rip),%rax        # 2507c <g_65>
   13f08:	48 89 85 48 f3 ff ff 	mov    %rax,-0xcb8(%rbp)
   13f0f:	48 8d 85 20 e8 ff ff 	lea    -0x17e0(%rbp),%rax
   13f16:	48 83 c0 1c          	add    $0x1c,%rax
   13f1a:	48 89 85 50 f3 ff ff 	mov    %rax,-0xcb0(%rbp)
   13f21:	48 c7 85 58 f3 ff ff 	movq   $0x0,-0xca8(%rbp)
   13f28:	00 00 00 00 
   13f2c:	48 c7 85 60 f3 ff ff 	movq   $0x0,-0xca0(%rbp)
   13f33:	00 00 00 00 
   13f37:	48 8d 05 36 11 01 00 	lea    0x11136(%rip),%rax        # 25074 <g_56>
   13f3e:	48 89 85 68 f3 ff ff 	mov    %rax,-0xc98(%rbp)
   13f45:	48 8d 85 20 e8 ff ff 	lea    -0x17e0(%rbp),%rax
   13f4c:	48 83 c0 04          	add    $0x4,%rax
   13f50:	48 89 85 70 f3 ff ff 	mov    %rax,-0xc90(%rbp)
   13f57:	48 8d 05 16 11 01 00 	lea    0x11116(%rip),%rax        # 25074 <g_56>
   13f5e:	48 89 85 78 f3 ff ff 	mov    %rax,-0xc88(%rbp)
   13f65:	48 8d 85 9c e5 ff ff 	lea    -0x1a64(%rbp),%rax
   13f6c:	48 89 85 80 f3 ff ff 	mov    %rax,-0xc80(%rbp)
   13f73:	48 8d 05 fe 10 01 00 	lea    0x110fe(%rip),%rax        # 25078 <g_64>
   13f7a:	48 89 85 88 f3 ff ff 	mov    %rax,-0xc78(%rbp)
   13f81:	48 8d 05 f4 10 01 00 	lea    0x110f4(%rip),%rax        # 2507c <g_65>
   13f88:	48 89 85 90 f3 ff ff 	mov    %rax,-0xc70(%rbp)
   13f8f:	48 8d 05 72 11 01 00 	lea    0x11172(%rip),%rax        # 25108 <g_801>
   13f96:	48 89 85 98 f3 ff ff 	mov    %rax,-0xc68(%rbp)
   13f9d:	48 8d 85 20 e8 ff ff 	lea    -0x17e0(%rbp),%rax
   13fa4:	48 83 c0 04          	add    $0x4,%rax
   13fa8:	48 89 85 a0 f3 ff ff 	mov    %rax,-0xc60(%rbp)
   13faf:	48 8d 85 20 e8 ff ff 	lea    -0x17e0(%rbp),%rax
   13fb6:	48 83 c0 04          	add    $0x4,%rax
   13fba:	48 89 85 a8 f3 ff ff 	mov    %rax,-0xc58(%rbp)
   13fc1:	48 c7 85 b0 f3 ff ff 	movq   $0x0,-0xc50(%rbp)
   13fc8:	00 00 00 00 
   13fcc:	48 c7 85 b8 f3 ff ff 	movq   $0x0,-0xc48(%rbp)
   13fd3:	00 00 00 00 
   13fd7:	48 8d 05 46 10 01 00 	lea    0x11046(%rip),%rax        # 25024 <g_3>
   13fde:	48 89 85 c0 f3 ff ff 	mov    %rax,-0xc40(%rbp)
   13fe5:	48 8d 85 20 e8 ff ff 	lea    -0x17e0(%rbp),%rax
   13fec:	48 83 c0 04          	add    $0x4,%rax
   13ff0:	48 89 85 c8 f3 ff ff 	mov    %rax,-0xc38(%rbp)
   13ff7:	48 c7 85 d0 f3 ff ff 	movq   $0x0,-0xc30(%rbp)
   13ffe:	00 00 00 00 
   14002:	48 8d 85 20 e8 ff ff 	lea    -0x17e0(%rbp),%rax
   14009:	48 83 c0 1c          	add    $0x1c,%rax
   1400d:	48 89 85 d8 f3 ff ff 	mov    %rax,-0xc28(%rbp)
   14014:	48 8d 05 59 10 01 00 	lea    0x11059(%rip),%rax        # 25074 <g_56>
   1401b:	48 89 85 e0 f3 ff ff 	mov    %rax,-0xc20(%rbp)
   14022:	48 8d 05 4f 10 01 00 	lea    0x1104f(%rip),%rax        # 25078 <g_64>
   14029:	48 89 85 e8 f3 ff ff 	mov    %rax,-0xc18(%rbp)
   14030:	48 8d 05 45 10 01 00 	lea    0x11045(%rip),%rax        # 2507c <g_65>
   14037:	48 89 85 f0 f3 ff ff 	mov    %rax,-0xc10(%rbp)
   1403e:	48 8d 05 df 0f 01 00 	lea    0x10fdf(%rip),%rax        # 25024 <g_3>
   14045:	48 89 85 f8 f3 ff ff 	mov    %rax,-0xc08(%rbp)
   1404c:	48 8d 05 29 10 01 00 	lea    0x11029(%rip),%rax        # 2507c <g_65>
   14053:	48 89 85 00 f4 ff ff 	mov    %rax,-0xc00(%rbp)
   1405a:	48 c7 85 08 f4 ff ff 	movq   $0x0,-0xbf8(%rbp)
   14061:	00 00 00 00 
   14065:	48 8d 05 08 10 01 00 	lea    0x11008(%rip),%rax        # 25074 <g_56>
   1406c:	48 89 85 10 f4 ff ff 	mov    %rax,-0xbf0(%rbp)
   14073:	48 8d 05 fe 0f 01 00 	lea    0x10ffe(%rip),%rax        # 25078 <g_64>
   1407a:	48 89 85 18 f4 ff ff 	mov    %rax,-0xbe8(%rbp)
   14081:	48 c7 85 20 f4 ff ff 	movq   $0x0,-0xbe0(%rbp)
   14088:	00 00 00 00 
   1408c:	48 8d 85 20 e8 ff ff 	lea    -0x17e0(%rbp),%rax
   14093:	48 83 c0 04          	add    $0x4,%rax
   14097:	48 89 85 28 f4 ff ff 	mov    %rax,-0xbd8(%rbp)
   1409e:	48 8d 85 9c e5 ff ff 	lea    -0x1a64(%rbp),%rax
   140a5:	48 89 85 30 f4 ff ff 	mov    %rax,-0xbd0(%rbp)
   140ac:	48 8d 85 20 e8 ff ff 	lea    -0x17e0(%rbp),%rax
   140b3:	48 83 c0 1c          	add    $0x1c,%rax
   140b7:	48 89 85 38 f4 ff ff 	mov    %rax,-0xbc8(%rbp)
   140be:	48 c7 85 40 f4 ff ff 	movq   $0x0,-0xbc0(%rbp)
   140c5:	00 00 00 00 
   140c9:	48 8d 05 54 0f 01 00 	lea    0x10f54(%rip),%rax        # 25024 <g_3>
   140d0:	48 89 85 48 f4 ff ff 	mov    %rax,-0xbb8(%rbp)
   140d7:	48 8d 85 20 e8 ff ff 	lea    -0x17e0(%rbp),%rax
   140de:	48 83 c0 04          	add    $0x4,%rax
   140e2:	48 89 85 50 f4 ff ff 	mov    %rax,-0xbb0(%rbp)
   140e9:	48 8d 05 18 10 01 00 	lea    0x11018(%rip),%rax        # 25108 <g_801>
   140f0:	48 89 85 58 f4 ff ff 	mov    %rax,-0xba8(%rbp)
   140f7:	48 8d 05 7e 0f 01 00 	lea    0x10f7e(%rip),%rax        # 2507c <g_65>
   140fe:	48 89 85 60 f4 ff ff 	mov    %rax,-0xba0(%rbp)
   14105:	48 8d 85 9c e5 ff ff 	lea    -0x1a64(%rbp),%rax
   1410c:	48 89 85 68 f4 ff ff 	mov    %rax,-0xb98(%rbp)
   14113:	48 8d 85 9c e5 ff ff 	lea    -0x1a64(%rbp),%rax
   1411a:	48 89 85 70 f4 ff ff 	mov    %rax,-0xb90(%rbp)
   14121:	48 8d 05 4c 0f 01 00 	lea    0x10f4c(%rip),%rax        # 25074 <g_56>
   14128:	48 89 85 78 f4 ff ff 	mov    %rax,-0xb88(%rbp)
   1412f:	48 8d 85 20 e8 ff ff 	lea    -0x17e0(%rbp),%rax
   14136:	48 83 c0 04          	add    $0x4,%rax
   1413a:	48 89 85 80 f4 ff ff 	mov    %rax,-0xb80(%rbp)
   14141:	48 8d 85 20 e8 ff ff 	lea    -0x17e0(%rbp),%rax
   14148:	48 83 c0 04          	add    $0x4,%rax
   1414c:	48 89 85 88 f4 ff ff 	mov    %rax,-0xb78(%rbp)
   14153:	48 8d 85 9c e5 ff ff 	lea    -0x1a64(%rbp),%rax
   1415a:	48 89 85 90 f4 ff ff 	mov    %rax,-0xb70(%rbp)
   14161:	48 8d 05 0c 0f 01 00 	lea    0x10f0c(%rip),%rax        # 25074 <g_56>
   14168:	48 89 85 98 f4 ff ff 	mov    %rax,-0xb68(%rbp)
   1416f:	48 8d 05 fe 0e 01 00 	lea    0x10efe(%rip),%rax        # 25074 <g_56>
   14176:	48 89 85 a0 f4 ff ff 	mov    %rax,-0xb60(%rbp)
   1417d:	48 8d 05 f4 0e 01 00 	lea    0x10ef4(%rip),%rax        # 25078 <g_64>
   14184:	48 89 85 a8 f4 ff ff 	mov    %rax,-0xb58(%rbp)
   1418b:	48 8d 05 92 0e 01 00 	lea    0x10e92(%rip),%rax        # 25024 <g_3>
   14192:	48 89 85 b0 f4 ff ff 	mov    %rax,-0xb50(%rbp)
   14199:	48 8d 05 d8 0e 01 00 	lea    0x10ed8(%rip),%rax        # 25078 <g_64>
   141a0:	48 89 85 b8 f4 ff ff 	mov    %rax,-0xb48(%rbp)
   141a7:	48 8d 05 5a 0f 01 00 	lea    0x10f5a(%rip),%rax        # 25108 <g_801>
   141ae:	48 89 85 c0 f4 ff ff 	mov    %rax,-0xb40(%rbp)
   141b5:	48 8d 85 9c e5 ff ff 	lea    -0x1a64(%rbp),%rax
   141bc:	48 89 85 c8 f4 ff ff 	mov    %rax,-0xb38(%rbp)
   141c3:	48 c7 85 d0 f4 ff ff 	movq   $0x0,-0xb30(%rbp)
   141ca:	00 00 00 00 
   141ce:	48 8d 85 20 e8 ff ff 	lea    -0x17e0(%rbp),%rax
   141d5:	48 83 c0 04          	add    $0x4,%rax
   141d9:	48 89 85 d8 f4 ff ff 	mov    %rax,-0xb28(%rbp)
   141e0:	48 c7 85 e0 f4 ff ff 	movq   $0x0,-0xb20(%rbp)
   141e7:	00 00 00 00 
   141eb:	48 8d 05 86 0e 01 00 	lea    0x10e86(%rip),%rax        # 25078 <g_64>
   141f2:	48 89 85 e8 f4 ff ff 	mov    %rax,-0xb18(%rbp)
   141f9:	48 8d 05 08 0f 01 00 	lea    0x10f08(%rip),%rax        # 25108 <g_801>
   14200:	48 89 85 f0 f4 ff ff 	mov    %rax,-0xb10(%rbp)
   14207:	48 8d 05 66 0e 01 00 	lea    0x10e66(%rip),%rax        # 25074 <g_56>
   1420e:	48 89 85 f8 f4 ff ff 	mov    %rax,-0xb08(%rbp)
   14215:	48 8d 85 20 e8 ff ff 	lea    -0x17e0(%rbp),%rax
   1421c:	48 83 c0 1c          	add    $0x1c,%rax
   14220:	48 89 85 00 f5 ff ff 	mov    %rax,-0xb00(%rbp)
   14227:	48 8d 05 4a 0e 01 00 	lea    0x10e4a(%rip),%rax        # 25078 <g_64>
   1422e:	48 89 85 08 f5 ff ff 	mov    %rax,-0xaf8(%rbp)
   14235:	48 c7 85 10 f5 ff ff 	movq   $0x0,-0xaf0(%rbp)
   1423c:	00 00 00 00 
   14240:	48 8d 05 c1 0e 01 00 	lea    0x10ec1(%rip),%rax        # 25108 <g_801>
   14247:	48 89 85 18 f5 ff ff 	mov    %rax,-0xae8(%rbp)
   1424e:	48 8d 85 9c e5 ff ff 	lea    -0x1a64(%rbp),%rax
   14255:	48 89 85 20 f5 ff ff 	mov    %rax,-0xae0(%rbp)
   1425c:	48 8d 05 a5 0e 01 00 	lea    0x10ea5(%rip),%rax        # 25108 <g_801>
   14263:	48 89 85 28 f5 ff ff 	mov    %rax,-0xad8(%rbp)
   1426a:	48 8d 85 20 e8 ff ff 	lea    -0x17e0(%rbp),%rax
   14271:	48 83 c0 04          	add    $0x4,%rax
   14275:	48 89 85 30 f5 ff ff 	mov    %rax,-0xad0(%rbp)
   1427c:	48 8d 85 20 e8 ff ff 	lea    -0x17e0(%rbp),%rax
   14283:	48 83 c0 04          	add    $0x4,%rax
   14287:	48 89 85 38 f5 ff ff 	mov    %rax,-0xac8(%rbp)
   1428e:	48 c7 85 40 f5 ff ff 	movq   $0x0,-0xac0(%rbp)
   14295:	00 00 00 00 
   14299:	48 8d 05 d8 0d 01 00 	lea    0x10dd8(%rip),%rax        # 25078 <g_64>
   142a0:	48 89 85 48 f5 ff ff 	mov    %rax,-0xab8(%rbp)
   142a7:	48 c7 85 50 f5 ff ff 	movq   $0x0,-0xab0(%rbp)
   142ae:	00 00 00 00 
   142b2:	48 8d 85 20 e8 ff ff 	lea    -0x17e0(%rbp),%rax
   142b9:	48 83 c0 04          	add    $0x4,%rax
   142bd:	48 89 85 58 f5 ff ff 	mov    %rax,-0xaa8(%rbp)
   142c4:	48 8d 85 20 e8 ff ff 	lea    -0x17e0(%rbp),%rax
   142cb:	48 83 c0 04          	add    $0x4,%rax
   142cf:	48 89 85 60 f5 ff ff 	mov    %rax,-0xaa0(%rbp)
   142d6:	48 c7 85 68 f5 ff ff 	movq   $0x0,-0xa98(%rbp)
   142dd:	00 00 00 00 
   142e1:	48 8d 05 3c 0d 01 00 	lea    0x10d3c(%rip),%rax        # 25024 <g_3>
   142e8:	48 89 85 70 f5 ff ff 	mov    %rax,-0xa90(%rbp)
   142ef:	48 8d 05 12 0e 01 00 	lea    0x10e12(%rip),%rax        # 25108 <g_801>
   142f6:	48 89 85 78 f5 ff ff 	mov    %rax,-0xa88(%rbp)
   142fd:	48 8d 85 20 e8 ff ff 	lea    -0x17e0(%rbp),%rax
   14304:	48 89 85 80 f5 ff ff 	mov    %rax,-0xa80(%rbp)
   1430b:	48 c7 85 88 f5 ff ff 	movq   $0x0,-0xa78(%rbp)
   14312:	00 00 00 00 
   14316:	48 8d 85 20 e8 ff ff 	lea    -0x17e0(%rbp),%rax
   1431d:	48 83 c0 1c          	add    $0x1c,%rax
   14321:	48 89 85 90 f5 ff ff 	mov    %rax,-0xa70(%rbp)
   14328:	48 8d 05 49 0d 01 00 	lea    0x10d49(%rip),%rax        # 25078 <g_64>
   1432f:	48 89 85 98 f5 ff ff 	mov    %rax,-0xa68(%rbp)
   14336:	48 8d 05 3b 0d 01 00 	lea    0x10d3b(%rip),%rax        # 25078 <g_64>
   1433d:	48 89 85 a0 f5 ff ff 	mov    %rax,-0xa60(%rbp)
   14344:	48 8d 05 2d 0d 01 00 	lea    0x10d2d(%rip),%rax        # 25078 <g_64>
   1434b:	48 89 85 a8 f5 ff ff 	mov    %rax,-0xa58(%rbp)
   14352:	48 c7 85 b0 f5 ff ff 	movq   $0x0,-0xa50(%rbp)
   14359:	00 00 00 00 
   1435d:	48 8d 85 9c e5 ff ff 	lea    -0x1a64(%rbp),%rax
   14364:	48 89 85 b8 f5 ff ff 	mov    %rax,-0xa48(%rbp)
   1436b:	48 c7 85 c0 f5 ff ff 	movq   $0x0,-0xa40(%rbp)
   14372:	00 00 00 00 
   14376:	48 8d 05 fb 0c 01 00 	lea    0x10cfb(%rip),%rax        # 25078 <g_64>
   1437d:	48 89 85 c8 f5 ff ff 	mov    %rax,-0xa38(%rbp)
   14384:	48 8d 05 ed 0c 01 00 	lea    0x10ced(%rip),%rax        # 25078 <g_64>
   1438b:	48 89 85 d0 f5 ff ff 	mov    %rax,-0xa30(%rbp)
   14392:	48 8d 05 df 0c 01 00 	lea    0x10cdf(%rip),%rax        # 25078 <g_64>
   14399:	48 89 85 d8 f5 ff ff 	mov    %rax,-0xa28(%rbp)
   143a0:	48 8d 85 9c e5 ff ff 	lea    -0x1a64(%rbp),%rax
   143a7:	48 89 85 e0 f5 ff ff 	mov    %rax,-0xa20(%rbp)
   143ae:	48 c7 85 e8 f5 ff ff 	movq   $0x0,-0xa18(%rbp)
   143b5:	00 00 00 00 
   143b9:	48 8d 05 b4 0c 01 00 	lea    0x10cb4(%rip),%rax        # 25074 <g_56>
   143c0:	48 89 85 f0 f5 ff ff 	mov    %rax,-0xa10(%rbp)
   143c7:	48 8d 05 a6 0c 01 00 	lea    0x10ca6(%rip),%rax        # 25074 <g_56>
   143ce:	48 89 85 f8 f5 ff ff 	mov    %rax,-0xa08(%rbp)
   143d5:	48 8d 05 48 0c 01 00 	lea    0x10c48(%rip),%rax        # 25024 <g_3>
   143dc:	48 89 85 00 f6 ff ff 	mov    %rax,-0xa00(%rbp)
   143e3:	48 8d 85 20 e8 ff ff 	lea    -0x17e0(%rbp),%rax
   143ea:	48 83 c0 04          	add    $0x4,%rax
   143ee:	48 89 85 08 f6 ff ff 	mov    %rax,-0x9f8(%rbp)
   143f5:	48 8d 05 0c 0d 01 00 	lea    0x10d0c(%rip),%rax        # 25108 <g_801>
   143fc:	48 89 85 10 f6 ff ff 	mov    %rax,-0x9f0(%rbp)
   14403:	48 8d 85 20 e8 ff ff 	lea    -0x17e0(%rbp),%rax
   1440a:	48 83 c0 04          	add    $0x4,%rax
   1440e:	48 89 85 18 f6 ff ff 	mov    %rax,-0x9e8(%rbp)
   14415:	48 c7 85 20 f6 ff ff 	movq   $0x0,-0x9e0(%rbp)
   1441c:	00 00 00 00 
   14420:	48 c7 85 28 f6 ff ff 	movq   $0x0,-0x9d8(%rbp)
   14427:	00 00 00 00 
   1442b:	48 c7 85 30 f6 ff ff 	movq   $0x0,-0x9d0(%rbp)
   14432:	00 00 00 00 
   14436:	48 8d 05 e7 0b 01 00 	lea    0x10be7(%rip),%rax        # 25024 <g_3>
   1443d:	48 89 85 38 f6 ff ff 	mov    %rax,-0x9c8(%rbp)
   14444:	48 8d 05 bd 0c 01 00 	lea    0x10cbd(%rip),%rax        # 25108 <g_801>
   1444b:	48 89 85 40 f6 ff ff 	mov    %rax,-0x9c0(%rbp)
   14452:	48 8d 05 af 0c 01 00 	lea    0x10caf(%rip),%rax        # 25108 <g_801>
   14459:	48 89 85 48 f6 ff ff 	mov    %rax,-0x9b8(%rbp)
   14460:	48 8d 85 20 e8 ff ff 	lea    -0x17e0(%rbp),%rax
   14467:	48 83 c0 1c          	add    $0x1c,%rax
   1446b:	48 89 85 50 f6 ff ff 	mov    %rax,-0x9b0(%rbp)
   14472:	48 8d 05 fb 0b 01 00 	lea    0x10bfb(%rip),%rax        # 25074 <g_56>
   14479:	48 89 85 58 f6 ff ff 	mov    %rax,-0x9a8(%rbp)
   14480:	48 c7 85 60 f6 ff ff 	movq   $0x0,-0x9a0(%rbp)
   14487:	00 00 00 00 
   1448b:	48 8d 85 20 e8 ff ff 	lea    -0x17e0(%rbp),%rax
   14492:	48 83 c0 04          	add    $0x4,%rax
   14496:	48 89 85 68 f6 ff ff 	mov    %rax,-0x998(%rbp)
   1449d:	48 8d 85 9c e5 ff ff 	lea    -0x1a64(%rbp),%rax
   144a4:	48 89 85 70 f6 ff ff 	mov    %rax,-0x990(%rbp)
   144ab:	48 8d 05 c2 0b 01 00 	lea    0x10bc2(%rip),%rax        # 25074 <g_56>
   144b2:	48 89 85 78 f6 ff ff 	mov    %rax,-0x988(%rbp)
   144b9:	48 8d 85 20 e8 ff ff 	lea    -0x17e0(%rbp),%rax
   144c0:	48 83 c0 04          	add    $0x4,%rax
   144c4:	48 89 85 80 f6 ff ff 	mov    %rax,-0x980(%rbp)
   144cb:	48 8d 05 a6 0b 01 00 	lea    0x10ba6(%rip),%rax        # 25078 <g_64>
   144d2:	48 89 85 88 f6 ff ff 	mov    %rax,-0x978(%rbp)
   144d9:	48 c7 85 90 f6 ff ff 	movq   $0x0,-0x970(%rbp)
   144e0:	00 00 00 00 
   144e4:	48 c7 85 98 f6 ff ff 	movq   $0x0,-0x968(%rbp)
   144eb:	00 00 00 00 
   144ef:	48 c7 85 a0 f6 ff ff 	movq   $0x0,-0x960(%rbp)
   144f6:	00 00 00 00 
   144fa:	48 8d 85 9c e5 ff ff 	lea    -0x1a64(%rbp),%rax
   14501:	48 89 85 a8 f6 ff ff 	mov    %rax,-0x958(%rbp)
   14508:	48 8d 85 20 e8 ff ff 	lea    -0x17e0(%rbp),%rax
   1450f:	48 83 c0 04          	add    $0x4,%rax
   14513:	48 89 85 b0 f6 ff ff 	mov    %rax,-0x950(%rbp)
   1451a:	48 8d 05 57 0b 01 00 	lea    0x10b57(%rip),%rax        # 25078 <g_64>
   14521:	48 89 85 b8 f6 ff ff 	mov    %rax,-0x948(%rbp)
   14528:	48 8d 05 f5 0a 01 00 	lea    0x10af5(%rip),%rax        # 25024 <g_3>
   1452f:	48 89 85 c0 f6 ff ff 	mov    %rax,-0x940(%rbp)
   14536:	48 8d 85 20 e8 ff ff 	lea    -0x17e0(%rbp),%rax
   1453d:	48 83 c0 04          	add    $0x4,%rax
   14541:	48 89 85 c8 f6 ff ff 	mov    %rax,-0x938(%rbp)
   14548:	48 8d 85 20 e8 ff ff 	lea    -0x17e0(%rbp),%rax
   1454f:	48 89 85 d0 f6 ff ff 	mov    %rax,-0x930(%rbp)
   14556:	48 8d 05 17 0b 01 00 	lea    0x10b17(%rip),%rax        # 25074 <g_56>
   1455d:	48 89 85 d8 f6 ff ff 	mov    %rax,-0x928(%rbp)
   14564:	48 8d 85 20 e8 ff ff 	lea    -0x17e0(%rbp),%rax
   1456b:	48 83 c0 1c          	add    $0x1c,%rax
   1456f:	48 89 85 e0 f6 ff ff 	mov    %rax,-0x920(%rbp)
   14576:	48 c7 85 e8 f6 ff ff 	movq   $0x0,-0x918(%rbp)
   1457d:	00 00 00 00 
   14581:	48 8d 05 f0 0a 01 00 	lea    0x10af0(%rip),%rax        # 25078 <g_64>
   14588:	48 89 85 f0 f6 ff ff 	mov    %rax,-0x910(%rbp)
   1458f:	48 8d 05 8e 0a 01 00 	lea    0x10a8e(%rip),%rax        # 25024 <g_3>
   14596:	48 89 85 f8 f6 ff ff 	mov    %rax,-0x908(%rbp)
   1459d:	48 c7 85 00 f7 ff ff 	movq   $0x0,-0x900(%rbp)
   145a4:	00 00 00 00 
   145a8:	48 8d 85 20 e8 ff ff 	lea    -0x17e0(%rbp),%rax
   145af:	48 89 85 08 f7 ff ff 	mov    %rax,-0x8f8(%rbp)
   145b6:	48 c7 85 10 f7 ff ff 	movq   $0x0,-0x8f0(%rbp)
   145bd:	00 00 00 00 
   145c1:	48 8d 85 20 e8 ff ff 	lea    -0x17e0(%rbp),%rax
   145c8:	48 83 c0 04          	add    $0x4,%rax
   145cc:	48 89 85 18 f7 ff ff 	mov    %rax,-0x8e8(%rbp)
   145d3:	48 8d 05 9e 0a 01 00 	lea    0x10a9e(%rip),%rax        # 25078 <g_64>
   145da:	48 89 85 20 f7 ff ff 	mov    %rax,-0x8e0(%rbp)
   145e1:	48 8d 85 20 e8 ff ff 	lea    -0x17e0(%rbp),%rax
   145e8:	48 83 c0 04          	add    $0x4,%rax
   145ec:	48 89 85 28 f7 ff ff 	mov    %rax,-0x8d8(%rbp)
   145f3:	48 8d 85 9c e5 ff ff 	lea    -0x1a64(%rbp),%rax
   145fa:	48 89 85 30 f7 ff ff 	mov    %rax,-0x8d0(%rbp)
   14601:	48 8d 05 6c 0a 01 00 	lea    0x10a6c(%rip),%rax        # 25074 <g_56>
   14608:	48 89 85 38 f7 ff ff 	mov    %rax,-0x8c8(%rbp)
   1460f:	48 8d 05 5e 0a 01 00 	lea    0x10a5e(%rip),%rax        # 25074 <g_56>
   14616:	48 89 85 40 f7 ff ff 	mov    %rax,-0x8c0(%rbp)
   1461d:	48 8d 05 54 0a 01 00 	lea    0x10a54(%rip),%rax        # 25078 <g_64>
   14624:	48 89 85 48 f7 ff ff 	mov    %rax,-0x8b8(%rbp)
   1462b:	48 8d 05 f2 09 01 00 	lea    0x109f2(%rip),%rax        # 25024 <g_3>
   14632:	48 89 85 50 f7 ff ff 	mov    %rax,-0x8b0(%rbp)
   14639:	48 8d 05 38 0a 01 00 	lea    0x10a38(%rip),%rax        # 25078 <g_64>
   14640:	48 89 85 58 f7 ff ff 	mov    %rax,-0x8a8(%rbp)
   14647:	48 8d 05 ba 0a 01 00 	lea    0x10aba(%rip),%rax        # 25108 <g_801>
   1464e:	48 89 85 60 f7 ff ff 	mov    %rax,-0x8a0(%rbp)
   14655:	48 8d 85 9c e5 ff ff 	lea    -0x1a64(%rbp),%rax
   1465c:	48 89 85 68 f7 ff ff 	mov    %rax,-0x898(%rbp)
   14663:	48 c7 85 70 f7 ff ff 	movq   $0x0,-0x890(%rbp)
   1466a:	00 00 00 00 
   1466e:	48 8d 85 20 e8 ff ff 	lea    -0x17e0(%rbp),%rax
   14675:	48 83 c0 04          	add    $0x4,%rax
   14679:	48 89 85 78 f7 ff ff 	mov    %rax,-0x888(%rbp)
   14680:	48 c7 85 80 f7 ff ff 	movq   $0x0,-0x880(%rbp)
   14687:	00 00 00 00 
   1468b:	48 8d 05 e6 09 01 00 	lea    0x109e6(%rip),%rax        # 25078 <g_64>
   14692:	48 89 85 88 f7 ff ff 	mov    %rax,-0x878(%rbp)
   14699:	48 8d 05 68 0a 01 00 	lea    0x10a68(%rip),%rax        # 25108 <g_801>
   146a0:	48 89 85 90 f7 ff ff 	mov    %rax,-0x870(%rbp)
   146a7:	48 8d 05 c6 09 01 00 	lea    0x109c6(%rip),%rax        # 25074 <g_56>
   146ae:	48 89 85 98 f7 ff ff 	mov    %rax,-0x868(%rbp)
   146b5:	48 8d 85 20 e8 ff ff 	lea    -0x17e0(%rbp),%rax
   146bc:	48 83 c0 1c          	add    $0x1c,%rax
   146c0:	48 89 85 a0 f7 ff ff 	mov    %rax,-0x860(%rbp)
   146c7:	48 8d 05 aa 09 01 00 	lea    0x109aa(%rip),%rax        # 25078 <g_64>
   146ce:	48 89 85 a8 f7 ff ff 	mov    %rax,-0x858(%rbp)
   146d5:	48 c7 85 b0 f7 ff ff 	movq   $0x0,-0x850(%rbp)
   146dc:	00 00 00 00 
   146e0:	48 8d 05 21 0a 01 00 	lea    0x10a21(%rip),%rax        # 25108 <g_801>
   146e7:	48 89 85 b8 f7 ff ff 	mov    %rax,-0x848(%rbp)
   146ee:	48 8d 85 9c e5 ff ff 	lea    -0x1a64(%rbp),%rax
   146f5:	48 89 85 c0 f7 ff ff 	mov    %rax,-0x840(%rbp)
   146fc:	48 8d 05 05 0a 01 00 	lea    0x10a05(%rip),%rax        # 25108 <g_801>
   14703:	48 89 85 c8 f7 ff ff 	mov    %rax,-0x838(%rbp)
   1470a:	48 8d 85 20 e8 ff ff 	lea    -0x17e0(%rbp),%rax
   14711:	48 83 c0 04          	add    $0x4,%rax
   14715:	48 89 85 d0 f7 ff ff 	mov    %rax,-0x830(%rbp)
   1471c:	48 8d 85 20 e8 ff ff 	lea    -0x17e0(%rbp),%rax
   14723:	48 83 c0 04          	add    $0x4,%rax
   14727:	48 89 85 d8 f7 ff ff 	mov    %rax,-0x828(%rbp)
   1472e:	48 c7 85 e0 f7 ff ff 	movq   $0x0,-0x820(%rbp)
   14735:	00 00 00 00 
   14739:	48 8d 05 38 09 01 00 	lea    0x10938(%rip),%rax        # 25078 <g_64>
   14740:	48 89 85 e8 f7 ff ff 	mov    %rax,-0x818(%rbp)
   14747:	48 c7 85 f0 f7 ff ff 	movq   $0x0,-0x810(%rbp)
   1474e:	00 00 00 00 
   14752:	48 8d 85 20 e8 ff ff 	lea    -0x17e0(%rbp),%rax
   14759:	48 83 c0 04          	add    $0x4,%rax
   1475d:	48 89 85 f8 f7 ff ff 	mov    %rax,-0x808(%rbp)
   14764:	48 8d 85 20 e8 ff ff 	lea    -0x17e0(%rbp),%rax
   1476b:	48 83 c0 04          	add    $0x4,%rax
   1476f:	48 89 85 00 f8 ff ff 	mov    %rax,-0x800(%rbp)
   14776:	48 c7 85 08 f8 ff ff 	movq   $0x0,-0x7f8(%rbp)
   1477d:	00 00 00 00 
   14781:	48 8d 05 9c 08 01 00 	lea    0x1089c(%rip),%rax        # 25024 <g_3>
   14788:	48 89 85 10 f8 ff ff 	mov    %rax,-0x7f0(%rbp)
   1478f:	48 8d 05 72 09 01 00 	lea    0x10972(%rip),%rax        # 25108 <g_801>
   14796:	48 89 85 18 f8 ff ff 	mov    %rax,-0x7e8(%rbp)
   1479d:	48 8d 85 20 e8 ff ff 	lea    -0x17e0(%rbp),%rax
   147a4:	48 89 85 20 f8 ff ff 	mov    %rax,-0x7e0(%rbp)
   147ab:	48 c7 85 28 f8 ff ff 	movq   $0x0,-0x7d8(%rbp)
   147b2:	00 00 00 00 
   147b6:	48 8d 85 20 e8 ff ff 	lea    -0x17e0(%rbp),%rax
   147bd:	48 83 c0 1c          	add    $0x1c,%rax
   147c1:	48 89 85 30 f8 ff ff 	mov    %rax,-0x7d0(%rbp)
   147c8:	48 8d 05 a9 08 01 00 	lea    0x108a9(%rip),%rax        # 25078 <g_64>
   147cf:	48 89 85 38 f8 ff ff 	mov    %rax,-0x7c8(%rbp)
   147d6:	48 8d 05 9b 08 01 00 	lea    0x1089b(%rip),%rax        # 25078 <g_64>
   147dd:	48 89 85 40 f8 ff ff 	mov    %rax,-0x7c0(%rbp)
   147e4:	48 8d 05 8d 08 01 00 	lea    0x1088d(%rip),%rax        # 25078 <g_64>
   147eb:	48 89 85 48 f8 ff ff 	mov    %rax,-0x7b8(%rbp)
   147f2:	48 8d 05 67 46 01 00 	lea    0x14667(%rip),%rax        # 28e60 <g_1176>
   147f9:	48 89 85 58 e7 ff ff 	mov    %rax,-0x18a8(%rbp)
   14800:	48 8b 85 40 e7 ff ff 	mov    -0x18c0(%rbp),%rax
   14807:	0f be d8             	movsbl %al,%ebx
   1480a:	48 8b 85 78 e5 ff ff 	mov    -0x1a88(%rbp),%rax
   14811:	41 89 c4             	mov    %eax,%r12d
   14814:	8b 85 d8 e5 ff ff    	mov    -0x1a28(%rbp),%eax
   1481a:	0f b7 c0             	movzwl %ax,%eax
   1481d:	48 8b 95 50 e7 ff ff 	mov    -0x18b0(%rbp),%rdx
   14824:	0f b6 0a             	movzbl (%rdx),%ecx
   14827:	48 8b 95 78 e5 ff ff 	mov    -0x1a88(%rbp),%rdx
   1482e:	48 3b 95 40 e7 ff ff 	cmp    -0x18c0(%rbp),%rdx
   14835:	0f 93 c2             	setae  %dl
   14838:	0f b6 d2             	movzbl %dl,%edx
   1483b:	48 39 95 78 e5 ff ff 	cmp    %rdx,-0x1a88(%rbp)
   14842:	0f 93 c2             	setae  %dl
   14845:	21 d1                	and    %edx,%ecx
   14847:	48 8b 95 50 e7 ff ff 	mov    -0x18b0(%rbp),%rdx
   1484e:	88 0a                	mov    %cl,(%rdx)
   14850:	89 c6                	mov    %eax,%esi
   14852:	bf 00 00 00 00       	mov    $0x0,%edi
   14857:	e8 e1 74 ff ff       	callq  bd3d <safe_mul_func_uint16_t_u_u>
   1485c:	0f be c0             	movsbl %al,%eax
   1485f:	44 89 e6             	mov    %r12d,%esi
   14862:	89 c7                	mov    %eax,%edi
   14864:	e8 38 6a ff ff       	callq  b2a1 <safe_lshift_func_int8_t_s_s>
   14869:	48 0f be c0          	movsbq %al,%rax
   1486d:	48 39 85 40 e7 ff ff 	cmp    %rax,-0x18c0(%rbp)
   14874:	0f 94 c0             	sete   %al
   14877:	0f b6 d0             	movzbl %al,%edx
   1487a:	48 8b 05 97 3d 01 00 	mov    0x13d97(%rip),%rax        # 28618 <g_128>
   14881:	0f b6 00             	movzbl (%rax),%eax
   14884:	0f be c0             	movsbl %al,%eax
   14887:	89 d6                	mov    %edx,%esi
   14889:	89 c7                	mov    %eax,%edi
   1488b:	e8 62 69 ff ff       	callq  b1f2 <safe_sub_func_int8_t_s_s>
   14890:	0f be c0             	movsbl %al,%eax
   14893:	be 01 00 00 00       	mov    $0x1,%esi
   14898:	89 c7                	mov    %eax,%edi
   1489a:	e8 35 69 ff ff       	callq  b1d4 <safe_add_func_int8_t_s_s>
   1489f:	3c ff                	cmp    $0xff,%al
   148a1:	74 07                	je     148aa <func_25+0x2a67>
   148a3:	b8 01 00 00 00       	mov    $0x1,%eax
   148a8:	eb 05                	jmp    148af <func_25+0x2a6c>
   148aa:	b8 00 00 00 00       	mov    $0x0,%eax
   148af:	0f be c0             	movsbl %al,%eax
   148b2:	8b 95 64 e5 ff ff    	mov    -0x1a9c(%rbp),%edx
   148b8:	89 d6                	mov    %edx,%esi
   148ba:	89 c7                	mov    %eax,%edi
   148bc:	e8 e0 69 ff ff       	callq  b2a1 <safe_lshift_func_int8_t_s_s>
   148c1:	48 8b 85 40 e7 ff ff 	mov    -0x18c0(%rbp),%rax
   148c8:	0f be c0             	movsbl %al,%eax
   148cb:	89 de                	mov    %ebx,%esi
   148cd:	89 c7                	mov    %eax,%edi
   148cf:	e8 1e 69 ff ff       	callq  b1f2 <safe_sub_func_int8_t_s_s>
   148d4:	48 0f be c0          	movsbq %al,%rax
   148d8:	48 23 85 78 e5 ff ff 	and    -0x1a88(%rbp),%rax
   148df:	89 c2                	mov    %eax,%edx
   148e1:	0f b7 85 92 e5 ff ff 	movzwl -0x1a6e(%rbp),%eax
   148e8:	31 d0                	xor    %edx,%eax
   148ea:	66 89 85 92 e5 ff ff 	mov    %ax,-0x1a6e(%rbp)
   148f1:	48 8b 05 20 3d 01 00 	mov    0x13d20(%rip),%rax        # 28618 <g_128>
   148f8:	0f b6 00             	movzbl (%rax),%eax
   148fb:	66 98                	cbtw   
   148fd:	66 39 85 92 e5 ff ff 	cmp    %ax,-0x1a6e(%rbp)
   14904:	0f 94 c0             	sete   %al
   14907:	0f b6 c0             	movzbl %al,%eax
   1490a:	48 39 85 40 e7 ff ff 	cmp    %rax,-0x18c0(%rbp)
   14911:	0f 93 c0             	setae  %al
   14914:	0f b6 c0             	movzbl %al,%eax
   14917:	39 85 64 e5 ff ff    	cmp    %eax,-0x1a9c(%rbp)
   1491d:	0f 95 c0             	setne  %al
   14920:	0f b6 d8             	movzbl %al,%ebx
   14923:	48 83 bd 78 e5 ff ff 	cmpq   $0x0,-0x1a88(%rbp)
   1492a:	00 
   1492b:	74 30                	je     1495d <func_25+0x2b1a>
   1492d:	48 8b 05 0c 3d 01 00 	mov    0x13d0c(%rip),%rax        # 28640 <g_357>
   14934:	0f b7 00             	movzwl (%rax),%eax
   14937:	44 0f b7 e0          	movzwl %ax,%r12d
   1493b:	0f b6 85 8f e5 ff ff 	movzbl -0x1a71(%rbp),%eax
   14942:	be 05 00 00 00       	mov    $0x5,%esi
   14947:	89 c7                	mov    %eax,%edi
   14949:	e8 44 6b ff ff       	callq  b492 <safe_lshift_func_int16_t_s_s>
   1494e:	98                   	cwtl   
   1494f:	44 21 e0             	and    %r12d,%eax
   14952:	85 c0                	test   %eax,%eax
   14954:	74 07                	je     1495d <func_25+0x2b1a>
   14956:	b8 01 00 00 00       	mov    $0x1,%eax
   1495b:	eb 05                	jmp    14962 <func_25+0x2b1f>
   1495d:	b8 00 00 00 00       	mov    $0x0,%eax
   14962:	98                   	cwtl   
   14963:	89 de                	mov    %ebx,%esi
   14965:	89 c7                	mov    %eax,%edi
   14967:	e8 47 6a ff ff       	callq  b3b3 <safe_add_func_int16_t_s_s>
   1496c:	98                   	cwtl   
   1496d:	89 c6                	mov    %eax,%esi
   1496f:	bf b6 94 35 19       	mov    $0x193594b6,%edi
   14974:	e8 86 6d ff ff       	callq  b6ff <safe_div_func_int32_t_s_s>
   14979:	48 98                	cltq   
   1497b:	be 00 00 00 00       	mov    $0x0,%esi
   14980:	48 89 c7             	mov    %rax,%rdi
   14983:	e8 a6 76 ff ff       	callq  c02e <safe_add_func_uint64_t_u_u>
   14988:	48 85 c0             	test   %rax,%rax
   1498b:	74 07                	je     14994 <func_25+0x2b51>
   1498d:	ba 01 00 00 00       	mov    $0x1,%edx
   14992:	eb 05                	jmp    14999 <func_25+0x2b56>
   14994:	ba 00 00 00 00       	mov    $0x0,%edx
   14999:	0f b6 05 c0 0f 01 00 	movzbl 0x10fc0(%rip),%eax        # 25960 <g_1516>
   149a0:	0f b6 c0             	movzbl %al,%eax
   149a3:	31 c2                	xor    %eax,%edx
   149a5:	48 8b 85 68 e5 ff ff 	mov    -0x1a98(%rbp),%rax
   149ac:	89 10                	mov    %edx,(%rax)
   149ae:	48 8b 85 b0 e6 ff ff 	mov    -0x1950(%rbp),%rax
   149b5:	48 8b 95 68 e5 ff ff 	mov    -0x1a98(%rbp),%rdx
   149bc:	48 89 10             	mov    %rdx,(%rax)
   149bf:	48 8b 85 b0 e6 ff ff 	mov    -0x1950(%rbp),%rax
   149c6:	48 8b 00             	mov    (%rax),%rax
   149c9:	8b 00                	mov    (%rax),%eax
   149cb:	85 c0                	test   %eax,%eax
   149cd:	0f 85 c2 07 00 00    	jne    15195 <func_25+0x3352>
   149d3:	c7 05 37 07 01 00 02 	movl   $0x2,0x10737(%rip)        # 25114 <g_849>
   149da:	00 00 00 
   149dd:	e9 72 07 00 00       	jmpq   15154 <func_25+0x3311>
   149e2:	48 8d 05 17 07 01 00 	lea    0x10717(%rip),%rax        # 25100 <g_709>
   149e9:	48 89 85 e0 e8 ff ff 	mov    %rax,-0x1720(%rbp)
   149f0:	48 8d 05 09 07 01 00 	lea    0x10709(%rip),%rax        # 25100 <g_709>
   149f7:	48 89 85 e8 e8 ff ff 	mov    %rax,-0x1718(%rbp)
   149fe:	48 8d 05 83 06 01 00 	lea    0x10683(%rip),%rax        # 25088 <g_151>
   14a05:	48 89 85 f0 e8 ff ff 	mov    %rax,-0x1710(%rbp)
   14a0c:	48 8d 85 60 e6 ff ff 	lea    -0x19a0(%rbp),%rax
   14a13:	48 89 85 f8 e8 ff ff 	mov    %rax,-0x1708(%rbp)
   14a1a:	48 8d 85 60 e6 ff ff 	lea    -0x19a0(%rbp),%rax
   14a21:	48 89 85 00 e9 ff ff 	mov    %rax,-0x1700(%rbp)
   14a28:	48 8d 05 59 06 01 00 	lea    0x10659(%rip),%rax        # 25088 <g_151>
   14a2f:	48 89 85 08 e9 ff ff 	mov    %rax,-0x16f8(%rbp)
   14a36:	48 8d 85 60 e6 ff ff 	lea    -0x19a0(%rbp),%rax
   14a3d:	48 89 85 10 e9 ff ff 	mov    %rax,-0x16f0(%rbp)
   14a44:	48 8d 85 60 e6 ff ff 	lea    -0x19a0(%rbp),%rax
   14a4b:	48 89 85 18 e9 ff ff 	mov    %rax,-0x16e8(%rbp)
   14a52:	48 8d 05 2f 06 01 00 	lea    0x1062f(%rip),%rax        # 25088 <g_151>
   14a59:	48 89 85 20 e9 ff ff 	mov    %rax,-0x16e0(%rbp)
   14a60:	48 8d 05 99 06 01 00 	lea    0x10699(%rip),%rax        # 25100 <g_709>
   14a67:	48 89 85 28 e9 ff ff 	mov    %rax,-0x16d8(%rbp)
   14a6e:	48 8d 05 8b 06 01 00 	lea    0x1068b(%rip),%rax        # 25100 <g_709>
   14a75:	48 89 85 30 e9 ff ff 	mov    %rax,-0x16d0(%rbp)
   14a7c:	48 8d 05 05 06 01 00 	lea    0x10605(%rip),%rax        # 25088 <g_151>
   14a83:	48 89 85 38 e9 ff ff 	mov    %rax,-0x16c8(%rbp)
   14a8a:	48 8d 85 60 e6 ff ff 	lea    -0x19a0(%rbp),%rax
   14a91:	48 89 85 40 e9 ff ff 	mov    %rax,-0x16c0(%rbp)
   14a98:	48 8d 85 60 e6 ff ff 	lea    -0x19a0(%rbp),%rax
   14a9f:	48 89 85 48 e9 ff ff 	mov    %rax,-0x16b8(%rbp)
   14aa6:	48 8d 05 db 05 01 00 	lea    0x105db(%rip),%rax        # 25088 <g_151>
   14aad:	48 89 85 50 e9 ff ff 	mov    %rax,-0x16b0(%rbp)
   14ab4:	48 8d 85 60 e6 ff ff 	lea    -0x19a0(%rbp),%rax
   14abb:	48 89 85 58 e9 ff ff 	mov    %rax,-0x16a8(%rbp)
   14ac2:	48 8d 85 60 e6 ff ff 	lea    -0x19a0(%rbp),%rax
   14ac9:	48 89 85 60 e9 ff ff 	mov    %rax,-0x16a0(%rbp)
   14ad0:	48 8d 05 b1 05 01 00 	lea    0x105b1(%rip),%rax        # 25088 <g_151>
   14ad7:	48 89 85 68 e9 ff ff 	mov    %rax,-0x1698(%rbp)
   14ade:	c7 85 04 e6 ff ff 09 	movl   $0x9,-0x19fc(%rbp)
   14ae5:	00 00 00 
   14ae8:	48 8d 05 71 43 01 00 	lea    0x14371(%rip),%rax        # 28e60 <g_1176>
   14aef:	48 89 85 60 e7 ff ff 	mov    %rax,-0x18a0(%rbp)
   14af6:	c7 85 08 e6 ff ff f3 	movl   $0xc24095f3,-0x19f8(%rbp)
   14afd:	95 40 c2 
   14b00:	c7 85 0c e6 ff ff 05 	movl   $0x5,-0x19f4(%rbp)
   14b07:	00 00 00 
   14b0a:	c7 85 10 e6 ff ff 03 	movl   $0x3e9dff03,-0x19f0(%rbp)
   14b11:	ff 9d 3e 
   14b14:	c7 85 14 e6 ff ff f6 	movl   $0xfffffff6,-0x19ec(%rbp)
   14b1b:	ff ff ff 
   14b1e:	48 8d 05 57 05 01 00 	lea    0x10557(%rip),%rax        # 2507c <g_65>
   14b25:	48 89 85 68 e7 ff ff 	mov    %rax,-0x1898(%rbp)
   14b2c:	c7 85 18 e6 ff ff 00 	movl   $0x0,-0x19e8(%rbp)
   14b33:	00 00 00 
   14b36:	c7 85 1c e6 ff ff 8f 	movl   $0x2c45ea8f,-0x19e4(%rbp)
   14b3d:	ea 45 2c 
   14b40:	48 c7 85 70 e7 ff ff 	movq   $0x0,-0x1890(%rbp)
   14b47:	00 00 00 00 
   14b4b:	c7 85 20 e6 ff ff cc 	movl   $0xa78437cc,-0x19e0(%rbp)
   14b52:	37 84 a7 
   14b55:	c7 85 70 e9 ff ff 00 	movl   $0x0,-0x1690(%rbp)
   14b5c:	00 00 00 
   14b5f:	c7 85 74 e9 ff ff 00 	movl   $0x0,-0x168c(%rbp)
   14b66:	00 00 00 
   14b69:	c7 85 78 e9 ff ff 4a 	movl   $0x8465d04a,-0x1688(%rbp)
   14b70:	d0 65 84 
   14b73:	c7 85 7c e9 ff ff 4a 	movl   $0x8465d04a,-0x1684(%rbp)
   14b7a:	d0 65 84 
   14b7d:	c7 85 80 e9 ff ff 00 	movl   $0x0,-0x1680(%rbp)
   14b84:	00 00 00 
   14b87:	c7 85 84 e9 ff ff 00 	movl   $0x0,-0x167c(%rbp)
   14b8e:	00 00 00 
   14b91:	c7 85 88 e9 ff ff ed 	movl   $0xd66cfed,-0x1678(%rbp)
   14b98:	cf 66 0d 
   14b9b:	c7 85 8c e9 ff ff ed 	movl   $0xd66cfed,-0x1674(%rbp)
   14ba2:	cf 66 0d 
   14ba5:	c7 85 90 e9 ff ff 00 	movl   $0x0,-0x1670(%rbp)
   14bac:	00 00 00 
   14baf:	c7 85 94 e9 ff ff 00 	movl   $0x0,-0x166c(%rbp)
   14bb6:	00 00 00 
   14bb9:	c7 85 98 e9 ff ff 4a 	movl   $0x8465d04a,-0x1668(%rbp)
   14bc0:	d0 65 84 
   14bc3:	c7 85 9c e9 ff ff 4a 	movl   $0x8465d04a,-0x1664(%rbp)
   14bca:	d0 65 84 
   14bcd:	c7 85 a0 e9 ff ff 00 	movl   $0x0,-0x1660(%rbp)
   14bd4:	00 00 00 
   14bd7:	c7 85 a4 e9 ff ff 00 	movl   $0x0,-0x165c(%rbp)
   14bde:	00 00 00 
   14be1:	c7 85 a8 e9 ff ff ed 	movl   $0xd66cfed,-0x1658(%rbp)
   14be8:	cf 66 0d 
   14beb:	c7 85 ac e9 ff ff ed 	movl   $0xd66cfed,-0x1654(%rbp)
   14bf2:	cf 66 0d 
   14bf5:	c7 85 b0 e9 ff ff 00 	movl   $0x0,-0x1650(%rbp)
   14bfc:	00 00 00 
   14bff:	c7 85 b4 e9 ff ff 00 	movl   $0x0,-0x164c(%rbp)
   14c06:	00 00 00 
   14c09:	c7 85 b8 e9 ff ff 4a 	movl   $0x8465d04a,-0x1648(%rbp)
   14c10:	d0 65 84 
   14c13:	c7 85 bc e9 ff ff 4a 	movl   $0x8465d04a,-0x1644(%rbp)
   14c1a:	d0 65 84 
   14c1d:	c7 85 c0 e9 ff ff 00 	movl   $0x0,-0x1640(%rbp)
   14c24:	00 00 00 
   14c27:	c7 85 c4 e9 ff ff 00 	movl   $0x0,-0x163c(%rbp)
   14c2e:	00 00 00 
   14c31:	c7 85 c8 e9 ff ff ed 	movl   $0xd66cfed,-0x1638(%rbp)
   14c38:	cf 66 0d 
   14c3b:	c7 85 cc e9 ff ff ed 	movl   $0xd66cfed,-0x1634(%rbp)
   14c42:	cf 66 0d 
   14c45:	c7 85 d0 e9 ff ff 00 	movl   $0x0,-0x1630(%rbp)
   14c4c:	00 00 00 
   14c4f:	c7 85 d4 e9 ff ff 00 	movl   $0x0,-0x162c(%rbp)
   14c56:	00 00 00 
   14c59:	c7 85 d8 e9 ff ff 4a 	movl   $0x8465d04a,-0x1628(%rbp)
   14c60:	d0 65 84 
   14c63:	c7 85 dc e9 ff ff 4a 	movl   $0x8465d04a,-0x1624(%rbp)
   14c6a:	d0 65 84 
   14c6d:	c7 85 e0 e9 ff ff 00 	movl   $0x0,-0x1620(%rbp)
   14c74:	00 00 00 
   14c77:	c7 85 e4 e9 ff ff 00 	movl   $0x0,-0x161c(%rbp)
   14c7e:	00 00 00 
   14c81:	c7 85 e8 e9 ff ff ed 	movl   $0xd66cfed,-0x1618(%rbp)
   14c88:	cf 66 0d 
   14c8b:	c7 85 ec e9 ff ff ed 	movl   $0xd66cfed,-0x1614(%rbp)
   14c92:	cf 66 0d 
   14c95:	c7 85 f0 e9 ff ff 00 	movl   $0x0,-0x1610(%rbp)
   14c9c:	00 00 00 
   14c9f:	c7 85 f4 e9 ff ff 00 	movl   $0x0,-0x160c(%rbp)
   14ca6:	00 00 00 
   14ca9:	c7 85 f8 e9 ff ff 4a 	movl   $0x8465d04a,-0x1608(%rbp)
   14cb0:	d0 65 84 
   14cb3:	c7 85 fc e9 ff ff 4a 	movl   $0x8465d04a,-0x1604(%rbp)
   14cba:	d0 65 84 
   14cbd:	c7 85 00 ea ff ff 00 	movl   $0x0,-0x1600(%rbp)
   14cc4:	00 00 00 
   14cc7:	c7 85 04 ea ff ff 00 	movl   $0x0,-0x15fc(%rbp)
   14cce:	00 00 00 
   14cd1:	c7 85 08 ea ff ff ed 	movl   $0xd66cfed,-0x15f8(%rbp)
   14cd8:	cf 66 0d 
   14cdb:	c7 85 0c ea ff ff ed 	movl   $0xd66cfed,-0x15f4(%rbp)
   14ce2:	cf 66 0d 
   14ce5:	c7 85 24 e6 ff ff ff 	movl   $0xffffffff,-0x19dc(%rbp)
   14cec:	ff ff ff 
   14cef:	c7 85 28 e6 ff ff 3f 	movl   $0xd0d3c63f,-0x19d8(%rbp)
   14cf6:	c6 d3 d0 
   14cf9:	c7 85 c4 e5 ff ff 00 	movl   $0x0,-0x1a3c(%rbp)
   14d00:	00 00 00 
   14d03:	eb 54                	jmp    14d59 <func_25+0x2f16>
   14d05:	c7 85 c8 e5 ff ff 00 	movl   $0x0,-0x1a38(%rbp)
   14d0c:	00 00 00 
   14d0f:	eb 38                	jmp    14d49 <func_25+0x2f06>
   14d11:	8b 85 c8 e5 ff ff    	mov    -0x1a38(%rbp),%eax
   14d17:	48 63 c8             	movslq %eax,%rcx
   14d1a:	8b 85 c4 e5 ff ff    	mov    -0x1a3c(%rbp),%eax
   14d20:	48 63 d0             	movslq %eax,%rdx
   14d23:	48 89 d0             	mov    %rdx,%rax
   14d26:	48 01 c0             	add    %rax,%rax
   14d29:	48 01 d0             	add    %rdx,%rax
   14d2c:	48 01 c0             	add    %rax,%rax
   14d2f:	48 8d 14 08          	lea    (%rax,%rcx,1),%rdx
   14d33:	48 8d 85 78 e6 ff ff 	lea    -0x1988(%rbp),%rax
   14d3a:	48 89 84 d5 80 e8 ff 	mov    %rax,-0x1780(%rbp,%rdx,8)
   14d41:	ff 
   14d42:	83 85 c8 e5 ff ff 01 	addl   $0x1,-0x1a38(%rbp)
   14d49:	83 bd c8 e5 ff ff 05 	cmpl   $0x5,-0x1a38(%rbp)
   14d50:	7e bf                	jle    14d11 <func_25+0x2ece>
   14d52:	83 85 c4 e5 ff ff 01 	addl   $0x1,-0x1a3c(%rbp)
   14d59:	83 bd c4 e5 ff ff 01 	cmpl   $0x1,-0x1a3c(%rbp)
   14d60:	7e a3                	jle    14d05 <func_25+0x2ec2>
   14d62:	48 83 85 78 e5 ff ff 	addq   $0x1,-0x1a88(%rbp)
   14d69:	01 
   14d6a:	48 8b 95 78 e5 ff ff 	mov    -0x1a88(%rbp),%rdx
   14d71:	8b 05 f1 02 01 00    	mov    0x102f1(%rip),%eax        # 25068 <g_53>
   14d77:	48 98                	cltq   
   14d79:	b9 52 a3 a3 8e       	mov    $0x8ea3a352,%ecx
   14d7e:	48 31 c8             	xor    %rcx,%rax
   14d81:	31 85 bc e5 ff ff    	xor    %eax,-0x1a44(%rbp)
   14d87:	8b 85 bc e5 ff ff    	mov    -0x1a44(%rbp),%eax
   14d8d:	48 98                	cltq   
   14d8f:	48 89 d6             	mov    %rdx,%rsi
   14d92:	48 89 c7             	mov    %rax,%rdi
   14d95:	e8 5d 6c ff ff       	callq  b9f7 <safe_div_func_int64_t_s_s>
   14d9a:	8b 85 64 e5 ff ff    	mov    -0x1a9c(%rbp),%eax
   14da0:	89 c2                	mov    %eax,%edx
   14da2:	48 8b 85 c8 e6 ff ff 	mov    -0x1938(%rbp),%rax
   14da9:	66 89 10             	mov    %dx,(%rax)
   14dac:	48 8b 85 c8 e6 ff ff 	mov    -0x1938(%rbp),%rax
   14db3:	0f b7 00             	movzwl (%rax),%eax
   14db6:	66 85 c0             	test   %ax,%ax
   14db9:	74 7a                	je     14e35 <func_25+0x2ff2>
   14dbb:	48 83 bd 40 e7 ff ff 	cmpq   $0x0,-0x18c0(%rbp)
   14dc2:	00 
   14dc3:	74 57                	je     14e1c <func_25+0x2fd9>
   14dc5:	8b 85 64 e5 ff ff    	mov    -0x1a9c(%rbp),%eax
   14dcb:	48 63 d8             	movslq %eax,%rbx
   14dce:	8b 85 64 e5 ff ff    	mov    -0x1a9c(%rbp),%eax
   14dd4:	0f b6 d0             	movzbl %al,%edx
   14dd7:	48 83 bd 40 e7 ff ff 	cmpq   $0x0,-0x18c0(%rbp)
   14dde:	00 
   14ddf:	74 10                	je     14df1 <func_25+0x2fae>
   14de1:	83 bd 64 e5 ff ff 00 	cmpl   $0x0,-0x1a9c(%rbp)
   14de8:	74 07                	je     14df1 <func_25+0x2fae>
   14dea:	b8 01 00 00 00       	mov    $0x1,%eax
   14def:	eb 05                	jmp    14df6 <func_25+0x2fb3>
   14df1:	b8 00 00 00 00       	mov    $0x0,%eax
   14df6:	0f b6 c0             	movzbl %al,%eax
   14df9:	89 d6                	mov    %edx,%esi
   14dfb:	89 c7                	mov    %eax,%edi
   14dfd:	e8 58 6d ff ff       	callq  bb5a <safe_add_func_uint8_t_u_u>
   14e02:	0f b6 c0             	movzbl %al,%eax
   14e05:	48 89 de             	mov    %rbx,%rsi
   14e08:	48 89 c7             	mov    %rax,%rdi
   14e0b:	e8 70 72 ff ff       	callq  c080 <safe_mod_func_uint64_t_u_u>
   14e10:	48 85 c0             	test   %rax,%rax
   14e13:	74 07                	je     14e1c <func_25+0x2fd9>
   14e15:	ba 01 00 00 00       	mov    $0x1,%edx
   14e1a:	eb 05                	jmp    14e21 <func_25+0x2fde>
   14e1c:	ba 00 00 00 00       	mov    $0x0,%edx
   14e21:	48 8b 05 00 38 01 00 	mov    0x13800(%rip),%rax        # 28628 <g_181>
   14e28:	8b 00                	mov    (%rax),%eax
   14e2a:	39 c2                	cmp    %eax,%edx
   14e2c:	75 07                	jne    14e35 <func_25+0x2ff2>
   14e2e:	b8 01 00 00 00       	mov    $0x1,%eax
   14e33:	eb 05                	jmp    14e3a <func_25+0x2ff7>
   14e35:	b8 00 00 00 00       	mov    $0x0,%eax
   14e3a:	48 98                	cltq   
   14e3c:	48 8b 95 40 e7 ff ff 	mov    -0x18c0(%rbp),%rdx
   14e43:	48 89 d6             	mov    %rdx,%rsi
   14e46:	48 89 c7             	mov    %rax,%rdi
   14e49:	e8 61 72 ff ff       	callq  c0af <safe_div_func_uint64_t_u_u>
   14e4e:	48 85 c0             	test   %rax,%rax
   14e51:	74 14                	je     14e67 <func_25+0x3024>
   14e53:	48 8b 85 68 e5 ff ff 	mov    -0x1a98(%rbp),%rax
   14e5a:	8b 00                	mov    (%rax),%eax
   14e5c:	85 c0                	test   %eax,%eax
   14e5e:	74 07                	je     14e67 <func_25+0x3024>
   14e60:	b8 01 00 00 00       	mov    $0x1,%eax
   14e65:	eb 05                	jmp    14e6c <func_25+0x3029>
   14e67:	b8 00 00 00 00       	mov    $0x0,%eax
   14e6c:	89 c2                	mov    %eax,%edx
   14e6e:	8b 85 64 e5 ff ff    	mov    -0x1a9c(%rbp),%eax
   14e74:	89 85 fc e5 ff ff    	mov    %eax,-0x1a04(%rbp)
   14e7a:	8b 85 fc e5 ff ff    	mov    -0x1a04(%rbp),%eax
   14e80:	3b 85 04 e6 ff ff    	cmp    -0x19fc(%rbp),%eax
   14e86:	0f 9f c0             	setg   %al
   14e89:	0f b6 c0             	movzbl %al,%eax
   14e8c:	89 d6                	mov    %edx,%esi
   14e8e:	89 c7                	mov    %eax,%edi
   14e90:	e8 b7 6d ff ff       	callq  bc4c <safe_lshift_func_uint8_t_u_u>
   14e95:	83 bd 04 e6 ff ff 00 	cmpl   $0x0,-0x19fc(%rbp)
   14e9c:	0f 84 c8 01 00 00    	je     1506a <func_25+0x3227>
   14ea2:	48 8d 85 e0 e8 ff ff 	lea    -0x1720(%rbp),%rax
   14ea9:	48 83 c0 50          	add    $0x50,%rax
   14ead:	48 89 85 10 ea ff ff 	mov    %rax,-0x15f0(%rbp)
   14eb4:	48 8d 85 e0 e8 ff ff 	lea    -0x1720(%rbp),%rax
   14ebb:	48 83 c0 50          	add    $0x50,%rax
   14ebf:	48 89 85 18 ea ff ff 	mov    %rax,-0x15e8(%rbp)
   14ec6:	48 8d 85 e0 e8 ff ff 	lea    -0x1720(%rbp),%rax
   14ecd:	48 83 c0 50          	add    $0x50,%rax
   14ed1:	48 89 85 20 ea ff ff 	mov    %rax,-0x15e0(%rbp)
   14ed8:	48 8d 85 e0 e8 ff ff 	lea    -0x1720(%rbp),%rax
   14edf:	48 83 c0 50          	add    $0x50,%rax
   14ee3:	48 89 85 28 ea ff ff 	mov    %rax,-0x15d8(%rbp)
   14eea:	48 8d 85 e0 e8 ff ff 	lea    -0x1720(%rbp),%rax
   14ef1:	48 83 c0 50          	add    $0x50,%rax
   14ef5:	48 89 85 30 ea ff ff 	mov    %rax,-0x15d0(%rbp)
   14efc:	c7 85 2c e6 ff ff f8 	movl   $0xfffffff8,-0x19d4(%rbp)
   14f03:	ff ff ff 
   14f06:	c7 85 30 e6 ff ff f7 	movl   $0xfffffff7,-0x19d0(%rbp)
   14f0d:	ff ff ff 
   14f10:	48 8b 85 78 e5 ff ff 	mov    -0x1a88(%rbp),%rax
   14f17:	0f be d8             	movsbl %al,%ebx
   14f1a:	48 8b 85 70 e5 ff ff 	mov    -0x1a90(%rbp),%rax
   14f21:	c7 00 05 00 00 00    	movl   $0x5,(%rax)
   14f27:	48 8b 95 20 ea ff ff 	mov    -0x15e0(%rbp),%rdx
   14f2e:	48 8b 05 d3 5f 01 00 	mov    0x15fd3(%rip),%rax        # 2af08 <g_2801>
   14f35:	48 39 c2             	cmp    %rax,%rdx
   14f38:	0f 95 c0             	setne  %al
   14f3b:	44 0f b6 f0          	movzbl %al,%r14d
   14f3f:	8b 85 64 e5 ff ff    	mov    -0x1a9c(%rbp),%eax
   14f45:	44 0f bf e0          	movswl %ax,%r12d
   14f49:	8b 85 64 e5 ff ff    	mov    -0x1a9c(%rbp),%eax
   14f4f:	4c 63 e8             	movslq %eax,%r13
   14f52:	8b 85 2c e6 ff ff    	mov    -0x19d4(%rbp),%eax
   14f58:	0f be c0             	movsbl %al,%eax
   14f5b:	89 c6                	mov    %eax,%esi
   14f5d:	bf 21 00 00 00       	mov    $0x21,%edi
   14f62:	e8 ab 62 ff ff       	callq  b212 <safe_mul_func_int8_t_s_s>
   14f67:	3c 06                	cmp    $0x6,%al
   14f69:	0f 9f c0             	setg   %al
   14f6c:	0f b6 c0             	movzbl %al,%eax
   14f6f:	4c 89 ee             	mov    %r13,%rsi
   14f72:	48 89 c7             	mov    %rax,%rdi
   14f75:	e8 7d 6a ff ff       	callq  b9f7 <safe_div_func_int64_t_s_s>
   14f7a:	8b 95 04 e6 ff ff    	mov    -0x19fc(%rbp),%edx
   14f80:	48 8b 85 a8 e6 ff ff 	mov    -0x1958(%rbp),%rax
   14f87:	89 10                	mov    %edx,(%rax)
   14f89:	48 b8 a2 70 04 20 4c 	movabs $0xa4c3504c200470a2,%rax
   14f90:	50 c3 a4 
   14f93:	89 c2                	mov    %eax,%edx
   14f95:	8b 85 30 e6 ff ff    	mov    -0x19d0(%rbp),%eax
   14f9b:	31 d0                	xor    %edx,%eax
   14f9d:	89 85 30 e6 ff ff    	mov    %eax,-0x19d0(%rbp)
   14fa3:	83 bd 64 e5 ff ff 6f 	cmpl   $0x6f,-0x1a9c(%rbp)
   14faa:	0f 9f c0             	setg   %al
   14fad:	0f b6 c0             	movzbl %al,%eax
   14fb0:	48 39 85 78 e5 ff ff 	cmp    %rax,-0x1a88(%rbp)
   14fb7:	0f 97 c0             	seta   %al
   14fba:	0f b6 c0             	movzbl %al,%eax
   14fbd:	89 85 04 e6 ff ff    	mov    %eax,-0x19fc(%rbp)
   14fc3:	8b 85 04 e6 ff ff    	mov    -0x19fc(%rbp),%eax
   14fc9:	98                   	cwtl   
   14fca:	44 89 e6             	mov    %r12d,%esi
   14fcd:	89 c7                	mov    %eax,%edi
   14fcf:	e8 42 64 ff ff       	callq  b416 <safe_mod_func_int16_t_s_s>
   14fd4:	98                   	cwtl   
   14fd5:	44 09 f0             	or     %r14d,%eax
   14fd8:	48 98                	cltq   
   14fda:	48 be 46 e7 81 9d 67 	movabs $0x8ece30679d81e746,%rsi
   14fe1:	30 ce 8e 
   14fe4:	48 89 c7             	mov    %rax,%rdi
   14fe7:	e8 42 70 ff ff       	callq  c02e <safe_add_func_uint64_t_u_u>
   14fec:	48 8b 15 cd 35 01 00 	mov    0x135cd(%rip),%rdx        # 285c0 <g_91>
   14ff3:	8b 12                	mov    (%rdx),%edx
   14ff5:	48 63 d2             	movslq %edx,%rdx
   14ff8:	48 39 d0             	cmp    %rdx,%rax
   14ffb:	0f 93 c0             	setae  %al
   14ffe:	0f b6 c0             	movzbl %al,%eax
   15001:	89 de                	mov    %ebx,%esi
   15003:	89 c7                	mov    %eax,%edi
   15005:	e8 ca 61 ff ff       	callq  b1d4 <safe_add_func_int8_t_s_s>
   1500a:	8b 85 04 e6 ff ff    	mov    -0x19fc(%rbp),%eax
   15010:	48 98                	cltq   
   15012:	48 89 85 78 e5 ff ff 	mov    %rax,-0x1a88(%rbp)
   15019:	48 b8 a7 8a 31 30 ef 	movabs $0x9db715ef30318aa7,%rax
   15020:	15 b7 9d 
   15023:	48 33 85 78 e5 ff ff 	xor    -0x1a88(%rbp),%rax
   1502a:	48 3d b8 2a 36 74    	cmp    $0x74362ab8,%rax
   15030:	0f 97 c0             	seta   %al
   15033:	0f b6 d0             	movzbl %al,%edx
   15036:	8b 85 64 e5 ff ff    	mov    -0x1a9c(%rbp),%eax
   1503c:	0f b6 c0             	movzbl %al,%eax
   1503f:	89 d6                	mov    %edx,%esi
   15041:	89 c7                	mov    %eax,%edi
   15043:	e8 12 6b ff ff       	callq  bb5a <safe_add_func_uint8_t_u_u>
   15048:	0f b6 c0             	movzbl %al,%eax
   1504b:	be 08 00 00 00       	mov    $0x8,%esi
   15050:	89 c7                	mov    %eax,%edi
   15052:	e8 7c 63 ff ff       	callq  b3d3 <safe_sub_func_int16_t_s_s>
   15057:	89 c2                	mov    %eax,%edx
   15059:	0f b6 85 89 e5 ff ff 	movzbl -0x1a77(%rbp),%eax
   15060:	09 d0                	or     %edx,%eax
   15062:	88 85 89 e5 ff ff    	mov    %al,-0x1a77(%rbp)
   15068:	eb 2a                	jmp    15094 <func_25+0x3251>
   1506a:	48 b8 6b 7f 7f bc 5c 	movabs $0x90e9be5cbc7f7f6b,%rax
   15071:	be e9 90 
   15074:	48 89 85 78 e7 ff ff 	mov    %rax,-0x1888(%rbp)
   1507b:	48 83 ad 78 e7 ff ff 	subq   $0x1,-0x1888(%rbp)
   15082:	01 
   15083:	48 8b 85 70 e5 ff ff 	mov    -0x1a90(%rbp),%rax
   1508a:	8b 00                	mov    (%rax),%eax
   1508c:	85 c0                	test   %eax,%eax
   1508e:	0f 85 d1 00 00 00    	jne    15165 <func_25+0x3322>
   15094:	48 8b 85 70 e5 ff ff 	mov    -0x1a90(%rbp),%rax
   1509b:	c7 00 30 ab 35 4d    	movl   $0x4d35ab30,(%rax)
   150a1:	c7 05 c9 08 01 00 00 	movl   $0x0,0x108c9(%rip)        # 25974 <g_1997>
   150a8:	00 00 00 
   150ab:	eb 7f                	jmp    1512c <func_25+0x32e9>
   150ad:	c7 85 34 e6 ff ff 36 	movl   $0x10fdad36,-0x19cc(%rbp)
   150b4:	ad fd 10 
   150b7:	c7 85 38 e6 ff ff 02 	movl   $0x2,-0x19c8(%rbp)
   150be:	00 00 00 
   150c1:	48 8d 85 10 ea ff ff 	lea    -0x15f0(%rbp),%rax
   150c8:	48 8d 15 f1 b4 00 00 	lea    0xb4f1(%rip),%rdx        # 205c0 <g_3910+0x1554>
   150cf:	b9 50 00 00 00       	mov    $0x50,%ecx
   150d4:	48 89 c7             	mov    %rax,%rdi
   150d7:	48 89 d6             	mov    %rdx,%rsi
   150da:	f3 48 a5             	rep movsq %ds:(%rsi),%es:(%rdi)
   150dd:	48 c7 85 80 e7 ff ff 	movq   $0x0,-0x1880(%rbp)
   150e4:	00 00 00 00 
   150e8:	48 8d 85 98 e6 ff ff 	lea    -0x1968(%rbp),%rax
   150ef:	48 89 85 88 e7 ff ff 	mov    %rax,-0x1878(%rbp)
   150f6:	66 c7 85 9a e5 ff ff 	movw   $0xa25f,-0x1a66(%rbp)
   150fd:	5f a2 
   150ff:	48 8b 15 d2 37 01 00 	mov    0x137d2(%rip),%rdx        # 288d8 <g_803>
   15106:	48 8b 05 23 35 01 00 	mov    0x13523(%rip),%rax        # 28630 <g_180>
   1510d:	48 8b 12             	mov    (%rdx),%rdx
   15110:	48 89 10             	mov    %rdx,(%rax)
   15113:	48 8b 00             	mov    (%rax),%rax
   15116:	48 89 85 68 e5 ff ff 	mov    %rax,-0x1a98(%rbp)
   1511d:	8b 05 51 08 01 00    	mov    0x10851(%rip),%eax        # 25974 <g_1997>
   15123:	83 c0 01             	add    $0x1,%eax
   15126:	89 05 48 08 01 00    	mov    %eax,0x10848(%rip)        # 25974 <g_1997>
   1512c:	8b 05 42 08 01 00    	mov    0x10842(%rip),%eax        # 25974 <g_1997>
   15132:	83 f8 08             	cmp    $0x8,%eax
   15135:	0f 8e 72 ff ff ff    	jle    150ad <func_25+0x326a>
   1513b:	c7 85 00 e6 ff ff 00 	movl   $0x0,-0x1a00(%rbp)
   15142:	00 00 00 
   15145:	8b 05 c9 ff 00 00    	mov    0xffc9(%rip),%eax        # 25114 <g_849>
   1514b:	83 c0 01             	add    $0x1,%eax
   1514e:	89 05 c0 ff 00 00    	mov    %eax,0xffc0(%rip)        # 25114 <g_849>
   15154:	8b 05 ba ff 00 00    	mov    0xffba(%rip),%eax        # 25114 <g_849>
   1515a:	83 f8 07             	cmp    $0x7,%eax
   1515d:	0f 86 7f f8 ff ff    	jbe    149e2 <func_25+0x2b9f>
   15163:	eb 01                	jmp    15166 <func_25+0x3323>
   15165:	90                   	nop
   15166:	8b 85 9c e5 ff ff    	mov    -0x1a64(%rbp),%eax
   1516c:	0f be c0             	movsbl %al,%eax
   1516f:	be 08 00 00 00       	mov    $0x8,%esi
   15174:	89 c7                	mov    %eax,%edi
   15176:	e8 59 60 ff ff       	callq  b1d4 <safe_add_func_int8_t_s_s>
   1517b:	0f be c0             	movsbl %al,%eax
   1517e:	89 85 9c e5 ff ff    	mov    %eax,-0x1a64(%rbp)
   15184:	8b 85 9c e5 ff ff    	mov    -0x1a64(%rbp),%eax
   1518a:	83 f8 1c             	cmp    $0x1c,%eax
   1518d:	0f 8e f2 ec ff ff    	jle    13e85 <func_25+0x2042>
   15193:	eb 01                	jmp    15196 <func_25+0x3353>
   15195:	90                   	nop
   15196:	8b 8d 64 e8 ff ff    	mov    -0x179c(%rbp),%ecx
   1519c:	48 8b 85 d8 e6 ff ff 	mov    -0x1928(%rbp),%rax
   151a3:	48 8b 00             	mov    (%rax),%rax
   151a6:	48 8b 00             	mov    (%rax),%rax
   151a9:	48 8b 00             	mov    (%rax),%rax
   151ac:	48 85 c0             	test   %rax,%rax
   151af:	0f 94 c0             	sete   %al
   151b2:	0f b6 d0             	movzbl %al,%edx
   151b5:	48 8b 85 70 e5 ff ff 	mov    -0x1a90(%rbp),%rax
   151bc:	09 ca                	or     %ecx,%edx
   151be:	89 10                	mov    %edx,(%rax)
   151c0:	48 8b 85 70 e5 ff ff 	mov    -0x1a90(%rbp),%rax
   151c7:	8b 00                	mov    (%rax),%eax
   151c9:	48 8b 4d d8          	mov    -0x28(%rbp),%rcx
   151cd:	64 48 33 0c 25 28 00 	xor    %fs:0x28,%rcx
   151d4:	00 00 
   151d6:	74 05                	je     151dd <func_25+0x339a>
   151d8:	e8 93 5e ff ff       	callq  b070 <__stack_chk_fail@plt>
   151dd:	48 81 c4 80 1a 00 00 	add    $0x1a80,%rsp
   151e4:	5b                   	pop    %rbx
   151e5:	41 5c                	pop    %r12
   151e7:	41 5d                	pop    %r13
   151e9:	41 5e                	pop    %r14
   151eb:	5d                   	pop    %rbp
   151ec:	c3                   	retq   

00000000000151ed <func_42>:
   151ed:	f3 0f 1e fa          	endbr64 
   151f1:	55                   	push   %rbp
   151f2:	48 89 e5             	mov    %rsp,%rbp
   151f5:	41 57                	push   %r15
   151f7:	41 56                	push   %r14
   151f9:	41 55                	push   %r13
   151fb:	41 54                	push   %r12
   151fd:	53                   	push   %rbx
   151fe:	48 81 ec 00 10 00 00 	sub    $0x1000,%rsp
   15205:	48 83 0c 24 00       	orq    $0x0,(%rsp)
   1520a:	48 81 ec 58 08 00 00 	sub    $0x858,%rsp
   15211:	89 bd 8c e7 ff ff    	mov    %edi,-0x1874(%rbp)
   15217:	48 89 b5 80 e7 ff ff 	mov    %rsi,-0x1880(%rbp)
   1521e:	64 48 8b 04 25 28 00 	mov    %fs:0x28,%rax
   15225:	00 00 
   15227:	48 89 45 c8          	mov    %rax,-0x38(%rbp)
   1522b:	31 c0                	xor    %eax,%eax
   1522d:	c7 85 10 e9 ff ff 03 	movl   $0x3,-0x16f0(%rbp)
   15234:	00 00 00 
   15237:	c7 85 14 e9 ff ff 03 	movl   $0x3,-0x16ec(%rbp)
   1523e:	00 00 00 
   15241:	c7 85 18 e9 ff ff 03 	movl   $0x3,-0x16e8(%rbp)
   15248:	00 00 00 
   1524b:	c7 85 1c e9 ff ff 03 	movl   $0x3,-0x16e4(%rbp)
   15252:	00 00 00 
   15255:	c7 85 20 e9 ff ff 03 	movl   $0x3,-0x16e0(%rbp)
   1525c:	00 00 00 
   1525f:	48 c7 85 50 e8 ff ff 	movq   $0x1,-0x17b0(%rbp)
   15266:	01 00 00 00 
   1526a:	66 c7 85 9c e7 ff ff 	movw   $0x3f1d,-0x1864(%rbp)
   15271:	1d 3f 
   15273:	48 c7 85 20 e8 ff ff 	movq   $0x0,-0x17e0(%rbp)
   1527a:	00 00 00 00 
   1527e:	48 8d 85 20 e8 ff ff 	lea    -0x17e0(%rbp),%rax
   15285:	48 89 85 58 e8 ff ff 	mov    %rax,-0x17a8(%rbp)
   1528c:	c7 85 a0 e7 ff ff 46 	movl   $0xfc2cc946,-0x1860(%rbp)
   15293:	c9 2c fc 
   15296:	48 8d 05 1b 39 01 00 	lea    0x1391b(%rip),%rax        # 28bb8 <g_1056+0x1f8>
   1529d:	48 89 85 28 e8 ff ff 	mov    %rax,-0x17d8(%rbp)
   152a4:	48 8d 85 28 e8 ff ff 	lea    -0x17d8(%rbp),%rax
   152ab:	48 89 85 30 e8 ff ff 	mov    %rax,-0x17d0(%rbp)
   152b2:	48 8d 85 30 e8 ff ff 	lea    -0x17d0(%rbp),%rax
   152b9:	48 89 85 60 e8 ff ff 	mov    %rax,-0x17a0(%rbp)
   152c0:	48 8d 05 99 3b 01 00 	lea    0x13b99(%rip),%rax        # 28e60 <g_1176>
   152c7:	48 89 85 68 e8 ff ff 	mov    %rax,-0x1798(%rbp)
   152ce:	c7 85 b0 e7 ff ff 61 	movl   $0xdd1e6761,-0x1850(%rbp)
   152d5:	67 1e dd 
   152d8:	c6 85 9b e7 ff ff f9 	movb   $0xf9,-0x1865(%rbp)
   152df:	c7 85 b4 e7 ff ff a7 	movl   $0xed449ba7,-0x184c(%rbp)
   152e6:	9b 44 ed 
   152e9:	48 8d 05 c8 35 01 00 	lea    0x135c8(%rip),%rax        # 288b8 <g_425>
   152f0:	48 89 85 70 e8 ff ff 	mov    %rax,-0x1790(%rbp)
   152f7:	48 c7 05 fe fd 00 00 	movq   $0x0,0xfdfe(%rip)        # 25100 <g_709>
   152fe:	00 00 00 00 
   15302:	e9 32 04 00 00       	jmpq   15739 <func_42+0x54c>
   15307:	48 c7 85 f0 e8 ff ff 	movq   $0x0,-0x1710(%rbp)
   1530e:	00 00 00 00 
   15312:	c7 85 14 e8 ff ff 01 	movl   $0x1,-0x17ec(%rbp)
   15319:	00 00 00 
   1531c:	66 c7 85 e0 f0 ff ff 	movw   $0xf9f9,-0xf20(%rbp)
   15323:	f9 f9 
   15325:	c6 85 e2 f0 ff ff be 	movb   $0xbe,-0xf1e(%rbp)
   1532c:	66 c7 85 e3 f0 ff ff 	movw   $0xfd08,-0xf1d(%rbp)
   15333:	08 fd 
   15335:	c6 85 e5 f0 ff ff 01 	movb   $0x1,-0xf1b(%rbp)
   1533c:	66 c7 85 e6 f0 ff ff 	movw   $0xf977,-0xf1a(%rbp)
   15343:	77 f9 
   15345:	c6 85 e8 f0 ff ff 77 	movb   $0x77,-0xf18(%rbp)
   1534c:	66 c7 85 e9 f0 ff ff 	movw   $0x877,-0xf17(%rbp)
   15353:	77 08 
   15355:	c6 85 eb f0 ff ff f9 	movb   $0xf9,-0xf15(%rbp)
   1535c:	66 c7 85 ec f0 ff ff 	movw   $0x7708,-0xf14(%rbp)
   15363:	08 77 
   15365:	c6 85 ee f0 ff ff 77 	movb   $0x77,-0xf12(%rbp)
   1536c:	66 c7 85 ef f0 ff ff 	movw   $0x77f9,-0xf11(%rbp)
   15373:	f9 77 
   15375:	c6 85 f1 f0 ff ff 01 	movb   $0x1,-0xf0f(%rbp)
   1537c:	66 c7 85 f2 f0 ff ff 	movw   $0x8fd,-0xf0e(%rbp)
   15383:	fd 08 
   15385:	c6 85 f4 f0 ff ff be 	movb   $0xbe,-0xf0c(%rbp)
   1538c:	66 c7 85 f5 f0 ff ff 	movw   $0xf9f9,-0xf0b(%rbp)
   15393:	f9 f9 
   15395:	c6 85 f7 f0 ff ff be 	movb   $0xbe,-0xf09(%rbp)
   1539c:	66 c7 85 f8 f0 ff ff 	movw   $0xfd08,-0xf08(%rbp)
   153a3:	08 fd 
   153a5:	c6 85 fa f0 ff ff 01 	movb   $0x1,-0xf06(%rbp)
   153ac:	66 c7 85 fb f0 ff ff 	movw   $0xf977,-0xf05(%rbp)
   153b3:	77 f9 
   153b5:	c6 85 fd f0 ff ff 77 	movb   $0x77,-0xf03(%rbp)
   153bc:	66 c7 85 fe f0 ff ff 	movw   $0x877,-0xf02(%rbp)
   153c3:	77 08 
   153c5:	c6 85 00 f1 ff ff 07 	movb   $0x7,-0xf00(%rbp)
   153cc:	66 c7 85 01 f1 ff ff 	movw   $0xfd77,-0xeff(%rbp)
   153d3:	77 fd 
   153d5:	c6 85 03 f1 ff ff fd 	movb   $0xfd,-0xefd(%rbp)
   153dc:	66 c7 85 04 f1 ff ff 	movw   $0xfd07,-0xefc(%rbp)
   153e3:	07 fd 
   153e5:	c6 85 06 f1 ff ff be 	movb   $0xbe,-0xefa(%rbp)
   153ec:	66 c7 85 07 f1 ff ff 	movw   $0x7701,-0xef9(%rbp)
   153f3:	01 77 
   153f5:	c6 85 09 f1 ff ff f9 	movb   $0xf9,-0xef7(%rbp)
   153fc:	66 c7 85 0a f1 ff ff 	movw   $0x707,-0xef6(%rbp)
   15403:	07 07 
   15405:	c6 85 0c f1 ff ff f9 	movb   $0xf9,-0xef4(%rbp)
   1540c:	66 c7 85 0d f1 ff ff 	movw   $0x177,-0xef3(%rbp)
   15413:	77 01 
   15415:	c6 85 0f f1 ff ff be 	movb   $0xbe,-0xef1(%rbp)
   1541c:	66 c7 85 10 f1 ff ff 	movw   $0x7fd,-0xef0(%rbp)
   15423:	fd 07 
   15425:	c6 85 12 f1 ff ff fd 	movb   $0xfd,-0xeee(%rbp)
   1542c:	66 c7 85 13 f1 ff ff 	movw   $0x77fd,-0xeed(%rbp)
   15433:	fd 77 
   15435:	c6 85 15 f1 ff ff 07 	movb   $0x7,-0xeeb(%rbp)
   1543c:	c7 85 18 e8 ff ff 07 	movl   $0x7,-0x17e8(%rbp)
   15443:	00 00 00 
   15446:	48 8d 05 f3 39 01 00 	lea    0x139f3(%rip),%rax        # 28e40 <g_1055>
   1544d:	48 89 85 f8 e8 ff ff 	mov    %rax,-0x1708(%rbp)
   15454:	c7 85 1c e8 ff ff f8 	movl   $0xfffffff8,-0x17e4(%rbp)
   1545b:	ff ff ff 
   1545e:	48 8d 05 ab fc 00 00 	lea    0xfcab(%rip),%rax        # 25110 <g_845>
   15465:	48 89 85 38 e8 ff ff 	mov    %rax,-0x17c8(%rbp)
   1546c:	48 8d 85 38 e8 ff ff 	lea    -0x17c8(%rbp),%rax
   15473:	48 89 85 00 e9 ff ff 	mov    %rax,-0x1700(%rbp)
   1547a:	48 8d 05 df 04 01 00 	lea    0x104df(%rip),%rax        # 25960 <g_1516>
   15481:	48 89 85 40 e8 ff ff 	mov    %rax,-0x17c0(%rbp)
   15488:	48 8d 85 40 e8 ff ff 	lea    -0x17c0(%rbp),%rax
   1548f:	48 89 85 e0 f7 ff ff 	mov    %rax,-0x820(%rbp)
   15496:	48 8d 85 40 e8 ff ff 	lea    -0x17c0(%rbp),%rax
   1549d:	48 89 85 e8 f7 ff ff 	mov    %rax,-0x818(%rbp)
   154a4:	48 8d 85 40 e8 ff ff 	lea    -0x17c0(%rbp),%rax
   154ab:	48 89 85 f0 f7 ff ff 	mov    %rax,-0x810(%rbp)
   154b2:	48 8d 85 40 e8 ff ff 	lea    -0x17c0(%rbp),%rax
   154b9:	48 89 85 f8 f7 ff ff 	mov    %rax,-0x808(%rbp)
   154c0:	48 8d 85 40 e8 ff ff 	lea    -0x17c0(%rbp),%rax
   154c7:	48 89 85 00 f8 ff ff 	mov    %rax,-0x800(%rbp)
   154ce:	48 8d 85 40 e8 ff ff 	lea    -0x17c0(%rbp),%rax
   154d5:	48 89 85 08 f8 ff ff 	mov    %rax,-0x7f8(%rbp)
   154dc:	48 8d 85 40 e8 ff ff 	lea    -0x17c0(%rbp),%rax
   154e3:	48 89 85 10 f8 ff ff 	mov    %rax,-0x7f0(%rbp)
   154ea:	48 8d 85 40 e8 ff ff 	lea    -0x17c0(%rbp),%rax
   154f1:	48 89 85 18 f8 ff ff 	mov    %rax,-0x7e8(%rbp)
   154f8:	48 8d 85 40 e8 ff ff 	lea    -0x17c0(%rbp),%rax
   154ff:	48 89 85 20 f8 ff ff 	mov    %rax,-0x7e0(%rbp)
   15506:	48 8d 85 40 e8 ff ff 	lea    -0x17c0(%rbp),%rax
   1550d:	48 89 85 28 f8 ff ff 	mov    %rax,-0x7d8(%rbp)
   15514:	48 8d 85 40 e8 ff ff 	lea    -0x17c0(%rbp),%rax
   1551b:	48 89 85 30 f8 ff ff 	mov    %rax,-0x7d0(%rbp)
   15522:	48 8d 85 40 e8 ff ff 	lea    -0x17c0(%rbp),%rax
   15529:	48 89 85 38 f8 ff ff 	mov    %rax,-0x7c8(%rbp)
   15530:	48 8d 85 40 e8 ff ff 	lea    -0x17c0(%rbp),%rax
   15537:	48 89 85 40 f8 ff ff 	mov    %rax,-0x7c0(%rbp)
   1553e:	48 8d 85 40 e8 ff ff 	lea    -0x17c0(%rbp),%rax
   15545:	48 89 85 48 f8 ff ff 	mov    %rax,-0x7b8(%rbp)
   1554c:	48 8d 85 40 e8 ff ff 	lea    -0x17c0(%rbp),%rax
   15553:	48 89 85 50 f8 ff ff 	mov    %rax,-0x7b0(%rbp)
   1555a:	48 8d 85 40 e8 ff ff 	lea    -0x17c0(%rbp),%rax
   15561:	48 89 85 58 f8 ff ff 	mov    %rax,-0x7a8(%rbp)
   15568:	48 8d 85 40 e8 ff ff 	lea    -0x17c0(%rbp),%rax
   1556f:	48 89 85 60 f8 ff ff 	mov    %rax,-0x7a0(%rbp)
   15576:	48 8d 85 40 e8 ff ff 	lea    -0x17c0(%rbp),%rax
   1557d:	48 89 85 68 f8 ff ff 	mov    %rax,-0x798(%rbp)
   15584:	48 8d 85 40 e8 ff ff 	lea    -0x17c0(%rbp),%rax
   1558b:	48 89 85 70 f8 ff ff 	mov    %rax,-0x790(%rbp)
   15592:	48 8d 85 40 e8 ff ff 	lea    -0x17c0(%rbp),%rax
   15599:	48 89 85 78 f8 ff ff 	mov    %rax,-0x788(%rbp)
   155a0:	48 8d 85 40 e8 ff ff 	lea    -0x17c0(%rbp),%rax
   155a7:	48 89 85 80 f8 ff ff 	mov    %rax,-0x780(%rbp)
   155ae:	48 8d 85 40 e8 ff ff 	lea    -0x17c0(%rbp),%rax
   155b5:	48 89 85 88 f8 ff ff 	mov    %rax,-0x778(%rbp)
   155bc:	48 8d 85 40 e8 ff ff 	lea    -0x17c0(%rbp),%rax
   155c3:	48 89 85 90 f8 ff ff 	mov    %rax,-0x770(%rbp)
   155ca:	48 8d 85 40 e8 ff ff 	lea    -0x17c0(%rbp),%rax
   155d1:	48 89 85 98 f8 ff ff 	mov    %rax,-0x768(%rbp)
   155d8:	48 8d 85 40 e8 ff ff 	lea    -0x17c0(%rbp),%rax
   155df:	48 89 85 a0 f8 ff ff 	mov    %rax,-0x760(%rbp)
   155e6:	48 8d 85 40 e8 ff ff 	lea    -0x17c0(%rbp),%rax
   155ed:	48 89 85 a8 f8 ff ff 	mov    %rax,-0x758(%rbp)
   155f4:	48 8d 85 40 e8 ff ff 	lea    -0x17c0(%rbp),%rax
   155fb:	48 89 85 b0 f8 ff ff 	mov    %rax,-0x750(%rbp)
   15602:	48 8d 85 40 e8 ff ff 	lea    -0x17c0(%rbp),%rax
   15609:	48 89 85 b8 f8 ff ff 	mov    %rax,-0x748(%rbp)
   15610:	48 8d 85 40 e8 ff ff 	lea    -0x17c0(%rbp),%rax
   15617:	48 89 85 c0 f8 ff ff 	mov    %rax,-0x740(%rbp)
   1561e:	48 8d 85 40 e8 ff ff 	lea    -0x17c0(%rbp),%rax
   15625:	48 89 85 c8 f8 ff ff 	mov    %rax,-0x738(%rbp)
   1562c:	48 8d 85 40 e8 ff ff 	lea    -0x17c0(%rbp),%rax
   15633:	48 89 85 d0 f8 ff ff 	mov    %rax,-0x730(%rbp)
   1563a:	48 8d 85 40 e8 ff ff 	lea    -0x17c0(%rbp),%rax
   15641:	48 89 85 d8 f8 ff ff 	mov    %rax,-0x728(%rbp)
   15648:	48 8d 85 40 e8 ff ff 	lea    -0x17c0(%rbp),%rax
   1564f:	48 89 85 e0 f8 ff ff 	mov    %rax,-0x720(%rbp)
   15656:	48 8d 85 40 e8 ff ff 	lea    -0x17c0(%rbp),%rax
   1565d:	48 89 85 e8 f8 ff ff 	mov    %rax,-0x718(%rbp)
   15664:	48 8d 85 40 e8 ff ff 	lea    -0x17c0(%rbp),%rax
   1566b:	48 89 85 f0 f8 ff ff 	mov    %rax,-0x710(%rbp)
   15672:	48 8d 85 40 e8 ff ff 	lea    -0x17c0(%rbp),%rax
   15679:	48 89 85 f8 f8 ff ff 	mov    %rax,-0x708(%rbp)
   15680:	48 8d 85 40 e8 ff ff 	lea    -0x17c0(%rbp),%rax
   15687:	48 89 85 00 f9 ff ff 	mov    %rax,-0x700(%rbp)
   1568e:	48 8d 85 40 e8 ff ff 	lea    -0x17c0(%rbp),%rax
   15695:	48 89 85 08 f9 ff ff 	mov    %rax,-0x6f8(%rbp)
   1569c:	48 8d 85 40 e8 ff ff 	lea    -0x17c0(%rbp),%rax
   156a3:	48 89 85 10 f9 ff ff 	mov    %rax,-0x6f0(%rbp)
   156aa:	48 8d 85 40 e8 ff ff 	lea    -0x17c0(%rbp),%rax
   156b1:	48 89 85 18 f9 ff ff 	mov    %rax,-0x6e8(%rbp)
   156b8:	48 8d 85 40 e8 ff ff 	lea    -0x17c0(%rbp),%rax
   156bf:	48 89 85 20 f9 ff ff 	mov    %rax,-0x6e0(%rbp)
   156c6:	48 8d 85 40 e8 ff ff 	lea    -0x17c0(%rbp),%rax
   156cd:	48 89 85 28 f9 ff ff 	mov    %rax,-0x6d8(%rbp)
   156d4:	48 8d 85 e0 f7 ff ff 	lea    -0x820(%rbp),%rax
   156db:	48 83 c0 50          	add    $0x50,%rax
   156df:	48 89 85 48 e8 ff ff 	mov    %rax,-0x17b8(%rbp)
   156e6:	48 8d 85 48 e8 ff ff 	lea    -0x17b8(%rbp),%rax
   156ed:	48 89 85 08 e9 ff ff 	mov    %rax,-0x16f8(%rbp)
   156f4:	c7 85 b8 e7 ff ff 00 	movl   $0x0,-0x1848(%rbp)
   156fb:	00 00 00 
   156fe:	eb 1e                	jmp    1571e <func_42+0x531>
   15700:	8b 85 b8 e7 ff ff    	mov    -0x1848(%rbp),%eax
   15706:	48 98                	cltq   
   15708:	48 8d 15 69 f9 00 00 	lea    0xf969(%rip),%rdx        # 25078 <g_64>
   1570f:	48 89 94 c5 e0 ea ff 	mov    %rdx,-0x1520(%rbp,%rax,8)
   15716:	ff 
   15717:	83 85 b8 e7 ff ff 01 	addl   $0x1,-0x1848(%rbp)
   1571e:	83 bd b8 e7 ff ff 02 	cmpl   $0x2,-0x1848(%rbp)
   15725:	7e d9                	jle    15700 <func_42+0x513>
   15727:	48 8b 05 d2 f9 00 00 	mov    0xf9d2(%rip),%rax        # 25100 <g_709>
   1572e:	48 83 c0 01          	add    $0x1,%rax
   15732:	48 89 05 c7 f9 00 00 	mov    %rax,0xf9c7(%rip)        # 25100 <g_709>
   15739:	48 8b 05 c0 f9 00 00 	mov    0xf9c0(%rip),%rax        # 25100 <g_709>
   15740:	48 83 f8 07          	cmp    $0x7,%rax
   15744:	0f 8e bd fb ff ff    	jle    15307 <func_42+0x11a>
   1574a:	c7 05 c4 56 01 00 01 	movl   $0x1,0x156c4(%rip)        # 2ae18 <g_626>
   15751:	00 00 00 
   15754:	e9 78 1a 00 00       	jmpq   171d1 <func_42+0x1fe4>
   15759:	48 8d 05 b8 2e 01 00 	lea    0x12eb8(%rip),%rax        # 28618 <g_128>
   15760:	48 89 85 78 e8 ff ff 	mov    %rax,-0x1788(%rbp)
   15767:	c7 85 a4 e7 ff ff fb 	movl   $0xfffffffb,-0x185c(%rbp)
   1576e:	ff ff ff 
   15771:	c7 85 a8 e7 ff ff 1c 	movl   $0xcd61341c,-0x1858(%rbp)
   15778:	34 61 cd 
   1577b:	c7 85 ac e7 ff ff 03 	movl   $0xa8c46f03,-0x1854(%rbp)
   15782:	6f c4 a8 
   15785:	48 8d 85 e0 ea ff ff 	lea    -0x1520(%rbp),%rax
   1578c:	48 8d 15 4d 16 01 00 	lea    0x1164d(%rip),%rdx        # 26de0 <g_4523+0x9e0>
   15793:	b9 c0 00 00 00       	mov    $0xc0,%ecx
   15798:	48 89 c7             	mov    %rax,%rdi
   1579b:	48 89 d6             	mov    %rdx,%rsi
   1579e:	f3 48 a5             	rep movsq %ds:(%rsi),%es:(%rdi)
   157a1:	48 c7 85 40 e8 ff ff 	movq   $0x0,-0x17c0(%rbp)
   157a8:	00 00 00 00 
   157ac:	48 8d 85 40 e8 ff ff 	lea    -0x17c0(%rbp),%rax
   157b3:	48 89 85 80 e8 ff ff 	mov    %rax,-0x1780(%rbp)
   157ba:	0f b7 05 27 f9 00 00 	movzwl 0xf927(%rip),%eax        # 250e8 <g_327>
   157c1:	98                   	cwtl   
   157c2:	8b 95 8c e7 ff ff    	mov    -0x1874(%rbp),%edx
   157c8:	89 d6                	mov    %edx,%esi
   157ca:	89 c7                	mov    %eax,%edi
   157cc:	e8 ff 66 ff ff       	callq  bed0 <safe_sub_func_uint32_t_u_u>
   157d1:	89 c2                	mov    %eax,%edx
   157d3:	48 8b 05 e6 2d 01 00 	mov    0x12de6(%rip),%rax        # 285c0 <g_91>
   157da:	89 10                	mov    %edx,(%rax)
   157dc:	48 c7 05 11 f9 00 00 	movq   $0x0,0xf911(%rip)        # 250f8 <g_708>
   157e3:	00 00 00 00 
   157e7:	e9 d6 05 00 00       	jmpq   15dc2 <func_42+0xbd5>
   157ec:	c7 85 38 e8 ff ff 01 	movl   $0x1,-0x17c8(%rbp)
   157f3:	00 00 00 
   157f6:	c7 85 d8 e7 ff ff 06 	movl   $0x6,-0x1828(%rbp)
   157fd:	00 00 00 
   15800:	c7 85 dc e7 ff ff f4 	movl   $0x6b2c3bf4,-0x1824(%rbp)
   15807:	3b 2c 6b 
   1580a:	c7 85 e0 e7 ff ff a2 	movl   $0xaee16ea2,-0x1820(%rbp)
   15811:	6e e1 ae 
   15814:	c7 85 e4 e7 ff ff 89 	movl   $0x7d718789,-0x181c(%rbp)
   1581b:	87 71 7d 
   1581e:	c7 85 e8 e7 ff ff ff 	movl   $0xffffffff,-0x1818(%rbp)
   15825:	ff ff ff 
   15828:	c6 85 9a e7 ff ff 00 	movb   $0x0,-0x1866(%rbp)
   1582f:	c6 05 4b f8 00 00 04 	movb   $0x4,0xf84b(%rip)        # 25081 <g_129>
   15836:	e9 34 05 00 00       	jmpq   15d6f <func_42+0xb82>
   1583b:	48 8d 05 1e 36 01 00 	lea    0x1361e(%rip),%rax        # 28e60 <g_1176>
   15842:	48 89 85 48 e8 ff ff 	mov    %rax,-0x17b8(%rbp)
   15849:	48 8d 85 48 e8 ff ff 	lea    -0x17b8(%rbp),%rax
   15850:	48 89 85 c8 e8 ff ff 	mov    %rax,-0x1738(%rbp)
   15857:	c7 85 ec e7 ff ff 5b 	movl   $0x798e375b,-0x1814(%rbp)
   1585e:	37 8e 79 
   15861:	c7 85 f0 e7 ff ff ca 	movl   $0x6400f4ca,-0x1810(%rbp)
   15868:	f4 00 64 
   1586b:	0f b7 05 76 f8 00 00 	movzwl 0xf876(%rip),%eax        # 250e8 <g_327>
   15872:	66 85 c0             	test   %ax,%ax
   15875:	0f 85 ee 04 00 00    	jne    15d69 <func_42+0xb7c>
   1587b:	8b 05 97 55 01 00    	mov    0x15597(%rip),%eax        # 2ae18 <g_626>
   15881:	8d 50 01             	lea    0x1(%rax),%edx
   15884:	0f b6 05 f6 f7 00 00 	movzbl 0xf7f6(%rip),%eax        # 25081 <g_129>
   1588b:	0f be c0             	movsbl %al,%eax
   1588e:	8d 48 01             	lea    0x1(%rax),%ecx
   15891:	48 8b 3d 60 f8 00 00 	mov    0xf860(%rip),%rdi        # 250f8 <g_708>
   15898:	48 8b 05 f1 4d 01 00 	mov    0x14df1(%rip),%rax        # 2a690 <g_1807>
   1589f:	48 8b 30             	mov    (%rax),%rsi
   158a2:	48 63 c1             	movslq %ecx,%rax
   158a5:	48 63 ca             	movslq %edx,%rcx
   158a8:	48 89 c2             	mov    %rax,%rdx
   158ab:	48 c1 e2 02          	shl    $0x2,%rdx
   158af:	48 01 c2             	add    %rax,%rdx
   158b2:	48 89 c8             	mov    %rcx,%rax
   158b5:	48 c1 e0 02          	shl    $0x2,%rax
   158b9:	48 01 c8             	add    %rcx,%rax
   158bc:	48 8d 0c 85 00 00 00 	lea    0x0(,%rax,4),%rcx
   158c3:	00 
   158c4:	48 01 c8             	add    %rcx,%rax
   158c7:	48 01 c0             	add    %rax,%rax
   158ca:	48 01 d0             	add    %rdx,%rax
   158cd:	48 01 f8             	add    %rdi,%rax
   158d0:	48 8d 14 c5 00 00 00 	lea    0x0(,%rax,8),%rdx
   158d7:	00 
   158d8:	48 8d 05 e1 45 01 00 	lea    0x145e1(%rip),%rax        # 29ec0 <g_1809>
   158df:	48 8b 04 02          	mov    (%rdx,%rax,1),%rax
   158e3:	48 89 06             	mov    %rax,(%rsi)
   158e6:	48 8b 05 eb 4d 01 00 	mov    0x14deb(%rip),%rax        # 2a6d8 <g_1938>
   158ed:	48 8b 95 c8 e8 ff ff 	mov    -0x1738(%rbp),%rdx
   158f4:	48 89 10             	mov    %rdx,(%rax)
   158f7:	c7 05 63 00 01 00 02 	movl   $0x2,0x10063(%rip)        # 25964 <g_1549>
   158fe:	00 00 00 
   15901:	e9 3f 04 00 00       	jmpq   15d45 <func_42+0xb58>
   15906:	48 8d 05 0b 2d 01 00 	lea    0x12d0b(%rip),%rax        # 28618 <g_128>
   1590d:	48 89 85 d0 e8 ff ff 	mov    %rax,-0x1730(%rbp)
   15914:	c7 85 f4 e7 ff ff 01 	movl   $0x1,-0x180c(%rbp)
   1591b:	00 00 00 
   1591e:	c7 85 f8 e7 ff ff 09 	movl   $0x9,-0x1808(%rbp)
   15925:	00 00 00 
   15928:	c7 85 fc e7 ff ff 4d 	movl   $0x7af4644d,-0x1804(%rbp)
   1592f:	64 f4 7a 
   15932:	c7 85 00 e8 ff ff 70 	movl   $0xf1f8a70,-0x1800(%rbp)
   15939:	8a 1f 0f 
   1593c:	c7 85 04 e8 ff ff 01 	movl   $0x1,-0x17fc(%rbp)
   15943:	00 00 00 
   15946:	c7 85 08 e8 ff ff ff 	movl   $0xffffffff,-0x17f8(%rbp)
   1594d:	ff ff ff 
   15950:	c7 85 0c e8 ff ff f6 	movl   $0xfffffff6,-0x17f4(%rbp)
   15957:	ff ff ff 
   1595a:	c7 85 bc e7 ff ff 00 	movl   $0x0,-0x1844(%rbp)
   15961:	00 00 00 
   15964:	eb 1a                	jmp    15980 <func_42+0x793>
   15966:	8b 85 bc e7 ff ff    	mov    -0x1844(%rbp),%eax
   1596c:	48 98                	cltq   
   1596e:	c7 84 85 e0 f0 ff ff 	movl   $0x9f6d150e,-0xf20(%rbp,%rax,4)
   15975:	0e 15 6d 9f 
   15979:	83 85 bc e7 ff ff 01 	addl   $0x1,-0x1844(%rbp)
   15980:	83 bd bc e7 ff ff 04 	cmpl   $0x4,-0x1844(%rbp)
   15987:	7e dd                	jle    15966 <func_42+0x779>
   15989:	8b 05 89 54 01 00    	mov    0x15489(%rip),%eax        # 2ae18 <g_626>
   1598f:	8b 15 cf ff 00 00    	mov    0xffcf(%rip),%edx        # 25964 <g_1549>
   15995:	83 c2 01             	add    $0x1,%edx
   15998:	89 d1                	mov    %edx,%ecx
   1599a:	48 63 d0             	movslq %eax,%rdx
   1599d:	48 89 d0             	mov    %rdx,%rax
   159a0:	48 c1 e0 02          	shl    $0x2,%rax
   159a4:	48 01 d0             	add    %rdx,%rax
   159a7:	48 01 c0             	add    %rax,%rax
   159aa:	48 01 c8             	add    %rcx,%rax
   159ad:	48 8d 14 00          	lea    (%rax,%rax,1),%rdx
   159b1:	48 8d 05 08 f7 00 00 	lea    0xf708(%rip),%rax        # 250c0 <g_256>
   159b8:	0f b7 04 02          	movzwl (%rdx,%rax,1),%eax
   159bc:	66 85 c0             	test   %ax,%ax
   159bf:	0f 85 91 03 00 00    	jne    15d56 <func_42+0xb69>
   159c5:	c7 05 a5 f6 00 00 09 	movl   $0x9,0xf6a5(%rip)        # 25074 <g_56>
   159cc:	00 00 00 
   159cf:	e9 54 03 00 00       	jmpq   15d28 <func_42+0xb3b>
   159d4:	48 8d 85 38 e8 ff ff 	lea    -0x17c8(%rbp),%rax
   159db:	48 89 85 d8 e8 ff ff 	mov    %rax,-0x1728(%rbp)
   159e2:	c7 85 10 e8 ff ff c5 	movl   $0x64bfa3c5,-0x17f0(%rbp)
   159e9:	a3 bf 64 
   159ec:	48 8d 05 89 f6 00 00 	lea    0xf689(%rip),%rax        # 2507c <g_65>
   159f3:	48 89 85 e0 e8 ff ff 	mov    %rax,-0x1720(%rbp)
   159fa:	48 b8 0b 9b 39 2f b7 	movabs $0xaf170b72f399b0b,%rax
   15a01:	70 f1 0a 
   15a04:	48 89 85 e8 e8 ff ff 	mov    %rax,-0x1718(%rbp)
   15a0b:	c7 85 c0 e7 ff ff 00 	movl   $0x0,-0x1840(%rbp)
   15a12:	00 00 00 
   15a15:	eb 1e                	jmp    15a35 <func_42+0x848>
   15a17:	8b 85 c0 e7 ff ff    	mov    -0x1840(%rbp),%eax
   15a1d:	48 98                	cltq   
   15a1f:	48 8d 95 a4 e7 ff ff 	lea    -0x185c(%rbp),%rdx
   15a26:	48 89 94 c5 e0 f7 ff 	mov    %rdx,-0x820(%rbp,%rax,8)
   15a2d:	ff 
   15a2e:	83 85 c0 e7 ff ff 01 	addl   $0x1,-0x1840(%rbp)
   15a35:	83 bd c0 e7 ff ff 04 	cmpl   $0x4,-0x1840(%rbp)
   15a3c:	7e d9                	jle    15a17 <func_42+0x82a>
   15a3e:	48 8b 85 d0 e8 ff ff 	mov    -0x1730(%rbp),%rax
   15a45:	48 3b 85 78 e8 ff ff 	cmp    -0x1788(%rbp),%rax
   15a4c:	0f 94 c0             	sete   %al
   15a4f:	0f b6 c0             	movzbl %al,%eax
   15a52:	89 85 38 e8 ff ff    	mov    %eax,-0x17c8(%rbp)
   15a58:	8b 05 0e ff 00 00    	mov    0xff0e(%rip),%eax        # 2596c <g_1723>
   15a5e:	41 89 c6             	mov    %eax,%r14d
   15a61:	0f b7 05 88 f6 00 00 	movzwl 0xf688(%rip),%eax        # 250f0 <g_685>
   15a68:	0f bf d8             	movswl %ax,%ebx
   15a6b:	8b 05 a7 53 01 00    	mov    0x153a7(%rip),%eax        # 2ae18 <g_626>
   15a71:	8d 50 03             	lea    0x3(%rax),%edx
   15a74:	48 8b 05 7d f6 00 00 	mov    0xf67d(%rip),%rax        # 250f8 <g_708>
   15a7b:	48 63 d2             	movslq %edx,%rdx
   15a7e:	48 c1 e2 03          	shl    $0x3,%rdx
   15a82:	48 01 c2             	add    %rax,%rdx
   15a85:	48 8d 05 94 f6 00 00 	lea    0xf694(%rip),%rax        # 25120 <g_929>
   15a8c:	48 01 d0             	add    %rdx,%rax
   15a8f:	0f b6 00             	movzbl (%rax),%eax
   15a92:	44 0f b6 e0          	movzbl %al,%r12d
   15a96:	48 8b 05 fb 2e 01 00 	mov    0x12efb(%rip),%rax        # 28998 <g_975>
   15a9d:	48 8b 00             	mov    (%rax),%rax
   15aa0:	48 8b 00             	mov    (%rax),%rax
   15aa3:	48 39 85 68 e8 ff ff 	cmp    %rax,-0x1798(%rbp)
   15aaa:	0f 95 c0             	setne  %al
   15aad:	44 0f b6 e8          	movzbl %al,%r13d
   15ab1:	48 8b 05 40 f6 00 00 	mov    0xf640(%rip),%rax        # 250f8 <g_708>
   15ab8:	48 83 c0 02          	add    $0x2,%rax
   15abc:	0f b6 15 be f5 00 00 	movzbl 0xf5be(%rip),%edx        # 25081 <g_129>
   15ac3:	0f be d2             	movsbl %dl,%edx
   15ac6:	8b 0d 4c 53 01 00    	mov    0x1534c(%rip),%ecx        # 2ae18 <g_626>
   15acc:	83 c1 07             	add    $0x7,%ecx
   15acf:	48 63 f1             	movslq %ecx,%rsi
   15ad2:	48 63 ca             	movslq %edx,%rcx
   15ad5:	48 89 c2             	mov    %rax,%rdx
   15ad8:	48 c1 e2 06          	shl    $0x6,%rdx
   15adc:	48 29 c2             	sub    %rax,%rdx
   15adf:	48 89 c8             	mov    %rcx,%rax
   15ae2:	48 c1 e0 03          	shl    $0x3,%rax
   15ae6:	48 01 c8             	add    %rcx,%rax
   15ae9:	48 01 d0             	add    %rdx,%rax
   15aec:	48 01 f0             	add    %rsi,%rax
   15aef:	48 8d 14 c5 00 00 00 	lea    0x0(,%rax,8),%rdx
   15af6:	00 
   15af7:	48 8d 05 82 f6 00 00 	lea    0xf682(%rip),%rax        # 25180 <g_1346>
   15afe:	48 8b 04 02          	mov    (%rdx,%rax,1),%rax
   15b02:	41 89 c7             	mov    %eax,%r15d
   15b05:	48 be 18 f8 9c 77 74 	movabs $0xf7f7a374779cf818,%rsi
   15b0c:	a3 f7 f7 
   15b0f:	48 bf fa 50 2f e2 cd 	movabs $0xbc8b8ecde22f50fa,%rdi
   15b16:	8e 8b bc 
   15b19:	e8 2d 65 ff ff       	callq  c04b <safe_sub_func_uint64_t_u_u>
   15b1e:	8b 05 f4 52 01 00    	mov    0x152f4(%rip),%eax        # 2ae18 <g_626>
   15b24:	0f b6 15 56 f5 00 00 	movzbl 0xf556(%rip),%edx        # 25081 <g_129>
   15b2b:	0f be d2             	movsbl %dl,%edx
   15b2e:	8d 4a 01             	lea    0x1(%rdx),%ecx
   15b31:	48 8b 15 c0 f5 00 00 	mov    0xf5c0(%rip),%rdx        # 250f8 <g_708>
   15b38:	48 8d 72 03          	lea    0x3(%rdx),%rsi
   15b3c:	48 63 d1             	movslq %ecx,%rdx
   15b3f:	48 63 c8             	movslq %eax,%rcx
   15b42:	48 89 d0             	mov    %rdx,%rax
   15b45:	48 c1 e0 03          	shl    $0x3,%rax
   15b49:	48 01 d0             	add    %rdx,%rax
   15b4c:	48 89 ca             	mov    %rcx,%rdx
   15b4f:	48 c1 e2 06          	shl    $0x6,%rdx
   15b53:	48 29 ca             	sub    %rcx,%rdx
   15b56:	48 01 d0             	add    %rdx,%rax
   15b59:	48 01 f0             	add    %rsi,%rax
   15b5c:	48 8d 14 c5 00 00 00 	lea    0x0(,%rax,8),%rdx
   15b63:	00 
   15b64:	48 8d 05 15 f6 00 00 	lea    0xf615(%rip),%rax        # 25180 <g_1346>
   15b6b:	48 8b 04 02          	mov    (%rdx,%rax,1),%rax
   15b6f:	44 89 fe             	mov    %r15d,%esi
   15b72:	89 c7                	mov    %eax,%edi
   15b74:	e8 ac 63 ff ff       	callq  bf25 <safe_div_func_uint32_t_u_u>
   15b79:	8b 85 a4 e7 ff ff    	mov    -0x185c(%rbp),%eax
   15b7f:	89 c1                	mov    %eax,%ecx
   15b81:	48 8b 05 70 f5 00 00 	mov    0xf570(%rip),%rax        # 250f8 <g_708>
   15b88:	48 83 c0 07          	add    $0x7,%rax
   15b8c:	8b 15 d2 fd 00 00    	mov    0xfdd2(%rip),%edx        # 25964 <g_1549>
   15b92:	89 d2                	mov    %edx,%edx
   15b94:	48 c1 e0 03          	shl    $0x3,%rax
   15b98:	48 01 c2             	add    %rax,%rdx
   15b9b:	48 8d 05 7e f5 00 00 	lea    0xf57e(%rip),%rax        # 25120 <g_929>
   15ba2:	48 01 d0             	add    %rdx,%rax
   15ba5:	0f b6 00             	movzbl (%rax),%eax
   15ba8:	0f b6 c0             	movzbl %al,%eax
   15bab:	89 ce                	mov    %ecx,%esi
   15bad:	89 c7                	mov    %eax,%edi
   15baf:	e8 af 59 ff ff       	callq  b563 <safe_rshift_func_int16_t_s_u>
   15bb4:	98                   	cwtl   
   15bb5:	44 31 e8             	xor    %r13d,%eax
   15bb8:	89 c2                	mov    %eax,%edx
   15bba:	8b 05 2c f5 00 00    	mov    0xf52c(%rip),%eax        # 250ec <g_362>
   15bc0:	21 d0                	and    %edx,%eax
   15bc2:	89 05 24 f5 00 00    	mov    %eax,0xf524(%rip)        # 250ec <g_362>
   15bc8:	8b 15 1e f5 00 00    	mov    0xf51e(%rip),%edx        # 250ec <g_362>
   15bce:	48 8b 85 d8 e8 ff ff 	mov    -0x1728(%rbp),%rax
   15bd5:	89 10                	mov    %edx,(%rax)
   15bd7:	48 8b 85 d8 e8 ff ff 	mov    -0x1728(%rbp),%rax
   15bde:	8b 10                	mov    (%rax),%edx
   15be0:	8b 0d 7e fd 00 00    	mov    0xfd7e(%rip),%ecx        # 25964 <g_1549>
   15be6:	8b 05 2c 52 01 00    	mov    0x1522c(%rip),%eax        # 2ae18 <g_626>
   15bec:	83 c0 05             	add    $0x5,%eax
   15bef:	48 98                	cltq   
   15bf1:	89 c9                	mov    %ecx,%ecx
   15bf3:	48 c1 e1 03          	shl    $0x3,%rcx
   15bf7:	48 01 c1             	add    %rax,%rcx
   15bfa:	48 8d 05 1f f5 00 00 	lea    0xf51f(%rip),%rax        # 25120 <g_929>
   15c01:	48 01 c8             	add    %rcx,%rax
   15c04:	0f b6 00             	movzbl (%rax),%eax
   15c07:	0f b6 c0             	movzbl %al,%eax
   15c0a:	89 d6                	mov    %edx,%esi
   15c0c:	89 c7                	mov    %eax,%edi
   15c0e:	e8 12 63 ff ff       	callq  bf25 <safe_div_func_uint32_t_u_u>
   15c13:	8b 85 10 e8 ff ff    	mov    -0x17f0(%rbp),%eax
   15c19:	0f b7 c0             	movzwl %ax,%eax
   15c1c:	8b 95 8c e7 ff ff    	mov    -0x1874(%rbp),%edx
   15c22:	89 d6                	mov    %edx,%esi
   15c24:	89 c7                	mov    %eax,%edi
   15c26:	e8 db 61 ff ff       	callq  be06 <safe_lshift_func_uint16_t_u_u>
   15c2b:	0f b7 c0             	movzwl %ax,%eax
   15c2e:	8b 95 ec e7 ff ff    	mov    -0x1814(%rbp),%edx
   15c34:	89 d6                	mov    %edx,%esi
   15c36:	89 c7                	mov    %eax,%edi
   15c38:	e8 c2 5a ff ff       	callq  b6ff <safe_div_func_int32_t_s_s>
   15c3d:	0f be c0             	movsbl %al,%eax
   15c40:	89 c6                	mov    %eax,%esi
   15c42:	bf 00 00 00 00       	mov    $0x0,%edi
   15c47:	e8 a6 55 ff ff       	callq  b1f2 <safe_sub_func_int8_t_s_s>
   15c4c:	84 c0                	test   %al,%al
   15c4e:	0f 94 c0             	sete   %al
   15c51:	0f b6 c0             	movzbl %al,%eax
   15c54:	44 21 e0             	and    %r12d,%eax
   15c57:	83 f8 3e             	cmp    $0x3e,%eax
   15c5a:	0f 94 c0             	sete   %al
   15c5d:	0f b6 f0             	movzbl %al,%esi
   15c60:	8b 05 b2 51 01 00    	mov    0x151b2(%rip),%eax        # 2ae18 <g_626>
   15c66:	8d 48 02             	lea    0x2(%rax),%ecx
   15c69:	8b 05 a9 51 01 00    	mov    0x151a9(%rip),%eax        # 2ae18 <g_626>
   15c6f:	8d 50 05             	lea    0x5(%rax),%edx
   15c72:	8b 05 a0 51 01 00    	mov    0x151a0(%rip),%eax        # 2ae18 <g_626>
   15c78:	83 c0 02             	add    $0x2,%eax
   15c7b:	48 63 f8             	movslq %eax,%rdi
   15c7e:	48 63 c1             	movslq %ecx,%rax
   15c81:	48 63 ca             	movslq %edx,%rcx
   15c84:	48 89 c2             	mov    %rax,%rdx
   15c87:	48 c1 e2 06          	shl    $0x6,%rdx
   15c8b:	48 29 c2             	sub    %rax,%rdx
   15c8e:	48 89 c8             	mov    %rcx,%rax
   15c91:	48 c1 e0 03          	shl    $0x3,%rax
   15c95:	48 01 c8             	add    %rcx,%rax
   15c98:	48 01 d0             	add    %rdx,%rax
   15c9b:	48 01 f8             	add    %rdi,%rax
   15c9e:	48 8d 14 c5 00 00 00 	lea    0x0(,%rax,8),%rdx
   15ca5:	00 
   15ca6:	48 8d 05 d3 f4 00 00 	lea    0xf4d3(%rip),%rax        # 25180 <g_1346>
   15cad:	48 8b 04 02          	mov    (%rdx,%rax,1),%rax
   15cb1:	48 39 c6             	cmp    %rax,%rsi
   15cb4:	0f 95 c0             	setne  %al
   15cb7:	0f b6 c0             	movzbl %al,%eax
   15cba:	89 de                	mov    %ebx,%esi
   15cbc:	89 c7                	mov    %eax,%edi
   15cbe:	e8 42 59 ff ff       	callq  b605 <safe_sub_func_int32_t_s_s>
   15cc3:	44 89 f6             	mov    %r14d,%esi
   15cc6:	bf 05 b1 40 3a       	mov    $0x3a40b105,%edi
   15ccb:	e8 2f 5a ff ff       	callq  b6ff <safe_div_func_int32_t_s_s>
   15cd0:	48 8b 05 01 4a 01 00 	mov    0x14a01(%rip),%rax        # 2a6d8 <g_1938>
   15cd7:	48 8b 00             	mov    (%rax),%rax
   15cda:	48 8b 00             	mov    (%rax),%rax
   15cdd:	48 8b 00             	mov    (%rax),%rax
   15ce0:	48 8b 00             	mov    (%rax),%rax
   15ce3:	0f b7 00             	movzwl (%rax),%eax
   15ce6:	66 3d f0 85          	cmp    $0x85f0,%ax
   15cea:	0f 96 c0             	setbe  %al
   15ced:	0f b6 d0             	movzbl %al,%edx
   15cf0:	48 8b 85 e0 e8 ff ff 	mov    -0x1720(%rbp),%rax
   15cf7:	8b 00                	mov    (%rax),%eax
   15cf9:	09 c2                	or     %eax,%edx
   15cfb:	48 8b 85 e0 e8 ff ff 	mov    -0x1720(%rbp),%rax
   15d02:	89 10                	mov    %edx,(%rax)
   15d04:	8b 85 a4 e7 ff ff    	mov    -0x185c(%rbp),%eax
   15d0a:	85 c0                	test   %eax,%eax
   15d0c:	0f 85 e5 f5 ff ff    	jne    152f7 <func_42+0x10a>
   15d12:	80 ad 9a e7 ff ff 01 	subb   $0x1,-0x1866(%rbp)
   15d19:	8b 05 55 f3 00 00    	mov    0xf355(%rip),%eax        # 25074 <g_56>
   15d1f:	83 e8 01             	sub    $0x1,%eax
   15d22:	89 05 4c f3 00 00    	mov    %eax,0xf34c(%rip)        # 25074 <g_56>
   15d28:	8b 05 46 f3 00 00    	mov    0xf346(%rip),%eax        # 25074 <g_56>
   15d2e:	85 c0                	test   %eax,%eax
   15d30:	0f 8f 9e fc ff ff    	jg     159d4 <func_42+0x7e7>
   15d36:	8b 05 28 fc 00 00    	mov    0xfc28(%rip),%eax        # 25964 <g_1549>
   15d3c:	83 c0 01             	add    $0x1,%eax
   15d3f:	89 05 1f fc 00 00    	mov    %eax,0xfc1f(%rip)        # 25964 <g_1549>
   15d45:	8b 05 19 fc 00 00    	mov    0xfc19(%rip),%eax        # 25964 <g_1549>
   15d4b:	83 f8 07             	cmp    $0x7,%eax
   15d4e:	0f 86 b2 fb ff ff    	jbe    15906 <func_42+0x719>
   15d54:	eb 01                	jmp    15d57 <func_42+0xb6a>
   15d56:	90                   	nop
   15d57:	0f b6 05 23 f3 00 00 	movzbl 0xf323(%rip),%eax        # 25081 <g_129>
   15d5e:	83 e8 01             	sub    $0x1,%eax
   15d61:	88 05 1a f3 00 00    	mov    %al,0xf31a(%rip)        # 25081 <g_129>
   15d67:	eb 06                	jmp    15d6f <func_42+0xb82>
   15d69:	90                   	nop
   15d6a:	e9 88 f5 ff ff       	jmpq   152f7 <func_42+0x10a>
   15d6f:	0f b6 05 0b f3 00 00 	movzbl 0xf30b(%rip),%eax        # 25081 <g_129>
   15d76:	84 c0                	test   %al,%al
   15d78:	0f 89 bd fa ff ff    	jns    1583b <func_42+0x64e>
   15d7e:	8b 85 a4 e7 ff ff    	mov    -0x185c(%rbp),%eax
   15d84:	89 c2                	mov    %eax,%edx
   15d86:	48 8b 05 bb 28 01 00 	mov    0x128bb(%rip),%rax        # 28648 <g_356>
   15d8d:	48 8b 00             	mov    (%rax),%rax
   15d90:	0f b7 00             	movzwl (%rax),%eax
   15d93:	0f b7 c0             	movzwl %ax,%eax
   15d96:	89 d6                	mov    %edx,%esi
   15d98:	89 c7                	mov    %eax,%edi
   15d9a:	e8 db 60 ff ff       	callq  be7a <safe_rshift_func_uint16_t_u_u>
   15d9f:	0f b7 d0             	movzwl %ax,%edx
   15da2:	8b 85 a0 e7 ff ff    	mov    -0x1860(%rbp),%eax
   15da8:	09 d0                	or     %edx,%eax
   15daa:	89 85 a0 e7 ff ff    	mov    %eax,-0x1860(%rbp)
   15db0:	48 8b 05 41 f3 00 00 	mov    0xf341(%rip),%rax        # 250f8 <g_708>
   15db7:	48 83 c0 01          	add    $0x1,%rax
   15dbb:	48 89 05 36 f3 00 00 	mov    %rax,0xf336(%rip)        # 250f8 <g_708>
   15dc2:	48 8b 05 2f f3 00 00 	mov    0xf32f(%rip),%rax        # 250f8 <g_708>
   15dc9:	48 83 f8 01          	cmp    $0x1,%rax
   15dcd:	0f 86 19 fa ff ff    	jbe    157ec <func_42+0x5ff>
   15dd3:	48 8b 05 e6 27 01 00 	mov    0x127e6(%rip),%rax        # 285c0 <g_91>
   15dda:	c7 00 7d 4e 81 e6    	movl   $0xe6814e7d,(%rax)
   15de0:	48 8b 85 80 e8 ff ff 	mov    -0x1780(%rbp),%rax
   15de7:	48 c7 00 00 00 00 00 	movq   $0x0,(%rax)
   15dee:	48 8b 85 30 ef ff ff 	mov    -0x10d0(%rbp),%rax
   15df5:	48 85 c0             	test   %rax,%rax
   15df8:	0f 85 17 0d 00 00    	jne    16b15 <func_42+0x1928>
   15dfe:	48 8d 85 a0 e7 ff ff 	lea    -0x1860(%rbp),%rax
   15e05:	48 89 85 88 e8 ff ff 	mov    %rax,-0x1778(%rbp)
   15e0c:	48 8d 05 f5 f2 00 00 	lea    0xf2f5(%rip),%rax        # 25108 <g_801>
   15e13:	48 89 85 e0 f7 ff ff 	mov    %rax,-0x820(%rbp)
   15e1a:	48 c7 85 e8 f7 ff ff 	movq   $0x0,-0x818(%rbp)
   15e21:	00 00 00 00 
   15e25:	48 8d 85 a0 e7 ff ff 	lea    -0x1860(%rbp),%rax
   15e2c:	48 89 85 f0 f7 ff ff 	mov    %rax,-0x810(%rbp)
   15e33:	48 8d 05 ce f2 00 00 	lea    0xf2ce(%rip),%rax        # 25108 <g_801>
   15e3a:	48 89 85 f8 f7 ff ff 	mov    %rax,-0x808(%rbp)
   15e41:	48 8d 85 a8 e7 ff ff 	lea    -0x1858(%rbp),%rax
   15e48:	48 89 85 00 f8 ff ff 	mov    %rax,-0x800(%rbp)
   15e4f:	48 c7 85 08 f8 ff ff 	movq   $0x0,-0x7f8(%rbp)
   15e56:	00 00 00 00 
   15e5a:	48 c7 85 10 f8 ff ff 	movq   $0x0,-0x7f0(%rbp)
   15e61:	00 00 00 00 
   15e65:	48 8d 05 08 f2 00 00 	lea    0xf208(%rip),%rax        # 25074 <g_56>
   15e6c:	48 89 85 18 f8 ff ff 	mov    %rax,-0x7e8(%rbp)
   15e73:	48 8d 85 a0 e7 ff ff 	lea    -0x1860(%rbp),%rax
   15e7a:	48 89 85 20 f8 ff ff 	mov    %rax,-0x7e0(%rbp)
   15e81:	48 8d 05 9c f1 00 00 	lea    0xf19c(%rip),%rax        # 25024 <g_3>
   15e88:	48 89 85 28 f8 ff ff 	mov    %rax,-0x7d8(%rbp)
   15e8f:	48 8d 85 a8 e7 ff ff 	lea    -0x1858(%rbp),%rax
   15e96:	48 89 85 30 f8 ff ff 	mov    %rax,-0x7d0(%rbp)
   15e9d:	48 8d 85 a4 e7 ff ff 	lea    -0x185c(%rbp),%rax
   15ea4:	48 89 85 38 f8 ff ff 	mov    %rax,-0x7c8(%rbp)
   15eab:	48 c7 85 40 f8 ff ff 	movq   $0x0,-0x7c0(%rbp)
   15eb2:	00 00 00 00 
   15eb6:	48 8d 85 10 e9 ff ff 	lea    -0x16f0(%rbp),%rax
   15ebd:	48 89 85 48 f8 ff ff 	mov    %rax,-0x7b8(%rbp)
   15ec4:	48 8d 85 a0 e7 ff ff 	lea    -0x1860(%rbp),%rax
   15ecb:	48 89 85 50 f8 ff ff 	mov    %rax,-0x7b0(%rbp)
   15ed2:	48 8d 05 9b f1 00 00 	lea    0xf19b(%rip),%rax        # 25074 <g_56>
   15ed9:	48 89 85 58 f8 ff ff 	mov    %rax,-0x7a8(%rbp)
   15ee0:	48 c7 85 60 f8 ff ff 	movq   $0x0,-0x7a0(%rbp)
   15ee7:	00 00 00 00 
   15eeb:	48 8d 85 10 e9 ff ff 	lea    -0x16f0(%rbp),%rax
   15ef2:	48 89 85 68 f8 ff ff 	mov    %rax,-0x798(%rbp)
   15ef9:	48 8d 05 74 f1 00 00 	lea    0xf174(%rip),%rax        # 25074 <g_56>
   15f00:	48 89 85 70 f8 ff ff 	mov    %rax,-0x790(%rbp)
   15f07:	48 c7 85 78 f8 ff ff 	movq   $0x0,-0x788(%rbp)
   15f0e:	00 00 00 00 
   15f12:	48 8d 85 a0 e7 ff ff 	lea    -0x1860(%rbp),%rax
   15f19:	48 89 85 80 f8 ff ff 	mov    %rax,-0x780(%rbp)
   15f20:	48 8d 85 a0 e7 ff ff 	lea    -0x1860(%rbp),%rax
   15f27:	48 89 85 88 f8 ff ff 	mov    %rax,-0x778(%rbp)
   15f2e:	48 8d 85 a8 e7 ff ff 	lea    -0x1858(%rbp),%rax
   15f35:	48 89 85 90 f8 ff ff 	mov    %rax,-0x770(%rbp)
   15f3c:	48 8d 05 c5 f1 00 00 	lea    0xf1c5(%rip),%rax        # 25108 <g_801>
   15f43:	48 89 85 98 f8 ff ff 	mov    %rax,-0x768(%rbp)
   15f4a:	48 8d 05 b7 f1 00 00 	lea    0xf1b7(%rip),%rax        # 25108 <g_801>
   15f51:	48 89 85 a0 f8 ff ff 	mov    %rax,-0x760(%rbp)
   15f58:	48 8d 85 a0 e7 ff ff 	lea    -0x1860(%rbp),%rax
   15f5f:	48 89 85 a8 f8 ff ff 	mov    %rax,-0x758(%rbp)
   15f66:	48 8d 85 a0 e7 ff ff 	lea    -0x1860(%rbp),%rax
   15f6d:	48 89 85 b0 f8 ff ff 	mov    %rax,-0x750(%rbp)
   15f74:	48 8d 05 01 f1 00 00 	lea    0xf101(%rip),%rax        # 2507c <g_65>
   15f7b:	48 89 85 b8 f8 ff ff 	mov    %rax,-0x748(%rbp)
   15f82:	48 8d 85 10 e9 ff ff 	lea    -0x16f0(%rbp),%rax
   15f89:	48 83 c0 08          	add    $0x8,%rax
   15f8d:	48 89 85 c0 f8 ff ff 	mov    %rax,-0x740(%rbp)
   15f94:	48 8d 85 10 e9 ff ff 	lea    -0x16f0(%rbp),%rax
   15f9b:	48 89 85 c8 f8 ff ff 	mov    %rax,-0x738(%rbp)
   15fa2:	48 8d 05 d3 f0 00 00 	lea    0xf0d3(%rip),%rax        # 2507c <g_65>
   15fa9:	48 89 85 d0 f8 ff ff 	mov    %rax,-0x730(%rbp)
   15fb0:	48 8d 05 51 f1 00 00 	lea    0xf151(%rip),%rax        # 25108 <g_801>
   15fb7:	48 89 85 d8 f8 ff ff 	mov    %rax,-0x728(%rbp)
   15fbe:	48 8d 85 a0 e7 ff ff 	lea    -0x1860(%rbp),%rax
   15fc5:	48 89 85 e0 f8 ff ff 	mov    %rax,-0x720(%rbp)
   15fcc:	48 8d 05 35 f1 00 00 	lea    0xf135(%rip),%rax        # 25108 <g_801>
   15fd3:	48 89 85 e8 f8 ff ff 	mov    %rax,-0x718(%rbp)
   15fda:	48 8d 85 10 e9 ff ff 	lea    -0x16f0(%rbp),%rax
   15fe1:	48 89 85 f0 f8 ff ff 	mov    %rax,-0x710(%rbp)
   15fe8:	48 8d 85 a4 e7 ff ff 	lea    -0x185c(%rbp),%rax
   15fef:	48 89 85 f8 f8 ff ff 	mov    %rax,-0x708(%rbp)
   15ff6:	48 8d 05 0b f1 00 00 	lea    0xf10b(%rip),%rax        # 25108 <g_801>
   15ffd:	48 89 85 00 f9 ff ff 	mov    %rax,-0x700(%rbp)
   16004:	48 8d 85 ac e7 ff ff 	lea    -0x1854(%rbp),%rax
   1600b:	48 89 85 08 f9 ff ff 	mov    %rax,-0x6f8(%rbp)
   16012:	48 8d 85 a0 e7 ff ff 	lea    -0x1860(%rbp),%rax
   16019:	48 89 85 10 f9 ff ff 	mov    %rax,-0x6f0(%rbp)
   16020:	48 c7 85 18 f9 ff ff 	movq   $0x0,-0x6e8(%rbp)
   16027:	00 00 00 00 
   1602b:	48 8d 85 10 e9 ff ff 	lea    -0x16f0(%rbp),%rax
   16032:	48 89 85 20 f9 ff ff 	mov    %rax,-0x6e0(%rbp)
   16039:	48 c7 85 28 f9 ff ff 	movq   $0x0,-0x6d8(%rbp)
   16040:	00 00 00 00 
   16044:	48 8d 05 29 f0 00 00 	lea    0xf029(%rip),%rax        # 25074 <g_56>
   1604b:	48 89 85 30 f9 ff ff 	mov    %rax,-0x6d0(%rbp)
   16052:	48 8d 05 af f0 00 00 	lea    0xf0af(%rip),%rax        # 25108 <g_801>
   16059:	48 89 85 38 f9 ff ff 	mov    %rax,-0x6c8(%rbp)
   16060:	48 8d 85 10 e9 ff ff 	lea    -0x16f0(%rbp),%rax
   16067:	48 89 85 40 f9 ff ff 	mov    %rax,-0x6c0(%rbp)
   1606e:	48 8d 85 10 e9 ff ff 	lea    -0x16f0(%rbp),%rax
   16075:	48 83 c0 04          	add    $0x4,%rax
   16079:	48 89 85 48 f9 ff ff 	mov    %rax,-0x6b8(%rbp)
   16080:	48 8d 85 10 e9 ff ff 	lea    -0x16f0(%rbp),%rax
   16087:	48 83 c0 08          	add    $0x8,%rax
   1608b:	48 89 85 50 f9 ff ff 	mov    %rax,-0x6b0(%rbp)
   16092:	48 8d 85 a0 e7 ff ff 	lea    -0x1860(%rbp),%rax
   16099:	48 89 85 58 f9 ff ff 	mov    %rax,-0x6a8(%rbp)
   160a0:	48 c7 85 60 f9 ff ff 	movq   $0x0,-0x6a0(%rbp)
   160a7:	00 00 00 00 
   160ab:	48 8d 85 a0 e7 ff ff 	lea    -0x1860(%rbp),%rax
   160b2:	48 89 85 68 f9 ff ff 	mov    %rax,-0x698(%rbp)
   160b9:	48 8d 85 a0 e7 ff ff 	lea    -0x1860(%rbp),%rax
   160c0:	48 89 85 70 f9 ff ff 	mov    %rax,-0x690(%rbp)
   160c7:	48 8d 05 56 ef 00 00 	lea    0xef56(%rip),%rax        # 25024 <g_3>
   160ce:	48 89 85 78 f9 ff ff 	mov    %rax,-0x688(%rbp)
   160d5:	48 8d 85 a8 e7 ff ff 	lea    -0x1858(%rbp),%rax
   160dc:	48 89 85 80 f9 ff ff 	mov    %rax,-0x680(%rbp)
   160e3:	48 8d 85 a8 e7 ff ff 	lea    -0x1858(%rbp),%rax
   160ea:	48 89 85 88 f9 ff ff 	mov    %rax,-0x678(%rbp)
   160f1:	48 c7 85 90 f9 ff ff 	movq   $0x0,-0x670(%rbp)
   160f8:	00 00 00 00 
   160fc:	48 c7 85 98 f9 ff ff 	movq   $0x0,-0x668(%rbp)
   16103:	00 00 00 00 
   16107:	48 8d 85 a0 e7 ff ff 	lea    -0x1860(%rbp),%rax
   1610e:	48 89 85 a0 f9 ff ff 	mov    %rax,-0x660(%rbp)
   16115:	48 8d 85 10 e9 ff ff 	lea    -0x16f0(%rbp),%rax
   1611c:	48 83 c0 04          	add    $0x4,%rax
   16120:	48 89 85 a8 f9 ff ff 	mov    %rax,-0x658(%rbp)
   16127:	48 c7 85 b0 f9 ff ff 	movq   $0x0,-0x650(%rbp)
   1612e:	00 00 00 00 
   16132:	48 8d 85 10 e9 ff ff 	lea    -0x16f0(%rbp),%rax
   16139:	48 83 c0 10          	add    $0x10,%rax
   1613d:	48 89 85 b8 f9 ff ff 	mov    %rax,-0x648(%rbp)
   16144:	48 8d 05 29 ef 00 00 	lea    0xef29(%rip),%rax        # 25074 <g_56>
   1614b:	48 89 85 c0 f9 ff ff 	mov    %rax,-0x640(%rbp)
   16152:	48 8d 85 10 e9 ff ff 	lea    -0x16f0(%rbp),%rax
   16159:	48 89 85 c8 f9 ff ff 	mov    %rax,-0x638(%rbp)
   16160:	48 8d 85 a0 e7 ff ff 	lea    -0x1860(%rbp),%rax
   16167:	48 89 85 d0 f9 ff ff 	mov    %rax,-0x630(%rbp)
   1616e:	48 c7 85 d8 f9 ff ff 	movq   $0x0,-0x628(%rbp)
   16175:	00 00 00 00 
   16179:	48 8d 85 a8 e7 ff ff 	lea    -0x1858(%rbp),%rax
   16180:	48 89 85 e0 f9 ff ff 	mov    %rax,-0x620(%rbp)
   16187:	48 8d 05 ee ee 00 00 	lea    0xeeee(%rip),%rax        # 2507c <g_65>
   1618e:	48 89 85 e8 f9 ff ff 	mov    %rax,-0x618(%rbp)
   16195:	48 8d 05 6c ef 00 00 	lea    0xef6c(%rip),%rax        # 25108 <g_801>
   1619c:	48 89 85 f0 f9 ff ff 	mov    %rax,-0x610(%rbp)
   161a3:	48 8d 05 ca ee 00 00 	lea    0xeeca(%rip),%rax        # 25074 <g_56>
   161aa:	48 89 85 f8 f9 ff ff 	mov    %rax,-0x608(%rbp)
   161b1:	48 8d 85 a0 e7 ff ff 	lea    -0x1860(%rbp),%rax
   161b8:	48 89 85 00 fa ff ff 	mov    %rax,-0x600(%rbp)
   161bf:	48 8d 05 42 ef 00 00 	lea    0xef42(%rip),%rax        # 25108 <g_801>
   161c6:	48 89 85 08 fa ff ff 	mov    %rax,-0x5f8(%rbp)
   161cd:	48 8d 85 10 e9 ff ff 	lea    -0x16f0(%rbp),%rax
   161d4:	48 83 c0 08          	add    $0x8,%rax
   161d8:	48 89 85 10 fa ff ff 	mov    %rax,-0x5f0(%rbp)
   161df:	48 8d 85 10 e9 ff ff 	lea    -0x16f0(%rbp),%rax
   161e6:	48 83 c0 10          	add    $0x10,%rax
   161ea:	48 89 85 18 fa ff ff 	mov    %rax,-0x5e8(%rbp)
   161f1:	48 8d 05 84 ee 00 00 	lea    0xee84(%rip),%rax        # 2507c <g_65>
   161f8:	48 89 85 20 fa ff ff 	mov    %rax,-0x5e0(%rbp)
   161ff:	48 c7 85 28 fa ff ff 	movq   $0x0,-0x5d8(%rbp)
   16206:	00 00 00 00 
   1620a:	48 8d 85 a0 e7 ff ff 	lea    -0x1860(%rbp),%rax
   16211:	48 89 85 30 fa ff ff 	mov    %rax,-0x5d0(%rbp)
   16218:	48 8d 05 5d ee 00 00 	lea    0xee5d(%rip),%rax        # 2507c <g_65>
   1621f:	48 89 85 38 fa ff ff 	mov    %rax,-0x5c8(%rbp)
   16226:	48 8d 85 10 e9 ff ff 	lea    -0x16f0(%rbp),%rax
   1622d:	48 89 85 40 fa ff ff 	mov    %rax,-0x5c0(%rbp)
   16234:	48 8d 85 a8 e7 ff ff 	lea    -0x1858(%rbp),%rax
   1623b:	48 89 85 48 fa ff ff 	mov    %rax,-0x5b8(%rbp)
   16242:	48 8d 05 bf ee 00 00 	lea    0xeebf(%rip),%rax        # 25108 <g_801>
   16249:	48 89 85 50 fa ff ff 	mov    %rax,-0x5b0(%rbp)
   16250:	48 8d 05 25 ee 00 00 	lea    0xee25(%rip),%rax        # 2507c <g_65>
   16257:	48 89 85 58 fa ff ff 	mov    %rax,-0x5a8(%rbp)
   1625e:	48 8d 85 a0 e7 ff ff 	lea    -0x1860(%rbp),%rax
   16265:	48 89 85 60 fa ff ff 	mov    %rax,-0x5a0(%rbp)
   1626c:	48 8d 85 a0 e7 ff ff 	lea    -0x1860(%rbp),%rax
   16273:	48 89 85 68 fa ff ff 	mov    %rax,-0x598(%rbp)
   1627a:	48 8d 85 10 e9 ff ff 	lea    -0x16f0(%rbp),%rax
   16281:	48 89 85 70 fa ff ff 	mov    %rax,-0x590(%rbp)
   16288:	48 8d 85 a0 e7 ff ff 	lea    -0x1860(%rbp),%rax
   1628f:	48 89 85 78 fa ff ff 	mov    %rax,-0x588(%rbp)
   16296:	48 8d 05 d7 ed 00 00 	lea    0xedd7(%rip),%rax        # 25074 <g_56>
   1629d:	48 89 85 80 fa ff ff 	mov    %rax,-0x580(%rbp)
   162a4:	48 c7 85 88 fa ff ff 	movq   $0x0,-0x578(%rbp)
   162ab:	00 00 00 00 
   162af:	48 8d 85 10 e9 ff ff 	lea    -0x16f0(%rbp),%rax
   162b6:	48 89 85 90 fa ff ff 	mov    %rax,-0x570(%rbp)
   162bd:	48 8d 05 b0 ed 00 00 	lea    0xedb0(%rip),%rax        # 25074 <g_56>
   162c4:	48 89 85 98 fa ff ff 	mov    %rax,-0x568(%rbp)
   162cb:	48 8d 85 10 e9 ff ff 	lea    -0x16f0(%rbp),%rax
   162d2:	48 83 c0 08          	add    $0x8,%rax
   162d6:	48 89 85 a0 fa ff ff 	mov    %rax,-0x560(%rbp)
   162dd:	48 c7 85 a8 fa ff ff 	movq   $0x0,-0x558(%rbp)
   162e4:	00 00 00 00 
   162e8:	48 c7 85 b0 fa ff ff 	movq   $0x0,-0x550(%rbp)
   162ef:	00 00 00 00 
   162f3:	48 8d 05 7a ed 00 00 	lea    0xed7a(%rip),%rax        # 25074 <g_56>
   162fa:	48 89 85 b8 fa ff ff 	mov    %rax,-0x548(%rbp)
   16301:	48 8d 85 a0 e7 ff ff 	lea    -0x1860(%rbp),%rax
   16308:	48 89 85 c0 fa ff ff 	mov    %rax,-0x540(%rbp)
   1630f:	48 8d 05 0e ed 00 00 	lea    0xed0e(%rip),%rax        # 25024 <g_3>
   16316:	48 89 85 c8 fa ff ff 	mov    %rax,-0x538(%rbp)
   1631d:	48 8d 85 a8 e7 ff ff 	lea    -0x1858(%rbp),%rax
   16324:	48 89 85 d0 fa ff ff 	mov    %rax,-0x530(%rbp)
   1632b:	48 8d 85 a4 e7 ff ff 	lea    -0x185c(%rbp),%rax
   16332:	48 89 85 d8 fa ff ff 	mov    %rax,-0x528(%rbp)
   16339:	48 c7 85 e0 fa ff ff 	movq   $0x0,-0x520(%rbp)
   16340:	00 00 00 00 
   16344:	48 8d 85 10 e9 ff ff 	lea    -0x16f0(%rbp),%rax
   1634b:	48 89 85 e8 fa ff ff 	mov    %rax,-0x518(%rbp)
   16352:	48 8d 85 a0 e7 ff ff 	lea    -0x1860(%rbp),%rax
   16359:	48 89 85 f0 fa ff ff 	mov    %rax,-0x510(%rbp)
   16360:	48 8d 05 0d ed 00 00 	lea    0xed0d(%rip),%rax        # 25074 <g_56>
   16367:	48 89 85 f8 fa ff ff 	mov    %rax,-0x508(%rbp)
   1636e:	48 c7 85 00 fb ff ff 	movq   $0x0,-0x500(%rbp)
   16375:	00 00 00 00 
   16379:	48 8d 85 10 e9 ff ff 	lea    -0x16f0(%rbp),%rax
   16380:	48 89 85 08 fb ff ff 	mov    %rax,-0x4f8(%rbp)
   16387:	48 8d 05 e6 ec 00 00 	lea    0xece6(%rip),%rax        # 25074 <g_56>
   1638e:	48 89 85 10 fb ff ff 	mov    %rax,-0x4f0(%rbp)
   16395:	48 c7 85 18 fb ff ff 	movq   $0x0,-0x4e8(%rbp)
   1639c:	00 00 00 00 
   163a0:	48 8d 85 a0 e7 ff ff 	lea    -0x1860(%rbp),%rax
   163a7:	48 89 85 20 fb ff ff 	mov    %rax,-0x4e0(%rbp)
   163ae:	48 8d 85 a0 e7 ff ff 	lea    -0x1860(%rbp),%rax
   163b5:	48 89 85 28 fb ff ff 	mov    %rax,-0x4d8(%rbp)
   163bc:	48 8d 85 a8 e7 ff ff 	lea    -0x1858(%rbp),%rax
   163c3:	48 89 85 30 fb ff ff 	mov    %rax,-0x4d0(%rbp)
   163ca:	48 8d 05 37 ed 00 00 	lea    0xed37(%rip),%rax        # 25108 <g_801>
   163d1:	48 89 85 38 fb ff ff 	mov    %rax,-0x4c8(%rbp)
   163d8:	48 8d 05 29 ed 00 00 	lea    0xed29(%rip),%rax        # 25108 <g_801>
   163df:	48 89 85 40 fb ff ff 	mov    %rax,-0x4c0(%rbp)
   163e6:	48 8d 85 a0 e7 ff ff 	lea    -0x1860(%rbp),%rax
   163ed:	48 89 85 48 fb ff ff 	mov    %rax,-0x4b8(%rbp)
   163f4:	48 8d 85 a0 e7 ff ff 	lea    -0x1860(%rbp),%rax
   163fb:	48 89 85 50 fb ff ff 	mov    %rax,-0x4b0(%rbp)
   16402:	48 8d 05 73 ec 00 00 	lea    0xec73(%rip),%rax        # 2507c <g_65>
   16409:	48 89 85 58 fb ff ff 	mov    %rax,-0x4a8(%rbp)
   16410:	48 8d 85 10 e9 ff ff 	lea    -0x16f0(%rbp),%rax
   16417:	48 83 c0 08          	add    $0x8,%rax
   1641b:	48 89 85 60 fb ff ff 	mov    %rax,-0x4a0(%rbp)
   16422:	48 8d 85 10 e9 ff ff 	lea    -0x16f0(%rbp),%rax
   16429:	48 89 85 68 fb ff ff 	mov    %rax,-0x498(%rbp)
   16430:	48 8d 05 45 ec 00 00 	lea    0xec45(%rip),%rax        # 2507c <g_65>
   16437:	48 89 85 70 fb ff ff 	mov    %rax,-0x490(%rbp)
   1643e:	48 8d 05 c3 ec 00 00 	lea    0xecc3(%rip),%rax        # 25108 <g_801>
   16445:	48 89 85 78 fb ff ff 	mov    %rax,-0x488(%rbp)
   1644c:	48 8d 85 a0 e7 ff ff 	lea    -0x1860(%rbp),%rax
   16453:	48 89 85 80 fb ff ff 	mov    %rax,-0x480(%rbp)
   1645a:	48 8d 05 a7 ec 00 00 	lea    0xeca7(%rip),%rax        # 25108 <g_801>
   16461:	48 89 85 88 fb ff ff 	mov    %rax,-0x478(%rbp)
   16468:	48 8d 85 10 e9 ff ff 	lea    -0x16f0(%rbp),%rax
   1646f:	48 89 85 90 fb ff ff 	mov    %rax,-0x470(%rbp)
   16476:	48 8d 85 a4 e7 ff ff 	lea    -0x185c(%rbp),%rax
   1647d:	48 89 85 98 fb ff ff 	mov    %rax,-0x468(%rbp)
   16484:	48 8d 05 7d ec 00 00 	lea    0xec7d(%rip),%rax        # 25108 <g_801>
   1648b:	48 89 85 a0 fb ff ff 	mov    %rax,-0x460(%rbp)
   16492:	48 8d 85 ac e7 ff ff 	lea    -0x1854(%rbp),%rax
   16499:	48 89 85 a8 fb ff ff 	mov    %rax,-0x458(%rbp)
   164a0:	48 8d 85 a0 e7 ff ff 	lea    -0x1860(%rbp),%rax
   164a7:	48 89 85 b0 fb ff ff 	mov    %rax,-0x450(%rbp)
   164ae:	48 c7 85 b8 fb ff ff 	movq   $0x0,-0x448(%rbp)
   164b5:	00 00 00 00 
   164b9:	48 8d 85 10 e9 ff ff 	lea    -0x16f0(%rbp),%rax
   164c0:	48 89 85 c0 fb ff ff 	mov    %rax,-0x440(%rbp)
   164c7:	48 c7 85 c8 fb ff ff 	movq   $0x0,-0x438(%rbp)
   164ce:	00 00 00 00 
   164d2:	48 8d 05 9b eb 00 00 	lea    0xeb9b(%rip),%rax        # 25074 <g_56>
   164d9:	48 89 85 d0 fb ff ff 	mov    %rax,-0x430(%rbp)
   164e0:	48 8d 05 21 ec 00 00 	lea    0xec21(%rip),%rax        # 25108 <g_801>
   164e7:	48 89 85 d8 fb ff ff 	mov    %rax,-0x428(%rbp)
   164ee:	48 8d 85 10 e9 ff ff 	lea    -0x16f0(%rbp),%rax
   164f5:	48 89 85 e0 fb ff ff 	mov    %rax,-0x420(%rbp)
   164fc:	48 8d 85 10 e9 ff ff 	lea    -0x16f0(%rbp),%rax
   16503:	48 83 c0 04          	add    $0x4,%rax
   16507:	48 89 85 e8 fb ff ff 	mov    %rax,-0x418(%rbp)
   1650e:	48 8d 85 10 e9 ff ff 	lea    -0x16f0(%rbp),%rax
   16515:	48 83 c0 08          	add    $0x8,%rax
   16519:	48 89 85 f0 fb ff ff 	mov    %rax,-0x410(%rbp)
   16520:	48 8d 85 a0 e7 ff ff 	lea    -0x1860(%rbp),%rax
   16527:	48 89 85 f8 fb ff ff 	mov    %rax,-0x408(%rbp)
   1652e:	48 c7 85 00 fc ff ff 	movq   $0x0,-0x400(%rbp)
   16535:	00 00 00 00 
   16539:	48 8d 85 a0 e7 ff ff 	lea    -0x1860(%rbp),%rax
   16540:	48 89 85 08 fc ff ff 	mov    %rax,-0x3f8(%rbp)
   16547:	48 8d 85 a0 e7 ff ff 	lea    -0x1860(%rbp),%rax
   1654e:	48 89 85 10 fc ff ff 	mov    %rax,-0x3f0(%rbp)
   16555:	48 8d 05 c8 ea 00 00 	lea    0xeac8(%rip),%rax        # 25024 <g_3>
   1655c:	48 89 85 18 fc ff ff 	mov    %rax,-0x3e8(%rbp)
   16563:	48 8d 85 a8 e7 ff ff 	lea    -0x1858(%rbp),%rax
   1656a:	48 89 85 20 fc ff ff 	mov    %rax,-0x3e0(%rbp)
   16571:	48 8d 85 a8 e7 ff ff 	lea    -0x1858(%rbp),%rax
   16578:	48 89 85 28 fc ff ff 	mov    %rax,-0x3d8(%rbp)
   1657f:	48 c7 85 30 fc ff ff 	movq   $0x0,-0x3d0(%rbp)
   16586:	00 00 00 00 
   1658a:	48 c7 85 38 fc ff ff 	movq   $0x0,-0x3c8(%rbp)
   16591:	00 00 00 00 
   16595:	48 8d 85 a0 e7 ff ff 	lea    -0x1860(%rbp),%rax
   1659c:	48 89 85 40 fc ff ff 	mov    %rax,-0x3c0(%rbp)
   165a3:	48 8d 85 10 e9 ff ff 	lea    -0x16f0(%rbp),%rax
   165aa:	48 83 c0 04          	add    $0x4,%rax
   165ae:	48 89 85 48 fc ff ff 	mov    %rax,-0x3b8(%rbp)
   165b5:	48 c7 85 50 fc ff ff 	movq   $0x0,-0x3b0(%rbp)
   165bc:	00 00 00 00 
   165c0:	48 8d 85 10 e9 ff ff 	lea    -0x16f0(%rbp),%rax
   165c7:	48 83 c0 10          	add    $0x10,%rax
   165cb:	48 89 85 58 fc ff ff 	mov    %rax,-0x3a8(%rbp)
   165d2:	48 8d 05 9b ea 00 00 	lea    0xea9b(%rip),%rax        # 25074 <g_56>
   165d9:	48 89 85 60 fc ff ff 	mov    %rax,-0x3a0(%rbp)
   165e0:	48 8d 85 10 e9 ff ff 	lea    -0x16f0(%rbp),%rax
   165e7:	48 89 85 68 fc ff ff 	mov    %rax,-0x398(%rbp)
   165ee:	48 8d 85 a0 e7 ff ff 	lea    -0x1860(%rbp),%rax
   165f5:	48 89 85 70 fc ff ff 	mov    %rax,-0x390(%rbp)
   165fc:	48 c7 85 78 fc ff ff 	movq   $0x0,-0x388(%rbp)
   16603:	00 00 00 00 
   16607:	48 8d 85 a8 e7 ff ff 	lea    -0x1858(%rbp),%rax
   1660e:	48 89 85 80 fc ff ff 	mov    %rax,-0x380(%rbp)
   16615:	48 8d 05 60 ea 00 00 	lea    0xea60(%rip),%rax        # 2507c <g_65>
   1661c:	48 89 85 88 fc ff ff 	mov    %rax,-0x378(%rbp)
   16623:	48 8d 05 de ea 00 00 	lea    0xeade(%rip),%rax        # 25108 <g_801>
   1662a:	48 89 85 90 fc ff ff 	mov    %rax,-0x370(%rbp)
   16631:	48 8d 05 3c ea 00 00 	lea    0xea3c(%rip),%rax        # 25074 <g_56>
   16638:	48 89 85 98 fc ff ff 	mov    %rax,-0x368(%rbp)
   1663f:	48 8d 85 a0 e7 ff ff 	lea    -0x1860(%rbp),%rax
   16646:	48 89 85 a0 fc ff ff 	mov    %rax,-0x360(%rbp)
   1664d:	48 8d 05 b4 ea 00 00 	lea    0xeab4(%rip),%rax        # 25108 <g_801>
   16654:	48 89 85 a8 fc ff ff 	mov    %rax,-0x358(%rbp)
   1665b:	48 8d 85 10 e9 ff ff 	lea    -0x16f0(%rbp),%rax
   16662:	48 83 c0 08          	add    $0x8,%rax
   16666:	48 89 85 b0 fc ff ff 	mov    %rax,-0x350(%rbp)
   1666d:	48 8d 85 10 e9 ff ff 	lea    -0x16f0(%rbp),%rax
   16674:	48 83 c0 10          	add    $0x10,%rax
   16678:	48 89 85 b8 fc ff ff 	mov    %rax,-0x348(%rbp)
   1667f:	48 8d 05 f6 e9 00 00 	lea    0xe9f6(%rip),%rax        # 2507c <g_65>
   16686:	48 89 85 c0 fc ff ff 	mov    %rax,-0x340(%rbp)
   1668d:	48 c7 85 c8 fc ff ff 	movq   $0x0,-0x338(%rbp)
   16694:	00 00 00 00 
   16698:	48 8d 85 a0 e7 ff ff 	lea    -0x1860(%rbp),%rax
   1669f:	48 89 85 d0 fc ff ff 	mov    %rax,-0x330(%rbp)
   166a6:	48 8d 05 cf e9 00 00 	lea    0xe9cf(%rip),%rax        # 2507c <g_65>
   166ad:	48 89 85 d8 fc ff ff 	mov    %rax,-0x328(%rbp)
   166b4:	48 8d 85 10 e9 ff ff 	lea    -0x16f0(%rbp),%rax
   166bb:	48 89 85 e0 fc ff ff 	mov    %rax,-0x320(%rbp)
   166c2:	48 8d 85 a8 e7 ff ff 	lea    -0x1858(%rbp),%rax
   166c9:	48 89 85 e8 fc ff ff 	mov    %rax,-0x318(%rbp)
   166d0:	48 8d 05 31 ea 00 00 	lea    0xea31(%rip),%rax        # 25108 <g_801>
   166d7:	48 89 85 f0 fc ff ff 	mov    %rax,-0x310(%rbp)
   166de:	48 8d 05 97 e9 00 00 	lea    0xe997(%rip),%rax        # 2507c <g_65>
   166e5:	48 89 85 f8 fc ff ff 	mov    %rax,-0x308(%rbp)
   166ec:	48 8d 85 a0 e7 ff ff 	lea    -0x1860(%rbp),%rax
   166f3:	48 89 85 00 fd ff ff 	mov    %rax,-0x300(%rbp)
   166fa:	48 8d 85 a0 e7 ff ff 	lea    -0x1860(%rbp),%rax
   16701:	48 89 85 08 fd ff ff 	mov    %rax,-0x2f8(%rbp)
   16708:	48 8d 85 10 e9 ff ff 	lea    -0x16f0(%rbp),%rax
   1670f:	48 89 85 10 fd ff ff 	mov    %rax,-0x2f0(%rbp)
   16716:	48 8d 85 a0 e7 ff ff 	lea    -0x1860(%rbp),%rax
   1671d:	48 89 85 18 fd ff ff 	mov    %rax,-0x2e8(%rbp)
   16724:	48 8d 05 49 e9 00 00 	lea    0xe949(%rip),%rax        # 25074 <g_56>
   1672b:	48 89 85 20 fd ff ff 	mov    %rax,-0x2e0(%rbp)
   16732:	48 c7 85 28 fd ff ff 	movq   $0x0,-0x2d8(%rbp)
   16739:	00 00 00 00 
   1673d:	48 8d 85 10 e9 ff ff 	lea    -0x16f0(%rbp),%rax
   16744:	48 89 85 30 fd ff ff 	mov    %rax,-0x2d0(%rbp)
   1674b:	48 8d 05 22 e9 00 00 	lea    0xe922(%rip),%rax        # 25074 <g_56>
   16752:	48 89 85 38 fd ff ff 	mov    %rax,-0x2c8(%rbp)
   16759:	48 8d 85 10 e9 ff ff 	lea    -0x16f0(%rbp),%rax
   16760:	48 83 c0 08          	add    $0x8,%rax
   16764:	48 89 85 40 fd ff ff 	mov    %rax,-0x2c0(%rbp)
   1676b:	48 c7 85 48 fd ff ff 	movq   $0x0,-0x2b8(%rbp)
   16772:	00 00 00 00 
   16776:	48 c7 85 50 fd ff ff 	movq   $0x0,-0x2b0(%rbp)
   1677d:	00 00 00 00 
   16781:	48 8d 05 ec e8 00 00 	lea    0xe8ec(%rip),%rax        # 25074 <g_56>
   16788:	48 89 85 58 fd ff ff 	mov    %rax,-0x2a8(%rbp)
   1678f:	48 8d 85 a0 e7 ff ff 	lea    -0x1860(%rbp),%rax
   16796:	48 89 85 60 fd ff ff 	mov    %rax,-0x2a0(%rbp)
   1679d:	48 8d 05 80 e8 00 00 	lea    0xe880(%rip),%rax        # 25024 <g_3>
   167a4:	48 89 85 68 fd ff ff 	mov    %rax,-0x298(%rbp)
   167ab:	48 8d 85 a8 e7 ff ff 	lea    -0x1858(%rbp),%rax
   167b2:	48 89 85 70 fd ff ff 	mov    %rax,-0x290(%rbp)
   167b9:	48 8d 85 a4 e7 ff ff 	lea    -0x185c(%rbp),%rax
   167c0:	48 89 85 78 fd ff ff 	mov    %rax,-0x288(%rbp)
   167c7:	48 c7 85 80 fd ff ff 	movq   $0x0,-0x280(%rbp)
   167ce:	00 00 00 00 
   167d2:	48 8d 85 10 e9 ff ff 	lea    -0x16f0(%rbp),%rax
   167d9:	48 89 85 88 fd ff ff 	mov    %rax,-0x278(%rbp)
   167e0:	48 8d 85 a0 e7 ff ff 	lea    -0x1860(%rbp),%rax
   167e7:	48 89 85 90 fd ff ff 	mov    %rax,-0x270(%rbp)
   167ee:	48 8d 05 7f e8 00 00 	lea    0xe87f(%rip),%rax        # 25074 <g_56>
   167f5:	48 89 85 98 fd ff ff 	mov    %rax,-0x268(%rbp)
   167fc:	48 c7 85 a0 fd ff ff 	movq   $0x0,-0x260(%rbp)
   16803:	00 00 00 00 
   16807:	48 8d 85 10 e9 ff ff 	lea    -0x16f0(%rbp),%rax
   1680e:	48 89 85 a8 fd ff ff 	mov    %rax,-0x258(%rbp)
   16815:	48 8d 05 58 e8 00 00 	lea    0xe858(%rip),%rax        # 25074 <g_56>
   1681c:	48 89 85 b0 fd ff ff 	mov    %rax,-0x250(%rbp)
   16823:	48 c7 85 b8 fd ff ff 	movq   $0x0,-0x248(%rbp)
   1682a:	00 00 00 00 
   1682e:	48 8d 85 a0 e7 ff ff 	lea    -0x1860(%rbp),%rax
   16835:	48 89 85 c0 fd ff ff 	mov    %rax,-0x240(%rbp)
   1683c:	48 8d 85 a0 e7 ff ff 	lea    -0x1860(%rbp),%rax
   16843:	48 89 85 c8 fd ff ff 	mov    %rax,-0x238(%rbp)
   1684a:	48 8d 85 a8 e7 ff ff 	lea    -0x1858(%rbp),%rax
   16851:	48 89 85 d0 fd ff ff 	mov    %rax,-0x230(%rbp)
   16858:	48 8d 05 a9 e8 00 00 	lea    0xe8a9(%rip),%rax        # 25108 <g_801>
   1685f:	48 89 85 d8 fd ff ff 	mov    %rax,-0x228(%rbp)
   16866:	48 8d 05 9b e8 00 00 	lea    0xe89b(%rip),%rax        # 25108 <g_801>
   1686d:	48 89 85 e0 fd ff ff 	mov    %rax,-0x220(%rbp)
   16874:	48 8d 85 a0 e7 ff ff 	lea    -0x1860(%rbp),%rax
   1687b:	48 89 85 e8 fd ff ff 	mov    %rax,-0x218(%rbp)
   16882:	48 8d 85 a0 e7 ff ff 	lea    -0x1860(%rbp),%rax
   16889:	48 89 85 f0 fd ff ff 	mov    %rax,-0x210(%rbp)
   16890:	48 8d 05 e5 e7 00 00 	lea    0xe7e5(%rip),%rax        # 2507c <g_65>
   16897:	48 89 85 f8 fd ff ff 	mov    %rax,-0x208(%rbp)
   1689e:	48 c7 85 00 fe ff ff 	movq   $0x0,-0x200(%rbp)
   168a5:	00 00 00 00 
   168a9:	48 8d 85 a8 e7 ff ff 	lea    -0x1858(%rbp),%rax
   168b0:	48 89 85 08 fe ff ff 	mov    %rax,-0x1f8(%rbp)
   168b7:	48 8d 85 ac e7 ff ff 	lea    -0x1854(%rbp),%rax
   168be:	48 89 85 10 fe ff ff 	mov    %rax,-0x1f0(%rbp)
   168c5:	48 8d 05 a8 e7 00 00 	lea    0xe7a8(%rip),%rax        # 25074 <g_56>
   168cc:	48 89 85 18 fe ff ff 	mov    %rax,-0x1e8(%rbp)
   168d3:	48 8d 85 10 e9 ff ff 	lea    -0x16f0(%rbp),%rax
   168da:	48 89 85 20 fe ff ff 	mov    %rax,-0x1e0(%rbp)
   168e1:	48 8d 05 8c e7 00 00 	lea    0xe78c(%rip),%rax        # 25074 <g_56>
   168e8:	48 89 85 28 fe ff ff 	mov    %rax,-0x1d8(%rbp)
   168ef:	48 8d 05 12 e8 00 00 	lea    0xe812(%rip),%rax        # 25108 <g_801>
   168f6:	48 89 85 30 fe ff ff 	mov    %rax,-0x1d0(%rbp)
   168fd:	48 8d 05 04 e8 00 00 	lea    0xe804(%rip),%rax        # 25108 <g_801>
   16904:	48 89 85 38 fe ff ff 	mov    %rax,-0x1c8(%rbp)
   1690b:	48 8d 05 62 e7 00 00 	lea    0xe762(%rip),%rax        # 25074 <g_56>
   16912:	48 89 85 40 fe ff ff 	mov    %rax,-0x1c0(%rbp)
   16919:	48 8d 85 a0 e7 ff ff 	lea    -0x1860(%rbp),%rax
   16920:	48 89 85 48 fe ff ff 	mov    %rax,-0x1b8(%rbp)
   16927:	48 8d 85 a0 e7 ff ff 	lea    -0x1860(%rbp),%rax
   1692e:	48 89 85 50 fe ff ff 	mov    %rax,-0x1b0(%rbp)
   16935:	48 8d 05 e8 e6 00 00 	lea    0xe6e8(%rip),%rax        # 25024 <g_3>
   1693c:	48 89 85 58 fe ff ff 	mov    %rax,-0x1a8(%rbp)
   16943:	48 8d 05 be e7 00 00 	lea    0xe7be(%rip),%rax        # 25108 <g_801>
   1694a:	48 89 85 60 fe ff ff 	mov    %rax,-0x1a0(%rbp)
   16951:	48 8d 05 cc e6 00 00 	lea    0xe6cc(%rip),%rax        # 25024 <g_3>
   16958:	48 89 85 68 fe ff ff 	mov    %rax,-0x198(%rbp)
   1695f:	48 8d 05 16 e7 00 00 	lea    0xe716(%rip),%rax        # 2507c <g_65>
   16966:	48 89 85 70 fe ff ff 	mov    %rax,-0x190(%rbp)
   1696d:	48 8d 05 00 e7 00 00 	lea    0xe700(%rip),%rax        # 25074 <g_56>
   16974:	48 89 85 78 fe ff ff 	mov    %rax,-0x188(%rbp)
   1697b:	48 c7 85 80 fe ff ff 	movq   $0x0,-0x180(%rbp)
   16982:	00 00 00 00 
   16986:	48 8d 85 a0 e7 ff ff 	lea    -0x1860(%rbp),%rax
   1698d:	48 89 85 88 fe ff ff 	mov    %rax,-0x178(%rbp)
   16994:	48 c7 85 90 fe ff ff 	movq   $0x0,-0x170(%rbp)
   1699b:	00 00 00 00 
   1699f:	48 8d 05 7e e6 00 00 	lea    0xe67e(%rip),%rax        # 25024 <g_3>
   169a6:	48 89 85 98 fe ff ff 	mov    %rax,-0x168(%rbp)
   169ad:	48 8d 85 10 e9 ff ff 	lea    -0x16f0(%rbp),%rax
   169b4:	48 89 85 a0 fe ff ff 	mov    %rax,-0x160(%rbp)
   169bb:	48 8d 85 ac e7 ff ff 	lea    -0x1854(%rbp),%rax
   169c2:	48 89 85 a8 fe ff ff 	mov    %rax,-0x158(%rbp)
   169c9:	48 8d 85 a0 e7 ff ff 	lea    -0x1860(%rbp),%rax
   169d0:	48 89 85 b0 fe ff ff 	mov    %rax,-0x150(%rbp)
   169d7:	48 8d 85 10 e9 ff ff 	lea    -0x16f0(%rbp),%rax
   169de:	48 89 85 b8 fe ff ff 	mov    %rax,-0x148(%rbp)
   169e5:	48 8d 85 10 e9 ff ff 	lea    -0x16f0(%rbp),%rax
   169ec:	48 83 c0 08          	add    $0x8,%rax
   169f0:	48 89 85 c0 fe ff ff 	mov    %rax,-0x140(%rbp)
   169f7:	48 8d 05 7e e6 00 00 	lea    0xe67e(%rip),%rax        # 2507c <g_65>
   169fe:	48 89 85 c8 fe ff ff 	mov    %rax,-0x138(%rbp)
   16a05:	48 8d 85 10 e9 ff ff 	lea    -0x16f0(%rbp),%rax
   16a0c:	48 89 85 d0 fe ff ff 	mov    %rax,-0x130(%rbp)
   16a13:	48 8d 85 10 e9 ff ff 	lea    -0x16f0(%rbp),%rax
   16a1a:	48 89 85 d8 fe ff ff 	mov    %rax,-0x128(%rbp)
   16a21:	48 8d 85 10 e9 ff ff 	lea    -0x16f0(%rbp),%rax
   16a28:	48 89 85 e0 fe ff ff 	mov    %rax,-0x120(%rbp)
   16a2f:	48 8d 85 a0 e7 ff ff 	lea    -0x1860(%rbp),%rax
   16a36:	48 89 85 e8 fe ff ff 	mov    %rax,-0x118(%rbp)
   16a3d:	48 8d 05 c4 e6 00 00 	lea    0xe6c4(%rip),%rax        # 25108 <g_801>
   16a44:	48 89 85 f0 fe ff ff 	mov    %rax,-0x110(%rbp)
   16a4b:	48 8d 85 a4 e7 ff ff 	lea    -0x185c(%rbp),%rax
   16a52:	48 89 85 f8 fe ff ff 	mov    %rax,-0x108(%rbp)
   16a59:	48 8d 05 1c e6 00 00 	lea    0xe61c(%rip),%rax        # 2507c <g_65>
   16a60:	48 89 85 00 ff ff ff 	mov    %rax,-0x100(%rbp)
   16a67:	48 c7 85 08 ff ff ff 	movq   $0x0,-0xf8(%rbp)
   16a6e:	00 00 00 00 
   16a72:	48 8d 85 ac e7 ff ff 	lea    -0x1854(%rbp),%rax
   16a79:	48 89 85 10 ff ff ff 	mov    %rax,-0xf0(%rbp)
   16a80:	48 8d 05 9d e5 00 00 	lea    0xe59d(%rip),%rax        # 25024 <g_3>
   16a87:	48 89 85 18 ff ff ff 	mov    %rax,-0xe8(%rbp)
   16a8e:	48 8d 85 10 e9 ff ff 	lea    -0x16f0(%rbp),%rax
   16a95:	48 83 c0 08          	add    $0x8,%rax
   16a99:	48 89 85 20 ff ff ff 	mov    %rax,-0xe0(%rbp)
   16aa0:	48 8d 05 61 e6 00 00 	lea    0xe661(%rip),%rax        # 25108 <g_801>
   16aa7:	48 89 85 28 ff ff ff 	mov    %rax,-0xd8(%rbp)
   16aae:	48 8d 05 bf e5 00 00 	lea    0xe5bf(%rip),%rax        # 25074 <g_56>
   16ab5:	48 89 85 30 ff ff ff 	mov    %rax,-0xd0(%rbp)
   16abc:	48 8d 05 b9 e5 00 00 	lea    0xe5b9(%rip),%rax        # 2507c <g_65>
   16ac3:	48 89 85 38 ff ff ff 	mov    %rax,-0xc8(%rbp)
   16aca:	48 8d 85 ac e7 ff ff 	lea    -0x1854(%rbp),%rax
   16ad1:	48 89 85 40 ff ff ff 	mov    %rax,-0xc0(%rbp)
   16ad8:	48 8d 05 95 e5 00 00 	lea    0xe595(%rip),%rax        # 25074 <g_56>
   16adf:	48 89 85 48 ff ff ff 	mov    %rax,-0xb8(%rbp)
   16ae6:	48 c7 85 50 ff ff ff 	movq   $0x0,-0xb0(%rbp)
   16aed:	00 00 00 00 
   16af1:	48 8d 85 a4 e7 ff ff 	lea    -0x185c(%rbp),%rax
   16af8:	48 89 85 58 ff ff ff 	mov    %rax,-0xa8(%rbp)
   16aff:	48 8b 05 b2 1d 01 00 	mov    0x11db2(%rip),%rax        # 288b8 <g_425>
   16b06:	48 8b 95 00 fc ff ff 	mov    -0x400(%rbp),%rdx
   16b0d:	48 89 10             	mov    %rdx,(%rax)
   16b10:	e9 93 00 00 00       	jmpq   16ba8 <func_42+0x19bb>
   16b15:	48 8d 85 ac e7 ff ff 	lea    -0x1854(%rbp),%rax
   16b1c:	48 89 85 e0 f7 ff ff 	mov    %rax,-0x820(%rbp)
   16b23:	48 8d 85 ac e7 ff ff 	lea    -0x1854(%rbp),%rax
   16b2a:	48 89 85 e8 f7 ff ff 	mov    %rax,-0x818(%rbp)
   16b31:	48 8d 85 ac e7 ff ff 	lea    -0x1854(%rbp),%rax
   16b38:	48 89 85 f0 f7 ff ff 	mov    %rax,-0x810(%rbp)
   16b3f:	48 8d 85 ac e7 ff ff 	lea    -0x1854(%rbp),%rax
   16b46:	48 89 85 f8 f7 ff ff 	mov    %rax,-0x808(%rbp)
   16b4d:	48 8d 85 ac e7 ff ff 	lea    -0x1854(%rbp),%rax
   16b54:	48 89 85 00 f8 ff ff 	mov    %rax,-0x800(%rbp)
   16b5b:	48 8d 85 ac e7 ff ff 	lea    -0x1854(%rbp),%rax
   16b62:	48 89 85 08 f8 ff ff 	mov    %rax,-0x7f8(%rbp)
   16b69:	48 8d 85 ac e7 ff ff 	lea    -0x1854(%rbp),%rax
   16b70:	48 89 85 10 f8 ff ff 	mov    %rax,-0x7f0(%rbp)
   16b77:	48 8d 85 ac e7 ff ff 	lea    -0x1854(%rbp),%rax
   16b7e:	48 89 85 18 f8 ff ff 	mov    %rax,-0x7e8(%rbp)
   16b85:	48 8d 85 ac e7 ff ff 	lea    -0x1854(%rbp),%rax
   16b8c:	48 89 85 20 f8 ff ff 	mov    %rax,-0x7e0(%rbp)
   16b93:	48 8d 85 ac e7 ff ff 	lea    -0x1854(%rbp),%rax
   16b9a:	48 89 85 28 f8 ff ff 	mov    %rax,-0x7d8(%rbp)
   16ba1:	83 85 b0 e7 ff ff 01 	addl   $0x1,-0x1850(%rbp)
   16ba8:	48 c7 05 4d e5 00 00 	movq   $0x0,0xe54d(%rip)        # 25100 <g_709>
   16baf:	00 00 00 00 
   16bb3:	e9 f3 05 00 00       	jmpq   171ab <func_42+0x1fbe>
   16bb8:	48 b8 01 bc 65 cc b8 	movabs $0xb68cb1b8cc65bc01,%rax
   16bbf:	b1 8c b6 
   16bc2:	48 89 85 50 e9 ff ff 	mov    %rax,-0x16b0(%rbp)
   16bc9:	48 bb 9e 4f db 4a 5d 	movabs $0x8cfbf85d4adb4f9e,%rbx
   16bd0:	f8 fb 8c 
   16bd3:	48 89 9d 58 e9 ff ff 	mov    %rbx,-0x16a8(%rbp)
   16bda:	48 89 9d 60 e9 ff ff 	mov    %rbx,-0x16a0(%rbp)
   16be1:	48 89 85 68 e9 ff ff 	mov    %rax,-0x1698(%rbp)
   16be8:	48 89 9d 70 e9 ff ff 	mov    %rbx,-0x1690(%rbp)
   16bef:	48 89 9d 78 e9 ff ff 	mov    %rbx,-0x1688(%rbp)
   16bf6:	48 89 85 80 e9 ff ff 	mov    %rax,-0x1680(%rbp)
   16bfd:	48 89 9d 88 e9 ff ff 	mov    %rbx,-0x1678(%rbp)
   16c04:	48 89 85 90 e9 ff ff 	mov    %rax,-0x1670(%rbp)
   16c0b:	48 89 85 98 e9 ff ff 	mov    %rax,-0x1668(%rbp)
   16c12:	48 bf 5a b9 92 08 c4 	movabs $0xd8e9d5c40892b95a,%rdi
   16c19:	d5 e9 d8 
   16c1c:	48 89 bd a0 e9 ff ff 	mov    %rdi,-0x1660(%rbp)
   16c23:	48 89 85 a8 e9 ff ff 	mov    %rax,-0x1658(%rbp)
   16c2a:	48 89 85 b0 e9 ff ff 	mov    %rax,-0x1650(%rbp)
   16c31:	48 89 bd b8 e9 ff ff 	mov    %rdi,-0x1648(%rbp)
   16c38:	48 89 85 c0 e9 ff ff 	mov    %rax,-0x1640(%rbp)
   16c3f:	48 89 85 c8 e9 ff ff 	mov    %rax,-0x1638(%rbp)
   16c46:	48 89 9d d0 e9 ff ff 	mov    %rbx,-0x1630(%rbp)
   16c4d:	48 89 85 d8 e9 ff ff 	mov    %rax,-0x1628(%rbp)
   16c54:	48 89 9d e0 e9 ff ff 	mov    %rbx,-0x1620(%rbp)
   16c5b:	48 89 9d e8 e9 ff ff 	mov    %rbx,-0x1618(%rbp)
   16c62:	48 89 85 f0 e9 ff ff 	mov    %rax,-0x1610(%rbp)
   16c69:	48 89 9d f8 e9 ff ff 	mov    %rbx,-0x1608(%rbp)
   16c70:	48 89 9d 00 ea ff ff 	mov    %rbx,-0x1600(%rbp)
   16c77:	48 89 85 08 ea ff ff 	mov    %rax,-0x15f8(%rbp)
   16c7e:	c7 85 10 ea ff ff 90 	movl   $0xe54ad390,-0x15f0(%rbp)
   16c85:	d3 4a e5 
   16c88:	c7 85 14 ea ff ff 90 	movl   $0xe54ad390,-0x15ec(%rbp)
   16c8f:	d3 4a e5 
   16c92:	c7 85 18 ea ff ff a2 	movl   $0xf8bea3a2,-0x15e8(%rbp)
   16c99:	a3 be f8 
   16c9c:	c7 85 1c ea ff ff e1 	movl   $0xd32165e1,-0x15e4(%rbp)
   16ca3:	65 21 d3 
   16ca6:	c7 85 20 ea ff ff 03 	movl   $0x3,-0x15e0(%rbp)
   16cad:	00 00 00 
   16cb0:	c7 85 24 ea ff ff 03 	movl   $0x3,-0x15dc(%rbp)
   16cb7:	00 00 00 
   16cba:	c7 85 28 ea ff ff e1 	movl   $0xd32165e1,-0x15d8(%rbp)
   16cc1:	65 21 d3 
   16cc4:	c7 85 2c ea ff ff a2 	movl   $0xf8bea3a2,-0x15d4(%rbp)
   16ccb:	a3 be f8 
   16cce:	c7 85 30 ea ff ff 90 	movl   $0xe54ad390,-0x15d0(%rbp)
   16cd5:	d3 4a e5 
   16cd8:	c7 85 34 ea ff ff 90 	movl   $0xe54ad390,-0x15cc(%rbp)
   16cdf:	d3 4a e5 
   16ce2:	c7 85 38 ea ff ff 03 	movl   $0x3,-0x15c8(%rbp)
   16ce9:	00 00 00 
   16cec:	c7 85 3c ea ff ff e1 	movl   $0xd32165e1,-0x15c4(%rbp)
   16cf3:	65 21 d3 
   16cf6:	c7 85 40 ea ff ff a2 	movl   $0xf8bea3a2,-0x15c0(%rbp)
   16cfd:	a3 be f8 
   16d00:	c7 85 44 ea ff ff 90 	movl   $0xe54ad390,-0x15bc(%rbp)
   16d07:	d3 4a e5 
   16d0a:	c7 85 48 ea ff ff 90 	movl   $0xe54ad390,-0x15b8(%rbp)
   16d11:	d3 4a e5 
   16d14:	c7 85 4c ea ff ff a2 	movl   $0xf8bea3a2,-0x15b4(%rbp)
   16d1b:	a3 be f8 
   16d1e:	c7 85 50 ea ff ff e1 	movl   $0xd32165e1,-0x15b0(%rbp)
   16d25:	65 21 d3 
   16d28:	c7 85 54 ea ff ff 03 	movl   $0x3,-0x15ac(%rbp)
   16d2f:	00 00 00 
   16d32:	c7 85 58 ea ff ff 03 	movl   $0x3,-0x15a8(%rbp)
   16d39:	00 00 00 
   16d3c:	c7 85 5c ea ff ff e1 	movl   $0xd32165e1,-0x15a4(%rbp)
   16d43:	65 21 d3 
   16d46:	c7 85 60 ea ff ff 03 	movl   $0x3,-0x15a0(%rbp)
   16d4d:	00 00 00 
   16d50:	c7 85 64 ea ff ff 90 	movl   $0xe54ad390,-0x159c(%rbp)
   16d57:	d3 4a e5 
   16d5a:	c7 85 68 ea ff ff e1 	movl   $0xd32165e1,-0x1598(%rbp)
   16d61:	65 21 d3 
   16d64:	c7 85 6c ea ff ff e1 	movl   $0xd32165e1,-0x1594(%rbp)
   16d6b:	65 21 d3 
   16d6e:	c7 85 70 ea ff ff 90 	movl   $0xe54ad390,-0x1590(%rbp)
   16d75:	d3 4a e5 
   16d78:	c7 85 74 ea ff ff 03 	movl   $0x3,-0x158c(%rbp)
   16d7f:	00 00 00 
   16d82:	c7 85 78 ea ff ff a2 	movl   $0xf8bea3a2,-0x1588(%rbp)
   16d89:	a3 be f8 
   16d8c:	c7 85 7c ea ff ff a2 	movl   $0xf8bea3a2,-0x1584(%rbp)
   16d93:	a3 be f8 
   16d96:	c7 85 80 ea ff ff 03 	movl   $0x3,-0x1580(%rbp)
   16d9d:	00 00 00 
   16da0:	c7 85 84 ea ff ff 90 	movl   $0xe54ad390,-0x157c(%rbp)
   16da7:	d3 4a e5 
   16daa:	c7 85 88 ea ff ff 90 	movl   $0xe54ad390,-0x1578(%rbp)
   16db1:	d3 4a e5 
   16db4:	c7 85 8c ea ff ff e1 	movl   $0xd32165e1,-0x1574(%rbp)
   16dbb:	65 21 d3 
   16dbe:	c7 85 90 ea ff ff e1 	movl   $0xd32165e1,-0x1570(%rbp)
   16dc5:	65 21 d3 
   16dc8:	c7 85 94 ea ff ff 90 	movl   $0xe54ad390,-0x156c(%rbp)
   16dcf:	d3 4a e5 
   16dd2:	c7 85 98 ea ff ff 03 	movl   $0x3,-0x1568(%rbp)
   16dd9:	00 00 00 
   16ddc:	c7 85 9c ea ff ff a2 	movl   $0xf8bea3a2,-0x1564(%rbp)
   16de3:	a3 be f8 
   16de6:	c7 85 a0 ea ff ff a2 	movl   $0xf8bea3a2,-0x1560(%rbp)
   16ded:	a3 be f8 
   16df0:	c7 85 a4 ea ff ff 03 	movl   $0x3,-0x155c(%rbp)
   16df7:	00 00 00 
   16dfa:	c7 85 a8 ea ff ff 90 	movl   $0xe54ad390,-0x1558(%rbp)
   16e01:	d3 4a e5 
   16e04:	c7 85 ac ea ff ff e1 	movl   $0xd32165e1,-0x1554(%rbp)
   16e0b:	65 21 d3 
   16e0e:	c7 85 b0 ea ff ff 90 	movl   $0xe54ad390,-0x1550(%rbp)
   16e15:	d3 4a e5 
   16e18:	c7 85 b4 ea ff ff 90 	movl   $0xe54ad390,-0x154c(%rbp)
   16e1f:	d3 4a e5 
   16e22:	c7 85 b8 ea ff ff a2 	movl   $0xf8bea3a2,-0x1548(%rbp)
   16e29:	a3 be f8 
   16e2c:	c7 85 bc ea ff ff e1 	movl   $0xd32165e1,-0x1544(%rbp)
   16e33:	65 21 d3 
   16e36:	c7 85 c0 ea ff ff 03 	movl   $0x3,-0x1540(%rbp)
   16e3d:	00 00 00 
   16e40:	c7 85 c4 ea ff ff 03 	movl   $0x3,-0x153c(%rbp)
   16e47:	00 00 00 
   16e4a:	c7 85 c8 ea ff ff e1 	movl   $0xd32165e1,-0x1538(%rbp)
   16e51:	65 21 d3 
   16e54:	c7 85 cc ea ff ff a2 	movl   $0xf8bea3a2,-0x1534(%rbp)
   16e5b:	a3 be f8 
   16e5e:	c7 85 d0 ea ff ff 90 	movl   $0xe54ad390,-0x1530(%rbp)
   16e65:	d3 4a e5 
   16e68:	c7 85 d4 ea ff ff 90 	movl   $0xe54ad390,-0x152c(%rbp)
   16e6f:	d3 4a e5 
   16e72:	48 8d 05 0f 1b 01 00 	lea    0x11b0f(%rip),%rax        # 28988 <g_893>
   16e79:	48 89 85 90 e8 ff ff 	mov    %rax,-0x1770(%rbp)
   16e80:	48 8d 85 e0 f7 ff ff 	lea    -0x820(%rbp),%rax
   16e87:	48 8d 15 52 05 01 00 	lea    0x10552(%rip),%rdx        # 273e0 <g_4523+0xfe0>
   16e8e:	b9 fc 00 00 00       	mov    $0xfc,%ecx
   16e93:	48 89 c7             	mov    %rax,%rdi
   16e96:	48 89 d6             	mov    %rdx,%rsi
   16e99:	f3 48 a5             	rep movsq %ds:(%rsi),%es:(%rdi)
   16e9c:	66 c7 85 9e e7 ff ff 	movw   $0xfff6,-0x1862(%rbp)
   16ea3:	f6 ff 
   16ea5:	c7 85 c4 e7 ff ff 00 	movl   $0x0,-0x183c(%rbp)
   16eac:	00 00 00 
   16eaf:	eb 1a                	jmp    16ecb <func_42+0x1cde>
   16eb1:	8b 85 c4 e7 ff ff    	mov    -0x183c(%rbp),%eax
   16eb7:	48 98                	cltq   
   16eb9:	c7 84 85 30 e9 ff ff 	movl   $0x438a7ddc,-0x16d0(%rbp,%rax,4)
   16ec0:	dc 7d 8a 43 
   16ec4:	83 85 c4 e7 ff ff 01 	addl   $0x1,-0x183c(%rbp)
   16ecb:	83 bd c4 e7 ff ff 05 	cmpl   $0x5,-0x183c(%rbp)
   16ed2:	7e dd                	jle    16eb1 <func_42+0x1cc4>
   16ed4:	c6 05 a5 e1 00 00 00 	movb   $0x0,0xe1a5(%rip)        # 25080 <g_112>
   16edb:	e9 02 01 00 00       	jmpq   16fe2 <func_42+0x1df5>
   16ee0:	c7 85 d4 e7 ff ff fb 	movl   $0xfffffffb,-0x182c(%rbp)
   16ee7:	ff ff ff 
   16eea:	48 8d 05 83 ea 00 00 	lea    0xea83(%rip),%rax        # 25974 <g_1997>
   16ef1:	48 89 85 98 e8 ff ff 	mov    %rax,-0x1768(%rbp)
   16ef8:	48 8d 85 ac e7 ff ff 	lea    -0x1854(%rbp),%rax
   16eff:	48 89 85 a0 e8 ff ff 	mov    %rax,-0x1760(%rbp)
   16f06:	48 8d 05 6b e1 00 00 	lea    0xe16b(%rip),%rax        # 25078 <g_64>
   16f0d:	48 89 85 a8 e8 ff ff 	mov    %rax,-0x1758(%rbp)
   16f14:	48 c7 85 b0 e8 ff ff 	movq   $0x0,-0x1750(%rbp)
   16f1b:	00 00 00 00 
   16f1f:	48 c7 85 b8 e8 ff ff 	movq   $0x0,-0x1748(%rbp)
   16f26:	00 00 00 00 
   16f2a:	48 8d 85 ac e7 ff ff 	lea    -0x1854(%rbp),%rax
   16f31:	48 89 85 c0 e8 ff ff 	mov    %rax,-0x1740(%rbp)
   16f38:	c7 85 c8 e7 ff ff 00 	movl   $0x0,-0x1838(%rbp)
   16f3f:	00 00 00 
   16f42:	eb 7a                	jmp    16fbe <func_42+0x1dd1>
   16f44:	c7 85 cc e7 ff ff 00 	movl   $0x0,-0x1834(%rbp)
   16f4b:	00 00 00 
   16f4e:	eb 5e                	jmp    16fae <func_42+0x1dc1>
   16f50:	c7 85 d0 e7 ff ff 00 	movl   $0x0,-0x1830(%rbp)
   16f57:	00 00 00 
   16f5a:	eb 42                	jmp    16f9e <func_42+0x1db1>
   16f5c:	8b 85 d0 e7 ff ff    	mov    -0x1830(%rbp),%eax
   16f62:	48 98                	cltq   
   16f64:	8b 95 c8 e7 ff ff    	mov    -0x1838(%rbp),%edx
   16f6a:	48 63 ca             	movslq %edx,%rcx
   16f6d:	8b 95 cc e7 ff ff    	mov    -0x1834(%rbp),%edx
   16f73:	48 63 d2             	movslq %edx,%rdx
   16f76:	48 c1 e1 03          	shl    $0x3,%rcx
   16f7a:	48 01 ca             	add    %rcx,%rdx
   16f7d:	48 c1 e2 02          	shl    $0x2,%rdx
   16f81:	48 01 d0             	add    %rdx,%rax
   16f84:	48 8d 95 10 e9 ff ff 	lea    -0x16f0(%rbp),%rdx
   16f8b:	48 83 c2 04          	add    $0x4,%rdx
   16f8f:	48 89 94 c5 e0 f0 ff 	mov    %rdx,-0xf20(%rbp,%rax,8)
   16f96:	ff 
   16f97:	83 85 d0 e7 ff ff 01 	addl   $0x1,-0x1830(%rbp)
   16f9e:	83 bd d0 e7 ff ff 03 	cmpl   $0x3,-0x1830(%rbp)
   16fa5:	7e b5                	jle    16f5c <func_42+0x1d6f>
   16fa7:	83 85 cc e7 ff ff 01 	addl   $0x1,-0x1834(%rbp)
   16fae:	83 bd cc e7 ff ff 07 	cmpl   $0x7,-0x1834(%rbp)
   16fb5:	7e 99                	jle    16f50 <func_42+0x1d63>
   16fb7:	83 85 c8 e7 ff ff 01 	addl   $0x1,-0x1838(%rbp)
   16fbe:	83 bd c8 e7 ff ff 06 	cmpl   $0x6,-0x1838(%rbp)
   16fc5:	0f 8e 79 ff ff ff    	jle    16f44 <func_42+0x1d57>
   16fcb:	83 ad b4 e7 ff ff 01 	subl   $0x1,-0x184c(%rbp)
   16fd2:	0f b6 05 a7 e0 00 00 	movzbl 0xe0a7(%rip),%eax        # 25080 <g_112>
   16fd9:	83 c0 01             	add    $0x1,%eax
   16fdc:	88 05 9e e0 00 00    	mov    %al,0xe09e(%rip)        # 25080 <g_112>
   16fe2:	0f b6 05 97 e0 00 00 	movzbl 0xe097(%rip),%eax        # 25080 <g_112>
   16fe9:	3c 07                	cmp    $0x7,%al
   16feb:	0f 86 ef fe ff ff    	jbe    16ee0 <func_42+0x1cf3>
   16ff1:	48 8b 85 60 e9 ff ff 	mov    -0x16a0(%rbp),%rax
   16ff8:	48 85 c0             	test   %rax,%rax
   16ffb:	0f 85 bd 01 00 00    	jne    171be <func_42+0x1fd1>
   17001:	8b 95 8c e7 ff ff    	mov    -0x1874(%rbp),%edx
   17007:	8b 85 8c e7 ff ff    	mov    -0x1874(%rbp),%eax
   1700d:	0f b6 c0             	movzbl %al,%eax
   17010:	89 d6                	mov    %edx,%esi
   17012:	89 c7                	mov    %eax,%edi
   17014:	e8 ec 4b ff ff       	callq  bc05 <safe_lshift_func_uint8_t_u_s>
   17019:	0f b6 d8             	movzbl %al,%ebx
   1701c:	8b 95 a4 e7 ff ff    	mov    -0x185c(%rbp),%edx
   17022:	8b 85 a8 e7 ff ff    	mov    -0x1858(%rbp),%eax
   17028:	39 c2                	cmp    %eax,%edx
   1702a:	0f 9c c0             	setl   %al
   1702d:	0f b6 c0             	movzbl %al,%eax
   17030:	89 c6                	mov    %eax,%esi
   17032:	bf 01 00 00 00       	mov    $0x1,%edi
   17037:	e8 c9 45 ff ff       	callq  b605 <safe_sub_func_int32_t_s_s>
   1703c:	89 c2                	mov    %eax,%edx
   1703e:	8b 85 8c e7 ff ff    	mov    -0x1874(%rbp),%eax
   17044:	0f b6 c0             	movzbl %al,%eax
   17047:	89 d6                	mov    %edx,%esi
   17049:	89 c7                	mov    %eax,%edi
   1704b:	e8 b5 4b ff ff       	callq  bc05 <safe_lshift_func_uint8_t_u_s>
   17050:	0f b6 c0             	movzbl %al,%eax
   17053:	8b 95 8c e7 ff ff    	mov    -0x1874(%rbp),%edx
   17059:	89 d6                	mov    %edx,%esi
   1705b:	89 c7                	mov    %eax,%edi
   1705d:	e8 6e 4e ff ff       	callq  bed0 <safe_sub_func_uint32_t_u_u>
   17062:	89 c1                	mov    %eax,%ecx
   17064:	48 8b 15 95 e0 00 00 	mov    0xe095(%rip),%rdx        # 25100 <g_709>
   1706b:	8b 05 a7 3d 01 00    	mov    0x13da7(%rip),%eax        # 2ae18 <g_626>
   17071:	83 c0 05             	add    $0x5,%eax
   17074:	48 63 f0             	movslq %eax,%rsi
   17077:	48 89 d0             	mov    %rdx,%rax
   1707a:	48 c1 e0 02          	shl    $0x2,%rax
   1707e:	48 01 d0             	add    %rdx,%rax
   17081:	48 01 c0             	add    %rax,%rax
   17084:	48 01 f0             	add    %rsi,%rax
   17087:	48 8d 14 00          	lea    (%rax,%rax,1),%rdx
   1708b:	48 8d 05 2e e0 00 00 	lea    0xe02e(%rip),%rax        # 250c0 <g_256>
   17092:	0f b7 04 02          	movzwl (%rdx,%rax,1),%eax
   17096:	89 ce                	mov    %ecx,%esi
   17098:	48 8b 15 61 e0 00 00 	mov    0xe061(%rip),%rdx        # 25100 <g_709>
   1709f:	8b 0d 73 3d 01 00    	mov    0x13d73(%rip),%ecx        # 2ae18 <g_626>
   170a5:	83 c1 05             	add    $0x5,%ecx
   170a8:	09 f0                	or     %esi,%eax
   170aa:	89 c7                	mov    %eax,%edi
   170ac:	48 63 f1             	movslq %ecx,%rsi
   170af:	48 89 d0             	mov    %rdx,%rax
   170b2:	48 c1 e0 02          	shl    $0x2,%rax
   170b6:	48 01 d0             	add    %rdx,%rax
   170b9:	48 01 c0             	add    %rax,%rax
   170bc:	48 01 f0             	add    %rsi,%rax
   170bf:	48 8d 34 00          	lea    (%rax,%rax,1),%rsi
   170c3:	48 8d 05 f6 df 00 00 	lea    0xdff6(%rip),%rax        # 250c0 <g_256>
   170ca:	66 89 3c 06          	mov    %di,(%rsi,%rax,1)
   170ce:	48 63 c9             	movslq %ecx,%rcx
   170d1:	48 89 d0             	mov    %rdx,%rax
   170d4:	48 c1 e0 02          	shl    $0x2,%rax
   170d8:	48 01 d0             	add    %rdx,%rax
   170db:	48 01 c0             	add    %rax,%rax
   170de:	48 01 c8             	add    %rcx,%rax
   170e1:	48 8d 14 00          	lea    (%rax,%rax,1),%rdx
   170e5:	48 8d 05 d4 df 00 00 	lea    0xdfd4(%rip),%rax        # 250c0 <g_256>
   170ec:	0f b7 04 02          	movzwl (%rdx,%rax,1),%eax
   170f0:	0f b7 d0             	movzwl %ax,%edx
   170f3:	8b 85 ac e7 ff ff    	mov    -0x1854(%rbp),%eax
   170f9:	09 d0                	or     %edx,%eax
   170fb:	89 85 ac e7 ff ff    	mov    %eax,-0x1854(%rbp)
   17101:	8b 85 ac e7 ff ff    	mov    -0x1854(%rbp),%eax
   17107:	83 e0 27             	and    $0x27,%eax
   1710a:	f7 d0                	not    %eax
   1710c:	89 c2                	mov    %eax,%edx
   1710e:	8b 85 8c e7 ff ff    	mov    -0x1874(%rbp),%eax
   17114:	09 d0                	or     %edx,%eax
   17116:	0f b6 c0             	movzbl %al,%eax
   17119:	8b 95 8c e7 ff ff    	mov    -0x1874(%rbp),%edx
   1711f:	89 d6                	mov    %edx,%esi
   17121:	89 c7                	mov    %eax,%edi
   17123:	e8 24 4b ff ff       	callq  bc4c <safe_lshift_func_uint8_t_u_u>
   17128:	48 8b 85 90 e8 ff ff 	mov    -0x1770(%rbp),%rax
   1712f:	48 8b 95 70 e8 ff ff 	mov    -0x1790(%rbp),%rdx
   17136:	48 89 10             	mov    %rdx,(%rax)
   17139:	48 8b 85 90 e8 ff ff 	mov    -0x1770(%rbp),%rax
   17140:	48 8b 00             	mov    (%rax),%rax
   17143:	48 85 c0             	test   %rax,%rax
   17146:	0f 95 c0             	setne  %al
   17149:	0f b6 c0             	movzbl %al,%eax
   1714c:	be 01 00 00 00       	mov    $0x1,%esi
   17151:	89 c7                	mov    %eax,%edi
   17153:	e8 ae 4c ff ff       	callq  be06 <safe_lshift_func_uint16_t_u_u>
   17158:	89 c2                	mov    %eax,%edx
   1715a:	48 8b 05 b7 14 01 00 	mov    0x114b7(%rip),%rax        # 28618 <g_128>
   17161:	0f b6 08             	movzbl (%rax),%ecx
   17164:	48 8b 05 ad 14 01 00 	mov    0x114ad(%rip),%rax        # 28618 <g_128>
   1716b:	09 ca                	or     %ecx,%edx
   1716d:	88 10                	mov    %dl,(%rax)
   1716f:	0f b6 00             	movzbl (%rax),%eax
   17172:	0f be c0             	movsbl %al,%eax
   17175:	be 07 00 00 00       	mov    $0x7,%esi
   1717a:	89 c7                	mov    %eax,%edi
   1717c:	e8 20 41 ff ff       	callq  b2a1 <safe_lshift_func_int8_t_s_s>
   17181:	0f be d0             	movsbl %al,%edx
   17184:	48 8b 05 35 14 01 00 	mov    0x11435(%rip),%rax        # 285c0 <g_91>
   1718b:	31 da                	xor    %ebx,%edx
   1718d:	89 10                	mov    %edx,(%rax)
   1718f:	66 83 bd 9e e7 ff ff 	cmpw   $0x0,-0x1862(%rbp)
   17196:	00 
   17197:	75 28                	jne    171c1 <func_42+0x1fd4>
   17199:	48 8b 05 60 df 00 00 	mov    0xdf60(%rip),%rax        # 25100 <g_709>
   171a0:	48 83 c0 01          	add    $0x1,%rax
   171a4:	48 89 05 55 df 00 00 	mov    %rax,0xdf55(%rip)        # 25100 <g_709>
   171ab:	48 8b 05 4e df 00 00 	mov    0xdf4e(%rip),%rax        # 25100 <g_709>
   171b2:	48 83 f8 01          	cmp    $0x1,%rax
   171b6:	0f 8e fc f9 ff ff    	jle    16bb8 <func_42+0x19cb>
   171bc:	eb 04                	jmp    171c2 <func_42+0x1fd5>
   171be:	90                   	nop
   171bf:	eb 01                	jmp    171c2 <func_42+0x1fd5>
   171c1:	90                   	nop
   171c2:	8b 05 50 3c 01 00    	mov    0x13c50(%rip),%eax        # 2ae18 <g_626>
   171c8:	83 e8 01             	sub    $0x1,%eax
   171cb:	89 05 47 3c 01 00    	mov    %eax,0x13c47(%rip)        # 2ae18 <g_626>
   171d1:	8b 05 41 3c 01 00    	mov    0x13c41(%rip),%eax        # 2ae18 <g_626>
   171d7:	85 c0                	test   %eax,%eax
   171d9:	0f 89 7a e5 ff ff    	jns    15759 <func_42+0x56c>
   171df:	8b 85 8c e7 ff ff    	mov    -0x1874(%rbp),%eax
   171e5:	48 8b 7d c8          	mov    -0x38(%rbp),%rdi
   171e9:	64 48 33 3c 25 28 00 	xor    %fs:0x28,%rdi
   171f0:	00 00 
   171f2:	74 05                	je     171f9 <func_42+0x200c>
   171f4:	e8 77 3e ff ff       	callq  b070 <__stack_chk_fail@plt>
   171f9:	48 81 c4 58 18 00 00 	add    $0x1858,%rsp
   17200:	5b                   	pop    %rbx
   17201:	41 5c                	pop    %r12
   17203:	41 5d                	pop    %r13
   17205:	41 5e                	pop    %r14
   17207:	41 5f                	pop    %r15
   17209:	5d                   	pop    %rbp
   1720a:	c3                   	retq   

000000000001720b <func_49>:
   1720b:	f3 0f 1e fa          	endbr64 
   1720f:	55                   	push   %rbp
   17210:	48 89 e5             	mov    %rsp,%rbp
   17213:	41 57                	push   %r15
   17215:	41 56                	push   %r14
   17217:	41 55                	push   %r13
   17219:	41 54                	push   %r12
   1721b:	53                   	push   %rbx
   1721c:	48 81 ec a8 0e 00 00 	sub    $0xea8,%rsp
   17223:	48 89 bd 38 f1 ff ff 	mov    %rdi,-0xec8(%rbp)
   1722a:	48 89 b5 30 f1 ff ff 	mov    %rsi,-0xed0(%rbp)
   17231:	64 48 8b 04 25 28 00 	mov    %fs:0x28,%rax
   17238:	00 00 
   1723a:	48 89 45 c8          	mov    %rax,-0x38(%rbp)
   1723e:	31 c0                	xor    %eax,%eax
   17240:	48 8d 05 31 de 00 00 	lea    0xde31(%rip),%rax        # 25078 <g_64>
   17247:	48 89 85 48 f2 ff ff 	mov    %rax,-0xdb8(%rbp)
   1724e:	48 8d 85 90 f7 ff ff 	lea    -0x870(%rbp),%rax
   17255:	48 8d 15 64 09 01 00 	lea    0x10964(%rip),%rdx        # 27bc0 <g_4523+0x17c0>
   1725c:	b9 28 00 00 00       	mov    $0x28,%ecx
   17261:	48 89 c7             	mov    %rax,%rdi
   17264:	48 89 d6             	mov    %rdx,%rsi
   17267:	f3 48 a5             	rep movsq %ds:(%rsi),%es:(%rdi)
   1726a:	c6 85 41 f1 ff ff f7 	movb   $0xf7,-0xebf(%rbp)
   17271:	66 c7 85 4c f1 ff ff 	movw   $0x5,-0xeb4(%rbp)
   17278:	05 00 
   1727a:	66 c7 85 4e f1 ff ff 	movw   $0x0,-0xeb2(%rbp)
   17281:	00 00 
   17283:	c7 85 64 f1 ff ff ff 	movl   $0xffffffff,-0xe9c(%rbp)
   1728a:	ff ff ff 
   1728d:	66 c7 85 50 f1 ff ff 	movw   $0x1,-0xeb0(%rbp)
   17294:	01 00 
   17296:	c7 85 68 f1 ff ff 08 	movl   $0x8,-0xe98(%rbp)
   1729d:	00 00 00 
   172a0:	c7 85 b4 f1 ff ff 00 	movl   $0x0,-0xe4c(%rbp)
   172a7:	00 00 00 
   172aa:	c7 85 6c f1 ff ff 36 	movl   $0x3d7ecd36,-0xe94(%rbp)
   172b1:	cd 7e 3d 
   172b4:	48 8d 05 85 1b 01 00 	lea    0x11b85(%rip),%rax        # 28e40 <g_1055>
   172bb:	48 89 85 80 f4 ff ff 	mov    %rax,-0xb80(%rbp)
   172c2:	48 8d 05 77 1b 01 00 	lea    0x11b77(%rip),%rax        # 28e40 <g_1055>
   172c9:	48 89 85 88 f4 ff ff 	mov    %rax,-0xb78(%rbp)
   172d0:	48 8d 05 69 1b 01 00 	lea    0x11b69(%rip),%rax        # 28e40 <g_1055>
   172d7:	48 89 85 90 f4 ff ff 	mov    %rax,-0xb70(%rbp)
   172de:	48 8d 05 5b 1b 01 00 	lea    0x11b5b(%rip),%rax        # 28e40 <g_1055>
   172e5:	48 89 85 98 f4 ff ff 	mov    %rax,-0xb68(%rbp)
   172ec:	48 8d 05 4d 1b 01 00 	lea    0x11b4d(%rip),%rax        # 28e40 <g_1055>
   172f3:	48 89 85 a0 f4 ff ff 	mov    %rax,-0xb60(%rbp)
   172fa:	48 8d 05 3f 1b 01 00 	lea    0x11b3f(%rip),%rax        # 28e40 <g_1055>
   17301:	48 89 85 a8 f4 ff ff 	mov    %rax,-0xb58(%rbp)
   17308:	66 c7 85 52 f1 ff ff 	movw   $0xffff,-0xeae(%rbp)
   1730f:	ff ff 
   17311:	48 c7 85 a0 f2 ff ff 	movq   $0x0,-0xd60(%rbp)
   17318:	00 00 00 00 
   1731c:	66 c7 85 48 f1 ff ff 	movw   $0x1,-0xeb8(%rbp)
   17323:	01 00 
   17325:	48 8d 05 7c 16 01 00 	lea    0x1167c(%rip),%rax        # 289a8 <g_1057>
   1732c:	48 89 85 a8 f2 ff ff 	mov    %rax,-0xd58(%rbp)
   17333:	66 c7 85 54 f1 ff ff 	movw   $0x5829,-0xeac(%rbp)
   1733a:	29 58 
   1733c:	66 c7 85 56 f1 ff ff 	movw   $0x61e5,-0xeaa(%rbp)
   17343:	e5 61 
   17345:	c7 85 70 f1 ff ff a1 	movl   $0xbdea1a1,-0xe90(%rbp)
   1734c:	a1 de 0b 
   1734f:	c7 85 74 f1 ff ff b6 	movl   $0xdd54cb6,-0xe8c(%rbp)
   17356:	4c d5 0d 
   17359:	c7 85 b8 f1 ff ff 00 	movl   $0x0,-0xe48(%rbp)
   17360:	00 00 00 
   17363:	48 8d 05 12 dd 00 00 	lea    0xdd12(%rip),%rax        # 2507c <g_65>
   1736a:	48 89 85 b0 f2 ff ff 	mov    %rax,-0xd50(%rbp)
   17371:	48 c7 85 50 f2 ff ff 	movq   $0x0,-0xdb0(%rbp)
   17378:	00 00 00 00 
   1737c:	48 8d 85 50 f2 ff ff 	lea    -0xdb0(%rbp),%rax
   17383:	48 89 85 58 f2 ff ff 	mov    %rax,-0xda8(%rbp)
   1738a:	48 8d 85 f4 f3 ff ff 	lea    -0xc0c(%rbp),%rax
   17391:	48 89 85 b8 f2 ff ff 	mov    %rax,-0xd48(%rbp)
   17398:	48 8d 05 c1 1a 01 00 	lea    0x11ac1(%rip),%rax        # 28e60 <g_1176>
   1739f:	48 89 85 60 f2 ff ff 	mov    %rax,-0xda0(%rbp)
   173a6:	48 8d 85 60 f2 ff ff 	lea    -0xda0(%rbp),%rax
   173ad:	48 89 85 c0 f2 ff ff 	mov    %rax,-0xd40(%rbp)
   173b4:	48 8d 85 6c f1 ff ff 	lea    -0xe94(%rbp),%rax
   173bb:	48 89 85 c8 f2 ff ff 	mov    %rax,-0xd38(%rbp)
   173c2:	c7 85 78 f1 ff ff ff 	movl   $0xffffffff,-0xe88(%rbp)
   173c9:	ff ff ff 
   173cc:	66 c7 85 58 f1 ff ff 	movw   $0xffff,-0xea8(%rbp)
   173d3:	ff ff 
   173d5:	c6 85 40 f1 ff ff 00 	movb   $0x0,-0xec0(%rbp)
   173dc:	48 8d 05 dd 14 01 00 	lea    0x114dd(%rip),%rax        # 288c0 <g_513>
   173e3:	48 89 85 d0 f2 ff ff 	mov    %rax,-0xd30(%rbp)
   173ea:	c7 85 a4 f1 ff ff f8 	movl   $0xfffffff8,-0xe5c(%rbp)
   173f1:	ff ff ff 
   173f4:	c6 85 42 f1 ff ff 89 	movb   $0x89,-0xebe(%rbp)
   173fb:	48 8d 05 e6 39 01 00 	lea    0x139e6(%rip),%rax        # 2ade8 <g_96>
   17402:	48 89 85 d8 f2 ff ff 	mov    %rax,-0xd28(%rbp)
   17409:	48 8d 05 e8 dc 00 00 	lea    0xdce8(%rip),%rax        # 250f8 <g_708>
   17410:	48 89 85 68 f2 ff ff 	mov    %rax,-0xd98(%rbp)
   17417:	48 8d 85 68 f2 ff ff 	lea    -0xd98(%rbp),%rax
   1741e:	48 89 85 e0 f2 ff ff 	mov    %rax,-0xd20(%rbp)
   17425:	c7 85 98 f1 ff ff 00 	movl   $0x0,-0xe68(%rbp)
   1742c:	00 00 00 
   1742f:	eb 19                	jmp    1744a <func_49+0x23f>
   17431:	8b 85 98 f1 ff ff    	mov    -0xe68(%rbp),%eax
   17437:	48 98                	cltq   
   17439:	66 c7 84 45 e4 f3 ff 	movw   $0xa4e7,-0xc1c(%rbp,%rax,2)
   17440:	ff e7 a4 
   17443:	83 85 98 f1 ff ff 01 	addl   $0x1,-0xe68(%rbp)
   1744a:	83 bd 98 f1 ff ff 01 	cmpl   $0x1,-0xe68(%rbp)
   17451:	7e de                	jle    17431 <func_49+0x226>
   17453:	c7 85 98 f1 ff ff 00 	movl   $0x0,-0xe68(%rbp)
   1745a:	00 00 00 
   1745d:	eb 1a                	jmp    17479 <func_49+0x26e>
   1745f:	8b 85 98 f1 ff ff    	mov    -0xe68(%rbp),%eax
   17465:	48 98                	cltq   
   17467:	c7 84 85 04 f4 ff ff 	movl   $0xfffffffe,-0xbfc(%rbp,%rax,4)
   1746e:	fe ff ff ff 
   17472:	83 85 98 f1 ff ff 01 	addl   $0x1,-0xe68(%rbp)
   17479:	83 bd 98 f1 ff ff 02 	cmpl   $0x2,-0xe68(%rbp)
   17480:	7e dd                	jle    1745f <func_49+0x254>
   17482:	c7 85 98 f1 ff ff 00 	movl   $0x0,-0xe68(%rbp)
   17489:	00 00 00 
   1748c:	eb 1a                	jmp    174a8 <func_49+0x29d>
   1748e:	8b 85 98 f1 ff ff    	mov    -0xe68(%rbp),%eax
   17494:	48 98                	cltq   
   17496:	c7 84 85 f4 f3 ff ff 	movl   $0xc4a9be8d,-0xc0c(%rbp,%rax,4)
   1749d:	8d be a9 c4 
   174a1:	83 85 98 f1 ff ff 01 	addl   $0x1,-0xe68(%rbp)
   174a8:	83 bd 98 f1 ff ff 01 	cmpl   $0x1,-0xe68(%rbp)
   174af:	7e dd                	jle    1748e <func_49+0x283>
   174b1:	c7 85 98 f1 ff ff 00 	movl   $0x0,-0xe68(%rbp)
   174b8:	00 00 00 
   174bb:	eb 1e                	jmp    174db <func_49+0x2d0>
   174bd:	8b 85 98 f1 ff ff    	mov    -0xe68(%rbp),%eax
   174c3:	48 98                	cltq   
   174c5:	48 8d 15 34 dc 00 00 	lea    0xdc34(%rip),%rdx        # 25100 <g_709>
   174cc:	48 89 94 c5 30 f4 ff 	mov    %rdx,-0xbd0(%rbp,%rax,8)
   174d3:	ff 
   174d4:	83 85 98 f1 ff ff 01 	addl   $0x1,-0xe68(%rbp)
   174db:	83 bd 98 f1 ff ff 02 	cmpl   $0x2,-0xe68(%rbp)
   174e2:	7e d9                	jle    174bd <func_49+0x2b2>
   174e4:	c7 85 98 f1 ff ff 00 	movl   $0x0,-0xe68(%rbp)
   174eb:	00 00 00 
   174ee:	eb 1e                	jmp    1750e <func_49+0x303>
   174f0:	8b 85 98 f1 ff ff    	mov    -0xe68(%rbp),%eax
   174f6:	48 98                	cltq   
   174f8:	48 8d 95 58 f2 ff ff 	lea    -0xda8(%rbp),%rdx
   174ff:	48 89 94 c5 e8 f3 ff 	mov    %rdx,-0xc18(%rbp,%rax,8)
   17506:	ff 
   17507:	83 85 98 f1 ff ff 01 	addl   $0x1,-0xe68(%rbp)
   1750e:	83 bd 98 f1 ff ff 00 	cmpl   $0x0,-0xe68(%rbp)
   17515:	7e d9                	jle    174f0 <func_49+0x2e5>
   17517:	c7 05 53 db 00 00 1d 	movl   $0x1d,0xdb53(%rip)        # 25074 <g_56>
   1751e:	00 00 00 
   17521:	90                   	nop
   17522:	8b 05 4c db 00 00    	mov    0xdb4c(%rip),%eax        # 25074 <g_56>
   17528:	83 f8 f0             	cmp    $0xfffffff0,%eax
   1752b:	0f 84 60 02 00 00    	je     17791 <func_49+0x586>
   17531:	48 8d 85 48 f2 ff ff 	lea    -0xdb8(%rbp),%rax
   17538:	48 89 85 90 f2 ff ff 	mov    %rax,-0xd70(%rbp)
   1753f:	48 8d 05 32 db 00 00 	lea    0xdb32(%rip),%rax        # 25078 <g_64>
   17546:	48 89 85 b8 f3 ff ff 	mov    %rax,-0xc48(%rbp)
   1754d:	48 b8 1a ad 6a 41 0c 	movabs $0xe3326a0c416aad1a,%rax
   17554:	6a 32 e3 
   17557:	48 89 85 20 f5 ff ff 	mov    %rax,-0xae0(%rbp)
   1755e:	48 89 85 28 f5 ff ff 	mov    %rax,-0xad8(%rbp)
   17565:	48 89 85 30 f5 ff ff 	mov    %rax,-0xad0(%rbp)
   1756c:	48 89 85 38 f5 ff ff 	mov    %rax,-0xac8(%rbp)
   17573:	48 8d 05 de 18 01 00 	lea    0x118de(%rip),%rax        # 28e58 <g_1177>
   1757a:	48 89 85 c0 f3 ff ff 	mov    %rax,-0xc40(%rbp)
   17581:	48 8d 05 d8 18 01 00 	lea    0x118d8(%rip),%rax        # 28e60 <g_1176>
   17588:	48 89 85 98 f2 ff ff 	mov    %rax,-0xd68(%rbp)
   1758f:	48 8d 85 98 f2 ff ff 	lea    -0xd68(%rbp),%rax
   17596:	48 89 85 c8 f3 ff ff 	mov    %rax,-0xc38(%rbp)
   1759d:	48 c7 85 f0 f5 ff ff 	movq   $0x0,-0xa10(%rbp)
   175a4:	00 00 00 00 
   175a8:	48 c7 85 f8 f5 ff ff 	movq   $0x0,-0xa08(%rbp)
   175af:	00 00 00 00 
   175b3:	48 c7 85 00 f6 ff ff 	movq   $0x0,-0xa00(%rbp)
   175ba:	00 00 00 00 
   175be:	48 c7 85 08 f6 ff ff 	movq   $0x0,-0x9f8(%rbp)
   175c5:	00 00 00 00 
   175c9:	48 c7 85 10 f6 ff ff 	movq   $0x0,-0x9f0(%rbp)
   175d0:	00 00 00 00 
   175d4:	c7 85 40 f2 ff ff fa 	movl   $0xfffffffa,-0xdc0(%rbp)
   175db:	ff ff ff 
   175de:	48 c7 85 90 f6 ff ff 	movq   $0x6,-0x970(%rbp)
   175e5:	06 00 00 00 
   175e9:	48 c7 85 98 f6 ff ff 	movq   $0xffffffffffffffff,-0x968(%rbp)
   175f0:	ff ff ff ff 
   175f4:	48 c7 85 a0 f6 ff ff 	movq   $0xffffffffffffffff,-0x960(%rbp)
   175fb:	ff ff ff ff 
   175ff:	48 c7 85 a8 f6 ff ff 	movq   $0x6,-0x958(%rbp)
   17606:	06 00 00 00 
   1760a:	48 c7 85 b0 f6 ff ff 	movq   $0xffffffffffffffff,-0x950(%rbp)
   17611:	ff ff ff ff 
   17615:	48 c7 85 b8 f6 ff ff 	movq   $0xffffffffffffffff,-0x948(%rbp)
   1761c:	ff ff ff ff 
   17620:	48 c7 85 c0 f6 ff ff 	movq   $0x6,-0x940(%rbp)
   17627:	06 00 00 00 
   1762b:	48 c7 85 c8 f6 ff ff 	movq   $0xffffffffffffffff,-0x938(%rbp)
   17632:	ff ff ff ff 
   17636:	66 c7 85 62 f1 ff ff 	movw   $0xfffb,-0xe9e(%rbp)
   1763d:	fb ff 
   1763f:	48 8d 05 d2 0f 01 00 	lea    0x10fd2(%rip),%rax        # 28618 <g_128>
   17646:	48 89 85 d0 f3 ff ff 	mov    %rax,-0xc30(%rbp)
   1764d:	48 c7 85 70 f5 ff ff 	movq   $0x0,-0xa90(%rbp)
   17654:	00 00 00 00 
   17658:	48 c7 85 78 f5 ff ff 	movq   $0x0,-0xa88(%rbp)
   1765f:	00 00 00 00 
   17663:	48 c7 85 80 f5 ff ff 	movq   $0x0,-0xa80(%rbp)
   1766a:	00 00 00 00 
   1766e:	48 c7 85 88 f5 ff ff 	movq   $0x0,-0xa78(%rbp)
   17675:	00 00 00 00 
   17679:	48 8d 85 90 f6 ff ff 	lea    -0x970(%rbp),%rax
   17680:	48 83 c0 38          	add    $0x38,%rax
   17684:	48 89 85 d0 f8 ff ff 	mov    %rax,-0x730(%rbp)
   1768b:	48 c7 85 d8 f8 ff ff 	movq   $0x0,-0x728(%rbp)
   17692:	00 00 00 00 
   17696:	48 8d 85 90 f6 ff ff 	lea    -0x970(%rbp),%rax
   1769d:	48 83 c0 38          	add    $0x38,%rax
   176a1:	48 89 85 e0 f8 ff ff 	mov    %rax,-0x720(%rbp)
   176a8:	48 c7 85 e8 f8 ff ff 	movq   $0x0,-0x718(%rbp)
   176af:	00 00 00 00 
   176b3:	48 8d 85 90 f6 ff ff 	lea    -0x970(%rbp),%rax
   176ba:	48 83 c0 38          	add    $0x38,%rax
   176be:	48 89 85 f0 f8 ff ff 	mov    %rax,-0x710(%rbp)
   176c5:	48 8d 85 20 f5 ff ff 	lea    -0xae0(%rbp),%rax
   176cc:	48 83 c0 08          	add    $0x8,%rax
   176d0:	48 89 85 f8 f8 ff ff 	mov    %rax,-0x708(%rbp)
   176d7:	48 8d 85 20 f5 ff ff 	lea    -0xae0(%rbp),%rax
   176de:	48 83 c0 08          	add    $0x8,%rax
   176e2:	48 89 85 00 f9 ff ff 	mov    %rax,-0x700(%rbp)
   176e9:	48 8d 85 20 f5 ff ff 	lea    -0xae0(%rbp),%rax
   176f0:	48 83 c0 08          	add    $0x8,%rax
   176f4:	48 89 85 08 f9 ff ff 	mov    %rax,-0x6f8(%rbp)
   176fb:	48 8d 85 20 f5 ff ff 	lea    -0xae0(%rbp),%rax
   17702:	48 83 c0 08          	add    $0x8,%rax
   17706:	48 89 85 10 f9 ff ff 	mov    %rax,-0x6f0(%rbp)
   1770d:	48 8d 85 20 f5 ff ff 	lea    -0xae0(%rbp),%rax
   17714:	48 83 c0 08          	add    $0x8,%rax
   17718:	48 89 85 18 f9 ff ff 	mov    %rax,-0x6e8(%rbp)
   1771f:	48 8d 85 d0 f8 ff ff 	lea    -0x730(%rbp),%rax
   17726:	48 83 c0 38          	add    $0x38,%rax
   1772a:	48 89 85 d8 f3 ff ff 	mov    %rax,-0xc28(%rbp)
   17731:	c7 85 44 f2 ff ff a7 	movl   $0xaa46c2a7,-0xdbc(%rbp)
   17738:	c2 46 aa 
   1773b:	48 8d 85 20 fa ff ff 	lea    -0x5e0(%rbp),%rax
   17742:	48 8d 15 f7 90 00 00 	lea    0x90f7(%rip),%rdx        # 20840 <g_3910+0x17d4>
   17749:	b9 38 00 00 00       	mov    $0x38,%ecx
   1774e:	48 89 c7             	mov    %rax,%rdi
   17751:	48 89 d6             	mov    %rdx,%rsi
   17754:	f3 48 a5             	rep movsq %ds:(%rsi),%es:(%rdi)
   17757:	c7 85 9c f1 ff ff 00 	movl   $0x0,-0xe64(%rbp)
   1775e:	00 00 00 
   17761:	eb 1a                	jmp    1777d <func_49+0x572>
   17763:	8b 85 9c f1 ff ff    	mov    -0xe64(%rbp),%eax
   17769:	48 98                	cltq   
   1776b:	c7 84 85 e0 f4 ff ff 	movl   $0xfffffffb,-0xb20(%rbp,%rax,4)
   17772:	fb ff ff ff 
   17776:	83 85 9c f1 ff ff 01 	addl   $0x1,-0xe64(%rbp)
   1777d:	83 bd 9c f1 ff ff 06 	cmpl   $0x6,-0xe64(%rbp)
   17784:	7e dd                	jle    17763 <func_49+0x558>
   17786:	8b 05 dc d8 00 00    	mov    0xd8dc(%rip),%eax        # 25068 <g_53>
   1778c:	e9 05 22 00 00       	jmpq   19996 <func_49+0x278b>
   17791:	48 8b 05 b8 16 01 00 	mov    0x116b8(%rip),%rax        # 28e50 <g_1125>
   17798:	0f b7 00             	movzwl (%rax),%eax
   1779b:	0f b7 d0             	movzwl %ax,%edx
   1779e:	0f b7 85 e4 f3 ff ff 	movzwl -0xc1c(%rbp),%eax
   177a5:	66 85 c0             	test   %ax,%ax
   177a8:	74 11                	je     177bb <func_49+0x5b0>
   177aa:	48 8b 05 67 0e 01 00 	mov    0x10e67(%rip),%rax        # 28618 <g_128>
   177b1:	c6 00 01             	movb   $0x1,(%rax)
   177b4:	b8 01 00 00 00       	mov    $0x1,%eax
   177b9:	eb 05                	jmp    177c0 <func_49+0x5b5>
   177bb:	b8 00 00 00 00       	mov    $0x0,%eax
   177c0:	0f b7 c0             	movzwl %ax,%eax
   177c3:	89 d6                	mov    %edx,%esi
   177c5:	89 c7                	mov    %eax,%edi
   177c7:	e8 c2 45 ff ff       	callq  bd8e <safe_div_func_uint16_t_u_u>
   177cc:	89 c2                	mov    %eax,%edx
   177ce:	48 8b 05 eb 0d 01 00 	mov    0x10deb(%rip),%rax        # 285c0 <g_91>
   177d5:	0f b7 d2             	movzwl %dx,%edx
   177d8:	89 10                	mov    %edx,(%rax)
   177da:	48 8b 05 37 0e 01 00 	mov    0x10e37(%rip),%rax        # 28618 <g_128>
   177e1:	0f b6 00             	movzbl (%rax),%eax
   177e4:	0f be d8             	movsbl %al,%ebx
   177e7:	48 8b 05 c2 10 01 00 	mov    0x110c2(%rip),%rax        # 288b0 <g_426>
   177ee:	8b 00                	mov    (%rax),%eax
   177f0:	41 89 c5             	mov    %eax,%r13d
   177f3:	48 8b 05 a6 10 01 00 	mov    0x110a6(%rip),%rax        # 288a0 <g_368>
   177fa:	48 8b 10             	mov    (%rax),%rdx
   177fd:	48 8b 05 3c 16 01 00 	mov    0x1163c(%rip),%rax        # 28e40 <g_1055>
   17804:	48 8b 00             	mov    (%rax),%rax
   17807:	48 39 c2             	cmp    %rax,%rdx
   1780a:	0f 95 c1             	setne  %cl
   1780d:	48 8b 05 4c 16 01 00 	mov    0x1164c(%rip),%rax        # 28e60 <g_1176>
   17814:	48 8b 00             	mov    (%rax),%rax
   17817:	0f b7 00             	movzwl (%rax),%eax
   1781a:	0f b7 d0             	movzwl %ax,%edx
   1781d:	8b 85 f4 f3 ff ff    	mov    -0xc0c(%rbp),%eax
   17823:	39 c2                	cmp    %eax,%edx
   17825:	0f 9d c0             	setge  %al
   17828:	21 c8                	and    %ecx,%eax
   1782a:	0f b6 c0             	movzbl %al,%eax
   1782d:	be a9 b5 d1 b7       	mov    $0xb7d1b5a9,%esi
   17832:	89 c7                	mov    %eax,%edi
   17834:	e8 c6 3e ff ff       	callq  b6ff <safe_div_func_int32_t_s_s>
   17839:	be fd ec ff ff       	mov    $0xffffecfd,%esi
   1783e:	bf 00 00 00 00       	mov    $0x0,%edi
   17843:	e8 ad 3b ff ff       	callq  b3f5 <safe_mul_func_int16_t_s_s>
   17848:	0f b7 c0             	movzwl %ax,%eax
   1784b:	89 c7                	mov    %eax,%edi
   1784d:	e8 97 44 ff ff       	callq  bce9 <safe_unary_minus_func_uint16_t_u>
   17852:	0f b7 c0             	movzwl %ax,%eax
   17855:	48 be 4e c4 7d 1b 0a 	movabs $0xd0265a0a1b7dc44e,%rsi
   1785c:	5a 26 d0 
   1785f:	48 89 c7             	mov    %rax,%rdi
   17862:	e8 da 3f ff ff       	callq  b841 <safe_add_func_int64_t_s_s>
   17867:	44 0f b6 e0          	movzbl %al,%r12d
   1786b:	8b 85 74 f1 ff ff    	mov    -0xe8c(%rbp),%eax
   17871:	8b 95 68 f1 ff ff    	mov    -0xe98(%rbp),%edx
   17877:	89 c6                	mov    %eax,%esi
   17879:	89 d7                	mov    %edx,%edi
   1787b:	e8 7d 46 ff ff       	callq  befd <safe_mod_func_uint32_t_u_u>
   17880:	0f b6 c0             	movzbl %al,%eax
   17883:	44 89 e6             	mov    %r12d,%esi
   17886:	89 c7                	mov    %eax,%edi
   17888:	e8 21 43 ff ff       	callq  bbae <safe_mod_func_uint8_t_u_u>
   1788d:	0f b6 c0             	movzbl %al,%eax
   17890:	44 89 ee             	mov    %r13d,%esi
   17893:	89 c7                	mov    %eax,%edi
   17895:	e8 8b 46 ff ff       	callq  bf25 <safe_div_func_uint32_t_u_u>
   1789a:	83 f8 01             	cmp    $0x1,%eax
   1789d:	0f 97 c0             	seta   %al
   178a0:	0f b6 d0             	movzbl %al,%edx
   178a3:	0f bf 85 4e f1 ff ff 	movswl -0xeb2(%rbp),%eax
   178aa:	39 c2                	cmp    %eax,%edx
   178ac:	0f 95 c0             	setne  %al
   178af:	0f b6 d0             	movzbl %al,%edx
   178b2:	8b 05 90 a7 00 00    	mov    0xa790(%rip),%eax        # 22048 <l_1470.5021+0x8>
   178b8:	48 98                	cltq   
   178ba:	48 89 d6             	mov    %rdx,%rsi
   178bd:	48 89 c7             	mov    %rax,%rdi
   178c0:	e8 e3 3f ff ff       	callq  b8a8 <safe_sub_func_int64_t_s_s>
   178c5:	48 89 c2             	mov    %rax,%rdx
   178c8:	48 8b 05 29 d8 00 00 	mov    0xd829(%rip),%rax        # 250f8 <g_708>
   178cf:	48 39 c2             	cmp    %rax,%rdx
   178d2:	0f 97 c0             	seta   %al
   178d5:	0f b6 c0             	movzbl %al,%eax
   178d8:	89 de                	mov    %ebx,%esi
   178da:	89 c7                	mov    %eax,%edi
   178dc:	e8 c0 39 ff ff       	callq  b2a1 <safe_lshift_func_int8_t_s_s>
   178e1:	0f be c0             	movsbl %al,%eax
   178e4:	35 16 b5 3f 19       	xor    $0x193fb516,%eax
   178e9:	89 85 b8 f1 ff ff    	mov    %eax,-0xe48(%rbp)
   178ef:	83 bd b8 f1 ff ff 00 	cmpl   $0x0,-0xe48(%rbp)
   178f6:	74 0a                	je     17902 <func_49+0x6f7>
   178f8:	0f b7 85 48 f1 ff ff 	movzwl -0xeb8(%rbp),%eax
   178ff:	66 85 c0             	test   %ax,%ax
   17902:	8b 85 f8 f3 ff ff    	mov    -0xc08(%rbp),%eax
   17908:	85 c0                	test   %eax,%eax
   1790a:	75 12                	jne    1791e <func_49+0x713>
   1790c:	48 8b 05 4d 15 01 00 	mov    0x1154d(%rip),%rax        # 28e60 <g_1176>
   17913:	48 8b 00             	mov    (%rax),%rax
   17916:	0f b7 00             	movzwl (%rax),%eax
   17919:	66 85 c0             	test   %ax,%ax
   1791c:	74 07                	je     17925 <func_49+0x71a>
   1791e:	b8 01 00 00 00       	mov    $0x1,%eax
   17923:	eb 05                	jmp    1792a <func_49+0x71f>
   17925:	b8 00 00 00 00       	mov    $0x0,%eax
   1792a:	0f be c0             	movsbl %al,%eax
   1792d:	be 06 00 00 00       	mov    $0x6,%esi
   17932:	89 c7                	mov    %eax,%edi
   17934:	e8 68 39 ff ff       	callq  b2a1 <safe_lshift_func_int8_t_s_s>
   17939:	48 8b 15 d8 0c 01 00 	mov    0x10cd8(%rip),%rdx        # 28618 <g_128>
   17940:	0f b6 12             	movzbl (%rdx),%edx
   17943:	38 d0                	cmp    %dl,%al
   17945:	7d 11                	jge    17958 <func_49+0x74d>
   17947:	8b 85 6c f1 ff ff    	mov    -0xe94(%rbp),%eax
   1794d:	85 c0                	test   %eax,%eax
   1794f:	74 07                	je     17958 <func_49+0x74d>
   17951:	ba 01 00 00 00       	mov    $0x1,%edx
   17956:	eb 05                	jmp    1795d <func_49+0x752>
   17958:	ba 00 00 00 00       	mov    $0x0,%edx
   1795d:	48 8b 85 b0 f2 ff ff 	mov    -0xd50(%rbp),%rax
   17964:	89 10                	mov    %edx,(%rax)
   17966:	48 8b 85 b0 f2 ff ff 	mov    -0xd50(%rbp),%rax
   1796d:	8b 00                	mov    (%rax),%eax
   1796f:	85 c0                	test   %eax,%eax
   17971:	0f 84 ec 01 00 00    	je     17b63 <func_49+0x958>
   17977:	48 8d 05 aa 0c 01 00 	lea    0x10caa(%rip),%rax        # 28628 <g_181>
   1797e:	48 89 85 f0 f2 ff ff 	mov    %rax,-0xd10(%rbp)
   17985:	c7 85 c8 f1 ff ff 05 	movl   $0x8a11b105,-0xe38(%rbp)
   1798c:	b1 11 8a 
   1798f:	c6 85 43 f1 ff ff 04 	movb   $0x4,-0xebd(%rbp)
   17996:	c7 85 cc f1 ff ff 01 	movl   $0x1,-0xe34(%rbp)
   1799d:	00 00 00 
   179a0:	c7 85 d0 f1 ff ff 30 	movl   $0xbe0e7830,-0xe30(%rbp)
   179a7:	78 0e be 
   179aa:	c7 85 d4 f1 ff ff 01 	movl   $0x1,-0xe2c(%rbp)
   179b1:	00 00 00 
   179b4:	c7 85 d8 f1 ff ff ff 	movl   $0xffffffff,-0xe28(%rbp)
   179bb:	ff ff ff 
   179be:	c7 85 20 fa ff ff e2 	movl   $0x6c9894e2,-0x5e0(%rbp)
   179c5:	94 98 6c 
   179c8:	c7 85 24 fa ff ff e2 	movl   $0x6c9894e2,-0x5dc(%rbp)
   179cf:	94 98 6c 
   179d2:	c7 85 28 fa ff ff e2 	movl   $0x6c9894e2,-0x5d8(%rbp)
   179d9:	94 98 6c 
   179dc:	c7 85 2c fa ff ff e2 	movl   $0x6c9894e2,-0x5d4(%rbp)
   179e3:	94 98 6c 
   179e6:	c7 85 30 fa ff ff e2 	movl   $0x6c9894e2,-0x5d0(%rbp)
   179ed:	94 98 6c 
   179f0:	c7 85 34 fa ff ff e2 	movl   $0x6c9894e2,-0x5cc(%rbp)
   179f7:	94 98 6c 
   179fa:	c7 85 38 fa ff ff e2 	movl   $0x6c9894e2,-0x5c8(%rbp)
   17a01:	94 98 6c 
   17a04:	c7 85 3c fa ff ff e2 	movl   $0x6c9894e2,-0x5c4(%rbp)
   17a0b:	94 98 6c 
   17a0e:	c7 05 f8 d6 00 00 1a 	movl   $0x1a,0xd6f8(%rip)        # 25110 <g_845>
   17a15:	00 00 00 
   17a18:	e9 32 01 00 00       	jmpq   17b4f <func_49+0x944>
   17a1d:	48 c7 85 f8 f2 ff ff 	movq   $0x0,-0xd08(%rbp)
   17a24:	00 00 00 00 
   17a28:	48 8d 85 6c f1 ff ff 	lea    -0xe94(%rbp),%rax
   17a2f:	48 89 85 00 f3 ff ff 	mov    %rax,-0xd00(%rbp)
   17a36:	c7 85 a0 f1 ff ff 00 	movl   $0x0,-0xe60(%rbp)
   17a3d:	00 00 00 
   17a40:	eb 1e                	jmp    17a60 <func_49+0x855>
   17a42:	8b 85 a0 f1 ff ff    	mov    -0xe60(%rbp),%eax
   17a48:	48 98                	cltq   
   17a4a:	48 8d 95 70 f1 ff ff 	lea    -0xe90(%rbp),%rdx
   17a51:	48 89 94 c5 d0 f8 ff 	mov    %rdx,-0x730(%rbp,%rax,8)
   17a58:	ff 
   17a59:	83 85 a0 f1 ff ff 01 	addl   $0x1,-0xe60(%rbp)
   17a60:	83 bd a0 f1 ff ff 01 	cmpl   $0x1,-0xe60(%rbp)
   17a67:	7e d9                	jle    17a42 <func_49+0x837>
   17a69:	48 8b 05 f0 a5 00 00 	mov    0xa5f0(%rip),%rax        # 22060 <l_1494.5150>
   17a70:	89 c3                	mov    %eax,%ebx
   17a72:	48 8b 05 2f 0e 01 00 	mov    0x10e2f(%rip),%rax        # 288a8 <g_371>
   17a79:	48 8b 00             	mov    (%rax),%rax
   17a7c:	8b 05 8e d6 00 00    	mov    0xd68e(%rip),%eax        # 25110 <g_845>
   17a82:	85 c0                	test   %eax,%eax
   17a84:	48 8d 85 30 f1 ff ff 	lea    -0xed0(%rbp),%rax
   17a8b:	48 39 85 f0 f2 ff ff 	cmp    %rax,-0xd10(%rbp)
   17a92:	0f 94 c0             	sete   %al
   17a95:	0f b6 c0             	movzbl %al,%eax
   17a98:	be 00 00 00 00       	mov    $0x0,%esi
   17a9d:	89 c7                	mov    %eax,%edi
   17a9f:	e8 1a 43 ff ff       	callq  bdbe <safe_lshift_func_uint16_t_u_s>
   17aa4:	be 07 00 00 00       	mov    $0x7,%esi
   17aa9:	bf 59 00 00 00       	mov    $0x59,%edi
   17aae:	e8 53 43 ff ff       	callq  be06 <safe_lshift_func_uint16_t_u_u>
   17ab3:	89 de                	mov    %ebx,%esi
   17ab5:	bf 01 00 00 00       	mov    $0x1,%edi
   17aba:	e8 6b 3a ff ff       	callq  b52a <safe_rshift_func_int16_t_s_s>
   17abf:	48 0f bf d0          	movswq %ax,%rdx
   17ac3:	48 8b 05 d6 0e 01 00 	mov    0x10ed6(%rip),%rax        # 289a0 <g_1028>
   17aca:	48 8b 00             	mov    (%rax),%rax
   17acd:	48 39 c2             	cmp    %rax,%rdx
   17ad0:	0f 94 c0             	sete   %al
   17ad3:	0f b6 c0             	movzbl %al,%eax
   17ad6:	48 8b 95 b8 f2 ff ff 	mov    -0xd48(%rbp),%rdx
   17add:	48 89 d6             	mov    %rdx,%rsi
   17ae0:	89 c7                	mov    %eax,%edi
   17ae2:	e8 65 39 00 00       	callq  1b44c <func_72>
   17ae7:	49 89 c4             	mov    %rax,%r12
   17aea:	48 8b 05 6f a5 00 00 	mov    0xa56f(%rip),%rax        # 22060 <l_1494.5150>
   17af1:	0f b7 d0             	movzwl %ax,%edx
   17af4:	48 8b 05 65 13 01 00 	mov    0x11365(%rip),%rax        # 28e60 <g_1176>
   17afb:	48 8b 00             	mov    (%rax),%rax
   17afe:	0f b7 08             	movzwl (%rax),%ecx
   17b01:	83 e9 01             	sub    $0x1,%ecx
   17b04:	66 89 08             	mov    %cx,(%rax)
   17b07:	0f b7 00             	movzwl (%rax),%eax
   17b0a:	0f b7 c0             	movzwl %ax,%eax
   17b0d:	89 d6                	mov    %edx,%esi
   17b0f:	89 c7                	mov    %eax,%edi
   17b11:	e8 e9 41 ff ff       	callq  bcff <safe_add_func_uint16_t_u_u>
   17b16:	0f b7 c0             	movzwl %ax,%eax
   17b19:	48 8b 15 68 0e 01 00 	mov    0x10e68(%rip),%rdx        # 28988 <g_893>
   17b20:	48 8b 1a             	mov    (%rdx),%rbx
   17b23:	4c 89 e6             	mov    %r12,%rsi
   17b26:	89 c7                	mov    %eax,%edi
   17b28:	e8 1f 39 00 00       	callq  1b44c <func_72>
   17b2d:	48 89 03             	mov    %rax,(%rbx)
   17b30:	0f b6 05 29 de 00 00 	movzbl 0xde29(%rip),%eax        # 25960 <g_1516>
   17b37:	83 c0 01             	add    $0x1,%eax
   17b3a:	88 05 20 de 00 00    	mov    %al,0xde20(%rip)        # 25960 <g_1516>
   17b40:	8b 05 ca d5 00 00    	mov    0xd5ca(%rip),%eax        # 25110 <g_845>
   17b46:	83 c0 01             	add    $0x1,%eax
   17b49:	89 05 c1 d5 00 00    	mov    %eax,0xd5c1(%rip)        # 25110 <g_845>
   17b4f:	8b 05 bb d5 00 00    	mov    0xd5bb(%rip),%eax        # 25110 <g_845>
   17b55:	83 f8 1c             	cmp    $0x1c,%eax
   17b58:	0f 84 bf fe ff ff    	je     17a1d <func_49+0x812>
   17b5e:	e9 1d 01 00 00       	jmpq   17c80 <func_49+0xa75>
   17b63:	c7 85 bc f1 ff ff ff 	movl   $0xffffffff,-0xe44(%rbp)
   17b6a:	ff ff ff 
   17b6d:	48 8d 05 cc d8 00 00 	lea    0xd8cc(%rip),%rax        # 25440 <g_1346+0x2c0>
   17b74:	48 89 85 e8 f2 ff ff 	mov    %rax,-0xd18(%rbp)
   17b7b:	c7 85 c0 f1 ff ff 80 	movl   $0x3f32180,-0xe40(%rbp)
   17b82:	21 f3 03 
   17b85:	c7 85 c4 f1 ff ff a3 	movl   $0x15582ea3,-0xe3c(%rbp)
   17b8c:	2e 58 15 
   17b8f:	be 00 00 00 00       	mov    $0x0,%esi
   17b94:	bf 00 00 00 00       	mov    $0x0,%edi
   17b99:	e8 bc 3f ff ff       	callq  bb5a <safe_add_func_uint8_t_u_u>
   17b9e:	0f be d0             	movsbl %al,%edx
   17ba1:	48 8b 05 70 0a 01 00 	mov    0x10a70(%rip),%rax        # 28618 <g_128>
   17ba8:	0f b6 00             	movzbl (%rax),%eax
   17bab:	0f be c0             	movsbl %al,%eax
   17bae:	89 d6                	mov    %edx,%esi
   17bb0:	89 c7                	mov    %eax,%edi
   17bb2:	e8 7a 36 ff ff       	callq  b231 <safe_mod_func_int8_t_s_s>
   17bb7:	0f be c0             	movsbl %al,%eax
   17bba:	33 85 bc f1 ff ff    	xor    -0xe44(%rbp),%eax
   17bc0:	89 c3                	mov    %eax,%ebx
   17bc2:	83 bd bc f1 ff ff 00 	cmpl   $0x0,-0xe44(%rbp)
   17bc9:	74 34                	je     17bff <func_49+0x9f4>
   17bcb:	48 8b 85 30 f4 ff ff 	mov    -0xbd0(%rbp),%rax
   17bd2:	48 39 85 e8 f2 ff ff 	cmp    %rax,-0xd18(%rbp)
   17bd9:	0f 95 c0             	setne  %al
   17bdc:	0f b6 d0             	movzbl %al,%edx
   17bdf:	8b 85 bc f1 ff ff    	mov    -0xe44(%rbp),%eax
   17be5:	98                   	cwtl   
   17be6:	89 d6                	mov    %edx,%esi
   17be8:	89 c7                	mov    %eax,%edi
   17bea:	e8 3b 39 ff ff       	callq  b52a <safe_rshift_func_int16_t_s_s>
   17bef:	98                   	cwtl   
   17bf0:	39 85 bc f1 ff ff    	cmp    %eax,-0xe44(%rbp)
   17bf6:	7c 07                	jl     17bff <func_49+0x9f4>
   17bf8:	ba 01 00 00 00       	mov    $0x1,%edx
   17bfd:	eb 05                	jmp    17c04 <func_49+0x9f9>
   17bff:	ba 00 00 00 00       	mov    $0x0,%edx
   17c04:	48 8b 85 b8 f2 ff ff 	mov    -0xd48(%rbp),%rax
   17c0b:	8b 00                	mov    (%rax),%eax
   17c0d:	31 d0                	xor    %edx,%eax
   17c0f:	39 85 bc f1 ff ff    	cmp    %eax,-0xe44(%rbp)
   17c15:	0f 95 c0             	setne  %al
   17c18:	0f b6 d0             	movzbl %al,%edx
   17c1b:	48 8b 85 b0 f2 ff ff 	mov    -0xd50(%rbp),%rax
   17c22:	8b 00                	mov    (%rax),%eax
   17c24:	21 c2                	and    %eax,%edx
   17c26:	8b 85 bc f1 ff ff    	mov    -0xe44(%rbp),%eax
   17c2c:	89 c6                	mov    %eax,%esi
   17c2e:	89 d7                	mov    %edx,%edi
   17c30:	e8 97 3a ff ff       	callq  b6cc <safe_mod_func_int32_t_s_s>
   17c35:	0f b6 c0             	movzbl %al,%eax
   17c38:	89 c6                	mov    %eax,%esi
   17c3a:	bf e9 00 00 00       	mov    $0xe9,%edi
   17c3f:	e8 16 3f ff ff       	callq  bb5a <safe_add_func_uint8_t_u_u>
   17c44:	3c 01                	cmp    $0x1,%al
   17c46:	0f 97 c0             	seta   %al
   17c49:	0f b6 c0             	movzbl %al,%eax
   17c4c:	89 85 c0 f1 ff ff    	mov    %eax,-0xe40(%rbp)
   17c52:	39 9d c0 f1 ff ff    	cmp    %ebx,-0xe40(%rbp)
   17c58:	0f 94 c0             	sete   %al
   17c5b:	0f b6 c0             	movzbl %al,%eax
   17c5e:	be 07 00 00 00       	mov    $0x7,%esi
   17c63:	89 c7                	mov    %eax,%edi
   17c65:	e8 9b 3f ff ff       	callq  bc05 <safe_lshift_func_uint8_t_u_s>
   17c6a:	84 c0                	test   %al,%al
   17c6c:	74 07                	je     17c75 <func_49+0xa6a>
   17c6e:	b8 01 00 00 00       	mov    $0x1,%eax
   17c73:	eb 05                	jmp    17c7a <func_49+0xa6f>
   17c75:	b8 00 00 00 00       	mov    $0x0,%eax
   17c7a:	31 85 c4 f1 ff ff    	xor    %eax,-0xe3c(%rbp)
   17c80:	48 8b 85 c8 f2 ff ff 	mov    -0xd38(%rbp),%rax
   17c87:	8b 10                	mov    (%rax),%edx
   17c89:	48 8b 85 b0 f2 ff ff 	mov    -0xd50(%rbp),%rax
   17c90:	8b 00                	mov    (%rax),%eax
   17c92:	09 c2                	or     %eax,%edx
   17c94:	48 8b 85 c8 f2 ff ff 	mov    -0xd38(%rbp),%rax
   17c9b:	89 10                	mov    %edx,(%rax)
   17c9d:	48 8b 85 c8 f2 ff ff 	mov    -0xd38(%rbp),%rax
   17ca4:	8b 10                	mov    (%rax),%edx
   17ca6:	48 8b 85 b8 f2 ff ff 	mov    -0xd48(%rbp),%rax
   17cad:	8b 00                	mov    (%rax),%eax
   17caf:	39 c2                	cmp    %eax,%edx
   17cb1:	74 19                	je     17ccc <func_49+0xac1>
   17cb3:	48 8b 05 a6 11 01 00 	mov    0x111a6(%rip),%rax        # 28e60 <g_1176>
   17cba:	48 8b 00             	mov    (%rax),%rax
   17cbd:	0f b7 00             	movzwl (%rax),%eax
   17cc0:	66 85 c0             	test   %ax,%ax
   17cc3:	74 07                	je     17ccc <func_49+0xac1>
   17cc5:	b8 01 00 00 00       	mov    $0x1,%eax
   17cca:	eb 05                	jmp    17cd1 <func_49+0xac6>
   17ccc:	b8 00 00 00 00       	mov    $0x0,%eax
   17cd1:	89 c3                	mov    %eax,%ebx
   17cd3:	83 e3 01             	and    $0x1,%ebx
   17cd6:	48 8b 05 3b 09 01 00 	mov    0x1093b(%rip),%rax        # 28618 <g_128>
   17cdd:	0f b6 00             	movzbl (%rax),%eax
   17ce0:	84 c0                	test   %al,%al
   17ce2:	74 62                	je     17d46 <func_49+0xb3b>
   17ce4:	8b 85 78 f1 ff ff    	mov    -0xe88(%rbp),%eax
   17cea:	0f b6 c0             	movzbl %al,%eax
   17ced:	0f b6 15 74 d4 00 00 	movzbl 0xd474(%rip),%edx        # 25168 <g_1156>
   17cf4:	0f be ca             	movsbl %dl,%ecx
   17cf7:	0f b6 15 40 d4 00 00 	movzbl 0xd440(%rip),%edx        # 2513e <g_929+0x1e>
   17cfe:	0f b6 d2             	movzbl %dl,%edx
   17d01:	39 d1                	cmp    %edx,%ecx
   17d03:	0f 9c c2             	setl   %dl
   17d06:	0f b6 ca             	movzbl %dl,%ecx
   17d09:	48 8b 15 38 11 01 00 	mov    0x11138(%rip),%rdx        # 28e48 <g_1091>
   17d10:	48 8b 12             	mov    (%rdx),%rdx
   17d13:	8b 12                	mov    (%rdx),%edx
   17d15:	39 d1                	cmp    %edx,%ecx
   17d17:	74 07                	je     17d20 <func_49+0xb15>
   17d19:	ba 01 00 00 00       	mov    $0x1,%edx
   17d1e:	eb 05                	jmp    17d25 <func_49+0xb1a>
   17d20:	ba 00 00 00 00       	mov    $0x0,%edx
   17d25:	89 c6                	mov    %eax,%esi
   17d27:	89 d7                	mov    %edx,%edi
   17d29:	e8 4a 3e ff ff       	callq  bb78 <safe_sub_func_uint8_t_u_u>
   17d2e:	84 c0                	test   %al,%al
   17d30:	74 14                	je     17d46 <func_49+0xb3b>
   17d32:	48 8b 85 b0 f2 ff ff 	mov    -0xd50(%rbp),%rax
   17d39:	8b 00                	mov    (%rax),%eax
   17d3b:	85 c0                	test   %eax,%eax
   17d3d:	74 07                	je     17d46 <func_49+0xb3b>
   17d3f:	b8 01 00 00 00       	mov    $0x1,%eax
   17d44:	eb 05                	jmp    17d4b <func_49+0xb40>
   17d46:	b8 00 00 00 00       	mov    $0x0,%eax
   17d4b:	83 e0 01             	and    $0x1,%eax
   17d4e:	31 d8                	xor    %ebx,%eax
   17d50:	0f b6 c0             	movzbl %al,%eax
   17d53:	89 c6                	mov    %eax,%esi
   17d55:	bf 1f 36 bc 14       	mov    $0x14bc361f,%edi
   17d5a:	e8 87 41 ff ff       	callq  bee6 <safe_mul_func_uint32_t_u_u>
   17d5f:	89 c2                	mov    %eax,%edx
   17d61:	48 8b 85 b8 f2 ff ff 	mov    -0xd48(%rbp),%rax
   17d68:	8b 00                	mov    (%rax),%eax
   17d6a:	0f b7 c0             	movzwl %ax,%eax
   17d6d:	89 d6                	mov    %edx,%esi
   17d6f:	89 c7                	mov    %eax,%edi
   17d71:	e8 48 40 ff ff       	callq  bdbe <safe_lshift_func_uint16_t_u_s>
   17d76:	48 8b 05 1b 0c 01 00 	mov    0x10c1b(%rip),%rax        # 28998 <g_975>
   17d7d:	48 8b 00             	mov    (%rax),%rax
   17d80:	48 39 85 c0 f2 ff ff 	cmp    %rax,-0xd40(%rbp)
   17d87:	0f 85 38 02 00 00    	jne    17fc5 <func_49+0xdba>
   17d8d:	66 c7 85 98 f2 ff ff 	movw   $0x1,-0xd68(%rbp)
   17d94:	01 00 
   17d96:	c6 85 47 f1 ff ff 08 	movb   $0x8,-0xeb9(%rbp)
   17d9d:	48 8d 05 44 d3 00 00 	lea    0xd344(%rip),%rax        # 250e8 <g_327>
   17da4:	48 89 85 98 f3 ff ff 	mov    %rax,-0xc68(%rbp)
   17dab:	48 8d 85 48 f1 ff ff 	lea    -0xeb8(%rbp),%rax
   17db2:	48 89 85 20 fa ff ff 	mov    %rax,-0x5e0(%rbp)
   17db9:	48 8d 85 48 f1 ff ff 	lea    -0xeb8(%rbp),%rax
   17dc0:	48 89 85 28 fa ff ff 	mov    %rax,-0x5d8(%rbp)
   17dc7:	48 8d 85 48 f1 ff ff 	lea    -0xeb8(%rbp),%rax
   17dce:	48 89 85 30 fa ff ff 	mov    %rax,-0x5d0(%rbp)
   17dd5:	48 8d 85 48 f1 ff ff 	lea    -0xeb8(%rbp),%rax
   17ddc:	48 89 85 38 fa ff ff 	mov    %rax,-0x5c8(%rbp)
   17de3:	48 8d 85 48 f1 ff ff 	lea    -0xeb8(%rbp),%rax
   17dea:	48 89 85 40 fa ff ff 	mov    %rax,-0x5c0(%rbp)
   17df1:	48 8d 85 48 f1 ff ff 	lea    -0xeb8(%rbp),%rax
   17df8:	48 89 85 48 fa ff ff 	mov    %rax,-0x5b8(%rbp)
   17dff:	48 8d 85 48 f1 ff ff 	lea    -0xeb8(%rbp),%rax
   17e06:	48 89 85 50 fa ff ff 	mov    %rax,-0x5b0(%rbp)
   17e0d:	48 8d 85 48 f1 ff ff 	lea    -0xeb8(%rbp),%rax
   17e14:	48 89 85 58 fa ff ff 	mov    %rax,-0x5a8(%rbp)
   17e1b:	48 8d 05 3e 0c 01 00 	lea    0x10c3e(%rip),%rax        # 28a60 <g_1056+0xa0>
   17e22:	48 89 85 a0 f3 ff ff 	mov    %rax,-0xc60(%rbp)
   17e29:	48 c7 85 a8 f3 ff ff 	movq   $0x0,-0xc58(%rbp)
   17e30:	00 00 00 00 
   17e34:	48 8d 05 b1 d2 00 00 	lea    0xd2b1(%rip),%rax        # 250ec <g_362>
   17e3b:	48 89 85 b0 f3 ff ff 	mov    %rax,-0xc50(%rbp)
   17e42:	c7 85 3c f2 ff ff fe 	movl   $0xfffffffe,-0xdc4(%rbp)
   17e49:	ff ff ff 
   17e4c:	48 8b 05 d5 17 01 00 	mov    0x117d5(%rip),%rax        # 29628 <g_1260>
   17e53:	48 8b 00             	mov    (%rax),%rax
   17e56:	48 0f be 85 47 f1 ff 	movsbq -0xeb9(%rbp),%rax
   17e5d:	ff 
   17e5e:	48 ba c0 5d 59 8c 28 	movabs $0x48fd4b288c595dc0,%rdx
   17e65:	4b fd 48 
   17e68:	48 21 c2             	and    %rax,%rdx
   17e6b:	0f b7 05 2e d2 00 00 	movzwl 0xd22e(%rip),%eax        # 250a0 <g_210>
   17e72:	0f b7 c0             	movzwl %ax,%eax
   17e75:	48 39 c2             	cmp    %rax,%rdx
   17e78:	0f 95 c0             	setne  %al
   17e7b:	0f b6 c0             	movzbl %al,%eax
   17e7e:	be 00 00 00 00       	mov    $0x0,%esi
   17e83:	89 c7                	mov    %eax,%edi
   17e85:	e8 88 33 ff ff       	callq  b212 <safe_mul_func_int8_t_s_s>
   17e8a:	38 85 47 f1 ff ff    	cmp    %al,-0xeb9(%rbp)
   17e90:	b9 01 00 00 00       	mov    $0x1,%ecx
   17e95:	48 8b 05 24 07 01 00 	mov    0x10724(%rip),%rax        # 285c0 <g_91>
   17e9c:	8b 10                	mov    (%rax),%edx
   17e9e:	48 8b 05 1b 07 01 00 	mov    0x1071b(%rip),%rax        # 285c0 <g_91>
   17ea5:	09 ca                	or     %ecx,%edx
   17ea7:	89 10                	mov    %edx,(%rax)
   17ea9:	48 8b 85 a8 f2 ff ff 	mov    -0xd58(%rbp),%rax
   17eb0:	48 8b 95 98 f3 ff ff 	mov    -0xc68(%rbp),%rdx
   17eb7:	48 89 10             	mov    %rdx,(%rax)
   17eba:	48 8b 85 a8 f2 ff ff 	mov    -0xd58(%rbp),%rax
   17ec1:	48 8b 00             	mov    (%rax),%rax
   17ec4:	48 89 85 98 f3 ff ff 	mov    %rax,-0xc68(%rbp)
   17ecb:	48 8b 85 38 fa ff ff 	mov    -0x5c8(%rbp),%rax
   17ed2:	48 39 85 98 f3 ff ff 	cmp    %rax,-0xc68(%rbp)
   17ed9:	0f 94 c0             	sete   %al
   17edc:	0f b6 d0             	movzbl %al,%edx
   17edf:	0f bf 85 58 f1 ff ff 	movswl -0xea8(%rbp),%eax
   17ee6:	09 d0                	or     %edx,%eax
   17ee8:	85 c0                	test   %eax,%eax
   17eea:	74 23                	je     17f0f <func_49+0xd04>
   17eec:	48 8b 05 b5 09 01 00 	mov    0x109b5(%rip),%rax        # 288a8 <g_371>
   17ef3:	48 8b 00             	mov    (%rax),%rax
   17ef6:	48 8b 85 b0 f3 ff ff 	mov    -0xc50(%rbp),%rax
   17efd:	c7 00 39 ba 00 00    	movl   $0xba39,(%rax)
   17f03:	48 c7 05 f2 d1 00 00 	movq   $0x0,0xd1f2(%rip)        # 25100 <g_709>
   17f0a:	00 00 00 00 
   17f0e:	90                   	nop
   17f0f:	ba 70 c3 96 51       	mov    $0x5196c370,%edx
   17f14:	48 8b 85 c8 f2 ff ff 	mov    -0xd38(%rbp),%rax
   17f1b:	8b 00                	mov    (%rax),%eax
   17f1d:	21 c2                	and    %eax,%edx
   17f1f:	48 8b 85 c8 f2 ff ff 	mov    -0xd38(%rbp),%rax
   17f26:	89 10                	mov    %edx,(%rax)
   17f28:	48 8b 85 c8 f2 ff ff 	mov    -0xd38(%rbp),%rax
   17f2f:	8b 00                	mov    (%rax),%eax
   17f31:	39 85 3c f2 ff ff    	cmp    %eax,-0xdc4(%rbp)
   17f37:	0f 9d c0             	setge  %al
   17f3a:	0f b6 c0             	movzbl %al,%eax
   17f3d:	be 04 52 00 00       	mov    $0x5204,%esi
   17f42:	89 c7                	mov    %eax,%edi
   17f44:	e8 d6 3d ff ff       	callq  bd1f <safe_sub_func_uint16_t_u_u>
   17f49:	0f b7 85 98 f2 ff ff 	movzwl -0xd68(%rbp),%eax
   17f50:	f7 d0                	not    %eax
   17f52:	98                   	cwtl   
   17f53:	be 01 00 00 00       	mov    $0x1,%esi
   17f58:	89 c7                	mov    %eax,%edi
   17f5a:	e8 96 34 ff ff       	callq  b3f5 <safe_mul_func_int16_t_s_s>
   17f5f:	0f bf d0             	movswl %ax,%edx
   17f62:	48 8b 85 b0 f2 ff ff 	mov    -0xd50(%rbp),%rax
   17f69:	8b 00                	mov    (%rax),%eax
   17f6b:	39 c2                	cmp    %eax,%edx
   17f6d:	0f 9c c0             	setl   %al
   17f70:	0f b6 d0             	movzbl %al,%edx
   17f73:	48 8b 85 b8 f2 ff ff 	mov    -0xd48(%rbp),%rax
   17f7a:	8b 00                	mov    (%rax),%eax
   17f7c:	31 c2                	xor    %eax,%edx
   17f7e:	48 8b 85 b8 f2 ff ff 	mov    -0xd48(%rbp),%rax
   17f85:	89 10                	mov    %edx,(%rax)
   17f87:	48 8b 05 32 06 01 00 	mov    0x10632(%rip),%rax        # 285c0 <g_91>
   17f8e:	8b 08                	mov    (%rax),%ecx
   17f90:	0f be 95 40 f1 ff ff 	movsbl -0xec0(%rbp),%edx
   17f97:	48 8b 05 22 06 01 00 	mov    0x10622(%rip),%rax        # 285c0 <g_91>
   17f9e:	21 ca                	and    %ecx,%edx
   17fa0:	89 10                	mov    %edx,(%rax)
   17fa2:	48 8b 05 17 06 01 00 	mov    0x10617(%rip),%rax        # 285c0 <g_91>
   17fa9:	8b 08                	mov    (%rax),%ecx
   17fab:	0f b7 85 98 f2 ff ff 	movzwl -0xd68(%rbp),%eax
   17fb2:	0f b7 d0             	movzwl %ax,%edx
   17fb5:	48 8b 05 04 06 01 00 	mov    0x10604(%rip),%rax        # 285c0 <g_91>
   17fbc:	31 ca                	xor    %ecx,%edx
   17fbe:	89 10                	mov    %edx,(%rax)
   17fc0:	e9 c7 19 00 00       	jmpq   1998c <func_49+0x2781>
   17fc5:	c7 85 dc f1 ff ff 3e 	movl   $0x1670073e,-0xe24(%rbp)
   17fcc:	07 70 16 
   17fcf:	48 8d 85 64 f1 ff ff 	lea    -0xe9c(%rbp),%rax
   17fd6:	48 89 85 08 f3 ff ff 	mov    %rax,-0xcf8(%rbp)
   17fdd:	66 c7 85 5a f1 ff ff 	movw   $0x1,-0xea6(%rbp)
   17fe4:	01 00 
   17fe6:	66 c7 85 4a f1 ff ff 	movw   $0x4,-0xeb6(%rbp)
   17fed:	04 00 
   17fef:	48 8d 85 78 f1 ff ff 	lea    -0xe88(%rbp),%rax
   17ff6:	48 89 85 d0 f8 ff ff 	mov    %rax,-0x730(%rbp)
   17ffd:	48 8d 85 70 f1 ff ff 	lea    -0xe90(%rbp),%rax
   18004:	48 89 85 d8 f8 ff ff 	mov    %rax,-0x728(%rbp)
   1800b:	48 8d 05 66 d0 00 00 	lea    0xd066(%rip),%rax        # 25078 <g_64>
   18012:	48 89 85 e0 f8 ff ff 	mov    %rax,-0x720(%rbp)
   18019:	48 8d 05 58 d0 00 00 	lea    0xd058(%rip),%rax        # 25078 <g_64>
   18020:	48 89 85 e8 f8 ff ff 	mov    %rax,-0x718(%rbp)
   18027:	48 8d 85 70 f1 ff ff 	lea    -0xe90(%rbp),%rax
   1802e:	48 89 85 f0 f8 ff ff 	mov    %rax,-0x710(%rbp)
   18035:	48 8d 85 78 f1 ff ff 	lea    -0xe88(%rbp),%rax
   1803c:	48 89 85 f8 f8 ff ff 	mov    %rax,-0x708(%rbp)
   18043:	48 8d 85 6c f1 ff ff 	lea    -0xe94(%rbp),%rax
   1804a:	48 89 85 00 f9 ff ff 	mov    %rax,-0x700(%rbp)
   18051:	48 8d 85 f4 f3 ff ff 	lea    -0xc0c(%rbp),%rax
   18058:	48 89 85 08 f9 ff ff 	mov    %rax,-0x6f8(%rbp)
   1805f:	48 c7 85 10 f9 ff ff 	movq   $0x0,-0x6f0(%rbp)
   18066:	00 00 00 00 
   1806a:	48 8d 85 f4 f3 ff ff 	lea    -0xc0c(%rbp),%rax
   18071:	48 89 85 18 f9 ff ff 	mov    %rax,-0x6e8(%rbp)
   18078:	48 8d 05 a5 cf 00 00 	lea    0xcfa5(%rip),%rax        # 25024 <g_3>
   1807f:	48 89 85 20 f9 ff ff 	mov    %rax,-0x6e0(%rbp)
   18086:	48 8d 85 f4 f3 ff ff 	lea    -0xc0c(%rbp),%rax
   1808d:	48 89 85 28 f9 ff ff 	mov    %rax,-0x6d8(%rbp)
   18094:	48 c7 85 30 f9 ff ff 	movq   $0x0,-0x6d0(%rbp)
   1809b:	00 00 00 00 
   1809f:	48 8d 85 f4 f3 ff ff 	lea    -0xc0c(%rbp),%rax
   180a6:	48 89 85 38 f9 ff ff 	mov    %rax,-0x6c8(%rbp)
   180ad:	48 8d 85 78 f1 ff ff 	lea    -0xe88(%rbp),%rax
   180b4:	48 89 85 40 f9 ff ff 	mov    %rax,-0x6c0(%rbp)
   180bb:	48 8d 05 b6 cf 00 00 	lea    0xcfb6(%rip),%rax        # 25078 <g_64>
   180c2:	48 89 85 48 f9 ff ff 	mov    %rax,-0x6b8(%rbp)
   180c9:	48 8d 85 6c f1 ff ff 	lea    -0xe94(%rbp),%rax
   180d0:	48 89 85 50 f9 ff ff 	mov    %rax,-0x6b0(%rbp)
   180d7:	48 8d 85 70 f1 ff ff 	lea    -0xe90(%rbp),%rax
   180de:	48 89 85 58 f9 ff ff 	mov    %rax,-0x6a8(%rbp)
   180e5:	48 8d 85 70 f1 ff ff 	lea    -0xe90(%rbp),%rax
   180ec:	48 89 85 60 f9 ff ff 	mov    %rax,-0x6a0(%rbp)
   180f3:	48 8d 85 6c f1 ff ff 	lea    -0xe94(%rbp),%rax
   180fa:	48 89 85 68 f9 ff ff 	mov    %rax,-0x698(%rbp)
   18101:	48 8d 05 70 cf 00 00 	lea    0xcf70(%rip),%rax        # 25078 <g_64>
   18108:	48 89 85 70 f9 ff ff 	mov    %rax,-0x690(%rbp)
   1810f:	48 8d 85 68 f1 ff ff 	lea    -0xe98(%rbp),%rax
   18116:	48 89 85 78 f9 ff ff 	mov    %rax,-0x688(%rbp)
   1811d:	48 c7 85 80 f9 ff ff 	movq   $0x0,-0x680(%rbp)
   18124:	00 00 00 00 
   18128:	48 c7 85 88 f9 ff ff 	movq   $0x0,-0x678(%rbp)
   1812f:	00 00 00 00 
   18133:	48 c7 85 90 f9 ff ff 	movq   $0x0,-0x670(%rbp)
   1813a:	00 00 00 00 
   1813e:	48 8d 85 68 f1 ff ff 	lea    -0xe98(%rbp),%rax
   18145:	48 89 85 98 f9 ff ff 	mov    %rax,-0x668(%rbp)
   1814c:	48 c7 85 a0 f9 ff ff 	movq   $0x0,-0x660(%rbp)
   18153:	00 00 00 00 
   18157:	48 c7 85 a8 f9 ff ff 	movq   $0x0,-0x658(%rbp)
   1815e:	00 00 00 00 
   18162:	48 8d 85 70 f1 ff ff 	lea    -0xe90(%rbp),%rax
   18169:	48 89 85 b0 f9 ff ff 	mov    %rax,-0x650(%rbp)
   18170:	48 8d 85 70 f1 ff ff 	lea    -0xe90(%rbp),%rax
   18177:	48 89 85 b8 f9 ff ff 	mov    %rax,-0x648(%rbp)
   1817e:	48 8d 85 6c f1 ff ff 	lea    -0xe94(%rbp),%rax
   18185:	48 89 85 c0 f9 ff ff 	mov    %rax,-0x640(%rbp)
   1818c:	48 8d 05 e5 ce 00 00 	lea    0xcee5(%rip),%rax        # 25078 <g_64>
   18193:	48 89 85 c8 f9 ff ff 	mov    %rax,-0x638(%rbp)
   1819a:	48 8d 85 78 f1 ff ff 	lea    -0xe88(%rbp),%rax
   181a1:	48 89 85 d0 f9 ff ff 	mov    %rax,-0x630(%rbp)
   181a8:	48 8d 85 78 f1 ff ff 	lea    -0xe88(%rbp),%rax
   181af:	48 89 85 d8 f9 ff ff 	mov    %rax,-0x628(%rbp)
   181b6:	48 8d 05 bb ce 00 00 	lea    0xcebb(%rip),%rax        # 25078 <g_64>
   181bd:	48 89 85 e0 f9 ff ff 	mov    %rax,-0x620(%rbp)
   181c4:	48 8d 85 f4 f3 ff ff 	lea    -0xc0c(%rbp),%rax
   181cb:	48 89 85 e8 f9 ff ff 	mov    %rax,-0x618(%rbp)
   181d2:	48 8d 05 4b ce 00 00 	lea    0xce4b(%rip),%rax        # 25024 <g_3>
   181d9:	48 89 85 f0 f9 ff ff 	mov    %rax,-0x610(%rbp)
   181e0:	48 8d 85 f4 f3 ff ff 	lea    -0xc0c(%rbp),%rax
   181e7:	48 89 85 f8 f9 ff ff 	mov    %rax,-0x608(%rbp)
   181ee:	48 c7 85 00 fa ff ff 	movq   $0x0,-0x600(%rbp)
   181f5:	00 00 00 00 
   181f9:	48 8d 85 f4 f3 ff ff 	lea    -0xc0c(%rbp),%rax
   18200:	48 89 85 08 fa ff ff 	mov    %rax,-0x5f8(%rbp)
   18207:	48 8d 05 16 ce 00 00 	lea    0xce16(%rip),%rax        # 25024 <g_3>
   1820e:	48 89 85 10 fa ff ff 	mov    %rax,-0x5f0(%rbp)
   18215:	48 8d 85 f4 f3 ff ff 	lea    -0xc0c(%rbp),%rax
   1821c:	48 89 85 18 fa ff ff 	mov    %rax,-0x5e8(%rbp)
   18223:	48 c7 85 10 f3 ff ff 	movq   $0x0,-0xcf0(%rbp)
   1822a:	00 00 00 00 
   1822e:	c7 85 e0 f1 ff ff 4f 	movl   $0xe740574f,-0xe20(%rbp)
   18235:	57 40 e7 
   18238:	48 8d 05 01 0c 01 00 	lea    0x10c01(%rip),%rax        # 28e40 <g_1055>
   1823f:	48 89 85 70 f2 ff ff 	mov    %rax,-0xd90(%rbp)
   18246:	c7 85 e4 f1 ff ff ff 	movl   $0xffffffff,-0xe1c(%rbp)
   1824d:	ff ff ff 
   18250:	c6 85 44 f1 ff ff 71 	movb   $0x71,-0xebc(%rbp)
   18257:	48 c7 85 78 f2 ff ff 	movq   $0x0,-0xd88(%rbp)
   1825e:	00 00 00 00 
   18262:	48 8d 85 78 f2 ff ff 	lea    -0xd88(%rbp),%rax
   18269:	48 89 85 18 f3 ff ff 	mov    %rax,-0xce8(%rbp)
   18270:	48 c7 85 20 f3 ff ff 	movq   $0x0,-0xce0(%rbp)
   18277:	00 00 00 00 
   1827b:	48 c7 85 28 f3 ff ff 	movq   $0xffffffffffffffff,-0xcd8(%rbp)
   18282:	ff ff ff ff 
   18286:	48 c7 85 80 f2 ff ff 	movq   $0x0,-0xd80(%rbp)
   1828d:	00 00 00 00 
   18291:	48 8d 85 50 f4 ff ff 	lea    -0xbb0(%rbp),%rax
   18298:	48 83 c0 18          	add    $0x18,%rax
   1829c:	48 89 85 30 f3 ff ff 	mov    %rax,-0xcd0(%rbp)
   182a3:	c7 85 94 f1 ff ff 00 	movl   $0x0,-0xe6c(%rbp)
   182aa:	00 00 00 
   182ad:	eb 1e                	jmp    182cd <func_49+0x10c2>
   182af:	8b 85 94 f1 ff ff    	mov    -0xe6c(%rbp),%eax
   182b5:	48 98                	cltq   
   182b7:	48 8d 95 80 f2 ff ff 	lea    -0xd80(%rbp),%rdx
   182be:	48 89 94 c5 50 f4 ff 	mov    %rdx,-0xbb0(%rbp,%rax,8)
   182c5:	ff 
   182c6:	83 85 94 f1 ff ff 01 	addl   $0x1,-0xe6c(%rbp)
   182cd:	83 bd 94 f1 ff ff 04 	cmpl   $0x4,-0xe6c(%rbp)
   182d4:	7e d9                	jle    182af <func_49+0x10a4>
   182d6:	48 8b 85 c8 f2 ff ff 	mov    -0xd38(%rbp),%rax
   182dd:	8b 00                	mov    (%rax),%eax
   182df:	48 63 d8             	movslq %eax,%rbx
   182e2:	8b 85 dc f1 ff ff    	mov    -0xe24(%rbp),%eax
   182e8:	44 0f bf e0          	movswl %ax,%r12d
   182ec:	44 0f b7 ad 5a f1 ff 	movzwl -0xea6(%rbp),%r13d
   182f3:	ff 
   182f4:	48 8b 05 7d cf 00 00 	mov    0xcf7d(%rip),%rax        # 25278 <g_1346+0xf8>
   182fb:	41 89 c7             	mov    %eax,%r15d
   182fe:	8b 85 dc f1 ff ff    	mov    -0xe24(%rbp),%eax
   18304:	44 0f bf f0          	movswl %ax,%r14d
   18308:	48 8b 85 60 f2 ff ff 	mov    -0xda0(%rbp),%rax
   1830f:	48 8b 00             	mov    (%rax),%rax
   18312:	48 8b 00             	mov    (%rax),%rax
   18315:	66 c7 00 b0 ac       	movw   $0xacb0,(%rax)
   1831a:	48 8b 85 b0 f2 ff ff 	mov    -0xd50(%rbp),%rax
   18321:	8b 00                	mov    (%rax),%eax
   18323:	98                   	cwtl   
   18324:	be e4 fa ff ff       	mov    $0xfffffae4,%esi
   18329:	89 c7                	mov    %eax,%edi
   1832b:	e8 e6 30 ff ff       	callq  b416 <safe_mod_func_int16_t_s_s>
   18330:	44 89 f6             	mov    %r14d,%esi
   18333:	bf 00 00 00 00       	mov    $0x0,%edi
   18338:	e8 d9 30 ff ff       	callq  b416 <safe_mod_func_int16_t_s_s>
   1833d:	48 8b 95 08 f3 ff ff 	mov    -0xcf8(%rbp),%rdx
   18344:	8b 12                	mov    (%rdx),%edx
   18346:	98                   	cwtl   
   18347:	31 c2                	xor    %eax,%edx
   18349:	48 8b 85 08 f3 ff ff 	mov    -0xcf8(%rbp),%rax
   18350:	89 10                	mov    %edx,(%rax)
   18352:	48 8b 85 08 f3 ff ff 	mov    -0xcf8(%rbp),%rax
   18359:	8b 00                	mov    (%rax),%eax
   1835b:	8b 15 1b cd 00 00    	mov    0xcd1b(%rip),%edx        # 2507c <g_65>
   18361:	09 c2                	or     %eax,%edx
   18363:	48 8b 85 b8 f2 ff ff 	mov    -0xd48(%rbp),%rax
   1836a:	8b 00                	mov    (%rax),%eax
   1836c:	09 d0                	or     %edx,%eax
   1836e:	85 c0                	test   %eax,%eax
   18370:	74 11                	je     18383 <func_49+0x1178>
   18372:	66 83 bd 5a f1 ff ff 	cmpw   $0x0,-0xea6(%rbp)
   18379:	00 
   1837a:	74 07                	je     18383 <func_49+0x1178>
   1837c:	b8 01 00 00 00       	mov    $0x1,%eax
   18381:	eb 05                	jmp    18388 <func_49+0x117d>
   18383:	b8 00 00 00 00       	mov    $0x0,%eax
   18388:	23 85 dc f1 ff ff    	and    -0xe24(%rbp),%eax
   1838e:	44 89 fe             	mov    %r15d,%esi
   18391:	89 c7                	mov    %eax,%edi
   18393:	e8 20 3b ff ff       	callq  beb8 <safe_add_func_uint32_t_u_u>
   18398:	0f b7 c0             	movzwl %ax,%eax
   1839b:	44 89 ee             	mov    %r13d,%esi
   1839e:	89 c7                	mov    %eax,%edi
   183a0:	e8 98 39 ff ff       	callq  bd3d <safe_mul_func_uint16_t_u_u>
   183a5:	98                   	cwtl   
   183a6:	44 89 e6             	mov    %r12d,%esi
   183a9:	89 c7                	mov    %eax,%edi
   183ab:	e8 03 30 ff ff       	callq  b3b3 <safe_add_func_int16_t_s_s>
   183b0:	0f bf d0             	movswl %ax,%edx
   183b3:	48 8b 85 b0 f2 ff ff 	mov    -0xd50(%rbp),%rax
   183ba:	8b 00                	mov    (%rax),%eax
   183bc:	39 c2                	cmp    %eax,%edx
   183be:	0f 95 c0             	setne  %al
   183c1:	0f b6 c0             	movzbl %al,%eax
   183c4:	89 c6                	mov    %eax,%esi
   183c6:	bf f7 ff ff ff       	mov    $0xfffffff7,%edi
   183cb:	e8 35 32 ff ff       	callq  b605 <safe_sub_func_int32_t_s_s>
   183d0:	48 89 de             	mov    %rbx,%rsi
   183d3:	bf 01 00 00 00       	mov    $0x1,%edi
   183d8:	e8 6e 3c ff ff       	callq  c04b <safe_sub_func_uint64_t_u_u>
   183dd:	8b 95 dc f1 ff ff    	mov    -0xe24(%rbp),%edx
   183e3:	48 39 d0             	cmp    %rdx,%rax
   183e6:	0f 95 c0             	setne  %al
   183e9:	0f b6 c0             	movzbl %al,%eax
   183ec:	be a0 86 00 00       	mov    $0x86a0,%esi
   183f1:	89 c7                	mov    %eax,%edi
   183f3:	e8 96 39 ff ff       	callq  bd8e <safe_div_func_uint16_t_u_u>
   183f8:	66 85 c0             	test   %ax,%ax
   183fb:	0f 84 df 05 00 00    	je     189e0 <func_49+0x17d5>
   18401:	48 8d 85 74 f1 ff ff 	lea    -0xe8c(%rbp),%rax
   18408:	48 89 85 68 f3 ff ff 	mov    %rax,-0xc98(%rbp)
   1840f:	c7 85 2c f2 ff ff eb 	movl   $0x2b00e7eb,-0xdd4(%rbp)
   18416:	e7 00 2b 
   18419:	66 c7 85 60 f1 ff ff 	movw   $0x557f,-0xea0(%rbp)
   18420:	7f 55 
   18422:	48 8d 05 97 04 01 00 	lea    0x10497(%rip),%rax        # 288c0 <g_513>
   18429:	48 89 85 70 f3 ff ff 	mov    %rax,-0xc90(%rbp)
   18430:	c7 85 30 f2 ff ff 06 	movl   $0x6,-0xdd0(%rbp)
   18437:	00 00 00 
   1843a:	c7 85 34 f2 ff ff 01 	movl   $0x1,-0xdcc(%rbp)
   18441:	00 00 00 
   18444:	48 8d 85 20 fa ff ff 	lea    -0x5e0(%rbp),%rax
   1844b:	48 8d 15 ae 85 00 00 	lea    0x85ae(%rip),%rdx        # 20a00 <g_3910+0x1994>
   18452:	b9 5a 00 00 00       	mov    $0x5a,%ecx
   18457:	48 89 c7             	mov    %rax,%rdi
   1845a:	48 89 d6             	mov    %rdx,%rsi
   1845d:	f3 48 a5             	rep movsq %ds:(%rsi),%es:(%rdi)
   18460:	48 b8 1f e7 07 9f 62 	movabs $0xf03ff1629f07e71f,%rax
   18467:	f1 3f f0 
   1846a:	48 89 85 78 f3 ff ff 	mov    %rax,-0xc88(%rbp)
   18471:	c7 85 90 f1 ff ff a6 	movl   $0x25767a6,-0xe70(%rbp)
   18478:	67 57 02 
   1847b:	c7 85 64 f1 ff ff 13 	movl   $0x13,-0xe9c(%rbp)
   18482:	00 00 00 
   18485:	e9 42 05 00 00       	jmpq   189cc <func_49+0x17c1>
   1848a:	c6 85 45 f1 ff ff 5f 	movb   $0x5f,-0xebb(%rbp)
   18491:	48 8d 05 78 cc 00 00 	lea    0xcc78(%rip),%rax        # 25110 <g_845>
   18498:	48 89 85 88 f2 ff ff 	mov    %rax,-0xd78(%rbp)
   1849f:	48 8d 85 88 f2 ff ff 	lea    -0xd78(%rbp),%rax
   184a6:	48 89 85 80 f3 ff ff 	mov    %rax,-0xc80(%rbp)
   184ad:	48 c7 85 90 f2 ff ff 	movq   $0x0,-0xd70(%rbp)
   184b4:	00 00 00 00 
   184b8:	48 8d 85 f0 f5 ff ff 	lea    -0xa10(%rbp),%rax
   184bf:	48 83 c0 08          	add    $0x8,%rax
   184c3:	48 89 85 98 f2 ff ff 	mov    %rax,-0xd68(%rbp)
   184ca:	48 8d 85 98 f2 ff ff 	lea    -0xd68(%rbp),%rax
   184d1:	48 89 85 88 f3 ff ff 	mov    %rax,-0xc78(%rbp)
   184d8:	c6 85 46 f1 ff ff 2e 	movb   $0x2e,-0xeba(%rbp)
   184df:	c7 85 8c f1 ff ff 00 	movl   $0x0,-0xe74(%rbp)
   184e6:	00 00 00 
   184e9:	eb 1e                	jmp    18509 <func_49+0x12fe>
   184eb:	8b 85 8c f1 ff ff    	mov    -0xe74(%rbp),%eax
   184f1:	48 98                	cltq   
   184f3:	48 8d 95 90 f2 ff ff 	lea    -0xd70(%rbp),%rdx
   184fa:	48 89 94 c5 f0 f5 ff 	mov    %rdx,-0xa10(%rbp,%rax,8)
   18501:	ff 
   18502:	83 85 8c f1 ff ff 01 	addl   $0x1,-0xe74(%rbp)
   18509:	83 bd 8c f1 ff ff 01 	cmpl   $0x1,-0xe74(%rbp)
   18510:	7e d9                	jle    184eb <func_49+0x12e0>
   18512:	c7 85 8c f1 ff ff 00 	movl   $0x0,-0xe74(%rbp)
   18519:	00 00 00 
   1851c:	eb 46                	jmp    18564 <func_49+0x1359>
   1851e:	c7 85 88 f1 ff ff 00 	movl   $0x0,-0xe78(%rbp)
   18525:	00 00 00 
   18528:	eb 2a                	jmp    18554 <func_49+0x1349>
   1852a:	8b 85 88 f1 ff ff    	mov    -0xe78(%rbp),%eax
   18530:	48 98                	cltq   
   18532:	8b 95 8c f1 ff ff    	mov    -0xe74(%rbp),%edx
   18538:	48 63 d2             	movslq %edx,%rdx
   1853b:	48 c1 e2 02          	shl    $0x2,%rdx
   1853f:	48 01 d0             	add    %rdx,%rax
   18542:	c7 84 85 90 f6 ff ff 	movl   $0x8f93e0a1,-0x970(%rbp,%rax,4)
   18549:	a1 e0 93 8f 
   1854d:	83 85 88 f1 ff ff 01 	addl   $0x1,-0xe78(%rbp)
   18554:	83 bd 88 f1 ff ff 03 	cmpl   $0x3,-0xe78(%rbp)
   1855b:	7e cd                	jle    1852a <func_49+0x131f>
   1855d:	83 85 8c f1 ff ff 01 	addl   $0x1,-0xe74(%rbp)
   18564:	83 bd 8c f1 ff ff 01 	cmpl   $0x1,-0xe74(%rbp)
   1856b:	7e b1                	jle    1851e <func_49+0x1313>
   1856d:	0f b7 9d 5a f1 ff ff 	movzwl -0xea6(%rbp),%ebx
   18574:	44 0f b7 a5 4a f1 ff 	movzwl -0xeb6(%rbp),%r12d
   1857b:	ff 
   1857c:	48 8b 85 80 f3 ff ff 	mov    -0xc80(%rbp),%rax
   18583:	48 8d 15 8a cb 00 00 	lea    0xcb8a(%rip),%rdx        # 25114 <g_849>
   1858a:	48 89 10             	mov    %rdx,(%rax)
   1858d:	48 8b 85 80 f3 ff ff 	mov    -0xc80(%rbp),%rax
   18594:	48 8b 00             	mov    (%rax),%rax
   18597:	48 39 85 68 f3 ff ff 	cmp    %rax,-0xc98(%rbp)
   1859e:	0f 95 c0             	setne  %al
   185a1:	0f b6 c0             	movzbl %al,%eax
   185a4:	39 85 2c f2 ff ff    	cmp    %eax,-0xdd4(%rbp)
   185aa:	0f 9e c0             	setle  %al
   185ad:	0f b6 c0             	movzbl %al,%eax
   185b0:	0b 85 dc f1 ff ff    	or     -0xe24(%rbp),%eax
   185b6:	89 c0                	mov    %eax,%eax
   185b8:	48 be 7a 65 7d 7b 74 	movabs $0x31340f747b7d657a,%rsi
   185bf:	0f 34 31 
   185c2:	48 89 c7             	mov    %rax,%rdi
   185c5:	e8 2d 34 ff ff       	callq  b9f7 <safe_div_func_int64_t_s_s>
   185ca:	0f b7 95 5a f1 ff ff 	movzwl -0xea6(%rbp),%edx
   185d1:	48 31 c2             	xor    %rax,%rdx
   185d4:	48 8b 05 25 cb 00 00 	mov    0xcb25(%rip),%rax        # 25100 <g_709>
   185db:	48 89 d6             	mov    %rdx,%rsi
   185de:	48 89 c7             	mov    %rax,%rdi
   185e1:	e8 11 34 ff ff       	callq  b9f7 <safe_div_func_int64_t_s_s>
   185e6:	44 89 e6             	mov    %r12d,%esi
   185e9:	89 c7                	mov    %eax,%edi
   185eb:	e8 dc 30 ff ff       	callq  b6cc <safe_mod_func_int32_t_s_s>
   185f0:	89 de                	mov    %ebx,%esi
   185f2:	89 c7                	mov    %eax,%edi
   185f4:	e8 04 39 ff ff       	callq  befd <safe_mod_func_uint32_t_u_u>
   185f9:	89 c2                	mov    %eax,%edx
   185fb:	48 0f be 85 45 f1 ff 	movsbq -0xebb(%rbp),%rax
   18602:	ff 
   18603:	48 89 d6             	mov    %rdx,%rsi
   18606:	48 89 c7             	mov    %rax,%rdi
   18609:	e8 72 3a ff ff       	callq  c080 <safe_mod_func_uint64_t_u_u>
   1860e:	8b 85 2c f2 ff ff    	mov    -0xdd4(%rbp),%eax
   18614:	0f b7 d8             	movzwl %ax,%ebx
   18617:	48 8b 85 58 f2 ff ff 	mov    -0xda8(%rbp),%rax
   1861e:	48 8b 00             	mov    (%rax),%rax
   18621:	48 85 c0             	test   %rax,%rax
   18624:	0f 95 c0             	setne  %al
   18627:	0f b6 d0             	movzbl %al,%edx
   1862a:	48 8b 85 b0 f2 ff ff 	mov    -0xd50(%rbp),%rax
   18631:	8b 00                	mov    (%rax),%eax
   18633:	0f be c0             	movsbl %al,%eax
   18636:	89 d6                	mov    %edx,%esi
   18638:	89 c7                	mov    %eax,%edi
   1863a:	e8 62 2c ff ff       	callq  b2a1 <safe_lshift_func_int8_t_s_s>
   1863f:	0f be c0             	movsbl %al,%eax
   18642:	be 00 00 00 00       	mov    $0x0,%esi
   18647:	89 c7                	mov    %eax,%edi
   18649:	e8 53 2c ff ff       	callq  b2a1 <safe_lshift_func_int8_t_s_s>
   1864e:	66 98                	cbtw   
   18650:	0f b7 c0             	movzwl %ax,%eax
   18653:	89 de                	mov    %ebx,%esi
   18655:	89 c7                	mov    %eax,%edi
   18657:	e8 e1 36 ff ff       	callq  bd3d <safe_mul_func_uint16_t_u_u>
   1865c:	0f b7 c0             	movzwl %ax,%eax
   1865f:	48 8b 15 5a ff 00 00 	mov    0xff5a(%rip),%rdx        # 285c0 <g_91>
   18666:	8b 12                	mov    (%rdx),%edx
   18668:	89 c6                	mov    %eax,%esi
   1866a:	bf 01 00 00 00       	mov    $0x1,%edi
   1866f:	e8 1e 2e ff ff       	callq  b492 <safe_lshift_func_int16_t_s_s>
   18674:	66 85 c0             	test   %ax,%ax
   18677:	0f 84 b0 00 00 00    	je     1872d <func_49+0x1522>
   1867d:	c7 05 89 ca 00 00 00 	movl   $0x0,0xca89(%rip)        # 25110 <g_845>
   18684:	00 00 00 
   18687:	e9 83 00 00 00       	jmpq   1870f <func_49+0x1504>
   1868c:	8b 05 7e ca 00 00    	mov    0xca7e(%rip),%eax        # 25110 <g_845>
   18692:	89 c0                	mov    %eax,%eax
   18694:	48 8d 14 85 00 00 00 	lea    0x0(,%rax,4),%rdx
   1869b:	00 
   1869c:	48 8d 05 9d c9 00 00 	lea    0xc99d(%rip),%rax        # 25040 <g_52>
   186a3:	8b 04 02             	mov    (%rdx,%rax,1),%eax
   186a6:	8b 15 64 ca 00 00    	mov    0xca64(%rip),%edx        # 25110 <g_845>
   186ac:	25 1f 4a e1 5e       	and    $0x5ee14a1f,%eax
   186b1:	89 c1                	mov    %eax,%ecx
   186b3:	89 d0                	mov    %edx,%eax
   186b5:	48 8d 14 85 00 00 00 	lea    0x0(,%rax,4),%rdx
   186bc:	00 
   186bd:	48 8d 05 7c c9 00 00 	lea    0xc97c(%rip),%rax        # 25040 <g_52>
   186c4:	89 0c 02             	mov    %ecx,(%rdx,%rax,1)
   186c7:	8b 05 43 ca 00 00    	mov    0xca43(%rip),%eax        # 25110 <g_845>
   186cd:	89 c0                	mov    %eax,%eax
   186cf:	48 8d 14 85 00 00 00 	lea    0x0(,%rax,4),%rdx
   186d6:	00 
   186d7:	48 8d 05 62 c9 00 00 	lea    0xc962(%rip),%rax        # 25040 <g_52>
   186de:	8b 04 02             	mov    (%rdx,%rax,1),%eax
   186e1:	89 c2                	mov    %eax,%edx
   186e3:	0f b6 05 7e d2 00 00 	movzbl 0xd27e(%rip),%eax        # 25968 <g_1612>
   186ea:	31 d0                	xor    %edx,%eax
   186ec:	88 05 76 d2 00 00    	mov    %al,0xd276(%rip)        # 25968 <g_1612>
   186f2:	48 8b 85 38 f1 ff ff 	mov    -0xec8(%rbp),%rax
   186f9:	48 89 85 00 fa ff ff 	mov    %rax,-0x600(%rbp)
   18700:	8b 05 0a ca 00 00    	mov    0xca0a(%rip),%eax        # 25110 <g_845>
   18706:	83 c0 01             	add    $0x1,%eax
   18709:	89 05 01 ca 00 00    	mov    %eax,0xca01(%rip)        # 25110 <g_845>
   1870f:	8b 05 fb c9 00 00    	mov    0xc9fb(%rip),%eax        # 25110 <g_845>
   18715:	83 f8 09             	cmp    $0x9,%eax
   18718:	0f 86 6e ff ff ff    	jbe    1868c <func_49+0x1481>
   1871e:	0f b6 05 89 99 00 00 	movzbl 0x9989(%rip),%eax        # 220ae <l_1614.5228+0xe>
   18725:	0f b6 c0             	movzbl %al,%eax
   18728:	e9 69 12 00 00       	jmpq   19996 <func_49+0x278b>
   1872d:	48 8d 05 7c 17 01 00 	lea    0x1177c(%rip),%rax        # 29eb0 <g_1645>
   18734:	48 89 85 90 f3 ff ff 	mov    %rax,-0xc70(%rbp)
   1873b:	c7 85 38 f2 ff ff 02 	movl   $0x2,-0xdc8(%rbp)
   18742:	00 00 00 
   18745:	0f b7 85 60 f1 ff ff 	movzwl -0xea0(%rbp),%eax
   1874c:	0f b7 c0             	movzwl %ax,%eax
   1874f:	be 0b 00 00 00       	mov    $0xb,%esi
   18754:	89 c7                	mov    %eax,%edi
   18756:	e8 ed 36 ff ff       	callq  be48 <safe_rshift_func_uint16_t_u_s>
   1875b:	41 89 c5             	mov    %eax,%r13d
   1875e:	48 8b 05 eb 06 01 00 	mov    0x106eb(%rip),%rax        # 28e50 <g_1125>
   18765:	0f b7 00             	movzwl (%rax),%eax
   18768:	44 0f b7 e0          	movzwl %ax,%r12d
   1876c:	0f b6 1d ee c9 00 00 	movzbl 0xc9ee(%rip),%ebx        # 25161 <g_929+0x41>
   18773:	8d 43 ff             	lea    -0x1(%rbx),%eax
   18776:	88 05 e5 c9 00 00    	mov    %al,0xc9e5(%rip)        # 25161 <g_929+0x41>
   1877c:	48 8b 85 b8 f2 ff ff 	mov    -0xd48(%rbp),%rax
   18783:	8b 00                	mov    (%rax),%eax
   18785:	85 c0                	test   %eax,%eax
   18787:	74 5c                	je     187e5 <func_49+0x15da>
   18789:	48 8b 85 b8 f2 ff ff 	mov    -0xd48(%rbp),%rax
   18790:	8b 00                	mov    (%rax),%eax
   18792:	48 8b 0d 17 17 01 00 	mov    0x11717(%rip),%rcx        # 29eb0 <g_1645>
   18799:	48 8b 95 90 f3 ff ff 	mov    -0xc70(%rbp),%rdx
   187a0:	48 89 0a             	mov    %rcx,(%rdx)
   187a3:	89 c6                	mov    %eax,%esi
   187a5:	bf ef df 00 00       	mov    $0xdfef,%edi
   187aa:	e8 1d 2f ff ff       	callq  b6cc <safe_mod_func_int32_t_s_s>
   187af:	0f be c0             	movsbl %al,%eax
   187b2:	be 07 00 00 00       	mov    $0x7,%esi
   187b7:	89 c7                	mov    %eax,%edi
   187b9:	e8 73 2a ff ff       	callq  b231 <safe_mod_func_int8_t_s_s>
   187be:	0f be c0             	movsbl %al,%eax
   187c1:	39 85 38 f2 ff ff    	cmp    %eax,-0xdc8(%rbp)
   187c7:	0f 9d c0             	setge  %al
   187ca:	0f b6 c0             	movzbl %al,%eax
   187cd:	be b4 0a 00 00       	mov    $0xab4,%esi
   187d2:	89 c7                	mov    %eax,%edi
   187d4:	e8 1c 2c ff ff       	callq  b3f5 <safe_mul_func_int16_t_s_s>
   187d9:	66 85 c0             	test   %ax,%ax
   187dc:	74 07                	je     187e5 <func_49+0x15da>
   187de:	b8 01 00 00 00       	mov    $0x1,%eax
   187e3:	eb 05                	jmp    187ea <func_49+0x15df>
   187e5:	b8 00 00 00 00       	mov    $0x0,%eax
   187ea:	0f b6 c0             	movzbl %al,%eax
   187ed:	be 03 00 00 00       	mov    $0x3,%esi
   187f2:	89 c7                	mov    %eax,%edi
   187f4:	e8 0c 34 ff ff       	callq  bc05 <safe_lshift_func_uint8_t_u_s>
   187f9:	38 c3                	cmp    %al,%bl
   187fb:	0f 97 c0             	seta   %al
   187fe:	0f b6 d0             	movzbl %al,%edx
   18801:	48 8b 85 b8 f2 ff ff 	mov    -0xd48(%rbp),%rax
   18808:	8b 00                	mov    (%rax),%eax
   1880a:	98                   	cwtl   
   1880b:	89 d6                	mov    %edx,%esi
   1880d:	89 c7                	mov    %eax,%edi
   1880f:	e8 e1 2b ff ff       	callq  b3f5 <safe_mul_func_int16_t_s_s>
   18814:	66 85 c0             	test   %ax,%ax
   18817:	74 10                	je     18829 <func_49+0x161e>
   18819:	83 bd 38 f2 ff ff 00 	cmpl   $0x0,-0xdc8(%rbp)
   18820:	74 07                	je     18829 <func_49+0x161e>
   18822:	b8 01 00 00 00       	mov    $0x1,%eax
   18827:	eb 05                	jmp    1882e <func_49+0x1623>
   18829:	b8 00 00 00 00       	mov    $0x0,%eax
   1882e:	0f b6 c0             	movzbl %al,%eax
   18831:	be 04 00 00 00       	mov    $0x4,%esi
   18836:	89 c7                	mov    %eax,%edi
   18838:	e8 50 34 ff ff       	callq  bc8d <safe_rshift_func_uint8_t_u_s>
   1883d:	48 8b 85 70 f3 ff ff 	mov    -0xc90(%rbp),%rax
   18844:	48 3b 85 d0 f2 ff ff 	cmp    -0xd30(%rbp),%rax
   1884b:	0f 95 c0             	setne  %al
   1884e:	0f b6 c0             	movzbl %al,%eax
   18851:	44 89 e6             	mov    %r12d,%esi
   18854:	89 c7                	mov    %eax,%edi
   18856:	e8 e2 34 ff ff       	callq  bd3d <safe_mul_func_uint16_t_u_u>
   1885b:	66 41 39 c5          	cmp    %ax,%r13w
   1885f:	0f 94 c0             	sete   %al
   18862:	0f b6 c0             	movzbl %al,%eax
   18865:	66 89 05 fe d0 00 00 	mov    %ax,0xd0fe(%rip)        # 2596a <g_1653>
   1886c:	8b 85 38 f2 ff ff    	mov    -0xdc8(%rbp),%eax
   18872:	98                   	cwtl   
   18873:	8b 95 38 f2 ff ff    	mov    -0xdc8(%rbp),%edx
   18879:	89 d6                	mov    %edx,%esi
   1887b:	89 c7                	mov    %eax,%edi
   1887d:	e8 a8 2c ff ff       	callq  b52a <safe_rshift_func_int16_t_s_s>
   18882:	98                   	cwtl   
   18883:	39 85 38 f2 ff ff    	cmp    %eax,-0xdc8(%rbp)
   18889:	0f 95 c0             	setne  %al
   1888c:	0f b6 c0             	movzbl %al,%eax
   1888f:	89 c7                	mov    %eax,%edi
   18891:	e8 af 32 ff ff       	callq  bb45 <safe_unary_minus_func_uint8_t_u>
   18896:	0f b6 d0             	movzbl %al,%edx
   18899:	48 8b 05 18 00 01 00 	mov    0x10018(%rip),%rax        # 288b8 <g_425>
   188a0:	48 8b 00             	mov    (%rax),%rax
   188a3:	48 85 c0             	test   %rax,%rax
   188a6:	0f 95 c1             	setne  %cl
   188a9:	48 8b 05 b0 05 01 00 	mov    0x105b0(%rip),%rax        # 28e60 <g_1176>
   188b0:	48 8b 00             	mov    (%rax),%rax
   188b3:	0f b6 c9             	movzbl %cl,%ecx
   188b6:	66 89 08             	mov    %cx,(%rax)
   188b9:	0f b7 00             	movzwl (%rax),%eax
   188bc:	66 89 05 eb c7 00 00 	mov    %ax,0xc7eb(%rip)        # 250ae <g_210+0xe>
   188c3:	0f b7 05 e4 c7 00 00 	movzwl 0xc7e4(%rip),%eax        # 250ae <g_210+0xe>
   188ca:	0f b7 c0             	movzwl %ax,%eax
   188cd:	89 d6                	mov    %edx,%esi
   188cf:	89 c7                	mov    %eax,%edi
   188d1:	e8 b8 34 ff ff       	callq  bd8e <safe_div_func_uint16_t_u_u>
   188d6:	0f b7 c0             	movzwl %ax,%eax
   188d9:	be 57 f7 00 00       	mov    $0xf757,%esi
   188de:	89 c7                	mov    %eax,%edi
   188e0:	e8 1a 34 ff ff       	callq  bcff <safe_add_func_uint16_t_u_u>
   188e5:	0f b7 c0             	movzwl %ax,%eax
   188e8:	89 85 38 f2 ff ff    	mov    %eax,-0xdc8(%rbp)
   188ee:	8b 95 38 f2 ff ff    	mov    -0xdc8(%rbp),%edx
   188f4:	48 8b 85 c8 f2 ff ff 	mov    -0xd38(%rbp),%rax
   188fb:	8b 00                	mov    (%rax),%eax
   188fd:	31 c2                	xor    %eax,%edx
   188ff:	48 8b 85 c8 f2 ff ff 	mov    -0xd38(%rbp),%rax
   18906:	89 10                	mov    %edx,(%rax)
   18908:	c7 05 06 25 01 00 01 	movl   $0x1,0x12506(%rip)        # 2ae18 <g_626>
   1890f:	00 00 00 
   18912:	eb 6a                	jmp    1897e <func_49+0x1773>
   18914:	48 b8 ff cb 0c 88 15 	movabs $0x6edfd215880ccbff,%rax
   1891b:	d2 df 6e 
   1891e:	48 85 c0             	test   %rax,%rax
   18921:	74 05                	je     18928 <func_49+0x171d>
   18923:	e9 b2 ee ff ff       	jmpq   177da <func_49+0x5cf>
   18928:	48 8d 05 61 00 01 00 	lea    0x10061(%rip),%rax        # 28990 <g_976>
   1892f:	48 89 05 62 00 01 00 	mov    %rax,0x10062(%rip)        # 28998 <g_975>
   18936:	8b 05 dc 24 01 00    	mov    0x124dc(%rip),%eax        # 2ae18 <g_626>
   1893c:	8b 15 d6 24 01 00    	mov    0x124d6(%rip),%edx        # 2ae18 <g_626>
   18942:	83 c2 03             	add    $0x3,%edx
   18945:	48 63 ca             	movslq %edx,%rcx
   18948:	48 63 d0             	movslq %eax,%rdx
   1894b:	48 89 d0             	mov    %rdx,%rax
   1894e:	48 c1 e0 02          	shl    $0x2,%rax
   18952:	48 01 d0             	add    %rdx,%rax
   18955:	48 01 c0             	add    %rax,%rax
   18958:	48 01 c8             	add    %rcx,%rax
   1895b:	48 8d 14 00          	lea    (%rax,%rax,1),%rdx
   1895f:	48 8d 05 5a c7 00 00 	lea    0xc75a(%rip),%rax        # 250c0 <g_256>
   18966:	0f b7 04 02          	movzwl (%rdx,%rax,1),%eax
   1896a:	66 85 c0             	test   %ax,%ax
   1896d:	75 1b                	jne    1898a <func_49+0x177f>
   1896f:	8b 05 a3 24 01 00    	mov    0x124a3(%rip),%eax        # 2ae18 <g_626>
   18975:	83 e8 01             	sub    $0x1,%eax
   18978:	89 05 9a 24 01 00    	mov    %eax,0x1249a(%rip)        # 2ae18 <g_626>
   1897e:	8b 05 94 24 01 00    	mov    0x12494(%rip),%eax        # 2ae18 <g_626>
   18984:	85 c0                	test   %eax,%eax
   18986:	79 8c                	jns    18914 <func_49+0x1709>
   18988:	eb 01                	jmp    1898b <func_49+0x1780>
   1898a:	90                   	nop
   1898b:	c6 05 d6 c7 00 00 f3 	movb   $0xf3,0xc7d6(%rip)        # 25168 <g_1156>
   18992:	90                   	nop
   18993:	0f b6 05 ce c7 00 00 	movzbl 0xc7ce(%rip),%eax        # 25168 <g_1156>
   1899a:	3c f7                	cmp    $0xf7,%al
   1899c:	7d 0c                	jge    189aa <func_49+0x179f>
   1899e:	0f be 85 45 f1 ff ff 	movsbl -0xebb(%rbp),%eax
   189a5:	e9 ec 0f 00 00       	jmpq   19996 <func_49+0x278b>
   189aa:	83 85 90 f1 ff ff 01 	addl   $0x1,-0xe70(%rbp)
   189b1:	8b 85 64 f1 ff ff    	mov    -0xe9c(%rbp),%eax
   189b7:	89 c0                	mov    %eax,%eax
   189b9:	be 01 00 00 00       	mov    $0x1,%esi
   189be:	48 89 c7             	mov    %rax,%rdi
   189c1:	e8 85 36 ff ff       	callq  c04b <safe_sub_func_uint64_t_u_u>
   189c6:	89 85 64 f1 ff ff    	mov    %eax,-0xe9c(%rbp)
   189cc:	8b 85 64 f1 ff ff    	mov    -0xe9c(%rbp),%eax
   189d2:	83 f8 03             	cmp    $0x3,%eax
   189d5:	0f 85 af fa ff ff    	jne    1848a <func_49+0x127f>
   189db:	e9 f5 0e 00 00       	jmpq   198d5 <func_49+0x26ca>
   189e0:	c7 85 e8 f1 ff ff 44 	movl   $0x22fa5e44,-0xe18(%rbp)
   189e7:	5e fa 22 
   189ea:	48 c7 85 38 f3 ff ff 	movq   $0x0,-0xcc8(%rbp)
   189f1:	00 00 00 00 
   189f5:	48 8d 05 4c cf 00 00 	lea    0xcf4c(%rip),%rax        # 25948 <g_1346+0x7c8>
   189fc:	48 89 85 70 f5 ff ff 	mov    %rax,-0xa90(%rbp)
   18a03:	48 8d 05 3e cf 00 00 	lea    0xcf3e(%rip),%rax        # 25948 <g_1346+0x7c8>
   18a0a:	48 89 85 78 f5 ff ff 	mov    %rax,-0xa88(%rbp)
   18a11:	48 8d 05 30 cf 00 00 	lea    0xcf30(%rip),%rax        # 25948 <g_1346+0x7c8>
   18a18:	48 89 85 80 f5 ff ff 	mov    %rax,-0xa80(%rbp)
   18a1f:	48 8d 05 52 c8 00 00 	lea    0xc852(%rip),%rax        # 25278 <g_1346+0xf8>
   18a26:	48 89 85 88 f5 ff ff 	mov    %rax,-0xa78(%rbp)
   18a2d:	48 8d 05 44 c8 00 00 	lea    0xc844(%rip),%rax        # 25278 <g_1346+0xf8>
   18a34:	48 89 85 90 f5 ff ff 	mov    %rax,-0xa70(%rbp)
   18a3b:	48 8d 05 36 c8 00 00 	lea    0xc836(%rip),%rax        # 25278 <g_1346+0xf8>
   18a42:	48 89 85 98 f5 ff ff 	mov    %rax,-0xa68(%rbp)
   18a49:	48 8d 05 f8 ce 00 00 	lea    0xcef8(%rip),%rax        # 25948 <g_1346+0x7c8>
   18a50:	48 89 85 a0 f5 ff ff 	mov    %rax,-0xa60(%rbp)
   18a57:	48 8d 05 ea ce 00 00 	lea    0xceea(%rip),%rax        # 25948 <g_1346+0x7c8>
   18a5e:	48 89 85 a8 f5 ff ff 	mov    %rax,-0xa58(%rbp)
   18a65:	48 8d 05 dc ce 00 00 	lea    0xcedc(%rip),%rax        # 25948 <g_1346+0x7c8>
   18a6c:	48 89 85 b0 f5 ff ff 	mov    %rax,-0xa50(%rbp)
   18a73:	48 8d 05 fe c7 00 00 	lea    0xc7fe(%rip),%rax        # 25278 <g_1346+0xf8>
   18a7a:	48 89 85 b8 f5 ff ff 	mov    %rax,-0xa48(%rbp)
   18a81:	48 8d 05 f0 c7 00 00 	lea    0xc7f0(%rip),%rax        # 25278 <g_1346+0xf8>
   18a88:	48 89 85 c0 f5 ff ff 	mov    %rax,-0xa40(%rbp)
   18a8f:	48 8d 05 e2 c7 00 00 	lea    0xc7e2(%rip),%rax        # 25278 <g_1346+0xf8>
   18a96:	48 89 85 c8 f5 ff ff 	mov    %rax,-0xa38(%rbp)
   18a9d:	48 8d 05 a4 ce 00 00 	lea    0xcea4(%rip),%rax        # 25948 <g_1346+0x7c8>
   18aa4:	48 89 85 d0 f5 ff ff 	mov    %rax,-0xa30(%rbp)
   18aab:	48 8d 05 96 ce 00 00 	lea    0xce96(%rip),%rax        # 25948 <g_1346+0x7c8>
   18ab2:	48 89 85 d8 f5 ff ff 	mov    %rax,-0xa28(%rbp)
   18ab9:	48 8d 05 88 ce 00 00 	lea    0xce88(%rip),%rax        # 25948 <g_1346+0x7c8>
   18ac0:	48 89 85 e0 f5 ff ff 	mov    %rax,-0xa20(%rbp)
   18ac7:	c7 85 84 f1 ff ff 08 	movl   $0x8,-0xe7c(%rbp)
   18ace:	00 00 00 
   18ad1:	c7 85 80 f1 ff ff 13 	movl   $0x12df5013,-0xe80(%rbp)
   18ad8:	50 df 12 
   18adb:	c7 85 20 f5 ff ff 00 	movl   $0x0,-0xae0(%rbp)
   18ae2:	00 00 00 
   18ae5:	c7 85 24 f5 ff ff 00 	movl   $0x0,-0xadc(%rbp)
   18aec:	00 00 00 
   18aef:	c7 85 28 f5 ff ff 01 	movl   $0x1,-0xad8(%rbp)
   18af6:	00 00 00 
   18af9:	c7 85 2c f5 ff ff 00 	movl   $0x0,-0xad4(%rbp)
   18b00:	00 00 00 
   18b03:	c7 85 30 f5 ff ff 00 	movl   $0x0,-0xad0(%rbp)
   18b0a:	00 00 00 
   18b0d:	c7 85 34 f5 ff ff 00 	movl   $0x0,-0xacc(%rbp)
   18b14:	00 00 00 
   18b17:	c7 85 38 f5 ff ff 01 	movl   $0x1,-0xac8(%rbp)
   18b1e:	00 00 00 
   18b21:	c7 85 3c f5 ff ff 00 	movl   $0x0,-0xac4(%rbp)
   18b28:	00 00 00 
   18b2b:	c7 85 40 f5 ff ff 00 	movl   $0x0,-0xac0(%rbp)
   18b32:	00 00 00 
   18b35:	c7 85 44 f5 ff ff 00 	movl   $0x0,-0xabc(%rbp)
   18b3c:	00 00 00 
   18b3f:	c7 85 48 f5 ff ff 01 	movl   $0x1,-0xab8(%rbp)
   18b46:	00 00 00 
   18b49:	c7 85 4c f5 ff ff 00 	movl   $0x0,-0xab4(%rbp)
   18b50:	00 00 00 
   18b53:	c7 85 50 f5 ff ff 00 	movl   $0x0,-0xab0(%rbp)
   18b5a:	00 00 00 
   18b5d:	c7 85 54 f5 ff ff 00 	movl   $0x0,-0xaac(%rbp)
   18b64:	00 00 00 
   18b67:	c7 85 58 f5 ff ff 01 	movl   $0x1,-0xaa8(%rbp)
   18b6e:	00 00 00 
   18b71:	c7 85 5c f5 ff ff 00 	movl   $0x0,-0xaa4(%rbp)
   18b78:	00 00 00 
   18b7b:	c7 85 60 f5 ff ff 00 	movl   $0x0,-0xaa0(%rbp)
   18b82:	00 00 00 
   18b85:	c7 85 64 f5 ff ff 00 	movl   $0x0,-0xa9c(%rbp)
   18b8c:	00 00 00 
   18b8f:	c7 85 68 f5 ff ff 01 	movl   $0x1,-0xa98(%rbp)
   18b96:	00 00 00 
   18b99:	c7 85 6c f5 ff ff 00 	movl   $0x0,-0xa94(%rbp)
   18ba0:	00 00 00 
   18ba3:	c7 85 ec f1 ff ff 35 	movl   $0x3940cb35,-0xe14(%rbp)
   18baa:	cb 40 39 
   18bad:	48 8d 05 9c 02 01 00 	lea    0x1029c(%rip),%rax        # 28e50 <g_1125>
   18bb4:	48 89 85 f0 f5 ff ff 	mov    %rax,-0xa10(%rbp)
   18bbb:	48 c7 85 f8 f5 ff ff 	movq   $0x0,-0xa08(%rbp)
   18bc2:	00 00 00 00 
   18bc6:	48 c7 85 00 f6 ff ff 	movq   $0x0,-0xa00(%rbp)
   18bcd:	00 00 00 00 
   18bd1:	48 8d 05 78 02 01 00 	lea    0x10278(%rip),%rax        # 28e50 <g_1125>
   18bd8:	48 89 85 08 f6 ff ff 	mov    %rax,-0x9f8(%rbp)
   18bdf:	48 c7 85 10 f6 ff ff 	movq   $0x0,-0x9f0(%rbp)
   18be6:	00 00 00 00 
   18bea:	48 c7 85 18 f6 ff ff 	movq   $0x0,-0x9e8(%rbp)
   18bf1:	00 00 00 00 
   18bf5:	48 8d 05 54 02 01 00 	lea    0x10254(%rip),%rax        # 28e50 <g_1125>
   18bfc:	48 89 85 20 f6 ff ff 	mov    %rax,-0x9e0(%rbp)
   18c03:	48 c7 85 28 f6 ff ff 	movq   $0x0,-0x9d8(%rbp)
   18c0a:	00 00 00 00 
   18c0e:	48 c7 85 30 f6 ff ff 	movq   $0x0,-0x9d0(%rbp)
   18c15:	00 00 00 00 
   18c19:	48 8d 05 30 02 01 00 	lea    0x10230(%rip),%rax        # 28e50 <g_1125>
   18c20:	48 89 85 38 f6 ff ff 	mov    %rax,-0x9c8(%rbp)
   18c27:	48 c7 85 40 f6 ff ff 	movq   $0x0,-0x9c0(%rbp)
   18c2e:	00 00 00 00 
   18c32:	48 c7 85 48 f6 ff ff 	movq   $0x0,-0x9b8(%rbp)
   18c39:	00 00 00 00 
   18c3d:	48 8d 05 0c 02 01 00 	lea    0x1020c(%rip),%rax        # 28e50 <g_1125>
   18c44:	48 89 85 50 f6 ff ff 	mov    %rax,-0x9b0(%rbp)
   18c4b:	48 c7 85 58 f6 ff ff 	movq   $0x0,-0x9a8(%rbp)
   18c52:	00 00 00 00 
   18c56:	48 c7 85 60 f6 ff ff 	movq   $0x0,-0x9a0(%rbp)
   18c5d:	00 00 00 00 
   18c61:	48 8d 05 e8 01 01 00 	lea    0x101e8(%rip),%rax        # 28e50 <g_1125>
   18c68:	48 89 85 68 f6 ff ff 	mov    %rax,-0x998(%rbp)
   18c6f:	48 c7 85 70 f6 ff ff 	movq   $0x0,-0x990(%rbp)
   18c76:	00 00 00 00 
   18c7a:	48 c7 85 78 f6 ff ff 	movq   $0x0,-0x988(%rbp)
   18c81:	00 00 00 00 
   18c85:	48 8d 05 c4 01 01 00 	lea    0x101c4(%rip),%rax        # 28e50 <g_1125>
   18c8c:	48 89 85 80 f6 ff ff 	mov    %rax,-0x980(%rbp)
   18c93:	48 c7 85 88 f6 ff ff 	movq   $0x0,-0x978(%rbp)
   18c9a:	00 00 00 00 
   18c9e:	48 8d 85 f0 f5 ff ff 	lea    -0xa10(%rbp),%rax
   18ca5:	48 83 c0 68          	add    $0x68,%rax
   18ca9:	48 89 85 90 f2 ff ff 	mov    %rax,-0xd70(%rbp)
   18cb0:	48 8d 85 90 f2 ff ff 	lea    -0xd70(%rbp),%rax
   18cb7:	48 89 85 98 f2 ff ff 	mov    %rax,-0xd68(%rbp)
   18cbe:	48 8d 85 98 f2 ff ff 	lea    -0xd68(%rbp),%rax
   18cc5:	48 89 85 40 f3 ff ff 	mov    %rax,-0xcc0(%rbp)
   18ccc:	48 8d 05 15 21 01 00 	lea    0x12115(%rip),%rax        # 2ade8 <g_96>
   18cd3:	48 89 85 48 f3 ff ff 	mov    %rax,-0xcb8(%rbp)
   18cda:	c7 85 f0 f1 ff ff 05 	movl   $0x5,-0xe10(%rbp)
   18ce1:	00 00 00 
   18ce4:	c7 85 7c f1 ff ff 00 	movl   $0x0,-0xe84(%rbp)
   18ceb:	00 00 00 
   18cee:	eb 1a                	jmp    18d0a <func_49+0x1aff>
   18cf0:	8b 85 7c f1 ff ff    	mov    -0xe84(%rbp),%eax
   18cf6:	48 98                	cltq   
   18cf8:	c7 84 85 fc f3 ff ff 	movl   $0x7f7133b8,-0xc04(%rbp,%rax,4)
   18cff:	b8 33 71 7f 
   18d03:	83 85 7c f1 ff ff 01 	addl   $0x1,-0xe84(%rbp)
   18d0a:	83 bd 7c f1 ff ff 01 	cmpl   $0x1,-0xe84(%rbp)
   18d11:	7e dd                	jle    18cf0 <func_49+0x1ae5>
   18d13:	c7 85 7c f1 ff ff 00 	movl   $0x0,-0xe84(%rbp)
   18d1a:	00 00 00 
   18d1d:	eb 6d                	jmp    18d8c <func_49+0x1b81>
   18d1f:	c7 85 a8 f1 ff ff 00 	movl   $0x0,-0xe58(%rbp)
   18d26:	00 00 00 
   18d29:	eb 51                	jmp    18d7c <func_49+0x1b71>
   18d2b:	c7 85 ac f1 ff ff 00 	movl   $0x0,-0xe54(%rbp)
   18d32:	00 00 00 
   18d35:	eb 35                	jmp    18d6c <func_49+0x1b61>
   18d37:	8b 85 ac f1 ff ff    	mov    -0xe54(%rbp),%eax
   18d3d:	48 63 d0             	movslq %eax,%rdx
   18d40:	8b 85 a8 f1 ff ff    	mov    -0xe58(%rbp),%eax
   18d46:	48 98                	cltq   
   18d48:	8b 8d 7c f1 ff ff    	mov    -0xe84(%rbp),%ecx
   18d4e:	48 63 c9             	movslq %ecx,%rcx
   18d51:	48 01 c9             	add    %rcx,%rcx
   18d54:	48 01 ca             	add    %rcx,%rdx
   18d57:	48 01 d0             	add    %rdx,%rax
   18d5a:	c7 84 85 b0 f4 ff ff 	movl   $0x525972b,-0xb50(%rbp,%rax,4)
   18d61:	2b 97 25 05 
   18d65:	83 85 ac f1 ff ff 01 	addl   $0x1,-0xe54(%rbp)
   18d6c:	83 bd ac f1 ff ff 00 	cmpl   $0x0,-0xe54(%rbp)
   18d73:	7e c2                	jle    18d37 <func_49+0x1b2c>
   18d75:	83 85 a8 f1 ff ff 01 	addl   $0x1,-0xe58(%rbp)
   18d7c:	83 bd a8 f1 ff ff 01 	cmpl   $0x1,-0xe58(%rbp)
   18d83:	7e a6                	jle    18d2b <func_49+0x1b20>
   18d85:	83 85 7c f1 ff ff 01 	addl   $0x1,-0xe84(%rbp)
   18d8c:	83 bd 7c f1 ff ff 05 	cmpl   $0x5,-0xe84(%rbp)
   18d93:	7e 8a                	jle    18d1f <func_49+0x1b14>
   18d95:	90                   	nop
   18d96:	83 ad a4 f1 ff ff 01 	subl   $0x1,-0xe5c(%rbp)
   18d9d:	8b 85 80 f1 ff ff    	mov    -0xe80(%rbp),%eax
   18da3:	83 c0 01             	add    $0x1,%eax
   18da6:	89 85 80 f1 ff ff    	mov    %eax,-0xe80(%rbp)
   18dac:	48 8b 05 65 f8 00 00 	mov    0xf865(%rip),%rax        # 28618 <g_128>
   18db3:	0f b6 00             	movzbl (%rax),%eax
   18db6:	0f be d8             	movsbl %al,%ebx
   18db9:	8b 95 00 f4 ff ff    	mov    -0xc00(%rbp),%edx
   18dbf:	48 8b 05 e2 fb 00 00 	mov    0xfbe2(%rip),%rax        # 289a8 <g_1057>
   18dc6:	66 89 10             	mov    %dx,(%rax)
   18dc9:	0f b7 00             	movzwl (%rax),%eax
   18dcc:	98                   	cwtl   
   18dcd:	be 16 8a ff ff       	mov    $0xffff8a16,%esi
   18dd2:	89 c7                	mov    %eax,%edi
   18dd4:	e8 1c 26 ff ff       	callq  b3f5 <safe_mul_func_int16_t_s_s>
   18dd9:	48 8b 15 70 00 01 00 	mov    0x10070(%rip),%rdx        # 28e50 <g_1125>
   18de0:	0f b7 12             	movzwl (%rdx),%edx
   18de3:	31 d0                	xor    %edx,%eax
   18de5:	66 83 f8 b8          	cmp    $0xffb8,%ax
   18de9:	0f 94 c0             	sete   %al
   18dec:	0f b6 c0             	movzbl %al,%eax
   18def:	48 89 c7             	mov    %rax,%rdi
   18df2:	e8 1f 2a ff ff       	callq  b816 <safe_unary_minus_func_int64_t_s>
   18df7:	48 85 c0             	test   %rax,%rax
   18dfa:	74 07                	je     18e03 <func_49+0x1bf8>
   18dfc:	ba 01 00 00 00       	mov    $0x1,%edx
   18e01:	eb 05                	jmp    18e08 <func_49+0x1bfd>
   18e03:	ba 00 00 00 00       	mov    $0x0,%edx
   18e08:	48 8b 85 c8 f2 ff ff 	mov    -0xd38(%rbp),%rax
   18e0f:	89 10                	mov    %edx,(%rax)
   18e11:	48 8b 85 c8 f2 ff ff 	mov    -0xd38(%rbp),%rax
   18e18:	8b 00                	mov    (%rax),%eax
   18e1a:	be fc ff ff ff       	mov    $0xfffffffc,%esi
   18e1f:	89 c7                	mov    %eax,%edi
   18e21:	e8 d9 28 ff ff       	callq  b6ff <safe_div_func_int32_t_s_s>
   18e26:	39 c3                	cmp    %eax,%ebx
   18e28:	0f 95 c0             	setne  %al
   18e2b:	0f b6 d0             	movzbl %al,%edx
   18e2e:	8b 85 84 f1 ff ff    	mov    -0xe7c(%rbp),%eax
   18e34:	0f b6 c0             	movzbl %al,%eax
   18e37:	89 d6                	mov    %edx,%esi
   18e39:	89 c7                	mov    %eax,%edi
   18e3b:	e8 7e 2e ff ff       	callq  bcbe <safe_rshift_func_uint8_t_u_u>
   18e40:	0f b6 c0             	movzbl %al,%eax
   18e43:	89 c7                	mov    %eax,%edi
   18e45:	e8 4c 27 ff ff       	callq  b596 <safe_unary_minus_func_int32_t_s>
   18e4a:	3d c5 a9 ed 11       	cmp    $0x11eda9c5,%eax
   18e4f:	be 04 00 00 00       	mov    $0x4,%esi
   18e54:	bf ac 00 00 00       	mov    $0xac,%edi
   18e59:	e8 35 2d ff ff       	callq  bb93 <safe_mul_func_uint8_t_u_u>
   18e5e:	0f b6 c0             	movzbl %al,%eax
   18e61:	89 85 84 f1 ff ff    	mov    %eax,-0xe7c(%rbp)
   18e67:	8b 85 e8 f1 ff ff    	mov    -0xe18(%rbp),%eax
   18e6d:	be 00 00 00 00       	mov    $0x0,%esi
   18e72:	89 c7                	mov    %eax,%edi
   18e74:	e8 57 30 ff ff       	callq  bed0 <safe_sub_func_uint32_t_u_u>
   18e79:	f7 d0                	not    %eax
   18e7b:	89 c2                	mov    %eax,%edx
   18e7d:	48 8b 05 04 c2 00 00 	mov    0xc204(%rip),%rax        # 25088 <g_151>
   18e84:	48 39 c2             	cmp    %rax,%rdx
   18e87:	0f 94 c0             	sete   %al
   18e8a:	0f b6 d0             	movzbl %al,%edx
   18e8d:	8b 85 60 f5 ff ff    	mov    -0xaa0(%rbp),%eax
   18e93:	09 d0                	or     %edx,%eax
   18e95:	89 85 60 f5 ff ff    	mov    %eax,-0xaa0(%rbp)
   18e9b:	8b 85 60 f5 ff ff    	mov    -0xaa0(%rbp),%eax
   18ea1:	0f be c0             	movsbl %al,%eax
   18ea4:	be fc ff ff ff       	mov    $0xfffffffc,%esi
   18ea9:	89 c7                	mov    %eax,%edi
   18eab:	e8 81 23 ff ff       	callq  b231 <safe_mod_func_int8_t_s_s>
   18eb0:	89 c2                	mov    %eax,%edx
   18eb2:	48 8b 05 ff f9 00 00 	mov    0xf9ff(%rip),%rax        # 288b8 <g_425>
   18eb9:	48 8b 00             	mov    (%rax),%rax
   18ebc:	8b 00                	mov    (%rax),%eax
   18ebe:	31 d0                	xor    %edx,%eax
   18ec0:	83 c8 fd             	or     $0xfffffffd,%eax
   18ec3:	0f b6 c0             	movzbl %al,%eax
   18ec6:	be 02 00 00 00       	mov    $0x2,%esi
   18ecb:	89 c7                	mov    %eax,%edi
   18ecd:	e8 33 2d ff ff       	callq  bc05 <safe_lshift_func_uint8_t_u_s>
   18ed2:	0f b6 c0             	movzbl %al,%eax
   18ed5:	48 89 05 24 c2 00 00 	mov    %rax,0xc224(%rip)        # 25100 <g_709>
   18edc:	8b 85 54 f5 ff ff    	mov    -0xaac(%rbp),%eax
   18ee2:	0f b6 c0             	movzbl %al,%eax
   18ee5:	be a1 00 00 00       	mov    $0xa1,%esi
   18eea:	89 c7                	mov    %eax,%edi
   18eec:	e8 69 2c ff ff       	callq  bb5a <safe_add_func_uint8_t_u_u>
   18ef1:	0f b6 d0             	movzbl %al,%edx
   18ef4:	48 8b 05 d5 f9 00 00 	mov    0xf9d5(%rip),%rax        # 288d0 <g_602>
   18efb:	48 8b 00             	mov    (%rax),%rax
   18efe:	8b 00                	mov    (%rax),%eax
   18f00:	89 d6                	mov    %edx,%esi
   18f02:	89 c7                	mov    %eax,%edi
   18f04:	e8 c3 27 ff ff       	callq  b6cc <safe_mod_func_int32_t_s_s>
   18f09:	8b 85 e8 f1 ff ff    	mov    -0xe18(%rbp),%eax
   18f0f:	0f b6 c0             	movzbl %al,%eax
   18f12:	be 01 00 00 00       	mov    $0x1,%esi
   18f17:	89 c7                	mov    %eax,%edi
   18f19:	e8 a0 2d ff ff       	callq  bcbe <safe_rshift_func_uint8_t_u_u>
   18f1e:	84 c0                	test   %al,%al
   18f20:	0f 84 3d 07 00 00    	je     19663 <func_49+0x2458>
   18f26:	66 c7 85 10 f4 ff ff 	movw   $0x2290,-0xbf0(%rbp)
   18f2d:	90 22 
   18f2f:	66 c7 85 12 f4 ff ff 	movw   $0xffff,-0xbee(%rbp)
   18f36:	ff ff 
   18f38:	66 c7 85 14 f4 ff ff 	movw   $0x2290,-0xbec(%rbp)
   18f3f:	90 22 
   18f41:	66 c7 85 16 f4 ff ff 	movw   $0xffff,-0xbea(%rbp)
   18f48:	ff ff 
   18f4a:	66 c7 85 18 f4 ff ff 	movw   $0x2290,-0xbe8(%rbp)
   18f51:	90 22 
   18f53:	66 c7 85 1a f4 ff ff 	movw   $0xffff,-0xbe6(%rbp)
   18f5a:	ff ff 
   18f5c:	66 c7 85 1c f4 ff ff 	movw   $0x2290,-0xbe4(%rbp)
   18f63:	90 22 
   18f65:	66 c7 85 1e f4 ff ff 	movw   $0xffff,-0xbe2(%rbp)
   18f6c:	ff ff 
   18f6e:	66 c7 85 20 f4 ff ff 	movw   $0x2290,-0xbe0(%rbp)
   18f75:	90 22 
   18f77:	c7 85 90 f6 ff ff 08 	movl   $0x10c65308,-0x970(%rbp)
   18f7e:	53 c6 10 
   18f81:	c7 85 94 f6 ff ff 63 	movl   $0xa948363,-0x96c(%rbp)
   18f88:	83 94 0a 
   18f8b:	c7 85 98 f6 ff ff 42 	movl   $0x9b6c3d42,-0x968(%rbp)
   18f92:	3d 6c 9b 
   18f95:	c7 85 9c f6 ff ff ab 	movl   $0x74a942ab,-0x964(%rbp)
   18f9c:	42 a9 74 
   18f9f:	c7 85 a0 f6 ff ff 03 	movl   $0x3,-0x960(%rbp)
   18fa6:	00 00 00 
   18fa9:	c7 85 a4 f6 ff ff 42 	movl   $0x9b6c3d42,-0x95c(%rbp)
   18fb0:	3d 6c 9b 
   18fb3:	c7 85 a8 f6 ff ff 01 	movl   $0x1,-0x958(%rbp)
   18fba:	00 00 00 
   18fbd:	c7 85 ac f6 ff ff ab 	movl   $0x74a942ab,-0x954(%rbp)
   18fc4:	42 a9 74 
   18fc7:	c7 85 b0 f6 ff ff ab 	movl   $0x74a942ab,-0x950(%rbp)
   18fce:	42 a9 74 
   18fd1:	c7 85 b4 f6 ff ff 63 	movl   $0xa948363,-0x94c(%rbp)
   18fd8:	83 94 0a 
   18fdb:	c7 85 b8 f6 ff ff 63 	movl   $0xa948363,-0x948(%rbp)
   18fe2:	83 94 0a 
   18fe5:	c7 85 bc f6 ff ff ab 	movl   $0x74a942ab,-0x944(%rbp)
   18fec:	42 a9 74 
   18fef:	c7 85 c0 f6 ff ff 01 	movl   $0x1,-0x940(%rbp)
   18ff6:	00 00 00 
   18ff9:	c7 85 c4 f6 ff ff 42 	movl   $0x9b6c3d42,-0x93c(%rbp)
   19000:	3d 6c 9b 
   19003:	c7 85 c8 f6 ff ff 03 	movl   $0x3,-0x938(%rbp)
   1900a:	00 00 00 
   1900d:	c7 85 cc f6 ff ff ab 	movl   $0x74a942ab,-0x934(%rbp)
   19014:	42 a9 74 
   19017:	c7 85 d0 f6 ff ff 08 	movl   $0x10c65308,-0x930(%rbp)
   1901e:	53 c6 10 
   19021:	c7 85 d4 f6 ff ff 63 	movl   $0xa948363,-0x92c(%rbp)
   19028:	83 94 0a 
   1902b:	c7 85 d8 f6 ff ff 42 	movl   $0x9b6c3d42,-0x928(%rbp)
   19032:	3d 6c 9b 
   19035:	c7 85 dc f6 ff ff ab 	movl   $0x74a942ab,-0x924(%rbp)
   1903c:	42 a9 74 
   1903f:	c7 85 e0 f6 ff ff 03 	movl   $0x3,-0x920(%rbp)
   19046:	00 00 00 
   19049:	c7 85 e4 f6 ff ff 42 	movl   $0x9b6c3d42,-0x91c(%rbp)
   19050:	3d 6c 9b 
   19053:	c7 85 e8 f6 ff ff 01 	movl   $0x1,-0x918(%rbp)
   1905a:	00 00 00 
   1905d:	c7 85 ec f6 ff ff ab 	movl   $0x74a942ab,-0x914(%rbp)
   19064:	42 a9 74 
   19067:	c7 85 f0 f6 ff ff ab 	movl   $0x74a942ab,-0x910(%rbp)
   1906e:	42 a9 74 
   19071:	c7 85 f4 f6 ff ff 63 	movl   $0xa948363,-0x90c(%rbp)
   19078:	83 94 0a 
   1907b:	c7 85 f8 f6 ff ff 63 	movl   $0xa948363,-0x908(%rbp)
   19082:	83 94 0a 
   19085:	c7 85 fc f6 ff ff ab 	movl   $0x74a942ab,-0x904(%rbp)
   1908c:	42 a9 74 
   1908f:	c7 85 00 f7 ff ff 01 	movl   $0x1,-0x900(%rbp)
   19096:	00 00 00 
   19099:	c7 85 04 f7 ff ff 42 	movl   $0x9b6c3d42,-0x8fc(%rbp)
   190a0:	3d 6c 9b 
   190a3:	c7 85 08 f7 ff ff 03 	movl   $0x3,-0x8f8(%rbp)
   190aa:	00 00 00 
   190ad:	c7 85 0c f7 ff ff ab 	movl   $0x74a942ab,-0x8f4(%rbp)
   190b4:	42 a9 74 
   190b7:	c7 85 10 f7 ff ff 08 	movl   $0x10c65308,-0x8f0(%rbp)
   190be:	53 c6 10 
   190c1:	c7 85 14 f7 ff ff 63 	movl   $0xa948363,-0x8ec(%rbp)
   190c8:	83 94 0a 
   190cb:	c7 85 18 f7 ff ff 42 	movl   $0x9b6c3d42,-0x8e8(%rbp)
   190d2:	3d 6c 9b 
   190d5:	c7 85 1c f7 ff ff ab 	movl   $0x74a942ab,-0x8e4(%rbp)
   190dc:	42 a9 74 
   190df:	c7 85 20 f7 ff ff 03 	movl   $0x3,-0x8e0(%rbp)
   190e6:	00 00 00 
   190e9:	c7 85 24 f7 ff ff 42 	movl   $0x9b6c3d42,-0x8dc(%rbp)
   190f0:	3d 6c 9b 
   190f3:	c7 85 28 f7 ff ff 01 	movl   $0x1,-0x8d8(%rbp)
   190fa:	00 00 00 
   190fd:	c7 85 2c f7 ff ff ab 	movl   $0x74a942ab,-0x8d4(%rbp)
   19104:	42 a9 74 
   19107:	c7 85 30 f7 ff ff ab 	movl   $0x74a942ab,-0x8d0(%rbp)
   1910e:	42 a9 74 
   19111:	c7 85 34 f7 ff ff 63 	movl   $0xa948363,-0x8cc(%rbp)
   19118:	83 94 0a 
   1911b:	c7 85 38 f7 ff ff 63 	movl   $0xa948363,-0x8c8(%rbp)
   19122:	83 94 0a 
   19125:	c7 85 3c f7 ff ff ab 	movl   $0x74a942ab,-0x8c4(%rbp)
   1912c:	42 a9 74 
   1912f:	c7 85 40 f7 ff ff 01 	movl   $0x1,-0x8c0(%rbp)
   19136:	00 00 00 
   19139:	c7 85 44 f7 ff ff 42 	movl   $0x9b6c3d42,-0x8bc(%rbp)
   19140:	3d 6c 9b 
   19143:	c7 85 48 f7 ff ff 03 	movl   $0x3,-0x8b8(%rbp)
   1914a:	00 00 00 
   1914d:	c7 85 4c f7 ff ff ab 	movl   $0x74a942ab,-0x8b4(%rbp)
   19154:	42 a9 74 
   19157:	c7 85 50 f7 ff ff 08 	movl   $0x10c65308,-0x8b0(%rbp)
   1915e:	53 c6 10 
   19161:	c7 85 54 f7 ff ff 63 	movl   $0xa948363,-0x8ac(%rbp)
   19168:	83 94 0a 
   1916b:	c7 85 58 f7 ff ff 42 	movl   $0x9b6c3d42,-0x8a8(%rbp)
   19172:	3d 6c 9b 
   19175:	c7 85 5c f7 ff ff ab 	movl   $0x74a942ab,-0x8a4(%rbp)
   1917c:	42 a9 74 
   1917f:	c7 85 60 f7 ff ff 03 	movl   $0x3,-0x8a0(%rbp)
   19186:	00 00 00 
   19189:	c7 85 64 f7 ff ff 42 	movl   $0x9b6c3d42,-0x89c(%rbp)
   19190:	3d 6c 9b 
   19193:	c7 85 68 f7 ff ff 01 	movl   $0x1,-0x898(%rbp)
   1919a:	00 00 00 
   1919d:	c7 85 6c f7 ff ff ab 	movl   $0x74a942ab,-0x894(%rbp)
   191a4:	42 a9 74 
   191a7:	c7 85 70 f7 ff ff ab 	movl   $0x74a942ab,-0x890(%rbp)
   191ae:	42 a9 74 
   191b1:	c7 85 74 f7 ff ff 63 	movl   $0xa948363,-0x88c(%rbp)
   191b8:	83 94 0a 
   191bb:	c7 85 78 f7 ff ff 63 	movl   $0xa948363,-0x888(%rbp)
   191c2:	83 94 0a 
   191c5:	c7 85 7c f7 ff ff ab 	movl   $0x74a942ab,-0x884(%rbp)
   191cc:	42 a9 74 
   191cf:	c7 85 80 f7 ff ff 01 	movl   $0x1,-0x880(%rbp)
   191d6:	00 00 00 
   191d9:	c7 85 84 f7 ff ff 42 	movl   $0x9b6c3d42,-0x87c(%rbp)
   191e0:	3d 6c 9b 
   191e3:	c7 85 88 f7 ff ff 03 	movl   $0x3,-0x878(%rbp)
   191ea:	00 00 00 
   191ed:	c7 85 8c f7 ff ff ab 	movl   $0x74a942ab,-0x874(%rbp)
   191f4:	42 a9 74 
   191f7:	48 8d 85 20 fa ff ff 	lea    -0x5e0(%rbp),%rax
   191fe:	48 8d 15 db 7a 00 00 	lea    0x7adb(%rip),%rdx        # 20ce0 <g_3910+0x1c74>
   19205:	b9 24 00 00 00       	mov    $0x24,%ecx
   1920a:	48 89 c7             	mov    %rax,%rdi
   1920d:	48 89 d6             	mov    %rdx,%rsi
   19210:	f3 48 a5             	rep movsq %ds:(%rsi),%es:(%rdi)
   19213:	48 8b 05 26 f4 00 00 	mov    0xf426(%rip),%rax        # 28640 <g_357>
   1921a:	0f b7 00             	movzwl (%rax),%eax
   1921d:	0f b7 d0             	movzwl %ax,%edx
   19220:	8b 85 fc f3 ff ff    	mov    -0xc04(%rbp),%eax
   19226:	39 c2                	cmp    %eax,%edx
   19228:	0f 85 4b 02 00 00    	jne    19479 <func_49+0x226e>
   1922e:	66 c7 85 5e f1 ff ff 	movw   $0x1,-0xea2(%rbp)
   19235:	01 00 
   19237:	48 8d 05 02 fc 00 00 	lea    0xfc02(%rip),%rax        # 28e40 <g_1055>
   1923e:	48 89 85 60 f3 ff ff 	mov    %rax,-0xca0(%rbp)
   19245:	48 c7 85 e0 f4 ff ff 	movq   $0x0,-0xb20(%rbp)
   1924c:	00 00 00 00 
   19250:	48 8d 85 80 f4 ff ff 	lea    -0xb80(%rbp),%rax
   19257:	48 83 c0 08          	add    $0x8,%rax
   1925b:	48 89 85 e8 f4 ff ff 	mov    %rax,-0xb18(%rbp)
   19262:	48 c7 85 f0 f4 ff ff 	movq   $0x0,-0xb10(%rbp)
   19269:	00 00 00 00 
   1926d:	48 c7 85 f8 f4 ff ff 	movq   $0x0,-0xb08(%rbp)
   19274:	00 00 00 00 
   19278:	48 8d 85 80 f4 ff ff 	lea    -0xb80(%rbp),%rax
   1927f:	48 83 c0 08          	add    $0x8,%rax
   19283:	48 89 85 00 f5 ff ff 	mov    %rax,-0xb00(%rbp)
   1928a:	48 c7 85 08 f5 ff ff 	movq   $0x0,-0xaf8(%rbp)
   19291:	00 00 00 00 
   19295:	48 c7 85 10 f5 ff ff 	movq   $0x0,-0xaf0(%rbp)
   1929c:	00 00 00 00 
   192a0:	48 8d 85 80 f4 ff ff 	lea    -0xb80(%rbp),%rax
   192a7:	48 83 c0 08          	add    $0x8,%rax
   192ab:	48 89 85 18 f5 ff ff 	mov    %rax,-0xae8(%rbp)
   192b2:	c7 85 0c f2 ff ff 55 	movl   $0x2ebe5155,-0xdf4(%rbp)
   192b9:	51 be 2e 
   192bc:	c7 85 10 f2 ff ff b4 	movl   $0xa52d53b4,-0xdf0(%rbp)
   192c3:	53 2d a5 
   192c6:	c7 85 14 f2 ff ff ff 	movl   $0xffffffff,-0xdec(%rbp)
   192cd:	ff ff ff 
   192d0:	c7 85 18 f2 ff ff 6d 	movl   $0x62ccf96d,-0xde8(%rbp)
   192d7:	f9 cc 62 
   192da:	c7 85 1c f2 ff ff 7c 	movl   $0x2401ad7c,-0xde4(%rbp)
   192e1:	ad 01 24 
   192e4:	c7 85 20 f2 ff ff 50 	movl   $0x4ce61950,-0xde0(%rbp)
   192eb:	19 e6 4c 
   192ee:	c7 85 24 f2 ff ff 27 	movl   $0xeb5fca27,-0xddc(%rbp)
   192f5:	ca 5f eb 
   192f8:	c7 85 28 f2 ff ff 75 	movl   $0xe03a5175,-0xdd8(%rbp)
   192ff:	51 3a e0 
   19302:	0f b7 85 20 f4 ff ff 	movzwl -0xbe0(%rbp),%eax
   19309:	83 e8 01             	sub    $0x1,%eax
   1930c:	66 89 85 20 f4 ff ff 	mov    %ax,-0xbe0(%rbp)
   19313:	66 83 bd 4e f1 ff ff 	cmpw   $0x0,-0xeb2(%rbp)
   1931a:	00 
   1931b:	74 05                	je     19322 <func_49+0x2117>
   1931d:	e9 74 fa ff ff       	jmpq   18d96 <func_49+0x1b8b>
   19322:	0f b7 85 5e f1 ff ff 	movzwl -0xea2(%rbp),%eax
   19329:	0f bf d8             	movswl %ax,%ebx
   1932c:	8b 85 28 f5 ff ff    	mov    -0xad8(%rbp),%eax
   19332:	c1 e8 1f             	shr    $0x1f,%eax
   19335:	44 0f b6 e0          	movzbl %al,%r12d
   19339:	0f b7 85 20 f4 ff ff 	movzwl -0xbe0(%rbp),%eax
   19340:	0f b7 c0             	movzwl %ax,%eax
   19343:	89 c7                	mov    %eax,%edi
   19345:	e8 9f 29 ff ff       	callq  bce9 <safe_unary_minus_func_uint16_t_u>
   1934a:	66 85 c0             	test   %ax,%ax
   1934d:	75 35                	jne    19384 <func_49+0x2179>
   1934f:	0f b7 85 20 f4 ff ff 	movzwl -0xbe0(%rbp),%eax
   19356:	0f be d0             	movsbl %al,%edx
   19359:	c7 85 84 f1 ff ff d8 	movl   $0x25786ed8,-0xe7c(%rbp)
   19360:	6e 78 25 
   19363:	b8 01 00 00 00       	mov    $0x1,%eax
   19368:	89 85 64 fa ff ff    	mov    %eax,-0x59c(%rbp)
   1936e:	8b 85 64 fa ff ff    	mov    -0x59c(%rbp),%eax
   19374:	0f be c0             	movsbl %al,%eax
   19377:	89 d6                	mov    %edx,%esi
   19379:	89 c7                	mov    %eax,%edi
   1937b:	e8 b1 1e ff ff       	callq  b231 <safe_mod_func_int8_t_s_s>
   19380:	84 c0                	test   %al,%al
   19382:	74 07                	je     1938b <func_49+0x2180>
   19384:	b8 01 00 00 00       	mov    $0x1,%eax
   19389:	eb 05                	jmp    19390 <func_49+0x2185>
   1938b:	b8 00 00 00 00       	mov    $0x0,%eax
   19390:	89 c1                	mov    %eax,%ecx
   19392:	48 8b 85 60 f3 ff ff 	mov    -0xca0(%rbp),%rax
   19399:	48 89 85 70 f2 ff ff 	mov    %rax,-0xd90(%rbp)
   193a0:	48 8b 85 70 f2 ff ff 	mov    -0xd90(%rbp),%rax
   193a7:	48 85 c0             	test   %rax,%rax
   193aa:	0f 94 c2             	sete   %dl
   193ad:	48 8b 05 f4 f5 00 00 	mov    0xf5f4(%rip),%rax        # 289a8 <g_1057>
   193b4:	0f b6 d2             	movzbl %dl,%edx
   193b7:	66 89 10             	mov    %dx,(%rax)
   193ba:	0f b7 00             	movzwl (%rax),%eax
   193bd:	98                   	cwtl   
   193be:	89 85 c0 f6 ff ff    	mov    %eax,-0x940(%rbp)
   193c4:	8b 95 c0 f6 ff ff    	mov    -0x940(%rbp),%edx
   193ca:	48 8b 85 b8 f2 ff ff 	mov    -0xd48(%rbp),%rax
   193d1:	89 10                	mov    %edx,(%rax)
   193d3:	48 8b 85 b8 f2 ff ff 	mov    -0xd48(%rbp),%rax
   193da:	8b 00                	mov    (%rax),%eax
   193dc:	98                   	cwtl   
   193dd:	89 ce                	mov    %ecx,%esi
   193df:	89 c7                	mov    %eax,%edi
   193e1:	e8 7d 21 ff ff       	callq  b563 <safe_rshift_func_int16_t_s_u>
   193e6:	48 0f bf c0          	movswq %ax,%rax
   193ea:	48 89 05 0f bd 00 00 	mov    %rax,0xbd0f(%rip)        # 25100 <g_709>
   193f1:	48 8b 15 08 bd 00 00 	mov    0xbd08(%rip),%rdx        # 25100 <g_709>
   193f8:	0f b7 85 5e f1 ff ff 	movzwl -0xea2(%rbp),%eax
   193ff:	48 39 c2             	cmp    %rax,%rdx
   19402:	0f 9f c0             	setg   %al
   19405:	0f b6 d0             	movzbl %al,%edx
   19408:	0f b7 85 5e f1 ff ff 	movzwl -0xea2(%rbp),%eax
   1940f:	0f b6 c0             	movzbl %al,%eax
   19412:	89 d6                	mov    %edx,%esi
   19414:	89 c7                	mov    %eax,%edi
   19416:	e8 3f 27 ff ff       	callq  bb5a <safe_add_func_uint8_t_u_u>
   1941b:	0f b6 c0             	movzbl %al,%eax
   1941e:	44 21 e0             	and    %r12d,%eax
   19421:	85 c0                	test   %eax,%eax
   19423:	75 0c                	jne    19431 <func_49+0x2226>
   19425:	0f b7 85 20 f4 ff ff 	movzwl -0xbe0(%rbp),%eax
   1942c:	66 85 c0             	test   %ax,%ax
   1942f:	74 07                	je     19438 <func_49+0x222d>
   19431:	b8 01 00 00 00       	mov    $0x1,%eax
   19436:	eb 05                	jmp    1943d <func_49+0x2232>
   19438:	b8 00 00 00 00       	mov    $0x0,%eax
   1943d:	98                   	cwtl   
   1943e:	89 de                	mov    %ebx,%esi
   19440:	89 c7                	mov    %eax,%edi
   19442:	e8 ae 1f ff ff       	callq  b3f5 <safe_mul_func_int16_t_s_s>
   19447:	0f bf d0             	movswl %ax,%edx
   1944a:	0f b7 85 5e f1 ff ff 	movzwl -0xea2(%rbp),%eax
   19451:	39 c2                	cmp    %eax,%edx
   19453:	0f 9c c0             	setl   %al
   19456:	0f b6 c8             	movzbl %al,%ecx
   19459:	48 8b 05 60 f1 00 00 	mov    0xf160(%rip),%rax        # 285c0 <g_91>
   19460:	8b 10                	mov    (%rax),%edx
   19462:	48 8b 05 57 f1 00 00 	mov    0xf157(%rip),%rax        # 285c0 <g_91>
   19469:	21 ca                	and    %ecx,%edx
   1946b:	89 10                	mov    %edx,(%rax)
   1946d:	83 ad ec f1 ff ff 01 	subl   $0x1,-0xe14(%rbp)
   19474:	e9 4a 04 00 00       	jmpq   198c3 <func_49+0x26b8>
   19479:	c7 85 fc f1 ff ff 01 	movl   $0x1,-0xe04(%rbp)
   19480:	00 00 00 
   19483:	c7 85 00 f2 ff ff 01 	movl   $0x1,-0xe00(%rbp)
   1948a:	00 00 00 
   1948d:	c7 85 04 f2 ff ff 1d 	movl   $0x4ba7071d,-0xdfc(%rbp)
   19494:	07 a7 4b 
   19497:	c7 85 08 f2 ff ff 01 	movl   $0x1,-0xdf8(%rbp)
   1949e:	00 00 00 
   194a1:	c7 85 b0 f1 ff ff 00 	movl   $0x0,-0xe50(%rbp)
   194a8:	00 00 00 
   194ab:	eb 1a                	jmp    194c7 <func_49+0x22bc>
   194ad:	8b 85 b0 f1 ff ff    	mov    -0xe50(%rbp),%eax
   194b3:	48 98                	cltq   
   194b5:	c7 84 85 e0 f4 ff ff 	movl   $0x6,-0xb20(%rbp,%rax,4)
   194bc:	06 00 00 00 
   194c0:	83 85 b0 f1 ff ff 01 	addl   $0x1,-0xe50(%rbp)
   194c7:	83 bd b0 f1 ff ff 00 	cmpl   $0x0,-0xe50(%rbp)
   194ce:	7e dd                	jle    194ad <func_49+0x22a2>
   194d0:	83 ad 08 f2 ff ff 01 	subl   $0x1,-0xdf8(%rbp)
   194d7:	c6 85 40 f1 ff ff 00 	movb   $0x0,-0xec0(%rbp)
   194de:	e9 60 01 00 00       	jmpq   19643 <func_49+0x2438>
   194e3:	66 c7 85 5c f1 ff ff 	movw   $0xdf8a,-0xea4(%rbp)
   194ea:	8a df 
   194ec:	48 8b 05 cd f0 00 00 	mov    0xf0cd(%rip),%rax        # 285c0 <g_91>
   194f3:	8b 00                	mov    (%rax),%eax
   194f5:	89 85 00 f2 ff ff    	mov    %eax,-0xe00(%rbp)
   194fb:	8b 85 e0 f4 ff ff    	mov    -0xb20(%rbp),%eax
   19501:	85 c0                	test   %eax,%eax
   19503:	0f 85 15 01 00 00    	jne    1961e <func_49+0x2413>
   19509:	0f b7 85 5c f1 ff ff 	movzwl -0xea4(%rbp),%eax
   19510:	0f bf d8             	movswl %ax,%ebx
   19513:	8b 85 84 f1 ff ff    	mov    -0xe7c(%rbp),%eax
   19519:	0f b7 c0             	movzwl %ax,%eax
   1951c:	be 0a 00 00 00       	mov    $0xa,%esi
   19521:	89 c7                	mov    %eax,%edi
   19523:	e8 52 29 ff ff       	callq  be7a <safe_rshift_func_uint16_t_u_u>
   19528:	89 c2                	mov    %eax,%edx
   1952a:	48 8b 85 a8 f2 ff ff 	mov    -0xd58(%rbp),%rax
   19531:	48 8b 00             	mov    (%rax),%rax
   19534:	66 89 10             	mov    %dx,(%rax)
   19537:	44 0f b7 20          	movzwl (%rax),%r12d
   1953b:	48 8b 05 06 f9 00 00 	mov    0xf906(%rip),%rax        # 28e48 <g_1091>
   19542:	48 8b 00             	mov    (%rax),%rax
   19545:	8b 10                	mov    (%rax),%edx
   19547:	48 8b 85 b0 f2 ff ff 	mov    -0xd50(%rbp),%rax
   1954e:	89 10                	mov    %edx,(%rax)
   19550:	48 8b 85 b0 f2 ff ff 	mov    -0xd50(%rbp),%rax
   19557:	8b 00                	mov    (%rax),%eax
   19559:	41 89 c5             	mov    %eax,%r13d
   1955c:	48 8d 85 70 f2 ff ff 	lea    -0xd90(%rbp),%rax
   19563:	48 39 85 40 f3 ff ff 	cmp    %rax,-0xcc0(%rbp)
   1956a:	0f 94 c0             	sete   %al
   1956d:	0f b6 d0             	movzbl %al,%edx
   19570:	0f b7 85 20 f4 ff ff 	movzwl -0xbe0(%rbp),%eax
   19577:	0f b7 c0             	movzwl %ax,%eax
   1957a:	39 c2                	cmp    %eax,%edx
   1957c:	0f 9e c0             	setle  %al
   1957f:	0f b6 d0             	movzbl %al,%edx
   19582:	8b 85 08 f2 ff ff    	mov    -0xdf8(%rbp),%eax
   19588:	0f be c0             	movsbl %al,%eax
   1958b:	89 d6                	mov    %edx,%esi
   1958d:	89 c7                	mov    %eax,%edi
   1958f:	e8 5a 1d ff ff       	callq  b2ee <safe_lshift_func_int8_t_s_u>
   19594:	0f be c0             	movsbl %al,%eax
   19597:	89 c6                	mov    %eax,%esi
   19599:	bf 6f 98 68 fe       	mov    $0xfe68986f,%edi
   1959e:	e8 82 29 ff ff       	callq  bf25 <safe_div_func_uint32_t_u_u>
   195a3:	41 39 c5             	cmp    %eax,%r13d
   195a6:	0f 97 c0             	seta   %al
   195a9:	0f b6 c0             	movzbl %al,%eax
   195ac:	44 21 e0             	and    %r12d,%eax
   195af:	98                   	cwtl   
   195b0:	89 de                	mov    %ebx,%esi
   195b2:	89 c7                	mov    %eax,%edi
   195b4:	e8 fa 1d ff ff       	callq  b3b3 <safe_add_func_int16_t_s_s>
   195b9:	0f bf d0             	movswl %ax,%edx
   195bc:	8b 85 c0 f4 ff ff    	mov    -0xb40(%rbp),%eax
   195c2:	31 d0                	xor    %edx,%eax
   195c4:	83 f8 fd             	cmp    $0xfffffffd,%eax
   195c7:	0f 9d c0             	setge  %al
   195ca:	0f b6 c0             	movzbl %al,%eax
   195cd:	39 85 ec f1 ff ff    	cmp    %eax,-0xe14(%rbp)
   195d3:	0f 97 c0             	seta   %al
   195d6:	0f b6 c0             	movzbl %al,%eax
   195d9:	be 01 00 00 00       	mov    $0x1,%esi
   195de:	48 89 c7             	mov    %rax,%rdi
   195e1:	e8 ce 23 ff ff       	callq  b9b4 <safe_mod_func_int64_t_s_s>
   195e6:	89 85 e4 f1 ff ff    	mov    %eax,-0xe1c(%rbp)
   195ec:	8b 85 e4 f1 ff ff    	mov    -0xe1c(%rbp),%eax
   195f2:	0f b7 d0             	movzwl %ax,%edx
   195f5:	48 8b 05 5c f8 00 00 	mov    0xf85c(%rip),%rax        # 28e58 <g_1177>
   195fc:	0f b7 00             	movzwl (%rax),%eax
   195ff:	0f b7 c0             	movzwl %ax,%eax
   19602:	89 d6                	mov    %edx,%esi
   19604:	89 c7                	mov    %eax,%edi
   19606:	e8 32 27 ff ff       	callq  bd3d <safe_mul_func_uint16_t_u_u>
   1960b:	48 8b 05 9e 08 01 00 	mov    0x1089e(%rip),%rax        # 29eb0 <g_1645>
   19612:	48 8b 00             	mov    (%rax),%rax
   19615:	48 39 85 18 f3 ff ff 	cmp    %rax,-0xce8(%rbp)
   1961c:	74 07                	je     19625 <func_49+0x241a>
   1961e:	ba 01 00 00 00       	mov    $0x1,%edx
   19623:	eb 05                	jmp    1962a <func_49+0x241f>
   19625:	ba 00 00 00 00       	mov    $0x0,%edx
   1962a:	48 8b 85 b8 f2 ff ff 	mov    -0xd48(%rbp),%rax
   19631:	89 10                	mov    %edx,(%rax)
   19633:	0f b6 85 40 f1 ff ff 	movzbl -0xec0(%rbp),%eax
   1963a:	83 c0 01             	add    $0x1,%eax
   1963d:	88 85 40 f1 ff ff    	mov    %al,-0xec0(%rbp)
   19643:	80 bd 40 f1 ff ff 00 	cmpb   $0x0,-0xec0(%rbp)
   1964a:	0f 8e 93 fe ff ff    	jle    194e3 <func_49+0x22d8>
   19650:	66 83 bd 4e f1 ff ff 	cmpw   $0x0,-0xeb2(%rbp)
   19657:	00 
   19658:	0f 84 65 02 00 00    	je     198c3 <func_49+0x26b8>
   1965e:	e9 3a f7 ff ff       	jmpq   18d9d <func_49+0x1b92>
   19663:	c7 85 f4 f1 ff ff 01 	movl   $0x1,-0xe0c(%rbp)
   1966a:	00 00 00 
   1966d:	48 c7 85 50 f3 ff ff 	movq   $0x0,-0xcb0(%rbp)
   19674:	00 00 00 00 
   19678:	66 c7 85 4a f1 ff ff 	movw   $0x0,-0xeb6(%rbp)
   1967f:	00 00 
   19681:	e9 53 01 00 00       	jmpq   197d9 <func_49+0x25ce>
   19686:	c7 85 f8 f1 ff ff ed 	movl   $0x3cabf2ed,-0xe08(%rbp)
   1968d:	f2 ab 3c 
   19690:	83 bd 80 f1 ff ff 00 	cmpl   $0x0,-0xe80(%rbp)
   19697:	0f 85 4c 01 00 00    	jne    197e9 <func_49+0x25de>
   1969d:	c7 85 b4 f1 ff ff 06 	movl   $0x6,-0xe4c(%rbp)
   196a4:	00 00 00 
   196a7:	83 bd b4 f1 ff ff 01 	cmpl   $0x1,-0xe4c(%rbp)
   196ae:	7e 0b                	jle    196bb <func_49+0x24b0>
   196b0:	8b 85 80 f1 ff ff    	mov    -0xe80(%rbp),%eax
   196b6:	e9 db 02 00 00       	jmpq   19996 <func_49+0x278b>
   196bb:	48 8b 85 b8 f2 ff ff 	mov    -0xd48(%rbp),%rax
   196c2:	8b 10                	mov    (%rax),%edx
   196c4:	48 8b 85 30 f1 ff ff 	mov    -0xed0(%rbp),%rax
   196cb:	48 85 c0             	test   %rax,%rax
   196ce:	0f 94 c0             	sete   %al
   196d1:	0f b6 c0             	movzbl %al,%eax
   196d4:	31 c2                	xor    %eax,%edx
   196d6:	48 8b 85 b8 f2 ff ff 	mov    -0xd48(%rbp),%rax
   196dd:	89 10                	mov    %edx,(%rax)
   196df:	48 8b 85 c8 f2 ff ff 	mov    -0xd38(%rbp),%rax
   196e6:	8b 00                	mov    (%rax),%eax
   196e8:	85 c0                	test   %eax,%eax
   196ea:	0f 85 e0 00 00 00    	jne    197d0 <func_49+0x25c5>
   196f0:	c7 85 64 f1 ff ff 00 	movl   $0x0,-0xe9c(%rbp)
   196f7:	00 00 00 
   196fa:	e9 c0 00 00 00       	jmpq   197bf <func_49+0x25b4>
   196ff:	48 c7 85 58 f3 ff ff 	movq   $0x0,-0xca8(%rbp)
   19706:	00 00 00 00 
   1970a:	8b 1d 44 b9 00 00    	mov    0xb944(%rip),%ebx        # 25054 <g_52+0x14>
   19710:	48 8b 05 01 ef 00 00 	mov    0xef01(%rip),%rax        # 28618 <g_128>
   19717:	0f b6 00             	movzbl (%rax),%eax
   1971a:	44 0f b6 e0          	movzbl %al,%r12d
   1971e:	8b 85 f4 f1 ff ff    	mov    -0xe0c(%rbp),%eax
   19724:	be 8d e2 0d a0       	mov    $0xa00de28d,%esi
   19729:	89 c7                	mov    %eax,%edi
   1972b:	e8 86 1e ff ff       	callq  b5b6 <safe_add_func_int32_t_s_s>
   19730:	48 8b 05 91 f1 00 00 	mov    0xf191(%rip),%rax        # 288c8 <g_512>
   19737:	48 8b 00             	mov    (%rax),%rax
   1973a:	48 8b 95 48 f3 ff ff 	mov    -0xcb8(%rbp),%rdx
   19741:	48 89 95 d8 f2 ff ff 	mov    %rdx,-0xd28(%rbp)
   19748:	48 39 85 d8 f2 ff ff 	cmp    %rax,-0xd28(%rbp)
   1974f:	0f 94 c0             	sete   %al
   19752:	0f b6 c0             	movzbl %al,%eax
   19755:	89 c2                	mov    %eax,%edx
   19757:	48 8b 05 ca ee 00 00 	mov    0xeeca(%rip),%rax        # 28628 <g_181>
   1975e:	8b 00                	mov    (%rax),%eax
   19760:	89 d6                	mov    %edx,%esi
   19762:	89 c7                	mov    %eax,%edi
   19764:	e8 9c 1e ff ff       	callq  b605 <safe_sub_func_int32_t_s_s>
   19769:	0f b6 c0             	movzbl %al,%eax
   1976c:	44 89 e6             	mov    %r12d,%esi
   1976f:	89 c7                	mov    %eax,%edi
   19771:	e8 02 24 ff ff       	callq  bb78 <safe_sub_func_uint8_t_u_u>
   19776:	0f b6 c0             	movzbl %al,%eax
   19779:	89 de                	mov    %ebx,%esi
   1977b:	89 c7                	mov    %eax,%edi
   1977d:	e8 34 1e ff ff       	callq  b5b6 <safe_add_func_int32_t_s_s>
   19782:	88 05 f8 b8 00 00    	mov    %al,0xb8f8(%rip)        # 25080 <g_112>
   19788:	0f b6 05 f1 b8 00 00 	movzbl 0xb8f1(%rip),%eax        # 25080 <g_112>
   1978f:	0f b6 c0             	movzbl %al,%eax
   19792:	23 85 f8 f1 ff ff    	and    -0xe08(%rbp),%eax
   19798:	89 c2                	mov    %eax,%edx
   1979a:	48 8b 85 c8 f2 ff ff 	mov    -0xd38(%rbp),%rax
   197a1:	8b 00                	mov    (%rax),%eax
   197a3:	31 d0                	xor    %edx,%eax
   197a5:	89 c2                	mov    %eax,%edx
   197a7:	48 8b 85 c8 f2 ff ff 	mov    -0xd38(%rbp),%rax
   197ae:	89 10                	mov    %edx,(%rax)
   197b0:	8b 85 64 f1 ff ff    	mov    -0xe9c(%rbp),%eax
   197b6:	83 c0 01             	add    $0x1,%eax
   197b9:	89 85 64 f1 ff ff    	mov    %eax,-0xe9c(%rbp)
   197bf:	8b 85 64 f1 ff ff    	mov    -0xe9c(%rbp),%eax
   197c5:	83 f8 06             	cmp    $0x6,%eax
   197c8:	0f 86 31 ff ff ff    	jbe    196ff <func_49+0x24f4>
   197ce:	eb 01                	jmp    197d1 <func_49+0x25c6>
   197d0:	90                   	nop
   197d1:	66 83 85 4a f1 ff ff 	addw   $0x1,-0xeb6(%rbp)
   197d8:	01 
   197d9:	66 83 bd 4a f1 ff ff 	cmpw   $0x6,-0xeb6(%rbp)
   197e0:	06 
   197e1:	0f 86 9f fe ff ff    	jbe    19686 <func_49+0x247b>
   197e7:	eb 01                	jmp    197ea <func_49+0x25df>
   197e9:	90                   	nop
   197ea:	8b 85 f4 f1 ff ff    	mov    -0xe0c(%rbp),%eax
   197f0:	0f b6 d8             	movzbl %al,%ebx
   197f3:	8b 85 f4 f1 ff ff    	mov    -0xe0c(%rbp),%eax
   197f9:	0f be d0             	movsbl %al,%edx
   197fc:	48 8b 05 ad 06 01 00 	mov    0x106ad(%rip),%rax        # 29eb0 <g_1645>
   19803:	48 8b 00             	mov    (%rax),%rax
   19806:	48 8b 8d 20 f3 ff ff 	mov    -0xce0(%rbp),%rcx
   1980d:	48 89 08             	mov    %rcx,(%rax)
   19810:	48 8b 00             	mov    (%rax),%rax
   19813:	48 39 85 e0 f2 ff ff 	cmp    %rax,-0xd20(%rbp)
   1981a:	40 0f 95 c6          	setne  %sil
   1981e:	48 8b 85 a8 f2 ff ff 	mov    -0xd58(%rbp),%rax
   19825:	48 8b 8d 50 f3 ff ff 	mov    -0xcb0(%rbp),%rcx
   1982c:	48 89 08             	mov    %rcx,(%rax)
   1982f:	48 8b 85 a8 f2 ff ff 	mov    -0xd58(%rbp),%rax
   19836:	48 8b 00             	mov    (%rax),%rax
   19839:	48 85 c0             	test   %rax,%rax
   1983c:	0f 95 c0             	setne  %al
   1983f:	31 f0                	xor    %esi,%eax
   19841:	84 c0                	test   %al,%al
   19843:	74 07                	je     1984c <func_49+0x2641>
   19845:	83 bd f4 f1 ff ff 00 	cmpl   $0x0,-0xe0c(%rbp)
   1984c:	48 8b 05 c5 ed 00 00 	mov    0xedc5(%rip),%rax        # 28618 <g_128>
   19853:	0f b6 00             	movzbl (%rax),%eax
   19856:	0f be c0             	movsbl %al,%eax
   19859:	89 d6                	mov    %edx,%esi
   1985b:	89 c7                	mov    %eax,%edi
   1985d:	e8 08 1a ff ff       	callq  b26a <safe_div_func_int8_t_s_s>
   19862:	0f b6 c0             	movzbl %al,%eax
   19865:	89 c6                	mov    %eax,%esi
   19867:	bf ef 00 00 00       	mov    $0xef,%edi
   1986c:	e8 3d 23 ff ff       	callq  bbae <safe_mod_func_uint8_t_u_u>
   19871:	8b 85 f4 f1 ff ff    	mov    -0xe0c(%rbp),%eax
   19877:	0f b6 c0             	movzbl %al,%eax
   1987a:	89 de                	mov    %ebx,%esi
   1987c:	89 c7                	mov    %eax,%edi
   1987e:	e8 f5 22 ff ff       	callq  bb78 <safe_sub_func_uint8_t_u_u>
   19883:	0f b6 c0             	movzbl %al,%eax
   19886:	be fe ff ff ff       	mov    $0xfffffffe,%esi
   1988b:	89 c7                	mov    %eax,%edi
   1988d:	e8 73 1d ff ff       	callq  b605 <safe_sub_func_int32_t_s_s>
   19892:	89 c2                	mov    %eax,%edx
   19894:	48 8b 85 b8 f2 ff ff 	mov    -0xd48(%rbp),%rax
   1989b:	8b 00                	mov    (%rax),%eax
   1989d:	21 d0                	and    %edx,%eax
   1989f:	89 c2                	mov    %eax,%edx
   198a1:	8b 85 f0 f1 ff ff    	mov    -0xe10(%rbp),%eax
   198a7:	31 d0                	xor    %edx,%eax
   198a9:	0f be c0             	movsbl %al,%eax
   198ac:	be fb ff ff ff       	mov    $0xfffffffb,%esi
   198b1:	89 c7                	mov    %eax,%edi
   198b3:	e8 b2 19 ff ff       	callq  b26a <safe_div_func_int8_t_s_s>
   198b8:	48 c7 85 30 f1 ff ff 	movq   $0x0,-0xed0(%rbp)
   198bf:	00 00 00 00 
   198c3:	48 8b 85 b0 f2 ff ff 	mov    -0xd50(%rbp),%rax
   198ca:	8b 10                	mov    (%rax),%edx
   198cc:	48 8b 85 c8 f2 ff ff 	mov    -0xd38(%rbp),%rax
   198d3:	89 10                	mov    %edx,(%rax)
   198d5:	48 8b 95 70 f2 ff ff 	mov    -0xd90(%rbp),%rdx
   198dc:	48 8b 85 30 f3 ff ff 	mov    -0xcd0(%rbp),%rax
   198e3:	48 89 10             	mov    %rdx,(%rax)
   198e6:	48 8b 85 30 f3 ff ff 	mov    -0xcd0(%rbp),%rax
   198ed:	48 8b 00             	mov    (%rax),%rax
   198f0:	48 89 05 99 0d 01 00 	mov    %rax,0x10d99(%rip)        # 2a690 <g_1807>
   198f7:	48 8b 05 92 0d 01 00 	mov    0x10d92(%rip),%rax        # 2a690 <g_1807>
   198fe:	48 85 c0             	test   %rax,%rax
   19901:	0f 94 c0             	sete   %al
   19904:	0f b6 d8             	movzbl %al,%ebx
   19907:	48 8b 85 c8 f2 ff ff 	mov    -0xd38(%rbp),%rax
   1990e:	8b 00                	mov    (%rax),%eax
   19910:	41 89 c5             	mov    %eax,%r13d
   19913:	0f b7 05 7e b7 00 00 	movzwl 0xb77e(%rip),%eax        # 25098 <g_196>
   1991a:	0f bf d0             	movswl %ax,%edx
   1991d:	0f b7 05 c4 b7 00 00 	movzwl 0xb7c4(%rip),%eax        # 250e8 <g_327>
   19924:	98                   	cwtl   
   19925:	89 d6                	mov    %edx,%esi
   19927:	89 c7                	mov    %eax,%edi
   19929:	e8 f7 25 ff ff       	callq  bf25 <safe_div_func_uint32_t_u_u>
   1992e:	41 89 c4             	mov    %eax,%r12d
   19931:	48 8b 85 c8 f2 ff ff 	mov    -0xd38(%rbp),%rax
   19938:	8b 00                	mov    (%rax),%eax
   1993a:	0f be c0             	movsbl %al,%eax
   1993d:	be 6e 00 00 00       	mov    $0x6e,%esi
   19942:	89 c7                	mov    %eax,%edi
   19944:	e8 21 19 ff ff       	callq  b26a <safe_div_func_int8_t_s_s>
   19949:	0f be c0             	movsbl %al,%eax
   1994c:	44 09 e0             	or     %r12d,%eax
   1994f:	85 c0                	test   %eax,%eax
   19951:	0f 95 c0             	setne  %al
   19954:	44 21 e8             	and    %r13d,%eax
   19957:	0f b6 c0             	movzbl %al,%eax
   1995a:	89 de                	mov    %ebx,%esi
   1995c:	89 c7                	mov    %eax,%edi
   1995e:	e8 30 22 ff ff       	callq  bb93 <safe_mul_func_uint8_t_u_u>
   19963:	48 8b 95 b8 f2 ff ff 	mov    -0xd48(%rbp),%rdx
   1996a:	8b 12                	mov    (%rdx),%edx
   1996c:	0f b6 c0             	movzbl %al,%eax
   1996f:	21 c2                	and    %eax,%edx
   19971:	48 8b 85 b8 f2 ff ff 	mov    -0xd48(%rbp),%rax
   19978:	89 10                	mov    %edx,(%rax)
   1997a:	48 8b 85 b8 f2 ff ff 	mov    -0xd48(%rbp),%rax
   19981:	8b 10                	mov    (%rax),%edx
   19983:	48 8b 85 c8 f2 ff ff 	mov    -0xd38(%rbp),%rax
   1998a:	89 10                	mov    %edx,(%rax)
   1998c:	0f b6 05 a8 b7 00 00 	movzbl 0xb7a8(%rip),%eax        # 2513b <g_929+0x1b>
   19993:	0f b6 c0             	movzbl %al,%eax
   19996:	48 8b 5d c8          	mov    -0x38(%rbp),%rbx
   1999a:	64 48 33 1c 25 28 00 	xor    %fs:0x28,%rbx
   199a1:	00 00 
   199a3:	74 05                	je     199aa <func_49+0x279f>
   199a5:	e8 c6 16 ff ff       	callq  b070 <__stack_chk_fail@plt>
   199aa:	48 81 c4 a8 0e 00 00 	add    $0xea8,%rsp
   199b1:	5b                   	pop    %rbx
   199b2:	41 5c                	pop    %r12
   199b4:	41 5d                	pop    %r13
   199b6:	41 5e                	pop    %r14
   199b8:	41 5f                	pop    %r15
   199ba:	5d                   	pop    %rbp
   199bb:	c3                   	retq   

00000000000199bc <func_69>:
   199bc:	f3 0f 1e fa          	endbr64 
   199c0:	55                   	push   %rbp
   199c1:	48 89 e5             	mov    %rsp,%rbp
   199c4:	41 57                	push   %r15
   199c6:	41 56                	push   %r14
   199c8:	41 55                	push   %r13
   199ca:	41 54                	push   %r12
   199cc:	53                   	push   %rbx
   199cd:	48 81 ec c8 07 00 00 	sub    $0x7c8,%rsp
   199d4:	48 89 bd 28 f8 ff ff 	mov    %rdi,-0x7d8(%rbp)
   199db:	89 f0                	mov    %esi,%eax
   199dd:	66 89 85 24 f8 ff ff 	mov    %ax,-0x7dc(%rbp)
   199e4:	64 48 8b 04 25 28 00 	mov    %fs:0x28,%rax
   199eb:	00 00 
   199ed:	48 89 45 c8          	mov    %rax,-0x38(%rbp)
   199f1:	31 c0                	xor    %eax,%eax
   199f3:	48 c7 85 e8 f8 ff ff 	movq   $0x0,-0x718(%rbp)
   199fa:	00 00 00 00 
   199fe:	48 8d 85 e8 f8 ff ff 	lea    -0x718(%rbp),%rax
   19a05:	48 89 85 f0 f8 ff ff 	mov    %rax,-0x710(%rbp)
   19a0c:	48 8d 85 e8 f8 ff ff 	lea    -0x718(%rbp),%rax
   19a13:	48 89 85 30 f9 ff ff 	mov    %rax,-0x6d0(%rbp)
   19a1a:	48 c7 85 f8 f8 ff ff 	movq   $0x0,-0x708(%rbp)
   19a21:	00 00 00 00 
   19a25:	48 8d 85 f8 f8 ff ff 	lea    -0x708(%rbp),%rax
   19a2c:	48 89 85 38 f9 ff ff 	mov    %rax,-0x6c8(%rbp)
   19a33:	48 c7 85 90 fa ff ff 	movq   $0x0,-0x570(%rbp)
   19a3a:	00 00 00 00 
   19a3e:	48 c7 85 98 fa ff ff 	movq   $0x0,-0x568(%rbp)
   19a45:	00 00 00 00 
   19a49:	48 c7 85 a0 fa ff ff 	movq   $0x0,-0x560(%rbp)
   19a50:	00 00 00 00 
   19a54:	48 c7 85 a8 fa ff ff 	movq   $0x0,-0x558(%rbp)
   19a5b:	00 00 00 00 
   19a5f:	48 c7 85 b0 fa ff ff 	movq   $0x0,-0x550(%rbp)
   19a66:	00 00 00 00 
   19a6a:	48 c7 85 b8 fa ff ff 	movq   $0x0,-0x548(%rbp)
   19a71:	00 00 00 00 
   19a75:	48 c7 85 c0 fa ff ff 	movq   $0x0,-0x540(%rbp)
   19a7c:	00 00 00 00 
   19a80:	48 c7 85 c8 fa ff ff 	movq   $0x0,-0x538(%rbp)
   19a87:	00 00 00 00 
   19a8b:	c7 85 50 f8 ff ff 00 	movl   $0x0,-0x7b0(%rbp)
   19a92:	00 00 00 
   19a95:	48 c7 85 40 f9 ff ff 	movq   $0x0,-0x6c0(%rbp)
   19a9c:	00 00 00 00 
   19aa0:	48 8d 85 b0 fc ff ff 	lea    -0x350(%rbp),%rax
   19aa7:	48 8d 15 52 e2 00 00 	lea    0xe252(%rip),%rdx        # 27d00 <g_4523+0x1900>
   19aae:	b9 23 00 00 00       	mov    $0x23,%ecx
   19ab3:	48 89 c7             	mov    %rax,%rdi
   19ab6:	48 89 d6             	mov    %rdx,%rsi
   19ab9:	f3 48 a5             	rep movsq %ds:(%rsi),%es:(%rdi)
   19abc:	c7 85 88 f8 ff ff fa 	movl   $0xfffffffa,-0x778(%rbp)
   19ac3:	ff ff ff 
   19ac6:	48 c7 85 00 f9 ff ff 	movq   $0x0,-0x700(%rbp)
   19acd:	00 00 00 00 
   19ad1:	48 8d 85 00 f9 ff ff 	lea    -0x700(%rbp),%rax
   19ad8:	48 89 85 08 f9 ff ff 	mov    %rax,-0x6f8(%rbp)
   19adf:	c6 85 3f f8 ff ff 00 	movb   $0x0,-0x7c1(%rbp)
   19ae6:	c7 85 d0 fb ff ff f8 	movl   $0xfffffff8,-0x430(%rbp)
   19aed:	ff ff ff 
   19af0:	c7 85 d4 fb ff ff f7 	movl   $0xfffffff7,-0x42c(%rbp)
   19af7:	ff ff ff 
   19afa:	c7 85 d8 fb ff ff f8 	movl   $0xfffffff8,-0x428(%rbp)
   19b01:	ff ff ff 
   19b04:	c7 85 dc fb ff ff 45 	movl   $0x1e8ac445,-0x424(%rbp)
   19b0b:	c4 8a 1e 
   19b0e:	c7 85 e0 fb ff ff a8 	movl   $0xfacea4a8,-0x420(%rbp)
   19b15:	a4 ce fa 
   19b18:	c7 85 e4 fb ff ff 45 	movl   $0x1e8ac445,-0x41c(%rbp)
   19b1f:	c4 8a 1e 
   19b22:	c7 85 e8 fb ff ff f8 	movl   $0xfffffff8,-0x418(%rbp)
   19b29:	ff ff ff 
   19b2c:	c7 85 ec fb ff ff f7 	movl   $0xfffffff7,-0x414(%rbp)
   19b33:	ff ff ff 
   19b36:	c7 85 f0 fb ff ff f8 	movl   $0xfffffff8,-0x410(%rbp)
   19b3d:	ff ff ff 
   19b40:	c7 85 f4 fb ff ff 45 	movl   $0x1e8ac445,-0x40c(%rbp)
   19b47:	c4 8a 1e 
   19b4a:	c7 85 f8 fb ff ff a8 	movl   $0xfacea4a8,-0x408(%rbp)
   19b51:	a4 ce fa 
   19b54:	c7 85 fc fb ff ff 45 	movl   $0x1e8ac445,-0x404(%rbp)
   19b5b:	c4 8a 1e 
   19b5e:	c7 85 00 fc ff ff f8 	movl   $0xfffffff8,-0x400(%rbp)
   19b65:	ff ff ff 
   19b68:	c7 85 04 fc ff ff f7 	movl   $0xfffffff7,-0x3fc(%rbp)
   19b6f:	ff ff ff 
   19b72:	c7 85 08 fc ff ff f8 	movl   $0xfffffff8,-0x3f8(%rbp)
   19b79:	ff ff ff 
   19b7c:	c7 85 0c fc ff ff 45 	movl   $0x1e8ac445,-0x3f4(%rbp)
   19b83:	c4 8a 1e 
   19b86:	c7 85 10 fc ff ff a8 	movl   $0xfacea4a8,-0x3f0(%rbp)
   19b8d:	a4 ce fa 
   19b90:	c7 85 14 fc ff ff 45 	movl   $0x1e8ac445,-0x3ec(%rbp)
   19b97:	c4 8a 1e 
   19b9a:	c7 85 18 fc ff ff f8 	movl   $0xfffffff8,-0x3e8(%rbp)
   19ba1:	ff ff ff 
   19ba4:	c7 85 1c fc ff ff f7 	movl   $0xfffffff7,-0x3e4(%rbp)
   19bab:	ff ff ff 
   19bae:	c7 85 20 fc ff ff f8 	movl   $0xfffffff8,-0x3e0(%rbp)
   19bb5:	ff ff ff 
   19bb8:	c7 85 24 fc ff ff 45 	movl   $0x1e8ac445,-0x3dc(%rbp)
   19bbf:	c4 8a 1e 
   19bc2:	c7 85 28 fc ff ff a8 	movl   $0xfacea4a8,-0x3d8(%rbp)
   19bc9:	a4 ce fa 
   19bcc:	c7 85 2c fc ff ff 45 	movl   $0x1e8ac445,-0x3d4(%rbp)
   19bd3:	c4 8a 1e 
   19bd6:	c7 85 30 fc ff ff f8 	movl   $0xfffffff8,-0x3d0(%rbp)
   19bdd:	ff ff ff 
   19be0:	c7 85 34 fc ff ff f7 	movl   $0xfffffff7,-0x3cc(%rbp)
   19be7:	ff ff ff 
   19bea:	c7 85 38 fc ff ff f8 	movl   $0xfffffff8,-0x3c8(%rbp)
   19bf1:	ff ff ff 
   19bf4:	c7 85 3c fc ff ff 45 	movl   $0x1e8ac445,-0x3c4(%rbp)
   19bfb:	c4 8a 1e 
   19bfe:	c7 85 40 fc ff ff a8 	movl   $0xfacea4a8,-0x3c0(%rbp)
   19c05:	a4 ce fa 
   19c08:	c7 85 44 fc ff ff 45 	movl   $0x1e8ac445,-0x3bc(%rbp)
   19c0f:	c4 8a 1e 
   19c12:	c7 85 48 fc ff ff f8 	movl   $0xfffffff8,-0x3b8(%rbp)
   19c19:	ff ff ff 
   19c1c:	c7 85 4c fc ff ff f7 	movl   $0xfffffff7,-0x3b4(%rbp)
   19c23:	ff ff ff 
   19c26:	c7 85 50 fc ff ff f8 	movl   $0xfffffff8,-0x3b0(%rbp)
   19c2d:	ff ff ff 
   19c30:	c7 85 54 fc ff ff 45 	movl   $0x1e8ac445,-0x3ac(%rbp)
   19c37:	c4 8a 1e 
   19c3a:	c7 85 58 fc ff ff a8 	movl   $0xfacea4a8,-0x3a8(%rbp)
   19c41:	a4 ce fa 
   19c44:	c7 85 5c fc ff ff 45 	movl   $0x1e8ac445,-0x3a4(%rbp)
   19c4b:	c4 8a 1e 
   19c4e:	c7 85 60 fc ff ff f8 	movl   $0xfffffff8,-0x3a0(%rbp)
   19c55:	ff ff ff 
   19c58:	c7 85 64 fc ff ff f7 	movl   $0xfffffff7,-0x39c(%rbp)
   19c5f:	ff ff ff 
   19c62:	c7 85 68 fc ff ff f8 	movl   $0xfffffff8,-0x398(%rbp)
   19c69:	ff ff ff 
   19c6c:	c7 85 6c fc ff ff 45 	movl   $0x1e8ac445,-0x394(%rbp)
   19c73:	c4 8a 1e 
   19c76:	c7 85 70 fc ff ff a8 	movl   $0xfacea4a8,-0x390(%rbp)
   19c7d:	a4 ce fa 
   19c80:	c7 85 74 fc ff ff 45 	movl   $0x1e8ac445,-0x38c(%rbp)
   19c87:	c4 8a 1e 
   19c8a:	c7 85 78 fc ff ff f8 	movl   $0xfffffff8,-0x388(%rbp)
   19c91:	ff ff ff 
   19c94:	c7 85 7c fc ff ff f7 	movl   $0xfffffff7,-0x384(%rbp)
   19c9b:	ff ff ff 
   19c9e:	c7 85 80 fc ff ff f8 	movl   $0xfffffff8,-0x380(%rbp)
   19ca5:	ff ff ff 
   19ca8:	c7 85 84 fc ff ff 45 	movl   $0x1e8ac445,-0x37c(%rbp)
   19caf:	c4 8a 1e 
   19cb2:	c7 85 88 fc ff ff a8 	movl   $0xfacea4a8,-0x378(%rbp)
   19cb9:	a4 ce fa 
   19cbc:	c7 85 8c fc ff ff 45 	movl   $0x1e8ac445,-0x374(%rbp)
   19cc3:	c4 8a 1e 
   19cc6:	c7 85 90 fc ff ff f8 	movl   $0xfffffff8,-0x370(%rbp)
   19ccd:	ff ff ff 
   19cd0:	c7 85 94 fc ff ff f7 	movl   $0xfffffff7,-0x36c(%rbp)
   19cd7:	ff ff ff 
   19cda:	c7 85 98 fc ff ff f8 	movl   $0xfffffff8,-0x368(%rbp)
   19ce1:	ff ff ff 
   19ce4:	c7 85 9c fc ff ff 45 	movl   $0x1e8ac445,-0x364(%rbp)
   19ceb:	c4 8a 1e 
   19cee:	c7 85 a0 fc ff ff a8 	movl   $0xfacea4a8,-0x360(%rbp)
   19cf5:	a4 ce fa 
   19cf8:	c7 85 a4 fc ff ff 45 	movl   $0x1e8ac445,-0x35c(%rbp)
   19cff:	c4 8a 1e 
   19d02:	48 8d 05 cf b3 00 00 	lea    0xb3cf(%rip),%rax        # 250d8 <g_256+0x18>
   19d09:	48 89 85 48 f9 ff ff 	mov    %rax,-0x6b8(%rbp)
   19d10:	48 c7 85 50 f9 ff ff 	movq   $0x0,-0x6b0(%rbp)
   19d17:	00 00 00 00 
   19d1b:	48 c7 85 58 f9 ff ff 	movq   $0x2,-0x6a8(%rbp)
   19d22:	02 00 00 00 
   19d26:	c7 85 54 f8 ff ff 00 	movl   $0x0,-0x7ac(%rbp)
   19d2d:	00 00 00 
   19d30:	eb 1e                	jmp    19d50 <func_69+0x394>
   19d32:	8b 85 54 f8 ff ff    	mov    -0x7ac(%rbp),%eax
   19d38:	48 98                	cltq   
   19d3a:	48 8d 15 37 b3 00 00 	lea    0xb337(%rip),%rdx        # 25078 <g_64>
   19d41:	48 89 94 c5 50 fa ff 	mov    %rdx,-0x5b0(%rbp,%rax,8)
   19d48:	ff 
   19d49:	83 85 54 f8 ff ff 01 	addl   $0x1,-0x7ac(%rbp)
   19d50:	83 bd 54 f8 ff ff 07 	cmpl   $0x7,-0x7ac(%rbp)
   19d57:	7e d9                	jle    19d32 <func_69+0x376>
   19d59:	c7 85 54 f8 ff ff 00 	movl   $0x0,-0x7ac(%rbp)
   19d60:	00 00 00 
   19d63:	eb 46                	jmp    19dab <func_69+0x3ef>
   19d65:	c7 85 58 f8 ff ff 00 	movl   $0x0,-0x7a8(%rbp)
   19d6c:	00 00 00 
   19d6f:	eb 2a                	jmp    19d9b <func_69+0x3df>
   19d71:	8b 85 58 f8 ff ff    	mov    -0x7a8(%rbp),%eax
   19d77:	48 98                	cltq   
   19d79:	8b 95 54 f8 ff ff    	mov    -0x7ac(%rbp),%edx
   19d7f:	48 63 d2             	movslq %edx,%rdx
   19d82:	48 c1 e2 02          	shl    $0x2,%rdx
   19d86:	48 01 d0             	add    %rdx,%rax
   19d89:	c7 84 85 20 fa ff ff 	movl   $0xffffffff,-0x5e0(%rbp,%rax,4)
   19d90:	ff ff ff ff 
   19d94:	83 85 58 f8 ff ff 01 	addl   $0x1,-0x7a8(%rbp)
   19d9b:	83 bd 58 f8 ff ff 03 	cmpl   $0x3,-0x7a8(%rbp)
   19da2:	7e cd                	jle    19d71 <func_69+0x3b5>
   19da4:	83 85 54 f8 ff ff 01 	addl   $0x1,-0x7ac(%rbp)
   19dab:	83 bd 54 f8 ff ff 00 	cmpl   $0x0,-0x7ac(%rbp)
   19db2:	7e b1                	jle    19d65 <func_69+0x3a9>
   19db4:	90                   	nop
   19db5:	c6 05 c4 b2 00 00 00 	movb   $0x0,0xb2c4(%rip)        # 25080 <g_112>
   19dbc:	e9 46 08 00 00       	jmpq   1a607 <func_69+0xc4b>
   19dc1:	48 8d 85 f0 f8 ff ff 	lea    -0x710(%rbp),%rax
   19dc8:	48 89 85 d0 f9 ff ff 	mov    %rax,-0x630(%rbp)
   19dcf:	48 c7 85 d8 f9 ff ff 	movq   $0x0,-0x628(%rbp)
   19dd6:	00 00 00 00 
   19dda:	c7 85 d8 f8 ff ff 5f 	movl   $0x9e30d65f,-0x728(%rbp)
   19de1:	d6 30 9e 
   19de4:	48 8d 05 fd b2 00 00 	lea    0xb2fd(%rip),%rax        # 250e8 <g_327>
   19deb:	48 89 85 28 f9 ff ff 	mov    %rax,-0x6d8(%rbp)
   19df2:	48 8d 05 87 b2 00 00 	lea    0xb287(%rip),%rax        # 25080 <g_112>
   19df9:	48 89 85 30 fb ff ff 	mov    %rax,-0x4d0(%rbp)
   19e00:	48 c7 85 38 fb ff ff 	movq   $0x0,-0x4c8(%rbp)
   19e07:	00 00 00 00 
   19e0b:	48 c7 85 40 fb ff ff 	movq   $0x0,-0x4c0(%rbp)
   19e12:	00 00 00 00 
   19e16:	48 8d 05 63 b2 00 00 	lea    0xb263(%rip),%rax        # 25080 <g_112>
   19e1d:	48 89 85 48 fb ff ff 	mov    %rax,-0x4b8(%rbp)
   19e24:	48 8d 05 55 b2 00 00 	lea    0xb255(%rip),%rax        # 25080 <g_112>
   19e2b:	48 89 85 50 fb ff ff 	mov    %rax,-0x4b0(%rbp)
   19e32:	48 8d 05 47 b2 00 00 	lea    0xb247(%rip),%rax        # 25080 <g_112>
   19e39:	48 89 85 58 fb ff ff 	mov    %rax,-0x4a8(%rbp)
   19e40:	48 c7 85 60 fb ff ff 	movq   $0x0,-0x4a0(%rbp)
   19e47:	00 00 00 00 
   19e4b:	48 c7 85 68 fb ff ff 	movq   $0x0,-0x498(%rbp)
   19e52:	00 00 00 00 
   19e56:	48 8d 05 23 b2 00 00 	lea    0xb223(%rip),%rax        # 25080 <g_112>
   19e5d:	48 89 85 70 fb ff ff 	mov    %rax,-0x490(%rbp)
   19e64:	48 8d 05 15 b2 00 00 	lea    0xb215(%rip),%rax        # 25080 <g_112>
   19e6b:	48 89 85 78 fb ff ff 	mov    %rax,-0x488(%rbp)
   19e72:	48 8d 05 07 b2 00 00 	lea    0xb207(%rip),%rax        # 25080 <g_112>
   19e79:	48 89 85 80 fb ff ff 	mov    %rax,-0x480(%rbp)
   19e80:	48 c7 85 88 fb ff ff 	movq   $0x0,-0x478(%rbp)
   19e87:	00 00 00 00 
   19e8b:	48 c7 85 90 fb ff ff 	movq   $0x0,-0x470(%rbp)
   19e92:	00 00 00 00 
   19e96:	48 8d 05 e3 b1 00 00 	lea    0xb1e3(%rip),%rax        # 25080 <g_112>
   19e9d:	48 89 85 98 fb ff ff 	mov    %rax,-0x468(%rbp)
   19ea4:	48 8d 05 d5 b1 00 00 	lea    0xb1d5(%rip),%rax        # 25080 <g_112>
   19eab:	48 89 85 a0 fb ff ff 	mov    %rax,-0x460(%rbp)
   19eb2:	48 8d 05 c7 b1 00 00 	lea    0xb1c7(%rip),%rax        # 25080 <g_112>
   19eb9:	48 89 85 a8 fb ff ff 	mov    %rax,-0x458(%rbp)
   19ec0:	48 c7 85 b0 fb ff ff 	movq   $0x0,-0x450(%rbp)
   19ec7:	00 00 00 00 
   19ecb:	48 c7 85 b8 fb ff ff 	movq   $0x0,-0x448(%rbp)
   19ed2:	00 00 00 00 
   19ed6:	48 8d 05 a3 b1 00 00 	lea    0xb1a3(%rip),%rax        # 25080 <g_112>
   19edd:	48 89 85 c0 fb ff ff 	mov    %rax,-0x440(%rbp)
   19ee4:	48 8d 05 95 b1 00 00 	lea    0xb195(%rip),%rax        # 25080 <g_112>
   19eeb:	48 89 85 c8 fb ff ff 	mov    %rax,-0x438(%rbp)
   19ef2:	c7 85 dc f8 ff ff f9 	movl   $0xfffffff9,-0x724(%rbp)
   19ef9:	ff ff ff 
   19efc:	48 8d 05 f5 b1 00 00 	lea    0xb1f5(%rip),%rax        # 250f8 <g_708>
   19f03:	48 89 85 e0 f9 ff ff 	mov    %rax,-0x620(%rbp)
   19f0a:	48 8d 85 d0 fd ff ff 	lea    -0x230(%rbp),%rax
   19f11:	48 8d 15 08 df 00 00 	lea    0xdf08(%rip),%rdx        # 27e20 <g_4523+0x1a20>
   19f18:	b9 3f 00 00 00       	mov    $0x3f,%ecx
   19f1d:	48 89 c7             	mov    %rax,%rdi
   19f20:	48 89 d6             	mov    %rdx,%rsi
   19f23:	f3 48 a5             	rep movsq %ds:(%rsi),%es:(%rdi)
   19f26:	66 c7 85 4c f8 ff ff 	movw   $0x1,-0x7b4(%rbp)
   19f2d:	01 00 
   19f2f:	48 8d 85 28 f9 ff ff 	lea    -0x6d8(%rbp),%rax
   19f36:	48 89 85 d0 fa ff ff 	mov    %rax,-0x530(%rbp)
   19f3d:	48 8d 85 28 f9 ff ff 	lea    -0x6d8(%rbp),%rax
   19f44:	48 89 85 d8 fa ff ff 	mov    %rax,-0x528(%rbp)
   19f4b:	48 8d 85 28 f9 ff ff 	lea    -0x6d8(%rbp),%rax
   19f52:	48 89 85 e0 fa ff ff 	mov    %rax,-0x520(%rbp)
   19f59:	48 8d 85 28 f9 ff ff 	lea    -0x6d8(%rbp),%rax
   19f60:	48 89 85 e8 fa ff ff 	mov    %rax,-0x518(%rbp)
   19f67:	48 8d 85 28 f9 ff ff 	lea    -0x6d8(%rbp),%rax
   19f6e:	48 89 85 f0 fa ff ff 	mov    %rax,-0x510(%rbp)
   19f75:	48 8d 85 28 f9 ff ff 	lea    -0x6d8(%rbp),%rax
   19f7c:	48 89 85 f8 fa ff ff 	mov    %rax,-0x508(%rbp)
   19f83:	48 8d 85 28 f9 ff ff 	lea    -0x6d8(%rbp),%rax
   19f8a:	48 89 85 00 fb ff ff 	mov    %rax,-0x500(%rbp)
   19f91:	48 8d 85 28 f9 ff ff 	lea    -0x6d8(%rbp),%rax
   19f98:	48 89 85 08 fb ff ff 	mov    %rax,-0x4f8(%rbp)
   19f9f:	48 8d 85 28 f9 ff ff 	lea    -0x6d8(%rbp),%rax
   19fa6:	48 89 85 10 fb ff ff 	mov    %rax,-0x4f0(%rbp)
   19fad:	48 8d 85 28 f9 ff ff 	lea    -0x6d8(%rbp),%rax
   19fb4:	48 89 85 18 fb ff ff 	mov    %rax,-0x4e8(%rbp)
   19fbb:	48 8d 85 28 f9 ff ff 	lea    -0x6d8(%rbp),%rax
   19fc2:	48 89 85 20 fb ff ff 	mov    %rax,-0x4e0(%rbp)
   19fc9:	48 c7 85 28 fb ff ff 	movq   $0x0,-0x4d8(%rbp)
   19fd0:	00 00 00 00 
   19fd4:	48 8d 85 d0 fa ff ff 	lea    -0x530(%rbp),%rax
   19fdb:	48 83 c0 30          	add    $0x30,%rax
   19fdf:	48 89 85 e8 f9 ff ff 	mov    %rax,-0x618(%rbp)
   19fe6:	c7 85 5c f8 ff ff 00 	movl   $0x0,-0x7a4(%rbp)
   19fed:	00 00 00 
   19ff0:	eb 1e                	jmp    1a010 <func_69+0x654>
   19ff2:	8b 85 5c f8 ff ff    	mov    -0x7a4(%rbp),%eax
   19ff8:	48 98                	cltq   
   19ffa:	48 8d 15 eb b0 00 00 	lea    0xb0eb(%rip),%rdx        # 250ec <g_362>
   1a001:	48 89 94 c5 30 fa ff 	mov    %rdx,-0x5d0(%rbp,%rax,8)
   1a008:	ff 
   1a009:	83 85 5c f8 ff ff 01 	addl   $0x1,-0x7a4(%rbp)
   1a010:	83 bd 5c f8 ff ff 02 	cmpl   $0x2,-0x7a4(%rbp)
   1a017:	7e d9                	jle    19ff2 <func_69+0x636>
   1a019:	48 8b 05 90 e8 00 00 	mov    0xe890(%rip),%rax        # 288b0 <g_426>
   1a020:	8b 10                	mov    (%rax),%edx
   1a022:	0f b6 05 57 b0 00 00 	movzbl 0xb057(%rip),%eax        # 25080 <g_112>
   1a029:	0f b6 c0             	movzbl %al,%eax
   1a02c:	48 98                	cltq   
   1a02e:	48 8d 0c 00          	lea    (%rax,%rax,1),%rcx
   1a032:	48 8d 05 67 b0 00 00 	lea    0xb067(%rip),%rax        # 250a0 <g_210>
   1a039:	0f b7 04 01          	movzwl (%rcx,%rax,1),%eax
   1a03d:	0f b7 c0             	movzwl %ax,%eax
   1a040:	89 d6                	mov    %edx,%esi
   1a042:	89 c7                	mov    %eax,%edi
   1a044:	e8 83 16 ff ff       	callq  b6cc <safe_mod_func_int32_t_s_s>
   1a049:	0f b7 c0             	movzwl %ax,%eax
   1a04c:	be 0b 00 00 00       	mov    $0xb,%esi
   1a051:	89 c7                	mov    %eax,%edi
   1a053:	e8 f0 1d ff ff       	callq  be48 <safe_rshift_func_uint16_t_u_s>
   1a058:	66 85 c0             	test   %ax,%ax
   1a05b:	0f 84 99 00 00 00    	je     1a0fa <func_69+0x73e>
   1a061:	0f b7 05 88 b0 00 00 	movzwl 0xb088(%rip),%eax        # 250f0 <g_685>
   1a068:	4c 0f bf e0          	movswq %ax,%r12
   1a06c:	8b 9d d8 f8 ff ff    	mov    -0x728(%rbp),%ebx
   1a072:	0f b6 05 07 b0 00 00 	movzbl 0xb007(%rip),%eax        # 25080 <g_112>
   1a079:	0f b6 c0             	movzbl %al,%eax
   1a07c:	48 98                	cltq   
   1a07e:	48 8d 14 00          	lea    (%rax,%rax,1),%rdx
   1a082:	48 8d 05 17 b0 00 00 	lea    0xb017(%rip),%rax        # 250a0 <g_210>
   1a089:	0f b7 04 02          	movzwl (%rdx,%rax,1),%eax
   1a08d:	0f b7 c0             	movzwl %ax,%eax
   1a090:	48 c7 85 30 f9 ff ff 	movq   $0x0,-0x6d0(%rbp)
   1a097:	00 00 00 00 
   1a09b:	48 8b 95 30 f9 ff ff 	mov    -0x6d0(%rbp),%rdx
   1a0a2:	48 3b 95 d8 f9 ff ff 	cmp    -0x628(%rbp),%rdx
   1a0a9:	75 28                	jne    1a0d3 <func_69+0x717>
   1a0ab:	0f b6 15 ce af 00 00 	movzbl 0xafce(%rip),%edx        # 25080 <g_112>
   1a0b2:	0f b6 d2             	movzbl %dl,%edx
   1a0b5:	48 63 d2             	movslq %edx,%rdx
   1a0b8:	48 8d 0c 12          	lea    (%rdx,%rdx,1),%rcx
   1a0bc:	48 8d 15 dd af 00 00 	lea    0xafdd(%rip),%rdx        # 250a0 <g_210>
   1a0c3:	0f b7 14 11          	movzwl (%rcx,%rdx,1),%edx
   1a0c7:	66 85 d2             	test   %dx,%dx
   1a0ca:	74 07                	je     1a0d3 <func_69+0x717>
   1a0cc:	ba 01 00 00 00       	mov    $0x1,%edx
   1a0d1:	eb 05                	jmp    1a0d8 <func_69+0x71c>
   1a0d3:	ba 00 00 00 00       	mov    $0x0,%edx
   1a0d8:	89 c6                	mov    %eax,%esi
   1a0da:	89 d7                	mov    %edx,%edi
   1a0dc:	e8 1c 1e ff ff       	callq  befd <safe_mod_func_uint32_t_u_u>
   1a0e1:	48 89 de             	mov    %rbx,%rsi
   1a0e4:	bf 6b 47 00 00       	mov    $0x476b,%edi
   1a0e9:	e8 c6 18 ff ff       	callq  b9b4 <safe_mod_func_int64_t_s_s>
   1a0ee:	49 39 c4             	cmp    %rax,%r12
   1a0f1:	7e 07                	jle    1a0fa <func_69+0x73e>
   1a0f3:	b8 01 00 00 00       	mov    $0x1,%eax
   1a0f8:	eb 05                	jmp    1a0ff <func_69+0x743>
   1a0fa:	b8 00 00 00 00       	mov    $0x0,%eax
   1a0ff:	89 c6                	mov    %eax,%esi
   1a101:	bf 05 00 00 00       	mov    $0x5,%edi
   1a106:	e8 58 14 ff ff       	callq  b563 <safe_rshift_func_int16_t_s_u>
   1a10b:	98                   	cwtl   
   1a10c:	89 c6                	mov    %eax,%esi
   1a10e:	bf 60 bc 3c ae       	mov    $0xae3cbc60,%edi
   1a113:	e8 9e 14 ff ff       	callq  b5b6 <safe_add_func_int32_t_s_s>
   1a118:	48 8b 95 f0 f8 ff ff 	mov    -0x710(%rbp),%rdx
   1a11f:	48 8b 85 d0 f9 ff ff 	mov    -0x630(%rbp),%rax
   1a126:	48 89 10             	mov    %rdx,(%rax)
   1a129:	48 8b 85 d0 f9 ff ff 	mov    -0x630(%rbp),%rax
   1a130:	48 8b 00             	mov    (%rax),%rax
   1a133:	48 85 c0             	test   %rax,%rax
   1a136:	0f 94 c0             	sete   %al
   1a139:	0f b6 d0             	movzbl %al,%edx
   1a13c:	b8 ea a8 ff ff       	mov    $0xffffa8ea,%eax
   1a141:	83 c8 01             	or     $0x1,%eax
   1a144:	98                   	cwtl   
   1a145:	21 d0                	and    %edx,%eax
   1a147:	85 c0                	test   %eax,%eax
   1a149:	74 07                	je     1a152 <func_69+0x796>
   1a14b:	ba 01 00 00 00       	mov    $0x1,%edx
   1a150:	eb 05                	jmp    1a157 <func_69+0x79b>
   1a152:	ba 00 00 00 00       	mov    $0x0,%edx
   1a157:	48 8b 05 62 e4 00 00 	mov    0xe462(%rip),%rax        # 285c0 <g_91>
   1a15e:	89 10                	mov    %edx,(%rax)
   1a160:	48 8b 05 c9 e4 00 00 	mov    0xe4c9(%rip),%rax        # 28630 <g_180>
   1a167:	48 8b 95 28 f8 ff ff 	mov    -0x7d8(%rbp),%rdx
   1a16e:	48 89 10             	mov    %rdx,(%rax)
   1a171:	66 c7 05 1e af 00 00 	movw   $0x0,0xaf1e(%rip)        # 25098 <g_196>
   1a178:	00 00 
   1a17a:	e9 15 04 00 00       	jmpq   1a594 <func_69+0xbd8>
   1a17f:	48 b8 6b f2 86 4c bc 	movabs $0xae8feabc4c86f26b,%rax
   1a186:	ea 8f ae 
   1a189:	48 89 85 00 fa ff ff 	mov    %rax,-0x600(%rbp)
   1a190:	c7 85 60 f8 ff ff 30 	movl   $0xef123a30,-0x7a0(%rbp)
   1a197:	3a 12 ef 
   1a19a:	c7 05 70 af 00 00 00 	movl   $0x0,0xaf70(%rip)        # 25114 <g_849>
   1a1a1:	00 00 00 
   1a1a4:	e9 9a 03 00 00       	jmpq   1a543 <func_69+0xb87>
   1a1a9:	c7 85 e0 f8 ff ff 99 	movl   $0x1f815699,-0x720(%rbp)
   1a1b0:	56 81 1f 
   1a1b3:	c7 85 e4 f8 ff ff 1c 	movl   $0x9e51c81c,-0x71c(%rbp)
   1a1ba:	c8 51 9e 
   1a1bd:	c7 05 51 0c 01 00 00 	movl   $0x0,0x10c51(%rip)        # 2ae18 <g_626>
   1a1c4:	00 00 00 
   1a1c7:	e9 83 02 00 00       	jmpq   1a44f <func_69+0xa93>
   1a1cc:	66 c7 85 4e f8 ff ff 	movw   $0xe87b,-0x7b2(%rbp)
   1a1d3:	7b e8 
   1a1d5:	48 8d 05 9c ae 00 00 	lea    0xae9c(%rip),%rax        # 25078 <g_64>
   1a1dc:	48 89 85 08 fa ff ff 	mov    %rax,-0x5f8(%rbp)
   1a1e3:	48 c7 05 12 af 00 00 	movq   $0x0,0xaf12(%rip)        # 25100 <g_709>
   1a1ea:	00 00 00 00 
   1a1ee:	e9 3c 02 00 00       	jmpq   1a42f <func_69+0xa73>
   1a1f3:	48 8b 05 c6 e3 00 00 	mov    0xe3c6(%rip),%rax        # 285c0 <g_91>
   1a1fa:	48 8b 95 00 fa ff ff 	mov    -0x600(%rbp),%rdx
   1a201:	89 10                	mov    %edx,(%rax)
   1a203:	0f b7 85 24 f8 ff ff 	movzwl -0x7dc(%rbp),%eax
   1a20a:	0f b7 d8             	movzwl %ax,%ebx
   1a20d:	48 8d 05 ec ae 00 00 	lea    0xaeec(%rip),%rax        # 25100 <g_709>
   1a214:	48 89 85 70 ff ff ff 	mov    %rax,-0x90(%rbp)
   1a21b:	48 8b 85 70 ff ff ff 	mov    -0x90(%rbp),%rax
   1a222:	48 8d 15 5f ae 00 00 	lea    0xae5f(%rip),%rdx        # 25088 <g_151>
   1a229:	48 39 d0             	cmp    %rdx,%rax
   1a22c:	0f 94 c0             	sete   %al
   1a22f:	44 0f b6 e8          	movzbl %al,%r13d
   1a233:	0f b7 05 6a ae 00 00 	movzwl 0xae6a(%rip),%eax        # 250a4 <g_210+0x4>
   1a23a:	44 0f b7 e0          	movzwl %ax,%r12d
   1a23e:	48 83 bd 00 fa ff ff 	cmpq   $0x0,-0x600(%rbp)
   1a245:	00 
   1a246:	75 6c                	jne    1a2b4 <func_69+0x8f8>
   1a248:	48 8b 85 e0 f9 ff ff 	mov    -0x620(%rbp),%rax
   1a24f:	48 8b 00             	mov    (%rax),%rax
   1a252:	48 8d 50 01          	lea    0x1(%rax),%rdx
   1a256:	48 8b 85 e0 f9 ff ff 	mov    -0x620(%rbp),%rax
   1a25d:	48 89 10             	mov    %rdx,(%rax)
   1a260:	48 8b 85 e0 f9 ff ff 	mov    -0x620(%rbp),%rax
   1a267:	48 8b 10             	mov    (%rax),%rdx
   1a26a:	b8 ea a8 ff ff       	mov    $0xffffa8ea,%eax
   1a26f:	48 0f bf c0          	movswq %ax,%rax
   1a273:	48 39 c2             	cmp    %rax,%rdx
   1a276:	0f 94 c0             	sete   %al
   1a279:	0f b6 d0             	movzbl %al,%edx
   1a27c:	48 8b 05 bd e3 00 00 	mov    0xe3bd(%rip),%rax        # 28640 <g_357>
   1a283:	0f b7 00             	movzwl (%rax),%eax
   1a286:	0f b7 c0             	movzwl %ax,%eax
   1a289:	39 c2                	cmp    %eax,%edx
   1a28b:	0f 9c c0             	setl   %al
   1a28e:	0f b6 d0             	movzbl %al,%edx
   1a291:	0f b7 85 24 f8 ff ff 	movzwl -0x7dc(%rbp),%eax
   1a298:	66 89 85 4c f8 ff ff 	mov    %ax,-0x7b4(%rbp)
   1a29f:	0f bf 85 4c f8 ff ff 	movswl -0x7b4(%rbp),%eax
   1a2a6:	89 d6                	mov    %edx,%esi
   1a2a8:	89 c7                	mov    %eax,%edi
   1a2aa:	e8 b4 12 ff ff       	callq  b563 <safe_rshift_func_int16_t_s_u>
   1a2af:	66 85 c0             	test   %ax,%ax
   1a2b2:	74 07                	je     1a2bb <func_69+0x8ff>
   1a2b4:	b8 01 00 00 00       	mov    $0x1,%eax
   1a2b9:	eb 05                	jmp    1a2c0 <func_69+0x904>
   1a2bb:	b8 00 00 00 00       	mov    $0x0,%eax
   1a2c0:	98                   	cwtl   
   1a2c1:	44 89 e6             	mov    %r12d,%esi
   1a2c4:	89 c7                	mov    %eax,%edi
   1a2c6:	e8 5f 12 ff ff       	callq  b52a <safe_rshift_func_int16_t_s_s>
   1a2cb:	98                   	cwtl   
   1a2cc:	41 39 c5             	cmp    %eax,%r13d
   1a2cf:	0f 9d c0             	setge  %al
   1a2d2:	0f b6 c0             	movzbl %al,%eax
   1a2d5:	48 89 c6             	mov    %rax,%rsi
   1a2d8:	48 bf cf 31 71 54 75 	movabs $0x2b369675547131cf,%rdi
   1a2df:	96 36 2b 
   1a2e2:	e8 c1 15 ff ff       	callq  b8a8 <safe_sub_func_int64_t_s_s>
   1a2e7:	0f b7 c0             	movzwl %ax,%eax
   1a2ea:	89 de                	mov    %ebx,%esi
   1a2ec:	89 c7                	mov    %eax,%edi
   1a2ee:	e8 69 1a ff ff       	callq  bd5c <safe_mod_func_uint16_t_u_u>
   1a2f3:	0f b7 85 24 f8 ff ff 	movzwl -0x7dc(%rbp),%eax
   1a2fa:	66 85 c0             	test   %ax,%ax
   1a2fd:	0f 9e c0             	setle  %al
   1a300:	0f b6 c0             	movzbl %al,%eax
   1a303:	be 2c 00 00 00       	mov    $0x2c,%esi
   1a308:	89 c7                	mov    %eax,%edi
   1a30a:	e8 22 0f ff ff       	callq  b231 <safe_mod_func_int8_t_s_s>
   1a30f:	84 c0                	test   %al,%al
   1a311:	74 13                	je     1a326 <func_69+0x96a>
   1a313:	0f b7 85 24 f8 ff ff 	movzwl -0x7dc(%rbp),%eax
   1a31a:	66 85 c0             	test   %ax,%ax
   1a31d:	74 07                	je     1a326 <func_69+0x96a>
   1a31f:	b8 01 00 00 00       	mov    $0x1,%eax
   1a324:	eb 05                	jmp    1a32b <func_69+0x96f>
   1a326:	b8 00 00 00 00       	mov    $0x0,%eax
   1a32b:	83 f8 01             	cmp    $0x1,%eax
   1a32e:	0f 97 c0             	seta   %al
   1a331:	0f b6 c0             	movzbl %al,%eax
   1a334:	89 85 dc f8 ff ff    	mov    %eax,-0x724(%rbp)
   1a33a:	8b 85 dc f8 ff ff    	mov    -0x724(%rbp),%eax
   1a340:	21 85 60 f8 ff ff    	and    %eax,-0x7a0(%rbp)
   1a346:	48 8b 05 d3 e2 00 00 	mov    0xe2d3(%rip),%rax        # 28620 <g_176>
   1a34d:	48 8b 00             	mov    (%rax),%rax
   1a350:	48 85 c0             	test   %rax,%rax
   1a353:	0f 95 c0             	setne  %al
   1a356:	0f b6 c0             	movzbl %al,%eax
   1a359:	31 85 dc f8 ff ff    	xor    %eax,-0x724(%rbp)
   1a35f:	48 8b 85 00 fa ff ff 	mov    -0x600(%rbp),%rax
   1a366:	0f b6 c0             	movzbl %al,%eax
   1a369:	89 c6                	mov    %eax,%esi
   1a36b:	bf 06 00 00 00       	mov    $0x6,%edi
   1a370:	e8 1e 18 ff ff       	callq  bb93 <safe_mul_func_uint8_t_u_u>
   1a375:	0f b7 85 24 f8 ff ff 	movzwl -0x7dc(%rbp),%eax
   1a37c:	48 0f bf d0          	movswq %ax,%rdx
   1a380:	48 8b 05 21 e5 00 00 	mov    0xe521(%rip),%rax        # 288a8 <g_371>
   1a387:	48 8b 00             	mov    (%rax),%rax
   1a38a:	48 39 85 e8 f9 ff ff 	cmp    %rax,-0x618(%rbp)
   1a391:	0f 95 c0             	setne  %al
   1a394:	0f b6 c0             	movzbl %al,%eax
   1a397:	48 89 d6             	mov    %rdx,%rsi
   1a39a:	48 89 c7             	mov    %rax,%rdi
   1a39d:	e8 de 1c ff ff       	callq  c080 <safe_mod_func_uint64_t_u_u>
   1a3a2:	0f b7 85 24 f8 ff ff 	movzwl -0x7dc(%rbp),%eax
   1a3a9:	0f bf d0             	movswl %ax,%edx
   1a3ac:	0f b7 8d 4e f8 ff ff 	movzwl -0x7b2(%rbp),%ecx
   1a3b3:	0f b7 85 24 f8 ff ff 	movzwl -0x7dc(%rbp),%eax
   1a3ba:	98                   	cwtl   
   1a3bb:	39 c1                	cmp    %eax,%ecx
   1a3bd:	0f 9d c0             	setge  %al
   1a3c0:	0f b6 c0             	movzbl %al,%eax
   1a3c3:	39 c2                	cmp    %eax,%edx
   1a3c5:	0f 9d c0             	setge  %al
   1a3c8:	0f b6 d0             	movzbl %al,%edx
   1a3cb:	0f b7 85 24 f8 ff ff 	movzwl -0x7dc(%rbp),%eax
   1a3d2:	98                   	cwtl   
   1a3d3:	39 c2                	cmp    %eax,%edx
   1a3d5:	0f 94 c0             	sete   %al
   1a3d8:	0f b6 d0             	movzbl %al,%edx
   1a3db:	48 8b 85 e0 f9 ff ff 	mov    -0x620(%rbp),%rax
   1a3e2:	48 89 10             	mov    %rdx,(%rax)
   1a3e5:	48 8b 85 e0 f9 ff ff 	mov    -0x620(%rbp),%rax
   1a3ec:	48 8b 00             	mov    (%rax),%rax
   1a3ef:	48 89 c7             	mov    %rax,%rdi
   1a3f2:	e8 22 1c ff ff       	callq  c019 <safe_unary_minus_func_uint64_t_u>
   1a3f7:	89 c2                	mov    %eax,%edx
   1a3f9:	0f b7 05 dc ac 00 00 	movzwl 0xacdc(%rip),%eax        # 250dc <g_256+0x1c>
   1a400:	0f b7 c0             	movzwl %ax,%eax
   1a403:	89 d6                	mov    %edx,%esi
   1a405:	89 c7                	mov    %eax,%edi
   1a407:	e8 c4 1a ff ff       	callq  bed0 <safe_sub_func_uint32_t_u_u>
   1a40c:	48 8b 05 a5 e4 00 00 	mov    0xe4a5(%rip),%rax        # 288b8 <g_425>
   1a413:	48 8b 95 08 fa ff ff 	mov    -0x5f8(%rbp),%rdx
   1a41a:	48 89 10             	mov    %rdx,(%rax)
   1a41d:	48 8b 05 dc ac 00 00 	mov    0xacdc(%rip),%rax        # 25100 <g_709>
   1a424:	48 83 c0 01          	add    $0x1,%rax
   1a428:	48 89 05 d1 ac 00 00 	mov    %rax,0xacd1(%rip)        # 25100 <g_709>
   1a42f:	48 8b 05 ca ac 00 00 	mov    0xacca(%rip),%rax        # 25100 <g_709>
   1a436:	48 83 f8 01          	cmp    $0x1,%rax
   1a43a:	0f 8e b3 fd ff ff    	jle    1a1f3 <func_69+0x837>
   1a440:	8b 05 d2 09 01 00    	mov    0x109d2(%rip),%eax        # 2ae18 <g_626>
   1a446:	83 c0 01             	add    $0x1,%eax
   1a449:	89 05 c9 09 01 00    	mov    %eax,0x109c9(%rip)        # 2ae18 <g_626>
   1a44f:	8b 05 c3 09 01 00    	mov    0x109c3(%rip),%eax        # 2ae18 <g_626>
   1a455:	83 f8 01             	cmp    $0x1,%eax
   1a458:	0f 8e 6e fd ff ff    	jle    1a1cc <func_69+0x810>
   1a45e:	48 c7 05 8f ac 00 00 	movq   $0x0,0xac8f(%rip)        # 250f8 <g_708>
   1a465:	00 00 00 00 
   1a469:	e9 b5 00 00 00       	jmpq   1a523 <func_69+0xb67>
   1a46e:	8b 15 a0 ac 00 00    	mov    0xaca0(%rip),%edx        # 25114 <g_849>
   1a474:	48 8b 05 7d ac 00 00 	mov    0xac7d(%rip),%rax        # 250f8 <g_708>
   1a47b:	48 8d 48 02          	lea    0x2(%rax),%rcx
   1a47f:	89 d2                	mov    %edx,%edx
   1a481:	48 89 d0             	mov    %rdx,%rax
   1a484:	48 c1 e0 02          	shl    $0x2,%rax
   1a488:	48 01 d0             	add    %rdx,%rax
   1a48b:	48 01 c0             	add    %rax,%rax
   1a48e:	48 01 c8             	add    %rcx,%rax
   1a491:	48 8d 14 00          	lea    (%rax,%rax,1),%rdx
   1a495:	48 8d 05 24 ac 00 00 	lea    0xac24(%rip),%rax        # 250c0 <g_256>
   1a49c:	0f b7 04 02          	movzwl (%rdx,%rax,1),%eax
   1a4a0:	66 85 c0             	test   %ax,%ax
   1a4a3:	74 0c                	je     1a4b1 <func_69+0xaf5>
   1a4a5:	c7 85 e4 f8 ff ff 0d 	movl   $0xf120520d,-0x71c(%rbp)
   1a4ac:	52 20 f1 
   1a4af:	eb 37                	jmp    1a4e8 <func_69+0xb2c>
   1a4b1:	8b 0d 5d ac 00 00    	mov    0xac5d(%rip),%ecx        # 25114 <g_849>
   1a4b7:	0f b7 05 da ab 00 00 	movzwl 0xabda(%rip),%eax        # 25098 <g_196>
   1a4be:	98                   	cwtl   
   1a4bf:	48 63 d0             	movslq %eax,%rdx
   1a4c2:	89 c9                	mov    %ecx,%ecx
   1a4c4:	48 89 c8             	mov    %rcx,%rax
   1a4c7:	48 c1 e0 02          	shl    $0x2,%rax
   1a4cb:	48 01 c8             	add    %rcx,%rax
   1a4ce:	48 01 c0             	add    %rax,%rax
   1a4d1:	48 01 d0             	add    %rdx,%rax
   1a4d4:	48 8d 14 00          	lea    (%rax,%rax,1),%rdx
   1a4d8:	48 8d 05 e1 ab 00 00 	lea    0xabe1(%rip),%rax        # 250c0 <g_256>
   1a4df:	0f b7 04 02          	movzwl (%rdx,%rax,1),%eax
   1a4e3:	e9 3e 0f 00 00       	jmpq   1b426 <func_69+0x1a6a>
   1a4e8:	48 8b 05 d1 e0 00 00 	mov    0xe0d1(%rip),%rax        # 285c0 <g_91>
   1a4ef:	8b 08                	mov    (%rax),%ecx
   1a4f1:	0f b7 85 24 f8 ff ff 	movzwl -0x7dc(%rbp),%eax
   1a4f8:	ba ea a8 ff ff       	mov    $0xffffa8ea,%edx
   1a4fd:	66 39 d0             	cmp    %dx,%ax
   1a500:	0f 95 c0             	setne  %al
   1a503:	0f b6 d0             	movzbl %al,%edx
   1a506:	48 8b 05 b3 e0 00 00 	mov    0xe0b3(%rip),%rax        # 285c0 <g_91>
   1a50d:	31 ca                	xor    %ecx,%edx
   1a50f:	89 10                	mov    %edx,(%rax)
   1a511:	48 8b 05 e0 ab 00 00 	mov    0xabe0(%rip),%rax        # 250f8 <g_708>
   1a518:	48 83 c0 01          	add    $0x1,%rax
   1a51c:	48 89 05 d5 ab 00 00 	mov    %rax,0xabd5(%rip)        # 250f8 <g_708>
   1a523:	48 8b 05 ce ab 00 00 	mov    0xabce(%rip),%rax        # 250f8 <g_708>
   1a52a:	48 83 f8 06          	cmp    $0x6,%rax
   1a52e:	0f 86 3a ff ff ff    	jbe    1a46e <func_69+0xab2>
   1a534:	8b 05 da ab 00 00    	mov    0xabda(%rip),%eax        # 25114 <g_849>
   1a53a:	83 c0 01             	add    $0x1,%eax
   1a53d:	89 05 d1 ab 00 00    	mov    %eax,0xabd1(%rip)        # 25114 <g_849>
   1a543:	8b 05 cb ab 00 00    	mov    0xabcb(%rip),%eax        # 25114 <g_849>
   1a549:	83 f8 01             	cmp    $0x1,%eax
   1a54c:	0f 86 57 fc ff ff    	jbe    1a1a9 <func_69+0x7ed>
   1a552:	48 c7 05 9b ab 00 00 	movq   $0x1,0xab9b(%rip)        # 250f8 <g_708>
   1a559:	01 00 00 00 
   1a55d:	90                   	nop
   1a55e:	48 8b 05 93 ab 00 00 	mov    0xab93(%rip),%rax        # 250f8 <g_708>
   1a565:	48 83 f8 06          	cmp    $0x6,%rax
   1a569:	77 18                	ja     1a583 <func_69+0xbc7>
   1a56b:	0f b7 85 24 f8 ff ff 	movzwl -0x7dc(%rbp),%eax
   1a572:	66 85 c0             	test   %ax,%ax
   1a575:	75 0b                	jne    1a582 <func_69+0xbc6>
   1a577:	8b 85 d8 f8 ff ff    	mov    -0x728(%rbp),%eax
   1a57d:	e9 a4 0e 00 00       	jmpq   1b426 <func_69+0x1a6a>
   1a582:	90                   	nop
   1a583:	0f b7 05 0e ab 00 00 	movzwl 0xab0e(%rip),%eax        # 25098 <g_196>
   1a58a:	83 c0 01             	add    $0x1,%eax
   1a58d:	66 89 05 04 ab 00 00 	mov    %ax,0xab04(%rip)        # 25098 <g_196>
   1a594:	0f b7 05 fd aa 00 00 	movzwl 0xaafd(%rip),%eax        # 25098 <g_196>
   1a59b:	66 83 f8 06          	cmp    $0x6,%ax
   1a59f:	0f 8e da fb ff ff    	jle    1a17f <func_69+0x7c3>
   1a5a5:	66 c7 85 24 f8 ff ff 	movw   $0x1,-0x7dc(%rbp)
   1a5ac:	01 00 
   1a5ae:	eb 3b                	jmp    1a5eb <func_69+0xc2f>
   1a5b0:	48 c7 85 f0 f9 ff ff 	movq   $0x0,-0x610(%rbp)
   1a5b7:	00 00 00 00 
   1a5bb:	48 8d 05 66 e0 00 00 	lea    0xe066(%rip),%rax        # 28628 <g_181>
   1a5c2:	48 89 85 f8 f9 ff ff 	mov    %rax,-0x608(%rbp)
   1a5c9:	48 8b 85 f8 f9 ff ff 	mov    -0x608(%rbp),%rax
   1a5d0:	48 8b 95 f0 f9 ff ff 	mov    -0x610(%rbp),%rdx
   1a5d7:	48 89 10             	mov    %rdx,(%rax)
   1a5da:	0f b7 85 24 f8 ff ff 	movzwl -0x7dc(%rbp),%eax
   1a5e1:	83 e8 01             	sub    $0x1,%eax
   1a5e4:	66 89 85 24 f8 ff ff 	mov    %ax,-0x7dc(%rbp)
   1a5eb:	0f b7 85 24 f8 ff ff 	movzwl -0x7dc(%rbp),%eax
   1a5f2:	66 85 c0             	test   %ax,%ax
   1a5f5:	79 b9                	jns    1a5b0 <func_69+0xbf4>
   1a5f7:	0f b6 05 82 aa 00 00 	movzbl 0xaa82(%rip),%eax        # 25080 <g_112>
   1a5fe:	83 c0 01             	add    $0x1,%eax
   1a601:	88 05 79 aa 00 00    	mov    %al,0xaa79(%rip)        # 25080 <g_112>
   1a607:	0f b6 05 72 aa 00 00 	movzbl 0xaa72(%rip),%eax        # 25080 <g_112>
   1a60e:	3c 07                	cmp    $0x7,%al
   1a610:	0f 86 ab f7 ff ff    	jbe    19dc1 <func_69+0x405>
   1a616:	c7 05 cc aa 00 00 00 	movl   $0x0,0xaacc(%rip)        # 250ec <g_362>
   1a61d:	00 00 00 
   1a620:	e9 dd 0d 00 00       	jmpq   1b402 <func_69+0x1a46>
   1a625:	48 8d 05 8c e2 00 00 	lea    0xe28c(%rip),%rax        # 288b8 <g_425>
   1a62c:	48 89 85 10 f9 ff ff 	mov    %rax,-0x6f0(%rbp)
   1a633:	48 8d 85 10 f9 ff ff 	lea    -0x6f0(%rbp),%rax
   1a63a:	48 89 85 30 fb ff ff 	mov    %rax,-0x4d0(%rbp)
   1a641:	48 8d 85 10 f9 ff ff 	lea    -0x6f0(%rbp),%rax
   1a648:	48 89 85 38 fb ff ff 	mov    %rax,-0x4c8(%rbp)
   1a64f:	48 8d 85 10 f9 ff ff 	lea    -0x6f0(%rbp),%rax
   1a656:	48 89 85 40 fb ff ff 	mov    %rax,-0x4c0(%rbp)
   1a65d:	48 8d 85 10 f9 ff ff 	lea    -0x6f0(%rbp),%rax
   1a664:	48 89 85 48 fb ff ff 	mov    %rax,-0x4b8(%rbp)
   1a66b:	48 8d 85 10 f9 ff ff 	lea    -0x6f0(%rbp),%rax
   1a672:	48 89 85 50 fb ff ff 	mov    %rax,-0x4b0(%rbp)
   1a679:	c7 85 8c f8 ff ff c1 	movl   $0x1c5e6bc1,-0x774(%rbp)
   1a680:	6b 5e 1c 
   1a683:	48 b8 f2 d6 a7 1f 91 	movabs $0x544200911fa7d6f2,%rax
   1a68a:	00 42 54 
   1a68d:	48 89 85 60 f9 ff ff 	mov    %rax,-0x6a0(%rbp)
   1a694:	48 c7 85 68 f9 ff ff 	movq   $0xffffffffffffffff,-0x698(%rbp)
   1a69b:	ff ff ff ff 
   1a69f:	c7 85 90 f8 ff ff 00 	movl   $0x0,-0x770(%rbp)
   1a6a6:	00 00 00 
   1a6a9:	c7 85 64 f8 ff ff 00 	movl   $0x0,-0x79c(%rbp)
   1a6b0:	00 00 00 
   1a6b3:	eb 1a                	jmp    1a6cf <func_69+0xd13>
   1a6b5:	8b 85 64 f8 ff ff    	mov    -0x79c(%rbp),%eax
   1a6bb:	48 98                	cltq   
   1a6bd:	c7 84 85 18 fa ff ff 	movl   $0x53cc975,-0x5e8(%rbp,%rax,4)
   1a6c4:	75 c9 3c 05 
   1a6c8:	83 85 64 f8 ff ff 01 	addl   $0x1,-0x79c(%rbp)
   1a6cf:	83 bd 64 f8 ff ff 00 	cmpl   $0x0,-0x79c(%rbp)
   1a6d6:	7e dd                	jle    1a6b5 <func_69+0xcf9>
   1a6d8:	c7 85 64 f8 ff ff 00 	movl   $0x0,-0x79c(%rbp)
   1a6df:	00 00 00 
   1a6e2:	eb 1e                	jmp    1a702 <func_69+0xd46>
   1a6e4:	8b 85 64 f8 ff ff    	mov    -0x79c(%rbp),%eax
   1a6ea:	48 98                	cltq   
   1a6ec:	48 8d 15 a5 a9 00 00 	lea    0xa9a5(%rip),%rdx        # 25098 <g_196>
   1a6f3:	48 89 94 c5 30 fa ff 	mov    %rdx,-0x5d0(%rbp,%rax,8)
   1a6fa:	ff 
   1a6fb:	83 85 64 f8 ff ff 01 	addl   $0x1,-0x79c(%rbp)
   1a702:	83 bd 64 f8 ff ff 01 	cmpl   $0x1,-0x79c(%rbp)
   1a709:	7e d9                	jle    1a6e4 <func_69+0xd28>
   1a70b:	48 c7 05 5a e2 00 00 	movq   $0x0,0xe25a(%rip)        # 28970 <g_892+0x10>
   1a712:	00 00 00 00 
   1a716:	48 8b 05 53 e2 00 00 	mov    0xe253(%rip),%rax        # 28970 <g_892+0x10>
   1a71d:	48 89 05 64 e2 00 00 	mov    %rax,0xe264(%rip)        # 28988 <g_893>
   1a724:	48 8b 0d 5d e2 00 00 	mov    0xe25d(%rip),%rcx        # 28988 <g_893>
   1a72b:	48 8b 05 96 e1 00 00 	mov    0xe196(%rip),%rax        # 288c8 <g_512>
   1a732:	48 8b 95 90 fa ff ff 	mov    -0x570(%rbp),%rdx
   1a739:	48 89 10             	mov    %rdx,(%rax)
   1a73c:	48 8b 00             	mov    (%rax),%rax
   1a73f:	48 39 c1             	cmp    %rax,%rcx
   1a742:	0f 84 0e 03 00 00    	je     1aa56 <func_69+0x109a>
   1a748:	0f b7 85 24 f8 ff ff 	movzwl -0x7dc(%rbp),%eax
   1a74f:	0f b6 d8             	movzbl %al,%ebx
   1a752:	48 8b 05 57 e1 00 00 	mov    0xe157(%rip),%rax        # 288b0 <g_426>
   1a759:	8b 00                	mov    (%rax),%eax
   1a75b:	89 85 18 fa ff ff    	mov    %eax,-0x5e8(%rbp)
   1a761:	8b 85 18 fa ff ff    	mov    -0x5e8(%rbp),%eax
   1a767:	89 c2                	mov    %eax,%edx
   1a769:	8b 05 01 a9 00 00    	mov    0xa901(%rip),%eax        # 25070 <g_55>
   1a76f:	89 d6                	mov    %edx,%esi
   1a771:	89 c7                	mov    %eax,%edi
   1a773:	e8 58 17 ff ff       	callq  bed0 <safe_sub_func_uint32_t_u_u>
   1a778:	0f b6 c0             	movzbl %al,%eax
   1a77b:	be 06 00 00 00       	mov    $0x6,%esi
   1a780:	89 c7                	mov    %eax,%edi
   1a782:	e8 54 14 ff ff       	callq  bbdb <safe_div_func_uint8_t_u_u>
   1a787:	48 8b 85 10 f9 ff ff 	mov    -0x6f0(%rbp),%rax
   1a78e:	48 8b 00             	mov    (%rax),%rax
   1a791:	48 8b 00             	mov    (%rax),%rax
   1a794:	8b 00                	mov    (%rax),%eax
   1a796:	83 f8 01             	cmp    $0x1,%eax
   1a799:	0f 94 c0             	sete   %al
   1a79c:	89 c2                	mov    %eax,%edx
   1a79e:	0f b7 85 24 f8 ff ff 	movzwl -0x7dc(%rbp),%eax
   1a7a5:	21 d0                	and    %edx,%eax
   1a7a7:	0f b6 c0             	movzbl %al,%eax
   1a7aa:	89 de                	mov    %ebx,%esi
   1a7ac:	89 c7                	mov    %eax,%edi
   1a7ae:	e8 a7 13 ff ff       	callq  bb5a <safe_add_func_uint8_t_u_u>
   1a7b3:	0f b7 85 24 f8 ff ff 	movzwl -0x7dc(%rbp),%eax
   1a7ba:	48 0f bf c0          	movswq %ax,%rax
   1a7be:	48 3d fa ff 00 00    	cmp    $0xfffa,%rax
   1a7c4:	0f 95 c0             	setne  %al
   1a7c7:	0f b6 c0             	movzbl %al,%eax
   1a7ca:	33 85 50 f8 ff ff    	xor    -0x7b0(%rbp),%eax
   1a7d0:	48 98                	cltq   
   1a7d2:	48 89 85 40 f9 ff ff 	mov    %rax,-0x6c0(%rbp)
   1a7d9:	48 83 bd 40 f9 ff ff 	cmpq   $0x0,-0x6c0(%rbp)
   1a7e0:	00 
   1a7e1:	0f 84 6f 02 00 00    	je     1aa56 <func_69+0x109a>
   1a7e7:	66 c7 85 44 f8 ff ff 	movw   $0x3bb7,-0x7bc(%rbp)
   1a7ee:	b7 3b 
   1a7f0:	c7 85 94 f8 ff ff 01 	movl   $0x1,-0x76c(%rbp)
   1a7f7:	00 00 00 
   1a7fa:	48 8d 85 d0 fa ff ff 	lea    -0x530(%rbp),%rax
   1a801:	48 83 c0 08          	add    $0x8,%rax
   1a805:	48 89 85 18 f9 ff ff 	mov    %rax,-0x6e8(%rbp)
   1a80c:	48 8d 85 18 f9 ff ff 	lea    -0x6e8(%rbp),%rax
   1a813:	48 89 85 20 f9 ff ff 	mov    %rax,-0x6e0(%rbp)
   1a81a:	48 8d 85 20 f9 ff ff 	lea    -0x6e0(%rbp),%rax
   1a821:	48 89 85 28 f9 ff ff 	mov    %rax,-0x6d8(%rbp)
   1a828:	48 8d 85 28 f9 ff ff 	lea    -0x6d8(%rbp),%rax
   1a82f:	48 89 85 70 f9 ff ff 	mov    %rax,-0x690(%rbp)
   1a836:	66 c7 85 46 f8 ff ff 	movw   $0x1,-0x7ba(%rbp)
   1a83d:	01 00 
   1a83f:	c7 85 98 f8 ff ff 06 	movl   $0x6,-0x768(%rbp)
   1a846:	00 00 00 
   1a849:	c7 85 9c f8 ff ff fa 	movl   $0xfffffffa,-0x764(%rbp)
   1a850:	ff ff ff 
   1a853:	c7 85 a0 f8 ff ff 10 	movl   $0x22914a10,-0x760(%rbp)
   1a85a:	4a 91 22 
   1a85d:	c7 85 68 f8 ff ff 00 	movl   $0x0,-0x798(%rbp)
   1a864:	00 00 00 
   1a867:	eb 1e                	jmp    1a887 <func_69+0xecb>
   1a869:	8b 85 68 f8 ff ff    	mov    -0x798(%rbp),%eax
   1a86f:	48 98                	cltq   
   1a871:	48 8d 15 32 a8 00 00 	lea    0xa832(%rip),%rdx        # 250aa <g_210+0xa>
   1a878:	48 89 94 c5 d0 fa ff 	mov    %rdx,-0x530(%rbp,%rax,8)
   1a87f:	ff 
   1a880:	83 85 68 f8 ff ff 01 	addl   $0x1,-0x798(%rbp)
   1a887:	83 bd 68 f8 ff ff 02 	cmpl   $0x2,-0x798(%rbp)
   1a88e:	7e d9                	jle    1a869 <func_69+0xead>
   1a890:	c7 85 50 f8 ff ff 00 	movl   $0x0,-0x7b0(%rbp)
   1a897:	00 00 00 
   1a89a:	e9 9e 01 00 00       	jmpq   1aa3d <func_69+0x1081>
   1a89f:	c6 85 40 f8 ff ff 3b 	movb   $0x3b,-0x7c0(%rbp)
   1a8a6:	c7 85 a4 f8 ff ff 4a 	movl   $0xd62e324a,-0x75c(%rbp)
   1a8ad:	32 2e d6 
   1a8b0:	48 8d 85 b0 fc ff ff 	lea    -0x350(%rbp),%rax
   1a8b7:	48 05 00 01 00 00    	add    $0x100,%rax
   1a8bd:	48 89 85 78 f9 ff ff 	mov    %rax,-0x688(%rbp)
   1a8c4:	c7 85 a8 f8 ff ff 06 	movl   $0x6,-0x758(%rbp)
   1a8cb:	00 00 00 
   1a8ce:	c7 85 ac f8 ff ff 62 	movl   $0x599be62,-0x754(%rbp)
   1a8d5:	be 99 05 
   1a8d8:	c7 85 b0 f8 ff ff 71 	movl   $0xb38c3771,-0x750(%rbp)
   1a8df:	37 8c b3 
   1a8e2:	c7 85 b4 f8 ff ff 41 	movl   $0x188ba941,-0x74c(%rbp)
   1a8e9:	a9 8b 18 
   1a8ec:	c7 85 b8 f8 ff ff fa 	movl   $0xfffffffa,-0x748(%rbp)
   1a8f3:	ff ff ff 
   1a8f6:	c7 85 d0 fd ff ff 01 	movl   $0x1,-0x230(%rbp)
   1a8fd:	00 00 00 
   1a900:	c7 85 d4 fd ff ff ff 	movl   $0xffffffff,-0x22c(%rbp)
   1a907:	ff ff ff 
   1a90a:	c7 85 d8 fd ff ff b3 	movl   $0x1a04f6b3,-0x228(%rbp)
   1a911:	f6 04 1a 
   1a914:	c7 85 dc fd ff ff b3 	movl   $0x1a04f6b3,-0x224(%rbp)
   1a91b:	f6 04 1a 
   1a91e:	c7 85 e0 fd ff ff b3 	movl   $0x1a04f6b3,-0x220(%rbp)
   1a925:	f6 04 1a 
   1a928:	c7 85 e4 fd ff ff ff 	movl   $0xffffffff,-0x21c(%rbp)
   1a92f:	ff ff ff 
   1a932:	c7 85 e8 fd ff ff 01 	movl   $0x1,-0x218(%rbp)
   1a939:	00 00 00 
   1a93c:	c7 85 ec fd ff ff 01 	movl   $0x1,-0x214(%rbp)
   1a943:	00 00 00 
   1a946:	c7 85 f0 fd ff ff ff 	movl   $0xffffffff,-0x210(%rbp)
   1a94d:	ff ff ff 
   1a950:	c7 85 f4 fd ff ff 01 	movl   $0x1,-0x20c(%rbp)
   1a957:	00 00 00 
   1a95a:	c7 85 f8 fd ff ff 01 	movl   $0x1,-0x208(%rbp)
   1a961:	00 00 00 
   1a964:	c7 85 fc fd ff ff ff 	movl   $0xffffffff,-0x204(%rbp)
   1a96b:	ff ff ff 
   1a96e:	c7 85 00 fe ff ff b3 	movl   $0x1a04f6b3,-0x200(%rbp)
   1a975:	f6 04 1a 
   1a978:	c7 85 04 fe ff ff b3 	movl   $0x1a04f6b3,-0x1fc(%rbp)
   1a97f:	f6 04 1a 
   1a982:	c7 85 08 fe ff ff b3 	movl   $0x1a04f6b3,-0x1f8(%rbp)
   1a989:	f6 04 1a 
   1a98c:	c7 85 0c fe ff ff ff 	movl   $0xffffffff,-0x1f4(%rbp)
   1a993:	ff ff ff 
   1a996:	c7 85 10 fe ff ff 01 	movl   $0x1,-0x1f0(%rbp)
   1a99d:	00 00 00 
   1a9a0:	c7 85 14 fe ff ff 01 	movl   $0x1,-0x1ec(%rbp)
   1a9a7:	00 00 00 
   1a9aa:	c7 85 18 fe ff ff ff 	movl   $0xffffffff,-0x1e8(%rbp)
   1a9b1:	ff ff ff 
   1a9b4:	c7 85 1c fe ff ff 01 	movl   $0x1,-0x1e4(%rbp)
   1a9bb:	00 00 00 
   1a9be:	c7 85 20 fe ff ff 01 	movl   $0x1,-0x1e0(%rbp)
   1a9c5:	00 00 00 
   1a9c8:	c7 85 24 fe ff ff ff 	movl   $0xffffffff,-0x1dc(%rbp)
   1a9cf:	ff ff ff 
   1a9d2:	c7 85 28 fe ff ff b3 	movl   $0x1a04f6b3,-0x1d8(%rbp)
   1a9d9:	f6 04 1a 
   1a9dc:	c7 85 2c fe ff ff b3 	movl   $0x1a04f6b3,-0x1d4(%rbp)
   1a9e3:	f6 04 1a 
   1a9e6:	c7 85 30 fe ff ff b3 	movl   $0x1a04f6b3,-0x1d0(%rbp)
   1a9ed:	f6 04 1a 
   1a9f0:	c7 85 34 fe ff ff ff 	movl   $0xffffffff,-0x1cc(%rbp)
   1a9f7:	ff ff ff 
   1a9fa:	c7 85 38 fe ff ff 01 	movl   $0x1,-0x1c8(%rbp)
   1aa01:	00 00 00 
   1aa04:	c7 85 3c fe ff ff 01 	movl   $0x1,-0x1c4(%rbp)
   1aa0b:	00 00 00 
   1aa0e:	c7 85 40 fe ff ff ff 	movl   $0xffffffff,-0x1c0(%rbp)
   1aa15:	ff ff ff 
   1aa18:	c7 85 44 fe ff ff 01 	movl   $0x1,-0x1bc(%rbp)
   1aa1f:	00 00 00 
   1aa22:	c7 85 48 fe ff ff 01 	movl   $0x1,-0x1b8(%rbp)
   1aa29:	00 00 00 
   1aa2c:	c7 85 4c fe ff ff ff 	movl   $0xffffffff,-0x1b4(%rbp)
   1aa33:	ff ff ff 
   1aa36:	83 85 50 f8 ff ff 01 	addl   $0x1,-0x7b0(%rbp)
   1aa3d:	83 bd 50 f8 ff ff 01 	cmpl   $0x1,-0x7b0(%rbp)
   1aa44:	0f 8e 55 fe ff ff    	jle    1a89f <func_69+0xee3>
   1aa4a:	0f b7 85 24 f8 ff ff 	movzwl -0x7dc(%rbp),%eax
   1aa51:	e9 d0 09 00 00       	jmpq   1b426 <func_69+0x1a6a>
   1aa56:	48 8d 05 e3 e3 00 00 	lea    0xe3e3(%rip),%rax        # 28e40 <g_1055>
   1aa5d:	48 89 85 80 f9 ff ff 	mov    %rax,-0x680(%rbp)
   1aa64:	48 8d 85 08 f9 ff ff 	lea    -0x6f8(%rbp),%rax
   1aa6b:	48 89 85 d0 fd ff ff 	mov    %rax,-0x230(%rbp)
   1aa72:	48 8d 85 08 f9 ff ff 	lea    -0x6f8(%rbp),%rax
   1aa79:	48 89 85 d8 fd ff ff 	mov    %rax,-0x228(%rbp)
   1aa80:	48 8d 85 08 f9 ff ff 	lea    -0x6f8(%rbp),%rax
   1aa87:	48 89 85 e0 fd ff ff 	mov    %rax,-0x220(%rbp)
   1aa8e:	48 8d 85 08 f9 ff ff 	lea    -0x6f8(%rbp),%rax
   1aa95:	48 89 85 e8 fd ff ff 	mov    %rax,-0x218(%rbp)
   1aa9c:	48 8d 85 08 f9 ff ff 	lea    -0x6f8(%rbp),%rax
   1aaa3:	48 89 85 f0 fd ff ff 	mov    %rax,-0x210(%rbp)
   1aaaa:	c7 85 bc f8 ff ff 00 	movl   $0x0,-0x744(%rbp)
   1aab1:	00 00 00 
   1aab4:	48 8d 05 55 a6 00 00 	lea    0xa655(%rip),%rax        # 25110 <g_845>
   1aabb:	48 89 85 88 f9 ff ff 	mov    %rax,-0x678(%rbp)
   1aac2:	48 c7 85 90 f9 ff ff 	movq   $0x0,-0x670(%rbp)
   1aac9:	00 00 00 00 
   1aacd:	48 8d 05 40 a6 00 00 	lea    0xa640(%rip),%rax        # 25114 <g_849>
   1aad4:	48 89 85 98 f9 ff ff 	mov    %rax,-0x668(%rbp)
   1aadb:	48 8d 05 26 a6 00 00 	lea    0xa626(%rip),%rax        # 25108 <g_801>
   1aae2:	48 89 85 a0 f9 ff ff 	mov    %rax,-0x660(%rbp)
   1aae9:	66 c7 85 48 f8 ff ff 	movw   $0x1,-0x7b8(%rbp)
   1aaf0:	01 00 
   1aaf2:	c6 85 41 f8 ff ff ff 	movb   $0xff,-0x7bf(%rbp)
   1aaf9:	c7 85 6c f8 ff ff 00 	movl   $0x0,-0x794(%rbp)
   1ab00:	00 00 00 
   1ab03:	eb 42                	jmp    1ab47 <func_69+0x118b>
   1ab05:	c7 85 70 f8 ff ff 00 	movl   $0x0,-0x790(%rbp)
   1ab0c:	00 00 00 
   1ab0f:	eb 26                	jmp    1ab37 <func_69+0x117b>
   1ab11:	8b 85 70 f8 ff ff    	mov    -0x790(%rbp),%eax
   1ab17:	48 63 d0             	movslq %eax,%rdx
   1ab1a:	8b 85 6c f8 ff ff    	mov    -0x794(%rbp),%eax
   1ab20:	48 98                	cltq   
   1ab22:	48 01 d0             	add    %rdx,%rax
   1ab25:	c7 84 85 1c fa ff ff 	movl   $0xffffffff,-0x5e4(%rbp,%rax,4)
   1ab2c:	ff ff ff ff 
   1ab30:	83 85 70 f8 ff ff 01 	addl   $0x1,-0x790(%rbp)
   1ab37:	83 bd 70 f8 ff ff 00 	cmpl   $0x0,-0x790(%rbp)
   1ab3e:	7e d1                	jle    1ab11 <func_69+0x1155>
   1ab40:	83 85 6c f8 ff ff 01 	addl   $0x1,-0x794(%rbp)
   1ab47:	83 bd 6c f8 ff ff 00 	cmpl   $0x0,-0x794(%rbp)
   1ab4e:	7e b5                	jle    1ab05 <func_69+0x1149>
   1ab50:	8b 85 1c fa ff ff    	mov    -0x5e4(%rbp),%eax
   1ab56:	0f b7 d0             	movzwl %ax,%edx
   1ab59:	0f b7 85 24 f8 ff ff 	movzwl -0x7dc(%rbp),%eax
   1ab60:	98                   	cwtl   
   1ab61:	89 05 a9 a5 00 00    	mov    %eax,0xa5a9(%rip)        # 25110 <g_845>
   1ab67:	48 8b 05 32 de 00 00 	mov    0xde32(%rip),%rax        # 289a0 <g_1028>
   1ab6e:	48 8b 00             	mov    (%rax),%rax
   1ab71:	89 c1                	mov    %eax,%ecx
   1ab73:	8b 85 1c fa ff ff    	mov    -0x5e4(%rbp),%eax
   1ab79:	31 c1                	xor    %eax,%ecx
   1ab7b:	8b 85 18 fa ff ff    	mov    -0x5e8(%rbp),%eax
   1ab81:	89 85 18 fa ff ff    	mov    %eax,-0x5e8(%rbp)
   1ab87:	8b 85 18 fa ff ff    	mov    -0x5e8(%rbp),%eax
   1ab8d:	09 c8                	or     %ecx,%eax
   1ab8f:	0f b7 c0             	movzwl %ax,%eax
   1ab92:	89 d6                	mov    %edx,%esi
   1ab94:	89 c7                	mov    %eax,%edi
   1ab96:	e8 64 11 ff ff       	callq  bcff <safe_add_func_uint16_t_u_u>
   1ab9b:	66 85 c0             	test   %ax,%ax
   1ab9e:	0f 85 b4 00 00 00    	jne    1ac58 <func_69+0x129c>
   1aba4:	0f b7 85 24 f8 ff ff 	movzwl -0x7dc(%rbp),%eax
   1abab:	0f be c0             	movsbl %al,%eax
   1abae:	be 00 00 00 00       	mov    $0x0,%esi
   1abb3:	89 c7                	mov    %eax,%edi
   1abb5:	e8 58 06 ff ff       	callq  b212 <safe_mul_func_int8_t_s_s>
   1abba:	0f be d0             	movsbl %al,%edx
   1abbd:	8b 05 55 02 01 00    	mov    0x10255(%rip),%eax        # 2ae18 <g_626>
   1abc3:	31 d0                	xor    %edx,%eax
   1abc5:	89 05 4d 02 01 00    	mov    %eax,0x1024d(%rip)        # 2ae18 <g_626>
   1abcb:	48 8b 85 08 f9 ff ff 	mov    -0x6f8(%rbp),%rax
   1abd2:	48 89 85 08 f9 ff ff 	mov    %rax,-0x6f8(%rbp)
   1abd9:	48 8b 85 08 f9 ff ff 	mov    -0x6f8(%rbp),%rax
   1abe0:	48 85 c0             	test   %rax,%rax
   1abe3:	0f 95 c0             	setne  %al
   1abe6:	0f b6 c0             	movzbl %al,%eax
   1abe9:	be 06 00 00 00       	mov    $0x6,%esi
   1abee:	89 c7                	mov    %eax,%edi
   1abf0:	e8 ac 06 ff ff       	callq  b2a1 <safe_lshift_func_int8_t_s_s>
   1abf5:	8b 95 1c fa ff ff    	mov    -0x5e4(%rbp),%edx
   1abfb:	0f b7 85 24 f8 ff ff 	movzwl -0x7dc(%rbp),%eax
   1ac02:	98                   	cwtl   
   1ac03:	39 c2                	cmp    %eax,%edx
   1ac05:	48 8b 15 34 e2 00 00 	mov    0xe234(%rip),%rdx        # 28e40 <g_1055>
   1ac0c:	48 8b 85 80 f9 ff ff 	mov    -0x680(%rbp),%rax
   1ac13:	48 89 10             	mov    %rdx,(%rax)
   1ac16:	48 8b 85 80 f9 ff ff 	mov    -0x680(%rbp),%rax
   1ac1d:	48 8b 00             	mov    (%rax),%rax
   1ac20:	48 85 c0             	test   %rax,%rax
   1ac23:	0f b7 85 24 f8 ff ff 	movzwl -0x7dc(%rbp),%eax
   1ac2a:	98                   	cwtl   
   1ac2b:	be 00 00 00 00       	mov    $0x0,%esi
   1ac30:	89 c7                	mov    %eax,%edi
   1ac32:	e8 7c 07 ff ff       	callq  b3b3 <safe_add_func_int16_t_s_s>
   1ac37:	0f b6 05 ce a4 00 00 	movzbl 0xa4ce(%rip),%eax        # 2510c <g_843>
   1ac3e:	0f b6 c0             	movzbl %al,%eax
   1ac41:	48 be 83 fc 5f 32 52 	movabs $0x38dca652325ffc83,%rsi
   1ac48:	a6 dc 38 
   1ac4b:	48 89 c7             	mov    %rax,%rdi
   1ac4e:	e8 55 0c ff ff       	callq  b8a8 <safe_sub_func_int64_t_s_s>
   1ac53:	48 85 c0             	test   %rax,%rax
   1ac56:	74 07                	je     1ac5f <func_69+0x12a3>
   1ac58:	b8 01 00 00 00       	mov    $0x1,%eax
   1ac5d:	eb 05                	jmp    1ac64 <func_69+0x12a8>
   1ac5f:	b8 00 00 00 00       	mov    $0x0,%eax
   1ac64:	31 85 bc f8 ff ff    	xor    %eax,-0x744(%rbp)
   1ac6a:	48 8b 05 2f dd 00 00 	mov    0xdd2f(%rip),%rax        # 289a0 <g_1028>
   1ac71:	48 8b 00             	mov    (%rax),%rax
   1ac74:	48 89 c6             	mov    %rax,%rsi
   1ac77:	48 c7 c7 ff ff ff ff 	mov    $0xffffffffffffffff,%rdi
   1ac7e:	e8 fd 13 ff ff       	callq  c080 <safe_mod_func_uint64_t_u_u>
   1ac83:	89 c2                	mov    %eax,%edx
   1ac85:	48 8b 85 88 f9 ff ff 	mov    -0x678(%rbp),%rax
   1ac8c:	89 10                	mov    %edx,(%rax)
   1ac8e:	48 8b 85 88 f9 ff ff 	mov    -0x678(%rbp),%rax
   1ac95:	8b 10                	mov    (%rax),%edx
   1ac97:	48 8b 85 98 f9 ff ff 	mov    -0x668(%rbp),%rax
   1ac9e:	8b 00                	mov    (%rax),%eax
   1aca0:	21 c2                	and    %eax,%edx
   1aca2:	48 8b 85 98 f9 ff ff 	mov    -0x668(%rbp),%rax
   1aca9:	89 10                	mov    %edx,(%rax)
   1acab:	48 8b 05 7e d9 00 00 	mov    0xd97e(%rip),%rax        # 28630 <g_180>
   1acb2:	48 8b 00             	mov    (%rax),%rax
   1acb5:	48 89 85 a0 f9 ff ff 	mov    %rax,-0x660(%rbp)
   1acbc:	0f b7 85 24 f8 ff ff 	movzwl -0x7dc(%rbp),%eax
   1acc3:	f7 d0                	not    %eax
   1acc5:	66 c1 e8 0f          	shr    $0xf,%ax
   1acc9:	0f b6 d0             	movzbl %al,%edx
   1accc:	48 8b 05 45 d9 00 00 	mov    0xd945(%rip),%rax        # 28618 <g_128>
   1acd3:	0f b6 00             	movzbl (%rax),%eax
   1acd6:	0f be c0             	movsbl %al,%eax
   1acd9:	89 d6                	mov    %edx,%esi
   1acdb:	89 c7                	mov    %eax,%edi
   1acdd:	e8 81 08 ff ff       	callq  b563 <safe_rshift_func_int16_t_s_u>
   1ace2:	98                   	cwtl   
   1ace3:	89 85 18 fa ff ff    	mov    %eax,-0x5e8(%rbp)
   1ace9:	0f b6 85 3f f8 ff ff 	movzbl -0x7c1(%rbp),%eax
   1acf0:	66 09 85 48 f8 ff ff 	or     %ax,-0x7b8(%rbp)
   1acf7:	66 83 bd 48 f8 ff ff 	cmpw   $0x0,-0x7b8(%rbp)
   1acfe:	00 
   1acff:	0f 84 32 03 00 00    	je     1b037 <func_69+0x167b>
   1ad05:	66 c7 85 4a f8 ff ff 	movw   $0x4,-0x7b6(%rbp)
   1ad0c:	04 00 
   1ad0e:	c7 85 c0 f8 ff ff 2c 	movl   $0xe149dc2c,-0x740(%rbp)
   1ad15:	dc 49 e1 
   1ad18:	c7 85 c4 f8 ff ff 37 	movl   $0xa456a037,-0x73c(%rbp)
   1ad1f:	a0 56 a4 
   1ad22:	c7 85 c8 f8 ff ff b3 	movl   $0x7bedbb3,-0x738(%rbp)
   1ad29:	db be 07 
   1ad2c:	c7 85 cc f8 ff ff 00 	movl   $0x0,-0x734(%rbp)
   1ad33:	00 00 00 
   1ad36:	c7 85 74 f8 ff ff 01 	movl   $0x1,-0x78c(%rbp)
   1ad3d:	00 00 00 
   1ad40:	c7 85 d0 f8 ff ff ff 	movl   $0xffffffff,-0x730(%rbp)
   1ad47:	ff ff ff 
   1ad4a:	c7 85 d4 f8 ff ff 34 	movl   $0x6daf6134,-0x72c(%rbp)
   1ad51:	61 af 6d 
   1ad54:	66 c7 85 42 f8 ff ff 	movw   $0xfffb,-0x7be(%rbp)
   1ad5b:	fb ff 
   1ad5d:	c7 85 78 f8 ff ff 00 	movl   $0x0,-0x788(%rbp)
   1ad64:	00 00 00 
   1ad67:	eb 19                	jmp    1ad82 <func_69+0x13c6>
   1ad69:	8b 85 78 f8 ff ff    	mov    -0x788(%rbp),%eax
   1ad6f:	48 98                	cltq   
   1ad71:	66 c7 84 45 d0 fa ff 	movw   $0xfffc,-0x530(%rbp,%rax,2)
   1ad78:	ff fc ff 
   1ad7b:	83 85 78 f8 ff ff 01 	addl   $0x1,-0x788(%rbp)
   1ad82:	83 bd 78 f8 ff ff 08 	cmpl   $0x8,-0x788(%rbp)
   1ad89:	7e de                	jle    1ad69 <func_69+0x13ad>
   1ad8b:	48 83 ad 68 f9 ff ff 	subq   $0x1,-0x698(%rbp)
   1ad92:	01 
   1ad93:	c7 85 74 f8 ff ff 00 	movl   $0x0,-0x78c(%rbp)
   1ad9a:	00 00 00 
   1ad9d:	e9 83 02 00 00       	jmpq   1b025 <func_69+0x1669>
   1ada2:	48 c7 85 28 f9 ff ff 	movq   $0x0,-0x6d8(%rbp)
   1ada9:	00 00 00 00 
   1adad:	48 8d 85 28 f9 ff ff 	lea    -0x6d8(%rbp),%rax
   1adb4:	48 89 85 b8 f9 ff ff 	mov    %rax,-0x648(%rbp)
   1adbb:	48 c7 85 c0 f9 ff ff 	movq   $0x0,-0x640(%rbp)
   1adc2:	00 00 00 00 
   1adc6:	48 8d 05 bb a2 00 00 	lea    0xa2bb(%rip),%rax        # 25088 <g_151>
   1adcd:	48 89 85 c8 f9 ff ff 	mov    %rax,-0x638(%rbp)
   1add4:	48 8b 05 6d e0 00 00 	mov    0xe06d(%rip),%rax        # 28e48 <g_1091>
   1addb:	8b 95 74 f8 ff ff    	mov    -0x78c(%rbp),%edx
   1ade1:	48 63 d2             	movslq %edx,%rdx
   1ade4:	48 8d 0c 95 00 00 00 	lea    0x0(,%rdx,4),%rcx
   1adeb:	00 
   1adec:	48 8d 15 4d a2 00 00 	lea    0xa24d(%rip),%rdx        # 25040 <g_52>
   1adf3:	48 01 ca             	add    %rcx,%rdx
   1adf6:	48 89 10             	mov    %rdx,(%rax)
   1adf9:	8b 05 75 a2 00 00    	mov    0xa275(%rip),%eax        # 25074 <g_56>
   1adff:	48 98                	cltq   
   1ae01:	48 be 22 cd 80 8f de 	movabs $0x7d2413de8f80cd22,%rsi
   1ae08:	13 24 7d 
   1ae0b:	48 89 c7             	mov    %rax,%rdi
   1ae0e:	e8 2e 0a ff ff       	callq  b841 <safe_add_func_int64_t_s_s>
   1ae13:	48 8b 15 86 db 00 00 	mov    0xdb86(%rip),%rdx        # 289a0 <g_1028>
   1ae1a:	48 8b 0a             	mov    (%rdx),%rcx
   1ae1d:	0f b7 15 c6 a2 00 00 	movzwl 0xa2c6(%rip),%edx        # 250ea <g_358>
   1ae24:	0f b7 d2             	movzwl %dx,%edx
   1ae27:	48 39 d1             	cmp    %rdx,%rcx
   1ae2a:	0f 95 c2             	setne  %dl
   1ae2d:	0f b6 ca             	movzbl %dl,%ecx
   1ae30:	0f b7 95 24 f8 ff ff 	movzwl -0x7dc(%rbp),%edx
   1ae37:	0f bf d2             	movswl %dx,%edx
   1ae3a:	09 ca                	or     %ecx,%edx
   1ae3c:	48 63 d2             	movslq %edx,%rdx
   1ae3f:	48 31 c2             	xor    %rax,%rdx
   1ae42:	8b 85 90 f8 ff ff    	mov    -0x770(%rbp),%eax
   1ae48:	48 39 c2             	cmp    %rax,%rdx
   1ae4b:	0f 95 c0             	setne  %al
   1ae4e:	0f b6 c0             	movzbl %al,%eax
   1ae51:	be fc ff ff ff       	mov    $0xfffffffc,%esi
   1ae56:	89 c7                	mov    %eax,%edi
   1ae58:	e8 a0 10 ff ff       	callq  befd <safe_mod_func_uint32_t_u_u>
   1ae5d:	89 c2                	mov    %eax,%edx
   1ae5f:	0f b7 85 24 f8 ff ff 	movzwl -0x7dc(%rbp),%eax
   1ae66:	98                   	cwtl   
   1ae67:	89 d6                	mov    %edx,%esi
   1ae69:	89 c7                	mov    %eax,%edi
   1ae6b:	e8 ba 06 ff ff       	callq  b52a <safe_rshift_func_int16_t_s_s>
   1ae70:	0f b7 85 24 f8 ff ff 	movzwl -0x7dc(%rbp),%eax
   1ae77:	0f bf d0             	movswl %ax,%edx
   1ae7a:	0f b7 85 24 f8 ff ff 	movzwl -0x7dc(%rbp),%eax
   1ae81:	98                   	cwtl   
   1ae82:	89 d6                	mov    %edx,%esi
   1ae84:	89 c7                	mov    %eax,%edi
   1ae86:	e8 6a 05 ff ff       	callq  b3f5 <safe_mul_func_int16_t_s_s>
   1ae8b:	66 85 c0             	test   %ax,%ax
   1ae8e:	0f 95 c0             	setne  %al
   1ae91:	0f b6 d0             	movzbl %al,%edx
   1ae94:	48 83 bd b8 f9 ff ff 	cmpq   $0x0,-0x648(%rbp)
   1ae9b:	00 
   1ae9c:	0f 95 c0             	setne  %al
   1ae9f:	0f b6 c0             	movzbl %al,%eax
   1aea2:	89 d6                	mov    %edx,%esi
   1aea4:	89 c7                	mov    %eax,%edi
   1aea6:	e8 74 0e ff ff       	callq  bd1f <safe_sub_func_uint16_t_u_u>
   1aeab:	0f b7 c0             	movzwl %ax,%eax
   1aeae:	be c1 31 f4 4d       	mov    $0x4df431c1,%esi
   1aeb3:	89 c7                	mov    %eax,%edi
   1aeb5:	e8 43 10 ff ff       	callq  befd <safe_mod_func_uint32_t_u_u>
   1aeba:	0f b7 95 24 f8 ff ff 	movzwl -0x7dc(%rbp),%edx
   1aec1:	0f bf d2             	movswl %dx,%edx
   1aec4:	39 d0                	cmp    %edx,%eax
   1aec6:	0f 94 c0             	sete   %al
   1aec9:	0f b6 d0             	movzbl %al,%edx
   1aecc:	0f bf 85 42 f8 ff ff 	movswl -0x7be(%rbp),%eax
   1aed3:	39 c2                	cmp    %eax,%edx
   1aed5:	0f 9c c0             	setl   %al
   1aed8:	0f b6 c8             	movzbl %al,%ecx
   1aedb:	48 8b 85 c8 f9 ff ff 	mov    -0x638(%rbp),%rax
   1aee2:	48 8b 10             	mov    (%rax),%rdx
   1aee5:	48 63 c1             	movslq %ecx,%rax
   1aee8:	48 31 c2             	xor    %rax,%rdx
   1aeeb:	48 8b 85 c8 f9 ff ff 	mov    -0x638(%rbp),%rax
   1aef2:	48 89 10             	mov    %rdx,(%rax)
   1aef5:	0f b6 05 85 a1 00 00 	movzbl 0xa185(%rip),%eax        # 25081 <g_129>
   1aefc:	8b 95 18 fa ff ff    	mov    -0x5e8(%rbp),%edx
   1af02:	0f be c0             	movsbl %al,%eax
   1af05:	09 d0                	or     %edx,%eax
   1af07:	89 85 18 fa ff ff    	mov    %eax,-0x5e8(%rbp)
   1af0d:	8b 85 18 fa ff ff    	mov    -0x5e8(%rbp),%eax
   1af13:	48 98                	cltq   
   1af15:	48 89 c7             	mov    %rax,%rdi
   1af18:	e8 f9 08 ff ff       	callq  b816 <safe_unary_minus_func_int64_t_s>
   1af1d:	0f b6 c0             	movzbl %al,%eax
   1af20:	89 c6                	mov    %eax,%esi
   1af22:	bf 21 00 00 00       	mov    $0x21,%edi
   1af27:	e8 67 0c ff ff       	callq  bb93 <safe_mul_func_uint8_t_u_u>
   1af2c:	0f b6 d0             	movzbl %al,%edx
   1af2f:	0f b7 85 24 f8 ff ff 	movzwl -0x7dc(%rbp),%eax
   1af36:	98                   	cwtl   
   1af37:	09 d0                	or     %edx,%eax
   1af39:	48 98                	cltq   
   1af3b:	48 ba 39 b5 89 9e b5 	movabs $0xae1b95b59e89b539,%rdx
   1af42:	95 1b ae 
   1af45:	48 39 d0             	cmp    %rdx,%rax
   1af48:	0f 93 c0             	setae  %al
   1af4b:	0f b6 d0             	movzbl %al,%edx
   1af4e:	8b 85 1c fa ff ff    	mov    -0x5e4(%rbp),%eax
   1af54:	21 d0                	and    %edx,%eax
   1af56:	89 85 1c fa ff ff    	mov    %eax,-0x5e4(%rbp)
   1af5c:	66 c7 85 42 f8 ff ff 	movw   $0x2,-0x7be(%rbp)
   1af63:	02 00 
   1af65:	e9 a6 00 00 00       	jmpq   1b010 <func_69+0x1654>
   1af6a:	48 83 bd 68 f9 ff ff 	cmpq   $0x0,-0x698(%rbp)
   1af71:	00 
   1af72:	74 05                	je     1af79 <func_69+0x15bd>
   1af74:	e9 3c ee ff ff       	jmpq   19db5 <func_69+0x3f9>
   1af79:	0f be 95 41 f8 ff ff 	movsbl -0x7bf(%rbp),%edx
   1af80:	0f bf 8d 42 f8 ff ff 	movswl -0x7be(%rbp),%ecx
   1af87:	0f bf 85 42 f8 ff ff 	movswl -0x7be(%rbp),%eax
   1af8e:	48 98                	cltq   
   1af90:	48 63 c9             	movslq %ecx,%rcx
   1af93:	48 c1 e1 03          	shl    $0x3,%rcx
   1af97:	48 01 c1             	add    %rax,%rcx
   1af9a:	48 8d 05 7f a1 00 00 	lea    0xa17f(%rip),%rax        # 25120 <g_929>
   1afa1:	48 01 c8             	add    %rcx,%rax
   1afa4:	0f b6 00             	movzbl (%rax),%eax
   1afa7:	0f b6 c0             	movzbl %al,%eax
   1afaa:	89 d6                	mov    %edx,%esi
   1afac:	89 c7                	mov    %eax,%edi
   1afae:	e8 4a 0f ff ff       	callq  befd <safe_mod_func_uint32_t_u_u>
   1afb3:	8b 95 74 f8 ff ff    	mov    -0x78c(%rbp),%edx
   1afb9:	48 63 d2             	movslq %edx,%rdx
   1afbc:	48 8d 0c 95 00 00 00 	lea    0x0(,%rdx,4),%rcx
   1afc3:	00 
   1afc4:	48 8d 15 75 a0 00 00 	lea    0xa075(%rip),%rdx        # 25040 <g_52>
   1afcb:	8b 14 11             	mov    (%rcx,%rdx,1),%edx
   1afce:	09 d0                	or     %edx,%eax
   1afd0:	89 c1                	mov    %eax,%ecx
   1afd2:	8b 85 74 f8 ff ff    	mov    -0x78c(%rbp),%eax
   1afd8:	48 98                	cltq   
   1afda:	48 8d 14 85 00 00 00 	lea    0x0(,%rax,4),%rdx
   1afe1:	00 
   1afe2:	48 8d 05 57 a0 00 00 	lea    0xa057(%rip),%rax        # 25040 <g_52>
   1afe9:	89 0c 02             	mov    %ecx,(%rdx,%rax,1)
   1afec:	0f b7 95 d4 fa ff ff 	movzwl -0x52c(%rbp),%edx
   1aff3:	48 8b 05 c6 d5 00 00 	mov    0xd5c6(%rip),%rax        # 285c0 <g_91>
   1affa:	0f bf d2             	movswl %dx,%edx
   1affd:	89 10                	mov    %edx,(%rax)
   1afff:	0f b7 85 42 f8 ff ff 	movzwl -0x7be(%rbp),%eax
   1b006:	83 c0 01             	add    $0x1,%eax
   1b009:	66 89 85 42 f8 ff ff 	mov    %ax,-0x7be(%rbp)
   1b010:	66 83 bd 42 f8 ff ff 	cmpw   $0x7,-0x7be(%rbp)
   1b017:	07 
   1b018:	0f 8e 4c ff ff ff    	jle    1af6a <func_69+0x15ae>
   1b01e:	83 85 74 f8 ff ff 01 	addl   $0x1,-0x78c(%rbp)
   1b025:	83 bd 74 f8 ff ff 09 	cmpl   $0x9,-0x78c(%rbp)
   1b02c:	0f 8e 70 fd ff ff    	jle    1ada2 <func_69+0x13e6>
   1b032:	e9 9a 03 00 00       	jmpq   1b3d1 <func_69+0x1a15>
   1b037:	48 b8 08 45 f9 27 d2 	movabs $0x897cf0d227f94508,%rax
   1b03e:	f0 7c 89 
   1b041:	48 89 85 a8 f9 ff ff 	mov    %rax,-0x658(%rbp)
   1b048:	c7 85 7c f8 ff ff 00 	movl   $0x0,-0x784(%rbp)
   1b04f:	00 00 00 
   1b052:	eb 6f                	jmp    1b0c3 <func_69+0x1707>
   1b054:	c7 85 80 f8 ff ff 00 	movl   $0x0,-0x780(%rbp)
   1b05b:	00 00 00 
   1b05e:	eb 53                	jmp    1b0b3 <func_69+0x16f7>
   1b060:	c7 85 84 f8 ff ff 00 	movl   $0x0,-0x77c(%rbp)
   1b067:	00 00 00 
   1b06a:	eb 37                	jmp    1b0a3 <func_69+0x16e7>
   1b06c:	8b 85 84 f8 ff ff    	mov    -0x77c(%rbp),%eax
   1b072:	48 63 c8             	movslq %eax,%rcx
   1b075:	8b 85 80 f8 ff ff    	mov    -0x780(%rbp),%eax
   1b07b:	48 63 d0             	movslq %eax,%rdx
   1b07e:	8b 85 7c f8 ff ff    	mov    -0x784(%rbp),%eax
   1b084:	48 98                	cltq   
   1b086:	48 8d 5d d0          	lea    -0x30(%rbp),%rbx
   1b08a:	48 01 d9             	add    %rbx,%rcx
   1b08d:	48 01 ca             	add    %rcx,%rdx
   1b090:	48 01 d0             	add    %rdx,%rax
   1b093:	48 2d ba 05 00 00    	sub    $0x5ba,%rax
   1b099:	c6 00 f8             	movb   $0xf8,(%rax)
   1b09c:	83 85 84 f8 ff ff 01 	addl   $0x1,-0x77c(%rbp)
   1b0a3:	83 bd 84 f8 ff ff 00 	cmpl   $0x0,-0x77c(%rbp)
   1b0aa:	7e c0                	jle    1b06c <func_69+0x16b0>
   1b0ac:	83 85 80 f8 ff ff 01 	addl   $0x1,-0x780(%rbp)
   1b0b3:	83 bd 80 f8 ff ff 00 	cmpl   $0x0,-0x780(%rbp)
   1b0ba:	7e a4                	jle    1b060 <func_69+0x16a4>
   1b0bc:	83 85 7c f8 ff ff 01 	addl   $0x1,-0x784(%rbp)
   1b0c3:	83 bd 7c f8 ff ff 01 	cmpl   $0x1,-0x784(%rbp)
   1b0ca:	7e 88                	jle    1b054 <func_69+0x1698>
   1b0cc:	c7 85 50 f8 ff ff 00 	movl   $0x0,-0x7b0(%rbp)
   1b0d3:	00 00 00 
   1b0d6:	e9 e9 02 00 00       	jmpq   1b3c4 <func_69+0x1a08>
   1b0db:	48 c7 85 28 f9 ff ff 	movq   $0x0,-0x6d8(%rbp)
   1b0e2:	00 00 00 00 
   1b0e6:	48 8d 85 28 f9 ff ff 	lea    -0x6d8(%rbp),%rax
   1b0ed:	48 89 85 b0 f9 ff ff 	mov    %rax,-0x650(%rbp)
   1b0f4:	c7 85 d0 fa ff ff 5b 	movl   $0x423b865b,-0x530(%rbp)
   1b0fb:	86 3b 42 
   1b0fe:	c7 85 d4 fa ff ff 5b 	movl   $0x423b865b,-0x52c(%rbp)
   1b105:	86 3b 42 
   1b108:	c7 85 d8 fa ff ff 5b 	movl   $0x423b865b,-0x528(%rbp)
   1b10f:	86 3b 42 
   1b112:	c7 85 dc fa ff ff 5b 	movl   $0x423b865b,-0x524(%rbp)
   1b119:	86 3b 42 
   1b11c:	c7 85 e0 fa ff ff 5b 	movl   $0x423b865b,-0x520(%rbp)
   1b123:	86 3b 42 
   1b126:	c7 85 e4 fa ff ff 5b 	movl   $0x423b865b,-0x51c(%rbp)
   1b12d:	86 3b 42 
   1b130:	c7 85 e8 fa ff ff 5b 	movl   $0x423b865b,-0x518(%rbp)
   1b137:	86 3b 42 
   1b13a:	c7 85 ec fa ff ff 5b 	movl   $0x423b865b,-0x514(%rbp)
   1b141:	86 3b 42 
   1b144:	c6 85 3f f8 ff ff 02 	movb   $0x2,-0x7c1(%rbp)
   1b14b:	80 bd 3f f8 ff ff 07 	cmpb   $0x7,-0x7c1(%rbp)
   1b152:	77 0c                	ja     1b160 <func_69+0x17a4>
   1b154:	0f b7 85 24 f8 ff ff 	movzwl -0x7dc(%rbp),%eax
   1b15b:	e9 c6 02 00 00       	jmpq   1b426 <func_69+0x1a6a>
   1b160:	0f b7 85 24 f8 ff ff 	movzwl -0x7dc(%rbp),%eax
   1b167:	48 0f bf c0          	movswq %ax,%rax
   1b16b:	48 89 85 18 f8 ff ff 	mov    %rax,-0x7e8(%rbp)
   1b172:	0f b7 85 24 f8 ff ff 	movzwl -0x7dc(%rbp),%eax
   1b179:	66 85 c0             	test   %ax,%ax
   1b17c:	0f 84 66 01 00 00    	je     1b2e8 <func_69+0x192c>
   1b182:	48 8b 05 8f d4 00 00 	mov    0xd48f(%rip),%rax        # 28618 <g_128>
   1b189:	0f b6 00             	movzbl (%rax),%eax
   1b18c:	0f be d8             	movsbl %al,%ebx
   1b18f:	b8 01 00 00 00       	mov    $0x1,%eax
   1b194:	4c 0f bf e0          	movswq %ax,%r12
   1b198:	0f b7 85 24 f8 ff ff 	movzwl -0x7dc(%rbp),%eax
   1b19f:	44 0f be e8          	movsbl %al,%r13d
   1b1a3:	0f b7 85 24 f8 ff ff 	movzwl -0x7dc(%rbp),%eax
   1b1aa:	44 0f bf f0          	movswl %ax,%r14d
   1b1ae:	48 8b 05 63 d4 00 00 	mov    0xd463(%rip),%rax        # 28618 <g_128>
   1b1b5:	0f b6 00             	movzbl (%rax),%eax
   1b1b8:	44 0f b6 f8          	movzbl %al,%r15d
   1b1bc:	0f b7 85 24 f8 ff ff 	movzwl -0x7dc(%rbp),%eax
   1b1c3:	98                   	cwtl   
   1b1c4:	89 85 20 f8 ff ff    	mov    %eax,-0x7e0(%rbp)
   1b1ca:	8b 85 ec fa ff ff    	mov    -0x514(%rbp),%eax
   1b1d0:	0f be d0             	movsbl %al,%edx
   1b1d3:	8b 05 93 9e 00 00    	mov    0x9e93(%rip),%eax        # 2506c <g_54>
   1b1d9:	85 c0                	test   %eax,%eax
   1b1db:	74 0c                	je     1b1e9 <func_69+0x182d>
   1b1dd:	0f b7 85 24 f8 ff ff 	movzwl -0x7dc(%rbp),%eax
   1b1e4:	66 85 c0             	test   %ax,%ax
   1b1e7:	74 07                	je     1b1f0 <func_69+0x1834>
   1b1e9:	b8 01 00 00 00       	mov    $0x1,%eax
   1b1ee:	eb 05                	jmp    1b1f5 <func_69+0x1839>
   1b1f0:	b8 00 00 00 00       	mov    $0x0,%eax
   1b1f5:	0f be c0             	movsbl %al,%eax
   1b1f8:	89 d6                	mov    %edx,%esi
   1b1fa:	89 c7                	mov    %eax,%edi
   1b1fc:	e8 d3 ff fe ff       	callq  b1d4 <safe_add_func_int8_t_s_s>
   1b201:	66 0f be d0          	movsbw %al,%dx
   1b205:	0f b7 85 24 f8 ff ff 	movzwl -0x7dc(%rbp),%eax
   1b20c:	66 39 c2             	cmp    %ax,%dx
   1b20f:	0f 9c c0             	setl   %al
   1b212:	0f b6 d0             	movzbl %al,%edx
   1b215:	0f b7 85 24 f8 ff ff 	movzwl -0x7dc(%rbp),%eax
   1b21c:	98                   	cwtl   
   1b21d:	39 c2                	cmp    %eax,%edx
   1b21f:	0f 95 c0             	setne  %al
   1b222:	0f b6 c0             	movzbl %al,%eax
   1b225:	48 be e9 14 c4 51 6c 	movabs $0xcac0b46c51c414e9,%rsi
   1b22c:	b4 c0 ca 
   1b22f:	48 89 c7             	mov    %rax,%rdi
   1b232:	e8 7d 07 ff ff       	callq  b9b4 <safe_mod_func_int64_t_s_s>
   1b237:	98                   	cwtl   
   1b238:	be 03 00 00 00       	mov    $0x3,%esi
   1b23d:	89 c7                	mov    %eax,%edi
   1b23f:	e8 9d 02 ff ff       	callq  b4e1 <safe_lshift_func_int16_t_s_u>
   1b244:	0f b7 85 24 f8 ff ff 	movzwl -0x7dc(%rbp),%eax
   1b24b:	98                   	cwtl   
   1b24c:	8b b5 20 f8 ff ff    	mov    -0x7e0(%rbp),%esi
   1b252:	89 c7                	mov    %eax,%edi
   1b254:	e8 5a 01 ff ff       	callq  b3b3 <safe_add_func_int16_t_s_s>
   1b259:	0f b6 c0             	movzbl %al,%eax
   1b25c:	44 89 fe             	mov    %r15d,%esi
   1b25f:	89 c7                	mov    %eax,%edi
   1b261:	e8 f4 08 ff ff       	callq  bb5a <safe_add_func_uint8_t_u_u>
   1b266:	f7 d0                	not    %eax
   1b268:	0f be c0             	movsbl %al,%eax
   1b26b:	44 89 f6             	mov    %r14d,%esi
   1b26e:	89 c7                	mov    %eax,%edi
   1b270:	e8 79 00 ff ff       	callq  b2ee <safe_lshift_func_int8_t_s_u>
   1b275:	48 8b 85 a8 f9 ff ff 	mov    -0x658(%rbp),%rax
   1b27c:	0f be c0             	movsbl %al,%eax
   1b27f:	44 89 ee             	mov    %r13d,%esi
   1b282:	89 c7                	mov    %eax,%edi
   1b284:	e8 69 ff fe ff       	callq  b1f2 <safe_sub_func_int8_t_s_s>
   1b289:	48 0f be c0          	movsbq %al,%rax
   1b28d:	4c 89 e6             	mov    %r12,%rsi
   1b290:	48 89 c7             	mov    %rax,%rdi
   1b293:	e8 b3 0d ff ff       	callq  c04b <safe_sub_func_uint64_t_u_u>
   1b298:	48 8b 05 11 d6 00 00 	mov    0xd611(%rip),%rax        # 288b0 <g_426>
   1b29f:	8b 10                	mov    (%rax),%edx
   1b2a1:	8b 05 c9 9d 00 00    	mov    0x9dc9(%rip),%eax        # 25070 <g_55>
   1b2a7:	09 d0                	or     %edx,%eax
   1b2a9:	48 98                	cltq   
   1b2ab:	48 c7 c6 ff ff ff ff 	mov    $0xffffffffffffffff,%rsi
   1b2b2:	48 89 c7             	mov    %rax,%rdi
   1b2b5:	e8 3d 07 ff ff       	callq  b9f7 <safe_div_func_int64_t_s_s>
   1b2ba:	be 02 00 00 00       	mov    $0x2,%esi
   1b2bf:	bf 01 00 00 00       	mov    $0x1,%edi
   1b2c4:	e8 78 05 ff ff       	callq  b841 <safe_add_func_int64_t_s_s>
   1b2c9:	0f b6 c0             	movzbl %al,%eax
   1b2cc:	89 de                	mov    %ebx,%esi
   1b2ce:	89 c7                	mov    %eax,%edi
   1b2d0:	e8 30 09 ff ff       	callq  bc05 <safe_lshift_func_uint8_t_u_s>
   1b2d5:	48 8b 85 d0 fc ff ff 	mov    -0x330(%rbp),%rax
   1b2dc:	48 85 c0             	test   %rax,%rax
   1b2df:	75 07                	jne    1b2e8 <func_69+0x192c>
   1b2e1:	b9 01 00 00 00       	mov    $0x1,%ecx
   1b2e6:	eb 05                	jmp    1b2ed <func_69+0x1931>
   1b2e8:	b9 00 00 00 00       	mov    $0x0,%ecx
   1b2ed:	8b 85 50 f8 ff ff    	mov    -0x7b0(%rbp),%eax
   1b2f3:	48 98                	cltq   
   1b2f5:	48 8b 94 c5 90 fa ff 	mov    -0x570(%rbp,%rax,8),%rdx
   1b2fc:	ff 
   1b2fd:	8b 85 50 f8 ff ff    	mov    -0x7b0(%rbp),%eax
   1b303:	48 98                	cltq   
   1b305:	48 89 94 c5 90 fa ff 	mov    %rdx,-0x570(%rbp,%rax,8)
   1b30c:	ff 
   1b30d:	48 8b 85 b0 f9 ff ff 	mov    -0x650(%rbp),%rax
   1b314:	48 8d 95 24 f8 ff ff 	lea    -0x7dc(%rbp),%rdx
   1b31b:	48 89 10             	mov    %rdx,(%rax)
   1b31e:	48 8b 85 b0 f9 ff ff 	mov    -0x650(%rbp),%rax
   1b325:	48 8b 00             	mov    (%rax),%rax
   1b328:	48 89 05 21 db 00 00 	mov    %rax,0xdb21(%rip)        # 28e50 <g_1125>
   1b32f:	48 8b 15 1a db 00 00 	mov    0xdb1a(%rip),%rdx        # 28e50 <g_1125>
   1b336:	48 8d 85 24 f8 ff ff 	lea    -0x7dc(%rbp),%rax
   1b33d:	48 39 c2             	cmp    %rax,%rdx
   1b340:	0f 94 c0             	sete   %al
   1b343:	0f b6 c0             	movzbl %al,%eax
   1b346:	89 ce                	mov    %ecx,%esi
   1b348:	89 c7                	mov    %eax,%edi
   1b34a:	e8 db 01 ff ff       	callq  b52a <safe_rshift_func_int16_t_s_s>
   1b34f:	0f b7 c0             	movzwl %ax,%eax
   1b352:	be f6 ff 00 00       	mov    $0xfff6,%esi
   1b357:	89 c7                	mov    %eax,%edi
   1b359:	e8 df 09 ff ff       	callq  bd3d <safe_mul_func_uint16_t_u_u>
   1b35e:	66 85 c0             	test   %ax,%ax
   1b361:	75 0b                	jne    1b36e <func_69+0x19b2>
   1b363:	0f b6 05 16 9d 00 00 	movzbl 0x9d16(%rip),%eax        # 25080 <g_112>
   1b36a:	84 c0                	test   %al,%al
   1b36c:	74 07                	je     1b375 <func_69+0x19b9>
   1b36e:	b8 01 00 00 00       	mov    $0x1,%eax
   1b373:	eb 05                	jmp    1b37a <func_69+0x19be>
   1b375:	b8 00 00 00 00       	mov    $0x0,%eax
   1b37a:	48 98                	cltq   
   1b37c:	83 e0 02             	and    $0x2,%eax
   1b37f:	48 39 85 18 f8 ff ff 	cmp    %rax,-0x7e8(%rbp)
   1b386:	0f 9c c2             	setl   %dl
   1b389:	48 8b 05 30 d2 00 00 	mov    0xd230(%rip),%rax        # 285c0 <g_91>
   1b390:	0f b6 d2             	movzbl %dl,%edx
   1b393:	89 10                	mov    %edx,(%rax)
   1b395:	0f b6 85 16 fa ff ff 	movzbl -0x5ea(%rbp),%eax
   1b39c:	84 c0                	test   %al,%al
   1b39e:	75 1c                	jne    1b3bc <func_69+0x1a00>
   1b3a0:	48 8b 05 19 d2 00 00 	mov    0xd219(%rip),%rax        # 285c0 <g_91>
   1b3a7:	8b 00                	mov    (%rax),%eax
   1b3a9:	89 c2                	mov    %eax,%edx
   1b3ab:	0f b6 05 b6 9d 00 00 	movzbl 0x9db6(%rip),%eax        # 25168 <g_1156>
   1b3b2:	31 d0                	xor    %edx,%eax
   1b3b4:	88 05 ae 9d 00 00    	mov    %al,0x9dae(%rip)        # 25168 <g_1156>
   1b3ba:	eb 01                	jmp    1b3bd <func_69+0x1a01>
   1b3bc:	90                   	nop
   1b3bd:	83 85 50 f8 ff ff 01 	addl   $0x1,-0x7b0(%rbp)
   1b3c4:	83 bd 50 f8 ff ff 07 	cmpl   $0x7,-0x7b0(%rbp)
   1b3cb:	0f 8e 0a fd ff ff    	jle    1b0db <func_69+0x171f>
   1b3d1:	0f b7 95 24 f8 ff ff 	movzwl -0x7dc(%rbp),%edx
   1b3d8:	48 8b 05 e1 d1 00 00 	mov    0xd1e1(%rip),%rax        # 285c0 <g_91>
   1b3df:	0f bf d2             	movswl %dx,%edx
   1b3e2:	89 10                	mov    %edx,(%rax)
   1b3e4:	8b 85 20 fa ff ff    	mov    -0x5e0(%rbp),%eax
   1b3ea:	83 e8 01             	sub    $0x1,%eax
   1b3ed:	89 85 20 fa ff ff    	mov    %eax,-0x5e0(%rbp)
   1b3f3:	8b 05 f3 9c 00 00    	mov    0x9cf3(%rip),%eax        # 250ec <g_362>
   1b3f9:	83 c0 01             	add    $0x1,%eax
   1b3fc:	89 05 ea 9c 00 00    	mov    %eax,0x9cea(%rip)        # 250ec <g_362>
   1b402:	8b 05 e4 9c 00 00    	mov    0x9ce4(%rip),%eax        # 250ec <g_362>
   1b408:	83 f8 21             	cmp    $0x21,%eax
   1b40b:	0f 85 14 f2 ff ff    	jne    1a625 <func_69+0xc69>
   1b411:	48 8b 85 50 f9 ff ff 	mov    -0x6b0(%rbp),%rax
   1b418:	48 89 85 28 f8 ff ff 	mov    %rax,-0x7d8(%rbp)
   1b41f:	48 8b 85 58 f9 ff ff 	mov    -0x6a8(%rbp),%rax
   1b426:	48 8b 5d c8          	mov    -0x38(%rbp),%rbx
   1b42a:	64 48 33 1c 25 28 00 	xor    %fs:0x28,%rbx
   1b431:	00 00 
   1b433:	74 05                	je     1b43a <func_69+0x1a7e>
   1b435:	e8 36 fc fe ff       	callq  b070 <__stack_chk_fail@plt>
   1b43a:	48 81 c4 c8 07 00 00 	add    $0x7c8,%rsp
   1b441:	5b                   	pop    %rbx
   1b442:	41 5c                	pop    %r12
   1b444:	41 5d                	pop    %r13
   1b446:	41 5e                	pop    %r14
   1b448:	41 5f                	pop    %r15
   1b44a:	5d                   	pop    %rbp
   1b44b:	c3                   	retq   

000000000001b44c <func_72>:
   1b44c:	f3 0f 1e fa          	endbr64 
   1b450:	55                   	push   %rbp
   1b451:	48 89 e5             	mov    %rsp,%rbp
   1b454:	41 56                	push   %r14
   1b456:	41 55                	push   %r13
   1b458:	41 54                	push   %r12
   1b45a:	53                   	push   %rbx
   1b45b:	48 81 ec 60 08 00 00 	sub    $0x860,%rsp
   1b462:	89 f8                	mov    %edi,%eax
   1b464:	48 89 b5 80 f7 ff ff 	mov    %rsi,-0x880(%rbp)
   1b46b:	66 89 85 8c f7 ff ff 	mov    %ax,-0x874(%rbp)
   1b472:	64 48 8b 04 25 28 00 	mov    %fs:0x28,%rax
   1b479:	00 00 
   1b47b:	48 89 45 d8          	mov    %rax,-0x28(%rbp)
   1b47f:	31 c0                	xor    %eax,%eax
   1b481:	48 8d 05 60 f9 00 00 	lea    0xf960(%rip),%rax        # 2ade8 <g_96>
   1b488:	48 89 85 b0 f7 ff ff 	mov    %rax,-0x850(%rbp)
   1b48f:	48 8d 85 b0 f7 ff ff 	lea    -0x850(%rbp),%rax
   1b496:	48 89 85 c8 f7 ff ff 	mov    %rax,-0x838(%rbp)
   1b49d:	c7 85 a4 f7 ff ff 14 	movl   $0x446b0514,-0x85c(%rbp)
   1b4a4:	05 6b 44 
   1b4a7:	66 c7 85 94 f7 ff ff 	movw   $0xffff,-0x86c(%rbp)
   1b4ae:	ff ff 
   1b4b0:	48 8d 85 f0 f8 ff ff 	lea    -0x710(%rbp),%rax
   1b4b7:	48 8d 15 42 59 00 00 	lea    0x5942(%rip),%rdx        # 20e00 <g_3910+0x1d94>
   1b4be:	b9 6c 00 00 00       	mov    $0x6c,%ecx
   1b4c3:	48 89 c7             	mov    %rax,%rdi
   1b4c6:	48 89 d6             	mov    %rdx,%rsi
   1b4c9:	f3 48 a5             	rep movsq %ds:(%rsi),%es:(%rdi)
   1b4cc:	c7 85 a8 f7 ff ff f9 	movl   $0xfffffff9,-0x858(%rbp)
   1b4d3:	ff ff ff 
   1b4d6:	48 8b 05 53 d1 00 00 	mov    0xd153(%rip),%rax        # 28630 <g_180>
   1b4dd:	48 8b 10             	mov    (%rax),%rdx
   1b4e0:	48 8b 05 d9 d0 00 00 	mov    0xd0d9(%rip),%rax        # 285c0 <g_91>
   1b4e7:	8b 12                	mov    (%rdx),%edx
   1b4e9:	89 10                	mov    %edx,(%rax)
   1b4eb:	48 8b 05 d6 d3 00 00 	mov    0xd3d6(%rip),%rax        # 288c8 <g_512>
   1b4f2:	48 8b 08             	mov    (%rax),%rcx
   1b4f5:	48 8b 95 b0 f7 ff ff 	mov    -0x850(%rbp),%rdx
   1b4fc:	48 8b 85 c8 f7 ff ff 	mov    -0x838(%rbp),%rax
   1b503:	48 89 10             	mov    %rdx,(%rax)
   1b506:	48 8b 85 c8 f7 ff ff 	mov    -0x838(%rbp),%rax
   1b50d:	48 8b 00             	mov    (%rax),%rax
   1b510:	48 39 c1             	cmp    %rax,%rcx
   1b513:	0f 84 d3 01 00 00    	je     1b6ec <func_72+0x2a0>
   1b519:	c6 85 93 f7 ff ff 23 	movb   $0x23,-0x86d(%rbp)
   1b520:	48 8d 05 d1 9b 00 00 	lea    0x9bd1(%rip),%rax        # 250f8 <g_708>
   1b527:	48 89 85 60 f8 ff ff 	mov    %rax,-0x7a0(%rbp)
   1b52e:	48 c7 85 68 f8 ff ff 	movq   $0x0,-0x798(%rbp)
   1b535:	00 00 00 00 
   1b539:	48 8d 85 50 fc ff ff 	lea    -0x3b0(%rbp),%rax
   1b540:	48 8d 15 19 5c 00 00 	lea    0x5c19(%rip),%rdx        # 21160 <g_3910+0x20f4>
   1b547:	b9 70 00 00 00       	mov    $0x70,%ecx
   1b54c:	48 89 c7             	mov    %rax,%rdi
   1b54f:	48 89 d6             	mov    %rdx,%rsi
   1b552:	f3 48 a5             	rep movsq %ds:(%rsi),%es:(%rdi)
   1b555:	48 89 f2             	mov    %rsi,%rdx
   1b558:	48 89 f8             	mov    %rdi,%rax
   1b55b:	8b 0a                	mov    (%rdx),%ecx
   1b55d:	89 08                	mov    %ecx,(%rax)
   1b55f:	48 8d 40 04          	lea    0x4(%rax),%rax
   1b563:	48 8d 52 04          	lea    0x4(%rdx),%rdx
   1b567:	48 8b 05 aa d0 00 00 	mov    0xd0aa(%rip),%rax        # 28618 <g_128>
   1b56e:	0f b6 00             	movzbl (%rax),%eax
   1b571:	0f b6 d8             	movzbl %al,%ebx
   1b574:	b8 ea a8 ff ff       	mov    $0xffffa8ea,%eax
   1b579:	44 0f bf e0          	movswl %ax,%r12d
   1b57d:	44 0f be ad 93 f7 ff 	movsbl -0x86d(%rbp),%r13d
   1b584:	ff 
   1b585:	0f b7 85 8c f7 ff ff 	movzwl -0x874(%rbp),%eax
   1b58c:	44 0f be f0          	movsbl %al,%r14d
   1b590:	0f b7 85 8c f7 ff ff 	movzwl -0x874(%rbp),%eax
   1b597:	48 be df 62 42 7f e0 	movabs $0xf78fabe07f4262df,%rsi
   1b59e:	ab 8f f7 
   1b5a1:	48 89 c7             	mov    %rax,%rdi
   1b5a4:	e8 98 02 ff ff       	callq  b841 <safe_add_func_int64_t_s_s>
   1b5a9:	ba 45 4b e8 a9       	mov    $0xa9e84b45,%edx
   1b5ae:	48 39 d0             	cmp    %rdx,%rax
   1b5b1:	0f 95 c0             	setne  %al
   1b5b4:	0f b6 c0             	movzbl %al,%eax
   1b5b7:	89 c6                	mov    %eax,%esi
   1b5b9:	bf 01 00 00 00       	mov    $0x1,%edi
   1b5be:	e8 fb 07 ff ff       	callq  bdbe <safe_lshift_func_uint16_t_u_s>
   1b5c3:	0f be c0             	movsbl %al,%eax
   1b5c6:	44 89 f6             	mov    %r14d,%esi
   1b5c9:	89 c7                	mov    %eax,%edi
   1b5cb:	e8 9a fc fe ff       	callq  b26a <safe_div_func_int8_t_s_s>
   1b5d0:	0f be c0             	movsbl %al,%eax
   1b5d3:	44 89 ee             	mov    %r13d,%esi
   1b5d6:	89 c7                	mov    %eax,%edi
   1b5d8:	e8 35 fc fe ff       	callq  b212 <safe_mul_func_int8_t_s_s>
   1b5dd:	48 0f be c0          	movsbq %al,%rax
   1b5e1:	48 89 05 a0 9a 00 00 	mov    %rax,0x9aa0(%rip)        # 25088 <g_151>
   1b5e8:	0f b7 05 fb 9a 00 00 	movzwl 0x9afb(%rip),%eax        # 250ea <g_358>
   1b5ef:	44 89 e6             	mov    %r12d,%esi
   1b5f2:	bf ff ff 00 00       	mov    $0xffff,%edi
   1b5f7:	e8 7e 08 ff ff       	callq  be7a <safe_rshift_func_uint16_t_u_u>
   1b5fc:	0f b7 95 8c f7 ff ff 	movzwl -0x874(%rbp),%edx
   1b603:	0f be 85 93 f7 ff ff 	movsbl -0x86d(%rbp),%eax
   1b60a:	39 c2                	cmp    %eax,%edx
   1b60c:	0f 94 c0             	sete   %al
   1b60f:	0f b6 c0             	movzbl %al,%eax
   1b612:	48 8b 95 60 f8 ff ff 	mov    -0x7a0(%rbp),%rdx
   1b619:	48 8b 0a             	mov    (%rdx),%rcx
   1b61c:	48 8b 95 60 f8 ff ff 	mov    -0x7a0(%rbp),%rdx
   1b623:	48 89 0a             	mov    %rcx,(%rdx)
   1b626:	48 8b 95 60 f8 ff ff 	mov    -0x7a0(%rbp),%rdx
   1b62d:	48 8b 12             	mov    (%rdx),%rdx
   1b630:	48 8b 0d c9 9a 00 00 	mov    0x9ac9(%rip),%rcx        # 25100 <g_709>
   1b637:	48 31 ca             	xor    %rcx,%rdx
   1b63a:	48 89 15 bf 9a 00 00 	mov    %rdx,0x9abf(%rip)        # 25100 <g_709>
   1b641:	48 8b 0d b8 9a 00 00 	mov    0x9ab8(%rip),%rcx        # 25100 <g_709>
   1b648:	0f b7 95 8c f7 ff ff 	movzwl -0x874(%rbp),%edx
   1b64f:	48 21 ca             	and    %rcx,%rdx
   1b652:	48 89 c6             	mov    %rax,%rsi
   1b655:	48 89 d7             	mov    %rdx,%rdi
   1b658:	e8 ee 09 ff ff       	callq  c04b <safe_sub_func_uint64_t_u_u>
   1b65d:	0f b6 15 1c 9a 00 00 	movzbl 0x9a1c(%rip),%edx        # 25080 <g_112>
   1b664:	0f b6 d2             	movzbl %dl,%edx
   1b667:	48 39 d0             	cmp    %rdx,%rax
   1b66a:	0f 95 c0             	setne  %al
   1b66d:	0f b6 c0             	movzbl %al,%eax
   1b670:	be 00 00 00 00       	mov    $0x0,%esi
   1b675:	89 c7                	mov    %eax,%edi
   1b677:	e8 58 fb fe ff       	callq  b1d4 <safe_add_func_int8_t_s_s>
   1b67c:	0f b6 c0             	movzbl %al,%eax
   1b67f:	89 de                	mov    %ebx,%esi
   1b681:	89 c7                	mov    %eax,%edi
   1b683:	e8 26 05 ff ff       	callq  bbae <safe_mod_func_uint8_t_u_u>
   1b688:	0f b6 d0             	movzbl %al,%edx
   1b68b:	0f b6 85 93 f7 ff ff 	movzbl -0x86d(%rbp),%eax
   1b692:	0f b6 c0             	movzbl %al,%eax
   1b695:	89 d6                	mov    %edx,%esi
   1b697:	89 c7                	mov    %eax,%edi
   1b699:	e8 bc 04 ff ff       	callq  bb5a <safe_add_func_uint8_t_u_u>
   1b69e:	be 0c 00 00 00       	mov    $0xc,%esi
   1b6a3:	bf f9 ff ff ff       	mov    $0xfffffff9,%edi
   1b6a8:	e8 e5 fd fe ff       	callq  b492 <safe_lshift_func_int16_t_s_s>
   1b6ad:	66 85 c0             	test   %ax,%ax
   1b6b0:	74 15                	je     1b6c7 <func_72+0x27b>
   1b6b2:	48 8b 05 5f cf 00 00 	mov    0xcf5f(%rip),%rax        # 28618 <g_128>
   1b6b9:	0f b6 00             	movzbl (%rax),%eax
   1b6bc:	84 c0                	test   %al,%al
   1b6be:	74 07                	je     1b6c7 <func_72+0x27b>
   1b6c0:	ba 01 00 00 00       	mov    $0x1,%edx
   1b6c5:	eb 05                	jmp    1b6cc <func_72+0x280>
   1b6c7:	ba 00 00 00 00       	mov    $0x0,%edx
   1b6cc:	48 8b 05 ed ce 00 00 	mov    0xceed(%rip),%rax        # 285c0 <g_91>
   1b6d3:	89 10                	mov    %edx,(%rax)
   1b6d5:	8b 85 f8 fe ff ff    	mov    -0x108(%rbp),%eax
   1b6db:	23 85 a4 f7 ff ff    	and    -0x85c(%rbp),%eax
   1b6e1:	89 85 f8 fe ff ff    	mov    %eax,-0x108(%rbp)
   1b6e7:	e9 83 06 00 00       	jmpq   1bd6f <func_72+0x923>
   1b6ec:	c7 85 ac f7 ff ff 07 	movl   $0x7,-0x854(%rbp)
   1b6f3:	00 00 00 
   1b6f6:	66 c7 85 96 f7 ff ff 	movw   $0x0,-0x86a(%rbp)
   1b6fd:	00 00 
   1b6ff:	c7 85 50 fc ff ff 04 	movl   $0x4,-0x3b0(%rbp)
   1b706:	00 00 00 
   1b709:	c7 85 54 fc ff ff 04 	movl   $0x4,-0x3ac(%rbp)
   1b710:	00 00 00 
   1b713:	c7 85 58 fc ff ff 07 	movl   $0x7,-0x3a8(%rbp)
   1b71a:	00 00 00 
   1b71d:	c7 85 5c fc ff ff 04 	movl   $0x4,-0x3a4(%rbp)
   1b724:	00 00 00 
   1b727:	c7 85 60 fc ff ff 04 	movl   $0x4,-0x3a0(%rbp)
   1b72e:	00 00 00 
   1b731:	c7 85 64 fc ff ff 97 	movl   $0x457be697,-0x39c(%rbp)
   1b738:	e6 7b 45 
   1b73b:	c7 85 68 fc ff ff 97 	movl   $0x457be697,-0x398(%rbp)
   1b742:	e6 7b 45 
   1b745:	c7 85 6c fc ff ff 04 	movl   $0x4,-0x394(%rbp)
   1b74c:	00 00 00 
   1b74f:	c7 85 70 fc ff ff 97 	movl   $0x457be697,-0x390(%rbp)
   1b756:	e6 7b 45 
   1b759:	c7 85 74 fc ff ff 04 	movl   $0x4,-0x38c(%rbp)
   1b760:	00 00 00 
   1b763:	c7 85 78 fc ff ff 97 	movl   $0x457be697,-0x388(%rbp)
   1b76a:	e6 7b 45 
   1b76d:	c7 85 7c fc ff ff 97 	movl   $0x457be697,-0x384(%rbp)
   1b774:	e6 7b 45 
   1b777:	c7 85 80 fc ff ff 04 	movl   $0x4,-0x380(%rbp)
   1b77e:	00 00 00 
   1b781:	c7 85 84 fc ff ff 04 	movl   $0x4,-0x37c(%rbp)
   1b788:	00 00 00 
   1b78b:	c7 85 88 fc ff ff 07 	movl   $0x7,-0x378(%rbp)
   1b792:	00 00 00 
   1b795:	c7 85 8c fc ff ff 04 	movl   $0x4,-0x374(%rbp)
   1b79c:	00 00 00 
   1b79f:	c7 85 90 fc ff ff 04 	movl   $0x4,-0x370(%rbp)
   1b7a6:	00 00 00 
   1b7a9:	c7 85 94 fc ff ff 97 	movl   $0x457be697,-0x36c(%rbp)
   1b7b0:	e6 7b 45 
   1b7b3:	c7 85 98 fc ff ff 97 	movl   $0x457be697,-0x368(%rbp)
   1b7ba:	e6 7b 45 
   1b7bd:	c7 85 9c fc ff ff 04 	movl   $0x4,-0x364(%rbp)
   1b7c4:	00 00 00 
   1b7c7:	c7 85 a0 fc ff ff 97 	movl   $0x457be697,-0x360(%rbp)
   1b7ce:	e6 7b 45 
   1b7d1:	c7 85 a4 fc ff ff 04 	movl   $0x4,-0x35c(%rbp)
   1b7d8:	00 00 00 
   1b7db:	c7 85 a8 fc ff ff 97 	movl   $0x457be697,-0x358(%rbp)
   1b7e2:	e6 7b 45 
   1b7e5:	c7 85 ac fc ff ff 97 	movl   $0x457be697,-0x354(%rbp)
   1b7ec:	e6 7b 45 
   1b7ef:	c7 85 b0 fc ff ff 04 	movl   $0x4,-0x350(%rbp)
   1b7f6:	00 00 00 
   1b7f9:	c7 85 b4 fc ff ff 04 	movl   $0x4,-0x34c(%rbp)
   1b800:	00 00 00 
   1b803:	c7 85 b8 fc ff ff 07 	movl   $0x7,-0x348(%rbp)
   1b80a:	00 00 00 
   1b80d:	c7 85 bc fc ff ff 04 	movl   $0x4,-0x344(%rbp)
   1b814:	00 00 00 
   1b817:	c7 85 c0 fc ff ff 04 	movl   $0x4,-0x340(%rbp)
   1b81e:	00 00 00 
   1b821:	c7 85 c4 fc ff ff 97 	movl   $0x457be697,-0x33c(%rbp)
   1b828:	e6 7b 45 
   1b82b:	c7 85 c8 fc ff ff 97 	movl   $0x457be697,-0x338(%rbp)
   1b832:	e6 7b 45 
   1b835:	c7 85 cc fc ff ff 04 	movl   $0x4,-0x334(%rbp)
   1b83c:	00 00 00 
   1b83f:	c7 85 d0 fc ff ff 97 	movl   $0x457be697,-0x330(%rbp)
   1b846:	e6 7b 45 
   1b849:	c7 85 d4 fc ff ff 04 	movl   $0x4,-0x32c(%rbp)
   1b850:	00 00 00 
   1b853:	c7 85 d8 fc ff ff 97 	movl   $0x457be697,-0x328(%rbp)
   1b85a:	e6 7b 45 
   1b85d:	c7 85 dc fc ff ff 97 	movl   $0x457be697,-0x324(%rbp)
   1b864:	e6 7b 45 
   1b867:	c7 85 e0 fc ff ff 04 	movl   $0x4,-0x320(%rbp)
   1b86e:	00 00 00 
   1b871:	c7 85 e4 fc ff ff 04 	movl   $0x4,-0x31c(%rbp)
   1b878:	00 00 00 
   1b87b:	c7 85 e8 fc ff ff 07 	movl   $0x7,-0x318(%rbp)
   1b882:	00 00 00 
   1b885:	c7 85 ec fc ff ff 04 	movl   $0x4,-0x314(%rbp)
   1b88c:	00 00 00 
   1b88f:	48 8d 85 50 fc ff ff 	lea    -0x3b0(%rbp),%rax
   1b896:	48 83 c0 10          	add    $0x10,%rax
   1b89a:	48 89 85 d0 f7 ff ff 	mov    %rax,-0x830(%rbp)
   1b8a1:	48 8d 85 50 fc ff ff 	lea    -0x3b0(%rbp),%rax
   1b8a8:	48 89 85 d8 f7 ff ff 	mov    %rax,-0x828(%rbp)
   1b8af:	48 8d 85 50 fc ff ff 	lea    -0x3b0(%rbp),%rax
   1b8b6:	48 83 c0 2c          	add    $0x2c,%rax
   1b8ba:	48 89 85 e0 f7 ff ff 	mov    %rax,-0x820(%rbp)
   1b8c1:	48 8d 85 50 fc ff ff 	lea    -0x3b0(%rbp),%rax
   1b8c8:	48 83 c0 10          	add    $0x10,%rax
   1b8cc:	48 89 85 e8 f7 ff ff 	mov    %rax,-0x818(%rbp)
   1b8d3:	48 8d 85 50 fc ff ff 	lea    -0x3b0(%rbp),%rax
   1b8da:	48 83 c0 10          	add    $0x10,%rax
   1b8de:	48 89 85 f0 f7 ff ff 	mov    %rax,-0x810(%rbp)
   1b8e5:	48 c7 85 f8 f7 ff ff 	movq   $0x0,-0x808(%rbp)
   1b8ec:	00 00 00 00 
   1b8f0:	48 8d 85 50 fc ff ff 	lea    -0x3b0(%rbp),%rax
   1b8f7:	48 83 c0 10          	add    $0x10,%rax
   1b8fb:	48 89 85 00 f8 ff ff 	mov    %rax,-0x800(%rbp)
   1b902:	48 8d 85 50 fc ff ff 	lea    -0x3b0(%rbp),%rax
   1b909:	48 83 c0 10          	add    $0x10,%rax
   1b90d:	48 89 85 08 f8 ff ff 	mov    %rax,-0x7f8(%rbp)
   1b914:	48 8d 85 50 fc ff ff 	lea    -0x3b0(%rbp),%rax
   1b91b:	48 83 c0 10          	add    $0x10,%rax
   1b91f:	48 89 85 10 f8 ff ff 	mov    %rax,-0x7f0(%rbp)
   1b926:	48 8d 85 50 fc ff ff 	lea    -0x3b0(%rbp),%rax
   1b92d:	48 83 c0 10          	add    $0x10,%rax
   1b931:	48 89 85 b8 f7 ff ff 	mov    %rax,-0x848(%rbp)
   1b938:	48 8d 85 50 fc ff ff 	lea    -0x3b0(%rbp),%rax
   1b93f:	48 83 c0 10          	add    $0x10,%rax
   1b943:	48 89 85 18 f8 ff ff 	mov    %rax,-0x7e8(%rbp)
   1b94a:	48 8d 85 f0 f8 ff ff 	lea    -0x710(%rbp),%rax
   1b951:	48 05 18 03 00 00    	add    $0x318,%rax
   1b957:	48 89 85 20 f8 ff ff 	mov    %rax,-0x7e0(%rbp)
   1b95e:	48 8d 85 f0 f8 ff ff 	lea    -0x710(%rbp),%rax
   1b965:	48 05 18 03 00 00    	add    $0x318,%rax
   1b96b:	48 89 85 28 f8 ff ff 	mov    %rax,-0x7d8(%rbp)
   1b972:	48 c7 85 30 f8 ff ff 	movq   $0x0,-0x7d0(%rbp)
   1b979:	00 00 00 00 
   1b97d:	48 8d 85 94 f7 ff ff 	lea    -0x86c(%rbp),%rax
   1b984:	48 89 85 38 f8 ff ff 	mov    %rax,-0x7c8(%rbp)
   1b98b:	48 8d 05 76 97 00 00 	lea    0x9776(%rip),%rax        # 25108 <g_801>
   1b992:	48 89 85 c0 f7 ff ff 	mov    %rax,-0x840(%rbp)
   1b999:	48 8d 85 c0 f7 ff ff 	lea    -0x840(%rbp),%rax
   1b9a0:	48 89 85 40 f8 ff ff 	mov    %rax,-0x7c0(%rbp)
   1b9a7:	c7 85 9c f7 ff ff 00 	movl   $0x0,-0x864(%rbp)
   1b9ae:	00 00 00 
   1b9b1:	eb 25                	jmp    1b9d8 <func_72+0x58c>
   1b9b3:	8b 85 9c f7 ff ff    	mov    -0x864(%rbp),%eax
   1b9b9:	48 98                	cltq   
   1b9bb:	48 8d 95 f0 f8 ff ff 	lea    -0x710(%rbp),%rdx
   1b9c2:	48 81 c2 78 02 00 00 	add    $0x278,%rdx
   1b9c9:	48 89 94 c5 70 f8 ff 	mov    %rdx,-0x790(%rbp,%rax,8)
   1b9d0:	ff 
   1b9d1:	83 85 9c f7 ff ff 01 	addl   $0x1,-0x864(%rbp)
   1b9d8:	83 bd 9c f7 ff ff 01 	cmpl   $0x1,-0x864(%rbp)
   1b9df:	7e d2                	jle    1b9b3 <func_72+0x567>
   1b9e1:	c6 05 99 96 00 00 e6 	movb   $0xe6,0x9699(%rip)        # 25081 <g_129>
   1b9e8:	e9 ee 01 00 00       	jmpq   1bbdb <func_72+0x78f>
   1b9ed:	48 8d 05 f8 96 00 00 	lea    0x96f8(%rip),%rax        # 250ec <g_362>
   1b9f4:	48 89 85 58 f8 ff ff 	mov    %rax,-0x7a8(%rbp)
   1b9fb:	c7 85 98 f7 ff ff bc 	movl   $0x2f7f92bc,-0x868(%rbp)
   1ba02:	92 7f 2f 
   1ba05:	48 b8 e7 12 00 19 a1 	movabs $0x7c3467a1190012e7,%rax
   1ba0c:	67 34 7c 
   1ba0f:	48 89 85 a0 f8 ff ff 	mov    %rax,-0x760(%rbp)
   1ba16:	48 89 85 a8 f8 ff ff 	mov    %rax,-0x758(%rbp)
   1ba1d:	48 89 85 b0 f8 ff ff 	mov    %rax,-0x750(%rbp)
   1ba24:	48 89 85 b8 f8 ff ff 	mov    %rax,-0x748(%rbp)
   1ba2b:	48 89 85 c0 f8 ff ff 	mov    %rax,-0x740(%rbp)
   1ba32:	48 89 85 c8 f8 ff ff 	mov    %rax,-0x738(%rbp)
   1ba39:	48 89 85 d0 f8 ff ff 	mov    %rax,-0x730(%rbp)
   1ba40:	48 89 85 d8 f8 ff ff 	mov    %rax,-0x728(%rbp)
   1ba47:	48 89 85 e0 f8 ff ff 	mov    %rax,-0x720(%rbp)
   1ba4e:	48 89 85 e8 f8 ff ff 	mov    %rax,-0x718(%rbp)
   1ba55:	c7 85 a0 f7 ff ff 00 	movl   $0x0,-0x860(%rbp)
   1ba5c:	00 00 00 
   1ba5f:	eb 1e                	jmp    1ba7f <func_72+0x633>
   1ba61:	8b 85 a0 f7 ff ff    	mov    -0x860(%rbp),%eax
   1ba67:	48 98                	cltq   
   1ba69:	48 8d 95 98 f7 ff ff 	lea    -0x868(%rbp),%rdx
   1ba70:	48 89 94 c5 80 f8 ff 	mov    %rdx,-0x780(%rbp,%rax,8)
   1ba77:	ff 
   1ba78:	83 85 a0 f7 ff ff 01 	addl   $0x1,-0x860(%rbp)
   1ba7f:	83 bd a0 f7 ff ff 03 	cmpl   $0x3,-0x860(%rbp)
   1ba86:	7e d9                	jle    1ba61 <func_72+0x615>
   1ba88:	48 8b 9d a0 f8 ff ff 	mov    -0x760(%rbp),%rbx
   1ba8f:	8b 85 98 f7 ff ff    	mov    -0x868(%rbp),%eax
   1ba95:	41 89 c4             	mov    %eax,%r12d
   1ba98:	48 8b 85 58 f8 ff ff 	mov    -0x7a8(%rbp),%rax
   1ba9f:	8b 00                	mov    (%rax),%eax
   1baa1:	8d 48 01             	lea    0x1(%rax),%ecx
   1baa4:	48 8b 95 58 f8 ff ff 	mov    -0x7a8(%rbp),%rdx
   1baab:	89 0a                	mov    %ecx,(%rdx)
   1baad:	89 c6                	mov    %eax,%esi
   1baaf:	bf 00 00 00 00       	mov    $0x0,%edi
   1bab4:	e8 44 04 ff ff       	callq  befd <safe_mod_func_uint32_t_u_u>
   1bab9:	89 c7                	mov    %eax,%edi
   1babb:	e8 e6 03 ff ff       	callq  bea6 <safe_unary_minus_func_uint32_t_u>
   1bac0:	85 c0                	test   %eax,%eax
   1bac2:	75 45                	jne    1bb09 <func_72+0x6bd>
   1bac4:	8b 95 ac f7 ff ff    	mov    -0x854(%rbp),%edx
   1baca:	0f b7 85 8c f7 ff ff 	movzwl -0x874(%rbp),%eax
   1bad1:	48 89 d6             	mov    %rdx,%rsi
   1bad4:	48 89 c7             	mov    %rax,%rdi
   1bad7:	e8 a4 05 ff ff       	callq  c080 <safe_mod_func_uint64_t_u_u>
   1badc:	0f be c0             	movsbl %al,%eax
   1badf:	be 04 00 00 00       	mov    $0x4,%esi
   1bae4:	89 c7                	mov    %eax,%edi
   1bae6:	e8 b6 f7 fe ff       	callq  b2a1 <safe_lshift_func_int8_t_s_s>
   1baeb:	48 8b 05 4e cb 00 00 	mov    0xcb4e(%rip),%rax        # 28640 <g_357>
   1baf2:	0f b7 00             	movzwl (%rax),%eax
   1baf5:	be 04 00 00 00       	mov    $0x4,%esi
   1bafa:	bf 01 00 00 00       	mov    $0x1,%edi
   1baff:	e8 76 03 ff ff       	callq  be7a <safe_rshift_func_uint16_t_u_u>
   1bb04:	66 85 c0             	test   %ax,%ax
   1bb07:	74 07                	je     1bb10 <func_72+0x6c4>
   1bb09:	b8 01 00 00 00       	mov    $0x1,%eax
   1bb0e:	eb 05                	jmp    1bb15 <func_72+0x6c9>
   1bb10:	b8 00 00 00 00       	mov    $0x0,%eax
   1bb15:	48 98                	cltq   
   1bb17:	48 be 31 78 d0 c3 68 	movabs $0x624f5f68c3d07831,%rsi
   1bb1e:	5f 4f 62 
   1bb21:	48 89 c7             	mov    %rax,%rdi
   1bb24:	e8 57 05 ff ff       	callq  c080 <safe_mod_func_uint64_t_u_u>
   1bb29:	48 8b 05 d0 95 00 00 	mov    0x95d0(%rip),%rax        # 25100 <g_709>
   1bb30:	48 f7 d0             	not    %rax
   1bb33:	48 c1 e8 3f          	shr    $0x3f,%rax
   1bb37:	0f b6 c0             	movzbl %al,%eax
   1bb3a:	39 85 ac f7 ff ff    	cmp    %eax,-0x854(%rbp)
   1bb40:	0f 92 c0             	setb   %al
   1bb43:	0f b6 d0             	movzbl %al,%edx
   1bb46:	0f b7 85 94 f7 ff ff 	movzwl -0x86c(%rbp),%eax
   1bb4d:	98                   	cwtl   
   1bb4e:	39 c2                	cmp    %eax,%edx
   1bb50:	0f 9f c0             	setg   %al
   1bb53:	0f b6 c0             	movzbl %al,%eax
   1bb56:	66 89 85 96 f7 ff ff 	mov    %ax,-0x86a(%rbp)
   1bb5d:	0f b7 85 96 f7 ff ff 	movzwl -0x86a(%rbp),%eax
   1bb64:	44 89 e6             	mov    %r12d,%esi
   1bb67:	89 c7                	mov    %eax,%edi
   1bb69:	e8 0c 03 ff ff       	callq  be7a <safe_rshift_func_uint16_t_u_u>
   1bb6e:	0f b6 c0             	movzbl %al,%eax
   1bb71:	be 04 00 00 00       	mov    $0x4,%esi
   1bb76:	89 c7                	mov    %eax,%edi
   1bb78:	e8 cf 00 ff ff       	callq  bc4c <safe_lshift_func_uint8_t_u_u>
   1bb7d:	8b 85 98 f7 ff ff    	mov    -0x868(%rbp),%eax
   1bb83:	89 85 60 fc ff ff    	mov    %eax,-0x3a0(%rbp)
   1bb89:	48 8b 05 b0 ca 00 00 	mov    0xcab0(%rip),%rax        # 28640 <g_357>
   1bb90:	0f b7 00             	movzwl (%rax),%eax
   1bb93:	48 89 de             	mov    %rbx,%rsi
   1bb96:	bf 00 00 00 00       	mov    $0x0,%edi
   1bb9b:	e8 ab 04 ff ff       	callq  c04b <safe_sub_func_uint64_t_u_u>
   1bba0:	be 04 00 00 00       	mov    $0x4,%esi
   1bba5:	bf 01 00 00 00       	mov    $0x1,%edi
   1bbaa:	e8 99 02 ff ff       	callq  be48 <safe_rshift_func_uint16_t_u_s>
   1bbaf:	89 c2                	mov    %eax,%edx
   1bbb1:	48 8b 05 08 ca 00 00 	mov    0xca08(%rip),%rax        # 285c0 <g_91>
   1bbb8:	0f b7 d2             	movzwl %dx,%edx
   1bbbb:	89 10                	mov    %edx,(%rax)
   1bbbd:	0f b6 05 bd 94 00 00 	movzbl 0x94bd(%rip),%eax        # 25081 <g_129>
   1bbc4:	48 0f be c0          	movsbq %al,%rax
   1bbc8:	be 08 00 00 00       	mov    $0x8,%esi
   1bbcd:	48 89 c7             	mov    %rax,%rdi
   1bbd0:	e8 76 04 ff ff       	callq  c04b <safe_sub_func_uint64_t_u_u>
   1bbd5:	88 05 a6 94 00 00    	mov    %al,0x94a6(%rip)        # 25081 <g_129>
   1bbdb:	0f b6 05 9f 94 00 00 	movzbl 0x949f(%rip),%eax        # 25081 <g_129>
   1bbe2:	3c e2                	cmp    $0xe2,%al
   1bbe4:	0f 8d 03 fe ff ff    	jge    1b9ed <func_72+0x5a1>
   1bbea:	83 85 a8 f7 ff ff 01 	addl   $0x1,-0x858(%rbp)
   1bbf1:	66 c7 85 94 f7 ff ff 	movw   $0xfff8,-0x86c(%rbp)
   1bbf8:	f8 ff 
   1bbfa:	90                   	nop
   1bbfb:	0f b7 85 94 f7 ff ff 	movzwl -0x86c(%rbp),%eax
   1bc02:	66 83 f8 0a          	cmp    $0xa,%ax
   1bc06:	7f 1a                	jg     1bc22 <func_72+0x7d6>
   1bc08:	48 8d 05 65 94 00 00 	lea    0x9465(%rip),%rax        # 25074 <g_56>
   1bc0f:	48 89 85 50 f8 ff ff 	mov    %rax,-0x7b0(%rbp)
   1bc16:	48 8b 85 50 f8 ff ff 	mov    -0x7b0(%rbp),%rax
   1bc1d:	e9 9f 01 00 00       	jmpq   1bdc1 <func_72+0x975>
   1bc22:	48 8b 05 d7 94 00 00 	mov    0x94d7(%rip),%rax        # 25100 <g_709>
   1bc29:	48 85 c0             	test   %rax,%rax
   1bc2c:	0f 85 0b 01 00 00    	jne    1bd3d <func_72+0x8f1>
   1bc32:	48 8b 05 87 c9 00 00 	mov    0xc987(%rip),%rax        # 285c0 <g_91>
   1bc39:	8b 18                	mov    (%rax),%ebx
   1bc3b:	48 8b 05 be 94 00 00 	mov    0x94be(%rip),%rax        # 25100 <g_709>
   1bc42:	41 89 c5             	mov    %eax,%r13d
   1bc45:	0f b7 95 8c f7 ff ff 	movzwl -0x874(%rbp),%edx
   1bc4c:	48 8b 85 38 f8 ff ff 	mov    -0x7c8(%rbp),%rax
   1bc53:	66 89 10             	mov    %dx,(%rax)
   1bc56:	48 8b 85 38 f8 ff ff 	mov    -0x7c8(%rbp),%rax
   1bc5d:	0f b7 00             	movzwl (%rax),%eax
   1bc60:	66 85 c0             	test   %ax,%ax
   1bc63:	75 12                	jne    1bc77 <func_72+0x82b>
   1bc65:	48 c7 85 40 f8 ff ff 	movq   $0x0,-0x7c0(%rbp)
   1bc6c:	00 00 00 00 
   1bc70:	b8 00 00 00 00       	mov    $0x0,%eax
   1bc75:	eb 05                	jmp    1bc7c <func_72+0x830>
   1bc77:	b8 01 00 00 00       	mov    $0x1,%eax
   1bc7c:	66 0d b6 0d          	or     $0xdb6,%ax
   1bc80:	44 0f b7 e0          	movzwl %ax,%r12d
   1bc84:	48 8b 05 8d c9 00 00 	mov    0xc98d(%rip),%rax        # 28618 <g_128>
   1bc8b:	0f b6 00             	movzbl (%rax),%eax
   1bc8e:	0f be c0             	movsbl %al,%eax
   1bc91:	be 05 00 00 00       	mov    $0x5,%esi
   1bc96:	89 c7                	mov    %eax,%edi
   1bc98:	e8 cf f6 fe ff       	callq  b36c <safe_rshift_func_int8_t_s_u>
   1bc9d:	66 98                	cbtw   
   1bc9f:	0f b7 c0             	movzwl %ax,%eax
   1bca2:	44 89 e6             	mov    %r12d,%esi
   1bca5:	89 c7                	mov    %eax,%edi
   1bca7:	e8 73 00 ff ff       	callq  bd1f <safe_sub_func_uint16_t_u_u>
   1bcac:	0f b7 d0             	movzwl %ax,%edx
   1bcaf:	48 8b 85 f0 f7 ff ff 	mov    -0x810(%rbp),%rax
   1bcb6:	8b 08                	mov    (%rax),%ecx
   1bcb8:	48 8b 05 f1 cb 00 00 	mov    0xcbf1(%rip),%rax        # 288b0 <g_426>
   1bcbf:	8b 00                	mov    (%rax),%eax
   1bcc1:	31 c1                	xor    %eax,%ecx
   1bcc3:	48 8b 85 f0 f7 ff ff 	mov    -0x810(%rbp),%rax
   1bcca:	89 08                	mov    %ecx,(%rax)
   1bccc:	48 8b 85 f0 f7 ff ff 	mov    -0x810(%rbp),%rax
   1bcd3:	8b 00                	mov    (%rax),%eax
   1bcd5:	85 c0                	test   %eax,%eax
   1bcd7:	0f 94 c0             	sete   %al
   1bcda:	0f b6 c0             	movzbl %al,%eax
   1bcdd:	89 d6                	mov    %edx,%esi
   1bcdf:	89 c7                	mov    %eax,%edi
   1bce1:	e8 d8 ff fe ff       	callq  bcbe <safe_rshift_func_uint8_t_u_u>
   1bce6:	be 14 56 00 00       	mov    $0x5614,%esi
   1bceb:	bf 01 00 00 00       	mov    $0x1,%edi
   1bcf0:	e8 48 00 ff ff       	callq  bd3d <safe_mul_func_uint16_t_u_u>
   1bcf5:	0f b7 c0             	movzwl %ax,%eax
   1bcf8:	89 c6                	mov    %eax,%esi
   1bcfa:	bf 01 00 00 00       	mov    $0x1,%edi
   1bcff:	e8 fb f9 fe ff       	callq  b6ff <safe_div_func_int32_t_s_s>
   1bd04:	44 89 ee             	mov    %r13d,%esi
   1bd07:	89 c7                	mov    %eax,%edi
   1bd09:	e8 c2 01 ff ff       	callq  bed0 <safe_sub_func_uint32_t_u_u>
   1bd0e:	89 de                	mov    %ebx,%esi
   1bd10:	89 c7                	mov    %eax,%edi
   1bd12:	e8 e8 f9 fe ff       	callq  b6ff <safe_div_func_int32_t_s_s>
   1bd17:	8b 15 5f 93 00 00    	mov    0x935f(%rip),%edx        # 2507c <g_65>
   1bd1d:	39 d0                	cmp    %edx,%eax
   1bd1f:	0f 95 c0             	setne  %al
   1bd22:	0f b6 d0             	movzbl %al,%edx
   1bd25:	48 8b 85 20 f8 ff ff 	mov    -0x7e0(%rbp),%rax
   1bd2c:	8b 00                	mov    (%rax),%eax
   1bd2e:	98                   	cwtl   
   1bd2f:	89 d6                	mov    %edx,%esi
   1bd31:	89 c7                	mov    %eax,%edi
   1bd33:	e8 7b f6 fe ff       	callq  b3b3 <safe_add_func_int16_t_s_s>
   1bd38:	66 85 c0             	test   %ax,%ax
   1bd3b:	74 13                	je     1bd50 <func_72+0x904>
   1bd3d:	48 8b 05 94 cb 00 00 	mov    0xcb94(%rip),%rax        # 288d8 <g_803>
   1bd44:	48 8b 95 80 f7 ff ff 	mov    -0x880(%rbp),%rdx
   1bd4b:	48 89 10             	mov    %rdx,(%rax)
   1bd4e:	eb 1f                	jmp    1bd6f <func_72+0x923>
   1bd50:	48 8d 85 b8 f7 ff ff 	lea    -0x848(%rbp),%rax
   1bd57:	48 89 85 48 f8 ff ff 	mov    %rax,-0x7b8(%rbp)
   1bd5e:	48 8b 85 48 f8 ff ff 	mov    -0x7b8(%rbp),%rax
   1bd65:	48 8b 95 80 f7 ff ff 	mov    -0x880(%rbp),%rdx
   1bd6c:	48 89 10             	mov    %rdx,(%rax)
   1bd6f:	48 8b 05 4a c8 00 00 	mov    0xc84a(%rip),%rax        # 285c0 <g_91>
   1bd76:	c7 00 5c b6 71 6b    	movl   $0x6b71b65c,(%rax)
   1bd7c:	48 8b 05 3d c8 00 00 	mov    0xc83d(%rip),%rax        # 285c0 <g_91>
   1bd83:	8b 10                	mov    (%rax),%edx
   1bd85:	0f b7 05 1a 93 00 00 	movzwl 0x931a(%rip),%eax        # 250a6 <g_210+0x6>
   1bd8c:	66 85 c0             	test   %ax,%ax
   1bd8f:	74 16                	je     1bda7 <func_72+0x95b>
   1bd91:	48 8b 05 30 cb 00 00 	mov    0xcb30(%rip),%rax        # 288c8 <g_512>
   1bd98:	48 8b 00             	mov    (%rax),%rax
   1bd9b:	48 85 c0             	test   %rax,%rax
   1bd9e:	75 07                	jne    1bda7 <func_72+0x95b>
   1bda0:	b9 01 00 00 00       	mov    $0x1,%ecx
   1bda5:	eb 05                	jmp    1bdac <func_72+0x960>
   1bda7:	b9 00 00 00 00       	mov    $0x0,%ecx
   1bdac:	48 8b 05 0d c8 00 00 	mov    0xc80d(%rip),%rax        # 285c0 <g_91>
   1bdb3:	09 ca                	or     %ecx,%edx
   1bdb5:	89 10                	mov    %edx,(%rax)
   1bdb7:	48 8b 05 1a cb 00 00 	mov    0xcb1a(%rip),%rax        # 288d8 <g_803>
   1bdbe:	48 8b 00             	mov    (%rax),%rax
   1bdc1:	48 8b 5d d8          	mov    -0x28(%rbp),%rbx
   1bdc5:	64 48 33 1c 25 28 00 	xor    %fs:0x28,%rbx
   1bdcc:	00 00 
   1bdce:	74 05                	je     1bdd5 <func_72+0x989>
   1bdd0:	e8 9b f2 fe ff       	callq  b070 <__stack_chk_fail@plt>
   1bdd5:	48 81 c4 60 08 00 00 	add    $0x860,%rsp
   1bddc:	5b                   	pop    %rbx
   1bddd:	41 5c                	pop    %r12
   1bddf:	41 5d                	pop    %r13
   1bde1:	41 5e                	pop    %r14
   1bde3:	5d                   	pop    %rbp
   1bde4:	c3                   	retq   

000000000001bde5 <func_77>:
   1bde5:	f3 0f 1e fa          	endbr64 
   1bde9:	55                   	push   %rbp
   1bdea:	48 89 e5             	mov    %rsp,%rbp
   1bded:	48 81 ec 00 10 00 00 	sub    $0x1000,%rsp
   1bdf4:	48 83 0c 24 00       	orq    $0x0,(%rsp)
   1bdf9:	48 81 ec 00 0b 00 00 	sub    $0xb00,%rsp
   1be00:	48 89 bd 28 e5 ff ff 	mov    %rdi,-0x1ad8(%rbp)
   1be07:	89 f0                	mov    %esi,%eax
   1be09:	48 89 95 18 e5 ff ff 	mov    %rdx,-0x1ae8(%rbp)
   1be10:	48 89 8d 10 e5 ff ff 	mov    %rcx,-0x1af0(%rbp)
   1be17:	4c 89 85 08 e5 ff ff 	mov    %r8,-0x1af8(%rbp)
   1be1e:	66 89 85 24 e5 ff ff 	mov    %ax,-0x1adc(%rbp)
   1be25:	64 48 8b 04 25 28 00 	mov    %fs:0x28,%rax
   1be2c:	00 00 
   1be2e:	48 89 45 f8          	mov    %rax,-0x8(%rbp)
   1be32:	31 c0                	xor    %eax,%eax
   1be34:	c6 85 36 e5 ff ff f7 	movb   $0xf7,-0x1aca(%rbp)
   1be3b:	48 8d 05 3a 92 00 00 	lea    0x923a(%rip),%rax        # 2507c <g_65>
   1be42:	48 89 85 98 e5 ff ff 	mov    %rax,-0x1a68(%rbp)
   1be49:	48 8d 05 98 ef 00 00 	lea    0xef98(%rip),%rax        # 2ade8 <g_96>
   1be50:	48 89 85 a0 e5 ff ff 	mov    %rax,-0x1a60(%rbp)
   1be57:	48 c7 85 a8 e5 ff ff 	movq   $0x7,-0x1a58(%rbp)
   1be5e:	07 00 00 00 
   1be62:	c7 85 48 e5 ff ff 00 	movl   $0x0,-0x1ab8(%rbp)
   1be69:	00 00 00 
   1be6c:	48 c7 85 b0 e5 ff ff 	movq   $0x0,-0x1a50(%rbp)
   1be73:	00 00 00 00 
   1be77:	48 8d 05 2e 92 00 00 	lea    0x922e(%rip),%rax        # 250ac <g_210+0xc>
   1be7e:	48 89 85 80 e5 ff ff 	mov    %rax,-0x1a80(%rbp)
   1be85:	48 8d 85 d0 e9 ff ff 	lea    -0x1630(%rbp),%rax
   1be8c:	48 8d 15 6d 56 00 00 	lea    0x566d(%rip),%rdx        # 21500 <g_3910+0x2494>
   1be93:	b9 6c 00 00 00       	mov    $0x6c,%ecx
   1be98:	48 89 c7             	mov    %rax,%rdi
   1be9b:	48 89 d6             	mov    %rdx,%rsi
   1be9e:	f3 48 a5             	rep movsq %ds:(%rsi),%es:(%rdi)
   1bea1:	c7 85 4c e5 ff ff 4c 	movl   $0xce037c4c,-0x1ab4(%rbp)
   1bea8:	7c 03 ce 
   1beab:	c7 85 50 e5 ff ff fb 	movl   $0xfffffffb,-0x1ab0(%rbp)
   1beb2:	ff ff ff 
   1beb5:	48 8d 85 80 e5 ff ff 	lea    -0x1a80(%rbp),%rax
   1bebc:	48 89 85 88 e5 ff ff 	mov    %rax,-0x1a78(%rbp)
   1bec3:	48 8d 85 88 e5 ff ff 	lea    -0x1a78(%rbp),%rax
   1beca:	48 89 85 b8 e5 ff ff 	mov    %rax,-0x1a48(%rbp)
   1bed1:	66 c7 85 3a e5 ff ff 	movw   $0x0,-0x1ac6(%rbp)
   1bed8:	00 00 
   1beda:	c6 85 37 e5 ff ff ff 	movb   $0xff,-0x1ac9(%rbp)
   1bee1:	c7 85 54 e5 ff ff 05 	movl   $0x5,-0x1aac(%rbp)
   1bee8:	00 00 00 
   1beeb:	48 8d 05 a6 91 00 00 	lea    0x91a6(%rip),%rax        # 25098 <g_196>
   1bef2:	48 89 85 50 e6 ff ff 	mov    %rax,-0x19b0(%rbp)
   1bef9:	48 8d 85 3a e5 ff ff 	lea    -0x1ac6(%rbp),%rax
   1bf00:	48 89 85 58 e6 ff ff 	mov    %rax,-0x19a8(%rbp)
   1bf07:	48 8d 05 8a 91 00 00 	lea    0x918a(%rip),%rax        # 25098 <g_196>
   1bf0e:	48 89 85 60 e6 ff ff 	mov    %rax,-0x19a0(%rbp)
   1bf15:	48 8d 05 7c 91 00 00 	lea    0x917c(%rip),%rax        # 25098 <g_196>
   1bf1c:	48 89 85 68 e6 ff ff 	mov    %rax,-0x1998(%rbp)
   1bf23:	48 8d 85 3a e5 ff ff 	lea    -0x1ac6(%rbp),%rax
   1bf2a:	48 89 85 70 e6 ff ff 	mov    %rax,-0x1990(%rbp)
   1bf31:	48 8d 05 60 91 00 00 	lea    0x9160(%rip),%rax        # 25098 <g_196>
   1bf38:	48 89 85 78 e6 ff ff 	mov    %rax,-0x1988(%rbp)
   1bf3f:	48 8d 05 52 91 00 00 	lea    0x9152(%rip),%rax        # 25098 <g_196>
   1bf46:	48 89 85 80 e6 ff ff 	mov    %rax,-0x1980(%rbp)
   1bf4d:	48 8d 85 3a e5 ff ff 	lea    -0x1ac6(%rbp),%rax
   1bf54:	48 89 85 88 e6 ff ff 	mov    %rax,-0x1978(%rbp)
   1bf5b:	48 8d 85 50 e6 ff ff 	lea    -0x19b0(%rbp),%rax
   1bf62:	48 89 85 c0 e5 ff ff 	mov    %rax,-0x1a40(%rbp)
   1bf69:	48 8d 85 04 e6 ff ff 	lea    -0x19fc(%rbp),%rax
   1bf70:	48 89 85 c8 e5 ff ff 	mov    %rax,-0x1a38(%rbp)
   1bf77:	c7 85 3c e5 ff ff f6 	movl   $0xfdcc7bf6,-0x1ac4(%rbp)
   1bf7e:	7b cc fd 
   1bf81:	c7 85 58 e5 ff ff 11 	movl   $0x12958d11,-0x1aa8(%rbp)
   1bf88:	8d 95 12 
   1bf8b:	48 c7 85 d0 e5 ff ff 	movq   $0x0,-0x1a30(%rbp)
   1bf92:	00 00 00 00 
   1bf96:	48 8d 85 3c e5 ff ff 	lea    -0x1ac4(%rbp),%rax
   1bf9d:	48 89 85 d8 e5 ff ff 	mov    %rax,-0x1a28(%rbp)
   1bfa4:	48 8d 85 04 e6 ff ff 	lea    -0x19fc(%rbp),%rax
   1bfab:	48 89 85 d0 f2 ff ff 	mov    %rax,-0xd30(%rbp)
   1bfb2:	48 8d 85 04 e6 ff ff 	lea    -0x19fc(%rbp),%rax
   1bfb9:	48 89 85 d8 f2 ff ff 	mov    %rax,-0xd28(%rbp)
   1bfc0:	48 c7 85 e0 f2 ff ff 	movq   $0x0,-0xd20(%rbp)
   1bfc7:	00 00 00 00 
   1bfcb:	48 c7 85 e8 f2 ff ff 	movq   $0x0,-0xd18(%rbp)
   1bfd2:	00 00 00 00 
   1bfd6:	48 c7 85 f0 f2 ff ff 	movq   $0x0,-0xd10(%rbp)
   1bfdd:	00 00 00 00 
   1bfe1:	48 c7 85 f8 f2 ff ff 	movq   $0x0,-0xd08(%rbp)
   1bfe8:	00 00 00 00 
   1bfec:	48 c7 85 00 f3 ff ff 	movq   $0x0,-0xd00(%rbp)
   1bff3:	00 00 00 00 
   1bff7:	48 8d 85 3c e5 ff ff 	lea    -0x1ac4(%rbp),%rax
   1bffe:	48 89 85 08 f3 ff ff 	mov    %rax,-0xcf8(%rbp)
   1c005:	48 8d 85 3c e5 ff ff 	lea    -0x1ac4(%rbp),%rax
   1c00c:	48 89 85 10 f3 ff ff 	mov    %rax,-0xcf0(%rbp)
   1c013:	48 8d 05 5a 90 00 00 	lea    0x905a(%rip),%rax        # 25074 <g_56>
   1c01a:	48 89 85 18 f3 ff ff 	mov    %rax,-0xce8(%rbp)
   1c021:	48 8d 05 50 90 00 00 	lea    0x9050(%rip),%rax        # 25078 <g_64>
   1c028:	48 89 85 20 f3 ff ff 	mov    %rax,-0xce0(%rbp)
   1c02f:	48 c7 85 28 f3 ff ff 	movq   $0x0,-0xcd8(%rbp)
   1c036:	00 00 00 00 
   1c03a:	48 8d 05 3b 90 00 00 	lea    0x903b(%rip),%rax        # 2507c <g_65>
   1c041:	48 89 85 30 f3 ff ff 	mov    %rax,-0xcd0(%rbp)
   1c048:	48 8d 85 04 e6 ff ff 	lea    -0x19fc(%rbp),%rax
   1c04f:	48 89 85 38 f3 ff ff 	mov    %rax,-0xcc8(%rbp)
   1c056:	48 8d 05 17 90 00 00 	lea    0x9017(%rip),%rax        # 25074 <g_56>
   1c05d:	48 89 85 40 f3 ff ff 	mov    %rax,-0xcc0(%rbp)
   1c064:	48 8d 85 04 e6 ff ff 	lea    -0x19fc(%rbp),%rax
   1c06b:	48 89 85 48 f3 ff ff 	mov    %rax,-0xcb8(%rbp)
   1c072:	48 8d 85 3c e5 ff ff 	lea    -0x1ac4(%rbp),%rax
   1c079:	48 89 85 50 f3 ff ff 	mov    %rax,-0xcb0(%rbp)
   1c080:	48 8d 05 f5 8f 00 00 	lea    0x8ff5(%rip),%rax        # 2507c <g_65>
   1c087:	48 89 85 58 f3 ff ff 	mov    %rax,-0xca8(%rbp)
   1c08e:	48 8d 05 df 8f 00 00 	lea    0x8fdf(%rip),%rax        # 25074 <g_56>
   1c095:	48 89 85 60 f3 ff ff 	mov    %rax,-0xca0(%rbp)
   1c09c:	48 c7 85 68 f3 ff ff 	movq   $0x0,-0xc98(%rbp)
   1c0a3:	00 00 00 00 
   1c0a7:	48 c7 85 70 f3 ff ff 	movq   $0x0,-0xc90(%rbp)
   1c0ae:	00 00 00 00 
   1c0b2:	48 c7 85 78 f3 ff ff 	movq   $0x0,-0xc88(%rbp)
   1c0b9:	00 00 00 00 
   1c0bd:	48 c7 85 80 f3 ff ff 	movq   $0x0,-0xc80(%rbp)
   1c0c4:	00 00 00 00 
   1c0c8:	48 8d 05 55 8f 00 00 	lea    0x8f55(%rip),%rax        # 25024 <g_3>
   1c0cf:	48 89 85 88 f3 ff ff 	mov    %rax,-0xc78(%rbp)
   1c0d6:	48 8d 85 04 e6 ff ff 	lea    -0x19fc(%rbp),%rax
   1c0dd:	48 89 85 90 f3 ff ff 	mov    %rax,-0xc70(%rbp)
   1c0e4:	48 8d 05 8d 8f 00 00 	lea    0x8f8d(%rip),%rax        # 25078 <g_64>
   1c0eb:	48 89 85 98 f3 ff ff 	mov    %rax,-0xc68(%rbp)
   1c0f2:	48 c7 85 a0 f3 ff ff 	movq   $0x0,-0xc60(%rbp)
   1c0f9:	00 00 00 00 
   1c0fd:	48 c7 85 a8 f3 ff ff 	movq   $0x0,-0xc58(%rbp)
   1c104:	00 00 00 00 
   1c108:	48 8d 05 6d 8f 00 00 	lea    0x8f6d(%rip),%rax        # 2507c <g_65>
   1c10f:	48 89 85 b0 f3 ff ff 	mov    %rax,-0xc50(%rbp)
   1c116:	48 c7 85 b8 f3 ff ff 	movq   $0x0,-0xc48(%rbp)
   1c11d:	00 00 00 00 
   1c121:	48 8d 85 04 e6 ff ff 	lea    -0x19fc(%rbp),%rax
   1c128:	48 83 c0 04          	add    $0x4,%rax
   1c12c:	48 89 85 c0 f3 ff ff 	mov    %rax,-0xc40(%rbp)
   1c133:	48 8d 85 04 e6 ff ff 	lea    -0x19fc(%rbp),%rax
   1c13a:	48 89 85 c8 f3 ff ff 	mov    %rax,-0xc38(%rbp)
   1c141:	48 8d 85 04 e6 ff ff 	lea    -0x19fc(%rbp),%rax
   1c148:	48 83 c0 08          	add    $0x8,%rax
   1c14c:	48 89 85 d0 f3 ff ff 	mov    %rax,-0xc30(%rbp)
   1c153:	48 8d 85 04 e6 ff ff 	lea    -0x19fc(%rbp),%rax
   1c15a:	48 89 85 d8 f3 ff ff 	mov    %rax,-0xc28(%rbp)
   1c161:	48 8d 85 04 e6 ff ff 	lea    -0x19fc(%rbp),%rax
   1c168:	48 83 c0 04          	add    $0x4,%rax
   1c16c:	48 89 85 e0 f3 ff ff 	mov    %rax,-0xc20(%rbp)
   1c173:	48 8d 05 fe 8e 00 00 	lea    0x8efe(%rip),%rax        # 25078 <g_64>
   1c17a:	48 89 85 e8 f3 ff ff 	mov    %rax,-0xc18(%rbp)
   1c181:	48 8d 85 04 e6 ff ff 	lea    -0x19fc(%rbp),%rax
   1c188:	48 89 85 f0 f3 ff ff 	mov    %rax,-0xc10(%rbp)
   1c18f:	48 8d 85 04 e6 ff ff 	lea    -0x19fc(%rbp),%rax
   1c196:	48 83 c0 08          	add    $0x8,%rax
   1c19a:	48 89 85 f8 f3 ff ff 	mov    %rax,-0xc08(%rbp)
   1c1a1:	48 c7 85 00 f4 ff ff 	movq   $0x0,-0xc00(%rbp)
   1c1a8:	00 00 00 00 
   1c1ac:	48 c7 85 08 f4 ff ff 	movq   $0x0,-0xbf8(%rbp)
   1c1b3:	00 00 00 00 
   1c1b7:	48 c7 85 10 f4 ff ff 	movq   $0x0,-0xbf0(%rbp)
   1c1be:	00 00 00 00 
   1c1c2:	48 8d 85 3c e5 ff ff 	lea    -0x1ac4(%rbp),%rax
   1c1c9:	48 89 85 18 f4 ff ff 	mov    %rax,-0xbe8(%rbp)
   1c1d0:	48 8d 85 04 e6 ff ff 	lea    -0x19fc(%rbp),%rax
   1c1d7:	48 89 85 20 f4 ff ff 	mov    %rax,-0xbe0(%rbp)
   1c1de:	48 c7 85 28 f4 ff ff 	movq   $0x0,-0xbd8(%rbp)
   1c1e5:	00 00 00 00 
   1c1e9:	48 c7 85 30 f4 ff ff 	movq   $0x0,-0xbd0(%rbp)
   1c1f0:	00 00 00 00 
   1c1f4:	48 8d 85 04 e6 ff ff 	lea    -0x19fc(%rbp),%rax
   1c1fb:	48 89 85 38 f4 ff ff 	mov    %rax,-0xbc8(%rbp)
   1c202:	48 8d 05 6f 8e 00 00 	lea    0x8e6f(%rip),%rax        # 25078 <g_64>
   1c209:	48 89 85 40 f4 ff ff 	mov    %rax,-0xbc0(%rbp)
   1c210:	48 c7 85 48 f4 ff ff 	movq   $0x0,-0xbb8(%rbp)
   1c217:	00 00 00 00 
   1c21b:	48 8d 85 04 e6 ff ff 	lea    -0x19fc(%rbp),%rax
   1c222:	48 89 85 50 f4 ff ff 	mov    %rax,-0xbb0(%rbp)
   1c229:	48 c7 85 58 f4 ff ff 	movq   $0x0,-0xba8(%rbp)
   1c230:	00 00 00 00 
   1c234:	48 8d 05 3d 8e 00 00 	lea    0x8e3d(%rip),%rax        # 25078 <g_64>
   1c23b:	48 89 85 60 f4 ff ff 	mov    %rax,-0xba0(%rbp)
   1c242:	48 c7 85 68 f4 ff ff 	movq   $0x0,-0xb98(%rbp)
   1c249:	00 00 00 00 
   1c24d:	48 8d 05 28 8e 00 00 	lea    0x8e28(%rip),%rax        # 2507c <g_65>
   1c254:	48 89 85 70 f4 ff ff 	mov    %rax,-0xb90(%rbp)
   1c25b:	48 8d 05 1a 8e 00 00 	lea    0x8e1a(%rip),%rax        # 2507c <g_65>
   1c262:	48 89 85 78 f4 ff ff 	mov    %rax,-0xb88(%rbp)
   1c269:	48 8d 85 04 e6 ff ff 	lea    -0x19fc(%rbp),%rax
   1c270:	48 83 c0 04          	add    $0x4,%rax
   1c274:	48 89 85 80 f4 ff ff 	mov    %rax,-0xb80(%rbp)
   1c27b:	48 c7 85 88 f4 ff ff 	movq   $0x0,-0xb78(%rbp)
   1c282:	00 00 00 00 
   1c286:	48 c7 85 90 f4 ff ff 	movq   $0x0,-0xb70(%rbp)
   1c28d:	00 00 00 00 
   1c291:	48 8d 05 e4 8d 00 00 	lea    0x8de4(%rip),%rax        # 2507c <g_65>
   1c298:	48 89 85 98 f4 ff ff 	mov    %rax,-0xb68(%rbp)
   1c29f:	48 c7 85 a0 f4 ff ff 	movq   $0x0,-0xb60(%rbp)
   1c2a6:	00 00 00 00 
   1c2aa:	48 c7 85 a8 f4 ff ff 	movq   $0x0,-0xb58(%rbp)
   1c2b1:	00 00 00 00 
   1c2b5:	48 8d 85 04 e6 ff ff 	lea    -0x19fc(%rbp),%rax
   1c2bc:	48 89 85 b0 f4 ff ff 	mov    %rax,-0xb50(%rbp)
   1c2c3:	48 8d 85 3c e5 ff ff 	lea    -0x1ac4(%rbp),%rax
   1c2ca:	48 89 85 b8 f4 ff ff 	mov    %rax,-0xb48(%rbp)
   1c2d1:	48 8d 85 04 e6 ff ff 	lea    -0x19fc(%rbp),%rax
   1c2d8:	48 89 85 c0 f4 ff ff 	mov    %rax,-0xb40(%rbp)
   1c2df:	48 8d 05 96 8d 00 00 	lea    0x8d96(%rip),%rax        # 2507c <g_65>
   1c2e6:	48 89 85 c8 f4 ff ff 	mov    %rax,-0xb38(%rbp)
   1c2ed:	48 8d 85 04 e6 ff ff 	lea    -0x19fc(%rbp),%rax
   1c2f4:	48 89 85 d0 f4 ff ff 	mov    %rax,-0xb30(%rbp)
   1c2fb:	48 c7 85 d8 f4 ff ff 	movq   $0x0,-0xb28(%rbp)
   1c302:	00 00 00 00 
   1c306:	48 8d 85 04 e6 ff ff 	lea    -0x19fc(%rbp),%rax
   1c30d:	48 89 85 e0 f4 ff ff 	mov    %rax,-0xb20(%rbp)
   1c314:	48 8d 85 3c e5 ff ff 	lea    -0x1ac4(%rbp),%rax
   1c31b:	48 89 85 e8 f4 ff ff 	mov    %rax,-0xb18(%rbp)
   1c322:	48 8d 85 04 e6 ff ff 	lea    -0x19fc(%rbp),%rax
   1c329:	48 89 85 f0 f4 ff ff 	mov    %rax,-0xb10(%rbp)
   1c330:	48 c7 85 f8 f4 ff ff 	movq   $0x0,-0xb08(%rbp)
   1c337:	00 00 00 00 
   1c33b:	48 8d 05 3a 8d 00 00 	lea    0x8d3a(%rip),%rax        # 2507c <g_65>
   1c342:	48 89 85 00 f5 ff ff 	mov    %rax,-0xb00(%rbp)
   1c349:	48 8d 85 04 e6 ff ff 	lea    -0x19fc(%rbp),%rax
   1c350:	48 89 85 08 f5 ff ff 	mov    %rax,-0xaf8(%rbp)
   1c357:	48 8d 05 16 8d 00 00 	lea    0x8d16(%rip),%rax        # 25074 <g_56>
   1c35e:	48 89 85 10 f5 ff ff 	mov    %rax,-0xaf0(%rbp)
   1c365:	48 c7 85 18 f5 ff ff 	movq   $0x0,-0xae8(%rbp)
   1c36c:	00 00 00 00 
   1c370:	48 8d 05 fd 8c 00 00 	lea    0x8cfd(%rip),%rax        # 25074 <g_56>
   1c377:	48 89 85 20 f5 ff ff 	mov    %rax,-0xae0(%rbp)
   1c37e:	48 c7 85 28 f5 ff ff 	movq   $0x0,-0xad8(%rbp)
   1c385:	00 00 00 00 
   1c389:	48 8d 85 04 e6 ff ff 	lea    -0x19fc(%rbp),%rax
   1c390:	48 83 c0 08          	add    $0x8,%rax
   1c394:	48 89 85 30 f5 ff ff 	mov    %rax,-0xad0(%rbp)
   1c39b:	48 8d 85 3c e5 ff ff 	lea    -0x1ac4(%rbp),%rax
   1c3a2:	48 89 85 38 f5 ff ff 	mov    %rax,-0xac8(%rbp)
   1c3a9:	48 c7 85 40 f5 ff ff 	movq   $0x0,-0xac0(%rbp)
   1c3b0:	00 00 00 00 
   1c3b4:	48 8d 05 b9 8c 00 00 	lea    0x8cb9(%rip),%rax        # 25074 <g_56>
   1c3bb:	48 89 85 48 f5 ff ff 	mov    %rax,-0xab8(%rbp)
   1c3c2:	48 8d 05 af 8c 00 00 	lea    0x8caf(%rip),%rax        # 25078 <g_64>
   1c3c9:	48 89 85 50 f5 ff ff 	mov    %rax,-0xab0(%rbp)
   1c3d0:	48 c7 85 58 f5 ff ff 	movq   $0x0,-0xaa8(%rbp)
   1c3d7:	00 00 00 00 
   1c3db:	48 8d 85 04 e6 ff ff 	lea    -0x19fc(%rbp),%rax
   1c3e2:	48 89 85 60 f5 ff ff 	mov    %rax,-0xaa0(%rbp)
   1c3e9:	48 8d 85 04 e6 ff ff 	lea    -0x19fc(%rbp),%rax
   1c3f0:	48 89 85 68 f5 ff ff 	mov    %rax,-0xa98(%rbp)
   1c3f7:	48 c7 85 70 f5 ff ff 	movq   $0x0,-0xa90(%rbp)
   1c3fe:	00 00 00 00 
   1c402:	48 8d 85 04 e6 ff ff 	lea    -0x19fc(%rbp),%rax
   1c409:	48 89 85 78 f5 ff ff 	mov    %rax,-0xa88(%rbp)
   1c410:	48 c7 85 80 f5 ff ff 	movq   $0x0,-0xa80(%rbp)
   1c417:	00 00 00 00 
   1c41b:	48 8d 05 5a 8c 00 00 	lea    0x8c5a(%rip),%rax        # 2507c <g_65>
   1c422:	48 89 85 88 f5 ff ff 	mov    %rax,-0xa78(%rbp)
   1c429:	48 8d 05 4c 8c 00 00 	lea    0x8c4c(%rip),%rax        # 2507c <g_65>
   1c430:	48 89 85 90 f5 ff ff 	mov    %rax,-0xa70(%rbp)
   1c437:	48 c7 85 98 f5 ff ff 	movq   $0x0,-0xa68(%rbp)
   1c43e:	00 00 00 00 
   1c442:	48 8d 05 2b 8c 00 00 	lea    0x8c2b(%rip),%rax        # 25074 <g_56>
   1c449:	48 89 85 a0 f5 ff ff 	mov    %rax,-0xa60(%rbp)
   1c450:	48 c7 85 a8 f5 ff ff 	movq   $0x0,-0xa58(%rbp)
   1c457:	00 00 00 00 
   1c45b:	48 8d 05 1a 8c 00 00 	lea    0x8c1a(%rip),%rax        # 2507c <g_65>
   1c462:	48 89 85 b0 f5 ff ff 	mov    %rax,-0xa50(%rbp)
   1c469:	48 8d 05 b4 8b 00 00 	lea    0x8bb4(%rip),%rax        # 25024 <g_3>
   1c470:	48 89 85 b8 f5 ff ff 	mov    %rax,-0xa48(%rbp)
   1c477:	48 8d 85 04 e6 ff ff 	lea    -0x19fc(%rbp),%rax
   1c47e:	48 83 c0 08          	add    $0x8,%rax
   1c482:	48 89 85 c0 f5 ff ff 	mov    %rax,-0xa40(%rbp)
   1c489:	48 8d 05 e8 8b 00 00 	lea    0x8be8(%rip),%rax        # 25078 <g_64>
   1c490:	48 89 85 c8 f5 ff ff 	mov    %rax,-0xa38(%rbp)
   1c497:	48 8d 85 04 e6 ff ff 	lea    -0x19fc(%rbp),%rax
   1c49e:	48 83 c0 08          	add    $0x8,%rax
   1c4a2:	48 89 85 d0 f5 ff ff 	mov    %rax,-0xa30(%rbp)
   1c4a9:	48 c7 85 d8 f5 ff ff 	movq   $0x0,-0xa28(%rbp)
   1c4b0:	00 00 00 00 
   1c4b4:	48 8d 05 b9 8b 00 00 	lea    0x8bb9(%rip),%rax        # 25074 <g_56>
   1c4bb:	48 89 85 e0 f5 ff ff 	mov    %rax,-0xa20(%rbp)
   1c4c2:	48 c7 85 e8 f5 ff ff 	movq   $0x0,-0xa18(%rbp)
   1c4c9:	00 00 00 00 
   1c4cd:	48 8d 05 a4 8b 00 00 	lea    0x8ba4(%rip),%rax        # 25078 <g_64>
   1c4d4:	48 89 85 f0 f5 ff ff 	mov    %rax,-0xa10(%rbp)
   1c4db:	48 8d 85 04 e6 ff ff 	lea    -0x19fc(%rbp),%rax
   1c4e2:	48 89 85 f8 f5 ff ff 	mov    %rax,-0xa08(%rbp)
   1c4e9:	48 8d 85 04 e6 ff ff 	lea    -0x19fc(%rbp),%rax
   1c4f0:	48 89 85 00 f6 ff ff 	mov    %rax,-0xa00(%rbp)
   1c4f7:	48 8d 85 04 e6 ff ff 	lea    -0x19fc(%rbp),%rax
   1c4fe:	48 89 85 08 f6 ff ff 	mov    %rax,-0x9f8(%rbp)
   1c505:	48 8d 05 6c 8b 00 00 	lea    0x8b6c(%rip),%rax        # 25078 <g_64>
   1c50c:	48 89 85 10 f6 ff ff 	mov    %rax,-0x9f0(%rbp)
   1c513:	48 c7 85 18 f6 ff ff 	movq   $0x0,-0x9e8(%rbp)
   1c51a:	00 00 00 00 
   1c51e:	48 8d 05 53 8b 00 00 	lea    0x8b53(%rip),%rax        # 25078 <g_64>
   1c525:	48 89 85 20 f6 ff ff 	mov    %rax,-0x9e0(%rbp)
   1c52c:	48 8d 05 49 8b 00 00 	lea    0x8b49(%rip),%rax        # 2507c <g_65>
   1c533:	48 89 85 28 f6 ff ff 	mov    %rax,-0x9d8(%rbp)
   1c53a:	48 8d 05 3b 8b 00 00 	lea    0x8b3b(%rip),%rax        # 2507c <g_65>
   1c541:	48 89 85 30 f6 ff ff 	mov    %rax,-0x9d0(%rbp)
   1c548:	48 8d 05 25 8b 00 00 	lea    0x8b25(%rip),%rax        # 25074 <g_56>
   1c54f:	48 89 85 38 f6 ff ff 	mov    %rax,-0x9c8(%rbp)
   1c556:	48 8d 05 1b 8b 00 00 	lea    0x8b1b(%rip),%rax        # 25078 <g_64>
   1c55d:	48 89 85 40 f6 ff ff 	mov    %rax,-0x9c0(%rbp)
   1c564:	48 8d 05 09 8b 00 00 	lea    0x8b09(%rip),%rax        # 25074 <g_56>
   1c56b:	48 89 85 48 f6 ff ff 	mov    %rax,-0x9b8(%rbp)
   1c572:	48 8d 05 fb 8a 00 00 	lea    0x8afb(%rip),%rax        # 25074 <g_56>
   1c579:	48 89 85 50 f6 ff ff 	mov    %rax,-0x9b0(%rbp)
   1c580:	48 8d 05 f5 8a 00 00 	lea    0x8af5(%rip),%rax        # 2507c <g_65>
   1c587:	48 89 85 58 f6 ff ff 	mov    %rax,-0x9a8(%rbp)
   1c58e:	48 8d 05 e3 8a 00 00 	lea    0x8ae3(%rip),%rax        # 25078 <g_64>
   1c595:	48 89 85 60 f6 ff ff 	mov    %rax,-0x9a0(%rbp)
   1c59c:	48 8d 05 d5 8a 00 00 	lea    0x8ad5(%rip),%rax        # 25078 <g_64>
   1c5a3:	48 89 85 68 f6 ff ff 	mov    %rax,-0x998(%rbp)
   1c5aa:	48 8d 85 3c e5 ff ff 	lea    -0x1ac4(%rbp),%rax
   1c5b1:	48 89 85 70 f6 ff ff 	mov    %rax,-0x990(%rbp)
   1c5b8:	48 8d 85 3c e5 ff ff 	lea    -0x1ac4(%rbp),%rax
   1c5bf:	48 89 85 78 f6 ff ff 	mov    %rax,-0x988(%rbp)
   1c5c6:	48 8d 05 ab 8a 00 00 	lea    0x8aab(%rip),%rax        # 25078 <g_64>
   1c5cd:	48 89 85 80 f6 ff ff 	mov    %rax,-0x980(%rbp)
   1c5d4:	48 8d 05 99 8a 00 00 	lea    0x8a99(%rip),%rax        # 25074 <g_56>
   1c5db:	48 89 85 88 f6 ff ff 	mov    %rax,-0x978(%rbp)
   1c5e2:	48 8d 85 04 e6 ff ff 	lea    -0x19fc(%rbp),%rax
   1c5e9:	48 89 85 90 f6 ff ff 	mov    %rax,-0x970(%rbp)
   1c5f0:	48 8d 05 85 8a 00 00 	lea    0x8a85(%rip),%rax        # 2507c <g_65>
   1c5f7:	48 89 85 98 f6 ff ff 	mov    %rax,-0x968(%rbp)
   1c5fe:	48 8d 85 04 e6 ff ff 	lea    -0x19fc(%rbp),%rax
   1c605:	48 89 85 a0 f6 ff ff 	mov    %rax,-0x960(%rbp)
   1c60c:	48 8d 05 11 8a 00 00 	lea    0x8a11(%rip),%rax        # 25024 <g_3>
   1c613:	48 89 85 a8 f6 ff ff 	mov    %rax,-0x958(%rbp)
   1c61a:	48 c7 85 b0 f6 ff ff 	movq   $0x0,-0x950(%rbp)
   1c621:	00 00 00 00 
   1c625:	48 8d 05 48 8a 00 00 	lea    0x8a48(%rip),%rax        # 25074 <g_56>
   1c62c:	48 89 85 b8 f6 ff ff 	mov    %rax,-0x948(%rbp)
   1c633:	48 c7 85 c0 f6 ff ff 	movq   $0x0,-0x940(%rbp)
   1c63a:	00 00 00 00 
   1c63e:	48 8d 85 3c e5 ff ff 	lea    -0x1ac4(%rbp),%rax
   1c645:	48 89 85 c8 f6 ff ff 	mov    %rax,-0x938(%rbp)
   1c64c:	48 8d 85 04 e6 ff ff 	lea    -0x19fc(%rbp),%rax
   1c653:	48 83 c0 08          	add    $0x8,%rax
   1c657:	48 89 85 d0 f6 ff ff 	mov    %rax,-0x930(%rbp)
   1c65e:	48 c7 85 d8 f6 ff ff 	movq   $0x0,-0x928(%rbp)
   1c665:	00 00 00 00 
   1c669:	48 8d 85 04 e6 ff ff 	lea    -0x19fc(%rbp),%rax
   1c670:	48 83 c0 04          	add    $0x4,%rax
   1c674:	48 89 85 e0 f6 ff ff 	mov    %rax,-0x920(%rbp)
   1c67b:	48 8d 05 f2 89 00 00 	lea    0x89f2(%rip),%rax        # 25074 <g_56>
   1c682:	48 89 85 e8 f6 ff ff 	mov    %rax,-0x918(%rbp)
   1c689:	48 8d 85 04 e6 ff ff 	lea    -0x19fc(%rbp),%rax
   1c690:	48 83 c0 04          	add    $0x4,%rax
   1c694:	48 89 85 f0 f6 ff ff 	mov    %rax,-0x910(%rbp)
   1c69b:	48 8d 05 82 89 00 00 	lea    0x8982(%rip),%rax        # 25024 <g_3>
   1c6a2:	48 89 85 f8 f6 ff ff 	mov    %rax,-0x908(%rbp)
   1c6a9:	48 8d 05 c4 89 00 00 	lea    0x89c4(%rip),%rax        # 25074 <g_56>
   1c6b0:	48 89 85 00 f7 ff ff 	mov    %rax,-0x900(%rbp)
   1c6b7:	48 8d 05 b6 89 00 00 	lea    0x89b6(%rip),%rax        # 25074 <g_56>
   1c6be:	48 89 85 08 f7 ff ff 	mov    %rax,-0x8f8(%rbp)
   1c6c5:	48 c7 85 10 f7 ff ff 	movq   $0x0,-0x8f0(%rbp)
   1c6cc:	00 00 00 00 
   1c6d0:	48 8d 85 04 e6 ff ff 	lea    -0x19fc(%rbp),%rax
   1c6d7:	48 83 c0 08          	add    $0x8,%rax
   1c6db:	48 89 85 18 f7 ff ff 	mov    %rax,-0x8e8(%rbp)
   1c6e2:	48 8d 05 8f 89 00 00 	lea    0x898f(%rip),%rax        # 25078 <g_64>
   1c6e9:	48 89 85 20 f7 ff ff 	mov    %rax,-0x8e0(%rbp)
   1c6f0:	48 8d 05 7d 89 00 00 	lea    0x897d(%rip),%rax        # 25074 <g_56>
   1c6f7:	48 89 85 28 f7 ff ff 	mov    %rax,-0x8d8(%rbp)
   1c6fe:	48 8d 05 73 89 00 00 	lea    0x8973(%rip),%rax        # 25078 <g_64>
   1c705:	48 89 85 30 f7 ff ff 	mov    %rax,-0x8d0(%rbp)
   1c70c:	48 c7 85 38 f7 ff ff 	movq   $0x0,-0x8c8(%rbp)
   1c713:	00 00 00 00 
   1c717:	48 c7 85 40 f7 ff ff 	movq   $0x0,-0x8c0(%rbp)
   1c71e:	00 00 00 00 
   1c722:	48 8d 05 53 89 00 00 	lea    0x8953(%rip),%rax        # 2507c <g_65>
   1c729:	48 89 85 48 f7 ff ff 	mov    %rax,-0x8b8(%rbp)
   1c730:	48 c7 85 50 f7 ff ff 	movq   $0x0,-0x8b0(%rbp)
   1c737:	00 00 00 00 
   1c73b:	48 8d 05 32 89 00 00 	lea    0x8932(%rip),%rax        # 25074 <g_56>
   1c742:	48 89 85 58 f7 ff ff 	mov    %rax,-0x8a8(%rbp)
   1c749:	48 8d 05 24 89 00 00 	lea    0x8924(%rip),%rax        # 25074 <g_56>
   1c750:	48 89 85 60 f7 ff ff 	mov    %rax,-0x8a0(%rbp)
   1c757:	48 8d 85 04 e6 ff ff 	lea    -0x19fc(%rbp),%rax
   1c75e:	48 83 c0 08          	add    $0x8,%rax
   1c762:	48 89 85 68 f7 ff ff 	mov    %rax,-0x898(%rbp)
   1c769:	48 8d 05 0c 89 00 00 	lea    0x890c(%rip),%rax        # 2507c <g_65>
   1c770:	48 89 85 70 f7 ff ff 	mov    %rax,-0x890(%rbp)
   1c777:	48 8d 85 04 e6 ff ff 	lea    -0x19fc(%rbp),%rax
   1c77e:	48 89 85 78 f7 ff ff 	mov    %rax,-0x888(%rbp)
   1c785:	48 8d 05 f0 88 00 00 	lea    0x88f0(%rip),%rax        # 2507c <g_65>
   1c78c:	48 89 85 80 f7 ff ff 	mov    %rax,-0x880(%rbp)
   1c793:	48 c7 85 88 f7 ff ff 	movq   $0x0,-0x878(%rbp)
   1c79a:	00 00 00 00 
   1c79e:	48 8d 85 04 e6 ff ff 	lea    -0x19fc(%rbp),%rax
   1c7a5:	48 83 c0 04          	add    $0x4,%rax
   1c7a9:	48 89 85 90 f7 ff ff 	mov    %rax,-0x870(%rbp)
   1c7b0:	48 c7 85 98 f7 ff ff 	movq   $0x0,-0x868(%rbp)
   1c7b7:	00 00 00 00 
   1c7bb:	48 8d 05 b6 88 00 00 	lea    0x88b6(%rip),%rax        # 25078 <g_64>
   1c7c2:	48 89 85 a0 f7 ff ff 	mov    %rax,-0x860(%rbp)
   1c7c9:	48 8d 05 a8 88 00 00 	lea    0x88a8(%rip),%rax        # 25078 <g_64>
   1c7d0:	48 89 85 a8 f7 ff ff 	mov    %rax,-0x858(%rbp)
   1c7d7:	48 8d 05 9e 88 00 00 	lea    0x889e(%rip),%rax        # 2507c <g_65>
   1c7de:	48 89 85 b0 f7 ff ff 	mov    %rax,-0x850(%rbp)
   1c7e5:	48 8d 85 3c e5 ff ff 	lea    -0x1ac4(%rbp),%rax
   1c7ec:	48 89 85 b8 f7 ff ff 	mov    %rax,-0x848(%rbp)
   1c7f3:	48 c7 85 c0 f7 ff ff 	movq   $0x0,-0x840(%rbp)
   1c7fa:	00 00 00 00 
   1c7fe:	48 8d 05 6f 88 00 00 	lea    0x886f(%rip),%rax        # 25074 <g_56>
   1c805:	48 89 85 c8 f7 ff ff 	mov    %rax,-0x838(%rbp)
   1c80c:	48 c7 85 d0 f7 ff ff 	movq   $0x0,-0x830(%rbp)
   1c813:	00 00 00 00 
   1c817:	48 c7 85 d8 f7 ff ff 	movq   $0x0,-0x828(%rbp)
   1c81e:	00 00 00 00 
   1c822:	48 8d 85 04 e6 ff ff 	lea    -0x19fc(%rbp),%rax
   1c829:	48 89 85 e0 f7 ff ff 	mov    %rax,-0x820(%rbp)
   1c830:	48 8d 85 3c e5 ff ff 	lea    -0x1ac4(%rbp),%rax
   1c837:	48 89 85 e8 f7 ff ff 	mov    %rax,-0x818(%rbp)
   1c83e:	48 c7 85 f0 f7 ff ff 	movq   $0x0,-0x810(%rbp)
   1c845:	00 00 00 00 
   1c849:	48 c7 85 f8 f7 ff ff 	movq   $0x0,-0x808(%rbp)
   1c850:	00 00 00 00 
   1c854:	48 8d 05 19 88 00 00 	lea    0x8819(%rip),%rax        # 25074 <g_56>
   1c85b:	48 89 85 00 f8 ff ff 	mov    %rax,-0x800(%rbp)
   1c862:	48 8d 85 3c e5 ff ff 	lea    -0x1ac4(%rbp),%rax
   1c869:	48 89 85 08 f8 ff ff 	mov    %rax,-0x7f8(%rbp)
   1c870:	48 8d 85 3c e5 ff ff 	lea    -0x1ac4(%rbp),%rax
   1c877:	48 89 85 10 f8 ff ff 	mov    %rax,-0x7f0(%rbp)
   1c87e:	48 c7 85 18 f8 ff ff 	movq   $0x0,-0x7e8(%rbp)
   1c885:	00 00 00 00 
   1c889:	48 8d 05 ec 87 00 00 	lea    0x87ec(%rip),%rax        # 2507c <g_65>
   1c890:	48 89 85 20 f8 ff ff 	mov    %rax,-0x7e0(%rbp)
   1c897:	48 c7 85 28 f8 ff ff 	movq   $0x0,-0x7d8(%rbp)
   1c89e:	00 00 00 00 
   1c8a2:	48 8d 05 cb 87 00 00 	lea    0x87cb(%rip),%rax        # 25074 <g_56>
   1c8a9:	48 89 85 30 f8 ff ff 	mov    %rax,-0x7d0(%rbp)
   1c8b0:	48 c7 85 38 f8 ff ff 	movq   $0x0,-0x7c8(%rbp)
   1c8b7:	00 00 00 00 
   1c8bb:	48 8d 05 ba 87 00 00 	lea    0x87ba(%rip),%rax        # 2507c <g_65>
   1c8c2:	48 89 85 40 f8 ff ff 	mov    %rax,-0x7c0(%rbp)
   1c8c9:	48 c7 85 48 f8 ff ff 	movq   $0x0,-0x7b8(%rbp)
   1c8d0:	00 00 00 00 
   1c8d4:	48 c7 85 50 f8 ff ff 	movq   $0x0,-0x7b0(%rbp)
   1c8db:	00 00 00 00 
   1c8df:	48 8d 05 96 87 00 00 	lea    0x8796(%rip),%rax        # 2507c <g_65>
   1c8e6:	48 89 85 58 f8 ff ff 	mov    %rax,-0x7a8(%rbp)
   1c8ed:	48 8d 05 80 87 00 00 	lea    0x8780(%rip),%rax        # 25074 <g_56>
   1c8f4:	48 89 85 60 f8 ff ff 	mov    %rax,-0x7a0(%rbp)
   1c8fb:	48 8d 05 72 87 00 00 	lea    0x8772(%rip),%rax        # 25074 <g_56>
   1c902:	48 89 85 68 f8 ff ff 	mov    %rax,-0x798(%rbp)
   1c909:	48 c7 85 70 f8 ff ff 	movq   $0x0,-0x790(%rbp)
   1c910:	00 00 00 00 
   1c914:	48 8d 05 59 87 00 00 	lea    0x8759(%rip),%rax        # 25074 <g_56>
   1c91b:	48 89 85 78 f8 ff ff 	mov    %rax,-0x788(%rbp)
   1c922:	48 c7 85 80 f8 ff ff 	movq   $0x0,-0x780(%rbp)
   1c929:	00 00 00 00 
   1c92d:	48 8d 05 48 87 00 00 	lea    0x8748(%rip),%rax        # 2507c <g_65>
   1c934:	48 89 85 88 f8 ff ff 	mov    %rax,-0x778(%rbp)
   1c93b:	48 8d 05 36 87 00 00 	lea    0x8736(%rip),%rax        # 25078 <g_64>
   1c942:	48 89 85 90 f8 ff ff 	mov    %rax,-0x770(%rbp)
   1c949:	48 8d 05 28 87 00 00 	lea    0x8728(%rip),%rax        # 25078 <g_64>
   1c950:	48 89 85 98 f8 ff ff 	mov    %rax,-0x768(%rbp)
   1c957:	48 c7 85 a0 f8 ff ff 	movq   $0x0,-0x760(%rbp)
   1c95e:	00 00 00 00 
   1c962:	48 8d 85 3c e5 ff ff 	lea    -0x1ac4(%rbp),%rax
   1c969:	48 89 85 a8 f8 ff ff 	mov    %rax,-0x758(%rbp)
   1c970:	48 c7 85 b0 f8 ff ff 	movq   $0x0,-0x750(%rbp)
   1c977:	00 00 00 00 
   1c97b:	48 8d 05 f2 86 00 00 	lea    0x86f2(%rip),%rax        # 25074 <g_56>
   1c982:	48 89 85 b8 f8 ff ff 	mov    %rax,-0x748(%rbp)
   1c989:	48 8d 05 ec 86 00 00 	lea    0x86ec(%rip),%rax        # 2507c <g_65>
   1c990:	48 89 85 c0 f8 ff ff 	mov    %rax,-0x740(%rbp)
   1c997:	48 8d 05 de 86 00 00 	lea    0x86de(%rip),%rax        # 2507c <g_65>
   1c99e:	48 89 85 c8 f8 ff ff 	mov    %rax,-0x738(%rbp)
   1c9a5:	48 8d 85 04 e6 ff ff 	lea    -0x19fc(%rbp),%rax
   1c9ac:	48 83 c0 08          	add    $0x8,%rax
   1c9b0:	48 89 85 d0 f8 ff ff 	mov    %rax,-0x730(%rbp)
   1c9b7:	48 8d 05 66 86 00 00 	lea    0x8666(%rip),%rax        # 25024 <g_3>
   1c9be:	48 89 85 d8 f8 ff ff 	mov    %rax,-0x728(%rbp)
   1c9c5:	48 8d 05 b0 86 00 00 	lea    0x86b0(%rip),%rax        # 2507c <g_65>
   1c9cc:	48 89 85 e0 f8 ff ff 	mov    %rax,-0x720(%rbp)
   1c9d3:	48 8d 05 9a 86 00 00 	lea    0x869a(%rip),%rax        # 25074 <g_56>
   1c9da:	48 89 85 e8 f8 ff ff 	mov    %rax,-0x718(%rbp)
   1c9e1:	48 8d 85 3c e5 ff ff 	lea    -0x1ac4(%rbp),%rax
   1c9e8:	48 89 85 f0 f8 ff ff 	mov    %rax,-0x710(%rbp)
   1c9ef:	48 8d 85 3c e5 ff ff 	lea    -0x1ac4(%rbp),%rax
   1c9f6:	48 89 85 f8 f8 ff ff 	mov    %rax,-0x708(%rbp)
   1c9fd:	48 c7 85 00 f9 ff ff 	movq   $0x0,-0x700(%rbp)
   1ca04:	00 00 00 00 
   1ca08:	48 c7 85 08 f9 ff ff 	movq   $0x0,-0x6f8(%rbp)
   1ca0f:	00 00 00 00 
   1ca13:	48 8d 05 5e 86 00 00 	lea    0x865e(%rip),%rax        # 25078 <g_64>
   1ca1a:	48 89 85 10 f9 ff ff 	mov    %rax,-0x6f0(%rbp)
   1ca21:	48 8d 05 4c 86 00 00 	lea    0x864c(%rip),%rax        # 25074 <g_56>
   1ca28:	48 89 85 18 f9 ff ff 	mov    %rax,-0x6e8(%rbp)
   1ca2f:	48 8d 05 42 86 00 00 	lea    0x8642(%rip),%rax        # 25078 <g_64>
   1ca36:	48 89 85 20 f9 ff ff 	mov    %rax,-0x6e0(%rbp)
   1ca3d:	48 8d 05 e0 85 00 00 	lea    0x85e0(%rip),%rax        # 25024 <g_3>
   1ca44:	48 89 85 28 f9 ff ff 	mov    %rax,-0x6d8(%rbp)
   1ca4b:	48 c7 85 30 f9 ff ff 	movq   $0x0,-0x6d0(%rbp)
   1ca52:	00 00 00 00 
   1ca56:	48 8d 05 17 86 00 00 	lea    0x8617(%rip),%rax        # 25074 <g_56>
   1ca5d:	48 89 85 38 f9 ff ff 	mov    %rax,-0x6c8(%rbp)
   1ca64:	48 8d 05 0d 86 00 00 	lea    0x860d(%rip),%rax        # 25078 <g_64>
   1ca6b:	48 89 85 40 f9 ff ff 	mov    %rax,-0x6c0(%rbp)
   1ca72:	48 8d 85 04 e6 ff ff 	lea    -0x19fc(%rbp),%rax
   1ca79:	48 83 c0 08          	add    $0x8,%rax
   1ca7d:	48 89 85 48 f9 ff ff 	mov    %rax,-0x6b8(%rbp)
   1ca84:	48 c7 85 50 f9 ff ff 	movq   $0x0,-0x6b0(%rbp)
   1ca8b:	00 00 00 00 
   1ca8f:	48 8d 05 de 85 00 00 	lea    0x85de(%rip),%rax        # 25074 <g_56>
   1ca96:	48 89 85 58 f9 ff ff 	mov    %rax,-0x6a8(%rbp)
   1ca9d:	c6 85 38 e5 ff ff 6a 	movb   $0x6a,-0x1ac8(%rbp)
   1caa4:	c7 85 5c e5 ff ff da 	movl   $0xc69cb5da,-0x1aa4(%rbp)
   1caab:	b5 9c c6 
   1caae:	c7 85 30 e6 ff ff 2d 	movl   $0x6adc8d2d,-0x19d0(%rbp)
   1cab5:	8d dc 6a 
   1cab8:	c7 85 34 e6 ff ff 00 	movl   $0x0,-0x19cc(%rbp)
   1cabf:	00 00 00 
   1cac2:	c7 85 38 e6 ff ff 2d 	movl   $0x6adc8d2d,-0x19c8(%rbp)
   1cac9:	8d dc 6a 
   1cacc:	c7 85 3c e6 ff ff 2d 	movl   $0x6adc8d2d,-0x19c4(%rbp)
   1cad3:	8d dc 6a 
   1cad6:	c7 85 40 e6 ff ff 00 	movl   $0x0,-0x19c0(%rbp)
   1cadd:	00 00 00 
   1cae0:	c7 85 44 e6 ff ff 2d 	movl   $0x6adc8d2d,-0x19bc(%rbp)
   1cae7:	8d dc 6a 
   1caea:	c7 85 48 e6 ff ff 2d 	movl   $0x6adc8d2d,-0x19b8(%rbp)
   1caf1:	8d dc 6a 
   1caf4:	48 b8 79 2e 79 79 2e 	movabs $0x2e79792e79792e79,%rax
   1cafb:	79 79 2e 
   1cafe:	48 89 45 f0          	mov    %rax,-0x10(%rbp)
   1cb02:	c7 85 40 e5 ff ff 00 	movl   $0x0,-0x1ac0(%rbp)
   1cb09:	00 00 00 
   1cb0c:	eb 1a                	jmp    1cb28 <func_77+0xd43>
   1cb0e:	8b 85 40 e5 ff ff    	mov    -0x1ac0(%rbp),%eax
   1cb14:	48 98                	cltq   
   1cb16:	c7 84 85 04 e6 ff ff 	movl   $0x35839f22,-0x19fc(%rbp,%rax,4)
   1cb1d:	22 9f 83 35 
   1cb21:	83 85 40 e5 ff ff 01 	addl   $0x1,-0x1ac0(%rbp)
   1cb28:	83 bd 40 e5 ff ff 02 	cmpl   $0x2,-0x1ac0(%rbp)
   1cb2f:	7e dd                	jle    1cb0e <func_77+0xd29>
   1cb31:	48 c7 85 10 e5 ff ff 	movq   $0x0,-0x1af0(%rbp)
   1cb38:	00 00 00 00 
   1cb3c:	e9 e8 0b 00 00       	jmpq   1d729 <func_77+0x1944>
   1cb41:	48 c7 85 e0 e5 ff ff 	movq   $0x0,-0x1a20(%rbp)
   1cb48:	00 00 00 00 
   1cb4c:	48 8d 85 30 ed ff ff 	lea    -0x12d0(%rbp),%rax
   1cb53:	48 8d 15 c6 b4 00 00 	lea    0xb4c6(%rip),%rdx        # 28020 <g_4523+0x1c20>
   1cb5a:	b9 b4 00 00 00       	mov    $0xb4,%ecx
   1cb5f:	48 89 c7             	mov    %rax,%rdi
   1cb62:	48 89 d6             	mov    %rdx,%rsi
   1cb65:	f3 48 a5             	rep movsq %ds:(%rsi),%es:(%rdi)
   1cb68:	c7 85 60 e5 ff ff 24 	movl   $0x2f938724,-0x1aa0(%rbp)
   1cb6f:	87 93 2f 
   1cb72:	48 8d 85 36 e5 ff ff 	lea    -0x1aca(%rbp),%rax
   1cb79:	48 89 85 e8 e5 ff ff 	mov    %rax,-0x1a18(%rbp)
   1cb80:	c7 85 64 e5 ff ff ff 	movl   $0xffffffff,-0x1a9c(%rbp)
   1cb87:	ff ff ff 
   1cb8a:	c7 85 68 e5 ff ff 04 	movl   $0x4,-0x1a98(%rbp)
   1cb91:	00 00 00 
   1cb94:	c7 85 6c e5 ff ff ff 	movl   $0xffffffff,-0x1a94(%rbp)
   1cb9b:	ff ff ff 
   1cb9e:	c7 85 70 e5 ff ff 65 	movl   $0x7eca5065,-0x1a90(%rbp)
   1cba5:	50 ca 7e 
   1cba8:	c7 85 74 e5 ff ff 04 	movl   $0x58d7d704,-0x1a8c(%rbp)
   1cbaf:	d7 d7 58 
   1cbb2:	c7 85 78 e5 ff ff 7c 	movl   $0xb231f37c,-0x1a88(%rbp)
   1cbb9:	f3 31 b2 
   1cbbc:	48 8d 85 90 e6 ff ff 	lea    -0x1970(%rbp),%rax
   1cbc3:	48 8d 15 96 4c 00 00 	lea    0x4c96(%rip),%rdx        # 21860 <g_3910+0x27f4>
   1cbca:	b9 30 00 00 00       	mov    $0x30,%ecx
   1cbcf:	48 89 c7             	mov    %rax,%rdi
   1cbd2:	48 89 d6             	mov    %rdx,%rsi
   1cbd5:	f3 48 a5             	rep movsq %ds:(%rsi),%es:(%rdi)
   1cbd8:	48 8d 05 c1 84 00 00 	lea    0x84c1(%rip),%rax        # 250a0 <g_210>
   1cbdf:	48 89 85 f0 e5 ff ff 	mov    %rax,-0x1a10(%rbp)
   1cbe6:	48 8d 85 80 e5 ff ff 	lea    -0x1a80(%rbp),%rax
   1cbed:	48 89 85 90 e5 ff ff 	mov    %rax,-0x1a70(%rbp)
   1cbf4:	48 c7 85 60 f9 ff ff 	movq   $0x0,-0x6a0(%rbp)
   1cbfb:	00 00 00 00 
   1cbff:	48 8d 85 90 e5 ff ff 	lea    -0x1a70(%rbp),%rax
   1cc06:	48 89 85 68 f9 ff ff 	mov    %rax,-0x698(%rbp)
   1cc0d:	48 8d 85 90 e5 ff ff 	lea    -0x1a70(%rbp),%rax
   1cc14:	48 89 85 70 f9 ff ff 	mov    %rax,-0x690(%rbp)
   1cc1b:	48 c7 85 78 f9 ff ff 	movq   $0x0,-0x688(%rbp)
   1cc22:	00 00 00 00 
   1cc26:	48 c7 85 80 f9 ff ff 	movq   $0x0,-0x680(%rbp)
   1cc2d:	00 00 00 00 
   1cc31:	48 8d 85 90 e5 ff ff 	lea    -0x1a70(%rbp),%rax
   1cc38:	48 89 85 88 f9 ff ff 	mov    %rax,-0x678(%rbp)
   1cc3f:	48 c7 85 90 f9 ff ff 	movq   $0x0,-0x670(%rbp)
   1cc46:	00 00 00 00 
   1cc4a:	48 8d 85 90 e5 ff ff 	lea    -0x1a70(%rbp),%rax
   1cc51:	48 89 85 98 f9 ff ff 	mov    %rax,-0x668(%rbp)
   1cc58:	48 c7 85 a0 f9 ff ff 	movq   $0x0,-0x660(%rbp)
   1cc5f:	00 00 00 00 
   1cc63:	48 8d 85 90 e5 ff ff 	lea    -0x1a70(%rbp),%rax
   1cc6a:	48 89 85 a8 f9 ff ff 	mov    %rax,-0x658(%rbp)
   1cc71:	48 8d 85 90 e5 ff ff 	lea    -0x1a70(%rbp),%rax
   1cc78:	48 89 85 b0 f9 ff ff 	mov    %rax,-0x650(%rbp)
   1cc7f:	48 c7 85 b8 f9 ff ff 	movq   $0x0,-0x648(%rbp)
   1cc86:	00 00 00 00 
   1cc8a:	48 8d 85 90 e5 ff ff 	lea    -0x1a70(%rbp),%rax
   1cc91:	48 89 85 c0 f9 ff ff 	mov    %rax,-0x640(%rbp)
   1cc98:	48 8d 85 90 e5 ff ff 	lea    -0x1a70(%rbp),%rax
   1cc9f:	48 89 85 c8 f9 ff ff 	mov    %rax,-0x638(%rbp)
   1cca6:	48 8d 85 90 e5 ff ff 	lea    -0x1a70(%rbp),%rax
   1ccad:	48 89 85 d0 f9 ff ff 	mov    %rax,-0x630(%rbp)
   1ccb4:	48 8d 85 90 e5 ff ff 	lea    -0x1a70(%rbp),%rax
   1ccbb:	48 89 85 d8 f9 ff ff 	mov    %rax,-0x628(%rbp)
   1ccc2:	48 c7 85 e0 f9 ff ff 	movq   $0x0,-0x620(%rbp)
   1ccc9:	00 00 00 00 
   1cccd:	48 c7 85 e8 f9 ff ff 	movq   $0x0,-0x618(%rbp)
   1ccd4:	00 00 00 00 
   1ccd8:	48 8d 85 90 e5 ff ff 	lea    -0x1a70(%rbp),%rax
   1ccdf:	48 89 85 f0 f9 ff ff 	mov    %rax,-0x610(%rbp)
   1cce6:	48 c7 85 f8 f9 ff ff 	movq   $0x0,-0x608(%rbp)
   1cced:	00 00 00 00 
   1ccf1:	48 8d 85 90 e5 ff ff 	lea    -0x1a70(%rbp),%rax
   1ccf8:	48 89 85 00 fa ff ff 	mov    %rax,-0x600(%rbp)
   1ccff:	48 c7 85 08 fa ff ff 	movq   $0x0,-0x5f8(%rbp)
   1cd06:	00 00 00 00 
   1cd0a:	48 8d 85 90 e5 ff ff 	lea    -0x1a70(%rbp),%rax
   1cd11:	48 89 85 10 fa ff ff 	mov    %rax,-0x5f0(%rbp)
   1cd18:	48 c7 85 18 fa ff ff 	movq   $0x0,-0x5e8(%rbp)
   1cd1f:	00 00 00 00 
   1cd23:	48 8d 85 90 e5 ff ff 	lea    -0x1a70(%rbp),%rax
   1cd2a:	48 89 85 20 fa ff ff 	mov    %rax,-0x5e0(%rbp)
   1cd31:	48 8d 85 90 e5 ff ff 	lea    -0x1a70(%rbp),%rax
   1cd38:	48 89 85 28 fa ff ff 	mov    %rax,-0x5d8(%rbp)
   1cd3f:	48 8d 85 90 e5 ff ff 	lea    -0x1a70(%rbp),%rax
   1cd46:	48 89 85 30 fa ff ff 	mov    %rax,-0x5d0(%rbp)
   1cd4d:	48 c7 85 38 fa ff ff 	movq   $0x0,-0x5c8(%rbp)
   1cd54:	00 00 00 00 
   1cd58:	48 c7 85 40 fa ff ff 	movq   $0x0,-0x5c0(%rbp)
   1cd5f:	00 00 00 00 
   1cd63:	48 c7 85 48 fa ff ff 	movq   $0x0,-0x5b8(%rbp)
   1cd6a:	00 00 00 00 
   1cd6e:	48 8d 85 90 e5 ff ff 	lea    -0x1a70(%rbp),%rax
   1cd75:	48 89 85 50 fa ff ff 	mov    %rax,-0x5b0(%rbp)
   1cd7c:	48 8d 85 90 e5 ff ff 	lea    -0x1a70(%rbp),%rax
   1cd83:	48 89 85 58 fa ff ff 	mov    %rax,-0x5a8(%rbp)
   1cd8a:	48 8d 85 90 e5 ff ff 	lea    -0x1a70(%rbp),%rax
   1cd91:	48 89 85 60 fa ff ff 	mov    %rax,-0x5a0(%rbp)
   1cd98:	48 8d 85 90 e5 ff ff 	lea    -0x1a70(%rbp),%rax
   1cd9f:	48 89 85 68 fa ff ff 	mov    %rax,-0x598(%rbp)
   1cda6:	48 8d 85 90 e5 ff ff 	lea    -0x1a70(%rbp),%rax
   1cdad:	48 89 85 70 fa ff ff 	mov    %rax,-0x590(%rbp)
   1cdb4:	48 c7 85 78 fa ff ff 	movq   $0x0,-0x588(%rbp)
   1cdbb:	00 00 00 00 
   1cdbf:	48 8d 85 90 e5 ff ff 	lea    -0x1a70(%rbp),%rax
   1cdc6:	48 89 85 80 fa ff ff 	mov    %rax,-0x580(%rbp)
   1cdcd:	48 8d 85 90 e5 ff ff 	lea    -0x1a70(%rbp),%rax
   1cdd4:	48 89 85 88 fa ff ff 	mov    %rax,-0x578(%rbp)
   1cddb:	48 8d 85 90 e5 ff ff 	lea    -0x1a70(%rbp),%rax
   1cde2:	48 89 85 90 fa ff ff 	mov    %rax,-0x570(%rbp)
   1cde9:	48 8d 85 90 e5 ff ff 	lea    -0x1a70(%rbp),%rax
   1cdf0:	48 89 85 98 fa ff ff 	mov    %rax,-0x568(%rbp)
   1cdf7:	48 c7 85 a0 fa ff ff 	movq   $0x0,-0x560(%rbp)
   1cdfe:	00 00 00 00 
   1ce02:	48 c7 85 a8 fa ff ff 	movq   $0x0,-0x558(%rbp)
   1ce09:	00 00 00 00 
   1ce0d:	48 8d 85 90 e5 ff ff 	lea    -0x1a70(%rbp),%rax
   1ce14:	48 89 85 b0 fa ff ff 	mov    %rax,-0x550(%rbp)
   1ce1b:	48 8d 85 90 e5 ff ff 	lea    -0x1a70(%rbp),%rax
   1ce22:	48 89 85 b8 fa ff ff 	mov    %rax,-0x548(%rbp)
   1ce29:	48 8d 85 90 e5 ff ff 	lea    -0x1a70(%rbp),%rax
   1ce30:	48 89 85 c0 fa ff ff 	mov    %rax,-0x540(%rbp)
   1ce37:	48 8d 85 90 e5 ff ff 	lea    -0x1a70(%rbp),%rax
   1ce3e:	48 89 85 c8 fa ff ff 	mov    %rax,-0x538(%rbp)
   1ce45:	48 8d 85 90 e5 ff ff 	lea    -0x1a70(%rbp),%rax
   1ce4c:	48 89 85 d0 fa ff ff 	mov    %rax,-0x530(%rbp)
   1ce53:	48 c7 85 d8 fa ff ff 	movq   $0x0,-0x528(%rbp)
   1ce5a:	00 00 00 00 
   1ce5e:	48 8d 85 90 e5 ff ff 	lea    -0x1a70(%rbp),%rax
   1ce65:	48 89 85 e0 fa ff ff 	mov    %rax,-0x520(%rbp)
   1ce6c:	48 8d 85 90 e5 ff ff 	lea    -0x1a70(%rbp),%rax
   1ce73:	48 89 85 e8 fa ff ff 	mov    %rax,-0x518(%rbp)
   1ce7a:	48 c7 85 f0 fa ff ff 	movq   $0x0,-0x510(%rbp)
   1ce81:	00 00 00 00 
   1ce85:	48 8d 85 90 e5 ff ff 	lea    -0x1a70(%rbp),%rax
   1ce8c:	48 89 85 f8 fa ff ff 	mov    %rax,-0x508(%rbp)
   1ce93:	48 8d 85 90 e5 ff ff 	lea    -0x1a70(%rbp),%rax
   1ce9a:	48 89 85 00 fb ff ff 	mov    %rax,-0x500(%rbp)
   1cea1:	48 8d 85 90 e5 ff ff 	lea    -0x1a70(%rbp),%rax
   1cea8:	48 89 85 08 fb ff ff 	mov    %rax,-0x4f8(%rbp)
   1ceaf:	48 8d 85 90 e5 ff ff 	lea    -0x1a70(%rbp),%rax
   1ceb6:	48 89 85 10 fb ff ff 	mov    %rax,-0x4f0(%rbp)
   1cebd:	48 8d 85 90 e5 ff ff 	lea    -0x1a70(%rbp),%rax
   1cec4:	48 89 85 18 fb ff ff 	mov    %rax,-0x4e8(%rbp)
   1cecb:	48 8d 85 90 e5 ff ff 	lea    -0x1a70(%rbp),%rax
   1ced2:	48 89 85 20 fb ff ff 	mov    %rax,-0x4e0(%rbp)
   1ced9:	48 c7 85 28 fb ff ff 	movq   $0x0,-0x4d8(%rbp)
   1cee0:	00 00 00 00 
   1cee4:	48 8d 85 90 e5 ff ff 	lea    -0x1a70(%rbp),%rax
   1ceeb:	48 89 85 30 fb ff ff 	mov    %rax,-0x4d0(%rbp)
   1cef2:	48 8d 85 90 e5 ff ff 	lea    -0x1a70(%rbp),%rax
   1cef9:	48 89 85 38 fb ff ff 	mov    %rax,-0x4c8(%rbp)
   1cf00:	48 8d 85 90 e5 ff ff 	lea    -0x1a70(%rbp),%rax
   1cf07:	48 89 85 40 fb ff ff 	mov    %rax,-0x4c0(%rbp)
   1cf0e:	48 8d 85 90 e5 ff ff 	lea    -0x1a70(%rbp),%rax
   1cf15:	48 89 85 48 fb ff ff 	mov    %rax,-0x4b8(%rbp)
   1cf1c:	48 8d 85 90 e5 ff ff 	lea    -0x1a70(%rbp),%rax
   1cf23:	48 89 85 50 fb ff ff 	mov    %rax,-0x4b0(%rbp)
   1cf2a:	48 8d 85 90 e5 ff ff 	lea    -0x1a70(%rbp),%rax
   1cf31:	48 89 85 58 fb ff ff 	mov    %rax,-0x4a8(%rbp)
   1cf38:	48 8d 85 90 e5 ff ff 	lea    -0x1a70(%rbp),%rax
   1cf3f:	48 89 85 60 fb ff ff 	mov    %rax,-0x4a0(%rbp)
   1cf46:	48 8d 85 90 e5 ff ff 	lea    -0x1a70(%rbp),%rax
   1cf4d:	48 89 85 68 fb ff ff 	mov    %rax,-0x498(%rbp)
   1cf54:	48 8d 85 90 e5 ff ff 	lea    -0x1a70(%rbp),%rax
   1cf5b:	48 89 85 70 fb ff ff 	mov    %rax,-0x490(%rbp)
   1cf62:	48 8d 85 90 e5 ff ff 	lea    -0x1a70(%rbp),%rax
   1cf69:	48 89 85 78 fb ff ff 	mov    %rax,-0x488(%rbp)
   1cf70:	48 8d 85 90 e5 ff ff 	lea    -0x1a70(%rbp),%rax
   1cf77:	48 89 85 80 fb ff ff 	mov    %rax,-0x480(%rbp)
   1cf7e:	48 8d 85 90 e5 ff ff 	lea    -0x1a70(%rbp),%rax
   1cf85:	48 89 85 88 fb ff ff 	mov    %rax,-0x478(%rbp)
   1cf8c:	48 c7 85 90 fb ff ff 	movq   $0x0,-0x470(%rbp)
   1cf93:	00 00 00 00 
   1cf97:	48 8d 85 90 e5 ff ff 	lea    -0x1a70(%rbp),%rax
   1cf9e:	48 89 85 98 fb ff ff 	mov    %rax,-0x468(%rbp)
   1cfa5:	48 8d 85 90 e5 ff ff 	lea    -0x1a70(%rbp),%rax
   1cfac:	48 89 85 a0 fb ff ff 	mov    %rax,-0x460(%rbp)
   1cfb3:	48 8d 85 90 e5 ff ff 	lea    -0x1a70(%rbp),%rax
   1cfba:	48 89 85 a8 fb ff ff 	mov    %rax,-0x458(%rbp)
   1cfc1:	48 8d 85 90 e5 ff ff 	lea    -0x1a70(%rbp),%rax
   1cfc8:	48 89 85 b0 fb ff ff 	mov    %rax,-0x450(%rbp)
   1cfcf:	48 8d 85 90 e5 ff ff 	lea    -0x1a70(%rbp),%rax
   1cfd6:	48 89 85 b8 fb ff ff 	mov    %rax,-0x448(%rbp)
   1cfdd:	48 8d 85 90 e5 ff ff 	lea    -0x1a70(%rbp),%rax
   1cfe4:	48 89 85 c0 fb ff ff 	mov    %rax,-0x440(%rbp)
   1cfeb:	48 c7 85 c8 fb ff ff 	movq   $0x0,-0x438(%rbp)
   1cff2:	00 00 00 00 
   1cff6:	48 c7 85 d0 fb ff ff 	movq   $0x0,-0x430(%rbp)
   1cffd:	00 00 00 00 
   1d001:	48 8d 85 90 e5 ff ff 	lea    -0x1a70(%rbp),%rax
   1d008:	48 89 85 d8 fb ff ff 	mov    %rax,-0x428(%rbp)
   1d00f:	48 8d 85 90 e5 ff ff 	lea    -0x1a70(%rbp),%rax
   1d016:	48 89 85 e0 fb ff ff 	mov    %rax,-0x420(%rbp)
   1d01d:	48 8d 85 90 e5 ff ff 	lea    -0x1a70(%rbp),%rax
   1d024:	48 89 85 e8 fb ff ff 	mov    %rax,-0x418(%rbp)
   1d02b:	48 c7 85 f0 fb ff ff 	movq   $0x0,-0x410(%rbp)
   1d032:	00 00 00 00 
   1d036:	48 8d 85 90 e5 ff ff 	lea    -0x1a70(%rbp),%rax
   1d03d:	48 89 85 f8 fb ff ff 	mov    %rax,-0x408(%rbp)
   1d044:	48 c7 85 00 fc ff ff 	movq   $0x0,-0x400(%rbp)
   1d04b:	00 00 00 00 
   1d04f:	48 8d 85 90 e5 ff ff 	lea    -0x1a70(%rbp),%rax
   1d056:	48 89 85 08 fc ff ff 	mov    %rax,-0x3f8(%rbp)
   1d05d:	48 c7 85 10 fc ff ff 	movq   $0x0,-0x3f0(%rbp)
   1d064:	00 00 00 00 
   1d068:	48 8d 85 90 e5 ff ff 	lea    -0x1a70(%rbp),%rax
   1d06f:	48 89 85 18 fc ff ff 	mov    %rax,-0x3e8(%rbp)
   1d076:	48 8d 85 90 e5 ff ff 	lea    -0x1a70(%rbp),%rax
   1d07d:	48 89 85 20 fc ff ff 	mov    %rax,-0x3e0(%rbp)
   1d084:	48 c7 85 28 fc ff ff 	movq   $0x0,-0x3d8(%rbp)
   1d08b:	00 00 00 00 
   1d08f:	48 8d 85 90 e5 ff ff 	lea    -0x1a70(%rbp),%rax
   1d096:	48 89 85 30 fc ff ff 	mov    %rax,-0x3d0(%rbp)
   1d09d:	48 c7 85 38 fc ff ff 	movq   $0x0,-0x3c8(%rbp)
   1d0a4:	00 00 00 00 
   1d0a8:	48 8d 85 90 e5 ff ff 	lea    -0x1a70(%rbp),%rax
   1d0af:	48 89 85 40 fc ff ff 	mov    %rax,-0x3c0(%rbp)
   1d0b6:	48 8d 85 90 e5 ff ff 	lea    -0x1a70(%rbp),%rax
   1d0bd:	48 89 85 48 fc ff ff 	mov    %rax,-0x3b8(%rbp)
   1d0c4:	48 c7 85 50 fc ff ff 	movq   $0x0,-0x3b0(%rbp)
   1d0cb:	00 00 00 00 
   1d0cf:	48 8d 85 90 e5 ff ff 	lea    -0x1a70(%rbp),%rax
   1d0d6:	48 89 85 58 fc ff ff 	mov    %rax,-0x3a8(%rbp)
   1d0dd:	48 8d 85 90 e5 ff ff 	lea    -0x1a70(%rbp),%rax
   1d0e4:	48 89 85 60 fc ff ff 	mov    %rax,-0x3a0(%rbp)
   1d0eb:	48 8d 85 90 e5 ff ff 	lea    -0x1a70(%rbp),%rax
   1d0f2:	48 89 85 68 fc ff ff 	mov    %rax,-0x398(%rbp)
   1d0f9:	48 8d 85 90 e5 ff ff 	lea    -0x1a70(%rbp),%rax
   1d100:	48 89 85 70 fc ff ff 	mov    %rax,-0x390(%rbp)
   1d107:	48 8d 85 90 e5 ff ff 	lea    -0x1a70(%rbp),%rax
   1d10e:	48 89 85 78 fc ff ff 	mov    %rax,-0x388(%rbp)
   1d115:	48 8d 85 90 e5 ff ff 	lea    -0x1a70(%rbp),%rax
   1d11c:	48 89 85 80 fc ff ff 	mov    %rax,-0x380(%rbp)
   1d123:	48 c7 85 88 fc ff ff 	movq   $0x0,-0x378(%rbp)
   1d12a:	00 00 00 00 
   1d12e:	48 8d 85 90 e5 ff ff 	lea    -0x1a70(%rbp),%rax
   1d135:	48 89 85 90 fc ff ff 	mov    %rax,-0x370(%rbp)
   1d13c:	48 8d 85 90 e5 ff ff 	lea    -0x1a70(%rbp),%rax
   1d143:	48 89 85 98 fc ff ff 	mov    %rax,-0x368(%rbp)
   1d14a:	48 8d 85 90 e5 ff ff 	lea    -0x1a70(%rbp),%rax
   1d151:	48 89 85 a0 fc ff ff 	mov    %rax,-0x360(%rbp)
   1d158:	48 c7 85 a8 fc ff ff 	movq   $0x0,-0x358(%rbp)
   1d15f:	00 00 00 00 
   1d163:	48 c7 85 b0 fc ff ff 	movq   $0x0,-0x350(%rbp)
   1d16a:	00 00 00 00 
   1d16e:	48 8d 85 90 e5 ff ff 	lea    -0x1a70(%rbp),%rax
   1d175:	48 89 85 b8 fc ff ff 	mov    %rax,-0x348(%rbp)
   1d17c:	48 8d 85 90 e5 ff ff 	lea    -0x1a70(%rbp),%rax
   1d183:	48 89 85 c0 fc ff ff 	mov    %rax,-0x340(%rbp)
   1d18a:	48 8d 85 90 e5 ff ff 	lea    -0x1a70(%rbp),%rax
   1d191:	48 89 85 c8 fc ff ff 	mov    %rax,-0x338(%rbp)
   1d198:	48 8d 85 90 e5 ff ff 	lea    -0x1a70(%rbp),%rax
   1d19f:	48 89 85 d0 fc ff ff 	mov    %rax,-0x330(%rbp)
   1d1a6:	48 8d 85 90 e5 ff ff 	lea    -0x1a70(%rbp),%rax
   1d1ad:	48 89 85 d8 fc ff ff 	mov    %rax,-0x328(%rbp)
   1d1b4:	48 8d 85 90 e5 ff ff 	lea    -0x1a70(%rbp),%rax
   1d1bb:	48 89 85 e0 fc ff ff 	mov    %rax,-0x320(%rbp)
   1d1c2:	48 c7 85 e8 fc ff ff 	movq   $0x0,-0x318(%rbp)
   1d1c9:	00 00 00 00 
   1d1cd:	48 8d 85 90 e5 ff ff 	lea    -0x1a70(%rbp),%rax
   1d1d4:	48 89 85 f0 fc ff ff 	mov    %rax,-0x310(%rbp)
   1d1db:	48 8d 85 90 e5 ff ff 	lea    -0x1a70(%rbp),%rax
   1d1e2:	48 89 85 f8 fc ff ff 	mov    %rax,-0x308(%rbp)
   1d1e9:	48 8d 85 90 e5 ff ff 	lea    -0x1a70(%rbp),%rax
   1d1f0:	48 89 85 00 fd ff ff 	mov    %rax,-0x300(%rbp)
   1d1f7:	48 8d 85 90 e5 ff ff 	lea    -0x1a70(%rbp),%rax
   1d1fe:	48 89 85 08 fd ff ff 	mov    %rax,-0x2f8(%rbp)
   1d205:	48 c7 85 10 fd ff ff 	movq   $0x0,-0x2f0(%rbp)
   1d20c:	00 00 00 00 
   1d210:	48 8d 85 90 e5 ff ff 	lea    -0x1a70(%rbp),%rax
   1d217:	48 89 85 18 fd ff ff 	mov    %rax,-0x2e8(%rbp)
   1d21e:	48 8d 85 90 e5 ff ff 	lea    -0x1a70(%rbp),%rax
   1d225:	48 89 85 20 fd ff ff 	mov    %rax,-0x2e0(%rbp)
   1d22c:	48 c7 85 28 fd ff ff 	movq   $0x0,-0x2d8(%rbp)
   1d233:	00 00 00 00 
   1d237:	48 8d 85 90 e5 ff ff 	lea    -0x1a70(%rbp),%rax
   1d23e:	48 89 85 30 fd ff ff 	mov    %rax,-0x2d0(%rbp)
   1d245:	48 8d 85 90 e5 ff ff 	lea    -0x1a70(%rbp),%rax
   1d24c:	48 89 85 38 fd ff ff 	mov    %rax,-0x2c8(%rbp)
   1d253:	48 8d 85 90 e5 ff ff 	lea    -0x1a70(%rbp),%rax
   1d25a:	48 89 85 40 fd ff ff 	mov    %rax,-0x2c0(%rbp)
   1d261:	48 c7 85 48 fd ff ff 	movq   $0x0,-0x2b8(%rbp)
   1d268:	00 00 00 00 
   1d26c:	48 8d 85 90 e5 ff ff 	lea    -0x1a70(%rbp),%rax
   1d273:	48 89 85 50 fd ff ff 	mov    %rax,-0x2b0(%rbp)
   1d27a:	48 8d 85 90 e5 ff ff 	lea    -0x1a70(%rbp),%rax
   1d281:	48 89 85 58 fd ff ff 	mov    %rax,-0x2a8(%rbp)
   1d288:	48 c7 85 60 fd ff ff 	movq   $0x0,-0x2a0(%rbp)
   1d28f:	00 00 00 00 
   1d293:	48 8d 85 90 e5 ff ff 	lea    -0x1a70(%rbp),%rax
   1d29a:	48 89 85 68 fd ff ff 	mov    %rax,-0x298(%rbp)
   1d2a1:	48 8d 85 90 e5 ff ff 	lea    -0x1a70(%rbp),%rax
   1d2a8:	48 89 85 70 fd ff ff 	mov    %rax,-0x290(%rbp)
   1d2af:	48 8d 85 90 e5 ff ff 	lea    -0x1a70(%rbp),%rax
   1d2b6:	48 89 85 78 fd ff ff 	mov    %rax,-0x288(%rbp)
   1d2bd:	48 8d 85 90 e5 ff ff 	lea    -0x1a70(%rbp),%rax
   1d2c4:	48 89 85 80 fd ff ff 	mov    %rax,-0x280(%rbp)
   1d2cb:	48 8d 85 90 e5 ff ff 	lea    -0x1a70(%rbp),%rax
   1d2d2:	48 89 85 88 fd ff ff 	mov    %rax,-0x278(%rbp)
   1d2d9:	48 8d 85 90 e5 ff ff 	lea    -0x1a70(%rbp),%rax
   1d2e0:	48 89 85 90 fd ff ff 	mov    %rax,-0x270(%rbp)
   1d2e7:	48 c7 85 98 fd ff ff 	movq   $0x0,-0x268(%rbp)
   1d2ee:	00 00 00 00 
   1d2f2:	48 8d 85 90 e5 ff ff 	lea    -0x1a70(%rbp),%rax
   1d2f9:	48 89 85 a0 fd ff ff 	mov    %rax,-0x260(%rbp)
   1d300:	48 c7 85 a8 fd ff ff 	movq   $0x0,-0x258(%rbp)
   1d307:	00 00 00 00 
   1d30b:	48 8d 85 90 e5 ff ff 	lea    -0x1a70(%rbp),%rax
   1d312:	48 89 85 b0 fd ff ff 	mov    %rax,-0x250(%rbp)
   1d319:	48 8d 85 90 e5 ff ff 	lea    -0x1a70(%rbp),%rax
   1d320:	48 89 85 b8 fd ff ff 	mov    %rax,-0x248(%rbp)
   1d327:	48 8d 85 90 e5 ff ff 	lea    -0x1a70(%rbp),%rax
   1d32e:	48 89 85 c0 fd ff ff 	mov    %rax,-0x240(%rbp)
   1d335:	48 c7 85 c8 fd ff ff 	movq   $0x0,-0x238(%rbp)
   1d33c:	00 00 00 00 
   1d340:	48 8d 85 90 e5 ff ff 	lea    -0x1a70(%rbp),%rax
   1d347:	48 89 85 d0 fd ff ff 	mov    %rax,-0x230(%rbp)
   1d34e:	48 8d 85 90 e5 ff ff 	lea    -0x1a70(%rbp),%rax
   1d355:	48 89 85 d8 fd ff ff 	mov    %rax,-0x228(%rbp)
   1d35c:	48 8d 85 90 e5 ff ff 	lea    -0x1a70(%rbp),%rax
   1d363:	48 89 85 e0 fd ff ff 	mov    %rax,-0x220(%rbp)
   1d36a:	48 c7 85 e8 fd ff ff 	movq   $0x0,-0x218(%rbp)
   1d371:	00 00 00 00 
   1d375:	48 8d 85 90 e5 ff ff 	lea    -0x1a70(%rbp),%rax
   1d37c:	48 89 85 f0 fd ff ff 	mov    %rax,-0x210(%rbp)
   1d383:	48 8d 85 90 e5 ff ff 	lea    -0x1a70(%rbp),%rax
   1d38a:	48 89 85 f8 fd ff ff 	mov    %rax,-0x208(%rbp)
   1d391:	48 c7 85 00 fe ff ff 	movq   $0x0,-0x200(%rbp)
   1d398:	00 00 00 00 
   1d39c:	48 8d 85 90 e5 ff ff 	lea    -0x1a70(%rbp),%rax
   1d3a3:	48 89 85 08 fe ff ff 	mov    %rax,-0x1f8(%rbp)
   1d3aa:	48 8d 85 90 e5 ff ff 	lea    -0x1a70(%rbp),%rax
   1d3b1:	48 89 85 10 fe ff ff 	mov    %rax,-0x1f0(%rbp)
   1d3b8:	48 8d 85 90 e5 ff ff 	lea    -0x1a70(%rbp),%rax
   1d3bf:	48 89 85 18 fe ff ff 	mov    %rax,-0x1e8(%rbp)
   1d3c6:	48 8d 85 90 e5 ff ff 	lea    -0x1a70(%rbp),%rax
   1d3cd:	48 89 85 20 fe ff ff 	mov    %rax,-0x1e0(%rbp)
   1d3d4:	48 8d 85 90 e5 ff ff 	lea    -0x1a70(%rbp),%rax
   1d3db:	48 89 85 28 fe ff ff 	mov    %rax,-0x1d8(%rbp)
   1d3e2:	48 8d 85 90 e5 ff ff 	lea    -0x1a70(%rbp),%rax
   1d3e9:	48 89 85 30 fe ff ff 	mov    %rax,-0x1d0(%rbp)
   1d3f0:	48 8d 85 90 e5 ff ff 	lea    -0x1a70(%rbp),%rax
   1d3f7:	48 89 85 38 fe ff ff 	mov    %rax,-0x1c8(%rbp)
   1d3fe:	48 c7 85 40 fe ff ff 	movq   $0x0,-0x1c0(%rbp)
   1d405:	00 00 00 00 
   1d409:	48 8d 85 90 e5 ff ff 	lea    -0x1a70(%rbp),%rax
   1d410:	48 89 85 48 fe ff ff 	mov    %rax,-0x1b8(%rbp)
   1d417:	48 8d 85 90 e5 ff ff 	lea    -0x1a70(%rbp),%rax
   1d41e:	48 89 85 50 fe ff ff 	mov    %rax,-0x1b0(%rbp)
   1d425:	48 c7 85 58 fe ff ff 	movq   $0x0,-0x1a8(%rbp)
   1d42c:	00 00 00 00 
   1d430:	48 c7 85 60 fe ff ff 	movq   $0x0,-0x1a0(%rbp)
   1d437:	00 00 00 00 
   1d43b:	48 8d 85 90 e5 ff ff 	lea    -0x1a70(%rbp),%rax
   1d442:	48 89 85 68 fe ff ff 	mov    %rax,-0x198(%rbp)
   1d449:	48 c7 85 70 fe ff ff 	movq   $0x0,-0x190(%rbp)
   1d450:	00 00 00 00 
   1d454:	48 8d 85 90 e5 ff ff 	lea    -0x1a70(%rbp),%rax
   1d45b:	48 89 85 78 fe ff ff 	mov    %rax,-0x188(%rbp)
   1d462:	48 c7 85 80 fe ff ff 	movq   $0x0,-0x180(%rbp)
   1d469:	00 00 00 00 
   1d46d:	48 8d 85 90 e5 ff ff 	lea    -0x1a70(%rbp),%rax
   1d474:	48 89 85 88 fe ff ff 	mov    %rax,-0x178(%rbp)
   1d47b:	48 8d 85 90 e5 ff ff 	lea    -0x1a70(%rbp),%rax
   1d482:	48 89 85 90 fe ff ff 	mov    %rax,-0x170(%rbp)
   1d489:	48 c7 85 98 fe ff ff 	movq   $0x0,-0x168(%rbp)
   1d490:	00 00 00 00 
   1d494:	48 8d 85 90 e5 ff ff 	lea    -0x1a70(%rbp),%rax
   1d49b:	48 89 85 a0 fe ff ff 	mov    %rax,-0x160(%rbp)
   1d4a2:	48 8d 85 90 e5 ff ff 	lea    -0x1a70(%rbp),%rax
   1d4a9:	48 89 85 a8 fe ff ff 	mov    %rax,-0x158(%rbp)
   1d4b0:	48 8d 85 90 e5 ff ff 	lea    -0x1a70(%rbp),%rax
   1d4b7:	48 89 85 b0 fe ff ff 	mov    %rax,-0x150(%rbp)
   1d4be:	48 8d 85 90 e5 ff ff 	lea    -0x1a70(%rbp),%rax
   1d4c5:	48 89 85 b8 fe ff ff 	mov    %rax,-0x148(%rbp)
   1d4cc:	48 c7 85 c0 fe ff ff 	movq   $0x0,-0x140(%rbp)
   1d4d3:	00 00 00 00 
   1d4d7:	48 c7 85 c8 fe ff ff 	movq   $0x0,-0x138(%rbp)
   1d4de:	00 00 00 00 
   1d4e2:	48 8d 85 90 e5 ff ff 	lea    -0x1a70(%rbp),%rax
   1d4e9:	48 89 85 d0 fe ff ff 	mov    %rax,-0x130(%rbp)
   1d4f0:	48 8d 85 90 e5 ff ff 	lea    -0x1a70(%rbp),%rax
   1d4f7:	48 89 85 d8 fe ff ff 	mov    %rax,-0x128(%rbp)
   1d4fe:	48 8d 85 90 e5 ff ff 	lea    -0x1a70(%rbp),%rax
   1d505:	48 89 85 e0 fe ff ff 	mov    %rax,-0x120(%rbp)
   1d50c:	48 8d 85 90 e5 ff ff 	lea    -0x1a70(%rbp),%rax
   1d513:	48 89 85 e8 fe ff ff 	mov    %rax,-0x118(%rbp)
   1d51a:	48 c7 85 f0 fe ff ff 	movq   $0x0,-0x110(%rbp)
   1d521:	00 00 00 00 
   1d525:	48 8d 85 90 e5 ff ff 	lea    -0x1a70(%rbp),%rax
   1d52c:	48 89 85 f8 fe ff ff 	mov    %rax,-0x108(%rbp)
   1d533:	48 8d 85 90 e5 ff ff 	lea    -0x1a70(%rbp),%rax
   1d53a:	48 89 85 00 ff ff ff 	mov    %rax,-0x100(%rbp)
   1d541:	48 8d 85 90 e5 ff ff 	lea    -0x1a70(%rbp),%rax
   1d548:	48 89 85 08 ff ff ff 	mov    %rax,-0xf8(%rbp)
   1d54f:	48 8d 85 90 e5 ff ff 	lea    -0x1a70(%rbp),%rax
   1d556:	48 89 85 10 ff ff ff 	mov    %rax,-0xf0(%rbp)
   1d55d:	48 c7 85 18 ff ff ff 	movq   $0x0,-0xe8(%rbp)
   1d564:	00 00 00 00 
   1d568:	48 c7 85 20 ff ff ff 	movq   $0x0,-0xe0(%rbp)
   1d56f:	00 00 00 00 
   1d573:	48 8d 85 90 e5 ff ff 	lea    -0x1a70(%rbp),%rax
   1d57a:	48 89 85 28 ff ff ff 	mov    %rax,-0xd8(%rbp)
   1d581:	48 8d 85 90 e5 ff ff 	lea    -0x1a70(%rbp),%rax
   1d588:	48 89 85 30 ff ff ff 	mov    %rax,-0xd0(%rbp)
   1d58f:	48 8d 85 90 e5 ff ff 	lea    -0x1a70(%rbp),%rax
   1d596:	48 89 85 38 ff ff ff 	mov    %rax,-0xc8(%rbp)
   1d59d:	48 8d 85 90 e5 ff ff 	lea    -0x1a70(%rbp),%rax
   1d5a4:	48 89 85 40 ff ff ff 	mov    %rax,-0xc0(%rbp)
   1d5ab:	48 8d 85 90 e5 ff ff 	lea    -0x1a70(%rbp),%rax
   1d5b2:	48 89 85 48 ff ff ff 	mov    %rax,-0xb8(%rbp)
   1d5b9:	48 8d 85 90 e5 ff ff 	lea    -0x1a70(%rbp),%rax
   1d5c0:	48 89 85 50 ff ff ff 	mov    %rax,-0xb0(%rbp)
   1d5c7:	48 8d 85 90 e5 ff ff 	lea    -0x1a70(%rbp),%rax
   1d5ce:	48 89 85 58 ff ff ff 	mov    %rax,-0xa8(%rbp)
   1d5d5:	48 8d 85 90 e5 ff ff 	lea    -0x1a70(%rbp),%rax
   1d5dc:	48 89 85 60 ff ff ff 	mov    %rax,-0xa0(%rbp)
   1d5e3:	48 8d 85 90 e5 ff ff 	lea    -0x1a70(%rbp),%rax
   1d5ea:	48 89 85 68 ff ff ff 	mov    %rax,-0x98(%rbp)
   1d5f1:	48 8d 85 90 e5 ff ff 	lea    -0x1a70(%rbp),%rax
   1d5f8:	48 89 85 70 ff ff ff 	mov    %rax,-0x90(%rbp)
   1d5ff:	48 c7 85 78 ff ff ff 	movq   $0x0,-0x88(%rbp)
   1d606:	00 00 00 00 
   1d60a:	48 8d 85 90 e5 ff ff 	lea    -0x1a70(%rbp),%rax
   1d611:	48 89 45 80          	mov    %rax,-0x80(%rbp)
   1d615:	48 8d 85 90 e5 ff ff 	lea    -0x1a70(%rbp),%rax
   1d61c:	48 89 45 88          	mov    %rax,-0x78(%rbp)
   1d620:	48 8d 85 90 e5 ff ff 	lea    -0x1a70(%rbp),%rax
   1d627:	48 89 45 90          	mov    %rax,-0x70(%rbp)
   1d62b:	48 8d 85 90 e5 ff ff 	lea    -0x1a70(%rbp),%rax
   1d632:	48 89 45 98          	mov    %rax,-0x68(%rbp)
   1d636:	48 8d 85 90 e5 ff ff 	lea    -0x1a70(%rbp),%rax
   1d63d:	48 89 45 a0          	mov    %rax,-0x60(%rbp)
   1d641:	48 8d 85 90 e5 ff ff 	lea    -0x1a70(%rbp),%rax
   1d648:	48 89 45 a8          	mov    %rax,-0x58(%rbp)
   1d64c:	48 8d 85 90 e5 ff ff 	lea    -0x1a70(%rbp),%rax
   1d653:	48 89 45 b0          	mov    %rax,-0x50(%rbp)
   1d657:	48 8d 85 90 e5 ff ff 	lea    -0x1a70(%rbp),%rax
   1d65e:	48 89 45 b8          	mov    %rax,-0x48(%rbp)
   1d662:	48 8d 85 90 e5 ff ff 	lea    -0x1a70(%rbp),%rax
   1d669:	48 89 45 c0          	mov    %rax,-0x40(%rbp)
   1d66d:	48 c7 45 c8 00 00 00 	movq   $0x0,-0x38(%rbp)
   1d674:	00 
   1d675:	48 8d 85 90 e5 ff ff 	lea    -0x1a70(%rbp),%rax
   1d67c:	48 89 45 d0          	mov    %rax,-0x30(%rbp)
   1d680:	48 8d 85 90 e5 ff ff 	lea    -0x1a70(%rbp),%rax
   1d687:	48 89 45 d8          	mov    %rax,-0x28(%rbp)
   1d68b:	48 c7 45 e0 00 00 00 	movq   $0x0,-0x20(%rbp)
   1d692:	00 
   1d693:	48 c7 45 e8 00 00 00 	movq   $0x0,-0x18(%rbp)
   1d69a:	00 
   1d69b:	c6 85 39 e5 ff ff 05 	movb   $0x5,-0x1ac7(%rbp)
   1d6a2:	c7 85 7c e5 ff ff d6 	movl   $0x5a929ed6,-0x1a84(%rbp)
   1d6a9:	9e 92 5a 
   1d6ac:	48 8d 85 10 e8 ff ff 	lea    -0x17f0(%rbp),%rax
   1d6b3:	48 8d 15 26 43 00 00 	lea    0x4326(%rip),%rdx        # 219e0 <g_3910+0x2974>
   1d6ba:	b9 38 00 00 00       	mov    $0x38,%ecx
   1d6bf:	48 89 c7             	mov    %rax,%rdi
   1d6c2:	48 89 d6             	mov    %rdx,%rsi
   1d6c5:	f3 48 a5             	rep movsq %ds:(%rsi),%es:(%rdi)
   1d6c8:	48 b8 24 f2 52 61 7d 	movabs $0x9c34307d6152f224,%rax
   1d6cf:	30 34 9c 
   1d6d2:	48 89 85 f8 e5 ff ff 	mov    %rax,-0x1a08(%rbp)
   1d6d9:	c7 85 44 e5 ff ff 00 	movl   $0x0,-0x1abc(%rbp)
   1d6e0:	00 00 00 
   1d6e3:	eb 1b                	jmp    1d700 <func_77+0x191b>
   1d6e5:	8b 85 44 e5 ff ff    	mov    -0x1abc(%rbp),%eax
   1d6eb:	48 98                	cltq   
   1d6ed:	48 c7 84 c5 10 e6 ff 	movq   $0x0,-0x19f0(%rbp,%rax,8)
   1d6f4:	ff 00 00 00 00 
   1d6f9:	83 85 44 e5 ff ff 01 	addl   $0x1,-0x1abc(%rbp)
   1d700:	83 bd 44 e5 ff ff 02 	cmpl   $0x2,-0x1abc(%rbp)
   1d707:	7e dc                	jle    1d6e5 <func_77+0x1900>
   1d709:	48 8b 85 10 e5 ff ff 	mov    -0x1af0(%rbp),%rax
   1d710:	0f b6 c0             	movzbl %al,%eax
   1d713:	be 06 00 00 00       	mov    $0x6,%esi
   1d718:	89 c7                	mov    %eax,%edi
   1d71a:	e8 59 e4 fe ff       	callq  bb78 <safe_sub_func_uint8_t_u_u>
   1d71f:	0f b6 c0             	movzbl %al,%eax
   1d722:	48 89 85 10 e5 ff ff 	mov    %rax,-0x1af0(%rbp)
   1d729:	48 83 bd 10 e5 ff ff 	cmpq   $0xfffffffffffffff1,-0x1af0(%rbp)
   1d730:	f1 
   1d731:	0f 8d 0a f4 ff ff    	jge    1cb41 <func_77+0xd5c>
   1d737:	8b 85 40 e6 ff ff    	mov    -0x19c0(%rbp),%eax
   1d73d:	83 e8 01             	sub    $0x1,%eax
   1d740:	89 85 40 e6 ff ff    	mov    %eax,-0x19c0(%rbp)
   1d746:	0f b6 45 f2          	movzbl -0xe(%rbp),%eax
   1d74a:	83 c0 01             	add    $0x1,%eax
   1d74d:	88 45 f2             	mov    %al,-0xe(%rbp)
   1d750:	48 8b 85 98 e5 ff ff 	mov    -0x1a68(%rbp),%rax
   1d757:	8b 00                	mov    (%rax),%eax
   1d759:	48 8b 55 f8          	mov    -0x8(%rbp),%rdx
   1d75d:	64 48 33 14 25 28 00 	xor    %fs:0x28,%rdx
   1d764:	00 00 
   1d766:	74 05                	je     1d76d <func_77+0x1988>
   1d768:	e8 03 d9 fe ff       	callq  b070 <__stack_chk_fail@plt>
   1d76d:	c9                   	leaveq 
   1d76e:	c3                   	retq   

000000000001d76f <main>:
   1d76f:	f3 0f 1e fa          	endbr64 
   1d773:	55                   	push   %rbp
   1d774:	48 89 e5             	mov    %rsp,%rbp
   1d777:	48 83 ec 20          	sub    $0x20,%rsp
   1d77b:	89 7d ec             	mov    %edi,-0x14(%rbp)
   1d77e:	48 89 75 e0          	mov    %rsi,-0x20(%rbp)
   1d782:	c7 45 fc 00 00 00 00 	movl   $0x0,-0x4(%rbp)
   1d789:	83 7d ec 02          	cmpl   $0x2,-0x14(%rbp)
   1d78d:	75 25                	jne    1d7b4 <main+0x45>
   1d78f:	48 8b 45 e0          	mov    -0x20(%rbp),%rax
   1d793:	48 83 c0 08          	add    $0x8,%rax
   1d797:	48 8b 00             	mov    (%rax),%rax
   1d79a:	48 8d 35 ff 43 00 00 	lea    0x43ff(%rip),%rsi        # 21ba0 <g_3910+0x2b34>
   1d7a1:	48 89 c7             	mov    %rax,%rdi
   1d7a4:	e8 e7 d8 fe ff       	callq  b090 <strcmp@plt>
   1d7a9:	85 c0                	test   %eax,%eax
   1d7ab:	75 07                	jne    1d7b4 <main+0x45>
   1d7ad:	c7 45 fc 01 00 00 00 	movl   $0x1,-0x4(%rbp)
   1d7b4:	e8 d0 d9 fe ff       	callq  b189 <platform_main_begin>
   1d7b9:	e8 da ed fe ff       	callq  c598 <crc32_gentab>
   1d7be:	e8 f2 ef fe ff       	callq  c7b5 <func_1>
   1d7c3:	8b 05 5b 78 00 00    	mov    0x785b(%rip),%eax        # 25024 <g_3>
   1d7c9:	48 98                	cltq   
   1d7cb:	8b 55 fc             	mov    -0x4(%rbp),%edx
   1d7ce:	48 8d 35 cd 43 00 00 	lea    0x43cd(%rip),%rsi        # 21ba2 <g_3910+0x2b36>
   1d7d5:	48 89 c7             	mov    %rax,%rdi
   1d7d8:	e8 16 ef fe ff       	callq  c6f3 <transparent_crc>
   1d7dd:	c7 45 f0 00 00 00 00 	movl   $0x0,-0x10(%rbp)
   1d7e4:	eb 4b                	jmp    1d831 <main+0xc2>
   1d7e6:	8b 45 f0             	mov    -0x10(%rbp),%eax
   1d7e9:	48 98                	cltq   
   1d7eb:	48 8d 14 85 00 00 00 	lea    0x0(,%rax,4),%rdx
   1d7f2:	00 
   1d7f3:	48 8d 05 46 78 00 00 	lea    0x7846(%rip),%rax        # 25040 <g_52>
   1d7fa:	8b 04 02             	mov    (%rdx,%rax,1),%eax
   1d7fd:	48 98                	cltq   
   1d7ff:	8b 55 fc             	mov    -0x4(%rbp),%edx
   1d802:	48 8d 35 9d 43 00 00 	lea    0x439d(%rip),%rsi        # 21ba6 <g_3910+0x2b3a>
   1d809:	48 89 c7             	mov    %rax,%rdi
   1d80c:	e8 e2 ee fe ff       	callq  c6f3 <transparent_crc>
   1d811:	83 7d fc 00          	cmpl   $0x0,-0x4(%rbp)
   1d815:	74 16                	je     1d82d <main+0xbe>
   1d817:	8b 45 f0             	mov    -0x10(%rbp),%eax
   1d81a:	89 c6                	mov    %eax,%esi
   1d81c:	48 8d 3d 8b 43 00 00 	lea    0x438b(%rip),%rdi        # 21bae <g_3910+0x2b42>
   1d823:	b8 00 00 00 00       	mov    $0x0,%eax
   1d828:	e8 53 d8 fe ff       	callq  b080 <printf@plt>
   1d82d:	83 45 f0 01          	addl   $0x1,-0x10(%rbp)
   1d831:	83 7d f0 09          	cmpl   $0x9,-0x10(%rbp)
   1d835:	7e af                	jle    1d7e6 <main+0x77>
   1d837:	8b 05 2b 78 00 00    	mov    0x782b(%rip),%eax        # 25068 <g_53>
   1d83d:	48 98                	cltq   
   1d83f:	8b 55 fc             	mov    -0x4(%rbp),%edx
   1d842:	48 8d 35 73 43 00 00 	lea    0x4373(%rip),%rsi        # 21bbc <g_3910+0x2b50>
   1d849:	48 89 c7             	mov    %rax,%rdi
   1d84c:	e8 a2 ee fe ff       	callq  c6f3 <transparent_crc>
   1d851:	8b 05 15 78 00 00    	mov    0x7815(%rip),%eax        # 2506c <g_54>
   1d857:	48 98                	cltq   
   1d859:	8b 55 fc             	mov    -0x4(%rbp),%edx
   1d85c:	48 8d 35 5e 43 00 00 	lea    0x435e(%rip),%rsi        # 21bc1 <g_3910+0x2b55>
   1d863:	48 89 c7             	mov    %rax,%rdi
   1d866:	e8 88 ee fe ff       	callq  c6f3 <transparent_crc>
   1d86b:	8b 05 ff 77 00 00    	mov    0x77ff(%rip),%eax        # 25070 <g_55>
   1d871:	48 98                	cltq   
   1d873:	8b 55 fc             	mov    -0x4(%rbp),%edx
   1d876:	48 8d 35 49 43 00 00 	lea    0x4349(%rip),%rsi        # 21bc6 <g_3910+0x2b5a>
   1d87d:	48 89 c7             	mov    %rax,%rdi
   1d880:	e8 6e ee fe ff       	callq  c6f3 <transparent_crc>
   1d885:	8b 05 e9 77 00 00    	mov    0x77e9(%rip),%eax        # 25074 <g_56>
   1d88b:	48 98                	cltq   
   1d88d:	8b 55 fc             	mov    -0x4(%rbp),%edx
   1d890:	48 8d 35 34 43 00 00 	lea    0x4334(%rip),%rsi        # 21bcb <g_3910+0x2b5f>
   1d897:	48 89 c7             	mov    %rax,%rdi
   1d89a:	e8 54 ee fe ff       	callq  c6f3 <transparent_crc>
   1d89f:	8b 05 d3 77 00 00    	mov    0x77d3(%rip),%eax        # 25078 <g_64>
   1d8a5:	48 98                	cltq   
   1d8a7:	8b 55 fc             	mov    -0x4(%rbp),%edx
   1d8aa:	48 8d 35 1f 43 00 00 	lea    0x431f(%rip),%rsi        # 21bd0 <g_3910+0x2b64>
   1d8b1:	48 89 c7             	mov    %rax,%rdi
   1d8b4:	e8 3a ee fe ff       	callq  c6f3 <transparent_crc>
   1d8b9:	8b 05 bd 77 00 00    	mov    0x77bd(%rip),%eax        # 2507c <g_65>
   1d8bf:	48 98                	cltq   
   1d8c1:	8b 55 fc             	mov    -0x4(%rbp),%edx
   1d8c4:	48 8d 35 0a 43 00 00 	lea    0x430a(%rip),%rsi        # 21bd5 <g_3910+0x2b69>
   1d8cb:	48 89 c7             	mov    %rax,%rdi
   1d8ce:	e8 20 ee fe ff       	callq  c6f3 <transparent_crc>
   1d8d3:	0f b6 05 a6 77 00 00 	movzbl 0x77a6(%rip),%eax        # 25080 <g_112>
   1d8da:	0f b6 c0             	movzbl %al,%eax
   1d8dd:	8b 55 fc             	mov    -0x4(%rbp),%edx
   1d8e0:	48 8d 35 f3 42 00 00 	lea    0x42f3(%rip),%rsi        # 21bda <g_3910+0x2b6e>
   1d8e7:	48 89 c7             	mov    %rax,%rdi
   1d8ea:	e8 04 ee fe ff       	callq  c6f3 <transparent_crc>
   1d8ef:	0f b6 05 8b 77 00 00 	movzbl 0x778b(%rip),%eax        # 25081 <g_129>
   1d8f6:	48 0f be c0          	movsbq %al,%rax
   1d8fa:	8b 55 fc             	mov    -0x4(%rbp),%edx
   1d8fd:	48 8d 35 dc 42 00 00 	lea    0x42dc(%rip),%rsi        # 21be0 <g_3910+0x2b74>
   1d904:	48 89 c7             	mov    %rax,%rdi
   1d907:	e8 e7 ed fe ff       	callq  c6f3 <transparent_crc>
   1d90c:	48 8b 05 75 77 00 00 	mov    0x7775(%rip),%rax        # 25088 <g_151>
   1d913:	48 89 c1             	mov    %rax,%rcx
   1d916:	8b 45 fc             	mov    -0x4(%rbp),%eax
   1d919:	89 c2                	mov    %eax,%edx
   1d91b:	48 8d 35 c4 42 00 00 	lea    0x42c4(%rip),%rsi        # 21be6 <g_3910+0x2b7a>
   1d922:	48 89 cf             	mov    %rcx,%rdi
   1d925:	e8 c9 ed fe ff       	callq  c6f3 <transparent_crc>
   1d92a:	0f b7 05 67 77 00 00 	movzwl 0x7767(%rip),%eax        # 25098 <g_196>
   1d931:	48 0f bf c0          	movswq %ax,%rax
   1d935:	8b 55 fc             	mov    -0x4(%rbp),%edx
   1d938:	48 8d 35 ad 42 00 00 	lea    0x42ad(%rip),%rsi        # 21bec <g_3910+0x2b80>
   1d93f:	48 89 c7             	mov    %rax,%rdi
   1d942:	e8 ac ed fe ff       	callq  c6f3 <transparent_crc>
   1d947:	c7 45 f0 00 00 00 00 	movl   $0x0,-0x10(%rbp)
   1d94e:	eb 49                	jmp    1d999 <main+0x22a>
   1d950:	8b 45 f0             	mov    -0x10(%rbp),%eax
   1d953:	48 98                	cltq   
   1d955:	48 8d 14 00          	lea    (%rax,%rax,1),%rdx
   1d959:	48 8d 05 40 77 00 00 	lea    0x7740(%rip),%rax        # 250a0 <g_210>
   1d960:	0f b7 04 02          	movzwl (%rdx,%rax,1),%eax
   1d964:	0f b7 c0             	movzwl %ax,%eax
   1d967:	8b 55 fc             	mov    -0x4(%rbp),%edx
   1d96a:	48 8d 35 81 42 00 00 	lea    0x4281(%rip),%rsi        # 21bf2 <g_3910+0x2b86>
   1d971:	48 89 c7             	mov    %rax,%rdi
   1d974:	e8 7a ed fe ff       	callq  c6f3 <transparent_crc>
   1d979:	83 7d fc 00          	cmpl   $0x0,-0x4(%rbp)
   1d97d:	74 16                	je     1d995 <main+0x226>
   1d97f:	8b 45 f0             	mov    -0x10(%rbp),%eax
   1d982:	89 c6                	mov    %eax,%esi
   1d984:	48 8d 3d 23 42 00 00 	lea    0x4223(%rip),%rdi        # 21bae <g_3910+0x2b42>
   1d98b:	b8 00 00 00 00       	mov    $0x0,%eax
   1d990:	e8 eb d6 fe ff       	callq  b080 <printf@plt>
   1d995:	83 45 f0 01          	addl   $0x1,-0x10(%rbp)
   1d999:	83 7d f0 07          	cmpl   $0x7,-0x10(%rbp)
   1d99d:	7e b1                	jle    1d950 <main+0x1e1>
   1d99f:	b8 ea a8 ff ff       	mov    $0xffffa8ea,%eax
   1d9a4:	48 0f bf c0          	movswq %ax,%rax
   1d9a8:	8b 55 fc             	mov    -0x4(%rbp),%edx
   1d9ab:	48 8d 35 49 42 00 00 	lea    0x4249(%rip),%rsi        # 21bfb <g_3910+0x2b8f>
   1d9b2:	48 89 c7             	mov    %rax,%rdi
   1d9b5:	e8 39 ed fe ff       	callq  c6f3 <transparent_crc>
   1d9ba:	c7 45 f0 00 00 00 00 	movl   $0x0,-0x10(%rbp)
   1d9c1:	eb 76                	jmp    1da39 <main+0x2ca>
   1d9c3:	c7 45 f4 00 00 00 00 	movl   $0x0,-0xc(%rbp)
   1d9ca:	eb 63                	jmp    1da2f <main+0x2c0>
   1d9cc:	8b 45 f4             	mov    -0xc(%rbp),%eax
   1d9cf:	48 63 c8             	movslq %eax,%rcx
   1d9d2:	8b 45 f0             	mov    -0x10(%rbp),%eax
   1d9d5:	48 63 d0             	movslq %eax,%rdx
   1d9d8:	48 89 d0             	mov    %rdx,%rax
   1d9db:	48 c1 e0 02          	shl    $0x2,%rax
   1d9df:	48 01 d0             	add    %rdx,%rax
   1d9e2:	48 01 c0             	add    %rax,%rax
   1d9e5:	48 01 c8             	add    %rcx,%rax
   1d9e8:	48 8d 14 00          	lea    (%rax,%rax,1),%rdx
   1d9ec:	48 8d 05 cd 76 00 00 	lea    0x76cd(%rip),%rax        # 250c0 <g_256>
   1d9f3:	0f b7 04 02          	movzwl (%rdx,%rax,1),%eax
   1d9f7:	0f b7 c0             	movzwl %ax,%eax
   1d9fa:	8b 55 fc             	mov    -0x4(%rbp),%edx
   1d9fd:	48 8d 35 fd 41 00 00 	lea    0x41fd(%rip),%rsi        # 21c01 <g_3910+0x2b95>
   1da04:	48 89 c7             	mov    %rax,%rdi
   1da07:	e8 e7 ec fe ff       	callq  c6f3 <transparent_crc>
   1da0c:	83 7d fc 00          	cmpl   $0x0,-0x4(%rbp)
   1da10:	74 19                	je     1da2b <main+0x2bc>
   1da12:	8b 55 f4             	mov    -0xc(%rbp),%edx
   1da15:	8b 45 f0             	mov    -0x10(%rbp),%eax
   1da18:	89 c6                	mov    %eax,%esi
   1da1a:	48 8d 3d ec 41 00 00 	lea    0x41ec(%rip),%rdi        # 21c0d <g_3910+0x2ba1>
   1da21:	b8 00 00 00 00       	mov    $0x0,%eax
   1da26:	e8 55 d6 fe ff       	callq  b080 <printf@plt>
   1da2b:	83 45 f4 01          	addl   $0x1,-0xc(%rbp)
   1da2f:	83 7d f4 09          	cmpl   $0x9,-0xc(%rbp)
   1da33:	7e 97                	jle    1d9cc <main+0x25d>
   1da35:	83 45 f0 01          	addl   $0x1,-0x10(%rbp)
   1da39:	83 7d f0 01          	cmpl   $0x1,-0x10(%rbp)
   1da3d:	7e 84                	jle    1d9c3 <main+0x254>
   1da3f:	0f b7 05 a2 76 00 00 	movzwl 0x76a2(%rip),%eax        # 250e8 <g_327>
   1da46:	48 0f bf c0          	movswq %ax,%rax
   1da4a:	8b 55 fc             	mov    -0x4(%rbp),%edx
   1da4d:	48 8d 35 cb 41 00 00 	lea    0x41cb(%rip),%rsi        # 21c1f <g_3910+0x2bb3>
   1da54:	48 89 c7             	mov    %rax,%rdi
   1da57:	e8 97 ec fe ff       	callq  c6f3 <transparent_crc>
   1da5c:	0f b7 05 87 76 00 00 	movzwl 0x7687(%rip),%eax        # 250ea <g_358>
   1da63:	0f b7 c0             	movzwl %ax,%eax
   1da66:	8b 55 fc             	mov    -0x4(%rbp),%edx
   1da69:	48 8d 35 b5 41 00 00 	lea    0x41b5(%rip),%rsi        # 21c25 <g_3910+0x2bb9>
   1da70:	48 89 c7             	mov    %rax,%rdi
   1da73:	e8 7b ec fe ff       	callq  c6f3 <transparent_crc>
   1da78:	8b 05 6e 76 00 00    	mov    0x766e(%rip),%eax        # 250ec <g_362>
   1da7e:	89 c1                	mov    %eax,%ecx
   1da80:	8b 45 fc             	mov    -0x4(%rbp),%eax
   1da83:	89 c2                	mov    %eax,%edx
   1da85:	48 8d 35 9f 41 00 00 	lea    0x419f(%rip),%rsi        # 21c2b <g_3910+0x2bbf>
   1da8c:	48 89 cf             	mov    %rcx,%rdi
   1da8f:	e8 5f ec fe ff       	callq  c6f3 <transparent_crc>
   1da94:	8b 05 7e d3 00 00    	mov    0xd37e(%rip),%eax        # 2ae18 <g_626>
   1da9a:	48 98                	cltq   
   1da9c:	8b 55 fc             	mov    -0x4(%rbp),%edx
   1da9f:	48 8d 35 8b 41 00 00 	lea    0x418b(%rip),%rsi        # 21c31 <g_3910+0x2bc5>
   1daa6:	48 89 c7             	mov    %rax,%rdi
   1daa9:	e8 45 ec fe ff       	callq  c6f3 <transparent_crc>
   1daae:	0f b7 05 3b 76 00 00 	movzwl 0x763b(%rip),%eax        # 250f0 <g_685>
   1dab5:	48 0f bf c0          	movswq %ax,%rax
   1dab9:	8b 55 fc             	mov    -0x4(%rbp),%edx
   1dabc:	48 8d 35 74 41 00 00 	lea    0x4174(%rip),%rsi        # 21c37 <g_3910+0x2bcb>
   1dac3:	48 89 c7             	mov    %rax,%rdi
   1dac6:	e8 28 ec fe ff       	callq  c6f3 <transparent_crc>
   1dacb:	48 8b 05 26 76 00 00 	mov    0x7626(%rip),%rax        # 250f8 <g_708>
   1dad2:	8b 55 fc             	mov    -0x4(%rbp),%edx
   1dad5:	48 8d 35 61 41 00 00 	lea    0x4161(%rip),%rsi        # 21c3d <g_3910+0x2bd1>
   1dadc:	48 89 c7             	mov    %rax,%rdi
   1dadf:	e8 0f ec fe ff       	callq  c6f3 <transparent_crc>
   1dae4:	48 8b 05 15 76 00 00 	mov    0x7615(%rip),%rax        # 25100 <g_709>
   1daeb:	48 89 c1             	mov    %rax,%rcx
   1daee:	8b 45 fc             	mov    -0x4(%rbp),%eax
   1daf1:	89 c2                	mov    %eax,%edx
   1daf3:	48 8d 35 49 41 00 00 	lea    0x4149(%rip),%rsi        # 21c43 <g_3910+0x2bd7>
   1dafa:	48 89 cf             	mov    %rcx,%rdi
   1dafd:	e8 f1 eb fe ff       	callq  c6f3 <transparent_crc>
   1db02:	8b 05 00 76 00 00    	mov    0x7600(%rip),%eax        # 25108 <g_801>
   1db08:	48 98                	cltq   
   1db0a:	8b 55 fc             	mov    -0x4(%rbp),%edx
   1db0d:	48 8d 35 35 41 00 00 	lea    0x4135(%rip),%rsi        # 21c49 <g_3910+0x2bdd>
   1db14:	48 89 c7             	mov    %rax,%rdi
   1db17:	e8 d7 eb fe ff       	callq  c6f3 <transparent_crc>
   1db1c:	0f b6 05 e9 75 00 00 	movzbl 0x75e9(%rip),%eax        # 2510c <g_843>
   1db23:	0f b6 c0             	movzbl %al,%eax
   1db26:	8b 55 fc             	mov    -0x4(%rbp),%edx
   1db29:	48 8d 35 1f 41 00 00 	lea    0x411f(%rip),%rsi        # 21c4f <g_3910+0x2be3>
   1db30:	48 89 c7             	mov    %rax,%rdi
   1db33:	e8 bb eb fe ff       	callq  c6f3 <transparent_crc>
   1db38:	8b 05 d2 75 00 00    	mov    0x75d2(%rip),%eax        # 25110 <g_845>
   1db3e:	89 c1                	mov    %eax,%ecx
   1db40:	8b 45 fc             	mov    -0x4(%rbp),%eax
   1db43:	89 c2                	mov    %eax,%edx
   1db45:	48 8d 35 09 41 00 00 	lea    0x4109(%rip),%rsi        # 21c55 <g_3910+0x2be9>
   1db4c:	48 89 cf             	mov    %rcx,%rdi
   1db4f:	e8 9f eb fe ff       	callq  c6f3 <transparent_crc>
   1db54:	8b 05 ba 75 00 00    	mov    0x75ba(%rip),%eax        # 25114 <g_849>
   1db5a:	89 c1                	mov    %eax,%ecx
   1db5c:	8b 45 fc             	mov    -0x4(%rbp),%eax
   1db5f:	89 c2                	mov    %eax,%edx
   1db61:	48 8d 35 f3 40 00 00 	lea    0x40f3(%rip),%rsi        # 21c5b <g_3910+0x2bef>
   1db68:	48 89 cf             	mov    %rcx,%rdi
   1db6b:	e8 83 eb fe ff       	callq  c6f3 <transparent_crc>
   1db70:	c7 45 f0 00 00 00 00 	movl   $0x0,-0x10(%rbp)
   1db77:	eb 6a                	jmp    1dbe3 <main+0x474>
   1db79:	c7 45 f4 00 00 00 00 	movl   $0x0,-0xc(%rbp)
   1db80:	eb 57                	jmp    1dbd9 <main+0x46a>
   1db82:	8b 45 f4             	mov    -0xc(%rbp),%eax
   1db85:	48 98                	cltq   
   1db87:	8b 55 f0             	mov    -0x10(%rbp),%edx
   1db8a:	48 63 d2             	movslq %edx,%rdx
   1db8d:	48 c1 e2 03          	shl    $0x3,%rdx
   1db91:	48 01 c2             	add    %rax,%rdx
   1db94:	48 8d 05 85 75 00 00 	lea    0x7585(%rip),%rax        # 25120 <g_929>
   1db9b:	48 01 d0             	add    %rdx,%rax
   1db9e:	0f b6 00             	movzbl (%rax),%eax
   1dba1:	0f b6 c0             	movzbl %al,%eax
   1dba4:	8b 55 fc             	mov    -0x4(%rbp),%edx
   1dba7:	48 8d 35 b3 40 00 00 	lea    0x40b3(%rip),%rsi        # 21c61 <g_3910+0x2bf5>
   1dbae:	48 89 c7             	mov    %rax,%rdi
   1dbb1:	e8 3d eb fe ff       	callq  c6f3 <transparent_crc>
   1dbb6:	83 7d fc 00          	cmpl   $0x0,-0x4(%rbp)
   1dbba:	74 19                	je     1dbd5 <main+0x466>
   1dbbc:	8b 55 f4             	mov    -0xc(%rbp),%edx
   1dbbf:	8b 45 f0             	mov    -0x10(%rbp),%eax
   1dbc2:	89 c6                	mov    %eax,%esi
   1dbc4:	48 8d 3d 42 40 00 00 	lea    0x4042(%rip),%rdi        # 21c0d <g_3910+0x2ba1>
   1dbcb:	b8 00 00 00 00       	mov    $0x0,%eax
   1dbd0:	e8 ab d4 fe ff       	callq  b080 <printf@plt>
   1dbd5:	83 45 f4 01          	addl   $0x1,-0xc(%rbp)
   1dbd9:	83 7d f4 07          	cmpl   $0x7,-0xc(%rbp)
   1dbdd:	7e a3                	jle    1db82 <main+0x413>
   1dbdf:	83 45 f0 01          	addl   $0x1,-0x10(%rbp)
   1dbe3:	83 7d f0 08          	cmpl   $0x8,-0x10(%rbp)
   1dbe7:	7e 90                	jle    1db79 <main+0x40a>
   1dbe9:	48 b9 39 b5 89 9e b5 	movabs $0xae1b95b59e89b539,%rcx
   1dbf0:	95 1b ae 
   1dbf3:	8b 45 fc             	mov    -0x4(%rbp),%eax
   1dbf6:	89 c2                	mov    %eax,%edx
   1dbf8:	48 8d 35 6e 40 00 00 	lea    0x406e(%rip),%rsi        # 21c6d <g_3910+0x2c01>
   1dbff:	48 89 cf             	mov    %rcx,%rdi
   1dc02:	e8 ec ea fe ff       	callq  c6f3 <transparent_crc>
   1dc07:	48 b9 ff cb 0c 88 15 	movabs $0x6edfd215880ccbff,%rcx
   1dc0e:	d2 df 6e 
   1dc11:	8b 45 fc             	mov    -0x4(%rbp),%eax
   1dc14:	89 c2                	mov    %eax,%edx
   1dc16:	48 8d 35 57 40 00 00 	lea    0x4057(%rip),%rsi        # 21c74 <g_3910+0x2c08>
   1dc1d:	48 89 cf             	mov    %rcx,%rdi
   1dc20:	e8 ce ea fe ff       	callq  c6f3 <transparent_crc>
   1dc25:	b8 01 00 00 00       	mov    $0x1,%eax
   1dc2a:	48 0f bf c0          	movswq %ax,%rax
   1dc2e:	8b 55 fc             	mov    -0x4(%rbp),%edx
   1dc31:	48 8d 35 43 40 00 00 	lea    0x4043(%rip),%rsi        # 21c7b <g_3910+0x2c0f>
   1dc38:	48 89 c7             	mov    %rax,%rdi
   1dc3b:	e8 b3 ea fe ff       	callq  c6f3 <transparent_crc>
   1dc40:	0f b6 05 21 75 00 00 	movzbl 0x7521(%rip),%eax        # 25168 <g_1156>
   1dc47:	48 0f be c0          	movsbq %al,%rax
   1dc4b:	8b 55 fc             	mov    -0x4(%rbp),%edx
   1dc4e:	48 8d 35 2d 40 00 00 	lea    0x402d(%rip),%rsi        # 21c82 <g_3910+0x2c16>
   1dc55:	48 89 c7             	mov    %rax,%rdi
   1dc58:	e8 96 ea fe ff       	callq  c6f3 <transparent_crc>
   1dc5d:	c7 45 f0 00 00 00 00 	movl   $0x0,-0x10(%rbp)
   1dc64:	e9 a3 00 00 00       	jmpq   1dd0c <main+0x59d>
   1dc69:	c7 45 f4 00 00 00 00 	movl   $0x0,-0xc(%rbp)
   1dc70:	e9 89 00 00 00       	jmpq   1dcfe <main+0x58f>
   1dc75:	c7 45 f8 00 00 00 00 	movl   $0x0,-0x8(%rbp)
   1dc7c:	eb 76                	jmp    1dcf4 <main+0x585>
   1dc7e:	8b 45 f8             	mov    -0x8(%rbp),%eax
   1dc81:	48 63 f0             	movslq %eax,%rsi
   1dc84:	8b 45 f0             	mov    -0x10(%rbp),%eax
   1dc87:	48 98                	cltq   
   1dc89:	8b 55 f4             	mov    -0xc(%rbp),%edx
   1dc8c:	48 63 ca             	movslq %edx,%rcx
   1dc8f:	48 89 c2             	mov    %rax,%rdx
   1dc92:	48 c1 e2 06          	shl    $0x6,%rdx
   1dc96:	48 29 c2             	sub    %rax,%rdx
   1dc99:	48 89 c8             	mov    %rcx,%rax
   1dc9c:	48 c1 e0 03          	shl    $0x3,%rax
   1dca0:	48 01 c8             	add    %rcx,%rax
   1dca3:	48 01 d0             	add    %rdx,%rax
   1dca6:	48 01 f0             	add    %rsi,%rax
   1dca9:	48 8d 14 c5 00 00 00 	lea    0x0(,%rax,8),%rdx
   1dcb0:	00 
   1dcb1:	48 8d 05 c8 74 00 00 	lea    0x74c8(%rip),%rax        # 25180 <g_1346>
   1dcb8:	48 8b 04 02          	mov    (%rdx,%rax,1),%rax
   1dcbc:	8b 55 fc             	mov    -0x4(%rbp),%edx
   1dcbf:	48 8d 35 c3 3f 00 00 	lea    0x3fc3(%rip),%rsi        # 21c89 <g_3910+0x2c1d>
   1dcc6:	48 89 c7             	mov    %rax,%rdi
   1dcc9:	e8 25 ea fe ff       	callq  c6f3 <transparent_crc>
   1dcce:	83 7d fc 00          	cmpl   $0x0,-0x4(%rbp)
   1dcd2:	74 1c                	je     1dcf0 <main+0x581>
   1dcd4:	8b 4d f8             	mov    -0x8(%rbp),%ecx
   1dcd7:	8b 55 f4             	mov    -0xc(%rbp),%edx
   1dcda:	8b 45 f0             	mov    -0x10(%rbp),%eax
   1dcdd:	89 c6                	mov    %eax,%esi
   1dcdf:	48 8d 3d b3 3f 00 00 	lea    0x3fb3(%rip),%rdi        # 21c99 <g_3910+0x2c2d>
   1dce6:	b8 00 00 00 00       	mov    $0x0,%eax
   1dceb:	e8 90 d3 fe ff       	callq  b080 <printf@plt>
   1dcf0:	83 45 f8 01          	addl   $0x1,-0x8(%rbp)
   1dcf4:	83 7d f8 08          	cmpl   $0x8,-0x8(%rbp)
   1dcf8:	7e 84                	jle    1dc7e <main+0x50f>
   1dcfa:	83 45 f4 01          	addl   $0x1,-0xc(%rbp)
   1dcfe:	83 7d f4 06          	cmpl   $0x6,-0xc(%rbp)
   1dd02:	0f 8e 6d ff ff ff    	jle    1dc75 <main+0x506>
   1dd08:	83 45 f0 01          	addl   $0x1,-0x10(%rbp)
   1dd0c:	83 7d f0 03          	cmpl   $0x3,-0x10(%rbp)
   1dd10:	0f 8e 53 ff ff ff    	jle    1dc69 <main+0x4fa>
   1dd16:	0f b6 05 43 7c 00 00 	movzbl 0x7c43(%rip),%eax        # 25960 <g_1516>
   1dd1d:	0f b6 c0             	movzbl %al,%eax
   1dd20:	8b 55 fc             	mov    -0x4(%rbp),%edx
   1dd23:	48 8d 35 85 3f 00 00 	lea    0x3f85(%rip),%rsi        # 21caf <g_3910+0x2c43>
   1dd2a:	48 89 c7             	mov    %rax,%rdi
   1dd2d:	e8 c1 e9 fe ff       	callq  c6f3 <transparent_crc>
   1dd32:	8b 05 2c 7c 00 00    	mov    0x7c2c(%rip),%eax        # 25964 <g_1549>
   1dd38:	89 c1                	mov    %eax,%ecx
   1dd3a:	8b 45 fc             	mov    -0x4(%rbp),%eax
   1dd3d:	89 c2                	mov    %eax,%edx
   1dd3f:	48 8d 35 70 3f 00 00 	lea    0x3f70(%rip),%rsi        # 21cb6 <g_3910+0x2c4a>
   1dd46:	48 89 cf             	mov    %rcx,%rdi
   1dd49:	e8 a5 e9 fe ff       	callq  c6f3 <transparent_crc>
   1dd4e:	0f b6 05 13 7c 00 00 	movzbl 0x7c13(%rip),%eax        # 25968 <g_1612>
   1dd55:	48 0f be c0          	movsbq %al,%rax
   1dd59:	8b 55 fc             	mov    -0x4(%rbp),%edx
   1dd5c:	48 8d 35 5a 3f 00 00 	lea    0x3f5a(%rip),%rsi        # 21cbd <g_3910+0x2c51>
   1dd63:	48 89 c7             	mov    %rax,%rdi
   1dd66:	e8 88 e9 fe ff       	callq  c6f3 <transparent_crc>
   1dd6b:	0f b7 05 f8 7b 00 00 	movzwl 0x7bf8(%rip),%eax        # 2596a <g_1653>
   1dd72:	0f b7 c0             	movzwl %ax,%eax
   1dd75:	8b 55 fc             	mov    -0x4(%rbp),%edx
   1dd78:	48 8d 35 45 3f 00 00 	lea    0x3f45(%rip),%rsi        # 21cc4 <g_3910+0x2c58>
   1dd7f:	48 89 c7             	mov    %rax,%rdi
   1dd82:	e8 6c e9 fe ff       	callq  c6f3 <transparent_crc>
   1dd87:	8b 05 df 7b 00 00    	mov    0x7bdf(%rip),%eax        # 2596c <g_1723>
   1dd8d:	89 c1                	mov    %eax,%ecx
   1dd8f:	8b 45 fc             	mov    -0x4(%rbp),%eax
   1dd92:	89 c2                	mov    %eax,%edx
   1dd94:	48 8d 35 30 3f 00 00 	lea    0x3f30(%rip),%rsi        # 21ccb <g_3910+0x2c5f>
   1dd9b:	48 89 cf             	mov    %rcx,%rdi
   1dd9e:	e8 50 e9 fe ff       	callq  c6f3 <transparent_crc>
   1dda3:	c7 45 f0 00 00 00 00 	movl   $0x0,-0x10(%rbp)
   1ddaa:	eb 46                	jmp    1ddf2 <main+0x683>
   1ddac:	8b 45 f0             	mov    -0x10(%rbp),%eax
   1ddaf:	48 98                	cltq   
   1ddb1:	48 8d 15 b8 7b 00 00 	lea    0x7bb8(%rip),%rdx        # 25970 <g_1811>
   1ddb8:	0f b6 04 10          	movzbl (%rax,%rdx,1),%eax
   1ddbc:	48 0f be c0          	movsbq %al,%rax
   1ddc0:	8b 55 fc             	mov    -0x4(%rbp),%edx
   1ddc3:	48 8d 35 08 3f 00 00 	lea    0x3f08(%rip),%rsi        # 21cd2 <g_3910+0x2c66>
   1ddca:	48 89 c7             	mov    %rax,%rdi
   1ddcd:	e8 21 e9 fe ff       	callq  c6f3 <transparent_crc>
   1ddd2:	83 7d fc 00          	cmpl   $0x0,-0x4(%rbp)
   1ddd6:	74 16                	je     1ddee <main+0x67f>
   1ddd8:	8b 45 f0             	mov    -0x10(%rbp),%eax
   1dddb:	89 c6                	mov    %eax,%esi
   1dddd:	48 8d 3d ca 3d 00 00 	lea    0x3dca(%rip),%rdi        # 21bae <g_3910+0x2b42>
   1dde4:	b8 00 00 00 00       	mov    $0x0,%eax
   1dde9:	e8 92 d2 fe ff       	callq  b080 <printf@plt>
   1ddee:	83 45 f0 01          	addl   $0x1,-0x10(%rbp)
   1ddf2:	83 7d f0 02          	cmpl   $0x2,-0x10(%rbp)
   1ddf6:	7e b4                	jle    1ddac <main+0x63d>
   1ddf8:	8b 05 76 7b 00 00    	mov    0x7b76(%rip),%eax        # 25974 <g_1997>
   1ddfe:	48 98                	cltq   
   1de00:	8b 55 fc             	mov    -0x4(%rbp),%edx
   1de03:	48 8d 35 d2 3e 00 00 	lea    0x3ed2(%rip),%rsi        # 21cdc <g_3910+0x2c70>
   1de0a:	48 89 c7             	mov    %rax,%rdi
   1de0d:	e8 e1 e8 fe ff       	callq  c6f3 <transparent_crc>
   1de12:	0f b7 05 5f 7b 00 00 	movzwl 0x7b5f(%rip),%eax        # 25978 <g_2075>
   1de19:	0f b7 c0             	movzwl %ax,%eax
   1de1c:	8b 55 fc             	mov    -0x4(%rbp),%edx
   1de1f:	48 8d 35 bd 3e 00 00 	lea    0x3ebd(%rip),%rsi        # 21ce3 <g_3910+0x2c77>
   1de26:	48 89 c7             	mov    %rax,%rdi
   1de29:	e8 c5 e8 fe ff       	callq  c6f3 <transparent_crc>
   1de2e:	8b 05 48 7b 00 00    	mov    0x7b48(%rip),%eax        # 2597c <g_2099>
   1de34:	48 98                	cltq   
   1de36:	8b 55 fc             	mov    -0x4(%rbp),%edx
   1de39:	48 8d 35 aa 3e 00 00 	lea    0x3eaa(%rip),%rsi        # 21cea <g_3910+0x2c7e>
   1de40:	48 89 c7             	mov    %rax,%rdi
   1de43:	e8 ab e8 fe ff       	callq  c6f3 <transparent_crc>
   1de48:	8b 05 32 7b 00 00    	mov    0x7b32(%rip),%eax        # 25980 <g_2154>
   1de4e:	89 c1                	mov    %eax,%ecx
   1de50:	8b 45 fc             	mov    -0x4(%rbp),%eax
   1de53:	89 c2                	mov    %eax,%edx
   1de55:	48 8d 35 95 3e 00 00 	lea    0x3e95(%rip),%rsi        # 21cf1 <g_3910+0x2c85>
   1de5c:	48 89 cf             	mov    %rcx,%rdi
   1de5f:	e8 8f e8 fe ff       	callq  c6f3 <transparent_crc>
   1de64:	8b 05 1a 7b 00 00    	mov    0x7b1a(%rip),%eax        # 25984 <g_2205>
   1de6a:	48 98                	cltq   
   1de6c:	8b 55 fc             	mov    -0x4(%rbp),%edx
   1de6f:	48 8d 35 82 3e 00 00 	lea    0x3e82(%rip),%rsi        # 21cf8 <g_3910+0x2c8c>
   1de76:	48 89 c7             	mov    %rax,%rdi
   1de79:	e8 75 e8 fe ff       	callq  c6f3 <transparent_crc>
   1de7e:	c7 45 f0 00 00 00 00 	movl   $0x0,-0x10(%rbp)
   1de85:	eb 4d                	jmp    1ded4 <main+0x765>
   1de87:	8b 45 f0             	mov    -0x10(%rbp),%eax
   1de8a:	48 98                	cltq   
   1de8c:	48 8d 14 85 00 00 00 	lea    0x0(,%rax,4),%rdx
   1de93:	00 
   1de94:	48 8d 05 a5 cf 00 00 	lea    0xcfa5(%rip),%rax        # 2ae40 <g_2234>
   1de9b:	8b 04 02             	mov    (%rdx,%rax,1),%eax
   1de9e:	89 c1                	mov    %eax,%ecx
   1dea0:	8b 45 fc             	mov    -0x4(%rbp),%eax
   1dea3:	89 c2                	mov    %eax,%edx
   1dea5:	48 8d 35 53 3e 00 00 	lea    0x3e53(%rip),%rsi        # 21cff <g_3910+0x2c93>
   1deac:	48 89 cf             	mov    %rcx,%rdi
   1deaf:	e8 3f e8 fe ff       	callq  c6f3 <transparent_crc>
   1deb4:	83 7d fc 00          	cmpl   $0x0,-0x4(%rbp)
   1deb8:	74 16                	je     1ded0 <main+0x761>
   1deba:	8b 45 f0             	mov    -0x10(%rbp),%eax
   1debd:	89 c6                	mov    %eax,%esi
   1debf:	48 8d 3d e8 3c 00 00 	lea    0x3ce8(%rip),%rdi        # 21bae <g_3910+0x2b42>
   1dec6:	b8 00 00 00 00       	mov    $0x0,%eax
   1decb:	e8 b0 d1 fe ff       	callq  b080 <printf@plt>
   1ded0:	83 45 f0 01          	addl   $0x1,-0x10(%rbp)
   1ded4:	83 7d f0 00          	cmpl   $0x0,-0x10(%rbp)
   1ded8:	7e ad                	jle    1de87 <main+0x718>
   1deda:	0f b7 05 b7 cf 00 00 	movzwl 0xcfb7(%rip),%eax        # 2ae98 <g_2511>
   1dee1:	48 0f bf c0          	movswq %ax,%rax
   1dee5:	8b 55 fc             	mov    -0x4(%rbp),%edx
   1dee8:	48 8d 35 1a 3e 00 00 	lea    0x3e1a(%rip),%rsi        # 21d09 <g_3910+0x2c9d>
   1deef:	48 89 c7             	mov    %rax,%rdi
   1def2:	e8 fc e7 fe ff       	callq  c6f3 <transparent_crc>
   1def7:	48 8b 05 8a 7a 00 00 	mov    0x7a8a(%rip),%rax        # 25988 <g_2538>
   1defe:	8b 55 fc             	mov    -0x4(%rbp),%edx
   1df01:	48 8d 35 08 3e 00 00 	lea    0x3e08(%rip),%rsi        # 21d10 <g_3910+0x2ca4>
   1df08:	48 89 c7             	mov    %rax,%rdi
   1df0b:	e8 e3 e7 fe ff       	callq  c6f3 <transparent_crc>
   1df10:	0f b7 05 79 7a 00 00 	movzwl 0x7a79(%rip),%eax        # 25990 <g_2862>
   1df17:	0f b7 c0             	movzwl %ax,%eax
   1df1a:	8b 55 fc             	mov    -0x4(%rbp),%edx
   1df1d:	48 8d 35 f3 3d 00 00 	lea    0x3df3(%rip),%rsi        # 21d17 <g_3910+0x2cab>
   1df24:	48 89 c7             	mov    %rax,%rdi
   1df27:	e8 c7 e7 fe ff       	callq  c6f3 <transparent_crc>
   1df2c:	0f b6 05 dd cf 00 00 	movzbl 0xcfdd(%rip),%eax        # 2af10 <g_2916>
   1df33:	0f b6 c0             	movzbl %al,%eax
   1df36:	8b 55 fc             	mov    -0x4(%rbp),%edx
   1df39:	48 8d 35 de 3d 00 00 	lea    0x3dde(%rip),%rsi        # 21d1e <g_3910+0x2cb2>
   1df40:	48 89 c7             	mov    %rax,%rdi
   1df43:	e8 ab e7 fe ff       	callq  c6f3 <transparent_crc>
   1df48:	c7 45 f0 00 00 00 00 	movl   $0x0,-0x10(%rbp)
   1df4f:	eb 6f                	jmp    1dfc0 <main+0x851>
   1df51:	c7 45 f4 00 00 00 00 	movl   $0x0,-0xc(%rbp)
   1df58:	eb 5c                	jmp    1dfb6 <main+0x847>
   1df5a:	8b 45 f4             	mov    -0xc(%rbp),%eax
   1df5d:	48 98                	cltq   
   1df5f:	8b 55 f0             	mov    -0x10(%rbp),%edx
   1df62:	48 63 d2             	movslq %edx,%rdx
   1df65:	48 01 d2             	add    %rdx,%rdx
   1df68:	48 01 d0             	add    %rdx,%rax
   1df6b:	48 8d 14 85 00 00 00 	lea    0x0(,%rax,4),%rdx
   1df72:	00 
   1df73:	48 8d 05 1e 7a 00 00 	lea    0x7a1e(%rip),%rax        # 25998 <g_2991>
   1df7a:	8b 04 02             	mov    (%rdx,%rax,1),%eax
   1df7d:	89 c1                	mov    %eax,%ecx
   1df7f:	8b 45 fc             	mov    -0x4(%rbp),%eax
   1df82:	89 c2                	mov    %eax,%edx
   1df84:	48 8d 35 9a 3d 00 00 	lea    0x3d9a(%rip),%rsi        # 21d25 <g_3910+0x2cb9>
   1df8b:	48 89 cf             	mov    %rcx,%rdi
   1df8e:	e8 60 e7 fe ff       	callq  c6f3 <transparent_crc>
   1df93:	83 7d fc 00          	cmpl   $0x0,-0x4(%rbp)
   1df97:	74 19                	je     1dfb2 <main+0x843>
   1df99:	8b 55 f4             	mov    -0xc(%rbp),%edx
   1df9c:	8b 45 f0             	mov    -0x10(%rbp),%eax
   1df9f:	89 c6                	mov    %eax,%esi
   1dfa1:	48 8d 3d 65 3c 00 00 	lea    0x3c65(%rip),%rdi        # 21c0d <g_3910+0x2ba1>
   1dfa8:	b8 00 00 00 00       	mov    $0x0,%eax
   1dfad:	e8 ce d0 fe ff       	callq  b080 <printf@plt>
   1dfb2:	83 45 f4 01          	addl   $0x1,-0xc(%rbp)
   1dfb6:	83 7d f4 01          	cmpl   $0x1,-0xc(%rbp)
   1dfba:	7e 9e                	jle    1df5a <main+0x7eb>
   1dfbc:	83 45 f0 01          	addl   $0x1,-0x10(%rbp)
   1dfc0:	83 7d f0 00          	cmpl   $0x0,-0x10(%rbp)
   1dfc4:	7e 8b                	jle    1df51 <main+0x7e2>
   1dfc6:	c7 45 f0 00 00 00 00 	movl   $0x0,-0x10(%rbp)
   1dfcd:	eb 4d                	jmp    1e01c <main+0x8ad>
   1dfcf:	8b 45 f0             	mov    -0x10(%rbp),%eax
   1dfd2:	48 98                	cltq   
   1dfd4:	48 8d 14 85 00 00 00 	lea    0x0(,%rax,4),%rdx
   1dfdb:	00 
   1dfdc:	48 8d 05 bd 79 00 00 	lea    0x79bd(%rip),%rax        # 259a0 <g_3130>
   1dfe3:	8b 04 02             	mov    (%rdx,%rax,1),%eax
   1dfe6:	89 c1                	mov    %eax,%ecx
   1dfe8:	8b 45 fc             	mov    -0x4(%rbp),%eax
   1dfeb:	89 c2                	mov    %eax,%edx
   1dfed:	48 8d 35 3e 3d 00 00 	lea    0x3d3e(%rip),%rsi        # 21d32 <g_3910+0x2cc6>
   1dff4:	48 89 cf             	mov    %rcx,%rdi
   1dff7:	e8 f7 e6 fe ff       	callq  c6f3 <transparent_crc>
   1dffc:	83 7d fc 00          	cmpl   $0x0,-0x4(%rbp)
   1e000:	74 16                	je     1e018 <main+0x8a9>
   1e002:	8b 45 f0             	mov    -0x10(%rbp),%eax
   1e005:	89 c6                	mov    %eax,%esi
   1e007:	48 8d 3d a0 3b 00 00 	lea    0x3ba0(%rip),%rdi        # 21bae <g_3910+0x2b42>
   1e00e:	b8 00 00 00 00       	mov    $0x0,%eax
   1e013:	e8 68 d0 fe ff       	callq  b080 <printf@plt>
   1e018:	83 45 f0 01          	addl   $0x1,-0x10(%rbp)
   1e01c:	83 7d f0 07          	cmpl   $0x7,-0x10(%rbp)
   1e020:	7e ad                	jle    1dfcf <main+0x860>
   1e022:	0f b6 05 97 79 00 00 	movzbl 0x7997(%rip),%eax        # 259c0 <g_3240>
   1e029:	0f b6 c0             	movzbl %al,%eax
   1e02c:	8b 55 fc             	mov    -0x4(%rbp),%edx
   1e02f:	48 8d 35 06 3d 00 00 	lea    0x3d06(%rip),%rsi        # 21d3c <g_3910+0x2cd0>
   1e036:	48 89 c7             	mov    %rax,%rdi
   1e039:	e8 b5 e6 fe ff       	callq  c6f3 <transparent_crc>
   1e03e:	c7 45 f0 00 00 00 00 	movl   $0x0,-0x10(%rbp)
   1e045:	eb 79                	jmp    1e0c0 <main+0x951>
   1e047:	c7 45 f4 00 00 00 00 	movl   $0x0,-0xc(%rbp)
   1e04e:	eb 66                	jmp    1e0b6 <main+0x947>
   1e050:	8b 45 f4             	mov    -0xc(%rbp),%eax
   1e053:	48 63 c8             	movslq %eax,%rcx
   1e056:	8b 45 f0             	mov    -0x10(%rbp),%eax
   1e059:	48 63 d0             	movslq %eax,%rdx
   1e05c:	48 89 d0             	mov    %rdx,%rax
   1e05f:	48 c1 e0 03          	shl    $0x3,%rax
   1e063:	48 29 d0             	sub    %rdx,%rax
   1e066:	48 01 c8             	add    %rcx,%rax
   1e069:	48 8d 14 c5 00 00 00 	lea    0x0(,%rax,8),%rdx
   1e070:	00 
   1e071:	48 8d 05 68 79 00 00 	lea    0x7968(%rip),%rax        # 259e0 <g_3367>
   1e078:	48 8b 04 02          	mov    (%rdx,%rax,1),%rax
   1e07c:	48 89 c1             	mov    %rax,%rcx
   1e07f:	8b 45 fc             	mov    -0x4(%rbp),%eax
   1e082:	89 c2                	mov    %eax,%edx
   1e084:	48 8d 35 b8 3c 00 00 	lea    0x3cb8(%rip),%rsi        # 21d43 <g_3910+0x2cd7>
   1e08b:	48 89 cf             	mov    %rcx,%rdi
   1e08e:	e8 60 e6 fe ff       	callq  c6f3 <transparent_crc>
   1e093:	83 7d fc 00          	cmpl   $0x0,-0x4(%rbp)
   1e097:	74 19                	je     1e0b2 <main+0x943>
   1e099:	8b 55 f4             	mov    -0xc(%rbp),%edx
   1e09c:	8b 45 f0             	mov    -0x10(%rbp),%eax
   1e09f:	89 c6                	mov    %eax,%esi
   1e0a1:	48 8d 3d 65 3b 00 00 	lea    0x3b65(%rip),%rdi        # 21c0d <g_3910+0x2ba1>
   1e0a8:	b8 00 00 00 00       	mov    $0x0,%eax
   1e0ad:	e8 ce cf fe ff       	callq  b080 <printf@plt>
   1e0b2:	83 45 f4 01          	addl   $0x1,-0xc(%rbp)
   1e0b6:	83 7d f4 06          	cmpl   $0x6,-0xc(%rbp)
   1e0ba:	7e 94                	jle    1e050 <main+0x8e1>
   1e0bc:	83 45 f0 01          	addl   $0x1,-0x10(%rbp)
   1e0c0:	83 7d f0 07          	cmpl   $0x7,-0x10(%rbp)
   1e0c4:	7e 81                	jle    1e047 <main+0x8d8>
   1e0c6:	0f b6 05 d3 7a 00 00 	movzbl 0x7ad3(%rip),%eax        # 25ba0 <g_3561>
   1e0cd:	0f b6 c0             	movzbl %al,%eax
   1e0d0:	8b 55 fc             	mov    -0x4(%rbp),%edx
   1e0d3:	48 8d 35 76 3c 00 00 	lea    0x3c76(%rip),%rsi        # 21d50 <g_3910+0x2ce4>
   1e0da:	48 89 c7             	mov    %rax,%rdi
   1e0dd:	e8 11 e6 fe ff       	callq  c6f3 <transparent_crc>
   1e0e2:	48 8b 05 bf 7a 00 00 	mov    0x7abf(%rip),%rax        # 25ba8 <g_3611>
   1e0e9:	8b 55 fc             	mov    -0x4(%rbp),%edx
   1e0ec:	48 8d 35 64 3c 00 00 	lea    0x3c64(%rip),%rsi        # 21d57 <g_3910+0x2ceb>
   1e0f3:	48 89 c7             	mov    %rax,%rdi
   1e0f6:	e8 f8 e5 fe ff       	callq  c6f3 <transparent_crc>
   1e0fb:	8b 05 af 7a 00 00    	mov    0x7aaf(%rip),%eax        # 25bb0 <g_3657>
   1e101:	89 c1                	mov    %eax,%ecx
   1e103:	8b 45 fc             	mov    -0x4(%rbp),%eax
   1e106:	89 c2                	mov    %eax,%edx
   1e108:	48 8d 35 4f 3c 00 00 	lea    0x3c4f(%rip),%rsi        # 21d5e <g_3910+0x2cf2>
   1e10f:	48 89 cf             	mov    %rcx,%rdi
   1e112:	e8 dc e5 fe ff       	callq  c6f3 <transparent_crc>
   1e117:	0f b6 05 96 7a 00 00 	movzbl 0x7a96(%rip),%eax        # 25bb4 <g_3801>
   1e11e:	0f b6 c0             	movzbl %al,%eax
   1e121:	8b 55 fc             	mov    -0x4(%rbp),%edx
   1e124:	48 8d 35 3a 3c 00 00 	lea    0x3c3a(%rip),%rsi        # 21d65 <g_3910+0x2cf9>
   1e12b:	48 89 c7             	mov    %rax,%rdi
   1e12e:	e8 c0 e5 fe ff       	callq  c6f3 <transparent_crc>
   1e133:	b8 db 2e bd 3e       	mov    $0x3ebd2edb,%eax
   1e138:	89 c1                	mov    %eax,%ecx
   1e13a:	8b 45 fc             	mov    -0x4(%rbp),%eax
   1e13d:	89 c2                	mov    %eax,%edx
   1e13f:	48 8d 35 26 3c 00 00 	lea    0x3c26(%rip),%rsi        # 21d6c <g_3910+0x2d00>
   1e146:	48 89 cf             	mov    %rcx,%rdi
   1e149:	e8 a5 e5 fe ff       	callq  c6f3 <transparent_crc>
   1e14e:	8b 05 64 7a 00 00    	mov    0x7a64(%rip),%eax        # 25bb8 <g_3972>
   1e154:	89 c1                	mov    %eax,%ecx
   1e156:	8b 45 fc             	mov    -0x4(%rbp),%eax
   1e159:	89 c2                	mov    %eax,%edx
   1e15b:	48 8d 35 11 3c 00 00 	lea    0x3c11(%rip),%rsi        # 21d73 <g_3910+0x2d07>
   1e162:	48 89 cf             	mov    %rcx,%rdi
   1e165:	e8 89 e5 fe ff       	callq  c6f3 <transparent_crc>
   1e16a:	48 8b 05 27 ce 00 00 	mov    0xce27(%rip),%rax        # 2af98 <g_4159>
   1e171:	8b 55 fc             	mov    -0x4(%rbp),%edx
   1e174:	48 8d 35 ff 3b 00 00 	lea    0x3bff(%rip),%rsi        # 21d7a <g_3910+0x2d0e>
   1e17b:	48 89 c7             	mov    %rax,%rdi
   1e17e:	e8 70 e5 fe ff       	callq  c6f3 <transparent_crc>
   1e183:	8b 05 33 7a 00 00    	mov    0x7a33(%rip),%eax        # 25bbc <g_4346>
   1e189:	89 c1                	mov    %eax,%ecx
   1e18b:	8b 45 fc             	mov    -0x4(%rbp),%eax
   1e18e:	89 c2                	mov    %eax,%edx
   1e190:	48 8d 35 ea 3b 00 00 	lea    0x3bea(%rip),%rsi        # 21d81 <g_3910+0x2d15>
   1e197:	48 89 cf             	mov    %rcx,%rdi
   1e19a:	e8 54 e5 fe ff       	callq  c6f3 <transparent_crc>
   1e19f:	0f b7 05 1a 7a 00 00 	movzwl 0x7a1a(%rip),%eax        # 25bc0 <g_4397>
   1e1a6:	0f b7 c0             	movzwl %ax,%eax
   1e1a9:	8b 55 fc             	mov    -0x4(%rbp),%edx
   1e1ac:	48 8d 35 d5 3b 00 00 	lea    0x3bd5(%rip),%rsi        # 21d88 <g_3910+0x2d1c>
   1e1b3:	48 89 c7             	mov    %rax,%rdi
   1e1b6:	e8 38 e5 fe ff       	callq  c6f3 <transparent_crc>
   1e1bb:	0f b6 05 00 7a 00 00 	movzbl 0x7a00(%rip),%eax        # 25bc2 <g_4408>
   1e1c2:	48 0f be c0          	movsbq %al,%rax
   1e1c6:	8b 55 fc             	mov    -0x4(%rbp),%edx
   1e1c9:	48 8d 35 bf 3b 00 00 	lea    0x3bbf(%rip),%rsi        # 21d8f <g_3910+0x2d23>
   1e1d0:	48 89 c7             	mov    %rax,%rdi
   1e1d3:	e8 1b e5 fe ff       	callq  c6f3 <transparent_crc>
   1e1d8:	c7 45 f0 00 00 00 00 	movl   $0x0,-0x10(%rbp)
   1e1df:	eb 76                	jmp    1e257 <main+0xae8>
   1e1e1:	c7 45 f4 00 00 00 00 	movl   $0x0,-0xc(%rbp)
   1e1e8:	eb 63                	jmp    1e24d <main+0xade>
   1e1ea:	8b 45 f4             	mov    -0xc(%rbp),%eax
   1e1ed:	48 63 c8             	movslq %eax,%rcx
   1e1f0:	8b 45 f0             	mov    -0x10(%rbp),%eax
   1e1f3:	48 63 d0             	movslq %eax,%rdx
   1e1f6:	48 89 d0             	mov    %rdx,%rax
   1e1f9:	48 01 c0             	add    %rax,%rax
   1e1fc:	48 01 d0             	add    %rdx,%rax
   1e1ff:	48 01 c0             	add    %rax,%rax
   1e202:	48 01 c8             	add    %rcx,%rax
   1e205:	48 8d 14 00          	lea    (%rax,%rax,1),%rdx
   1e209:	48 8d 05 d0 79 00 00 	lea    0x79d0(%rip),%rax        # 25be0 <g_4436>
   1e210:	0f b7 04 02          	movzwl (%rdx,%rax,1),%eax
   1e214:	48 0f bf c0          	movswq %ax,%rax
   1e218:	8b 55 fc             	mov    -0x4(%rbp),%edx
   1e21b:	48 8d 35 74 3b 00 00 	lea    0x3b74(%rip),%rsi        # 21d96 <g_3910+0x2d2a>
   1e222:	48 89 c7             	mov    %rax,%rdi
   1e225:	e8 c9 e4 fe ff       	callq  c6f3 <transparent_crc>
   1e22a:	83 7d fc 00          	cmpl   $0x0,-0x4(%rbp)
   1e22e:	74 19                	je     1e249 <main+0xada>
   1e230:	8b 55 f4             	mov    -0xc(%rbp),%edx
   1e233:	8b 45 f0             	mov    -0x10(%rbp),%eax
   1e236:	89 c6                	mov    %eax,%esi
   1e238:	48 8d 3d ce 39 00 00 	lea    0x39ce(%rip),%rdi        # 21c0d <g_3910+0x2ba1>
   1e23f:	b8 00 00 00 00       	mov    $0x0,%eax
   1e244:	e8 37 ce fe ff       	callq  b080 <printf@plt>
   1e249:	83 45 f4 01          	addl   $0x1,-0xc(%rbp)
   1e24d:	83 7d f4 05          	cmpl   $0x5,-0xc(%rbp)
   1e251:	7e 97                	jle    1e1ea <main+0xa7b>
   1e253:	83 45 f0 01          	addl   $0x1,-0x10(%rbp)
   1e257:	83 7d f0 08          	cmpl   $0x8,-0x10(%rbp)
   1e25b:	7e 84                	jle    1e1e1 <main+0xa72>
   1e25d:	c7 45 f0 00 00 00 00 	movl   $0x0,-0x10(%rbp)
   1e264:	e9 b6 00 00 00       	jmpq   1e31f <main+0xbb0>
   1e269:	c7 45 f4 00 00 00 00 	movl   $0x0,-0xc(%rbp)
   1e270:	e9 9c 00 00 00       	jmpq   1e311 <main+0xba2>
   1e275:	c7 45 f8 00 00 00 00 	movl   $0x0,-0x8(%rbp)
   1e27c:	e9 82 00 00 00       	jmpq   1e303 <main+0xb94>
   1e281:	8b 45 f8             	mov    -0x8(%rbp),%eax
   1e284:	48 63 f0             	movslq %eax,%rsi
   1e287:	8b 45 f0             	mov    -0x10(%rbp),%eax
   1e28a:	48 63 d0             	movslq %eax,%rdx
   1e28d:	8b 45 f4             	mov    -0xc(%rbp),%eax
   1e290:	48 63 c8             	movslq %eax,%rcx
   1e293:	48 89 d0             	mov    %rdx,%rax
   1e296:	48 c1 e0 03          	shl    $0x3,%rax
   1e29a:	48 01 d0             	add    %rdx,%rax
   1e29d:	48 8d 14 c5 00 00 00 	lea    0x0(,%rax,8),%rdx
   1e2a4:	00 
   1e2a5:	48 01 d0             	add    %rdx,%rax
   1e2a8:	48 89 ca             	mov    %rcx,%rdx
   1e2ab:	48 c1 e2 03          	shl    $0x3,%rdx
   1e2af:	48 01 ca             	add    %rcx,%rdx
   1e2b2:	48 01 d0             	add    %rdx,%rax
   1e2b5:	48 01 f0             	add    %rsi,%rax
   1e2b8:	48 8d 14 c5 00 00 00 	lea    0x0(,%rax,8),%rdx
   1e2bf:	00 
   1e2c0:	48 8d 05 99 79 00 00 	lea    0x7999(%rip),%rax        # 25c60 <g_4486>
   1e2c7:	48 8b 04 02          	mov    (%rdx,%rax,1),%rax
   1e2cb:	8b 55 fc             	mov    -0x4(%rbp),%edx
   1e2ce:	48 8d 35 ce 3a 00 00 	lea    0x3ace(%rip),%rsi        # 21da3 <g_3910+0x2d37>
   1e2d5:	48 89 c7             	mov    %rax,%rdi
   1e2d8:	e8 16 e4 fe ff       	callq  c6f3 <transparent_crc>
   1e2dd:	83 7d fc 00          	cmpl   $0x0,-0x4(%rbp)
   1e2e1:	74 1c                	je     1e2ff <main+0xb90>
   1e2e3:	8b 4d f8             	mov    -0x8(%rbp),%ecx
   1e2e6:	8b 55 f4             	mov    -0xc(%rbp),%edx
   1e2e9:	8b 45 f0             	mov    -0x10(%rbp),%eax
   1e2ec:	89 c6                	mov    %eax,%esi
   1e2ee:	48 8d 3d a4 39 00 00 	lea    0x39a4(%rip),%rdi        # 21c99 <g_3910+0x2c2d>
   1e2f5:	b8 00 00 00 00       	mov    $0x0,%eax
   1e2fa:	e8 81 cd fe ff       	callq  b080 <printf@plt>
   1e2ff:	83 45 f8 01          	addl   $0x1,-0x8(%rbp)
   1e303:	83 7d f8 08          	cmpl   $0x8,-0x8(%rbp)
   1e307:	0f 8e 74 ff ff ff    	jle    1e281 <main+0xb12>
   1e30d:	83 45 f4 01          	addl   $0x1,-0xc(%rbp)
   1e311:	83 7d f4 08          	cmpl   $0x8,-0xc(%rbp)
   1e315:	0f 8e 5a ff ff ff    	jle    1e275 <main+0xb06>
   1e31b:	83 45 f0 01          	addl   $0x1,-0x10(%rbp)
   1e31f:	83 7d f0 02          	cmpl   $0x2,-0x10(%rbp)
   1e323:	0f 8e 40 ff ff ff    	jle    1e269 <main+0xafa>
   1e329:	c7 45 f0 00 00 00 00 	movl   $0x0,-0x10(%rbp)
   1e330:	eb 4d                	jmp    1e37f <main+0xc10>
   1e332:	8b 45 f0             	mov    -0x10(%rbp),%eax
   1e335:	48 98                	cltq   
   1e337:	48 8d 14 85 00 00 00 	lea    0x0(,%rax,4),%rdx
   1e33e:	00 
   1e33f:	48 8d 05 ba 80 00 00 	lea    0x80ba(%rip),%rax        # 26400 <g_4523>
   1e346:	8b 04 02             	mov    (%rdx,%rax,1),%eax
   1e349:	89 c1                	mov    %eax,%ecx
   1e34b:	8b 45 fc             	mov    -0x4(%rbp),%eax
   1e34e:	89 c2                	mov    %eax,%edx
   1e350:	48 8d 35 5c 3a 00 00 	lea    0x3a5c(%rip),%rsi        # 21db3 <g_3910+0x2d47>
   1e357:	48 89 cf             	mov    %rcx,%rdi
   1e35a:	e8 94 e3 fe ff       	callq  c6f3 <transparent_crc>
   1e35f:	83 7d fc 00          	cmpl   $0x0,-0x4(%rbp)
   1e363:	74 16                	je     1e37b <main+0xc0c>
   1e365:	8b 45 f0             	mov    -0x10(%rbp),%eax
   1e368:	89 c6                	mov    %eax,%esi
   1e36a:	48 8d 3d 3d 38 00 00 	lea    0x383d(%rip),%rdi        # 21bae <g_3910+0x2b42>
   1e371:	b8 00 00 00 00       	mov    $0x0,%eax
   1e376:	e8 05 cd fe ff       	callq  b080 <printf@plt>
   1e37b:	83 45 f0 01          	addl   $0x1,-0x10(%rbp)
   1e37f:	83 7d f0 03          	cmpl   $0x3,-0x10(%rbp)
   1e383:	7e ad                	jle    1e332 <main+0xbc3>
   1e385:	8b 05 95 6c 00 00    	mov    0x6c95(%rip),%eax        # 25020 <crc32_context>
   1e38b:	f7 d0                	not    %eax
   1e38d:	89 c2                	mov    %eax,%edx
   1e38f:	8b 45 fc             	mov    -0x4(%rbp),%eax
   1e392:	89 c6                	mov    %eax,%esi
   1e394:	89 d7                	mov    %edx,%edi
   1e396:	e8 f9 cd fe ff       	callq  b194 <platform_main_end>
   1e39b:	b8 00 00 00 00       	mov    $0x0,%eax
   1e3a0:	c9                   	leaveq 
   1e3a1:	c3                   	retq   
   1e3a2:	66 2e 0f 1f 84 00 00 	nopw   %cs:0x0(%rax,%rax,1)
   1e3a9:	00 00 00 
   1e3ac:	0f 1f 40 00          	nopl   0x0(%rax)

000000000001e3b0 <__libc_csu_init>:
   1e3b0:	f3 0f 1e fa          	endbr64 
   1e3b4:	41 57                	push   %r15
   1e3b6:	4c 8d 3d e3 69 00 00 	lea    0x69e3(%rip),%r15        # 24da0 <__frame_dummy_init_array_entry>
   1e3bd:	41 56                	push   %r14
   1e3bf:	49 89 d6             	mov    %rdx,%r14
   1e3c2:	41 55                	push   %r13
   1e3c4:	49 89 f5             	mov    %rsi,%r13
   1e3c7:	41 54                	push   %r12
   1e3c9:	41 89 fc             	mov    %edi,%r12d
   1e3cc:	55                   	push   %rbp
   1e3cd:	48 8d 2d d4 69 00 00 	lea    0x69d4(%rip),%rbp        # 24da8 <__do_global_dtors_aux_fini_array_entry>
   1e3d4:	53                   	push   %rbx
   1e3d5:	4c 29 fd             	sub    %r15,%rbp
   1e3d8:	48 83 ec 08          	sub    $0x8,%rsp
   1e3dc:	e8 1f cc fe ff       	callq  b000 <_init>
   1e3e1:	48 c1 fd 03          	sar    $0x3,%rbp
   1e3e5:	74 1f                	je     1e406 <__libc_csu_init+0x56>
   1e3e7:	31 db                	xor    %ebx,%ebx
   1e3e9:	0f 1f 80 00 00 00 00 	nopl   0x0(%rax)
   1e3f0:	4c 89 f2             	mov    %r14,%rdx
   1e3f3:	4c 89 ee             	mov    %r13,%rsi
   1e3f6:	44 89 e7             	mov    %r12d,%edi
   1e3f9:	41 ff 14 df          	callq  *(%r15,%rbx,8)
   1e3fd:	48 83 c3 01          	add    $0x1,%rbx
   1e401:	48 39 dd             	cmp    %rbx,%rbp
   1e404:	75 ea                	jne    1e3f0 <__libc_csu_init+0x40>
   1e406:	48 83 c4 08          	add    $0x8,%rsp
   1e40a:	5b                   	pop    %rbx
   1e40b:	5d                   	pop    %rbp
   1e40c:	41 5c                	pop    %r12
   1e40e:	41 5d                	pop    %r13
   1e410:	41 5e                	pop    %r14
   1e412:	41 5f                	pop    %r15
   1e414:	c3                   	retq   
   1e415:	66 66 2e 0f 1f 84 00 	data16 nopw %cs:0x0(%rax,%rax,1)
   1e41c:	00 00 00 00 

000000000001e420 <__libc_csu_fini>:
   1e420:	f3 0f 1e fa          	endbr64 
   1e424:	c3                   	retq   
