


Disassembly of section .text:

00000000000050a0 <_start>:
    50a0:	f3 0f 1e fa          	endbr64 
    50a4:	31 ed                	xor    %ebp,%ebp
    50a6:	49 89 d1             	mov    %rdx,%r9
    50a9:	5e                   	pop    %rsi
    50aa:	48 89 e2             	mov    %rsp,%rdx
    50ad:	48 83 e4 f0          	and    $0xfffffffffffffff0,%rsp
    50b1:	50                   	push   %rax
    50b2:	54                   	push   %rsp
    50b3:	4c 8d 05 16 b0 00 00 	lea    0xb016(%rip),%r8        # 100d0 <__libc_csu_fini>
    50ba:	48 8d 0d 9f af 00 00 	lea    0xaf9f(%rip),%rcx        # 10060 <__libc_csu_init>
    50c1:	48 8d 3d 83 a6 00 00 	lea    0xa683(%rip),%rdi        # f74b <main>
    50c8:	ff 15 0a ff 00 00    	callq  *0xff0a(%rip)        # 14fd8 <__libc_start_main@GLIBC_2.2.5>
    50ce:	f4                   	hlt    
    50cf:	90                   	nop

00000000000050d0 <deregister_tm_clones>:
    50d0:	48 8d 3d f1 17 01 00 	lea    0x117f1(%rip),%rdi        # 168c8 <__TMC_END__>
    50d7:	48 8d 05 ea 17 01 00 	lea    0x117ea(%rip),%rax        # 168c8 <__TMC_END__>
    50de:	48 39 f8             	cmp    %rdi,%rax
    50e1:	74 15                	je     50f8 <deregister_tm_clones+0x28>
    50e3:	48 8b 05 e6 fe 00 00 	mov    0xfee6(%rip),%rax        # 14fd0 <_ITM_deregisterTMCloneTable>
    50ea:	48 85 c0             	test   %rax,%rax
    50ed:	74 09                	je     50f8 <deregister_tm_clones+0x28>
    50ef:	ff e0                	jmpq   *%rax
    50f1:	0f 1f 80 00 00 00 00 	nopl   0x0(%rax)
    50f8:	c3                   	retq   
    50f9:	0f 1f 80 00 00 00 00 	nopl   0x0(%rax)

0000000000005100 <register_tm_clones>:
    5100:	48 8d 3d c1 17 01 00 	lea    0x117c1(%rip),%rdi        # 168c8 <__TMC_END__>
    5107:	48 8d 35 ba 17 01 00 	lea    0x117ba(%rip),%rsi        # 168c8 <__TMC_END__>
    510e:	48 29 fe             	sub    %rdi,%rsi
    5111:	48 89 f0             	mov    %rsi,%rax
    5114:	48 c1 ee 3f          	shr    $0x3f,%rsi
    5118:	48 c1 f8 03          	sar    $0x3,%rax
    511c:	48 01 c6             	add    %rax,%rsi
    511f:	48 d1 fe             	sar    %rsi
    5122:	74 14                	je     5138 <register_tm_clones+0x38>
    5124:	48 8b 05 bd fe 00 00 	mov    0xfebd(%rip),%rax        # 14fe8 <_ITM_registerTMCloneTable>
    512b:	48 85 c0             	test   %rax,%rax
    512e:	74 08                	je     5138 <register_tm_clones+0x38>
    5130:	ff e0                	jmpq   *%rax
    5132:	66 0f 1f 44 00 00    	nopw   0x0(%rax,%rax,1)
    5138:	c3                   	retq   
    5139:	0f 1f 80 00 00 00 00 	nopl   0x0(%rax)

0000000000005140 <__do_global_dtors_aux>:
    5140:	f3 0f 1e fa          	endbr64 
    5144:	80 3d 95 17 01 00 00 	cmpb   $0x0,0x11795(%rip)        # 168e0 <completed.8061>
    514b:	75 2b                	jne    5178 <__do_global_dtors_aux+0x38>
    514d:	55                   	push   %rbp
    514e:	48 83 3d 9a fe 00 00 	cmpq   $0x0,0xfe9a(%rip)        # 14ff0 <__cxa_finalize@GLIBC_2.2.5>
    5155:	00 
    5156:	48 89 e5             	mov    %rsp,%rbp
    5159:	74 0c                	je     5167 <__do_global_dtors_aux+0x27>
    515b:	48 8b 3d a6 fe 00 00 	mov    0xfea6(%rip),%rdi        # 15008 <__dso_handle>
    5162:	e8 f9 fe ff ff       	callq  5060 <__cxa_finalize@plt>
    5167:	e8 64 ff ff ff       	callq  50d0 <deregister_tm_clones>
    516c:	c6 05 6d 17 01 00 01 	movb   $0x1,0x1176d(%rip)        # 168e0 <completed.8061>
    5173:	5d                   	pop    %rbp
    5174:	c3                   	retq   
    5175:	0f 1f 00             	nopl   (%rax)
    5178:	c3                   	retq   
    5179:	0f 1f 80 00 00 00 00 	nopl   0x0(%rax)

0000000000005180 <frame_dummy>:
    5180:	f3 0f 1e fa          	endbr64 
    5184:	e9 77 ff ff ff       	jmpq   5100 <register_tm_clones>

0000000000005189 <platform_main_begin>:
    5189:	f3 0f 1e fa          	endbr64 
    518d:	55                   	push   %rbp
    518e:	48 89 e5             	mov    %rsp,%rbp
    5191:	90                   	nop
    5192:	5d                   	pop    %rbp
    5193:	c3                   	retq   

0000000000005194 <platform_main_end>:
    5194:	f3 0f 1e fa          	endbr64 
    5198:	55                   	push   %rbp
    5199:	48 89 e5             	mov    %rsp,%rbp
    519c:	48 83 ec 10          	sub    $0x10,%rsp
    51a0:	89 7d fc             	mov    %edi,-0x4(%rbp)
    51a3:	89 75 f8             	mov    %esi,-0x8(%rbp)
    51a6:	8b 45 fc             	mov    -0x4(%rbp),%eax
    51a9:	89 c6                	mov    %eax,%esi
    51ab:	48 8d 3d 6e be 00 00 	lea    0xbe6e(%rip),%rdi        # 11020 <_IO_stdin_used+0x20>
    51b2:	b8 00 00 00 00       	mov    $0x0,%eax
    51b7:	e8 c4 fe ff ff       	callq  5080 <printf@plt>
    51bc:	90                   	nop
    51bd:	c9                   	leaveq 
    51be:	c3                   	retq   

00000000000051bf <safe_unary_minus_func_int8_t_s>:
    51bf:	f3 0f 1e fa          	endbr64 
    51c3:	55                   	push   %rbp
    51c4:	48 89 e5             	mov    %rsp,%rbp
    51c7:	89 f8                	mov    %edi,%eax
    51c9:	88 45 fc             	mov    %al,-0x4(%rbp)
    51cc:	0f b6 45 fc          	movzbl -0x4(%rbp),%eax
    51d0:	f7 d8                	neg    %eax
    51d2:	5d                   	pop    %rbp
    51d3:	c3                   	retq   

00000000000051d4 <safe_add_func_int8_t_s_s>:
    51d4:	f3 0f 1e fa          	endbr64 
    51d8:	55                   	push   %rbp
    51d9:	48 89 e5             	mov    %rsp,%rbp
    51dc:	89 fa                	mov    %edi,%edx
    51de:	89 f0                	mov    %esi,%eax
    51e0:	88 55 fc             	mov    %dl,-0x4(%rbp)
    51e3:	88 45 f8             	mov    %al,-0x8(%rbp)
    51e6:	0f b6 55 fc          	movzbl -0x4(%rbp),%edx
    51ea:	0f b6 45 f8          	movzbl -0x8(%rbp),%eax
    51ee:	01 d0                	add    %edx,%eax
    51f0:	5d                   	pop    %rbp
    51f1:	c3                   	retq   

00000000000051f2 <safe_sub_func_int8_t_s_s>:
    51f2:	f3 0f 1e fa          	endbr64 
    51f6:	55                   	push   %rbp
    51f7:	48 89 e5             	mov    %rsp,%rbp
    51fa:	89 fa                	mov    %edi,%edx
    51fc:	89 f0                	mov    %esi,%eax
    51fe:	88 55 fc             	mov    %dl,-0x4(%rbp)
    5201:	88 45 f8             	mov    %al,-0x8(%rbp)
    5204:	0f b6 55 fc          	movzbl -0x4(%rbp),%edx
    5208:	0f b6 45 f8          	movzbl -0x8(%rbp),%eax
    520c:	29 c2                	sub    %eax,%edx
    520e:	89 d0                	mov    %edx,%eax
    5210:	5d                   	pop    %rbp
    5211:	c3                   	retq   

0000000000005212 <safe_mul_func_int8_t_s_s>:
    5212:	f3 0f 1e fa          	endbr64 
    5216:	55                   	push   %rbp
    5217:	48 89 e5             	mov    %rsp,%rbp
    521a:	89 fa                	mov    %edi,%edx
    521c:	89 f0                	mov    %esi,%eax
    521e:	88 55 fc             	mov    %dl,-0x4(%rbp)
    5221:	88 45 f8             	mov    %al,-0x8(%rbp)
    5224:	0f b6 45 fc          	movzbl -0x4(%rbp),%eax
    5228:	0f b6 55 f8          	movzbl -0x8(%rbp),%edx
    522c:	0f af c2             	imul   %edx,%eax
    522f:	5d                   	pop    %rbp
    5230:	c3                   	retq   

0000000000005231 <safe_mod_func_int8_t_s_s>:
    5231:	f3 0f 1e fa          	endbr64 
    5235:	55                   	push   %rbp
    5236:	48 89 e5             	mov    %rsp,%rbp
    5239:	89 fa                	mov    %edi,%edx
    523b:	89 f0                	mov    %esi,%eax
    523d:	88 55 fc             	mov    %dl,-0x4(%rbp)
    5240:	88 45 f8             	mov    %al,-0x8(%rbp)
    5243:	80 7d f8 00          	cmpb   $0x0,-0x8(%rbp)
    5247:	74 1b                	je     5264 <safe_mod_func_int8_t_s_s+0x33>
    5249:	80 7d fc 80          	cmpb   $0x80,-0x4(%rbp)
    524d:	75 06                	jne    5255 <safe_mod_func_int8_t_s_s+0x24>
    524f:	80 7d f8 ff          	cmpb   $0xff,-0x8(%rbp)
    5253:	74 0f                	je     5264 <safe_mod_func_int8_t_s_s+0x33>
    5255:	0f be 45 fc          	movsbl -0x4(%rbp),%eax
    5259:	0f be 4d f8          	movsbl -0x8(%rbp),%ecx
    525d:	99                   	cltd   
    525e:	f7 f9                	idiv   %ecx
    5260:	89 d0                	mov    %edx,%eax
    5262:	eb 04                	jmp    5268 <safe_mod_func_int8_t_s_s+0x37>
    5264:	0f b6 45 fc          	movzbl -0x4(%rbp),%eax
    5268:	5d                   	pop    %rbp
    5269:	c3                   	retq   

000000000000526a <safe_div_func_int8_t_s_s>:
    526a:	f3 0f 1e fa          	endbr64 
    526e:	55                   	push   %rbp
    526f:	48 89 e5             	mov    %rsp,%rbp
    5272:	89 fa                	mov    %edi,%edx
    5274:	89 f0                	mov    %esi,%eax
    5276:	88 55 fc             	mov    %dl,-0x4(%rbp)
    5279:	88 45 f8             	mov    %al,-0x8(%rbp)
    527c:	80 7d f8 00          	cmpb   $0x0,-0x8(%rbp)
    5280:	74 19                	je     529b <safe_div_func_int8_t_s_s+0x31>
    5282:	80 7d fc 80          	cmpb   $0x80,-0x4(%rbp)
    5286:	75 06                	jne    528e <safe_div_func_int8_t_s_s+0x24>
    5288:	80 7d f8 ff          	cmpb   $0xff,-0x8(%rbp)
    528c:	74 0d                	je     529b <safe_div_func_int8_t_s_s+0x31>
    528e:	0f be 45 fc          	movsbl -0x4(%rbp),%eax
    5292:	0f be 4d f8          	movsbl -0x8(%rbp),%ecx
    5296:	99                   	cltd   
    5297:	f7 f9                	idiv   %ecx
    5299:	eb 04                	jmp    529f <safe_div_func_int8_t_s_s+0x35>
    529b:	0f b6 45 fc          	movzbl -0x4(%rbp),%eax
    529f:	5d                   	pop    %rbp
    52a0:	c3                   	retq   

00000000000052a1 <safe_lshift_func_int8_t_s_s>:
    52a1:	f3 0f 1e fa          	endbr64 
    52a5:	55                   	push   %rbp
    52a6:	48 89 e5             	mov    %rsp,%rbp
    52a9:	89 f8                	mov    %edi,%eax
    52ab:	89 75 f8             	mov    %esi,-0x8(%rbp)
    52ae:	88 45 fc             	mov    %al,-0x4(%rbp)
    52b1:	80 7d fc 00          	cmpb   $0x0,-0x4(%rbp)
    52b5:	78 31                	js     52e8 <safe_lshift_func_int8_t_s_s+0x47>
    52b7:	83 7d f8 00          	cmpl   $0x0,-0x8(%rbp)
    52bb:	78 2b                	js     52e8 <safe_lshift_func_int8_t_s_s+0x47>
    52bd:	83 7d f8 1f          	cmpl   $0x1f,-0x8(%rbp)
    52c1:	7f 25                	jg     52e8 <safe_lshift_func_int8_t_s_s+0x47>
    52c3:	0f be 55 fc          	movsbl -0x4(%rbp),%edx
    52c7:	8b 45 f8             	mov    -0x8(%rbp),%eax
    52ca:	be 7f 00 00 00       	mov    $0x7f,%esi
    52cf:	89 c1                	mov    %eax,%ecx
    52d1:	d3 fe                	sar    %cl,%esi
    52d3:	89 f0                	mov    %esi,%eax
    52d5:	39 c2                	cmp    %eax,%edx
    52d7:	7f 0f                	jg     52e8 <safe_lshift_func_int8_t_s_s+0x47>
    52d9:	0f be 55 fc          	movsbl -0x4(%rbp),%edx
    52dd:	8b 45 f8             	mov    -0x8(%rbp),%eax
    52e0:	89 c1                	mov    %eax,%ecx
    52e2:	d3 e2                	shl    %cl,%edx
    52e4:	89 d0                	mov    %edx,%eax
    52e6:	eb 04                	jmp    52ec <safe_lshift_func_int8_t_s_s+0x4b>
    52e8:	0f b6 45 fc          	movzbl -0x4(%rbp),%eax
    52ec:	5d                   	pop    %rbp
    52ed:	c3                   	retq   

00000000000052ee <safe_lshift_func_int8_t_s_u>:
    52ee:	f3 0f 1e fa          	endbr64 
    52f2:	55                   	push   %rbp
    52f3:	48 89 e5             	mov    %rsp,%rbp
    52f6:	89 f8                	mov    %edi,%eax
    52f8:	89 75 f8             	mov    %esi,-0x8(%rbp)
    52fb:	88 45 fc             	mov    %al,-0x4(%rbp)
    52fe:	80 7d fc 00          	cmpb   $0x0,-0x4(%rbp)
    5302:	78 2b                	js     532f <safe_lshift_func_int8_t_s_u+0x41>
    5304:	83 7d f8 1f          	cmpl   $0x1f,-0x8(%rbp)
    5308:	77 25                	ja     532f <safe_lshift_func_int8_t_s_u+0x41>
    530a:	0f be 55 fc          	movsbl -0x4(%rbp),%edx
    530e:	8b 45 f8             	mov    -0x8(%rbp),%eax
    5311:	be 7f 00 00 00       	mov    $0x7f,%esi
    5316:	89 c1                	mov    %eax,%ecx
    5318:	d3 fe                	sar    %cl,%esi
    531a:	89 f0                	mov    %esi,%eax
    531c:	39 c2                	cmp    %eax,%edx
    531e:	7f 0f                	jg     532f <safe_lshift_func_int8_t_s_u+0x41>
    5320:	0f be 55 fc          	movsbl -0x4(%rbp),%edx
    5324:	8b 45 f8             	mov    -0x8(%rbp),%eax
    5327:	89 c1                	mov    %eax,%ecx
    5329:	d3 e2                	shl    %cl,%edx
    532b:	89 d0                	mov    %edx,%eax
    532d:	eb 04                	jmp    5333 <safe_lshift_func_int8_t_s_u+0x45>
    532f:	0f b6 45 fc          	movzbl -0x4(%rbp),%eax
    5333:	5d                   	pop    %rbp
    5334:	c3                   	retq   

0000000000005335 <safe_rshift_func_int8_t_s_s>:
    5335:	f3 0f 1e fa          	endbr64 
    5339:	55                   	push   %rbp
    533a:	48 89 e5             	mov    %rsp,%rbp
    533d:	89 f8                	mov    %edi,%eax
    533f:	89 75 f8             	mov    %esi,-0x8(%rbp)
    5342:	88 45 fc             	mov    %al,-0x4(%rbp)
    5345:	80 7d fc 00          	cmpb   $0x0,-0x4(%rbp)
    5349:	78 1b                	js     5366 <safe_rshift_func_int8_t_s_s+0x31>
    534b:	83 7d f8 00          	cmpl   $0x0,-0x8(%rbp)
    534f:	78 15                	js     5366 <safe_rshift_func_int8_t_s_s+0x31>
    5351:	83 7d f8 1f          	cmpl   $0x1f,-0x8(%rbp)
    5355:	7f 0f                	jg     5366 <safe_rshift_func_int8_t_s_s+0x31>
    5357:	0f be 55 fc          	movsbl -0x4(%rbp),%edx
    535b:	8b 45 f8             	mov    -0x8(%rbp),%eax
    535e:	89 c1                	mov    %eax,%ecx
    5360:	d3 fa                	sar    %cl,%edx
    5362:	89 d0                	mov    %edx,%eax
    5364:	eb 04                	jmp    536a <safe_rshift_func_int8_t_s_s+0x35>
    5366:	0f b6 45 fc          	movzbl -0x4(%rbp),%eax
    536a:	5d                   	pop    %rbp
    536b:	c3                   	retq   

000000000000536c <safe_rshift_func_int8_t_s_u>:
    536c:	f3 0f 1e fa          	endbr64 
    5370:	55                   	push   %rbp
    5371:	48 89 e5             	mov    %rsp,%rbp
    5374:	89 f8                	mov    %edi,%eax
    5376:	89 75 f8             	mov    %esi,-0x8(%rbp)
    5379:	88 45 fc             	mov    %al,-0x4(%rbp)
    537c:	80 7d fc 00          	cmpb   $0x0,-0x4(%rbp)
    5380:	78 15                	js     5397 <safe_rshift_func_int8_t_s_u+0x2b>
    5382:	83 7d f8 1f          	cmpl   $0x1f,-0x8(%rbp)
    5386:	77 0f                	ja     5397 <safe_rshift_func_int8_t_s_u+0x2b>
    5388:	0f be 55 fc          	movsbl -0x4(%rbp),%edx
    538c:	8b 45 f8             	mov    -0x8(%rbp),%eax
    538f:	89 c1                	mov    %eax,%ecx
    5391:	d3 fa                	sar    %cl,%edx
    5393:	89 d0                	mov    %edx,%eax
    5395:	eb 04                	jmp    539b <safe_rshift_func_int8_t_s_u+0x2f>
    5397:	0f b6 45 fc          	movzbl -0x4(%rbp),%eax
    539b:	5d                   	pop    %rbp
    539c:	c3                   	retq   

000000000000539d <safe_unary_minus_func_int16_t_s>:
    539d:	f3 0f 1e fa          	endbr64 
    53a1:	55                   	push   %rbp
    53a2:	48 89 e5             	mov    %rsp,%rbp
    53a5:	89 f8                	mov    %edi,%eax
    53a7:	66 89 45 fc          	mov    %ax,-0x4(%rbp)
    53ab:	0f b7 45 fc          	movzwl -0x4(%rbp),%eax
    53af:	f7 d8                	neg    %eax
    53b1:	5d                   	pop    %rbp
    53b2:	c3                   	retq   

00000000000053b3 <safe_add_func_int16_t_s_s>:
    53b3:	f3 0f 1e fa          	endbr64 
    53b7:	55                   	push   %rbp
    53b8:	48 89 e5             	mov    %rsp,%rbp
    53bb:	89 fa                	mov    %edi,%edx
    53bd:	89 f0                	mov    %esi,%eax
    53bf:	66 89 55 fc          	mov    %dx,-0x4(%rbp)
    53c3:	66 89 45 f8          	mov    %ax,-0x8(%rbp)
    53c7:	0f b7 55 fc          	movzwl -0x4(%rbp),%edx
    53cb:	0f b7 45 f8          	movzwl -0x8(%rbp),%eax
    53cf:	01 d0                	add    %edx,%eax
    53d1:	5d                   	pop    %rbp
    53d2:	c3                   	retq   

00000000000053d3 <safe_sub_func_int16_t_s_s>:
    53d3:	f3 0f 1e fa          	endbr64 
    53d7:	55                   	push   %rbp
    53d8:	48 89 e5             	mov    %rsp,%rbp
    53db:	89 fa                	mov    %edi,%edx
    53dd:	89 f0                	mov    %esi,%eax
    53df:	66 89 55 fc          	mov    %dx,-0x4(%rbp)
    53e3:	66 89 45 f8          	mov    %ax,-0x8(%rbp)
    53e7:	0f b7 55 fc          	movzwl -0x4(%rbp),%edx
    53eb:	0f b7 45 f8          	movzwl -0x8(%rbp),%eax
    53ef:	29 c2                	sub    %eax,%edx
    53f1:	89 d0                	mov    %edx,%eax
    53f3:	5d                   	pop    %rbp
    53f4:	c3                   	retq   

00000000000053f5 <safe_mul_func_int16_t_s_s>:
    53f5:	f3 0f 1e fa          	endbr64 
    53f9:	55                   	push   %rbp
    53fa:	48 89 e5             	mov    %rsp,%rbp
    53fd:	89 fa                	mov    %edi,%edx
    53ff:	89 f0                	mov    %esi,%eax
    5401:	66 89 55 fc          	mov    %dx,-0x4(%rbp)
    5405:	66 89 45 f8          	mov    %ax,-0x8(%rbp)
    5409:	0f b7 55 fc          	movzwl -0x4(%rbp),%edx
    540d:	0f b7 45 f8          	movzwl -0x8(%rbp),%eax
    5411:	0f af c2             	imul   %edx,%eax
    5414:	5d                   	pop    %rbp
    5415:	c3                   	retq   

0000000000005416 <safe_mod_func_int16_t_s_s>:
    5416:	f3 0f 1e fa          	endbr64 
    541a:	55                   	push   %rbp
    541b:	48 89 e5             	mov    %rsp,%rbp
    541e:	89 fa                	mov    %edi,%edx
    5420:	89 f0                	mov    %esi,%eax
    5422:	66 89 55 fc          	mov    %dx,-0x4(%rbp)
    5426:	66 89 45 f8          	mov    %ax,-0x8(%rbp)
    542a:	66 83 7d f8 00       	cmpw   $0x0,-0x8(%rbp)
    542f:	74 1e                	je     544f <safe_mod_func_int16_t_s_s+0x39>
    5431:	66 81 7d fc 00 80    	cmpw   $0x8000,-0x4(%rbp)
    5437:	75 07                	jne    5440 <safe_mod_func_int16_t_s_s+0x2a>
    5439:	66 83 7d f8 ff       	cmpw   $0xffff,-0x8(%rbp)
    543e:	74 0f                	je     544f <safe_mod_func_int16_t_s_s+0x39>
    5440:	0f bf 45 fc          	movswl -0x4(%rbp),%eax
    5444:	0f bf 4d f8          	movswl -0x8(%rbp),%ecx
    5448:	99                   	cltd   
    5449:	f7 f9                	idiv   %ecx
    544b:	89 d0                	mov    %edx,%eax
    544d:	eb 04                	jmp    5453 <safe_mod_func_int16_t_s_s+0x3d>
    544f:	0f b7 45 fc          	movzwl -0x4(%rbp),%eax
    5453:	5d                   	pop    %rbp
    5454:	c3                   	retq   

0000000000005455 <safe_div_func_int16_t_s_s>:
    5455:	f3 0f 1e fa          	endbr64 
    5459:	55                   	push   %rbp
    545a:	48 89 e5             	mov    %rsp,%rbp
    545d:	89 fa                	mov    %edi,%edx
    545f:	89 f0                	mov    %esi,%eax
    5461:	66 89 55 fc          	mov    %dx,-0x4(%rbp)
    5465:	66 89 45 f8          	mov    %ax,-0x8(%rbp)
    5469:	66 83 7d f8 00       	cmpw   $0x0,-0x8(%rbp)
    546e:	74 1c                	je     548c <safe_div_func_int16_t_s_s+0x37>
    5470:	66 81 7d fc 00 80    	cmpw   $0x8000,-0x4(%rbp)
    5476:	75 07                	jne    547f <safe_div_func_int16_t_s_s+0x2a>
    5478:	66 83 7d f8 ff       	cmpw   $0xffff,-0x8(%rbp)
    547d:	74 0d                	je     548c <safe_div_func_int16_t_s_s+0x37>
    547f:	0f bf 45 fc          	movswl -0x4(%rbp),%eax
    5483:	0f bf 4d f8          	movswl -0x8(%rbp),%ecx
    5487:	99                   	cltd   
    5488:	f7 f9                	idiv   %ecx
    548a:	eb 04                	jmp    5490 <safe_div_func_int16_t_s_s+0x3b>
    548c:	0f b7 45 fc          	movzwl -0x4(%rbp),%eax
    5490:	5d                   	pop    %rbp
    5491:	c3                   	retq   

0000000000005492 <safe_lshift_func_int16_t_s_s>:
    5492:	f3 0f 1e fa          	endbr64 
    5496:	55                   	push   %rbp
    5497:	48 89 e5             	mov    %rsp,%rbp
    549a:	89 f8                	mov    %edi,%eax
    549c:	89 75 f8             	mov    %esi,-0x8(%rbp)
    549f:	66 89 45 fc          	mov    %ax,-0x4(%rbp)
    54a3:	66 83 7d fc 00       	cmpw   $0x0,-0x4(%rbp)
    54a8:	78 31                	js     54db <safe_lshift_func_int16_t_s_s+0x49>
    54aa:	83 7d f8 00          	cmpl   $0x0,-0x8(%rbp)
    54ae:	78 2b                	js     54db <safe_lshift_func_int16_t_s_s+0x49>
    54b0:	83 7d f8 1f          	cmpl   $0x1f,-0x8(%rbp)
    54b4:	7f 25                	jg     54db <safe_lshift_func_int16_t_s_s+0x49>
    54b6:	0f bf 55 fc          	movswl -0x4(%rbp),%edx
    54ba:	8b 45 f8             	mov    -0x8(%rbp),%eax
    54bd:	be ff 7f 00 00       	mov    $0x7fff,%esi
    54c2:	89 c1                	mov    %eax,%ecx
    54c4:	d3 fe                	sar    %cl,%esi
    54c6:	89 f0                	mov    %esi,%eax
    54c8:	39 c2                	cmp    %eax,%edx
    54ca:	7f 0f                	jg     54db <safe_lshift_func_int16_t_s_s+0x49>
    54cc:	0f bf 55 fc          	movswl -0x4(%rbp),%edx
    54d0:	8b 45 f8             	mov    -0x8(%rbp),%eax
    54d3:	89 c1                	mov    %eax,%ecx
    54d5:	d3 e2                	shl    %cl,%edx
    54d7:	89 d0                	mov    %edx,%eax
    54d9:	eb 04                	jmp    54df <safe_lshift_func_int16_t_s_s+0x4d>
    54db:	0f b7 45 fc          	movzwl -0x4(%rbp),%eax
    54df:	5d                   	pop    %rbp
    54e0:	c3                   	retq   

00000000000054e1 <safe_lshift_func_int16_t_s_u>:
    54e1:	f3 0f 1e fa          	endbr64 
    54e5:	55                   	push   %rbp
    54e6:	48 89 e5             	mov    %rsp,%rbp
    54e9:	89 f8                	mov    %edi,%eax
    54eb:	89 75 f8             	mov    %esi,-0x8(%rbp)
    54ee:	66 89 45 fc          	mov    %ax,-0x4(%rbp)
    54f2:	66 83 7d fc 00       	cmpw   $0x0,-0x4(%rbp)
    54f7:	78 2b                	js     5524 <safe_lshift_func_int16_t_s_u+0x43>
    54f9:	83 7d f8 1f          	cmpl   $0x1f,-0x8(%rbp)
    54fd:	77 25                	ja     5524 <safe_lshift_func_int16_t_s_u+0x43>
    54ff:	0f bf 55 fc          	movswl -0x4(%rbp),%edx
    5503:	8b 45 f8             	mov    -0x8(%rbp),%eax
    5506:	be ff 7f 00 00       	mov    $0x7fff,%esi
    550b:	89 c1                	mov    %eax,%ecx
    550d:	d3 fe                	sar    %cl,%esi
    550f:	89 f0                	mov    %esi,%eax
    5511:	39 c2                	cmp    %eax,%edx
    5513:	7f 0f                	jg     5524 <safe_lshift_func_int16_t_s_u+0x43>
    5515:	0f bf 55 fc          	movswl -0x4(%rbp),%edx
    5519:	8b 45 f8             	mov    -0x8(%rbp),%eax
    551c:	89 c1                	mov    %eax,%ecx
    551e:	d3 e2                	shl    %cl,%edx
    5520:	89 d0                	mov    %edx,%eax
    5522:	eb 04                	jmp    5528 <safe_lshift_func_int16_t_s_u+0x47>
    5524:	0f b7 45 fc          	movzwl -0x4(%rbp),%eax
    5528:	5d                   	pop    %rbp
    5529:	c3                   	retq   

000000000000552a <safe_rshift_func_int16_t_s_s>:
    552a:	f3 0f 1e fa          	endbr64 
    552e:	55                   	push   %rbp
    552f:	48 89 e5             	mov    %rsp,%rbp
    5532:	89 f8                	mov    %edi,%eax
    5534:	89 75 f8             	mov    %esi,-0x8(%rbp)
    5537:	66 89 45 fc          	mov    %ax,-0x4(%rbp)
    553b:	66 83 7d fc 00       	cmpw   $0x0,-0x4(%rbp)
    5540:	78 1b                	js     555d <safe_rshift_func_int16_t_s_s+0x33>
    5542:	83 7d f8 00          	cmpl   $0x0,-0x8(%rbp)
    5546:	78 15                	js     555d <safe_rshift_func_int16_t_s_s+0x33>
    5548:	83 7d f8 1f          	cmpl   $0x1f,-0x8(%rbp)
    554c:	7f 0f                	jg     555d <safe_rshift_func_int16_t_s_s+0x33>
    554e:	0f bf 55 fc          	movswl -0x4(%rbp),%edx
    5552:	8b 45 f8             	mov    -0x8(%rbp),%eax
    5555:	89 c1                	mov    %eax,%ecx
    5557:	d3 fa                	sar    %cl,%edx
    5559:	89 d0                	mov    %edx,%eax
    555b:	eb 04                	jmp    5561 <safe_rshift_func_int16_t_s_s+0x37>
    555d:	0f b7 45 fc          	movzwl -0x4(%rbp),%eax
    5561:	5d                   	pop    %rbp
    5562:	c3                   	retq   

0000000000005563 <safe_rshift_func_int16_t_s_u>:
    5563:	f3 0f 1e fa          	endbr64 
    5567:	55                   	push   %rbp
    5568:	48 89 e5             	mov    %rsp,%rbp
    556b:	89 f8                	mov    %edi,%eax
    556d:	89 75 f8             	mov    %esi,-0x8(%rbp)
    5570:	66 89 45 fc          	mov    %ax,-0x4(%rbp)
    5574:	66 83 7d fc 00       	cmpw   $0x0,-0x4(%rbp)
    5579:	78 15                	js     5590 <safe_rshift_func_int16_t_s_u+0x2d>
    557b:	83 7d f8 1f          	cmpl   $0x1f,-0x8(%rbp)
    557f:	77 0f                	ja     5590 <safe_rshift_func_int16_t_s_u+0x2d>
    5581:	0f bf 55 fc          	movswl -0x4(%rbp),%edx
    5585:	8b 45 f8             	mov    -0x8(%rbp),%eax
    5588:	89 c1                	mov    %eax,%ecx
    558a:	d3 fa                	sar    %cl,%edx
    558c:	89 d0                	mov    %edx,%eax
    558e:	eb 04                	jmp    5594 <safe_rshift_func_int16_t_s_u+0x31>
    5590:	0f b7 45 fc          	movzwl -0x4(%rbp),%eax
    5594:	5d                   	pop    %rbp
    5595:	c3                   	retq   

0000000000005596 <safe_unary_minus_func_int32_t_s>:
    5596:	f3 0f 1e fa          	endbr64 
    559a:	55                   	push   %rbp
    559b:	48 89 e5             	mov    %rsp,%rbp
    559e:	89 7d fc             	mov    %edi,-0x4(%rbp)
    55a1:	81 7d fc 00 00 00 80 	cmpl   $0x80000000,-0x4(%rbp)
    55a8:	74 07                	je     55b1 <safe_unary_minus_func_int32_t_s+0x1b>
    55aa:	8b 45 fc             	mov    -0x4(%rbp),%eax
    55ad:	f7 d8                	neg    %eax
    55af:	eb 03                	jmp    55b4 <safe_unary_minus_func_int32_t_s+0x1e>
    55b1:	8b 45 fc             	mov    -0x4(%rbp),%eax
    55b4:	5d                   	pop    %rbp
    55b5:	c3                   	retq   

00000000000055b6 <safe_add_func_int32_t_s_s>:
    55b6:	f3 0f 1e fa          	endbr64 
    55ba:	55                   	push   %rbp
    55bb:	48 89 e5             	mov    %rsp,%rbp
    55be:	89 7d fc             	mov    %edi,-0x4(%rbp)
    55c1:	89 75 f8             	mov    %esi,-0x8(%rbp)
    55c4:	83 7d fc 00          	cmpl   $0x0,-0x4(%rbp)
    55c8:	7e 13                	jle    55dd <safe_add_func_int32_t_s_s+0x27>
    55ca:	83 7d f8 00          	cmpl   $0x0,-0x8(%rbp)
    55ce:	7e 0d                	jle    55dd <safe_add_func_int32_t_s_s+0x27>
    55d0:	b8 ff ff ff 7f       	mov    $0x7fffffff,%eax
    55d5:	2b 45 f8             	sub    -0x8(%rbp),%eax
    55d8:	39 45 fc             	cmp    %eax,-0x4(%rbp)
    55db:	7f 23                	jg     5600 <safe_add_func_int32_t_s_s+0x4a>
    55dd:	83 7d fc 00          	cmpl   $0x0,-0x4(%rbp)
    55e1:	79 13                	jns    55f6 <safe_add_func_int32_t_s_s+0x40>
    55e3:	83 7d f8 00          	cmpl   $0x0,-0x8(%rbp)
    55e7:	79 0d                	jns    55f6 <safe_add_func_int32_t_s_s+0x40>
    55e9:	b8 00 00 00 80       	mov    $0x80000000,%eax
    55ee:	2b 45 f8             	sub    -0x8(%rbp),%eax
    55f1:	39 45 fc             	cmp    %eax,-0x4(%rbp)
    55f4:	7c 0a                	jl     5600 <safe_add_func_int32_t_s_s+0x4a>
    55f6:	8b 55 fc             	mov    -0x4(%rbp),%edx
    55f9:	8b 45 f8             	mov    -0x8(%rbp),%eax
    55fc:	01 d0                	add    %edx,%eax
    55fe:	eb 03                	jmp    5603 <safe_add_func_int32_t_s_s+0x4d>
    5600:	8b 45 fc             	mov    -0x4(%rbp),%eax
    5603:	5d                   	pop    %rbp
    5604:	c3                   	retq   

0000000000005605 <safe_sub_func_int32_t_s_s>:
    5605:	f3 0f 1e fa          	endbr64 
    5609:	55                   	push   %rbp
    560a:	48 89 e5             	mov    %rsp,%rbp
    560d:	89 7d fc             	mov    %edi,-0x4(%rbp)
    5610:	89 75 f8             	mov    %esi,-0x8(%rbp)
    5613:	8b 45 fc             	mov    -0x4(%rbp),%eax
    5616:	33 45 f8             	xor    -0x8(%rbp),%eax
    5619:	89 c2                	mov    %eax,%edx
    561b:	8b 45 fc             	mov    -0x4(%rbp),%eax
    561e:	33 45 f8             	xor    -0x8(%rbp),%eax
    5621:	25 00 00 00 80       	and    $0x80000000,%eax
    5626:	33 45 fc             	xor    -0x4(%rbp),%eax
    5629:	2b 45 f8             	sub    -0x8(%rbp),%eax
    562c:	33 45 f8             	xor    -0x8(%rbp),%eax
    562f:	21 d0                	and    %edx,%eax
    5631:	85 c0                	test   %eax,%eax
    5633:	78 08                	js     563d <safe_sub_func_int32_t_s_s+0x38>
    5635:	8b 45 fc             	mov    -0x4(%rbp),%eax
    5638:	2b 45 f8             	sub    -0x8(%rbp),%eax
    563b:	eb 03                	jmp    5640 <safe_sub_func_int32_t_s_s+0x3b>
    563d:	8b 45 fc             	mov    -0x4(%rbp),%eax
    5640:	5d                   	pop    %rbp
    5641:	c3                   	retq   

0000000000005642 <safe_mul_func_int32_t_s_s>:
    5642:	f3 0f 1e fa          	endbr64 
    5646:	55                   	push   %rbp
    5647:	48 89 e5             	mov    %rsp,%rbp
    564a:	89 7d fc             	mov    %edi,-0x4(%rbp)
    564d:	89 75 f8             	mov    %esi,-0x8(%rbp)
    5650:	83 7d fc 00          	cmpl   $0x0,-0x4(%rbp)
    5654:	7e 14                	jle    566a <safe_mul_func_int32_t_s_s+0x28>
    5656:	83 7d f8 00          	cmpl   $0x0,-0x8(%rbp)
    565a:	7e 0e                	jle    566a <safe_mul_func_int32_t_s_s+0x28>
    565c:	b8 ff ff ff 7f       	mov    $0x7fffffff,%eax
    5661:	99                   	cltd   
    5662:	f7 7d f8             	idivl  -0x8(%rbp)
    5665:	39 45 fc             	cmp    %eax,-0x4(%rbp)
    5668:	7f 5d                	jg     56c7 <safe_mul_func_int32_t_s_s+0x85>
    566a:	83 7d fc 00          	cmpl   $0x0,-0x4(%rbp)
    566e:	7e 14                	jle    5684 <safe_mul_func_int32_t_s_s+0x42>
    5670:	83 7d f8 00          	cmpl   $0x0,-0x8(%rbp)
    5674:	7f 0e                	jg     5684 <safe_mul_func_int32_t_s_s+0x42>
    5676:	b8 00 00 00 80       	mov    $0x80000000,%eax
    567b:	99                   	cltd   
    567c:	f7 7d fc             	idivl  -0x4(%rbp)
    567f:	39 45 f8             	cmp    %eax,-0x8(%rbp)
    5682:	7c 43                	jl     56c7 <safe_mul_func_int32_t_s_s+0x85>
    5684:	83 7d fc 00          	cmpl   $0x0,-0x4(%rbp)
    5688:	7f 14                	jg     569e <safe_mul_func_int32_t_s_s+0x5c>
    568a:	83 7d f8 00          	cmpl   $0x0,-0x8(%rbp)
    568e:	7e 0e                	jle    569e <safe_mul_func_int32_t_s_s+0x5c>
    5690:	b8 00 00 00 80       	mov    $0x80000000,%eax
    5695:	99                   	cltd   
    5696:	f7 7d f8             	idivl  -0x8(%rbp)
    5699:	39 45 fc             	cmp    %eax,-0x4(%rbp)
    569c:	7c 29                	jl     56c7 <safe_mul_func_int32_t_s_s+0x85>
    569e:	83 7d fc 00          	cmpl   $0x0,-0x4(%rbp)
    56a2:	7f 1a                	jg     56be <safe_mul_func_int32_t_s_s+0x7c>
    56a4:	83 7d f8 00          	cmpl   $0x0,-0x8(%rbp)
    56a8:	7f 14                	jg     56be <safe_mul_func_int32_t_s_s+0x7c>
    56aa:	83 7d fc 00          	cmpl   $0x0,-0x4(%rbp)
    56ae:	74 0e                	je     56be <safe_mul_func_int32_t_s_s+0x7c>
    56b0:	b8 ff ff ff 7f       	mov    $0x7fffffff,%eax
    56b5:	99                   	cltd   
    56b6:	f7 7d fc             	idivl  -0x4(%rbp)
    56b9:	39 45 f8             	cmp    %eax,-0x8(%rbp)
    56bc:	7c 09                	jl     56c7 <safe_mul_func_int32_t_s_s+0x85>
    56be:	8b 45 fc             	mov    -0x4(%rbp),%eax
    56c1:	0f af 45 f8          	imul   -0x8(%rbp),%eax
    56c5:	eb 03                	jmp    56ca <safe_mul_func_int32_t_s_s+0x88>
    56c7:	8b 45 fc             	mov    -0x4(%rbp),%eax
    56ca:	5d                   	pop    %rbp
    56cb:	c3                   	retq   

00000000000056cc <safe_mod_func_int32_t_s_s>:
    56cc:	f3 0f 1e fa          	endbr64 
    56d0:	55                   	push   %rbp
    56d1:	48 89 e5             	mov    %rsp,%rbp
    56d4:	89 7d fc             	mov    %edi,-0x4(%rbp)
    56d7:	89 75 f8             	mov    %esi,-0x8(%rbp)
    56da:	83 7d f8 00          	cmpl   $0x0,-0x8(%rbp)
    56de:	74 1a                	je     56fa <safe_mod_func_int32_t_s_s+0x2e>
    56e0:	81 7d fc 00 00 00 80 	cmpl   $0x80000000,-0x4(%rbp)
    56e7:	75 06                	jne    56ef <safe_mod_func_int32_t_s_s+0x23>
    56e9:	83 7d f8 ff          	cmpl   $0xffffffff,-0x8(%rbp)
    56ed:	74 0b                	je     56fa <safe_mod_func_int32_t_s_s+0x2e>
    56ef:	8b 45 fc             	mov    -0x4(%rbp),%eax
    56f2:	99                   	cltd   
    56f3:	f7 7d f8             	idivl  -0x8(%rbp)
    56f6:	89 d0                	mov    %edx,%eax
    56f8:	eb 03                	jmp    56fd <safe_mod_func_int32_t_s_s+0x31>
    56fa:	8b 45 fc             	mov    -0x4(%rbp),%eax
    56fd:	5d                   	pop    %rbp
    56fe:	c3                   	retq   

00000000000056ff <safe_div_func_int32_t_s_s>:
    56ff:	f3 0f 1e fa          	endbr64 
    5703:	55                   	push   %rbp
    5704:	48 89 e5             	mov    %rsp,%rbp
    5707:	89 7d fc             	mov    %edi,-0x4(%rbp)
    570a:	89 75 f8             	mov    %esi,-0x8(%rbp)
    570d:	83 7d f8 00          	cmpl   $0x0,-0x8(%rbp)
    5711:	74 18                	je     572b <safe_div_func_int32_t_s_s+0x2c>
    5713:	81 7d fc 00 00 00 80 	cmpl   $0x80000000,-0x4(%rbp)
    571a:	75 06                	jne    5722 <safe_div_func_int32_t_s_s+0x23>
    571c:	83 7d f8 ff          	cmpl   $0xffffffff,-0x8(%rbp)
    5720:	74 09                	je     572b <safe_div_func_int32_t_s_s+0x2c>
    5722:	8b 45 fc             	mov    -0x4(%rbp),%eax
    5725:	99                   	cltd   
    5726:	f7 7d f8             	idivl  -0x8(%rbp)
    5729:	eb 03                	jmp    572e <safe_div_func_int32_t_s_s+0x2f>
    572b:	8b 45 fc             	mov    -0x4(%rbp),%eax
    572e:	5d                   	pop    %rbp
    572f:	c3                   	retq   

0000000000005730 <safe_lshift_func_int32_t_s_s>:
    5730:	f3 0f 1e fa          	endbr64 
    5734:	55                   	push   %rbp
    5735:	48 89 e5             	mov    %rsp,%rbp
    5738:	89 7d fc             	mov    %edi,-0x4(%rbp)
    573b:	89 75 f8             	mov    %esi,-0x8(%rbp)
    573e:	83 7d fc 00          	cmpl   $0x0,-0x4(%rbp)
    5742:	78 2d                	js     5771 <safe_lshift_func_int32_t_s_s+0x41>
    5744:	83 7d f8 00          	cmpl   $0x0,-0x8(%rbp)
    5748:	78 27                	js     5771 <safe_lshift_func_int32_t_s_s+0x41>
    574a:	83 7d f8 1f          	cmpl   $0x1f,-0x8(%rbp)
    574e:	7f 21                	jg     5771 <safe_lshift_func_int32_t_s_s+0x41>
    5750:	8b 45 f8             	mov    -0x8(%rbp),%eax
    5753:	ba ff ff ff 7f       	mov    $0x7fffffff,%edx
    5758:	89 c1                	mov    %eax,%ecx
    575a:	d3 fa                	sar    %cl,%edx
    575c:	89 d0                	mov    %edx,%eax
    575e:	39 45 fc             	cmp    %eax,-0x4(%rbp)
    5761:	7f 0e                	jg     5771 <safe_lshift_func_int32_t_s_s+0x41>
    5763:	8b 45 f8             	mov    -0x8(%rbp),%eax
    5766:	8b 55 fc             	mov    -0x4(%rbp),%edx
    5769:	89 c1                	mov    %eax,%ecx
    576b:	d3 e2                	shl    %cl,%edx
    576d:	89 d0                	mov    %edx,%eax
    576f:	eb 03                	jmp    5774 <safe_lshift_func_int32_t_s_s+0x44>
    5771:	8b 45 fc             	mov    -0x4(%rbp),%eax
    5774:	5d                   	pop    %rbp
    5775:	c3                   	retq   

0000000000005776 <safe_lshift_func_int32_t_s_u>:
    5776:	f3 0f 1e fa          	endbr64 
    577a:	55                   	push   %rbp
    577b:	48 89 e5             	mov    %rsp,%rbp
    577e:	89 7d fc             	mov    %edi,-0x4(%rbp)
    5781:	89 75 f8             	mov    %esi,-0x8(%rbp)
    5784:	83 7d fc 00          	cmpl   $0x0,-0x4(%rbp)
    5788:	78 27                	js     57b1 <safe_lshift_func_int32_t_s_u+0x3b>
    578a:	83 7d f8 1f          	cmpl   $0x1f,-0x8(%rbp)
    578e:	77 21                	ja     57b1 <safe_lshift_func_int32_t_s_u+0x3b>
    5790:	8b 45 f8             	mov    -0x8(%rbp),%eax
    5793:	ba ff ff ff 7f       	mov    $0x7fffffff,%edx
    5798:	89 c1                	mov    %eax,%ecx
    579a:	d3 fa                	sar    %cl,%edx
    579c:	89 d0                	mov    %edx,%eax
    579e:	39 45 fc             	cmp    %eax,-0x4(%rbp)
    57a1:	7f 0e                	jg     57b1 <safe_lshift_func_int32_t_s_u+0x3b>
    57a3:	8b 45 f8             	mov    -0x8(%rbp),%eax
    57a6:	8b 55 fc             	mov    -0x4(%rbp),%edx
    57a9:	89 c1                	mov    %eax,%ecx
    57ab:	d3 e2                	shl    %cl,%edx
    57ad:	89 d0                	mov    %edx,%eax
    57af:	eb 03                	jmp    57b4 <safe_lshift_func_int32_t_s_u+0x3e>
    57b1:	8b 45 fc             	mov    -0x4(%rbp),%eax
    57b4:	5d                   	pop    %rbp
    57b5:	c3                   	retq   

00000000000057b6 <safe_rshift_func_int32_t_s_s>:
    57b6:	f3 0f 1e fa          	endbr64 
    57ba:	55                   	push   %rbp
    57bb:	48 89 e5             	mov    %rsp,%rbp
    57be:	89 7d fc             	mov    %edi,-0x4(%rbp)
    57c1:	89 75 f8             	mov    %esi,-0x8(%rbp)
    57c4:	83 7d fc 00          	cmpl   $0x0,-0x4(%rbp)
    57c8:	78 1a                	js     57e4 <safe_rshift_func_int32_t_s_s+0x2e>
    57ca:	83 7d f8 00          	cmpl   $0x0,-0x8(%rbp)
    57ce:	78 14                	js     57e4 <safe_rshift_func_int32_t_s_s+0x2e>
    57d0:	83 7d f8 1f          	cmpl   $0x1f,-0x8(%rbp)
    57d4:	7f 0e                	jg     57e4 <safe_rshift_func_int32_t_s_s+0x2e>
    57d6:	8b 45 f8             	mov    -0x8(%rbp),%eax
    57d9:	8b 55 fc             	mov    -0x4(%rbp),%edx
    57dc:	89 c1                	mov    %eax,%ecx
    57de:	d3 fa                	sar    %cl,%edx
    57e0:	89 d0                	mov    %edx,%eax
    57e2:	eb 03                	jmp    57e7 <safe_rshift_func_int32_t_s_s+0x31>
    57e4:	8b 45 fc             	mov    -0x4(%rbp),%eax
    57e7:	5d                   	pop    %rbp
    57e8:	c3                   	retq   

00000000000057e9 <safe_rshift_func_int32_t_s_u>:
    57e9:	f3 0f 1e fa          	endbr64 
    57ed:	55                   	push   %rbp
    57ee:	48 89 e5             	mov    %rsp,%rbp
    57f1:	89 7d fc             	mov    %edi,-0x4(%rbp)
    57f4:	89 75 f8             	mov    %esi,-0x8(%rbp)
    57f7:	83 7d fc 00          	cmpl   $0x0,-0x4(%rbp)
    57fb:	78 14                	js     5811 <safe_rshift_func_int32_t_s_u+0x28>
    57fd:	83 7d f8 1f          	cmpl   $0x1f,-0x8(%rbp)
    5801:	77 0e                	ja     5811 <safe_rshift_func_int32_t_s_u+0x28>
    5803:	8b 45 f8             	mov    -0x8(%rbp),%eax
    5806:	8b 55 fc             	mov    -0x4(%rbp),%edx
    5809:	89 c1                	mov    %eax,%ecx
    580b:	d3 fa                	sar    %cl,%edx
    580d:	89 d0                	mov    %edx,%eax
    580f:	eb 03                	jmp    5814 <safe_rshift_func_int32_t_s_u+0x2b>
    5811:	8b 45 fc             	mov    -0x4(%rbp),%eax
    5814:	5d                   	pop    %rbp
    5815:	c3                   	retq   

0000000000005816 <safe_unary_minus_func_int64_t_s>:
    5816:	f3 0f 1e fa          	endbr64 
    581a:	55                   	push   %rbp
    581b:	48 89 e5             	mov    %rsp,%rbp
    581e:	48 89 7d f8          	mov    %rdi,-0x8(%rbp)
    5822:	48 b8 00 00 00 00 00 	movabs $0x8000000000000000,%rax
    5829:	00 00 80 
    582c:	48 39 45 f8          	cmp    %rax,-0x8(%rbp)
    5830:	74 09                	je     583b <safe_unary_minus_func_int64_t_s+0x25>
    5832:	48 8b 45 f8          	mov    -0x8(%rbp),%rax
    5836:	48 f7 d8             	neg    %rax
    5839:	eb 04                	jmp    583f <safe_unary_minus_func_int64_t_s+0x29>
    583b:	48 8b 45 f8          	mov    -0x8(%rbp),%rax
    583f:	5d                   	pop    %rbp
    5840:	c3                   	retq   

0000000000005841 <safe_add_func_int64_t_s_s>:
    5841:	f3 0f 1e fa          	endbr64 
    5845:	55                   	push   %rbp
    5846:	48 89 e5             	mov    %rsp,%rbp
    5849:	48 89 7d f8          	mov    %rdi,-0x8(%rbp)
    584d:	48 89 75 f0          	mov    %rsi,-0x10(%rbp)
    5851:	48 83 7d f8 00       	cmpq   $0x0,-0x8(%rbp)
    5856:	7e 1b                	jle    5873 <safe_add_func_int64_t_s_s+0x32>
    5858:	48 83 7d f0 00       	cmpq   $0x0,-0x10(%rbp)
    585d:	7e 14                	jle    5873 <safe_add_func_int64_t_s_s+0x32>
    585f:	48 b8 ff ff ff ff ff 	movabs $0x7fffffffffffffff,%rax
    5866:	ff ff 7f 
    5869:	48 2b 45 f0          	sub    -0x10(%rbp),%rax
    586d:	48 39 45 f8          	cmp    %rax,-0x8(%rbp)
    5871:	7f 2f                	jg     58a2 <safe_add_func_int64_t_s_s+0x61>
    5873:	48 83 7d f8 00       	cmpq   $0x0,-0x8(%rbp)
    5878:	79 1b                	jns    5895 <safe_add_func_int64_t_s_s+0x54>
    587a:	48 83 7d f0 00       	cmpq   $0x0,-0x10(%rbp)
    587f:	79 14                	jns    5895 <safe_add_func_int64_t_s_s+0x54>
    5881:	48 b8 00 00 00 00 00 	movabs $0x8000000000000000,%rax
    5888:	00 00 80 
    588b:	48 2b 45 f0          	sub    -0x10(%rbp),%rax
    588f:	48 39 45 f8          	cmp    %rax,-0x8(%rbp)
    5893:	7c 0d                	jl     58a2 <safe_add_func_int64_t_s_s+0x61>
    5895:	48 8b 55 f8          	mov    -0x8(%rbp),%rdx
    5899:	48 8b 45 f0          	mov    -0x10(%rbp),%rax
    589d:	48 01 d0             	add    %rdx,%rax
    58a0:	eb 04                	jmp    58a6 <safe_add_func_int64_t_s_s+0x65>
    58a2:	48 8b 45 f8          	mov    -0x8(%rbp),%rax
    58a6:	5d                   	pop    %rbp
    58a7:	c3                   	retq   

00000000000058a8 <safe_sub_func_int64_t_s_s>:
    58a8:	f3 0f 1e fa          	endbr64 
    58ac:	55                   	push   %rbp
    58ad:	48 89 e5             	mov    %rsp,%rbp
    58b0:	48 89 7d f8          	mov    %rdi,-0x8(%rbp)
    58b4:	48 89 75 f0          	mov    %rsi,-0x10(%rbp)
    58b8:	48 8b 45 f8          	mov    -0x8(%rbp),%rax
    58bc:	48 33 45 f0          	xor    -0x10(%rbp),%rax
    58c0:	48 89 c2             	mov    %rax,%rdx
    58c3:	48 8b 45 f8          	mov    -0x8(%rbp),%rax
    58c7:	48 33 45 f0          	xor    -0x10(%rbp),%rax
    58cb:	48 b9 00 00 00 00 00 	movabs $0x8000000000000000,%rcx
    58d2:	00 00 80 
    58d5:	48 21 c8             	and    %rcx,%rax
    58d8:	48 33 45 f8          	xor    -0x8(%rbp),%rax
    58dc:	48 2b 45 f0          	sub    -0x10(%rbp),%rax
    58e0:	48 33 45 f0          	xor    -0x10(%rbp),%rax
    58e4:	48 21 d0             	and    %rdx,%rax
    58e7:	48 85 c0             	test   %rax,%rax
    58ea:	78 0a                	js     58f6 <safe_sub_func_int64_t_s_s+0x4e>
    58ec:	48 8b 45 f8          	mov    -0x8(%rbp),%rax
    58f0:	48 2b 45 f0          	sub    -0x10(%rbp),%rax
    58f4:	eb 04                	jmp    58fa <safe_sub_func_int64_t_s_s+0x52>
    58f6:	48 8b 45 f8          	mov    -0x8(%rbp),%rax
    58fa:	5d                   	pop    %rbp
    58fb:	c3                   	retq   

00000000000058fc <safe_mul_func_int64_t_s_s>:
    58fc:	f3 0f 1e fa          	endbr64 
    5900:	55                   	push   %rbp
    5901:	48 89 e5             	mov    %rsp,%rbp
    5904:	48 89 7d f8          	mov    %rdi,-0x8(%rbp)
    5908:	48 89 75 f0          	mov    %rsi,-0x10(%rbp)
    590c:	48 83 7d f8 00       	cmpq   $0x0,-0x8(%rbp)
    5911:	7e 1d                	jle    5930 <safe_mul_func_int64_t_s_s+0x34>
    5913:	48 83 7d f0 00       	cmpq   $0x0,-0x10(%rbp)
    5918:	7e 16                	jle    5930 <safe_mul_func_int64_t_s_s+0x34>
    591a:	48 b8 ff ff ff ff ff 	movabs $0x7fffffffffffffff,%rax
    5921:	ff ff 7f 
    5924:	48 99                	cqto   
    5926:	48 f7 7d f0          	idivq  -0x10(%rbp)
    592a:	48 39 45 f8          	cmp    %rax,-0x8(%rbp)
    592e:	7f 7e                	jg     59ae <safe_mul_func_int64_t_s_s+0xb2>
    5930:	48 83 7d f8 00       	cmpq   $0x0,-0x8(%rbp)
    5935:	7e 1d                	jle    5954 <safe_mul_func_int64_t_s_s+0x58>
    5937:	48 83 7d f0 00       	cmpq   $0x0,-0x10(%rbp)
    593c:	7f 16                	jg     5954 <safe_mul_func_int64_t_s_s+0x58>
    593e:	48 b8 00 00 00 00 00 	movabs $0x8000000000000000,%rax
    5945:	00 00 80 
    5948:	48 99                	cqto   
    594a:	48 f7 7d f8          	idivq  -0x8(%rbp)
    594e:	48 39 45 f0          	cmp    %rax,-0x10(%rbp)
    5952:	7c 5a                	jl     59ae <safe_mul_func_int64_t_s_s+0xb2>
    5954:	48 83 7d f8 00       	cmpq   $0x0,-0x8(%rbp)
    5959:	7f 1d                	jg     5978 <safe_mul_func_int64_t_s_s+0x7c>
    595b:	48 83 7d f0 00       	cmpq   $0x0,-0x10(%rbp)
    5960:	7e 16                	jle    5978 <safe_mul_func_int64_t_s_s+0x7c>
    5962:	48 b8 00 00 00 00 00 	movabs $0x8000000000000000,%rax
    5969:	00 00 80 
    596c:	48 99                	cqto   
    596e:	48 f7 7d f0          	idivq  -0x10(%rbp)
    5972:	48 39 45 f8          	cmp    %rax,-0x8(%rbp)
    5976:	7c 36                	jl     59ae <safe_mul_func_int64_t_s_s+0xb2>
    5978:	48 83 7d f8 00       	cmpq   $0x0,-0x8(%rbp)
    597d:	7f 24                	jg     59a3 <safe_mul_func_int64_t_s_s+0xa7>
    597f:	48 83 7d f0 00       	cmpq   $0x0,-0x10(%rbp)
    5984:	7f 1d                	jg     59a3 <safe_mul_func_int64_t_s_s+0xa7>
    5986:	48 83 7d f8 00       	cmpq   $0x0,-0x8(%rbp)
    598b:	74 16                	je     59a3 <safe_mul_func_int64_t_s_s+0xa7>
    598d:	48 b8 ff ff ff ff ff 	movabs $0x7fffffffffffffff,%rax
    5994:	ff ff 7f 
    5997:	48 99                	cqto   
    5999:	48 f7 7d f8          	idivq  -0x8(%rbp)
    599d:	48 39 45 f0          	cmp    %rax,-0x10(%rbp)
    59a1:	7c 0b                	jl     59ae <safe_mul_func_int64_t_s_s+0xb2>
    59a3:	48 8b 45 f8          	mov    -0x8(%rbp),%rax
    59a7:	48 0f af 45 f0       	imul   -0x10(%rbp),%rax
    59ac:	eb 04                	jmp    59b2 <safe_mul_func_int64_t_s_s+0xb6>
    59ae:	48 8b 45 f8          	mov    -0x8(%rbp),%rax
    59b2:	5d                   	pop    %rbp
    59b3:	c3                   	retq   

00000000000059b4 <safe_mod_func_int64_t_s_s>:
    59b4:	f3 0f 1e fa          	endbr64 
    59b8:	55                   	push   %rbp
    59b9:	48 89 e5             	mov    %rsp,%rbp
    59bc:	48 89 7d f8          	mov    %rdi,-0x8(%rbp)
    59c0:	48 89 75 f0          	mov    %rsi,-0x10(%rbp)
    59c4:	48 83 7d f0 00       	cmpq   $0x0,-0x10(%rbp)
    59c9:	74 26                	je     59f1 <safe_mod_func_int64_t_s_s+0x3d>
    59cb:	48 b8 00 00 00 00 00 	movabs $0x8000000000000000,%rax
    59d2:	00 00 80 
    59d5:	48 39 45 f8          	cmp    %rax,-0x8(%rbp)
    59d9:	75 07                	jne    59e2 <safe_mod_func_int64_t_s_s+0x2e>
    59db:	48 83 7d f0 ff       	cmpq   $0xffffffffffffffff,-0x10(%rbp)
    59e0:	74 0f                	je     59f1 <safe_mod_func_int64_t_s_s+0x3d>
    59e2:	48 8b 45 f8          	mov    -0x8(%rbp),%rax
    59e6:	48 99                	cqto   
    59e8:	48 f7 7d f0          	idivq  -0x10(%rbp)
    59ec:	48 89 d0             	mov    %rdx,%rax
    59ef:	eb 04                	jmp    59f5 <safe_mod_func_int64_t_s_s+0x41>
    59f1:	48 8b 45 f8          	mov    -0x8(%rbp),%rax
    59f5:	5d                   	pop    %rbp
    59f6:	c3                   	retq   

00000000000059f7 <safe_div_func_int64_t_s_s>:
    59f7:	f3 0f 1e fa          	endbr64 
    59fb:	55                   	push   %rbp
    59fc:	48 89 e5             	mov    %rsp,%rbp
    59ff:	48 89 7d f8          	mov    %rdi,-0x8(%rbp)
    5a03:	48 89 75 f0          	mov    %rsi,-0x10(%rbp)
    5a07:	48 83 7d f0 00       	cmpq   $0x0,-0x10(%rbp)
    5a0c:	74 23                	je     5a31 <safe_div_func_int64_t_s_s+0x3a>
    5a0e:	48 b8 00 00 00 00 00 	movabs $0x8000000000000000,%rax
    5a15:	00 00 80 
    5a18:	48 39 45 f8          	cmp    %rax,-0x8(%rbp)
    5a1c:	75 07                	jne    5a25 <safe_div_func_int64_t_s_s+0x2e>
    5a1e:	48 83 7d f0 ff       	cmpq   $0xffffffffffffffff,-0x10(%rbp)
    5a23:	74 0c                	je     5a31 <safe_div_func_int64_t_s_s+0x3a>
    5a25:	48 8b 45 f8          	mov    -0x8(%rbp),%rax
    5a29:	48 99                	cqto   
    5a2b:	48 f7 7d f0          	idivq  -0x10(%rbp)
    5a2f:	eb 04                	jmp    5a35 <safe_div_func_int64_t_s_s+0x3e>
    5a31:	48 8b 45 f8          	mov    -0x8(%rbp),%rax
    5a35:	5d                   	pop    %rbp
    5a36:	c3                   	retq   

0000000000005a37 <safe_lshift_func_int64_t_s_s>:
    5a37:	f3 0f 1e fa          	endbr64 
    5a3b:	55                   	push   %rbp
    5a3c:	48 89 e5             	mov    %rsp,%rbp
    5a3f:	48 89 7d f8          	mov    %rdi,-0x8(%rbp)
    5a43:	89 75 f4             	mov    %esi,-0xc(%rbp)
    5a46:	48 83 7d f8 00       	cmpq   $0x0,-0x8(%rbp)
    5a4b:	78 38                	js     5a85 <safe_lshift_func_int64_t_s_s+0x4e>
    5a4d:	83 7d f4 00          	cmpl   $0x0,-0xc(%rbp)
    5a51:	78 32                	js     5a85 <safe_lshift_func_int64_t_s_s+0x4e>
    5a53:	83 7d f4 1f          	cmpl   $0x1f,-0xc(%rbp)
    5a57:	7f 2c                	jg     5a85 <safe_lshift_func_int64_t_s_s+0x4e>
    5a59:	8b 45 f4             	mov    -0xc(%rbp),%eax
    5a5c:	48 ba ff ff ff ff ff 	movabs $0x7fffffffffffffff,%rdx
    5a63:	ff ff 7f 
    5a66:	89 c1                	mov    %eax,%ecx
    5a68:	48 d3 fa             	sar    %cl,%rdx
    5a6b:	48 89 d0             	mov    %rdx,%rax
    5a6e:	48 39 45 f8          	cmp    %rax,-0x8(%rbp)
    5a72:	7f 11                	jg     5a85 <safe_lshift_func_int64_t_s_s+0x4e>
    5a74:	8b 45 f4             	mov    -0xc(%rbp),%eax
    5a77:	48 8b 55 f8          	mov    -0x8(%rbp),%rdx
    5a7b:	89 c1                	mov    %eax,%ecx
    5a7d:	48 d3 e2             	shl    %cl,%rdx
    5a80:	48 89 d0             	mov    %rdx,%rax
    5a83:	eb 04                	jmp    5a89 <safe_lshift_func_int64_t_s_s+0x52>
    5a85:	48 8b 45 f8          	mov    -0x8(%rbp),%rax
    5a89:	5d                   	pop    %rbp
    5a8a:	c3                   	retq   

0000000000005a8b <safe_lshift_func_int64_t_s_u>:
    5a8b:	f3 0f 1e fa          	endbr64 
    5a8f:	55                   	push   %rbp
    5a90:	48 89 e5             	mov    %rsp,%rbp
    5a93:	48 89 7d f8          	mov    %rdi,-0x8(%rbp)
    5a97:	89 75 f4             	mov    %esi,-0xc(%rbp)
    5a9a:	48 83 7d f8 00       	cmpq   $0x0,-0x8(%rbp)
    5a9f:	78 32                	js     5ad3 <safe_lshift_func_int64_t_s_u+0x48>
    5aa1:	83 7d f4 1f          	cmpl   $0x1f,-0xc(%rbp)
    5aa5:	77 2c                	ja     5ad3 <safe_lshift_func_int64_t_s_u+0x48>
    5aa7:	8b 45 f4             	mov    -0xc(%rbp),%eax
    5aaa:	48 ba ff ff ff ff ff 	movabs $0x7fffffffffffffff,%rdx
    5ab1:	ff ff 7f 
    5ab4:	89 c1                	mov    %eax,%ecx
    5ab6:	48 d3 fa             	sar    %cl,%rdx
    5ab9:	48 89 d0             	mov    %rdx,%rax
    5abc:	48 39 45 f8          	cmp    %rax,-0x8(%rbp)
    5ac0:	7f 11                	jg     5ad3 <safe_lshift_func_int64_t_s_u+0x48>
    5ac2:	8b 45 f4             	mov    -0xc(%rbp),%eax
    5ac5:	48 8b 55 f8          	mov    -0x8(%rbp),%rdx
    5ac9:	89 c1                	mov    %eax,%ecx
    5acb:	48 d3 e2             	shl    %cl,%rdx
    5ace:	48 89 d0             	mov    %rdx,%rax
    5ad1:	eb 04                	jmp    5ad7 <safe_lshift_func_int64_t_s_u+0x4c>
    5ad3:	48 8b 45 f8          	mov    -0x8(%rbp),%rax
    5ad7:	5d                   	pop    %rbp
    5ad8:	c3                   	retq   

0000000000005ad9 <safe_rshift_func_int64_t_s_s>:
    5ad9:	f3 0f 1e fa          	endbr64 
    5add:	55                   	push   %rbp
    5ade:	48 89 e5             	mov    %rsp,%rbp
    5ae1:	48 89 7d f8          	mov    %rdi,-0x8(%rbp)
    5ae5:	89 75 f4             	mov    %esi,-0xc(%rbp)
    5ae8:	48 83 7d f8 00       	cmpq   $0x0,-0x8(%rbp)
    5aed:	78 1d                	js     5b0c <safe_rshift_func_int64_t_s_s+0x33>
    5aef:	83 7d f4 00          	cmpl   $0x0,-0xc(%rbp)
    5af3:	78 17                	js     5b0c <safe_rshift_func_int64_t_s_s+0x33>
    5af5:	83 7d f4 1f          	cmpl   $0x1f,-0xc(%rbp)
    5af9:	7f 11                	jg     5b0c <safe_rshift_func_int64_t_s_s+0x33>
    5afb:	8b 45 f4             	mov    -0xc(%rbp),%eax
    5afe:	48 8b 55 f8          	mov    -0x8(%rbp),%rdx
    5b02:	89 c1                	mov    %eax,%ecx
    5b04:	48 d3 fa             	sar    %cl,%rdx
    5b07:	48 89 d0             	mov    %rdx,%rax
    5b0a:	eb 04                	jmp    5b10 <safe_rshift_func_int64_t_s_s+0x37>
    5b0c:	48 8b 45 f8          	mov    -0x8(%rbp),%rax
    5b10:	5d                   	pop    %rbp
    5b11:	c3                   	retq   

0000000000005b12 <safe_rshift_func_int64_t_s_u>:
    5b12:	f3 0f 1e fa          	endbr64 
    5b16:	55                   	push   %rbp
    5b17:	48 89 e5             	mov    %rsp,%rbp
    5b1a:	48 89 7d f8          	mov    %rdi,-0x8(%rbp)
    5b1e:	89 75 f4             	mov    %esi,-0xc(%rbp)
    5b21:	48 83 7d f8 00       	cmpq   $0x0,-0x8(%rbp)
    5b26:	78 17                	js     5b3f <safe_rshift_func_int64_t_s_u+0x2d>
    5b28:	83 7d f4 1f          	cmpl   $0x1f,-0xc(%rbp)
    5b2c:	77 11                	ja     5b3f <safe_rshift_func_int64_t_s_u+0x2d>
    5b2e:	8b 45 f4             	mov    -0xc(%rbp),%eax
    5b31:	48 8b 55 f8          	mov    -0x8(%rbp),%rdx
    5b35:	89 c1                	mov    %eax,%ecx
    5b37:	48 d3 fa             	sar    %cl,%rdx
    5b3a:	48 89 d0             	mov    %rdx,%rax
    5b3d:	eb 04                	jmp    5b43 <safe_rshift_func_int64_t_s_u+0x31>
    5b3f:	48 8b 45 f8          	mov    -0x8(%rbp),%rax
    5b43:	5d                   	pop    %rbp
    5b44:	c3                   	retq   

0000000000005b45 <safe_unary_minus_func_uint8_t_u>:
    5b45:	f3 0f 1e fa          	endbr64 
    5b49:	55                   	push   %rbp
    5b4a:	48 89 e5             	mov    %rsp,%rbp
    5b4d:	89 f8                	mov    %edi,%eax
    5b4f:	88 45 fc             	mov    %al,-0x4(%rbp)
    5b52:	0f b6 45 fc          	movzbl -0x4(%rbp),%eax
    5b56:	f7 d8                	neg    %eax
    5b58:	5d                   	pop    %rbp
    5b59:	c3                   	retq   

0000000000005b5a <safe_add_func_uint8_t_u_u>:
    5b5a:	f3 0f 1e fa          	endbr64 
    5b5e:	55                   	push   %rbp
    5b5f:	48 89 e5             	mov    %rsp,%rbp
    5b62:	89 fa                	mov    %edi,%edx
    5b64:	89 f0                	mov    %esi,%eax
    5b66:	88 55 fc             	mov    %dl,-0x4(%rbp)
    5b69:	88 45 f8             	mov    %al,-0x8(%rbp)
    5b6c:	0f b6 55 fc          	movzbl -0x4(%rbp),%edx
    5b70:	0f b6 45 f8          	movzbl -0x8(%rbp),%eax
    5b74:	01 d0                	add    %edx,%eax
    5b76:	5d                   	pop    %rbp
    5b77:	c3                   	retq   

0000000000005b78 <safe_sub_func_uint8_t_u_u>:
    5b78:	f3 0f 1e fa          	endbr64 
    5b7c:	55                   	push   %rbp
    5b7d:	48 89 e5             	mov    %rsp,%rbp
    5b80:	89 fa                	mov    %edi,%edx
    5b82:	89 f0                	mov    %esi,%eax
    5b84:	88 55 fc             	mov    %dl,-0x4(%rbp)
    5b87:	88 45 f8             	mov    %al,-0x8(%rbp)
    5b8a:	0f b6 45 fc          	movzbl -0x4(%rbp),%eax
    5b8e:	2a 45 f8             	sub    -0x8(%rbp),%al
    5b91:	5d                   	pop    %rbp
    5b92:	c3                   	retq   

0000000000005b93 <safe_mul_func_uint8_t_u_u>:
    5b93:	f3 0f 1e fa          	endbr64 
    5b97:	55                   	push   %rbp
    5b98:	48 89 e5             	mov    %rsp,%rbp
    5b9b:	89 fa                	mov    %edi,%edx
    5b9d:	89 f0                	mov    %esi,%eax
    5b9f:	88 55 fc             	mov    %dl,-0x4(%rbp)
    5ba2:	88 45 f8             	mov    %al,-0x8(%rbp)
    5ba5:	0f b6 45 fc          	movzbl -0x4(%rbp),%eax
    5ba9:	f6 65 f8             	mulb   -0x8(%rbp)
    5bac:	5d                   	pop    %rbp
    5bad:	c3                   	retq   

0000000000005bae <safe_mod_func_uint8_t_u_u>:
    5bae:	f3 0f 1e fa          	endbr64 
    5bb2:	55                   	push   %rbp
    5bb3:	48 89 e5             	mov    %rsp,%rbp
    5bb6:	89 fa                	mov    %edi,%edx
    5bb8:	89 f0                	mov    %esi,%eax
    5bba:	88 55 fc             	mov    %dl,-0x4(%rbp)
    5bbd:	88 45 f8             	mov    %al,-0x8(%rbp)
    5bc0:	80 7d f8 00          	cmpb   $0x0,-0x8(%rbp)
    5bc4:	74 0f                	je     5bd5 <safe_mod_func_uint8_t_u_u+0x27>
    5bc6:	0f b6 45 fc          	movzbl -0x4(%rbp),%eax
    5bca:	0f b6 c0             	movzbl %al,%eax
    5bcd:	f6 75 f8             	divb   -0x8(%rbp)
    5bd0:	0f b6 c4             	movzbl %ah,%eax
    5bd3:	eb 04                	jmp    5bd9 <safe_mod_func_uint8_t_u_u+0x2b>
    5bd5:	0f b6 45 fc          	movzbl -0x4(%rbp),%eax
    5bd9:	5d                   	pop    %rbp
    5bda:	c3                   	retq   

0000000000005bdb <safe_div_func_uint8_t_u_u>:
    5bdb:	f3 0f 1e fa          	endbr64 
    5bdf:	55                   	push   %rbp
    5be0:	48 89 e5             	mov    %rsp,%rbp
    5be3:	89 fa                	mov    %edi,%edx
    5be5:	89 f0                	mov    %esi,%eax
    5be7:	88 55 fc             	mov    %dl,-0x4(%rbp)
    5bea:	88 45 f8             	mov    %al,-0x8(%rbp)
    5bed:	80 7d f8 00          	cmpb   $0x0,-0x8(%rbp)
    5bf1:	74 0c                	je     5bff <safe_div_func_uint8_t_u_u+0x24>
    5bf3:	0f b6 45 fc          	movzbl -0x4(%rbp),%eax
    5bf7:	0f b6 c0             	movzbl %al,%eax
    5bfa:	f6 75 f8             	divb   -0x8(%rbp)
    5bfd:	eb 04                	jmp    5c03 <safe_div_func_uint8_t_u_u+0x28>
    5bff:	0f b6 45 fc          	movzbl -0x4(%rbp),%eax
    5c03:	5d                   	pop    %rbp
    5c04:	c3                   	retq   

0000000000005c05 <safe_lshift_func_uint8_t_u_s>:
    5c05:	f3 0f 1e fa          	endbr64 
    5c09:	55                   	push   %rbp
    5c0a:	48 89 e5             	mov    %rsp,%rbp
    5c0d:	89 f8                	mov    %edi,%eax
    5c0f:	89 75 f8             	mov    %esi,-0x8(%rbp)
    5c12:	88 45 fc             	mov    %al,-0x4(%rbp)
    5c15:	83 7d f8 00          	cmpl   $0x0,-0x8(%rbp)
    5c19:	78 2b                	js     5c46 <safe_lshift_func_uint8_t_u_s+0x41>
    5c1b:	83 7d f8 1f          	cmpl   $0x1f,-0x8(%rbp)
    5c1f:	7f 25                	jg     5c46 <safe_lshift_func_uint8_t_u_s+0x41>
    5c21:	0f b6 55 fc          	movzbl -0x4(%rbp),%edx
    5c25:	8b 45 f8             	mov    -0x8(%rbp),%eax
    5c28:	be ff 00 00 00       	mov    $0xff,%esi
    5c2d:	89 c1                	mov    %eax,%ecx
    5c2f:	d3 fe                	sar    %cl,%esi
    5c31:	89 f0                	mov    %esi,%eax
    5c33:	39 c2                	cmp    %eax,%edx
    5c35:	7f 0f                	jg     5c46 <safe_lshift_func_uint8_t_u_s+0x41>
    5c37:	0f b6 55 fc          	movzbl -0x4(%rbp),%edx
    5c3b:	8b 45 f8             	mov    -0x8(%rbp),%eax
    5c3e:	89 c1                	mov    %eax,%ecx
    5c40:	d3 e2                	shl    %cl,%edx
    5c42:	89 d0                	mov    %edx,%eax
    5c44:	eb 04                	jmp    5c4a <safe_lshift_func_uint8_t_u_s+0x45>
    5c46:	0f b6 45 fc          	movzbl -0x4(%rbp),%eax
    5c4a:	5d                   	pop    %rbp
    5c4b:	c3                   	retq   

0000000000005c4c <safe_lshift_func_uint8_t_u_u>:
    5c4c:	f3 0f 1e fa          	endbr64 
    5c50:	55                   	push   %rbp
    5c51:	48 89 e5             	mov    %rsp,%rbp
    5c54:	89 f8                	mov    %edi,%eax
    5c56:	89 75 f8             	mov    %esi,-0x8(%rbp)
    5c59:	88 45 fc             	mov    %al,-0x4(%rbp)
    5c5c:	83 7d f8 1f          	cmpl   $0x1f,-0x8(%rbp)
    5c60:	77 25                	ja     5c87 <safe_lshift_func_uint8_t_u_u+0x3b>
    5c62:	0f b6 55 fc          	movzbl -0x4(%rbp),%edx
    5c66:	8b 45 f8             	mov    -0x8(%rbp),%eax
    5c69:	be ff 00 00 00       	mov    $0xff,%esi
    5c6e:	89 c1                	mov    %eax,%ecx
    5c70:	d3 fe                	sar    %cl,%esi
    5c72:	89 f0                	mov    %esi,%eax
    5c74:	39 c2                	cmp    %eax,%edx
    5c76:	7f 0f                	jg     5c87 <safe_lshift_func_uint8_t_u_u+0x3b>
    5c78:	0f b6 55 fc          	movzbl -0x4(%rbp),%edx
    5c7c:	8b 45 f8             	mov    -0x8(%rbp),%eax
    5c7f:	89 c1                	mov    %eax,%ecx
    5c81:	d3 e2                	shl    %cl,%edx
    5c83:	89 d0                	mov    %edx,%eax
    5c85:	eb 04                	jmp    5c8b <safe_lshift_func_uint8_t_u_u+0x3f>
    5c87:	0f b6 45 fc          	movzbl -0x4(%rbp),%eax
    5c8b:	5d                   	pop    %rbp
    5c8c:	c3                   	retq   

0000000000005c8d <safe_rshift_func_uint8_t_u_s>:
    5c8d:	f3 0f 1e fa          	endbr64 
    5c91:	55                   	push   %rbp
    5c92:	48 89 e5             	mov    %rsp,%rbp
    5c95:	89 f8                	mov    %edi,%eax
    5c97:	89 75 f8             	mov    %esi,-0x8(%rbp)
    5c9a:	88 45 fc             	mov    %al,-0x4(%rbp)
    5c9d:	83 7d f8 00          	cmpl   $0x0,-0x8(%rbp)
    5ca1:	78 15                	js     5cb8 <safe_rshift_func_uint8_t_u_s+0x2b>
    5ca3:	83 7d f8 1f          	cmpl   $0x1f,-0x8(%rbp)
    5ca7:	7f 0f                	jg     5cb8 <safe_rshift_func_uint8_t_u_s+0x2b>
    5ca9:	0f b6 55 fc          	movzbl -0x4(%rbp),%edx
    5cad:	8b 45 f8             	mov    -0x8(%rbp),%eax
    5cb0:	89 c1                	mov    %eax,%ecx
    5cb2:	d3 fa                	sar    %cl,%edx
    5cb4:	89 d0                	mov    %edx,%eax
    5cb6:	eb 04                	jmp    5cbc <safe_rshift_func_uint8_t_u_s+0x2f>
    5cb8:	0f b6 45 fc          	movzbl -0x4(%rbp),%eax
    5cbc:	5d                   	pop    %rbp
    5cbd:	c3                   	retq   

0000000000005cbe <safe_rshift_func_uint8_t_u_u>:
    5cbe:	f3 0f 1e fa          	endbr64 
    5cc2:	55                   	push   %rbp
    5cc3:	48 89 e5             	mov    %rsp,%rbp
    5cc6:	89 f8                	mov    %edi,%eax
    5cc8:	89 75 f8             	mov    %esi,-0x8(%rbp)
    5ccb:	88 45 fc             	mov    %al,-0x4(%rbp)
    5cce:	83 7d f8 1f          	cmpl   $0x1f,-0x8(%rbp)
    5cd2:	77 0f                	ja     5ce3 <safe_rshift_func_uint8_t_u_u+0x25>
    5cd4:	0f b6 55 fc          	movzbl -0x4(%rbp),%edx
    5cd8:	8b 45 f8             	mov    -0x8(%rbp),%eax
    5cdb:	89 c1                	mov    %eax,%ecx
    5cdd:	d3 fa                	sar    %cl,%edx
    5cdf:	89 d0                	mov    %edx,%eax
    5ce1:	eb 04                	jmp    5ce7 <safe_rshift_func_uint8_t_u_u+0x29>
    5ce3:	0f b6 45 fc          	movzbl -0x4(%rbp),%eax
    5ce7:	5d                   	pop    %rbp
    5ce8:	c3                   	retq   

0000000000005ce9 <safe_unary_minus_func_uint16_t_u>:
    5ce9:	f3 0f 1e fa          	endbr64 
    5ced:	55                   	push   %rbp
    5cee:	48 89 e5             	mov    %rsp,%rbp
    5cf1:	89 f8                	mov    %edi,%eax
    5cf3:	66 89 45 fc          	mov    %ax,-0x4(%rbp)
    5cf7:	0f b7 45 fc          	movzwl -0x4(%rbp),%eax
    5cfb:	f7 d8                	neg    %eax
    5cfd:	5d                   	pop    %rbp
    5cfe:	c3                   	retq   

0000000000005cff <safe_add_func_uint16_t_u_u>:
    5cff:	f3 0f 1e fa          	endbr64 
    5d03:	55                   	push   %rbp
    5d04:	48 89 e5             	mov    %rsp,%rbp
    5d07:	89 fa                	mov    %edi,%edx
    5d09:	89 f0                	mov    %esi,%eax
    5d0b:	66 89 55 fc          	mov    %dx,-0x4(%rbp)
    5d0f:	66 89 45 f8          	mov    %ax,-0x8(%rbp)
    5d13:	0f b7 55 fc          	movzwl -0x4(%rbp),%edx
    5d17:	0f b7 45 f8          	movzwl -0x8(%rbp),%eax
    5d1b:	01 d0                	add    %edx,%eax
    5d1d:	5d                   	pop    %rbp
    5d1e:	c3                   	retq   

0000000000005d1f <safe_sub_func_uint16_t_u_u>:
    5d1f:	f3 0f 1e fa          	endbr64 
    5d23:	55                   	push   %rbp
    5d24:	48 89 e5             	mov    %rsp,%rbp
    5d27:	89 fa                	mov    %edi,%edx
    5d29:	89 f0                	mov    %esi,%eax
    5d2b:	66 89 55 fc          	mov    %dx,-0x4(%rbp)
    5d2f:	66 89 45 f8          	mov    %ax,-0x8(%rbp)
    5d33:	0f b7 45 fc          	movzwl -0x4(%rbp),%eax
    5d37:	66 2b 45 f8          	sub    -0x8(%rbp),%ax
    5d3b:	5d                   	pop    %rbp
    5d3c:	c3                   	retq   

0000000000005d3d <safe_mul_func_uint16_t_u_u>:
    5d3d:	f3 0f 1e fa          	endbr64 
    5d41:	55                   	push   %rbp
    5d42:	48 89 e5             	mov    %rsp,%rbp
    5d45:	89 fa                	mov    %edi,%edx
    5d47:	89 f0                	mov    %esi,%eax
    5d49:	66 89 55 fc          	mov    %dx,-0x4(%rbp)
    5d4d:	66 89 45 f8          	mov    %ax,-0x8(%rbp)
    5d51:	0f b7 45 fc          	movzwl -0x4(%rbp),%eax
    5d55:	66 0f af 45 f8       	imul   -0x8(%rbp),%ax
    5d5a:	5d                   	pop    %rbp
    5d5b:	c3                   	retq   

0000000000005d5c <safe_mod_func_uint16_t_u_u>:
    5d5c:	f3 0f 1e fa          	endbr64 
    5d60:	55                   	push   %rbp
    5d61:	48 89 e5             	mov    %rsp,%rbp
    5d64:	89 fa                	mov    %edi,%edx
    5d66:	89 f0                	mov    %esi,%eax
    5d68:	66 89 55 fc          	mov    %dx,-0x4(%rbp)
    5d6c:	66 89 45 f8          	mov    %ax,-0x8(%rbp)
    5d70:	66 83 7d f8 00       	cmpw   $0x0,-0x8(%rbp)
    5d75:	74 11                	je     5d88 <safe_mod_func_uint16_t_u_u+0x2c>
    5d77:	0f b7 45 fc          	movzwl -0x4(%rbp),%eax
    5d7b:	ba 00 00 00 00       	mov    $0x0,%edx
    5d80:	66 f7 75 f8          	divw   -0x8(%rbp)
    5d84:	89 d0                	mov    %edx,%eax
    5d86:	eb 04                	jmp    5d8c <safe_mod_func_uint16_t_u_u+0x30>
    5d88:	0f b7 45 fc          	movzwl -0x4(%rbp),%eax
    5d8c:	5d                   	pop    %rbp
    5d8d:	c3                   	retq   

0000000000005d8e <safe_div_func_uint16_t_u_u>:
    5d8e:	f3 0f 1e fa          	endbr64 
    5d92:	55                   	push   %rbp
    5d93:	48 89 e5             	mov    %rsp,%rbp
    5d96:	89 fa                	mov    %edi,%edx
    5d98:	89 f0                	mov    %esi,%eax
    5d9a:	66 89 55 fc          	mov    %dx,-0x4(%rbp)
    5d9e:	66 89 45 f8          	mov    %ax,-0x8(%rbp)
    5da2:	66 83 7d f8 00       	cmpw   $0x0,-0x8(%rbp)
    5da7:	74 0f                	je     5db8 <safe_div_func_uint16_t_u_u+0x2a>
    5da9:	0f b7 45 fc          	movzwl -0x4(%rbp),%eax
    5dad:	ba 00 00 00 00       	mov    $0x0,%edx
    5db2:	66 f7 75 f8          	divw   -0x8(%rbp)
    5db6:	eb 04                	jmp    5dbc <safe_div_func_uint16_t_u_u+0x2e>
    5db8:	0f b7 45 fc          	movzwl -0x4(%rbp),%eax
    5dbc:	5d                   	pop    %rbp
    5dbd:	c3                   	retq   

0000000000005dbe <safe_lshift_func_uint16_t_u_s>:
    5dbe:	f3 0f 1e fa          	endbr64 
    5dc2:	55                   	push   %rbp
    5dc3:	48 89 e5             	mov    %rsp,%rbp
    5dc6:	89 f8                	mov    %edi,%eax
    5dc8:	89 75 f8             	mov    %esi,-0x8(%rbp)
    5dcb:	66 89 45 fc          	mov    %ax,-0x4(%rbp)
    5dcf:	83 7d f8 00          	cmpl   $0x0,-0x8(%rbp)
    5dd3:	78 2b                	js     5e00 <safe_lshift_func_uint16_t_u_s+0x42>
    5dd5:	83 7d f8 1f          	cmpl   $0x1f,-0x8(%rbp)
    5dd9:	7f 25                	jg     5e00 <safe_lshift_func_uint16_t_u_s+0x42>
    5ddb:	0f b7 55 fc          	movzwl -0x4(%rbp),%edx
    5ddf:	8b 45 f8             	mov    -0x8(%rbp),%eax
    5de2:	be ff ff 00 00       	mov    $0xffff,%esi
    5de7:	89 c1                	mov    %eax,%ecx
    5de9:	d3 fe                	sar    %cl,%esi
    5deb:	89 f0                	mov    %esi,%eax
    5ded:	39 c2                	cmp    %eax,%edx
    5def:	7f 0f                	jg     5e00 <safe_lshift_func_uint16_t_u_s+0x42>
    5df1:	0f b7 55 fc          	movzwl -0x4(%rbp),%edx
    5df5:	8b 45 f8             	mov    -0x8(%rbp),%eax
    5df8:	89 c1                	mov    %eax,%ecx
    5dfa:	d3 e2                	shl    %cl,%edx
    5dfc:	89 d0                	mov    %edx,%eax
    5dfe:	eb 04                	jmp    5e04 <safe_lshift_func_uint16_t_u_s+0x46>
    5e00:	0f b7 45 fc          	movzwl -0x4(%rbp),%eax
    5e04:	5d                   	pop    %rbp
    5e05:	c3                   	retq   

0000000000005e06 <safe_lshift_func_uint16_t_u_u>:
    5e06:	f3 0f 1e fa          	endbr64 
    5e0a:	55                   	push   %rbp
    5e0b:	48 89 e5             	mov    %rsp,%rbp
    5e0e:	89 f8                	mov    %edi,%eax
    5e10:	89 75 f8             	mov    %esi,-0x8(%rbp)
    5e13:	66 89 45 fc          	mov    %ax,-0x4(%rbp)
    5e17:	83 7d f8 1f          	cmpl   $0x1f,-0x8(%rbp)
    5e1b:	77 25                	ja     5e42 <safe_lshift_func_uint16_t_u_u+0x3c>
    5e1d:	0f b7 55 fc          	movzwl -0x4(%rbp),%edx
    5e21:	8b 45 f8             	mov    -0x8(%rbp),%eax
    5e24:	be ff ff 00 00       	mov    $0xffff,%esi
    5e29:	89 c1                	mov    %eax,%ecx
    5e2b:	d3 fe                	sar    %cl,%esi
    5e2d:	89 f0                	mov    %esi,%eax
    5e2f:	39 c2                	cmp    %eax,%edx
    5e31:	7f 0f                	jg     5e42 <safe_lshift_func_uint16_t_u_u+0x3c>
    5e33:	0f b7 55 fc          	movzwl -0x4(%rbp),%edx
    5e37:	8b 45 f8             	mov    -0x8(%rbp),%eax
    5e3a:	89 c1                	mov    %eax,%ecx
    5e3c:	d3 e2                	shl    %cl,%edx
    5e3e:	89 d0                	mov    %edx,%eax
    5e40:	eb 04                	jmp    5e46 <safe_lshift_func_uint16_t_u_u+0x40>
    5e42:	0f b7 45 fc          	movzwl -0x4(%rbp),%eax
    5e46:	5d                   	pop    %rbp
    5e47:	c3                   	retq   

0000000000005e48 <safe_rshift_func_uint16_t_u_s>:
    5e48:	f3 0f 1e fa          	endbr64 
    5e4c:	55                   	push   %rbp
    5e4d:	48 89 e5             	mov    %rsp,%rbp
    5e50:	89 f8                	mov    %edi,%eax
    5e52:	89 75 f8             	mov    %esi,-0x8(%rbp)
    5e55:	66 89 45 fc          	mov    %ax,-0x4(%rbp)
    5e59:	83 7d f8 00          	cmpl   $0x0,-0x8(%rbp)
    5e5d:	78 15                	js     5e74 <safe_rshift_func_uint16_t_u_s+0x2c>
    5e5f:	83 7d f8 1f          	cmpl   $0x1f,-0x8(%rbp)
    5e63:	7f 0f                	jg     5e74 <safe_rshift_func_uint16_t_u_s+0x2c>
    5e65:	0f b7 55 fc          	movzwl -0x4(%rbp),%edx
    5e69:	8b 45 f8             	mov    -0x8(%rbp),%eax
    5e6c:	89 c1                	mov    %eax,%ecx
    5e6e:	d3 fa                	sar    %cl,%edx
    5e70:	89 d0                	mov    %edx,%eax
    5e72:	eb 04                	jmp    5e78 <safe_rshift_func_uint16_t_u_s+0x30>
    5e74:	0f b7 45 fc          	movzwl -0x4(%rbp),%eax
    5e78:	5d                   	pop    %rbp
    5e79:	c3                   	retq   

0000000000005e7a <safe_rshift_func_uint16_t_u_u>:
    5e7a:	f3 0f 1e fa          	endbr64 
    5e7e:	55                   	push   %rbp
    5e7f:	48 89 e5             	mov    %rsp,%rbp
    5e82:	89 f8                	mov    %edi,%eax
    5e84:	89 75 f8             	mov    %esi,-0x8(%rbp)
    5e87:	66 89 45 fc          	mov    %ax,-0x4(%rbp)
    5e8b:	83 7d f8 1f          	cmpl   $0x1f,-0x8(%rbp)
    5e8f:	77 0f                	ja     5ea0 <safe_rshift_func_uint16_t_u_u+0x26>
    5e91:	0f b7 55 fc          	movzwl -0x4(%rbp),%edx
    5e95:	8b 45 f8             	mov    -0x8(%rbp),%eax
    5e98:	89 c1                	mov    %eax,%ecx
    5e9a:	d3 fa                	sar    %cl,%edx
    5e9c:	89 d0                	mov    %edx,%eax
    5e9e:	eb 04                	jmp    5ea4 <safe_rshift_func_uint16_t_u_u+0x2a>
    5ea0:	0f b7 45 fc          	movzwl -0x4(%rbp),%eax
    5ea4:	5d                   	pop    %rbp
    5ea5:	c3                   	retq   

0000000000005ea6 <safe_unary_minus_func_uint32_t_u>:
    5ea6:	f3 0f 1e fa          	endbr64 
    5eaa:	55                   	push   %rbp
    5eab:	48 89 e5             	mov    %rsp,%rbp
    5eae:	89 7d fc             	mov    %edi,-0x4(%rbp)
    5eb1:	8b 45 fc             	mov    -0x4(%rbp),%eax
    5eb4:	f7 d8                	neg    %eax
    5eb6:	5d                   	pop    %rbp
    5eb7:	c3                   	retq   

0000000000005eb8 <safe_add_func_uint32_t_u_u>:
    5eb8:	f3 0f 1e fa          	endbr64 
    5ebc:	55                   	push   %rbp
    5ebd:	48 89 e5             	mov    %rsp,%rbp
    5ec0:	89 7d fc             	mov    %edi,-0x4(%rbp)
    5ec3:	89 75 f8             	mov    %esi,-0x8(%rbp)
    5ec6:	8b 55 fc             	mov    -0x4(%rbp),%edx
    5ec9:	8b 45 f8             	mov    -0x8(%rbp),%eax
    5ecc:	01 d0                	add    %edx,%eax
    5ece:	5d                   	pop    %rbp
    5ecf:	c3                   	retq   

0000000000005ed0 <safe_sub_func_uint32_t_u_u>:
    5ed0:	f3 0f 1e fa          	endbr64 
    5ed4:	55                   	push   %rbp
    5ed5:	48 89 e5             	mov    %rsp,%rbp
    5ed8:	89 7d fc             	mov    %edi,-0x4(%rbp)
    5edb:	89 75 f8             	mov    %esi,-0x8(%rbp)
    5ede:	8b 45 fc             	mov    -0x4(%rbp),%eax
    5ee1:	2b 45 f8             	sub    -0x8(%rbp),%eax
    5ee4:	5d                   	pop    %rbp
    5ee5:	c3                   	retq   

0000000000005ee6 <safe_mul_func_uint32_t_u_u>:
    5ee6:	f3 0f 1e fa          	endbr64 
    5eea:	55                   	push   %rbp
    5eeb:	48 89 e5             	mov    %rsp,%rbp
    5eee:	89 7d fc             	mov    %edi,-0x4(%rbp)
    5ef1:	89 75 f8             	mov    %esi,-0x8(%rbp)
    5ef4:	8b 45 fc             	mov    -0x4(%rbp),%eax
    5ef7:	0f af 45 f8          	imul   -0x8(%rbp),%eax
    5efb:	5d                   	pop    %rbp
    5efc:	c3                   	retq   

0000000000005efd <safe_mod_func_uint32_t_u_u>:
    5efd:	f3 0f 1e fa          	endbr64 
    5f01:	55                   	push   %rbp
    5f02:	48 89 e5             	mov    %rsp,%rbp
    5f05:	89 7d fc             	mov    %edi,-0x4(%rbp)
    5f08:	89 75 f8             	mov    %esi,-0x8(%rbp)
    5f0b:	83 7d f8 00          	cmpl   $0x0,-0x8(%rbp)
    5f0f:	74 0f                	je     5f20 <safe_mod_func_uint32_t_u_u+0x23>
    5f11:	8b 45 fc             	mov    -0x4(%rbp),%eax
    5f14:	ba 00 00 00 00       	mov    $0x0,%edx
    5f19:	f7 75 f8             	divl   -0x8(%rbp)
    5f1c:	89 d0                	mov    %edx,%eax
    5f1e:	eb 03                	jmp    5f23 <safe_mod_func_uint32_t_u_u+0x26>
    5f20:	8b 45 fc             	mov    -0x4(%rbp),%eax
    5f23:	5d                   	pop    %rbp
    5f24:	c3                   	retq   

0000000000005f25 <safe_div_func_uint32_t_u_u>:
    5f25:	f3 0f 1e fa          	endbr64 
    5f29:	55                   	push   %rbp
    5f2a:	48 89 e5             	mov    %rsp,%rbp
    5f2d:	89 7d fc             	mov    %edi,-0x4(%rbp)
    5f30:	89 75 f8             	mov    %esi,-0x8(%rbp)
    5f33:	83 7d f8 00          	cmpl   $0x0,-0x8(%rbp)
    5f37:	74 0d                	je     5f46 <safe_div_func_uint32_t_u_u+0x21>
    5f39:	8b 45 fc             	mov    -0x4(%rbp),%eax
    5f3c:	ba 00 00 00 00       	mov    $0x0,%edx
    5f41:	f7 75 f8             	divl   -0x8(%rbp)
    5f44:	eb 03                	jmp    5f49 <safe_div_func_uint32_t_u_u+0x24>
    5f46:	8b 45 fc             	mov    -0x4(%rbp),%eax
    5f49:	5d                   	pop    %rbp
    5f4a:	c3                   	retq   

0000000000005f4b <safe_lshift_func_uint32_t_u_s>:
    5f4b:	f3 0f 1e fa          	endbr64 
    5f4f:	55                   	push   %rbp
    5f50:	48 89 e5             	mov    %rsp,%rbp
    5f53:	89 7d fc             	mov    %edi,-0x4(%rbp)
    5f56:	89 75 f8             	mov    %esi,-0x8(%rbp)
    5f59:	83 7d f8 00          	cmpl   $0x0,-0x8(%rbp)
    5f5d:	78 27                	js     5f86 <safe_lshift_func_uint32_t_u_s+0x3b>
    5f5f:	83 7d f8 1f          	cmpl   $0x1f,-0x8(%rbp)
    5f63:	7f 21                	jg     5f86 <safe_lshift_func_uint32_t_u_s+0x3b>
    5f65:	8b 45 f8             	mov    -0x8(%rbp),%eax
    5f68:	ba ff ff ff ff       	mov    $0xffffffff,%edx
    5f6d:	89 c1                	mov    %eax,%ecx
    5f6f:	d3 ea                	shr    %cl,%edx
    5f71:	89 d0                	mov    %edx,%eax
    5f73:	39 45 fc             	cmp    %eax,-0x4(%rbp)
    5f76:	77 0e                	ja     5f86 <safe_lshift_func_uint32_t_u_s+0x3b>
    5f78:	8b 45 f8             	mov    -0x8(%rbp),%eax
    5f7b:	8b 55 fc             	mov    -0x4(%rbp),%edx
    5f7e:	89 c1                	mov    %eax,%ecx
    5f80:	d3 e2                	shl    %cl,%edx
    5f82:	89 d0                	mov    %edx,%eax
    5f84:	eb 03                	jmp    5f89 <safe_lshift_func_uint32_t_u_s+0x3e>
    5f86:	8b 45 fc             	mov    -0x4(%rbp),%eax
    5f89:	5d                   	pop    %rbp
    5f8a:	c3                   	retq   

0000000000005f8b <safe_lshift_func_uint32_t_u_u>:
    5f8b:	f3 0f 1e fa          	endbr64 
    5f8f:	55                   	push   %rbp
    5f90:	48 89 e5             	mov    %rsp,%rbp
    5f93:	89 7d fc             	mov    %edi,-0x4(%rbp)
    5f96:	89 75 f8             	mov    %esi,-0x8(%rbp)
    5f99:	83 7d f8 1f          	cmpl   $0x1f,-0x8(%rbp)
    5f9d:	77 21                	ja     5fc0 <safe_lshift_func_uint32_t_u_u+0x35>
    5f9f:	8b 45 f8             	mov    -0x8(%rbp),%eax
    5fa2:	ba ff ff ff ff       	mov    $0xffffffff,%edx
    5fa7:	89 c1                	mov    %eax,%ecx
    5fa9:	d3 ea                	shr    %cl,%edx
    5fab:	89 d0                	mov    %edx,%eax
    5fad:	39 45 fc             	cmp    %eax,-0x4(%rbp)
    5fb0:	77 0e                	ja     5fc0 <safe_lshift_func_uint32_t_u_u+0x35>
    5fb2:	8b 45 f8             	mov    -0x8(%rbp),%eax
    5fb5:	8b 55 fc             	mov    -0x4(%rbp),%edx
    5fb8:	89 c1                	mov    %eax,%ecx
    5fba:	d3 e2                	shl    %cl,%edx
    5fbc:	89 d0                	mov    %edx,%eax
    5fbe:	eb 03                	jmp    5fc3 <safe_lshift_func_uint32_t_u_u+0x38>
    5fc0:	8b 45 fc             	mov    -0x4(%rbp),%eax
    5fc3:	5d                   	pop    %rbp
    5fc4:	c3                   	retq   

0000000000005fc5 <safe_rshift_func_uint32_t_u_s>:
    5fc5:	f3 0f 1e fa          	endbr64 
    5fc9:	55                   	push   %rbp
    5fca:	48 89 e5             	mov    %rsp,%rbp
    5fcd:	89 7d fc             	mov    %edi,-0x4(%rbp)
    5fd0:	89 75 f8             	mov    %esi,-0x8(%rbp)
    5fd3:	83 7d f8 00          	cmpl   $0x0,-0x8(%rbp)
    5fd7:	78 14                	js     5fed <safe_rshift_func_uint32_t_u_s+0x28>
    5fd9:	83 7d f8 1f          	cmpl   $0x1f,-0x8(%rbp)
    5fdd:	7f 0e                	jg     5fed <safe_rshift_func_uint32_t_u_s+0x28>
    5fdf:	8b 45 f8             	mov    -0x8(%rbp),%eax
    5fe2:	8b 55 fc             	mov    -0x4(%rbp),%edx
    5fe5:	89 c1                	mov    %eax,%ecx
    5fe7:	d3 ea                	shr    %cl,%edx
    5fe9:	89 d0                	mov    %edx,%eax
    5feb:	eb 03                	jmp    5ff0 <safe_rshift_func_uint32_t_u_s+0x2b>
    5fed:	8b 45 fc             	mov    -0x4(%rbp),%eax
    5ff0:	5d                   	pop    %rbp
    5ff1:	c3                   	retq   

0000000000005ff2 <safe_rshift_func_uint32_t_u_u>:
    5ff2:	f3 0f 1e fa          	endbr64 
    5ff6:	55                   	push   %rbp
    5ff7:	48 89 e5             	mov    %rsp,%rbp
    5ffa:	89 7d fc             	mov    %edi,-0x4(%rbp)
    5ffd:	89 75 f8             	mov    %esi,-0x8(%rbp)
    6000:	83 7d f8 1f          	cmpl   $0x1f,-0x8(%rbp)
    6004:	77 0e                	ja     6014 <safe_rshift_func_uint32_t_u_u+0x22>
    6006:	8b 45 f8             	mov    -0x8(%rbp),%eax
    6009:	8b 55 fc             	mov    -0x4(%rbp),%edx
    600c:	89 c1                	mov    %eax,%ecx
    600e:	d3 ea                	shr    %cl,%edx
    6010:	89 d0                	mov    %edx,%eax
    6012:	eb 03                	jmp    6017 <safe_rshift_func_uint32_t_u_u+0x25>
    6014:	8b 45 fc             	mov    -0x4(%rbp),%eax
    6017:	5d                   	pop    %rbp
    6018:	c3                   	retq   

0000000000006019 <safe_unary_minus_func_uint64_t_u>:
    6019:	f3 0f 1e fa          	endbr64 
    601d:	55                   	push   %rbp
    601e:	48 89 e5             	mov    %rsp,%rbp
    6021:	48 89 7d f8          	mov    %rdi,-0x8(%rbp)
    6025:	48 8b 45 f8          	mov    -0x8(%rbp),%rax
    6029:	48 f7 d8             	neg    %rax
    602c:	5d                   	pop    %rbp
    602d:	c3                   	retq   

000000000000602e <safe_add_func_uint64_t_u_u>:
    602e:	f3 0f 1e fa          	endbr64 
    6032:	55                   	push   %rbp
    6033:	48 89 e5             	mov    %rsp,%rbp
    6036:	48 89 7d f8          	mov    %rdi,-0x8(%rbp)
    603a:	48 89 75 f0          	mov    %rsi,-0x10(%rbp)
    603e:	48 8b 55 f8          	mov    -0x8(%rbp),%rdx
    6042:	48 8b 45 f0          	mov    -0x10(%rbp),%rax
    6046:	48 01 d0             	add    %rdx,%rax
    6049:	5d                   	pop    %rbp
    604a:	c3                   	retq   

000000000000604b <safe_sub_func_uint64_t_u_u>:
    604b:	f3 0f 1e fa          	endbr64 
    604f:	55                   	push   %rbp
    6050:	48 89 e5             	mov    %rsp,%rbp
    6053:	48 89 7d f8          	mov    %rdi,-0x8(%rbp)
    6057:	48 89 75 f0          	mov    %rsi,-0x10(%rbp)
    605b:	48 8b 45 f8          	mov    -0x8(%rbp),%rax
    605f:	48 2b 45 f0          	sub    -0x10(%rbp),%rax
    6063:	5d                   	pop    %rbp
    6064:	c3                   	retq   

0000000000006065 <safe_mul_func_uint64_t_u_u>:
    6065:	f3 0f 1e fa          	endbr64 
    6069:	55                   	push   %rbp
    606a:	48 89 e5             	mov    %rsp,%rbp
    606d:	48 89 7d f8          	mov    %rdi,-0x8(%rbp)
    6071:	48 89 75 f0          	mov    %rsi,-0x10(%rbp)
    6075:	48 8b 45 f8          	mov    -0x8(%rbp),%rax
    6079:	48 0f af 45 f0       	imul   -0x10(%rbp),%rax
    607e:	5d                   	pop    %rbp
    607f:	c3                   	retq   

0000000000006080 <safe_mod_func_uint64_t_u_u>:
    6080:	f3 0f 1e fa          	endbr64 
    6084:	55                   	push   %rbp
    6085:	48 89 e5             	mov    %rsp,%rbp
    6088:	48 89 7d f8          	mov    %rdi,-0x8(%rbp)
    608c:	48 89 75 f0          	mov    %rsi,-0x10(%rbp)
    6090:	48 83 7d f0 00       	cmpq   $0x0,-0x10(%rbp)
    6095:	74 12                	je     60a9 <safe_mod_func_uint64_t_u_u+0x29>
    6097:	48 8b 45 f8          	mov    -0x8(%rbp),%rax
    609b:	ba 00 00 00 00       	mov    $0x0,%edx
    60a0:	48 f7 75 f0          	divq   -0x10(%rbp)
    60a4:	48 89 d0             	mov    %rdx,%rax
    60a7:	eb 04                	jmp    60ad <safe_mod_func_uint64_t_u_u+0x2d>
    60a9:	48 8b 45 f8          	mov    -0x8(%rbp),%rax
    60ad:	5d                   	pop    %rbp
    60ae:	c3                   	retq   

00000000000060af <safe_div_func_uint64_t_u_u>:
    60af:	f3 0f 1e fa          	endbr64 
    60b3:	55                   	push   %rbp
    60b4:	48 89 e5             	mov    %rsp,%rbp
    60b7:	48 89 7d f8          	mov    %rdi,-0x8(%rbp)
    60bb:	48 89 75 f0          	mov    %rsi,-0x10(%rbp)
    60bf:	48 83 7d f0 00       	cmpq   $0x0,-0x10(%rbp)
    60c4:	74 0f                	je     60d5 <safe_div_func_uint64_t_u_u+0x26>
    60c6:	48 8b 45 f8          	mov    -0x8(%rbp),%rax
    60ca:	ba 00 00 00 00       	mov    $0x0,%edx
    60cf:	48 f7 75 f0          	divq   -0x10(%rbp)
    60d3:	eb 04                	jmp    60d9 <safe_div_func_uint64_t_u_u+0x2a>
    60d5:	48 8b 45 f8          	mov    -0x8(%rbp),%rax
    60d9:	5d                   	pop    %rbp
    60da:	c3                   	retq   

00000000000060db <safe_lshift_func_uint64_t_u_s>:
    60db:	f3 0f 1e fa          	endbr64 
    60df:	55                   	push   %rbp
    60e0:	48 89 e5             	mov    %rsp,%rbp
    60e3:	48 89 7d f8          	mov    %rdi,-0x8(%rbp)
    60e7:	89 75 f4             	mov    %esi,-0xc(%rbp)
    60ea:	83 7d f4 00          	cmpl   $0x0,-0xc(%rbp)
    60ee:	78 2f                	js     611f <safe_lshift_func_uint64_t_u_s+0x44>
    60f0:	83 7d f4 1f          	cmpl   $0x1f,-0xc(%rbp)
    60f4:	7f 29                	jg     611f <safe_lshift_func_uint64_t_u_s+0x44>
    60f6:	8b 45 f4             	mov    -0xc(%rbp),%eax
    60f9:	48 c7 c2 ff ff ff ff 	mov    $0xffffffffffffffff,%rdx
    6100:	89 c1                	mov    %eax,%ecx
    6102:	48 d3 ea             	shr    %cl,%rdx
    6105:	48 89 d0             	mov    %rdx,%rax
    6108:	48 39 45 f8          	cmp    %rax,-0x8(%rbp)
    610c:	77 11                	ja     611f <safe_lshift_func_uint64_t_u_s+0x44>
    610e:	8b 45 f4             	mov    -0xc(%rbp),%eax
    6111:	48 8b 55 f8          	mov    -0x8(%rbp),%rdx
    6115:	89 c1                	mov    %eax,%ecx
    6117:	48 d3 e2             	shl    %cl,%rdx
    611a:	48 89 d0             	mov    %rdx,%rax
    611d:	eb 04                	jmp    6123 <safe_lshift_func_uint64_t_u_s+0x48>
    611f:	48 8b 45 f8          	mov    -0x8(%rbp),%rax
    6123:	5d                   	pop    %rbp
    6124:	c3                   	retq   

0000000000006125 <safe_lshift_func_uint64_t_u_u>:
    6125:	f3 0f 1e fa          	endbr64 
    6129:	55                   	push   %rbp
    612a:	48 89 e5             	mov    %rsp,%rbp
    612d:	48 89 7d f8          	mov    %rdi,-0x8(%rbp)
    6131:	89 75 f4             	mov    %esi,-0xc(%rbp)
    6134:	83 7d f4 1f          	cmpl   $0x1f,-0xc(%rbp)
    6138:	77 29                	ja     6163 <safe_lshift_func_uint64_t_u_u+0x3e>
    613a:	8b 45 f4             	mov    -0xc(%rbp),%eax
    613d:	48 c7 c2 ff ff ff ff 	mov    $0xffffffffffffffff,%rdx
    6144:	89 c1                	mov    %eax,%ecx
    6146:	48 d3 ea             	shr    %cl,%rdx
    6149:	48 89 d0             	mov    %rdx,%rax
    614c:	48 39 45 f8          	cmp    %rax,-0x8(%rbp)
    6150:	77 11                	ja     6163 <safe_lshift_func_uint64_t_u_u+0x3e>
    6152:	8b 45 f4             	mov    -0xc(%rbp),%eax
    6155:	48 8b 55 f8          	mov    -0x8(%rbp),%rdx
    6159:	89 c1                	mov    %eax,%ecx
    615b:	48 d3 e2             	shl    %cl,%rdx
    615e:	48 89 d0             	mov    %rdx,%rax
    6161:	eb 04                	jmp    6167 <safe_lshift_func_uint64_t_u_u+0x42>
    6163:	48 8b 45 f8          	mov    -0x8(%rbp),%rax
    6167:	5d                   	pop    %rbp
    6168:	c3                   	retq   

0000000000006169 <safe_rshift_func_uint64_t_u_s>:
    6169:	f3 0f 1e fa          	endbr64 
    616d:	55                   	push   %rbp
    616e:	48 89 e5             	mov    %rsp,%rbp
    6171:	48 89 7d f8          	mov    %rdi,-0x8(%rbp)
    6175:	89 75 f4             	mov    %esi,-0xc(%rbp)
    6178:	83 7d f4 00          	cmpl   $0x0,-0xc(%rbp)
    617c:	78 17                	js     6195 <safe_rshift_func_uint64_t_u_s+0x2c>
    617e:	83 7d f4 1f          	cmpl   $0x1f,-0xc(%rbp)
    6182:	7f 11                	jg     6195 <safe_rshift_func_uint64_t_u_s+0x2c>
    6184:	8b 45 f4             	mov    -0xc(%rbp),%eax
    6187:	48 8b 55 f8          	mov    -0x8(%rbp),%rdx
    618b:	89 c1                	mov    %eax,%ecx
    618d:	48 d3 ea             	shr    %cl,%rdx
    6190:	48 89 d0             	mov    %rdx,%rax
    6193:	eb 04                	jmp    6199 <safe_rshift_func_uint64_t_u_s+0x30>
    6195:	48 8b 45 f8          	mov    -0x8(%rbp),%rax
    6199:	5d                   	pop    %rbp
    619a:	c3                   	retq   

000000000000619b <safe_rshift_func_uint64_t_u_u>:
    619b:	f3 0f 1e fa          	endbr64 
    619f:	55                   	push   %rbp
    61a0:	48 89 e5             	mov    %rsp,%rbp
    61a3:	48 89 7d f8          	mov    %rdi,-0x8(%rbp)
    61a7:	89 75 f4             	mov    %esi,-0xc(%rbp)
    61aa:	83 7d f4 1f          	cmpl   $0x1f,-0xc(%rbp)
    61ae:	77 11                	ja     61c1 <safe_rshift_func_uint64_t_u_u+0x26>
    61b0:	8b 45 f4             	mov    -0xc(%rbp),%eax
    61b3:	48 8b 55 f8          	mov    -0x8(%rbp),%rdx
    61b7:	89 c1                	mov    %eax,%ecx
    61b9:	48 d3 ea             	shr    %cl,%rdx
    61bc:	48 89 d0             	mov    %rdx,%rax
    61bf:	eb 04                	jmp    61c5 <safe_rshift_func_uint64_t_u_u+0x2a>
    61c1:	48 8b 45 f8          	mov    -0x8(%rbp),%rax
    61c5:	5d                   	pop    %rbp
    61c6:	c3                   	retq   

00000000000061c7 <safe_add_func_float_f_f>:
    61c7:	f3 0f 1e fa          	endbr64 
    61cb:	55                   	push   %rbp
    61cc:	48 89 e5             	mov    %rsp,%rbp
    61cf:	f3 0f 11 45 fc       	movss  %xmm0,-0x4(%rbp)
    61d4:	f3 0f 11 4d f8       	movss  %xmm1,-0x8(%rbp)
    61d9:	f3 0f 10 4d fc       	movss  -0x4(%rbp),%xmm1
    61de:	f3 0f 10 05 d6 b7 00 	movss  0xb7d6(%rip),%xmm0        # 119bc <g_2031+0x884>
    61e5:	00 
    61e6:	f3 0f 59 c8          	mulss  %xmm0,%xmm1
    61ea:	f3 0f 10 55 f8       	movss  -0x8(%rbp),%xmm2
    61ef:	f3 0f 10 05 c5 b7 00 	movss  0xb7c5(%rip),%xmm0        # 119bc <g_2031+0x884>
    61f6:	00 
    61f7:	f3 0f 59 c2          	mulss  %xmm2,%xmm0
    61fb:	f3 0f 58 c1          	addss  %xmm1,%xmm0
    61ff:	f3 0f 10 0d b9 b7 00 	movss  0xb7b9(%rip),%xmm1        # 119c0 <g_2031+0x888>
    6206:	00 
    6207:	0f 54 c1             	andps  %xmm1,%xmm0
    620a:	0f 2f 05 bf b7 00 00 	comiss 0xb7bf(%rip),%xmm0        # 119d0 <g_2031+0x898>
    6211:	76 07                	jbe    621a <safe_add_func_float_f_f+0x53>
    6213:	f3 0f 10 45 fc       	movss  -0x4(%rbp),%xmm0
    6218:	eb 0a                	jmp    6224 <safe_add_func_float_f_f+0x5d>
    621a:	f3 0f 10 45 fc       	movss  -0x4(%rbp),%xmm0
    621f:	f3 0f 58 45 f8       	addss  -0x8(%rbp),%xmm0
    6224:	5d                   	pop    %rbp
    6225:	c3                   	retq   

0000000000006226 <safe_sub_func_float_f_f>:
    6226:	f3 0f 1e fa          	endbr64 
    622a:	55                   	push   %rbp
    622b:	48 89 e5             	mov    %rsp,%rbp
    622e:	f3 0f 11 45 fc       	movss  %xmm0,-0x4(%rbp)
    6233:	f3 0f 11 4d f8       	movss  %xmm1,-0x8(%rbp)
    6238:	f3 0f 10 4d fc       	movss  -0x4(%rbp),%xmm1
    623d:	f3 0f 10 05 77 b7 00 	movss  0xb777(%rip),%xmm0        # 119bc <g_2031+0x884>
    6244:	00 
    6245:	f3 0f 59 c1          	mulss  %xmm1,%xmm0
    6249:	f3 0f 10 55 f8       	movss  -0x8(%rbp),%xmm2
    624e:	f3 0f 10 0d 66 b7 00 	movss  0xb766(%rip),%xmm1        # 119bc <g_2031+0x884>
    6255:	00 
    6256:	f3 0f 59 ca          	mulss  %xmm2,%xmm1
    625a:	f3 0f 5c c1          	subss  %xmm1,%xmm0
    625e:	f3 0f 10 0d 5a b7 00 	movss  0xb75a(%rip),%xmm1        # 119c0 <g_2031+0x888>
    6265:	00 
    6266:	0f 54 c1             	andps  %xmm1,%xmm0
    6269:	0f 2f 05 60 b7 00 00 	comiss 0xb760(%rip),%xmm0        # 119d0 <g_2031+0x898>
    6270:	76 07                	jbe    6279 <safe_sub_func_float_f_f+0x53>
    6272:	f3 0f 10 45 fc       	movss  -0x4(%rbp),%xmm0
    6277:	eb 0a                	jmp    6283 <safe_sub_func_float_f_f+0x5d>
    6279:	f3 0f 10 45 fc       	movss  -0x4(%rbp),%xmm0
    627e:	f3 0f 5c 45 f8       	subss  -0x8(%rbp),%xmm0
    6283:	5d                   	pop    %rbp
    6284:	c3                   	retq   

0000000000006285 <safe_mul_func_float_f_f>:
    6285:	f3 0f 1e fa          	endbr64 
    6289:	55                   	push   %rbp
    628a:	48 89 e5             	mov    %rsp,%rbp
    628d:	f3 0f 11 45 fc       	movss  %xmm0,-0x4(%rbp)
    6292:	f3 0f 11 4d f8       	movss  %xmm1,-0x8(%rbp)
    6297:	f3 0f 10 4d fc       	movss  -0x4(%rbp),%xmm1
    629c:	f3 0f 10 05 30 b7 00 	movss  0xb730(%rip),%xmm0        # 119d4 <g_2031+0x89c>
    62a3:	00 
    62a4:	f3 0f 59 c8          	mulss  %xmm0,%xmm1
    62a8:	f3 0f 10 55 f8       	movss  -0x8(%rbp),%xmm2
    62ad:	f3 0f 10 05 23 b7 00 	movss  0xb723(%rip),%xmm0        # 119d8 <g_2031+0x8a0>
    62b4:	00 
    62b5:	f3 0f 59 c2          	mulss  %xmm2,%xmm0
    62b9:	f3 0f 59 c1          	mulss  %xmm1,%xmm0
    62bd:	f3 0f 10 0d fb b6 00 	movss  0xb6fb(%rip),%xmm1        # 119c0 <g_2031+0x888>
    62c4:	00 
    62c5:	0f 54 c1             	andps  %xmm1,%xmm0
    62c8:	0f 2f 05 0d b7 00 00 	comiss 0xb70d(%rip),%xmm0        # 119dc <g_2031+0x8a4>
    62cf:	76 07                	jbe    62d8 <safe_mul_func_float_f_f+0x53>
    62d1:	f3 0f 10 45 fc       	movss  -0x4(%rbp),%xmm0
    62d6:	eb 0a                	jmp    62e2 <safe_mul_func_float_f_f+0x5d>
    62d8:	f3 0f 10 45 fc       	movss  -0x4(%rbp),%xmm0
    62dd:	f3 0f 59 45 f8       	mulss  -0x8(%rbp),%xmm0
    62e2:	5d                   	pop    %rbp
    62e3:	c3                   	retq   

00000000000062e4 <safe_div_func_float_f_f>:
    62e4:	f3 0f 1e fa          	endbr64 
    62e8:	55                   	push   %rbp
    62e9:	48 89 e5             	mov    %rsp,%rbp
    62ec:	f3 0f 11 45 fc       	movss  %xmm0,-0x4(%rbp)
    62f1:	f3 0f 11 4d f8       	movss  %xmm1,-0x8(%rbp)
    62f6:	f3 0f 10 45 f8       	movss  -0x8(%rbp),%xmm0
    62fb:	f3 0f 10 0d bd b6 00 	movss  0xb6bd(%rip),%xmm1        # 119c0 <g_2031+0x888>
    6302:	00 
    6303:	0f 54 c8             	andps  %xmm0,%xmm1
    6306:	f3 0f 10 05 d2 b6 00 	movss  0xb6d2(%rip),%xmm0        # 119e0 <g_2031+0x8a8>
    630d:	00 
    630e:	0f 2f c1             	comiss %xmm1,%xmm0
    6311:	0f 97 c0             	seta   %al
    6314:	83 f0 01             	xor    $0x1,%eax
    6317:	84 c0                	test   %al,%al
    6319:	75 56                	jne    6371 <safe_div_func_float_f_f+0x8d>
    631b:	66 0f ef c0          	pxor   %xmm0,%xmm0
    631f:	0f 2e 45 f8          	ucomiss -0x8(%rbp),%xmm0
    6323:	7a 0a                	jp     632f <safe_div_func_float_f_f+0x4b>
    6325:	66 0f ef c0          	pxor   %xmm0,%xmm0
    6329:	0f 2e 45 f8          	ucomiss -0x8(%rbp),%xmm0
    632d:	74 4e                	je     637d <safe_div_func_float_f_f+0x99>
    632f:	f3 0f 10 4d fc       	movss  -0x4(%rbp),%xmm1
    6334:	f3 0f 10 05 a8 b6 00 	movss  0xb6a8(%rip),%xmm0        # 119e4 <g_2031+0x8ac>
    633b:	00 
    633c:	f3 0f 59 c1          	mulss  %xmm1,%xmm0
    6340:	f3 0f 10 55 f8       	movss  -0x8(%rbp),%xmm2
    6345:	f3 0f 10 0d 9b b6 00 	movss  0xb69b(%rip),%xmm1        # 119e8 <g_2031+0x8b0>
    634c:	00 
    634d:	f3 0f 59 ca          	mulss  %xmm2,%xmm1
    6351:	f3 0f 5e c1          	divss  %xmm1,%xmm0
    6355:	f3 0f 10 0d 63 b6 00 	movss  0xb663(%rip),%xmm1        # 119c0 <g_2031+0x888>
    635c:	00 
    635d:	0f 54 c1             	andps  %xmm1,%xmm0
    6360:	0f 2f 05 85 b6 00 00 	comiss 0xb685(%rip),%xmm0        # 119ec <g_2031+0x8b4>
    6367:	0f 97 c0             	seta   %al
    636a:	83 f0 01             	xor    $0x1,%eax
    636d:	84 c0                	test   %al,%al
    636f:	74 0c                	je     637d <safe_div_func_float_f_f+0x99>
    6371:	f3 0f 10 45 fc       	movss  -0x4(%rbp),%xmm0
    6376:	f3 0f 5e 45 f8       	divss  -0x8(%rbp),%xmm0
    637b:	eb 05                	jmp    6382 <safe_div_func_float_f_f+0x9e>
    637d:	f3 0f 10 45 fc       	movss  -0x4(%rbp),%xmm0
    6382:	5d                   	pop    %rbp
    6383:	c3                   	retq   

0000000000006384 <safe_add_func_double_f_f>:
    6384:	f3 0f 1e fa          	endbr64 
    6388:	55                   	push   %rbp
    6389:	48 89 e5             	mov    %rsp,%rbp
    638c:	f2 0f 11 45 f8       	movsd  %xmm0,-0x8(%rbp)
    6391:	f2 0f 11 4d f0       	movsd  %xmm1,-0x10(%rbp)
    6396:	f2 0f 10 4d f8       	movsd  -0x8(%rbp),%xmm1
    639b:	f2 0f 10 05 4d b6 00 	movsd  0xb64d(%rip),%xmm0        # 119f0 <g_2031+0x8b8>
    63a2:	00 
    63a3:	f2 0f 59 c8          	mulsd  %xmm0,%xmm1
    63a7:	f2 0f 10 55 f0       	movsd  -0x10(%rbp),%xmm2
    63ac:	f2 0f 10 05 3c b6 00 	movsd  0xb63c(%rip),%xmm0        # 119f0 <g_2031+0x8b8>
    63b3:	00 
    63b4:	f2 0f 59 c2          	mulsd  %xmm2,%xmm0
    63b8:	f2 0f 58 c1          	addsd  %xmm1,%xmm0
    63bc:	f3 0f 7e 0d 3c b6 00 	movq   0xb63c(%rip),%xmm1        # 11a00 <g_2031+0x8c8>
    63c3:	00 
    63c4:	66 0f 54 c1          	andpd  %xmm1,%xmm0
    63c8:	66 0f 2f 05 40 b6 00 	comisd 0xb640(%rip),%xmm0        # 11a10 <g_2031+0x8d8>
    63cf:	00 
    63d0:	76 07                	jbe    63d9 <safe_add_func_double_f_f+0x55>
    63d2:	f2 0f 10 45 f8       	movsd  -0x8(%rbp),%xmm0
    63d7:	eb 0a                	jmp    63e3 <safe_add_func_double_f_f+0x5f>
    63d9:	f2 0f 10 45 f8       	movsd  -0x8(%rbp),%xmm0
    63de:	f2 0f 58 45 f0       	addsd  -0x10(%rbp),%xmm0
    63e3:	5d                   	pop    %rbp
    63e4:	c3                   	retq   

00000000000063e5 <safe_sub_func_double_f_f>:
    63e5:	f3 0f 1e fa          	endbr64 
    63e9:	55                   	push   %rbp
    63ea:	48 89 e5             	mov    %rsp,%rbp
    63ed:	f2 0f 11 45 f8       	movsd  %xmm0,-0x8(%rbp)
    63f2:	f2 0f 11 4d f0       	movsd  %xmm1,-0x10(%rbp)
    63f7:	f2 0f 10 4d f8       	movsd  -0x8(%rbp),%xmm1
    63fc:	f2 0f 10 05 ec b5 00 	movsd  0xb5ec(%rip),%xmm0        # 119f0 <g_2031+0x8b8>
    6403:	00 
    6404:	f2 0f 59 c1          	mulsd  %xmm1,%xmm0
    6408:	f2 0f 10 55 f0       	movsd  -0x10(%rbp),%xmm2
    640d:	f2 0f 10 0d db b5 00 	movsd  0xb5db(%rip),%xmm1        # 119f0 <g_2031+0x8b8>
    6414:	00 
    6415:	f2 0f 59 ca          	mulsd  %xmm2,%xmm1
    6419:	f2 0f 5c c1          	subsd  %xmm1,%xmm0
    641d:	f3 0f 7e 0d db b5 00 	movq   0xb5db(%rip),%xmm1        # 11a00 <g_2031+0x8c8>
    6424:	00 
    6425:	66 0f 54 c1          	andpd  %xmm1,%xmm0
    6429:	66 0f 2f 05 df b5 00 	comisd 0xb5df(%rip),%xmm0        # 11a10 <g_2031+0x8d8>
    6430:	00 
    6431:	76 07                	jbe    643a <safe_sub_func_double_f_f+0x55>
    6433:	f2 0f 10 45 f8       	movsd  -0x8(%rbp),%xmm0
    6438:	eb 0a                	jmp    6444 <safe_sub_func_double_f_f+0x5f>
    643a:	f2 0f 10 45 f8       	movsd  -0x8(%rbp),%xmm0
    643f:	f2 0f 5c 45 f0       	subsd  -0x10(%rbp),%xmm0
    6444:	5d                   	pop    %rbp
    6445:	c3                   	retq   

0000000000006446 <safe_mul_func_double_f_f>:
    6446:	f3 0f 1e fa          	endbr64 
    644a:	55                   	push   %rbp
    644b:	48 89 e5             	mov    %rsp,%rbp
    644e:	f2 0f 11 45 f8       	movsd  %xmm0,-0x8(%rbp)
    6453:	f2 0f 11 4d f0       	movsd  %xmm1,-0x10(%rbp)
    6458:	f2 0f 10 4d f8       	movsd  -0x8(%rbp),%xmm1
    645d:	f2 0f 10 05 b3 b5 00 	movsd  0xb5b3(%rip),%xmm0        # 11a18 <g_2031+0x8e0>
    6464:	00 
    6465:	f2 0f 59 c8          	mulsd  %xmm0,%xmm1
    6469:	f2 0f 10 55 f0       	movsd  -0x10(%rbp),%xmm2
    646e:	f2 0f 10 05 aa b5 00 	movsd  0xb5aa(%rip),%xmm0        # 11a20 <g_2031+0x8e8>
    6475:	00 
    6476:	f2 0f 59 c2          	mulsd  %xmm2,%xmm0
    647a:	f2 0f 59 c1          	mulsd  %xmm1,%xmm0
    647e:	f3 0f 7e 0d 7a b5 00 	movq   0xb57a(%rip),%xmm1        # 11a00 <g_2031+0x8c8>
    6485:	00 
    6486:	66 0f 54 c1          	andpd  %xmm1,%xmm0
    648a:	66 0f 2f 05 96 b5 00 	comisd 0xb596(%rip),%xmm0        # 11a28 <g_2031+0x8f0>
    6491:	00 
    6492:	76 07                	jbe    649b <safe_mul_func_double_f_f+0x55>
    6494:	f2 0f 10 45 f8       	movsd  -0x8(%rbp),%xmm0
    6499:	eb 0a                	jmp    64a5 <safe_mul_func_double_f_f+0x5f>
    649b:	f2 0f 10 45 f8       	movsd  -0x8(%rbp),%xmm0
    64a0:	f2 0f 59 45 f0       	mulsd  -0x10(%rbp),%xmm0
    64a5:	5d                   	pop    %rbp
    64a6:	c3                   	retq   

00000000000064a7 <safe_div_func_double_f_f>:
    64a7:	f3 0f 1e fa          	endbr64 
    64ab:	55                   	push   %rbp
    64ac:	48 89 e5             	mov    %rsp,%rbp
    64af:	f2 0f 11 45 f8       	movsd  %xmm0,-0x8(%rbp)
    64b4:	f2 0f 11 4d f0       	movsd  %xmm1,-0x10(%rbp)
    64b9:	f2 0f 10 45 f0       	movsd  -0x10(%rbp),%xmm0
    64be:	f3 0f 7e 0d 3a b5 00 	movq   0xb53a(%rip),%xmm1        # 11a00 <g_2031+0x8c8>
    64c5:	00 
    64c6:	66 0f 54 c8          	andpd  %xmm0,%xmm1
    64ca:	f2 0f 10 05 5e b5 00 	movsd  0xb55e(%rip),%xmm0        # 11a30 <g_2031+0x8f8>
    64d1:	00 
    64d2:	66 0f 2f c1          	comisd %xmm1,%xmm0
    64d6:	0f 97 c0             	seta   %al
    64d9:	83 f0 01             	xor    $0x1,%eax
    64dc:	84 c0                	test   %al,%al
    64de:	75 5a                	jne    653a <safe_div_func_double_f_f+0x93>
    64e0:	66 0f ef c0          	pxor   %xmm0,%xmm0
    64e4:	66 0f 2e 45 f0       	ucomisd -0x10(%rbp),%xmm0
    64e9:	7a 0b                	jp     64f6 <safe_div_func_double_f_f+0x4f>
    64eb:	66 0f ef c0          	pxor   %xmm0,%xmm0
    64ef:	66 0f 2e 45 f0       	ucomisd -0x10(%rbp),%xmm0
    64f4:	74 50                	je     6546 <safe_div_func_double_f_f+0x9f>
    64f6:	f2 0f 10 4d f8       	movsd  -0x8(%rbp),%xmm1
    64fb:	f2 0f 10 05 35 b5 00 	movsd  0xb535(%rip),%xmm0        # 11a38 <g_2031+0x900>
    6502:	00 
    6503:	f2 0f 59 c1          	mulsd  %xmm1,%xmm0
    6507:	f2 0f 10 55 f0       	movsd  -0x10(%rbp),%xmm2
    650c:	f2 0f 10 0d 2c b5 00 	movsd  0xb52c(%rip),%xmm1        # 11a40 <g_2031+0x908>
    6513:	00 
    6514:	f2 0f 59 ca          	mulsd  %xmm2,%xmm1
    6518:	f2 0f 5e c1          	divsd  %xmm1,%xmm0
    651c:	f3 0f 7e 0d dc b4 00 	movq   0xb4dc(%rip),%xmm1        # 11a00 <g_2031+0x8c8>
    6523:	00 
    6524:	66 0f 54 c1          	andpd  %xmm1,%xmm0
    6528:	66 0f 2f 05 18 b5 00 	comisd 0xb518(%rip),%xmm0        # 11a48 <g_2031+0x910>
    652f:	00 
    6530:	0f 97 c0             	seta   %al
    6533:	83 f0 01             	xor    $0x1,%eax
    6536:	84 c0                	test   %al,%al
    6538:	74 0c                	je     6546 <safe_div_func_double_f_f+0x9f>
    653a:	f2 0f 10 45 f8       	movsd  -0x8(%rbp),%xmm0
    653f:	f2 0f 5e 45 f0       	divsd  -0x10(%rbp),%xmm0
    6544:	eb 05                	jmp    654b <safe_div_func_double_f_f+0xa4>
    6546:	f2 0f 10 45 f8       	movsd  -0x8(%rbp),%xmm0
    654b:	5d                   	pop    %rbp
    654c:	c3                   	retq   

000000000000654d <safe_convert_func_float_to_int32_t>:
    654d:	f3 0f 1e fa          	endbr64 
    6551:	55                   	push   %rbp
    6552:	48 89 e5             	mov    %rsp,%rbp
    6555:	f3 0f 11 45 fc       	movss  %xmm0,-0x4(%rbp)
    655a:	f3 0f 10 05 ee b4 00 	movss  0xb4ee(%rip),%xmm0        # 11a50 <g_2031+0x918>
    6561:	00 
    6562:	0f 2f 45 fc          	comiss -0x4(%rbp),%xmm0
    6566:	0f 93 c0             	setae  %al
    6569:	83 f0 01             	xor    $0x1,%eax
    656c:	84 c0                	test   %al,%al
    656e:	74 21                	je     6591 <safe_convert_func_float_to_int32_t+0x44>
    6570:	f3 0f 10 45 fc       	movss  -0x4(%rbp),%xmm0
    6575:	0f 2f 05 d8 b4 00 00 	comiss 0xb4d8(%rip),%xmm0        # 11a54 <g_2031+0x91c>
    657c:	0f 93 c0             	setae  %al
    657f:	83 f0 01             	xor    $0x1,%eax
    6582:	84 c0                	test   %al,%al
    6584:	74 0b                	je     6591 <safe_convert_func_float_to_int32_t+0x44>
    6586:	f3 0f 10 45 fc       	movss  -0x4(%rbp),%xmm0
    658b:	f3 0f 2c c0          	cvttss2si %xmm0,%eax
    658f:	eb 05                	jmp    6596 <safe_convert_func_float_to_int32_t+0x49>
    6591:	b8 ff ff ff 7f       	mov    $0x7fffffff,%eax
    6596:	5d                   	pop    %rbp
    6597:	c3                   	retq   

0000000000006598 <crc32_gentab>:
    6598:	f3 0f 1e fa          	endbr64 
    659c:	55                   	push   %rbp
    659d:	48 89 e5             	mov    %rsp,%rbp
    65a0:	c7 45 fc 20 83 b8 ed 	movl   $0xedb88320,-0x4(%rbp)
    65a7:	c7 45 f4 00 00 00 00 	movl   $0x0,-0xc(%rbp)
    65ae:	eb 51                	jmp    6601 <crc32_gentab+0x69>
    65b0:	8b 45 f4             	mov    -0xc(%rbp),%eax
    65b3:	89 45 f0             	mov    %eax,-0x10(%rbp)
    65b6:	c7 45 f8 08 00 00 00 	movl   $0x8,-0x8(%rbp)
    65bd:	eb 1e                	jmp    65dd <crc32_gentab+0x45>
    65bf:	8b 45 f0             	mov    -0x10(%rbp),%eax
    65c2:	83 e0 01             	and    $0x1,%eax
    65c5:	85 c0                	test   %eax,%eax
    65c7:	74 0d                	je     65d6 <crc32_gentab+0x3e>
    65c9:	8b 45 f0             	mov    -0x10(%rbp),%eax
    65cc:	d1 e8                	shr    %eax
    65ce:	33 45 fc             	xor    -0x4(%rbp),%eax
    65d1:	89 45 f0             	mov    %eax,-0x10(%rbp)
    65d4:	eb 03                	jmp    65d9 <crc32_gentab+0x41>
    65d6:	d1 6d f0             	shrl   -0x10(%rbp)
    65d9:	83 6d f8 01          	subl   $0x1,-0x8(%rbp)
    65dd:	83 7d f8 00          	cmpl   $0x0,-0x8(%rbp)
    65e1:	7f dc                	jg     65bf <crc32_gentab+0x27>
    65e3:	8b 45 f4             	mov    -0xc(%rbp),%eax
    65e6:	48 98                	cltq   
    65e8:	48 8d 0c 85 00 00 00 	lea    0x0(,%rax,4),%rcx
    65ef:	00 
    65f0:	48 8d 15 09 03 01 00 	lea    0x10309(%rip),%rdx        # 16900 <crc32_tab>
    65f7:	8b 45 f0             	mov    -0x10(%rbp),%eax
    65fa:	89 04 11             	mov    %eax,(%rcx,%rdx,1)
    65fd:	83 45 f4 01          	addl   $0x1,-0xc(%rbp)
    6601:	81 7d f4 ff 00 00 00 	cmpl   $0xff,-0xc(%rbp)
    6608:	7e a6                	jle    65b0 <crc32_gentab+0x18>
    660a:	90                   	nop
    660b:	90                   	nop
    660c:	5d                   	pop    %rbp
    660d:	c3                   	retq   

000000000000660e <crc32_byte>:
    660e:	f3 0f 1e fa          	endbr64 
    6612:	55                   	push   %rbp
    6613:	48 89 e5             	mov    %rsp,%rbp
    6616:	89 f8                	mov    %edi,%eax
    6618:	88 45 fc             	mov    %al,-0x4(%rbp)
    661b:	8b 05 ff e9 00 00    	mov    0xe9ff(%rip),%eax        # 15020 <crc32_context>
    6621:	c1 e8 08             	shr    $0x8,%eax
    6624:	89 c1                	mov    %eax,%ecx
    6626:	0f b6 55 fc          	movzbl -0x4(%rbp),%edx
    662a:	8b 05 f0 e9 00 00    	mov    0xe9f0(%rip),%eax        # 15020 <crc32_context>
    6630:	31 d0                	xor    %edx,%eax
    6632:	0f b6 c0             	movzbl %al,%eax
    6635:	89 c0                	mov    %eax,%eax
    6637:	48 8d 14 85 00 00 00 	lea    0x0(,%rax,4),%rdx
    663e:	00 
    663f:	48 8d 05 ba 02 01 00 	lea    0x102ba(%rip),%rax        # 16900 <crc32_tab>
    6646:	8b 04 02             	mov    (%rdx,%rax,1),%eax
    6649:	31 c8                	xor    %ecx,%eax
    664b:	89 05 cf e9 00 00    	mov    %eax,0xe9cf(%rip)        # 15020 <crc32_context>
    6651:	90                   	nop
    6652:	5d                   	pop    %rbp
    6653:	c3                   	retq   

0000000000006654 <crc32_8bytes>:
    6654:	f3 0f 1e fa          	endbr64 
    6658:	55                   	push   %rbp
    6659:	48 89 e5             	mov    %rsp,%rbp
    665c:	48 83 ec 08          	sub    $0x8,%rsp
    6660:	48 89 7d f8          	mov    %rdi,-0x8(%rbp)
    6664:	48 8b 45 f8          	mov    -0x8(%rbp),%rax
    6668:	0f b6 c0             	movzbl %al,%eax
    666b:	89 c7                	mov    %eax,%edi
    666d:	e8 9c ff ff ff       	callq  660e <crc32_byte>
    6672:	48 8b 45 f8          	mov    -0x8(%rbp),%rax
    6676:	48 c1 e8 08          	shr    $0x8,%rax
    667a:	0f b6 c0             	movzbl %al,%eax
    667d:	89 c7                	mov    %eax,%edi
    667f:	e8 8a ff ff ff       	callq  660e <crc32_byte>
    6684:	48 8b 45 f8          	mov    -0x8(%rbp),%rax
    6688:	48 c1 e8 10          	shr    $0x10,%rax
    668c:	0f b6 c0             	movzbl %al,%eax
    668f:	89 c7                	mov    %eax,%edi
    6691:	e8 78 ff ff ff       	callq  660e <crc32_byte>
    6696:	48 8b 45 f8          	mov    -0x8(%rbp),%rax
    669a:	48 c1 e8 18          	shr    $0x18,%rax
    669e:	0f b6 c0             	movzbl %al,%eax
    66a1:	89 c7                	mov    %eax,%edi
    66a3:	e8 66 ff ff ff       	callq  660e <crc32_byte>
    66a8:	48 8b 45 f8          	mov    -0x8(%rbp),%rax
    66ac:	48 c1 e8 20          	shr    $0x20,%rax
    66b0:	0f b6 c0             	movzbl %al,%eax
    66b3:	89 c7                	mov    %eax,%edi
    66b5:	e8 54 ff ff ff       	callq  660e <crc32_byte>
    66ba:	48 8b 45 f8          	mov    -0x8(%rbp),%rax
    66be:	48 c1 e8 28          	shr    $0x28,%rax
    66c2:	0f b6 c0             	movzbl %al,%eax
    66c5:	89 c7                	mov    %eax,%edi
    66c7:	e8 42 ff ff ff       	callq  660e <crc32_byte>
    66cc:	48 8b 45 f8          	mov    -0x8(%rbp),%rax
    66d0:	48 c1 e8 30          	shr    $0x30,%rax
    66d4:	0f b6 c0             	movzbl %al,%eax
    66d7:	89 c7                	mov    %eax,%edi
    66d9:	e8 30 ff ff ff       	callq  660e <crc32_byte>
    66de:	48 8b 45 f8          	mov    -0x8(%rbp),%rax
    66e2:	48 c1 e8 38          	shr    $0x38,%rax
    66e6:	0f b6 c0             	movzbl %al,%eax
    66e9:	89 c7                	mov    %eax,%edi
    66eb:	e8 1e ff ff ff       	callq  660e <crc32_byte>
    66f0:	90                   	nop
    66f1:	c9                   	leaveq 
    66f2:	c3                   	retq   

00000000000066f3 <transparent_crc>:
    66f3:	f3 0f 1e fa          	endbr64 
    66f7:	55                   	push   %rbp
    66f8:	48 89 e5             	mov    %rsp,%rbp
    66fb:	48 83 ec 20          	sub    $0x20,%rsp
    66ff:	48 89 7d f8          	mov    %rdi,-0x8(%rbp)
    6703:	48 89 75 f0          	mov    %rsi,-0x10(%rbp)
    6707:	89 55 ec             	mov    %edx,-0x14(%rbp)
    670a:	48 8b 45 f8          	mov    -0x8(%rbp),%rax
    670e:	48 89 c7             	mov    %rax,%rdi
    6711:	e8 3e ff ff ff       	callq  6654 <crc32_8bytes>
    6716:	83 7d ec 00          	cmpl   $0x0,-0x14(%rbp)
    671a:	74 22                	je     673e <transparent_crc+0x4b>
    671c:	8b 05 fe e8 00 00    	mov    0xe8fe(%rip),%eax        # 15020 <crc32_context>
    6722:	f7 d0                	not    %eax
    6724:	89 c2                	mov    %eax,%edx
    6726:	48 8b 45 f0          	mov    -0x10(%rbp),%rax
    672a:	48 89 c6             	mov    %rax,%rsi
    672d:	48 8d 3d fc a8 00 00 	lea    0xa8fc(%rip),%rdi        # 11030 <_IO_stdin_used+0x30>
    6734:	b8 00 00 00 00       	mov    $0x0,%eax
    6739:	e8 42 e9 ff ff       	callq  5080 <printf@plt>
    673e:	90                   	nop
    673f:	c9                   	leaveq 
    6740:	c3                   	retq   

0000000000006741 <transparent_crc_bytes>:
    6741:	f3 0f 1e fa          	endbr64 
    6745:	55                   	push   %rbp
    6746:	48 89 e5             	mov    %rsp,%rbp
    6749:	48 83 ec 30          	sub    $0x30,%rsp
    674d:	48 89 7d e8          	mov    %rdi,-0x18(%rbp)
    6751:	89 75 e4             	mov    %esi,-0x1c(%rbp)
    6754:	48 89 55 d8          	mov    %rdx,-0x28(%rbp)
    6758:	89 4d e0             	mov    %ecx,-0x20(%rbp)
    675b:	c7 45 fc 00 00 00 00 	movl   $0x0,-0x4(%rbp)
    6762:	eb 1e                	jmp    6782 <transparent_crc_bytes+0x41>
    6764:	8b 45 fc             	mov    -0x4(%rbp),%eax
    6767:	48 63 d0             	movslq %eax,%rdx
    676a:	48 8b 45 e8          	mov    -0x18(%rbp),%rax
    676e:	48 01 d0             	add    %rdx,%rax
    6771:	0f b6 00             	movzbl (%rax),%eax
    6774:	0f b6 c0             	movzbl %al,%eax
    6777:	89 c7                	mov    %eax,%edi
    6779:	e8 90 fe ff ff       	callq  660e <crc32_byte>
    677e:	83 45 fc 01          	addl   $0x1,-0x4(%rbp)
    6782:	8b 45 fc             	mov    -0x4(%rbp),%eax
    6785:	3b 45 e4             	cmp    -0x1c(%rbp),%eax
    6788:	7c da                	jl     6764 <transparent_crc_bytes+0x23>
    678a:	83 7d e0 00          	cmpl   $0x0,-0x20(%rbp)
    678e:	74 22                	je     67b2 <transparent_crc_bytes+0x71>
    6790:	8b 05 8a e8 00 00    	mov    0xe88a(%rip),%eax        # 15020 <crc32_context>
    6796:	f7 d0                	not    %eax
    6798:	89 c2                	mov    %eax,%edx
    679a:	48 8b 45 d8          	mov    -0x28(%rbp),%rax
    679e:	48 89 c6             	mov    %rax,%rsi
    67a1:	48 8d 3d 88 a8 00 00 	lea    0xa888(%rip),%rdi        # 11030 <_IO_stdin_used+0x30>
    67a8:	b8 00 00 00 00       	mov    $0x0,%eax
    67ad:	e8 ce e8 ff ff       	callq  5080 <printf@plt>
    67b2:	90                   	nop
    67b3:	c9                   	leaveq 
    67b4:	c3                   	retq   

00000000000067b5 <func_1>:
    67b5:	f3 0f 1e fa          	endbr64 
    67b9:	55                   	push   %rbp
    67ba:	48 89 e5             	mov    %rsp,%rbp
    67bd:	41 57                	push   %r15
    67bf:	41 56                	push   %r14
    67c1:	41 55                	push   %r13
    67c3:	41 54                	push   %r12
    67c5:	53                   	push   %rbx
    67c6:	48 81 ec b8 0b 00 00 	sub    $0xbb8,%rsp
    67cd:	64 48 8b 04 25 28 00 	mov    %fs:0x28,%rax
    67d4:	00 00 
    67d6:	48 89 45 c8          	mov    %rax,-0x38(%rbp)
    67da:	31 c0                	xor    %eax,%eax
    67dc:	48 8d 05 45 e8 00 00 	lea    0xe845(%rip),%rax        # 15028 <g_17>
    67e3:	48 89 85 a0 f4 ff ff 	mov    %rax,-0xb60(%rbp)
    67ea:	c7 85 30 f4 ff ff 01 	movl   $0x1,-0xbd0(%rbp)
    67f1:	00 00 00 
    67f4:	48 b8 55 98 8f d6 80 	movabs $0xba7b7e80d68f9855,%rax
    67fb:	7e 7b ba 
    67fe:	48 89 85 d8 f4 ff ff 	mov    %rax,-0xb28(%rbp)
    6805:	c6 85 29 f4 ff ff 01 	movb   $0x1,-0xbd7(%rbp)
    680c:	48 b8 ce b0 41 be 93 	movabs $0x1ebc5f93be41b0ce,%rax
    6813:	5f bc 1e 
    6816:	48 89 85 e0 f4 ff ff 	mov    %rax,-0xb20(%rbp)
    681d:	c6 85 2a f4 ff ff a8 	movb   $0xa8,-0xbd6(%rbp)
    6824:	48 8d 05 15 e9 00 00 	lea    0xe915(%rip),%rax        # 15140 <g_1010>
    682b:	48 89 85 a8 f4 ff ff 	mov    %rax,-0xb58(%rbp)
    6832:	48 8d 85 a8 f4 ff ff 	lea    -0xb58(%rbp),%rax
    6839:	48 89 85 e8 f4 ff ff 	mov    %rax,-0xb18(%rbp)
    6840:	48 8d 05 9d e8 00 00 	lea    0xe89d(%rip),%rax        # 150e4 <g_327>
    6847:	48 89 85 f0 f4 ff ff 	mov    %rax,-0xb10(%rbp)
    684e:	48 c7 85 c8 f4 ff ff 	movq   $0x3,-0xb38(%rbp)
    6855:	03 00 00 00 
    6859:	c7 85 34 f4 ff ff 01 	movl   $0x1,-0xbcc(%rbp)
    6860:	00 00 00 
    6863:	c7 85 54 f4 ff ff 7a 	movl   $0x2cee8e7a,-0xbac(%rbp)
    686a:	8e ee 2c 
    686d:	c7 85 80 f5 ff ff 03 	movl   $0x3,-0xa80(%rbp)
    6874:	00 00 00 
    6877:	c7 85 84 f5 ff ff 03 	movl   $0x3,-0xa7c(%rbp)
    687e:	00 00 00 
    6881:	c7 85 88 f5 ff ff 03 	movl   $0x3,-0xa78(%rbp)
    6888:	00 00 00 
    688b:	c7 85 8c f5 ff ff 03 	movl   $0x3,-0xa74(%rbp)
    6892:	00 00 00 
    6895:	c7 85 38 f4 ff ff 00 	movl   $0x0,-0xbc8(%rbp)
    689c:	00 00 00 
    689f:	eb 53                	jmp    68f4 <func_1+0x13f>
    68a1:	c7 85 3c f4 ff ff 00 	movl   $0x0,-0xbc4(%rbp)
    68a8:	00 00 00 
    68ab:	eb 37                	jmp    68e4 <func_1+0x12f>
    68ad:	8b 85 3c f4 ff ff    	mov    -0xbc4(%rbp),%eax
    68b3:	48 63 c8             	movslq %eax,%rcx
    68b6:	8b 85 38 f4 ff ff    	mov    -0xbc8(%rbp),%eax
    68bc:	48 63 d0             	movslq %eax,%rdx
    68bf:	48 89 d0             	mov    %rdx,%rax
    68c2:	48 01 c0             	add    %rax,%rax
    68c5:	48 01 d0             	add    %rdx,%rax
    68c8:	48 01 c0             	add    %rax,%rax
    68cb:	48 01 c8             	add    %rcx,%rax
    68ce:	48 8d 15 54 e7 00 00 	lea    0xe754(%rip),%rdx        # 15029 <g_19>
    68d5:	48 89 94 c5 c0 f6 ff 	mov    %rdx,-0x940(%rbp,%rax,8)
    68dc:	ff 
    68dd:	83 85 3c f4 ff ff 01 	addl   $0x1,-0xbc4(%rbp)
    68e4:	83 bd 3c f4 ff ff 05 	cmpl   $0x5,-0xbc4(%rbp)
    68eb:	7e c0                	jle    68ad <func_1+0xf8>
    68ed:	83 85 38 f4 ff ff 01 	addl   $0x1,-0xbc8(%rbp)
    68f4:	83 bd 38 f4 ff ff 06 	cmpl   $0x6,-0xbc8(%rbp)
    68fb:	7e a4                	jle    68a1 <func_1+0xec>
    68fd:	48 8b 85 e0 f4 ff ff 	mov    -0xb20(%rbp),%rax
    6904:	41 89 c4             	mov    %eax,%r12d
    6907:	0f be 9d 29 f4 ff ff 	movsbl -0xbd7(%rbp),%ebx
    690e:	8b 05 10 e7 00 00    	mov    0xe710(%rip),%eax        # 15024 <g_6>
    6914:	83 f8 09             	cmp    $0x9,%eax
    6917:	74 58                	je     6971 <func_1+0x1bc>
    6919:	48 8b 85 a0 f4 ff ff 	mov    -0xb60(%rbp),%rax
    6920:	0f b6 10             	movzbl (%rax),%edx
    6923:	8b 05 fb e6 00 00    	mov    0xe6fb(%rip),%eax        # 15024 <g_6>
    6929:	89 c1                	mov    %eax,%ecx
    692b:	48 8b 85 a0 f4 ff ff 	mov    -0xb60(%rbp),%rax
    6932:	09 ca                	or     %ecx,%edx
    6934:	88 10                	mov    %dl,(%rax)
    6936:	0f b6 00             	movzbl (%rax),%eax
    6939:	0f be d0             	movsbl %al,%edx
    693c:	8b 85 30 f4 ff ff    	mov    -0xbd0(%rbp),%eax
    6942:	09 d0                	or     %edx,%eax
    6944:	89 85 30 f4 ff ff    	mov    %eax,-0xbd0(%rbp)
    694a:	8b 85 30 f4 ff ff    	mov    -0xbd0(%rbp),%eax
    6950:	0f be c0             	movsbl %al,%eax
    6953:	be f6 ff ff ff       	mov    $0xfffffff6,%esi
    6958:	89 c7                	mov    %eax,%edi
    695a:	e8 b3 e8 ff ff       	callq  5212 <safe_mul_func_int8_t_s_s>
    695f:	be 0f 00 00 00       	mov    $0xf,%esi
    6964:	bf fe ff ff ff       	mov    $0xfffffffe,%edi
    6969:	e8 73 eb ff ff       	callq  54e1 <safe_lshift_func_int16_t_s_u>
    696e:	66 85 c0             	test   %ax,%ax
    6971:	48 8b 85 d8 f7 ff ff 	mov    -0x828(%rbp),%rax
    6978:	48 8d 35 a9 e6 00 00 	lea    0xe6a9(%rip),%rsi        # 15028 <g_17>
    697f:	48 89 c7             	mov    %rax,%rdi
    6982:	e8 32 54 00 00       	callq  bdb9 <func_22>
    6987:	44 89 e2             	mov    %r12d,%edx
    698a:	89 de                	mov    %ebx,%esi
    698c:	48 89 c7             	mov    %rax,%rdi
    698f:	e8 cb 4e 00 00       	callq  b85f <func_7>
    6994:	48 89 c2             	mov    %rax,%rdx
    6997:	48 8b 05 a2 ed 00 00 	mov    0xeda2(%rip),%rax        # 15740 <g_5>
    699e:	48 8b 1d 3b f9 00 00 	mov    0xf93b(%rip),%rbx        # 162e0 <g_1794>
    69a5:	48 89 d6             	mov    %rdx,%rsi
    69a8:	48 89 c7             	mov    %rax,%rdi
    69ab:	e8 4e 1d 00 00       	callq  86fe <func_2>
    69b0:	48 89 03             	mov    %rax,(%rbx)
    69b3:	48 8b 05 c6 ef 00 00 	mov    0xefc6(%rip),%rax        # 15980 <g_514>
    69ba:	48 8b 10             	mov    (%rax),%rdx
    69bd:	48 8b 05 bc ef 00 00 	mov    0xefbc(%rip),%rax        # 15980 <g_514>
    69c4:	48 8b 00             	mov    (%rax),%rax
    69c7:	48 8b 12             	mov    (%rdx),%rdx
    69ca:	48 89 10             	mov    %rdx,(%rax)
    69cd:	48 8b 9d d8 f4 ff ff 	mov    -0xb28(%rbp),%rbx
    69d4:	8b 85 30 f4 ff ff    	mov    -0xbd0(%rbp),%eax
    69da:	44 0f bf e0          	movswl %ax,%r12d
    69de:	48 8b 05 a3 f6 00 00 	mov    0xf6a3(%rip),%rax        # 16088 <g_792>
    69e5:	0f be 95 2a f4 ff ff 	movsbl -0xbd6(%rbp),%edx
    69ec:	89 10                	mov    %edx,(%rax)
    69ee:	0f b6 05 73 e6 00 00 	movzbl 0xe673(%rip),%eax        # 15068 <g_212>
    69f5:	44 0f b6 e8          	movzbl %al,%r13d
    69f9:	48 8b 05 70 f8 00 00 	mov    0xf870(%rip),%rax        # 16270 <g_1095>
    6a00:	48 8b 00             	mov    (%rax),%rax
    6a03:	0f b7 10             	movzwl (%rax),%edx
    6a06:	83 ea 01             	sub    $0x1,%edx
    6a09:	66 89 10             	mov    %dx,(%rax)
    6a0c:	48 8b 05 55 f8 00 00 	mov    0xf855(%rip),%rax        # 16268 <g_1096>
    6a13:	0f b7 00             	movzwl (%rax),%eax
    6a16:	98                   	cwtl   
    6a17:	89 c6                	mov    %eax,%esi
    6a19:	bf 01 00 00 00       	mov    $0x1,%edi
    6a1e:	e8 d2 e9 ff ff       	callq  53f5 <safe_mul_func_int16_t_s_s>
    6a23:	44 0f bf f0          	movswl %ax,%r14d
    6a27:	48 8b 85 e8 f4 ff ff 	mov    -0xb18(%rbp),%rax
    6a2e:	48 c7 00 00 00 00 00 	movq   $0x0,(%rax)
    6a35:	48 8b 85 e8 f4 ff ff 	mov    -0xb18(%rbp),%rax
    6a3c:	48 8b 00             	mov    (%rax),%rax
    6a3f:	48 8d 15 fa e6 00 00 	lea    0xe6fa(%rip),%rdx        # 15140 <g_1010>
    6a46:	48 39 d0             	cmp    %rdx,%rax
    6a49:	75 09                	jne    6a54 <func_1+0x29f>
    6a4b:	80 bd 29 f4 ff ff 00 	cmpb   $0x0,-0xbd7(%rbp)
    6a52:	74 07                	je     6a5b <func_1+0x2a6>
    6a54:	b8 01 00 00 00       	mov    $0x1,%eax
    6a59:	eb 05                	jmp    6a60 <func_1+0x2ab>
    6a5b:	b8 00 00 00 00       	mov    $0x0,%eax
    6a60:	0f b6 c0             	movzbl %al,%eax
    6a63:	be 84 00 00 00       	mov    $0x84,%esi
    6a68:	89 c7                	mov    %eax,%edi
    6a6a:	e8 24 f1 ff ff       	callq  5b93 <safe_mul_func_uint8_t_u_u>
    6a6f:	0f b6 d0             	movzbl %al,%edx
    6a72:	48 8b 85 f0 f4 ff ff 	mov    -0xb10(%rbp),%rax
    6a79:	66 89 10             	mov    %dx,(%rax)
    6a7c:	48 8b 05 05 f6 00 00 	mov    0xf605(%rip),%rax        # 16088 <g_792>
    6a83:	8b 10                	mov    (%rax),%edx
    6a85:	0f be 85 2a f4 ff ff 	movsbl -0xbd6(%rbp),%eax
    6a8c:	09 c2                	or     %eax,%edx
    6a8e:	8b 85 30 f4 ff ff    	mov    -0xbd0(%rbp),%eax
    6a94:	39 c2                	cmp    %eax,%edx
    6a96:	75 15                	jne    6aad <func_1+0x2f8>
    6a98:	48 8b 05 c9 ec 00 00 	mov    0xecc9(%rip),%rax        # 15768 <g_498>
    6a9f:	0f b6 00             	movzbl (%rax),%eax
    6aa2:	84 c0                	test   %al,%al
    6aa4:	75 07                	jne    6aad <func_1+0x2f8>
    6aa6:	b8 01 00 00 00       	mov    $0x1,%eax
    6aab:	eb 05                	jmp    6ab2 <func_1+0x2fd>
    6aad:	b8 00 00 00 00       	mov    $0x0,%eax
    6ab2:	0f b7 c0             	movzwl %ax,%eax
    6ab5:	41 39 c6             	cmp    %eax,%r14d
    6ab8:	0f 97 c0             	seta   %al
    6abb:	0f b6 c0             	movzbl %al,%eax
    6abe:	4c 89 ee             	mov    %r13,%rsi
    6ac1:	48 89 c7             	mov    %rax,%rdi
    6ac4:	e8 65 f5 ff ff       	callq  602e <safe_add_func_uint64_t_u_u>
    6ac9:	48 39 85 d8 f4 ff ff 	cmp    %rax,-0xb28(%rbp)
    6ad0:	0f 95 c0             	setne  %al
    6ad3:	0f b6 d0             	movzbl %al,%edx
    6ad6:	8b 85 30 f4 ff ff    	mov    -0xbd0(%rbp),%eax
    6adc:	09 d0                	or     %edx,%eax
    6ade:	89 05 5c e6 00 00    	mov    %eax,0xe65c(%rip)        # 15140 <g_1010>
    6ae4:	b8 01 00 00 00       	mov    $0x1,%eax
    6ae9:	98                   	cwtl   
    6aea:	44 89 e6             	mov    %r12d,%esi
    6aed:	89 c7                	mov    %eax,%edi
    6aef:	e8 01 e9 ff ff       	callq  53f5 <safe_mul_func_int16_t_s_s>
    6af4:	48 0f bf c0          	movswq %ax,%rax
    6af8:	48 89 de             	mov    %rbx,%rsi
    6afb:	48 89 c7             	mov    %rax,%rdi
    6afe:	e8 a5 ed ff ff       	callq  58a8 <safe_sub_func_int64_t_s_s>
    6b03:	48 85 c0             	test   %rax,%rax
    6b06:	0f 84 02 09 00 00    	je     740e <func_1+0xc59>
    6b0c:	c6 85 2b f4 ff ff 06 	movb   $0x6,-0xbd5(%rbp)
    6b13:	c7 85 5c f4 ff ff 01 	movl   $0x1,-0xba4(%rbp)
    6b1a:	00 00 00 
    6b1d:	c7 85 60 f4 ff ff f7 	movl   $0x2a2650f7,-0xba0(%rbp)
    6b24:	50 26 2a 
    6b27:	c7 85 64 f4 ff ff 01 	movl   $0x1,-0xb9c(%rbp)
    6b2e:	00 00 00 
    6b31:	c7 85 68 f4 ff ff 07 	movl   $0x7,-0xb98(%rbp)
    6b38:	00 00 00 
    6b3b:	c7 85 6c f4 ff ff 00 	movl   $0x0,-0xb94(%rbp)
    6b42:	00 00 00 
    6b45:	c7 85 70 f4 ff ff ff 	movl   $0xffffffff,-0xb90(%rbp)
    6b4c:	ff ff ff 
    6b4f:	c7 05 2f e6 00 00 00 	movl   $0x0,0xe62f(%rip)        # 15188 <g_1463>
    6b56:	00 00 00 
    6b59:	eb 31                	jmp    6b8c <func_1+0x3d7>
    6b5b:	8b 05 27 e6 00 00    	mov    0xe627(%rip),%eax        # 15188 <g_1463>
    6b61:	48 98                	cltq   
    6b63:	48 8d 14 c5 00 00 00 	lea    0x0(,%rax,8),%rdx
    6b6a:	00 
    6b6b:	48 8d 05 0e f7 00 00 	lea    0xf70e(%rip),%rax        # 16280 <g_1354>
    6b72:	48 8d 0d d7 e5 00 00 	lea    0xe5d7(%rip),%rcx        # 15150 <g_1024>
    6b79:	48 89 0c 02          	mov    %rcx,(%rdx,%rax,1)
    6b7d:	8b 05 05 e6 00 00    	mov    0xe605(%rip),%eax        # 15188 <g_1463>
    6b83:	83 c0 01             	add    $0x1,%eax
    6b86:	89 05 fc e5 00 00    	mov    %eax,0xe5fc(%rip)        # 15188 <g_1463>
    6b8c:	8b 05 f6 e5 00 00    	mov    0xe5f6(%rip),%eax        # 15188 <g_1463>
    6b92:	83 f8 08             	cmp    $0x8,%eax
    6b95:	7e c4                	jle    6b5b <func_1+0x3a6>
    6b97:	66 c7 05 b4 e4 00 00 	movw   $0x0,0xe4b4(%rip)        # 15054 <g_141>
    6b9e:	00 00 
    6ba0:	e9 06 08 00 00       	jmpq   73ab <func_1+0xbf6>
    6ba5:	48 8d 85 a0 f4 ff ff 	lea    -0xb60(%rbp),%rax
    6bac:	48 89 85 28 f5 ff ff 	mov    %rax,-0xad8(%rbp)
    6bb3:	c7 85 74 f4 ff ff 9a 	movl   $0xe2fbe79a,-0xb8c(%rbp)
    6bba:	e7 fb e2 
    6bbd:	c6 85 2c f4 ff ff 00 	movb   $0x0,-0xbd4(%rbp)
    6bc4:	c6 85 2d f4 ff ff fd 	movb   $0xfd,-0xbd3(%rbp)
    6bcb:	c7 85 78 f4 ff ff 79 	movl   $0xb2565979,-0xb88(%rbp)
    6bd2:	59 56 b2 
    6bd5:	c7 85 40 f4 ff ff 00 	movl   $0x0,-0xbc0(%rbp)
    6bdc:	00 00 00 
    6bdf:	eb 1a                	jmp    6bfb <func_1+0x446>
    6be1:	8b 85 40 f4 ff ff    	mov    -0xbc0(%rbp),%eax
    6be7:	48 98                	cltq   
    6be9:	c7 84 85 90 f5 ff ff 	movl   $0xffffffff,-0xa70(%rbp,%rax,4)
    6bf0:	ff ff ff ff 
    6bf4:	83 85 40 f4 ff ff 01 	addl   $0x1,-0xbc0(%rbp)
    6bfb:	83 bd 40 f4 ff ff 04 	cmpl   $0x4,-0xbc0(%rbp)
    6c02:	7e dd                	jle    6be1 <func_1+0x42c>
    6c04:	48 c7 05 d9 e4 00 00 	movq   $0x0,0xe4d9(%rip)        # 150e8 <g_338>
    6c0b:	00 00 00 00 
    6c0f:	e9 66 07 00 00       	jmpq   737a <func_1+0xbc5>
    6c14:	48 8d 05 21 e4 00 00 	lea    0xe421(%rip),%rax        # 1503c <g_76>
    6c1b:	48 89 85 30 f5 ff ff 	mov    %rax,-0xad0(%rbp)
    6c22:	48 b8 d6 af 33 ba 8d 	movabs $0x6fa1418dba33afd6,%rax
    6c29:	41 a1 6f 
    6c2c:	48 89 85 38 f5 ff ff 	mov    %rax,-0xac8(%rbp)
    6c33:	48 8d 05 8e f6 00 00 	lea    0xf68e(%rip),%rax        # 162c8 <g_1468>
    6c3a:	48 89 85 40 f5 ff ff 	mov    %rax,-0xac0(%rbp)
    6c41:	c7 85 7c f4 ff ff fa 	movl   $0xfffffffa,-0xb84(%rbp)
    6c48:	ff ff ff 
    6c4b:	c7 85 80 f4 ff ff 55 	movl   $0x954f55,-0xb80(%rbp)
    6c52:	4f 95 00 
    6c55:	c7 85 84 f4 ff ff 00 	movl   $0x0,-0xb7c(%rbp)
    6c5c:	00 00 00 
    6c5f:	c7 85 88 f4 ff ff ff 	movl   $0xffffffff,-0xb78(%rbp)
    6c66:	ff ff ff 
    6c69:	c7 85 8c f4 ff ff 1d 	movl   $0x897e631d,-0xb74(%rbp)
    6c70:	63 7e 89 
    6c73:	c7 85 e0 f5 ff ff 00 	movl   $0x0,-0xa20(%rbp)
    6c7a:	00 00 00 
    6c7d:	c7 85 e4 f5 ff ff 00 	movl   $0x0,-0xa1c(%rbp)
    6c84:	00 00 00 
    6c87:	c7 85 e8 f5 ff ff 42 	movl   $0x1ec73442,-0xa18(%rbp)
    6c8e:	34 c7 1e 
    6c91:	c7 85 ec f5 ff ff 00 	movl   $0x0,-0xa14(%rbp)
    6c98:	00 00 00 
    6c9b:	c7 85 f0 f5 ff ff 00 	movl   $0x0,-0xa10(%rbp)
    6ca2:	00 00 00 
    6ca5:	c7 85 f4 f5 ff ff 42 	movl   $0x1ec73442,-0xa0c(%rbp)
    6cac:	34 c7 1e 
    6caf:	c7 85 f8 f5 ff ff 00 	movl   $0x0,-0xa08(%rbp)
    6cb6:	00 00 00 
    6cb9:	48 8b 15 28 e4 00 00 	mov    0xe428(%rip),%rdx        # 150e8 <g_338>
    6cc0:	48 8b 0d 21 e4 00 00 	mov    0xe421(%rip),%rcx        # 150e8 <g_338>
    6cc7:	48 89 d0             	mov    %rdx,%rax
    6cca:	48 c1 e0 02          	shl    $0x2,%rax
    6cce:	48 01 d0             	add    %rdx,%rax
    6cd1:	48 01 c0             	add    %rax,%rax
    6cd4:	48 01 c8             	add    %rcx,%rax
    6cd7:	48 8d 14 00          	lea    (%rax,%rax,1),%rdx
    6cdb:	48 8d 05 9e e3 00 00 	lea    0xe39e(%rip),%rax        # 15080 <g_298>
    6ce2:	0f b7 04 02          	movzwl (%rdx,%rax,1),%eax
    6ce6:	66 85 c0             	test   %ax,%ax
    6ce9:	0f 85 9e 06 00 00    	jne    738d <func_1+0xbd8>
    6cef:	c6 05 97 e4 00 00 0f 	movb   $0xf,0xe497(%rip)        # 1518d <g_1532>
    6cf6:	eb 6b                	jmp    6d63 <func_1+0x5ae>
    6cf8:	48 8d 85 a0 f4 ff ff 	lea    -0xb60(%rbp),%rax
    6cff:	48 89 85 c0 f4 ff ff 	mov    %rax,-0xb40(%rbp)
    6d06:	c7 85 44 f4 ff ff 00 	movl   $0x0,-0xbbc(%rbp)
    6d0d:	00 00 00 
    6d10:	eb 1e                	jmp    6d30 <func_1+0x57b>
    6d12:	8b 85 44 f4 ff ff    	mov    -0xbbc(%rbp),%eax
    6d18:	48 98                	cltq   
    6d1a:	48 8d 95 c0 f4 ff ff 	lea    -0xb40(%rbp),%rdx
    6d21:	48 89 94 c5 10 f8 ff 	mov    %rdx,-0x7f0(%rbp,%rax,8)
    6d28:	ff 
    6d29:	83 85 44 f4 ff ff 01 	addl   $0x1,-0xbbc(%rbp)
    6d30:	83 bd 44 f4 ff ff 01 	cmpl   $0x1,-0xbbc(%rbp)
    6d37:	7e d9                	jle    6d12 <func_1+0x55d>
    6d39:	48 8d 05 10 ea 00 00 	lea    0xea10(%rip),%rax        # 15750 <g_92>
    6d40:	48 89 85 28 f5 ff ff 	mov    %rax,-0xad8(%rbp)
    6d47:	0f b6 05 3f e4 00 00 	movzbl 0xe43f(%rip),%eax        # 1518d <g_1532>
    6d4e:	0f be c0             	movsbl %al,%eax
    6d51:	be 08 00 00 00       	mov    $0x8,%esi
    6d56:	89 c7                	mov    %eax,%edi
    6d58:	e8 95 e4 ff ff       	callq  51f2 <safe_sub_func_int8_t_s_s>
    6d5d:	88 05 2a e4 00 00    	mov    %al,0xe42a(%rip)        # 1518d <g_1532>
    6d63:	0f b6 05 23 e4 00 00 	movzbl 0xe423(%rip),%eax        # 1518d <g_1532>
    6d6a:	3c f7                	cmp    $0xf7,%al
    6d6c:	75 8a                	jne    6cf8 <func_1+0x543>
    6d6e:	c7 05 ec e3 00 00 04 	movl   $0x4,0xe3ec(%rip)        # 15164 <g_1170>
    6d75:	00 00 00 
    6d78:	e9 dc 05 00 00       	jmpq   7359 <func_1+0xba4>
    6d7d:	c7 85 90 f4 ff ff de 	movl   $0xea2ef1de,-0xb70(%rbp)
    6d84:	f1 2e ea 
    6d87:	c7 85 94 f4 ff ff 63 	movl   $0x7e1e0863,-0xb6c(%rbp)
    6d8e:	08 1e 7e 
    6d91:	48 8d 05 30 f5 00 00 	lea    0xf530(%rip),%rax        # 162c8 <g_1468>
    6d98:	48 89 85 48 f5 ff ff 	mov    %rax,-0xab8(%rbp)
    6d9f:	c7 45 be d2 d2 d2 d2 	movl   $0xd2d2d2d2,-0x42(%rbp)
    6da6:	66 c7 45 c2 d2 d2    	movw   $0xd2d2,-0x3e(%rbp)
    6dac:	c6 45 c4 d2          	movb   $0xd2,-0x3c(%rbp)
    6db0:	c7 85 98 f4 ff ff ea 	movl   $0x9afc4eea,-0xb68(%rbp)
    6db7:	4e fc 9a 
    6dba:	c7 05 60 e2 00 00 00 	movl   $0x0,0xe260(%rip)        # 15024 <g_6>
    6dc1:	00 00 00 
    6dc4:	e9 47 03 00 00       	jmpq   7110 <func_1+0x95b>
    6dc9:	48 8d 85 30 f4 ff ff 	lea    -0xbd0(%rbp),%rax
    6dd0:	48 89 85 68 f5 ff ff 	mov    %rax,-0xa98(%rbp)
    6dd7:	66 c7 85 2e f4 ff ff 	movw   $0x2,-0xbd2(%rbp)
    6dde:	02 00 
    6de0:	48 8d 05 51 a3 00 00 	lea    0xa351(%rip),%rax        # 11138 <g_2031>
    6de7:	48 89 85 b8 f4 ff ff 	mov    %rax,-0xb48(%rbp)
    6dee:	48 8d 85 b8 f4 ff ff 	lea    -0xb48(%rbp),%rax
    6df5:	48 89 85 c0 f4 ff ff 	mov    %rax,-0xb40(%rbp)
    6dfc:	48 8d 85 c0 f4 ff ff 	lea    -0xb40(%rbp),%rax
    6e03:	48 89 85 70 f5 ff ff 	mov    %rax,-0xa90(%rbp)
    6e0a:	48 8d 05 2b e2 00 00 	lea    0xe22b(%rip),%rax        # 1503c <g_76>
    6e11:	48 89 85 78 f5 ff ff 	mov    %rax,-0xa88(%rbp)
    6e18:	48 0f be 9d 2c f4 ff 	movsbq -0xbd4(%rbp),%rbx
    6e1f:	ff 
    6e20:	48 8b 05 49 f4 00 00 	mov    0xf449(%rip),%rax        # 16270 <g_1095>
    6e27:	48 8b 00             	mov    (%rax),%rax
    6e2a:	0f b7 00             	movzwl (%rax),%eax
    6e2d:	44 0f bf e0          	movswl %ax,%r12d
    6e31:	48 8b 05 30 f4 00 00 	mov    0xf430(%rip),%rax        # 16268 <g_1096>
    6e38:	0f b7 00             	movzwl (%rax),%eax
    6e3b:	44 0f bf e8          	movswl %ax,%r13d
    6e3f:	0f be 85 2b f4 ff ff 	movsbl -0xbd5(%rbp),%eax
    6e46:	89 85 94 f4 ff ff    	mov    %eax,-0xb6c(%rbp)
    6e4c:	8b 85 94 f4 ff ff    	mov    -0xb6c(%rbp),%eax
    6e52:	0f b6 c8             	movzbl %al,%ecx
    6e55:	48 8b 05 0c e9 00 00 	mov    0xe90c(%rip),%rax        # 15768 <g_498>
    6e5c:	0f b6 10             	movzbl (%rax),%edx
    6e5f:	8d 72 ff             	lea    -0x1(%rdx),%esi
    6e62:	40 88 30             	mov    %sil,(%rax)
    6e65:	0f b6 c2             	movzbl %dl,%eax
    6e68:	89 ce                	mov    %ecx,%esi
    6e6a:	89 c7                	mov    %eax,%edi
    6e6c:	e8 6a ed ff ff       	callq  5bdb <safe_div_func_uint8_t_u_u>
    6e71:	48 8b 85 a0 f4 ff ff 	mov    -0xb60(%rbp),%rax
    6e78:	0f b7 95 2e f4 ff ff 	movzwl -0xbd2(%rbp),%edx
    6e7f:	88 10                	mov    %dl,(%rax)
    6e81:	0f b6 00             	movzbl (%rax),%eax
    6e84:	44 0f be f0          	movsbl %al,%r14d
    6e88:	48 8b 05 39 f4 00 00 	mov    0xf439(%rip),%rax        # 162c8 <g_1468>
    6e8f:	0f b7 00             	movzwl (%rax),%eax
    6e92:	66 3d db 52          	cmp    $0x52db,%ax
    6e96:	0f 9e c0             	setle  %al
    6e99:	0f b6 d0             	movzbl %al,%edx
    6e9c:	0f b7 05 d5 e1 00 00 	movzwl 0xe1d5(%rip),%eax        # 15078 <g_296+0x8>
    6ea3:	48 0f bf c0          	movswq %ax,%rax
    6ea7:	48 39 c2             	cmp    %rax,%rdx
    6eaa:	0f 97 c0             	seta   %al
    6ead:	0f b6 c0             	movzbl %al,%eax
    6eb0:	39 85 94 f4 ff ff    	cmp    %eax,-0xb6c(%rbp)
    6eb6:	0f 94 c0             	sete   %al
    6eb9:	0f b6 d0             	movzbl %al,%edx
    6ebc:	66 0f be 85 2b f4 ff 	movsbw -0xbd5(%rbp),%ax
    6ec3:	ff 
    6ec4:	09 d0                	or     %edx,%eax
    6ec6:	0f b7 c0             	movzwl %ax,%eax
    6ec9:	be 2b b6 00 00       	mov    $0xb62b,%esi
    6ece:	89 c7                	mov    %eax,%edi
    6ed0:	e8 b9 ee ff ff       	callq  5d8e <safe_div_func_uint16_t_u_u>
    6ed5:	0f b7 c0             	movzwl %ax,%eax
    6ed8:	41 39 c6             	cmp    %eax,%r14d
    6edb:	0f 9d c0             	setge  %al
    6ede:	0f b6 c0             	movzbl %al,%eax
    6ee1:	44 89 ee             	mov    %r13d,%esi
    6ee4:	89 c7                	mov    %eax,%edi
    6ee6:	e8 0a e5 ff ff       	callq  53f5 <safe_mul_func_int16_t_s_s>
    6eeb:	98                   	cwtl   
    6eec:	44 89 e6             	mov    %r12d,%esi
    6eef:	89 c7                	mov    %eax,%edi
    6ef1:	e8 bd e4 ff ff       	callq  53b3 <safe_add_func_int16_t_s_s>
    6ef6:	be 00 00 00 00       	mov    $0x0,%esi
    6efb:	bf 01 00 00 00       	mov    $0x1,%edi
    6f00:	e8 3c e9 ff ff       	callq  5841 <safe_add_func_int64_t_s_s>
    6f05:	48 89 de             	mov    %rbx,%rsi
    6f08:	48 bf 4f af c4 8e 90 	movabs $0x80043d908ec4af4f,%rdi
    6f0f:	3d 04 80 
    6f12:	e8 69 f1 ff ff       	callq  6080 <safe_mod_func_uint64_t_u_u>
    6f17:	8b 95 90 f4 ff ff    	mov    -0xb70(%rbp),%edx
    6f1d:	48 63 d2             	movslq %edx,%rdx
    6f20:	48 39 d0             	cmp    %rdx,%rax
    6f23:	0f 93 c0             	setae  %al
    6f26:	0f b6 d0             	movzbl %al,%edx
    6f29:	48 8b 05 58 f1 00 00 	mov    0xf158(%rip),%rax        # 16088 <g_792>
    6f30:	8b 00                	mov    (%rax),%eax
    6f32:	39 c2                	cmp    %eax,%edx
    6f34:	0f 94 c0             	sete   %al
    6f37:	0f b6 c0             	movzbl %al,%eax
    6f3a:	ba 06 00 00 00       	mov    $0x6,%edx
    6f3f:	39 d0                	cmp    %edx,%eax
    6f41:	0f 93 c0             	setae  %al
    6f44:	0f b6 d0             	movzbl %al,%edx
    6f47:	8b 85 90 f4 ff ff    	mov    -0xb70(%rbp),%eax
    6f4d:	0f b7 c0             	movzwl %ax,%eax
    6f50:	89 d6                	mov    %edx,%esi
    6f52:	89 c7                	mov    %eax,%edi
    6f54:	e8 c6 ed ff ff       	callq  5d1f <safe_sub_func_uint16_t_u_u>
    6f59:	48 8b 85 70 f5 ff ff 	mov    -0xa90(%rbp),%rax
    6f60:	48 c7 00 00 00 00 00 	movq   $0x0,(%rax)
    6f67:	48 8b 85 70 f5 ff ff 	mov    -0xa90(%rbp),%rax
    6f6e:	48 8b 00             	mov    (%rax),%rax
    6f71:	48 39 85 48 f5 ff ff 	cmp    %rax,-0xab8(%rbp)
    6f78:	0f 95 c0             	setne  %al
    6f7b:	0f b6 c0             	movzbl %al,%eax
    6f7e:	be 02 00 00 00       	mov    $0x2,%esi
    6f83:	89 c7                	mov    %eax,%edi
    6f85:	e8 34 ed ff ff       	callq  5cbe <safe_rshift_func_uint8_t_u_u>
    6f8a:	0f b6 d0             	movzbl %al,%edx
    6f8d:	8b 05 91 e0 00 00    	mov    0xe091(%rip),%eax        # 15024 <g_6>
    6f93:	48 98                	cltq   
    6f95:	48 8d 0d bc e0 00 00 	lea    0xe0bc(%rip),%rcx        # 15058 <g_177>
    6f9c:	0f b6 04 08          	movzbl (%rax,%rcx,1),%eax
    6fa0:	0f be c8             	movsbl %al,%ecx
    6fa3:	48 8b 85 68 f5 ff ff 	mov    -0xa98(%rbp),%rax
    6faa:	89 08                	mov    %ecx,(%rax)
    6fac:	48 8b 85 68 f5 ff ff 	mov    -0xa98(%rbp),%rax
    6fb3:	8b 00                	mov    (%rax),%eax
    6fb5:	89 d6                	mov    %edx,%esi
    6fb7:	89 c7                	mov    %eax,%edi
    6fb9:	e8 f8 e5 ff ff       	callq  55b6 <safe_add_func_int32_t_s_s>
    6fbe:	88 45 c3             	mov    %al,-0x3d(%rbp)
    6fc1:	48 8b 05 10 f3 00 00 	mov    0xf310(%rip),%rax        # 162d8 <g_1742>
    6fc8:	48 8b 00             	mov    (%rax),%rax
    6fcb:	48 89 85 30 f5 ff ff 	mov    %rax,-0xad0(%rbp)
    6fd2:	48 8b 05 ef f2 00 00 	mov    0xf2ef(%rip),%rax        # 162c8 <g_1468>
    6fd9:	0f b7 00             	movzwl (%rax),%eax
    6fdc:	0f b7 d8             	movzwl %ax,%ebx
    6fdf:	0f b6 45 c0          	movzbl -0x40(%rbp),%eax
    6fe3:	44 0f be f8          	movsbl %al,%r15d
    6fe7:	44 8b a5 30 f4 ff ff 	mov    -0xbd0(%rbp),%r12d
    6fee:	8b 85 90 f4 ff ff    	mov    -0xb70(%rbp),%eax
    6ff4:	44 0f bf e8          	movswl %ax,%r13d
    6ff8:	48 8b 05 69 e7 00 00 	mov    0xe769(%rip),%rax        # 15768 <g_498>
    6fff:	0f b6 00             	movzbl (%rax),%eax
    7002:	44 0f be f0          	movsbl %al,%r14d
    7006:	80 bd 2b f4 ff ff 00 	cmpb   $0x0,-0xbd5(%rbp)
    700d:	74 1a                	je     7029 <func_1+0x874>
    700f:	48 8b 85 68 f5 ff ff 	mov    -0xa98(%rbp),%rax
    7016:	8b 00                	mov    (%rax),%eax
    7018:	0f b6 c0             	movzbl %al,%eax
    701b:	be 05 00 00 00       	mov    $0x5,%esi
    7020:	89 c7                	mov    %eax,%edi
    7022:	e8 25 ec ff ff       	callq  5c4c <safe_lshift_func_uint8_t_u_u>
    7027:	84 c0                	test   %al,%al
    7029:	48 83 bd 38 f5 ff ff 	cmpq   $0x0,-0xac8(%rbp)
    7030:	00 
    7031:	0f 9e c0             	setle  %al
    7034:	0f b6 c0             	movzbl %al,%eax
    7037:	44 89 f6             	mov    %r14d,%esi
    703a:	89 c7                	mov    %eax,%edi
    703c:	e8 93 e1 ff ff       	callq  51d4 <safe_add_func_int8_t_s_s>
    7041:	0f be c0             	movsbl %al,%eax
    7044:	44 89 ee             	mov    %r13d,%esi
    7047:	89 c7                	mov    %eax,%edi
    7049:	e8 85 e3 ff ff       	callq  53d3 <safe_sub_func_int16_t_s_s>
    704e:	0f bf d0             	movswl %ax,%edx
    7051:	48 8b 85 78 f5 ff ff 	mov    -0xa88(%rbp),%rax
    7058:	89 10                	mov    %edx,(%rax)
    705a:	48 8b 85 78 f5 ff ff 	mov    -0xa88(%rbp),%rax
    7061:	8b 00                	mov    (%rax),%eax
    7063:	44 89 e6             	mov    %r12d,%esi
    7066:	89 c7                	mov    %eax,%edi
    7068:	e8 98 e5 ff ff       	callq  5605 <safe_sub_func_int32_t_s_s>
    706d:	48 8b 85 70 f5 ff ff 	mov    -0xa90(%rbp),%rax
    7074:	48 8b 00             	mov    (%rax),%rax
    7077:	48 39 85 40 f5 ff ff 	cmp    %rax,-0xac0(%rbp)
    707e:	0f 94 c0             	sete   %al
    7081:	0f b6 d0             	movzbl %al,%edx
    7084:	48 8b 85 68 f5 ff ff 	mov    -0xa98(%rbp),%rax
    708b:	8b 00                	mov    (%rax),%eax
    708d:	89 d6                	mov    %edx,%esi
    708f:	89 c7                	mov    %eax,%edi
    7091:	e8 6f e5 ff ff       	callq  5605 <safe_sub_func_int32_t_s_s>
    7096:	83 f8 03             	cmp    $0x3,%eax
    7099:	0f 9f c0             	setg   %al
    709c:	0f b6 c0             	movzbl %al,%eax
    709f:	41 39 c7             	cmp    %eax,%r15d
    70a2:	0f 9f c0             	setg   %al
    70a5:	0f b6 d0             	movzbl %al,%edx
    70a8:	48 8b 05 b9 f1 00 00 	mov    0xf1b9(%rip),%rax        # 16268 <g_1096>
    70af:	0f b7 00             	movzwl (%rax),%eax
    70b2:	09 d0                	or     %edx,%eax
    70b4:	0f b7 d0             	movzwl %ax,%edx
    70b7:	48 8b 05 aa f1 00 00 	mov    0xf1aa(%rip),%rax        # 16268 <g_1096>
    70be:	0f b7 00             	movzwl (%rax),%eax
    70c1:	0f b7 c0             	movzwl %ax,%eax
    70c4:	89 d6                	mov    %edx,%esi
    70c6:	89 c7                	mov    %eax,%edi
    70c8:	e8 70 ec ff ff       	callq  5d3d <safe_mul_func_uint16_t_u_u>
    70cd:	8b 05 59 df 00 00    	mov    0xdf59(%rip),%eax        # 1502c <g_43>
    70d3:	89 de                	mov    %ebx,%esi
    70d5:	bf 01 00 00 00       	mov    $0x1,%edi
    70da:	e8 20 ec ff ff       	callq  5cff <safe_add_func_uint16_t_u_u>
    70df:	0f b7 d0             	movzwl %ax,%edx
    70e2:	8b 05 b0 e0 00 00    	mov    0xe0b0(%rip),%eax        # 15198 <g_2053>
    70e8:	21 d0                	and    %edx,%eax
    70ea:	89 05 a8 e0 00 00    	mov    %eax,0xe0a8(%rip)        # 15198 <g_2053>
    70f0:	48 8b 05 69 f7 00 00 	mov    0xf769(%rip),%rax        # 16860 <g_2058>
    70f7:	48 8b 15 02 f2 00 00 	mov    0xf202(%rip),%rdx        # 16300 <g_2054>
    70fe:	48 89 10             	mov    %rdx,(%rax)
    7101:	8b 05 1d df 00 00    	mov    0xdf1d(%rip),%eax        # 15024 <g_6>
    7107:	83 c0 01             	add    $0x1,%eax
    710a:	89 05 14 df 00 00    	mov    %eax,0xdf14(%rip)        # 15024 <g_6>
    7110:	8b 05 0e df 00 00    	mov    0xdf0e(%rip),%eax        # 15024 <g_6>
    7116:	83 f8 02             	cmp    $0x2,%eax
    7119:	0f 8e aa fc ff ff    	jle    6dc9 <func_1+0x614>
    711f:	48 8b 05 1a e6 00 00 	mov    0xe61a(%rip),%rax        # 15740 <g_5>
    7126:	8b 00                	mov    (%rax),%eax
    7128:	89 c2                	mov    %eax,%edx
    712a:	48 8b 85 d8 f4 ff ff 	mov    -0xb28(%rbp),%rax
    7131:	21 c2                	and    %eax,%edx
    7133:	48 8b 05 06 e6 00 00 	mov    0xe606(%rip),%rax        # 15740 <g_5>
    713a:	89 10                	mov    %edx,(%rax)
    713c:	48 c7 05 19 df 00 00 	movq   $0x12,0xdf19(%rip)        # 15060 <g_201>
    7143:	12 00 00 00 
    7147:	e9 ed 01 00 00       	jmpq   7339 <func_1+0xb84>
    714c:	48 8d 05 19 df 00 00 	lea    0xdf19(%rip),%rax        # 1506c <g_253>
    7153:	48 89 85 50 f5 ff ff 	mov    %rax,-0xab0(%rbp)
    715a:	48 8d 05 ef df 00 00 	lea    0xdfef(%rip),%rax        # 15150 <g_1024>
    7161:	48 89 85 58 f5 ff ff 	mov    %rax,-0xaa8(%rbp)
    7168:	48 8d 85 30 f4 ff ff 	lea    -0xbd0(%rbp),%rax
    716f:	48 89 85 60 f5 ff ff 	mov    %rax,-0xaa0(%rbp)
    7176:	c7 85 10 f8 ff ff 6e 	movl   $0xd85a0c6e,-0x7f0(%rbp)
    717d:	0c 5a d8 
    7180:	c7 85 14 f8 ff ff 20 	movl   $0x7303e020,-0x7ec(%rbp)
    7187:	e0 03 73 
    718a:	c7 85 18 f8 ff ff 61 	movl   $0xac001a61,-0x7e8(%rbp)
    7191:	1a 00 ac 
    7194:	c7 85 1c f8 ff ff 01 	movl   $0x7d002001,-0x7e4(%rbp)
    719b:	20 00 7d 
    719e:	c7 85 20 f8 ff ff fc 	movl   $0xffd8f6fc,-0x7e0(%rbp)
    71a5:	f6 d8 ff 
    71a8:	c7 85 24 f8 ff ff 2c 	movl   $0xfd2c912c,-0x7dc(%rbp)
    71af:	91 2c fd 
    71b2:	c7 85 28 f8 ff ff ae 	movl   $0xfce0d8ae,-0x7d8(%rbp)
    71b9:	d8 e0 fc 
    71bc:	c7 85 2c f8 ff ff fd 	movl   $0xd838adfd,-0x7d4(%rbp)
    71c3:	ad 38 d8 
    71c6:	c7 85 30 f8 ff ff ae 	movl   $0xff38ffae,-0x7d0(%rbp)
    71cd:	ff 38 ff 
    71d0:	c7 85 34 f8 ff ff fd 	movl   $0xe003fd,-0x7cc(%rbp)
    71d7:	03 e0 00 
    71da:	c7 85 38 f8 ff ff ae 	movl   $0xf32c16ae,-0x7c8(%rbp)
    71e1:	16 2c f3 
    71e4:	c7 85 3c f8 ff ff 2c 	movl   $0x8d8f32c,-0x7c4(%rbp)
    71eb:	f3 d8 08 
    71ee:	c7 85 40 f8 ff ff fc 	movl   $0x320001fc,-0x7c0(%rbp)
    71f5:	01 00 32 
    71f8:	c7 85 44 f8 ff ff 01 	movl   $0xca008801,-0x7bc(%rbp)
    71ff:	88 00 ca 
    7202:	c7 85 48 f8 ff ff 61 	movl   $0x34361,-0x7b8(%rbp)
    7209:	43 03 00 
    720c:	c7 85 4c f8 ff ff 20 	movl   $0x610820,-0x7b4(%rbp)
    7213:	08 61 00 
    7216:	c7 85 50 f8 ff ff 78 	movl   $0xfc32ff78,-0x7b0(%rbp)
    721d:	ff 32 fc 
    7220:	c7 85 54 f8 ff ff 66 	movl   $0xfd38f766,-0x7ac(%rbp)
    7227:	f7 38 fd 
    722a:	c7 85 58 f8 ff ff 08 	movl   $0x9f000008,-0x7a8(%rbp)
    7231:	00 00 9f 
    7234:	c7 85 5c f8 ff ff fc 	movl   $0x3d8fc,-0x7a4(%rbp)
    723b:	d8 03 00 
    723e:	c7 85 60 f8 ff ff 88 	movl   $0x73fe0c88,-0x7a0(%rbp)
    7245:	0c fe 73 
    7248:	c7 85 64 f8 ff ff 08 	movl   $0x3030308,-0x79c(%rbp)
    724f:	03 03 03 
    7252:	c7 85 68 f8 ff ff 08 	movl   $0xfe0808,-0x798(%rbp)
    7259:	08 fe 00 
    725c:	c7 85 6c f8 ff ff fd 	movl   $0xffcd73fd,-0x794(%rbp)
    7263:	73 cd ff 
    7266:	c7 85 70 f8 ff ff 43 	movl   $0xcdff0043,-0x790(%rbp)
    726d:	00 ff cd 
    7270:	c7 85 74 f8 ff ff 16 	movl   $0xff090016,-0x78c(%rbp)
    7277:	00 09 ff 
    727a:	c7 85 78 f8 ff ff 00 	movl   $0x887300,-0x788(%rbp)
    7281:	73 88 00 
    7284:	c7 85 7c f8 ff ff 38 	movl   $0x3010838,-0x784(%rbp)
    728b:	08 01 03 
    728e:	c7 85 80 f8 ff ff d9 	movl   $0x731603d9,-0x780(%rbp)
    7295:	03 16 73 
    7298:	c7 85 84 f8 ff ff fc 	movl   $0xff0cfc,-0x77c(%rbp)
    729f:	0c ff 00 
    72a2:	c7 85 88 f8 ff ff 5a 	movl   $0x9f69d85a,-0x778(%rbp)
    72a9:	d8 69 9f 
    72ac:	c7 85 8c f8 ff ff f3 	movl   $0xfdd800f3,-0x774(%rbp)
    72b3:	00 d8 fd 
    72b6:	c7 85 90 f8 ff ff 69 	movl   $0xfc00f769,-0x770(%rbp)
    72bd:	f7 00 fc 
    72c0:	c7 85 94 f8 ff ff 00 	movl   $0xadff00,-0x76c(%rbp)
    72c7:	ff ad 00 
    72ca:	c7 85 98 f8 ff ff 00 	movl   $0x3208fe00,-0x768(%rbp)
    72d1:	fe 08 32 
    72d4:	c7 85 9c f4 ff ff 87 	movl   $0xf1c54887,-0xb64(%rbp)
    72db:	48 c5 f1 
    72de:	c7 85 48 f4 ff ff 00 	movl   $0x0,-0xbb8(%rbp)
    72e5:	00 00 00 
    72e8:	eb 1b                	jmp    7305 <func_1+0xb50>
    72ea:	8b 85 48 f4 ff ff    	mov    -0xbb8(%rbp),%eax
    72f0:	48 98                	cltq   
    72f2:	48 c7 84 c5 b0 f5 ff 	movq   $0x0,-0xa50(%rbp,%rax,8)
    72f9:	ff 00 00 00 00 
    72fe:	83 85 48 f4 ff ff 01 	addl   $0x1,-0xbb8(%rbp)
    7305:	83 bd 48 f4 ff ff 02 	cmpl   $0x2,-0xbb8(%rbp)
    730c:	7e dc                	jle    72ea <func_1+0xb35>
    730e:	48 83 ad c8 f4 ff ff 	subq   $0x1,-0xb38(%rbp)
    7315:	01 
    7316:	83 ad 9c f4 ff ff 01 	subl   $0x1,-0xb64(%rbp)
    731d:	48 8b 05 3c dd 00 00 	mov    0xdd3c(%rip),%rax        # 15060 <g_201>
    7324:	be 01 00 00 00       	mov    $0x1,%esi
    7329:	89 c7                	mov    %eax,%edi
    732b:	e8 86 e2 ff ff       	callq  55b6 <safe_add_func_int32_t_s_s>
    7330:	48 98                	cltq   
    7332:	48 89 05 27 dd 00 00 	mov    %rax,0xdd27(%rip)        # 15060 <g_201>
    7339:	48 8b 05 20 dd 00 00 	mov    0xdd20(%rip),%rax        # 15060 <g_201>
    7340:	48 83 f8 2a          	cmp    $0x2a,%rax
    7344:	0f 85 02 fe ff ff    	jne    714c <func_1+0x997>
    734a:	8b 05 14 de 00 00    	mov    0xde14(%rip),%eax        # 15164 <g_1170>
    7350:	83 c0 01             	add    $0x1,%eax
    7353:	89 05 0b de 00 00    	mov    %eax,0xde0b(%rip)        # 15164 <g_1170>
    7359:	8b 05 05 de 00 00    	mov    0xde05(%rip),%eax        # 15164 <g_1170>
    735f:	83 f8 2e             	cmp    $0x2e,%eax
    7362:	0f 87 15 fa ff ff    	ja     6d7d <func_1+0x5c8>
    7368:	48 8b 05 79 dd 00 00 	mov    0xdd79(%rip),%rax        # 150e8 <g_338>
    736f:	48 83 c0 01          	add    $0x1,%rax
    7373:	48 89 05 6e dd 00 00 	mov    %rax,0xdd6e(%rip)        # 150e8 <g_338>
    737a:	48 8b 05 67 dd 00 00 	mov    0xdd67(%rip),%rax        # 150e8 <g_338>
    7381:	48 83 f8 04          	cmp    $0x4,%rax
    7385:	0f 86 89 f8 ff ff    	jbe    6c14 <func_1+0x45f>
    738b:	eb 01                	jmp    738e <func_1+0xbd9>
    738d:	90                   	nop
    738e:	0f b7 05 bf dc 00 00 	movzwl 0xdcbf(%rip),%eax        # 15054 <g_141>
    7395:	0f b7 c0             	movzwl %ax,%eax
    7398:	be 03 00 00 00       	mov    $0x3,%esi
    739d:	89 c7                	mov    %eax,%edi
    739f:	e8 12 e2 ff ff       	callq  55b6 <safe_add_func_int32_t_s_s>
    73a4:	66 89 05 a9 dc 00 00 	mov    %ax,0xdca9(%rip)        # 15054 <g_141>
    73ab:	0f b7 05 a2 dc 00 00 	movzwl 0xdca2(%rip),%eax        # 15054 <g_141>
    73b2:	66 83 f8 32          	cmp    $0x32,%ax
    73b6:	0f 86 e9 f7 ff ff    	jbe    6ba5 <func_1+0x3f0>
    73bc:	c6 05 a6 dc 00 00 00 	movb   $0x0,0xdca6(%rip)        # 15069 <g_247>
    73c3:	eb 39                	jmp    73fe <func_1+0xc49>
    73c5:	0f b7 05 ca dd 00 00 	movzwl 0xddca(%rip),%eax        # 15196 <g_1954>
    73cc:	66 85 c0             	test   %ax,%ax
    73cf:	74 05                	je     73d6 <func_1+0xc21>
    73d1:	e9 79 f7 ff ff       	jmpq   6b4f <func_1+0x39a>
    73d6:	48 8b 05 8b ee 00 00 	mov    0xee8b(%rip),%rax        # 16268 <g_1096>
    73dd:	0f b7 00             	movzwl (%rax),%eax
    73e0:	0f b7 d0             	movzwl %ax,%edx
    73e3:	48 8b 05 56 e3 00 00 	mov    0xe356(%rip),%rax        # 15740 <g_5>
    73ea:	f7 d2                	not    %edx
    73ec:	89 10                	mov    %edx,(%rax)
    73ee:	0f b6 05 74 dc 00 00 	movzbl 0xdc74(%rip),%eax        # 15069 <g_247>
    73f5:	83 c0 01             	add    $0x1,%eax
    73f8:	88 05 6b dc 00 00    	mov    %al,0xdc6b(%rip)        # 15069 <g_247>
    73fe:	0f b6 05 64 dc 00 00 	movzbl 0xdc64(%rip),%eax        # 15069 <g_247>
    7405:	3c 1e                	cmp    $0x1e,%al
    7407:	76 bc                	jbe    73c5 <func_1+0xc10>
    7409:	e9 c4 12 00 00       	jmpq   86d2 <func_1+0x1f1d>
    740e:	c6 05 54 dc 00 00 00 	movb   $0x0,0xdc54(%rip)        # 15069 <g_247>
    7415:	e9 a9 12 00 00       	jmpq   86c3 <func_1+0x1f0e>
    741a:	48 c7 85 f8 f4 ff ff 	movq   $0x0,-0xb08(%rbp)
    7421:	00 00 00 00 
    7425:	c7 85 4c f4 ff ff 00 	movl   $0x0,-0xbb4(%rbp)
    742c:	00 00 00 
    742f:	c7 85 e0 f5 ff ff fe 	movl   $0x6bafe,-0xa20(%rbp)
    7436:	ba 06 00 
    7439:	c7 85 e4 f5 ff ff fa 	movl   $0xbafe1bfa,-0xa1c(%rbp)
    7440:	1b fe ba 
    7443:	c7 85 e8 f5 ff ff ba 	movl   $0xfe00ba,-0xa18(%rbp)
    744a:	00 fe 00 
    744d:	c7 85 ec f5 ff ff fa 	movl   $0xfe0608fa,-0xa14(%rbp)
    7454:	08 06 fe 
    7457:	c7 85 f0 f5 ff ff fe 	movl   $0xff837cfe,-0xa10(%rbp)
    745e:	7c 83 ff 
    7461:	c7 85 f4 f5 ff ff 83 	movl   $0xcb1bff83,-0xa0c(%rbp)
    7468:	ff 1b cb 
    746b:	c7 85 f8 f5 ff ff 08 	movl   $0x6ff1b08,-0xa08(%rbp)
    7472:	1b ff 06 
    7475:	c7 85 fc f5 ff ff ff 	movl   $0x3e3ee0ff,-0xa04(%rbp)
    747c:	e0 3e 3e 
    747f:	c7 85 00 f6 ff ff fa 	movl   $0x7fafa,-0xa00(%rbp)
    7486:	fa 07 00 
    7489:	c7 85 04 f6 ff ff cb 	movl   $0xff0100cb,-0x9fc(%rbp)
    7490:	00 01 ff 
    7493:	c7 85 08 f6 ff ff 80 	movl   $0x106f780,-0x9f8(%rbp)
    749a:	f7 06 01 
    749d:	c7 85 0c f6 ff ff 03 	movl   $0xfffff703,-0x9f4(%rbp)
    74a4:	f7 ff ff 
    74a7:	c7 85 10 f6 ff ff f7 	movl   $0x600f7,-0x9f0(%rbp)
    74ae:	00 06 00 
    74b1:	c7 85 14 f6 ff ff 08 	movl   $0x3ef7fa08,-0x9ec(%rbp)
    74b8:	fa f7 3e 
    74bb:	c7 85 18 f6 ff ff fe 	movl   $0x600e0fe,-0x9e8(%rbp)
    74c2:	e0 00 06 
    74c5:	c7 85 1c f6 ff ff 80 	movl   $0xcb071b80,-0x9e4(%rbp)
    74cc:	1b 07 cb 
    74cf:	c7 85 20 f6 ff ff 28 	movl   $0xfffeff28,-0x9e0(%rbp)
    74d6:	ff fe ff 
    74d9:	c7 85 24 f6 ff ff 1b 	movl   $0xfe3e7c1b,-0x9dc(%rbp)
    74e0:	7c 3e fe 
    74e3:	c7 85 28 f6 ff ff 03 	movl   $0xf70803,-0x9d8(%rbp)
    74ea:	08 f7 00 
    74ed:	c7 85 2c f6 ff ff 83 	movl   $0xba800083,-0x9d4(%rbp)
    74f4:	00 80 ba 
    74f7:	c7 85 30 f6 ff ff 83 	movl   $0xf71b83,-0x9d0(%rbp)
    74fe:	1b f7 00 
    7501:	c7 85 34 f6 ff ff 03 	movl   $0x63eba03,-0x9cc(%rbp)
    7508:	ba 3e 06 
    750b:	c7 85 38 f6 ff ff 1b 	movl   $0xfef01b,-0x9c8(%rbp)
    7512:	f0 fe 00 
    7515:	c7 85 3c f6 ff ff 28 	movl   $0x70328,-0x9c4(%rbp)
    751c:	03 07 00 
    751f:	c7 85 40 f6 ff ff 80 	movl   $0x7007c80,-0x9c0(%rbp)
    7526:	7c 00 07 
    7529:	c7 85 44 f6 ff ff fe 	movl   $0xfef7f7fe,-0x9bc(%rbp)
    7530:	f7 f7 fe 
    7533:	c7 85 48 f6 ff ff 08 	movl   $0xba06ff08,-0x9b8(%rbp)
    753a:	ff 06 ba 
    753d:	c7 85 4c f6 ff ff f7 	movl   $0x3efff0f7,-0x9b4(%rbp)
    7544:	f0 ff 3e 
    7547:	c7 85 50 f6 ff ff 03 	movl   $0x10603,-0x9b0(%rbp)
    754e:	06 01 00 
    7551:	c7 85 54 f6 ff ff 00 	movl   $0x6f700,-0x9ac(%rbp)
    7558:	f7 06 00 
    755b:	c7 85 58 f6 ff ff 3e 	movl   $0xff80833e,-0x9a8(%rbp)
    7562:	83 80 ff 
    7565:	c7 85 5c f6 ff ff 31 	movl   $0x8000cb31,-0x9a4(%rbp)
    756c:	cb 00 80 
    756f:	c7 85 60 f6 ff ff 83 	movl   $0x7ce02883,-0x9a0(%rbp)
    7576:	28 e0 7c 
    7579:	c7 85 64 f6 ff ff ba 	movl   $0x3c62f7ba,-0x99c(%rbp)
    7580:	f7 62 3c 
    7583:	c7 85 68 f6 ff ff 00 	movl   $0x100f700,-0x998(%rbp)
    758a:	f7 00 01 
    758d:	c7 85 6c f6 ff ff ff 	movl   $0xfe0100ff,-0x994(%rbp)
    7594:	00 01 fe 
    7597:	c7 85 70 f6 ff ff 31 	movl   $0xf06231,-0x990(%rbp)
    759e:	62 f0 00 
    75a1:	c7 85 74 f6 ff ff 00 	movl   $0x7cf00800,-0x98c(%rbp)
    75a8:	08 f0 7c 
    75ab:	c7 85 78 f6 ff ff 31 	movl   $0xf001ba31,-0x988(%rbp)
    75b2:	ba 01 f0 
    75b5:	c7 85 7c f6 ff ff ff 	movl   $0x830028ff,-0x984(%rbp)
    75bc:	28 00 83 
    75bf:	c7 85 80 f6 ff ff 00 	movl   $0x3e628300,-0x980(%rbp)
    75c6:	83 62 3e 
    75c9:	c7 85 84 f6 ff ff ba 	movl   $0x1e062ba,-0x97c(%rbp)
    75d0:	62 e0 01 
    75d3:	c7 85 88 f6 ff ff 83 	movl   $0xff83,-0x978(%rbp)
    75da:	ff 00 00 
    75dd:	c7 85 8c f6 ff ff 31 	movl   $0x3c803131,-0x974(%rbp)
    75e4:	31 80 3c 
    75e7:	c7 85 90 f6 ff ff 3e 	movl   $0x8306083e,-0x970(%rbp)
    75ee:	08 06 83 
    75f1:	c7 85 94 f6 ff ff 00 	movl   $0x601cb00,-0x96c(%rbp)
    75f8:	cb 01 06 
    75fb:	c7 85 98 f6 ff ff f7 	movl   $0x83e0cbf7,-0x968(%rbp)
    7602:	cb e0 83 
    7605:	c7 85 9c f6 ff ff cb 	movl   $0x3c0408cb,-0x964(%rbp)
    760c:	08 04 3c 
    760f:	c7 85 a0 f6 ff ff ba 	movl   $0xcb31ba,-0x960(%rbp)
    7616:	31 cb 00 
    7619:	c7 85 a4 f6 ff ff ff 	movl   $0x1feffff,-0x95c(%rbp)
    7620:	ff fe 01 
    7623:	c7 85 a8 f6 ff ff 00 	movl   $0x3e806200,-0x958(%rbp)
    762a:	62 80 3e 
    762d:	c7 85 ac f6 ff ff 06 	movl   $0x83f08306,-0x954(%rbp)
    7634:	83 f0 83 
    7637:	c7 85 b0 f6 ff ff 62 	movl   $0xf0002862,-0x950(%rbp)
    763e:	28 00 f0 
    7641:	c7 85 b4 f6 ff ff f7 	movl   $0x7ccbbaf7,-0x94c(%rbp)
    7648:	ba cb 7c 
    764b:	c7 85 b8 f6 ff ff 00 	movl   $0x800,-0x948(%rbp)
    7652:	08 00 00 
    7655:	c7 85 bc f6 ff ff 00 	movl   $0xfecb6200,-0x944(%rbp)
    765c:	62 cb fe 
    765f:	48 8d 05 ea da 00 00 	lea    0xdaea(%rip),%rax        # 15150 <g_1024>
    7666:	48 89 85 00 f5 ff ff 	mov    %rax,-0xb00(%rbp)
    766d:	48 c7 05 b8 d9 00 00 	movq   $0x0,0xd9b8(%rip)        # 15030 <g_68>
    7674:	00 00 00 00 
    7678:	e9 08 10 00 00       	jmpq   8685 <func_1+0x1ed0>
    767d:	48 8d 05 7c e2 00 00 	lea    0xe27c(%rip),%rax        # 15900 <g_497+0x180>
    7684:	48 89 85 b0 f4 ff ff 	mov    %rax,-0xb50(%rbp)
    768b:	48 8d 85 b0 f4 ff ff 	lea    -0xb50(%rbp),%rax
    7692:	48 89 85 b8 f4 ff ff 	mov    %rax,-0xb48(%rbp)
    7699:	48 8d 85 b8 f4 ff ff 	lea    -0xb48(%rbp),%rax
    76a0:	48 89 85 10 f8 ff ff 	mov    %rax,-0x7f0(%rbp)
    76a7:	48 8d 85 b8 f4 ff ff 	lea    -0xb48(%rbp),%rax
    76ae:	48 89 85 18 f8 ff ff 	mov    %rax,-0x7e8(%rbp)
    76b5:	48 8d 85 b8 f4 ff ff 	lea    -0xb48(%rbp),%rax
    76bc:	48 89 85 20 f8 ff ff 	mov    %rax,-0x7e0(%rbp)
    76c3:	48 c7 85 28 f8 ff ff 	movq   $0x0,-0x7d8(%rbp)
    76ca:	00 00 00 00 
    76ce:	48 8d 85 b8 f4 ff ff 	lea    -0xb48(%rbp),%rax
    76d5:	48 89 85 30 f8 ff ff 	mov    %rax,-0x7d0(%rbp)
    76dc:	48 8d 85 b8 f4 ff ff 	lea    -0xb48(%rbp),%rax
    76e3:	48 89 85 38 f8 ff ff 	mov    %rax,-0x7c8(%rbp)
    76ea:	48 8d 85 b8 f4 ff ff 	lea    -0xb48(%rbp),%rax
    76f1:	48 89 85 40 f8 ff ff 	mov    %rax,-0x7c0(%rbp)
    76f8:	48 8d 85 b8 f4 ff ff 	lea    -0xb48(%rbp),%rax
    76ff:	48 89 85 48 f8 ff ff 	mov    %rax,-0x7b8(%rbp)
    7706:	48 c7 85 50 f8 ff ff 	movq   $0x0,-0x7b0(%rbp)
    770d:	00 00 00 00 
    7711:	48 8d 85 b8 f4 ff ff 	lea    -0xb48(%rbp),%rax
    7718:	48 89 85 58 f8 ff ff 	mov    %rax,-0x7a8(%rbp)
    771f:	48 8d 85 b8 f4 ff ff 	lea    -0xb48(%rbp),%rax
    7726:	48 89 85 60 f8 ff ff 	mov    %rax,-0x7a0(%rbp)
    772d:	48 c7 85 68 f8 ff ff 	movq   $0x0,-0x798(%rbp)
    7734:	00 00 00 00 
    7738:	48 c7 85 70 f8 ff ff 	movq   $0x0,-0x790(%rbp)
    773f:	00 00 00 00 
    7743:	48 8d 85 b8 f4 ff ff 	lea    -0xb48(%rbp),%rax
    774a:	48 89 85 78 f8 ff ff 	mov    %rax,-0x788(%rbp)
    7751:	48 8d 85 b8 f4 ff ff 	lea    -0xb48(%rbp),%rax
    7758:	48 89 85 80 f8 ff ff 	mov    %rax,-0x780(%rbp)
    775f:	48 8d 85 b8 f4 ff ff 	lea    -0xb48(%rbp),%rax
    7766:	48 89 85 88 f8 ff ff 	mov    %rax,-0x778(%rbp)
    776d:	48 8d 85 b8 f4 ff ff 	lea    -0xb48(%rbp),%rax
    7774:	48 89 85 90 f8 ff ff 	mov    %rax,-0x770(%rbp)
    777b:	48 8d 85 b8 f4 ff ff 	lea    -0xb48(%rbp),%rax
    7782:	48 89 85 98 f8 ff ff 	mov    %rax,-0x768(%rbp)
    7789:	48 8d 85 b8 f4 ff ff 	lea    -0xb48(%rbp),%rax
    7790:	48 89 85 a0 f8 ff ff 	mov    %rax,-0x760(%rbp)
    7797:	48 8d 85 b8 f4 ff ff 	lea    -0xb48(%rbp),%rax
    779e:	48 89 85 a8 f8 ff ff 	mov    %rax,-0x758(%rbp)
    77a5:	48 c7 85 b0 f8 ff ff 	movq   $0x0,-0x750(%rbp)
    77ac:	00 00 00 00 
    77b0:	48 c7 85 b8 f8 ff ff 	movq   $0x0,-0x748(%rbp)
    77b7:	00 00 00 00 
    77bb:	48 8d 85 b8 f4 ff ff 	lea    -0xb48(%rbp),%rax
    77c2:	48 89 85 c0 f8 ff ff 	mov    %rax,-0x740(%rbp)
    77c9:	48 8d 85 b8 f4 ff ff 	lea    -0xb48(%rbp),%rax
    77d0:	48 89 85 c8 f8 ff ff 	mov    %rax,-0x738(%rbp)
    77d7:	48 c7 85 d0 f8 ff ff 	movq   $0x0,-0x730(%rbp)
    77de:	00 00 00 00 
    77e2:	48 8d 85 b8 f4 ff ff 	lea    -0xb48(%rbp),%rax
    77e9:	48 89 85 d8 f8 ff ff 	mov    %rax,-0x728(%rbp)
    77f0:	48 8d 85 b8 f4 ff ff 	lea    -0xb48(%rbp),%rax
    77f7:	48 89 85 e0 f8 ff ff 	mov    %rax,-0x720(%rbp)
    77fe:	48 8d 85 b8 f4 ff ff 	lea    -0xb48(%rbp),%rax
    7805:	48 89 85 e8 f8 ff ff 	mov    %rax,-0x718(%rbp)
    780c:	48 8d 85 b8 f4 ff ff 	lea    -0xb48(%rbp),%rax
    7813:	48 89 85 f0 f8 ff ff 	mov    %rax,-0x710(%rbp)
    781a:	48 c7 85 f8 f8 ff ff 	movq   $0x0,-0x708(%rbp)
    7821:	00 00 00 00 
    7825:	48 8d 85 b8 f4 ff ff 	lea    -0xb48(%rbp),%rax
    782c:	48 89 85 00 f9 ff ff 	mov    %rax,-0x700(%rbp)
    7833:	48 8d 85 b8 f4 ff ff 	lea    -0xb48(%rbp),%rax
    783a:	48 89 85 08 f9 ff ff 	mov    %rax,-0x6f8(%rbp)
    7841:	48 c7 85 10 f9 ff ff 	movq   $0x0,-0x6f0(%rbp)
    7848:	00 00 00 00 
    784c:	48 8d 85 b8 f4 ff ff 	lea    -0xb48(%rbp),%rax
    7853:	48 89 85 18 f9 ff ff 	mov    %rax,-0x6e8(%rbp)
    785a:	48 8d 85 b8 f4 ff ff 	lea    -0xb48(%rbp),%rax
    7861:	48 89 85 20 f9 ff ff 	mov    %rax,-0x6e0(%rbp)
    7868:	48 8d 85 b8 f4 ff ff 	lea    -0xb48(%rbp),%rax
    786f:	48 89 85 28 f9 ff ff 	mov    %rax,-0x6d8(%rbp)
    7876:	48 8d 85 b8 f4 ff ff 	lea    -0xb48(%rbp),%rax
    787d:	48 89 85 30 f9 ff ff 	mov    %rax,-0x6d0(%rbp)
    7884:	48 8d 85 b8 f4 ff ff 	lea    -0xb48(%rbp),%rax
    788b:	48 89 85 38 f9 ff ff 	mov    %rax,-0x6c8(%rbp)
    7892:	48 c7 85 40 f9 ff ff 	movq   $0x0,-0x6c0(%rbp)
    7899:	00 00 00 00 
    789d:	48 8d 85 b8 f4 ff ff 	lea    -0xb48(%rbp),%rax
    78a4:	48 89 85 48 f9 ff ff 	mov    %rax,-0x6b8(%rbp)
    78ab:	48 c7 85 50 f9 ff ff 	movq   $0x0,-0x6b0(%rbp)
    78b2:	00 00 00 00 
    78b6:	48 8d 85 b8 f4 ff ff 	lea    -0xb48(%rbp),%rax
    78bd:	48 89 85 58 f9 ff ff 	mov    %rax,-0x6a8(%rbp)
    78c4:	48 8d 85 b8 f4 ff ff 	lea    -0xb48(%rbp),%rax
    78cb:	48 89 85 60 f9 ff ff 	mov    %rax,-0x6a0(%rbp)
    78d2:	48 8d 85 b8 f4 ff ff 	lea    -0xb48(%rbp),%rax
    78d9:	48 89 85 68 f9 ff ff 	mov    %rax,-0x698(%rbp)
    78e0:	48 c7 85 70 f9 ff ff 	movq   $0x0,-0x690(%rbp)
    78e7:	00 00 00 00 
    78eb:	48 8d 85 b8 f4 ff ff 	lea    -0xb48(%rbp),%rax
    78f2:	48 89 85 78 f9 ff ff 	mov    %rax,-0x688(%rbp)
    78f9:	48 8d 85 b8 f4 ff ff 	lea    -0xb48(%rbp),%rax
    7900:	48 89 85 80 f9 ff ff 	mov    %rax,-0x680(%rbp)
    7907:	48 8d 85 b8 f4 ff ff 	lea    -0xb48(%rbp),%rax
    790e:	48 89 85 88 f9 ff ff 	mov    %rax,-0x678(%rbp)
    7915:	48 8d 85 b8 f4 ff ff 	lea    -0xb48(%rbp),%rax
    791c:	48 89 85 90 f9 ff ff 	mov    %rax,-0x670(%rbp)
    7923:	48 8d 85 b8 f4 ff ff 	lea    -0xb48(%rbp),%rax
    792a:	48 89 85 98 f9 ff ff 	mov    %rax,-0x668(%rbp)
    7931:	48 8d 85 b8 f4 ff ff 	lea    -0xb48(%rbp),%rax
    7938:	48 89 85 a0 f9 ff ff 	mov    %rax,-0x660(%rbp)
    793f:	48 c7 85 a8 f9 ff ff 	movq   $0x0,-0x658(%rbp)
    7946:	00 00 00 00 
    794a:	48 8d 85 b8 f4 ff ff 	lea    -0xb48(%rbp),%rax
    7951:	48 89 85 b0 f9 ff ff 	mov    %rax,-0x650(%rbp)
    7958:	48 8d 85 b8 f4 ff ff 	lea    -0xb48(%rbp),%rax
    795f:	48 89 85 b8 f9 ff ff 	mov    %rax,-0x648(%rbp)
    7966:	48 c7 85 c0 f9 ff ff 	movq   $0x0,-0x640(%rbp)
    796d:	00 00 00 00 
    7971:	48 c7 85 c8 f9 ff ff 	movq   $0x0,-0x638(%rbp)
    7978:	00 00 00 00 
    797c:	48 8d 85 b8 f4 ff ff 	lea    -0xb48(%rbp),%rax
    7983:	48 89 85 d0 f9 ff ff 	mov    %rax,-0x630(%rbp)
    798a:	48 8d 85 b8 f4 ff ff 	lea    -0xb48(%rbp),%rax
    7991:	48 89 85 d8 f9 ff ff 	mov    %rax,-0x628(%rbp)
    7998:	48 8d 85 b8 f4 ff ff 	lea    -0xb48(%rbp),%rax
    799f:	48 89 85 e0 f9 ff ff 	mov    %rax,-0x620(%rbp)
    79a6:	48 8d 85 b8 f4 ff ff 	lea    -0xb48(%rbp),%rax
    79ad:	48 89 85 e8 f9 ff ff 	mov    %rax,-0x618(%rbp)
    79b4:	48 8d 85 b8 f4 ff ff 	lea    -0xb48(%rbp),%rax
    79bb:	48 89 85 f0 f9 ff ff 	mov    %rax,-0x610(%rbp)
    79c2:	48 8d 85 b8 f4 ff ff 	lea    -0xb48(%rbp),%rax
    79c9:	48 89 85 f8 f9 ff ff 	mov    %rax,-0x608(%rbp)
    79d0:	48 c7 85 00 fa ff ff 	movq   $0x0,-0x600(%rbp)
    79d7:	00 00 00 00 
    79db:	48 c7 85 08 fa ff ff 	movq   $0x0,-0x5f8(%rbp)
    79e2:	00 00 00 00 
    79e6:	48 8d 85 b8 f4 ff ff 	lea    -0xb48(%rbp),%rax
    79ed:	48 89 85 10 fa ff ff 	mov    %rax,-0x5f0(%rbp)
    79f4:	48 8d 85 b8 f4 ff ff 	lea    -0xb48(%rbp),%rax
    79fb:	48 89 85 18 fa ff ff 	mov    %rax,-0x5e8(%rbp)
    7a02:	48 8d 85 b8 f4 ff ff 	lea    -0xb48(%rbp),%rax
    7a09:	48 89 85 20 fa ff ff 	mov    %rax,-0x5e0(%rbp)
    7a10:	48 8d 85 b8 f4 ff ff 	lea    -0xb48(%rbp),%rax
    7a17:	48 89 85 28 fa ff ff 	mov    %rax,-0x5d8(%rbp)
    7a1e:	48 8d 85 b8 f4 ff ff 	lea    -0xb48(%rbp),%rax
    7a25:	48 89 85 30 fa ff ff 	mov    %rax,-0x5d0(%rbp)
    7a2c:	48 8d 85 b8 f4 ff ff 	lea    -0xb48(%rbp),%rax
    7a33:	48 89 85 38 fa ff ff 	mov    %rax,-0x5c8(%rbp)
    7a3a:	48 8d 85 b8 f4 ff ff 	lea    -0xb48(%rbp),%rax
    7a41:	48 89 85 40 fa ff ff 	mov    %rax,-0x5c0(%rbp)
    7a48:	48 8d 85 b8 f4 ff ff 	lea    -0xb48(%rbp),%rax
    7a4f:	48 89 85 48 fa ff ff 	mov    %rax,-0x5b8(%rbp)
    7a56:	48 8d 85 b8 f4 ff ff 	lea    -0xb48(%rbp),%rax
    7a5d:	48 89 85 50 fa ff ff 	mov    %rax,-0x5b0(%rbp)
    7a64:	48 8d 85 b8 f4 ff ff 	lea    -0xb48(%rbp),%rax
    7a6b:	48 89 85 58 fa ff ff 	mov    %rax,-0x5a8(%rbp)
    7a72:	48 c7 85 60 fa ff ff 	movq   $0x0,-0x5a0(%rbp)
    7a79:	00 00 00 00 
    7a7d:	48 8d 85 b8 f4 ff ff 	lea    -0xb48(%rbp),%rax
    7a84:	48 89 85 68 fa ff ff 	mov    %rax,-0x598(%rbp)
    7a8b:	48 8d 85 b8 f4 ff ff 	lea    -0xb48(%rbp),%rax
    7a92:	48 89 85 70 fa ff ff 	mov    %rax,-0x590(%rbp)
    7a99:	48 8d 85 b8 f4 ff ff 	lea    -0xb48(%rbp),%rax
    7aa0:	48 89 85 78 fa ff ff 	mov    %rax,-0x588(%rbp)
    7aa7:	48 c7 85 80 fa ff ff 	movq   $0x0,-0x580(%rbp)
    7aae:	00 00 00 00 
    7ab2:	48 8d 85 b8 f4 ff ff 	lea    -0xb48(%rbp),%rax
    7ab9:	48 89 85 88 fa ff ff 	mov    %rax,-0x578(%rbp)
    7ac0:	48 8d 85 b8 f4 ff ff 	lea    -0xb48(%rbp),%rax
    7ac7:	48 89 85 90 fa ff ff 	mov    %rax,-0x570(%rbp)
    7ace:	48 c7 85 98 fa ff ff 	movq   $0x0,-0x568(%rbp)
    7ad5:	00 00 00 00 
    7ad9:	48 8d 85 b8 f4 ff ff 	lea    -0xb48(%rbp),%rax
    7ae0:	48 89 85 a0 fa ff ff 	mov    %rax,-0x560(%rbp)
    7ae7:	48 8d 85 b8 f4 ff ff 	lea    -0xb48(%rbp),%rax
    7aee:	48 89 85 a8 fa ff ff 	mov    %rax,-0x558(%rbp)
    7af5:	48 c7 85 b0 fa ff ff 	movq   $0x0,-0x550(%rbp)
    7afc:	00 00 00 00 
    7b00:	48 8d 85 b8 f4 ff ff 	lea    -0xb48(%rbp),%rax
    7b07:	48 89 85 b8 fa ff ff 	mov    %rax,-0x548(%rbp)
    7b0e:	48 8d 85 b8 f4 ff ff 	lea    -0xb48(%rbp),%rax
    7b15:	48 89 85 c0 fa ff ff 	mov    %rax,-0x540(%rbp)
    7b1c:	48 8d 85 b8 f4 ff ff 	lea    -0xb48(%rbp),%rax
    7b23:	48 89 85 c8 fa ff ff 	mov    %rax,-0x538(%rbp)
    7b2a:	48 c7 85 d0 fa ff ff 	movq   $0x0,-0x530(%rbp)
    7b31:	00 00 00 00 
    7b35:	48 8d 85 b8 f4 ff ff 	lea    -0xb48(%rbp),%rax
    7b3c:	48 89 85 d8 fa ff ff 	mov    %rax,-0x528(%rbp)
    7b43:	48 8d 85 b8 f4 ff ff 	lea    -0xb48(%rbp),%rax
    7b4a:	48 89 85 e0 fa ff ff 	mov    %rax,-0x520(%rbp)
    7b51:	48 c7 85 e8 fa ff ff 	movq   $0x0,-0x518(%rbp)
    7b58:	00 00 00 00 
    7b5c:	48 8d 85 b8 f4 ff ff 	lea    -0xb48(%rbp),%rax
    7b63:	48 89 85 f0 fa ff ff 	mov    %rax,-0x510(%rbp)
    7b6a:	48 8d 85 b8 f4 ff ff 	lea    -0xb48(%rbp),%rax
    7b71:	48 89 85 f8 fa ff ff 	mov    %rax,-0x508(%rbp)
    7b78:	48 8d 85 b8 f4 ff ff 	lea    -0xb48(%rbp),%rax
    7b7f:	48 89 85 00 fb ff ff 	mov    %rax,-0x500(%rbp)
    7b86:	48 8d 85 b8 f4 ff ff 	lea    -0xb48(%rbp),%rax
    7b8d:	48 89 85 08 fb ff ff 	mov    %rax,-0x4f8(%rbp)
    7b94:	48 8d 85 b8 f4 ff ff 	lea    -0xb48(%rbp),%rax
    7b9b:	48 89 85 10 fb ff ff 	mov    %rax,-0x4f0(%rbp)
    7ba2:	48 c7 85 18 fb ff ff 	movq   $0x0,-0x4e8(%rbp)
    7ba9:	00 00 00 00 
    7bad:	48 8d 85 b8 f4 ff ff 	lea    -0xb48(%rbp),%rax
    7bb4:	48 89 85 20 fb ff ff 	mov    %rax,-0x4e0(%rbp)
    7bbb:	48 8d 85 b8 f4 ff ff 	lea    -0xb48(%rbp),%rax
    7bc2:	48 89 85 28 fb ff ff 	mov    %rax,-0x4d8(%rbp)
    7bc9:	48 c7 85 30 fb ff ff 	movq   $0x0,-0x4d0(%rbp)
    7bd0:	00 00 00 00 
    7bd4:	48 c7 85 38 fb ff ff 	movq   $0x0,-0x4c8(%rbp)
    7bdb:	00 00 00 00 
    7bdf:	48 8d 85 b8 f4 ff ff 	lea    -0xb48(%rbp),%rax
    7be6:	48 89 85 40 fb ff ff 	mov    %rax,-0x4c0(%rbp)
    7bed:	48 8d 85 b8 f4 ff ff 	lea    -0xb48(%rbp),%rax
    7bf4:	48 89 85 48 fb ff ff 	mov    %rax,-0x4b8(%rbp)
    7bfb:	48 8d 85 b8 f4 ff ff 	lea    -0xb48(%rbp),%rax
    7c02:	48 89 85 50 fb ff ff 	mov    %rax,-0x4b0(%rbp)
    7c09:	48 8d 85 b8 f4 ff ff 	lea    -0xb48(%rbp),%rax
    7c10:	48 89 85 58 fb ff ff 	mov    %rax,-0x4a8(%rbp)
    7c17:	48 8d 85 b8 f4 ff ff 	lea    -0xb48(%rbp),%rax
    7c1e:	48 89 85 60 fb ff ff 	mov    %rax,-0x4a0(%rbp)
    7c25:	48 8d 85 b8 f4 ff ff 	lea    -0xb48(%rbp),%rax
    7c2c:	48 89 85 68 fb ff ff 	mov    %rax,-0x498(%rbp)
    7c33:	48 c7 85 70 fb ff ff 	movq   $0x0,-0x490(%rbp)
    7c3a:	00 00 00 00 
    7c3e:	48 c7 85 78 fb ff ff 	movq   $0x0,-0x488(%rbp)
    7c45:	00 00 00 00 
    7c49:	48 c7 85 80 fb ff ff 	movq   $0x0,-0x480(%rbp)
    7c50:	00 00 00 00 
    7c54:	48 8d 85 b8 f4 ff ff 	lea    -0xb48(%rbp),%rax
    7c5b:	48 89 85 88 fb ff ff 	mov    %rax,-0x478(%rbp)
    7c62:	48 c7 85 90 fb ff ff 	movq   $0x0,-0x470(%rbp)
    7c69:	00 00 00 00 
    7c6d:	48 8d 85 b8 f4 ff ff 	lea    -0xb48(%rbp),%rax
    7c74:	48 89 85 98 fb ff ff 	mov    %rax,-0x468(%rbp)
    7c7b:	48 c7 85 a0 fb ff ff 	movq   $0x0,-0x460(%rbp)
    7c82:	00 00 00 00 
    7c86:	48 c7 85 a8 fb ff ff 	movq   $0x0,-0x458(%rbp)
    7c8d:	00 00 00 00 
    7c91:	48 8d 85 b8 f4 ff ff 	lea    -0xb48(%rbp),%rax
    7c98:	48 89 85 b0 fb ff ff 	mov    %rax,-0x450(%rbp)
    7c9f:	48 8d 85 b8 f4 ff ff 	lea    -0xb48(%rbp),%rax
    7ca6:	48 89 85 b8 fb ff ff 	mov    %rax,-0x448(%rbp)
    7cad:	48 8d 85 b8 f4 ff ff 	lea    -0xb48(%rbp),%rax
    7cb4:	48 89 85 c0 fb ff ff 	mov    %rax,-0x440(%rbp)
    7cbb:	48 8d 85 b8 f4 ff ff 	lea    -0xb48(%rbp),%rax
    7cc2:	48 89 85 c8 fb ff ff 	mov    %rax,-0x438(%rbp)
    7cc9:	48 8d 85 b8 f4 ff ff 	lea    -0xb48(%rbp),%rax
    7cd0:	48 89 85 d0 fb ff ff 	mov    %rax,-0x430(%rbp)
    7cd7:	48 8d 85 b8 f4 ff ff 	lea    -0xb48(%rbp),%rax
    7cde:	48 89 85 d8 fb ff ff 	mov    %rax,-0x428(%rbp)
    7ce5:	48 8d 85 b8 f4 ff ff 	lea    -0xb48(%rbp),%rax
    7cec:	48 89 85 e0 fb ff ff 	mov    %rax,-0x420(%rbp)
    7cf3:	48 8d 85 b8 f4 ff ff 	lea    -0xb48(%rbp),%rax
    7cfa:	48 89 85 e8 fb ff ff 	mov    %rax,-0x418(%rbp)
    7d01:	48 8d 85 b8 f4 ff ff 	lea    -0xb48(%rbp),%rax
    7d08:	48 89 85 f0 fb ff ff 	mov    %rax,-0x410(%rbp)
    7d0f:	48 8d 85 b8 f4 ff ff 	lea    -0xb48(%rbp),%rax
    7d16:	48 89 85 f8 fb ff ff 	mov    %rax,-0x408(%rbp)
    7d1d:	48 8d 85 b8 f4 ff ff 	lea    -0xb48(%rbp),%rax
    7d24:	48 89 85 00 fc ff ff 	mov    %rax,-0x400(%rbp)
    7d2b:	48 8d 85 b8 f4 ff ff 	lea    -0xb48(%rbp),%rax
    7d32:	48 89 85 08 fc ff ff 	mov    %rax,-0x3f8(%rbp)
    7d39:	48 8d 85 b8 f4 ff ff 	lea    -0xb48(%rbp),%rax
    7d40:	48 89 85 10 fc ff ff 	mov    %rax,-0x3f0(%rbp)
    7d47:	48 c7 85 18 fc ff ff 	movq   $0x0,-0x3e8(%rbp)
    7d4e:	00 00 00 00 
    7d52:	48 8d 85 b8 f4 ff ff 	lea    -0xb48(%rbp),%rax
    7d59:	48 89 85 20 fc ff ff 	mov    %rax,-0x3e0(%rbp)
    7d60:	48 c7 85 28 fc ff ff 	movq   $0x0,-0x3d8(%rbp)
    7d67:	00 00 00 00 
    7d6b:	48 c7 85 30 fc ff ff 	movq   $0x0,-0x3d0(%rbp)
    7d72:	00 00 00 00 
    7d76:	48 8d 85 b8 f4 ff ff 	lea    -0xb48(%rbp),%rax
    7d7d:	48 89 85 38 fc ff ff 	mov    %rax,-0x3c8(%rbp)
    7d84:	48 8d 85 b8 f4 ff ff 	lea    -0xb48(%rbp),%rax
    7d8b:	48 89 85 40 fc ff ff 	mov    %rax,-0x3c0(%rbp)
    7d92:	48 8d 85 b8 f4 ff ff 	lea    -0xb48(%rbp),%rax
    7d99:	48 89 85 48 fc ff ff 	mov    %rax,-0x3b8(%rbp)
    7da0:	48 c7 85 50 fc ff ff 	movq   $0x0,-0x3b0(%rbp)
    7da7:	00 00 00 00 
    7dab:	48 8d 85 b8 f4 ff ff 	lea    -0xb48(%rbp),%rax
    7db2:	48 89 85 58 fc ff ff 	mov    %rax,-0x3a8(%rbp)
    7db9:	48 8d 85 b8 f4 ff ff 	lea    -0xb48(%rbp),%rax
    7dc0:	48 89 85 60 fc ff ff 	mov    %rax,-0x3a0(%rbp)
    7dc7:	48 c7 85 68 fc ff ff 	movq   $0x0,-0x398(%rbp)
    7dce:	00 00 00 00 
    7dd2:	48 8d 85 b8 f4 ff ff 	lea    -0xb48(%rbp),%rax
    7dd9:	48 89 85 70 fc ff ff 	mov    %rax,-0x390(%rbp)
    7de0:	48 8d 85 b8 f4 ff ff 	lea    -0xb48(%rbp),%rax
    7de7:	48 89 85 78 fc ff ff 	mov    %rax,-0x388(%rbp)
    7dee:	48 8d 85 b8 f4 ff ff 	lea    -0xb48(%rbp),%rax
    7df5:	48 89 85 80 fc ff ff 	mov    %rax,-0x380(%rbp)
    7dfc:	48 8d 85 b8 f4 ff ff 	lea    -0xb48(%rbp),%rax
    7e03:	48 89 85 88 fc ff ff 	mov    %rax,-0x378(%rbp)
    7e0a:	48 8d 85 b8 f4 ff ff 	lea    -0xb48(%rbp),%rax
    7e11:	48 89 85 90 fc ff ff 	mov    %rax,-0x370(%rbp)
    7e18:	48 8d 85 b8 f4 ff ff 	lea    -0xb48(%rbp),%rax
    7e1f:	48 89 85 98 fc ff ff 	mov    %rax,-0x368(%rbp)
    7e26:	48 8d 85 b8 f4 ff ff 	lea    -0xb48(%rbp),%rax
    7e2d:	48 89 85 a0 fc ff ff 	mov    %rax,-0x360(%rbp)
    7e34:	48 8d 85 b8 f4 ff ff 	lea    -0xb48(%rbp),%rax
    7e3b:	48 89 85 a8 fc ff ff 	mov    %rax,-0x358(%rbp)
    7e42:	48 8d 85 b8 f4 ff ff 	lea    -0xb48(%rbp),%rax
    7e49:	48 89 85 b0 fc ff ff 	mov    %rax,-0x350(%rbp)
    7e50:	48 c7 85 b8 fc ff ff 	movq   $0x0,-0x348(%rbp)
    7e57:	00 00 00 00 
    7e5b:	48 8d 85 b8 f4 ff ff 	lea    -0xb48(%rbp),%rax
    7e62:	48 89 85 c0 fc ff ff 	mov    %rax,-0x340(%rbp)
    7e69:	48 8d 85 b8 f4 ff ff 	lea    -0xb48(%rbp),%rax
    7e70:	48 89 85 c8 fc ff ff 	mov    %rax,-0x338(%rbp)
    7e77:	48 8d 85 b8 f4 ff ff 	lea    -0xb48(%rbp),%rax
    7e7e:	48 89 85 d0 fc ff ff 	mov    %rax,-0x330(%rbp)
    7e85:	48 8d 85 b8 f4 ff ff 	lea    -0xb48(%rbp),%rax
    7e8c:	48 89 85 d8 fc ff ff 	mov    %rax,-0x328(%rbp)
    7e93:	48 8d 85 b8 f4 ff ff 	lea    -0xb48(%rbp),%rax
    7e9a:	48 89 85 e0 fc ff ff 	mov    %rax,-0x320(%rbp)
    7ea1:	48 8d 85 b8 f4 ff ff 	lea    -0xb48(%rbp),%rax
    7ea8:	48 89 85 e8 fc ff ff 	mov    %rax,-0x318(%rbp)
    7eaf:	48 8d 85 b8 f4 ff ff 	lea    -0xb48(%rbp),%rax
    7eb6:	48 89 85 f0 fc ff ff 	mov    %rax,-0x310(%rbp)
    7ebd:	48 8d 85 b8 f4 ff ff 	lea    -0xb48(%rbp),%rax
    7ec4:	48 89 85 f8 fc ff ff 	mov    %rax,-0x308(%rbp)
    7ecb:	48 8d 85 b8 f4 ff ff 	lea    -0xb48(%rbp),%rax
    7ed2:	48 89 85 00 fd ff ff 	mov    %rax,-0x300(%rbp)
    7ed9:	48 8d 85 b8 f4 ff ff 	lea    -0xb48(%rbp),%rax
    7ee0:	48 89 85 08 fd ff ff 	mov    %rax,-0x2f8(%rbp)
    7ee7:	48 8d 85 b8 f4 ff ff 	lea    -0xb48(%rbp),%rax
    7eee:	48 89 85 10 fd ff ff 	mov    %rax,-0x2f0(%rbp)
    7ef5:	48 8d 85 b8 f4 ff ff 	lea    -0xb48(%rbp),%rax
    7efc:	48 89 85 18 fd ff ff 	mov    %rax,-0x2e8(%rbp)
    7f03:	48 8d 85 b8 f4 ff ff 	lea    -0xb48(%rbp),%rax
    7f0a:	48 89 85 20 fd ff ff 	mov    %rax,-0x2e0(%rbp)
    7f11:	48 8d 85 b8 f4 ff ff 	lea    -0xb48(%rbp),%rax
    7f18:	48 89 85 28 fd ff ff 	mov    %rax,-0x2d8(%rbp)
    7f1f:	48 8d 85 b8 f4 ff ff 	lea    -0xb48(%rbp),%rax
    7f26:	48 89 85 30 fd ff ff 	mov    %rax,-0x2d0(%rbp)
    7f2d:	48 8d 85 b8 f4 ff ff 	lea    -0xb48(%rbp),%rax
    7f34:	48 89 85 38 fd ff ff 	mov    %rax,-0x2c8(%rbp)
    7f3b:	48 8d 85 b8 f4 ff ff 	lea    -0xb48(%rbp),%rax
    7f42:	48 89 85 40 fd ff ff 	mov    %rax,-0x2c0(%rbp)
    7f49:	48 8d 85 b8 f4 ff ff 	lea    -0xb48(%rbp),%rax
    7f50:	48 89 85 48 fd ff ff 	mov    %rax,-0x2b8(%rbp)
    7f57:	48 8d 85 b8 f4 ff ff 	lea    -0xb48(%rbp),%rax
    7f5e:	48 89 85 50 fd ff ff 	mov    %rax,-0x2b0(%rbp)
    7f65:	48 8d 85 b8 f4 ff ff 	lea    -0xb48(%rbp),%rax
    7f6c:	48 89 85 58 fd ff ff 	mov    %rax,-0x2a8(%rbp)
    7f73:	48 c7 85 60 fd ff ff 	movq   $0x0,-0x2a0(%rbp)
    7f7a:	00 00 00 00 
    7f7e:	48 8d 85 b8 f4 ff ff 	lea    -0xb48(%rbp),%rax
    7f85:	48 89 85 68 fd ff ff 	mov    %rax,-0x298(%rbp)
    7f8c:	48 8d 85 b8 f4 ff ff 	lea    -0xb48(%rbp),%rax
    7f93:	48 89 85 70 fd ff ff 	mov    %rax,-0x290(%rbp)
    7f9a:	48 c7 85 78 fd ff ff 	movq   $0x0,-0x288(%rbp)
    7fa1:	00 00 00 00 
    7fa5:	48 8d 85 b8 f4 ff ff 	lea    -0xb48(%rbp),%rax
    7fac:	48 89 85 80 fd ff ff 	mov    %rax,-0x280(%rbp)
    7fb3:	48 8d 85 b8 f4 ff ff 	lea    -0xb48(%rbp),%rax
    7fba:	48 89 85 88 fd ff ff 	mov    %rax,-0x278(%rbp)
    7fc1:	48 8d 85 b8 f4 ff ff 	lea    -0xb48(%rbp),%rax
    7fc8:	48 89 85 90 fd ff ff 	mov    %rax,-0x270(%rbp)
    7fcf:	48 8d 85 b8 f4 ff ff 	lea    -0xb48(%rbp),%rax
    7fd6:	48 89 85 98 fd ff ff 	mov    %rax,-0x268(%rbp)
    7fdd:	48 8d 85 b8 f4 ff ff 	lea    -0xb48(%rbp),%rax
    7fe4:	48 89 85 a0 fd ff ff 	mov    %rax,-0x260(%rbp)
    7feb:	48 8d 85 b8 f4 ff ff 	lea    -0xb48(%rbp),%rax
    7ff2:	48 89 85 a8 fd ff ff 	mov    %rax,-0x258(%rbp)
    7ff9:	48 8d 85 b8 f4 ff ff 	lea    -0xb48(%rbp),%rax
    8000:	48 89 85 b0 fd ff ff 	mov    %rax,-0x250(%rbp)
    8007:	48 c7 85 b8 fd ff ff 	movq   $0x0,-0x248(%rbp)
    800e:	00 00 00 00 
    8012:	48 8d 85 b8 f4 ff ff 	lea    -0xb48(%rbp),%rax
    8019:	48 89 85 c0 fd ff ff 	mov    %rax,-0x240(%rbp)
    8020:	48 8d 85 b8 f4 ff ff 	lea    -0xb48(%rbp),%rax
    8027:	48 89 85 c8 fd ff ff 	mov    %rax,-0x238(%rbp)
    802e:	48 8d 85 b8 f4 ff ff 	lea    -0xb48(%rbp),%rax
    8035:	48 89 85 d0 fd ff ff 	mov    %rax,-0x230(%rbp)
    803c:	48 c7 85 d8 fd ff ff 	movq   $0x0,-0x228(%rbp)
    8043:	00 00 00 00 
    8047:	48 c7 85 e0 fd ff ff 	movq   $0x0,-0x220(%rbp)
    804e:	00 00 00 00 
    8052:	48 8d 85 b8 f4 ff ff 	lea    -0xb48(%rbp),%rax
    8059:	48 89 85 e8 fd ff ff 	mov    %rax,-0x218(%rbp)
    8060:	48 8d 85 b8 f4 ff ff 	lea    -0xb48(%rbp),%rax
    8067:	48 89 85 f0 fd ff ff 	mov    %rax,-0x210(%rbp)
    806e:	48 8d 85 b8 f4 ff ff 	lea    -0xb48(%rbp),%rax
    8075:	48 89 85 f8 fd ff ff 	mov    %rax,-0x208(%rbp)
    807c:	48 8d 85 b8 f4 ff ff 	lea    -0xb48(%rbp),%rax
    8083:	48 89 85 00 fe ff ff 	mov    %rax,-0x200(%rbp)
    808a:	48 c7 85 08 fe ff ff 	movq   $0x0,-0x1f8(%rbp)
    8091:	00 00 00 00 
    8095:	48 8d 85 b8 f4 ff ff 	lea    -0xb48(%rbp),%rax
    809c:	48 89 85 10 fe ff ff 	mov    %rax,-0x1f0(%rbp)
    80a3:	48 c7 85 18 fe ff ff 	movq   $0x0,-0x1e8(%rbp)
    80aa:	00 00 00 00 
    80ae:	48 c7 85 20 fe ff ff 	movq   $0x0,-0x1e0(%rbp)
    80b5:	00 00 00 00 
    80b9:	48 c7 85 28 fe ff ff 	movq   $0x0,-0x1d8(%rbp)
    80c0:	00 00 00 00 
    80c4:	48 8d 85 b8 f4 ff ff 	lea    -0xb48(%rbp),%rax
    80cb:	48 89 85 30 fe ff ff 	mov    %rax,-0x1d0(%rbp)
    80d2:	48 8d 85 b8 f4 ff ff 	lea    -0xb48(%rbp),%rax
    80d9:	48 89 85 38 fe ff ff 	mov    %rax,-0x1c8(%rbp)
    80e0:	48 8d 85 b8 f4 ff ff 	lea    -0xb48(%rbp),%rax
    80e7:	48 89 85 40 fe ff ff 	mov    %rax,-0x1c0(%rbp)
    80ee:	48 8d 85 b8 f4 ff ff 	lea    -0xb48(%rbp),%rax
    80f5:	48 89 85 48 fe ff ff 	mov    %rax,-0x1b8(%rbp)
    80fc:	48 8d 85 b8 f4 ff ff 	lea    -0xb48(%rbp),%rax
    8103:	48 89 85 50 fe ff ff 	mov    %rax,-0x1b0(%rbp)
    810a:	48 c7 85 58 fe ff ff 	movq   $0x0,-0x1a8(%rbp)
    8111:	00 00 00 00 
    8115:	48 8d 85 b8 f4 ff ff 	lea    -0xb48(%rbp),%rax
    811c:	48 89 85 60 fe ff ff 	mov    %rax,-0x1a0(%rbp)
    8123:	48 8d 85 b8 f4 ff ff 	lea    -0xb48(%rbp),%rax
    812a:	48 89 85 68 fe ff ff 	mov    %rax,-0x198(%rbp)
    8131:	48 8d 85 b8 f4 ff ff 	lea    -0xb48(%rbp),%rax
    8138:	48 89 85 70 fe ff ff 	mov    %rax,-0x190(%rbp)
    813f:	48 8d 85 b8 f4 ff ff 	lea    -0xb48(%rbp),%rax
    8146:	48 89 85 78 fe ff ff 	mov    %rax,-0x188(%rbp)
    814d:	48 8d 85 b8 f4 ff ff 	lea    -0xb48(%rbp),%rax
    8154:	48 89 85 80 fe ff ff 	mov    %rax,-0x180(%rbp)
    815b:	48 8d 85 b8 f4 ff ff 	lea    -0xb48(%rbp),%rax
    8162:	48 89 85 88 fe ff ff 	mov    %rax,-0x178(%rbp)
    8169:	48 8d 85 b8 f4 ff ff 	lea    -0xb48(%rbp),%rax
    8170:	48 89 85 90 fe ff ff 	mov    %rax,-0x170(%rbp)
    8177:	48 8d 85 b8 f4 ff ff 	lea    -0xb48(%rbp),%rax
    817e:	48 89 85 98 fe ff ff 	mov    %rax,-0x168(%rbp)
    8185:	48 c7 85 a0 fe ff ff 	movq   $0x0,-0x160(%rbp)
    818c:	00 00 00 00 
    8190:	48 8d 85 b8 f4 ff ff 	lea    -0xb48(%rbp),%rax
    8197:	48 89 85 a8 fe ff ff 	mov    %rax,-0x158(%rbp)
    819e:	48 8d 85 b8 f4 ff ff 	lea    -0xb48(%rbp),%rax
    81a5:	48 89 85 b0 fe ff ff 	mov    %rax,-0x150(%rbp)
    81ac:	48 8d 85 b8 f4 ff ff 	lea    -0xb48(%rbp),%rax
    81b3:	48 89 85 b8 fe ff ff 	mov    %rax,-0x148(%rbp)
    81ba:	48 c7 85 c0 fe ff ff 	movq   $0x0,-0x140(%rbp)
    81c1:	00 00 00 00 
    81c5:	48 8d 85 b8 f4 ff ff 	lea    -0xb48(%rbp),%rax
    81cc:	48 89 85 c8 fe ff ff 	mov    %rax,-0x138(%rbp)
    81d3:	48 8d 85 b8 f4 ff ff 	lea    -0xb48(%rbp),%rax
    81da:	48 89 85 d0 fe ff ff 	mov    %rax,-0x130(%rbp)
    81e1:	48 8d 85 b8 f4 ff ff 	lea    -0xb48(%rbp),%rax
    81e8:	48 89 85 d8 fe ff ff 	mov    %rax,-0x128(%rbp)
    81ef:	48 8d 85 b8 f4 ff ff 	lea    -0xb48(%rbp),%rax
    81f6:	48 89 85 e0 fe ff ff 	mov    %rax,-0x120(%rbp)
    81fd:	48 8d 85 b8 f4 ff ff 	lea    -0xb48(%rbp),%rax
    8204:	48 89 85 e8 fe ff ff 	mov    %rax,-0x118(%rbp)
    820b:	48 c7 85 f0 fe ff ff 	movq   $0x0,-0x110(%rbp)
    8212:	00 00 00 00 
    8216:	48 8d 85 b8 f4 ff ff 	lea    -0xb48(%rbp),%rax
    821d:	48 89 85 f8 fe ff ff 	mov    %rax,-0x108(%rbp)
    8224:	48 8d 85 b8 f4 ff ff 	lea    -0xb48(%rbp),%rax
    822b:	48 89 85 00 ff ff ff 	mov    %rax,-0x100(%rbp)
    8232:	48 8d 85 b8 f4 ff ff 	lea    -0xb48(%rbp),%rax
    8239:	48 89 85 08 ff ff ff 	mov    %rax,-0xf8(%rbp)
    8240:	48 8d 85 b8 f4 ff ff 	lea    -0xb48(%rbp),%rax
    8247:	48 89 85 10 ff ff ff 	mov    %rax,-0xf0(%rbp)
    824e:	48 c7 85 18 ff ff ff 	movq   $0x0,-0xe8(%rbp)
    8255:	00 00 00 00 
    8259:	48 8d 85 b8 f4 ff ff 	lea    -0xb48(%rbp),%rax
    8260:	48 89 85 20 ff ff ff 	mov    %rax,-0xe0(%rbp)
    8267:	48 c7 85 28 ff ff ff 	movq   $0x0,-0xd8(%rbp)
    826e:	00 00 00 00 
    8272:	48 8d 85 b8 f4 ff ff 	lea    -0xb48(%rbp),%rax
    8279:	48 89 85 30 ff ff ff 	mov    %rax,-0xd0(%rbp)
    8280:	48 c7 85 38 ff ff ff 	movq   $0x0,-0xc8(%rbp)
    8287:	00 00 00 00 
    828b:	48 8d 85 b8 f4 ff ff 	lea    -0xb48(%rbp),%rax
    8292:	48 89 85 40 ff ff ff 	mov    %rax,-0xc0(%rbp)
    8299:	48 c7 85 48 ff ff ff 	movq   $0x0,-0xb8(%rbp)
    82a0:	00 00 00 00 
    82a4:	48 c7 85 50 ff ff ff 	movq   $0x0,-0xb0(%rbp)
    82ab:	00 00 00 00 
    82af:	48 8d 85 b8 f4 ff ff 	lea    -0xb48(%rbp),%rax
    82b6:	48 89 85 58 ff ff ff 	mov    %rax,-0xa8(%rbp)
    82bd:	48 8d 85 b8 f4 ff ff 	lea    -0xb48(%rbp),%rax
    82c4:	48 89 85 60 ff ff ff 	mov    %rax,-0xa0(%rbp)
    82cb:	48 8d 85 b8 f4 ff ff 	lea    -0xb48(%rbp),%rax
    82d2:	48 89 85 68 ff ff ff 	mov    %rax,-0x98(%rbp)
    82d9:	48 c7 85 70 ff ff ff 	movq   $0x0,-0x90(%rbp)
    82e0:	00 00 00 00 
    82e4:	48 c7 85 78 ff ff ff 	movq   $0x0,-0x88(%rbp)
    82eb:	00 00 00 00 
    82ef:	48 c7 45 80 00 00 00 	movq   $0x0,-0x80(%rbp)
    82f6:	00 
    82f7:	48 8d 85 b8 f4 ff ff 	lea    -0xb48(%rbp),%rax
    82fe:	48 89 45 88          	mov    %rax,-0x78(%rbp)
    8302:	48 8d 85 b8 f4 ff ff 	lea    -0xb48(%rbp),%rax
    8309:	48 89 45 90          	mov    %rax,-0x70(%rbp)
    830d:	48 8d 85 b8 f4 ff ff 	lea    -0xb48(%rbp),%rax
    8314:	48 89 45 98          	mov    %rax,-0x68(%rbp)
    8318:	48 8d 85 b8 f4 ff ff 	lea    -0xb48(%rbp),%rax
    831f:	48 89 45 a0          	mov    %rax,-0x60(%rbp)
    8323:	48 8d 85 b8 f4 ff ff 	lea    -0xb48(%rbp),%rax
    832a:	48 89 45 a8          	mov    %rax,-0x58(%rbp)
    832e:	48 c7 45 b0 00 00 00 	movq   $0x0,-0x50(%rbp)
    8335:	00 
    8336:	48 b8 cb 9b 9a b7 ad 	movabs $0xcffa74adb79a9bcb,%rax
    833d:	74 fa cf 
    8340:	48 89 85 d0 f4 ff ff 	mov    %rax,-0xb30(%rbp)
    8347:	c7 85 58 f4 ff ff 03 	movl   $0x3,-0xba8(%rbp)
    834e:	00 00 00 
    8351:	48 c7 85 c0 f4 ff ff 	movq   $0x0,-0xb40(%rbp)
    8358:	00 00 00 00 
    835c:	48 8d 85 c0 f4 ff ff 	lea    -0xb40(%rbp),%rax
    8363:	48 89 85 b0 f5 ff ff 	mov    %rax,-0xa50(%rbp)
    836a:	48 8d 85 c0 f4 ff ff 	lea    -0xb40(%rbp),%rax
    8371:	48 89 85 b8 f5 ff ff 	mov    %rax,-0xa48(%rbp)
    8378:	48 8d 85 c0 f4 ff ff 	lea    -0xb40(%rbp),%rax
    837f:	48 89 85 c0 f5 ff ff 	mov    %rax,-0xa40(%rbp)
    8386:	48 8d 85 c0 f4 ff ff 	lea    -0xb40(%rbp),%rax
    838d:	48 89 85 c8 f5 ff ff 	mov    %rax,-0xa38(%rbp)
    8394:	48 8d 85 c0 f4 ff ff 	lea    -0xb40(%rbp),%rax
    839b:	48 89 85 d0 f5 ff ff 	mov    %rax,-0xa30(%rbp)
    83a2:	48 8d 85 b0 f5 ff ff 	lea    -0xa50(%rbp),%rax
    83a9:	48 89 85 08 f5 ff ff 	mov    %rax,-0xaf8(%rbp)
    83b0:	c7 85 50 f4 ff ff 00 	movl   $0x0,-0xbb0(%rbp)
    83b7:	00 00 00 
    83ba:	eb 14                	jmp    83d0 <func_1+0x1c1b>
    83bc:	8b 85 50 f4 ff ff    	mov    -0xbb0(%rbp),%eax
    83c2:	48 98                	cltq   
    83c4:	c6 44 05 bb 8e       	movb   $0x8e,-0x45(%rbp,%rax,1)
    83c9:	83 85 50 f4 ff ff 01 	addl   $0x1,-0xbb0(%rbp)
    83d0:	83 bd 50 f4 ff ff 02 	cmpl   $0x2,-0xbb0(%rbp)
    83d7:	7e e3                	jle    83bc <func_1+0x1c07>
    83d9:	48 8b 85 a0 f4 ff ff 	mov    -0xb60(%rbp),%rax
    83e0:	0f b6 08             	movzbl (%rax),%ecx
    83e3:	48 8b 05 66 d3 00 00 	mov    0xd366(%rip),%rax        # 15750 <g_92>
    83ea:	0f b6 10             	movzbl (%rax),%edx
    83ed:	48 8b 85 a0 f4 ff ff 	mov    -0xb60(%rbp),%rax
    83f4:	31 ca                	xor    %ecx,%edx
    83f6:	88 10                	mov    %dl,(%rax)
    83f8:	0f b6 00             	movzbl (%rax),%eax
    83fb:	0f be d0             	movsbl %al,%edx
    83fe:	8b 85 30 f4 ff ff    	mov    -0xbd0(%rbp),%eax
    8404:	09 d0                	or     %edx,%eax
    8406:	89 85 30 f4 ff ff    	mov    %eax,-0xbd0(%rbp)
    840c:	0f b6 45 bd          	movzbl -0x43(%rbp),%eax
    8410:	0f b6 d0             	movzbl %al,%edx
    8413:	0f be 85 2a f4 ff ff 	movsbl -0xbd6(%rbp),%eax
    841a:	89 d6                	mov    %edx,%esi
    841c:	89 c7                	mov    %eax,%edi
    841e:	e8 90 cf ff ff       	callq  53b3 <safe_add_func_int16_t_s_s>
    8423:	48 be 80 0f 29 d7 0c 	movabs $0x2f87990cd7290f80,%rsi
    842a:	99 87 2f 
    842d:	bf 00 00 00 00       	mov    $0x0,%edi
    8432:	e8 49 dc ff ff       	callq  6080 <safe_mod_func_uint64_t_u_u>
    8437:	ba 73 00 00 00       	mov    $0x73,%edx
    843c:	48 0f be d2          	movsbq %dl,%rdx
    8440:	48 39 d0             	cmp    %rdx,%rax
    8443:	48 8b 05 66 d5 00 00 	mov    0xd566(%rip),%rax        # 159b0 <g_637>
    844a:	48 8b 00             	mov    (%rax),%rax
    844d:	48 8b 00             	mov    (%rax),%rax
    8450:	48 8b 00             	mov    (%rax),%rax
    8453:	48 89 c7             	mov    %rax,%rdi
    8456:	e8 be db ff ff       	callq  6019 <safe_unary_minus_func_uint64_t_u>
    845b:	48 83 bd f8 f4 ff ff 	cmpq   $0x0,-0xb08(%rbp)
    8462:	00 
    8463:	48 8b 85 b8 f4 ff ff 	mov    -0xb48(%rbp),%rax
    846a:	48 89 05 ff e3 00 00 	mov    %rax,0xe3ff(%rip)        # 16870 <g_2110>
    8471:	48 8b 05 f8 e3 00 00 	mov    0xe3f8(%rip),%rax        # 16870 <g_2110>
    8478:	48 85 c0             	test   %rax,%rax
    847b:	0f 94 c0             	sete   %al
    847e:	0f b6 c0             	movzbl %al,%eax
    8481:	39 85 4c f4 ff ff    	cmp    %eax,-0xbb4(%rbp)
    8487:	0f 9c c0             	setl   %al
    848a:	89 c2                	mov    %eax,%edx
    848c:	0f b6 45 bc          	movzbl -0x44(%rbp),%eax
    8490:	31 c2                	xor    %eax,%edx
    8492:	8b 85 4c f4 ff ff    	mov    -0xbb4(%rbp),%eax
    8498:	09 d0                	or     %edx,%eax
    849a:	88 85 71 f6 ff ff    	mov    %al,-0x98f(%rbp)
    84a0:	8b 05 86 cb 00 00    	mov    0xcb86(%rip),%eax        # 1502c <g_43>
    84a6:	48 ba 06 c1 e3 5a bc 	movabs $0xeb76ddbc5ae3c106,%rdx
    84ad:	dd 76 eb 
    84b0:	48 8b 05 51 e8 00 00 	mov    0xe851(%rip),%rax        # 16d08 <g_99>
    84b7:	48 21 d0             	and    %rdx,%rax
    84ba:	48 89 05 47 e8 00 00 	mov    %rax,0xe847(%rip)        # 16d08 <g_99>
    84c1:	48 8b 15 40 e8 00 00 	mov    0xe840(%rip),%rdx        # 16d08 <g_99>
    84c8:	0f b7 05 59 cc 00 00 	movzwl 0xcc59(%rip),%eax        # 15128 <g_621>
    84cf:	48 0f bf c0          	movswq %ax,%rax
    84d3:	48 89 d1             	mov    %rdx,%rcx
    84d6:	48 09 c1             	or     %rax,%rcx
    84d9:	48 8b 05 60 d2 00 00 	mov    0xd260(%rip),%rax        # 15740 <g_5>
    84e0:	8b 10                	mov    (%rax),%edx
    84e2:	48 8b 05 57 d2 00 00 	mov    0xd257(%rip),%rax        # 15740 <g_5>
    84e9:	31 ca                	xor    %ecx,%edx
    84eb:	89 10                	mov    %edx,(%rax)
    84ed:	48 8b 05 4c d2 00 00 	mov    0xd24c(%rip),%rax        # 15740 <g_5>
    84f4:	8b 00                	mov    (%rax),%eax
    84f6:	85 c0                	test   %eax,%eax
    84f8:	0f 85 74 01 00 00    	jne    8672 <func_1+0x1ebd>
    84fe:	c7 85 4c f4 ff ff 06 	movl   $0x6,-0xbb4(%rbp)
    8505:	00 00 00 
    8508:	e9 45 01 00 00       	jmpq   8652 <func_1+0x1e9d>
    850d:	48 c7 85 10 f5 ff ff 	movq   $0x0,-0xaf0(%rbp)
    8514:	00 00 00 00 
    8518:	c7 85 34 f4 ff ff f4 	movl   $0xfffffff4,-0xbcc(%rbp)
    851f:	ff ff ff 
    8522:	e9 17 01 00 00       	jmpq   863e <func_1+0x1e89>
    8527:	48 b8 01 cd cd 01 cd 	movabs $0xcd01cdcd01cdcd01,%rax
    852e:	cd 01 cd 
    8531:	48 89 45 be          	mov    %rax,-0x42(%rbp)
    8535:	66 c7 45 c6 cd 01    	movw   $0x1cd,-0x3a(%rbp)
    853b:	48 c7 85 18 f5 ff ff 	movq   $0x0,-0xae8(%rbp)
    8542:	00 00 00 00 
    8546:	48 8d 05 13 d2 00 00 	lea    0xd213(%rip),%rax        # 15760 <g_254>
    854d:	48 89 85 20 f5 ff ff 	mov    %rax,-0xae0(%rbp)
    8554:	0f b6 45 be          	movzbl -0x42(%rbp),%eax
    8558:	44 0f b6 e0          	movzbl %al,%r12d
    855c:	48 8b 05 95 dd 00 00 	mov    0xdd95(%rip),%rax        # 162f8 <g_2055>
    8563:	48 8b 00             	mov    (%rax),%rax
    8566:	8b 18                	mov    (%rax),%ebx
    8568:	48 8b 05 f9 dc 00 00 	mov    0xdcf9(%rip),%rax        # 16268 <g_1096>
    856f:	0f b7 00             	movzwl (%rax),%eax
    8572:	0f b7 c0             	movzwl %ax,%eax
    8575:	48 09 85 d0 f4 ff ff 	or     %rax,-0xb30(%rbp)
    857c:	8b 85 34 f4 ff ff    	mov    -0xbcc(%rbp),%eax
    8582:	48 98                	cltq   
    8584:	83 e0 04             	and    $0x4,%eax
    8587:	49 89 c6             	mov    %rax,%r14
    858a:	0f b6 45 bb          	movzbl -0x45(%rbp),%eax
    858e:	84 c0                	test   %al,%al
    8590:	74 64                	je     85f6 <func_1+0x1e41>
    8592:	0f b6 45 be          	movzbl -0x42(%rbp),%eax
    8596:	0f be c0             	movsbl %al,%eax
    8599:	89 c6                	mov    %eax,%esi
    859b:	bf 78 36 00 00       	mov    $0x3678,%edi
    85a0:	e8 0e ce ff ff       	callq  53b3 <safe_add_func_int16_t_s_s>
    85a5:	44 0f b6 e8          	movzbl %al,%r13d
    85a9:	48 83 bd 10 f5 ff ff 	cmpq   $0x0,-0xaf0(%rbp)
    85b0:	00 
    85b1:	0f 94 c0             	sete   %al
    85b4:	0f b6 c0             	movzbl %al,%eax
    85b7:	89 c7                	mov    %eax,%edi
    85b9:	e8 2b d7 ff ff       	callq  5ce9 <safe_unary_minus_func_uint16_t_u>
    85be:	66 85 c0             	test   %ax,%ax
    85c1:	75 0f                	jne    85d2 <func_1+0x1e1d>
    85c3:	48 8b 05 b6 da 00 00 	mov    0xdab6(%rip),%rax        # 16080 <g_763>
    85ca:	48 8b 00             	mov    (%rax),%rax
    85cd:	48 85 c0             	test   %rax,%rax
    85d0:	75 07                	jne    85d9 <func_1+0x1e24>
    85d2:	b8 01 00 00 00       	mov    $0x1,%eax
    85d7:	eb 05                	jmp    85de <func_1+0x1e29>
    85d9:	b8 00 00 00 00       	mov    $0x0,%eax
    85de:	0f b6 c0             	movzbl %al,%eax
    85e1:	44 89 ee             	mov    %r13d,%esi
    85e4:	89 c7                	mov    %eax,%edi
    85e6:	e8 c3 d5 ff ff       	callq  5bae <safe_mod_func_uint8_t_u_u>
    85eb:	84 c0                	test   %al,%al
    85ed:	74 07                	je     85f6 <func_1+0x1e41>
    85ef:	b8 01 00 00 00       	mov    $0x1,%eax
    85f4:	eb 05                	jmp    85fb <func_1+0x1e46>
    85f6:	b8 00 00 00 00       	mov    $0x0,%eax
    85fb:	48 98                	cltq   
    85fd:	4c 89 f6             	mov    %r14,%rsi
    8600:	48 89 c7             	mov    %rax,%rdi
    8603:	e8 a0 d2 ff ff       	callq  58a8 <safe_sub_func_int64_t_s_s>
    8608:	89 05 32 cb 00 00    	mov    %eax,0xcb32(%rip)        # 15140 <g_1010>
    860e:	8b 05 2c cb 00 00    	mov    0xcb2c(%rip),%eax        # 15140 <g_1010>
    8614:	44 89 e2             	mov    %r12d,%edx
    8617:	89 de                	mov    %ebx,%esi
    8619:	89 c7                	mov    %eax,%edi
    861b:	e8 72 41 00 00       	callq  c792 <func_77>
    8620:	48 8b 95 20 f5 ff ff 	mov    -0xae0(%rbp),%rdx
    8627:	48 89 02             	mov    %rax,(%rdx)
    862a:	0f b6 45 bd          	movzbl -0x43(%rbp),%eax
    862e:	0f b6 c0             	movzbl %al,%eax
    8631:	89 85 58 f4 ff ff    	mov    %eax,-0xba8(%rbp)
    8637:	83 85 34 f4 ff ff 01 	addl   $0x1,-0xbcc(%rbp)
    863e:	83 bd 34 f4 ff ff 0b 	cmpl   $0xb,-0xbcc(%rbp)
    8645:	0f 85 dc fe ff ff    	jne    8527 <func_1+0x1d72>
    864b:	83 ad 4c f4 ff ff 01 	subl   $0x1,-0xbb4(%rbp)
    8652:	83 bd 4c f4 ff ff fe 	cmpl   $0xfffffffe,-0xbb4(%rbp)
    8659:	0f 8c ae fe ff ff    	jl     850d <func_1+0x1d58>
    865f:	48 8b 05 5a e2 00 00 	mov    0xe25a(%rip),%rax        # 168c0 <g_2135>
    8666:	48 8b 95 08 f5 ff ff 	mov    -0xaf8(%rbp),%rdx
    866d:	48 89 10             	mov    %rdx,(%rax)
    8670:	eb 01                	jmp    8673 <func_1+0x1ebe>
    8672:	90                   	nop
    8673:	48 8b 05 b6 c9 00 00 	mov    0xc9b6(%rip),%rax        # 15030 <g_68>
    867a:	48 83 c0 01          	add    $0x1,%rax
    867e:	48 89 05 ab c9 00 00 	mov    %rax,0xc9ab(%rip)        # 15030 <g_68>
    8685:	48 8b 05 a4 c9 00 00 	mov    0xc9a4(%rip),%rax        # 15030 <g_68>
    868c:	48 83 f8 02          	cmp    $0x2,%rax
    8690:	0f 87 e7 ef ff ff    	ja     767d <func_1+0xec8>
    8696:	48 8b 05 43 dc 00 00 	mov    0xdc43(%rip),%rax        # 162e0 <g_1794>
    869d:	48 8b 00             	mov    (%rax),%rax
    86a0:	48 89 85 00 f5 ff ff 	mov    %rax,-0xb00(%rbp)
    86a7:	0f b6 05 bb c9 00 00 	movzbl 0xc9bb(%rip),%eax        # 15069 <g_247>
    86ae:	0f be c0             	movsbl %al,%eax
    86b1:	be 06 00 00 00       	mov    $0x6,%esi
    86b6:	89 c7                	mov    %eax,%edi
    86b8:	e8 17 cb ff ff       	callq  51d4 <safe_add_func_int8_t_s_s>
    86bd:	88 05 a6 c9 00 00    	mov    %al,0xc9a6(%rip)        # 15069 <g_247>
    86c3:	0f b6 05 9f c9 00 00 	movzbl 0xc99f(%rip),%eax        # 15069 <g_247>
    86ca:	3c 01                	cmp    $0x1,%al
    86cc:	0f 87 48 ed ff ff    	ja     741a <func_1+0xc65>
    86d2:	8b 85 84 f5 ff ff    	mov    -0xa7c(%rbp),%eax
    86d8:	48 8b 5d c8          	mov    -0x38(%rbp),%rbx
    86dc:	64 48 33 1c 25 28 00 	xor    %fs:0x28,%rbx
    86e3:	00 00 
    86e5:	74 05                	je     86ec <func_1+0x1f37>
    86e7:	e8 84 c9 ff ff       	callq  5070 <__stack_chk_fail@plt>
    86ec:	48 81 c4 b8 0b 00 00 	add    $0xbb8,%rsp
    86f3:	5b                   	pop    %rbx
    86f4:	41 5c                	pop    %r12
    86f6:	41 5d                	pop    %r13
    86f8:	41 5e                	pop    %r14
    86fa:	41 5f                	pop    %r15
    86fc:	5d                   	pop    %rbp
    86fd:	c3                   	retq   

00000000000086fe <func_2>:
    86fe:	f3 0f 1e fa          	endbr64 
    8702:	55                   	push   %rbp
    8703:	48 89 e5             	mov    %rsp,%rbp
    8706:	41 57                	push   %r15
    8708:	41 56                	push   %r14
    870a:	41 55                	push   %r13
    870c:	41 54                	push   %r12
    870e:	53                   	push   %rbx
    870f:	48 81 ec d8 0c 00 00 	sub    $0xcd8,%rsp
    8716:	48 89 bd 18 f3 ff ff 	mov    %rdi,-0xce8(%rbp)
    871d:	48 89 b5 10 f3 ff ff 	mov    %rsi,-0xcf0(%rbp)
    8724:	64 48 8b 04 25 28 00 	mov    %fs:0x28,%rax
    872b:	00 00 
    872d:	48 89 45 c8          	mov    %rax,-0x38(%rbp)
    8731:	31 c0                	xor    %eax,%eax
    8733:	48 b8 b8 a1 69 5b 60 	movabs $0x9f89c0605b69a1b8,%rax
    873a:	c0 89 9f 
    873d:	48 89 85 c0 f5 ff ff 	mov    %rax,-0xa40(%rbp)
    8744:	48 89 85 c8 f5 ff ff 	mov    %rax,-0xa38(%rbp)
    874b:	48 89 85 d0 f5 ff ff 	mov    %rax,-0xa30(%rbp)
    8752:	48 89 85 d8 f5 ff ff 	mov    %rax,-0xa28(%rbp)
    8759:	48 89 85 e0 f5 ff ff 	mov    %rax,-0xa20(%rbp)
    8760:	48 89 85 e8 f5 ff ff 	mov    %rax,-0xa18(%rbp)
    8767:	48 89 85 f0 f5 ff ff 	mov    %rax,-0xa10(%rbp)
    876e:	48 8d 05 03 ca 00 00 	lea    0xca03(%rip),%rax        # 15178 <g_1252+0x8>
    8775:	48 89 85 d8 f3 ff ff 	mov    %rax,-0xc28(%rbp)
    877c:	48 8d 05 61 c9 00 00 	lea    0xc961(%rip),%rax        # 150e4 <g_327>
    8783:	48 89 85 e0 f3 ff ff 	mov    %rax,-0xc20(%rbp)
    878a:	c7 85 34 f3 ff ff 01 	movl   $0x1,-0xccc(%rbp)
    8791:	00 00 00 
    8794:	48 c7 85 90 f4 ff ff 	movq   $0x0,-0xb70(%rbp)
    879b:	00 00 00 00 
    879f:	48 8d 05 ca da 00 00 	lea    0xdaca(%rip),%rax        # 16270 <g_1095>
    87a6:	48 89 85 e8 f3 ff ff 	mov    %rax,-0xc18(%rbp)
    87ad:	48 8d 05 b5 c8 00 00 	lea    0xc8b5(%rip),%rax        # 15069 <g_247>
    87b4:	48 89 85 98 f4 ff ff 	mov    %rax,-0xb68(%rbp)
    87bb:	48 c7 85 a0 f4 ff ff 	movq   $0x0,-0xb60(%rbp)
    87c2:	00 00 00 00 
    87c6:	c7 85 38 f3 ff ff 01 	movl   $0x1,-0xcc8(%rbp)
    87cd:	00 00 00 
    87d0:	c7 85 3c f3 ff ff 05 	movl   $0x5,-0xcc4(%rbp)
    87d7:	00 00 00 
    87da:	c7 85 40 f3 ff ff 01 	movl   $0x1,-0xcc0(%rbp)
    87e1:	00 00 00 
    87e4:	c7 85 44 f3 ff ff da 	movl   $0xca64e9da,-0xcbc(%rbp)
    87eb:	e9 64 ca 
    87ee:	c7 85 48 f3 ff ff 09 	movl   $0x9,-0xcb8(%rbp)
    87f5:	00 00 00 
    87f8:	c7 85 7c f3 ff ff ff 	movl   $0xffffffff,-0xc84(%rbp)
    87ff:	ff ff ff 
    8802:	c7 85 80 f3 ff ff 5e 	movl   $0xd189125e,-0xc80(%rbp)
    8809:	12 89 d1 
    880c:	48 c7 85 70 f4 ff ff 	movq   $0xfffffffffffffffb,-0xb90(%rbp)
    8813:	fb ff ff ff 
    8817:	c7 85 d0 f6 ff ff a8 	movl   $0x151501a8,-0x930(%rbp)
    881e:	01 15 15 
    8821:	66 c7 85 d4 f6 ff ff 	movw   $0xa801,-0x92c(%rbp)
    8828:	01 a8 
    882a:	c6 85 d6 f6 ff ff 14 	movb   $0x14,-0x92a(%rbp)
    8831:	c7 85 d7 f6 ff ff b3 	movl   $0x710029b3,-0x929(%rbp)
    8838:	29 00 71 
    883b:	66 c7 85 db f6 ff ff 	movw   $0x2900,-0x925(%rbp)
    8842:	00 29 
    8844:	c6 85 dd f6 ff ff b3 	movb   $0xb3,-0x923(%rbp)
    884b:	c7 85 de f6 ff ff a8 	movl   $0x7d1415a8,-0x922(%rbp)
    8852:	15 14 7d 
    8855:	66 c7 85 e2 f6 ff ff 	movw   $0x147d,-0x91e(%rbp)
    885c:	7d 14 
    885e:	c6 85 e4 f6 ff ff 15 	movb   $0x15,-0x91c(%rbp)
    8865:	c7 85 e5 f6 ff ff 01 	movl   $0xf82901,-0x91b(%rbp)
    886c:	29 f8 00 
    886f:	66 c7 85 e9 f6 ff ff 	movw   $0x1,-0x917(%rbp)
    8876:	01 00 
    8878:	c6 85 eb f6 ff ff f8 	movb   $0xf8,-0x915(%rbp)
    887f:	c7 85 ec f6 ff ff 7d 	movl   $0x14017d,-0x914(%rbp)
    8886:	01 14 00 
    8889:	66 c7 85 f0 f6 ff ff 	movw   $0xa8a8,-0x910(%rbp)
    8890:	a8 a8 
    8892:	c6 85 f2 f6 ff ff 00 	movb   $0x0,-0x90e(%rbp)
    8899:	c7 85 f3 f6 ff ff 00 	movl   $0x0,-0x90d(%rbp)
    88a0:	00 00 00 
    88a3:	66 c7 85 f7 f6 ff ff 	movw   $0xb3,-0x909(%rbp)
    88aa:	b3 00 
    88ac:	c6 85 f9 f6 ff ff b3 	movb   $0xb3,-0x907(%rbp)
    88b3:	c7 85 fa f6 ff ff 01 	movl   $0x7d150001,-0x906(%rbp)
    88ba:	00 15 7d 
    88bd:	66 c7 85 fe f6 ff ff 	movw   $0x4a8,-0x902(%rbp)
    88c4:	a8 04 
    88c6:	c6 85 00 f7 ff ff 04 	movb   $0x4,-0x900(%rbp)
    88cd:	c7 85 01 f7 ff ff 01 	movl   $0x71ca7101,-0x8ff(%rbp)
    88d4:	71 ca 71 
    88d7:	66 c7 85 05 f7 ff ff 	movw   $0x1,-0x8fb(%rbp)
    88de:	01 00 
    88e0:	c6 85 07 f7 ff ff ca 	movb   $0xca,-0x8f9(%rbp)
    88e7:	c7 85 08 f7 ff ff 18 	movl   $0x15000118,-0x8f8(%rbp)
    88ee:	01 00 15 
    88f1:	66 c7 85 0c f7 ff ff 	movw   $0xa87d,-0x8f4(%rbp)
    88f8:	7d a8 
    88fa:	c6 85 0e f7 ff ff 04 	movb   $0x4,-0x8f2(%rbp)
    8901:	c7 85 0f f7 ff ff b3 	movl   $0xb3,-0x8f1(%rbp)
    8908:	00 00 00 
    890b:	66 c7 85 13 f7 ff ff 	movw   $0x0,-0x8ed(%rbp)
    8912:	00 00 
    8914:	c6 85 15 f7 ff ff b3 	movb   $0xb3,-0x8eb(%rbp)
    891b:	c7 85 16 f7 ff ff 18 	movl   $0x7d041518,-0x8ea(%rbp)
    8922:	15 04 7d 
    8925:	66 c7 85 1a f7 ff ff 	movw   $0x1401,-0x8e6(%rbp)
    892c:	01 14 
    892e:	c6 85 1c f7 ff ff 00 	movb   $0x0,-0x8e4(%rbp)
    8935:	c7 85 1d f7 ff ff 01 	movl   $0x29f80001,-0x8e3(%rbp)
    893c:	00 f8 29 
    893f:	66 c7 85 21 f7 ff ff 	movw   $0x2901,-0x8df(%rbp)
    8946:	01 29 
    8948:	c6 85 23 f7 ff ff f8 	movb   $0xf8,-0x8dd(%rbp)
    894f:	c7 85 24 f7 ff ff 01 	movl   $0x40101,-0x8dc(%rbp)
    8956:	01 04 00 
    8959:	66 c7 85 28 f7 ff ff 	movw   $0xa818,-0x8d8(%rbp)
    8960:	18 a8 
    8962:	c6 85 2a f7 ff ff 15 	movb   $0x15,-0x8d6(%rbp)
    8969:	c7 85 2b f7 ff ff 00 	movl   $0x29007100,-0x8d5(%rbp)
    8970:	71 00 29 
    8973:	66 c7 85 2f f7 ff ff 	movw   $0x71b3,-0x8d1(%rbp)
    897a:	b3 71 
    897c:	c6 85 31 f7 ff ff b3 	movb   $0xb3,-0x8cf(%rbp)
    8983:	c7 85 32 f7 ff ff 7d 	movl   $0x7d00007d,-0x8ce(%rbp)
    898a:	00 00 7d 
    898d:	66 c7 85 36 f7 ff ff 	movw   $0x418,-0x8ca(%rbp)
    8994:	18 04 
    8996:	c6 85 38 f7 ff ff 14 	movb   $0x14,-0x8c8(%rbp)
    899d:	c7 85 39 f7 ff ff 01 	movl   $0xca0001,-0x8c7(%rbp)
    89a4:	00 ca 00 
    89a7:	66 c7 85 3d f7 ff ff 	movw   $0x7101,-0x8c3(%rbp)
    89ae:	01 71 
    89b0:	c6 85 3f f7 ff ff ca 	movb   $0xca,-0x8c1(%rbp)
    89b7:	c7 85 40 f7 ff ff a8 	movl   $0x151501a8,-0x8c0(%rbp)
    89be:	01 15 15 
    89c1:	66 c7 85 44 f7 ff ff 	movw   $0xa801,-0x8bc(%rbp)
    89c8:	01 a8 
    89ca:	c6 85 46 f7 ff ff 14 	movb   $0x14,-0x8ba(%rbp)
    89d1:	c7 85 47 f7 ff ff b3 	movl   $0x710029b3,-0x8b9(%rbp)
    89d8:	29 00 71 
    89db:	66 c7 85 4b f7 ff ff 	movw   $0x2900,-0x8b5(%rbp)
    89e2:	00 29 
    89e4:	c6 85 4d f7 ff ff b3 	movb   $0xb3,-0x8b3(%rbp)
    89eb:	48 b8 d4 57 5d a4 36 	movabs $0x5775a336a45d57d4,%rax
    89f2:	a3 75 57 
    89f5:	48 89 85 f0 f3 ff ff 	mov    %rax,-0xc10(%rbp)
    89fc:	66 c7 85 30 f3 ff ff 	movw   $0x6b34,-0xcd0(%rbp)
    8a03:	34 6b 
    8a05:	48 8d 05 94 cf 00 00 	lea    0xcf94(%rip),%rax        # 159a0 <g_638>
    8a0c:	48 89 85 78 f4 ff ff 	mov    %rax,-0xb88(%rbp)
    8a13:	48 c7 85 f8 f3 ff ff 	movq   $0x0,-0xc08(%rbp)
    8a1a:	00 00 00 00 
    8a1e:	48 b8 15 6c b5 06 5d 	movabs $0x399c7e5d06b56c15,%rax
    8a25:	7e 9c 39 
    8a28:	48 89 85 80 f4 ff ff 	mov    %rax,-0xb80(%rbp)
    8a2f:	66 c7 85 32 f3 ff ff 	movw   $0x6864,-0xcce(%rbp)
    8a36:	64 68 
    8a38:	48 8d 05 11 c6 00 00 	lea    0xc611(%rip),%rax        # 15050 <g_133>
    8a3f:	48 89 85 00 f4 ff ff 	mov    %rax,-0xc00(%rbp)
    8a46:	c6 85 2b f3 ff ff 01 	movb   $0x1,-0xcd5(%rbp)
    8a4d:	c7 85 84 f3 ff ff 86 	movl   $0xc4489786,-0xc7c(%rbp)
    8a54:	97 48 c4 
    8a57:	48 c7 85 60 f4 ff ff 	movq   $0x0,-0xba0(%rbp)
    8a5e:	00 00 00 00 
    8a62:	48 8d 85 50 f5 ff ff 	lea    -0xab0(%rbp),%rax
    8a69:	48 89 85 88 f4 ff ff 	mov    %rax,-0xb78(%rbp)
    8a70:	c7 85 88 f3 ff ff 00 	movl   $0x0,-0xc78(%rbp)
    8a77:	00 00 00 
    8a7a:	eb 4a                	jmp    8ac6 <func_2+0x3c8>
    8a7c:	c7 85 a0 f3 ff ff 00 	movl   $0x0,-0xc60(%rbp)
    8a83:	00 00 00 
    8a86:	eb 2e                	jmp    8ab6 <func_2+0x3b8>
    8a88:	8b 85 a0 f3 ff ff    	mov    -0xc60(%rbp),%eax
    8a8e:	48 98                	cltq   
    8a90:	8b 95 88 f3 ff ff    	mov    -0xc78(%rbp),%edx
    8a96:	48 63 d2             	movslq %edx,%rdx
    8a99:	48 01 d2             	add    %rdx,%rdx
    8a9c:	48 8d 5d d0          	lea    -0x30(%rbp),%rbx
    8aa0:	48 01 da             	add    %rbx,%rdx
    8aa3:	48 01 d0             	add    %rdx,%rax
    8aa6:	48 2d 9e 0a 00 00    	sub    $0xa9e,%rax
    8aac:	c6 00 d4             	movb   $0xd4,(%rax)
    8aaf:	83 85 a0 f3 ff ff 01 	addl   $0x1,-0xc60(%rbp)
    8ab6:	83 bd a0 f3 ff ff 01 	cmpl   $0x1,-0xc60(%rbp)
    8abd:	7e c9                	jle    8a88 <func_2+0x38a>
    8abf:	83 85 88 f3 ff ff 01 	addl   $0x1,-0xc78(%rbp)
    8ac6:	83 bd 88 f3 ff ff 02 	cmpl   $0x2,-0xc78(%rbp)
    8acd:	7e ad                	jle    8a7c <func_2+0x37e>
    8acf:	c7 85 88 f3 ff ff 00 	movl   $0x0,-0xc78(%rbp)
    8ad6:	00 00 00 
    8ad9:	eb 1a                	jmp    8af5 <func_2+0x3f7>
    8adb:	8b 85 88 f3 ff ff    	mov    -0xc78(%rbp),%eax
    8ae1:	48 98                	cltq   
    8ae3:	c7 84 85 50 f5 ff ff 	movl   $0x0,-0xab0(%rbp,%rax,4)
    8aea:	00 00 00 00 
    8aee:	83 85 88 f3 ff ff 01 	addl   $0x1,-0xc78(%rbp)
    8af5:	83 bd 88 f3 ff ff 05 	cmpl   $0x5,-0xc78(%rbp)
    8afc:	7e dd                	jle    8adb <func_2+0x3dd>
    8afe:	c6 05 24 c5 00 00 00 	movb   $0x0,0xc524(%rip)        # 15029 <g_19>
    8b05:	90                   	nop
    8b06:	0f b6 05 1c c5 00 00 	movzbl 0xc51c(%rip),%eax        # 15029 <g_19>
    8b0d:	3c f8                	cmp    $0xf8,%al
    8b0f:	7c 17                	jl     8b28 <func_2+0x42a>
    8b11:	48 c7 85 28 f5 ff ff 	movq   $0x0,-0xad8(%rbp)
    8b18:	00 00 00 00 
    8b1c:	48 8b 85 28 f5 ff ff 	mov    -0xad8(%rbp),%rax
    8b23:	e9 11 2d 00 00       	jmpq   b839 <func_2+0x313b>
    8b28:	66 c7 05 bf c5 00 00 	movw   $0xd,0xc5bf(%rip)        # 150f0 <g_366>
    8b2f:	0d 00 
    8b31:	e9 80 01 00 00       	jmpq   8cb6 <func_2+0x5b8>
    8b36:	c7 85 b0 f8 ff ff fa 	movl   $0xfffffffa,-0x750(%rbp)
    8b3d:	ff ff ff 
    8b40:	c7 85 b4 f8 ff ff fa 	movl   $0xfffffffa,-0x74c(%rbp)
    8b47:	ff ff ff 
    8b4a:	c7 85 b8 f8 ff ff fa 	movl   $0xfffffffa,-0x748(%rbp)
    8b51:	ff ff ff 
    8b54:	c7 85 bc f8 ff ff fa 	movl   $0xfffffffa,-0x744(%rbp)
    8b5b:	ff ff ff 
    8b5e:	c7 85 c0 f8 ff ff fa 	movl   $0xfffffffa,-0x740(%rbp)
    8b65:	ff ff ff 
    8b68:	c7 85 c4 f8 ff ff fa 	movl   $0xfffffffa,-0x73c(%rbp)
    8b6f:	ff ff ff 
    8b72:	c7 85 c8 f8 ff ff fa 	movl   $0xfffffffa,-0x738(%rbp)
    8b79:	ff ff ff 
    8b7c:	c7 85 cc f8 ff ff fa 	movl   $0xfffffffa,-0x734(%rbp)
    8b83:	ff ff ff 
    8b86:	48 c7 05 9f c4 00 00 	movq   $0x0,0xc49f(%rip)        # 15030 <g_68>
    8b8d:	00 00 00 00 
    8b91:	e9 b5 00 00 00       	jmpq   8c4b <func_2+0x54d>
    8b96:	c7 05 a0 c4 00 00 00 	movl   $0x0,0xc4a0(%rip)        # 15040 <g_100>
    8b9d:	00 00 00 
    8ba0:	e9 85 00 00 00       	jmpq   8c2a <func_2+0x52c>
    8ba5:	c6 05 bc c4 00 00 00 	movb   $0x0,0xc4bc(%rip)        # 15068 <g_212>
    8bac:	eb 62                	jmp    8c10 <func_2+0x512>
    8bae:	48 8b 15 7b c4 00 00 	mov    0xc47b(%rip),%rdx        # 15030 <g_68>
    8bb5:	8b 35 85 c4 00 00    	mov    0xc485(%rip),%esi        # 15040 <g_100>
    8bbb:	0f b6 05 a6 c4 00 00 	movzbl 0xc4a6(%rip),%eax        # 15068 <g_212>
    8bc2:	0f b6 c0             	movzbl %al,%eax
    8bc5:	48 63 c8             	movslq %eax,%rcx
    8bc8:	89 f6                	mov    %esi,%esi
    8bca:	48 89 d0             	mov    %rdx,%rax
    8bcd:	48 01 c0             	add    %rax,%rax
    8bd0:	48 01 d0             	add    %rdx,%rax
    8bd3:	48 c1 e0 03          	shl    $0x3,%rax
    8bd7:	48 89 f2             	mov    %rsi,%rdx
    8bda:	48 01 d2             	add    %rdx,%rdx
    8bdd:	48 01 f2             	add    %rsi,%rdx
    8be0:	48 01 d0             	add    %rdx,%rax
    8be3:	48 01 c8             	add    %rcx,%rax
    8be6:	48 8d 14 c5 00 00 00 	lea    0x0(,%rax,8),%rdx
    8bed:	00 
    8bee:	48 8d 05 cb cd 00 00 	lea    0xcdcb(%rip),%rax        # 159c0 <g_636>
    8bf5:	48 8d 0d b4 cd 00 00 	lea    0xcdb4(%rip),%rcx        # 159b0 <g_637>
    8bfc:	48 89 0c 02          	mov    %rcx,(%rdx,%rax,1)
    8c00:	0f b6 05 61 c4 00 00 	movzbl 0xc461(%rip),%eax        # 15068 <g_212>
    8c07:	83 c0 01             	add    $0x1,%eax
    8c0a:	88 05 58 c4 00 00    	mov    %al,0xc458(%rip)        # 15068 <g_212>
    8c10:	0f b6 05 51 c4 00 00 	movzbl 0xc451(%rip),%eax        # 15068 <g_212>
    8c17:	3c 02                	cmp    $0x2,%al
    8c19:	76 93                	jbe    8bae <func_2+0x4b0>
    8c1b:	8b 05 1f c4 00 00    	mov    0xc41f(%rip),%eax        # 15040 <g_100>
    8c21:	83 c0 01             	add    $0x1,%eax
    8c24:	89 05 16 c4 00 00    	mov    %eax,0xc416(%rip)        # 15040 <g_100>
    8c2a:	8b 05 10 c4 00 00    	mov    0xc410(%rip),%eax        # 15040 <g_100>
    8c30:	83 f8 07             	cmp    $0x7,%eax
    8c33:	0f 86 6c ff ff ff    	jbe    8ba5 <func_2+0x4a7>
    8c39:	48 8b 05 f0 c3 00 00 	mov    0xc3f0(%rip),%rax        # 15030 <g_68>
    8c40:	48 83 c0 01          	add    $0x1,%rax
    8c44:	48 89 05 e5 c3 00 00 	mov    %rax,0xc3e5(%rip)        # 15030 <g_68>
    8c4b:	48 8b 05 de c3 00 00 	mov    0xc3de(%rip),%rax        # 15030 <g_68>
    8c52:	48 83 f8 08          	cmp    $0x8,%rax
    8c56:	0f 86 3a ff ff ff    	jbe    8b96 <func_2+0x498>
    8c5c:	c7 05 ea c3 00 00 00 	movl   $0x0,0xc3ea(%rip)        # 15050 <g_133>
    8c63:	00 00 00 
    8c66:	eb 25                	jmp    8c8d <func_2+0x58f>
    8c68:	8b 85 b8 f8 ff ff    	mov    -0x748(%rbp),%eax
    8c6e:	85 c0                	test   %eax,%eax
    8c70:	75 28                	jne    8c9a <func_2+0x59c>
    8c72:	8b 05 d8 c3 00 00    	mov    0xc3d8(%rip),%eax        # 15050 <g_133>
    8c78:	89 c0                	mov    %eax,%eax
    8c7a:	be 03 00 00 00       	mov    $0x3,%esi
    8c7f:	48 89 c7             	mov    %rax,%rdi
    8c82:	e8 ba cb ff ff       	callq  5841 <safe_add_func_int64_t_s_s>
    8c87:	89 05 c3 c3 00 00    	mov    %eax,0xc3c3(%rip)        # 15050 <g_133>
    8c8d:	8b 05 bd c3 00 00    	mov    0xc3bd(%rip),%eax        # 15050 <g_133>
    8c93:	83 f8 31             	cmp    $0x31,%eax
    8c96:	77 d0                	ja     8c68 <func_2+0x56a>
    8c98:	eb 01                	jmp    8c9b <func_2+0x59d>
    8c9a:	90                   	nop
    8c9b:	0f b7 05 4e c4 00 00 	movzwl 0xc44e(%rip),%eax        # 150f0 <g_366>
    8ca2:	98                   	cwtl   
    8ca3:	be 08 00 00 00       	mov    $0x8,%esi
    8ca8:	89 c7                	mov    %eax,%edi
    8caa:	e8 09 d2 ff ff       	callq  5eb8 <safe_add_func_uint32_t_u_u>
    8caf:	66 89 05 3a c4 00 00 	mov    %ax,0xc43a(%rip)        # 150f0 <g_366>
    8cb6:	0f b7 05 33 c4 00 00 	movzwl 0xc433(%rip),%eax        # 150f0 <g_366>
    8cbd:	66 83 f8 17          	cmp    $0x17,%ax
    8cc1:	0f 84 6f fe ff ff    	je     8b36 <func_2+0x438>
    8cc7:	48 8b 05 82 ca 00 00 	mov    0xca82(%rip),%rax        # 15750 <g_92>
    8cce:	0f b6 00             	movzbl (%rax),%eax
    8cd1:	0f be d8             	movsbl %al,%ebx
    8cd4:	0f b6 85 33 f5 ff ff 	movzbl -0xacd(%rbp),%eax
    8cdb:	0f be c0             	movsbl %al,%eax
    8cde:	be 0c 00 00 00       	mov    $0xc,%esi
    8ce3:	89 c7                	mov    %eax,%edi
    8ce5:	e8 79 c8 ff ff       	callq  5563 <safe_rshift_func_int16_t_s_u>
    8cea:	44 0f bf f0          	movswl %ax,%r14d
    8cee:	8b 05 4c c3 00 00    	mov    0xc34c(%rip),%eax        # 15040 <g_100>
    8cf4:	44 0f b7 e0          	movzwl %ax,%r12d
    8cf8:	48 8b 05 71 d5 00 00 	mov    0xd571(%rip),%rax        # 16270 <g_1095>
    8cff:	48 8b 00             	mov    (%rax),%rax
    8d02:	0f b7 00             	movzwl (%rax),%eax
    8d05:	89 c2                	mov    %eax,%edx
    8d07:	0f b6 85 33 f5 ff ff 	movzbl -0xacd(%rbp),%eax
    8d0e:	66 98                	cbtw   
    8d10:	09 c2                	or     %eax,%edx
    8d12:	48 8b 05 57 d5 00 00 	mov    0xd557(%rip),%rax        # 16270 <g_1095>
    8d19:	48 8b 00             	mov    (%rax),%rax
    8d1c:	66 89 10             	mov    %dx,(%rax)
    8d1f:	0f b7 00             	movzwl (%rax),%eax
    8d22:	0f b7 c0             	movzwl %ax,%eax
    8d25:	be 07 00 00 00       	mov    $0x7,%esi
    8d2a:	89 c7                	mov    %eax,%edi
    8d2c:	e8 8d d0 ff ff       	callq  5dbe <safe_lshift_func_uint16_t_u_s>
    8d31:	0f b7 d0             	movzwl %ax,%edx
    8d34:	48 8b 85 c0 f5 ff ff 	mov    -0xa40(%rbp),%rax
    8d3b:	48 89 d1             	mov    %rdx,%rcx
    8d3e:	48 21 c1             	and    %rax,%rcx
    8d41:	48 8b 85 d8 f3 ff ff 	mov    -0xc28(%rbp),%rax
    8d48:	48 8b 10             	mov    (%rax),%rdx
    8d4b:	48 8b 85 d8 f3 ff ff 	mov    -0xc28(%rbp),%rax
    8d52:	48 31 ca             	xor    %rcx,%rdx
    8d55:	48 89 10             	mov    %rdx,(%rax)
    8d58:	4c 8b 38             	mov    (%rax),%r15
    8d5b:	0f b6 85 33 f5 ff ff 	movzbl -0xacd(%rbp),%eax
    8d62:	44 0f be e8          	movsbl %al,%r13d
    8d66:	0f b6 85 33 f5 ff ff 	movzbl -0xacd(%rbp),%eax
    8d6d:	0f be c0             	movsbl %al,%eax
    8d70:	89 85 0c f3 ff ff    	mov    %eax,-0xcf4(%rbp)
    8d76:	48 8b 85 e8 f5 ff ff 	mov    -0xa18(%rbp),%rax
    8d7d:	0f b6 c0             	movzbl %al,%eax
    8d80:	89 c6                	mov    %eax,%esi
    8d82:	bf 61 00 00 00       	mov    $0x61,%edi
    8d87:	e8 4f ce ff ff       	callq  5bdb <safe_div_func_uint8_t_u_u>
    8d8c:	0f b6 d0             	movzbl %al,%edx
    8d8f:	0f b6 85 33 f5 ff ff 	movzbl -0xacd(%rbp),%eax
    8d96:	0f be c0             	movsbl %al,%eax
    8d99:	09 c2                	or     %eax,%edx
    8d9b:	0f b6 85 32 f5 ff ff 	movzbl -0xace(%rbp),%eax
    8da2:	0f be c0             	movsbl %al,%eax
    8da5:	39 c2                	cmp    %eax,%edx
    8da7:	0f 94 c0             	sete   %al
    8daa:	0f b6 c0             	movzbl %al,%eax
    8dad:	be 05 00 00 00       	mov    $0x5,%esi
    8db2:	89 c7                	mov    %eax,%edi
    8db4:	e8 4c ce ff ff       	callq  5c05 <safe_lshift_func_uint8_t_u_s>
    8db9:	0f be c0             	movsbl %al,%eax
    8dbc:	be de ff ff ff       	mov    $0xffffffde,%esi
    8dc1:	89 c7                	mov    %eax,%edi
    8dc3:	e8 a2 c4 ff ff       	callq  526a <safe_div_func_int8_t_s_s>
    8dc8:	48 0f be d0          	movsbq %al,%rdx
    8dcc:	48 8b 85 c0 f5 ff ff 	mov    -0xa40(%rbp),%rax
    8dd3:	48 39 c2             	cmp    %rax,%rdx
    8dd6:	0f 92 c0             	setb   %al
    8dd9:	0f b6 c0             	movzbl %al,%eax
    8ddc:	be 03 00 00 00       	mov    $0x3,%esi
    8de1:	89 c7                	mov    %eax,%edi
    8de3:	e8 f3 cd ff ff       	callq  5bdb <safe_div_func_uint8_t_u_u>
    8de8:	0f b6 d0             	movzbl %al,%edx
    8deb:	0f b6 85 33 f5 ff ff 	movzbl -0xacd(%rbp),%eax
    8df2:	0f be c0             	movsbl %al,%eax
    8df5:	39 c2                	cmp    %eax,%edx
    8df7:	0f 95 c0             	setne  %al
    8dfa:	0f b6 c0             	movzbl %al,%eax
    8dfd:	39 85 0c f3 ff ff    	cmp    %eax,-0xcf4(%rbp)
    8e03:	48 8b 85 f0 f5 ff ff 	mov    -0xa10(%rbp),%rax
    8e0a:	48 85 c0             	test   %rax,%rax
    8e0d:	74 12                	je     8e21 <func_2+0x723>
    8e0f:	0f b6 85 33 f5 ff ff 	movzbl -0xacd(%rbp),%eax
    8e16:	84 c0                	test   %al,%al
    8e18:	74 07                	je     8e21 <func_2+0x723>
    8e1a:	ba 01 00 00 00       	mov    $0x1,%edx
    8e1f:	eb 05                	jmp    8e26 <func_2+0x728>
    8e21:	ba 00 00 00 00       	mov    $0x0,%edx
    8e26:	48 8b 05 3b c9 00 00 	mov    0xc93b(%rip),%rax        # 15768 <g_498>
    8e2d:	88 10                	mov    %dl,(%rax)
    8e2f:	be 40 40 00 00       	mov    $0x4040,%esi
    8e34:	bf ff ff ff ff       	mov    $0xffffffff,%edi
    8e39:	e8 ec c6 ff ff       	callq  552a <safe_rshift_func_int16_t_s_s>
    8e3e:	98                   	cwtl   
    8e3f:	44 89 ee             	mov    %r13d,%esi
    8e42:	89 c7                	mov    %eax,%edi
    8e44:	e8 98 c6 ff ff       	callq  54e1 <safe_lshift_func_int16_t_s_u>
    8e49:	48 0f bf c0          	movswq %ax,%rax
    8e4d:	49 39 c7             	cmp    %rax,%r15
    8e50:	48 8b 95 c0 f5 ff ff 	mov    -0xa40(%rbp),%rdx
    8e57:	48 8b 85 e0 f3 ff ff 	mov    -0xc20(%rbp),%rax
    8e5e:	66 89 10             	mov    %dx,(%rax)
    8e61:	0f b7 00             	movzwl (%rax),%eax
    8e64:	66 85 c0             	test   %ax,%ax
    8e67:	74 12                	je     8e7b <func_2+0x77d>
    8e69:	0f b6 85 33 f5 ff ff 	movzbl -0xacd(%rbp),%eax
    8e70:	84 c0                	test   %al,%al
    8e72:	74 07                	je     8e7b <func_2+0x77d>
    8e74:	b8 01 00 00 00       	mov    $0x1,%eax
    8e79:	eb 05                	jmp    8e80 <func_2+0x782>
    8e7b:	b8 00 00 00 00       	mov    $0x0,%eax
    8e80:	0f b7 c0             	movzwl %ax,%eax
    8e83:	44 89 e6             	mov    %r12d,%esi
    8e86:	89 c7                	mov    %eax,%edi
    8e88:	e8 92 ce ff ff       	callq  5d1f <safe_sub_func_uint16_t_u_u>
    8e8d:	66 3d d9 00          	cmp    $0xd9,%ax
    8e91:	0f 94 c0             	sete   %al
    8e94:	0f b6 c0             	movzbl %al,%eax
    8e97:	41 39 c6             	cmp    %eax,%r14d
    8e9a:	0f 9e c0             	setle  %al
    8e9d:	0f b6 c0             	movzbl %al,%eax
    8ea0:	89 de                	mov    %ebx,%esi
    8ea2:	89 c7                	mov    %eax,%edi
    8ea4:	e8 69 c3 ff ff       	callq  5212 <safe_mul_func_int8_t_s_s>
    8ea9:	48 8d 85 f8 f3 ff ff 	lea    -0xc08(%rbp),%rax
    8eb0:	48 89 85 08 f4 ff ff 	mov    %rax,-0xbf8(%rbp)
    8eb7:	c7 85 4c f3 ff ff 2b 	movl   $0x820ae42b,-0xcb4(%rbp)
    8ebe:	e4 0a 82 
    8ec1:	c7 85 78 f3 ff ff fe 	movl   $0xfffffffe,-0xc88(%rbp)
    8ec8:	ff ff ff 
    8ecb:	c7 85 6c f3 ff ff 20 	movl   $0x22b7620,-0xc94(%rbp)
    8ed2:	76 2b 02 
    8ed5:	c7 85 50 f3 ff ff b9 	movl   $0x4742db9,-0xcb0(%rbp)
    8edc:	2d 74 04 
    8edf:	48 8d 05 6e 81 00 00 	lea    0x816e(%rip),%rax        # 11054 <g_197>
    8ee6:	48 89 85 f0 f7 ff ff 	mov    %rax,-0x810(%rbp)
    8eed:	48 c7 85 f8 f7 ff ff 	movq   $0x0,-0x808(%rbp)
    8ef4:	00 00 00 00 
    8ef8:	48 c7 85 00 f8 ff ff 	movq   $0x0,-0x800(%rbp)
    8eff:	00 00 00 00 
    8f03:	48 c7 85 08 f8 ff ff 	movq   $0x0,-0x7f8(%rbp)
    8f0a:	00 00 00 00 
    8f0e:	48 8d 05 13 82 00 00 	lea    0x8213(%rip),%rax        # 11128 <g_1869+0x28>
    8f15:	48 89 85 10 f8 ff ff 	mov    %rax,-0x7f0(%rbp)
    8f1c:	48 8d 05 05 82 00 00 	lea    0x8205(%rip),%rax        # 11128 <g_1869+0x28>
    8f23:	48 89 85 18 f8 ff ff 	mov    %rax,-0x7e8(%rbp)
    8f2a:	48 8d 05 23 81 00 00 	lea    0x8123(%rip),%rax        # 11054 <g_197>
    8f31:	48 89 85 20 f8 ff ff 	mov    %rax,-0x7e0(%rbp)
    8f38:	48 c7 85 28 f8 ff ff 	movq   $0x0,-0x7d8(%rbp)
    8f3f:	00 00 00 00 
    8f43:	48 c7 85 30 f8 ff ff 	movq   $0x0,-0x7d0(%rbp)
    8f4a:	00 00 00 00 
    8f4e:	48 c7 85 38 f8 ff ff 	movq   $0x0,-0x7c8(%rbp)
    8f55:	00 00 00 00 
    8f59:	48 8d 05 c8 81 00 00 	lea    0x81c8(%rip),%rax        # 11128 <g_1869+0x28>
    8f60:	48 89 85 40 f8 ff ff 	mov    %rax,-0x7c0(%rbp)
    8f67:	48 8d 05 ba 81 00 00 	lea    0x81ba(%rip),%rax        # 11128 <g_1869+0x28>
    8f6e:	48 89 85 48 f8 ff ff 	mov    %rax,-0x7b8(%rbp)
    8f75:	48 8d 05 d8 80 00 00 	lea    0x80d8(%rip),%rax        # 11054 <g_197>
    8f7c:	48 89 85 50 f8 ff ff 	mov    %rax,-0x7b0(%rbp)
    8f83:	48 c7 85 58 f8 ff ff 	movq   $0x0,-0x7a8(%rbp)
    8f8a:	00 00 00 00 
    8f8e:	48 c7 85 60 f8 ff ff 	movq   $0x0,-0x7a0(%rbp)
    8f95:	00 00 00 00 
    8f99:	48 c7 85 68 f8 ff ff 	movq   $0x0,-0x798(%rbp)
    8fa0:	00 00 00 00 
    8fa4:	48 8d 05 7d 81 00 00 	lea    0x817d(%rip),%rax        # 11128 <g_1869+0x28>
    8fab:	48 89 85 70 f8 ff ff 	mov    %rax,-0x790(%rbp)
    8fb2:	48 8d 05 6f 81 00 00 	lea    0x816f(%rip),%rax        # 11128 <g_1869+0x28>
    8fb9:	48 89 85 78 f8 ff ff 	mov    %rax,-0x788(%rbp)
    8fc0:	48 8d 05 8d 80 00 00 	lea    0x808d(%rip),%rax        # 11054 <g_197>
    8fc7:	48 89 85 80 f8 ff ff 	mov    %rax,-0x780(%rbp)
    8fce:	48 c7 85 88 f8 ff ff 	movq   $0x0,-0x778(%rbp)
    8fd5:	00 00 00 00 
    8fd9:	48 c7 85 90 f8 ff ff 	movq   $0x0,-0x770(%rbp)
    8fe0:	00 00 00 00 
    8fe4:	48 c7 85 98 f8 ff ff 	movq   $0x0,-0x768(%rbp)
    8feb:	00 00 00 00 
    8fef:	48 8d 05 32 81 00 00 	lea    0x8132(%rip),%rax        # 11128 <g_1869+0x28>
    8ff6:	48 89 85 a0 f8 ff ff 	mov    %rax,-0x760(%rbp)
    8ffd:	48 8d 05 24 81 00 00 	lea    0x8124(%rip),%rax        # 11128 <g_1869+0x28>
    9004:	48 89 85 a8 f8 ff ff 	mov    %rax,-0x758(%rbp)
    900b:	c7 85 60 f3 ff ff fa 	movl   $0xfffffffa,-0xca0(%rbp)
    9012:	ff ff ff 
    9015:	c7 85 64 f3 ff ff ca 	movl   $0xafe392ca,-0xc9c(%rbp)
    901c:	92 e3 af 
    901f:	c7 85 68 f3 ff ff 00 	movl   $0x0,-0xc98(%rbp)
    9026:	00 00 00 
    9029:	eb 1a                	jmp    9045 <func_2+0x947>
    902b:	8b 85 68 f3 ff ff    	mov    -0xc98(%rbp),%eax
    9031:	48 98                	cltq   
    9033:	c7 84 85 40 f5 ff ff 	movl   $0x5,-0xac0(%rbp,%rax,4)
    903a:	05 00 00 00 
    903e:	83 85 68 f3 ff ff 01 	addl   $0x1,-0xc98(%rbp)
    9045:	83 bd 68 f3 ff ff 03 	cmpl   $0x3,-0xc98(%rbp)
    904c:	7e dd                	jle    902b <func_2+0x92d>
    904e:	c7 85 68 f3 ff ff 00 	movl   $0x0,-0xc98(%rbp)
    9055:	00 00 00 
    9058:	eb 46                	jmp    90a0 <func_2+0x9a2>
    905a:	c7 85 98 f3 ff ff 00 	movl   $0x0,-0xc68(%rbp)
    9061:	00 00 00 
    9064:	eb 2a                	jmp    9090 <func_2+0x992>
    9066:	8b 85 98 f3 ff ff    	mov    -0xc68(%rbp),%eax
    906c:	48 63 d0             	movslq %eax,%rdx
    906f:	8b 85 68 f3 ff ff    	mov    -0xc98(%rbp),%eax
    9075:	48 98                	cltq   
    9077:	48 01 d0             	add    %rdx,%rax
    907a:	48 8d 15 0b 80 00 00 	lea    0x800b(%rip),%rdx        # 1108c <g_1084+0xc>
    9081:	48 89 94 c5 70 f5 ff 	mov    %rdx,-0xa90(%rbp,%rax,8)
    9088:	ff 
    9089:	83 85 98 f3 ff ff 01 	addl   $0x1,-0xc68(%rbp)
    9090:	83 bd 98 f3 ff ff 00 	cmpl   $0x0,-0xc68(%rbp)
    9097:	7e cd                	jle    9066 <func_2+0x968>
    9099:	83 85 68 f3 ff ff 01 	addl   $0x1,-0xc98(%rbp)
    90a0:	83 bd 68 f3 ff ff 03 	cmpl   $0x3,-0xc98(%rbp)
    90a7:	7e b1                	jle    905a <func_2+0x95c>
    90a9:	c7 05 89 bf 00 00 fc 	movl   $0xfffffffc,0xbf89(%rip)        # 1503c <g_76>
    90b0:	ff ff ff 
    90b3:	e9 18 0f 00 00       	jmpq   9fd0 <func_2+0x18d2>
    90b8:	48 8d 05 49 dc 00 00 	lea    0xdc49(%rip),%rax        # 16d08 <g_99>
    90bf:	48 89 85 f8 f4 ff ff 	mov    %rax,-0xb08(%rbp)
    90c6:	48 8d 85 08 f4 ff ff 	lea    -0xbf8(%rbp),%rax
    90cd:	48 89 85 00 f5 ff ff 	mov    %rax,-0xb00(%rbp)
    90d4:	c7 85 b4 f3 ff ff c6 	movl   $0x894b01c6,-0xc4c(%rbp)
    90db:	01 4b 89 
    90de:	48 8d 05 1b c8 00 00 	lea    0xc81b(%rip),%rax        # 15900 <g_497+0x180>
    90e5:	48 89 85 18 f4 ff ff 	mov    %rax,-0xbe8(%rbp)
    90ec:	48 8d 85 18 f4 ff ff 	lea    -0xbe8(%rbp),%rax
    90f3:	48 89 85 b0 f8 ff ff 	mov    %rax,-0x750(%rbp)
    90fa:	48 8d 85 18 f4 ff ff 	lea    -0xbe8(%rbp),%rax
    9101:	48 89 85 b8 f8 ff ff 	mov    %rax,-0x748(%rbp)
    9108:	48 8d 85 18 f4 ff ff 	lea    -0xbe8(%rbp),%rax
    910f:	48 89 85 c0 f8 ff ff 	mov    %rax,-0x740(%rbp)
    9116:	48 c7 85 c8 f8 ff ff 	movq   $0x0,-0x738(%rbp)
    911d:	00 00 00 00 
    9121:	48 c7 85 d0 f8 ff ff 	movq   $0x0,-0x730(%rbp)
    9128:	00 00 00 00 
    912c:	48 8d 85 18 f4 ff ff 	lea    -0xbe8(%rbp),%rax
    9133:	48 89 85 d8 f8 ff ff 	mov    %rax,-0x728(%rbp)
    913a:	48 8d 85 18 f4 ff ff 	lea    -0xbe8(%rbp),%rax
    9141:	48 89 85 e0 f8 ff ff 	mov    %rax,-0x720(%rbp)
    9148:	48 8d 85 18 f4 ff ff 	lea    -0xbe8(%rbp),%rax
    914f:	48 89 85 e8 f8 ff ff 	mov    %rax,-0x718(%rbp)
    9156:	48 8d 85 18 f4 ff ff 	lea    -0xbe8(%rbp),%rax
    915d:	48 89 85 f0 f8 ff ff 	mov    %rax,-0x710(%rbp)
    9164:	48 8d 85 18 f4 ff ff 	lea    -0xbe8(%rbp),%rax
    916b:	48 89 85 f8 f8 ff ff 	mov    %rax,-0x708(%rbp)
    9172:	48 8d 85 18 f4 ff ff 	lea    -0xbe8(%rbp),%rax
    9179:	48 89 85 00 f9 ff ff 	mov    %rax,-0x700(%rbp)
    9180:	48 c7 85 08 f9 ff ff 	movq   $0x0,-0x6f8(%rbp)
    9187:	00 00 00 00 
    918b:	48 c7 85 10 f9 ff ff 	movq   $0x0,-0x6f0(%rbp)
    9192:	00 00 00 00 
    9196:	48 8d 85 18 f4 ff ff 	lea    -0xbe8(%rbp),%rax
    919d:	48 89 85 18 f9 ff ff 	mov    %rax,-0x6e8(%rbp)
    91a4:	48 8d 85 18 f4 ff ff 	lea    -0xbe8(%rbp),%rax
    91ab:	48 89 85 20 f9 ff ff 	mov    %rax,-0x6e0(%rbp)
    91b2:	48 8d 85 18 f4 ff ff 	lea    -0xbe8(%rbp),%rax
    91b9:	48 89 85 28 f9 ff ff 	mov    %rax,-0x6d8(%rbp)
    91c0:	48 c7 85 30 f9 ff ff 	movq   $0x0,-0x6d0(%rbp)
    91c7:	00 00 00 00 
    91cb:	48 8d 85 18 f4 ff ff 	lea    -0xbe8(%rbp),%rax
    91d2:	48 89 85 38 f9 ff ff 	mov    %rax,-0x6c8(%rbp)
    91d9:	48 8d 85 18 f4 ff ff 	lea    -0xbe8(%rbp),%rax
    91e0:	48 89 85 40 f9 ff ff 	mov    %rax,-0x6c0(%rbp)
    91e7:	48 8d 85 18 f4 ff ff 	lea    -0xbe8(%rbp),%rax
    91ee:	48 89 85 48 f9 ff ff 	mov    %rax,-0x6b8(%rbp)
    91f5:	48 8d 85 18 f4 ff ff 	lea    -0xbe8(%rbp),%rax
    91fc:	48 89 85 50 f9 ff ff 	mov    %rax,-0x6b0(%rbp)
    9203:	48 8d 85 18 f4 ff ff 	lea    -0xbe8(%rbp),%rax
    920a:	48 89 85 58 f9 ff ff 	mov    %rax,-0x6a8(%rbp)
    9211:	48 8d 85 18 f4 ff ff 	lea    -0xbe8(%rbp),%rax
    9218:	48 89 85 60 f9 ff ff 	mov    %rax,-0x6a0(%rbp)
    921f:	48 8d 85 18 f4 ff ff 	lea    -0xbe8(%rbp),%rax
    9226:	48 89 85 68 f9 ff ff 	mov    %rax,-0x698(%rbp)
    922d:	48 8d 85 18 f4 ff ff 	lea    -0xbe8(%rbp),%rax
    9234:	48 89 85 70 f9 ff ff 	mov    %rax,-0x690(%rbp)
    923b:	48 8d 85 18 f4 ff ff 	lea    -0xbe8(%rbp),%rax
    9242:	48 89 85 78 f9 ff ff 	mov    %rax,-0x688(%rbp)
    9249:	48 8d 85 18 f4 ff ff 	lea    -0xbe8(%rbp),%rax
    9250:	48 89 85 80 f9 ff ff 	mov    %rax,-0x680(%rbp)
    9257:	48 c7 85 88 f9 ff ff 	movq   $0x0,-0x678(%rbp)
    925e:	00 00 00 00 
    9262:	48 c7 85 90 f9 ff ff 	movq   $0x0,-0x670(%rbp)
    9269:	00 00 00 00 
    926d:	48 8d 85 18 f4 ff ff 	lea    -0xbe8(%rbp),%rax
    9274:	48 89 85 98 f9 ff ff 	mov    %rax,-0x668(%rbp)
    927b:	48 8d 85 18 f4 ff ff 	lea    -0xbe8(%rbp),%rax
    9282:	48 89 85 a0 f9 ff ff 	mov    %rax,-0x660(%rbp)
    9289:	48 8d 85 18 f4 ff ff 	lea    -0xbe8(%rbp),%rax
    9290:	48 89 85 a8 f9 ff ff 	mov    %rax,-0x658(%rbp)
    9297:	48 8d 85 18 f4 ff ff 	lea    -0xbe8(%rbp),%rax
    929e:	48 89 85 b0 f9 ff ff 	mov    %rax,-0x650(%rbp)
    92a5:	48 8d 85 18 f4 ff ff 	lea    -0xbe8(%rbp),%rax
    92ac:	48 89 85 b8 f9 ff ff 	mov    %rax,-0x648(%rbp)
    92b3:	48 8d 85 18 f4 ff ff 	lea    -0xbe8(%rbp),%rax
    92ba:	48 89 85 c0 f9 ff ff 	mov    %rax,-0x640(%rbp)
    92c1:	48 c7 85 c8 f9 ff ff 	movq   $0x0,-0x638(%rbp)
    92c8:	00 00 00 00 
    92cc:	48 8d 85 18 f4 ff ff 	lea    -0xbe8(%rbp),%rax
    92d3:	48 89 85 d0 f9 ff ff 	mov    %rax,-0x630(%rbp)
    92da:	48 8d 85 18 f4 ff ff 	lea    -0xbe8(%rbp),%rax
    92e1:	48 89 85 d8 f9 ff ff 	mov    %rax,-0x628(%rbp)
    92e8:	48 8d 85 18 f4 ff ff 	lea    -0xbe8(%rbp),%rax
    92ef:	48 89 85 e0 f9 ff ff 	mov    %rax,-0x620(%rbp)
    92f6:	48 c7 85 e8 f9 ff ff 	movq   $0x0,-0x618(%rbp)
    92fd:	00 00 00 00 
    9301:	48 8d 85 18 f4 ff ff 	lea    -0xbe8(%rbp),%rax
    9308:	48 89 85 f0 f9 ff ff 	mov    %rax,-0x610(%rbp)
    930f:	48 8d 85 18 f4 ff ff 	lea    -0xbe8(%rbp),%rax
    9316:	48 89 85 f8 f9 ff ff 	mov    %rax,-0x608(%rbp)
    931d:	48 8d 85 18 f4 ff ff 	lea    -0xbe8(%rbp),%rax
    9324:	48 89 85 00 fa ff ff 	mov    %rax,-0x600(%rbp)
    932b:	48 8d 85 18 f4 ff ff 	lea    -0xbe8(%rbp),%rax
    9332:	48 89 85 08 fa ff ff 	mov    %rax,-0x5f8(%rbp)
    9339:	48 8d 85 18 f4 ff ff 	lea    -0xbe8(%rbp),%rax
    9340:	48 89 85 10 fa ff ff 	mov    %rax,-0x5f0(%rbp)
    9347:	48 8d 85 18 f4 ff ff 	lea    -0xbe8(%rbp),%rax
    934e:	48 89 85 18 fa ff ff 	mov    %rax,-0x5e8(%rbp)
    9355:	48 8d 85 18 f4 ff ff 	lea    -0xbe8(%rbp),%rax
    935c:	48 89 85 20 fa ff ff 	mov    %rax,-0x5e0(%rbp)
    9363:	48 8d 85 18 f4 ff ff 	lea    -0xbe8(%rbp),%rax
    936a:	48 89 85 28 fa ff ff 	mov    %rax,-0x5d8(%rbp)
    9371:	48 8d 85 18 f4 ff ff 	lea    -0xbe8(%rbp),%rax
    9378:	48 89 85 30 fa ff ff 	mov    %rax,-0x5d0(%rbp)
    937f:	48 8d 85 18 f4 ff ff 	lea    -0xbe8(%rbp),%rax
    9386:	48 89 85 38 fa ff ff 	mov    %rax,-0x5c8(%rbp)
    938d:	48 8d 85 18 f4 ff ff 	lea    -0xbe8(%rbp),%rax
    9394:	48 89 85 40 fa ff ff 	mov    %rax,-0x5c0(%rbp)
    939b:	48 c7 85 48 fa ff ff 	movq   $0x0,-0x5b8(%rbp)
    93a2:	00 00 00 00 
    93a6:	48 8d 85 18 f4 ff ff 	lea    -0xbe8(%rbp),%rax
    93ad:	48 89 85 50 fa ff ff 	mov    %rax,-0x5b0(%rbp)
    93b4:	48 8d 85 18 f4 ff ff 	lea    -0xbe8(%rbp),%rax
    93bb:	48 89 85 58 fa ff ff 	mov    %rax,-0x5a8(%rbp)
    93c2:	48 8d 85 18 f4 ff ff 	lea    -0xbe8(%rbp),%rax
    93c9:	48 89 85 60 fa ff ff 	mov    %rax,-0x5a0(%rbp)
    93d0:	48 8d 85 18 f4 ff ff 	lea    -0xbe8(%rbp),%rax
    93d7:	48 89 85 68 fa ff ff 	mov    %rax,-0x598(%rbp)
    93de:	48 c7 85 70 fa ff ff 	movq   $0x0,-0x590(%rbp)
    93e5:	00 00 00 00 
    93e9:	48 8d 85 18 f4 ff ff 	lea    -0xbe8(%rbp),%rax
    93f0:	48 89 85 78 fa ff ff 	mov    %rax,-0x588(%rbp)
    93f7:	48 8d 85 18 f4 ff ff 	lea    -0xbe8(%rbp),%rax
    93fe:	48 89 85 80 fa ff ff 	mov    %rax,-0x580(%rbp)
    9405:	48 8d 85 18 f4 ff ff 	lea    -0xbe8(%rbp),%rax
    940c:	48 89 85 88 fa ff ff 	mov    %rax,-0x578(%rbp)
    9413:	48 8d 85 18 f4 ff ff 	lea    -0xbe8(%rbp),%rax
    941a:	48 89 85 90 fa ff ff 	mov    %rax,-0x570(%rbp)
    9421:	48 8d 85 18 f4 ff ff 	lea    -0xbe8(%rbp),%rax
    9428:	48 89 85 98 fa ff ff 	mov    %rax,-0x568(%rbp)
    942f:	48 8d 85 18 f4 ff ff 	lea    -0xbe8(%rbp),%rax
    9436:	48 89 85 a0 fa ff ff 	mov    %rax,-0x560(%rbp)
    943d:	48 8d 85 18 f4 ff ff 	lea    -0xbe8(%rbp),%rax
    9444:	48 89 85 a8 fa ff ff 	mov    %rax,-0x558(%rbp)
    944b:	48 8d 85 18 f4 ff ff 	lea    -0xbe8(%rbp),%rax
    9452:	48 89 85 b0 fa ff ff 	mov    %rax,-0x550(%rbp)
    9459:	48 8d 85 18 f4 ff ff 	lea    -0xbe8(%rbp),%rax
    9460:	48 89 85 b8 fa ff ff 	mov    %rax,-0x548(%rbp)
    9467:	48 8d 85 18 f4 ff ff 	lea    -0xbe8(%rbp),%rax
    946e:	48 89 85 c0 fa ff ff 	mov    %rax,-0x540(%rbp)
    9475:	48 8d 85 18 f4 ff ff 	lea    -0xbe8(%rbp),%rax
    947c:	48 89 85 c8 fa ff ff 	mov    %rax,-0x538(%rbp)
    9483:	48 c7 85 d0 fa ff ff 	movq   $0x0,-0x530(%rbp)
    948a:	00 00 00 00 
    948e:	48 8d 85 18 f4 ff ff 	lea    -0xbe8(%rbp),%rax
    9495:	48 89 85 d8 fa ff ff 	mov    %rax,-0x528(%rbp)
    949c:	48 8d 85 18 f4 ff ff 	lea    -0xbe8(%rbp),%rax
    94a3:	48 89 85 e0 fa ff ff 	mov    %rax,-0x520(%rbp)
    94aa:	48 8d 85 18 f4 ff ff 	lea    -0xbe8(%rbp),%rax
    94b1:	48 89 85 e8 fa ff ff 	mov    %rax,-0x518(%rbp)
    94b8:	48 c7 85 f0 fa ff ff 	movq   $0x0,-0x510(%rbp)
    94bf:	00 00 00 00 
    94c3:	48 8d 85 18 f4 ff ff 	lea    -0xbe8(%rbp),%rax
    94ca:	48 89 85 f8 fa ff ff 	mov    %rax,-0x508(%rbp)
    94d1:	48 8d 85 18 f4 ff ff 	lea    -0xbe8(%rbp),%rax
    94d8:	48 89 85 00 fb ff ff 	mov    %rax,-0x500(%rbp)
    94df:	48 8d 85 18 f4 ff ff 	lea    -0xbe8(%rbp),%rax
    94e6:	48 89 85 08 fb ff ff 	mov    %rax,-0x4f8(%rbp)
    94ed:	48 8d 85 18 f4 ff ff 	lea    -0xbe8(%rbp),%rax
    94f4:	48 89 85 10 fb ff ff 	mov    %rax,-0x4f0(%rbp)
    94fb:	48 8d 85 18 f4 ff ff 	lea    -0xbe8(%rbp),%rax
    9502:	48 89 85 18 fb ff ff 	mov    %rax,-0x4e8(%rbp)
    9509:	48 8d 85 18 f4 ff ff 	lea    -0xbe8(%rbp),%rax
    9510:	48 89 85 20 fb ff ff 	mov    %rax,-0x4e0(%rbp)
    9517:	48 c7 85 28 fb ff ff 	movq   $0x0,-0x4d8(%rbp)
    951e:	00 00 00 00 
    9522:	48 c7 85 30 fb ff ff 	movq   $0x0,-0x4d0(%rbp)
    9529:	00 00 00 00 
    952d:	48 8d 85 18 f4 ff ff 	lea    -0xbe8(%rbp),%rax
    9534:	48 89 85 38 fb ff ff 	mov    %rax,-0x4c8(%rbp)
    953b:	48 8d 85 18 f4 ff ff 	lea    -0xbe8(%rbp),%rax
    9542:	48 89 85 40 fb ff ff 	mov    %rax,-0x4c0(%rbp)
    9549:	48 8d 85 18 f4 ff ff 	lea    -0xbe8(%rbp),%rax
    9550:	48 89 85 48 fb ff ff 	mov    %rax,-0x4b8(%rbp)
    9557:	48 8d 85 18 f4 ff ff 	lea    -0xbe8(%rbp),%rax
    955e:	48 89 85 50 fb ff ff 	mov    %rax,-0x4b0(%rbp)
    9565:	48 8d 85 18 f4 ff ff 	lea    -0xbe8(%rbp),%rax
    956c:	48 89 85 58 fb ff ff 	mov    %rax,-0x4a8(%rbp)
    9573:	48 8d 85 18 f4 ff ff 	lea    -0xbe8(%rbp),%rax
    957a:	48 89 85 60 fb ff ff 	mov    %rax,-0x4a0(%rbp)
    9581:	48 8d 85 18 f4 ff ff 	lea    -0xbe8(%rbp),%rax
    9588:	48 89 85 68 fb ff ff 	mov    %rax,-0x498(%rbp)
    958f:	48 8d 85 18 f4 ff ff 	lea    -0xbe8(%rbp),%rax
    9596:	48 89 85 70 fb ff ff 	mov    %rax,-0x490(%rbp)
    959d:	48 8d 85 18 f4 ff ff 	lea    -0xbe8(%rbp),%rax
    95a4:	48 89 85 78 fb ff ff 	mov    %rax,-0x488(%rbp)
    95ab:	48 8d 85 18 f4 ff ff 	lea    -0xbe8(%rbp),%rax
    95b2:	48 89 85 80 fb ff ff 	mov    %rax,-0x480(%rbp)
    95b9:	48 c7 85 88 fb ff ff 	movq   $0x0,-0x478(%rbp)
    95c0:	00 00 00 00 
    95c4:	48 8d 85 18 f4 ff ff 	lea    -0xbe8(%rbp),%rax
    95cb:	48 89 85 90 fb ff ff 	mov    %rax,-0x470(%rbp)
    95d2:	48 8d 85 18 f4 ff ff 	lea    -0xbe8(%rbp),%rax
    95d9:	48 89 85 98 fb ff ff 	mov    %rax,-0x468(%rbp)
    95e0:	48 8d 85 18 f4 ff ff 	lea    -0xbe8(%rbp),%rax
    95e7:	48 89 85 a0 fb ff ff 	mov    %rax,-0x460(%rbp)
    95ee:	48 c7 85 a8 fb ff ff 	movq   $0x0,-0x458(%rbp)
    95f5:	00 00 00 00 
    95f9:	48 c7 85 b0 fb ff ff 	movq   $0x0,-0x450(%rbp)
    9600:	00 00 00 00 
    9604:	48 8d 85 18 f4 ff ff 	lea    -0xbe8(%rbp),%rax
    960b:	48 89 85 b8 fb ff ff 	mov    %rax,-0x448(%rbp)
    9612:	48 8d 85 18 f4 ff ff 	lea    -0xbe8(%rbp),%rax
    9619:	48 89 85 c0 fb ff ff 	mov    %rax,-0x440(%rbp)
    9620:	48 8d 85 18 f4 ff ff 	lea    -0xbe8(%rbp),%rax
    9627:	48 89 85 c8 fb ff ff 	mov    %rax,-0x438(%rbp)
    962e:	48 8d 85 18 f4 ff ff 	lea    -0xbe8(%rbp),%rax
    9635:	48 89 85 d0 fb ff ff 	mov    %rax,-0x430(%rbp)
    963c:	48 8d 85 18 f4 ff ff 	lea    -0xbe8(%rbp),%rax
    9643:	48 89 85 d8 fb ff ff 	mov    %rax,-0x428(%rbp)
    964a:	48 8d 85 18 f4 ff ff 	lea    -0xbe8(%rbp),%rax
    9651:	48 89 85 e0 fb ff ff 	mov    %rax,-0x420(%rbp)
    9658:	48 c7 85 e8 fb ff ff 	movq   $0x0,-0x418(%rbp)
    965f:	00 00 00 00 
    9663:	48 c7 85 f0 fb ff ff 	movq   $0x0,-0x410(%rbp)
    966a:	00 00 00 00 
    966e:	48 8d 85 18 f4 ff ff 	lea    -0xbe8(%rbp),%rax
    9675:	48 89 85 f8 fb ff ff 	mov    %rax,-0x408(%rbp)
    967c:	48 8d 85 18 f4 ff ff 	lea    -0xbe8(%rbp),%rax
    9683:	48 89 85 00 fc ff ff 	mov    %rax,-0x400(%rbp)
    968a:	48 8d 85 18 f4 ff ff 	lea    -0xbe8(%rbp),%rax
    9691:	48 89 85 08 fc ff ff 	mov    %rax,-0x3f8(%rbp)
    9698:	48 c7 85 10 fc ff ff 	movq   $0x0,-0x3f0(%rbp)
    969f:	00 00 00 00 
    96a3:	48 8d 85 18 f4 ff ff 	lea    -0xbe8(%rbp),%rax
    96aa:	48 89 85 18 fc ff ff 	mov    %rax,-0x3e8(%rbp)
    96b1:	48 8d 85 18 f4 ff ff 	lea    -0xbe8(%rbp),%rax
    96b8:	48 89 85 20 fc ff ff 	mov    %rax,-0x3e0(%rbp)
    96bf:	48 8d 85 18 f4 ff ff 	lea    -0xbe8(%rbp),%rax
    96c6:	48 89 85 28 fc ff ff 	mov    %rax,-0x3d8(%rbp)
    96cd:	48 8d 85 18 f4 ff ff 	lea    -0xbe8(%rbp),%rax
    96d4:	48 89 85 30 fc ff ff 	mov    %rax,-0x3d0(%rbp)
    96db:	48 8d 85 18 f4 ff ff 	lea    -0xbe8(%rbp),%rax
    96e2:	48 89 85 38 fc ff ff 	mov    %rax,-0x3c8(%rbp)
    96e9:	48 8d 85 18 f4 ff ff 	lea    -0xbe8(%rbp),%rax
    96f0:	48 89 85 40 fc ff ff 	mov    %rax,-0x3c0(%rbp)
    96f7:	48 8d 85 18 f4 ff ff 	lea    -0xbe8(%rbp),%rax
    96fe:	48 89 85 48 fc ff ff 	mov    %rax,-0x3b8(%rbp)
    9705:	48 8d 85 18 f4 ff ff 	lea    -0xbe8(%rbp),%rax
    970c:	48 89 85 50 fc ff ff 	mov    %rax,-0x3b0(%rbp)
    9713:	48 8d 85 18 f4 ff ff 	lea    -0xbe8(%rbp),%rax
    971a:	48 89 85 58 fc ff ff 	mov    %rax,-0x3a8(%rbp)
    9721:	48 8d 85 18 f4 ff ff 	lea    -0xbe8(%rbp),%rax
    9728:	48 89 85 60 fc ff ff 	mov    %rax,-0x3a0(%rbp)
    972f:	48 c7 85 68 fc ff ff 	movq   $0x0,-0x398(%rbp)
    9736:	00 00 00 00 
    973a:	48 c7 85 70 fc ff ff 	movq   $0x0,-0x390(%rbp)
    9741:	00 00 00 00 
    9745:	48 8d 85 18 f4 ff ff 	lea    -0xbe8(%rbp),%rax
    974c:	48 89 85 78 fc ff ff 	mov    %rax,-0x388(%rbp)
    9753:	48 8d 85 18 f4 ff ff 	lea    -0xbe8(%rbp),%rax
    975a:	48 89 85 80 fc ff ff 	mov    %rax,-0x380(%rbp)
    9761:	48 8d 85 18 f4 ff ff 	lea    -0xbe8(%rbp),%rax
    9768:	48 89 85 88 fc ff ff 	mov    %rax,-0x378(%rbp)
    976f:	48 8d 85 18 f4 ff ff 	lea    -0xbe8(%rbp),%rax
    9776:	48 89 85 90 fc ff ff 	mov    %rax,-0x370(%rbp)
    977d:	48 8d 85 18 f4 ff ff 	lea    -0xbe8(%rbp),%rax
    9784:	48 89 85 98 fc ff ff 	mov    %rax,-0x368(%rbp)
    978b:	48 8d 85 18 f4 ff ff 	lea    -0xbe8(%rbp),%rax
    9792:	48 89 85 a0 fc ff ff 	mov    %rax,-0x360(%rbp)
    9799:	48 c7 85 a8 fc ff ff 	movq   $0x0,-0x358(%rbp)
    97a0:	00 00 00 00 
    97a4:	48 8d 85 18 f4 ff ff 	lea    -0xbe8(%rbp),%rax
    97ab:	48 89 85 b0 fc ff ff 	mov    %rax,-0x350(%rbp)
    97b2:	48 8d 85 18 f4 ff ff 	lea    -0xbe8(%rbp),%rax
    97b9:	48 89 85 b8 fc ff ff 	mov    %rax,-0x348(%rbp)
    97c0:	48 8d 85 18 f4 ff ff 	lea    -0xbe8(%rbp),%rax
    97c7:	48 89 85 c0 fc ff ff 	mov    %rax,-0x340(%rbp)
    97ce:	48 c7 85 c8 fc ff ff 	movq   $0x0,-0x338(%rbp)
    97d5:	00 00 00 00 
    97d9:	48 8d 85 18 f4 ff ff 	lea    -0xbe8(%rbp),%rax
    97e0:	48 89 85 d0 fc ff ff 	mov    %rax,-0x330(%rbp)
    97e7:	48 8d 85 18 f4 ff ff 	lea    -0xbe8(%rbp),%rax
    97ee:	48 89 85 d8 fc ff ff 	mov    %rax,-0x328(%rbp)
    97f5:	48 c7 85 e0 fc ff ff 	movq   $0x0,-0x320(%rbp)
    97fc:	00 00 00 00 
    9800:	48 c7 85 e8 fc ff ff 	movq   $0x0,-0x318(%rbp)
    9807:	00 00 00 00 
    980b:	48 c7 85 f0 fc ff ff 	movq   $0x0,-0x310(%rbp)
    9812:	00 00 00 00 
    9816:	48 c7 85 f8 fc ff ff 	movq   $0x0,-0x308(%rbp)
    981d:	00 00 00 00 
    9821:	48 8d 85 18 f4 ff ff 	lea    -0xbe8(%rbp),%rax
    9828:	48 89 85 00 fd ff ff 	mov    %rax,-0x300(%rbp)
    982f:	48 8d 85 18 f4 ff ff 	lea    -0xbe8(%rbp),%rax
    9836:	48 89 85 08 fd ff ff 	mov    %rax,-0x2f8(%rbp)
    983d:	48 8d 85 18 f4 ff ff 	lea    -0xbe8(%rbp),%rax
    9844:	48 89 85 10 fd ff ff 	mov    %rax,-0x2f0(%rbp)
    984b:	48 c7 85 18 fd ff ff 	movq   $0x0,-0x2e8(%rbp)
    9852:	00 00 00 00 
    9856:	48 8d 85 18 f4 ff ff 	lea    -0xbe8(%rbp),%rax
    985d:	48 89 85 20 fd ff ff 	mov    %rax,-0x2e0(%rbp)
    9864:	48 8d 85 18 f4 ff ff 	lea    -0xbe8(%rbp),%rax
    986b:	48 89 85 28 fd ff ff 	mov    %rax,-0x2d8(%rbp)
    9872:	48 8d 85 18 f4 ff ff 	lea    -0xbe8(%rbp),%rax
    9879:	48 89 85 30 fd ff ff 	mov    %rax,-0x2d0(%rbp)
    9880:	48 c7 85 38 fd ff ff 	movq   $0x0,-0x2c8(%rbp)
    9887:	00 00 00 00 
    988b:	48 c7 85 40 fd ff ff 	movq   $0x0,-0x2c0(%rbp)
    9892:	00 00 00 00 
    9896:	48 8d 85 18 f4 ff ff 	lea    -0xbe8(%rbp),%rax
    989d:	48 89 85 48 fd ff ff 	mov    %rax,-0x2b8(%rbp)
    98a4:	48 8d 85 18 f4 ff ff 	lea    -0xbe8(%rbp),%rax
    98ab:	48 89 85 50 fd ff ff 	mov    %rax,-0x2b0(%rbp)
    98b2:	48 8d 85 18 f4 ff ff 	lea    -0xbe8(%rbp),%rax
    98b9:	48 89 85 58 fd ff ff 	mov    %rax,-0x2a8(%rbp)
    98c0:	48 c7 85 60 fd ff ff 	movq   $0x0,-0x2a0(%rbp)
    98c7:	00 00 00 00 
    98cb:	48 8d 85 18 f4 ff ff 	lea    -0xbe8(%rbp),%rax
    98d2:	48 89 85 68 fd ff ff 	mov    %rax,-0x298(%rbp)
    98d9:	48 8d 85 18 f4 ff ff 	lea    -0xbe8(%rbp),%rax
    98e0:	48 89 85 70 fd ff ff 	mov    %rax,-0x290(%rbp)
    98e7:	48 8d 85 18 f4 ff ff 	lea    -0xbe8(%rbp),%rax
    98ee:	48 89 85 78 fd ff ff 	mov    %rax,-0x288(%rbp)
    98f5:	48 c7 85 80 fd ff ff 	movq   $0x0,-0x280(%rbp)
    98fc:	00 00 00 00 
    9900:	48 c7 85 88 fd ff ff 	movq   $0x0,-0x278(%rbp)
    9907:	00 00 00 00 
    990b:	48 c7 85 90 fd ff ff 	movq   $0x0,-0x270(%rbp)
    9912:	00 00 00 00 
    9916:	48 c7 85 98 fd ff ff 	movq   $0x0,-0x268(%rbp)
    991d:	00 00 00 00 
    9921:	48 8d 85 18 f4 ff ff 	lea    -0xbe8(%rbp),%rax
    9928:	48 89 85 a0 fd ff ff 	mov    %rax,-0x260(%rbp)
    992f:	48 c7 85 a8 fd ff ff 	movq   $0x0,-0x258(%rbp)
    9936:	00 00 00 00 
    993a:	48 8d 85 18 f4 ff ff 	lea    -0xbe8(%rbp),%rax
    9941:	48 89 85 b0 fd ff ff 	mov    %rax,-0x250(%rbp)
    9948:	48 8d 85 18 f4 ff ff 	lea    -0xbe8(%rbp),%rax
    994f:	48 89 85 b8 fd ff ff 	mov    %rax,-0x248(%rbp)
    9956:	48 8d 85 18 f4 ff ff 	lea    -0xbe8(%rbp),%rax
    995d:	48 89 85 c0 fd ff ff 	mov    %rax,-0x240(%rbp)
    9964:	48 8d 85 18 f4 ff ff 	lea    -0xbe8(%rbp),%rax
    996b:	48 89 85 c8 fd ff ff 	mov    %rax,-0x238(%rbp)
    9972:	48 8d 85 18 f4 ff ff 	lea    -0xbe8(%rbp),%rax
    9979:	48 89 85 d0 fd ff ff 	mov    %rax,-0x230(%rbp)
    9980:	48 8d 85 18 f4 ff ff 	lea    -0xbe8(%rbp),%rax
    9987:	48 89 85 d8 fd ff ff 	mov    %rax,-0x228(%rbp)
    998e:	48 8d 85 18 f4 ff ff 	lea    -0xbe8(%rbp),%rax
    9995:	48 89 85 e0 fd ff ff 	mov    %rax,-0x220(%rbp)
    999c:	48 8d 85 18 f4 ff ff 	lea    -0xbe8(%rbp),%rax
    99a3:	48 89 85 e8 fd ff ff 	mov    %rax,-0x218(%rbp)
    99aa:	48 c7 85 f0 fd ff ff 	movq   $0x0,-0x210(%rbp)
    99b1:	00 00 00 00 
    99b5:	48 c7 85 f8 fd ff ff 	movq   $0x0,-0x208(%rbp)
    99bc:	00 00 00 00 
    99c0:	48 c7 85 00 fe ff ff 	movq   $0x0,-0x200(%rbp)
    99c7:	00 00 00 00 
    99cb:	48 8d 85 18 f4 ff ff 	lea    -0xbe8(%rbp),%rax
    99d2:	48 89 85 08 fe ff ff 	mov    %rax,-0x1f8(%rbp)
    99d9:	48 8d 85 18 f4 ff ff 	lea    -0xbe8(%rbp),%rax
    99e0:	48 89 85 10 fe ff ff 	mov    %rax,-0x1f0(%rbp)
    99e7:	48 c7 85 18 fe ff ff 	movq   $0x0,-0x1e8(%rbp)
    99ee:	00 00 00 00 
    99f2:	48 8d 85 18 f4 ff ff 	lea    -0xbe8(%rbp),%rax
    99f9:	48 89 85 20 fe ff ff 	mov    %rax,-0x1e0(%rbp)
    9a00:	48 8d 85 18 f4 ff ff 	lea    -0xbe8(%rbp),%rax
    9a07:	48 89 85 28 fe ff ff 	mov    %rax,-0x1d8(%rbp)
    9a0e:	48 8d 85 18 f4 ff ff 	lea    -0xbe8(%rbp),%rax
    9a15:	48 89 85 30 fe ff ff 	mov    %rax,-0x1d0(%rbp)
    9a1c:	48 c7 85 38 fe ff ff 	movq   $0x0,-0x1c8(%rbp)
    9a23:	00 00 00 00 
    9a27:	48 8d 85 18 f4 ff ff 	lea    -0xbe8(%rbp),%rax
    9a2e:	48 89 85 40 fe ff ff 	mov    %rax,-0x1c0(%rbp)
    9a35:	48 c7 85 48 fe ff ff 	movq   $0x0,-0x1b8(%rbp)
    9a3c:	00 00 00 00 
    9a40:	48 8d 85 18 f4 ff ff 	lea    -0xbe8(%rbp),%rax
    9a47:	48 89 85 50 fe ff ff 	mov    %rax,-0x1b0(%rbp)
    9a4e:	48 8d 85 18 f4 ff ff 	lea    -0xbe8(%rbp),%rax
    9a55:	48 89 85 58 fe ff ff 	mov    %rax,-0x1a8(%rbp)
    9a5c:	48 8d 85 18 f4 ff ff 	lea    -0xbe8(%rbp),%rax
    9a63:	48 89 85 60 fe ff ff 	mov    %rax,-0x1a0(%rbp)
    9a6a:	48 8d 85 18 f4 ff ff 	lea    -0xbe8(%rbp),%rax
    9a71:	48 89 85 68 fe ff ff 	mov    %rax,-0x198(%rbp)
    9a78:	48 8d 85 18 f4 ff ff 	lea    -0xbe8(%rbp),%rax
    9a7f:	48 89 85 70 fe ff ff 	mov    %rax,-0x190(%rbp)
    9a86:	48 8d 85 18 f4 ff ff 	lea    -0xbe8(%rbp),%rax
    9a8d:	48 89 85 78 fe ff ff 	mov    %rax,-0x188(%rbp)
    9a94:	48 8d 85 18 f4 ff ff 	lea    -0xbe8(%rbp),%rax
    9a9b:	48 89 85 80 fe ff ff 	mov    %rax,-0x180(%rbp)
    9aa2:	48 8d 85 18 f4 ff ff 	lea    -0xbe8(%rbp),%rax
    9aa9:	48 89 85 88 fe ff ff 	mov    %rax,-0x178(%rbp)
    9ab0:	48 8d 85 18 f4 ff ff 	lea    -0xbe8(%rbp),%rax
    9ab7:	48 89 85 90 fe ff ff 	mov    %rax,-0x170(%rbp)
    9abe:	48 8d 85 18 f4 ff ff 	lea    -0xbe8(%rbp),%rax
    9ac5:	48 89 85 98 fe ff ff 	mov    %rax,-0x168(%rbp)
    9acc:	48 c7 85 a0 fe ff ff 	movq   $0x0,-0x160(%rbp)
    9ad3:	00 00 00 00 
    9ad7:	48 c7 85 a8 fe ff ff 	movq   $0x0,-0x158(%rbp)
    9ade:	00 00 00 00 
    9ae2:	48 c7 85 b0 fe ff ff 	movq   $0x0,-0x150(%rbp)
    9ae9:	00 00 00 00 
    9aed:	48 c7 85 b8 fe ff ff 	movq   $0x0,-0x148(%rbp)
    9af4:	00 00 00 00 
    9af8:	48 8d 85 18 f4 ff ff 	lea    -0xbe8(%rbp),%rax
    9aff:	48 89 85 c0 fe ff ff 	mov    %rax,-0x140(%rbp)
    9b06:	48 8d 85 18 f4 ff ff 	lea    -0xbe8(%rbp),%rax
    9b0d:	48 89 85 c8 fe ff ff 	mov    %rax,-0x138(%rbp)
    9b14:	48 8d 85 18 f4 ff ff 	lea    -0xbe8(%rbp),%rax
    9b1b:	48 89 85 d0 fe ff ff 	mov    %rax,-0x130(%rbp)
    9b22:	48 8d 85 18 f4 ff ff 	lea    -0xbe8(%rbp),%rax
    9b29:	48 89 85 d8 fe ff ff 	mov    %rax,-0x128(%rbp)
    9b30:	48 8d 85 18 f4 ff ff 	lea    -0xbe8(%rbp),%rax
    9b37:	48 89 85 e0 fe ff ff 	mov    %rax,-0x120(%rbp)
    9b3e:	48 8d 85 18 f4 ff ff 	lea    -0xbe8(%rbp),%rax
    9b45:	48 89 85 e8 fe ff ff 	mov    %rax,-0x118(%rbp)
    9b4c:	48 8d 85 18 f4 ff ff 	lea    -0xbe8(%rbp),%rax
    9b53:	48 89 85 f0 fe ff ff 	mov    %rax,-0x110(%rbp)
    9b5a:	48 8d 85 18 f4 ff ff 	lea    -0xbe8(%rbp),%rax
    9b61:	48 89 85 f8 fe ff ff 	mov    %rax,-0x108(%rbp)
    9b68:	48 8d 85 18 f4 ff ff 	lea    -0xbe8(%rbp),%rax
    9b6f:	48 89 85 00 ff ff ff 	mov    %rax,-0x100(%rbp)
    9b76:	48 8d 85 18 f4 ff ff 	lea    -0xbe8(%rbp),%rax
    9b7d:	48 89 85 08 ff ff ff 	mov    %rax,-0xf8(%rbp)
    9b84:	48 c7 85 10 ff ff ff 	movq   $0x0,-0xf0(%rbp)
    9b8b:	00 00 00 00 
    9b8f:	48 8d 85 18 f4 ff ff 	lea    -0xbe8(%rbp),%rax
    9b96:	48 89 85 18 ff ff ff 	mov    %rax,-0xe8(%rbp)
    9b9d:	48 c7 85 20 ff ff ff 	movq   $0x0,-0xe0(%rbp)
    9ba4:	00 00 00 00 
    9ba8:	48 8d 85 18 f4 ff ff 	lea    -0xbe8(%rbp),%rax
    9baf:	48 89 85 28 ff ff ff 	mov    %rax,-0xd8(%rbp)
    9bb6:	48 8d 85 18 f4 ff ff 	lea    -0xbe8(%rbp),%rax
    9bbd:	48 89 85 30 ff ff ff 	mov    %rax,-0xd0(%rbp)
    9bc4:	48 8d 85 18 f4 ff ff 	lea    -0xbe8(%rbp),%rax
    9bcb:	48 89 85 38 ff ff ff 	mov    %rax,-0xc8(%rbp)
    9bd2:	48 c7 85 40 ff ff ff 	movq   $0x0,-0xc0(%rbp)
    9bd9:	00 00 00 00 
    9bdd:	48 8d 85 18 f4 ff ff 	lea    -0xbe8(%rbp),%rax
    9be4:	48 89 85 48 ff ff ff 	mov    %rax,-0xb8(%rbp)
    9beb:	48 8d 85 18 f4 ff ff 	lea    -0xbe8(%rbp),%rax
    9bf2:	48 89 85 50 ff ff ff 	mov    %rax,-0xb0(%rbp)
    9bf9:	48 c7 85 58 ff ff ff 	movq   $0x0,-0xa8(%rbp)
    9c00:	00 00 00 00 
    9c04:	48 c7 85 60 ff ff ff 	movq   $0x0,-0xa0(%rbp)
    9c0b:	00 00 00 00 
    9c0f:	48 c7 85 68 ff ff ff 	movq   $0x0,-0x98(%rbp)
    9c16:	00 00 00 00 
    9c1a:	48 8d 85 18 f4 ff ff 	lea    -0xbe8(%rbp),%rax
    9c21:	48 89 85 70 ff ff ff 	mov    %rax,-0x90(%rbp)
    9c28:	48 8d 85 18 f4 ff ff 	lea    -0xbe8(%rbp),%rax
    9c2f:	48 89 85 78 ff ff ff 	mov    %rax,-0x88(%rbp)
    9c36:	48 8d 85 18 f4 ff ff 	lea    -0xbe8(%rbp),%rax
    9c3d:	48 89 45 80          	mov    %rax,-0x80(%rbp)
    9c41:	48 8d 85 18 f4 ff ff 	lea    -0xbe8(%rbp),%rax
    9c48:	48 89 45 88          	mov    %rax,-0x78(%rbp)
    9c4c:	48 8d 85 18 f4 ff ff 	lea    -0xbe8(%rbp),%rax
    9c53:	48 89 45 90          	mov    %rax,-0x70(%rbp)
    9c57:	48 8d 85 18 f4 ff ff 	lea    -0xbe8(%rbp),%rax
    9c5e:	48 89 45 98          	mov    %rax,-0x68(%rbp)
    9c62:	48 8d 85 18 f4 ff ff 	lea    -0xbe8(%rbp),%rax
    9c69:	48 89 45 a0          	mov    %rax,-0x60(%rbp)
    9c6d:	48 8d 85 18 f4 ff ff 	lea    -0xbe8(%rbp),%rax
    9c74:	48 89 45 a8          	mov    %rax,-0x58(%rbp)
    9c78:	c7 85 b8 f3 ff ff e7 	movl   $0x73f94be7,-0xc48(%rbp)
    9c7f:	4b f9 73 
    9c82:	c7 85 bc f3 ff ff 7b 	movl   $0x263c4b7b,-0xc44(%rbp)
    9c89:	4b 3c 26 
    9c8c:	c7 85 c0 f3 ff ff c3 	movl   $0x1276ac3,-0xc40(%rbp)
    9c93:	6a 27 01 
    9c96:	c7 85 9c f3 ff ff 00 	movl   $0x0,-0xc64(%rbp)
    9c9d:	00 00 00 
    9ca0:	eb 1a                	jmp    9cbc <func_2+0x15be>
    9ca2:	8b 85 9c f3 ff ff    	mov    -0xc64(%rbp),%eax
    9ca8:	48 98                	cltq   
    9caa:	c7 84 85 40 f6 ff ff 	movl   $0xfffffffa,-0x9c0(%rbp,%rax,4)
    9cb1:	fa ff ff ff 
    9cb5:	83 85 9c f3 ff ff 01 	addl   $0x1,-0xc64(%rbp)
    9cbc:	83 bd 9c f3 ff ff 01 	cmpl   $0x1,-0xc64(%rbp)
    9cc3:	7e dd                	jle    9ca2 <func_2+0x15a4>
    9cc5:	48 83 bd f8 f4 ff ff 	cmpq   $0x0,-0xb08(%rbp)
    9ccc:	00 
    9ccd:	74 7f                	je     9d4e <func_2+0x1650>
    9ccf:	48 8b 05 f2 c5 00 00 	mov    0xc5f2(%rip),%rax        # 162c8 <g_1468>
    9cd6:	0f b7 00             	movzwl (%rax),%eax
    9cd9:	66 85 c0             	test   %ax,%ax
    9cdc:	74 39                	je     9d17 <func_2+0x1619>
    9cde:	8b 1d ac b4 00 00    	mov    0xb4ac(%rip),%ebx        # 15190 <g_1741>
    9ce4:	c7 85 b4 f3 ff ff 01 	movl   $0x1,-0xc4c(%rbp)
    9ceb:	00 00 00 
    9cee:	be 00 00 00 00       	mov    $0x0,%esi
    9cf3:	bf 01 00 00 00       	mov    $0x1,%edi
    9cf8:	e8 d6 b6 ff ff       	callq  53d3 <safe_sub_func_int16_t_s_s>
    9cfd:	98                   	cwtl   
    9cfe:	89 de                	mov    %ebx,%esi
    9d00:	89 c7                	mov    %eax,%edi
    9d02:	e8 8b b7 ff ff       	callq  5492 <safe_lshift_func_int16_t_s_s>
    9d07:	98                   	cwtl   
    9d08:	be 07 00 00 00       	mov    $0x7,%esi
    9d0d:	89 c7                	mov    %eax,%edi
    9d0f:	e8 cd b7 ff ff       	callq  54e1 <safe_lshift_func_int16_t_s_u>
    9d14:	66 85 c0             	test   %ax,%ax
    9d17:	48 8b 95 08 f4 ff ff 	mov    -0xbf8(%rbp),%rdx
    9d1e:	48 8b 85 00 f5 ff ff 	mov    -0xb00(%rbp),%rax
    9d25:	48 89 10             	mov    %rdx,(%rax)
    9d28:	48 8b 85 00 f5 ff ff 	mov    -0xb00(%rbp),%rax
    9d2f:	48 8b 00             	mov    (%rax),%rax
    9d32:	48 85 c0             	test   %rax,%rax
    9d35:	0f 95 c0             	setne  %al
    9d38:	0f b6 c0             	movzbl %al,%eax
    9d3b:	be 57 e5 42 c0       	mov    $0xc042e557,%esi
    9d40:	89 c7                	mov    %eax,%edi
    9d42:	e8 be b8 ff ff       	callq  5605 <safe_sub_func_int32_t_s_s>
    9d47:	b8 01 00 00 00       	mov    $0x1,%eax
    9d4c:	eb 05                	jmp    9d53 <func_2+0x1655>
    9d4e:	b8 00 00 00 00       	mov    $0x0,%eax
    9d53:	0f b6 d0             	movzbl %al,%edx
    9d56:	0f bf 8d 30 f3 ff ff 	movswl -0xcd0(%rbp),%ecx
    9d5d:	0f b7 05 10 b3 00 00 	movzwl 0xb310(%rip),%eax        # 15074 <g_296+0x4>
    9d64:	98                   	cwtl   
    9d65:	48 8b 1d 6c c5 00 00 	mov    0xc56c(%rip),%rbx        # 162d8 <g_1742>
    9d6c:	89 ce                	mov    %ecx,%esi
    9d6e:	89 c7                	mov    %eax,%edi
    9d70:	e8 1d 2a 00 00       	callq  c792 <func_77>
    9d75:	48 89 03             	mov    %rax,(%rbx)
    9d78:	48 c7 05 ad b2 00 00 	movq   $0x0,0xb2ad(%rip)        # 15030 <g_68>
    9d7f:	00 00 00 00 
    9d83:	e9 19 02 00 00       	jmpq   9fa1 <func_2+0x18a3>
    9d88:	48 8d 85 18 f4 ff ff 	lea    -0xbe8(%rbp),%rax
    9d8f:	48 89 85 20 f4 ff ff 	mov    %rax,-0xbe0(%rbp)
    9d96:	48 8d 85 20 f4 ff ff 	lea    -0xbe0(%rbp),%rax
    9d9d:	48 89 85 08 f5 ff ff 	mov    %rax,-0xaf8(%rbp)
    9da4:	c7 85 c4 f3 ff ff 00 	movl   $0x0,-0xc3c(%rbp)
    9dab:	00 00 00 
    9dae:	c7 85 c8 f3 ff ff ff 	movl   $0xffffffff,-0xc38(%rbp)
    9db5:	ff ff ff 
    9db8:	c7 85 cc f3 ff ff 03 	movl   $0x3,-0xc34(%rbp)
    9dbf:	00 00 00 
    9dc2:	c7 85 d0 f3 ff ff ff 	movl   $0xffffffff,-0xc30(%rbp)
    9dc9:	ff ff ff 
    9dcc:	c7 85 d4 f3 ff ff ff 	movl   $0xffffffff,-0xc2c(%rbp)
    9dd3:	ff ff ff 
    9dd6:	c7 85 50 f7 ff ff fd 	movl   $0x122033fd,-0x8b0(%rbp)
    9ddd:	33 20 12 
    9de0:	c7 85 54 f7 ff ff a0 	movl   $0xc3bab6a0,-0x8ac(%rbp)
    9de7:	b6 ba c3 
    9dea:	c7 85 58 f7 ff ff b3 	movl   $0x80faedb3,-0x8a8(%rbp)
    9df1:	ed fa 80 
    9df4:	c7 85 5c f7 ff ff fd 	movl   $0xfffffffd,-0x8a4(%rbp)
    9dfb:	ff ff ff 
    9dfe:	c7 85 60 f7 ff ff 08 	movl   $0x8,-0x8a0(%rbp)
    9e05:	00 00 00 
    9e08:	c7 85 64 f7 ff ff b3 	movl   $0x80faedb3,-0x89c(%rbp)
    9e0f:	ed fa 80 
    9e12:	c7 85 68 f7 ff ff d9 	movl   $0xc07d48d9,-0x898(%rbp)
    9e19:	48 7d c0 
    9e1c:	c7 85 6c f7 ff ff b3 	movl   $0x80faedb3,-0x894(%rbp)
    9e23:	ed fa 80 
    9e26:	c7 85 70 f7 ff ff d9 	movl   $0xc07d48d9,-0x890(%rbp)
    9e2d:	48 7d c0 
    9e30:	c7 85 74 f7 ff ff b3 	movl   $0x80faedb3,-0x88c(%rbp)
    9e37:	ed fa 80 
    9e3a:	c7 85 78 f7 ff ff 08 	movl   $0x8,-0x888(%rbp)
    9e41:	00 00 00 
    9e44:	c7 85 7c f7 ff ff fd 	movl   $0xfffffffd,-0x884(%rbp)
    9e4b:	ff ff ff 
    9e4e:	c7 85 80 f7 ff ff b3 	movl   $0x80faedb3,-0x880(%rbp)
    9e55:	ed fa 80 
    9e58:	c7 85 84 f7 ff ff a0 	movl   $0xc3bab6a0,-0x87c(%rbp)
    9e5f:	b6 ba c3 
    9e62:	c7 85 88 f7 ff ff fd 	movl   $0x122033fd,-0x878(%rbp)
    9e69:	33 20 12 
    9e6c:	c7 85 8c f7 ff ff d9 	movl   $0xc07d48d9,-0x874(%rbp)
    9e73:	48 7d c0 
    9e76:	c7 85 90 f7 ff ff 01 	movl   $0x1,-0x870(%rbp)
    9e7d:	00 00 00 
    9e80:	c7 85 94 f7 ff ff 0f 	movl   $0x82dfe10f,-0x86c(%rbp)
    9e87:	e1 df 82 
    9e8a:	c7 85 98 f7 ff ff 0f 	movl   $0x82dfe10f,-0x868(%rbp)
    9e91:	e1 df 82 
    9e94:	c7 85 9c f7 ff ff 01 	movl   $0x1,-0x864(%rbp)
    9e9b:	00 00 00 
    9e9e:	c7 85 a0 f7 ff ff 01 	movl   $0x1,-0x860(%rbp)
    9ea5:	00 00 00 
    9ea8:	c7 85 a4 f7 ff ff fd 	movl   $0xfffffffd,-0x85c(%rbp)
    9eaf:	ff ff ff 
    9eb2:	c7 85 a8 f7 ff ff fd 	movl   $0x122033fd,-0x858(%rbp)
    9eb9:	33 20 12 
    9ebc:	c7 85 ac f7 ff ff f8 	movl   $0xfffffff8,-0x854(%rbp)
    9ec3:	ff ff ff 
    9ec6:	c6 85 2c f3 ff ff 13 	movb   $0x13,-0xcd4(%rbp)
    9ecd:	48 8b 95 f0 f9 ff ff 	mov    -0x610(%rbp),%rdx
    9ed4:	48 8b 85 08 f5 ff ff 	mov    -0xaf8(%rbp),%rax
    9edb:	48 89 10             	mov    %rdx,(%rax)
    9ede:	66 c7 05 fd b1 00 00 	movw   $0xc,0xb1fd(%rip)        # 150e4 <g_327>
    9ee5:	0c 00 
    9ee7:	e9 89 00 00 00       	jmpq   9f75 <func_2+0x1877>
    9eec:	48 8d 05 c5 b9 00 00 	lea    0xb9c5(%rip),%rax        # 158b8 <g_497+0x138>
    9ef3:	48 89 85 10 f5 ff ff 	mov    %rax,-0xaf0(%rbp)
    9efa:	48 8d 05 4f b2 00 00 	lea    0xb24f(%rip),%rax        # 15150 <g_1024>
    9f01:	48 89 85 18 f5 ff ff 	mov    %rax,-0xae8(%rbp)
    9f08:	48 c7 85 20 f5 ff ff 	movq   $0x0,-0xae0(%rbp)
    9f0f:	00 00 00 00 
    9f13:	c7 85 8c f3 ff ff 00 	movl   $0x0,-0xc74(%rbp)
    9f1a:	00 00 00 
    9f1d:	eb 1e                	jmp    9f3d <func_2+0x183f>
    9f1f:	8b 85 8c f3 ff ff    	mov    -0xc74(%rbp),%eax
    9f25:	48 98                	cltq   
    9f27:	48 8d 95 48 f3 ff ff 	lea    -0xcb8(%rbp),%rdx
    9f2e:	48 89 94 c5 80 f6 ff 	mov    %rdx,-0x980(%rbp,%rax,8)
    9f35:	ff 
    9f36:	83 85 8c f3 ff ff 01 	addl   $0x1,-0xc74(%rbp)
    9f3d:	83 bd 8c f3 ff ff 01 	cmpl   $0x1,-0xc74(%rbp)
    9f44:	7e d9                	jle    9f1f <func_2+0x1821>
    9f46:	48 8d 05 9b b8 00 00 	lea    0xb89b(%rip),%rax        # 157e8 <g_497+0x68>
    9f4d:	48 89 85 10 f5 ff ff 	mov    %rax,-0xaf0(%rbp)
    9f54:	0f b6 85 2c f3 ff ff 	movzbl -0xcd4(%rbp),%eax
    9f5b:	83 c0 01             	add    $0x1,%eax
    9f5e:	88 85 2c f3 ff ff    	mov    %al,-0xcd4(%rbp)
    9f64:	0f b7 05 79 b1 00 00 	movzwl 0xb179(%rip),%eax        # 150e4 <g_327>
    9f6b:	83 c0 01             	add    $0x1,%eax
    9f6e:	66 89 05 6f b1 00 00 	mov    %ax,0xb16f(%rip)        # 150e4 <g_327>
    9f75:	0f b7 05 68 b1 00 00 	movzwl 0xb168(%rip),%eax        # 150e4 <g_327>
    9f7c:	66 83 f8 0e          	cmp    $0xe,%ax
    9f80:	0f 84 66 ff ff ff    	je     9eec <func_2+0x17ee>
    9f86:	48 8b 05 a3 b0 00 00 	mov    0xb0a3(%rip),%rax        # 15030 <g_68>
    9f8d:	be 01 00 00 00       	mov    $0x1,%esi
    9f92:	48 89 c7             	mov    %rax,%rdi
    9f95:	e8 a7 b8 ff ff       	callq  5841 <safe_add_func_int64_t_s_s>
    9f9a:	48 89 05 8f b0 00 00 	mov    %rax,0xb08f(%rip)        # 15030 <g_68>
    9fa1:	48 8b 05 88 b0 00 00 	mov    0xb088(%rip),%rax        # 15030 <g_68>
    9fa8:	48 83 f8 1d          	cmp    $0x1d,%rax
    9fac:	0f 85 d6 fd ff ff    	jne    9d88 <func_2+0x168a>
    9fb2:	8b 05 84 b0 00 00    	mov    0xb084(%rip),%eax        # 1503c <g_76>
    9fb8:	0f b7 c0             	movzwl %ax,%eax
    9fbb:	be 08 00 00 00       	mov    $0x8,%esi
    9fc0:	89 c7                	mov    %eax,%edi
    9fc2:	e8 58 bd ff ff       	callq  5d1f <safe_sub_func_uint16_t_u_u>
    9fc7:	0f b7 c0             	movzwl %ax,%eax
    9fca:	89 05 6c b0 00 00    	mov    %eax,0xb06c(%rip)        # 1503c <g_76>
    9fd0:	8b 05 66 b0 00 00    	mov    0xb066(%rip),%eax        # 1503c <g_76>
    9fd6:	83 f8 f4             	cmp    $0xfffffff4,%eax
    9fd9:	0f 85 d9 f0 ff ff    	jne    90b8 <func_2+0x9ba>
    9fdf:	c7 85 6c f3 ff ff 00 	movl   $0x0,-0xc94(%rbp)
    9fe6:	00 00 00 
    9fe9:	e9 c2 17 00 00       	jmpq   b7b0 <func_2+0x30b2>
    9fee:	48 8d 05 2b b1 00 00 	lea    0xb12b(%rip),%rax        # 15120 <g_380+0x20>
    9ff5:	48 89 85 10 f4 ff ff 	mov    %rax,-0xbf0(%rbp)
    9ffc:	c7 85 70 f3 ff ff 70 	movl   $0x85ca670,-0xc90(%rbp)
    a003:	a6 5c 08 
    a006:	48 8d 05 80 b1 00 00 	lea    0xb180(%rip),%rax        # 1518d <g_1532>
    a00d:	48 89 85 80 f6 ff ff 	mov    %rax,-0x980(%rbp)
    a014:	48 8d 05 72 b1 00 00 	lea    0xb172(%rip),%rax        # 1518d <g_1532>
    a01b:	48 89 85 88 f6 ff ff 	mov    %rax,-0x978(%rbp)
    a022:	48 8d 05 00 b0 00 00 	lea    0xb000(%rip),%rax        # 15029 <g_19>
    a029:	48 89 85 90 f6 ff ff 	mov    %rax,-0x970(%rbp)
    a030:	48 8d 05 56 b1 00 00 	lea    0xb156(%rip),%rax        # 1518d <g_1532>
    a037:	48 89 85 98 f6 ff ff 	mov    %rax,-0x968(%rbp)
    a03e:	48 8d 05 48 b1 00 00 	lea    0xb148(%rip),%rax        # 1518d <g_1532>
    a045:	48 89 85 a0 f6 ff ff 	mov    %rax,-0x960(%rbp)
    a04c:	48 8d 05 d6 af 00 00 	lea    0xafd6(%rip),%rax        # 15029 <g_19>
    a053:	48 89 85 a8 f6 ff ff 	mov    %rax,-0x958(%rbp)
    a05a:	48 8d 05 2c b1 00 00 	lea    0xb12c(%rip),%rax        # 1518d <g_1532>
    a061:	48 89 85 b0 f6 ff ff 	mov    %rax,-0x950(%rbp)
    a068:	48 8d 05 1e b1 00 00 	lea    0xb11e(%rip),%rax        # 1518d <g_1532>
    a06f:	48 89 85 b8 f6 ff ff 	mov    %rax,-0x948(%rbp)
    a076:	48 8d 05 ac af 00 00 	lea    0xafac(%rip),%rax        # 15029 <g_19>
    a07d:	48 89 85 c0 f6 ff ff 	mov    %rax,-0x940(%rbp)
    a084:	48 8d 85 e0 f3 ff ff 	lea    -0xc20(%rbp),%rax
    a08b:	48 89 85 68 f4 ff ff 	mov    %rax,-0xb98(%rbp)
    a092:	48 8d 85 4c f3 ff ff 	lea    -0xcb4(%rbp),%rax
    a099:	48 89 85 00 f6 ff ff 	mov    %rax,-0xa00(%rbp)
    a0a0:	48 8d 85 4c f3 ff ff 	lea    -0xcb4(%rbp),%rax
    a0a7:	48 89 85 08 f6 ff ff 	mov    %rax,-0x9f8(%rbp)
    a0ae:	48 8d 05 4f 70 00 00 	lea    0x704f(%rip),%rax        # 11104 <g_1869+0x4>
    a0b5:	48 89 85 10 f6 ff ff 	mov    %rax,-0x9f0(%rbp)
    a0bc:	48 8d 85 4c f3 ff ff 	lea    -0xcb4(%rbp),%rax
    a0c3:	48 89 85 18 f6 ff ff 	mov    %rax,-0x9e8(%rbp)
    a0ca:	48 8d 85 4c f3 ff ff 	lea    -0xcb4(%rbp),%rax
    a0d1:	48 89 85 20 f6 ff ff 	mov    %rax,-0x9e0(%rbp)
    a0d8:	48 8d 05 25 70 00 00 	lea    0x7025(%rip),%rax        # 11104 <g_1869+0x4>
    a0df:	48 89 85 28 f6 ff ff 	mov    %rax,-0x9d8(%rbp)
    a0e6:	48 8d 85 4c f3 ff ff 	lea    -0xcb4(%rbp),%rax
    a0ed:	48 89 85 30 f6 ff ff 	mov    %rax,-0x9d0(%rbp)
    a0f4:	c7 85 74 f3 ff ff 01 	movl   $0x1,-0xc8c(%rbp)
    a0fb:	00 00 00 
    a0fe:	48 8d 85 00 f4 ff ff 	lea    -0xc00(%rbp),%rax
    a105:	48 89 85 b0 f8 ff ff 	mov    %rax,-0x750(%rbp)
    a10c:	48 8d 05 75 bf 00 00 	lea    0xbf75(%rip),%rax        # 16088 <g_792>
    a113:	48 89 85 b8 f8 ff ff 	mov    %rax,-0x748(%rbp)
    a11a:	48 8d 05 67 bf 00 00 	lea    0xbf67(%rip),%rax        # 16088 <g_792>
    a121:	48 89 85 c0 f8 ff ff 	mov    %rax,-0x740(%rbp)
    a128:	48 8d 85 00 f4 ff ff 	lea    -0xc00(%rbp),%rax
    a12f:	48 89 85 c8 f8 ff ff 	mov    %rax,-0x738(%rbp)
    a136:	48 c7 85 d0 f8 ff ff 	movq   $0x0,-0x730(%rbp)
    a13d:	00 00 00 00 
    a141:	48 8d 05 40 bf 00 00 	lea    0xbf40(%rip),%rax        # 16088 <g_792>
    a148:	48 89 85 d8 f8 ff ff 	mov    %rax,-0x728(%rbp)
    a14f:	48 8d 05 32 bf 00 00 	lea    0xbf32(%rip),%rax        # 16088 <g_792>
    a156:	48 89 85 e0 f8 ff ff 	mov    %rax,-0x720(%rbp)
    a15d:	48 8d 05 24 bf 00 00 	lea    0xbf24(%rip),%rax        # 16088 <g_792>
    a164:	48 89 85 e8 f8 ff ff 	mov    %rax,-0x718(%rbp)
    a16b:	48 8d 85 00 f4 ff ff 	lea    -0xc00(%rbp),%rax
    a172:	48 89 85 f0 f8 ff ff 	mov    %rax,-0x710(%rbp)
    a179:	48 8d 85 00 f4 ff ff 	lea    -0xc00(%rbp),%rax
    a180:	48 89 85 f8 f8 ff ff 	mov    %rax,-0x708(%rbp)
    a187:	48 8d 85 00 f4 ff ff 	lea    -0xc00(%rbp),%rax
    a18e:	48 89 85 00 f9 ff ff 	mov    %rax,-0x700(%rbp)
    a195:	48 8d 05 ec be 00 00 	lea    0xbeec(%rip),%rax        # 16088 <g_792>
    a19c:	48 89 85 08 f9 ff ff 	mov    %rax,-0x6f8(%rbp)
    a1a3:	48 8d 85 00 f4 ff ff 	lea    -0xc00(%rbp),%rax
    a1aa:	48 89 85 10 f9 ff ff 	mov    %rax,-0x6f0(%rbp)
    a1b1:	48 8d 85 00 f4 ff ff 	lea    -0xc00(%rbp),%rax
    a1b8:	48 89 85 18 f9 ff ff 	mov    %rax,-0x6e8(%rbp)
    a1bf:	48 c7 85 20 f9 ff ff 	movq   $0x0,-0x6e0(%rbp)
    a1c6:	00 00 00 00 
    a1ca:	48 8d 85 00 f4 ff ff 	lea    -0xc00(%rbp),%rax
    a1d1:	48 89 85 28 f9 ff ff 	mov    %rax,-0x6d8(%rbp)
    a1d8:	48 8d 05 a9 be 00 00 	lea    0xbea9(%rip),%rax        # 16088 <g_792>
    a1df:	48 89 85 30 f9 ff ff 	mov    %rax,-0x6d0(%rbp)
    a1e6:	48 8d 05 9b be 00 00 	lea    0xbe9b(%rip),%rax        # 16088 <g_792>
    a1ed:	48 89 85 38 f9 ff ff 	mov    %rax,-0x6c8(%rbp)
    a1f4:	48 8d 85 00 f4 ff ff 	lea    -0xc00(%rbp),%rax
    a1fb:	48 89 85 40 f9 ff ff 	mov    %rax,-0x6c0(%rbp)
    a202:	48 c7 85 48 f9 ff ff 	movq   $0x0,-0x6b8(%rbp)
    a209:	00 00 00 00 
    a20d:	48 8d 05 74 be 00 00 	lea    0xbe74(%rip),%rax        # 16088 <g_792>
    a214:	48 89 85 50 f9 ff ff 	mov    %rax,-0x6b0(%rbp)
    a21b:	48 8d 85 00 f4 ff ff 	lea    -0xc00(%rbp),%rax
    a222:	48 89 85 58 f9 ff ff 	mov    %rax,-0x6a8(%rbp)
    a229:	48 8d 85 00 f4 ff ff 	lea    -0xc00(%rbp),%rax
    a230:	48 89 85 60 f9 ff ff 	mov    %rax,-0x6a0(%rbp)
    a237:	48 8d 85 00 f4 ff ff 	lea    -0xc00(%rbp),%rax
    a23e:	48 89 85 68 f9 ff ff 	mov    %rax,-0x698(%rbp)
    a245:	48 8d 85 00 f4 ff ff 	lea    -0xc00(%rbp),%rax
    a24c:	48 89 85 70 f9 ff ff 	mov    %rax,-0x690(%rbp)
    a253:	48 8d 85 00 f4 ff ff 	lea    -0xc00(%rbp),%rax
    a25a:	48 89 85 78 f9 ff ff 	mov    %rax,-0x688(%rbp)
    a261:	48 8d 85 00 f4 ff ff 	lea    -0xc00(%rbp),%rax
    a268:	48 89 85 80 f9 ff ff 	mov    %rax,-0x680(%rbp)
    a26f:	48 8d 85 00 f4 ff ff 	lea    -0xc00(%rbp),%rax
    a276:	48 89 85 88 f9 ff ff 	mov    %rax,-0x678(%rbp)
    a27d:	48 c7 85 90 f9 ff ff 	movq   $0x0,-0x670(%rbp)
    a284:	00 00 00 00 
    a288:	48 8d 05 f9 bd 00 00 	lea    0xbdf9(%rip),%rax        # 16088 <g_792>
    a28f:	48 89 85 98 f9 ff ff 	mov    %rax,-0x668(%rbp)
    a296:	48 8d 05 eb bd 00 00 	lea    0xbdeb(%rip),%rax        # 16088 <g_792>
    a29d:	48 89 85 a0 f9 ff ff 	mov    %rax,-0x660(%rbp)
    a2a4:	48 8d 85 00 f4 ff ff 	lea    -0xc00(%rbp),%rax
    a2ab:	48 89 85 a8 f9 ff ff 	mov    %rax,-0x658(%rbp)
    a2b2:	48 8d 85 00 f4 ff ff 	lea    -0xc00(%rbp),%rax
    a2b9:	48 89 85 b0 f9 ff ff 	mov    %rax,-0x650(%rbp)
    a2c0:	48 8d 05 c1 bd 00 00 	lea    0xbdc1(%rip),%rax        # 16088 <g_792>
    a2c7:	48 89 85 b8 f9 ff ff 	mov    %rax,-0x648(%rbp)
    a2ce:	48 8d 05 b3 bd 00 00 	lea    0xbdb3(%rip),%rax        # 16088 <g_792>
    a2d5:	48 89 85 c0 f9 ff ff 	mov    %rax,-0x640(%rbp)
    a2dc:	48 8d 05 a5 bd 00 00 	lea    0xbda5(%rip),%rax        # 16088 <g_792>
    a2e3:	48 89 85 c8 f9 ff ff 	mov    %rax,-0x638(%rbp)
    a2ea:	48 8d 85 00 f4 ff ff 	lea    -0xc00(%rbp),%rax
    a2f1:	48 89 85 d0 f9 ff ff 	mov    %rax,-0x630(%rbp)
    a2f8:	48 8d 85 00 f4 ff ff 	lea    -0xc00(%rbp),%rax
    a2ff:	48 89 85 d8 f9 ff ff 	mov    %rax,-0x628(%rbp)
    a306:	48 8d 85 00 f4 ff ff 	lea    -0xc00(%rbp),%rax
    a30d:	48 89 85 e0 f9 ff ff 	mov    %rax,-0x620(%rbp)
    a314:	48 8d 05 6d bd 00 00 	lea    0xbd6d(%rip),%rax        # 16088 <g_792>
    a31b:	48 89 85 e8 f9 ff ff 	mov    %rax,-0x618(%rbp)
    a322:	48 8d 85 00 f4 ff ff 	lea    -0xc00(%rbp),%rax
    a329:	48 89 85 f0 f9 ff ff 	mov    %rax,-0x610(%rbp)
    a330:	48 8d 85 00 f4 ff ff 	lea    -0xc00(%rbp),%rax
    a337:	48 89 85 f8 f9 ff ff 	mov    %rax,-0x608(%rbp)
    a33e:	48 8d 85 00 f4 ff ff 	lea    -0xc00(%rbp),%rax
    a345:	48 89 85 00 fa ff ff 	mov    %rax,-0x600(%rbp)
    a34c:	48 8d 85 00 f4 ff ff 	lea    -0xc00(%rbp),%rax
    a353:	48 89 85 08 fa ff ff 	mov    %rax,-0x5f8(%rbp)
    a35a:	48 8d 05 27 bd 00 00 	lea    0xbd27(%rip),%rax        # 16088 <g_792>
    a361:	48 89 85 10 fa ff ff 	mov    %rax,-0x5f0(%rbp)
    a368:	48 8d 05 19 bd 00 00 	lea    0xbd19(%rip),%rax        # 16088 <g_792>
    a36f:	48 89 85 18 fa ff ff 	mov    %rax,-0x5e8(%rbp)
    a376:	48 c7 85 20 fa ff ff 	movq   $0x0,-0x5e0(%rbp)
    a37d:	00 00 00 00 
    a381:	48 c7 85 28 fa ff ff 	movq   $0x0,-0x5d8(%rbp)
    a388:	00 00 00 00 
    a38c:	48 8d 05 f5 bc 00 00 	lea    0xbcf5(%rip),%rax        # 16088 <g_792>
    a393:	48 89 85 30 fa ff ff 	mov    %rax,-0x5d0(%rbp)
    a39a:	48 8d 85 00 f4 ff ff 	lea    -0xc00(%rbp),%rax
    a3a1:	48 89 85 38 fa ff ff 	mov    %rax,-0x5c8(%rbp)
    a3a8:	48 8d 85 00 f4 ff ff 	lea    -0xc00(%rbp),%rax
    a3af:	48 89 85 40 fa ff ff 	mov    %rax,-0x5c0(%rbp)
    a3b6:	48 8d 85 00 f4 ff ff 	lea    -0xc00(%rbp),%rax
    a3bd:	48 89 85 48 fa ff ff 	mov    %rax,-0x5b8(%rbp)
    a3c4:	48 8d 85 00 f4 ff ff 	lea    -0xc00(%rbp),%rax
    a3cb:	48 89 85 50 fa ff ff 	mov    %rax,-0x5b0(%rbp)
    a3d2:	48 8d 85 00 f4 ff ff 	lea    -0xc00(%rbp),%rax
    a3d9:	48 89 85 58 fa ff ff 	mov    %rax,-0x5a8(%rbp)
    a3e0:	48 8d 85 00 f4 ff ff 	lea    -0xc00(%rbp),%rax
    a3e7:	48 89 85 60 fa ff ff 	mov    %rax,-0x5a0(%rbp)
    a3ee:	48 8d 85 00 f4 ff ff 	lea    -0xc00(%rbp),%rax
    a3f5:	48 89 85 68 fa ff ff 	mov    %rax,-0x598(%rbp)
    a3fc:	48 8d 85 00 f4 ff ff 	lea    -0xc00(%rbp),%rax
    a403:	48 89 85 70 fa ff ff 	mov    %rax,-0x590(%rbp)
    a40a:	48 8d 05 77 bc 00 00 	lea    0xbc77(%rip),%rax        # 16088 <g_792>
    a411:	48 89 85 78 fa ff ff 	mov    %rax,-0x588(%rbp)
    a418:	48 8d 05 69 bc 00 00 	lea    0xbc69(%rip),%rax        # 16088 <g_792>
    a41f:	48 89 85 80 fa ff ff 	mov    %rax,-0x580(%rbp)
    a426:	48 8d 85 00 f4 ff ff 	lea    -0xc00(%rbp),%rax
    a42d:	48 89 85 88 fa ff ff 	mov    %rax,-0x578(%rbp)
    a434:	48 c7 85 90 fa ff ff 	movq   $0x0,-0x570(%rbp)
    a43b:	00 00 00 00 
    a43f:	48 8d 05 42 bc 00 00 	lea    0xbc42(%rip),%rax        # 16088 <g_792>
    a446:	48 89 85 98 fa ff ff 	mov    %rax,-0x568(%rbp)
    a44d:	48 8d 05 34 bc 00 00 	lea    0xbc34(%rip),%rax        # 16088 <g_792>
    a454:	48 89 85 a0 fa ff ff 	mov    %rax,-0x560(%rbp)
    a45b:	48 8d 05 18 ac 00 00 	lea    0xac18(%rip),%rax        # 1507a <g_296+0xa>
    a462:	48 89 85 58 f4 ff ff 	mov    %rax,-0xba8(%rbp)
    a469:	66 c7 85 2e f3 ff ff 	movw   $0x4,-0xcd2(%rbp)
    a470:	04 00 
    a472:	c6 05 c3 ac 00 00 00 	movb   $0x0,0xacc3(%rip)        # 1513c <g_838>
    a479:	e9 9d 05 00 00       	jmpq   aa1b <func_2+0x231d>
    a47e:	48 c7 85 d0 f4 ff ff 	movq   $0x0,-0xb30(%rbp)
    a485:	00 00 00 00 
    a489:	48 8d 85 f0 f3 ff ff 	lea    -0xc10(%rbp),%rax
    a490:	48 89 85 d8 f4 ff ff 	mov    %rax,-0xb28(%rbp)
    a497:	48 c7 85 e0 f4 ff ff 	movq   $0x0,-0xb20(%rbp)
    a49e:	00 00 00 00 
    a4a2:	48 c7 85 50 f7 ff ff 	movq   $0x0,-0x8b0(%rbp)
    a4a9:	00 00 00 00 
    a4ad:	48 8d 05 8c ac 00 00 	lea    0xac8c(%rip),%rax        # 15140 <g_1010>
    a4b4:	48 89 85 58 f7 ff ff 	mov    %rax,-0x8a8(%rbp)
    a4bb:	48 c7 85 60 f7 ff ff 	movq   $0x0,-0x8a0(%rbp)
    a4c2:	00 00 00 00 
    a4c6:	48 8d 05 73 ac 00 00 	lea    0xac73(%rip),%rax        # 15140 <g_1010>
    a4cd:	48 89 85 68 f7 ff ff 	mov    %rax,-0x898(%rbp)
    a4d4:	48 c7 85 70 f7 ff ff 	movq   $0x0,-0x890(%rbp)
    a4db:	00 00 00 00 
    a4df:	48 8d 05 5a ac 00 00 	lea    0xac5a(%rip),%rax        # 15140 <g_1010>
    a4e6:	48 89 85 78 f7 ff ff 	mov    %rax,-0x888(%rbp)
    a4ed:	48 c7 85 80 f7 ff ff 	movq   $0x0,-0x880(%rbp)
    a4f4:	00 00 00 00 
    a4f8:	48 8d 05 41 ac 00 00 	lea    0xac41(%rip),%rax        # 15140 <g_1010>
    a4ff:	48 89 85 88 f7 ff ff 	mov    %rax,-0x878(%rbp)
    a506:	48 8d 85 10 f4 ff ff 	lea    -0xbf0(%rbp),%rax
    a50d:	48 89 85 e8 f4 ff ff 	mov    %rax,-0xb18(%rbp)
    a514:	c7 85 90 f3 ff ff 00 	movl   $0x0,-0xc70(%rbp)
    a51b:	00 00 00 
    a51e:	eb 1e                	jmp    a53e <func_2+0x1e40>
    a520:	8b 85 90 f3 ff ff    	mov    -0xc70(%rbp),%eax
    a526:	48 98                	cltq   
    a528:	48 8d 15 f9 ab 00 00 	lea    0xabf9(%rip),%rdx        # 15128 <g_621>
    a52f:	48 89 94 c5 40 f6 ff 	mov    %rdx,-0x9c0(%rbp,%rax,8)
    a536:	ff 
    a537:	83 85 90 f3 ff ff 01 	addl   $0x1,-0xc70(%rbp)
    a53e:	83 bd 90 f3 ff ff 01 	cmpl   $0x1,-0xc70(%rbp)
    a545:	7e d9                	jle    a520 <func_2+0x1e22>
    a547:	0f b6 05 ee ab 00 00 	movzbl 0xabee(%rip),%eax        # 1513c <g_838>
    a54e:	0f b6 c0             	movzbl %al,%eax
    a551:	48 98                	cltq   
    a553:	48 8d 15 fe aa 00 00 	lea    0xaafe(%rip),%rdx        # 15058 <g_177>
    a55a:	0f b6 04 10          	movzbl (%rax,%rdx,1),%eax
    a55e:	0f be c0             	movsbl %al,%eax
    a561:	be 01 00 00 00       	mov    $0x1,%esi
    a566:	89 c7                	mov    %eax,%edi
    a568:	e8 b8 b9 ff ff       	callq  5f25 <safe_div_func_uint32_t_u_u>
    a56d:	89 c2                	mov    %eax,%edx
    a56f:	48 8b 05 5a bd 00 00 	mov    0xbd5a(%rip),%rax        # 162d0 <g_1513>
    a576:	89 10                	mov    %edx,(%rax)
    a578:	0f b6 05 ba aa 00 00 	movzbl 0xaaba(%rip),%eax        # 15039 <g_74>
    a57f:	0f be d8             	movsbl %al,%ebx
    a582:	8b 85 70 f3 ff ff    	mov    -0xc90(%rbp),%eax
    a588:	44 0f bf e0          	movswl %ax,%r12d
    a58c:	0f b6 05 a9 ab 00 00 	movzbl 0xaba9(%rip),%eax        # 1513c <g_838>
    a593:	0f b6 c0             	movzbl %al,%eax
    a596:	48 98                	cltq   
    a598:	48 8d 15 b9 aa 00 00 	lea    0xaab9(%rip),%rdx        # 15058 <g_177>
    a59f:	0f b6 04 10          	movzbl (%rax,%rdx,1),%eax
    a5a3:	44 0f be e8          	movsbl %al,%r13d
    a5a7:	0f b6 05 bb aa 00 00 	movzbl 0xaabb(%rip),%eax        # 15069 <g_247>
    a5ae:	44 0f b6 f0          	movzbl %al,%r14d
    a5b2:	be 05 00 00 00       	mov    $0x5,%esi
    a5b7:	bf 01 00 00 00       	mov    $0x1,%edi
    a5bc:	e8 e0 ac ff ff       	callq  52a1 <safe_lshift_func_int8_t_s_s>
    a5c1:	0f be c0             	movsbl %al,%eax
    a5c4:	44 21 f0             	and    %r14d,%eax
    a5c7:	85 c0                	test   %eax,%eax
    a5c9:	75 7e                	jne    a649 <func_2+0x1f4b>
    a5cb:	48 8b 85 d0 f5 ff ff 	mov    -0xa30(%rbp),%rax
    a5d2:	0f bf d0             	movswl %ax,%edx
    a5d5:	48 8b 05 ec bc 00 00 	mov    0xbcec(%rip),%rax        # 162c8 <g_1468>
    a5dc:	0f b7 00             	movzwl (%rax),%eax
    a5df:	66 85 c0             	test   %ax,%ax
    a5e2:	74 38                	je     a61c <func_2+0x1f1e>
    a5e4:	48 8b 05 8d ab 00 00 	mov    0xab8d(%rip),%rax        # 15178 <g_1252+0x8>
    a5eb:	48 85 c0             	test   %rax,%rax
    a5ee:	75 0a                	jne    a5fa <func_2+0x1efc>
    a5f0:	8b 85 38 f3 ff ff    	mov    -0xcc8(%rbp),%eax
    a5f6:	85 c0                	test   %eax,%eax
    a5f8:	74 07                	je     a601 <func_2+0x1f03>
    a5fa:	b8 01 00 00 00       	mov    $0x1,%eax
    a5ff:	eb 05                	jmp    a606 <func_2+0x1f08>
    a601:	b8 00 00 00 00       	mov    $0x0,%eax
    a606:	48 63 c8             	movslq %eax,%rcx
    a609:	48 8b 85 d8 f4 ff ff 	mov    -0xb28(%rbp),%rax
    a610:	48 89 08             	mov    %rcx,(%rax)
    a613:	8b 85 48 f3 ff ff    	mov    -0xcb8(%rbp),%eax
    a619:	83 f8 fd             	cmp    $0xfffffffd,%eax
    a61c:	48 8b 85 10 f3 ff ff 	mov    -0xcf0(%rbp),%rax
    a623:	8b 00                	mov    (%rax),%eax
    a625:	85 c0                	test   %eax,%eax
    a627:	0f b7 05 66 ab 00 00 	movzwl 0xab66(%rip),%eax        # 15194 <g_1792>
    a62e:	66 85 c0             	test   %ax,%ax
    a631:	74 07                	je     a63a <func_2+0x1f3c>
    a633:	b8 01 00 00 00       	mov    $0x1,%eax
    a638:	eb 05                	jmp    a63f <func_2+0x1f41>
    a63a:	b8 00 00 00 00       	mov    $0x0,%eax
    a63f:	98                   	cwtl   
    a640:	89 d6                	mov    %edx,%esi
    a642:	89 c7                	mov    %eax,%edi
    a644:	e8 6a ad ff ff       	callq  53b3 <safe_add_func_int16_t_s_s>
    a649:	b8 01 00 00 00       	mov    $0x1,%eax
    a64e:	44 89 ee             	mov    %r13d,%esi
    a651:	89 c7                	mov    %eax,%edi
    a653:	e8 78 b8 ff ff       	callq  5ed0 <safe_sub_func_uint32_t_u_u>
    a658:	98                   	cwtl   
    a659:	83 e0 06             	and    $0x6,%eax
    a65c:	44 89 e6             	mov    %r12d,%esi
    a65f:	89 c7                	mov    %eax,%edi
    a661:	e8 b0 ad ff ff       	callq  5416 <safe_mod_func_int16_t_s_s>
    a666:	98                   	cwtl   
    a667:	31 85 7c f3 ff ff    	xor    %eax,-0xc84(%rbp)
    a66d:	0f bf 85 30 f3 ff ff 	movswl -0xcd0(%rbp),%eax
    a674:	23 85 7c f3 ff ff    	and    -0xc84(%rbp),%eax
    a67a:	83 f8 04             	cmp    $0x4,%eax
    a67d:	0f 97 c0             	seta   %al
    a680:	0f b6 d0             	movzbl %al,%edx
    a683:	8b 85 50 f3 ff ff    	mov    -0xcb0(%rbp),%eax
    a689:	89 d1                	mov    %edx,%ecx
    a68b:	09 c1                	or     %eax,%ecx
    a68d:	48 8d 85 40 f3 ff ff 	lea    -0xcc0(%rbp),%rax
    a694:	48 89 85 10 f4 ff ff 	mov    %rax,-0xbf0(%rbp)
    a69b:	48 8b 85 10 f4 ff ff 	mov    -0xbf0(%rbp),%rax
    a6a2:	4c 8b 25 37 bc 00 00 	mov    0xbc37(%rip),%r12        # 162e0 <g_1794>
    a6a9:	89 da                	mov    %ebx,%edx
    a6ab:	89 ce                	mov    %ecx,%esi
    a6ad:	48 89 c7             	mov    %rax,%rdi
    a6b0:	e8 aa 11 00 00       	callq  b85f <func_7>
    a6b5:	49 89 04 24          	mov    %rax,(%r12)
    a6b9:	0f b6 05 7c aa 00 00 	movzbl 0xaa7c(%rip),%eax        # 1513c <g_838>
    a6c0:	0f b6 c0             	movzbl %al,%eax
    a6c3:	48 98                	cltq   
    a6c5:	48 8d 15 8c a9 00 00 	lea    0xa98c(%rip),%rdx        # 15058 <g_177>
    a6cc:	0f b6 04 10          	movzbl (%rax,%rdx,1),%eax
    a6d0:	44 0f be e0          	movsbl %al,%r12d
    a6d4:	0f b7 05 4d aa 00 00 	movzwl 0xaa4d(%rip),%eax        # 15128 <g_621>
    a6db:	0f bf d8             	movswl %ax,%ebx
    a6de:	0f b6 05 57 aa 00 00 	movzbl 0xaa57(%rip),%eax        # 1513c <g_838>
    a6e5:	0f b6 c0             	movzbl %al,%eax
    a6e8:	48 98                	cltq   
    a6ea:	48 8d 15 67 a9 00 00 	lea    0xa967(%rip),%rdx        # 15058 <g_177>
    a6f1:	0f b6 04 10          	movzbl (%rax,%rdx,1),%eax
    a6f5:	44 0f b6 f0          	movzbl %al,%r14d
    a6f9:	0f b6 05 3c aa 00 00 	movzbl 0xaa3c(%rip),%eax        # 1513c <g_838>
    a700:	0f b6 c0             	movzbl %al,%eax
    a703:	48 98                	cltq   
    a705:	48 8d 15 4c a9 00 00 	lea    0xa94c(%rip),%rdx        # 15058 <g_177>
    a70c:	0f b6 04 10          	movzbl (%rax,%rdx,1),%eax
    a710:	44 0f be e8          	movsbl %al,%r13d
    a714:	83 bd 80 f3 ff ff 00 	cmpl   $0x0,-0xc80(%rbp)
    a71b:	0f 85 d1 00 00 00    	jne    a7f2 <func_2+0x20f4>
    a721:	48 8b 05 40 b0 00 00 	mov    0xb040(%rip),%rax        # 15768 <g_498>
    a728:	0f b6 00             	movzbl (%rax),%eax
    a72b:	0f b6 d0             	movzbl %al,%edx
    a72e:	48 8b 05 13 b0 00 00 	mov    0xb013(%rip),%rax        # 15748 <g_71>
    a735:	0f b6 00             	movzbl (%rax),%eax
    a738:	48 8b 85 d8 f4 ff ff 	mov    -0xb28(%rbp),%rax
    a73f:	48 8b 00             	mov    (%rax),%rax
    a742:	48 89 c1             	mov    %rax,%rcx
    a745:	48 b8 3c e0 44 0a ef 	movabs $0xa11950ef0a44e03c,%rax
    a74c:	50 19 a1 
    a74f:	48 31 c8             	xor    %rcx,%rax
    a752:	48 89 c1             	mov    %rax,%rcx
    a755:	48 8b 85 d8 f4 ff ff 	mov    -0xb28(%rbp),%rax
    a75c:	48 89 08             	mov    %rcx,(%rax)
    a75f:	48 8b 85 d8 f4 ff ff 	mov    -0xb28(%rbp),%rax
    a766:	48 8b 08             	mov    (%rax),%rcx
    a769:	8b 85 5c f5 ff ff    	mov    -0xaa4(%rbp),%eax
    a76f:	21 c8                	and    %ecx,%eax
    a771:	89 85 5c f5 ff ff    	mov    %eax,-0xaa4(%rbp)
    a777:	8b 8d 5c f5 ff ff    	mov    -0xaa4(%rbp),%ecx
    a77d:	8b 85 40 f3 ff ff    	mov    -0xcc0(%rbp),%eax
    a783:	21 c8                	and    %ecx,%eax
    a785:	89 85 40 f3 ff ff    	mov    %eax,-0xcc0(%rbp)
    a78b:	8b 85 40 f3 ff ff    	mov    -0xcc0(%rbp),%eax
    a791:	85 c0                	test   %eax,%eax
    a793:	75 1b                	jne    a7b0 <func_2+0x20b2>
    a795:	0f b6 05 a0 a9 00 00 	movzbl 0xa9a0(%rip),%eax        # 1513c <g_838>
    a79c:	0f b6 c0             	movzbl %al,%eax
    a79f:	48 98                	cltq   
    a7a1:	48 8d 0d b0 a8 00 00 	lea    0xa8b0(%rip),%rcx        # 15058 <g_177>
    a7a8:	0f b6 04 08          	movzbl (%rax,%rcx,1),%eax
    a7ac:	84 c0                	test   %al,%al
    a7ae:	74 07                	je     a7b7 <func_2+0x20b9>
    a7b0:	b8 01 00 00 00       	mov    $0x1,%eax
    a7b5:	eb 05                	jmp    a7bc <func_2+0x20be>
    a7b7:	b8 00 00 00 00       	mov    $0x0,%eax
    a7bc:	0f b6 c0             	movzbl %al,%eax
    a7bf:	89 d6                	mov    %edx,%esi
    a7c1:	89 c7                	mov    %eax,%edi
    a7c3:	e8 84 b4 ff ff       	callq  5c4c <safe_lshift_func_uint8_t_u_u>
    a7c8:	0f b6 d0             	movzbl %al,%edx
    a7cb:	48 8d 85 f0 f3 ff ff 	lea    -0xc10(%rbp),%rax
    a7d2:	48 39 85 d8 f4 ff ff 	cmp    %rax,-0xb28(%rbp)
    a7d9:	0f 95 c0             	setne  %al
    a7dc:	0f b6 c0             	movzbl %al,%eax
    a7df:	89 d6                	mov    %edx,%esi
    a7e1:	89 c7                	mov    %eax,%edi
    a7e3:	e8 d0 b6 ff ff       	callq  5eb8 <safe_add_func_uint32_t_u_u>
    a7e8:	8b 95 6c f3 ff ff    	mov    -0xc94(%rbp),%edx
    a7ee:	39 d0                	cmp    %edx,%eax
    a7f0:	73 07                	jae    a7f9 <func_2+0x20fb>
    a7f2:	b8 01 00 00 00       	mov    $0x1,%eax
    a7f7:	eb 05                	jmp    a7fe <func_2+0x2100>
    a7f9:	b8 00 00 00 00       	mov    $0x0,%eax
    a7fe:	89 85 34 f3 ff ff    	mov    %eax,-0xccc(%rbp)
    a804:	8b 85 34 f3 ff ff    	mov    -0xccc(%rbp),%eax
    a80a:	44 89 f2             	mov    %r14d,%edx
    a80d:	44 89 ee             	mov    %r13d,%esi
    a810:	89 c7                	mov    %eax,%edi
    a812:	e8 7b 1f 00 00       	callq  c792 <func_77>
    a817:	44 89 e2             	mov    %r12d,%edx
    a81a:	89 de                	mov    %ebx,%esi
    a81c:	48 89 c7             	mov    %rax,%rdi
    a81f:	e8 3b 10 00 00       	callq  b85f <func_7>
    a824:	48 89 85 18 f3 ff ff 	mov    %rax,-0xce8(%rbp)
    a82b:	48 8b 95 18 f3 ff ff 	mov    -0xce8(%rbp),%rdx
    a832:	48 8b 85 e8 f4 ff ff 	mov    -0xb18(%rbp),%rax
    a839:	48 89 10             	mov    %rdx,(%rax)
    a83c:	48 c7 85 f0 f3 ff ff 	movq   $0x1,-0xc10(%rbp)
    a843:	01 00 00 00 
    a847:	e9 ac 01 00 00       	jmpq   a9f8 <func_2+0x22fa>
    a84c:	48 8d 05 0d af 00 00 	lea    0xaf0d(%rip),%rax        # 15760 <g_254>
    a853:	48 89 85 f0 f4 ff ff 	mov    %rax,-0xb10(%rbp)
    a85a:	48 8b 85 78 f4 ff ff 	mov    -0xb88(%rbp),%rax
    a861:	48 8b 10             	mov    (%rax),%rdx
    a864:	48 8b 85 78 f4 ff ff 	mov    -0xb88(%rbp),%rax
    a86b:	48 89 10             	mov    %rdx,(%rax)
    a86e:	8b 85 50 f3 ff ff    	mov    -0xcb0(%rbp),%eax
    a874:	48 63 d8             	movslq %eax,%rbx
    a877:	8b 85 38 f3 ff ff    	mov    -0xcc8(%rbp),%eax
    a87d:	44 0f be e0          	movsbl %al,%r12d
    a881:	48 8b 85 b8 f6 ff ff 	mov    -0x948(%rbp),%rax
    a888:	48 85 c0             	test   %rax,%rax
    a88b:	0f 94 c0             	sete   %al
    a88e:	0f b6 c0             	movzbl %al,%eax
    a891:	be 06 00 00 00       	mov    $0x6,%esi
    a896:	89 c7                	mov    %eax,%edi
    a898:	e8 21 b5 ff ff       	callq  5dbe <safe_lshift_func_uint16_t_u_s>
    a89d:	f7 d0                	not    %eax
    a89f:	41 89 c6             	mov    %eax,%r14d
    a8a2:	48 8b 85 10 f4 ff ff 	mov    -0xbf0(%rbp),%rax
    a8a9:	8b 00                	mov    (%rax),%eax
    a8ab:	4c 63 e8             	movslq %eax,%r13
    a8ae:	48 8b 95 f0 f3 ff ff 	mov    -0xc10(%rbp),%rdx
    a8b5:	48 8b 85 f0 f3 ff ff 	mov    -0xc10(%rbp),%rax
    a8bc:	48 01 d2             	add    %rdx,%rdx
    a8bf:	48 01 d0             	add    %rdx,%rax
    a8c2:	48 8d 14 85 00 00 00 	lea    0x0(,%rax,4),%rdx
    a8c9:	00 
    a8ca:	48 8d 05 2f a8 00 00 	lea    0xa82f(%rip),%rax        # 15100 <g_380>
    a8d1:	8b 04 02             	mov    (%rdx,%rax,1),%eax
    a8d4:	85 c0                	test   %eax,%eax
    a8d6:	75 3a                	jne    a912 <func_2+0x2214>
    a8d8:	48 8b 85 f0 f3 ff ff 	mov    -0xc10(%rbp),%rax
    a8df:	8b 84 85 40 f5 ff ff 	mov    -0xac0(%rbp,%rax,4),%eax
    a8e6:	0f b7 d0             	movzwl %ax,%edx
    a8e9:	48 8b 85 e0 f3 ff ff 	mov    -0xc20(%rbp),%rax
    a8f0:	0f b7 08             	movzwl (%rax),%ecx
    a8f3:	48 8b 85 e0 f3 ff ff 	mov    -0xc20(%rbp),%rax
    a8fa:	83 f1 01             	xor    $0x1,%ecx
    a8fd:	66 89 08             	mov    %cx,(%rax)
    a900:	0f b7 00             	movzwl (%rax),%eax
    a903:	0f b7 c0             	movzwl %ax,%eax
    a906:	89 d6                	mov    %edx,%esi
    a908:	89 c7                	mov    %eax,%edi
    a90a:	e8 10 b4 ff ff       	callq  5d1f <safe_sub_func_uint16_t_u_u>
    a90f:	66 85 c0             	test   %ax,%ax
    a912:	4c 89 ee             	mov    %r13,%rsi
    a915:	48 bf 1a 15 84 10 5b 	movabs $0x8c8aa85b1084151a,%rdi
    a91c:	a8 8a 8c 
    a91f:	e8 8b b7 ff ff       	callq  60af <safe_div_func_uint64_t_u_u>
    a924:	44 89 f2             	mov    %r14d,%edx
    a927:	09 c2                	or     %eax,%edx
    a929:	48 8b 85 98 f4 ff ff 	mov    -0xb68(%rbp),%rax
    a930:	88 10                	mov    %dl,(%rax)
    a932:	48 8b 05 4f b7 00 00 	mov    0xb74f(%rip),%rax        # 16088 <g_792>
    a939:	8b 00                	mov    (%rax),%eax
    a93b:	89 c2                	mov    %eax,%edx
    a93d:	0f b7 05 5a a7 00 00 	movzwl 0xa75a(%rip),%eax        # 1509e <g_298+0x1e>
    a944:	21 d0                	and    %edx,%eax
    a946:	98                   	cwtl   
    a947:	be 0a 00 00 00       	mov    $0xa,%esi
    a94c:	89 c7                	mov    %eax,%edi
    a94e:	e8 d7 ab ff ff       	callq  552a <safe_rshift_func_int16_t_s_s>
    a953:	0f be c0             	movsbl %al,%eax
    a956:	44 89 e6             	mov    %r12d,%esi
    a959:	89 c7                	mov    %eax,%edi
    a95b:	e8 b2 a8 ff ff       	callq  5212 <safe_mul_func_int8_t_s_s>
    a960:	84 c0                	test   %al,%al
    a962:	0f 94 c0             	sete   %al
    a965:	0f b6 c0             	movzbl %al,%eax
    a968:	48 89 de             	mov    %rbx,%rsi
    a96b:	48 89 c7             	mov    %rax,%rdi
    a96e:	e8 41 b0 ff ff       	callq  59b4 <safe_mod_func_int64_t_s_s>
    a973:	48 8b 95 10 f4 ff ff 	mov    -0xbf0(%rbp),%rdx
    a97a:	8b 12                	mov    (%rdx),%edx
    a97c:	48 63 d2             	movslq %edx,%rdx
    a97f:	48 39 d0             	cmp    %rdx,%rax
    a982:	be 0b 00 00 00       	mov    $0xb,%esi
    a987:	bf 00 00 00 00       	mov    $0x0,%edi
    a98c:	e8 01 ab ff ff       	callq  5492 <safe_lshift_func_int16_t_s_s>
    a991:	0f bf d0             	movswl %ax,%edx
    a994:	48 8b 85 10 f3 ff ff 	mov    -0xcf0(%rbp),%rax
    a99b:	89 10                	mov    %edx,(%rax)
    a99d:	48 8b 85 e8 f4 ff ff 	mov    -0xb18(%rbp),%rax
    a9a4:	48 8d 95 50 f3 ff ff 	lea    -0xcb0(%rbp),%rdx
    a9ab:	48 89 10             	mov    %rdx,(%rax)
    a9ae:	48 8b 85 e8 f4 ff ff 	mov    -0xb18(%rbp),%rax
    a9b5:	48 8b 10             	mov    (%rax),%rdx
    a9b8:	48 8b 85 f0 f4 ff ff 	mov    -0xb10(%rbp),%rax
    a9bf:	48 89 10             	mov    %rdx,(%rax)
    a9c2:	48 8b 05 17 b9 00 00 	mov    0xb917(%rip),%rax        # 162e0 <g_1794>
    a9c9:	48 8b 95 f0 f4 ff ff 	mov    -0xb10(%rbp),%rdx
    a9d0:	48 8b 12             	mov    (%rdx),%rdx
    a9d3:	48 89 10             	mov    %rdx,(%rax)
    a9d6:	48 8b 85 f0 f4 ff ff 	mov    -0xb10(%rbp),%rax
    a9dd:	48 8b 00             	mov    (%rax),%rax
    a9e0:	8b 00                	mov    (%rax),%eax
    a9e2:	85 c0                	test   %eax,%eax
    a9e4:	75 24                	jne    aa0a <func_2+0x230c>
    a9e6:	48 8b 85 f0 f3 ff ff 	mov    -0xc10(%rbp),%rax
    a9ed:	48 83 e8 01          	sub    $0x1,%rax
    a9f1:	48 89 85 f0 f3 ff ff 	mov    %rax,-0xc10(%rbp)
    a9f8:	48 8b 85 f0 f3 ff ff 	mov    -0xc10(%rbp),%rax
    a9ff:	48 85 c0             	test   %rax,%rax
    aa02:	0f 89 44 fe ff ff    	jns    a84c <func_2+0x214e>
    aa08:	eb 01                	jmp    aa0b <func_2+0x230d>
    aa0a:	90                   	nop
    aa0b:	0f b6 05 2a a7 00 00 	movzbl 0xa72a(%rip),%eax        # 1513c <g_838>
    aa12:	83 c0 01             	add    $0x1,%eax
    aa15:	88 05 21 a7 00 00    	mov    %al,0xa721(%rip)        # 1513c <g_838>
    aa1b:	0f b6 05 1a a7 00 00 	movzbl 0xa71a(%rip),%eax        # 1513c <g_838>
    aa22:	3c 02                	cmp    $0x2,%al
    aa24:	0f 86 54 fa ff ff    	jbe    a47e <func_2+0x1d80>
    aa2a:	48 c7 05 d3 c2 00 00 	movq   $0x0,0xc2d3(%rip)        # 16d08 <g_99>
    aa31:	00 00 00 00 
    aa35:	e9 5b 0d 00 00       	jmpq   b795 <func_2+0x3097>
    aa3a:	c7 85 54 f3 ff ff 3e 	movl   $0x6992c3e,-0xcac(%rbp)
    aa41:	2c 99 06 
    aa44:	48 8d 85 54 f3 ff ff 	lea    -0xcac(%rbp),%rax
    aa4b:	48 89 85 28 f4 ff ff 	mov    %rax,-0xbd8(%rbp)
    aa52:	48 8d 05 d7 a6 00 00 	lea    0xa6d7(%rip),%rax        # 15130 <g_624>
    aa59:	48 89 85 30 f4 ff ff 	mov    %rax,-0xbd0(%rbp)
    aa60:	48 8b 05 a1 c2 00 00 	mov    0xc2a1(%rip),%rax        # 16d08 <g_99>
    aa67:	8b 84 85 40 f5 ff ff 	mov    -0xac0(%rbp,%rax,4),%eax
    aa6e:	85 c0                	test   %eax,%eax
    aa70:	0f 85 32 0d 00 00    	jne    b7a8 <func_2+0x30aa>
    aa76:	66 c7 05 d5 a5 00 00 	movw   $0x0,0xa5d5(%rip)        # 15054 <g_141>
    aa7d:	00 00 
    aa7f:	e9 eb 0c 00 00       	jmpq   b76f <func_2+0x3071>
    aa84:	48 c7 85 38 f4 ff ff 	movq   $0x0,-0xbc8(%rbp)
    aa8b:	00 00 00 00 
    aa8f:	48 8d 05 02 b6 00 00 	lea    0xb602(%rip),%rax        # 16098 <g_1017>
    aa96:	48 89 85 40 f4 ff ff 	mov    %rax,-0xbc0(%rbp)
    aa9d:	48 8d 85 e8 f3 ff ff 	lea    -0xc18(%rbp),%rax
    aaa4:	48 89 85 48 f4 ff ff 	mov    %rax,-0xbb8(%rbp)
    aaab:	c7 85 58 f3 ff ff f6 	movl   $0xfffffff6,-0xca8(%rbp)
    aab2:	ff ff ff 
    aab5:	48 8d 85 00 f4 ff ff 	lea    -0xc00(%rbp),%rax
    aabc:	48 89 85 50 f4 ff ff 	mov    %rax,-0xbb0(%rbp)
    aac3:	c7 85 5c f3 ff ff 00 	movl   $0x0,-0xca4(%rbp)
    aaca:	00 00 00 
    aacd:	eb 1b                	jmp    aaea <func_2+0x23ec>
    aacf:	8b 85 5c f3 ff ff    	mov    -0xca4(%rbp),%eax
    aad5:	48 98                	cltq   
    aad7:	48 c7 84 c5 38 f5 ff 	movq   $0x0,-0xac8(%rbp,%rax,8)
    aade:	ff 00 00 00 00 
    aae3:	83 85 5c f3 ff ff 01 	addl   $0x1,-0xca4(%rbp)
    aaea:	83 bd 5c f3 ff ff 00 	cmpl   $0x0,-0xca4(%rbp)
    aaf1:	7e dc                	jle    aacf <func_2+0x23d1>
    aaf3:	48 8b 05 6e ac 00 00 	mov    0xac6e(%rip),%rax        # 15768 <g_498>
    aafa:	0f b6 00             	movzbl (%rax),%eax
    aafd:	0f b6 d8             	movzbl %al,%ebx
    ab00:	0f b7 05 4d a5 00 00 	movzwl 0xa54d(%rip),%eax        # 15054 <g_141>
    ab07:	0f b7 c0             	movzwl %ax,%eax
    ab0a:	48 98                	cltq   
    ab0c:	48 8d 15 45 a5 00 00 	lea    0xa545(%rip),%rdx        # 15058 <g_177>
    ab13:	0f b6 04 10          	movzbl (%rax,%rdx,1),%eax
    ab17:	44 0f be e0          	movsbl %al,%r12d
    ab1b:	8b 85 78 f3 ff ff    	mov    -0xc88(%rbp),%eax
    ab21:	44 0f b7 e8          	movzwl %ax,%r13d
    ab25:	48 8b 85 10 f4 ff ff 	mov    -0xbf0(%rbp),%rax
    ab2c:	8b 00                	mov    (%rax),%eax
    ab2e:	44 0f bf f0          	movswl %ax,%r14d
    ab32:	8b 85 54 f3 ff ff    	mov    -0xcac(%rbp),%eax
    ab38:	98                   	cwtl   
    ab39:	89 c6                	mov    %eax,%esi
    ab3b:	bf 01 00 00 00       	mov    $0x1,%edi
    ab40:	e8 d1 a8 ff ff       	callq  5416 <safe_mod_func_int16_t_s_s>
    ab45:	89 c2                	mov    %eax,%edx
    ab47:	48 8b 05 7a b7 00 00 	mov    0xb77a(%rip),%rax        # 162c8 <g_1468>
    ab4e:	0f b7 08             	movzwl (%rax),%ecx
    ab51:	48 8b 05 70 b7 00 00 	mov    0xb770(%rip),%rax        # 162c8 <g_1468>
    ab58:	21 ca                	and    %ecx,%edx
    ab5a:	66 89 10             	mov    %dx,(%rax)
    ab5d:	0f b7 00             	movzwl (%rax),%eax
    ab60:	98                   	cwtl   
    ab61:	89 c7                	mov    %eax,%edi
    ab63:	e8 35 a8 ff ff       	callq  539d <safe_unary_minus_func_int16_t_s>
    ab68:	66 89 05 f1 a5 00 00 	mov    %ax,0xa5f1(%rip)        # 15160 <g_1140>
    ab6f:	0f b7 05 ea a5 00 00 	movzwl 0xa5ea(%rip),%eax        # 15160 <g_1140>
    ab76:	98                   	cwtl   
    ab77:	44 89 f6             	mov    %r14d,%esi
    ab7a:	89 c7                	mov    %eax,%edi
    ab7c:	e8 32 a8 ff ff       	callq  53b3 <safe_add_func_int16_t_s_s>
    ab81:	89 c2                	mov    %eax,%edx
    ab83:	48 8b 05 fe b4 00 00 	mov    0xb4fe(%rip),%rax        # 16088 <g_792>
    ab8a:	8b 00                	mov    (%rax),%eax
    ab8c:	21 d0                	and    %edx,%eax
    ab8e:	0f b7 c0             	movzwl %ax,%eax
    ab91:	44 89 ee             	mov    %r13d,%esi
    ab94:	89 c7                	mov    %eax,%edi
    ab96:	e8 c1 b1 ff ff       	callq  5d5c <safe_mod_func_uint16_t_u_u>
    ab9b:	0f b7 05 b2 a4 00 00 	movzwl 0xa4b2(%rip),%eax        # 15054 <g_141>
    aba2:	0f b7 c0             	movzwl %ax,%eax
    aba5:	48 98                	cltq   
    aba7:	48 8d 15 aa a4 00 00 	lea    0xa4aa(%rip),%rdx        # 15058 <g_177>
    abae:	0f b6 04 10          	movzbl (%rax,%rdx,1),%eax
    abb2:	3c 01                	cmp    $0x1,%al
    abb4:	0f 95 c0             	setne  %al
    abb7:	0f b6 d0             	movzbl %al,%edx
    abba:	0f b7 05 93 a4 00 00 	movzwl 0xa493(%rip),%eax        # 15054 <g_141>
    abc1:	0f b7 c0             	movzwl %ax,%eax
    abc4:	48 98                	cltq   
    abc6:	48 8d 0d 8b a4 00 00 	lea    0xa48b(%rip),%rcx        # 15058 <g_177>
    abcd:	0f b6 04 08          	movzbl (%rax,%rcx,1),%eax
    abd1:	66 98                	cbtw   
    abd3:	09 d0                	or     %edx,%eax
    abd5:	98                   	cwtl   
    abd6:	44 89 e6             	mov    %r12d,%esi
    abd9:	89 c7                	mov    %eax,%edi
    abdb:	e8 83 a9 ff ff       	callq  5563 <safe_rshift_func_int16_t_s_u>
    abe0:	be 04 00 00 00       	mov    $0x4,%esi
    abe5:	bf 00 00 00 00       	mov    $0x0,%edi
    abea:	e8 ff a6 ff ff       	callq  52ee <safe_lshift_func_int8_t_s_u>
    abef:	84 c0                	test   %al,%al
    abf1:	75 14                	jne    ac07 <func_2+0x2509>
    abf3:	48 8b 85 10 f4 ff ff 	mov    -0xbf0(%rbp),%rax
    abfa:	8b 00                	mov    (%rax),%eax
    abfc:	85 c0                	test   %eax,%eax
    abfe:	74 07                	je     ac07 <func_2+0x2509>
    ac00:	b8 01 00 00 00       	mov    $0x1,%eax
    ac05:	eb 05                	jmp    ac0c <func_2+0x250e>
    ac07:	b8 00 00 00 00       	mov    $0x0,%eax
    ac0c:	3d fc ff 00 00       	cmp    $0xfffc,%eax
    ac11:	0f 97 c0             	seta   %al
    ac14:	0f b6 c0             	movzbl %al,%eax
    ac17:	66 c7 05 c4 a4 00 00 	movw   $0xd7f9,0xa4c4(%rip)        # 150e4 <g_327>
    ac1e:	f9 d7 
    ac20:	0f b7 0d bd a4 00 00 	movzwl 0xa4bd(%rip),%ecx        # 150e4 <g_327>
    ac27:	48 8b 15 da c0 00 00 	mov    0xc0da(%rip),%rdx        # 16d08 <g_99>
    ac2e:	0f b7 c9             	movzwl %cx,%ecx
    ac31:	89 8c 95 40 f5 ff ff 	mov    %ecx,-0xac0(%rbp,%rdx,4)
    ac38:	89 da                	mov    %ebx,%edx
    ac3a:	89 c6                	mov    %eax,%esi
    ac3c:	bf 00 00 00 00       	mov    $0x0,%edi
    ac41:	e8 4c 1b 00 00       	callq  c792 <func_77>
    ac46:	48 89 85 28 f4 ff ff 	mov    %rax,-0xbd8(%rbp)
    ac4d:	48 83 bd 30 f4 ff ff 	cmpq   $0x0,-0xbd0(%rbp)
    ac54:	00 
    ac55:	75 4f                	jne    aca6 <func_2+0x25a8>
    ac57:	0f b7 05 f6 a3 00 00 	movzwl 0xa3f6(%rip),%eax        # 15054 <g_141>
    ac5e:	0f b7 c0             	movzwl %ax,%eax
    ac61:	48 98                	cltq   
    ac63:	48 8d 15 ee a3 00 00 	lea    0xa3ee(%rip),%rdx        # 15058 <g_177>
    ac6a:	0f b6 04 10          	movzbl (%rax,%rdx,1),%eax
    ac6e:	66 98                	cbtw   
    ac70:	0f b7 d0             	movzwl %ax,%edx
    ac73:	48 8b 85 28 f4 ff ff 	mov    -0xbd8(%rbp),%rax
    ac7a:	8b 00                	mov    (%rax),%eax
    ac7c:	0f b7 c0             	movzwl %ax,%eax
    ac7f:	89 d6                	mov    %edx,%esi
    ac81:	89 c7                	mov    %eax,%edi
    ac83:	e8 d4 b0 ff ff       	callq  5d5c <safe_mod_func_uint16_t_u_u>
    ac88:	89 c2                	mov    %eax,%edx
    ac8a:	48 8b 05 07 ad 00 00 	mov    0xad07(%rip),%rax        # 15998 <g_639>
    ac91:	0f b7 d2             	movzwl %dx,%edx
    ac94:	48 89 10             	mov    %rdx,(%rax)
    ac97:	48 8b 00             	mov    (%rax),%rax
    ac9a:	48 85 c0             	test   %rax,%rax
    ac9d:	74 07                	je     aca6 <func_2+0x25a8>
    ac9f:	b9 01 00 00 00       	mov    $0x1,%ecx
    aca4:	eb 05                	jmp    acab <func_2+0x25ad>
    aca6:	b9 00 00 00 00       	mov    $0x0,%ecx
    acab:	48 8b 85 08 f4 ff ff 	mov    -0xbf8(%rbp),%rax
    acb2:	48 8d 15 f7 ac 00 00 	lea    0xacf7(%rip),%rdx        # 159b0 <g_637>
    acb9:	48 39 d0             	cmp    %rdx,%rax
    acbc:	0f 94 c0             	sete   %al
    acbf:	0f b6 c0             	movzbl %al,%eax
    acc2:	39 c1                	cmp    %eax,%ecx
    acc4:	0f 9c c0             	setl   %al
    acc7:	0f b6 d0             	movzbl %al,%edx
    acca:	48 8b 05 77 aa 00 00 	mov    0xaa77(%rip),%rax        # 15748 <g_71>
    acd1:	0f b6 00             	movzbl (%rax),%eax
    acd4:	0f be c0             	movsbl %al,%eax
    acd7:	89 d6                	mov    %edx,%esi
    acd9:	89 c7                	mov    %eax,%edi
    acdb:	e8 8c a6 ff ff       	callq  536c <safe_rshift_func_int8_t_s_u>
    ace0:	48 0f be c0          	movsbq %al,%rax
    ace4:	48 8b 15 85 a4 00 00 	mov    0xa485(%rip),%rdx        # 15170 <g_1252>
    aceb:	48 89 c6             	mov    %rax,%rsi
    acee:	48 89 d7             	mov    %rdx,%rdi
    acf1:	e8 01 ad ff ff       	callq  59f7 <safe_div_func_int64_t_s_s>
    acf6:	0f b7 05 57 a3 00 00 	movzwl 0xa357(%rip),%eax        # 15054 <g_141>
    acfd:	0f b7 c0             	movzwl %ax,%eax
    ad00:	48 98                	cltq   
    ad02:	48 8d 15 4f a3 00 00 	lea    0xa34f(%rip),%rdx        # 15058 <g_177>
    ad09:	0f b6 04 10          	movzbl (%rax,%rdx,1),%eax
    ad0d:	84 c0                	test   %al,%al
    ad0f:	0f 84 db 04 00 00    	je     b1f0 <func_2+0x2af2>
    ad15:	c7 85 a8 f3 ff ff ff 	movl   $0xffffffff,-0xc58(%rbp)
    ad1c:	ff ff ff 
    ad1f:	48 8d 05 2e 63 00 00 	lea    0x632e(%rip),%rax        # 11054 <g_197>
    ad26:	48 89 85 18 f4 ff ff 	mov    %rax,-0xbe8(%rbp)
    ad2d:	48 c7 85 b0 f4 ff ff 	movq   $0x0,-0xb50(%rbp)
    ad34:	00 00 00 00 
    ad38:	48 8d 05 f1 63 00 00 	lea    0x63f1(%rip),%rax        # 11130 <g_1874>
    ad3f:	48 89 85 20 f4 ff ff 	mov    %rax,-0xbe0(%rbp)
    ad46:	48 8d 85 20 f4 ff ff 	lea    -0xbe0(%rbp),%rax
    ad4d:	48 89 85 b8 f4 ff ff 	mov    %rax,-0xb48(%rbp)
    ad54:	48 8d 85 d8 f3 ff ff 	lea    -0xc28(%rbp),%rax
    ad5b:	48 89 85 c0 f4 ff ff 	mov    %rax,-0xb40(%rbp)
    ad62:	48 8d 85 44 f3 ff ff 	lea    -0xcbc(%rbp),%rax
    ad69:	48 89 85 50 f7 ff ff 	mov    %rax,-0x8b0(%rbp)
    ad70:	48 8d 85 3c f3 ff ff 	lea    -0xcc4(%rbp),%rax
    ad77:	48 89 85 58 f7 ff ff 	mov    %rax,-0x8a8(%rbp)
    ad7e:	48 c7 85 60 f7 ff ff 	movq   $0x0,-0x8a0(%rbp)
    ad85:	00 00 00 00 
    ad89:	48 8d 85 44 f3 ff ff 	lea    -0xcbc(%rbp),%rax
    ad90:	48 89 85 68 f7 ff ff 	mov    %rax,-0x898(%rbp)
    ad97:	48 8d 85 3c f3 ff ff 	lea    -0xcc4(%rbp),%rax
    ad9e:	48 89 85 70 f7 ff ff 	mov    %rax,-0x890(%rbp)
    ada5:	48 8d 85 40 f5 ff ff 	lea    -0xac0(%rbp),%rax
    adac:	48 83 c0 04          	add    $0x4,%rax
    adb0:	48 89 85 78 f7 ff ff 	mov    %rax,-0x888(%rbp)
    adb7:	48 8b 15 4a bf 00 00 	mov    0xbf4a(%rip),%rdx        # 16d08 <g_99>
    adbe:	48 8d 85 40 f5 ff ff 	lea    -0xac0(%rbp),%rax
    adc5:	48 c1 e2 02          	shl    $0x2,%rdx
    adc9:	48 01 d0             	add    %rdx,%rax
    adcc:	48 89 85 80 f7 ff ff 	mov    %rax,-0x880(%rbp)
    add3:	48 8b 15 2e bf 00 00 	mov    0xbf2e(%rip),%rdx        # 16d08 <g_99>
    adda:	48 8d 85 40 f5 ff ff 	lea    -0xac0(%rbp),%rax
    ade1:	48 c1 e2 02          	shl    $0x2,%rdx
    ade5:	48 01 d0             	add    %rdx,%rax
    ade8:	48 89 85 88 f7 ff ff 	mov    %rax,-0x878(%rbp)
    adef:	48 c7 85 90 f7 ff ff 	movq   $0x0,-0x870(%rbp)
    adf6:	00 00 00 00 
    adfa:	48 8b 15 07 bf 00 00 	mov    0xbf07(%rip),%rdx        # 16d08 <g_99>
    ae01:	48 8d 85 40 f5 ff ff 	lea    -0xac0(%rbp),%rax
    ae08:	48 c1 e2 02          	shl    $0x2,%rdx
    ae0c:	48 01 d0             	add    %rdx,%rax
    ae0f:	48 89 85 98 f7 ff ff 	mov    %rax,-0x868(%rbp)
    ae16:	48 8b 15 eb be 00 00 	mov    0xbeeb(%rip),%rdx        # 16d08 <g_99>
    ae1d:	48 8d 85 40 f5 ff ff 	lea    -0xac0(%rbp),%rax
    ae24:	48 c1 e2 02          	shl    $0x2,%rdx
    ae28:	48 01 d0             	add    %rdx,%rax
    ae2b:	48 89 85 a0 f7 ff ff 	mov    %rax,-0x860(%rbp)
    ae32:	48 8d 85 40 f5 ff ff 	lea    -0xac0(%rbp),%rax
    ae39:	48 83 c0 04          	add    $0x4,%rax
    ae3d:	48 89 85 a8 f7 ff ff 	mov    %rax,-0x858(%rbp)
    ae44:	48 8d 85 3c f3 ff ff 	lea    -0xcc4(%rbp),%rax
    ae4b:	48 89 85 b0 f7 ff ff 	mov    %rax,-0x850(%rbp)
    ae52:	48 8d 85 44 f3 ff ff 	lea    -0xcbc(%rbp),%rax
    ae59:	48 89 85 b8 f7 ff ff 	mov    %rax,-0x848(%rbp)
    ae60:	48 c7 85 c0 f7 ff ff 	movq   $0x0,-0x840(%rbp)
    ae67:	00 00 00 00 
    ae6b:	48 8d 85 3c f3 ff ff 	lea    -0xcc4(%rbp),%rax
    ae72:	48 89 85 c8 f7 ff ff 	mov    %rax,-0x838(%rbp)
    ae79:	48 8d 85 44 f3 ff ff 	lea    -0xcbc(%rbp),%rax
    ae80:	48 89 85 d0 f7 ff ff 	mov    %rax,-0x830(%rbp)
    ae87:	48 8d 85 40 f5 ff ff 	lea    -0xac0(%rbp),%rax
    ae8e:	48 83 c0 04          	add    $0x4,%rax
    ae92:	48 89 85 d8 f7 ff ff 	mov    %rax,-0x828(%rbp)
    ae99:	48 8d 85 44 f3 ff ff 	lea    -0xcbc(%rbp),%rax
    aea0:	48 89 85 e0 f7 ff ff 	mov    %rax,-0x820(%rbp)
    aea7:	48 8d 85 3c f3 ff ff 	lea    -0xcc4(%rbp),%rax
    aeae:	48 89 85 e8 f7 ff ff 	mov    %rax,-0x818(%rbp)
    aeb5:	c7 85 94 f3 ff ff 00 	movl   $0x0,-0xc6c(%rbp)
    aebc:	00 00 00 
    aebf:	eb 1e                	jmp    aedf <func_2+0x27e1>
    aec1:	8b 85 94 f3 ff ff    	mov    -0xc6c(%rbp),%eax
    aec7:	48 98                	cltq   
    aec9:	48 8d 95 18 f4 ff ff 	lea    -0xbe8(%rbp),%rdx
    aed0:	48 89 94 c5 90 f5 ff 	mov    %rdx,-0xa70(%rbp,%rax,8)
    aed7:	ff 
    aed8:	83 85 94 f3 ff ff 01 	addl   $0x1,-0xc6c(%rbp)
    aedf:	83 bd 94 f3 ff ff 04 	cmpl   $0x4,-0xc6c(%rbp)
    aee6:	7e d9                	jle    aec1 <func_2+0x27c3>
    aee8:	c7 85 94 f3 ff ff 00 	movl   $0x0,-0xc6c(%rbp)
    aeef:	00 00 00 
    aef2:	eb 1e                	jmp    af12 <func_2+0x2814>
    aef4:	8b 85 94 f3 ff ff    	mov    -0xc6c(%rbp),%eax
    aefa:	48 98                	cltq   
    aefc:	48 8d 15 85 b1 00 00 	lea    0xb185(%rip),%rdx        # 16088 <g_792>
    af03:	48 89 94 c5 40 f6 ff 	mov    %rdx,-0x9c0(%rbp,%rax,8)
    af0a:	ff 
    af0b:	83 85 94 f3 ff ff 01 	addl   $0x1,-0xc6c(%rbp)
    af12:	83 bd 94 f3 ff ff 07 	cmpl   $0x7,-0xc6c(%rbp)
    af19:	7e d9                	jle    aef4 <func_2+0x27f6>
    af1b:	be 01 00 00 00       	mov    $0x1,%esi
    af20:	bf a8 41 00 00       	mov    $0x41a8,%edi
    af25:	e8 f5 ad ff ff       	callq  5d1f <safe_sub_func_uint16_t_u_u>
    af2a:	0f b7 d0             	movzwl %ax,%edx
    af2d:	8b 85 3c f3 ff ff    	mov    -0xcc4(%rbp),%eax
    af33:	09 c2                	or     %eax,%edx
    af35:	41 89 d5             	mov    %edx,%r13d
    af38:	83 bd a8 f3 ff ff 00 	cmpl   $0x0,-0xc58(%rbp)
    af3f:	0f 85 a6 00 00 00    	jne    afeb <func_2+0x28ed>
    af45:	0f b7 05 08 a1 00 00 	movzwl 0xa108(%rip),%eax        # 15054 <g_141>
    af4c:	0f b7 c0             	movzwl %ax,%eax
    af4f:	48 98                	cltq   
    af51:	48 8d 15 00 a1 00 00 	lea    0xa100(%rip),%rdx        # 15058 <g_177>
    af58:	0f b6 04 10          	movzbl (%rax,%rdx,1),%eax
    af5c:	48 0f be d8          	movsbq %al,%rbx
    af60:	44 0f bf a5 32 f3 ff 	movswl -0xcce(%rbp),%r12d
    af67:	ff 
    af68:	0f b7 05 e5 a0 00 00 	movzwl 0xa0e5(%rip),%eax        # 15054 <g_141>
    af6f:	0f b7 c0             	movzwl %ax,%eax
    af72:	48 98                	cltq   
    af74:	48 8d 15 dd a0 00 00 	lea    0xa0dd(%rip),%rdx        # 15058 <g_177>
    af7b:	0f b6 04 10          	movzbl (%rax,%rdx,1),%eax
    af7f:	0f b6 c0             	movzbl %al,%eax
    af82:	be 01 00 00 00       	mov    $0x1,%esi
    af87:	89 c7                	mov    %eax,%edi
    af89:	e8 be ac ff ff       	callq  5c4c <safe_lshift_func_uint8_t_u_u>
    af8e:	83 bd a8 f3 ff ff 00 	cmpl   $0x0,-0xc58(%rbp)
    af95:	75 0d                	jne    afa4 <func_2+0x28a6>
    af97:	48 8b 85 10 f3 ff ff 	mov    -0xcf0(%rbp),%rax
    af9e:	8b 00                	mov    (%rax),%eax
    afa0:	85 c0                	test   %eax,%eax
    afa2:	74 07                	je     afab <func_2+0x28ad>
    afa4:	b8 01 00 00 00       	mov    $0x1,%eax
    afa9:	eb 05                	jmp    afb0 <func_2+0x28b2>
    afab:	b8 00 00 00 00       	mov    $0x0,%eax
    afb0:	98                   	cwtl   
    afb1:	44 89 e6             	mov    %r12d,%esi
    afb4:	89 c7                	mov    %eax,%edi
    afb6:	e8 3a a4 ff ff       	callq  53f5 <safe_mul_func_int16_t_s_s>
    afbb:	66 c1 e8 0f          	shr    $0xf,%ax
    afbf:	0f b6 c0             	movzbl %al,%eax
    afc2:	48 89 de             	mov    %rbx,%rsi
    afc5:	48 89 c7             	mov    %rax,%rdi
    afc8:	e8 e7 a9 ff ff       	callq  59b4 <safe_mod_func_int64_t_s_s>
    afcd:	48 85 c0             	test   %rax,%rax
    afd0:	75 19                	jne    afeb <func_2+0x28ed>
    afd2:	0f b7 05 7b a0 00 00 	movzwl 0xa07b(%rip),%eax        # 15054 <g_141>
    afd9:	0f b7 c0             	movzwl %ax,%eax
    afdc:	48 98                	cltq   
    afde:	48 8d 15 73 a0 00 00 	lea    0xa073(%rip),%rdx        # 15058 <g_177>
    afe5:	0f b6 04 10          	movzbl (%rax,%rdx,1),%eax
    afe9:	84 c0                	test   %al,%al
    afeb:	90                   	nop
    afec:	8b 85 4c f5 ff ff    	mov    -0xab4(%rbp),%eax
    aff2:	39 85 a8 f3 ff ff    	cmp    %eax,-0xc58(%rbp)
    aff8:	75 0d                	jne    b007 <func_2+0x2909>
    affa:	48 8b 85 10 f4 ff ff 	mov    -0xbf0(%rbp),%rax
    b001:	8b 00                	mov    (%rax),%eax
    b003:	85 c0                	test   %eax,%eax
    b005:	74 07                	je     b00e <func_2+0x2910>
    b007:	b8 01 00 00 00       	mov    $0x1,%eax
    b00c:	eb 05                	jmp    b013 <func_2+0x2915>
    b00e:	b8 00 00 00 00       	mov    $0x0,%eax
    b013:	44 39 e8             	cmp    %r13d,%eax
    b016:	0f 9c c0             	setl   %al
    b019:	0f b6 d0             	movzbl %al,%edx
    b01c:	48 8b 85 30 f4 ff ff 	mov    -0xbd0(%rbp),%rax
    b023:	66 89 10             	mov    %dx,(%rax)
    b026:	48 8b 85 30 f4 ff ff 	mov    -0xbd0(%rbp),%rax
    b02d:	0f b7 00             	movzwl (%rax),%eax
    b030:	98                   	cwtl   
    b031:	be 0a 00 00 00       	mov    $0xa,%esi
    b036:	89 c7                	mov    %eax,%edi
    b038:	e8 a4 a4 ff ff       	callq  54e1 <safe_lshift_func_int16_t_s_u>
    b03d:	48 c7 85 40 f8 ff ff 	movq   $0x0,-0x7c0(%rbp)
    b044:	00 00 00 00 
    b048:	48 8b 85 40 f8 ff ff 	mov    -0x7c0(%rbp),%rax
    b04f:	48 89 85 00 f6 ff ff 	mov    %rax,-0xa00(%rbp)
    b056:	48 8b 05 83 b2 00 00 	mov    0xb283(%rip),%rax        # 162e0 <g_1794>
    b05d:	48 8b 00             	mov    (%rax),%rax
    b060:	48 89 85 28 f4 ff ff 	mov    %rax,-0xbd8(%rbp)
    b067:	48 8b 85 b8 f4 ff ff 	mov    -0xb48(%rbp),%rax
    b06e:	48 c7 00 00 00 00 00 	movq   $0x0,(%rax)
    b075:	0f bf 95 32 f3 ff ff 	movswl -0xcce(%rbp),%edx
    b07c:	8b 85 34 f3 ff ff    	mov    -0xccc(%rbp),%eax
    b082:	39 c2                	cmp    %eax,%edx
    b084:	0f 9c c0             	setl   %al
    b087:	0f b6 d0             	movzbl %al,%edx
    b08a:	48 8b 85 28 f4 ff ff 	mov    -0xbd8(%rbp),%rax
    b091:	8b 00                	mov    (%rax),%eax
    b093:	39 c2                	cmp    %eax,%edx
    b095:	8b 85 44 f3 ff ff    	mov    -0xcbc(%rbp),%eax
    b09b:	0f b7 d8             	movzwl %ax,%ebx
    b09e:	48 8b 05 c3 a6 00 00 	mov    0xa6c3(%rip),%rax        # 15768 <g_498>
    b0a5:	0f b6 00             	movzbl (%rax),%eax
    b0a8:	44 0f b6 e0          	movzbl %al,%r12d
    b0ac:	48 8b 85 28 f4 ff ff 	mov    -0xbd8(%rbp),%rax
    b0b3:	44 8b 28             	mov    (%rax),%r13d
    b0b6:	48 8b 05 93 a6 00 00 	mov    0xa693(%rip),%rax        # 15750 <g_92>
    b0bd:	0f b6 00             	movzbl (%rax),%eax
    b0c0:	0f b6 d0             	movzbl %al,%edx
    b0c3:	48 8b 85 28 f4 ff ff 	mov    -0xbd8(%rbp),%rax
    b0ca:	8b 00                	mov    (%rax),%eax
    b0cc:	0f b6 c0             	movzbl %al,%eax
    b0cf:	89 d6                	mov    %edx,%esi
    b0d1:	89 c7                	mov    %eax,%edi
    b0d3:	e8 d6 aa ff ff       	callq  5bae <safe_mod_func_uint8_t_u_u>
    b0d8:	0f b6 d0             	movzbl %al,%edx
    b0db:	0f b7 05 72 9f 00 00 	movzwl 0x9f72(%rip),%eax        # 15054 <g_141>
    b0e2:	0f b7 c0             	movzwl %ax,%eax
    b0e5:	48 98                	cltq   
    b0e7:	48 8d 0d 6a 9f 00 00 	lea    0x9f6a(%rip),%rcx        # 15058 <g_177>
    b0ee:	0f b6 04 08          	movzbl (%rax,%rcx,1),%eax
    b0f2:	0f be c0             	movsbl %al,%eax
    b0f5:	39 c2                	cmp    %eax,%edx
    b0f7:	0f 9f c0             	setg   %al
    b0fa:	0f b6 c0             	movzbl %al,%eax
    b0fd:	41 39 c5             	cmp    %eax,%r13d
    b100:	7e 09                	jle    b10b <func_2+0x2a0d>
    b102:	48 c7 c0 fc ff ff ff 	mov    $0xfffffffffffffffc,%rax
    b109:	eb 07                	jmp    b112 <func_2+0x2a14>
    b10b:	48 c7 c0 fd ff ff ff 	mov    $0xfffffffffffffffd,%rax
    b112:	4c 39 e0             	cmp    %r12,%rax
    b115:	0f 9d c0             	setge  %al
    b118:	0f b6 c0             	movzbl %al,%eax
    b11b:	be 08 00 00 00       	mov    $0x8,%esi
    b120:	89 c7                	mov    %eax,%edi
    b122:	e8 fe ad ff ff       	callq  5f25 <safe_div_func_uint32_t_u_u>
    b127:	0f b7 05 26 9f 00 00 	movzwl 0x9f26(%rip),%eax        # 15054 <g_141>
    b12e:	0f b7 c0             	movzwl %ax,%eax
    b131:	48 98                	cltq   
    b133:	48 8d 15 1e 9f 00 00 	lea    0x9f1e(%rip),%rdx        # 15058 <g_177>
    b13a:	0f b6 04 10          	movzbl (%rax,%rdx,1),%eax
    b13e:	48 0f be c0          	movsbq %al,%rax
    b142:	48 35 bf 2d 00 00    	xor    $0x2dbf,%rax
    b148:	48 89 c1             	mov    %rax,%rcx
    b14b:	0f b7 05 02 9f 00 00 	movzwl 0x9f02(%rip),%eax        # 15054 <g_141>
    b152:	0f b7 c0             	movzwl %ax,%eax
    b155:	48 98                	cltq   
    b157:	48 8d 15 fa 9e 00 00 	lea    0x9efa(%rip),%rdx        # 15058 <g_177>
    b15e:	0f b6 04 10          	movzbl (%rax,%rdx,1),%eax
    b162:	48 0f be c0          	movsbq %al,%rax
    b166:	48 89 ce             	mov    %rcx,%rsi
    b169:	48 89 c7             	mov    %rax,%rdi
    b16c:	e8 3e af ff ff       	callq  60af <safe_div_func_uint64_t_u_u>
    b171:	0f b6 95 31 f7 ff ff 	movzbl -0x8cf(%rbp),%edx
    b178:	48 0f be d2          	movsbq %dl,%rdx
    b17c:	48 09 d0             	or     %rdx,%rax
    b17f:	48 85 c0             	test   %rax,%rax
    b182:	75 0d                	jne    b191 <func_2+0x2a93>
    b184:	48 8b 05 45 b1 00 00 	mov    0xb145(%rip),%rax        # 162d0 <g_1513>
    b18b:	8b 00                	mov    (%rax),%eax
    b18d:	85 c0                	test   %eax,%eax
    b18f:	74 07                	je     b198 <func_2+0x2a9a>
    b191:	b8 01 00 00 00       	mov    $0x1,%eax
    b196:	eb 05                	jmp    b19d <func_2+0x2a9f>
    b198:	b8 00 00 00 00       	mov    $0x0,%eax
    b19d:	0f b7 c0             	movzwl %ax,%eax
    b1a0:	89 de                	mov    %ebx,%esi
    b1a2:	89 c7                	mov    %eax,%edi
    b1a4:	e8 b3 ab ff ff       	callq  5d5c <safe_mod_func_uint16_t_u_u>
    b1a9:	48 8b 85 80 f5 ff ff 	mov    -0xa80(%rbp),%rax
    b1b0:	48 8d 95 32 f5 ff ff 	lea    -0xace(%rbp),%rdx
    b1b7:	48 83 c2 01          	add    $0x1,%rdx
    b1bb:	48 89 c6             	mov    %rax,%rsi
    b1be:	48 89 d7             	mov    %rdx,%rdi
    b1c1:	e8 f3 0b 00 00       	callq  bdb9 <func_22>
    b1c6:	48 89 85 00 f4 ff ff 	mov    %rax,-0xc00(%rbp)
    b1cd:	48 8b 85 00 f4 ff ff 	mov    -0xc00(%rbp),%rax
    b1d4:	48 85 c0             	test   %rax,%rax
    b1d7:	0f 95 c0             	setne  %al
    b1da:	0f b6 d0             	movzbl %al,%edx
    b1dd:	8b 85 48 f3 ff ff    	mov    -0xcb8(%rbp),%eax
    b1e3:	21 d0                	and    %edx,%eax
    b1e5:	89 85 48 f3 ff ff    	mov    %eax,-0xcb8(%rbp)
    b1eb:	e9 ed 01 00 00       	jmpq   b3dd <func_2+0x2cdf>
    b1f0:	c6 85 2d f3 ff ff 01 	movb   $0x1,-0xcd3(%rbp)
    b1f7:	48 c7 85 a8 f4 ff ff 	movq   $0x0,-0xb58(%rbp)
    b1fe:	00 00 00 00 
    b202:	c7 85 a4 f3 ff ff fe 	movl   $0xfffffffe,-0xc5c(%rbp)
    b209:	ff ff ff 
    b20c:	8b 85 34 f3 ff ff    	mov    -0xccc(%rbp),%eax
    b212:	0f b7 d8             	movzwl %ax,%ebx
    b215:	44 0f be a5 2d f3 ff 	movsbl -0xcd3(%rbp),%r12d
    b21c:	ff 
    b21d:	44 0f b6 ad 2b f3 ff 	movzbl -0xcd5(%rbp),%r13d
    b224:	ff 
    b225:	8b 85 74 f3 ff ff    	mov    -0xc8c(%rbp),%eax
    b22b:	44 0f bf f0          	movswl %ax,%r14d
    b22f:	48 8b 05 32 b0 00 00 	mov    0xb032(%rip),%rax        # 16268 <g_1096>
    b236:	0f b7 00             	movzwl (%rax),%eax
    b239:	44 0f b7 f8          	movzwl %ax,%r15d
    b23d:	48 8b 05 ac b0 00 00 	mov    0xb0ac(%rip),%rax        # 162f0 <g_1909>
    b244:	48 8d 15 9d b0 00 00 	lea    0xb09d(%rip),%rdx        # 162e8 <g_1910>
    b24b:	48 39 d0             	cmp    %rdx,%rax
    b24e:	0f 95 c0             	setne  %al
    b251:	0f b6 d0             	movzbl %al,%edx
    b254:	48 8b 85 48 f4 ff ff 	mov    -0xbb8(%rbp),%rax
    b25b:	48 89 85 a8 f4 ff ff 	mov    %rax,-0xb58(%rbp)
    b262:	48 83 bd a8 f4 ff ff 	cmpq   $0x0,-0xb58(%rbp)
    b269:	00 
    b26a:	0f 95 c0             	setne  %al
    b26d:	0f b6 c0             	movzbl %al,%eax
    b270:	89 d6                	mov    %edx,%esi
    b272:	89 c7                	mov    %eax,%edi
    b274:	e8 8d ab ff ff       	callq  5e06 <safe_lshift_func_uint16_t_u_u>
    b279:	0f be 95 2d f3 ff ff 	movsbl -0xcd3(%rbp),%edx
    b280:	48 8b 05 e1 af 00 00 	mov    0xafe1(%rip),%rax        # 16268 <g_1096>
    b287:	0f b7 00             	movzwl (%rax),%eax
    b28a:	0f b7 c0             	movzwl %ax,%eax
    b28d:	39 c2                	cmp    %eax,%edx
    b28f:	0f 9f c0             	setg   %al
    b292:	0f b6 c0             	movzbl %al,%eax
    b295:	89 85 0c f3 ff ff    	mov    %eax,-0xcf4(%rbp)
    b29b:	48 8b 85 28 f4 ff ff 	mov    -0xbd8(%rbp),%rax
    b2a2:	8b 00                	mov    (%rax),%eax
    b2a4:	89 c1                	mov    %eax,%ecx
    b2a6:	48 8b 85 28 f4 ff ff 	mov    -0xbd8(%rbp),%rax
    b2ad:	8b 10                	mov    (%rax),%edx
    b2af:	0f be 85 2d f3 ff ff 	movsbl -0xcd3(%rbp),%eax
    b2b6:	39 c2                	cmp    %eax,%edx
    b2b8:	0f 94 c0             	sete   %al
    b2bb:	0f b6 c0             	movzbl %al,%eax
    b2be:	89 ce                	mov    %ecx,%esi
    b2c0:	89 c7                	mov    %eax,%edi
    b2c2:	e8 f1 ab ff ff       	callq  5eb8 <safe_add_func_uint32_t_u_u>
    b2c7:	48 8b 95 28 f4 ff ff 	mov    -0xbd8(%rbp),%rdx
    b2ce:	8b 12                	mov    (%rdx),%edx
    b2d0:	39 d0                	cmp    %edx,%eax
    b2d2:	0f 93 c0             	setae  %al
    b2d5:	0f b6 c0             	movzbl %al,%eax
    b2d8:	be 01 00 00 00       	mov    $0x1,%esi
    b2dd:	89 c7                	mov    %eax,%edi
    b2df:	e8 64 ab ff ff       	callq  5e48 <safe_rshift_func_uint16_t_u_s>
    b2e4:	48 8b 15 75 a4 00 00 	mov    0xa475(%rip),%rdx        # 15760 <g_254>
    b2eb:	8b 0a                	mov    (%rdx),%ecx
    b2ed:	0f b7 d0             	movzwl %ax,%edx
    b2f0:	48 8b 05 69 a4 00 00 	mov    0xa469(%rip),%rax        # 15760 <g_254>
    b2f7:	09 ca                	or     %ecx,%edx
    b2f9:	89 10                	mov    %edx,(%rax)
    b2fb:	8b 00                	mov    (%rax),%eax
    b2fd:	be 6e ce 3a 3a       	mov    $0x3a3ace6e,%esi
    b302:	89 c7                	mov    %eax,%edi
    b304:	e8 ad a2 ff ff       	callq  55b6 <safe_add_func_int32_t_s_s>
    b309:	39 85 0c f3 ff ff    	cmp    %eax,-0xcf4(%rbp)
    b30f:	0f 9c c0             	setl   %al
    b312:	0f b6 c0             	movzbl %al,%eax
    b315:	44 89 fe             	mov    %r15d,%esi
    b318:	89 c7                	mov    %eax,%edi
    b31a:	e8 5b ab ff ff       	callq  5e7a <safe_rshift_func_uint16_t_u_u>
    b31f:	44 89 f6             	mov    %r14d,%esi
    b322:	bf 69 24 00 00       	mov    $0x2469,%edi
    b327:	e8 87 a0 ff ff       	callq  53b3 <safe_add_func_int16_t_s_s>
    b32c:	98                   	cwtl   
    b32d:	be fb ff ff ff       	mov    $0xfffffffb,%esi
    b332:	89 c7                	mov    %eax,%edi
    b334:	e8 9a a0 ff ff       	callq  53d3 <safe_sub_func_int16_t_s_s>
    b339:	98                   	cwtl   
    b33a:	44 89 ee             	mov    %r13d,%esi
    b33d:	89 c7                	mov    %eax,%edi
    b33f:	e8 b1 a0 ff ff       	callq  53f5 <safe_mul_func_int16_t_s_s>
    b344:	48 0f bf c0          	movswq %ax,%rax
    b348:	be 03 00 00 00       	mov    $0x3,%esi
    b34d:	48 89 c7             	mov    %rax,%rdi
    b350:	e8 d9 ac ff ff       	callq  602e <safe_add_func_uint64_t_u_u>
    b355:	89 85 58 f3 ff ff    	mov    %eax,-0xca8(%rbp)
    b35b:	83 bd 58 f3 ff ff 7a 	cmpl   $0x7a,-0xca8(%rbp)
    b362:	0f 9e c0             	setle  %al
    b365:	0f b6 c0             	movzbl %al,%eax
    b368:	44 89 e6             	mov    %r12d,%esi
    b36b:	89 c7                	mov    %eax,%edi
    b36d:	e8 08 ab ff ff       	callq  5e7a <safe_rshift_func_uint16_t_u_u>
    b372:	0f b7 d0             	movzwl %ax,%edx
    b375:	48 8b 05 0c ad 00 00 	mov    0xad0c(%rip),%rax        # 16088 <g_792>
    b37c:	8b 00                	mov    (%rax),%eax
    b37e:	89 d1                	mov    %edx,%ecx
    b380:	31 c1                	xor    %eax,%ecx
    b382:	0f b7 05 cb 9c 00 00 	movzwl 0x9ccb(%rip),%eax        # 15054 <g_141>
    b389:	0f b7 c0             	movzwl %ax,%eax
    b38c:	48 98                	cltq   
    b38e:	48 8d 15 c3 9c 00 00 	lea    0x9cc3(%rip),%rdx        # 15058 <g_177>
    b395:	0f b6 04 10          	movzbl (%rax,%rdx,1),%eax
    b399:	0f be c0             	movsbl %al,%eax
    b39c:	21 c8                	and    %ecx,%eax
    b39e:	85 c0                	test   %eax,%eax
    b3a0:	75 0b                	jne    b3ad <func_2+0x2caf>
    b3a2:	48 8b 85 10 f4 ff ff 	mov    -0xbf0(%rbp),%rax
    b3a9:	8b 00                	mov    (%rax),%eax
    b3ab:	85 c0                	test   %eax,%eax
    b3ad:	83 bd 7c f3 ff ff 6a 	cmpl   $0x6a,-0xc84(%rbp)
    b3b4:	0f 9f c0             	setg   %al
    b3b7:	0f b6 c0             	movzbl %al,%eax
    b3ba:	89 de                	mov    %ebx,%esi
    b3bc:	89 c7                	mov    %eax,%edi
    b3be:	e8 5c a9 ff ff       	callq  5d1f <safe_sub_func_uint16_t_u_u>
    b3c3:	66 85 c0             	test   %ax,%ax
    b3c6:	0f 94 c2             	sete   %dl
    b3c9:	48 8b 05 70 a3 00 00 	mov    0xa370(%rip),%rax        # 15740 <g_5>
    b3d0:	0f b6 d2             	movzbl %dl,%edx
    b3d3:	89 10                	mov    %edx,(%rax)
    b3d5:	8b 00                	mov    (%rax),%eax
    b3d7:	89 85 a4 f3 ff ff    	mov    %eax,-0xc5c(%rbp)
    b3dd:	48 8b 85 10 f3 ff ff 	mov    -0xcf0(%rbp),%rax
    b3e4:	8b 00                	mov    (%rax),%eax
    b3e6:	85 c0                	test   %eax,%eax
    b3e8:	0f 85 94 03 00 00    	jne    b782 <func_2+0x3084>
    b3ee:	c6 05 47 9d 00 00 00 	movb   $0x0,0x9d47(%rip)        # 1513c <g_838>
    b3f5:	e9 55 03 00 00       	jmpq   b74f <func_2+0x3051>
    b3fa:	c7 85 ac f3 ff ff f8 	movl   $0xfffffff8,-0xc54(%rbp)
    b401:	ff ff ff 
    b404:	48 8d 85 f0 f3 ff ff 	lea    -0xc10(%rbp),%rax
    b40b:	48 89 85 c8 f4 ff ff 	mov    %rax,-0xb38(%rbp)
    b412:	48 8d 85 38 f3 ff ff 	lea    -0xcc8(%rbp),%rax
    b419:	48 89 85 50 f7 ff ff 	mov    %rax,-0x8b0(%rbp)
    b420:	48 8d 85 38 f3 ff ff 	lea    -0xcc8(%rbp),%rax
    b427:	48 89 85 58 f7 ff ff 	mov    %rax,-0x8a8(%rbp)
    b42e:	48 8d 85 38 f3 ff ff 	lea    -0xcc8(%rbp),%rax
    b435:	48 89 85 60 f7 ff ff 	mov    %rax,-0x8a0(%rbp)
    b43c:	48 8d 85 38 f3 ff ff 	lea    -0xcc8(%rbp),%rax
    b443:	48 89 85 68 f7 ff ff 	mov    %rax,-0x898(%rbp)
    b44a:	48 8d 85 38 f3 ff ff 	lea    -0xcc8(%rbp),%rax
    b451:	48 89 85 70 f7 ff ff 	mov    %rax,-0x890(%rbp)
    b458:	48 8d 85 38 f3 ff ff 	lea    -0xcc8(%rbp),%rax
    b45f:	48 89 85 78 f7 ff ff 	mov    %rax,-0x888(%rbp)
    b466:	48 8d 85 38 f3 ff ff 	lea    -0xcc8(%rbp),%rax
    b46d:	48 89 85 80 f7 ff ff 	mov    %rax,-0x880(%rbp)
    b474:	48 8d 85 38 f3 ff ff 	lea    -0xcc8(%rbp),%rax
    b47b:	48 89 85 88 f7 ff ff 	mov    %rax,-0x878(%rbp)
    b482:	48 8d 85 38 f3 ff ff 	lea    -0xcc8(%rbp),%rax
    b489:	48 89 85 90 f7 ff ff 	mov    %rax,-0x870(%rbp)
    b490:	48 8d 85 38 f3 ff ff 	lea    -0xcc8(%rbp),%rax
    b497:	48 89 85 98 f7 ff ff 	mov    %rax,-0x868(%rbp)
    b49e:	c7 85 b0 f3 ff ff d6 	movl   $0xadf90cd6,-0xc50(%rbp)
    b4a5:	0c f9 ad 
    b4a8:	48 8b 85 d8 f8 ff ff 	mov    -0x728(%rbp),%rax
    b4af:	48 39 85 50 f4 ff ff 	cmp    %rax,-0xbb0(%rbp)
    b4b6:	0f 95 c0             	setne  %al
    b4b9:	44 0f b6 f8          	movzbl %al,%r15d
    b4bd:	48 8b 05 84 a2 00 00 	mov    0xa284(%rip),%rax        # 15748 <g_71>
    b4c4:	0f b6 00             	movzbl (%rax),%eax
    b4c7:	0f be d8             	movsbl %al,%ebx
    b4ca:	48 8b 85 28 f4 ff ff 	mov    -0xbd8(%rbp),%rax
    b4d1:	8b 10                	mov    (%rax),%edx
    b4d3:	48 8b 85 68 f4 ff ff 	mov    -0xb98(%rbp),%rax
    b4da:	48 8b 00             	mov    (%rax),%rax
    b4dd:	66 89 10             	mov    %dx,(%rax)
    b4e0:	0f b7 00             	movzwl (%rax),%eax
    b4e3:	0f b7 c0             	movzwl %ax,%eax
    b4e6:	be fa ff 00 00       	mov    $0xfffa,%esi
    b4eb:	89 c7                	mov    %eax,%edi
    b4ed:	e8 2d a8 ff ff       	callq  5d1f <safe_sub_func_uint16_t_u_u>
    b4f2:	48 8b 85 18 f3 ff ff 	mov    -0xce8(%rbp),%rax
    b4f9:	44 8b 20             	mov    (%rax),%r12d
    b4fc:	0f b6 05 39 9c 00 00 	movzbl 0x9c39(%rip),%eax        # 1513c <g_838>
    b503:	44 0f b6 e8          	movzbl %al,%r13d
    b507:	48 8b 85 18 f3 ff ff 	mov    -0xce8(%rbp),%rax
    b50e:	8b 00                	mov    (%rax),%eax
    b510:	48 63 d0             	movslq %eax,%rdx
    b513:	48 8b 85 28 f4 ff ff 	mov    -0xbd8(%rbp),%rax
    b51a:	8b 08                	mov    (%rax),%ecx
    b51c:	8b 85 3c f3 ff ff    	mov    -0xcc4(%rbp),%eax
    b522:	21 c8                	and    %ecx,%eax
    b524:	48 98                	cltq   
    b526:	48 b9 af a6 11 aa 6b 	movabs $0x4cde146baa11a6af,%rcx
    b52d:	14 de 4c 
    b530:	48 31 c8             	xor    %rcx,%rax
    b533:	48 39 c2             	cmp    %rax,%rdx
    b536:	0f 9d c0             	setge  %al
    b539:	0f b6 c0             	movzbl %al,%eax
    b53c:	be ff ff 00 00       	mov    $0xffff,%esi
    b541:	89 c7                	mov    %eax,%edi
    b543:	e8 b7 a7 ff ff       	callq  5cff <safe_add_func_uint16_t_u_u>
    b548:	44 0f b7 f0          	movzwl %ax,%r14d
    b54c:	48 c7 c7 ff ff ff ff 	mov    $0xffffffffffffffff,%rdi
    b553:	e8 c1 aa ff ff       	callq  6019 <safe_unary_minus_func_uint64_t_u>
    b558:	44 89 f6             	mov    %r14d,%esi
    b55b:	89 c7                	mov    %eax,%edi
    b55d:	e8 6a a1 ff ff       	callq  56cc <safe_mod_func_int32_t_s_s>
    b562:	39 85 ac f3 ff ff    	cmp    %eax,-0xc54(%rbp)
    b568:	0f 97 c0             	seta   %al
    b56b:	0f b6 c0             	movzbl %al,%eax
    b56e:	4c 89 ee             	mov    %r13,%rsi
    b571:	48 89 c7             	mov    %rax,%rdi
    b574:	e8 d2 aa ff ff       	callq  604b <safe_sub_func_uint64_t_u_u>
    b579:	44 89 e6             	mov    %r12d,%esi
    b57c:	89 c7                	mov    %eax,%edi
    b57e:	e8 33 a0 ff ff       	callq  55b6 <safe_add_func_int32_t_s_s>
    b583:	39 85 ac f3 ff ff    	cmp    %eax,-0xc54(%rbp)
    b589:	c7 85 4c f3 ff ff f9 	movl   $0xfffffff9,-0xcb4(%rbp)
    b590:	ff ff ff 
    b593:	8b 8d 4c f3 ff ff    	mov    -0xcb4(%rbp),%ecx
    b599:	8b 85 38 f3 ff ff    	mov    -0xcc8(%rbp),%eax
    b59f:	f7 d0                	not    %eax
    b5a1:	89 c6                	mov    %eax,%esi
    b5a3:	48 8b 85 c8 f4 ff ff 	mov    -0xb38(%rbp),%rax
    b5aa:	48 8b 10             	mov    (%rax),%rdx
    b5ad:	48 63 c1             	movslq %ecx,%rax
    b5b0:	48 21 c2             	and    %rax,%rdx
    b5b3:	48 8b 85 c8 f4 ff ff 	mov    -0xb38(%rbp),%rax
    b5ba:	48 89 10             	mov    %rdx,(%rax)
    b5bd:	48 8b 85 c8 f4 ff ff 	mov    -0xb38(%rbp),%rax
    b5c4:	48 8b 00             	mov    (%rax),%rax
    b5c7:	21 f0                	and    %esi,%eax
    b5c9:	98                   	cwtl   
    b5ca:	be 04 00 00 00       	mov    $0x4,%esi
    b5cf:	89 c7                	mov    %eax,%edi
    b5d1:	e8 54 9f ff ff       	callq  552a <safe_rshift_func_int16_t_s_s>
    b5d6:	98                   	cwtl   
    b5d7:	89 85 50 f3 ff ff    	mov    %eax,-0xcb0(%rbp)
    b5dd:	48 8b 05 84 a1 00 00 	mov    0xa184(%rip),%rax        # 15768 <g_498>
    b5e4:	0f b6 10             	movzbl (%rax),%edx
    b5e7:	8d 4a 01             	lea    0x1(%rdx),%ecx
    b5ea:	88 08                	mov    %cl,(%rax)
    b5ec:	0f b6 d2             	movzbl %dl,%edx
    b5ef:	0f b7 05 3a 9b 00 00 	movzwl 0x9b3a(%rip),%eax        # 15130 <g_624>
    b5f6:	98                   	cwtl   
    b5f7:	39 85 ac f3 ff ff    	cmp    %eax,-0xc54(%rbp)
    b5fd:	0f 97 c0             	seta   %al
    b600:	0f b6 c0             	movzbl %al,%eax
    b603:	09 d0                	or     %edx,%eax
    b605:	0b 85 84 f3 ff ff    	or     -0xc7c(%rbp),%eax
    b60b:	be 01 00 00 00       	mov    $0x1,%esi
    b610:	89 c7                	mov    %eax,%edi
    b612:	e8 e8 a0 ff ff       	callq  56ff <safe_div_func_int32_t_s_s>
    b617:	48 83 bd 58 f4 ff ff 	cmpq   $0x0,-0xba8(%rbp)
    b61e:	00 
    b61f:	0f 95 c0             	setne  %al
    b622:	0f b6 c0             	movzbl %al,%eax
    b625:	39 85 60 f3 ff ff    	cmp    %eax,-0xca0(%rbp)
    b62b:	0f 94 c0             	sete   %al
    b62e:	0f b6 c0             	movzbl %al,%eax
    b631:	89 de                	mov    %ebx,%esi
    b633:	89 c7                	mov    %eax,%edi
    b635:	e8 67 9c ff ff       	callq  52a1 <safe_lshift_func_int8_t_s_s>
    b63a:	0f be d0             	movsbl %al,%edx
    b63d:	48 8b 85 18 f3 ff ff 	mov    -0xce8(%rbp),%rax
    b644:	44 31 fa             	xor    %r15d,%edx
    b647:	89 10                	mov    %edx,(%rax)
    b649:	8b 00                	mov    (%rax),%eax
    b64b:	89 85 44 f5 ff ff    	mov    %eax,-0xabc(%rbp)
    b651:	0f b7 05 3e 9b 00 00 	movzwl 0x9b3e(%rip),%eax        # 15196 <g_1954>
    b658:	83 e8 01             	sub    $0x1,%eax
    b65b:	66 89 05 34 9b 00 00 	mov    %ax,0x9b34(%rip)        # 15196 <g_1954>
    b662:	48 8b 05 1f aa 00 00 	mov    0xaa1f(%rip),%rax        # 16088 <g_792>
    b669:	8b 00                	mov    (%rax),%eax
    b66b:	83 c8 07             	or     $0x7,%eax
    b66e:	0f b7 c0             	movzwl %ax,%eax
    b671:	be 7f cd 00 00       	mov    $0xcd7f,%esi
    b676:	89 c7                	mov    %eax,%edi
    b678:	e8 c0 a6 ff ff       	callq  5d3d <safe_mul_func_uint16_t_u_u>
    b67d:	0f b7 c0             	movzwl %ax,%eax
    b680:	89 05 ba 99 00 00    	mov    %eax,0x99ba(%rip)        # 15040 <g_100>
    b686:	0f b7 05 c7 99 00 00 	movzwl 0x99c7(%rip),%eax        # 15054 <g_141>
    b68d:	0f b7 c0             	movzwl %ax,%eax
    b690:	48 98                	cltq   
    b692:	48 8d 15 bf 99 00 00 	lea    0x99bf(%rip),%rdx        # 15058 <g_177>
    b699:	0f b6 04 10          	movzbl (%rax,%rdx,1),%eax
    b69d:	48 0f be f0          	movsbq %al,%rsi
    b6a1:	48 8b 85 98 f4 ff ff 	mov    -0xb68(%rbp),%rax
    b6a8:	0f b6 00             	movzbl (%rax),%eax
    b6ab:	8d 48 01             	lea    0x1(%rax),%ecx
    b6ae:	48 8b 95 98 f4 ff ff 	mov    -0xb68(%rbp),%rdx
    b6b5:	88 0a                	mov    %cl,(%rdx)
    b6b7:	0f b6 d0             	movzbl %al,%edx
    b6ba:	48 8b 85 28 f4 ff ff 	mov    -0xbd8(%rbp),%rax
    b6c1:	8b 00                	mov    (%rax),%eax
    b6c3:	48 98                	cltq   
    b6c5:	25 53 c4 4e 2a       	and    $0x2a4ec453,%eax
    b6ca:	48 39 c2             	cmp    %rax,%rdx
    b6cd:	0f 94 c2             	sete   %dl
    b6d0:	48 8b 05 91 a0 00 00 	mov    0xa091(%rip),%rax        # 15768 <g_498>
    b6d7:	88 10                	mov    %dl,(%rax)
    b6d9:	0f b6 00             	movzbl (%rax),%eax
    b6dc:	0f b6 d0             	movzbl %al,%edx
    b6df:	8b 85 80 f3 ff ff    	mov    -0xc80(%rbp),%eax
    b6e5:	48 98                	cltq   
    b6e7:	25 39 33 00 00       	and    $0x3339,%eax
    b6ec:	48 89 c7             	mov    %rax,%rdi
    b6ef:	0f b7 05 5e 99 00 00 	movzwl 0x995e(%rip),%eax        # 15054 <g_141>
    b6f6:	0f b7 c0             	movzwl %ax,%eax
    b6f9:	48 98                	cltq   
    b6fb:	48 8d 0d 56 99 00 00 	lea    0x9956(%rip),%rcx        # 15058 <g_177>
    b702:	0f b6 04 08          	movzbl (%rax,%rcx,1),%eax
    b706:	48 0f be c0          	movsbq %al,%rax
    b70a:	48 39 c7             	cmp    %rax,%rdi
    b70d:	0f 9e c0             	setle  %al
    b710:	0f b6 c0             	movzbl %al,%eax
    b713:	39 c2                	cmp    %eax,%edx
    b715:	0f 9f c0             	setg   %al
    b718:	0f b6 d0             	movzbl %al,%edx
    b71b:	48 8b 05 76 a2 00 00 	mov    0xa276(%rip),%rax        # 15998 <g_639>
    b722:	48 8b 00             	mov    (%rax),%rax
    b725:	48 09 d0             	or     %rdx,%rax
    b728:	48 39 c6             	cmp    %rax,%rsi
    b72b:	0f 94 c0             	sete   %al
    b72e:	0f b6 d0             	movzbl %al,%edx
    b731:	8b 85 44 f5 ff ff    	mov    -0xabc(%rbp),%eax
    b737:	21 d0                	and    %edx,%eax
    b739:	89 85 44 f5 ff ff    	mov    %eax,-0xabc(%rbp)
    b73f:	0f b6 05 f6 99 00 00 	movzbl 0x99f6(%rip),%eax        # 1513c <g_838>
    b746:	83 c0 01             	add    $0x1,%eax
    b749:	88 05 ed 99 00 00    	mov    %al,0x99ed(%rip)        # 1513c <g_838>
    b74f:	0f b6 05 e6 99 00 00 	movzbl 0x99e6(%rip),%eax        # 1513c <g_838>
    b756:	3c 01                	cmp    $0x1,%al
    b758:	0f 86 9c fc ff ff    	jbe    b3fa <func_2+0x2cfc>
    b75e:	0f b7 05 ef 98 00 00 	movzwl 0x98ef(%rip),%eax        # 15054 <g_141>
    b765:	83 c0 01             	add    $0x1,%eax
    b768:	66 89 05 e5 98 00 00 	mov    %ax,0x98e5(%rip)        # 15054 <g_141>
    b76f:	0f b7 05 de 98 00 00 	movzwl 0x98de(%rip),%eax        # 15054 <g_141>
    b776:	66 83 f8 02          	cmp    $0x2,%ax
    b77a:	0f 86 04 f3 ff ff    	jbe    aa84 <func_2+0x2386>
    b780:	eb 01                	jmp    b783 <func_2+0x3085>
    b782:	90                   	nop
    b783:	48 8b 05 7e b5 00 00 	mov    0xb57e(%rip),%rax        # 16d08 <g_99>
    b78a:	48 83 c0 01          	add    $0x1,%rax
    b78e:	48 89 05 73 b5 00 00 	mov    %rax,0xb573(%rip)        # 16d08 <g_99>
    b795:	48 8b 05 6c b5 00 00 	mov    0xb56c(%rip),%rax        # 16d08 <g_99>
    b79c:	48 83 f8 03          	cmp    $0x3,%rax
    b7a0:	0f 8e 94 f2 ff ff    	jle    aa3a <func_2+0x233c>
    b7a6:	eb 01                	jmp    b7a9 <func_2+0x30ab>
    b7a8:	90                   	nop
    b7a9:	83 ad 6c f3 ff ff 01 	subl   $0x1,-0xc94(%rbp)
    b7b0:	83 bd 6c f3 ff ff f2 	cmpl   $0xfffffff2,-0xc94(%rbp)
    b7b7:	0f 8d 31 e8 ff ff    	jge    9fee <func_2+0x18f0>
    b7bd:	48 c7 85 60 f4 ff ff 	movq   $0x0,-0xba0(%rbp)
    b7c4:	00 00 00 00 
    b7c8:	48 8b 05 e1 a1 00 00 	mov    0xa1e1(%rip),%rax        # 159b0 <g_637>
    b7cf:	48 8b 00             	mov    (%rax),%rax
    b7d2:	48 8b 00             	mov    (%rax),%rax
    b7d5:	8b 95 80 f3 ff ff    	mov    -0xc80(%rbp),%edx
    b7db:	48 63 d2             	movslq %edx,%rdx
    b7de:	48 89 10             	mov    %rdx,(%rax)
    b7e1:	48 8b 00             	mov    (%rax),%rax
    b7e4:	83 e0 01             	and    $0x1,%eax
    b7e7:	89 c3                	mov    %eax,%ebx
    b7e9:	0f b6 85 31 f7 ff ff 	movzbl -0x8cf(%rbp),%eax
    b7f0:	48 0f be c0          	movsbq %al,%rax
    b7f4:	48 be ea 9b de f7 de 	movabs $0xc0a4f4def7de9bea,%rsi
    b7fb:	f4 a4 c0 
    b7fe:	48 89 c7             	mov    %rax,%rdi
    b801:	e8 a2 a0 ff ff       	callq  58a8 <safe_sub_func_int64_t_s_s>
    b806:	98                   	cwtl   
    b807:	89 de                	mov    %ebx,%esi
    b809:	89 c7                	mov    %eax,%edi
    b80b:	e8 82 9c ff ff       	callq  5492 <safe_lshift_func_int16_t_s_s>
    b810:	48 8b 95 18 f3 ff ff 	mov    -0xce8(%rbp),%rdx
    b817:	48 8b 05 b2 aa 00 00 	mov    0xaab2(%rip),%rax        # 162d0 <g_1513>
    b81e:	8b 12                	mov    (%rdx),%edx
    b820:	89 10                	mov    %edx,(%rax)
    b822:	48 8b 05 af aa 00 00 	mov    0xaaaf(%rip),%rax        # 162d8 <g_1742>
    b829:	48 8b 00             	mov    (%rax),%rax
    b82c:	c7 00 00 00 00 00    	movl   $0x0,(%rax)
    b832:	48 8b 85 18 f3 ff ff 	mov    -0xce8(%rbp),%rax
    b839:	48 8b 5d c8          	mov    -0x38(%rbp),%rbx
    b83d:	64 48 33 1c 25 28 00 	xor    %fs:0x28,%rbx
    b844:	00 00 
    b846:	74 05                	je     b84d <func_2+0x314f>
    b848:	e8 23 98 ff ff       	callq  5070 <__stack_chk_fail@plt>
    b84d:	48 81 c4 d8 0c 00 00 	add    $0xcd8,%rsp
    b854:	5b                   	pop    %rbx
    b855:	41 5c                	pop    %r12
    b857:	41 5d                	pop    %r13
    b859:	41 5e                	pop    %r14
    b85b:	41 5f                	pop    %r15
    b85d:	5d                   	pop    %rbp
    b85e:	c3                   	retq   

000000000000b85f <func_7>:
    b85f:	f3 0f 1e fa          	endbr64 
    b863:	55                   	push   %rbp
    b864:	48 89 e5             	mov    %rsp,%rbp
    b867:	41 57                	push   %r15
    b869:	41 56                	push   %r14
    b86b:	41 55                	push   %r13
    b86d:	41 54                	push   %r12
    b86f:	53                   	push   %rbx
    b870:	48 81 ec 28 02 00 00 	sub    $0x228,%rsp
    b877:	48 89 bd b8 fd ff ff 	mov    %rdi,-0x248(%rbp)
    b87e:	89 b5 b4 fd ff ff    	mov    %esi,-0x24c(%rbp)
    b884:	89 95 b0 fd ff ff    	mov    %edx,-0x250(%rbp)
    b88a:	64 48 8b 04 25 28 00 	mov    %fs:0x28,%rax
    b891:	00 00 
    b893:	48 89 45 c8          	mov    %rax,-0x38(%rbp)
    b897:	31 c0                	xor    %eax,%eax
    b899:	48 8d 05 84 97 00 00 	lea    0x9784(%rip),%rax        # 15024 <g_6>
    b8a0:	48 89 85 d8 fd ff ff 	mov    %rax,-0x228(%rbp)
    b8a7:	48 8d 05 76 97 00 00 	lea    0x9776(%rip),%rax        # 15024 <g_6>
    b8ae:	48 89 85 e0 fd ff ff 	mov    %rax,-0x220(%rbp)
    b8b5:	48 8d 05 68 97 00 00 	lea    0x9768(%rip),%rax        # 15024 <g_6>
    b8bc:	48 89 85 e8 fd ff ff 	mov    %rax,-0x218(%rbp)
    b8c3:	48 8d 05 5a 97 00 00 	lea    0x975a(%rip),%rax        # 15024 <g_6>
    b8ca:	48 89 85 f0 fd ff ff 	mov    %rax,-0x210(%rbp)
    b8d1:	48 8d 05 51 97 00 00 	lea    0x9751(%rip),%rax        # 15029 <g_19>
    b8d8:	48 89 85 f8 fd ff ff 	mov    %rax,-0x208(%rbp)
    b8df:	48 8d 05 42 97 00 00 	lea    0x9742(%rip),%rax        # 15028 <g_17>
    b8e6:	48 89 85 00 fe ff ff 	mov    %rax,-0x200(%rbp)
    b8ed:	48 b8 d6 73 89 5e 4d 	movabs $0x20e9e64d5e8973d6,%rax
    b8f4:	e6 e9 20 
    b8f7:	48 89 85 d0 fd ff ff 	mov    %rax,-0x230(%rbp)
    b8fe:	48 c7 85 40 fe ff ff 	movq   $0x1,-0x1c0(%rbp)
    b905:	01 00 00 00 
    b909:	48 c7 85 48 fe ff ff 	movq   $0x1,-0x1b8(%rbp)
    b910:	01 00 00 00 
    b914:	48 b8 b2 a8 04 dd ab 	movabs $0x25220dabdd04a8b2,%rax
    b91b:	0d 22 25 
    b91e:	48 89 85 50 fe ff ff 	mov    %rax,-0x1b0(%rbp)
    b925:	48 c7 85 58 fe ff ff 	movq   $0x1,-0x1a8(%rbp)
    b92c:	01 00 00 00 
    b930:	48 c7 85 60 fe ff ff 	movq   $0x1,-0x1a0(%rbp)
    b937:	01 00 00 00 
    b93b:	48 89 85 68 fe ff ff 	mov    %rax,-0x198(%rbp)
    b942:	48 c7 85 08 fe ff ff 	movq   $0x0,-0x1f8(%rbp)
    b949:	00 00 00 00 
    b94d:	48 8d 85 70 fe ff ff 	lea    -0x190(%rbp),%rax
    b954:	48 8d 15 e5 57 00 00 	lea    0x57e5(%rip),%rdx        # 11140 <g_2031+0x8>
    b95b:	b9 2a 00 00 00       	mov    $0x2a,%ecx
    b960:	48 89 c7             	mov    %rax,%rdi
    b963:	48 89 d6             	mov    %rdx,%rsi
    b966:	f3 48 a5             	rep movsq %ds:(%rsi),%es:(%rdi)
    b969:	48 8d 05 08 98 00 00 	lea    0x9808(%rip),%rax        # 15178 <g_1252+0x8>
    b970:	48 89 85 10 fe ff ff 	mov    %rax,-0x1f0(%rbp)
    b977:	c7 85 c8 fd ff ff 00 	movl   $0x0,-0x238(%rbp)
    b97e:	00 00 00 
    b981:	eb 49                	jmp    b9cc <func_7+0x16d>
    b983:	c7 85 cc fd ff ff 00 	movl   $0x0,-0x234(%rbp)
    b98a:	00 00 00 
    b98d:	eb 2d                	jmp    b9bc <func_7+0x15d>
    b98f:	8b 85 cc fd ff ff    	mov    -0x234(%rbp),%eax
    b995:	48 98                	cltq   
    b997:	8b 95 c8 fd ff ff    	mov    -0x238(%rbp),%edx
    b99d:	48 63 d2             	movslq %edx,%rdx
    b9a0:	48 01 d2             	add    %rdx,%rdx
    b9a3:	48 01 d0             	add    %rdx,%rax
    b9a6:	48 8d 15 77 96 00 00 	lea    0x9677(%rip),%rdx        # 15024 <g_6>
    b9ad:	48 89 94 c5 20 fe ff 	mov    %rdx,-0x1e0(%rbp,%rax,8)
    b9b4:	ff 
    b9b5:	83 85 cc fd ff ff 01 	addl   $0x1,-0x234(%rbp)
    b9bc:	83 bd cc fd ff ff 01 	cmpl   $0x1,-0x234(%rbp)
    b9c3:	7e ca                	jle    b98f <func_7+0x130>
    b9c5:	83 85 c8 fd ff ff 01 	addl   $0x1,-0x238(%rbp)
    b9cc:	83 bd c8 fd ff ff 01 	cmpl   $0x1,-0x238(%rbp)
    b9d3:	7e ae                	jle    b983 <func_7+0x124>
    b9d5:	90                   	nop
    b9d6:	48 8b 85 b8 fd ff ff 	mov    -0x248(%rbp),%rax
    b9dd:	8b 00                	mov    (%rax),%eax
    b9df:	25 13 0b b3 1b       	and    $0x1bb30b13,%eax
    b9e4:	89 c2                	mov    %eax,%edx
    b9e6:	48 8b 85 b8 fd ff ff 	mov    -0x248(%rbp),%rax
    b9ed:	89 10                	mov    %edx,(%rax)
    b9ef:	8b 05 37 96 00 00    	mov    0x9637(%rip),%eax        # 1502c <g_43>
    b9f5:	83 e8 01             	sub    $0x1,%eax
    b9f8:	89 05 2e 96 00 00    	mov    %eax,0x962e(%rip)        # 1502c <g_43>
    b9fe:	8b 85 b4 fd ff ff    	mov    -0x24c(%rbp),%eax
    ba04:	0f b7 d8             	movzwl %ax,%ebx
    ba07:	48 8b 85 b8 fd ff ff 	mov    -0x248(%rbp),%rax
    ba0e:	8b 00                	mov    (%rax),%eax
    ba10:	85 c0                	test   %eax,%eax
    ba12:	0f 85 af 00 00 00    	jne    bac7 <func_7+0x268>
    ba18:	48 8b 85 f8 fd ff ff 	mov    -0x208(%rbp),%rax
    ba1f:	c6 00 01             	movb   $0x1,(%rax)
    ba22:	48 8b 85 f8 fd ff ff 	mov    -0x208(%rbp),%rax
    ba29:	44 0f b6 28          	movzbl (%rax),%r13d
    ba2d:	8b 05 f9 95 00 00    	mov    0x95f9(%rip),%eax        # 1502c <g_43>
    ba33:	41 89 c6             	mov    %eax,%r14d
    ba36:	8b 85 b4 fd ff ff    	mov    -0x24c(%rbp),%eax
    ba3c:	44 0f b6 e0          	movzbl %al,%r12d
    ba40:	48 8b 85 f0 fd ff ff 	mov    -0x210(%rbp),%rax
    ba47:	8b 10                	mov    (%rax),%edx
    ba49:	48 8b 05 f0 9c 00 00 	mov    0x9cf0(%rip),%rax        # 15740 <g_5>
    ba50:	8b 00                	mov    (%rax),%eax
    ba52:	89 d6                	mov    %edx,%esi
    ba54:	89 c7                	mov    %eax,%edi
    ba56:	e8 71 9c ff ff       	callq  56cc <safe_mod_func_int32_t_s_s>
    ba5b:	0f b6 c0             	movzbl %al,%eax
    ba5e:	89 c6                	mov    %eax,%esi
    ba60:	bf fa 00 00 00       	mov    $0xfa,%edi
    ba65:	e8 0e a1 ff ff       	callq  5b78 <safe_sub_func_uint8_t_u_u>
    ba6a:	0f be c0             	movsbl %al,%eax
    ba6d:	4c 89 f1             	mov    %r14,%rcx
    ba70:	44 89 e2             	mov    %r12d,%edx
    ba73:	48 8d 35 aa 95 00 00 	lea    0x95aa(%rip),%rsi        # 15024 <g_6>
    ba7a:	89 c7                	mov    %eax,%edi
    ba7c:	e8 b1 04 00 00       	callq  bf32 <func_54>
    ba81:	48 8b 85 00 fe ff ff 	mov    -0x200(%rbp),%rax
    ba88:	0f b6 00             	movzbl (%rax),%eax
    ba8b:	44 89 ea             	mov    %r13d,%edx
    ba8e:	21 c2                	and    %eax,%edx
    ba90:	48 8b 85 00 fe ff ff 	mov    -0x200(%rbp),%rax
    ba97:	88 10                	mov    %dl,(%rax)
    ba99:	48 8b 85 00 fe ff ff 	mov    -0x200(%rbp),%rax
    baa0:	0f b6 00             	movzbl (%rax),%eax
    baa3:	3c 42                	cmp    $0x42,%al
    baa5:	0f 9e c0             	setle  %al
    baa8:	0f b6 c0             	movzbl %al,%eax
    baab:	39 85 b4 fd ff ff    	cmp    %eax,-0x24c(%rbp)
    bab1:	7f 14                	jg     bac7 <func_7+0x268>
    bab3:	48 8b 85 e0 fd ff ff 	mov    -0x220(%rbp),%rax
    baba:	8b 00                	mov    (%rax),%eax
    babc:	85 c0                	test   %eax,%eax
    babe:	75 07                	jne    bac7 <func_7+0x268>
    bac0:	83 bd b0 fd ff ff 00 	cmpl   $0x0,-0x250(%rbp)
    bac7:	90                   	nop
    bac8:	89 de                	mov    %ebx,%esi
    baca:	bf 01 00 00 00       	mov    $0x1,%edi
    bacf:	e8 2b a2 ff ff       	callq  5cff <safe_add_func_uint16_t_u_u>
    bad4:	66 85 c0             	test   %ax,%ax
    bad7:	75 0d                	jne    bae6 <func_7+0x287>
    bad9:	48 8b 85 f0 fd ff ff 	mov    -0x210(%rbp),%rax
    bae0:	8b 00                	mov    (%rax),%eax
    bae2:	85 c0                	test   %eax,%eax
    bae4:	74 07                	je     baed <func_7+0x28e>
    bae6:	b8 01 00 00 00       	mov    $0x1,%eax
    baeb:	eb 05                	jmp    baf2 <func_7+0x293>
    baed:	b8 00 00 00 00       	mov    $0x0,%eax
    baf2:	0f be d0             	movsbl %al,%edx
    baf5:	8b 85 b4 fd ff ff    	mov    -0x24c(%rbp),%eax
    bafb:	0f be c0             	movsbl %al,%eax
    bafe:	89 d6                	mov    %edx,%esi
    bb00:	89 c7                	mov    %eax,%edi
    bb02:	e8 eb 96 ff ff       	callq  51f2 <safe_sub_func_int8_t_s_s>
    bb07:	89 c2                	mov    %eax,%edx
    bb09:	48 8b 05 78 a5 00 00 	mov    0xa578(%rip),%rax        # 16088 <g_792>
    bb10:	0f be d2             	movsbl %dl,%edx
    bb13:	89 10                	mov    %edx,(%rax)
    bb15:	8b 00                	mov    (%rax),%eax
    bb17:	35 0a cb 27 c4       	xor    $0xc427cb0a,%eax
    bb1c:	89 c0                	mov    %eax,%eax
    bb1e:	25 a4 9d a1 c8       	and    $0xc8a19da4,%eax
    bb23:	48 89 c2             	mov    %rax,%rdx
    bb26:	48 8b 85 f0 fd ff ff 	mov    -0x210(%rbp),%rax
    bb2d:	8b 00                	mov    (%rax),%eax
    bb2f:	48 98                	cltq   
    bb31:	48 09 c2             	or     %rax,%rdx
    bb34:	48 8b 85 f0 fd ff ff 	mov    -0x210(%rbp),%rax
    bb3b:	8b 00                	mov    (%rax),%eax
    bb3d:	48 98                	cltq   
    bb3f:	48 39 c2             	cmp    %rax,%rdx
    bb42:	0f 9e c0             	setle  %al
    bb45:	0f b6 d0             	movzbl %al,%edx
    bb48:	48 8b 85 d8 fd ff ff 	mov    -0x228(%rbp),%rax
    bb4f:	89 10                	mov    %edx,(%rax)
    bb51:	83 bd b4 fd ff ff 00 	cmpl   $0x0,-0x24c(%rbp)
    bb58:	74 07                	je     bb61 <func_7+0x302>
    bb5a:	ba 01 00 00 00       	mov    $0x1,%edx
    bb5f:	eb 05                	jmp    bb66 <func_7+0x307>
    bb61:	ba 00 00 00 00       	mov    $0x0,%edx
    bb66:	0f b7 05 bb 95 00 00 	movzwl 0x95bb(%rip),%eax        # 15128 <g_621>
    bb6d:	98                   	cwtl   
    bb6e:	39 c2                	cmp    %eax,%edx
    bb70:	0f 95 c0             	setne  %al
    bb73:	0f b6 c0             	movzbl %al,%eax
    bb76:	48 98                	cltq   
    bb78:	48 21 85 d0 fd ff ff 	and    %rax,-0x230(%rbp)
    bb7f:	8b 85 b0 fd ff ff    	mov    -0x250(%rbp),%eax
    bb85:	0f b6 d8             	movzbl %al,%ebx
    bb88:	0f b7 05 05 95 00 00 	movzwl 0x9505(%rip),%eax        # 15094 <g_298+0x14>
    bb8f:	44 0f b7 e0          	movzwl %ax,%r12d
    bb93:	0f b7 05 8e 95 00 00 	movzwl 0x958e(%rip),%eax        # 15128 <g_621>
    bb9a:	4c 0f bf f8          	movswq %ax,%r15
    bb9e:	8b 85 b0 fd ff ff    	mov    -0x250(%rbp),%eax
    bba4:	44 0f bf e8          	movswl %ax,%r13d
    bba8:	48 8b 85 f0 fd ff ff 	mov    -0x210(%rbp),%rax
    bbaf:	8b 00                	mov    (%rax),%eax
    bbb1:	85 c0                	test   %eax,%eax
    bbb3:	75 13                	jne    bbc8 <func_7+0x369>
    bbb5:	48 8b 15 fc 8a 00 00 	mov    0x8afc(%rip),%rdx        # 146b8 <l_1385.4584+0x178>
    bbbc:	48 8b 05 25 8d 00 00 	mov    0x8d25(%rip),%rax        # 148e8 <l_1385.4584+0x3a8>
    bbc3:	48 39 c2             	cmp    %rax,%rdx
    bbc6:	75 07                	jne    bbcf <func_7+0x370>
    bbc8:	ba 01 00 00 00       	mov    $0x1,%edx
    bbcd:	eb 05                	jmp    bbd4 <func_7+0x375>
    bbcf:	ba 00 00 00 00       	mov    $0x0,%edx
    bbd4:	48 8b 05 ad a4 00 00 	mov    0xa4ad(%rip),%rax        # 16088 <g_792>
    bbdb:	89 10                	mov    %edx,(%rax)
    bbdd:	44 8b 30             	mov    (%rax),%r14d
    bbe0:	48 8b 85 f0 fd ff ff 	mov    -0x210(%rbp),%rax
    bbe7:	8b 00                	mov    (%rax),%eax
    bbe9:	48 63 d0             	movslq %eax,%rdx
    bbec:	48 8b 85 00 fe ff ff 	mov    -0x200(%rbp),%rax
    bbf3:	0f b6 00             	movzbl (%rax),%eax
    bbf6:	89 c1                	mov    %eax,%ecx
    bbf8:	48 8b 85 58 fe ff ff 	mov    -0x1a8(%rbp),%rax
    bbff:	09 c8                	or     %ecx,%eax
    bc01:	89 c1                	mov    %eax,%ecx
    bc03:	48 8b 85 00 fe ff ff 	mov    -0x200(%rbp),%rax
    bc0a:	88 08                	mov    %cl,(%rax)
    bc0c:	48 8b 85 00 fe ff ff 	mov    -0x200(%rbp),%rax
    bc13:	0f b6 00             	movzbl (%rax),%eax
    bc16:	3c 77                	cmp    $0x77,%al
    bc18:	0f 9e c0             	setle  %al
    bc1b:	0f b6 c0             	movzbl %al,%eax
    bc1e:	48 89 d6             	mov    %rdx,%rsi
    bc21:	48 89 c7             	mov    %rax,%rdi
    bc24:	e8 05 a4 ff ff       	callq  602e <safe_add_func_uint64_t_u_u>
    bc29:	44 89 f6             	mov    %r14d,%esi
    bc2c:	89 c7                	mov    %eax,%edi
    bc2e:	e8 ca a2 ff ff       	callq  5efd <safe_mod_func_uint32_t_u_u>
    bc33:	89 c2                	mov    %eax,%edx
    bc35:	48 8b 05 5c a4 00 00 	mov    0xa45c(%rip),%rax        # 16098 <g_1017>
    bc3c:	89 d2                	mov    %edx,%edx
    bc3e:	48 89 10             	mov    %rdx,(%rax)
    bc41:	48 8b 85 e8 fd ff ff 	mov    -0x218(%rbp),%rax
    bc48:	8b 00                	mov    (%rax),%eax
    bc4a:	83 f8 f6             	cmp    $0xfffffff6,%eax
    bc4d:	0f 95 c0             	setne  %al
    bc50:	0f b6 c0             	movzbl %al,%eax
    bc53:	89 c6                	mov    %eax,%esi
    bc55:	bf 00 00 00 00       	mov    $0x0,%edi
    bc5a:	e8 34 9f ff ff       	callq  5b93 <safe_mul_func_uint8_t_u_u>
    bc5f:	84 c0                	test   %al,%al
    bc61:	48 8d 05 a0 b0 00 00 	lea    0xb0a0(%rip),%rax        # 16d08 <g_99>
    bc68:	48 39 85 08 fe ff ff 	cmp    %rax,-0x1f8(%rbp)
    bc6f:	0f 95 c0             	setne  %al
    bc72:	0f b6 d0             	movzbl %al,%edx
    bc75:	48 8b 85 e0 fd ff ff 	mov    -0x220(%rbp),%rax
    bc7c:	89 10                	mov    %edx,(%rax)
    bc7e:	48 8b 85 e0 fd ff ff 	mov    -0x220(%rbp),%rax
    bc85:	8b 00                	mov    (%rax),%eax
    bc87:	98                   	cwtl   
    bc88:	44 89 ee             	mov    %r13d,%esi
    bc8b:	89 c7                	mov    %eax,%edi
    bc8d:	e8 41 97 ff ff       	callq  53d3 <safe_sub_func_int16_t_s_s>
    bc92:	48 8b 95 a8 fe ff ff 	mov    -0x158(%rbp),%rdx
    bc99:	48 0f bf c0          	movswq %ax,%rax
    bc9d:	48 09 d0             	or     %rdx,%rax
    bca0:	48 89 85 a8 fe ff ff 	mov    %rax,-0x158(%rbp)
    bca7:	48 8b 95 a8 fe ff ff 	mov    -0x158(%rbp),%rdx
    bcae:	48 8b 85 10 fe ff ff 	mov    -0x1f0(%rbp),%rax
    bcb5:	48 89 10             	mov    %rdx,(%rax)
    bcb8:	48 8b 85 10 fe ff ff 	mov    -0x1f0(%rbp),%rax
    bcbf:	48 8b 00             	mov    (%rax),%rax
    bcc2:	49 39 c7             	cmp    %rax,%r15
    bcc5:	0f 94 c0             	sete   %al
    bcc8:	0f b6 c0             	movzbl %al,%eax
    bccb:	48 89 c7             	mov    %rax,%rdi
    bcce:	e8 46 a3 ff ff       	callq  6019 <safe_unary_minus_func_uint64_t_u>
    bcd3:	89 c2                	mov    %eax,%edx
    bcd5:	48 8b 05 54 93 00 00 	mov    0x9354(%rip),%rax        # 15030 <g_68>
    bcdc:	31 d0                	xor    %edx,%eax
    bcde:	0f b7 c0             	movzwl %ax,%eax
    bce1:	44 89 e6             	mov    %r12d,%esi
    bce4:	89 c7                	mov    %eax,%edi
    bce6:	e8 52 a0 ff ff       	callq  5d3d <safe_mul_func_uint16_t_u_u>
    bceb:	89 c2                	mov    %eax,%edx
    bced:	48 8b 05 74 9a 00 00 	mov    0x9a74(%rip),%rax        # 15768 <g_498>
    bcf4:	88 10                	mov    %dl,(%rax)
    bcf6:	0f b6 00             	movzbl (%rax),%eax
    bcf9:	0f b6 c0             	movzbl %al,%eax
    bcfc:	89 de                	mov    %ebx,%esi
    bcfe:	89 c7                	mov    %eax,%edi
    bd00:	e8 a9 9e ff ff       	callq  5bae <safe_mod_func_uint8_t_u_u>
    bd05:	84 c0                	test   %al,%al
    bd07:	74 73                	je     bd7c <func_7+0x51d>
    bd09:	48 8b 85 e8 fd ff ff 	mov    -0x218(%rbp),%rax
    bd10:	8b 00                	mov    (%rax),%eax
    bd12:	85 c0                	test   %eax,%eax
    bd14:	74 66                	je     bd7c <func_7+0x51d>
    bd16:	48 8d 05 81 93 00 00 	lea    0x9381(%rip),%rax        # 1509e <g_298+0x1e>
    bd1d:	48 89 85 18 fe ff ff 	mov    %rax,-0x1e8(%rbp)
    bd24:	48 8b 05 45 a5 00 00 	mov    0xa545(%rip),%rax        # 16270 <g_1095>
    bd2b:	48 8b 00             	mov    (%rax),%rax
    bd2e:	0f b7 00             	movzwl (%rax),%eax
    bd31:	66 85 c0             	test   %ax,%ax
    bd34:	75 2f                	jne    bd65 <func_7+0x506>
    bd36:	48 8b 85 18 fe ff ff 	mov    -0x1e8(%rbp),%rax
    bd3d:	0f b7 10             	movzwl (%rax),%edx
    bd40:	0f b6 05 22 93 00 00 	movzbl 0x9322(%rip),%eax        # 15069 <g_247>
    bd47:	0f b6 c0             	movzbl %al,%eax
    bd4a:	09 c2                	or     %eax,%edx
    bd4c:	48 8b 85 18 fe ff ff 	mov    -0x1e8(%rbp),%rax
    bd53:	66 89 10             	mov    %dx,(%rax)
    bd56:	48 8b 85 18 fe ff ff 	mov    -0x1e8(%rbp),%rax
    bd5d:	0f b7 00             	movzwl (%rax),%eax
    bd60:	66 85 c0             	test   %ax,%ax
    bd63:	74 07                	je     bd6c <func_7+0x50d>
    bd65:	ba 01 00 00 00       	mov    $0x1,%edx
    bd6a:	eb 05                	jmp    bd71 <func_7+0x512>
    bd6c:	ba 00 00 00 00       	mov    $0x0,%edx
    bd71:	48 8b 05 18 a3 00 00 	mov    0xa318(%rip),%rax        # 16090 <g_857>
    bd78:	89 10                	mov    %edx,(%rax)
    bd7a:	eb 10                	jmp    bd8c <func_7+0x52d>
    bd7c:	0f b6 05 e6 92 00 00 	movzbl 0x92e6(%rip),%eax        # 15069 <g_247>
    bd83:	84 c0                	test   %al,%al
    bd85:	74 05                	je     bd8c <func_7+0x52d>
    bd87:	e9 4a fc ff ff       	jmpq   b9d6 <func_7+0x177>
    bd8c:	48 8b 85 b8 fd ff ff 	mov    -0x248(%rbp),%rax
    bd93:	48 8b 5d c8          	mov    -0x38(%rbp),%rbx
    bd97:	64 48 33 1c 25 28 00 	xor    %fs:0x28,%rbx
    bd9e:	00 00 
    bda0:	74 05                	je     bda7 <func_7+0x548>
    bda2:	e8 c9 92 ff ff       	callq  5070 <__stack_chk_fail@plt>
    bda7:	48 81 c4 28 02 00 00 	add    $0x228,%rsp
    bdae:	5b                   	pop    %rbx
    bdaf:	41 5c                	pop    %r12
    bdb1:	41 5d                	pop    %r13
    bdb3:	41 5e                	pop    %r14
    bdb5:	41 5f                	pop    %r15
    bdb7:	5d                   	pop    %rbp
    bdb8:	c3                   	retq   

000000000000bdb9 <func_22>:
    bdb9:	f3 0f 1e fa          	endbr64 
    bdbd:	55                   	push   %rbp
    bdbe:	48 89 e5             	mov    %rsp,%rbp
    bdc1:	48 83 ec 40          	sub    $0x40,%rsp
    bdc5:	48 89 7d c8          	mov    %rdi,-0x38(%rbp)
    bdc9:	48 89 75 c0          	mov    %rsi,-0x40(%rbp)
    bdcd:	64 48 8b 04 25 28 00 	mov    %fs:0x28,%rax
    bdd4:	00 00 
    bdd6:	48 89 45 f8          	mov    %rax,-0x8(%rbp)
    bdda:	31 c0                	xor    %eax,%eax
    bddc:	c6 05 45 92 00 00 01 	movb   $0x1,0x9245(%rip)        # 15028 <g_17>
    bde3:	e9 06 01 00 00       	jmpq   beee <func_22+0x135>
    bde8:	48 c7 45 e0 f7 ff ff 	movq   $0xfffffffffffffff7,-0x20(%rbp)
    bdef:	ff 
    bdf0:	c6 05 32 92 00 00 00 	movb   $0x0,0x9232(%rip)        # 15029 <g_19>
    bdf7:	e9 cc 00 00 00       	jmpq   bec8 <func_22+0x10f>
    bdfc:	48 8d 05 25 92 00 00 	lea    0x9225(%rip),%rax        # 15028 <g_17>
    be03:	48 89 45 d8          	mov    %rax,-0x28(%rbp)
    be07:	48 8d 45 d8          	lea    -0x28(%rbp),%rax
    be0b:	48 89 45 e8          	mov    %rax,-0x18(%rbp)
    be0f:	c7 45 d4 01 00 00 00 	movl   $0x1,-0x2c(%rbp)
    be16:	48 8b 55 d8          	mov    -0x28(%rbp),%rdx
    be1a:	48 8b 45 e8          	mov    -0x18(%rbp),%rax
    be1e:	48 89 10             	mov    %rdx,(%rax)
    be21:	48 8b 45 e8          	mov    -0x18(%rbp),%rax
    be25:	48 8b 00             	mov    (%rax),%rax
    be28:	48 39 45 c0          	cmp    %rax,-0x40(%rbp)
    be2c:	0f 94 c0             	sete   %al
    be2f:	0f b6 c8             	movzbl %al,%ecx
    be32:	48 8b 05 07 99 00 00 	mov    0x9907(%rip),%rax        # 15740 <g_5>
    be39:	8b 10                	mov    (%rax),%edx
    be3b:	48 8b 05 fe 98 00 00 	mov    0x98fe(%rip),%rax        # 15740 <g_5>
    be42:	31 ca                	xor    %ecx,%edx
    be44:	89 10                	mov    %edx,(%rax)
    be46:	48 8b 05 f3 98 00 00 	mov    0x98f3(%rip),%rax        # 15740 <g_5>
    be4d:	8b 00                	mov    (%rax),%eax
    be4f:	85 c0                	test   %eax,%eax
    be51:	75 56                	jne    bea9 <func_22+0xf0>
    be53:	c7 05 c7 91 00 00 ef 	movl   $0xffffffef,0x91c7(%rip)        # 15024 <g_6>
    be5a:	ff ff ff 
    be5d:	eb 3d                	jmp    be9c <func_22+0xe3>
    be5f:	48 8d 45 d4          	lea    -0x2c(%rbp),%rax
    be63:	48 89 45 f0          	mov    %rax,-0x10(%rbp)
    be67:	0f b6 05 bb 91 00 00 	movzbl 0x91bb(%rip),%eax        # 15029 <g_19>
    be6e:	0f be d0             	movsbl %al,%edx
    be71:	8b 45 d4             	mov    -0x2c(%rbp),%eax
    be74:	21 c2                	and    %eax,%edx
    be76:	48 8b 45 f0          	mov    -0x10(%rbp),%rax
    be7a:	89 10                	mov    %edx,(%rax)
    be7c:	48 8b 45 f0          	mov    -0x10(%rbp),%rax
    be80:	8b 00                	mov    (%rax),%eax
    be82:	83 c8 04             	or     $0x4,%eax
    be85:	89 c2                	mov    %eax,%edx
    be87:	48 8b 45 f0          	mov    -0x10(%rbp),%rax
    be8b:	89 10                	mov    %edx,(%rax)
    be8d:	8b 05 91 91 00 00    	mov    0x9191(%rip),%eax        # 15024 <g_6>
    be93:	83 e8 01             	sub    $0x1,%eax
    be96:	89 05 88 91 00 00    	mov    %eax,0x9188(%rip)        # 15024 <g_6>
    be9c:	8b 05 82 91 00 00    	mov    0x9182(%rip),%eax        # 15024 <g_6>
    bea2:	83 f8 eb             	cmp    $0xffffffeb,%eax
    bea5:	7d b8                	jge    be5f <func_22+0xa6>
    bea7:	eb 01                	jmp    beaa <func_22+0xf1>
    bea9:	90                   	nop
    beaa:	0f b6 05 78 91 00 00 	movzbl 0x9178(%rip),%eax        # 15029 <g_19>
    beb1:	48 0f be c0          	movsbq %al,%rax
    beb5:	be 05 00 00 00       	mov    $0x5,%esi
    beba:	48 89 c7             	mov    %rax,%rdi
    bebd:	e8 89 a1 ff ff       	callq  604b <safe_sub_func_uint64_t_u_u>
    bec2:	88 05 61 91 00 00    	mov    %al,0x9161(%rip)        # 15029 <g_19>
    bec8:	0f b6 05 5a 91 00 00 	movzbl 0x915a(%rip),%eax        # 15029 <g_19>
    becf:	3c e3                	cmp    $0xe3,%al
    bed1:	0f 8d 25 ff ff ff    	jge    bdfc <func_22+0x43>
    bed7:	48 83 7d e0 00       	cmpq   $0x0,-0x20(%rbp)
    bedc:	75 21                	jne    beff <func_22+0x146>
    bede:	0f b6 05 43 91 00 00 	movzbl 0x9143(%rip),%eax        # 15028 <g_17>
    bee5:	83 c0 01             	add    $0x1,%eax
    bee8:	88 05 3a 91 00 00    	mov    %al,0x913a(%rip)        # 15028 <g_17>
    beee:	0f b6 05 33 91 00 00 	movzbl 0x9133(%rip),%eax        # 15028 <g_17>
    bef5:	3c 0e                	cmp    $0xe,%al
    bef7:	0f 8e eb fe ff ff    	jle    bde8 <func_22+0x2f>
    befd:	eb 01                	jmp    bf00 <func_22+0x147>
    beff:	90                   	nop
    bf00:	48 8b 05 39 98 00 00 	mov    0x9839(%rip),%rax        # 15740 <g_5>
    bf07:	8b 10                	mov    (%rax),%edx
    bf09:	48 8b 05 30 98 00 00 	mov    0x9830(%rip),%rax        # 15740 <g_5>
    bf10:	83 f2 09             	xor    $0x9,%edx
    bf13:	89 10                	mov    %edx,(%rax)
    bf15:	48 8d 05 08 91 00 00 	lea    0x9108(%rip),%rax        # 15024 <g_6>
    bf1c:	48 8b 4d f8          	mov    -0x8(%rbp),%rcx
    bf20:	64 48 33 0c 25 28 00 	xor    %fs:0x28,%rcx
    bf27:	00 00 
    bf29:	74 05                	je     bf30 <func_22+0x177>
    bf2b:	e8 40 91 ff ff       	callq  5070 <__stack_chk_fail@plt>
    bf30:	c9                   	leaveq 
    bf31:	c3                   	retq   

000000000000bf32 <func_54>:
    bf32:	f3 0f 1e fa          	endbr64 
    bf36:	55                   	push   %rbp
    bf37:	48 89 e5             	mov    %rsp,%rbp
    bf3a:	53                   	push   %rbx
    bf3b:	48 83 ec 58          	sub    $0x58,%rsp
    bf3f:	48 89 75 b0          	mov    %rsi,-0x50(%rbp)
    bf43:	89 d0                	mov    %edx,%eax
    bf45:	48 89 4d a8          	mov    %rcx,-0x58(%rbp)
    bf49:	89 fa                	mov    %edi,%edx
    bf4b:	88 55 bc             	mov    %dl,-0x44(%rbp)
    bf4e:	88 45 b8             	mov    %al,-0x48(%rbp)
    bf51:	64 48 8b 04 25 28 00 	mov    %fs:0x28,%rax
    bf58:	00 00 
    bf5a:	48 89 45 e8          	mov    %rax,-0x18(%rbp)
    bf5e:	31 c0                	xor    %eax,%eax
    bf60:	48 b8 67 69 4f 56 83 	movabs $0xf94a2283564f6967,%rax
    bf67:	22 4a f9 
    bf6a:	48 89 45 c8          	mov    %rax,-0x38(%rbp)
    bf6e:	48 8d 45 c8          	lea    -0x38(%rbp),%rax
    bf72:	48 89 45 d0          	mov    %rax,-0x30(%rbp)
    bf76:	48 8d 05 b3 90 00 00 	lea    0x90b3(%rip),%rax        # 15030 <g_68>
    bf7d:	48 89 45 d8          	mov    %rax,-0x28(%rbp)
    bf81:	c7 45 c4 01 00 00 00 	movl   $0x1,-0x3c(%rbp)
    bf88:	48 8d 05 c1 91 00 00 	lea    0x91c1(%rip),%rax        # 15150 <g_1024>
    bf8f:	48 89 45 e0          	mov    %rax,-0x20(%rbp)
    bf93:	48 8b 45 c8          	mov    -0x38(%rbp),%rax
    bf97:	48 83 c0 01          	add    $0x1,%rax
    bf9b:	48 89 45 c8          	mov    %rax,-0x38(%rbp)
    bf9f:	48 8b 45 d0          	mov    -0x30(%rbp),%rax
    bfa3:	48 8b 00             	mov    (%rax),%rax
    bfa6:	48 ba 53 b0 29 e4 65 	movabs $0x4914d865e429b053,%rdx
    bfad:	d8 14 49 
    bfb0:	48 31 c2             	xor    %rax,%rdx
    bfb3:	48 8b 45 d0          	mov    -0x30(%rbp),%rax
    bfb7:	48 89 10             	mov    %rdx,(%rax)
    bfba:	48 8b 45 d0          	mov    -0x30(%rbp),%rax
    bfbe:	48 8b 10             	mov    (%rax),%rdx
    bfc1:	48 8b 45 d8          	mov    -0x28(%rbp),%rax
    bfc5:	48 89 10             	mov    %rdx,(%rax)
    bfc8:	48 8b 45 d8          	mov    -0x28(%rbp),%rax
    bfcc:	48 8b 18             	mov    (%rax),%rbx
    bfcf:	48 83 7d a8 00       	cmpq   $0x0,-0x58(%rbp)
    bfd4:	0f 95 c0             	setne  %al
    bfd7:	0f b6 c0             	movzbl %al,%eax
    bfda:	89 c7                	mov    %eax,%edi
    bfdc:	e8 44 00 00 00       	callq  c025 <func_69>
    bfe1:	89 45 c4             	mov    %eax,-0x3c(%rbp)
    bfe4:	8b 45 c4             	mov    -0x3c(%rbp),%eax
    bfe7:	48 98                	cltq   
    bfe9:	48 31 c3             	xor    %rax,%rbx
    bfec:	48 89 da             	mov    %rbx,%rdx
    bfef:	48 8b 45 e0          	mov    -0x20(%rbp),%rax
    bff3:	8b 00                	mov    (%rax),%eax
    bff5:	89 c1                	mov    %eax,%ecx
    bff7:	89 d0                	mov    %edx,%eax
    bff9:	09 c8                	or     %ecx,%eax
    bffb:	89 c2                	mov    %eax,%edx
    bffd:	48 8b 45 e0          	mov    -0x20(%rbp),%rax
    c001:	89 10                	mov    %edx,(%rax)
    c003:	0f b7 05 6e 90 00 00 	movzwl 0x906e(%rip),%eax        # 15078 <g_296+0x8>
    c00a:	48 8b 75 e8          	mov    -0x18(%rbp),%rsi
    c00e:	64 48 33 34 25 28 00 	xor    %fs:0x28,%rsi
    c015:	00 00 
    c017:	74 05                	je     c01e <func_54+0xec>
    c019:	e8 52 90 ff ff       	callq  5070 <__stack_chk_fail@plt>
    c01e:	48 83 c4 58          	add    $0x58,%rsp
    c022:	5b                   	pop    %rbx
    c023:	5d                   	pop    %rbp
    c024:	c3                   	retq   

000000000000c025 <func_69>:
    c025:	f3 0f 1e fa          	endbr64 
    c029:	55                   	push   %rbp
    c02a:	48 89 e5             	mov    %rsp,%rbp
    c02d:	48 81 ec 30 03 00 00 	sub    $0x330,%rsp
    c034:	89 f8                	mov    %edi,%eax
    c036:	66 89 85 dc fc ff ff 	mov    %ax,-0x324(%rbp)
    c03d:	64 48 8b 04 25 28 00 	mov    %fs:0x28,%rax
    c044:	00 00 
    c046:	48 89 45 f8          	mov    %rax,-0x8(%rbp)
    c04a:	31 c0                	xor    %eax,%eax
    c04c:	48 8d 05 e6 8f 00 00 	lea    0x8fe6(%rip),%rax        # 15039 <g_74>
    c053:	48 89 85 30 fd ff ff 	mov    %rax,-0x2d0(%rbp)
    c05a:	c7 85 f4 fc ff ff 01 	movl   $0x1,-0x30c(%rbp)
    c061:	00 00 00 
    c064:	48 8d 05 d1 8f 00 00 	lea    0x8fd1(%rip),%rax        # 1503c <g_76>
    c06b:	48 89 85 48 fd ff ff 	mov    %rax,-0x2b8(%rbp)
    c072:	c7 85 e8 fc ff ff 00 	movl   $0x0,-0x318(%rbp)
    c079:	00 00 00 
    c07c:	c7 85 f8 fc ff ff 00 	movl   $0x0,-0x308(%rbp)
    c083:	00 00 00 
    c086:	c7 85 fc fc ff ff 49 	movl   $0x2fc08b49,-0x304(%rbp)
    c08d:	8b c0 2f 
    c090:	c7 85 00 fd ff ff 33 	movl   $0x16fa533,-0x300(%rbp)
    c097:	a5 6f 01 
    c09a:	c7 85 04 fd ff ff fe 	movl   $0xfffffffe,-0x2fc(%rbp)
    c0a1:	ff ff ff 
    c0a4:	48 8d 05 85 90 00 00 	lea    0x9085(%rip),%rax        # 15130 <g_624>
    c0ab:	48 89 85 20 fe ff ff 	mov    %rax,-0x1e0(%rbp)
    c0b2:	48 8d 05 77 90 00 00 	lea    0x9077(%rip),%rax        # 15130 <g_624>
    c0b9:	48 89 85 28 fe ff ff 	mov    %rax,-0x1d8(%rbp)
    c0c0:	48 8d 05 69 90 00 00 	lea    0x9069(%rip),%rax        # 15130 <g_624>
    c0c7:	48 89 85 30 fe ff ff 	mov    %rax,-0x1d0(%rbp)
    c0ce:	48 8d 05 5b 90 00 00 	lea    0x905b(%rip),%rax        # 15130 <g_624>
    c0d5:	48 89 85 38 fe ff ff 	mov    %rax,-0x1c8(%rbp)
    c0dc:	48 8d 05 4d 90 00 00 	lea    0x904d(%rip),%rax        # 15130 <g_624>
    c0e3:	48 89 85 40 fe ff ff 	mov    %rax,-0x1c0(%rbp)
    c0ea:	c7 85 08 fd ff ff 69 	movl   $0x73ddf969,-0x2f8(%rbp)
    c0f1:	f9 dd 73 
    c0f4:	48 c7 85 50 fd ff ff 	movq   $0x0,-0x2b0(%rbp)
    c0fb:	00 00 00 00 
    c0ff:	c7 85 0c fd ff ff f9 	movl   $0xfffffff9,-0x2f4(%rbp)
    c106:	ff ff ff 
    c109:	c7 85 50 fe ff ff 84 	movl   $0xdd8a2e84,-0x1b0(%rbp)
    c110:	2e 8a dd 
    c113:	c7 85 54 fe ff ff 84 	movl   $0xdd8a2e84,-0x1ac(%rbp)
    c11a:	2e 8a dd 
    c11d:	c7 85 58 fe ff ff 84 	movl   $0xdd8a2e84,-0x1a8(%rbp)
    c124:	2e 8a dd 
    c127:	c7 85 5c fe ff ff 84 	movl   $0xdd8a2e84,-0x1a4(%rbp)
    c12e:	2e 8a dd 
    c131:	c7 85 60 fe ff ff 84 	movl   $0xdd8a2e84,-0x1a0(%rbp)
    c138:	2e 8a dd 
    c13b:	c7 85 64 fe ff ff 84 	movl   $0xdd8a2e84,-0x19c(%rbp)
    c142:	2e 8a dd 
    c145:	c7 85 68 fe ff ff 84 	movl   $0xdd8a2e84,-0x198(%rbp)
    c14c:	2e 8a dd 
    c14f:	c7 85 6c fe ff ff 84 	movl   $0xdd8a2e84,-0x194(%rbp)
    c156:	2e 8a dd 
    c159:	c7 85 70 fe ff ff 84 	movl   $0xdd8a2e84,-0x190(%rbp)
    c160:	2e 8a dd 
    c163:	c7 85 74 fe ff ff 84 	movl   $0xdd8a2e84,-0x18c(%rbp)
    c16a:	2e 8a dd 
    c16d:	48 c7 85 e0 fd ff ff 	movq   $0x7,-0x220(%rbp)
    c174:	07 00 00 00 
    c178:	48 c7 85 e8 fd ff ff 	movq   $0x7,-0x218(%rbp)
    c17f:	07 00 00 00 
    c183:	48 c7 85 f0 fd ff ff 	movq   $0x7,-0x210(%rbp)
    c18a:	07 00 00 00 
    c18e:	48 c7 85 f8 fd ff ff 	movq   $0x7,-0x208(%rbp)
    c195:	07 00 00 00 
    c199:	48 8d 05 d0 a0 00 00 	lea    0xa0d0(%rip),%rax        # 16270 <g_1095>
    c1a0:	48 89 85 58 fd ff ff 	mov    %rax,-0x2a8(%rbp)
    c1a7:	48 8d 05 d2 9e 00 00 	lea    0x9ed2(%rip),%rax        # 16080 <g_763>
    c1ae:	48 89 85 60 fd ff ff 	mov    %rax,-0x2a0(%rbp)
    c1b5:	48 8d 05 cc 9e 00 00 	lea    0x9ecc(%rip),%rax        # 16088 <g_792>
    c1bc:	48 89 85 68 fd ff ff 	mov    %rax,-0x298(%rbp)
    c1c3:	c7 85 10 fd ff ff 50 	movl   $0x4df23950,-0x2f0(%rbp)
    c1ca:	39 f2 4d 
    c1cd:	c7 85 ec fc ff ff 06 	movl   $0x6,-0x314(%rbp)
    c1d4:	00 00 00 
    c1d7:	c7 85 14 fd ff ff d6 	movl   $0xb5ab79d6,-0x2ec(%rbp)
    c1de:	79 ab b5 
    c1e1:	c7 85 f0 fc ff ff 00 	movl   $0x0,-0x310(%rbp)
    c1e8:	00 00 00 
    c1eb:	eb 1a                	jmp    c207 <func_69+0x1e2>
    c1ed:	8b 85 f0 fc ff ff    	mov    -0x310(%rbp),%eax
    c1f3:	48 98                	cltq   
    c1f5:	c7 84 85 00 fe ff ff 	movl   $0x1,-0x200(%rbp,%rax,4)
    c1fc:	01 00 00 00 
    c200:	83 85 f0 fc ff ff 01 	addl   $0x1,-0x310(%rbp)
    c207:	83 bd f0 fc ff ff 07 	cmpl   $0x7,-0x310(%rbp)
    c20e:	7e dd                	jle    c1ed <func_69+0x1c8>
    c210:	48 8b 15 31 95 00 00 	mov    0x9531(%rip),%rdx        # 15748 <g_71>
    c217:	48 8b 85 30 fd ff ff 	mov    -0x2d0(%rbp),%rax
    c21e:	48 39 c2             	cmp    %rax,%rdx
    c221:	0f 85 27 03 00 00    	jne    c54e <func_69+0x529>
    c227:	48 8d 05 0e 8e 00 00 	lea    0x8e0e(%rip),%rax        # 1503c <g_76>
    c22e:	48 89 85 10 ff ff ff 	mov    %rax,-0xf0(%rbp)
    c235:	48 8d 05 e8 8d 00 00 	lea    0x8de8(%rip),%rax        # 15024 <g_6>
    c23c:	48 89 85 18 ff ff ff 	mov    %rax,-0xe8(%rbp)
    c243:	48 8d 05 f2 8d 00 00 	lea    0x8df2(%rip),%rax        # 1503c <g_76>
    c24a:	48 89 85 20 ff ff ff 	mov    %rax,-0xe0(%rbp)
    c251:	48 c7 85 28 ff ff ff 	movq   $0x0,-0xd8(%rbp)
    c258:	00 00 00 00 
    c25c:	48 c7 85 30 ff ff ff 	movq   $0x0,-0xd0(%rbp)
    c263:	00 00 00 00 
    c267:	48 8d 05 ce 8d 00 00 	lea    0x8dce(%rip),%rax        # 1503c <g_76>
    c26e:	48 89 85 38 ff ff ff 	mov    %rax,-0xc8(%rbp)
    c275:	48 8d 05 a8 8d 00 00 	lea    0x8da8(%rip),%rax        # 15024 <g_6>
    c27c:	48 89 85 40 ff ff ff 	mov    %rax,-0xc0(%rbp)
    c283:	48 8d 05 b2 8d 00 00 	lea    0x8db2(%rip),%rax        # 1503c <g_76>
    c28a:	48 89 85 48 ff ff ff 	mov    %rax,-0xb8(%rbp)
    c291:	48 8d 05 8c 8d 00 00 	lea    0x8d8c(%rip),%rax        # 15024 <g_6>
    c298:	48 89 85 50 ff ff ff 	mov    %rax,-0xb0(%rbp)
    c29f:	48 8d 05 96 8d 00 00 	lea    0x8d96(%rip),%rax        # 1503c <g_76>
    c2a6:	48 89 85 58 ff ff ff 	mov    %rax,-0xa8(%rbp)
    c2ad:	48 c7 85 60 ff ff ff 	movq   $0x0,-0xa0(%rbp)
    c2b4:	00 00 00 00 
    c2b8:	48 c7 85 68 ff ff ff 	movq   $0x0,-0x98(%rbp)
    c2bf:	00 00 00 00 
    c2c3:	48 8d 05 72 8d 00 00 	lea    0x8d72(%rip),%rax        # 1503c <g_76>
    c2ca:	48 89 85 70 ff ff ff 	mov    %rax,-0x90(%rbp)
    c2d1:	48 8d 05 4c 8d 00 00 	lea    0x8d4c(%rip),%rax        # 15024 <g_6>
    c2d8:	48 89 85 78 ff ff ff 	mov    %rax,-0x88(%rbp)
    c2df:	48 8d 05 56 8d 00 00 	lea    0x8d56(%rip),%rax        # 1503c <g_76>
    c2e6:	48 89 45 80          	mov    %rax,-0x80(%rbp)
    c2ea:	48 8d 05 33 8d 00 00 	lea    0x8d33(%rip),%rax        # 15024 <g_6>
    c2f1:	48 89 45 88          	mov    %rax,-0x78(%rbp)
    c2f5:	48 8d 05 40 8d 00 00 	lea    0x8d40(%rip),%rax        # 1503c <g_76>
    c2fc:	48 89 45 90          	mov    %rax,-0x70(%rbp)
    c300:	48 c7 45 98 00 00 00 	movq   $0x0,-0x68(%rbp)
    c307:	00 
    c308:	48 c7 45 a0 00 00 00 	movq   $0x0,-0x60(%rbp)
    c30f:	00 
    c310:	48 8d 05 25 8d 00 00 	lea    0x8d25(%rip),%rax        # 1503c <g_76>
    c317:	48 89 45 a8          	mov    %rax,-0x58(%rbp)
    c31b:	48 8d 05 02 8d 00 00 	lea    0x8d02(%rip),%rax        # 15024 <g_6>
    c322:	48 89 45 b0          	mov    %rax,-0x50(%rbp)
    c326:	48 8d 05 0f 8d 00 00 	lea    0x8d0f(%rip),%rax        # 1503c <g_76>
    c32d:	48 89 45 b8          	mov    %rax,-0x48(%rbp)
    c331:	48 8d 05 ec 8c 00 00 	lea    0x8cec(%rip),%rax        # 15024 <g_6>
    c338:	48 89 45 c0          	mov    %rax,-0x40(%rbp)
    c33c:	48 8d 05 f9 8c 00 00 	lea    0x8cf9(%rip),%rax        # 1503c <g_76>
    c343:	48 89 45 c8          	mov    %rax,-0x38(%rbp)
    c347:	48 c7 45 d0 00 00 00 	movq   $0x0,-0x30(%rbp)
    c34e:	00 
    c34f:	48 c7 45 d8 00 00 00 	movq   $0x0,-0x28(%rbp)
    c356:	00 
    c357:	48 8d 05 de 8c 00 00 	lea    0x8cde(%rip),%rax        # 1503c <g_76>
    c35e:	48 89 45 e0          	mov    %rax,-0x20(%rbp)
    c362:	48 8d 05 bb 8c 00 00 	lea    0x8cbb(%rip),%rax        # 15024 <g_6>
    c369:	48 89 45 e8          	mov    %rax,-0x18(%rbp)
    c36d:	48 8d 05 ec 8c 00 00 	lea    0x8cec(%rip),%rax        # 15060 <g_201>
    c374:	48 89 85 38 fd ff ff 	mov    %rax,-0x2c8(%rbp)
    c37b:	48 8d 85 38 fd ff ff 	lea    -0x2c8(%rbp),%rax
    c382:	48 89 85 a0 fd ff ff 	mov    %rax,-0x260(%rbp)
    c389:	48 c7 85 a8 fd ff ff 	movq   $0x0,-0x258(%rbp)
    c390:	00 00 00 00 
    c394:	48 8d 85 30 fd ff ff 	lea    -0x2d0(%rbp),%rax
    c39b:	48 89 85 b0 fd ff ff 	mov    %rax,-0x250(%rbp)
    c3a2:	48 8d 05 93 8d 00 00 	lea    0x8d93(%rip),%rax        # 1513c <g_838>
    c3a9:	48 89 85 b8 fd ff ff 	mov    %rax,-0x248(%rbp)
    c3b0:	48 8d 05 a9 93 00 00 	lea    0x93a9(%rip),%rax        # 15760 <g_254>
    c3b7:	48 89 85 80 fe ff ff 	mov    %rax,-0x180(%rbp)
    c3be:	48 8d 05 7b 93 00 00 	lea    0x937b(%rip),%rax        # 15740 <g_5>
    c3c5:	48 89 85 88 fe ff ff 	mov    %rax,-0x178(%rbp)
    c3cc:	48 8d 85 10 ff ff ff 	lea    -0xf0(%rbp),%rax
    c3d3:	48 05 c0 00 00 00    	add    $0xc0,%rax
    c3d9:	48 89 85 90 fe ff ff 	mov    %rax,-0x170(%rbp)
    c3e0:	48 8d 05 79 93 00 00 	lea    0x9379(%rip),%rax        # 15760 <g_254>
    c3e7:	48 89 85 98 fe ff ff 	mov    %rax,-0x168(%rbp)
    c3ee:	48 8d 05 4b 93 00 00 	lea    0x934b(%rip),%rax        # 15740 <g_5>
    c3f5:	48 89 85 a0 fe ff ff 	mov    %rax,-0x160(%rbp)
    c3fc:	48 8d 05 5d 93 00 00 	lea    0x935d(%rip),%rax        # 15760 <g_254>
    c403:	48 89 85 a8 fe ff ff 	mov    %rax,-0x158(%rbp)
    c40a:	48 8d 05 4f 93 00 00 	lea    0x934f(%rip),%rax        # 15760 <g_254>
    c411:	48 89 85 b0 fe ff ff 	mov    %rax,-0x150(%rbp)
    c418:	48 8d 05 41 93 00 00 	lea    0x9341(%rip),%rax        # 15760 <g_254>
    c41f:	48 89 85 b8 fe ff ff 	mov    %rax,-0x148(%rbp)
    c426:	48 8d 05 33 93 00 00 	lea    0x9333(%rip),%rax        # 15760 <g_254>
    c42d:	48 89 85 c0 fe ff ff 	mov    %rax,-0x140(%rbp)
    c434:	48 8d 05 25 93 00 00 	lea    0x9325(%rip),%rax        # 15760 <g_254>
    c43b:	48 89 85 c8 fe ff ff 	mov    %rax,-0x138(%rbp)
    c442:	48 8d 05 17 93 00 00 	lea    0x9317(%rip),%rax        # 15760 <g_254>
    c449:	48 89 85 d0 fe ff ff 	mov    %rax,-0x130(%rbp)
    c450:	48 8d 85 10 ff ff ff 	lea    -0xf0(%rbp),%rax
    c457:	48 05 c0 00 00 00    	add    $0xc0,%rax
    c45d:	48 89 85 d8 fe ff ff 	mov    %rax,-0x128(%rbp)
    c464:	48 8d 05 f5 92 00 00 	lea    0x92f5(%rip),%rax        # 15760 <g_254>
    c46b:	48 89 85 e0 fe ff ff 	mov    %rax,-0x120(%rbp)
    c472:	48 8d 05 c7 92 00 00 	lea    0x92c7(%rip),%rax        # 15740 <g_5>
    c479:	48 89 85 e8 fe ff ff 	mov    %rax,-0x118(%rbp)
    c480:	48 8d 05 d9 92 00 00 	lea    0x92d9(%rip),%rax        # 15760 <g_254>
    c487:	48 89 85 f0 fe ff ff 	mov    %rax,-0x110(%rbp)
    c48e:	48 8d 05 cb 92 00 00 	lea    0x92cb(%rip),%rax        # 15760 <g_254>
    c495:	48 89 85 f8 fe ff ff 	mov    %rax,-0x108(%rbp)
    c49c:	48 8d 05 9d 92 00 00 	lea    0x929d(%rip),%rax        # 15740 <g_5>
    c4a3:	48 89 85 00 ff ff ff 	mov    %rax,-0x100(%rbp)
    c4aa:	48 8d 05 af 92 00 00 	lea    0x92af(%rip),%rax        # 15760 <g_254>
    c4b1:	48 89 85 08 ff ff ff 	mov    %rax,-0xf8(%rbp)
    c4b8:	48 c7 85 40 fd ff ff 	movq   $0x0,-0x2c0(%rbp)
    c4bf:	00 00 00 00 
    c4c3:	48 8d 85 40 fd ff ff 	lea    -0x2c0(%rbp),%rax
    c4ca:	48 89 85 c0 fd ff ff 	mov    %rax,-0x240(%rbp)
    c4d1:	c7 85 28 fd ff ff 43 	movl   $0x52d98043,-0x2d8(%rbp)
    c4d8:	80 d9 52 
    c4db:	c6 85 e0 fc ff ff f6 	movb   $0xf6,-0x320(%rbp)
    c4e2:	48 c7 85 c8 fd ff ff 	movq   $0x4,-0x238(%rbp)
    c4e9:	04 00 00 00 
    c4ed:	48 c7 85 d0 fd ff ff 	movq   $0x0,-0x230(%rbp)
    c4f4:	00 00 00 00 
    c4f8:	48 8d 05 b1 94 00 00 	lea    0x94b1(%rip),%rax        # 159b0 <g_637>
    c4ff:	48 89 85 d8 fd ff ff 	mov    %rax,-0x228(%rbp)
    c506:	66 c7 85 e2 fc ff ff 	movw   $0x1873,-0x31e(%rbp)
    c50d:	73 18 
    c50f:	c7 85 2c fd ff ff 28 	movl   $0x35cb2f28,-0x2d4(%rbp)
    c516:	2f cb 35 
    c519:	66 c7 85 e4 fc ff ff 	movw   $0xfffc,-0x31c(%rbp)
    c520:	fc ff 
    c522:	c6 85 e1 fc ff ff 4d 	movb   $0x4d,-0x31f(%rbp)
    c529:	66 c7 85 e6 fc ff ff 	movw   $0x1,-0x31a(%rbp)
    c530:	01 00 
    c532:	48 8b 05 07 92 00 00 	mov    0x9207(%rip),%rax        # 15740 <g_5>
    c539:	8b 00                	mov    (%rax),%eax
    c53b:	89 05 fb 8a 00 00    	mov    %eax,0x8afb(%rip)        # 1503c <g_76>
    c541:	48 0f bf 85 dc fc ff 	movswq -0x324(%rbp),%rax
    c548:	ff 
    c549:	e9 2e 02 00 00       	jmpq   c77c <func_69+0x757>
    c54e:	c7 85 18 fd ff ff f8 	movl   $0xfffffff8,-0x2e8(%rbp)
    c555:	ff ff ff 
    c558:	48 c7 85 70 fd ff ff 	movq   $0x0,-0x290(%rbp)
    c55f:	00 00 00 00 
    c563:	c7 85 1c fd ff ff f8 	movl   $0xfffffff8,-0x2e4(%rbp)
    c56a:	ff ff ff 
    c56d:	48 8d 05 e0 8b 00 00 	lea    0x8be0(%rip),%rax        # 15154 <g_1024+0x4>
    c574:	48 89 85 78 fd ff ff 	mov    %rax,-0x288(%rbp)
    c57b:	48 8d 85 ec fc ff ff 	lea    -0x314(%rbp),%rax
    c582:	48 89 85 80 fd ff ff 	mov    %rax,-0x280(%rbp)
    c589:	48 8d 85 00 fe ff ff 	lea    -0x200(%rbp),%rax
    c590:	48 83 c0 18          	add    $0x18,%rax
    c594:	48 89 85 88 fd ff ff 	mov    %rax,-0x278(%rbp)
    c59b:	48 8d 85 e8 fc ff ff 	lea    -0x318(%rbp),%rax
    c5a2:	48 89 85 90 fd ff ff 	mov    %rax,-0x270(%rbp)
    c5a9:	48 c7 85 98 fd ff ff 	movq   $0x0,-0x268(%rbp)
    c5b0:	00 00 00 00 
    c5b4:	48 8d 85 00 fe ff ff 	lea    -0x200(%rbp),%rax
    c5bb:	48 83 c0 18          	add    $0x18,%rax
    c5bf:	48 89 85 80 fe ff ff 	mov    %rax,-0x180(%rbp)
    c5c6:	48 8d 85 00 fe ff ff 	lea    -0x200(%rbp),%rax
    c5cd:	48 83 c0 18          	add    $0x18,%rax
    c5d1:	48 89 85 88 fe ff ff 	mov    %rax,-0x178(%rbp)
    c5d8:	48 8d 85 00 fe ff ff 	lea    -0x200(%rbp),%rax
    c5df:	48 83 c0 18          	add    $0x18,%rax
    c5e3:	48 89 85 90 fe ff ff 	mov    %rax,-0x170(%rbp)
    c5ea:	48 8d 85 00 fe ff ff 	lea    -0x200(%rbp),%rax
    c5f1:	48 83 c0 18          	add    $0x18,%rax
    c5f5:	48 89 85 98 fe ff ff 	mov    %rax,-0x168(%rbp)
    c5fc:	48 8d 85 00 fe ff ff 	lea    -0x200(%rbp),%rax
    c603:	48 83 c0 18          	add    $0x18,%rax
    c607:	48 89 85 a0 fe ff ff 	mov    %rax,-0x160(%rbp)
    c60e:	48 8d 85 00 fe ff ff 	lea    -0x200(%rbp),%rax
    c615:	48 83 c0 18          	add    $0x18,%rax
    c619:	48 89 85 a8 fe ff ff 	mov    %rax,-0x158(%rbp)
    c620:	c7 85 20 fd ff ff 8a 	movl   $0xfb24338a,-0x2e0(%rbp)
    c627:	33 24 fb 
    c62a:	c7 05 08 8a 00 00 00 	movl   $0x0,0x8a08(%rip)        # 1503c <g_76>
    c631:	00 00 00 
    c634:	90                   	nop
    c635:	8b 05 01 8a 00 00    	mov    0x8a01(%rip),%eax        # 1503c <g_76>
    c63b:	83 f8 10             	cmp    $0x10,%eax
    c63e:	0f 85 29 01 00 00    	jne    c76d <func_69+0x748>
    c644:	66 c7 85 10 ff ff ff 	movw   $0xac55,-0xf0(%rbp)
    c64b:	55 ac 
    c64d:	66 c7 85 12 ff ff ff 	movw   $0xac55,-0xee(%rbp)
    c654:	55 ac 
    c656:	66 c7 85 14 ff ff ff 	movw   $0xac55,-0xec(%rbp)
    c65d:	55 ac 
    c65f:	66 c7 85 16 ff ff ff 	movw   $0xac55,-0xea(%rbp)
    c666:	55 ac 
    c668:	66 c7 85 18 ff ff ff 	movw   $0xac55,-0xe8(%rbp)
    c66f:	55 ac 
    c671:	66 c7 85 1a ff ff ff 	movw   $0xac55,-0xe6(%rbp)
    c678:	55 ac 
    c67a:	66 c7 85 1c ff ff ff 	movw   $0xac55,-0xe4(%rbp)
    c681:	55 ac 
    c683:	66 c7 85 1e ff ff ff 	movw   $0xac55,-0xe2(%rbp)
    c68a:	55 ac 
    c68c:	66 c7 85 20 ff ff ff 	movw   $0xac55,-0xe0(%rbp)
    c693:	55 ac 
    c695:	66 c7 85 22 ff ff ff 	movw   $0x0,-0xde(%rbp)
    c69c:	00 00 
    c69e:	66 c7 85 24 ff ff ff 	movw   $0xffff,-0xdc(%rbp)
    c6a5:	ff ff 
    c6a7:	66 c7 85 26 ff ff ff 	movw   $0x0,-0xda(%rbp)
    c6ae:	00 00 
    c6b0:	66 c7 85 28 ff ff ff 	movw   $0xffff,-0xd8(%rbp)
    c6b7:	ff ff 
    c6b9:	66 c7 85 2a ff ff ff 	movw   $0x0,-0xd6(%rbp)
    c6c0:	00 00 
    c6c2:	66 c7 85 2c ff ff ff 	movw   $0xffff,-0xd4(%rbp)
    c6c9:	ff ff 
    c6cb:	66 c7 85 2e ff ff ff 	movw   $0x0,-0xd2(%rbp)
    c6d2:	00 00 
    c6d4:	66 c7 85 30 ff ff ff 	movw   $0xffff,-0xd0(%rbp)
    c6db:	ff ff 
    c6dd:	66 c7 85 32 ff ff ff 	movw   $0x0,-0xce(%rbp)
    c6e4:	00 00 
    c6e6:	66 c7 85 34 ff ff ff 	movw   $0xac55,-0xcc(%rbp)
    c6ed:	55 ac 
    c6ef:	66 c7 85 36 ff ff ff 	movw   $0xac55,-0xca(%rbp)
    c6f6:	55 ac 
    c6f8:	66 c7 85 38 ff ff ff 	movw   $0xac55,-0xc8(%rbp)
    c6ff:	55 ac 
    c701:	66 c7 85 3a ff ff ff 	movw   $0xac55,-0xc6(%rbp)
    c708:	55 ac 
    c70a:	66 c7 85 3c ff ff ff 	movw   $0xac55,-0xc4(%rbp)
    c711:	55 ac 
    c713:	66 c7 85 3e ff ff ff 	movw   $0xac55,-0xc2(%rbp)
    c71a:	55 ac 
    c71c:	66 c7 85 40 ff ff ff 	movw   $0xac55,-0xc0(%rbp)
    c723:	55 ac 
    c725:	66 c7 85 42 ff ff ff 	movw   $0xac55,-0xbe(%rbp)
    c72c:	55 ac 
    c72e:	66 c7 85 44 ff ff ff 	movw   $0xac55,-0xbc(%rbp)
    c735:	55 ac 
    c737:	c7 85 24 fd ff ff 32 	movl   $0x29e56132,-0x2dc(%rbp)
    c73e:	61 e5 29 
    c741:	48 8b 05 48 99 00 00 	mov    0x9948(%rip),%rax        # 16090 <g_857>
    c748:	8b 00                	mov    (%rax),%eax
    c74a:	66 89 85 28 ff ff ff 	mov    %ax,-0xd8(%rbp)
    c751:	48 8b 85 48 fd ff ff 	mov    -0x2b8(%rbp),%rax
    c758:	8b 00                	mov    (%rax),%eax
    c75a:	31 85 24 fd ff ff    	xor    %eax,-0x2dc(%rbp)
    c760:	48 8b 85 48 fd ff ff 	mov    -0x2b8(%rbp),%rax
    c767:	8b 00                	mov    (%rax),%eax
    c769:	48 98                	cltq   
    c76b:	eb 0f                	jmp    c77c <func_69+0x757>
    c76d:	83 85 20 fd ff ff 01 	addl   $0x1,-0x2e0(%rbp)
    c774:	48 0f bf 85 dc fc ff 	movswq -0x324(%rbp),%rax
    c77b:	ff 
    c77c:	48 8b 4d f8          	mov    -0x8(%rbp),%rcx
    c780:	64 48 33 0c 25 28 00 	xor    %fs:0x28,%rcx
    c787:	00 00 
    c789:	74 05                	je     c790 <func_69+0x76b>
    c78b:	e8 e0 88 ff ff       	callq  5070 <__stack_chk_fail@plt>
    c790:	c9                   	leaveq 
    c791:	c3                   	retq   

000000000000c792 <func_77>:
    c792:	f3 0f 1e fa          	endbr64 
    c796:	55                   	push   %rbp
    c797:	48 89 e5             	mov    %rsp,%rbp
    c79a:	53                   	push   %rbx
    c79b:	48 81 ec d8 00 00 00 	sub    $0xd8,%rsp
    c7a2:	89 bd 2c ff ff ff    	mov    %edi,-0xd4(%rbp)
    c7a8:	89 b5 28 ff ff ff    	mov    %esi,-0xd8(%rbp)
    c7ae:	89 d0                	mov    %edx,%eax
    c7b0:	88 85 24 ff ff ff    	mov    %al,-0xdc(%rbp)
    c7b6:	64 48 8b 04 25 28 00 	mov    %fs:0x28,%rax
    c7bd:	00 00 
    c7bf:	48 89 45 e8          	mov    %rax,-0x18(%rbp)
    c7c3:	31 c0                	xor    %eax,%eax
    c7c5:	66 c7 85 3a ff ff ff 	movw   $0x1,-0xc6(%rbp)
    c7cc:	01 00 
    c7ce:	48 8d 05 93 88 00 00 	lea    0x8893(%rip),%rax        # 15068 <g_212>
    c7d5:	48 89 85 40 ff ff ff 	mov    %rax,-0xc0(%rbp)
    c7dc:	48 8d 05 6d 8f 00 00 	lea    0x8f6d(%rip),%rax        # 15750 <g_92>
    c7e3:	48 89 45 90          	mov    %rax,-0x70(%rbp)
    c7e7:	48 8d 05 62 8f 00 00 	lea    0x8f62(%rip),%rax        # 15750 <g_92>
    c7ee:	48 89 45 98          	mov    %rax,-0x68(%rbp)
    c7f2:	48 8d 05 57 8f 00 00 	lea    0x8f57(%rip),%rax        # 15750 <g_92>
    c7f9:	48 89 45 a0          	mov    %rax,-0x60(%rbp)
    c7fd:	48 8d 05 4c 8f 00 00 	lea    0x8f4c(%rip),%rax        # 15750 <g_92>
    c804:	48 89 45 a8          	mov    %rax,-0x58(%rbp)
    c808:	48 8d 05 41 8f 00 00 	lea    0x8f41(%rip),%rax        # 15750 <g_92>
    c80f:	48 89 45 b0          	mov    %rax,-0x50(%rbp)
    c813:	48 8d 05 36 8f 00 00 	lea    0x8f36(%rip),%rax        # 15750 <g_92>
    c81a:	48 89 45 b8          	mov    %rax,-0x48(%rbp)
    c81e:	48 8d 05 2b 8f 00 00 	lea    0x8f2b(%rip),%rax        # 15750 <g_92>
    c825:	48 89 45 c0          	mov    %rax,-0x40(%rbp)
    c829:	48 8d 05 20 8f 00 00 	lea    0x8f20(%rip),%rax        # 15750 <g_92>
    c830:	48 89 45 c8          	mov    %rax,-0x38(%rbp)
    c834:	48 8d 05 15 8f 00 00 	lea    0x8f15(%rip),%rax        # 15750 <g_92>
    c83b:	48 89 45 d0          	mov    %rax,-0x30(%rbp)
    c83f:	48 8d 05 0a 8f 00 00 	lea    0x8f0a(%rip),%rax        # 15750 <g_92>
    c846:	48 89 45 d8          	mov    %rax,-0x28(%rbp)
    c84a:	48 8d 05 97 88 00 00 	lea    0x8897(%rip),%rax        # 150e8 <g_338>
    c851:	48 89 85 48 ff ff ff 	mov    %rax,-0xb8(%rbp)
    c858:	48 c7 85 50 ff ff ff 	movq   $0x0,-0xb0(%rbp)
    c85f:	00 00 00 00 
    c863:	48 8d 05 fe 8e 00 00 	lea    0x8efe(%rip),%rax        # 15768 <g_498>
    c86a:	48 89 85 58 ff ff ff 	mov    %rax,-0xa8(%rbp)
    c871:	48 8d 05 de 87 00 00 	lea    0x87de(%rip),%rax        # 15056 <g_174>
    c878:	48 89 85 60 ff ff ff 	mov    %rax,-0xa0(%rbp)
    c87f:	48 8d 05 d0 87 00 00 	lea    0x87d0(%rip),%rax        # 15056 <g_174>
    c886:	48 89 85 68 ff ff ff 	mov    %rax,-0x98(%rbp)
    c88d:	48 8d 05 50 88 00 00 	lea    0x8850(%rip),%rax        # 150e4 <g_327>
    c894:	48 89 85 70 ff ff ff 	mov    %rax,-0x90(%rbp)
    c89b:	48 8d 05 b4 87 00 00 	lea    0x87b4(%rip),%rax        # 15056 <g_174>
    c8a2:	48 89 85 78 ff ff ff 	mov    %rax,-0x88(%rbp)
    c8a9:	48 8d 05 a6 87 00 00 	lea    0x87a6(%rip),%rax        # 15056 <g_174>
    c8b0:	48 89 45 80          	mov    %rax,-0x80(%rbp)
    c8b4:	48 8d 05 29 88 00 00 	lea    0x8829(%rip),%rax        # 150e4 <g_327>
    c8bb:	48 89 45 88          	mov    %rax,-0x78(%rbp)
    c8bf:	c7 85 3c ff ff ff 00 	movl   $0x0,-0xc4(%rbp)
    c8c6:	00 00 00 
    c8c9:	48 8b 75 90          	mov    -0x70(%rbp),%rsi
    c8cd:	0f b7 85 3a ff ff ff 	movzwl -0xc6(%rbp),%eax
    c8d4:	48 8b 95 48 ff ff ff 	mov    -0xb8(%rbp),%rdx
    c8db:	48 8d 0d 6e 8e 00 00 	lea    0x8e6e(%rip),%rcx        # 15750 <g_92>
    c8e2:	48 89 c7             	mov    %rax,%rdi
    c8e5:	e8 24 28 00 00       	callq  f10e <func_84>
    c8ea:	48 8b 95 58 ff ff ff 	mov    -0xa8(%rbp),%rdx
    c8f1:	48 89 02             	mov    %rax,(%rdx)
    c8f4:	48 8b 85 58 ff ff ff 	mov    -0xa8(%rbp),%rax
    c8fb:	48 8b 00             	mov    (%rax),%rax
    c8fe:	48 39 85 40 ff ff ff 	cmp    %rax,-0xc0(%rbp)
    c905:	0f 94 c0             	sete   %al
    c908:	0f b6 d0             	movzbl %al,%edx
    c90b:	0f b7 85 3a ff ff ff 	movzwl -0xc6(%rbp),%eax
    c912:	0f be c0             	movsbl %al,%eax
    c915:	89 d6                	mov    %edx,%esi
    c917:	89 c7                	mov    %eax,%edi
    c919:	e8 83 89 ff ff       	callq  52a1 <safe_lshift_func_int8_t_s_s>
    c91e:	84 c0                	test   %al,%al
    c920:	75 5c                	jne    c97e <func_77+0x1ec>
    c922:	0f b6 9d 24 ff ff ff 	movzbl -0xdc(%rbp),%ebx
    c929:	8b 85 28 ff ff ff    	mov    -0xd8(%rbp),%eax
    c92f:	0f b7 c0             	movzwl %ax,%eax
    c932:	be 0d 00 00 00       	mov    $0xd,%esi
    c937:	89 c7                	mov    %eax,%edi
    c939:	e8 3c 95 ff ff       	callq  5e7a <safe_rshift_func_uint16_t_u_u>
    c93e:	0f be d0             	movsbl %al,%edx
    c941:	8b 85 3c ff ff ff    	mov    -0xc4(%rbp),%eax
    c947:	0f be c0             	movsbl %al,%eax
    c94a:	89 d6                	mov    %edx,%esi
    c94c:	89 c7                	mov    %eax,%edi
    c94e:	e8 de 88 ff ff       	callq  5231 <safe_mod_func_int8_t_s_s>
    c953:	0f b7 05 8a 87 00 00 	movzwl 0x878a(%rip),%eax        # 150e4 <g_327>
    c95a:	83 c0 01             	add    $0x1,%eax
    c95d:	66 89 05 80 87 00 00 	mov    %ax,0x8780(%rip)        # 150e4 <g_327>
    c964:	0f b7 05 79 87 00 00 	movzwl 0x8779(%rip),%eax        # 150e4 <g_327>
    c96b:	83 f0 02             	xor    $0x2,%eax
    c96e:	0f b7 c0             	movzwl %ax,%eax
    c971:	89 de                	mov    %ebx,%esi
    c973:	89 c7                	mov    %eax,%edi
    c975:	e8 8b 8c ff ff       	callq  5605 <safe_sub_func_int32_t_s_s>
    c97a:	85 c0                	test   %eax,%eax
    c97c:	74 07                	je     c985 <func_77+0x1f3>
    c97e:	b9 01 00 00 00       	mov    $0x1,%ecx
    c983:	eb 05                	jmp    c98a <func_77+0x1f8>
    c985:	b9 00 00 00 00       	mov    $0x0,%ecx
    c98a:	48 8b 05 ff 96 00 00 	mov    0x96ff(%rip),%rax        # 16090 <g_857>
    c991:	8b 10                	mov    (%rax),%edx
    c993:	21 ca                	and    %ecx,%edx
    c995:	89 10                	mov    %edx,(%rax)
    c997:	48 8d 05 86 86 00 00 	lea    0x8686(%rip),%rax        # 15024 <g_6>
    c99e:	48 8b 5d e8          	mov    -0x18(%rbp),%rbx
    c9a2:	64 48 33 1c 25 28 00 	xor    %fs:0x28,%rbx
    c9a9:	00 00 
    c9ab:	74 05                	je     c9b2 <func_77+0x220>
    c9ad:	e8 be 86 ff ff       	callq  5070 <__stack_chk_fail@plt>
    c9b2:	48 81 c4 d8 00 00 00 	add    $0xd8,%rsp
    c9b9:	5b                   	pop    %rbx
    c9ba:	5d                   	pop    %rbp
    c9bb:	c3                   	retq   

000000000000c9bc <func_82>:
    c9bc:	f3 0f 1e fa          	endbr64 
    c9c0:	55                   	push   %rbp
    c9c1:	48 89 e5             	mov    %rsp,%rbp
    c9c4:	41 57                	push   %r15
    c9c6:	41 56                	push   %r14
    c9c8:	41 55                	push   %r13
    c9ca:	41 54                	push   %r12
    c9cc:	53                   	push   %rbx
    c9cd:	48 81 ec 78 0b 00 00 	sub    $0xb78,%rsp
    c9d4:	48 89 bd 78 f4 ff ff 	mov    %rdi,-0xb88(%rbp)
    c9db:	64 48 8b 04 25 28 00 	mov    %fs:0x28,%rax
    c9e2:	00 00 
    c9e4:	48 89 45 c8          	mov    %rax,-0x38(%rbp)
    c9e8:	31 c0                	xor    %eax,%eax
    c9ea:	48 8d 05 5f 8d 00 00 	lea    0x8d5f(%rip),%rax        # 15750 <g_92>
    c9f1:	48 89 85 68 f5 ff ff 	mov    %rax,-0xa98(%rbp)
    c9f8:	c7 85 f4 f4 ff ff 6a 	movl   $0xb384f36a,-0xb0c(%rbp)
    c9ff:	f3 84 b3 
    ca02:	48 8d 05 4b 86 00 00 	lea    0x864b(%rip),%rax        # 15054 <g_141>
    ca09:	48 89 85 28 f5 ff ff 	mov    %rax,-0xad8(%rbp)
    ca10:	48 8d 05 51 86 00 00 	lea    0x8651(%rip),%rax        # 15068 <g_212>
    ca17:	48 89 85 30 f5 ff ff 	mov    %rax,-0xad0(%rbp)
    ca1e:	c6 85 8b f4 ff ff 1c 	movb   $0x1c,-0xb75(%rbp)
    ca25:	c7 85 9c f4 ff ff 3f 	movl   $0x7c4e963f,-0xb64(%rbp)
    ca2c:	96 4e 7c 
    ca2f:	c7 85 f8 f4 ff ff ff 	movl   $0xffffffff,-0xb08(%rbp)
    ca36:	ff ff ff 
    ca39:	c7 85 a0 f4 ff ff 00 	movl   $0x0,-0xb60(%rbp)
    ca40:	00 00 00 
    ca43:	66 c7 85 92 f4 ff ff 	movw   $0xc5,-0xb6e(%rbp)
    ca4a:	c5 00 
    ca4c:	c7 85 a4 f4 ff ff 03 	movl   $0x3,-0xb5c(%rbp)
    ca53:	00 00 00 
    ca56:	c7 85 fc f4 ff ff 18 	movl   $0x1395b518,-0xb04(%rbp)
    ca5d:	b5 95 13 
    ca60:	48 c7 85 38 f5 ff ff 	movq   $0xfffffffffffffffc,-0xac8(%rbp)
    ca67:	fc ff ff ff 
    ca6b:	48 8d 05 ce 8c 00 00 	lea    0x8cce(%rip),%rax        # 15740 <g_5>
    ca72:	48 89 85 40 f5 ff ff 	mov    %rax,-0xac0(%rbp)
    ca79:	48 8d 85 40 f5 ff ff 	lea    -0xac0(%rbp),%rax
    ca80:	48 89 85 70 f5 ff ff 	mov    %rax,-0xa90(%rbp)
    ca87:	66 c7 85 90 f4 ff ff 	movw   $0x3,-0xb70(%rbp)
    ca8e:	03 00 
    ca90:	c7 85 e8 f4 ff ff 01 	movl   $0x1,-0xb18(%rbp)
    ca97:	00 00 00 
    ca9a:	c7 85 ec f4 ff ff 04 	movl   $0x4,-0xb14(%rbp)
    caa1:	00 00 00 
    caa4:	c7 85 a8 f4 ff ff ad 	movl   $0x5fc29aad,-0xb58(%rbp)
    caab:	9a c2 5f 
    caae:	c7 85 ac f4 ff ff 08 	movl   $0x8,-0xb54(%rbp)
    cab5:	00 00 00 
    cab8:	c7 85 b0 f4 ff ff 44 	movl   $0x2b7a4644,-0xb50(%rbp)
    cabf:	46 7a 2b 
    cac2:	c7 85 b4 f4 ff ff f8 	movl   $0xfffffff8,-0xb4c(%rbp)
    cac9:	ff ff ff 
    cacc:	48 c7 85 78 f5 ff ff 	movq   $0x0,-0xa88(%rbp)
    cad3:	00 00 00 00 
    cad7:	48 8d 85 b4 f4 ff ff 	lea    -0xb4c(%rbp),%rax
    cade:	48 89 85 80 f5 ff ff 	mov    %rax,-0xa80(%rbp)
    cae5:	48 8d 05 34 86 00 00 	lea    0x8634(%rip),%rax        # 15120 <g_380+0x20>
    caec:	48 89 85 88 f5 ff ff 	mov    %rax,-0xa78(%rbp)
    caf3:	48 c7 85 90 f5 ff ff 	movq   $0x0,-0xa70(%rbp)
    cafa:	00 00 00 00 
    cafe:	48 c7 85 98 f5 ff ff 	movq   $0x0,-0xa68(%rbp)
    cb05:	00 00 00 00 
    cb09:	48 8d 85 a8 f4 ff ff 	lea    -0xb58(%rbp),%rax
    cb10:	48 89 85 a0 f5 ff ff 	mov    %rax,-0xa60(%rbp)
    cb17:	48 8d 85 b0 f4 ff ff 	lea    -0xb50(%rbp),%rax
    cb1e:	48 89 85 10 f7 ff ff 	mov    %rax,-0x8f0(%rbp)
    cb25:	48 8d 85 b0 f4 ff ff 	lea    -0xb50(%rbp),%rax
    cb2c:	48 89 85 18 f7 ff ff 	mov    %rax,-0x8e8(%rbp)
    cb33:	48 8d 85 ac f4 ff ff 	lea    -0xb54(%rbp),%rax
    cb3a:	48 89 85 20 f7 ff ff 	mov    %rax,-0x8e0(%rbp)
    cb41:	48 8d 85 b0 f4 ff ff 	lea    -0xb50(%rbp),%rax
    cb48:	48 89 85 28 f7 ff ff 	mov    %rax,-0x8d8(%rbp)
    cb4f:	48 8d 85 b0 f4 ff ff 	lea    -0xb50(%rbp),%rax
    cb56:	48 89 85 30 f7 ff ff 	mov    %rax,-0x8d0(%rbp)
    cb5d:	48 8d 85 ac f4 ff ff 	lea    -0xb54(%rbp),%rax
    cb64:	48 89 85 38 f7 ff ff 	mov    %rax,-0x8c8(%rbp)
    cb6b:	48 8d 85 b0 f4 ff ff 	lea    -0xb50(%rbp),%rax
    cb72:	48 89 85 40 f7 ff ff 	mov    %rax,-0x8c0(%rbp)
    cb79:	48 8d 85 b0 f4 ff ff 	lea    -0xb50(%rbp),%rax
    cb80:	48 89 85 48 f7 ff ff 	mov    %rax,-0x8b8(%rbp)
    cb87:	c7 85 00 f5 ff ff 77 	movl   $0x5d1e2277,-0xb00(%rbp)
    cb8e:	22 1e 5d 
    cb91:	c6 85 8d f4 ff ff 00 	movb   $0x0,-0xb73(%rbp)
    cb98:	48 b8 82 56 ff 8b 2f 	movabs $0xbfe7f72f8bff5682,%rax
    cb9f:	f7 e7 bf 
    cba2:	48 89 85 a8 f5 ff ff 	mov    %rax,-0xa58(%rbp)
    cba9:	c7 85 f0 f4 ff ff 00 	movl   $0x0,-0xb10(%rbp)
    cbb0:	00 00 00 
    cbb3:	eb 1b                	jmp    cbd0 <func_82+0x214>
    cbb5:	8b 85 f0 f4 ff ff    	mov    -0xb10(%rbp),%eax
    cbbb:	48 98                	cltq   
    cbbd:	48 c7 84 c5 f8 f6 ff 	movq   $0x0,-0x908(%rbp,%rax,8)
    cbc4:	ff 00 00 00 00 
    cbc9:	83 85 f0 f4 ff ff 01 	addl   $0x1,-0xb10(%rbp)
    cbd0:	83 bd f0 f4 ff ff 00 	cmpl   $0x0,-0xb10(%rbp)
    cbd7:	7e dc                	jle    cbb5 <func_82+0x1f9>
    cbd9:	48 8d 05 70 8b 00 00 	lea    0x8b70(%rip),%rax        # 15750 <g_92>
    cbe0:	48 39 85 68 f5 ff ff 	cmp    %rax,-0xa98(%rbp)
    cbe7:	0f 85 b1 08 00 00    	jne    d49e <func_82+0xae2>
    cbed:	48 8d 05 30 84 00 00 	lea    0x8430(%rip),%rax        # 15024 <g_6>
    cbf4:	48 89 85 60 f5 ff ff 	mov    %rax,-0xaa0(%rbp)
    cbfb:	48 c7 85 90 f6 ff ff 	movq   $0x0,-0x970(%rbp)
    cc02:	00 00 00 00 
    cc06:	48 8d 85 60 f5 ff ff 	lea    -0xaa0(%rbp),%rax
    cc0d:	48 89 85 98 f6 ff ff 	mov    %rax,-0x968(%rbp)
    cc14:	48 8d 05 25 84 00 00 	lea    0x8425(%rip),%rax        # 15040 <g_100>
    cc1b:	48 89 85 a0 f6 ff ff 	mov    %rax,-0x960(%rbp)
    cc22:	48 c7 85 a8 f6 ff ff 	movq   $0x0,-0x958(%rbp)
    cc29:	00 00 00 00 
    cc2d:	48 8d 05 1c 8b 00 00 	lea    0x8b1c(%rip),%rax        # 15750 <g_92>
    cc34:	48 89 85 b0 f6 ff ff 	mov    %rax,-0x950(%rbp)
    cc3b:	48 8d 85 40 fb ff ff 	lea    -0x4c0(%rbp),%rax
    cc42:	48 8d 15 57 46 00 00 	lea    0x4657(%rip),%rdx        # 112a0 <g_2031+0x168>
    cc49:	b9 69 00 00 00       	mov    $0x69,%ecx
    cc4e:	48 89 c7             	mov    %rax,%rdi
    cc51:	48 89 d6             	mov    %rdx,%rsi
    cc54:	f3 48 a5             	rep movsq %ds:(%rsi),%es:(%rdi)
    cc57:	48 c7 85 b8 f6 ff ff 	movq   $0xfffffffffffffffe,-0x948(%rbp)
    cc5e:	fe ff ff ff 
    cc62:	48 8d 85 40 fb ff ff 	lea    -0x4c0(%rbp),%rax
    cc69:	48 05 a8 02 00 00    	add    $0x2a8,%rax
    cc6f:	48 89 85 c0 f6 ff ff 	mov    %rax,-0x940(%rbp)
    cc76:	48 b8 e8 be 07 24 07 	movabs $0xee565b072407bee8,%rax
    cc7d:	5b 56 ee 
    cc80:	48 89 85 c8 f6 ff ff 	mov    %rax,-0x938(%rbp)
    cc87:	48 8d 05 56 84 00 00 	lea    0x8456(%rip),%rax        # 150e4 <g_327>
    cc8e:	48 89 85 d0 f6 ff ff 	mov    %rax,-0x930(%rbp)
    cc95:	48 b8 88 81 d3 c7 14 	movabs $0x4c15ba14c7d38188,%rax
    cc9c:	ba 15 4c 
    cc9f:	48 89 85 d8 f6 ff ff 	mov    %rax,-0x928(%rbp)
    cca6:	c7 85 1c f5 ff ff fc 	movl   $0xfffffffc,-0xae4(%rbp)
    ccad:	ff ff ff 
    ccb0:	c7 85 20 f5 ff ff 73 	movl   $0xbf166873,-0xae0(%rbp)
    ccb7:	68 16 bf 
    ccba:	48 b8 c2 20 57 5f 54 	movabs $0xbda94d545f5720c2,%rax
    ccc1:	4d a9 bd 
    ccc4:	48 89 85 20 f8 ff ff 	mov    %rax,-0x7e0(%rbp)
    cccb:	48 bb 70 7e 13 8e 61 	movabs $0xde3d14618e137e70,%rbx
    ccd2:	14 3d de 
    ccd5:	48 89 9d 28 f8 ff ff 	mov    %rbx,-0x7d8(%rbp)
    ccdc:	48 89 85 30 f8 ff ff 	mov    %rax,-0x7d0(%rbp)
    cce3:	48 89 85 38 f8 ff ff 	mov    %rax,-0x7c8(%rbp)
    ccea:	48 89 9d 40 f8 ff ff 	mov    %rbx,-0x7c0(%rbp)
    ccf1:	48 89 85 48 f8 ff ff 	mov    %rax,-0x7b8(%rbp)
    ccf8:	48 89 85 50 f8 ff ff 	mov    %rax,-0x7b0(%rbp)
    ccff:	48 89 9d 58 f8 ff ff 	mov    %rbx,-0x7a8(%rbp)
    cd06:	48 89 85 60 f8 ff ff 	mov    %rax,-0x7a0(%rbp)
    cd0d:	48 89 85 68 f8 ff ff 	mov    %rax,-0x798(%rbp)
    cd14:	48 89 9d 70 f8 ff ff 	mov    %rbx,-0x790(%rbp)
    cd1b:	48 89 85 78 f8 ff ff 	mov    %rax,-0x788(%rbp)
    cd22:	48 89 85 80 f8 ff ff 	mov    %rax,-0x780(%rbp)
    cd29:	48 89 9d 88 f8 ff ff 	mov    %rbx,-0x778(%rbp)
    cd30:	48 89 85 90 f8 ff ff 	mov    %rax,-0x770(%rbp)
    cd37:	48 89 85 98 f8 ff ff 	mov    %rax,-0x768(%rbp)
    cd3e:	48 89 9d a0 f8 ff ff 	mov    %rbx,-0x760(%rbp)
    cd45:	48 89 85 a8 f8 ff ff 	mov    %rax,-0x758(%rbp)
    cd4c:	48 89 85 b0 f8 ff ff 	mov    %rax,-0x750(%rbp)
    cd53:	48 89 9d b8 f8 ff ff 	mov    %rbx,-0x748(%rbp)
    cd5a:	48 89 85 c0 f8 ff ff 	mov    %rax,-0x740(%rbp)
    cd61:	48 89 85 c8 f8 ff ff 	mov    %rax,-0x738(%rbp)
    cd68:	48 89 9d d0 f8 ff ff 	mov    %rbx,-0x730(%rbp)
    cd6f:	48 89 85 d8 f8 ff ff 	mov    %rax,-0x728(%rbp)
    cd76:	48 89 85 e0 f8 ff ff 	mov    %rax,-0x720(%rbp)
    cd7d:	48 89 9d e8 f8 ff ff 	mov    %rbx,-0x718(%rbp)
    cd84:	48 89 85 f0 f8 ff ff 	mov    %rax,-0x710(%rbp)
    cd8b:	48 89 85 f8 f8 ff ff 	mov    %rax,-0x708(%rbp)
    cd92:	48 89 9d 00 f9 ff ff 	mov    %rbx,-0x700(%rbp)
    cd99:	48 89 85 08 f9 ff ff 	mov    %rax,-0x6f8(%rbp)
    cda0:	c7 85 24 f5 ff ff 00 	movl   $0x0,-0xadc(%rbp)
    cda7:	00 00 00 
    cdaa:	f3 0f 1e fa          	endbr64 
    cdae:	c7 05 84 82 00 00 9f 	movl   $0x6259c9f,0x8284(%rip)        # 1503c <g_76>
    cdb5:	9c 25 06 
    cdb8:	48 8b 95 60 f5 ff ff 	mov    -0xaa0(%rbp),%rdx
    cdbf:	48 8b 85 98 f6 ff ff 	mov    -0x968(%rbp),%rax
    cdc6:	48 89 10             	mov    %rdx,(%rax)
    cdc9:	0f b7 05 84 82 00 00 	movzwl 0x8284(%rip),%eax        # 15054 <g_141>
    cdd0:	8d 50 ff             	lea    -0x1(%rax),%edx
    cdd3:	66 89 15 7a 82 00 00 	mov    %dx,0x827a(%rip)        # 15054 <g_141>
    cdda:	0f b7 d0             	movzwl %ax,%edx
    cddd:	48 8b 85 78 f4 ff ff 	mov    -0xb88(%rbp),%rax
    cde4:	0f b7 c0             	movzwl %ax,%eax
    cde7:	89 d6                	mov    %edx,%esi
    cde9:	89 c7                	mov    %eax,%edi
    cdeb:	e8 6c 8f ff ff       	callq  5d5c <safe_mod_func_uint16_t_u_u>
    cdf0:	0f b7 c0             	movzwl %ax,%eax
    cdf3:	48 89 05 0e 9f 00 00 	mov    %rax,0x9f0e(%rip)        # 16d08 <g_99>
    cdfa:	0f b6 05 67 82 00 00 	movzbl 0x8267(%rip),%eax        # 15068 <g_212>
    ce01:	84 c0                	test   %al,%al
    ce03:	0f 84 b1 00 00 00    	je     ceba <func_82+0x4fe>
    ce09:	48 8b 85 78 f4 ff ff 	mov    -0xb88(%rbp),%rax
    ce10:	48 85 c0             	test   %rax,%rax
    ce13:	41 0f 95 c4          	setne  %r12b
    ce17:	48 8b 85 78 f4 ff ff 	mov    -0xb88(%rbp),%rax
    ce1e:	89 c3                	mov    %eax,%ebx
    ce20:	48 8b 85 a0 f6 ff ff 	mov    -0x960(%rbp),%rax
    ce27:	8b 00                	mov    (%rax),%eax
    ce29:	8d 48 ff             	lea    -0x1(%rax),%ecx
    ce2c:	48 8b 95 a0 f6 ff ff 	mov    -0x960(%rbp),%rdx
    ce33:	89 0a                	mov    %ecx,(%rdx)
    ce35:	85 c0                	test   %eax,%eax
    ce37:	75 44                	jne    ce7d <func_82+0x4c1>
    ce39:	48 83 bd a8 f6 ff ff 	cmpq   $0x0,-0x958(%rbp)
    ce40:	00 
    ce41:	74 2b                	je     ce6e <func_82+0x4b2>
    ce43:	8b 85 f4 f4 ff ff    	mov    -0xb0c(%rbp),%eax
    ce49:	0f b6 d0             	movzbl %al,%edx
    ce4c:	48 8b 85 98 f6 ff ff 	mov    -0x968(%rbp),%rax
    ce53:	48 8b 00             	mov    (%rax),%rax
    ce56:	8b 00                	mov    (%rax),%eax
    ce58:	0f b6 c0             	movzbl %al,%eax
    ce5b:	89 d6                	mov    %edx,%esi
    ce5d:	89 c7                	mov    %eax,%edi
    ce5f:	e8 f6 8c ff ff       	callq  5b5a <safe_add_func_uint8_t_u_u>
    ce64:	48 8b 85 28 f5 ff ff 	mov    -0xad8(%rbp),%rax
    ce6b:	48 85 c0             	test   %rax,%rax
    ce6e:	48 8b 85 78 f4 ff ff 	mov    -0xb88(%rbp),%rax
    ce75:	83 e0 02             	and    $0x2,%eax
    ce78:	48 85 c0             	test   %rax,%rax
    ce7b:	74 07                	je     ce84 <func_82+0x4c8>
    ce7d:	b8 01 00 00 00       	mov    $0x1,%eax
    ce82:	eb 05                	jmp    ce89 <func_82+0x4cd>
    ce84:	b8 00 00 00 00       	mov    $0x0,%eax
    ce89:	48 63 d0             	movslq %eax,%rdx
    ce8c:	48 8b 85 78 f4 ff ff 	mov    -0xb88(%rbp),%rax
    ce93:	48 39 c2             	cmp    %rax,%rdx
    ce96:	0f 93 c0             	setae  %al
    ce99:	0f b6 c0             	movzbl %al,%eax
    ce9c:	89 de                	mov    %ebx,%esi
    ce9e:	89 c7                	mov    %eax,%edi
    cea0:	e8 a7 8d ff ff       	callq  5c4c <safe_lshift_func_uint8_t_u_u>
    cea5:	0f b6 d0             	movzbl %al,%edx
    cea8:	0f b7 05 a7 81 00 00 	movzwl 0x81a7(%rip),%eax        # 15056 <g_174>
    ceaf:	66 39 c2             	cmp    %ax,%dx
    ceb2:	0f 95 c0             	setne  %al
    ceb5:	44 09 e0             	or     %r12d,%eax
    ceb8:	84 c0                	test   %al,%al
    ceba:	66 c7 85 9a f4 ff ff 	movw   $0x8943,-0xb66(%rbp)
    cec1:	43 89 
    cec3:	48 8d 05 76 88 00 00 	lea    0x8876(%rip),%rax        # 15740 <g_5>
    ceca:	48 89 85 e0 f6 ff ff 	mov    %rax,-0x920(%rbp)
    ced1:	c7 85 cc f4 ff ff 00 	movl   $0x0,-0xb34(%rbp)
    ced8:	00 00 00 
    cedb:	eb 1e                	jmp    cefb <func_82+0x53f>
    cedd:	8b 85 cc f4 ff ff    	mov    -0xb34(%rbp),%eax
    cee3:	48 98                	cltq   
    cee5:	48 8d 15 7d 81 00 00 	lea    0x817d(%rip),%rdx        # 15069 <g_247>
    ceec:	48 89 94 c5 50 f7 ff 	mov    %rdx,-0x8b0(%rbp,%rax,8)
    cef3:	ff 
    cef4:	83 85 cc f4 ff ff 01 	addl   $0x1,-0xb34(%rbp)
    cefb:	83 bd cc f4 ff ff 01 	cmpl   $0x1,-0xb34(%rbp)
    cf02:	7e d9                	jle    cedd <func_82+0x521>
    cf04:	c6 05 5d 81 00 00 00 	movb   $0x0,0x815d(%rip)        # 15068 <g_212>
    cf0b:	eb 21                	jmp    cf2e <func_82+0x572>
    cf0d:	48 8b 85 98 f6 ff ff 	mov    -0x968(%rbp),%rax
    cf14:	48 8d 15 21 81 00 00 	lea    0x8121(%rip),%rdx        # 1503c <g_76>
    cf1b:	48 89 10             	mov    %rdx,(%rax)
    cf1e:	0f b6 05 43 81 00 00 	movzbl 0x8143(%rip),%eax        # 15068 <g_212>
    cf25:	83 c0 01             	add    $0x1,%eax
    cf28:	88 05 3a 81 00 00    	mov    %al,0x813a(%rip)        # 15068 <g_212>
    cf2e:	0f b6 05 33 81 00 00 	movzbl 0x8133(%rip),%eax        # 15068 <g_212>
    cf35:	3c 02                	cmp    $0x2,%al
    cf37:	76 d4                	jbe    cf0d <func_82+0x551>
    cf39:	48 8b 85 98 f6 ff ff 	mov    -0x968(%rbp),%rax
    cf40:	48 8d 15 f5 80 00 00 	lea    0x80f5(%rip),%rdx        # 1503c <g_76>
    cf47:	48 89 10             	mov    %rdx,(%rax)
    cf4a:	48 0f bf 95 9a f4 ff 	movswq -0xb66(%rbp),%rdx
    cf51:	ff 
    cf52:	48 8b 85 78 f4 ff ff 	mov    -0xb88(%rbp),%rax
    cf59:	48 39 c2             	cmp    %rax,%rdx
    cf5c:	0f 96 c0             	setbe  %al
    cf5f:	0f b6 d0             	movzbl %al,%edx
    cf62:	0f b7 85 9a f4 ff ff 	movzwl -0xb66(%rbp),%eax
    cf69:	0f b6 c0             	movzbl %al,%eax
    cf6c:	89 d6                	mov    %edx,%esi
    cf6e:	89 c7                	mov    %eax,%edi
    cf70:	e8 18 8d ff ff       	callq  5c8d <safe_rshift_func_uint8_t_u_s>
    cf75:	48 8d 85 50 f7 ff ff 	lea    -0x8b0(%rbp),%rax
    cf7c:	48 83 c0 08          	add    $0x8,%rax
    cf80:	48 89 85 e8 f6 ff ff 	mov    %rax,-0x918(%rbp)
    cf87:	48 8d 85 a0 f7 ff ff 	lea    -0x860(%rbp),%rax
    cf8e:	48 83 c0 70          	add    $0x70,%rax
    cf92:	48 89 85 10 f9 ff ff 	mov    %rax,-0x6f0(%rbp)
    cf99:	48 8d 85 a0 f7 ff ff 	lea    -0x860(%rbp),%rax
    cfa0:	48 83 c0 70          	add    $0x70,%rax
    cfa4:	48 89 85 18 f9 ff ff 	mov    %rax,-0x6e8(%rbp)
    cfab:	48 8d 85 a0 f7 ff ff 	lea    -0x860(%rbp),%rax
    cfb2:	48 83 c0 70          	add    $0x70,%rax
    cfb6:	48 89 85 20 f9 ff ff 	mov    %rax,-0x6e0(%rbp)
    cfbd:	48 8d 85 a0 f7 ff ff 	lea    -0x860(%rbp),%rax
    cfc4:	48 83 c0 70          	add    $0x70,%rax
    cfc8:	48 89 85 28 f9 ff ff 	mov    %rax,-0x6d8(%rbp)
    cfcf:	48 8d 85 a0 f7 ff ff 	lea    -0x860(%rbp),%rax
    cfd6:	48 83 c0 70          	add    $0x70,%rax
    cfda:	48 89 85 30 f9 ff ff 	mov    %rax,-0x6d0(%rbp)
    cfe1:	48 8d 85 a0 f7 ff ff 	lea    -0x860(%rbp),%rax
    cfe8:	48 83 c0 70          	add    $0x70,%rax
    cfec:	48 89 85 38 f9 ff ff 	mov    %rax,-0x6c8(%rbp)
    cff3:	48 8d 85 a0 f7 ff ff 	lea    -0x860(%rbp),%rax
    cffa:	48 83 c0 70          	add    $0x70,%rax
    cffe:	48 89 85 40 f9 ff ff 	mov    %rax,-0x6c0(%rbp)
    d005:	48 8d 85 a0 f7 ff ff 	lea    -0x860(%rbp),%rax
    d00c:	48 83 c0 70          	add    $0x70,%rax
    d010:	48 89 85 48 f9 ff ff 	mov    %rax,-0x6b8(%rbp)
    d017:	48 8d 85 a0 f7 ff ff 	lea    -0x860(%rbp),%rax
    d01e:	48 83 c0 70          	add    $0x70,%rax
    d022:	48 89 85 50 f9 ff ff 	mov    %rax,-0x6b0(%rbp)
    d029:	48 8d 85 a0 f7 ff ff 	lea    -0x860(%rbp),%rax
    d030:	48 83 c0 70          	add    $0x70,%rax
    d034:	48 89 85 58 f9 ff ff 	mov    %rax,-0x6a8(%rbp)
    d03b:	48 8d 85 a0 f7 ff ff 	lea    -0x860(%rbp),%rax
    d042:	48 83 c0 70          	add    $0x70,%rax
    d046:	48 89 85 60 f9 ff ff 	mov    %rax,-0x6a0(%rbp)
    d04d:	48 8d 85 a0 f7 ff ff 	lea    -0x860(%rbp),%rax
    d054:	48 83 c0 70          	add    $0x70,%rax
    d058:	48 89 85 68 f9 ff ff 	mov    %rax,-0x698(%rbp)
    d05f:	48 8d 85 a0 f7 ff ff 	lea    -0x860(%rbp),%rax
    d066:	48 83 c0 70          	add    $0x70,%rax
    d06a:	48 89 85 70 f9 ff ff 	mov    %rax,-0x690(%rbp)
    d071:	48 8d 85 a0 f7 ff ff 	lea    -0x860(%rbp),%rax
    d078:	48 83 c0 70          	add    $0x70,%rax
    d07c:	48 89 85 78 f9 ff ff 	mov    %rax,-0x688(%rbp)
    d083:	48 8d 85 a0 f7 ff ff 	lea    -0x860(%rbp),%rax
    d08a:	48 83 c0 70          	add    $0x70,%rax
    d08e:	48 89 85 80 f9 ff ff 	mov    %rax,-0x680(%rbp)
    d095:	48 8d 85 a0 f7 ff ff 	lea    -0x860(%rbp),%rax
    d09c:	48 83 c0 70          	add    $0x70,%rax
    d0a0:	48 89 85 88 f9 ff ff 	mov    %rax,-0x678(%rbp)
    d0a7:	48 8d 85 a0 f7 ff ff 	lea    -0x860(%rbp),%rax
    d0ae:	48 83 c0 70          	add    $0x70,%rax
    d0b2:	48 89 85 90 f9 ff ff 	mov    %rax,-0x670(%rbp)
    d0b9:	48 8d 85 a0 f7 ff ff 	lea    -0x860(%rbp),%rax
    d0c0:	48 83 c0 70          	add    $0x70,%rax
    d0c4:	48 89 85 98 f9 ff ff 	mov    %rax,-0x668(%rbp)
    d0cb:	48 8d 85 a0 f7 ff ff 	lea    -0x860(%rbp),%rax
    d0d2:	48 83 c0 70          	add    $0x70,%rax
    d0d6:	48 89 85 a0 f9 ff ff 	mov    %rax,-0x660(%rbp)
    d0dd:	48 8d 85 a0 f7 ff ff 	lea    -0x860(%rbp),%rax
    d0e4:	48 83 c0 70          	add    $0x70,%rax
    d0e8:	48 89 85 a8 f9 ff ff 	mov    %rax,-0x658(%rbp)
    d0ef:	48 8d 85 a0 f7 ff ff 	lea    -0x860(%rbp),%rax
    d0f6:	48 83 c0 70          	add    $0x70,%rax
    d0fa:	48 89 85 b0 f9 ff ff 	mov    %rax,-0x650(%rbp)
    d101:	48 8d 85 a0 f7 ff ff 	lea    -0x860(%rbp),%rax
    d108:	48 83 c0 70          	add    $0x70,%rax
    d10c:	48 89 85 b8 f9 ff ff 	mov    %rax,-0x648(%rbp)
    d113:	48 8d 85 a0 f7 ff ff 	lea    -0x860(%rbp),%rax
    d11a:	48 83 c0 70          	add    $0x70,%rax
    d11e:	48 89 85 c0 f9 ff ff 	mov    %rax,-0x640(%rbp)
    d125:	48 8d 85 a0 f7 ff ff 	lea    -0x860(%rbp),%rax
    d12c:	48 83 c0 70          	add    $0x70,%rax
    d130:	48 89 85 c8 f9 ff ff 	mov    %rax,-0x638(%rbp)
    d137:	48 8d 85 a0 f7 ff ff 	lea    -0x860(%rbp),%rax
    d13e:	48 83 c0 70          	add    $0x70,%rax
    d142:	48 89 85 d0 f9 ff ff 	mov    %rax,-0x630(%rbp)
    d149:	48 8d 85 a0 f7 ff ff 	lea    -0x860(%rbp),%rax
    d150:	48 83 c0 70          	add    $0x70,%rax
    d154:	48 89 85 d8 f9 ff ff 	mov    %rax,-0x628(%rbp)
    d15b:	48 8d 85 a0 f7 ff ff 	lea    -0x860(%rbp),%rax
    d162:	48 83 c0 70          	add    $0x70,%rax
    d166:	48 89 85 e0 f9 ff ff 	mov    %rax,-0x620(%rbp)
    d16d:	48 8d 85 a0 f7 ff ff 	lea    -0x860(%rbp),%rax
    d174:	48 83 c0 70          	add    $0x70,%rax
    d178:	48 89 85 e8 f9 ff ff 	mov    %rax,-0x618(%rbp)
    d17f:	48 8d 85 a0 f7 ff ff 	lea    -0x860(%rbp),%rax
    d186:	48 83 c0 70          	add    $0x70,%rax
    d18a:	48 89 85 f0 f9 ff ff 	mov    %rax,-0x610(%rbp)
    d191:	48 8d 85 a0 f7 ff ff 	lea    -0x860(%rbp),%rax
    d198:	48 83 c0 70          	add    $0x70,%rax
    d19c:	48 89 85 f8 f9 ff ff 	mov    %rax,-0x608(%rbp)
    d1a3:	48 8d 85 a0 f7 ff ff 	lea    -0x860(%rbp),%rax
    d1aa:	48 83 c0 70          	add    $0x70,%rax
    d1ae:	48 89 85 00 fa ff ff 	mov    %rax,-0x600(%rbp)
    d1b5:	48 8d 85 a0 f7 ff ff 	lea    -0x860(%rbp),%rax
    d1bc:	48 83 c0 70          	add    $0x70,%rax
    d1c0:	48 89 85 08 fa ff ff 	mov    %rax,-0x5f8(%rbp)
    d1c7:	48 8d 85 a0 f7 ff ff 	lea    -0x860(%rbp),%rax
    d1ce:	48 83 c0 70          	add    $0x70,%rax
    d1d2:	48 89 85 10 fa ff ff 	mov    %rax,-0x5f0(%rbp)
    d1d9:	48 8d 85 a0 f7 ff ff 	lea    -0x860(%rbp),%rax
    d1e0:	48 83 c0 70          	add    $0x70,%rax
    d1e4:	48 89 85 18 fa ff ff 	mov    %rax,-0x5e8(%rbp)
    d1eb:	48 8d 85 a0 f7 ff ff 	lea    -0x860(%rbp),%rax
    d1f2:	48 83 c0 70          	add    $0x70,%rax
    d1f6:	48 89 85 20 fa ff ff 	mov    %rax,-0x5e0(%rbp)
    d1fd:	48 8d 85 a0 f7 ff ff 	lea    -0x860(%rbp),%rax
    d204:	48 83 c0 70          	add    $0x70,%rax
    d208:	48 89 85 28 fa ff ff 	mov    %rax,-0x5d8(%rbp)
    d20f:	48 8d 85 a0 f7 ff ff 	lea    -0x860(%rbp),%rax
    d216:	48 83 c0 70          	add    $0x70,%rax
    d21a:	48 89 85 30 fa ff ff 	mov    %rax,-0x5d0(%rbp)
    d221:	48 8d 85 a0 f7 ff ff 	lea    -0x860(%rbp),%rax
    d228:	48 83 c0 70          	add    $0x70,%rax
    d22c:	48 89 85 38 fa ff ff 	mov    %rax,-0x5c8(%rbp)
    d233:	48 8d 85 a0 f7 ff ff 	lea    -0x860(%rbp),%rax
    d23a:	48 83 c0 70          	add    $0x70,%rax
    d23e:	48 89 85 40 fa ff ff 	mov    %rax,-0x5c0(%rbp)
    d245:	48 8d 85 a0 f7 ff ff 	lea    -0x860(%rbp),%rax
    d24c:	48 83 c0 70          	add    $0x70,%rax
    d250:	48 89 85 48 fa ff ff 	mov    %rax,-0x5b8(%rbp)
    d257:	48 8d 85 a0 f7 ff ff 	lea    -0x860(%rbp),%rax
    d25e:	48 83 c0 70          	add    $0x70,%rax
    d262:	48 89 85 50 fa ff ff 	mov    %rax,-0x5b0(%rbp)
    d269:	48 8d 85 a0 f7 ff ff 	lea    -0x860(%rbp),%rax
    d270:	48 83 c0 70          	add    $0x70,%rax
    d274:	48 89 85 58 fa ff ff 	mov    %rax,-0x5a8(%rbp)
    d27b:	48 8d 85 a0 f7 ff ff 	lea    -0x860(%rbp),%rax
    d282:	48 83 c0 70          	add    $0x70,%rax
    d286:	48 89 85 60 fa ff ff 	mov    %rax,-0x5a0(%rbp)
    d28d:	48 8d 85 a0 f7 ff ff 	lea    -0x860(%rbp),%rax
    d294:	48 83 c0 70          	add    $0x70,%rax
    d298:	48 89 85 68 fa ff ff 	mov    %rax,-0x598(%rbp)
    d29f:	48 8d 85 a0 f7 ff ff 	lea    -0x860(%rbp),%rax
    d2a6:	48 83 c0 70          	add    $0x70,%rax
    d2aa:	48 89 85 70 fa ff ff 	mov    %rax,-0x590(%rbp)
    d2b1:	48 8d 85 a0 f7 ff ff 	lea    -0x860(%rbp),%rax
    d2b8:	48 83 c0 70          	add    $0x70,%rax
    d2bc:	48 89 85 78 fa ff ff 	mov    %rax,-0x588(%rbp)
    d2c3:	48 8d 85 a0 f7 ff ff 	lea    -0x860(%rbp),%rax
    d2ca:	48 83 c0 70          	add    $0x70,%rax
    d2ce:	48 89 85 80 fa ff ff 	mov    %rax,-0x580(%rbp)
    d2d5:	48 8d 85 a0 f7 ff ff 	lea    -0x860(%rbp),%rax
    d2dc:	48 83 c0 70          	add    $0x70,%rax
    d2e0:	48 89 85 88 fa ff ff 	mov    %rax,-0x578(%rbp)
    d2e7:	48 8d 85 a0 f7 ff ff 	lea    -0x860(%rbp),%rax
    d2ee:	48 83 c0 70          	add    $0x70,%rax
    d2f2:	48 89 85 90 fa ff ff 	mov    %rax,-0x570(%rbp)
    d2f9:	48 8d 85 a0 f7 ff ff 	lea    -0x860(%rbp),%rax
    d300:	48 83 c0 70          	add    $0x70,%rax
    d304:	48 89 85 98 fa ff ff 	mov    %rax,-0x568(%rbp)
    d30b:	48 8d 85 a0 f7 ff ff 	lea    -0x860(%rbp),%rax
    d312:	48 83 c0 70          	add    $0x70,%rax
    d316:	48 89 85 a0 fa ff ff 	mov    %rax,-0x560(%rbp)
    d31d:	48 8d 85 a0 f7 ff ff 	lea    -0x860(%rbp),%rax
    d324:	48 83 c0 70          	add    $0x70,%rax
    d328:	48 89 85 a8 fa ff ff 	mov    %rax,-0x558(%rbp)
    d32f:	48 8d 85 a0 f7 ff ff 	lea    -0x860(%rbp),%rax
    d336:	48 83 c0 70          	add    $0x70,%rax
    d33a:	48 89 85 b0 fa ff ff 	mov    %rax,-0x550(%rbp)
    d341:	48 8d 85 a0 f7 ff ff 	lea    -0x860(%rbp),%rax
    d348:	48 83 c0 70          	add    $0x70,%rax
    d34c:	48 89 85 b8 fa ff ff 	mov    %rax,-0x548(%rbp)
    d353:	48 8d 85 a0 f7 ff ff 	lea    -0x860(%rbp),%rax
    d35a:	48 83 c0 70          	add    $0x70,%rax
    d35e:	48 89 85 c0 fa ff ff 	mov    %rax,-0x540(%rbp)
    d365:	48 8d 85 a0 f7 ff ff 	lea    -0x860(%rbp),%rax
    d36c:	48 83 c0 70          	add    $0x70,%rax
    d370:	48 89 85 c8 fa ff ff 	mov    %rax,-0x538(%rbp)
    d377:	48 8d 05 ee 7c 00 00 	lea    0x7cee(%rip),%rax        # 1506c <g_253>
    d37e:	48 89 85 f0 f6 ff ff 	mov    %rax,-0x910(%rbp)
    d385:	c7 85 d0 f4 ff ff 00 	movl   $0x0,-0xb30(%rbp)
    d38c:	00 00 00 
    d38f:	eb 49                	jmp    d3da <func_82+0xa1e>
    d391:	c7 85 d4 f4 ff ff 00 	movl   $0x0,-0xb2c(%rbp)
    d398:	00 00 00 
    d39b:	eb 2d                	jmp    d3ca <func_82+0xa0e>
    d39d:	8b 85 d4 f4 ff ff    	mov    -0xb2c(%rbp),%eax
    d3a3:	48 98                	cltq   
    d3a5:	8b 95 d0 f4 ff ff    	mov    -0xb30(%rbp),%edx
    d3ab:	48 63 d2             	movslq %edx,%rdx
    d3ae:	48 01 d2             	add    %rdx,%rdx
    d3b1:	48 01 d0             	add    %rdx,%rax
    d3b4:	48 8d 15 ae 7c 00 00 	lea    0x7cae(%rip),%rdx        # 15069 <g_247>
    d3bb:	48 89 94 c5 a0 f7 ff 	mov    %rdx,-0x860(%rbp,%rax,8)
    d3c2:	ff 
    d3c3:	83 85 d4 f4 ff ff 01 	addl   $0x1,-0xb2c(%rbp)
    d3ca:	83 bd d4 f4 ff ff 01 	cmpl   $0x1,-0xb2c(%rbp)
    d3d1:	7e ca                	jle    d39d <func_82+0x9e1>
    d3d3:	83 85 d0 f4 ff ff 01 	addl   $0x1,-0xb30(%rbp)
    d3da:	83 bd d0 f4 ff ff 07 	cmpl   $0x7,-0xb30(%rbp)
    d3e1:	7e ae                	jle    d391 <func_82+0x9d5>
    d3e3:	48 8b 05 1e 99 00 00 	mov    0x991e(%rip),%rax        # 16d08 <g_99>
    d3ea:	25 3e bb b1 14       	and    $0x14b1bb3e,%eax
    d3ef:	48 89 c2             	mov    %rax,%rdx
    d3f2:	48 8b 85 78 f4 ff ff 	mov    -0xb88(%rbp),%rax
    d3f9:	48 39 c2             	cmp    %rax,%rdx
    d3fc:	0f 92 c0             	setb   %al
    d3ff:	0f b6 d8             	movzbl %al,%ebx
    d402:	0f b7 05 4b 7c 00 00 	movzwl 0x7c4b(%rip),%eax        # 15054 <g_141>
    d409:	0f b7 c0             	movzwl %ax,%eax
    d40c:	48 8b 8d b0 f6 ff ff 	mov    -0x950(%rbp),%rcx
    d413:	48 8d 95 78 f4 ff ff 	lea    -0xb88(%rbp),%rdx
    d41a:	48 8d 35 2f 83 00 00 	lea    0x832f(%rip),%rsi        # 15750 <g_92>
    d421:	48 89 c7             	mov    %rax,%rdi
    d424:	e8 e5 1c 00 00       	callq  f10e <func_84>
    d429:	48 89 85 30 f5 ff ff 	mov    %rax,-0xad0(%rbp)
    d430:	48 8b 8d 30 f5 ff ff 	mov    -0xad0(%rbp),%rcx
    d437:	48 8b 95 58 f7 ff ff 	mov    -0x8a8(%rbp),%rdx
    d43e:	48 8b 85 e8 f6 ff ff 	mov    -0x918(%rbp),%rax
    d445:	48 89 10             	mov    %rdx,(%rax)
    d448:	48 8b 85 e8 f6 ff ff 	mov    -0x918(%rbp),%rax
    d44f:	48 8b 00             	mov    (%rax),%rax
    d452:	48 89 85 f8 f6 ff ff 	mov    %rax,-0x908(%rbp)
    d459:	48 8b 85 f8 f6 ff ff 	mov    -0x908(%rbp),%rax
    d460:	48 39 c1             	cmp    %rax,%rcx
    d463:	0f 94 c2             	sete   %dl
    d466:	48 8b 85 60 f5 ff ff 	mov    -0xaa0(%rbp),%rax
    d46d:	0f b6 d2             	movzbl %dl,%edx
    d470:	89 10                	mov    %edx,(%rax)
    d472:	8b 00                	mov    (%rax),%eax
    d474:	89 de                	mov    %ebx,%esi
    d476:	89 c7                	mov    %eax,%edi
    d478:	e8 88 81 ff ff       	callq  5605 <safe_sub_func_int32_t_s_s>
    d47d:	be f9 c7 e9 c3       	mov    $0xc3e9c7f9,%esi
    d482:	89 c7                	mov    %eax,%edi
    d484:	e8 43 82 ff ff       	callq  56cc <safe_mod_func_int32_t_s_s>
    d489:	48 8b 95 f0 f6 ff ff 	mov    -0x910(%rbp),%rdx
    d490:	89 02                	mov    %eax,(%rdx)
    d492:	0f b7 85 9a f4 ff ff 	movzwl -0xb66(%rbp),%eax
    d499:	e9 4a 1c 00 00       	jmpq   f0e8 <func_82+0x272c>
    d49e:	c6 85 8e f4 ff ff 7f 	movb   $0x7f,-0xb72(%rbp)
    d4a5:	48 c7 85 b0 f5 ff ff 	movq   $0x0,-0xa50(%rbp)
    d4ac:	00 00 00 00 
    d4b0:	48 8d 05 51 98 00 00 	lea    0x9851(%rip),%rax        # 16d08 <g_99>
    d4b7:	48 89 85 b8 f5 ff ff 	mov    %rax,-0xa48(%rbp)
    d4be:	48 8d 05 7b 7b 00 00 	lea    0x7b7b(%rip),%rax        # 15040 <g_100>
    d4c5:	48 89 85 c0 f5 ff ff 	mov    %rax,-0xa40(%rbp)
    d4cc:	c7 85 04 f5 ff ff 05 	movl   $0xf256a805,-0xafc(%rbp)
    d4d3:	a8 56 f2 
    d4d6:	48 8d 85 8b f4 ff ff 	lea    -0xb75(%rbp),%rax
    d4dd:	48 89 85 c8 f5 ff ff 	mov    %rax,-0xa38(%rbp)
    d4e4:	c7 85 08 f5 ff ff 75 	movl   $0x40cdb675,-0xaf8(%rbp)
    d4eb:	b6 cd 40 
    d4ee:	c7 85 d8 f4 ff ff 04 	movl   $0x4,-0xb28(%rbp)
    d4f5:	00 00 00 
    d4f8:	c7 85 b8 f4 ff ff f5 	movl   $0x9a9fe3f5,-0xb48(%rbp)
    d4ff:	e3 9f 9a 
    d502:	c7 85 bc f4 ff ff 01 	movl   $0x1,-0xb44(%rbp)
    d509:	00 00 00 
    d50c:	c7 85 0c f5 ff ff 01 	movl   $0x1,-0xaf4(%rbp)
    d513:	00 00 00 
    d516:	c7 85 c0 f4 ff ff f7 	movl   $0xfffffff7,-0xb40(%rbp)
    d51d:	ff ff ff 
    d520:	48 8d 85 10 f9 ff ff 	lea    -0x6f0(%rbp),%rax
    d527:	48 8d 15 d2 40 00 00 	lea    0x40d2(%rip),%rdx        # 11600 <g_2031+0x4c8>
    d52e:	b9 46 00 00 00       	mov    $0x46,%ecx
    d533:	48 89 c7             	mov    %rax,%rdi
    d536:	48 89 d6             	mov    %rdx,%rsi
    d539:	f3 48 a5             	rep movsq %ds:(%rsi),%es:(%rdi)
    d53c:	48 8d 05 25 7b 00 00 	lea    0x7b25(%rip),%rax        # 15068 <g_212>
    d543:	48 89 85 d0 f5 ff ff 	mov    %rax,-0xa30(%rbp)
    d54a:	48 c7 85 d8 f5 ff ff 	movq   $0x0,-0xa28(%rbp)
    d551:	00 00 00 00 
    d555:	48 8b 85 78 f4 ff ff 	mov    -0xb88(%rbp),%rax
    d55c:	41 89 c6             	mov    %eax,%r14d
    d55f:	0f b7 05 0e 7b 00 00 	movzwl 0x7b0e(%rip),%eax        # 15074 <g_296+0x4>
    d566:	0f bf d0             	movswl %ax,%edx
    d569:	48 8b 85 78 f4 ff ff 	mov    -0xb88(%rbp),%rax
    d570:	98                   	cwtl   
    d571:	89 d6                	mov    %edx,%esi
    d573:	89 c7                	mov    %eax,%edi
    d575:	e8 7b 7e ff ff       	callq  53f5 <safe_mul_func_int16_t_s_s>
    d57a:	41 89 c4             	mov    %eax,%r12d
    d57d:	8b 85 04 f5 ff ff    	mov    -0xafc(%rbp),%eax
    d583:	0f b6 d8             	movzbl %al,%ebx
    d586:	48 8b 85 70 f5 ff ff 	mov    -0xa90(%rbp),%rax
    d58d:	48 8b 00             	mov    (%rax),%rax
    d590:	48 8b 00             	mov    (%rax),%rax
    d593:	8b 00                	mov    (%rax),%eax
    d595:	89 c1                	mov    %eax,%ecx
    d597:	0f b6 95 8e f4 ff ff 	movzbl -0xb72(%rbp),%edx
    d59e:	48 8b 85 70 f5 ff ff 	mov    -0xa90(%rbp),%rax
    d5a5:	48 8b 00             	mov    (%rax),%rax
    d5a8:	48 8b 00             	mov    (%rax),%rax
    d5ab:	8b 00                	mov    (%rax),%eax
    d5ad:	21 d0                	and    %edx,%eax
    d5af:	48 63 d0             	movslq %eax,%rdx
    d5b2:	48 8b 85 78 f4 ff ff 	mov    -0xb88(%rbp),%rax
    d5b9:	48 39 c2             	cmp    %rax,%rdx
    d5bc:	0f 96 c0             	setbe  %al
    d5bf:	0f b6 c0             	movzbl %al,%eax
    d5c2:	89 ce                	mov    %ecx,%esi
    d5c4:	89 c7                	mov    %eax,%edi
    d5c6:	e8 f3 86 ff ff       	callq  5cbe <safe_rshift_func_uint8_t_u_u>
    d5cb:	0f b6 85 8e f4 ff ff 	movzbl -0xb72(%rbp),%eax
    d5d2:	be 02 00 00 00       	mov    $0x2,%esi
    d5d7:	89 c7                	mov    %eax,%edi
    d5d9:	e8 27 86 ff ff       	callq  5c05 <safe_lshift_func_uint8_t_u_s>
    d5de:	48 8b 95 b8 f5 ff ff 	mov    -0xa48(%rbp),%rdx
    d5e5:	48 8b 12             	mov    (%rdx),%rdx
    d5e8:	0f b6 c0             	movzbl %al,%eax
    d5eb:	48 09 c2             	or     %rax,%rdx
    d5ee:	48 8b 85 b8 f5 ff ff 	mov    -0xa48(%rbp),%rax
    d5f5:	48 89 10             	mov    %rdx,(%rax)
    d5f8:	48 8b 85 b8 f5 ff ff 	mov    -0xa48(%rbp),%rax
    d5ff:	4c 8b 28             	mov    (%rax),%r13
    d602:	0f b7 05 67 7a 00 00 	movzwl 0x7a67(%rip),%eax        # 15070 <g_296>
    d609:	0f b7 c0             	movzwl %ax,%eax
    d60c:	89 c7                	mov    %eax,%edi
    d60e:	e8 d6 86 ff ff       	callq  5ce9 <safe_unary_minus_func_uint16_t_u>
    d613:	0f b7 d0             	movzwl %ax,%edx
    d616:	44 89 e9             	mov    %r13d,%ecx
    d619:	0f b7 05 08 7b 00 00 	movzwl 0x7b08(%rip),%eax        # 15128 <g_621>
    d620:	21 c8                	and    %ecx,%eax
    d622:	66 89 05 ff 7a 00 00 	mov    %ax,0x7aff(%rip)        # 15128 <g_621>
    d629:	0f b7 05 f8 7a 00 00 	movzwl 0x7af8(%rip),%eax        # 15128 <g_621>
    d630:	48 0f bf c8          	movswq %ax,%rcx
    d634:	48 8b 85 78 f4 ff ff 	mov    -0xb88(%rbp),%rax
    d63b:	48 39 c1             	cmp    %rax,%rcx
    d63e:	0f 95 c0             	setne  %al
    d641:	0f b6 c0             	movzbl %al,%eax
    d644:	31 d0                	xor    %edx,%eax
    d646:	89 c2                	mov    %eax,%edx
    d648:	48 8b 85 c0 f5 ff ff 	mov    -0xa40(%rbp),%rax
    d64f:	89 10                	mov    %edx,(%rax)
    d651:	48 8b 85 c0 f5 ff ff 	mov    -0xa40(%rbp),%rax
    d658:	8b 00                	mov    (%rax),%eax
    d65a:	0f be c0             	movsbl %al,%eax
    d65d:	83 e0 01             	and    $0x1,%eax
    d660:	be 01 00 00 00       	mov    $0x1,%esi
    d665:	89 c7                	mov    %eax,%edi
    d667:	e8 c9 7c ff ff       	callq  5335 <safe_rshift_func_int8_t_s_s>
    d66c:	0f b6 c0             	movzbl %al,%eax
    d66f:	89 de                	mov    %ebx,%esi
    d671:	89 c7                	mov    %eax,%edi
    d673:	e8 36 85 ff ff       	callq  5bae <safe_mod_func_uint8_t_u_u>
    d678:	0f b6 d0             	movzbl %al,%edx
    d67b:	0f b7 05 f2 79 00 00 	movzwl 0x79f2(%rip),%eax        # 15074 <g_296+0x4>
    d682:	31 d0                	xor    %edx,%eax
    d684:	0f b7 c0             	movzwl %ax,%eax
    d687:	be ff ff 00 00       	mov    $0xffff,%esi
    d68c:	89 c7                	mov    %eax,%edi
    d68e:	e8 8c 86 ff ff       	callq  5d1f <safe_sub_func_uint16_t_u_u>
    d693:	66 83 f8 08          	cmp    $0x8,%ax
    d697:	0f 96 c0             	setbe  %al
    d69a:	0f b6 c0             	movzbl %al,%eax
    d69d:	44 21 e0             	and    %r12d,%eax
    d6a0:	98                   	cwtl   
    d6a1:	44 89 f6             	mov    %r14d,%esi
    d6a4:	89 c7                	mov    %eax,%edi
    d6a6:	e8 7f 7e ff ff       	callq  552a <safe_rshift_func_int16_t_s_s>
    d6ab:	48 0f bf d0          	movswq %ax,%rdx
    d6af:	48 8b 85 78 f4 ff ff 	mov    -0xb88(%rbp),%rax
    d6b6:	48 89 d6             	mov    %rdx,%rsi
    d6b9:	48 89 c7             	mov    %rax,%rdi
    d6bc:	e8 bf 89 ff ff       	callq  6080 <safe_mod_func_uint64_t_u_u>
    d6c1:	48 8b 95 78 f4 ff ff 	mov    -0xb88(%rbp),%rdx
    d6c8:	48 39 d0             	cmp    %rdx,%rax
    d6cb:	74 07                	je     d6d4 <func_82+0xd18>
    d6cd:	b8 01 00 00 00       	mov    $0x1,%eax
    d6d2:	eb 05                	jmp    d6d9 <func_82+0xd1d>
    d6d4:	b8 00 00 00 00       	mov    $0x0,%eax
    d6d9:	0f be c0             	movsbl %al,%eax
    d6dc:	89 c6                	mov    %eax,%esi
    d6de:	bf 02 00 00 00       	mov    $0x2,%edi
    d6e3:	e8 ec 7a ff ff       	callq  51d4 <safe_add_func_int8_t_s_s>
    d6e8:	0f be c0             	movsbl %al,%eax
    d6eb:	be 0d 1e 40 87       	mov    $0x87401e0d,%esi
    d6f0:	89 c7                	mov    %eax,%edi
    d6f2:	e8 c1 87 ff ff       	callq  5eb8 <safe_add_func_uint32_t_u_u>
    d6f7:	85 c0                	test   %eax,%eax
    d6f9:	74 0e                	je     d709 <func_82+0xd4d>
    d6fb:	48 8b 85 40 f5 ff ff 	mov    -0xac0(%rbp),%rax
    d702:	48 8b 00             	mov    (%rax),%rax
    d705:	8b 00                	mov    (%rax),%eax
    d707:	85 c0                	test   %eax,%eax
    d709:	0f b7 05 64 79 00 00 	movzwl 0x7964(%rip),%eax        # 15074 <g_296+0x4>
    d710:	48 0f bf c0          	movswq %ax,%rax
    d714:	be 04 00 00 00       	mov    $0x4,%esi
    d719:	48 89 c7             	mov    %rax,%rdi
    d71c:	e8 2a 89 ff ff       	callq  604b <safe_sub_func_uint64_t_u_u>
    d721:	48 85 c0             	test   %rax,%rax
    d724:	75 0c                	jne    d732 <func_82+0xd76>
    d726:	0f b7 05 03 7a 00 00 	movzwl 0x7a03(%rip),%eax        # 15130 <g_624>
    d72d:	66 85 c0             	test   %ax,%ax
    d730:	74 07                	je     d739 <func_82+0xd7d>
    d732:	b9 01 00 00 00       	mov    $0x1,%ecx
    d737:	eb 05                	jmp    d73e <func_82+0xd82>
    d739:	b9 00 00 00 00       	mov    $0x0,%ecx
    d73e:	0f b6 85 8e f4 ff ff 	movzbl -0xb72(%rbp),%eax
    d745:	48 8b 95 78 f4 ff ff 	mov    -0xb88(%rbp),%rdx
    d74c:	21 d0                	and    %edx,%eax
    d74e:	89 ce                	mov    %ecx,%esi
    d750:	89 c7                	mov    %eax,%edi
    d752:	e8 75 7f ff ff       	callq  56cc <safe_mod_func_int32_t_s_s>
    d757:	66 89 85 90 f4 ff ff 	mov    %ax,-0xb70(%rbp)
    d75e:	8b 05 d8 78 00 00    	mov    0x78d8(%rip),%eax        # 1503c <g_76>
    d764:	85 c0                	test   %eax,%eax
    d766:	0f 85 f2 10 00 00    	jne    e85e <func_82+0x1ea2>
    d76c:	66 c7 05 df 78 00 00 	movw   $0x0,0x78df(%rip)        # 15054 <g_141>
    d773:	00 00 
    d775:	e9 d1 10 00 00       	jmpq   e84b <func_82+0x1e8f>
    d77a:	48 8d 05 2f 82 00 00 	lea    0x822f(%rip),%rax        # 159b0 <g_637>
    d781:	48 89 85 e0 f5 ff ff 	mov    %rax,-0xa20(%rbp)
    d788:	48 8d 85 38 f5 ff ff 	lea    -0xac8(%rbp),%rax
    d78f:	48 89 85 48 f5 ff ff 	mov    %rax,-0xab8(%rbp)
    d796:	48 8d 85 48 f5 ff ff 	lea    -0xab8(%rbp),%rax
    d79d:	48 89 85 50 f5 ff ff 	mov    %rax,-0xab0(%rbp)
    d7a4:	48 8d 85 50 f5 ff ff 	lea    -0xab0(%rbp),%rax
    d7ab:	48 89 85 58 f5 ff ff 	mov    %rax,-0xaa8(%rbp)
    d7b2:	48 8d 85 58 f5 ff ff 	lea    -0xaa8(%rbp),%rax
    d7b9:	48 89 85 e8 f5 ff ff 	mov    %rax,-0xa18(%rbp)
    d7c0:	48 c7 85 f0 f5 ff ff 	movq   $0x0,-0xa10(%rbp)
    d7c7:	00 00 00 00 
    d7cb:	c7 85 c4 f4 ff ff 01 	movl   $0x1,-0xb3c(%rbp)
    d7d2:	00 00 00 
    d7d5:	c7 85 10 f5 ff ff 22 	movl   $0x25f05322,-0xaf0(%rbp)
    d7dc:	53 f0 25 
    d7df:	c7 85 14 f5 ff ff ff 	movl   $0xffffffff,-0xaec(%rbp)
    d7e6:	ff ff ff 
    d7e9:	c6 85 8c f4 ff ff 8b 	movb   $0x8b,-0xb74(%rbp)
    d7f0:	c7 85 dc f4 ff ff 00 	movl   $0x0,-0xb24(%rbp)
    d7f7:	00 00 00 
    d7fa:	eb 42                	jmp    d83e <func_82+0xe82>
    d7fc:	c7 85 e0 f4 ff ff 00 	movl   $0x0,-0xb20(%rbp)
    d803:	00 00 00 
    d806:	eb 26                	jmp    d82e <func_82+0xe72>
    d808:	8b 85 e0 f4 ff ff    	mov    -0xb20(%rbp),%eax
    d80e:	48 63 d0             	movslq %eax,%rdx
    d811:	8b 85 dc f4 ff ff    	mov    -0xb24(%rbp),%eax
    d817:	48 98                	cltq   
    d819:	48 01 d0             	add    %rdx,%rax
    d81c:	c7 84 85 00 f7 ff ff 	movl   $0x0,-0x900(%rbp,%rax,4)
    d823:	00 00 00 00 
    d827:	83 85 e0 f4 ff ff 01 	addl   $0x1,-0xb20(%rbp)
    d82e:	83 bd e0 f4 ff ff 00 	cmpl   $0x0,-0xb20(%rbp)
    d835:	7e d1                	jle    d808 <func_82+0xe4c>
    d837:	83 85 dc f4 ff ff 01 	addl   $0x1,-0xb24(%rbp)
    d83e:	83 bd dc f4 ff ff 03 	cmpl   $0x3,-0xb24(%rbp)
    d845:	7e b5                	jle    d7fc <func_82+0xe40>
    d847:	48 c7 85 78 f4 ff ff 	movq   $0xfffffffffffffff2,-0xb88(%rbp)
    d84e:	f2 ff ff ff 
    d852:	e9 c6 0f 00 00       	jmpq   e81d <func_82+0x1e61>
    d857:	48 8d 05 f6 77 00 00 	lea    0x77f6(%rip),%rax        # 15054 <g_141>
    d85e:	48 89 85 f8 f5 ff ff 	mov    %rax,-0xa08(%rbp)
    d865:	c7 85 c8 f4 ff ff 89 	movl   $0xdb3ca89,-0xb38(%rbp)
    d86c:	ca b3 0d 
    d86f:	c7 85 20 f8 ff ff 24 	movl   $0x8446e024,-0x7e0(%rbp)
    d876:	e0 46 84 
    d879:	c7 85 24 f8 ff ff 00 	movl   $0x0,-0x7dc(%rbp)
    d880:	00 00 00 
    d883:	c7 85 28 f8 ff ff 08 	movl   $0x8,-0x7d8(%rbp)
    d88a:	00 00 00 
    d88d:	c7 85 2c f8 ff ff 24 	movl   $0x8446e024,-0x7d4(%rbp)
    d894:	e0 46 84 
    d897:	c7 85 30 f8 ff ff ff 	movl   $0xffffffff,-0x7d0(%rbp)
    d89e:	ff ff ff 
    d8a1:	c7 85 34 f8 ff ff c6 	movl   $0x7a3f2dc6,-0x7cc(%rbp)
    d8a8:	2d 3f 7a 
    d8ab:	c7 85 38 f8 ff ff 00 	movl   $0x0,-0x7c8(%rbp)
    d8b2:	00 00 00 
    d8b5:	c7 85 3c f8 ff ff 00 	movl   $0x0,-0x7c4(%rbp)
    d8bc:	00 00 00 
    d8bf:	c7 85 40 f8 ff ff c6 	movl   $0x7a3f2dc6,-0x7c0(%rbp)
    d8c6:	2d 3f 7a 
    d8c9:	c7 85 44 f8 ff ff ff 	movl   $0xffffffff,-0x7bc(%rbp)
    d8d0:	ff ff ff 
    d8d3:	c7 85 48 f8 ff ff 24 	movl   $0x8446e024,-0x7b8(%rbp)
    d8da:	e0 46 84 
    d8dd:	c7 85 4c f8 ff ff ad 	movl   $0xd29d54ad,-0x7b4(%rbp)
    d8e4:	54 9d d2 
    d8e7:	c7 85 50 f8 ff ff ad 	movl   $0xd29d54ad,-0x7b0(%rbp)
    d8ee:	54 9d d2 
    d8f1:	c7 85 54 f8 ff ff 24 	movl   $0x8446e024,-0x7ac(%rbp)
    d8f8:	e0 46 84 
    d8fb:	c7 85 58 f8 ff ff ff 	movl   $0xffffffff,-0x7a8(%rbp)
    d902:	ff ff ff 
    d905:	c7 85 5c f8 ff ff f7 	movl   $0xfffffff7,-0x7a4(%rbp)
    d90c:	ff ff ff 
    d90f:	c7 85 60 f8 ff ff 01 	movl   $0x1,-0x7a0(%rbp)
    d916:	00 00 00 
    d919:	c7 85 64 f8 ff ff c6 	movl   $0x7a3f2dc6,-0x79c(%rbp)
    d920:	2d 3f 7a 
    d923:	c7 85 68 f8 ff ff f7 	movl   $0xfffffff7,-0x798(%rbp)
    d92a:	ff ff ff 
    d92d:	c7 85 6c f8 ff ff 01 	movl   $0x1,-0x794(%rbp)
    d934:	00 00 00 
    d937:	c7 85 70 f8 ff ff f7 	movl   $0xfffffff7,-0x790(%rbp)
    d93e:	ff ff ff 
    d941:	c7 85 74 f8 ff ff 01 	movl   $0x1,-0x78c(%rbp)
    d948:	00 00 00 
    d94b:	c7 85 78 f8 ff ff c6 	movl   $0x7a3f2dc6,-0x788(%rbp)
    d952:	2d 3f 7a 
    d955:	c7 85 7c f8 ff ff f7 	movl   $0xfffffff7,-0x784(%rbp)
    d95c:	ff ff ff 
    d95f:	c7 85 80 f8 ff ff 01 	movl   $0x1,-0x780(%rbp)
    d966:	00 00 00 
    d969:	c7 85 84 f8 ff ff f7 	movl   $0xfffffff7,-0x77c(%rbp)
    d970:	ff ff ff 
    d973:	c7 85 88 f8 ff ff c6 	movl   $0x7a3f2dc6,-0x778(%rbp)
    d97a:	2d 3f 7a 
    d97d:	c7 85 8c f8 ff ff 01 	movl   $0x1,-0x774(%rbp)
    d984:	00 00 00 
    d987:	c7 85 90 f8 ff ff f7 	movl   $0xfffffff7,-0x770(%rbp)
    d98e:	ff ff ff 
    d991:	c7 85 94 f8 ff ff de 	movl   $0xaa86f4de,-0x76c(%rbp)
    d998:	f4 86 aa 
    d99b:	c7 85 98 f8 ff ff 4e 	movl   $0xa059f34e,-0x768(%rbp)
    d9a2:	f3 59 a0 
    d9a5:	c7 85 9c f8 ff ff 01 	movl   $0x1,-0x764(%rbp)
    d9ac:	00 00 00 
    d9af:	c7 85 a0 f8 ff ff 24 	movl   $0x8446e024,-0x760(%rbp)
    d9b6:	e0 46 84 
    d9b9:	c7 85 a4 f8 ff ff 4e 	movl   $0xa059f34e,-0x75c(%rbp)
    d9c0:	f3 59 a0 
    d9c3:	c7 85 a8 f8 ff ff 01 	movl   $0x1,-0x758(%rbp)
    d9ca:	00 00 00 
    d9cd:	c7 85 ac f8 ff ff 03 	movl   $0x3,-0x754(%rbp)
    d9d4:	00 00 00 
    d9d7:	c7 85 b0 f8 ff ff 01 	movl   $0x1,-0x750(%rbp)
    d9de:	00 00 00 
    d9e1:	c7 85 b4 f8 ff ff 01 	movl   $0x1,-0x74c(%rbp)
    d9e8:	00 00 00 
    d9eb:	c7 85 b8 f8 ff ff 03 	movl   $0x3,-0x748(%rbp)
    d9f2:	00 00 00 
    d9f5:	c7 85 bc f8 ff ff 01 	movl   $0x1,-0x744(%rbp)
    d9fc:	00 00 00 
    d9ff:	48 8d 85 90 f4 ff ff 	lea    -0xb70(%rbp),%rax
    da06:	48 89 85 00 f6 ff ff 	mov    %rax,-0xa00(%rbp)
    da0d:	48 8d 85 20 f8 ff ff 	lea    -0x7e0(%rbp),%rax
    da14:	48 83 c0 38          	add    $0x38,%rax
    da18:	48 89 85 40 fb ff ff 	mov    %rax,-0x4c0(%rbp)
    da1f:	48 8d 05 fa 76 00 00 	lea    0x76fa(%rip),%rax        # 15120 <g_380+0x20>
    da26:	48 89 85 48 fb ff ff 	mov    %rax,-0x4b8(%rbp)
    da2d:	48 8d 85 20 f8 ff ff 	lea    -0x7e0(%rbp),%rax
    da34:	48 83 c0 54          	add    $0x54,%rax
    da38:	48 89 85 50 fb ff ff 	mov    %rax,-0x4b0(%rbp)
    da3f:	48 8d 05 de 75 00 00 	lea    0x75de(%rip),%rax        # 15024 <g_6>
    da46:	48 89 85 58 fb ff ff 	mov    %rax,-0x4a8(%rbp)
    da4d:	48 c7 85 60 fb ff ff 	movq   $0x0,-0x4a0(%rbp)
    da54:	00 00 00 00 
    da58:	48 8d 85 c4 f4 ff ff 	lea    -0xb3c(%rbp),%rax
    da5f:	48 89 85 68 fb ff ff 	mov    %rax,-0x498(%rbp)
    da66:	48 8d 85 9c f4 ff ff 	lea    -0xb64(%rbp),%rax
    da6d:	48 89 85 70 fb ff ff 	mov    %rax,-0x490(%rbp)
    da74:	48 c7 85 78 fb ff ff 	movq   $0x0,-0x488(%rbp)
    da7b:	00 00 00 00 
    da7f:	48 8d 05 9e 75 00 00 	lea    0x759e(%rip),%rax        # 15024 <g_6>
    da86:	48 89 85 80 fb ff ff 	mov    %rax,-0x480(%rbp)
    da8d:	48 8d 85 a0 f4 ff ff 	lea    -0xb60(%rbp),%rax
    da94:	48 89 85 88 fb ff ff 	mov    %rax,-0x478(%rbp)
    da9b:	48 8d 05 82 75 00 00 	lea    0x7582(%rip),%rax        # 15024 <g_6>
    daa2:	48 89 85 90 fb ff ff 	mov    %rax,-0x470(%rbp)
    daa9:	48 8d 85 a0 f4 ff ff 	lea    -0xb60(%rbp),%rax
    dab0:	48 89 85 98 fb ff ff 	mov    %rax,-0x468(%rbp)
    dab7:	48 c7 85 a0 fb ff ff 	movq   $0x0,-0x460(%rbp)
    dabe:	00 00 00 00 
    dac2:	48 c7 85 a8 fb ff ff 	movq   $0x0,-0x458(%rbp)
    dac9:	00 00 00 00 
    dacd:	48 8d 85 a0 f4 ff ff 	lea    -0xb60(%rbp),%rax
    dad4:	48 89 85 b0 fb ff ff 	mov    %rax,-0x450(%rbp)
    dadb:	48 8d 05 3e 76 00 00 	lea    0x763e(%rip),%rax        # 15120 <g_380+0x20>
    dae2:	48 89 85 b8 fb ff ff 	mov    %rax,-0x448(%rbp)
    dae9:	48 8d 85 20 f8 ff ff 	lea    -0x7e0(%rbp),%rax
    daf0:	48 83 c0 68          	add    $0x68,%rax
    daf4:	48 89 85 c0 fb ff ff 	mov    %rax,-0x440(%rbp)
    dafb:	48 8d 05 3a 75 00 00 	lea    0x753a(%rip),%rax        # 1503c <g_76>
    db02:	48 89 85 c8 fb ff ff 	mov    %rax,-0x438(%rbp)
    db09:	48 8d 05 14 75 00 00 	lea    0x7514(%rip),%rax        # 15024 <g_6>
    db10:	48 89 85 d0 fb ff ff 	mov    %rax,-0x430(%rbp)
    db17:	48 c7 85 d8 fb ff ff 	movq   $0x0,-0x428(%rbp)
    db1e:	00 00 00 00 
    db22:	48 8d 85 a0 f4 ff ff 	lea    -0xb60(%rbp),%rax
    db29:	48 89 85 e0 fb ff ff 	mov    %rax,-0x420(%rbp)
    db30:	48 8d 05 d9 75 00 00 	lea    0x75d9(%rip),%rax        # 15110 <g_380+0x10>
    db37:	48 89 85 e8 fb ff ff 	mov    %rax,-0x418(%rbp)
    db3e:	48 8d 05 df 74 00 00 	lea    0x74df(%rip),%rax        # 15024 <g_6>
    db45:	48 89 85 f0 fb ff ff 	mov    %rax,-0x410(%rbp)
    db4c:	48 8d 85 20 f8 ff ff 	lea    -0x7e0(%rbp),%rax
    db53:	48 83 c0 68          	add    $0x68,%rax
    db57:	48 89 85 f8 fb ff ff 	mov    %rax,-0x408(%rbp)
    db5e:	48 8d 85 20 f8 ff ff 	lea    -0x7e0(%rbp),%rax
    db65:	48 83 c0 68          	add    $0x68,%rax
    db69:	48 89 85 00 fc ff ff 	mov    %rax,-0x400(%rbp)
    db70:	48 8d 85 9c f4 ff ff 	lea    -0xb64(%rbp),%rax
    db77:	48 89 85 08 fc ff ff 	mov    %rax,-0x3f8(%rbp)
    db7e:	48 8d 85 a0 f4 ff ff 	lea    -0xb60(%rbp),%rax
    db85:	48 89 85 10 fc ff ff 	mov    %rax,-0x3f0(%rbp)
    db8c:	48 8d 05 c1 34 00 00 	lea    0x34c1(%rip),%rax        # 11054 <g_197>
    db93:	48 89 85 18 fc ff ff 	mov    %rax,-0x3e8(%rbp)
    db9a:	48 c7 85 20 fc ff ff 	movq   $0x0,-0x3e0(%rbp)
    dba1:	00 00 00 00 
    dba5:	48 8d 05 90 74 00 00 	lea    0x7490(%rip),%rax        # 1503c <g_76>
    dbac:	48 89 85 28 fc ff ff 	mov    %rax,-0x3d8(%rbp)
    dbb3:	48 8d 05 6a 74 00 00 	lea    0x746a(%rip),%rax        # 15024 <g_6>
    dbba:	48 89 85 30 fc ff ff 	mov    %rax,-0x3d0(%rbp)
    dbc1:	48 8d 85 20 f8 ff ff 	lea    -0x7e0(%rbp),%rax
    dbc8:	48 83 c0 68          	add    $0x68,%rax
    dbcc:	48 89 85 38 fc ff ff 	mov    %rax,-0x3c8(%rbp)
    dbd3:	48 8d 05 4a 74 00 00 	lea    0x744a(%rip),%rax        # 15024 <g_6>
    dbda:	48 89 85 40 fc ff ff 	mov    %rax,-0x3c0(%rbp)
    dbe1:	48 8d 85 20 f8 ff ff 	lea    -0x7e0(%rbp),%rax
    dbe8:	48 83 c0 68          	add    $0x68,%rax
    dbec:	48 89 85 48 fc ff ff 	mov    %rax,-0x3b8(%rbp)
    dbf3:	48 8d 85 9c f4 ff ff 	lea    -0xb64(%rbp),%rax
    dbfa:	48 89 85 50 fc ff ff 	mov    %rax,-0x3b0(%rbp)
    dc01:	48 8d 85 9c f4 ff ff 	lea    -0xb64(%rbp),%rax
    dc08:	48 89 85 58 fc ff ff 	mov    %rax,-0x3a8(%rbp)
    dc0f:	48 c7 85 60 fc ff ff 	movq   $0x0,-0x3a0(%rbp)
    dc16:	00 00 00 00 
    dc1a:	48 8d 85 a0 f4 ff ff 	lea    -0xb60(%rbp),%rax
    dc21:	48 89 85 68 fc ff ff 	mov    %rax,-0x398(%rbp)
    dc28:	48 8d 85 20 f8 ff ff 	lea    -0x7e0(%rbp),%rax
    dc2f:	48 83 c0 54          	add    $0x54,%rax
    dc33:	48 89 85 70 fc ff ff 	mov    %rax,-0x390(%rbp)
    dc3a:	48 8d 85 20 f8 ff ff 	lea    -0x7e0(%rbp),%rax
    dc41:	48 83 c0 54          	add    $0x54,%rax
    dc45:	48 89 85 78 fc ff ff 	mov    %rax,-0x388(%rbp)
    dc4c:	48 8d 85 20 f8 ff ff 	lea    -0x7e0(%rbp),%rax
    dc53:	48 83 c0 38          	add    $0x38,%rax
    dc57:	48 89 85 80 fc ff ff 	mov    %rax,-0x380(%rbp)
    dc5e:	48 8d 85 20 f8 ff ff 	lea    -0x7e0(%rbp),%rax
    dc65:	48 83 c0 38          	add    $0x38,%rax
    dc69:	48 89 85 88 fc ff ff 	mov    %rax,-0x378(%rbp)
    dc70:	48 8d 05 a9 74 00 00 	lea    0x74a9(%rip),%rax        # 15120 <g_380+0x20>
    dc77:	48 89 85 90 fc ff ff 	mov    %rax,-0x370(%rbp)
    dc7e:	48 8d 05 b7 73 00 00 	lea    0x73b7(%rip),%rax        # 1503c <g_76>
    dc85:	48 89 85 98 fc ff ff 	mov    %rax,-0x368(%rbp)
    dc8c:	48 8d 85 a0 f4 ff ff 	lea    -0xb60(%rbp),%rax
    dc93:	48 89 85 a0 fc ff ff 	mov    %rax,-0x360(%rbp)
    dc9a:	48 8d 85 a0 f4 ff ff 	lea    -0xb60(%rbp),%rax
    dca1:	48 89 85 a8 fc ff ff 	mov    %rax,-0x358(%rbp)
    dca8:	48 8d 85 c4 f4 ff ff 	lea    -0xb3c(%rbp),%rax
    dcaf:	48 89 85 b0 fc ff ff 	mov    %rax,-0x350(%rbp)
    dcb6:	48 8d 85 9c f4 ff ff 	lea    -0xb64(%rbp),%rax
    dcbd:	48 89 85 b8 fc ff ff 	mov    %rax,-0x348(%rbp)
    dcc4:	48 8d 05 71 73 00 00 	lea    0x7371(%rip),%rax        # 1503c <g_76>
    dccb:	48 89 85 c0 fc ff ff 	mov    %rax,-0x340(%rbp)
    dcd2:	48 8d 05 7b 33 00 00 	lea    0x337b(%rip),%rax        # 11054 <g_197>
    dcd9:	48 89 85 c8 fc ff ff 	mov    %rax,-0x338(%rbp)
    dce0:	48 8d 05 39 74 00 00 	lea    0x7439(%rip),%rax        # 15120 <g_380+0x20>
    dce7:	48 89 85 d0 fc ff ff 	mov    %rax,-0x330(%rbp)
    dcee:	48 8d 85 c4 f4 ff ff 	lea    -0xb3c(%rbp),%rax
    dcf5:	48 89 85 d8 fc ff ff 	mov    %rax,-0x328(%rbp)
    dcfc:	48 8d 05 1d 74 00 00 	lea    0x741d(%rip),%rax        # 15120 <g_380+0x20>
    dd03:	48 89 85 e0 fc ff ff 	mov    %rax,-0x320(%rbp)
    dd0a:	48 8d 05 43 33 00 00 	lea    0x3343(%rip),%rax        # 11054 <g_197>
    dd11:	48 89 85 e8 fc ff ff 	mov    %rax,-0x318(%rbp)
    dd18:	48 8d 05 f1 73 00 00 	lea    0x73f1(%rip),%rax        # 15110 <g_380+0x10>
    dd1f:	48 89 85 f0 fc ff ff 	mov    %rax,-0x310(%rbp)
    dd26:	48 8d 85 9c f4 ff ff 	lea    -0xb64(%rbp),%rax
    dd2d:	48 89 85 f8 fc ff ff 	mov    %rax,-0x308(%rbp)
    dd34:	48 8d 05 19 33 00 00 	lea    0x3319(%rip),%rax        # 11054 <g_197>
    dd3b:	48 89 85 00 fd ff ff 	mov    %rax,-0x300(%rbp)
    dd42:	48 8d 85 a0 f4 ff ff 	lea    -0xb60(%rbp),%rax
    dd49:	48 89 85 08 fd ff ff 	mov    %rax,-0x2f8(%rbp)
    dd50:	48 8d 85 a0 f4 ff ff 	lea    -0xb60(%rbp),%rax
    dd57:	48 89 85 10 fd ff ff 	mov    %rax,-0x2f0(%rbp)
    dd5e:	48 8d 05 d7 72 00 00 	lea    0x72d7(%rip),%rax        # 1503c <g_76>
    dd65:	48 89 85 18 fd ff ff 	mov    %rax,-0x2e8(%rbp)
    dd6c:	48 8d 05 b1 72 00 00 	lea    0x72b1(%rip),%rax        # 15024 <g_6>
    dd73:	48 89 85 20 fd ff ff 	mov    %rax,-0x2e0(%rbp)
    dd7a:	48 8d 85 20 f8 ff ff 	lea    -0x7e0(%rbp),%rax
    dd81:	48 83 c0 38          	add    $0x38,%rax
    dd85:	48 89 85 28 fd ff ff 	mov    %rax,-0x2d8(%rbp)
    dd8c:	48 8d 05 8d 73 00 00 	lea    0x738d(%rip),%rax        # 15120 <g_380+0x20>
    dd93:	48 89 85 30 fd ff ff 	mov    %rax,-0x2d0(%rbp)
    dd9a:	48 8d 85 20 f8 ff ff 	lea    -0x7e0(%rbp),%rax
    dda1:	48 83 c0 54          	add    $0x54,%rax
    dda5:	48 89 85 38 fd ff ff 	mov    %rax,-0x2c8(%rbp)
    ddac:	48 8d 05 6d 73 00 00 	lea    0x736d(%rip),%rax        # 15120 <g_380+0x20>
    ddb3:	48 89 85 40 fd ff ff 	mov    %rax,-0x2c0(%rbp)
    ddba:	48 8d 85 a0 f4 ff ff 	lea    -0xb60(%rbp),%rax
    ddc1:	48 89 85 48 fd ff ff 	mov    %rax,-0x2b8(%rbp)
    ddc8:	48 c7 85 50 fd ff ff 	movq   $0x0,-0x2b0(%rbp)
    ddcf:	00 00 00 00 
    ddd3:	48 8d 85 9c f4 ff ff 	lea    -0xb64(%rbp),%rax
    ddda:	48 89 85 58 fd ff ff 	mov    %rax,-0x2a8(%rbp)
    dde1:	48 8d 05 38 73 00 00 	lea    0x7338(%rip),%rax        # 15120 <g_380+0x20>
    dde8:	48 89 85 60 fd ff ff 	mov    %rax,-0x2a0(%rbp)
    ddef:	48 8d 85 20 f8 ff ff 	lea    -0x7e0(%rbp),%rax
    ddf6:	48 83 c0 68          	add    $0x68,%rax
    ddfa:	48 89 85 68 fd ff ff 	mov    %rax,-0x298(%rbp)
    de01:	48 c7 85 70 fd ff ff 	movq   $0x0,-0x290(%rbp)
    de08:	00 00 00 00 
    de0c:	48 8d 85 20 f8 ff ff 	lea    -0x7e0(%rbp),%rax
    de13:	48 83 c0 68          	add    $0x68,%rax
    de17:	48 89 85 78 fd ff ff 	mov    %rax,-0x288(%rbp)
    de1e:	48 8d 85 c4 f4 ff ff 	lea    -0xb3c(%rbp),%rax
    de25:	48 89 85 80 fd ff ff 	mov    %rax,-0x280(%rbp)
    de2c:	48 8d 05 09 72 00 00 	lea    0x7209(%rip),%rax        # 1503c <g_76>
    de33:	48 89 85 88 fd ff ff 	mov    %rax,-0x278(%rbp)
    de3a:	48 8d 85 9c f4 ff ff 	lea    -0xb64(%rbp),%rax
    de41:	48 89 85 90 fd ff ff 	mov    %rax,-0x270(%rbp)
    de48:	48 8d 05 05 32 00 00 	lea    0x3205(%rip),%rax        # 11054 <g_197>
    de4f:	48 89 85 98 fd ff ff 	mov    %rax,-0x268(%rbp)
    de56:	48 8d 05 f7 31 00 00 	lea    0x31f7(%rip),%rax        # 11054 <g_197>
    de5d:	48 89 85 a0 fd ff ff 	mov    %rax,-0x260(%rbp)
    de64:	48 8d 85 9c f4 ff ff 	lea    -0xb64(%rbp),%rax
    de6b:	48 89 85 a8 fd ff ff 	mov    %rax,-0x258(%rbp)
    de72:	48 8d 85 c4 f4 ff ff 	lea    -0xb3c(%rbp),%rax
    de79:	48 89 85 b0 fd ff ff 	mov    %rax,-0x250(%rbp)
    de80:	48 8d 85 20 f8 ff ff 	lea    -0x7e0(%rbp),%rax
    de87:	48 83 c0 68          	add    $0x68,%rax
    de8b:	48 89 85 b8 fd ff ff 	mov    %rax,-0x248(%rbp)
    de92:	48 8d 85 20 f8 ff ff 	lea    -0x7e0(%rbp),%rax
    de99:	48 83 c0 68          	add    $0x68,%rax
    de9d:	48 89 85 c0 fd ff ff 	mov    %rax,-0x240(%rbp)
    dea4:	48 8d 05 65 72 00 00 	lea    0x7265(%rip),%rax        # 15110 <g_380+0x10>
    deab:	48 89 85 c8 fd ff ff 	mov    %rax,-0x238(%rbp)
    deb2:	48 8d 85 c8 f4 ff ff 	lea    -0xb38(%rbp),%rax
    deb9:	48 89 85 d0 fd ff ff 	mov    %rax,-0x230(%rbp)
    dec0:	48 c7 85 d8 fd ff ff 	movq   $0x0,-0x228(%rbp)
    dec7:	00 00 00 00 
    decb:	48 8d 85 20 f8 ff ff 	lea    -0x7e0(%rbp),%rax
    ded2:	48 83 c0 68          	add    $0x68,%rax
    ded6:	48 89 85 e0 fd ff ff 	mov    %rax,-0x220(%rbp)
    dedd:	48 8d 05 58 71 00 00 	lea    0x7158(%rip),%rax        # 1503c <g_76>
    dee4:	48 89 85 e8 fd ff ff 	mov    %rax,-0x218(%rbp)
    deeb:	48 8d 85 c4 f4 ff ff 	lea    -0xb3c(%rbp),%rax
    def2:	48 89 85 f0 fd ff ff 	mov    %rax,-0x210(%rbp)
    def9:	48 8d 05 20 72 00 00 	lea    0x7220(%rip),%rax        # 15120 <g_380+0x20>
    df00:	48 89 85 f8 fd ff ff 	mov    %rax,-0x208(%rbp)
    df07:	48 8d 05 46 31 00 00 	lea    0x3146(%rip),%rax        # 11054 <g_197>
    df0e:	48 89 85 00 fe ff ff 	mov    %rax,-0x200(%rbp)
    df15:	48 c7 85 08 fe ff ff 	movq   $0x0,-0x1f8(%rbp)
    df1c:	00 00 00 00 
    df20:	48 8d 85 9c f4 ff ff 	lea    -0xb64(%rbp),%rax
    df27:	48 89 85 10 fe ff ff 	mov    %rax,-0x1f0(%rbp)
    df2e:	48 8d 85 a0 f4 ff ff 	lea    -0xb60(%rbp),%rax
    df35:	48 89 85 18 fe ff ff 	mov    %rax,-0x1e8(%rbp)
    df3c:	48 8d 85 c4 f4 ff ff 	lea    -0xb3c(%rbp),%rax
    df43:	48 89 85 20 fe ff ff 	mov    %rax,-0x1e0(%rbp)
    df4a:	48 8d 85 a0 f4 ff ff 	lea    -0xb60(%rbp),%rax
    df51:	48 89 85 28 fe ff ff 	mov    %rax,-0x1d8(%rbp)
    df58:	48 c7 85 30 fe ff ff 	movq   $0x0,-0x1d0(%rbp)
    df5f:	00 00 00 00 
    df63:	48 c7 85 38 fe ff ff 	movq   $0x0,-0x1c8(%rbp)
    df6a:	00 00 00 00 
    df6e:	48 8d 05 ab 71 00 00 	lea    0x71ab(%rip),%rax        # 15120 <g_380+0x20>
    df75:	48 89 85 40 fe ff ff 	mov    %rax,-0x1c0(%rbp)
    df7c:	48 8d 85 c4 f4 ff ff 	lea    -0xb3c(%rbp),%rax
    df83:	48 89 85 48 fe ff ff 	mov    %rax,-0x1b8(%rbp)
    df8a:	48 c7 85 50 fe ff ff 	movq   $0x0,-0x1b0(%rbp)
    df91:	00 00 00 00 
    df95:	48 8d 05 88 70 00 00 	lea    0x7088(%rip),%rax        # 15024 <g_6>
    df9c:	48 89 85 58 fe ff ff 	mov    %rax,-0x1a8(%rbp)
    dfa3:	48 8d 05 76 71 00 00 	lea    0x7176(%rip),%rax        # 15120 <g_380+0x20>
    dfaa:	48 89 85 60 fe ff ff 	mov    %rax,-0x1a0(%rbp)
    dfb1:	48 8d 05 68 71 00 00 	lea    0x7168(%rip),%rax        # 15120 <g_380+0x20>
    dfb8:	48 89 85 68 fe ff ff 	mov    %rax,-0x198(%rbp)
    dfbf:	48 8d 05 5a 71 00 00 	lea    0x715a(%rip),%rax        # 15120 <g_380+0x20>
    dfc6:	48 89 85 70 fe ff ff 	mov    %rax,-0x190(%rbp)
    dfcd:	48 8d 05 4c 71 00 00 	lea    0x714c(%rip),%rax        # 15120 <g_380+0x20>
    dfd4:	48 89 85 78 fe ff ff 	mov    %rax,-0x188(%rbp)
    dfdb:	48 8d 05 42 70 00 00 	lea    0x7042(%rip),%rax        # 15024 <g_6>
    dfe2:	48 89 85 80 fe ff ff 	mov    %rax,-0x180(%rbp)
    dfe9:	48 8d 85 9c f4 ff ff 	lea    -0xb64(%rbp),%rax
    dff0:	48 89 85 88 fe ff ff 	mov    %rax,-0x178(%rbp)
    dff7:	48 8d 85 a0 f4 ff ff 	lea    -0xb60(%rbp),%rax
    dffe:	48 89 85 90 fe ff ff 	mov    %rax,-0x170(%rbp)
    e005:	48 8d 85 20 f8 ff ff 	lea    -0x7e0(%rbp),%rax
    e00c:	48 83 c0 5c          	add    $0x5c,%rax
    e010:	48 89 85 98 fe ff ff 	mov    %rax,-0x168(%rbp)
    e017:	48 8d 05 36 30 00 00 	lea    0x3036(%rip),%rax        # 11054 <g_197>
    e01e:	48 89 85 a0 fe ff ff 	mov    %rax,-0x160(%rbp)
    e025:	48 8d 05 40 70 00 00 	lea    0x7040(%rip),%rax        # 1506c <g_253>
    e02c:	48 89 85 a8 fe ff ff 	mov    %rax,-0x158(%rbp)
    e033:	48 8d 05 d6 70 00 00 	lea    0x70d6(%rip),%rax        # 15110 <g_380+0x10>
    e03a:	48 89 85 b0 fe ff ff 	mov    %rax,-0x150(%rbp)
    e041:	48 c7 85 b8 fe ff ff 	movq   $0x0,-0x148(%rbp)
    e048:	00 00 00 00 
    e04c:	48 8d 05 cd 70 00 00 	lea    0x70cd(%rip),%rax        # 15120 <g_380+0x20>
    e053:	48 89 85 c0 fe ff ff 	mov    %rax,-0x140(%rbp)
    e05a:	48 c7 85 c8 fe ff ff 	movq   $0x0,-0x138(%rbp)
    e061:	00 00 00 00 
    e065:	48 8d 05 b4 70 00 00 	lea    0x70b4(%rip),%rax        # 15120 <g_380+0x20>
    e06c:	48 89 85 d0 fe ff ff 	mov    %rax,-0x130(%rbp)
    e073:	48 c7 85 d8 fe ff ff 	movq   $0x0,-0x128(%rbp)
    e07a:	00 00 00 00 
    e07e:	48 8d 05 b7 6f 00 00 	lea    0x6fb7(%rip),%rax        # 1503c <g_76>
    e085:	48 89 85 e0 fe ff ff 	mov    %rax,-0x120(%rbp)
    e08c:	48 8d 05 d9 6f 00 00 	lea    0x6fd9(%rip),%rax        # 1506c <g_253>
    e093:	48 89 85 e8 fe ff ff 	mov    %rax,-0x118(%rbp)
    e09a:	48 8d 85 c4 f4 ff ff 	lea    -0xb3c(%rbp),%rax
    e0a1:	48 89 85 f0 fe ff ff 	mov    %rax,-0x110(%rbp)
    e0a8:	48 8d 85 20 f8 ff ff 	lea    -0x7e0(%rbp),%rax
    e0af:	48 83 c0 5c          	add    $0x5c,%rax
    e0b3:	48 89 85 f8 fe ff ff 	mov    %rax,-0x108(%rbp)
    e0ba:	48 8d 85 a0 f4 ff ff 	lea    -0xb60(%rbp),%rax
    e0c1:	48 89 85 00 ff ff ff 	mov    %rax,-0x100(%rbp)
    e0c8:	48 8d 85 9c f4 ff ff 	lea    -0xb64(%rbp),%rax
    e0cf:	48 89 85 08 ff ff ff 	mov    %rax,-0xf8(%rbp)
    e0d6:	48 8d 05 43 70 00 00 	lea    0x7043(%rip),%rax        # 15120 <g_380+0x20>
    e0dd:	48 89 85 10 ff ff ff 	mov    %rax,-0xf0(%rbp)
    e0e4:	48 8d 05 35 70 00 00 	lea    0x7035(%rip),%rax        # 15120 <g_380+0x20>
    e0eb:	48 89 85 18 ff ff ff 	mov    %rax,-0xe8(%rbp)
    e0f2:	48 8d 85 20 f8 ff ff 	lea    -0x7e0(%rbp),%rax
    e0f9:	48 83 c0 38          	add    $0x38,%rax
    e0fd:	48 89 85 20 ff ff ff 	mov    %rax,-0xe0(%rbp)
    e104:	48 8d 05 15 70 00 00 	lea    0x7015(%rip),%rax        # 15120 <g_380+0x20>
    e10b:	48 89 85 28 ff ff ff 	mov    %rax,-0xd8(%rbp)
    e112:	48 8d 85 20 f8 ff ff 	lea    -0x7e0(%rbp),%rax
    e119:	48 83 c0 54          	add    $0x54,%rax
    e11d:	48 89 85 30 ff ff ff 	mov    %rax,-0xd0(%rbp)
    e124:	48 8d 05 f9 6e 00 00 	lea    0x6ef9(%rip),%rax        # 15024 <g_6>
    e12b:	48 89 85 38 ff ff ff 	mov    %rax,-0xc8(%rbp)
    e132:	48 c7 85 40 ff ff ff 	movq   $0x0,-0xc0(%rbp)
    e139:	00 00 00 00 
    e13d:	48 8d 85 c4 f4 ff ff 	lea    -0xb3c(%rbp),%rax
    e144:	48 89 85 48 ff ff ff 	mov    %rax,-0xb8(%rbp)
    e14b:	48 8d 85 9c f4 ff ff 	lea    -0xb64(%rbp),%rax
    e152:	48 89 85 50 ff ff ff 	mov    %rax,-0xb0(%rbp)
    e159:	48 c7 85 58 ff ff ff 	movq   $0x0,-0xa8(%rbp)
    e160:	00 00 00 00 
    e164:	48 8d 05 b9 6e 00 00 	lea    0x6eb9(%rip),%rax        # 15024 <g_6>
    e16b:	48 89 85 60 ff ff ff 	mov    %rax,-0xa0(%rbp)
    e172:	48 8d 85 a0 f4 ff ff 	lea    -0xb60(%rbp),%rax
    e179:	48 89 85 68 ff ff ff 	mov    %rax,-0x98(%rbp)
    e180:	48 8d 05 9d 6e 00 00 	lea    0x6e9d(%rip),%rax        # 15024 <g_6>
    e187:	48 89 85 70 ff ff ff 	mov    %rax,-0x90(%rbp)
    e18e:	48 8d 85 a0 f4 ff ff 	lea    -0xb60(%rbp),%rax
    e195:	48 89 85 78 ff ff ff 	mov    %rax,-0x88(%rbp)
    e19c:	48 c7 45 80 00 00 00 	movq   $0x0,-0x80(%rbp)
    e1a3:	00 
    e1a4:	48 c7 45 88 00 00 00 	movq   $0x0,-0x78(%rbp)
    e1ab:	00 
    e1ac:	48 8d 85 a0 f4 ff ff 	lea    -0xb60(%rbp),%rax
    e1b3:	48 89 45 90          	mov    %rax,-0x70(%rbp)
    e1b7:	48 8d 05 62 6f 00 00 	lea    0x6f62(%rip),%rax        # 15120 <g_380+0x20>
    e1be:	48 89 45 98          	mov    %rax,-0x68(%rbp)
    e1c2:	48 8d 85 20 f8 ff ff 	lea    -0x7e0(%rbp),%rax
    e1c9:	48 83 c0 68          	add    $0x68,%rax
    e1cd:	48 89 45 a0          	mov    %rax,-0x60(%rbp)
    e1d1:	48 8d 05 64 6e 00 00 	lea    0x6e64(%rip),%rax        # 1503c <g_76>
    e1d8:	48 89 45 a8          	mov    %rax,-0x58(%rbp)
    e1dc:	48 8d 05 41 6e 00 00 	lea    0x6e41(%rip),%rax        # 15024 <g_6>
    e1e3:	48 89 45 b0          	mov    %rax,-0x50(%rbp)
    e1e7:	48 c7 45 b8 00 00 00 	movq   $0x0,-0x48(%rbp)
    e1ee:	00 
    e1ef:	66 c7 85 94 f4 ff ff 	movw   $0xcb80,-0xb6c(%rbp)
    e1f6:	80 cb 
    e1f8:	c7 85 9c f4 ff ff 00 	movl   $0x0,-0xb64(%rbp)
    e1ff:	00 00 00 
    e202:	e9 b6 02 00 00       	jmpq   e4bd <func_82+0x1b01>
    e207:	48 c7 85 08 f6 ff ff 	movq   $0x0,-0x9f8(%rbp)
    e20e:	00 00 00 00 
    e212:	48 8d 05 5f 6e 00 00 	lea    0x6e5f(%rip),%rax        # 15078 <g_296+0x8>
    e219:	48 89 85 10 f6 ff ff 	mov    %rax,-0x9f0(%rbp)
    e220:	c7 85 a0 f7 ff ff ff 	movl   $0xffffffff,-0x860(%rbp)
    e227:	ff ff ff 
    e22a:	c7 85 a4 f7 ff ff ff 	movl   $0xffffffff,-0x85c(%rbp)
    e231:	ff ff ff 
    e234:	c7 85 a8 f7 ff ff ff 	movl   $0xffffffff,-0x858(%rbp)
    e23b:	ff ff ff 
    e23e:	c7 85 ac f7 ff ff ff 	movl   $0xffffffff,-0x854(%rbp)
    e245:	ff ff ff 
    e248:	c7 85 b0 f7 ff ff ff 	movl   $0xffffffff,-0x850(%rbp)
    e24f:	ff ff ff 
    e252:	c7 85 b4 f7 ff ff ff 	movl   $0xffffffff,-0x84c(%rbp)
    e259:	ff ff ff 
    e25c:	c7 85 b8 f7 ff ff ff 	movl   $0xffffffff,-0x848(%rbp)
    e263:	ff ff ff 
    e266:	66 c7 85 92 f4 ff ff 	movw   $0x1,-0xb6e(%rbp)
    e26d:	01 00 
    e26f:	eb 30                	jmp    e2a1 <func_82+0x18e5>
    e271:	48 8d 05 18 77 00 00 	lea    0x7718(%rip),%rax        # 15990 <g_632>
    e278:	48 89 85 18 f6 ff ff 	mov    %rax,-0x9e8(%rbp)
    e27f:	48 8b 15 0a 77 00 00 	mov    0x770a(%rip),%rdx        # 15990 <g_632>
    e286:	48 8b 85 18 f6 ff ff 	mov    -0x9e8(%rbp),%rax
    e28d:	48 89 10             	mov    %rdx,(%rax)
    e290:	0f b7 85 92 f4 ff ff 	movzwl -0xb6e(%rbp),%eax
    e297:	83 e8 01             	sub    $0x1,%eax
    e29a:	66 89 85 92 f4 ff ff 	mov    %ax,-0xb6e(%rbp)
    e2a1:	66 83 bd 92 f4 ff ff 	cmpw   $0x0,-0xb6e(%rbp)
    e2a8:	00 
    e2a9:	79 c6                	jns    e271 <func_82+0x18b5>
    e2ab:	48 8b 05 b6 79 00 00 	mov    0x79b6(%rip),%rax        # 15c68 <g_636+0x2a8>
    e2b2:	48 89 85 e0 f5 ff ff 	mov    %rax,-0xa20(%rbp)
    e2b9:	48 8b 85 e0 f5 ff ff 	mov    -0xa20(%rbp),%rax
    e2c0:	48 3b 85 e8 f5 ff ff 	cmp    -0xa18(%rbp),%rax
    e2c7:	0f 94 c0             	sete   %al
    e2ca:	44 0f b6 f0          	movzbl %al,%r14d
    e2ce:	48 8b 85 f8 f5 ff ff 	mov    -0xa08(%rbp),%rax
    e2d5:	48 3b 85 f0 f5 ff ff 	cmp    -0xa10(%rbp),%rax
    e2dc:	0f 84 30 01 00 00    	je     e412 <func_82+0x1a56>
    e2e2:	48 8b 85 78 f4 ff ff 	mov    -0xb88(%rbp),%rax
    e2e9:	89 85 74 f4 ff ff    	mov    %eax,-0xb8c(%rbp)
    e2ef:	0f b6 05 64 6d 00 00 	movzbl 0x6d64(%rip),%eax        # 1505a <g_177+0x2>
    e2f6:	0f be d0             	movsbl %al,%edx
    e2f9:	48 83 bd c8 f5 ff ff 	cmpq   $0x0,-0xa38(%rbp)
    e300:	00 
    e301:	0f 95 c0             	setne  %al
    e304:	0f b6 c0             	movzbl %al,%eax
    e307:	39 c2                	cmp    %eax,%edx
    e309:	0f 95 c0             	setne  %al
    e30c:	44 0f b6 f8          	movzbl %al,%r15d
    e310:	8b 85 44 f8 ff ff    	mov    -0x7bc(%rbp),%eax
    e316:	48 63 d8             	movslq %eax,%rbx
    e319:	c7 85 c8 f4 ff ff b1 	movl   $0x30b1,-0xb38(%rbp)
    e320:	30 00 00 
    e323:	0f b7 05 2a 6d 00 00 	movzwl 0x6d2a(%rip),%eax        # 15054 <g_141>
    e32a:	44 0f b7 e0          	movzwl %ax,%r12d
    e32e:	48 8b 05 0b 74 00 00 	mov    0x740b(%rip),%rax        # 15740 <g_5>
    e335:	8b 00                	mov    (%rax),%eax
    e337:	89 85 70 f4 ff ff    	mov    %eax,-0xb90(%rbp)
    e33d:	8b 85 e8 f4 ff ff    	mov    -0xb18(%rbp),%eax
    e343:	44 0f be e8          	movsbl %al,%r13d
    e347:	be ff 00 00 00       	mov    $0xff,%esi
    e34c:	bf 01 00 00 00       	mov    $0x1,%edi
    e351:	e8 3d 78 ff ff       	callq  5b93 <safe_mul_func_uint8_t_u_u>
    e356:	0f be c0             	movsbl %al,%eax
    e359:	44 89 ee             	mov    %r13d,%esi
    e35c:	89 c7                	mov    %eax,%edi
    e35e:	e8 07 6f ff ff       	callq  526a <safe_div_func_int8_t_s_s>
    e363:	0f be c0             	movsbl %al,%eax
    e366:	8b b5 70 f4 ff ff    	mov    -0xb90(%rbp),%esi
    e36c:	89 c7                	mov    %eax,%edi
    e36e:	e8 b2 7b ff ff       	callq  5f25 <safe_div_func_uint32_t_u_u>
    e373:	98                   	cwtl   
    e374:	44 89 e6             	mov    %r12d,%esi
    e377:	89 c7                	mov    %eax,%edi
    e379:	e8 ac 71 ff ff       	callq  552a <safe_rshift_func_int16_t_s_s>
    e37e:	0f bf d0             	movswl %ax,%edx
    e381:	48 8b 85 c0 f5 ff ff 	mov    -0xa40(%rbp),%rax
    e388:	89 10                	mov    %edx,(%rax)
    e38a:	48 8b 85 c0 f5 ff ff 	mov    -0xa40(%rbp),%rax
    e391:	8b 00                	mov    (%rax),%eax
    e393:	be f8 ff ff ff       	mov    $0xfffffff8,%esi
    e398:	89 c7                	mov    %eax,%edi
    e39a:	e8 5e 7b ff ff       	callq  5efd <safe_mod_func_uint32_t_u_u>
    e39f:	48 8b 85 10 f6 ff ff 	mov    -0x9f0(%rbp),%rax
    e3a6:	66 c7 00 01 00       	movw   $0x1,(%rax)
    e3ab:	48 8b 85 10 f6 ff ff 	mov    -0x9f0(%rbp),%rax
    e3b2:	0f b7 00             	movzwl (%rax),%eax
    e3b5:	66 0d b1 30          	or     $0x30b1,%ax
    e3b9:	89 c2                	mov    %eax,%edx
    e3bb:	48 8b 85 70 f5 ff ff 	mov    -0xa90(%rbp),%rax
    e3c2:	48 8b 00             	mov    (%rax),%rax
    e3c5:	48 8b 00             	mov    (%rax),%rax
    e3c8:	8b 00                	mov    (%rax),%eax
    e3ca:	09 d0                	or     %edx,%eax
    e3cc:	98                   	cwtl   
    e3cd:	be 01 00 00 00       	mov    $0x1,%esi
    e3d2:	89 c7                	mov    %eax,%edi
    e3d4:	e8 51 71 ff ff       	callq  552a <safe_rshift_func_int16_t_s_s>
    e3d9:	48 0f bf c0          	movswq %ax,%rax
    e3dd:	48 89 de             	mov    %rbx,%rsi
    e3e0:	48 89 c7             	mov    %rax,%rdi
    e3e3:	e8 46 7c ff ff       	callq  602e <safe_add_func_uint64_t_u_u>
    e3e8:	bf f6 00 00 00       	mov    $0xf6,%edi
    e3ed:	e8 53 77 ff ff       	callq  5b45 <safe_unary_minus_func_uint8_t_u>
    e3f2:	0f b6 c0             	movzbl %al,%eax
    e3f5:	41 39 c7             	cmp    %eax,%r15d
    e3f8:	0f 9f c0             	setg   %al
    e3fb:	0f b6 c0             	movzbl %al,%eax
    e3fe:	8b b5 74 f4 ff ff    	mov    -0xb8c(%rbp),%esi
    e404:	89 c7                	mov    %eax,%edi
    e406:	e8 f2 7a ff ff       	callq  5efd <safe_mod_func_uint32_t_u_u>
    e40b:	b8 00 00 00 00       	mov    $0x0,%eax
    e410:	eb 05                	jmp    e417 <func_82+0x1a5b>
    e412:	b8 01 00 00 00       	mov    $0x1,%eax
    e417:	89 85 a8 f7 ff ff    	mov    %eax,-0x858(%rbp)
    e41d:	8b 85 a8 f7 ff ff    	mov    -0x858(%rbp),%eax
    e423:	85 c0                	test   %eax,%eax
    e425:	75 0a                	jne    e431 <func_82+0x1a75>
    e427:	8b 85 c4 f4 ff ff    	mov    -0xb3c(%rbp),%eax
    e42d:	85 c0                	test   %eax,%eax
    e42f:	74 07                	je     e438 <func_82+0x1a7c>
    e431:	b8 01 00 00 00       	mov    $0x1,%eax
    e436:	eb 05                	jmp    e43d <func_82+0x1a81>
    e438:	b8 00 00 00 00       	mov    $0x0,%eax
    e43d:	98                   	cwtl   
    e43e:	be 0b 00 00 00       	mov    $0xb,%esi
    e443:	89 c7                	mov    %eax,%edi
    e445:	e8 48 70 ff ff       	callq  5492 <safe_lshift_func_int16_t_s_s>
    e44a:	98                   	cwtl   
    e44b:	44 09 f0             	or     %r14d,%eax
    e44e:	48 98                	cltq   
    e450:	83 e0 02             	and    $0x2,%eax
    e453:	48 85 c0             	test   %rax,%rax
    e456:	74 0b                	je     e463 <func_82+0x1aa7>
    e458:	80 bd 8e f4 ff ff 00 	cmpb   $0x0,-0xb72(%rbp)
    e45f:	74 14                	je     e475 <func_82+0x1ab9>
    e461:	eb 69                	jmp    e4cc <func_82+0x1b10>
    e463:	48 8b 15 f6 72 00 00 	mov    0x72f6(%rip),%rdx        # 15760 <g_254>
    e46a:	48 8b 05 ef 72 00 00 	mov    0x72ef(%rip),%rax        # 15760 <g_254>
    e471:	8b 12                	mov    (%rdx),%edx
    e473:	89 10                	mov    %edx,(%rax)
    e475:	48 8b 05 e4 72 00 00 	mov    0x72e4(%rip),%rax        # 15760 <g_254>
    e47c:	8b 10                	mov    (%rax),%edx
    e47e:	48 8b 05 db 72 00 00 	mov    0x72db(%rip),%rax        # 15760 <g_254>
    e485:	83 ca 09             	or     $0x9,%edx
    e488:	89 10                	mov    %edx,(%rax)
    e48a:	48 c7 05 cb 6b 00 00 	movq   $0x0,0x6bcb(%rip)        # 15060 <g_201>
    e491:	00 00 00 00 
    e495:	90                   	nop
    e496:	48 8b 05 c3 6b 00 00 	mov    0x6bc3(%rip),%rax        # 15060 <g_201>
    e49d:	48 83 f8 02          	cmp    $0x2,%rax
    e4a1:	77 0b                	ja     e4ae <func_82+0x1af2>
    e4a3:	8b 85 44 f8 ff ff    	mov    -0x7bc(%rbp),%eax
    e4a9:	e9 3a 0c 00 00       	jmpq   f0e8 <func_82+0x272c>
    e4ae:	8b 85 9c f4 ff ff    	mov    -0xb64(%rbp),%eax
    e4b4:	83 e8 01             	sub    $0x1,%eax
    e4b7:	89 85 9c f4 ff ff    	mov    %eax,-0xb64(%rbp)
    e4bd:	8b 85 9c f4 ff ff    	mov    -0xb64(%rbp),%eax
    e4c3:	83 f8 e7             	cmp    $0xffffffe7,%eax
    e4c6:	0f 8d 3b fd ff ff    	jge    e207 <func_82+0x184b>
    e4cc:	48 8b 05 8d 72 00 00 	mov    0x728d(%rip),%rax        # 15760 <g_254>
    e4d3:	8b 10                	mov    (%rax),%edx
    e4d5:	48 8b 05 84 72 00 00 	mov    0x7284(%rip),%rax        # 15760 <g_254>
    e4dc:	83 ca 01             	or     $0x1,%edx
    e4df:	89 10                	mov    %edx,(%rax)
    e4e1:	66 c7 05 6c 6b 00 00 	movw   $0xfff6,0x6b6c(%rip)        # 15056 <g_174>
    e4e8:	f6 ff 
    e4ea:	e9 fd 02 00 00       	jmpq   e7ec <func_82+0x1e30>
    e4ef:	48 8d 85 c8 f4 ff ff 	lea    -0xb38(%rbp),%rax
    e4f6:	48 89 85 60 f5 ff ff 	mov    %rax,-0xaa0(%rbp)
    e4fd:	48 c7 85 50 f7 ff ff 	movq   $0x0,-0x8b0(%rbp)
    e504:	00 00 00 00 
    e508:	48 8d 85 60 f5 ff ff 	lea    -0xaa0(%rbp),%rax
    e50f:	48 89 85 58 f7 ff ff 	mov    %rax,-0x8a8(%rbp)
    e516:	48 c7 85 60 f7 ff ff 	movq   $0x0,-0x8a0(%rbp)
    e51d:	00 00 00 00 
    e521:	48 8d 85 60 f5 ff ff 	lea    -0xaa0(%rbp),%rax
    e528:	48 89 85 68 f7 ff ff 	mov    %rax,-0x898(%rbp)
    e52f:	48 8d 85 60 f5 ff ff 	lea    -0xaa0(%rbp),%rax
    e536:	48 89 85 70 f7 ff ff 	mov    %rax,-0x890(%rbp)
    e53d:	48 c7 85 78 f7 ff ff 	movq   $0x0,-0x888(%rbp)
    e544:	00 00 00 00 
    e548:	48 8d 85 60 f5 ff ff 	lea    -0xaa0(%rbp),%rax
    e54f:	48 89 85 80 f7 ff ff 	mov    %rax,-0x880(%rbp)
    e556:	48 c7 85 88 f7 ff ff 	movq   $0x0,-0x878(%rbp)
    e55d:	00 00 00 00 
    e561:	48 8d 85 60 f5 ff ff 	lea    -0xaa0(%rbp),%rax
    e568:	48 89 85 90 f7 ff ff 	mov    %rax,-0x870(%rbp)
    e56f:	48 8d 85 60 f5 ff ff 	lea    -0xaa0(%rbp),%rax
    e576:	48 89 85 98 f7 ff ff 	mov    %rax,-0x868(%rbp)
    e57d:	48 8d 05 9c 6b 00 00 	lea    0x6b9c(%rip),%rax        # 15120 <g_380+0x20>
    e584:	48 89 85 20 f6 ff ff 	mov    %rax,-0x9e0(%rbp)
    e58b:	48 8d 85 a4 f4 ff ff 	lea    -0xb5c(%rbp),%rax
    e592:	48 89 85 28 f6 ff ff 	mov    %rax,-0x9d8(%rbp)
    e599:	48 8d 85 c8 f4 ff ff 	lea    -0xb38(%rbp),%rax
    e5a0:	48 89 85 30 f6 ff ff 	mov    %rax,-0x9d0(%rbp)
    e5a7:	48 8d 85 c8 f4 ff ff 	lea    -0xb38(%rbp),%rax
    e5ae:	48 89 85 38 f6 ff ff 	mov    %rax,-0x9c8(%rbp)
    e5b5:	48 c7 85 40 f6 ff ff 	movq   $0x0,-0x9c0(%rbp)
    e5bc:	00 00 00 00 
    e5c0:	48 8d 85 a4 f4 ff ff 	lea    -0xb5c(%rbp),%rax
    e5c7:	48 89 85 48 f6 ff ff 	mov    %rax,-0x9b8(%rbp)
    e5ce:	48 8d 85 20 f8 ff ff 	lea    -0x7e0(%rbp),%rax
    e5d5:	48 83 c0 24          	add    $0x24,%rax
    e5d9:	48 89 85 50 f6 ff ff 	mov    %rax,-0x9b0(%rbp)
    e5e0:	48 c7 85 58 f6 ff ff 	movq   $0x0,-0x9a8(%rbp)
    e5e7:	00 00 00 00 
    e5eb:	48 c7 85 a0 f7 ff ff 	movq   $0x0,-0x860(%rbp)
    e5f2:	00 00 00 00 
    e5f6:	48 8d 05 3f 6a 00 00 	lea    0x6a3f(%rip),%rax        # 1503c <g_76>
    e5fd:	48 89 85 a8 f7 ff ff 	mov    %rax,-0x858(%rbp)
    e604:	48 c7 85 b0 f7 ff ff 	movq   $0x0,-0x850(%rbp)
    e60b:	00 00 00 00 
    e60f:	48 8d 05 26 6a 00 00 	lea    0x6a26(%rip),%rax        # 1503c <g_76>
    e616:	48 89 85 b8 f7 ff ff 	mov    %rax,-0x848(%rbp)
    e61d:	48 c7 85 c0 f7 ff ff 	movq   $0x0,-0x840(%rbp)
    e624:	00 00 00 00 
    e628:	48 8d 05 0d 6a 00 00 	lea    0x6a0d(%rip),%rax        # 1503c <g_76>
    e62f:	48 89 85 c8 f7 ff ff 	mov    %rax,-0x838(%rbp)
    e636:	48 c7 85 d0 f7 ff ff 	movq   $0x0,-0x830(%rbp)
    e63d:	00 00 00 00 
    e641:	48 8d 05 f4 69 00 00 	lea    0x69f4(%rip),%rax        # 1503c <g_76>
    e648:	48 89 85 d8 f7 ff ff 	mov    %rax,-0x828(%rbp)
    e64f:	48 c7 85 e0 f7 ff ff 	movq   $0x0,-0x820(%rbp)
    e656:	00 00 00 00 
    e65a:	48 8d 05 db 69 00 00 	lea    0x69db(%rip),%rax        # 1503c <g_76>
    e661:	48 89 85 e8 f7 ff ff 	mov    %rax,-0x818(%rbp)
    e668:	48 c7 85 f0 f7 ff ff 	movq   $0x0,-0x810(%rbp)
    e66f:	00 00 00 00 
    e673:	48 8d 05 c2 69 00 00 	lea    0x69c2(%rip),%rax        # 1503c <g_76>
    e67a:	48 89 85 f8 f7 ff ff 	mov    %rax,-0x808(%rbp)
    e681:	48 8d 85 c4 f4 ff ff 	lea    -0xb3c(%rbp),%rax
    e688:	48 89 85 d0 fb ff ff 	mov    %rax,-0x430(%rbp)
    e68f:	80 85 8c f4 ff ff 01 	addb   $0x1,-0xb74(%rbp)
    e696:	48 83 bd d0 f5 ff ff 	cmpq   $0x0,-0xa30(%rbp)
    e69d:	00 
    e69e:	0f 85 a7 00 00 00    	jne    e74b <func_82+0x1d8f>
    e6a4:	48 8b 85 78 f4 ff ff 	mov    -0xb88(%rbp),%rax
    e6ab:	0f b7 d8             	movzwl %ax,%ebx
    e6ae:	0f b6 05 a5 69 00 00 	movzbl 0x69a5(%rip),%eax        # 1505a <g_177+0x2>
    e6b5:	44 0f be e0          	movsbl %al,%r12d
    e6b9:	48 8b 85 78 f4 ff ff 	mov    -0xb88(%rbp),%rax
    e6c0:	49 89 c5             	mov    %rax,%r13
    e6c3:	48 8b 85 78 f4 ff ff 	mov    -0xb88(%rbp),%rax
    e6ca:	48 ba e6 e0 6c 28 45 	movabs $0x6c1c0e45286ce0e6,%rdx
    e6d1:	0e 1c 6c 
    e6d4:	48 39 d0             	cmp    %rdx,%rax
    e6d7:	0f 97 c0             	seta   %al
    e6da:	0f b6 c0             	movzbl %al,%eax
    e6dd:	be 04 00 00 00       	mov    $0x4,%esi
    e6e2:	89 c7                	mov    %eax,%edi
    e6e4:	e8 d5 75 ff ff       	callq  5cbe <safe_rshift_func_uint8_t_u_u>
    e6e9:	3c 02                	cmp    $0x2,%al
    e6eb:	0f 97 c0             	seta   %al
    e6ee:	0f b6 c0             	movzbl %al,%eax
    e6f1:	4c 89 ee             	mov    %r13,%rsi
    e6f4:	48 89 c7             	mov    %rax,%rdi
    e6f7:	e8 b8 72 ff ff       	callq  59b4 <safe_mod_func_int64_t_s_s>
    e6fc:	89 c2                	mov    %eax,%edx
    e6fe:	48 8b 85 78 f4 ff ff 	mov    -0xb88(%rbp),%rax
    e705:	09 d0                	or     %edx,%eax
    e707:	0f b7 c0             	movzwl %ax,%eax
    e70a:	44 89 e6             	mov    %r12d,%esi
    e70d:	89 c7                	mov    %eax,%edi
    e70f:	e8 66 77 ff ff       	callq  5e7a <safe_rshift_func_uint16_t_u_u>
    e714:	48 8b 95 c0 f5 ff ff 	mov    -0xa40(%rbp),%rdx
    e71b:	8b 12                	mov    (%rdx),%edx
    e71d:	0f b7 c0             	movzwl %ax,%eax
    e720:	31 c2                	xor    %eax,%edx
    e722:	48 8b 85 c0 f5 ff ff 	mov    -0xa40(%rbp),%rax
    e729:	89 10                	mov    %edx,(%rax)
    e72b:	be 0c e8 00 00       	mov    $0xe80c,%esi
    e730:	bf e7 db 00 00       	mov    $0xdbe7,%edi
    e735:	e8 e5 75 ff ff       	callq  5d1f <safe_sub_func_uint16_t_u_u>
    e73a:	0f b7 c0             	movzwl %ax,%eax
    e73d:	89 de                	mov    %ebx,%esi
    e73f:	89 c7                	mov    %eax,%edi
    e741:	e8 48 76 ff ff       	callq  5d8e <safe_div_func_uint16_t_u_u>
    e746:	66 85 c0             	test   %ax,%ax
    e749:	74 07                	je     e752 <func_82+0x1d96>
    e74b:	b8 01 00 00 00       	mov    $0x1,%eax
    e750:	eb 05                	jmp    e757 <func_82+0x1d9b>
    e752:	b8 00 00 00 00       	mov    $0x0,%eax
    e757:	0f b7 d8             	movzwl %ax,%ebx
    e75a:	48 8b 85 78 f4 ff ff 	mov    -0xb88(%rbp),%rax
    e761:	48 89 c7             	mov    %rax,%rdi
    e764:	e8 b0 78 ff ff       	callq  6019 <safe_unary_minus_func_uint64_t_u>
    e769:	48 8b 95 78 f4 ff ff 	mov    -0xb88(%rbp),%rdx
    e770:	48 85 d2             	test   %rdx,%rdx
    e773:	74 13                	je     e788 <func_82+0x1dcc>
    e775:	48 8b 95 78 f4 ff ff 	mov    -0xb88(%rbp),%rdx
    e77c:	48 85 d2             	test   %rdx,%rdx
    e77f:	74 07                	je     e788 <func_82+0x1dcc>
    e781:	ba 01 00 00 00       	mov    $0x1,%edx
    e786:	eb 05                	jmp    e78d <func_82+0x1dd1>
    e788:	ba 00 00 00 00       	mov    $0x0,%edx
    e78d:	48 63 d2             	movslq %edx,%rdx
    e790:	48 39 d0             	cmp    %rdx,%rax
    e793:	0f 94 c0             	sete   %al
    e796:	0f b6 c0             	movzbl %al,%eax
    e799:	89 de                	mov    %ebx,%esi
    e79b:	89 c7                	mov    %eax,%edi
    e79d:	e8 9b 75 ff ff       	callq  5d3d <safe_mul_func_uint16_t_u_u>
    e7a2:	0f b7 d0             	movzwl %ax,%edx
    e7a5:	48 8b 85 38 f6 ff ff 	mov    -0x9c8(%rbp),%rax
    e7ac:	89 10                	mov    %edx,(%rax)
    e7ae:	c7 85 e8 f4 ff ff 01 	movl   $0x1,-0xb18(%rbp)
    e7b5:	00 00 00 
    e7b8:	eb 18                	jmp    e7d2 <func_82+0x1e16>
    e7ba:	66 c7 85 96 f4 ff ff 	movw   $0xfff9,-0xb6a(%rbp)
    e7c1:	f9 ff 
    e7c3:	66 83 85 96 f4 ff ff 	addw   $0x1,-0xb6a(%rbp)
    e7ca:	01 
    e7cb:	83 ad e8 f4 ff ff 01 	subl   $0x1,-0xb18(%rbp)
    e7d2:	83 bd e8 f4 ff ff 00 	cmpl   $0x0,-0xb18(%rbp)
    e7d9:	79 df                	jns    e7ba <func_82+0x1dfe>
    e7db:	0f b7 05 74 68 00 00 	movzwl 0x6874(%rip),%eax        # 15056 <g_174>
    e7e2:	83 c0 01             	add    $0x1,%eax
    e7e5:	66 89 05 6a 68 00 00 	mov    %ax,0x686a(%rip)        # 15056 <g_174>
    e7ec:	0f b7 05 63 68 00 00 	movzwl 0x6863(%rip),%eax        # 15056 <g_174>
    e7f3:	66 83 f8 01          	cmp    $0x1,%ax
    e7f7:	0f 86 f2 fc ff ff    	jbe    e4ef <func_82+0x1b33>
    e7fd:	48 8b 85 78 f4 ff ff 	mov    -0xb88(%rbp),%rax
    e804:	0f b6 c0             	movzbl %al,%eax
    e807:	be 02 00 00 00       	mov    $0x2,%esi
    e80c:	89 c7                	mov    %eax,%edi
    e80e:	e8 47 73 ff ff       	callq  5b5a <safe_add_func_uint8_t_u_u>
    e813:	0f b6 c0             	movzbl %al,%eax
    e816:	48 89 85 78 f4 ff ff 	mov    %rax,-0xb88(%rbp)
    e81d:	48 8b 85 78 f4 ff ff 	mov    -0xb88(%rbp),%rax
    e824:	48 83 f8 35          	cmp    $0x35,%rax
    e828:	0f 86 29 f0 ff ff    	jbe    d857 <func_82+0xe9b>
    e82e:	48 8b 85 78 f4 ff ff 	mov    -0xb88(%rbp),%rax
    e835:	48 85 c0             	test   %rax,%rax
    e838:	75 27                	jne    e861 <func_82+0x1ea5>
    e83a:	0f b7 05 13 68 00 00 	movzwl 0x6813(%rip),%eax        # 15054 <g_141>
    e841:	83 c0 01             	add    $0x1,%eax
    e844:	66 89 05 09 68 00 00 	mov    %ax,0x6809(%rip)        # 15054 <g_141>
    e84b:	0f b7 05 02 68 00 00 	movzwl 0x6802(%rip),%eax        # 15054 <g_141>
    e852:	66 83 f8 24          	cmp    $0x24,%ax
    e856:	0f 87 1e ef ff ff    	ja     d77a <func_82+0xdbe>
    e85c:	eb 04                	jmp    e862 <func_82+0x1ea6>
    e85e:	90                   	nop
    e85f:	eb 01                	jmp    e862 <func_82+0x1ea6>
    e861:	90                   	nop
    e862:	c7 85 ec f4 ff ff 00 	movl   $0x0,-0xb14(%rbp)
    e869:	00 00 00 
    e86c:	e9 d2 05 00 00       	jmpq   ee43 <func_82+0x2487>
    e871:	48 8d 85 c0 f4 ff ff 	lea    -0xb40(%rbp),%rax
    e878:	48 89 85 70 f6 ff ff 	mov    %rax,-0x990(%rbp)
    e87f:	48 c7 85 78 f6 ff ff 	movq   $0x0,-0x988(%rbp)
    e886:	00 00 00 00 
    e88a:	48 8d 05 cf 6e 00 00 	lea    0x6ecf(%rip),%rax        # 15760 <g_254>
    e891:	48 89 85 80 f6 ff ff 	mov    %rax,-0x980(%rbp)
    e898:	c6 85 8f f4 ff ff 89 	movb   $0x89,-0xb71(%rbp)
    e89f:	48 8b 85 80 f6 ff ff 	mov    -0x980(%rbp),%rax
    e8a6:	48 8b 95 70 f6 ff ff 	mov    -0x990(%rbp),%rdx
    e8ad:	48 89 10             	mov    %rdx,(%rax)
    e8b0:	66 c7 05 6f 68 00 00 	movw   $0x3,0x686f(%rip)        # 15128 <g_621>
    e8b7:	03 00 
    e8b9:	e9 6e 05 00 00       	jmpq   ee2c <func_82+0x2470>
    e8be:	48 8d 85 28 f5 ff ff 	lea    -0xad8(%rbp),%rax
    e8c5:	48 89 85 40 fb ff ff 	mov    %rax,-0x4c0(%rbp)
    e8cc:	48 8d 85 28 f5 ff ff 	lea    -0xad8(%rbp),%rax
    e8d3:	48 89 85 48 fb ff ff 	mov    %rax,-0x4b8(%rbp)
    e8da:	48 8d 85 28 f5 ff ff 	lea    -0xad8(%rbp),%rax
    e8e1:	48 89 85 50 fb ff ff 	mov    %rax,-0x4b0(%rbp)
    e8e8:	48 8d 85 28 f5 ff ff 	lea    -0xad8(%rbp),%rax
    e8ef:	48 89 85 58 fb ff ff 	mov    %rax,-0x4a8(%rbp)
    e8f6:	48 8d 85 28 f5 ff ff 	lea    -0xad8(%rbp),%rax
    e8fd:	48 89 85 60 fb ff ff 	mov    %rax,-0x4a0(%rbp)
    e904:	48 8d 85 28 f5 ff ff 	lea    -0xad8(%rbp),%rax
    e90b:	48 89 85 68 fb ff ff 	mov    %rax,-0x498(%rbp)
    e912:	48 8d 85 28 f5 ff ff 	lea    -0xad8(%rbp),%rax
    e919:	48 89 85 70 fb ff ff 	mov    %rax,-0x490(%rbp)
    e920:	48 8d 85 28 f5 ff ff 	lea    -0xad8(%rbp),%rax
    e927:	48 89 85 78 fb ff ff 	mov    %rax,-0x488(%rbp)
    e92e:	48 8d 05 bb 67 00 00 	lea    0x67bb(%rip),%rax        # 150f0 <g_366>
    e935:	48 89 85 88 f6 ff ff 	mov    %rax,-0x978(%rbp)
    e93c:	c7 85 18 f5 ff ff 09 	movl   $0x9,-0xae8(%rbp)
    e943:	00 00 00 
    e946:	c7 85 e4 f4 ff ff 00 	movl   $0x0,-0xb1c(%rbp)
    e94d:	00 00 00 
    e950:	eb 1b                	jmp    e96d <func_82+0x1fb1>
    e952:	8b 85 e4 f4 ff ff    	mov    -0xb1c(%rbp),%eax
    e958:	48 98                	cltq   
    e95a:	48 c7 84 c5 a0 f7 ff 	movq   $0x0,-0x860(%rbp,%rax,8)
    e961:	ff 00 00 00 00 
    e966:	83 85 e4 f4 ff ff 01 	addl   $0x1,-0xb1c(%rbp)
    e96d:	83 bd e4 f4 ff ff 03 	cmpl   $0x3,-0xb1c(%rbp)
    e974:	7e dc                	jle    e952 <func_82+0x1f96>
    e976:	c7 85 e4 f4 ff ff 00 	movl   $0x0,-0xb1c(%rbp)
    e97d:	00 00 00 
    e980:	eb 22                	jmp    e9a4 <func_82+0x1fe8>
    e982:	8b 85 e4 f4 ff ff    	mov    -0xb1c(%rbp),%eax
    e988:	48 98                	cltq   
    e98a:	48 8d 95 a0 f7 ff ff 	lea    -0x860(%rbp),%rdx
    e991:	48 83 c2 08          	add    $0x8,%rdx
    e995:	48 89 94 c5 20 f8 ff 	mov    %rdx,-0x7e0(%rbp,%rax,8)
    e99c:	ff 
    e99d:	83 85 e4 f4 ff ff 01 	addl   $0x1,-0xb1c(%rbp)
    e9a4:	83 bd e4 f4 ff ff 04 	cmpl   $0x4,-0xb1c(%rbp)
    e9ab:	7e d5                	jle    e982 <func_82+0x1fc6>
    e9ad:	48 8b 85 80 f6 ff ff 	mov    -0x980(%rbp),%rax
    e9b4:	48 c7 00 00 00 00 00 	movq   $0x0,(%rax)
    e9bb:	48 8b 85 78 f4 ff ff 	mov    -0xb88(%rbp),%rax
    e9c2:	0f b7 d8             	movzwl %ax,%ebx
    e9c5:	48 8b 05 84 6d 00 00 	mov    0x6d84(%rip),%rax        # 15750 <g_92>
    e9cc:	0f b6 00             	movzbl (%rax),%eax
    e9cf:	44 0f be e0          	movsbl %al,%r12d
    e9d3:	48 8b 85 78 f4 ff ff 	mov    -0xb88(%rbp),%rax
    e9da:	44 0f bf e8          	movswl %ax,%r13d
    e9de:	48 8b 95 50 fb ff ff 	mov    -0x4b0(%rbp),%rdx
    e9e5:	48 8b 05 94 76 00 00 	mov    0x7694(%rip),%rax        # 16080 <g_763>
    e9ec:	48 39 c2             	cmp    %rax,%rdx
    e9ef:	0f 94 c0             	sete   %al
    e9f2:	0f b6 c0             	movzbl %al,%eax
    e9f5:	89 85 74 f4 ff ff    	mov    %eax,-0xb8c(%rbp)
    e9fb:	8b 85 34 fb ff ff    	mov    -0x4cc(%rbp),%eax
    ea01:	89 85 70 f4 ff ff    	mov    %eax,-0xb90(%rbp)
    ea07:	48 8b 85 70 f5 ff ff 	mov    -0xa90(%rbp),%rax
    ea0e:	48 8b 00             	mov    (%rax),%rax
    ea11:	48 8b 00             	mov    (%rax),%rax
    ea14:	8b 00                	mov    (%rax),%eax
    ea16:	44 0f be f0          	movsbl %al,%r14d
    ea1a:	48 8b 85 70 f5 ff ff 	mov    -0xa90(%rbp),%rax
    ea21:	48 8b 00             	mov    (%rax),%rax
    ea24:	48 8b 00             	mov    (%rax),%rax
    ea27:	8b 00                	mov    (%rax),%eax
    ea29:	44 0f bf f8          	movswl %ax,%r15d
    ea2d:	0f b6 05 35 66 00 00 	movzbl 0x6635(%rip),%eax        # 15069 <g_247>
    ea34:	0f b6 c0             	movzbl %al,%eax
    ea37:	48 89 85 68 f4 ff ff 	mov    %rax,-0xb98(%rbp)
    ea3e:	0f b7 05 e3 66 00 00 	movzwl 0x66e3(%rip),%eax        # 15128 <g_621>
    ea45:	98                   	cwtl   
    ea46:	0f b7 15 db 66 00 00 	movzwl 0x66db(%rip),%edx        # 15128 <g_621>
    ea4d:	0f bf d2             	movswl %dx,%edx
    ea50:	83 c2 01             	add    $0x1,%edx
    ea53:	48 63 ca             	movslq %edx,%rcx
    ea56:	48 63 d0             	movslq %eax,%rdx
    ea59:	48 89 d0             	mov    %rdx,%rax
    ea5c:	48 c1 e0 02          	shl    $0x2,%rax
    ea60:	48 01 d0             	add    %rdx,%rax
    ea63:	48 01 c0             	add    %rax,%rax
    ea66:	48 01 c8             	add    %rcx,%rax
    ea69:	48 8d 14 00          	lea    (%rax,%rax,1),%rdx
    ea6d:	48 8d 05 0c 66 00 00 	lea    0x660c(%rip),%rax        # 15080 <g_298>
    ea74:	0f b7 04 02          	movzwl (%rdx,%rax,1),%eax
    ea78:	66 89 85 66 f4 ff ff 	mov    %ax,-0xb9a(%rbp)
    ea7f:	48 8b 85 70 f6 ff ff 	mov    -0x990(%rbp),%rax
    ea86:	8b 00                	mov    (%rax),%eax
    ea88:	89 c2                	mov    %eax,%edx
    ea8a:	8b 85 08 f5 ff ff    	mov    -0xaf8(%rbp),%eax
    ea90:	09 d0                	or     %edx,%eax
    ea92:	0f be c0             	movsbl %al,%eax
    ea95:	be 06 00 00 00       	mov    $0x6,%esi
    ea9a:	89 c7                	mov    %eax,%edi
    ea9c:	e8 cb 68 ff ff       	callq  536c <safe_rshift_func_int8_t_s_u>
    eaa1:	0f be d0             	movsbl %al,%edx
    eaa4:	48 8b 85 70 f6 ff ff 	mov    -0x990(%rbp),%rax
    eaab:	89 10                	mov    %edx,(%rax)
    eaad:	48 8b 85 70 f6 ff ff 	mov    -0x990(%rbp),%rax
    eab4:	8b 00                	mov    (%rax),%eax
    eab6:	85 c0                	test   %eax,%eax
    eab8:	75 40                	jne    eafa <func_82+0x213e>
    eaba:	0f b7 05 67 66 00 00 	movzwl 0x6667(%rip),%eax        # 15128 <g_621>
    eac1:	98                   	cwtl   
    eac2:	8d 50 01             	lea    0x1(%rax),%edx
    eac5:	0f b7 05 5c 66 00 00 	movzwl 0x665c(%rip),%eax        # 15128 <g_621>
    eacc:	98                   	cwtl   
    eacd:	83 c0 03             	add    $0x3,%eax
    ead0:	48 63 c8             	movslq %eax,%rcx
    ead3:	48 63 d2             	movslq %edx,%rdx
    ead6:	48 89 d0             	mov    %rdx,%rax
    ead9:	48 c1 e0 02          	shl    $0x2,%rax
    eadd:	48 01 d0             	add    %rdx,%rax
    eae0:	48 01 c0             	add    %rax,%rax
    eae3:	48 01 c8             	add    %rcx,%rax
    eae6:	48 8d 14 00          	lea    (%rax,%rax,1),%rdx
    eaea:	48 8d 05 8f 65 00 00 	lea    0x658f(%rip),%rax        # 15080 <g_298>
    eaf1:	0f b7 04 02          	movzwl (%rdx,%rax,1),%eax
    eaf5:	66 85 c0             	test   %ax,%ax
    eaf8:	74 07                	je     eb01 <func_82+0x2145>
    eafa:	b8 01 00 00 00       	mov    $0x1,%eax
    eaff:	eb 05                	jmp    eb06 <func_82+0x214a>
    eb01:	b8 00 00 00 00       	mov    $0x0,%eax
    eb06:	0f b7 95 66 f4 ff ff 	movzwl -0xb9a(%rbp),%edx
    eb0d:	21 c2                	and    %eax,%edx
    eb0f:	48 8b 85 88 f6 ff ff 	mov    -0x978(%rbp),%rax
    eb16:	66 89 10             	mov    %dx,(%rax)
    eb19:	48 8b 85 88 f6 ff ff 	mov    -0x978(%rbp),%rax
    eb20:	0f b7 00             	movzwl (%rax),%eax
    eb23:	66 85 c0             	test   %ax,%ax
    eb26:	0f 94 c0             	sete   %al
    eb29:	0f b6 d0             	movzbl %al,%edx
    eb2c:	48 8b 85 78 f4 ff ff 	mov    -0xb88(%rbp),%rax
    eb33:	48 39 c2             	cmp    %rax,%rdx
    eb36:	0f 96 c0             	setbe  %al
    eb39:	0f b6 d0             	movzbl %al,%edx
    eb3c:	48 8b 85 78 f4 ff ff 	mov    -0xb88(%rbp),%rax
    eb43:	48 09 d0             	or     %rdx,%rax
    eb46:	48 8b b5 68 f4 ff ff 	mov    -0xb98(%rbp),%rsi
    eb4d:	48 89 c7             	mov    %rax,%rdi
    eb50:	e8 a2 6e ff ff       	callq  59f7 <safe_div_func_int64_t_s_s>
    eb55:	0f b7 05 cc 65 00 00 	movzwl 0x65cc(%rip),%eax        # 15128 <g_621>
    eb5c:	98                   	cwtl   
    eb5d:	8d 50 01             	lea    0x1(%rax),%edx
    eb60:	0f b7 05 c1 65 00 00 	movzwl 0x65c1(%rip),%eax        # 15128 <g_621>
    eb67:	98                   	cwtl   
    eb68:	83 c0 03             	add    $0x3,%eax
    eb6b:	48 63 c8             	movslq %eax,%rcx
    eb6e:	48 63 d2             	movslq %edx,%rdx
    eb71:	48 89 d0             	mov    %rdx,%rax
    eb74:	48 c1 e0 02          	shl    $0x2,%rax
    eb78:	48 01 d0             	add    %rdx,%rax
    eb7b:	48 01 c0             	add    %rax,%rax
    eb7e:	48 01 c8             	add    %rcx,%rax
    eb81:	48 8d 14 00          	lea    (%rax,%rax,1),%rdx
    eb85:	48 8d 05 f4 64 00 00 	lea    0x64f4(%rip),%rax        # 15080 <g_298>
    eb8c:	0f b7 04 02          	movzwl (%rdx,%rax,1),%eax
    eb90:	0f bf d0             	movswl %ax,%edx
    eb93:	0f b7 05 4a 65 00 00 	movzwl 0x654a(%rip),%eax        # 150e4 <g_327>
    eb9a:	0f b7 c0             	movzwl %ax,%eax
    eb9d:	39 c2                	cmp    %eax,%edx
    eb9f:	0f 94 c0             	sete   %al
    eba2:	0f b6 c0             	movzbl %al,%eax
    eba5:	44 89 fe             	mov    %r15d,%esi
    eba8:	89 c7                	mov    %eax,%edi
    ebaa:	e8 a6 68 ff ff       	callq  5455 <safe_div_func_int16_t_s_s>
    ebaf:	48 8b 05 9a 6b 00 00 	mov    0x6b9a(%rip),%rax        # 15750 <g_92>
    ebb6:	0f b6 00             	movzbl (%rax),%eax
    ebb9:	0f be c0             	movsbl %al,%eax
    ebbc:	44 89 f6             	mov    %r14d,%esi
    ebbf:	89 c7                	mov    %eax,%edi
    ebc1:	e8 0e 66 ff ff       	callq  51d4 <safe_add_func_int8_t_s_s>
    ebc6:	48 0f be d0          	movsbq %al,%rdx
    ebca:	48 8b 05 df 6d 00 00 	mov    0x6ddf(%rip),%rax        # 159b0 <g_637>
    ebd1:	48 8b 00             	mov    (%rax),%rax
    ebd4:	48 8b 00             	mov    (%rax),%rax
    ebd7:	48 8b 00             	mov    (%rax),%rax
    ebda:	48 39 c2             	cmp    %rax,%rdx
    ebdd:	77 07                	ja     ebe6 <func_82+0x222a>
    ebdf:	ba f7 00 00 00       	mov    $0xf7,%edx
    ebe4:	eb 05                	jmp    ebeb <func_82+0x222f>
    ebe6:	ba f6 00 00 00       	mov    $0xf6,%edx
    ebeb:	0f b6 05 47 64 00 00 	movzbl 0x6447(%rip),%eax        # 15039 <g_74>
    ebf2:	48 0f be c0          	movsbq %al,%rax
    ebf6:	48 39 c2             	cmp    %rax,%rdx
    ebf9:	0f 96 c0             	setbe  %al
    ebfc:	0f b6 c0             	movzbl %al,%eax
    ebff:	be 3c f6 ff ff       	mov    $0xfffff63c,%esi
    ec04:	89 c7                	mov    %eax,%edi
    ec06:	e8 0b 68 ff ff       	callq  5416 <safe_mod_func_int16_t_s_s>
    ec0b:	98                   	cwtl   
    ec0c:	8b b5 70 f4 ff ff    	mov    -0xb90(%rbp),%esi
    ec12:	89 c7                	mov    %eax,%edi
    ec14:	e8 4a 69 ff ff       	callq  5563 <safe_rshift_func_int16_t_s_u>
    ec19:	98                   	cwtl   
    ec1a:	39 85 74 f4 ff ff    	cmp    %eax,-0xb8c(%rbp)
    ec20:	0f 95 c0             	setne  %al
    ec23:	0f b6 c0             	movzbl %al,%eax
    ec26:	44 89 ee             	mov    %r13d,%esi
    ec29:	89 c7                	mov    %eax,%edi
    ec2b:	e8 c5 67 ff ff       	callq  53f5 <safe_mul_func_int16_t_s_s>
    ec30:	0f b6 c0             	movzbl %al,%eax
    ec33:	44 89 e6             	mov    %r12d,%esi
    ec36:	89 c7                	mov    %eax,%edi
    ec38:	e8 50 70 ff ff       	callq  5c8d <safe_rshift_func_uint8_t_u_s>
    ec3d:	83 c8 43             	or     $0x43,%eax
    ec40:	0f b6 d0             	movzbl %al,%edx
    ec43:	0f b6 05 ef 63 00 00 	movzbl 0x63ef(%rip),%eax        # 15039 <g_74>
    ec4a:	48 0f be c0          	movsbq %al,%rax
    ec4e:	48 39 c2             	cmp    %rax,%rdx
    ec51:	0f 95 c0             	setne  %al
    ec54:	0f b6 c0             	movzbl %al,%eax
    ec57:	be 07 00 00 00       	mov    $0x7,%esi
    ec5c:	89 c7                	mov    %eax,%edi
    ec5e:	e8 00 69 ff ff       	callq  5563 <safe_rshift_func_int16_t_s_u>
    ec63:	89 c2                	mov    %eax,%edx
    ec65:	48 8b 85 28 f5 ff ff 	mov    -0xad8(%rbp),%rax
    ec6c:	66 89 10             	mov    %dx,(%rax)
    ec6f:	0f b7 00             	movzwl (%rax),%eax
    ec72:	0f b7 c0             	movzwl %ax,%eax
    ec75:	89 de                	mov    %ebx,%esi
    ec77:	89 c7                	mov    %eax,%edi
    ec79:	e8 bf 70 ff ff       	callq  5d3d <safe_mul_func_uint16_t_u_u>
    ec7e:	0f b7 c0             	movzwl %ax,%eax
    ec81:	21 85 d8 f4 ff ff    	and    %eax,-0xb28(%rbp)
    ec87:	48 8b 85 70 f5 ff ff 	mov    -0xa90(%rbp),%rax
    ec8e:	48 8b 00             	mov    (%rax),%rax
    ec91:	48 8b 00             	mov    (%rax),%rax
    ec94:	8b 00                	mov    (%rax),%eax
    ec96:	0f b6 d8             	movzbl %al,%ebx
    ec99:	0f b7 05 88 64 00 00 	movzwl 0x6488(%rip),%eax        # 15128 <g_621>
    eca0:	98                   	cwtl   
    eca1:	8d 50 01             	lea    0x1(%rax),%edx
    eca4:	0f b7 05 7d 64 00 00 	movzwl 0x647d(%rip),%eax        # 15128 <g_621>
    ecab:	98                   	cwtl   
    ecac:	83 c0 01             	add    $0x1,%eax
    ecaf:	48 63 c8             	movslq %eax,%rcx
    ecb2:	48 63 d2             	movslq %edx,%rdx
    ecb5:	48 89 d0             	mov    %rdx,%rax
    ecb8:	48 c1 e0 02          	shl    $0x2,%rax
    ecbc:	48 01 d0             	add    %rdx,%rax
    ecbf:	48 01 c0             	add    %rax,%rax
    ecc2:	48 01 c8             	add    %rcx,%rax
    ecc5:	48 8d 14 00          	lea    (%rax,%rax,1),%rdx
    ecc9:	48 8d 05 b0 63 00 00 	lea    0x63b0(%rip),%rax        # 15080 <g_298>
    ecd0:	0f b7 04 02          	movzwl (%rdx,%rax,1),%eax
    ecd4:	44 0f bf e0          	movswl %ax,%r12d
    ecd8:	48 8b 85 70 f5 ff ff 	mov    -0xa90(%rbp),%rax
    ecdf:	48 8b 00             	mov    (%rax),%rax
    ece2:	48 8b 00             	mov    (%rax),%rax
    ece5:	8b 00                	mov    (%rax),%eax
    ece7:	0f b7 d0             	movzwl %ax,%edx
    ecea:	48 8b 85 78 f4 ff ff 	mov    -0xb88(%rbp),%rax
    ecf1:	0f b7 c0             	movzwl %ax,%eax
    ecf4:	89 d6                	mov    %edx,%esi
    ecf6:	89 c7                	mov    %eax,%edi
    ecf8:	e8 5f 70 ff ff       	callq  5d5c <safe_mod_func_uint16_t_u_u>
    ecfd:	48 8b 85 a8 f7 ff ff 	mov    -0x858(%rbp),%rax
    ed04:	48 89 05 7d 73 00 00 	mov    %rax,0x737d(%rip)        # 16088 <g_792>
    ed0b:	48 8b 05 76 73 00 00 	mov    0x7376(%rip),%rax        # 16088 <g_792>
    ed12:	48 39 85 c0 f5 ff ff 	cmp    %rax,-0xa40(%rbp)
    ed19:	0f 94 c0             	sete   %al
    ed1c:	0f b6 d0             	movzbl %al,%edx
    ed1f:	0f b6 85 8f f4 ff ff 	movzbl -0xb71(%rbp),%eax
    ed26:	21 d0                	and    %edx,%eax
    ed28:	85 c0                	test   %eax,%eax
    ed2a:	75 0a                	jne    ed36 <func_82+0x237a>
    ed2c:	8b 85 40 f9 ff ff    	mov    -0x6c0(%rbp),%eax
    ed32:	85 c0                	test   %eax,%eax
    ed34:	74 07                	je     ed3d <func_82+0x2381>
    ed36:	b8 01 00 00 00       	mov    $0x1,%eax
    ed3b:	eb 05                	jmp    ed42 <func_82+0x2386>
    ed3d:	b8 00 00 00 00       	mov    $0x0,%eax
    ed42:	48 63 d0             	movslq %eax,%rdx
    ed45:	48 8b 85 b8 f5 ff ff 	mov    -0xa48(%rbp),%rax
    ed4c:	48 89 10             	mov    %rdx,(%rax)
    ed4f:	48 8b 85 b8 f5 ff ff 	mov    -0xa48(%rbp),%rax
    ed56:	48 8b 00             	mov    (%rax),%rax
    ed59:	89 85 18 f5 ff ff    	mov    %eax,-0xae8(%rbp)
    ed5f:	81 bd 18 f5 ff ff 05 	cmpl   $0xa697b505,-0xae8(%rbp)
    ed66:	b5 97 a6 
    ed69:	0f 9c c0             	setl   %al
    ed6c:	0f b6 d0             	movzbl %al,%edx
    ed6f:	48 8b 05 3a 6c 00 00 	mov    0x6c3a(%rip),%rax        # 159b0 <g_637>
    ed76:	48 8b 00             	mov    (%rax),%rax
    ed79:	48 8b 00             	mov    (%rax),%rax
    ed7c:	48 8b 08             	mov    (%rax),%rcx
    ed7f:	48 8b 05 12 6c 00 00 	mov    0x6c12(%rip),%rax        # 15998 <g_639>
    ed86:	48 8b 00             	mov    (%rax),%rax
    ed89:	48 39 c1             	cmp    %rax,%rcx
    ed8c:	0f 97 c0             	seta   %al
    ed8f:	0f b6 c8             	movzbl %al,%ecx
    ed92:	48 8b 05 cf 69 00 00 	mov    0x69cf(%rip),%rax        # 15768 <g_498>
    ed99:	0f b6 00             	movzbl (%rax),%eax
    ed9c:	0f b6 c0             	movzbl %al,%eax
    ed9f:	09 c8                	or     %ecx,%eax
    eda1:	39 c2                	cmp    %eax,%edx
    eda3:	0f 94 c0             	sete   %al
    eda6:	89 c2                	mov    %eax,%edx
    eda8:	48 8b 85 d0 f5 ff ff 	mov    -0xa30(%rbp),%rax
    edaf:	88 10                	mov    %dl,(%rax)
    edb1:	be 07 00 00 00       	mov    $0x7,%esi
    edb6:	bf 00 00 00 00       	mov    $0x0,%edi
    edbb:	e8 fe 6e ff ff       	callq  5cbe <safe_rshift_func_uint8_t_u_u>
    edc0:	0f b6 d0             	movzbl %al,%edx
    edc3:	0f b6 05 90 62 00 00 	movzbl 0x6290(%rip),%eax        # 1505a <g_177+0x2>
    edca:	0f be c0             	movsbl %al,%eax
    edcd:	39 c2                	cmp    %eax,%edx
    edcf:	0f 94 c0             	sete   %al
    edd2:	0f b6 c0             	movzbl %al,%eax
    edd5:	23 85 d8 f4 ff ff    	and    -0xb28(%rbp),%eax
    eddb:	44 89 e6             	mov    %r12d,%esi
    edde:	89 c7                	mov    %eax,%edi
    ede0:	e8 d1 67 ff ff       	callq  55b6 <safe_add_func_int32_t_s_s>
    ede5:	85 c0                	test   %eax,%eax
    ede7:	75 09                	jne    edf2 <func_82+0x2436>
    ede9:	83 bd 18 f5 ff ff 00 	cmpl   $0x0,-0xae8(%rbp)
    edf0:	74 07                	je     edf9 <func_82+0x243d>
    edf2:	b8 01 00 00 00       	mov    $0x1,%eax
    edf7:	eb 05                	jmp    edfe <func_82+0x2442>
    edf9:	b8 00 00 00 00       	mov    $0x0,%eax
    edfe:	0f b6 c0             	movzbl %al,%eax
    ee01:	89 de                	mov    %ebx,%esi
    ee03:	89 c7                	mov    %eax,%edi
    ee05:	e8 50 6d ff ff       	callq  5b5a <safe_add_func_uint8_t_u_u>
    ee0a:	48 8b 85 80 f6 ff ff 	mov    -0x980(%rbp),%rax
    ee11:	48 8d 15 54 62 00 00 	lea    0x6254(%rip),%rdx        # 1506c <g_253>
    ee18:	48 89 10             	mov    %rdx,(%rax)
    ee1b:	0f b7 05 06 63 00 00 	movzwl 0x6306(%rip),%eax        # 15128 <g_621>
    ee22:	83 e8 01             	sub    $0x1,%eax
    ee25:	66 89 05 fc 62 00 00 	mov    %ax,0x62fc(%rip)        # 15128 <g_621>
    ee2c:	0f b7 05 f5 62 00 00 	movzwl 0x62f5(%rip),%eax        # 15128 <g_621>
    ee33:	66 85 c0             	test   %ax,%ax
    ee36:	0f 89 82 fa ff ff    	jns    e8be <func_82+0x1f02>
    ee3c:	83 85 ec f4 ff ff 01 	addl   $0x1,-0xb14(%rbp)
    ee43:	83 bd ec f4 ff ff 0d 	cmpl   $0xd,-0xb14(%rbp)
    ee4a:	0f 84 21 fa ff ff    	je     e871 <func_82+0x1eb5>
    ee50:	c6 05 e2 61 00 00 00 	movb   $0x0,0x61e2(%rip)        # 15039 <g_74>
    ee57:	e9 5a 02 00 00       	jmpq   f0b6 <func_82+0x26fa>
    ee5c:	66 c7 85 98 f4 ff ff 	movw   $0x48db,-0xb68(%rbp)
    ee63:	db 48 
    ee65:	48 8d 05 9c 7e 00 00 	lea    0x7e9c(%rip),%rax        # 16d08 <g_99>
    ee6c:	48 89 85 60 f6 ff ff 	mov    %rax,-0x9a0(%rbp)
    ee73:	48 8d 05 e0 61 00 00 	lea    0x61e0(%rip),%rax        # 1505a <g_177+0x2>
    ee7a:	48 89 85 68 f6 ff ff 	mov    %rax,-0x998(%rbp)
    ee81:	48 8d 85 b8 f4 ff ff 	lea    -0xb48(%rbp),%rax
    ee88:	48 89 85 40 fb ff ff 	mov    %rax,-0x4c0(%rbp)
    ee8f:	48 8d 85 bc f4 ff ff 	lea    -0xb44(%rbp),%rax
    ee96:	48 89 85 48 fb ff ff 	mov    %rax,-0x4b8(%rbp)
    ee9d:	48 8d 85 b8 f4 ff ff 	lea    -0xb48(%rbp),%rax
    eea4:	48 89 85 50 fb ff ff 	mov    %rax,-0x4b0(%rbp)
    eeab:	48 8d 85 bc f4 ff ff 	lea    -0xb44(%rbp),%rax
    eeb2:	48 89 85 58 fb ff ff 	mov    %rax,-0x4a8(%rbp)
    eeb9:	48 8d 85 b8 f4 ff ff 	lea    -0xb48(%rbp),%rax
    eec0:	48 89 85 60 fb ff ff 	mov    %rax,-0x4a0(%rbp)
    eec7:	48 8d 85 bc f4 ff ff 	lea    -0xb44(%rbp),%rax
    eece:	48 89 85 68 fb ff ff 	mov    %rax,-0x498(%rbp)
    eed5:	48 8d 85 b8 f4 ff ff 	lea    -0xb48(%rbp),%rax
    eedc:	48 89 85 70 fb ff ff 	mov    %rax,-0x490(%rbp)
    eee3:	48 8d 85 bc f4 ff ff 	lea    -0xb44(%rbp),%rax
    eeea:	48 89 85 78 fb ff ff 	mov    %rax,-0x488(%rbp)
    eef1:	48 8d 85 10 f9 ff ff 	lea    -0x6f0(%rbp),%rax
    eef8:	48 05 dc 01 00 00    	add    $0x1dc,%rax
    eefe:	48 89 05 5b 68 00 00 	mov    %rax,0x685b(%rip)        # 15760 <g_254>
    ef05:	48 8b 05 5c 68 00 00 	mov    0x685c(%rip),%rax        # 15768 <g_498>
    ef0c:	0f b6 00             	movzbl (%rax),%eax
    ef0f:	44 0f b6 f0          	movzbl %al,%r14d
    ef13:	48 8b 85 78 f4 ff ff 	mov    -0xb88(%rbp),%rax
    ef1a:	0f bf d8             	movswl %ax,%ebx
    ef1d:	44 0f b7 a5 98 f4 ff 	movzwl -0xb68(%rbp),%r12d
    ef24:	ff 
    ef25:	48 8b 05 84 6a 00 00 	mov    0x6a84(%rip),%rax        # 159b0 <g_637>
    ef2c:	48 8b 00             	mov    (%rax),%rax
    ef2f:	48 8b 00             	mov    (%rax),%rax
    ef32:	48 8b 00             	mov    (%rax),%rax
    ef35:	49 89 c7             	mov    %rax,%r15
    ef38:	48 8b 05 21 68 00 00 	mov    0x6821(%rip),%rax        # 15760 <g_254>
    ef3f:	8b 08                	mov    (%rax),%ecx
    ef41:	48 8b 05 f8 67 00 00 	mov    0x67f8(%rip),%rax        # 15740 <g_5>
    ef48:	8b 10                	mov    (%rax),%edx
    ef4a:	48 8b 05 0f 68 00 00 	mov    0x680f(%rip),%rax        # 15760 <g_254>
    ef51:	09 ca                	or     %ecx,%edx
    ef53:	89 10                	mov    %edx,(%rax)
    ef55:	44 0f b7 ad 98 f4 ff 	movzwl -0xb68(%rbp),%r13d
    ef5c:	ff 
    ef5d:	48 8b 85 78 f4 ff ff 	mov    -0xb88(%rbp),%rax
    ef64:	89 85 74 f4 ff ff    	mov    %eax,-0xb8c(%rbp)
    ef6a:	b8 01 00 00 00       	mov    $0x1,%eax
    ef6f:	48 63 d0             	movslq %eax,%rdx
    ef72:	48 83 bd d8 f5 ff ff 	cmpq   $0x0,-0xa28(%rbp)
    ef79:	00 
    ef7a:	0f 94 c0             	sete   %al
    ef7d:	0f b6 c8             	movzbl %al,%ecx
    ef80:	48 8b 85 40 f5 ff ff 	mov    -0xac0(%rbp),%rax
    ef87:	48 8b 00             	mov    (%rax),%rax
    ef8a:	8b 00                	mov    (%rax),%eax
    ef8c:	39 c1                	cmp    %eax,%ecx
    ef8e:	0f 9d c0             	setge  %al
    ef91:	0f b6 c0             	movzbl %al,%eax
    ef94:	48 89 d6             	mov    %rdx,%rsi
    ef97:	48 89 c7             	mov    %rax,%rdi
    ef9a:	e8 ac 70 ff ff       	callq  604b <safe_sub_func_uint64_t_u_u>
    ef9f:	89 c6                	mov    %eax,%esi
    efa1:	bf fa ff ff ff       	mov    $0xfffffffa,%edi
    efa6:	e8 8a 63 ff ff       	callq  5335 <safe_rshift_func_int8_t_s_s>
    efab:	be 00 00 00 00       	mov    $0x0,%esi
    efb0:	bf 00 00 00 00       	mov    $0x0,%edi
    efb5:	e8 87 68 ff ff       	callq  5841 <safe_add_func_int64_t_s_s>
    efba:	8b b5 74 f4 ff ff    	mov    -0xb8c(%rbp),%esi
    efc0:	bf 00 00 00 00       	mov    $0x0,%edi
    efc5:	e8 24 63 ff ff       	callq  52ee <safe_lshift_func_int8_t_s_u>
    efca:	89 c2                	mov    %eax,%edx
    efcc:	48 8b 85 68 f6 ff ff 	mov    -0x998(%rbp),%rax
    efd3:	0f b6 00             	movzbl (%rax),%eax
    efd6:	09 c2                	or     %eax,%edx
    efd8:	48 8b 85 68 f6 ff ff 	mov    -0x998(%rbp),%rax
    efdf:	88 10                	mov    %dl,(%rax)
    efe1:	48 8b 85 68 f6 ff ff 	mov    -0x998(%rbp),%rax
    efe8:	0f b6 00             	movzbl (%rax),%eax
    efeb:	0f be c0             	movsbl %al,%eax
    efee:	be f3 ff ff ff       	mov    $0xfffffff3,%esi
    eff3:	89 c7                	mov    %eax,%edi
    eff5:	e8 37 62 ff ff       	callq  5231 <safe_mod_func_int8_t_s_s>
    effa:	0f be d0             	movsbl %al,%edx
    effd:	0f b7 85 98 f4 ff ff 	movzwl -0xb68(%rbp),%eax
    f004:	89 d6                	mov    %edx,%esi
    f006:	89 c7                	mov    %eax,%edi
    f008:	e8 ab 6e ff ff       	callq  5eb8 <safe_add_func_uint32_t_u_u>
    f00d:	48 8b 85 78 f4 ff ff 	mov    -0xb88(%rbp),%rax
    f014:	0f b7 c0             	movzwl %ax,%eax
    f017:	25 19 a1 00 00       	and    $0xa119,%eax
    f01c:	44 89 ee             	mov    %r13d,%esi
    f01f:	89 c7                	mov    %eax,%edi
    f021:	e8 d9 6c ff ff       	callq  5cff <safe_add_func_uint16_t_u_u>
    f026:	66 39 85 98 f4 ff ff 	cmp    %ax,-0xb68(%rbp)
    f02d:	48 8b 05 34 67 00 00 	mov    0x6734(%rip),%rax        # 15768 <g_498>
    f034:	0f b6 00             	movzbl (%rax),%eax
    f037:	0f b6 d0             	movzbl %al,%edx
    f03a:	48 8b 85 78 f4 ff ff 	mov    -0xb88(%rbp),%rax
    f041:	48 39 c2             	cmp    %rax,%rdx
    f044:	0f 96 c0             	setbe  %al
    f047:	0f b6 c0             	movzbl %al,%eax
    f04a:	4c 89 fe             	mov    %r15,%rsi
    f04d:	48 89 c7             	mov    %rax,%rdi
    f050:	e8 a2 69 ff ff       	callq  59f7 <safe_div_func_int64_t_s_s>
    f055:	48 8b 95 78 f4 ff ff 	mov    -0xb88(%rbp),%rdx
    f05c:	48 39 d0             	cmp    %rdx,%rax
    f05f:	0f 94 c0             	sete   %al
    f062:	0f b6 c0             	movzbl %al,%eax
    f065:	89 c6                	mov    %eax,%esi
    f067:	bf 00 00 00 00       	mov    $0x0,%edi
    f06c:	e8 47 6e ff ff       	callq  5eb8 <safe_add_func_uint32_t_u_u>
    f071:	0f b7 c0             	movzwl %ax,%eax
    f074:	44 89 e6             	mov    %r12d,%esi
    f077:	89 c7                	mov    %eax,%edi
    f079:	e8 81 6c ff ff       	callq  5cff <safe_add_func_uint16_t_u_u>
    f07e:	98                   	cwtl   
    f07f:	89 de                	mov    %ebx,%esi
    f081:	89 c7                	mov    %eax,%edi
    f083:	e8 2b 63 ff ff       	callq  53b3 <safe_add_func_int16_t_s_s>
    f088:	98                   	cwtl   
    f089:	44 09 f0             	or     %r14d,%eax
    f08c:	48 98                	cltq   
    f08e:	ba 81 48 dd 96       	mov    $0x96dd4881,%edx
    f093:	48 09 d0             	or     %rdx,%rax
    f096:	89 c2                	mov    %eax,%edx
    f098:	8b 05 9e 5f 00 00    	mov    0x5f9e(%rip),%eax        # 1503c <g_76>
    f09e:	21 d0                	and    %edx,%eax
    f0a0:	89 05 96 5f 00 00    	mov    %eax,0x5f96(%rip)        # 1503c <g_76>
    f0a6:	0f b6 05 8c 5f 00 00 	movzbl 0x5f8c(%rip),%eax        # 15039 <g_74>
    f0ad:	83 c0 01             	add    $0x1,%eax
    f0b0:	88 05 83 5f 00 00    	mov    %al,0x5f83(%rip)        # 15039 <g_74>
    f0b6:	0f b6 05 7c 5f 00 00 	movzbl 0x5f7c(%rip),%eax        # 15039 <g_74>
    f0bd:	3c 17                	cmp    $0x17,%al
    f0bf:	0f 8f 97 fd ff ff    	jg     ee5c <func_82+0x24a0>
    f0c5:	48 8b 85 70 f5 ff ff 	mov    -0xa90(%rbp),%rax
    f0cc:	48 8b 00             	mov    (%rax),%rax
    f0cf:	48 8b 00             	mov    (%rax),%rax
    f0d2:	48 89 05 87 66 00 00 	mov    %rax,0x6687(%rip)        # 15760 <g_254>
    f0d9:	48 83 85 a8 f5 ff ff 	addq   $0x1,-0xa58(%rbp)
    f0e0:	01 
    f0e1:	48 8b 85 78 f4 ff ff 	mov    -0xb88(%rbp),%rax
    f0e8:	48 8b 4d c8          	mov    -0x38(%rbp),%rcx
    f0ec:	64 48 33 0c 25 28 00 	xor    %fs:0x28,%rcx
    f0f3:	00 00 
    f0f5:	74 05                	je     f0fc <func_82+0x2740>
    f0f7:	e8 74 5f ff ff       	callq  5070 <__stack_chk_fail@plt>
    f0fc:	48 81 c4 78 0b 00 00 	add    $0xb78,%rsp
    f103:	5b                   	pop    %rbx
    f104:	41 5c                	pop    %r12
    f106:	41 5d                	pop    %r13
    f108:	41 5e                	pop    %r14
    f10a:	41 5f                	pop    %r15
    f10c:	5d                   	pop    %rbp
    f10d:	c3                   	retq   

000000000000f10e <func_84>:
    f10e:	f3 0f 1e fa          	endbr64 
    f112:	55                   	push   %rbp
    f113:	48 89 e5             	mov    %rsp,%rbp
    f116:	48 81 ec c0 00 00 00 	sub    $0xc0,%rsp
    f11d:	48 89 bd 58 ff ff ff 	mov    %rdi,-0xa8(%rbp)
    f124:	48 89 b5 50 ff ff ff 	mov    %rsi,-0xb0(%rbp)
    f12b:	48 89 95 48 ff ff ff 	mov    %rdx,-0xb8(%rbp)
    f132:	48 89 8d 40 ff ff ff 	mov    %rcx,-0xc0(%rbp)
    f139:	64 48 8b 04 25 28 00 	mov    %fs:0x28,%rax
    f140:	00 00 
    f142:	48 89 45 f8          	mov    %rax,-0x8(%rbp)
    f146:	31 c0                	xor    %eax,%eax
    f148:	48 8d 05 ed 5e 00 00 	lea    0x5eed(%rip),%rax        # 1503c <g_76>
    f14f:	48 89 85 60 ff ff ff 	mov    %rax,-0xa0(%rbp)
    f156:	48 8d 05 df 5e 00 00 	lea    0x5edf(%rip),%rax        # 1503c <g_76>
    f15d:	48 89 85 68 ff ff ff 	mov    %rax,-0x98(%rbp)
    f164:	48 8d 05 d1 5e 00 00 	lea    0x5ed1(%rip),%rax        # 1503c <g_76>
    f16b:	48 89 85 70 ff ff ff 	mov    %rax,-0x90(%rbp)
    f172:	48 8d 05 c3 5e 00 00 	lea    0x5ec3(%rip),%rax        # 1503c <g_76>
    f179:	48 89 85 78 ff ff ff 	mov    %rax,-0x88(%rbp)
    f180:	48 8d 05 b5 5e 00 00 	lea    0x5eb5(%rip),%rax        # 1503c <g_76>
    f187:	48 89 45 80          	mov    %rax,-0x80(%rbp)
    f18b:	48 8d 05 aa 5e 00 00 	lea    0x5eaa(%rip),%rax        # 1503c <g_76>
    f192:	48 89 45 88          	mov    %rax,-0x78(%rbp)
    f196:	48 8d 05 9f 5e 00 00 	lea    0x5e9f(%rip),%rax        # 1503c <g_76>
    f19d:	48 89 45 90          	mov    %rax,-0x70(%rbp)
    f1a1:	48 c7 45 a0 00 00 00 	movq   $0x0,-0x60(%rbp)
    f1a8:	00 
    f1a9:	48 c7 45 a8 00 00 00 	movq   $0x0,-0x58(%rbp)
    f1b0:	00 
    f1b1:	48 c7 45 b0 00 00 00 	movq   $0x0,-0x50(%rbp)
    f1b8:	00 
    f1b9:	48 c7 45 b8 00 00 00 	movq   $0x0,-0x48(%rbp)
    f1c0:	00 
    f1c1:	48 c7 45 c0 00 00 00 	movq   $0x0,-0x40(%rbp)
    f1c8:	00 
    f1c9:	48 c7 45 c8 00 00 00 	movq   $0x0,-0x38(%rbp)
    f1d0:	00 
    f1d1:	48 c7 45 d0 00 00 00 	movq   $0x0,-0x30(%rbp)
    f1d8:	00 
    f1d9:	48 c7 45 d8 00 00 00 	movq   $0x0,-0x28(%rbp)
    f1e0:	00 
    f1e1:	48 c7 45 e0 00 00 00 	movq   $0x0,-0x20(%rbp)
    f1e8:	00 
    f1e9:	48 c7 45 e8 00 00 00 	movq   $0x0,-0x18(%rbp)
    f1f0:	00 
    f1f1:	48 8d 05 41 5e 00 00 	lea    0x5e41(%rip),%rax        # 15039 <g_74>
    f1f8:	48 89 45 98          	mov    %rax,-0x68(%rbp)
    f1fc:	0f b6 05 65 5e 00 00 	movzbl 0x5e65(%rip),%eax        # 15068 <g_212>
    f203:	83 c0 01             	add    $0x1,%eax
    f206:	88 05 5c 5e 00 00    	mov    %al,0x5e5c(%rip)        # 15068 <g_212>
    f20c:	48 8b 45 98          	mov    -0x68(%rbp),%rax
    f210:	48 8b 55 f8          	mov    -0x8(%rbp),%rdx
    f214:	64 48 33 14 25 28 00 	xor    %fs:0x28,%rdx
    f21b:	00 00 
    f21d:	74 05                	je     f224 <func_84+0x116>
    f21f:	e8 4c 5e ff ff       	callq  5070 <__stack_chk_fail@plt>
    f224:	c9                   	leaveq 
    f225:	c3                   	retq   

000000000000f226 <func_89>:
    f226:	f3 0f 1e fa          	endbr64 
    f22a:	55                   	push   %rbp
    f22b:	48 89 e5             	mov    %rsp,%rbp
    f22e:	53                   	push   %rbx
    f22f:	48 81 ec 78 06 00 00 	sub    $0x678,%rsp
    f236:	48 89 bd 88 f9 ff ff 	mov    %rdi,-0x678(%rbp)
    f23d:	64 48 8b 04 25 28 00 	mov    %fs:0x28,%rax
    f244:	00 00 
    f246:	48 89 45 e8          	mov    %rax,-0x18(%rbp)
    f24a:	31 c0                	xor    %eax,%eax
    f24c:	48 8d 05 e9 5d 00 00 	lea    0x5de9(%rip),%rax        # 1503c <g_76>
    f253:	48 89 85 b8 f9 ff ff 	mov    %rax,-0x648(%rbp)
    f25a:	48 8d 85 b8 f9 ff ff 	lea    -0x648(%rbp),%rax
    f261:	48 89 85 c8 f9 ff ff 	mov    %rax,-0x638(%rbp)
    f268:	48 8d 05 cd 5d 00 00 	lea    0x5dcd(%rip),%rax        # 1503c <g_76>
    f26f:	48 89 85 d0 f9 ff ff 	mov    %rax,-0x630(%rbp)
    f276:	48 8d 05 bf 5d 00 00 	lea    0x5dbf(%rip),%rax        # 1503c <g_76>
    f27d:	48 89 85 d8 f9 ff ff 	mov    %rax,-0x628(%rbp)
    f284:	48 8d 05 b1 5d 00 00 	lea    0x5db1(%rip),%rax        # 1503c <g_76>
    f28b:	48 89 85 e0 f9 ff ff 	mov    %rax,-0x620(%rbp)
    f292:	48 8d 85 30 fa ff ff 	lea    -0x5d0(%rbp),%rax
    f299:	48 8d 15 00 5f 00 00 	lea    0x5f00(%rip),%rdx        # 151a0 <g_2053+0x8>
    f2a0:	b9 b4 00 00 00       	mov    $0xb4,%ecx
    f2a5:	48 89 c7             	mov    %rax,%rdi
    f2a8:	48 89 d6             	mov    %rdx,%rsi
    f2ab:	f3 48 a5             	rep movsq %ds:(%rsi),%es:(%rdi)
    f2ae:	48 8d 05 a5 5d 00 00 	lea    0x5da5(%rip),%rax        # 1505a <g_177+0x2>
    f2b5:	48 89 85 e8 f9 ff ff 	mov    %rax,-0x618(%rbp)
    f2bc:	48 8b 85 c8 f9 ff ff 	mov    -0x638(%rbp),%rax
    f2c3:	48 8d 15 5a 5d 00 00 	lea    0x5d5a(%rip),%rdx        # 15024 <g_6>
    f2ca:	48 89 10             	mov    %rdx,(%rax)
    f2cd:	8b 05 6d 5d 00 00    	mov    0x5d6d(%rip),%eax        # 15040 <g_100>
    f2d3:	83 c0 01             	add    $0x1,%eax
    f2d6:	89 05 64 5d 00 00    	mov    %eax,0x5d64(%rip)        # 15040 <g_100>
    f2dc:	be 02 00 00 00       	mov    $0x2,%esi
    f2e1:	bf 74 00 00 00       	mov    $0x74,%edi
    f2e6:	e8 03 60 ff ff       	callq  52ee <safe_lshift_func_int8_t_s_u>
    f2eb:	84 c0                	test   %al,%al
    f2ed:	0f 84 01 01 00 00    	je     f3f4 <func_89+0x1ce>
    f2f3:	c7 85 a8 f9 ff ff f9 	movl   $0xfffffff9,-0x658(%rbp)
    f2fa:	ff ff ff 
    f2fd:	48 b8 6d a5 aa 97 1d 	movabs $0x6aab061d97aaa56d,%rax
    f304:	06 ab 6a 
    f307:	48 89 85 08 fa ff ff 	mov    %rax,-0x5f8(%rbp)
    f30e:	c7 85 ac f9 ff ff ad 	movl   $0x79ebf7ad,-0x654(%rbp)
    f315:	f7 eb 79 
    f318:	c7 85 b0 f9 ff ff 04 	movl   $0x4,-0x650(%rbp)
    f31f:	00 00 00 
    f322:	c7 05 10 5d 00 00 00 	movl   $0x0,0x5d10(%rip)        # 1503c <g_76>
    f329:	00 00 00 
    f32c:	eb 58                	jmp    f386 <func_89+0x160>
    f32e:	66 c7 85 9a f9 ff ff 	movw   $0xe132,-0x666(%rbp)
    f335:	32 e1 
    f337:	c7 85 b4 f9 ff ff ff 	movl   $0xffffffff,-0x64c(%rbp)
    f33e:	ff ff ff 
    f341:	48 8d 05 08 5d 00 00 	lea    0x5d08(%rip),%rax        # 15050 <g_133>
    f348:	48 89 85 10 fa ff ff 	mov    %rax,-0x5f0(%rbp)
    f34f:	48 b8 d2 01 d2 d2 01 	movabs $0x1d2d201d2d201d2,%rax
    f356:	d2 d2 01 
    f359:	48 89 45 de          	mov    %rax,-0x22(%rbp)
    f35d:	66 c7 45 e6 d2 d2    	movw   $0xd2d2,-0x1a(%rbp)
    f363:	48 c7 85 18 fa ff ff 	movq   $0xffffffffffffffff,-0x5e8(%rbp)
    f36a:	ff ff ff ff 
    f36e:	8b 05 c8 5c 00 00    	mov    0x5cc8(%rip),%eax        # 1503c <g_76>
    f374:	be 03 00 00 00       	mov    $0x3,%esi
    f379:	89 c7                	mov    %eax,%edi
    f37b:	e8 36 62 ff ff       	callq  55b6 <safe_add_func_int32_t_s_s>
    f380:	89 05 b6 5c 00 00    	mov    %eax,0x5cb6(%rip)        # 1503c <g_76>
    f386:	8b 05 b0 5c 00 00    	mov    0x5cb0(%rip),%eax        # 1503c <g_76>
    f38c:	83 f8 09             	cmp    $0x9,%eax
    f38f:	7e 9d                	jle    f32e <func_89+0x108>
    f391:	48 8b 85 d0 f9 ff ff 	mov    -0x630(%rbp),%rax
    f398:	8b 00                	mov    (%rax),%eax
    f39a:	23 85 ac f9 ff ff    	and    -0x654(%rbp),%eax
    f3a0:	89 c2                	mov    %eax,%edx
    f3a2:	48 8b 85 d0 f9 ff ff 	mov    -0x630(%rbp),%rax
    f3a9:	89 10                	mov    %edx,(%rax)
    f3ab:	48 8b 85 d8 f9 ff ff 	mov    -0x628(%rbp),%rax
    f3b2:	c7 00 00 00 00 00    	movl   $0x0,(%rax)
    f3b8:	c7 85 ac f9 ff ff fb 	movl   $0xfffffffb,-0x654(%rbp)
    f3bf:	ff ff ff 
    f3c2:	48 8b 85 e0 f9 ff ff 	mov    -0x620(%rbp),%rax
    f3c9:	c7 00 a3 77 b3 02    	movl   $0x2b377a3,(%rax)
    f3cf:	48 8b 85 e0 f9 ff ff 	mov    -0x620(%rbp),%rax
    f3d6:	8b 00                	mov    (%rax),%eax
    f3d8:	0b 85 ac f9 ff ff    	or     -0x654(%rbp),%eax
    f3de:	89 c2                	mov    %eax,%edx
    f3e0:	0f b6 05 73 5c 00 00 	movzbl 0x5c73(%rip),%eax        # 1505a <g_177+0x2>
    f3e7:	09 d0                	or     %edx,%eax
    f3e9:	88 05 6b 5c 00 00    	mov    %al,0x5c6b(%rip)        # 1505a <g_177+0x2>
    f3ef:	e9 2e 03 00 00       	jmpq   f722 <func_89+0x4fc>
    f3f4:	c7 85 a0 f9 ff ff b9 	movl   $0x698e65b9,-0x660(%rbp)
    f3fb:	65 8e 69 
    f3fe:	48 c7 85 f0 f9 ff ff 	movq   $0x0,-0x610(%rbp)
    f405:	00 00 00 00 
    f409:	c7 85 9c f9 ff ff dd 	movl   $0x1e5eacdd,-0x664(%rbp)
    f410:	ac 5e 1e 
    f413:	c7 05 33 5c 00 00 f3 	movl   $0xfffffff3,0x5c33(%rip)        # 15050 <g_133>
    f41a:	ff ff ff 
    f41d:	e9 f1 02 00 00       	jmpq   f713 <func_89+0x4ed>
    f422:	48 8d 05 2b 1c 00 00 	lea    0x1c2b(%rip),%rax        # 11054 <g_197>
    f429:	48 89 85 f8 f9 ff ff 	mov    %rax,-0x608(%rbp)
    f430:	c7 85 a4 f9 ff ff 00 	movl   $0x0,-0x65c(%rbp)
    f437:	00 00 00 
    f43a:	eb 19                	jmp    f455 <func_89+0x22f>
    f43c:	8b 85 a4 f9 ff ff    	mov    -0x65c(%rbp),%eax
    f442:	48 98                	cltq   
    f444:	66 c7 84 45 20 fa ff 	movw   $0x9,-0x5e0(%rbp,%rax,2)
    f44b:	ff 09 00 
    f44e:	83 85 a4 f9 ff ff 01 	addl   $0x1,-0x65c(%rbp)
    f455:	83 bd a4 f9 ff ff 07 	cmpl   $0x7,-0x65c(%rbp)
    f45c:	7e de                	jle    f43c <func_89+0x216>
    f45e:	83 85 a0 f9 ff ff 01 	addl   $0x1,-0x660(%rbp)
    f465:	0f b7 85 22 fa ff ff 	movzwl -0x5de(%rbp),%eax
    f46c:	0f bf d8             	movswl %ax,%ebx
    f46f:	48 8b 85 88 f9 ff ff 	mov    -0x678(%rbp),%rax
    f476:	48 8b 00             	mov    (%rax),%rax
    f479:	0f b6 00             	movzbl (%rax),%eax
    f47c:	0f be c0             	movsbl %al,%eax
    f47f:	be 01 00 00 00       	mov    $0x1,%esi
    f484:	89 c7                	mov    %eax,%edi
    f486:	e8 e1 5e ff ff       	callq  536c <safe_rshift_func_int8_t_s_u>
    f48b:	0f be c0             	movsbl %al,%eax
    f48e:	39 85 a0 f9 ff ff    	cmp    %eax,-0x660(%rbp)
    f494:	0f 95 c0             	setne  %al
    f497:	0f b6 c0             	movzbl %al,%eax
    f49a:	39 c3                	cmp    %eax,%ebx
    f49c:	0f 9f c0             	setg   %al
    f49f:	0f b6 d0             	movzbl %al,%edx
    f4a2:	48 8b 85 b8 f9 ff ff 	mov    -0x648(%rbp),%rax
    f4a9:	8b 00                	mov    (%rax),%eax
    f4ab:	39 c2                	cmp    %eax,%edx
    f4ad:	0f 9e c0             	setle  %al
    f4b0:	0f b6 c0             	movzbl %al,%eax
    f4b3:	8b 95 a0 f9 ff ff    	mov    -0x660(%rbp),%edx
    f4b9:	21 d0                	and    %edx,%eax
    f4bb:	0f bf d0             	movswl %ax,%edx
    f4be:	0f b7 85 22 fa ff ff 	movzwl -0x5de(%rbp),%eax
    f4c5:	66 85 c0             	test   %ax,%ax
    f4c8:	75 10                	jne    f4da <func_89+0x2b4>
    f4ca:	48 8b 85 c8 f9 ff ff 	mov    -0x638(%rbp),%rax
    f4d1:	48 8b 00             	mov    (%rax),%rax
    f4d4:	8b 00                	mov    (%rax),%eax
    f4d6:	85 c0                	test   %eax,%eax
    f4d8:	74 07                	je     f4e1 <func_89+0x2bb>
    f4da:	b9 01 00 00 00       	mov    $0x1,%ecx
    f4df:	eb 05                	jmp    f4e6 <func_89+0x2c0>
    f4e1:	b9 00 00 00 00       	mov    $0x0,%ecx
    f4e6:	48 83 bd f0 f9 ff ff 	cmpq   $0x0,-0x610(%rbp)
    f4ed:	00 
    f4ee:	0f 95 c0             	setne  %al
    f4f1:	0f b6 c0             	movzbl %al,%eax
    f4f4:	39 c1                	cmp    %eax,%ecx
    f4f6:	0f 9f c0             	setg   %al
    f4f9:	0f b6 c0             	movzbl %al,%eax
    f4fc:	89 d6                	mov    %edx,%esi
    f4fe:	89 c7                	mov    %eax,%edi
    f500:	e8 f0 5e ff ff       	callq  53f5 <safe_mul_func_int16_t_s_s>
    f505:	48 0f bf c0          	movswq %ax,%rax
    f509:	83 e0 01             	and    $0x1,%eax
    f50c:	48 85 c0             	test   %rax,%rax
    f50f:	74 07                	je     f518 <func_89+0x2f2>
    f511:	b8 01 00 00 00       	mov    $0x1,%eax
    f516:	eb 05                	jmp    f51d <func_89+0x2f7>
    f518:	b8 00 00 00 00       	mov    $0x0,%eax
    f51d:	98                   	cwtl   
    f51e:	25 80 51 00 00       	and    $0x5180,%eax
    f523:	89 c2                	mov    %eax,%edx
    f525:	0f b6 05 2e 5b 00 00 	movzbl 0x5b2e(%rip),%eax        # 1505a <g_177+0x2>
    f52c:	0f be c0             	movsbl %al,%eax
    f52f:	89 d6                	mov    %edx,%esi
    f531:	89 c7                	mov    %eax,%edi
    f533:	e8 7b 5e ff ff       	callq  53b3 <safe_add_func_int16_t_s_s>
    f538:	b8 e8 9d 56 ff       	mov    $0xff569de8,%eax
    f53d:	89 c2                	mov    %eax,%edx
    f53f:	8b 85 9c f9 ff ff    	mov    -0x664(%rbp),%eax
    f545:	21 d0                	and    %edx,%eax
    f547:	89 85 9c f9 ff ff    	mov    %eax,-0x664(%rbp)
    f54d:	66 c7 05 00 5b 00 00 	movw   $0x0,0x5b00(%rip)        # 15056 <g_174>
    f554:	00 00 
    f556:	e9 8f 01 00 00       	jmpq   f6ea <func_89+0x4c4>
    f55b:	48 c7 05 a2 77 00 00 	movq   $0x0,0x77a2(%rip)        # 16d08 <g_99>
    f562:	00 00 00 00 
    f566:	e9 8d 00 00 00       	jmpq   f5f8 <func_89+0x3d2>
    f56b:	c7 85 9c f9 ff ff 00 	movl   $0x0,-0x664(%rbp)
    f572:	00 00 00 
    f575:	eb 64                	jmp    f5db <func_89+0x3b5>
    f577:	c7 85 a0 f9 ff ff 00 	movl   $0x0,-0x660(%rbp)
    f57e:	00 00 00 
    f581:	eb 40                	jmp    f5c3 <func_89+0x39d>
    f583:	48 8b 15 7e 77 00 00 	mov    0x777e(%rip),%rdx        # 16d08 <g_99>
    f58a:	8b 85 9c f9 ff ff    	mov    -0x664(%rbp),%eax
    f590:	8b 8d a0 f9 ff ff    	mov    -0x660(%rbp),%ecx
    f596:	48 63 f0             	movslq %eax,%rsi
    f599:	48 89 d0             	mov    %rdx,%rax
    f59c:	48 c1 e0 02          	shl    $0x2,%rax
    f5a0:	48 01 d0             	add    %rdx,%rax
    f5a3:	48 01 f0             	add    %rsi,%rax
    f5a6:	48 c1 e0 02          	shl    $0x2,%rax
    f5aa:	48 01 c8             	add    %rcx,%rax
    f5ad:	48 8d 15 70 5a 00 00 	lea    0x5a70(%rip),%rdx        # 15024 <g_6>
    f5b4:	48 89 94 c5 30 fa ff 	mov    %rdx,-0x5d0(%rbp,%rax,8)
    f5bb:	ff 
    f5bc:	83 85 a0 f9 ff ff 01 	addl   $0x1,-0x660(%rbp)
    f5c3:	83 bd a0 f9 ff ff 03 	cmpl   $0x3,-0x660(%rbp)
    f5ca:	76 b7                	jbe    f583 <func_89+0x35d>
    f5cc:	8b 85 9c f9 ff ff    	mov    -0x664(%rbp),%eax
    f5d2:	83 c0 01             	add    $0x1,%eax
    f5d5:	89 85 9c f9 ff ff    	mov    %eax,-0x664(%rbp)
    f5db:	8b 85 9c f9 ff ff    	mov    -0x664(%rbp),%eax
    f5e1:	83 f8 04             	cmp    $0x4,%eax
    f5e4:	7e 91                	jle    f577 <func_89+0x351>
    f5e6:	48 8b 05 1b 77 00 00 	mov    0x771b(%rip),%rax        # 16d08 <g_99>
    f5ed:	48 83 c0 01          	add    $0x1,%rax
    f5f1:	48 89 05 10 77 00 00 	mov    %rax,0x7710(%rip)        # 16d08 <g_99>
    f5f8:	48 8b 05 09 77 00 00 	mov    0x7709(%rip),%rax        # 16d08 <g_99>
    f5ff:	48 83 f8 08          	cmp    $0x8,%rax
    f603:	0f 8e 62 ff ff ff    	jle    f56b <func_89+0x345>
    f609:	48 8b 85 d0 f9 ff ff 	mov    -0x630(%rbp),%rax
    f610:	c7 00 00 00 00 00    	movl   $0x0,(%rax)
    f616:	c7 05 1c 5a 00 00 02 	movl   $0x2,0x5a1c(%rip)        # 1503c <g_76>
    f61d:	00 00 00 
    f620:	e9 a6 00 00 00       	jmpq   f6cb <func_89+0x4a5>
    f625:	c6 05 0d 5a 00 00 02 	movb   $0x2,0x5a0d(%rip)        # 15039 <g_74>
    f62c:	eb 7f                	jmp    f6ad <func_89+0x487>
    f62e:	48 8d 85 9c f9 ff ff 	lea    -0x664(%rbp),%rax
    f635:	48 89 85 c0 f9 ff ff 	mov    %rax,-0x640(%rbp)
    f63c:	48 8d 85 c0 f9 ff ff 	lea    -0x640(%rbp),%rax
    f643:	48 89 85 00 fa ff ff 	mov    %rax,-0x600(%rbp)
    f64a:	0f b7 05 05 5a 00 00 	movzwl 0x5a05(%rip),%eax        # 15056 <g_174>
    f651:	66 85 c0             	test   %ax,%ax
    f654:	74 05                	je     f65b <func_89+0x435>
    f656:	e9 72 fc ff ff       	jmpq   f2cd <func_89+0xa7>
    f65b:	be 0e 00 00 00       	mov    $0xe,%esi
    f660:	bf 12 9f 00 00       	mov    $0x9f12,%edi
    f665:	e8 de 67 ff ff       	callq  5e48 <safe_rshift_func_uint16_t_u_s>
    f66a:	48 8b 85 c8 f9 ff ff 	mov    -0x638(%rbp),%rax
    f671:	48 8b 00             	mov    (%rax),%rax
    f674:	48 89 85 f8 f9 ff ff 	mov    %rax,-0x608(%rbp)
    f67b:	48 8b 85 00 fa ff ff 	mov    -0x600(%rbp),%rax
    f682:	48 8b 95 f8 f9 ff ff 	mov    -0x608(%rbp),%rdx
    f689:	48 89 10             	mov    %rdx,(%rax)
    f68c:	48 8b 85 c8 f9 ff ff 	mov    -0x638(%rbp),%rax
    f693:	48 8d 15 8a 59 00 00 	lea    0x598a(%rip),%rdx        # 15024 <g_6>
    f69a:	48 89 10             	mov    %rdx,(%rax)
    f69d:	0f b6 05 95 59 00 00 	movzbl 0x5995(%rip),%eax        # 15039 <g_74>
    f6a4:	83 e8 01             	sub    $0x1,%eax
    f6a7:	88 05 8c 59 00 00    	mov    %al,0x598c(%rip)        # 15039 <g_74>
    f6ad:	0f b6 05 85 59 00 00 	movzbl 0x5985(%rip),%eax        # 15039 <g_74>
    f6b4:	84 c0                	test   %al,%al
    f6b6:	0f 89 72 ff ff ff    	jns    f62e <func_89+0x408>
    f6bc:	8b 05 7a 59 00 00    	mov    0x597a(%rip),%eax        # 1503c <g_76>
    f6c2:	83 e8 01             	sub    $0x1,%eax
    f6c5:	89 05 71 59 00 00    	mov    %eax,0x5971(%rip)        # 1503c <g_76>
    f6cb:	8b 05 6b 59 00 00    	mov    0x596b(%rip),%eax        # 1503c <g_76>
    f6d1:	85 c0                	test   %eax,%eax
    f6d3:	0f 89 4c ff ff ff    	jns    f625 <func_89+0x3ff>
    f6d9:	0f b7 05 76 59 00 00 	movzwl 0x5976(%rip),%eax        # 15056 <g_174>
    f6e0:	83 c0 01             	add    $0x1,%eax
    f6e3:	66 89 05 6c 59 00 00 	mov    %ax,0x596c(%rip)        # 15056 <g_174>
    f6ea:	0f b7 05 65 59 00 00 	movzwl 0x5965(%rip),%eax        # 15056 <g_174>
    f6f1:	66 83 f8 02          	cmp    $0x2,%ax
    f6f5:	0f 86 60 fe ff ff    	jbe    f55b <func_89+0x335>
    f6fb:	8b 05 4f 59 00 00    	mov    0x594f(%rip),%eax        # 15050 <g_133>
    f701:	be 02 00 00 00       	mov    $0x2,%esi
    f706:	89 c7                	mov    %eax,%edi
    f708:	e8 a9 5e ff ff       	callq  55b6 <safe_add_func_int32_t_s_s>
    f70d:	89 05 3d 59 00 00    	mov    %eax,0x593d(%rip)        # 15050 <g_133>
    f713:	8b 05 37 59 00 00    	mov    0x5937(%rip),%eax        # 15050 <g_133>
    f719:	83 f8 15             	cmp    $0x15,%eax
    f71c:	0f 87 00 fd ff ff    	ja     f422 <func_89+0x1fc>
    f722:	48 8b 85 e0 f9 ff ff 	mov    -0x620(%rbp),%rax
    f729:	8b 00                	mov    (%rax),%eax
    f72b:	48 98                	cltq   
    f72d:	48 8b 5d e8          	mov    -0x18(%rbp),%rbx
    f731:	64 48 33 1c 25 28 00 	xor    %fs:0x28,%rbx
    f738:	00 00 
    f73a:	74 05                	je     f741 <func_89+0x51b>
    f73c:	e8 2f 59 ff ff       	callq  5070 <__stack_chk_fail@plt>
    f741:	48 81 c4 78 06 00 00 	add    $0x678,%rsp
    f748:	5b                   	pop    %rbx
    f749:	5d                   	pop    %rbp
    f74a:	c3                   	retq   

000000000000f74b <main>:
    f74b:	f3 0f 1e fa          	endbr64 
    f74f:	55                   	push   %rbp
    f750:	48 89 e5             	mov    %rsp,%rbp
    f753:	48 83 ec 20          	sub    $0x20,%rsp
    f757:	89 7d ec             	mov    %edi,-0x14(%rbp)
    f75a:	48 89 75 e0          	mov    %rsi,-0x20(%rbp)
    f75e:	c7 45 fc 00 00 00 00 	movl   $0x0,-0x4(%rbp)
    f765:	83 7d ec 02          	cmpl   $0x2,-0x14(%rbp)
    f769:	75 25                	jne    f790 <main+0x45>
    f76b:	48 8b 45 e0          	mov    -0x20(%rbp),%rax
    f76f:	48 83 c0 08          	add    $0x8,%rax
    f773:	48 8b 00             	mov    (%rax),%rax
    f776:	48 8d 35 b3 20 00 00 	lea    0x20b3(%rip),%rsi        # 11830 <g_2031+0x6f8>
    f77d:	48 89 c7             	mov    %rax,%rdi
    f780:	e8 0b 59 ff ff       	callq  5090 <strcmp@plt>
    f785:	85 c0                	test   %eax,%eax
    f787:	75 07                	jne    f790 <main+0x45>
    f789:	c7 45 fc 01 00 00 00 	movl   $0x1,-0x4(%rbp)
    f790:	e8 f4 59 ff ff       	callq  5189 <platform_main_begin>
    f795:	e8 fe 6d ff ff       	callq  6598 <crc32_gentab>
    f79a:	e8 16 70 ff ff       	callq  67b5 <func_1>
    f79f:	8b 05 7f 58 00 00    	mov    0x587f(%rip),%eax        # 15024 <g_6>
    f7a5:	48 98                	cltq   
    f7a7:	8b 55 fc             	mov    -0x4(%rbp),%edx
    f7aa:	48 8d 35 81 20 00 00 	lea    0x2081(%rip),%rsi        # 11832 <g_2031+0x6fa>
    f7b1:	48 89 c7             	mov    %rax,%rdi
    f7b4:	e8 3a 6f ff ff       	callq  66f3 <transparent_crc>
    f7b9:	0f b6 05 68 58 00 00 	movzbl 0x5868(%rip),%eax        # 15028 <g_17>
    f7c0:	48 0f be c0          	movsbq %al,%rax
    f7c4:	8b 55 fc             	mov    -0x4(%rbp),%edx
    f7c7:	48 8d 35 68 20 00 00 	lea    0x2068(%rip),%rsi        # 11836 <g_2031+0x6fe>
    f7ce:	48 89 c7             	mov    %rax,%rdi
    f7d1:	e8 1d 6f ff ff       	callq  66f3 <transparent_crc>
    f7d6:	0f b6 05 4c 58 00 00 	movzbl 0x584c(%rip),%eax        # 15029 <g_19>
    f7dd:	48 0f be c0          	movsbq %al,%rax
    f7e1:	8b 55 fc             	mov    -0x4(%rbp),%edx
    f7e4:	48 8d 35 50 20 00 00 	lea    0x2050(%rip),%rsi        # 1183b <g_2031+0x703>
    f7eb:	48 89 c7             	mov    %rax,%rdi
    f7ee:	e8 00 6f ff ff       	callq  66f3 <transparent_crc>
    f7f3:	c7 45 f0 00 00 00 00 	movl   $0x0,-0x10(%rbp)
    f7fa:	eb 4d                	jmp    f849 <main+0xfe>
    f7fc:	8b 45 f0             	mov    -0x10(%rbp),%eax
    f7ff:	48 98                	cltq   
    f801:	48 8d 14 85 00 00 00 	lea    0x0(,%rax,4),%rdx
    f808:	00 
    f809:	48 8d 05 1c 58 00 00 	lea    0x581c(%rip),%rax        # 1502c <g_43>
    f810:	8b 04 02             	mov    (%rdx,%rax,1),%eax
    f813:	89 c1                	mov    %eax,%ecx
    f815:	8b 45 fc             	mov    -0x4(%rbp),%eax
    f818:	89 c2                	mov    %eax,%edx
    f81a:	48 8d 35 1f 20 00 00 	lea    0x201f(%rip),%rsi        # 11840 <g_2031+0x708>
    f821:	48 89 cf             	mov    %rcx,%rdi
    f824:	e8 ca 6e ff ff       	callq  66f3 <transparent_crc>
    f829:	83 7d fc 00          	cmpl   $0x0,-0x4(%rbp)
    f82d:	74 16                	je     f845 <main+0xfa>
    f82f:	8b 45 f0             	mov    -0x10(%rbp),%eax
    f832:	89 c6                	mov    %eax,%esi
    f834:	48 8d 3d 0d 20 00 00 	lea    0x200d(%rip),%rdi        # 11848 <g_2031+0x710>
    f83b:	b8 00 00 00 00       	mov    $0x0,%eax
    f840:	e8 3b 58 ff ff       	callq  5080 <printf@plt>
    f845:	83 45 f0 01          	addl   $0x1,-0x10(%rbp)
    f849:	83 7d f0 00          	cmpl   $0x0,-0x10(%rbp)
    f84d:	7e ad                	jle    f7fc <main+0xb1>
    f84f:	48 8b 05 da 57 00 00 	mov    0x57da(%rip),%rax        # 15030 <g_68>
    f856:	8b 55 fc             	mov    -0x4(%rbp),%edx
    f859:	48 8d 35 f6 1f 00 00 	lea    0x1ff6(%rip),%rsi        # 11856 <g_2031+0x71e>
    f860:	48 89 c7             	mov    %rax,%rdi
    f863:	e8 8b 6e ff ff       	callq  66f3 <transparent_crc>
    f868:	0f b6 05 c9 57 00 00 	movzbl 0x57c9(%rip),%eax        # 15038 <g_72>
    f86f:	48 0f be c0          	movsbq %al,%rax
    f873:	8b 55 fc             	mov    -0x4(%rbp),%edx
    f876:	48 8d 35 de 1f 00 00 	lea    0x1fde(%rip),%rsi        # 1185b <g_2031+0x723>
    f87d:	48 89 c7             	mov    %rax,%rdi
    f880:	e8 6e 6e ff ff       	callq  66f3 <transparent_crc>
    f885:	0f b6 05 ad 57 00 00 	movzbl 0x57ad(%rip),%eax        # 15039 <g_74>
    f88c:	48 0f be c0          	movsbq %al,%rax
    f890:	8b 55 fc             	mov    -0x4(%rbp),%edx
    f893:	48 8d 35 c6 1f 00 00 	lea    0x1fc6(%rip),%rsi        # 11860 <g_2031+0x728>
    f89a:	48 89 c7             	mov    %rax,%rdi
    f89d:	e8 51 6e ff ff       	callq  66f3 <transparent_crc>
    f8a2:	8b 05 94 57 00 00    	mov    0x5794(%rip),%eax        # 1503c <g_76>
    f8a8:	48 98                	cltq   
    f8aa:	8b 55 fc             	mov    -0x4(%rbp),%edx
    f8ad:	48 8d 35 b1 1f 00 00 	lea    0x1fb1(%rip),%rsi        # 11865 <g_2031+0x72d>
    f8b4:	48 89 c7             	mov    %rax,%rdi
    f8b7:	e8 37 6e ff ff       	callq  66f3 <transparent_crc>
    f8bc:	48 8b 05 45 74 00 00 	mov    0x7445(%rip),%rax        # 16d08 <g_99>
    f8c3:	48 89 c1             	mov    %rax,%rcx
    f8c6:	8b 45 fc             	mov    -0x4(%rbp),%eax
    f8c9:	89 c2                	mov    %eax,%edx
    f8cb:	48 8d 35 98 1f 00 00 	lea    0x1f98(%rip),%rsi        # 1186a <g_2031+0x732>
    f8d2:	48 89 cf             	mov    %rcx,%rdi
    f8d5:	e8 19 6e ff ff       	callq  66f3 <transparent_crc>
    f8da:	8b 05 60 57 00 00    	mov    0x5760(%rip),%eax        # 15040 <g_100>
    f8e0:	89 c1                	mov    %eax,%ecx
    f8e2:	8b 45 fc             	mov    -0x4(%rbp),%eax
    f8e5:	89 c2                	mov    %eax,%edx
    f8e7:	48 8d 35 81 1f 00 00 	lea    0x1f81(%rip),%rsi        # 1186f <g_2031+0x737>
    f8ee:	48 89 cf             	mov    %rcx,%rdi
    f8f1:	e8 fd 6d ff ff       	callq  66f3 <transparent_crc>
    f8f6:	48 8b 05 4b 57 00 00 	mov    0x574b(%rip),%rax        # 15048 <g_115>
    f8fd:	8b 55 fc             	mov    -0x4(%rbp),%edx
    f900:	48 8d 35 6e 1f 00 00 	lea    0x1f6e(%rip),%rsi        # 11875 <g_2031+0x73d>
    f907:	48 89 c7             	mov    %rax,%rdi
    f90a:	e8 e4 6d ff ff       	callq  66f3 <transparent_crc>
    f90f:	8b 05 3b 57 00 00    	mov    0x573b(%rip),%eax        # 15050 <g_133>
    f915:	89 c1                	mov    %eax,%ecx
    f917:	8b 45 fc             	mov    -0x4(%rbp),%eax
    f91a:	89 c2                	mov    %eax,%edx
    f91c:	48 8d 35 58 1f 00 00 	lea    0x1f58(%rip),%rsi        # 1187b <g_2031+0x743>
    f923:	48 89 cf             	mov    %rcx,%rdi
    f926:	e8 c8 6d ff ff       	callq  66f3 <transparent_crc>
    f92b:	0f b7 05 22 57 00 00 	movzwl 0x5722(%rip),%eax        # 15054 <g_141>
    f932:	0f b7 c0             	movzwl %ax,%eax
    f935:	8b 55 fc             	mov    -0x4(%rbp),%edx
    f938:	48 8d 35 42 1f 00 00 	lea    0x1f42(%rip),%rsi        # 11881 <g_2031+0x749>
    f93f:	48 89 c7             	mov    %rax,%rdi
    f942:	e8 ac 6d ff ff       	callq  66f3 <transparent_crc>
    f947:	0f b7 05 08 57 00 00 	movzwl 0x5708(%rip),%eax        # 15056 <g_174>
    f94e:	0f b7 c0             	movzwl %ax,%eax
    f951:	8b 55 fc             	mov    -0x4(%rbp),%edx
    f954:	48 8d 35 2c 1f 00 00 	lea    0x1f2c(%rip),%rsi        # 11887 <g_2031+0x74f>
    f95b:	48 89 c7             	mov    %rax,%rdi
    f95e:	e8 90 6d ff ff       	callq  66f3 <transparent_crc>
    f963:	c7 45 f0 00 00 00 00 	movl   $0x0,-0x10(%rbp)
    f96a:	eb 46                	jmp    f9b2 <main+0x267>
    f96c:	8b 45 f0             	mov    -0x10(%rbp),%eax
    f96f:	48 98                	cltq   
    f971:	48 8d 15 e0 56 00 00 	lea    0x56e0(%rip),%rdx        # 15058 <g_177>
    f978:	0f b6 04 10          	movzbl (%rax,%rdx,1),%eax
    f97c:	48 0f be c0          	movsbq %al,%rax
    f980:	8b 55 fc             	mov    -0x4(%rbp),%edx
    f983:	48 8d 35 03 1f 00 00 	lea    0x1f03(%rip),%rsi        # 1188d <g_2031+0x755>
    f98a:	48 89 c7             	mov    %rax,%rdi
    f98d:	e8 61 6d ff ff       	callq  66f3 <transparent_crc>
    f992:	83 7d fc 00          	cmpl   $0x0,-0x4(%rbp)
    f996:	74 16                	je     f9ae <main+0x263>
    f998:	8b 45 f0             	mov    -0x10(%rbp),%eax
    f99b:	89 c6                	mov    %eax,%esi
    f99d:	48 8d 3d a4 1e 00 00 	lea    0x1ea4(%rip),%rdi        # 11848 <g_2031+0x710>
    f9a4:	b8 00 00 00 00       	mov    $0x0,%eax
    f9a9:	e8 d2 56 ff ff       	callq  5080 <printf@plt>
    f9ae:	83 45 f0 01          	addl   $0x1,-0x10(%rbp)
    f9b2:	83 7d f0 02          	cmpl   $0x2,-0x10(%rbp)
    f9b6:	7e b4                	jle    f96c <main+0x221>
    f9b8:	b8 01 00 00 00       	mov    $0x1,%eax
    f9bd:	48 98                	cltq   
    f9bf:	8b 55 fc             	mov    -0x4(%rbp),%edx
    f9c2:	48 8d 35 cd 1e 00 00 	lea    0x1ecd(%rip),%rsi        # 11896 <g_2031+0x75e>
    f9c9:	48 89 c7             	mov    %rax,%rdi
    f9cc:	e8 22 6d ff ff       	callq  66f3 <transparent_crc>
    f9d1:	48 8b 05 88 56 00 00 	mov    0x5688(%rip),%rax        # 15060 <g_201>
    f9d8:	8b 55 fc             	mov    -0x4(%rbp),%edx
    f9db:	48 8d 35 ba 1e 00 00 	lea    0x1eba(%rip),%rsi        # 1189c <g_2031+0x764>
    f9e2:	48 89 c7             	mov    %rax,%rdi
    f9e5:	e8 09 6d ff ff       	callq  66f3 <transparent_crc>
    f9ea:	0f b6 05 77 56 00 00 	movzbl 0x5677(%rip),%eax        # 15068 <g_212>
    f9f1:	0f b6 c0             	movzbl %al,%eax
    f9f4:	8b 55 fc             	mov    -0x4(%rbp),%edx
    f9f7:	48 8d 35 a4 1e 00 00 	lea    0x1ea4(%rip),%rsi        # 118a2 <g_2031+0x76a>
    f9fe:	48 89 c7             	mov    %rax,%rdi
    fa01:	e8 ed 6c ff ff       	callq  66f3 <transparent_crc>
    fa06:	0f b6 05 5c 56 00 00 	movzbl 0x565c(%rip),%eax        # 15069 <g_247>
    fa0d:	0f b6 c0             	movzbl %al,%eax
    fa10:	8b 55 fc             	mov    -0x4(%rbp),%edx
    fa13:	48 8d 35 8e 1e 00 00 	lea    0x1e8e(%rip),%rsi        # 118a8 <g_2031+0x770>
    fa1a:	48 89 c7             	mov    %rax,%rdi
    fa1d:	e8 d1 6c ff ff       	callq  66f3 <transparent_crc>
    fa22:	8b 05 44 56 00 00    	mov    0x5644(%rip),%eax        # 1506c <g_253>
    fa28:	48 98                	cltq   
    fa2a:	8b 55 fc             	mov    -0x4(%rbp),%edx
    fa2d:	48 8d 35 7a 1e 00 00 	lea    0x1e7a(%rip),%rsi        # 118ae <g_2031+0x776>
    fa34:	48 89 c7             	mov    %rax,%rdi
    fa37:	e8 b7 6c ff ff       	callq  66f3 <transparent_crc>
    fa3c:	c7 45 f0 00 00 00 00 	movl   $0x0,-0x10(%rbp)
    fa43:	eb 4a                	jmp    fa8f <main+0x344>
    fa45:	8b 45 f0             	mov    -0x10(%rbp),%eax
    fa48:	48 98                	cltq   
    fa4a:	48 8d 14 00          	lea    (%rax,%rax,1),%rdx
    fa4e:	48 8d 05 1b 56 00 00 	lea    0x561b(%rip),%rax        # 15070 <g_296>
    fa55:	0f b7 04 02          	movzwl (%rdx,%rax,1),%eax
    fa59:	48 0f bf c0          	movswq %ax,%rax
    fa5d:	8b 55 fc             	mov    -0x4(%rbp),%edx
    fa60:	48 8d 35 4d 1e 00 00 	lea    0x1e4d(%rip),%rsi        # 118b4 <g_2031+0x77c>
    fa67:	48 89 c7             	mov    %rax,%rdi
    fa6a:	e8 84 6c ff ff       	callq  66f3 <transparent_crc>
    fa6f:	83 7d fc 00          	cmpl   $0x0,-0x4(%rbp)
    fa73:	74 16                	je     fa8b <main+0x340>
    fa75:	8b 45 f0             	mov    -0x10(%rbp),%eax
    fa78:	89 c6                	mov    %eax,%esi
    fa7a:	48 8d 3d c7 1d 00 00 	lea    0x1dc7(%rip),%rdi        # 11848 <g_2031+0x710>
    fa81:	b8 00 00 00 00       	mov    $0x0,%eax
    fa86:	e8 f5 55 ff ff       	callq  5080 <printf@plt>
    fa8b:	83 45 f0 01          	addl   $0x1,-0x10(%rbp)
    fa8f:	83 7d f0 06          	cmpl   $0x6,-0x10(%rbp)
    fa93:	7e b0                	jle    fa45 <main+0x2fa>
    fa95:	c7 45 f0 00 00 00 00 	movl   $0x0,-0x10(%rbp)
    fa9c:	eb 77                	jmp    fb15 <main+0x3ca>
    fa9e:	c7 45 f4 00 00 00 00 	movl   $0x0,-0xc(%rbp)
    faa5:	eb 64                	jmp    fb0b <main+0x3c0>
    faa7:	8b 45 f4             	mov    -0xc(%rbp),%eax
    faaa:	48 63 c8             	movslq %eax,%rcx
    faad:	8b 45 f0             	mov    -0x10(%rbp),%eax
    fab0:	48 63 d0             	movslq %eax,%rdx
    fab3:	48 89 d0             	mov    %rdx,%rax
    fab6:	48 c1 e0 02          	shl    $0x2,%rax
    faba:	48 01 d0             	add    %rdx,%rax
    fabd:	48 01 c0             	add    %rax,%rax
    fac0:	48 01 c8             	add    %rcx,%rax
    fac3:	48 8d 14 00          	lea    (%rax,%rax,1),%rdx
    fac7:	48 8d 05 b2 55 00 00 	lea    0x55b2(%rip),%rax        # 15080 <g_298>
    face:	0f b7 04 02          	movzwl (%rdx,%rax,1),%eax
    fad2:	48 0f bf c0          	movswq %ax,%rax
    fad6:	8b 55 fc             	mov    -0x4(%rbp),%edx
    fad9:	48 8d 35 dd 1d 00 00 	lea    0x1ddd(%rip),%rsi        # 118bd <g_2031+0x785>
    fae0:	48 89 c7             	mov    %rax,%rdi
    fae3:	e8 0b 6c ff ff       	callq  66f3 <transparent_crc>
    fae8:	83 7d fc 00          	cmpl   $0x0,-0x4(%rbp)
    faec:	74 19                	je     fb07 <main+0x3bc>
    faee:	8b 55 f4             	mov    -0xc(%rbp),%edx
    faf1:	8b 45 f0             	mov    -0x10(%rbp),%eax
    faf4:	89 c6                	mov    %eax,%esi
    faf6:	48 8d 3d cc 1d 00 00 	lea    0x1dcc(%rip),%rdi        # 118c9 <g_2031+0x791>
    fafd:	b8 00 00 00 00       	mov    $0x0,%eax
    fb02:	e8 79 55 ff ff       	callq  5080 <printf@plt>
    fb07:	83 45 f4 01          	addl   $0x1,-0xc(%rbp)
    fb0b:	83 7d f4 09          	cmpl   $0x9,-0xc(%rbp)
    fb0f:	7e 96                	jle    faa7 <main+0x35c>
    fb11:	83 45 f0 01          	addl   $0x1,-0x10(%rbp)
    fb15:	83 7d f0 04          	cmpl   $0x4,-0x10(%rbp)
    fb19:	7e 83                	jle    fa9e <main+0x353>
    fb1b:	0f b7 05 c2 55 00 00 	movzwl 0x55c2(%rip),%eax        # 150e4 <g_327>
    fb22:	0f b7 c0             	movzwl %ax,%eax
    fb25:	8b 55 fc             	mov    -0x4(%rbp),%edx
    fb28:	48 8d 35 ac 1d 00 00 	lea    0x1dac(%rip),%rsi        # 118db <g_2031+0x7a3>
    fb2f:	48 89 c7             	mov    %rax,%rdi
    fb32:	e8 bc 6b ff ff       	callq  66f3 <transparent_crc>
    fb37:	48 8b 05 aa 55 00 00 	mov    0x55aa(%rip),%rax        # 150e8 <g_338>
    fb3e:	8b 55 fc             	mov    -0x4(%rbp),%edx
    fb41:	48 8d 35 99 1d 00 00 	lea    0x1d99(%rip),%rsi        # 118e1 <g_2031+0x7a9>
    fb48:	48 89 c7             	mov    %rax,%rdi
    fb4b:	e8 a3 6b ff ff       	callq  66f3 <transparent_crc>
    fb50:	0f b7 05 99 55 00 00 	movzwl 0x5599(%rip),%eax        # 150f0 <g_366>
    fb57:	48 0f bf c0          	movswq %ax,%rax
    fb5b:	8b 55 fc             	mov    -0x4(%rbp),%edx
    fb5e:	48 8d 35 82 1d 00 00 	lea    0x1d82(%rip),%rsi        # 118e7 <g_2031+0x7af>
    fb65:	48 89 c7             	mov    %rax,%rdi
    fb68:	e8 86 6b ff ff       	callq  66f3 <transparent_crc>
    fb6d:	c7 45 f0 00 00 00 00 	movl   $0x0,-0x10(%rbp)
    fb74:	eb 6d                	jmp    fbe3 <main+0x498>
    fb76:	c7 45 f4 00 00 00 00 	movl   $0x0,-0xc(%rbp)
    fb7d:	eb 5a                	jmp    fbd9 <main+0x48e>
    fb7f:	8b 45 f4             	mov    -0xc(%rbp),%eax
    fb82:	48 98                	cltq   
    fb84:	8b 55 f0             	mov    -0x10(%rbp),%edx
    fb87:	48 63 d2             	movslq %edx,%rdx
    fb8a:	48 01 d2             	add    %rdx,%rdx
    fb8d:	48 01 d0             	add    %rdx,%rax
    fb90:	48 8d 14 85 00 00 00 	lea    0x0(,%rax,4),%rdx
    fb97:	00 
    fb98:	48 8d 05 61 55 00 00 	lea    0x5561(%rip),%rax        # 15100 <g_380>
    fb9f:	8b 04 02             	mov    (%rdx,%rax,1),%eax
    fba2:	48 98                	cltq   
    fba4:	8b 55 fc             	mov    -0x4(%rbp),%edx
    fba7:	48 8d 35 3f 1d 00 00 	lea    0x1d3f(%rip),%rsi        # 118ed <g_2031+0x7b5>
    fbae:	48 89 c7             	mov    %rax,%rdi
    fbb1:	e8 3d 6b ff ff       	callq  66f3 <transparent_crc>
    fbb6:	83 7d fc 00          	cmpl   $0x0,-0x4(%rbp)
    fbba:	74 19                	je     fbd5 <main+0x48a>
    fbbc:	8b 55 f4             	mov    -0xc(%rbp),%edx
    fbbf:	8b 45 f0             	mov    -0x10(%rbp),%eax
    fbc2:	89 c6                	mov    %eax,%esi
    fbc4:	48 8d 3d fe 1c 00 00 	lea    0x1cfe(%rip),%rdi        # 118c9 <g_2031+0x791>
    fbcb:	b8 00 00 00 00       	mov    $0x0,%eax
    fbd0:	e8 ab 54 ff ff       	callq  5080 <printf@plt>
    fbd5:	83 45 f4 01          	addl   $0x1,-0xc(%rbp)
    fbd9:	83 7d f4 01          	cmpl   $0x1,-0xc(%rbp)
    fbdd:	7e a0                	jle    fb7f <main+0x434>
    fbdf:	83 45 f0 01          	addl   $0x1,-0x10(%rbp)
    fbe3:	83 7d f0 04          	cmpl   $0x4,-0x10(%rbp)
    fbe7:	7e 8d                	jle    fb76 <main+0x42b>
    fbe9:	b8 01 00 00 00       	mov    $0x1,%eax
    fbee:	0f b7 c0             	movzwl %ax,%eax
    fbf1:	8b 55 fc             	mov    -0x4(%rbp),%edx
    fbf4:	48 8d 35 fe 1c 00 00 	lea    0x1cfe(%rip),%rsi        # 118f9 <g_2031+0x7c1>
    fbfb:	48 89 c7             	mov    %rax,%rdi
    fbfe:	e8 f0 6a ff ff       	callq  66f3 <transparent_crc>
    fc03:	0f b7 05 1e 55 00 00 	movzwl 0x551e(%rip),%eax        # 15128 <g_621>
    fc0a:	48 0f bf c0          	movswq %ax,%rax
    fc0e:	8b 55 fc             	mov    -0x4(%rbp),%edx
    fc11:	48 8d 35 e7 1c 00 00 	lea    0x1ce7(%rip),%rsi        # 118ff <g_2031+0x7c7>
    fc18:	48 89 c7             	mov    %rax,%rdi
    fc1b:	e8 d3 6a ff ff       	callq  66f3 <transparent_crc>
    fc20:	c7 45 f0 00 00 00 00 	movl   $0x0,-0x10(%rbp)
    fc27:	eb 6c                	jmp    fc95 <main+0x54a>
    fc29:	c7 45 f4 00 00 00 00 	movl   $0x0,-0xc(%rbp)
    fc30:	eb 59                	jmp    fc8b <main+0x540>
    fc32:	8b 45 f4             	mov    -0xc(%rbp),%eax
    fc35:	48 98                	cltq   
    fc37:	8b 55 f0             	mov    -0x10(%rbp),%edx
    fc3a:	48 63 d2             	movslq %edx,%rdx
    fc3d:	48 01 d2             	add    %rdx,%rdx
    fc40:	48 01 d0             	add    %rdx,%rax
    fc43:	48 8d 14 00          	lea    (%rax,%rax,1),%rdx
    fc47:	48 8d 05 e2 54 00 00 	lea    0x54e2(%rip),%rax        # 15130 <g_624>
    fc4e:	0f b7 04 02          	movzwl (%rdx,%rax,1),%eax
    fc52:	48 0f bf c0          	movswq %ax,%rax
    fc56:	8b 55 fc             	mov    -0x4(%rbp),%edx
    fc59:	48 8d 35 a5 1c 00 00 	lea    0x1ca5(%rip),%rsi        # 11905 <g_2031+0x7cd>
    fc60:	48 89 c7             	mov    %rax,%rdi
    fc63:	e8 8b 6a ff ff       	callq  66f3 <transparent_crc>
    fc68:	83 7d fc 00          	cmpl   $0x0,-0x4(%rbp)
    fc6c:	74 19                	je     fc87 <main+0x53c>
    fc6e:	8b 55 f4             	mov    -0xc(%rbp),%edx
    fc71:	8b 45 f0             	mov    -0x10(%rbp),%eax
    fc74:	89 c6                	mov    %eax,%esi
    fc76:	48 8d 3d 4c 1c 00 00 	lea    0x1c4c(%rip),%rdi        # 118c9 <g_2031+0x791>
    fc7d:	b8 00 00 00 00       	mov    $0x0,%eax
    fc82:	e8 f9 53 ff ff       	callq  5080 <printf@plt>
    fc87:	83 45 f4 01          	addl   $0x1,-0xc(%rbp)
    fc8b:	83 7d f4 01          	cmpl   $0x1,-0xc(%rbp)
    fc8f:	7e a1                	jle    fc32 <main+0x4e7>
    fc91:	83 45 f0 01          	addl   $0x1,-0x10(%rbp)
    fc95:	83 7d f0 02          	cmpl   $0x2,-0x10(%rbp)
    fc99:	7e 8e                	jle    fc29 <main+0x4de>
    fc9b:	0f b6 05 9a 54 00 00 	movzbl 0x549a(%rip),%eax        # 1513c <g_838>
    fca2:	0f b6 c0             	movzbl %al,%eax
    fca5:	8b 55 fc             	mov    -0x4(%rbp),%edx
    fca8:	48 8d 35 62 1c 00 00 	lea    0x1c62(%rip),%rsi        # 11911 <g_2031+0x7d9>
    fcaf:	48 89 c7             	mov    %rax,%rdi
    fcb2:	e8 3c 6a ff ff       	callq  66f3 <transparent_crc>
    fcb7:	8b 05 83 54 00 00    	mov    0x5483(%rip),%eax        # 15140 <g_1010>
    fcbd:	48 98                	cltq   
    fcbf:	8b 55 fc             	mov    -0x4(%rbp),%edx
    fcc2:	48 8d 35 4e 1c 00 00 	lea    0x1c4e(%rip),%rsi        # 11917 <g_2031+0x7df>
    fcc9:	48 89 c7             	mov    %rax,%rdi
    fccc:	e8 22 6a ff ff       	callq  66f3 <transparent_crc>
    fcd1:	c7 45 f0 00 00 00 00 	movl   $0x0,-0x10(%rbp)
    fcd8:	eb 4b                	jmp    fd25 <main+0x5da>
    fcda:	8b 45 f0             	mov    -0x10(%rbp),%eax
    fcdd:	48 98                	cltq   
    fcdf:	48 8d 14 85 00 00 00 	lea    0x0(,%rax,4),%rdx
    fce6:	00 
    fce7:	48 8d 05 62 54 00 00 	lea    0x5462(%rip),%rax        # 15150 <g_1024>
    fcee:	8b 04 02             	mov    (%rdx,%rax,1),%eax
    fcf1:	48 98                	cltq   
    fcf3:	8b 55 fc             	mov    -0x4(%rbp),%edx
    fcf6:	48 8d 35 21 1c 00 00 	lea    0x1c21(%rip),%rsi        # 1191e <g_2031+0x7e6>
    fcfd:	48 89 c7             	mov    %rax,%rdi
    fd00:	e8 ee 69 ff ff       	callq  66f3 <transparent_crc>
    fd05:	83 7d fc 00          	cmpl   $0x0,-0x4(%rbp)
    fd09:	74 16                	je     fd21 <main+0x5d6>
    fd0b:	8b 45 f0             	mov    -0x10(%rbp),%eax
    fd0e:	89 c6                	mov    %eax,%esi
    fd10:	48 8d 3d 31 1b 00 00 	lea    0x1b31(%rip),%rdi        # 11848 <g_2031+0x710>
    fd17:	b8 00 00 00 00       	mov    $0x0,%eax
    fd1c:	e8 5f 53 ff ff       	callq  5080 <printf@plt>
    fd21:	83 45 f0 01          	addl   $0x1,-0x10(%rbp)
    fd25:	83 7d f0 03          	cmpl   $0x3,-0x10(%rbp)
    fd29:	7e af                	jle    fcda <main+0x58f>
    fd2b:	c7 45 f0 00 00 00 00 	movl   $0x0,-0x10(%rbp)
    fd32:	e9 a6 00 00 00       	jmpq   fddd <main+0x692>
    fd37:	c7 45 f4 00 00 00 00 	movl   $0x0,-0xc(%rbp)
    fd3e:	e9 8c 00 00 00       	jmpq   fdcf <main+0x684>
    fd43:	c7 45 f8 00 00 00 00 	movl   $0x0,-0x8(%rbp)
    fd4a:	eb 79                	jmp    fdc5 <main+0x67a>
    fd4c:	8b 45 f8             	mov    -0x8(%rbp),%eax
    fd4f:	48 63 f0             	movslq %eax,%rsi
    fd52:	8b 45 f0             	mov    -0x10(%rbp),%eax
    fd55:	48 63 d0             	movslq %eax,%rdx
    fd58:	8b 45 f4             	mov    -0xc(%rbp),%eax
    fd5b:	48 63 c8             	movslq %eax,%rcx
    fd5e:	48 89 d0             	mov    %rdx,%rax
    fd61:	48 c1 e0 03          	shl    $0x3,%rax
    fd65:	48 01 d0             	add    %rdx,%rax
    fd68:	48 01 c0             	add    %rax,%rax
    fd6b:	48 89 ca             	mov    %rcx,%rdx
    fd6e:	48 c1 e2 03          	shl    $0x3,%rdx
    fd72:	48 01 ca             	add    %rcx,%rdx
    fd75:	48 01 d0             	add    %rdx,%rax
    fd78:	48 8d 14 30          	lea    (%rax,%rsi,1),%rdx
    fd7c:	48 8d 05 fd 12 00 00 	lea    0x12fd(%rip),%rax        # 11080 <g_1084>
    fd83:	48 01 d0             	add    %rdx,%rax
    fd86:	0f b6 00             	movzbl (%rax),%eax
    fd89:	48 0f be c0          	movsbq %al,%rax
    fd8d:	8b 55 fc             	mov    -0x4(%rbp),%edx
    fd90:	48 8d 35 91 1b 00 00 	lea    0x1b91(%rip),%rsi        # 11928 <g_2031+0x7f0>
    fd97:	48 89 c7             	mov    %rax,%rdi
    fd9a:	e8 54 69 ff ff       	callq  66f3 <transparent_crc>
    fd9f:	83 7d fc 00          	cmpl   $0x0,-0x4(%rbp)
    fda3:	74 1c                	je     fdc1 <main+0x676>
    fda5:	8b 4d f8             	mov    -0x8(%rbp),%ecx
    fda8:	8b 55 f4             	mov    -0xc(%rbp),%edx
    fdab:	8b 45 f0             	mov    -0x10(%rbp),%eax
    fdae:	89 c6                	mov    %eax,%esi
    fdb0:	48 8d 3d 81 1b 00 00 	lea    0x1b81(%rip),%rdi        # 11938 <g_2031+0x800>
    fdb7:	b8 00 00 00 00       	mov    $0x0,%eax
    fdbc:	e8 bf 52 ff ff       	callq  5080 <printf@plt>
    fdc1:	83 45 f8 01          	addl   $0x1,-0x8(%rbp)
    fdc5:	83 7d f8 08          	cmpl   $0x8,-0x8(%rbp)
    fdc9:	7e 81                	jle    fd4c <main+0x601>
    fdcb:	83 45 f4 01          	addl   $0x1,-0xc(%rbp)
    fdcf:	83 7d f4 01          	cmpl   $0x1,-0xc(%rbp)
    fdd3:	0f 8e 6a ff ff ff    	jle    fd43 <main+0x5f8>
    fdd9:	83 45 f0 01          	addl   $0x1,-0x10(%rbp)
    fddd:	83 7d f0 05          	cmpl   $0x5,-0x10(%rbp)
    fde1:	0f 8e 50 ff ff ff    	jle    fd37 <main+0x5ec>
    fde7:	0f b7 05 72 53 00 00 	movzwl 0x5372(%rip),%eax        # 15160 <g_1140>
    fdee:	48 0f bf c0          	movswq %ax,%rax
    fdf2:	8b 55 fc             	mov    -0x4(%rbp),%edx
    fdf5:	48 8d 35 52 1b 00 00 	lea    0x1b52(%rip),%rsi        # 1194e <g_2031+0x816>
    fdfc:	48 89 c7             	mov    %rax,%rdi
    fdff:	e8 ef 68 ff ff       	callq  66f3 <transparent_crc>
    fe04:	8b 05 5a 53 00 00    	mov    0x535a(%rip),%eax        # 15164 <g_1170>
    fe0a:	89 c1                	mov    %eax,%ecx
    fe0c:	8b 45 fc             	mov    -0x4(%rbp),%eax
    fe0f:	89 c2                	mov    %eax,%edx
    fe11:	48 8d 35 3d 1b 00 00 	lea    0x1b3d(%rip),%rsi        # 11955 <g_2031+0x81d>
    fe18:	48 89 cf             	mov    %rcx,%rdi
    fe1b:	e8 d3 68 ff ff       	callq  66f3 <transparent_crc>
    fe20:	c7 45 f0 00 00 00 00 	movl   $0x0,-0x10(%rbp)
    fe27:	eb 4a                	jmp    fe73 <main+0x728>
    fe29:	8b 45 f0             	mov    -0x10(%rbp),%eax
    fe2c:	48 98                	cltq   
    fe2e:	48 8d 14 c5 00 00 00 	lea    0x0(,%rax,8),%rdx
    fe35:	00 
    fe36:	48 8d 05 33 53 00 00 	lea    0x5333(%rip),%rax        # 15170 <g_1252>
    fe3d:	48 8b 04 02          	mov    (%rdx,%rax,1),%rax
    fe41:	8b 55 fc             	mov    -0x4(%rbp),%edx
    fe44:	48 8d 35 11 1b 00 00 	lea    0x1b11(%rip),%rsi        # 1195c <g_2031+0x824>
    fe4b:	48 89 c7             	mov    %rax,%rdi
    fe4e:	e8 a0 68 ff ff       	callq  66f3 <transparent_crc>
    fe53:	83 7d fc 00          	cmpl   $0x0,-0x4(%rbp)
    fe57:	74 16                	je     fe6f <main+0x724>
    fe59:	8b 45 f0             	mov    -0x10(%rbp),%eax
    fe5c:	89 c6                	mov    %eax,%esi
    fe5e:	48 8d 3d e3 19 00 00 	lea    0x19e3(%rip),%rdi        # 11848 <g_2031+0x710>
    fe65:	b8 00 00 00 00       	mov    $0x0,%eax
    fe6a:	e8 11 52 ff ff       	callq  5080 <printf@plt>
    fe6f:	83 45 f0 01          	addl   $0x1,-0x10(%rbp)
    fe73:	83 7d f0 01          	cmpl   $0x1,-0x10(%rbp)
    fe77:	7e b0                	jle    fe29 <main+0x6de>
    fe79:	8b 05 09 53 00 00    	mov    0x5309(%rip),%eax        # 15188 <g_1463>
    fe7f:	48 98                	cltq   
    fe81:	8b 55 fc             	mov    -0x4(%rbp),%edx
    fe84:	48 8d 35 db 1a 00 00 	lea    0x1adb(%rip),%rsi        # 11966 <g_2031+0x82e>
    fe8b:	48 89 c7             	mov    %rax,%rdi
    fe8e:	e8 60 68 ff ff       	callq  66f3 <transparent_crc>
    fe93:	0f b6 05 f2 52 00 00 	movzbl 0x52f2(%rip),%eax        # 1518c <g_1529>
    fe9a:	48 0f be c0          	movsbq %al,%rax
    fe9e:	8b 55 fc             	mov    -0x4(%rbp),%edx
    fea1:	48 8d 35 c5 1a 00 00 	lea    0x1ac5(%rip),%rsi        # 1196d <g_2031+0x835>
    fea8:	48 89 c7             	mov    %rax,%rdi
    feab:	e8 43 68 ff ff       	callq  66f3 <transparent_crc>
    feb0:	0f b6 05 d6 52 00 00 	movzbl 0x52d6(%rip),%eax        # 1518d <g_1532>
    feb7:	48 0f be c0          	movsbq %al,%rax
    febb:	8b 55 fc             	mov    -0x4(%rbp),%edx
    febe:	48 8d 35 af 1a 00 00 	lea    0x1aaf(%rip),%rsi        # 11974 <g_2031+0x83c>
    fec5:	48 89 c7             	mov    %rax,%rdi
    fec8:	e8 26 68 ff ff       	callq  66f3 <transparent_crc>
    fecd:	8b 05 bd 52 00 00    	mov    0x52bd(%rip),%eax        # 15190 <g_1741>
    fed3:	48 98                	cltq   
    fed5:	8b 55 fc             	mov    -0x4(%rbp),%edx
    fed8:	48 8d 35 9c 1a 00 00 	lea    0x1a9c(%rip),%rsi        # 1197b <g_2031+0x843>
    fedf:	48 89 c7             	mov    %rax,%rdi
    fee2:	e8 0c 68 ff ff       	callq  66f3 <transparent_crc>
    fee7:	0f b7 05 a6 52 00 00 	movzwl 0x52a6(%rip),%eax        # 15194 <g_1792>
    feee:	0f b7 c0             	movzwl %ax,%eax
    fef1:	8b 55 fc             	mov    -0x4(%rbp),%edx
    fef4:	48 8d 35 87 1a 00 00 	lea    0x1a87(%rip),%rsi        # 11982 <g_2031+0x84a>
    fefb:	48 89 c7             	mov    %rax,%rdi
    fefe:	e8 f0 67 ff ff       	callq  66f3 <transparent_crc>
    ff03:	c7 45 f0 00 00 00 00 	movl   $0x0,-0x10(%rbp)
    ff0a:	eb 74                	jmp    ff80 <main+0x835>
    ff0c:	c7 45 f4 00 00 00 00 	movl   $0x0,-0xc(%rbp)
    ff13:	eb 61                	jmp    ff76 <main+0x82b>
    ff15:	8b 45 f4             	mov    -0xc(%rbp),%eax
    ff18:	48 63 c8             	movslq %eax,%rcx
    ff1b:	8b 45 f0             	mov    -0x10(%rbp),%eax
    ff1e:	48 63 d0             	movslq %eax,%rdx
    ff21:	48 89 d0             	mov    %rdx,%rax
    ff24:	48 01 c0             	add    %rax,%rax
    ff27:	48 01 d0             	add    %rdx,%rax
    ff2a:	48 01 c8             	add    %rcx,%rax
    ff2d:	48 8d 14 85 00 00 00 	lea    0x0(,%rax,4),%rdx
    ff34:	00 
    ff35:	48 8d 05 c4 11 00 00 	lea    0x11c4(%rip),%rax        # 11100 <g_1869>
    ff3c:	8b 04 02             	mov    (%rdx,%rax,1),%eax
    ff3f:	48 98                	cltq   
    ff41:	8b 55 fc             	mov    -0x4(%rbp),%edx
    ff44:	48 8d 35 3e 1a 00 00 	lea    0x1a3e(%rip),%rsi        # 11989 <g_2031+0x851>
    ff4b:	48 89 c7             	mov    %rax,%rdi
    ff4e:	e8 a0 67 ff ff       	callq  66f3 <transparent_crc>
    ff53:	83 7d fc 00          	cmpl   $0x0,-0x4(%rbp)
    ff57:	74 19                	je     ff72 <main+0x827>
    ff59:	8b 55 f4             	mov    -0xc(%rbp),%edx
    ff5c:	8b 45 f0             	mov    -0x10(%rbp),%eax
    ff5f:	89 c6                	mov    %eax,%esi
    ff61:	48 8d 3d 61 19 00 00 	lea    0x1961(%rip),%rdi        # 118c9 <g_2031+0x791>
    ff68:	b8 00 00 00 00       	mov    $0x0,%eax
    ff6d:	e8 0e 51 ff ff       	callq  5080 <printf@plt>
    ff72:	83 45 f4 01          	addl   $0x1,-0xc(%rbp)
    ff76:	83 7d f4 02          	cmpl   $0x2,-0xc(%rbp)
    ff7a:	7e 99                	jle    ff15 <main+0x7ca>
    ff7c:	83 45 f0 01          	addl   $0x1,-0x10(%rbp)
    ff80:	83 7d f0 03          	cmpl   $0x3,-0x10(%rbp)
    ff84:	7e 86                	jle    ff0c <main+0x7c1>
    ff86:	c7 45 f0 00 00 00 00 	movl   $0x0,-0x10(%rbp)
    ff8d:	eb 3b                	jmp    ffca <main+0x87f>
    ff8f:	b8 06 00 00 00       	mov    $0x6,%eax
    ff94:	89 c1                	mov    %eax,%ecx
    ff96:	8b 45 fc             	mov    -0x4(%rbp),%eax
    ff99:	89 c2                	mov    %eax,%edx
    ff9b:	48 8d 35 f4 19 00 00 	lea    0x19f4(%rip),%rsi        # 11996 <g_2031+0x85e>
    ffa2:	48 89 cf             	mov    %rcx,%rdi
    ffa5:	e8 49 67 ff ff       	callq  66f3 <transparent_crc>
    ffaa:	83 7d fc 00          	cmpl   $0x0,-0x4(%rbp)
    ffae:	74 16                	je     ffc6 <main+0x87b>
    ffb0:	8b 45 f0             	mov    -0x10(%rbp),%eax
    ffb3:	89 c6                	mov    %eax,%esi
    ffb5:	48 8d 3d 8c 18 00 00 	lea    0x188c(%rip),%rdi        # 11848 <g_2031+0x710>
    ffbc:	b8 00 00 00 00       	mov    $0x0,%eax
    ffc1:	e8 ba 50 ff ff       	callq  5080 <printf@plt>
    ffc6:	83 45 f0 01          	addl   $0x1,-0x10(%rbp)
    ffca:	83 7d f0 00          	cmpl   $0x0,-0x10(%rbp)
    ffce:	7e bf                	jle    ff8f <main+0x844>
    ffd0:	b8 cc be c8 53       	mov    $0x53c8becc,%eax
    ffd5:	89 c1                	mov    %eax,%ecx
    ffd7:	8b 45 fc             	mov    -0x4(%rbp),%eax
    ffda:	89 c2                	mov    %eax,%edx
    ffdc:	48 8d 35 bd 19 00 00 	lea    0x19bd(%rip),%rsi        # 119a0 <g_2031+0x868>
    ffe3:	48 89 cf             	mov    %rcx,%rdi
    ffe6:	e8 08 67 ff ff       	callq  66f3 <transparent_crc>
    ffeb:	0f b7 05 a4 51 00 00 	movzwl 0x51a4(%rip),%eax        # 15196 <g_1954>
    fff2:	0f b7 c0             	movzwl %ax,%eax
    fff5:	8b 55 fc             	mov    -0x4(%rbp),%edx
    fff8:	48 8d 35 a8 19 00 00 	lea    0x19a8(%rip),%rsi        # 119a7 <g_2031+0x86f>
    ffff:	48 89 c7             	mov    %rax,%rdi
   10002:	e8 ec 66 ff ff       	callq  66f3 <transparent_crc>
   10007:	b8 1e c9 ff ff       	mov    $0xffffc91e,%eax
   1000c:	48 0f bf c0          	movswq %ax,%rax
   10010:	8b 55 fc             	mov    -0x4(%rbp),%edx
   10013:	48 8d 35 94 19 00 00 	lea    0x1994(%rip),%rsi        # 119ae <g_2031+0x876>
   1001a:	48 89 c7             	mov    %rax,%rdi
   1001d:	e8 d1 66 ff ff       	callq  66f3 <transparent_crc>
   10022:	8b 05 70 51 00 00    	mov    0x5170(%rip),%eax        # 15198 <g_2053>
   10028:	89 c1                	mov    %eax,%ecx
   1002a:	8b 45 fc             	mov    -0x4(%rbp),%eax
   1002d:	89 c2                	mov    %eax,%edx
   1002f:	48 8d 35 7f 19 00 00 	lea    0x197f(%rip),%rsi        # 119b5 <g_2031+0x87d>
   10036:	48 89 cf             	mov    %rcx,%rdi
   10039:	e8 b5 66 ff ff       	callq  66f3 <transparent_crc>
   1003e:	8b 05 dc 4f 00 00    	mov    0x4fdc(%rip),%eax        # 15020 <crc32_context>
   10044:	f7 d0                	not    %eax
   10046:	89 c2                	mov    %eax,%edx
   10048:	8b 45 fc             	mov    -0x4(%rbp),%eax
   1004b:	89 c6                	mov    %eax,%esi
   1004d:	89 d7                	mov    %edx,%edi
   1004f:	e8 40 51 ff ff       	callq  5194 <platform_main_end>
   10054:	b8 00 00 00 00       	mov    $0x0,%eax
   10059:	c9                   	leaveq 
   1005a:	c3                   	retq   
   1005b:	0f 1f 44 00 00       	nopl   0x0(%rax,%rax,1)

0000000000010060 <__libc_csu_init>:
   10060:	f3 0f 1e fa          	endbr64 
   10064:	41 57                	push   %r15
   10066:	4c 8d 3d a3 44 00 00 	lea    0x44a3(%rip),%r15        # 14510 <__frame_dummy_init_array_entry>
   1006d:	41 56                	push   %r14
   1006f:	49 89 d6             	mov    %rdx,%r14
   10072:	41 55                	push   %r13
   10074:	49 89 f5             	mov    %rsi,%r13
   10077:	41 54                	push   %r12
   10079:	41 89 fc             	mov    %edi,%r12d
   1007c:	55                   	push   %rbp
   1007d:	48 8d 2d 94 44 00 00 	lea    0x4494(%rip),%rbp        # 14518 <__do_global_dtors_aux_fini_array_entry>
   10084:	53                   	push   %rbx
   10085:	4c 29 fd             	sub    %r15,%rbp
   10088:	48 83 ec 08          	sub    $0x8,%rsp
   1008c:	e8 6f 4f ff ff       	callq  5000 <_init>
   10091:	48 c1 fd 03          	sar    $0x3,%rbp
   10095:	74 1f                	je     100b6 <__libc_csu_init+0x56>
   10097:	31 db                	xor    %ebx,%ebx
   10099:	0f 1f 80 00 00 00 00 	nopl   0x0(%rax)
   100a0:	4c 89 f2             	mov    %r14,%rdx
   100a3:	4c 89 ee             	mov    %r13,%rsi
   100a6:	44 89 e7             	mov    %r12d,%edi
   100a9:	41 ff 14 df          	callq  *(%r15,%rbx,8)
   100ad:	48 83 c3 01          	add    $0x1,%rbx
   100b1:	48 39 dd             	cmp    %rbx,%rbp
   100b4:	75 ea                	jne    100a0 <__libc_csu_init+0x40>
   100b6:	48 83 c4 08          	add    $0x8,%rsp
   100ba:	5b                   	pop    %rbx
   100bb:	5d                   	pop    %rbp
   100bc:	41 5c                	pop    %r12
   100be:	41 5d                	pop    %r13
   100c0:	41 5e                	pop    %r14
   100c2:	41 5f                	pop    %r15
   100c4:	c3                   	retq   
   100c5:	66 66 2e 0f 1f 84 00 	data16 nopw %cs:0x0(%rax,%rax,1)
   100cc:	00 00 00 00 

00000000000100d0 <__libc_csu_fini>:
   100d0:	f3 0f 1e fa          	endbr64 
   100d4:	c3                   	retq   
