


Disassembly of section .text:

00000000000050a0 <_start>:
    50a0:	f3 0f 1e fa          	endbr64 
    50a4:	31 ed                	xor    %ebp,%ebp
    50a6:	49 89 d1             	mov    %rdx,%r9
    50a9:	5e                   	pop    %rsi
    50aa:	48 89 e2             	mov    %rsp,%rdx
    50ad:	48 83 e4 f0          	and    $0xfffffffffffffff0,%rsp
    50b1:	50                   	push   %rax
    50b2:	54                   	push   %rsp
    50b3:	4c 8d 05 f6 fb 00 00 	lea    0xfbf6(%rip),%r8        # 14cb0 <__libc_csu_fini>
    50ba:	48 8d 0d 7f fb 00 00 	lea    0xfb7f(%rip),%rcx        # 14c40 <__libc_csu_init>
    50c1:	48 8d 3d 50 e8 00 00 	lea    0xe850(%rip),%rdi        # 13918 <main>
    50c8:	ff 15 0a 3f 01 00    	callq  *0x13f0a(%rip)        # 18fd8 <__libc_start_main@GLIBC_2.2.5>
    50ce:	f4                   	hlt    
    50cf:	90                   	nop

00000000000050d0 <deregister_tm_clones>:
    50d0:	48 8d 3d 89 63 01 00 	lea    0x16389(%rip),%rdi        # 1b460 <__TMC_END__>
    50d7:	48 8d 05 82 63 01 00 	lea    0x16382(%rip),%rax        # 1b460 <__TMC_END__>
    50de:	48 39 f8             	cmp    %rdi,%rax
    50e1:	74 15                	je     50f8 <deregister_tm_clones+0x28>
    50e3:	48 8b 05 e6 3e 01 00 	mov    0x13ee6(%rip),%rax        # 18fd0 <_ITM_deregisterTMCloneTable>
    50ea:	48 85 c0             	test   %rax,%rax
    50ed:	74 09                	je     50f8 <deregister_tm_clones+0x28>
    50ef:	ff e0                	jmpq   *%rax
    50f1:	0f 1f 80 00 00 00 00 	nopl   0x0(%rax)
    50f8:	c3                   	retq   
    50f9:	0f 1f 80 00 00 00 00 	nopl   0x0(%rax)

0000000000005100 <register_tm_clones>:
    5100:	48 8d 3d 59 63 01 00 	lea    0x16359(%rip),%rdi        # 1b460 <__TMC_END__>
    5107:	48 8d 35 52 63 01 00 	lea    0x16352(%rip),%rsi        # 1b460 <__TMC_END__>
    510e:	48 29 fe             	sub    %rdi,%rsi
    5111:	48 89 f0             	mov    %rsi,%rax
    5114:	48 c1 ee 3f          	shr    $0x3f,%rsi
    5118:	48 c1 f8 03          	sar    $0x3,%rax
    511c:	48 01 c6             	add    %rax,%rsi
    511f:	48 d1 fe             	sar    %rsi
    5122:	74 14                	je     5138 <register_tm_clones+0x38>
    5124:	48 8b 05 bd 3e 01 00 	mov    0x13ebd(%rip),%rax        # 18fe8 <_ITM_registerTMCloneTable>
    512b:	48 85 c0             	test   %rax,%rax
    512e:	74 08                	je     5138 <register_tm_clones+0x38>
    5130:	ff e0                	jmpq   *%rax
    5132:	66 0f 1f 44 00 00    	nopw   0x0(%rax,%rax,1)
    5138:	c3                   	retq   
    5139:	0f 1f 80 00 00 00 00 	nopl   0x0(%rax)

0000000000005140 <__do_global_dtors_aux>:
    5140:	f3 0f 1e fa          	endbr64 
    5144:	80 3d 15 63 01 00 00 	cmpb   $0x0,0x16315(%rip)        # 1b460 <__TMC_END__>
    514b:	75 2b                	jne    5178 <__do_global_dtors_aux+0x38>
    514d:	55                   	push   %rbp
    514e:	48 83 3d 9a 3e 01 00 	cmpq   $0x0,0x13e9a(%rip)        # 18ff0 <__cxa_finalize@GLIBC_2.2.5>
    5155:	00 
    5156:	48 89 e5             	mov    %rsp,%rbp
    5159:	74 0c                	je     5167 <__do_global_dtors_aux+0x27>
    515b:	48 8b 3d a6 3e 01 00 	mov    0x13ea6(%rip),%rdi        # 19008 <__dso_handle>
    5162:	e8 f9 fe ff ff       	callq  5060 <__cxa_finalize@plt>
    5167:	e8 64 ff ff ff       	callq  50d0 <deregister_tm_clones>
    516c:	c6 05 ed 62 01 00 01 	movb   $0x1,0x162ed(%rip)        # 1b460 <__TMC_END__>
    5173:	5d                   	pop    %rbp
    5174:	c3                   	retq   
    5175:	0f 1f 00             	nopl   (%rax)
    5178:	c3                   	retq   
    5179:	0f 1f 80 00 00 00 00 	nopl   0x0(%rax)

0000000000005180 <frame_dummy>:
    5180:	f3 0f 1e fa          	endbr64 
    5184:	e9 77 ff ff ff       	jmpq   5100 <register_tm_clones>

0000000000005189 <platform_main_begin>:
    5189:	f3 0f 1e fa          	endbr64 
    518d:	55                   	push   %rbp
    518e:	48 89 e5             	mov    %rsp,%rbp
    5191:	90                   	nop
    5192:	5d                   	pop    %rbp
    5193:	c3                   	retq   

0000000000005194 <platform_main_end>:
    5194:	f3 0f 1e fa          	endbr64 
    5198:	55                   	push   %rbp
    5199:	48 89 e5             	mov    %rsp,%rbp
    519c:	48 83 ec 10          	sub    $0x10,%rsp
    51a0:	89 7d fc             	mov    %edi,-0x4(%rbp)
    51a3:	89 75 f8             	mov    %esi,-0x8(%rbp)
    51a6:	8b 45 fc             	mov    -0x4(%rbp),%eax
    51a9:	89 c6                	mov    %eax,%esi
    51ab:	48 8d 3d 6e fe 00 00 	lea    0xfe6e(%rip),%rdi        # 15020 <_IO_stdin_used+0x20>
    51b2:	b8 00 00 00 00       	mov    $0x0,%eax
    51b7:	e8 c4 fe ff ff       	callq  5080 <printf@plt>
    51bc:	90                   	nop
    51bd:	c9                   	leaveq 
    51be:	c3                   	retq   

00000000000051bf <safe_unary_minus_func_int8_t_s>:
    51bf:	f3 0f 1e fa          	endbr64 
    51c3:	55                   	push   %rbp
    51c4:	48 89 e5             	mov    %rsp,%rbp
    51c7:	89 f8                	mov    %edi,%eax
    51c9:	88 45 fc             	mov    %al,-0x4(%rbp)
    51cc:	0f b6 45 fc          	movzbl -0x4(%rbp),%eax
    51d0:	f7 d8                	neg    %eax
    51d2:	5d                   	pop    %rbp
    51d3:	c3                   	retq   

00000000000051d4 <safe_add_func_int8_t_s_s>:
    51d4:	f3 0f 1e fa          	endbr64 
    51d8:	55                   	push   %rbp
    51d9:	48 89 e5             	mov    %rsp,%rbp
    51dc:	89 fa                	mov    %edi,%edx
    51de:	89 f0                	mov    %esi,%eax
    51e0:	88 55 fc             	mov    %dl,-0x4(%rbp)
    51e3:	88 45 f8             	mov    %al,-0x8(%rbp)
    51e6:	0f b6 55 fc          	movzbl -0x4(%rbp),%edx
    51ea:	0f b6 45 f8          	movzbl -0x8(%rbp),%eax
    51ee:	01 d0                	add    %edx,%eax
    51f0:	5d                   	pop    %rbp
    51f1:	c3                   	retq   

00000000000051f2 <safe_sub_func_int8_t_s_s>:
    51f2:	f3 0f 1e fa          	endbr64 
    51f6:	55                   	push   %rbp
    51f7:	48 89 e5             	mov    %rsp,%rbp
    51fa:	89 fa                	mov    %edi,%edx
    51fc:	89 f0                	mov    %esi,%eax
    51fe:	88 55 fc             	mov    %dl,-0x4(%rbp)
    5201:	88 45 f8             	mov    %al,-0x8(%rbp)
    5204:	0f b6 55 fc          	movzbl -0x4(%rbp),%edx
    5208:	0f b6 45 f8          	movzbl -0x8(%rbp),%eax
    520c:	29 c2                	sub    %eax,%edx
    520e:	89 d0                	mov    %edx,%eax
    5210:	5d                   	pop    %rbp
    5211:	c3                   	retq   

0000000000005212 <safe_mul_func_int8_t_s_s>:
    5212:	f3 0f 1e fa          	endbr64 
    5216:	55                   	push   %rbp
    5217:	48 89 e5             	mov    %rsp,%rbp
    521a:	89 fa                	mov    %edi,%edx
    521c:	89 f0                	mov    %esi,%eax
    521e:	88 55 fc             	mov    %dl,-0x4(%rbp)
    5221:	88 45 f8             	mov    %al,-0x8(%rbp)
    5224:	0f b6 45 fc          	movzbl -0x4(%rbp),%eax
    5228:	0f b6 55 f8          	movzbl -0x8(%rbp),%edx
    522c:	0f af c2             	imul   %edx,%eax
    522f:	5d                   	pop    %rbp
    5230:	c3                   	retq   

0000000000005231 <safe_mod_func_int8_t_s_s>:
    5231:	f3 0f 1e fa          	endbr64 
    5235:	55                   	push   %rbp
    5236:	48 89 e5             	mov    %rsp,%rbp
    5239:	89 fa                	mov    %edi,%edx
    523b:	89 f0                	mov    %esi,%eax
    523d:	88 55 fc             	mov    %dl,-0x4(%rbp)
    5240:	88 45 f8             	mov    %al,-0x8(%rbp)
    5243:	80 7d f8 00          	cmpb   $0x0,-0x8(%rbp)
    5247:	74 1b                	je     5264 <safe_mod_func_int8_t_s_s+0x33>
    5249:	80 7d fc 80          	cmpb   $0x80,-0x4(%rbp)
    524d:	75 06                	jne    5255 <safe_mod_func_int8_t_s_s+0x24>
    524f:	80 7d f8 ff          	cmpb   $0xff,-0x8(%rbp)
    5253:	74 0f                	je     5264 <safe_mod_func_int8_t_s_s+0x33>
    5255:	0f be 45 fc          	movsbl -0x4(%rbp),%eax
    5259:	0f be 4d f8          	movsbl -0x8(%rbp),%ecx
    525d:	99                   	cltd   
    525e:	f7 f9                	idiv   %ecx
    5260:	89 d0                	mov    %edx,%eax
    5262:	eb 04                	jmp    5268 <safe_mod_func_int8_t_s_s+0x37>
    5264:	0f b6 45 fc          	movzbl -0x4(%rbp),%eax
    5268:	5d                   	pop    %rbp
    5269:	c3                   	retq   

000000000000526a <safe_div_func_int8_t_s_s>:
    526a:	f3 0f 1e fa          	endbr64 
    526e:	55                   	push   %rbp
    526f:	48 89 e5             	mov    %rsp,%rbp
    5272:	89 fa                	mov    %edi,%edx
    5274:	89 f0                	mov    %esi,%eax
    5276:	88 55 fc             	mov    %dl,-0x4(%rbp)
    5279:	88 45 f8             	mov    %al,-0x8(%rbp)
    527c:	80 7d f8 00          	cmpb   $0x0,-0x8(%rbp)
    5280:	74 19                	je     529b <safe_div_func_int8_t_s_s+0x31>
    5282:	80 7d fc 80          	cmpb   $0x80,-0x4(%rbp)
    5286:	75 06                	jne    528e <safe_div_func_int8_t_s_s+0x24>
    5288:	80 7d f8 ff          	cmpb   $0xff,-0x8(%rbp)
    528c:	74 0d                	je     529b <safe_div_func_int8_t_s_s+0x31>
    528e:	0f be 45 fc          	movsbl -0x4(%rbp),%eax
    5292:	0f be 4d f8          	movsbl -0x8(%rbp),%ecx
    5296:	99                   	cltd   
    5297:	f7 f9                	idiv   %ecx
    5299:	eb 04                	jmp    529f <safe_div_func_int8_t_s_s+0x35>
    529b:	0f b6 45 fc          	movzbl -0x4(%rbp),%eax
    529f:	5d                   	pop    %rbp
    52a0:	c3                   	retq   

00000000000052a1 <safe_lshift_func_int8_t_s_s>:
    52a1:	f3 0f 1e fa          	endbr64 
    52a5:	55                   	push   %rbp
    52a6:	48 89 e5             	mov    %rsp,%rbp
    52a9:	89 f8                	mov    %edi,%eax
    52ab:	89 75 f8             	mov    %esi,-0x8(%rbp)
    52ae:	88 45 fc             	mov    %al,-0x4(%rbp)
    52b1:	80 7d fc 00          	cmpb   $0x0,-0x4(%rbp)
    52b5:	78 31                	js     52e8 <safe_lshift_func_int8_t_s_s+0x47>
    52b7:	83 7d f8 00          	cmpl   $0x0,-0x8(%rbp)
    52bb:	78 2b                	js     52e8 <safe_lshift_func_int8_t_s_s+0x47>
    52bd:	83 7d f8 1f          	cmpl   $0x1f,-0x8(%rbp)
    52c1:	7f 25                	jg     52e8 <safe_lshift_func_int8_t_s_s+0x47>
    52c3:	0f be 55 fc          	movsbl -0x4(%rbp),%edx
    52c7:	8b 45 f8             	mov    -0x8(%rbp),%eax
    52ca:	be 7f 00 00 00       	mov    $0x7f,%esi
    52cf:	89 c1                	mov    %eax,%ecx
    52d1:	d3 fe                	sar    %cl,%esi
    52d3:	89 f0                	mov    %esi,%eax
    52d5:	39 c2                	cmp    %eax,%edx
    52d7:	7f 0f                	jg     52e8 <safe_lshift_func_int8_t_s_s+0x47>
    52d9:	0f be 55 fc          	movsbl -0x4(%rbp),%edx
    52dd:	8b 45 f8             	mov    -0x8(%rbp),%eax
    52e0:	89 c1                	mov    %eax,%ecx
    52e2:	d3 e2                	shl    %cl,%edx
    52e4:	89 d0                	mov    %edx,%eax
    52e6:	eb 04                	jmp    52ec <safe_lshift_func_int8_t_s_s+0x4b>
    52e8:	0f b6 45 fc          	movzbl -0x4(%rbp),%eax
    52ec:	5d                   	pop    %rbp
    52ed:	c3                   	retq   

00000000000052ee <safe_lshift_func_int8_t_s_u>:
    52ee:	f3 0f 1e fa          	endbr64 
    52f2:	55                   	push   %rbp
    52f3:	48 89 e5             	mov    %rsp,%rbp
    52f6:	89 f8                	mov    %edi,%eax
    52f8:	89 75 f8             	mov    %esi,-0x8(%rbp)
    52fb:	88 45 fc             	mov    %al,-0x4(%rbp)
    52fe:	80 7d fc 00          	cmpb   $0x0,-0x4(%rbp)
    5302:	78 2b                	js     532f <safe_lshift_func_int8_t_s_u+0x41>
    5304:	83 7d f8 1f          	cmpl   $0x1f,-0x8(%rbp)
    5308:	77 25                	ja     532f <safe_lshift_func_int8_t_s_u+0x41>
    530a:	0f be 55 fc          	movsbl -0x4(%rbp),%edx
    530e:	8b 45 f8             	mov    -0x8(%rbp),%eax
    5311:	be 7f 00 00 00       	mov    $0x7f,%esi
    5316:	89 c1                	mov    %eax,%ecx
    5318:	d3 fe                	sar    %cl,%esi
    531a:	89 f0                	mov    %esi,%eax
    531c:	39 c2                	cmp    %eax,%edx
    531e:	7f 0f                	jg     532f <safe_lshift_func_int8_t_s_u+0x41>
    5320:	0f be 55 fc          	movsbl -0x4(%rbp),%edx
    5324:	8b 45 f8             	mov    -0x8(%rbp),%eax
    5327:	89 c1                	mov    %eax,%ecx
    5329:	d3 e2                	shl    %cl,%edx
    532b:	89 d0                	mov    %edx,%eax
    532d:	eb 04                	jmp    5333 <safe_lshift_func_int8_t_s_u+0x45>
    532f:	0f b6 45 fc          	movzbl -0x4(%rbp),%eax
    5333:	5d                   	pop    %rbp
    5334:	c3                   	retq   

0000000000005335 <safe_rshift_func_int8_t_s_s>:
    5335:	f3 0f 1e fa          	endbr64 
    5339:	55                   	push   %rbp
    533a:	48 89 e5             	mov    %rsp,%rbp
    533d:	89 f8                	mov    %edi,%eax
    533f:	89 75 f8             	mov    %esi,-0x8(%rbp)
    5342:	88 45 fc             	mov    %al,-0x4(%rbp)
    5345:	80 7d fc 00          	cmpb   $0x0,-0x4(%rbp)
    5349:	78 1b                	js     5366 <safe_rshift_func_int8_t_s_s+0x31>
    534b:	83 7d f8 00          	cmpl   $0x0,-0x8(%rbp)
    534f:	78 15                	js     5366 <safe_rshift_func_int8_t_s_s+0x31>
    5351:	83 7d f8 1f          	cmpl   $0x1f,-0x8(%rbp)
    5355:	7f 0f                	jg     5366 <safe_rshift_func_int8_t_s_s+0x31>
    5357:	0f be 55 fc          	movsbl -0x4(%rbp),%edx
    535b:	8b 45 f8             	mov    -0x8(%rbp),%eax
    535e:	89 c1                	mov    %eax,%ecx
    5360:	d3 fa                	sar    %cl,%edx
    5362:	89 d0                	mov    %edx,%eax
    5364:	eb 04                	jmp    536a <safe_rshift_func_int8_t_s_s+0x35>
    5366:	0f b6 45 fc          	movzbl -0x4(%rbp),%eax
    536a:	5d                   	pop    %rbp
    536b:	c3                   	retq   

000000000000536c <safe_rshift_func_int8_t_s_u>:
    536c:	f3 0f 1e fa          	endbr64 
    5370:	55                   	push   %rbp
    5371:	48 89 e5             	mov    %rsp,%rbp
    5374:	89 f8                	mov    %edi,%eax
    5376:	89 75 f8             	mov    %esi,-0x8(%rbp)
    5379:	88 45 fc             	mov    %al,-0x4(%rbp)
    537c:	80 7d fc 00          	cmpb   $0x0,-0x4(%rbp)
    5380:	78 15                	js     5397 <safe_rshift_func_int8_t_s_u+0x2b>
    5382:	83 7d f8 1f          	cmpl   $0x1f,-0x8(%rbp)
    5386:	77 0f                	ja     5397 <safe_rshift_func_int8_t_s_u+0x2b>
    5388:	0f be 55 fc          	movsbl -0x4(%rbp),%edx
    538c:	8b 45 f8             	mov    -0x8(%rbp),%eax
    538f:	89 c1                	mov    %eax,%ecx
    5391:	d3 fa                	sar    %cl,%edx
    5393:	89 d0                	mov    %edx,%eax
    5395:	eb 04                	jmp    539b <safe_rshift_func_int8_t_s_u+0x2f>
    5397:	0f b6 45 fc          	movzbl -0x4(%rbp),%eax
    539b:	5d                   	pop    %rbp
    539c:	c3                   	retq   

000000000000539d <safe_unary_minus_func_int16_t_s>:
    539d:	f3 0f 1e fa          	endbr64 
    53a1:	55                   	push   %rbp
    53a2:	48 89 e5             	mov    %rsp,%rbp
    53a5:	89 f8                	mov    %edi,%eax
    53a7:	66 89 45 fc          	mov    %ax,-0x4(%rbp)
    53ab:	0f b7 45 fc          	movzwl -0x4(%rbp),%eax
    53af:	f7 d8                	neg    %eax
    53b1:	5d                   	pop    %rbp
    53b2:	c3                   	retq   

00000000000053b3 <safe_add_func_int16_t_s_s>:
    53b3:	f3 0f 1e fa          	endbr64 
    53b7:	55                   	push   %rbp
    53b8:	48 89 e5             	mov    %rsp,%rbp
    53bb:	89 fa                	mov    %edi,%edx
    53bd:	89 f0                	mov    %esi,%eax
    53bf:	66 89 55 fc          	mov    %dx,-0x4(%rbp)
    53c3:	66 89 45 f8          	mov    %ax,-0x8(%rbp)
    53c7:	0f b7 55 fc          	movzwl -0x4(%rbp),%edx
    53cb:	0f b7 45 f8          	movzwl -0x8(%rbp),%eax
    53cf:	01 d0                	add    %edx,%eax
    53d1:	5d                   	pop    %rbp
    53d2:	c3                   	retq   

00000000000053d3 <safe_sub_func_int16_t_s_s>:
    53d3:	f3 0f 1e fa          	endbr64 
    53d7:	55                   	push   %rbp
    53d8:	48 89 e5             	mov    %rsp,%rbp
    53db:	89 fa                	mov    %edi,%edx
    53dd:	89 f0                	mov    %esi,%eax
    53df:	66 89 55 fc          	mov    %dx,-0x4(%rbp)
    53e3:	66 89 45 f8          	mov    %ax,-0x8(%rbp)
    53e7:	0f b7 55 fc          	movzwl -0x4(%rbp),%edx
    53eb:	0f b7 45 f8          	movzwl -0x8(%rbp),%eax
    53ef:	29 c2                	sub    %eax,%edx
    53f1:	89 d0                	mov    %edx,%eax
    53f3:	5d                   	pop    %rbp
    53f4:	c3                   	retq   

00000000000053f5 <safe_mul_func_int16_t_s_s>:
    53f5:	f3 0f 1e fa          	endbr64 
    53f9:	55                   	push   %rbp
    53fa:	48 89 e5             	mov    %rsp,%rbp
    53fd:	89 fa                	mov    %edi,%edx
    53ff:	89 f0                	mov    %esi,%eax
    5401:	66 89 55 fc          	mov    %dx,-0x4(%rbp)
    5405:	66 89 45 f8          	mov    %ax,-0x8(%rbp)
    5409:	0f b7 55 fc          	movzwl -0x4(%rbp),%edx
    540d:	0f b7 45 f8          	movzwl -0x8(%rbp),%eax
    5411:	0f af c2             	imul   %edx,%eax
    5414:	5d                   	pop    %rbp
    5415:	c3                   	retq   

0000000000005416 <safe_mod_func_int16_t_s_s>:
    5416:	f3 0f 1e fa          	endbr64 
    541a:	55                   	push   %rbp
    541b:	48 89 e5             	mov    %rsp,%rbp
    541e:	89 fa                	mov    %edi,%edx
    5420:	89 f0                	mov    %esi,%eax
    5422:	66 89 55 fc          	mov    %dx,-0x4(%rbp)
    5426:	66 89 45 f8          	mov    %ax,-0x8(%rbp)
    542a:	66 83 7d f8 00       	cmpw   $0x0,-0x8(%rbp)
    542f:	74 1e                	je     544f <safe_mod_func_int16_t_s_s+0x39>
    5431:	66 81 7d fc 00 80    	cmpw   $0x8000,-0x4(%rbp)
    5437:	75 07                	jne    5440 <safe_mod_func_int16_t_s_s+0x2a>
    5439:	66 83 7d f8 ff       	cmpw   $0xffff,-0x8(%rbp)
    543e:	74 0f                	je     544f <safe_mod_func_int16_t_s_s+0x39>
    5440:	0f bf 45 fc          	movswl -0x4(%rbp),%eax
    5444:	0f bf 4d f8          	movswl -0x8(%rbp),%ecx
    5448:	99                   	cltd   
    5449:	f7 f9                	idiv   %ecx
    544b:	89 d0                	mov    %edx,%eax
    544d:	eb 04                	jmp    5453 <safe_mod_func_int16_t_s_s+0x3d>
    544f:	0f b7 45 fc          	movzwl -0x4(%rbp),%eax
    5453:	5d                   	pop    %rbp
    5454:	c3                   	retq   

0000000000005455 <safe_div_func_int16_t_s_s>:
    5455:	f3 0f 1e fa          	endbr64 
    5459:	55                   	push   %rbp
    545a:	48 89 e5             	mov    %rsp,%rbp
    545d:	89 fa                	mov    %edi,%edx
    545f:	89 f0                	mov    %esi,%eax
    5461:	66 89 55 fc          	mov    %dx,-0x4(%rbp)
    5465:	66 89 45 f8          	mov    %ax,-0x8(%rbp)
    5469:	66 83 7d f8 00       	cmpw   $0x0,-0x8(%rbp)
    546e:	74 1c                	je     548c <safe_div_func_int16_t_s_s+0x37>
    5470:	66 81 7d fc 00 80    	cmpw   $0x8000,-0x4(%rbp)
    5476:	75 07                	jne    547f <safe_div_func_int16_t_s_s+0x2a>
    5478:	66 83 7d f8 ff       	cmpw   $0xffff,-0x8(%rbp)
    547d:	74 0d                	je     548c <safe_div_func_int16_t_s_s+0x37>
    547f:	0f bf 45 fc          	movswl -0x4(%rbp),%eax
    5483:	0f bf 4d f8          	movswl -0x8(%rbp),%ecx
    5487:	99                   	cltd   
    5488:	f7 f9                	idiv   %ecx
    548a:	eb 04                	jmp    5490 <safe_div_func_int16_t_s_s+0x3b>
    548c:	0f b7 45 fc          	movzwl -0x4(%rbp),%eax
    5490:	5d                   	pop    %rbp
    5491:	c3                   	retq   

0000000000005492 <safe_lshift_func_int16_t_s_s>:
    5492:	f3 0f 1e fa          	endbr64 
    5496:	55                   	push   %rbp
    5497:	48 89 e5             	mov    %rsp,%rbp
    549a:	89 f8                	mov    %edi,%eax
    549c:	89 75 f8             	mov    %esi,-0x8(%rbp)
    549f:	66 89 45 fc          	mov    %ax,-0x4(%rbp)
    54a3:	66 83 7d fc 00       	cmpw   $0x0,-0x4(%rbp)
    54a8:	78 31                	js     54db <safe_lshift_func_int16_t_s_s+0x49>
    54aa:	83 7d f8 00          	cmpl   $0x0,-0x8(%rbp)
    54ae:	78 2b                	js     54db <safe_lshift_func_int16_t_s_s+0x49>
    54b0:	83 7d f8 1f          	cmpl   $0x1f,-0x8(%rbp)
    54b4:	7f 25                	jg     54db <safe_lshift_func_int16_t_s_s+0x49>
    54b6:	0f bf 55 fc          	movswl -0x4(%rbp),%edx
    54ba:	8b 45 f8             	mov    -0x8(%rbp),%eax
    54bd:	be ff 7f 00 00       	mov    $0x7fff,%esi
    54c2:	89 c1                	mov    %eax,%ecx
    54c4:	d3 fe                	sar    %cl,%esi
    54c6:	89 f0                	mov    %esi,%eax
    54c8:	39 c2                	cmp    %eax,%edx
    54ca:	7f 0f                	jg     54db <safe_lshift_func_int16_t_s_s+0x49>
    54cc:	0f bf 55 fc          	movswl -0x4(%rbp),%edx
    54d0:	8b 45 f8             	mov    -0x8(%rbp),%eax
    54d3:	89 c1                	mov    %eax,%ecx
    54d5:	d3 e2                	shl    %cl,%edx
    54d7:	89 d0                	mov    %edx,%eax
    54d9:	eb 04                	jmp    54df <safe_lshift_func_int16_t_s_s+0x4d>
    54db:	0f b7 45 fc          	movzwl -0x4(%rbp),%eax
    54df:	5d                   	pop    %rbp
    54e0:	c3                   	retq   

00000000000054e1 <safe_lshift_func_int16_t_s_u>:
    54e1:	f3 0f 1e fa          	endbr64 
    54e5:	55                   	push   %rbp
    54e6:	48 89 e5             	mov    %rsp,%rbp
    54e9:	89 f8                	mov    %edi,%eax
    54eb:	89 75 f8             	mov    %esi,-0x8(%rbp)
    54ee:	66 89 45 fc          	mov    %ax,-0x4(%rbp)
    54f2:	66 83 7d fc 00       	cmpw   $0x0,-0x4(%rbp)
    54f7:	78 2b                	js     5524 <safe_lshift_func_int16_t_s_u+0x43>
    54f9:	83 7d f8 1f          	cmpl   $0x1f,-0x8(%rbp)
    54fd:	77 25                	ja     5524 <safe_lshift_func_int16_t_s_u+0x43>
    54ff:	0f bf 55 fc          	movswl -0x4(%rbp),%edx
    5503:	8b 45 f8             	mov    -0x8(%rbp),%eax
    5506:	be ff 7f 00 00       	mov    $0x7fff,%esi
    550b:	89 c1                	mov    %eax,%ecx
    550d:	d3 fe                	sar    %cl,%esi
    550f:	89 f0                	mov    %esi,%eax
    5511:	39 c2                	cmp    %eax,%edx
    5513:	7f 0f                	jg     5524 <safe_lshift_func_int16_t_s_u+0x43>
    5515:	0f bf 55 fc          	movswl -0x4(%rbp),%edx
    5519:	8b 45 f8             	mov    -0x8(%rbp),%eax
    551c:	89 c1                	mov    %eax,%ecx
    551e:	d3 e2                	shl    %cl,%edx
    5520:	89 d0                	mov    %edx,%eax
    5522:	eb 04                	jmp    5528 <safe_lshift_func_int16_t_s_u+0x47>
    5524:	0f b7 45 fc          	movzwl -0x4(%rbp),%eax
    5528:	5d                   	pop    %rbp
    5529:	c3                   	retq   

000000000000552a <safe_rshift_func_int16_t_s_s>:
    552a:	f3 0f 1e fa          	endbr64 
    552e:	55                   	push   %rbp
    552f:	48 89 e5             	mov    %rsp,%rbp
    5532:	89 f8                	mov    %edi,%eax
    5534:	89 75 f8             	mov    %esi,-0x8(%rbp)
    5537:	66 89 45 fc          	mov    %ax,-0x4(%rbp)
    553b:	66 83 7d fc 00       	cmpw   $0x0,-0x4(%rbp)
    5540:	78 1b                	js     555d <safe_rshift_func_int16_t_s_s+0x33>
    5542:	83 7d f8 00          	cmpl   $0x0,-0x8(%rbp)
    5546:	78 15                	js     555d <safe_rshift_func_int16_t_s_s+0x33>
    5548:	83 7d f8 1f          	cmpl   $0x1f,-0x8(%rbp)
    554c:	7f 0f                	jg     555d <safe_rshift_func_int16_t_s_s+0x33>
    554e:	0f bf 55 fc          	movswl -0x4(%rbp),%edx
    5552:	8b 45 f8             	mov    -0x8(%rbp),%eax
    5555:	89 c1                	mov    %eax,%ecx
    5557:	d3 fa                	sar    %cl,%edx
    5559:	89 d0                	mov    %edx,%eax
    555b:	eb 04                	jmp    5561 <safe_rshift_func_int16_t_s_s+0x37>
    555d:	0f b7 45 fc          	movzwl -0x4(%rbp),%eax
    5561:	5d                   	pop    %rbp
    5562:	c3                   	retq   

0000000000005563 <safe_rshift_func_int16_t_s_u>:
    5563:	f3 0f 1e fa          	endbr64 
    5567:	55                   	push   %rbp
    5568:	48 89 e5             	mov    %rsp,%rbp
    556b:	89 f8                	mov    %edi,%eax
    556d:	89 75 f8             	mov    %esi,-0x8(%rbp)
    5570:	66 89 45 fc          	mov    %ax,-0x4(%rbp)
    5574:	66 83 7d fc 00       	cmpw   $0x0,-0x4(%rbp)
    5579:	78 15                	js     5590 <safe_rshift_func_int16_t_s_u+0x2d>
    557b:	83 7d f8 1f          	cmpl   $0x1f,-0x8(%rbp)
    557f:	77 0f                	ja     5590 <safe_rshift_func_int16_t_s_u+0x2d>
    5581:	0f bf 55 fc          	movswl -0x4(%rbp),%edx
    5585:	8b 45 f8             	mov    -0x8(%rbp),%eax
    5588:	89 c1                	mov    %eax,%ecx
    558a:	d3 fa                	sar    %cl,%edx
    558c:	89 d0                	mov    %edx,%eax
    558e:	eb 04                	jmp    5594 <safe_rshift_func_int16_t_s_u+0x31>
    5590:	0f b7 45 fc          	movzwl -0x4(%rbp),%eax
    5594:	5d                   	pop    %rbp
    5595:	c3                   	retq   

0000000000005596 <safe_unary_minus_func_int32_t_s>:
    5596:	f3 0f 1e fa          	endbr64 
    559a:	55                   	push   %rbp
    559b:	48 89 e5             	mov    %rsp,%rbp
    559e:	89 7d fc             	mov    %edi,-0x4(%rbp)
    55a1:	81 7d fc 00 00 00 80 	cmpl   $0x80000000,-0x4(%rbp)
    55a8:	74 07                	je     55b1 <safe_unary_minus_func_int32_t_s+0x1b>
    55aa:	8b 45 fc             	mov    -0x4(%rbp),%eax
    55ad:	f7 d8                	neg    %eax
    55af:	eb 03                	jmp    55b4 <safe_unary_minus_func_int32_t_s+0x1e>
    55b1:	8b 45 fc             	mov    -0x4(%rbp),%eax
    55b4:	5d                   	pop    %rbp
    55b5:	c3                   	retq   

00000000000055b6 <safe_add_func_int32_t_s_s>:
    55b6:	f3 0f 1e fa          	endbr64 
    55ba:	55                   	push   %rbp
    55bb:	48 89 e5             	mov    %rsp,%rbp
    55be:	89 7d fc             	mov    %edi,-0x4(%rbp)
    55c1:	89 75 f8             	mov    %esi,-0x8(%rbp)
    55c4:	83 7d fc 00          	cmpl   $0x0,-0x4(%rbp)
    55c8:	7e 13                	jle    55dd <safe_add_func_int32_t_s_s+0x27>
    55ca:	83 7d f8 00          	cmpl   $0x0,-0x8(%rbp)
    55ce:	7e 0d                	jle    55dd <safe_add_func_int32_t_s_s+0x27>
    55d0:	b8 ff ff ff 7f       	mov    $0x7fffffff,%eax
    55d5:	2b 45 f8             	sub    -0x8(%rbp),%eax
    55d8:	39 45 fc             	cmp    %eax,-0x4(%rbp)
    55db:	7f 23                	jg     5600 <safe_add_func_int32_t_s_s+0x4a>
    55dd:	83 7d fc 00          	cmpl   $0x0,-0x4(%rbp)
    55e1:	79 13                	jns    55f6 <safe_add_func_int32_t_s_s+0x40>
    55e3:	83 7d f8 00          	cmpl   $0x0,-0x8(%rbp)
    55e7:	79 0d                	jns    55f6 <safe_add_func_int32_t_s_s+0x40>
    55e9:	b8 00 00 00 80       	mov    $0x80000000,%eax
    55ee:	2b 45 f8             	sub    -0x8(%rbp),%eax
    55f1:	39 45 fc             	cmp    %eax,-0x4(%rbp)
    55f4:	7c 0a                	jl     5600 <safe_add_func_int32_t_s_s+0x4a>
    55f6:	8b 55 fc             	mov    -0x4(%rbp),%edx
    55f9:	8b 45 f8             	mov    -0x8(%rbp),%eax
    55fc:	01 d0                	add    %edx,%eax
    55fe:	eb 03                	jmp    5603 <safe_add_func_int32_t_s_s+0x4d>
    5600:	8b 45 fc             	mov    -0x4(%rbp),%eax
    5603:	5d                   	pop    %rbp
    5604:	c3                   	retq   

0000000000005605 <safe_sub_func_int32_t_s_s>:
    5605:	f3 0f 1e fa          	endbr64 
    5609:	55                   	push   %rbp
    560a:	48 89 e5             	mov    %rsp,%rbp
    560d:	89 7d fc             	mov    %edi,-0x4(%rbp)
    5610:	89 75 f8             	mov    %esi,-0x8(%rbp)
    5613:	8b 45 fc             	mov    -0x4(%rbp),%eax
    5616:	33 45 f8             	xor    -0x8(%rbp),%eax
    5619:	89 c2                	mov    %eax,%edx
    561b:	8b 45 fc             	mov    -0x4(%rbp),%eax
    561e:	33 45 f8             	xor    -0x8(%rbp),%eax
    5621:	25 00 00 00 80       	and    $0x80000000,%eax
    5626:	33 45 fc             	xor    -0x4(%rbp),%eax
    5629:	2b 45 f8             	sub    -0x8(%rbp),%eax
    562c:	33 45 f8             	xor    -0x8(%rbp),%eax
    562f:	21 d0                	and    %edx,%eax
    5631:	85 c0                	test   %eax,%eax
    5633:	78 08                	js     563d <safe_sub_func_int32_t_s_s+0x38>
    5635:	8b 45 fc             	mov    -0x4(%rbp),%eax
    5638:	2b 45 f8             	sub    -0x8(%rbp),%eax
    563b:	eb 03                	jmp    5640 <safe_sub_func_int32_t_s_s+0x3b>
    563d:	8b 45 fc             	mov    -0x4(%rbp),%eax
    5640:	5d                   	pop    %rbp
    5641:	c3                   	retq   

0000000000005642 <safe_mul_func_int32_t_s_s>:
    5642:	f3 0f 1e fa          	endbr64 
    5646:	55                   	push   %rbp
    5647:	48 89 e5             	mov    %rsp,%rbp
    564a:	89 7d fc             	mov    %edi,-0x4(%rbp)
    564d:	89 75 f8             	mov    %esi,-0x8(%rbp)
    5650:	83 7d fc 00          	cmpl   $0x0,-0x4(%rbp)
    5654:	7e 14                	jle    566a <safe_mul_func_int32_t_s_s+0x28>
    5656:	83 7d f8 00          	cmpl   $0x0,-0x8(%rbp)
    565a:	7e 0e                	jle    566a <safe_mul_func_int32_t_s_s+0x28>
    565c:	b8 ff ff ff 7f       	mov    $0x7fffffff,%eax
    5661:	99                   	cltd   
    5662:	f7 7d f8             	idivl  -0x8(%rbp)
    5665:	39 45 fc             	cmp    %eax,-0x4(%rbp)
    5668:	7f 5d                	jg     56c7 <safe_mul_func_int32_t_s_s+0x85>
    566a:	83 7d fc 00          	cmpl   $0x0,-0x4(%rbp)
    566e:	7e 14                	jle    5684 <safe_mul_func_int32_t_s_s+0x42>
    5670:	83 7d f8 00          	cmpl   $0x0,-0x8(%rbp)
    5674:	7f 0e                	jg     5684 <safe_mul_func_int32_t_s_s+0x42>
    5676:	b8 00 00 00 80       	mov    $0x80000000,%eax
    567b:	99                   	cltd   
    567c:	f7 7d fc             	idivl  -0x4(%rbp)
    567f:	39 45 f8             	cmp    %eax,-0x8(%rbp)
    5682:	7c 43                	jl     56c7 <safe_mul_func_int32_t_s_s+0x85>
    5684:	83 7d fc 00          	cmpl   $0x0,-0x4(%rbp)
    5688:	7f 14                	jg     569e <safe_mul_func_int32_t_s_s+0x5c>
    568a:	83 7d f8 00          	cmpl   $0x0,-0x8(%rbp)
    568e:	7e 0e                	jle    569e <safe_mul_func_int32_t_s_s+0x5c>
    5690:	b8 00 00 00 80       	mov    $0x80000000,%eax
    5695:	99                   	cltd   
    5696:	f7 7d f8             	idivl  -0x8(%rbp)
    5699:	39 45 fc             	cmp    %eax,-0x4(%rbp)
    569c:	7c 29                	jl     56c7 <safe_mul_func_int32_t_s_s+0x85>
    569e:	83 7d fc 00          	cmpl   $0x0,-0x4(%rbp)
    56a2:	7f 1a                	jg     56be <safe_mul_func_int32_t_s_s+0x7c>
    56a4:	83 7d f8 00          	cmpl   $0x0,-0x8(%rbp)
    56a8:	7f 14                	jg     56be <safe_mul_func_int32_t_s_s+0x7c>
    56aa:	83 7d fc 00          	cmpl   $0x0,-0x4(%rbp)
    56ae:	74 0e                	je     56be <safe_mul_func_int32_t_s_s+0x7c>
    56b0:	b8 ff ff ff 7f       	mov    $0x7fffffff,%eax
    56b5:	99                   	cltd   
    56b6:	f7 7d fc             	idivl  -0x4(%rbp)
    56b9:	39 45 f8             	cmp    %eax,-0x8(%rbp)
    56bc:	7c 09                	jl     56c7 <safe_mul_func_int32_t_s_s+0x85>
    56be:	8b 45 fc             	mov    -0x4(%rbp),%eax
    56c1:	0f af 45 f8          	imul   -0x8(%rbp),%eax
    56c5:	eb 03                	jmp    56ca <safe_mul_func_int32_t_s_s+0x88>
    56c7:	8b 45 fc             	mov    -0x4(%rbp),%eax
    56ca:	5d                   	pop    %rbp
    56cb:	c3                   	retq   

00000000000056cc <safe_mod_func_int32_t_s_s>:
    56cc:	f3 0f 1e fa          	endbr64 
    56d0:	55                   	push   %rbp
    56d1:	48 89 e5             	mov    %rsp,%rbp
    56d4:	89 7d fc             	mov    %edi,-0x4(%rbp)
    56d7:	89 75 f8             	mov    %esi,-0x8(%rbp)
    56da:	83 7d f8 00          	cmpl   $0x0,-0x8(%rbp)
    56de:	74 1a                	je     56fa <safe_mod_func_int32_t_s_s+0x2e>
    56e0:	81 7d fc 00 00 00 80 	cmpl   $0x80000000,-0x4(%rbp)
    56e7:	75 06                	jne    56ef <safe_mod_func_int32_t_s_s+0x23>
    56e9:	83 7d f8 ff          	cmpl   $0xffffffff,-0x8(%rbp)
    56ed:	74 0b                	je     56fa <safe_mod_func_int32_t_s_s+0x2e>
    56ef:	8b 45 fc             	mov    -0x4(%rbp),%eax
    56f2:	99                   	cltd   
    56f3:	f7 7d f8             	idivl  -0x8(%rbp)
    56f6:	89 d0                	mov    %edx,%eax
    56f8:	eb 03                	jmp    56fd <safe_mod_func_int32_t_s_s+0x31>
    56fa:	8b 45 fc             	mov    -0x4(%rbp),%eax
    56fd:	5d                   	pop    %rbp
    56fe:	c3                   	retq   

00000000000056ff <safe_div_func_int32_t_s_s>:
    56ff:	f3 0f 1e fa          	endbr64 
    5703:	55                   	push   %rbp
    5704:	48 89 e5             	mov    %rsp,%rbp
    5707:	89 7d fc             	mov    %edi,-0x4(%rbp)
    570a:	89 75 f8             	mov    %esi,-0x8(%rbp)
    570d:	83 7d f8 00          	cmpl   $0x0,-0x8(%rbp)
    5711:	74 18                	je     572b <safe_div_func_int32_t_s_s+0x2c>
    5713:	81 7d fc 00 00 00 80 	cmpl   $0x80000000,-0x4(%rbp)
    571a:	75 06                	jne    5722 <safe_div_func_int32_t_s_s+0x23>
    571c:	83 7d f8 ff          	cmpl   $0xffffffff,-0x8(%rbp)
    5720:	74 09                	je     572b <safe_div_func_int32_t_s_s+0x2c>
    5722:	8b 45 fc             	mov    -0x4(%rbp),%eax
    5725:	99                   	cltd   
    5726:	f7 7d f8             	idivl  -0x8(%rbp)
    5729:	eb 03                	jmp    572e <safe_div_func_int32_t_s_s+0x2f>
    572b:	8b 45 fc             	mov    -0x4(%rbp),%eax
    572e:	5d                   	pop    %rbp
    572f:	c3                   	retq   

0000000000005730 <safe_lshift_func_int32_t_s_s>:
    5730:	f3 0f 1e fa          	endbr64 
    5734:	55                   	push   %rbp
    5735:	48 89 e5             	mov    %rsp,%rbp
    5738:	89 7d fc             	mov    %edi,-0x4(%rbp)
    573b:	89 75 f8             	mov    %esi,-0x8(%rbp)
    573e:	83 7d fc 00          	cmpl   $0x0,-0x4(%rbp)
    5742:	78 2d                	js     5771 <safe_lshift_func_int32_t_s_s+0x41>
    5744:	83 7d f8 00          	cmpl   $0x0,-0x8(%rbp)
    5748:	78 27                	js     5771 <safe_lshift_func_int32_t_s_s+0x41>
    574a:	83 7d f8 1f          	cmpl   $0x1f,-0x8(%rbp)
    574e:	7f 21                	jg     5771 <safe_lshift_func_int32_t_s_s+0x41>
    5750:	8b 45 f8             	mov    -0x8(%rbp),%eax
    5753:	ba ff ff ff 7f       	mov    $0x7fffffff,%edx
    5758:	89 c1                	mov    %eax,%ecx
    575a:	d3 fa                	sar    %cl,%edx
    575c:	89 d0                	mov    %edx,%eax
    575e:	39 45 fc             	cmp    %eax,-0x4(%rbp)
    5761:	7f 0e                	jg     5771 <safe_lshift_func_int32_t_s_s+0x41>
    5763:	8b 45 f8             	mov    -0x8(%rbp),%eax
    5766:	8b 55 fc             	mov    -0x4(%rbp),%edx
    5769:	89 c1                	mov    %eax,%ecx
    576b:	d3 e2                	shl    %cl,%edx
    576d:	89 d0                	mov    %edx,%eax
    576f:	eb 03                	jmp    5774 <safe_lshift_func_int32_t_s_s+0x44>
    5771:	8b 45 fc             	mov    -0x4(%rbp),%eax
    5774:	5d                   	pop    %rbp
    5775:	c3                   	retq   

0000000000005776 <safe_lshift_func_int32_t_s_u>:
    5776:	f3 0f 1e fa          	endbr64 
    577a:	55                   	push   %rbp
    577b:	48 89 e5             	mov    %rsp,%rbp
    577e:	89 7d fc             	mov    %edi,-0x4(%rbp)
    5781:	89 75 f8             	mov    %esi,-0x8(%rbp)
    5784:	83 7d fc 00          	cmpl   $0x0,-0x4(%rbp)
    5788:	78 27                	js     57b1 <safe_lshift_func_int32_t_s_u+0x3b>
    578a:	83 7d f8 1f          	cmpl   $0x1f,-0x8(%rbp)
    578e:	77 21                	ja     57b1 <safe_lshift_func_int32_t_s_u+0x3b>
    5790:	8b 45 f8             	mov    -0x8(%rbp),%eax
    5793:	ba ff ff ff 7f       	mov    $0x7fffffff,%edx
    5798:	89 c1                	mov    %eax,%ecx
    579a:	d3 fa                	sar    %cl,%edx
    579c:	89 d0                	mov    %edx,%eax
    579e:	39 45 fc             	cmp    %eax,-0x4(%rbp)
    57a1:	7f 0e                	jg     57b1 <safe_lshift_func_int32_t_s_u+0x3b>
    57a3:	8b 45 f8             	mov    -0x8(%rbp),%eax
    57a6:	8b 55 fc             	mov    -0x4(%rbp),%edx
    57a9:	89 c1                	mov    %eax,%ecx
    57ab:	d3 e2                	shl    %cl,%edx
    57ad:	89 d0                	mov    %edx,%eax
    57af:	eb 03                	jmp    57b4 <safe_lshift_func_int32_t_s_u+0x3e>
    57b1:	8b 45 fc             	mov    -0x4(%rbp),%eax
    57b4:	5d                   	pop    %rbp
    57b5:	c3                   	retq   

00000000000057b6 <safe_rshift_func_int32_t_s_s>:
    57b6:	f3 0f 1e fa          	endbr64 
    57ba:	55                   	push   %rbp
    57bb:	48 89 e5             	mov    %rsp,%rbp
    57be:	89 7d fc             	mov    %edi,-0x4(%rbp)
    57c1:	89 75 f8             	mov    %esi,-0x8(%rbp)
    57c4:	83 7d fc 00          	cmpl   $0x0,-0x4(%rbp)
    57c8:	78 1a                	js     57e4 <safe_rshift_func_int32_t_s_s+0x2e>
    57ca:	83 7d f8 00          	cmpl   $0x0,-0x8(%rbp)
    57ce:	78 14                	js     57e4 <safe_rshift_func_int32_t_s_s+0x2e>
    57d0:	83 7d f8 1f          	cmpl   $0x1f,-0x8(%rbp)
    57d4:	7f 0e                	jg     57e4 <safe_rshift_func_int32_t_s_s+0x2e>
    57d6:	8b 45 f8             	mov    -0x8(%rbp),%eax
    57d9:	8b 55 fc             	mov    -0x4(%rbp),%edx
    57dc:	89 c1                	mov    %eax,%ecx
    57de:	d3 fa                	sar    %cl,%edx
    57e0:	89 d0                	mov    %edx,%eax
    57e2:	eb 03                	jmp    57e7 <safe_rshift_func_int32_t_s_s+0x31>
    57e4:	8b 45 fc             	mov    -0x4(%rbp),%eax
    57e7:	5d                   	pop    %rbp
    57e8:	c3                   	retq   

00000000000057e9 <safe_rshift_func_int32_t_s_u>:
    57e9:	f3 0f 1e fa          	endbr64 
    57ed:	55                   	push   %rbp
    57ee:	48 89 e5             	mov    %rsp,%rbp
    57f1:	89 7d fc             	mov    %edi,-0x4(%rbp)
    57f4:	89 75 f8             	mov    %esi,-0x8(%rbp)
    57f7:	83 7d fc 00          	cmpl   $0x0,-0x4(%rbp)
    57fb:	78 14                	js     5811 <safe_rshift_func_int32_t_s_u+0x28>
    57fd:	83 7d f8 1f          	cmpl   $0x1f,-0x8(%rbp)
    5801:	77 0e                	ja     5811 <safe_rshift_func_int32_t_s_u+0x28>
    5803:	8b 45 f8             	mov    -0x8(%rbp),%eax
    5806:	8b 55 fc             	mov    -0x4(%rbp),%edx
    5809:	89 c1                	mov    %eax,%ecx
    580b:	d3 fa                	sar    %cl,%edx
    580d:	89 d0                	mov    %edx,%eax
    580f:	eb 03                	jmp    5814 <safe_rshift_func_int32_t_s_u+0x2b>
    5811:	8b 45 fc             	mov    -0x4(%rbp),%eax
    5814:	5d                   	pop    %rbp
    5815:	c3                   	retq   

0000000000005816 <safe_unary_minus_func_int64_t_s>:
    5816:	f3 0f 1e fa          	endbr64 
    581a:	55                   	push   %rbp
    581b:	48 89 e5             	mov    %rsp,%rbp
    581e:	48 89 7d f8          	mov    %rdi,-0x8(%rbp)
    5822:	48 b8 00 00 00 00 00 	movabs $0x8000000000000000,%rax
    5829:	00 00 80 
    582c:	48 39 45 f8          	cmp    %rax,-0x8(%rbp)
    5830:	74 09                	je     583b <safe_unary_minus_func_int64_t_s+0x25>
    5832:	48 8b 45 f8          	mov    -0x8(%rbp),%rax
    5836:	48 f7 d8             	neg    %rax
    5839:	eb 04                	jmp    583f <safe_unary_minus_func_int64_t_s+0x29>
    583b:	48 8b 45 f8          	mov    -0x8(%rbp),%rax
    583f:	5d                   	pop    %rbp
    5840:	c3                   	retq   

0000000000005841 <safe_add_func_int64_t_s_s>:
    5841:	f3 0f 1e fa          	endbr64 
    5845:	55                   	push   %rbp
    5846:	48 89 e5             	mov    %rsp,%rbp
    5849:	48 89 7d f8          	mov    %rdi,-0x8(%rbp)
    584d:	48 89 75 f0          	mov    %rsi,-0x10(%rbp)
    5851:	48 83 7d f8 00       	cmpq   $0x0,-0x8(%rbp)
    5856:	7e 1b                	jle    5873 <safe_add_func_int64_t_s_s+0x32>
    5858:	48 83 7d f0 00       	cmpq   $0x0,-0x10(%rbp)
    585d:	7e 14                	jle    5873 <safe_add_func_int64_t_s_s+0x32>
    585f:	48 b8 ff ff ff ff ff 	movabs $0x7fffffffffffffff,%rax
    5866:	ff ff 7f 
    5869:	48 2b 45 f0          	sub    -0x10(%rbp),%rax
    586d:	48 39 45 f8          	cmp    %rax,-0x8(%rbp)
    5871:	7f 2f                	jg     58a2 <safe_add_func_int64_t_s_s+0x61>
    5873:	48 83 7d f8 00       	cmpq   $0x0,-0x8(%rbp)
    5878:	79 1b                	jns    5895 <safe_add_func_int64_t_s_s+0x54>
    587a:	48 83 7d f0 00       	cmpq   $0x0,-0x10(%rbp)
    587f:	79 14                	jns    5895 <safe_add_func_int64_t_s_s+0x54>
    5881:	48 b8 00 00 00 00 00 	movabs $0x8000000000000000,%rax
    5888:	00 00 80 
    588b:	48 2b 45 f0          	sub    -0x10(%rbp),%rax
    588f:	48 39 45 f8          	cmp    %rax,-0x8(%rbp)
    5893:	7c 0d                	jl     58a2 <safe_add_func_int64_t_s_s+0x61>
    5895:	48 8b 55 f8          	mov    -0x8(%rbp),%rdx
    5899:	48 8b 45 f0          	mov    -0x10(%rbp),%rax
    589d:	48 01 d0             	add    %rdx,%rax
    58a0:	eb 04                	jmp    58a6 <safe_add_func_int64_t_s_s+0x65>
    58a2:	48 8b 45 f8          	mov    -0x8(%rbp),%rax
    58a6:	5d                   	pop    %rbp
    58a7:	c3                   	retq   

00000000000058a8 <safe_sub_func_int64_t_s_s>:
    58a8:	f3 0f 1e fa          	endbr64 
    58ac:	55                   	push   %rbp
    58ad:	48 89 e5             	mov    %rsp,%rbp
    58b0:	48 89 7d f8          	mov    %rdi,-0x8(%rbp)
    58b4:	48 89 75 f0          	mov    %rsi,-0x10(%rbp)
    58b8:	48 8b 45 f8          	mov    -0x8(%rbp),%rax
    58bc:	48 33 45 f0          	xor    -0x10(%rbp),%rax
    58c0:	48 89 c2             	mov    %rax,%rdx
    58c3:	48 8b 45 f8          	mov    -0x8(%rbp),%rax
    58c7:	48 33 45 f0          	xor    -0x10(%rbp),%rax
    58cb:	48 b9 00 00 00 00 00 	movabs $0x8000000000000000,%rcx
    58d2:	00 00 80 
    58d5:	48 21 c8             	and    %rcx,%rax
    58d8:	48 33 45 f8          	xor    -0x8(%rbp),%rax
    58dc:	48 2b 45 f0          	sub    -0x10(%rbp),%rax
    58e0:	48 33 45 f0          	xor    -0x10(%rbp),%rax
    58e4:	48 21 d0             	and    %rdx,%rax
    58e7:	48 85 c0             	test   %rax,%rax
    58ea:	78 0a                	js     58f6 <safe_sub_func_int64_t_s_s+0x4e>
    58ec:	48 8b 45 f8          	mov    -0x8(%rbp),%rax
    58f0:	48 2b 45 f0          	sub    -0x10(%rbp),%rax
    58f4:	eb 04                	jmp    58fa <safe_sub_func_int64_t_s_s+0x52>
    58f6:	48 8b 45 f8          	mov    -0x8(%rbp),%rax
    58fa:	5d                   	pop    %rbp
    58fb:	c3                   	retq   

00000000000058fc <safe_mul_func_int64_t_s_s>:
    58fc:	f3 0f 1e fa          	endbr64 
    5900:	55                   	push   %rbp
    5901:	48 89 e5             	mov    %rsp,%rbp
    5904:	48 89 7d f8          	mov    %rdi,-0x8(%rbp)
    5908:	48 89 75 f0          	mov    %rsi,-0x10(%rbp)
    590c:	48 83 7d f8 00       	cmpq   $0x0,-0x8(%rbp)
    5911:	7e 1d                	jle    5930 <safe_mul_func_int64_t_s_s+0x34>
    5913:	48 83 7d f0 00       	cmpq   $0x0,-0x10(%rbp)
    5918:	7e 16                	jle    5930 <safe_mul_func_int64_t_s_s+0x34>
    591a:	48 b8 ff ff ff ff ff 	movabs $0x7fffffffffffffff,%rax
    5921:	ff ff 7f 
    5924:	48 99                	cqto   
    5926:	48 f7 7d f0          	idivq  -0x10(%rbp)
    592a:	48 39 45 f8          	cmp    %rax,-0x8(%rbp)
    592e:	7f 7e                	jg     59ae <safe_mul_func_int64_t_s_s+0xb2>
    5930:	48 83 7d f8 00       	cmpq   $0x0,-0x8(%rbp)
    5935:	7e 1d                	jle    5954 <safe_mul_func_int64_t_s_s+0x58>
    5937:	48 83 7d f0 00       	cmpq   $0x0,-0x10(%rbp)
    593c:	7f 16                	jg     5954 <safe_mul_func_int64_t_s_s+0x58>
    593e:	48 b8 00 00 00 00 00 	movabs $0x8000000000000000,%rax
    5945:	00 00 80 
    5948:	48 99                	cqto   
    594a:	48 f7 7d f8          	idivq  -0x8(%rbp)
    594e:	48 39 45 f0          	cmp    %rax,-0x10(%rbp)
    5952:	7c 5a                	jl     59ae <safe_mul_func_int64_t_s_s+0xb2>
    5954:	48 83 7d f8 00       	cmpq   $0x0,-0x8(%rbp)
    5959:	7f 1d                	jg     5978 <safe_mul_func_int64_t_s_s+0x7c>
    595b:	48 83 7d f0 00       	cmpq   $0x0,-0x10(%rbp)
    5960:	7e 16                	jle    5978 <safe_mul_func_int64_t_s_s+0x7c>
    5962:	48 b8 00 00 00 00 00 	movabs $0x8000000000000000,%rax
    5969:	00 00 80 
    596c:	48 99                	cqto   
    596e:	48 f7 7d f0          	idivq  -0x10(%rbp)
    5972:	48 39 45 f8          	cmp    %rax,-0x8(%rbp)
    5976:	7c 36                	jl     59ae <safe_mul_func_int64_t_s_s+0xb2>
    5978:	48 83 7d f8 00       	cmpq   $0x0,-0x8(%rbp)
    597d:	7f 24                	jg     59a3 <safe_mul_func_int64_t_s_s+0xa7>
    597f:	48 83 7d f0 00       	cmpq   $0x0,-0x10(%rbp)
    5984:	7f 1d                	jg     59a3 <safe_mul_func_int64_t_s_s+0xa7>
    5986:	48 83 7d f8 00       	cmpq   $0x0,-0x8(%rbp)
    598b:	74 16                	je     59a3 <safe_mul_func_int64_t_s_s+0xa7>
    598d:	48 b8 ff ff ff ff ff 	movabs $0x7fffffffffffffff,%rax
    5994:	ff ff 7f 
    5997:	48 99                	cqto   
    5999:	48 f7 7d f8          	idivq  -0x8(%rbp)
    599d:	48 39 45 f0          	cmp    %rax,-0x10(%rbp)
    59a1:	7c 0b                	jl     59ae <safe_mul_func_int64_t_s_s+0xb2>
    59a3:	48 8b 45 f8          	mov    -0x8(%rbp),%rax
    59a7:	48 0f af 45 f0       	imul   -0x10(%rbp),%rax
    59ac:	eb 04                	jmp    59b2 <safe_mul_func_int64_t_s_s+0xb6>
    59ae:	48 8b 45 f8          	mov    -0x8(%rbp),%rax
    59b2:	5d                   	pop    %rbp
    59b3:	c3                   	retq   

00000000000059b4 <safe_mod_func_int64_t_s_s>:
    59b4:	f3 0f 1e fa          	endbr64 
    59b8:	55                   	push   %rbp
    59b9:	48 89 e5             	mov    %rsp,%rbp
    59bc:	48 89 7d f8          	mov    %rdi,-0x8(%rbp)
    59c0:	48 89 75 f0          	mov    %rsi,-0x10(%rbp)
    59c4:	48 83 7d f0 00       	cmpq   $0x0,-0x10(%rbp)
    59c9:	74 26                	je     59f1 <safe_mod_func_int64_t_s_s+0x3d>
    59cb:	48 b8 00 00 00 00 00 	movabs $0x8000000000000000,%rax
    59d2:	00 00 80 
    59d5:	48 39 45 f8          	cmp    %rax,-0x8(%rbp)
    59d9:	75 07                	jne    59e2 <safe_mod_func_int64_t_s_s+0x2e>
    59db:	48 83 7d f0 ff       	cmpq   $0xffffffffffffffff,-0x10(%rbp)
    59e0:	74 0f                	je     59f1 <safe_mod_func_int64_t_s_s+0x3d>
    59e2:	48 8b 45 f8          	mov    -0x8(%rbp),%rax
    59e6:	48 99                	cqto   
    59e8:	48 f7 7d f0          	idivq  -0x10(%rbp)
    59ec:	48 89 d0             	mov    %rdx,%rax
    59ef:	eb 04                	jmp    59f5 <safe_mod_func_int64_t_s_s+0x41>
    59f1:	48 8b 45 f8          	mov    -0x8(%rbp),%rax
    59f5:	5d                   	pop    %rbp
    59f6:	c3                   	retq   

00000000000059f7 <safe_div_func_int64_t_s_s>:
    59f7:	f3 0f 1e fa          	endbr64 
    59fb:	55                   	push   %rbp
    59fc:	48 89 e5             	mov    %rsp,%rbp
    59ff:	48 89 7d f8          	mov    %rdi,-0x8(%rbp)
    5a03:	48 89 75 f0          	mov    %rsi,-0x10(%rbp)
    5a07:	48 83 7d f0 00       	cmpq   $0x0,-0x10(%rbp)
    5a0c:	74 23                	je     5a31 <safe_div_func_int64_t_s_s+0x3a>
    5a0e:	48 b8 00 00 00 00 00 	movabs $0x8000000000000000,%rax
    5a15:	00 00 80 
    5a18:	48 39 45 f8          	cmp    %rax,-0x8(%rbp)
    5a1c:	75 07                	jne    5a25 <safe_div_func_int64_t_s_s+0x2e>
    5a1e:	48 83 7d f0 ff       	cmpq   $0xffffffffffffffff,-0x10(%rbp)
    5a23:	74 0c                	je     5a31 <safe_div_func_int64_t_s_s+0x3a>
    5a25:	48 8b 45 f8          	mov    -0x8(%rbp),%rax
    5a29:	48 99                	cqto   
    5a2b:	48 f7 7d f0          	idivq  -0x10(%rbp)
    5a2f:	eb 04                	jmp    5a35 <safe_div_func_int64_t_s_s+0x3e>
    5a31:	48 8b 45 f8          	mov    -0x8(%rbp),%rax
    5a35:	5d                   	pop    %rbp
    5a36:	c3                   	retq   

0000000000005a37 <safe_lshift_func_int64_t_s_s>:
    5a37:	f3 0f 1e fa          	endbr64 
    5a3b:	55                   	push   %rbp
    5a3c:	48 89 e5             	mov    %rsp,%rbp
    5a3f:	48 89 7d f8          	mov    %rdi,-0x8(%rbp)
    5a43:	89 75 f4             	mov    %esi,-0xc(%rbp)
    5a46:	48 83 7d f8 00       	cmpq   $0x0,-0x8(%rbp)
    5a4b:	78 38                	js     5a85 <safe_lshift_func_int64_t_s_s+0x4e>
    5a4d:	83 7d f4 00          	cmpl   $0x0,-0xc(%rbp)
    5a51:	78 32                	js     5a85 <safe_lshift_func_int64_t_s_s+0x4e>
    5a53:	83 7d f4 1f          	cmpl   $0x1f,-0xc(%rbp)
    5a57:	7f 2c                	jg     5a85 <safe_lshift_func_int64_t_s_s+0x4e>
    5a59:	8b 45 f4             	mov    -0xc(%rbp),%eax
    5a5c:	48 ba ff ff ff ff ff 	movabs $0x7fffffffffffffff,%rdx
    5a63:	ff ff 7f 
    5a66:	89 c1                	mov    %eax,%ecx
    5a68:	48 d3 fa             	sar    %cl,%rdx
    5a6b:	48 89 d0             	mov    %rdx,%rax
    5a6e:	48 39 45 f8          	cmp    %rax,-0x8(%rbp)
    5a72:	7f 11                	jg     5a85 <safe_lshift_func_int64_t_s_s+0x4e>
    5a74:	8b 45 f4             	mov    -0xc(%rbp),%eax
    5a77:	48 8b 55 f8          	mov    -0x8(%rbp),%rdx
    5a7b:	89 c1                	mov    %eax,%ecx
    5a7d:	48 d3 e2             	shl    %cl,%rdx
    5a80:	48 89 d0             	mov    %rdx,%rax
    5a83:	eb 04                	jmp    5a89 <safe_lshift_func_int64_t_s_s+0x52>
    5a85:	48 8b 45 f8          	mov    -0x8(%rbp),%rax
    5a89:	5d                   	pop    %rbp
    5a8a:	c3                   	retq   

0000000000005a8b <safe_lshift_func_int64_t_s_u>:
    5a8b:	f3 0f 1e fa          	endbr64 
    5a8f:	55                   	push   %rbp
    5a90:	48 89 e5             	mov    %rsp,%rbp
    5a93:	48 89 7d f8          	mov    %rdi,-0x8(%rbp)
    5a97:	89 75 f4             	mov    %esi,-0xc(%rbp)
    5a9a:	48 83 7d f8 00       	cmpq   $0x0,-0x8(%rbp)
    5a9f:	78 32                	js     5ad3 <safe_lshift_func_int64_t_s_u+0x48>
    5aa1:	83 7d f4 1f          	cmpl   $0x1f,-0xc(%rbp)
    5aa5:	77 2c                	ja     5ad3 <safe_lshift_func_int64_t_s_u+0x48>
    5aa7:	8b 45 f4             	mov    -0xc(%rbp),%eax
    5aaa:	48 ba ff ff ff ff ff 	movabs $0x7fffffffffffffff,%rdx
    5ab1:	ff ff 7f 
    5ab4:	89 c1                	mov    %eax,%ecx
    5ab6:	48 d3 fa             	sar    %cl,%rdx
    5ab9:	48 89 d0             	mov    %rdx,%rax
    5abc:	48 39 45 f8          	cmp    %rax,-0x8(%rbp)
    5ac0:	7f 11                	jg     5ad3 <safe_lshift_func_int64_t_s_u+0x48>
    5ac2:	8b 45 f4             	mov    -0xc(%rbp),%eax
    5ac5:	48 8b 55 f8          	mov    -0x8(%rbp),%rdx
    5ac9:	89 c1                	mov    %eax,%ecx
    5acb:	48 d3 e2             	shl    %cl,%rdx
    5ace:	48 89 d0             	mov    %rdx,%rax
    5ad1:	eb 04                	jmp    5ad7 <safe_lshift_func_int64_t_s_u+0x4c>
    5ad3:	48 8b 45 f8          	mov    -0x8(%rbp),%rax
    5ad7:	5d                   	pop    %rbp
    5ad8:	c3                   	retq   

0000000000005ad9 <safe_rshift_func_int64_t_s_s>:
    5ad9:	f3 0f 1e fa          	endbr64 
    5add:	55                   	push   %rbp
    5ade:	48 89 e5             	mov    %rsp,%rbp
    5ae1:	48 89 7d f8          	mov    %rdi,-0x8(%rbp)
    5ae5:	89 75 f4             	mov    %esi,-0xc(%rbp)
    5ae8:	48 83 7d f8 00       	cmpq   $0x0,-0x8(%rbp)
    5aed:	78 1d                	js     5b0c <safe_rshift_func_int64_t_s_s+0x33>
    5aef:	83 7d f4 00          	cmpl   $0x0,-0xc(%rbp)
    5af3:	78 17                	js     5b0c <safe_rshift_func_int64_t_s_s+0x33>
    5af5:	83 7d f4 1f          	cmpl   $0x1f,-0xc(%rbp)
    5af9:	7f 11                	jg     5b0c <safe_rshift_func_int64_t_s_s+0x33>
    5afb:	8b 45 f4             	mov    -0xc(%rbp),%eax
    5afe:	48 8b 55 f8          	mov    -0x8(%rbp),%rdx
    5b02:	89 c1                	mov    %eax,%ecx
    5b04:	48 d3 fa             	sar    %cl,%rdx
    5b07:	48 89 d0             	mov    %rdx,%rax
    5b0a:	eb 04                	jmp    5b10 <safe_rshift_func_int64_t_s_s+0x37>
    5b0c:	48 8b 45 f8          	mov    -0x8(%rbp),%rax
    5b10:	5d                   	pop    %rbp
    5b11:	c3                   	retq   

0000000000005b12 <safe_rshift_func_int64_t_s_u>:
    5b12:	f3 0f 1e fa          	endbr64 
    5b16:	55                   	push   %rbp
    5b17:	48 89 e5             	mov    %rsp,%rbp
    5b1a:	48 89 7d f8          	mov    %rdi,-0x8(%rbp)
    5b1e:	89 75 f4             	mov    %esi,-0xc(%rbp)
    5b21:	48 83 7d f8 00       	cmpq   $0x0,-0x8(%rbp)
    5b26:	78 17                	js     5b3f <safe_rshift_func_int64_t_s_u+0x2d>
    5b28:	83 7d f4 1f          	cmpl   $0x1f,-0xc(%rbp)
    5b2c:	77 11                	ja     5b3f <safe_rshift_func_int64_t_s_u+0x2d>
    5b2e:	8b 45 f4             	mov    -0xc(%rbp),%eax
    5b31:	48 8b 55 f8          	mov    -0x8(%rbp),%rdx
    5b35:	89 c1                	mov    %eax,%ecx
    5b37:	48 d3 fa             	sar    %cl,%rdx
    5b3a:	48 89 d0             	mov    %rdx,%rax
    5b3d:	eb 04                	jmp    5b43 <safe_rshift_func_int64_t_s_u+0x31>
    5b3f:	48 8b 45 f8          	mov    -0x8(%rbp),%rax
    5b43:	5d                   	pop    %rbp
    5b44:	c3                   	retq   

0000000000005b45 <safe_unary_minus_func_uint8_t_u>:
    5b45:	f3 0f 1e fa          	endbr64 
    5b49:	55                   	push   %rbp
    5b4a:	48 89 e5             	mov    %rsp,%rbp
    5b4d:	89 f8                	mov    %edi,%eax
    5b4f:	88 45 fc             	mov    %al,-0x4(%rbp)
    5b52:	0f b6 45 fc          	movzbl -0x4(%rbp),%eax
    5b56:	f7 d8                	neg    %eax
    5b58:	5d                   	pop    %rbp
    5b59:	c3                   	retq   

0000000000005b5a <safe_add_func_uint8_t_u_u>:
    5b5a:	f3 0f 1e fa          	endbr64 
    5b5e:	55                   	push   %rbp
    5b5f:	48 89 e5             	mov    %rsp,%rbp
    5b62:	89 fa                	mov    %edi,%edx
    5b64:	89 f0                	mov    %esi,%eax
    5b66:	88 55 fc             	mov    %dl,-0x4(%rbp)
    5b69:	88 45 f8             	mov    %al,-0x8(%rbp)
    5b6c:	0f b6 55 fc          	movzbl -0x4(%rbp),%edx
    5b70:	0f b6 45 f8          	movzbl -0x8(%rbp),%eax
    5b74:	01 d0                	add    %edx,%eax
    5b76:	5d                   	pop    %rbp
    5b77:	c3                   	retq   

0000000000005b78 <safe_sub_func_uint8_t_u_u>:
    5b78:	f3 0f 1e fa          	endbr64 
    5b7c:	55                   	push   %rbp
    5b7d:	48 89 e5             	mov    %rsp,%rbp
    5b80:	89 fa                	mov    %edi,%edx
    5b82:	89 f0                	mov    %esi,%eax
    5b84:	88 55 fc             	mov    %dl,-0x4(%rbp)
    5b87:	88 45 f8             	mov    %al,-0x8(%rbp)
    5b8a:	0f b6 45 fc          	movzbl -0x4(%rbp),%eax
    5b8e:	2a 45 f8             	sub    -0x8(%rbp),%al
    5b91:	5d                   	pop    %rbp
    5b92:	c3                   	retq   

0000000000005b93 <safe_mul_func_uint8_t_u_u>:
    5b93:	f3 0f 1e fa          	endbr64 
    5b97:	55                   	push   %rbp
    5b98:	48 89 e5             	mov    %rsp,%rbp
    5b9b:	89 fa                	mov    %edi,%edx
    5b9d:	89 f0                	mov    %esi,%eax
    5b9f:	88 55 fc             	mov    %dl,-0x4(%rbp)
    5ba2:	88 45 f8             	mov    %al,-0x8(%rbp)
    5ba5:	0f b6 45 fc          	movzbl -0x4(%rbp),%eax
    5ba9:	f6 65 f8             	mulb   -0x8(%rbp)
    5bac:	5d                   	pop    %rbp
    5bad:	c3                   	retq   

0000000000005bae <safe_mod_func_uint8_t_u_u>:
    5bae:	f3 0f 1e fa          	endbr64 
    5bb2:	55                   	push   %rbp
    5bb3:	48 89 e5             	mov    %rsp,%rbp
    5bb6:	89 fa                	mov    %edi,%edx
    5bb8:	89 f0                	mov    %esi,%eax
    5bba:	88 55 fc             	mov    %dl,-0x4(%rbp)
    5bbd:	88 45 f8             	mov    %al,-0x8(%rbp)
    5bc0:	80 7d f8 00          	cmpb   $0x0,-0x8(%rbp)
    5bc4:	74 0f                	je     5bd5 <safe_mod_func_uint8_t_u_u+0x27>
    5bc6:	0f b6 45 fc          	movzbl -0x4(%rbp),%eax
    5bca:	0f b6 c0             	movzbl %al,%eax
    5bcd:	f6 75 f8             	divb   -0x8(%rbp)
    5bd0:	0f b6 c4             	movzbl %ah,%eax
    5bd3:	eb 04                	jmp    5bd9 <safe_mod_func_uint8_t_u_u+0x2b>
    5bd5:	0f b6 45 fc          	movzbl -0x4(%rbp),%eax
    5bd9:	5d                   	pop    %rbp
    5bda:	c3                   	retq   

0000000000005bdb <safe_div_func_uint8_t_u_u>:
    5bdb:	f3 0f 1e fa          	endbr64 
    5bdf:	55                   	push   %rbp
    5be0:	48 89 e5             	mov    %rsp,%rbp
    5be3:	89 fa                	mov    %edi,%edx
    5be5:	89 f0                	mov    %esi,%eax
    5be7:	88 55 fc             	mov    %dl,-0x4(%rbp)
    5bea:	88 45 f8             	mov    %al,-0x8(%rbp)
    5bed:	80 7d f8 00          	cmpb   $0x0,-0x8(%rbp)
    5bf1:	74 0c                	je     5bff <safe_div_func_uint8_t_u_u+0x24>
    5bf3:	0f b6 45 fc          	movzbl -0x4(%rbp),%eax
    5bf7:	0f b6 c0             	movzbl %al,%eax
    5bfa:	f6 75 f8             	divb   -0x8(%rbp)
    5bfd:	eb 04                	jmp    5c03 <safe_div_func_uint8_t_u_u+0x28>
    5bff:	0f b6 45 fc          	movzbl -0x4(%rbp),%eax
    5c03:	5d                   	pop    %rbp
    5c04:	c3                   	retq   

0000000000005c05 <safe_lshift_func_uint8_t_u_s>:
    5c05:	f3 0f 1e fa          	endbr64 
    5c09:	55                   	push   %rbp
    5c0a:	48 89 e5             	mov    %rsp,%rbp
    5c0d:	89 f8                	mov    %edi,%eax
    5c0f:	89 75 f8             	mov    %esi,-0x8(%rbp)
    5c12:	88 45 fc             	mov    %al,-0x4(%rbp)
    5c15:	83 7d f8 00          	cmpl   $0x0,-0x8(%rbp)
    5c19:	78 2b                	js     5c46 <safe_lshift_func_uint8_t_u_s+0x41>
    5c1b:	83 7d f8 1f          	cmpl   $0x1f,-0x8(%rbp)
    5c1f:	7f 25                	jg     5c46 <safe_lshift_func_uint8_t_u_s+0x41>
    5c21:	0f b6 55 fc          	movzbl -0x4(%rbp),%edx
    5c25:	8b 45 f8             	mov    -0x8(%rbp),%eax
    5c28:	be ff 00 00 00       	mov    $0xff,%esi
    5c2d:	89 c1                	mov    %eax,%ecx
    5c2f:	d3 fe                	sar    %cl,%esi
    5c31:	89 f0                	mov    %esi,%eax
    5c33:	39 c2                	cmp    %eax,%edx
    5c35:	7f 0f                	jg     5c46 <safe_lshift_func_uint8_t_u_s+0x41>
    5c37:	0f b6 55 fc          	movzbl -0x4(%rbp),%edx
    5c3b:	8b 45 f8             	mov    -0x8(%rbp),%eax
    5c3e:	89 c1                	mov    %eax,%ecx
    5c40:	d3 e2                	shl    %cl,%edx
    5c42:	89 d0                	mov    %edx,%eax
    5c44:	eb 04                	jmp    5c4a <safe_lshift_func_uint8_t_u_s+0x45>
    5c46:	0f b6 45 fc          	movzbl -0x4(%rbp),%eax
    5c4a:	5d                   	pop    %rbp
    5c4b:	c3                   	retq   

0000000000005c4c <safe_lshift_func_uint8_t_u_u>:
    5c4c:	f3 0f 1e fa          	endbr64 
    5c50:	55                   	push   %rbp
    5c51:	48 89 e5             	mov    %rsp,%rbp
    5c54:	89 f8                	mov    %edi,%eax
    5c56:	89 75 f8             	mov    %esi,-0x8(%rbp)
    5c59:	88 45 fc             	mov    %al,-0x4(%rbp)
    5c5c:	83 7d f8 1f          	cmpl   $0x1f,-0x8(%rbp)
    5c60:	77 25                	ja     5c87 <safe_lshift_func_uint8_t_u_u+0x3b>
    5c62:	0f b6 55 fc          	movzbl -0x4(%rbp),%edx
    5c66:	8b 45 f8             	mov    -0x8(%rbp),%eax
    5c69:	be ff 00 00 00       	mov    $0xff,%esi
    5c6e:	89 c1                	mov    %eax,%ecx
    5c70:	d3 fe                	sar    %cl,%esi
    5c72:	89 f0                	mov    %esi,%eax
    5c74:	39 c2                	cmp    %eax,%edx
    5c76:	7f 0f                	jg     5c87 <safe_lshift_func_uint8_t_u_u+0x3b>
    5c78:	0f b6 55 fc          	movzbl -0x4(%rbp),%edx
    5c7c:	8b 45 f8             	mov    -0x8(%rbp),%eax
    5c7f:	89 c1                	mov    %eax,%ecx
    5c81:	d3 e2                	shl    %cl,%edx
    5c83:	89 d0                	mov    %edx,%eax
    5c85:	eb 04                	jmp    5c8b <safe_lshift_func_uint8_t_u_u+0x3f>
    5c87:	0f b6 45 fc          	movzbl -0x4(%rbp),%eax
    5c8b:	5d                   	pop    %rbp
    5c8c:	c3                   	retq   

0000000000005c8d <safe_rshift_func_uint8_t_u_s>:
    5c8d:	f3 0f 1e fa          	endbr64 
    5c91:	55                   	push   %rbp
    5c92:	48 89 e5             	mov    %rsp,%rbp
    5c95:	89 f8                	mov    %edi,%eax
    5c97:	89 75 f8             	mov    %esi,-0x8(%rbp)
    5c9a:	88 45 fc             	mov    %al,-0x4(%rbp)
    5c9d:	83 7d f8 00          	cmpl   $0x0,-0x8(%rbp)
    5ca1:	78 15                	js     5cb8 <safe_rshift_func_uint8_t_u_s+0x2b>
    5ca3:	83 7d f8 1f          	cmpl   $0x1f,-0x8(%rbp)
    5ca7:	7f 0f                	jg     5cb8 <safe_rshift_func_uint8_t_u_s+0x2b>
    5ca9:	0f b6 55 fc          	movzbl -0x4(%rbp),%edx
    5cad:	8b 45 f8             	mov    -0x8(%rbp),%eax
    5cb0:	89 c1                	mov    %eax,%ecx
    5cb2:	d3 fa                	sar    %cl,%edx
    5cb4:	89 d0                	mov    %edx,%eax
    5cb6:	eb 04                	jmp    5cbc <safe_rshift_func_uint8_t_u_s+0x2f>
    5cb8:	0f b6 45 fc          	movzbl -0x4(%rbp),%eax
    5cbc:	5d                   	pop    %rbp
    5cbd:	c3                   	retq   

0000000000005cbe <safe_rshift_func_uint8_t_u_u>:
    5cbe:	f3 0f 1e fa          	endbr64 
    5cc2:	55                   	push   %rbp
    5cc3:	48 89 e5             	mov    %rsp,%rbp
    5cc6:	89 f8                	mov    %edi,%eax
    5cc8:	89 75 f8             	mov    %esi,-0x8(%rbp)
    5ccb:	88 45 fc             	mov    %al,-0x4(%rbp)
    5cce:	83 7d f8 1f          	cmpl   $0x1f,-0x8(%rbp)
    5cd2:	77 0f                	ja     5ce3 <safe_rshift_func_uint8_t_u_u+0x25>
    5cd4:	0f b6 55 fc          	movzbl -0x4(%rbp),%edx
    5cd8:	8b 45 f8             	mov    -0x8(%rbp),%eax
    5cdb:	89 c1                	mov    %eax,%ecx
    5cdd:	d3 fa                	sar    %cl,%edx
    5cdf:	89 d0                	mov    %edx,%eax
    5ce1:	eb 04                	jmp    5ce7 <safe_rshift_func_uint8_t_u_u+0x29>
    5ce3:	0f b6 45 fc          	movzbl -0x4(%rbp),%eax
    5ce7:	5d                   	pop    %rbp
    5ce8:	c3                   	retq   

0000000000005ce9 <safe_unary_minus_func_uint16_t_u>:
    5ce9:	f3 0f 1e fa          	endbr64 
    5ced:	55                   	push   %rbp
    5cee:	48 89 e5             	mov    %rsp,%rbp
    5cf1:	89 f8                	mov    %edi,%eax
    5cf3:	66 89 45 fc          	mov    %ax,-0x4(%rbp)
    5cf7:	0f b7 45 fc          	movzwl -0x4(%rbp),%eax
    5cfb:	f7 d8                	neg    %eax
    5cfd:	5d                   	pop    %rbp
    5cfe:	c3                   	retq   

0000000000005cff <safe_add_func_uint16_t_u_u>:
    5cff:	f3 0f 1e fa          	endbr64 
    5d03:	55                   	push   %rbp
    5d04:	48 89 e5             	mov    %rsp,%rbp
    5d07:	89 fa                	mov    %edi,%edx
    5d09:	89 f0                	mov    %esi,%eax
    5d0b:	66 89 55 fc          	mov    %dx,-0x4(%rbp)
    5d0f:	66 89 45 f8          	mov    %ax,-0x8(%rbp)
    5d13:	0f b7 55 fc          	movzwl -0x4(%rbp),%edx
    5d17:	0f b7 45 f8          	movzwl -0x8(%rbp),%eax
    5d1b:	01 d0                	add    %edx,%eax
    5d1d:	5d                   	pop    %rbp
    5d1e:	c3                   	retq   

0000000000005d1f <safe_sub_func_uint16_t_u_u>:
    5d1f:	f3 0f 1e fa          	endbr64 
    5d23:	55                   	push   %rbp
    5d24:	48 89 e5             	mov    %rsp,%rbp
    5d27:	89 fa                	mov    %edi,%edx
    5d29:	89 f0                	mov    %esi,%eax
    5d2b:	66 89 55 fc          	mov    %dx,-0x4(%rbp)
    5d2f:	66 89 45 f8          	mov    %ax,-0x8(%rbp)
    5d33:	0f b7 45 fc          	movzwl -0x4(%rbp),%eax
    5d37:	66 2b 45 f8          	sub    -0x8(%rbp),%ax
    5d3b:	5d                   	pop    %rbp
    5d3c:	c3                   	retq   

0000000000005d3d <safe_mul_func_uint16_t_u_u>:
    5d3d:	f3 0f 1e fa          	endbr64 
    5d41:	55                   	push   %rbp
    5d42:	48 89 e5             	mov    %rsp,%rbp
    5d45:	89 fa                	mov    %edi,%edx
    5d47:	89 f0                	mov    %esi,%eax
    5d49:	66 89 55 fc          	mov    %dx,-0x4(%rbp)
    5d4d:	66 89 45 f8          	mov    %ax,-0x8(%rbp)
    5d51:	0f b7 45 fc          	movzwl -0x4(%rbp),%eax
    5d55:	66 0f af 45 f8       	imul   -0x8(%rbp),%ax
    5d5a:	5d                   	pop    %rbp
    5d5b:	c3                   	retq   

0000000000005d5c <safe_mod_func_uint16_t_u_u>:
    5d5c:	f3 0f 1e fa          	endbr64 
    5d60:	55                   	push   %rbp
    5d61:	48 89 e5             	mov    %rsp,%rbp
    5d64:	89 fa                	mov    %edi,%edx
    5d66:	89 f0                	mov    %esi,%eax
    5d68:	66 89 55 fc          	mov    %dx,-0x4(%rbp)
    5d6c:	66 89 45 f8          	mov    %ax,-0x8(%rbp)
    5d70:	66 83 7d f8 00       	cmpw   $0x0,-0x8(%rbp)
    5d75:	74 11                	je     5d88 <safe_mod_func_uint16_t_u_u+0x2c>
    5d77:	0f b7 45 fc          	movzwl -0x4(%rbp),%eax
    5d7b:	ba 00 00 00 00       	mov    $0x0,%edx
    5d80:	66 f7 75 f8          	divw   -0x8(%rbp)
    5d84:	89 d0                	mov    %edx,%eax
    5d86:	eb 04                	jmp    5d8c <safe_mod_func_uint16_t_u_u+0x30>
    5d88:	0f b7 45 fc          	movzwl -0x4(%rbp),%eax
    5d8c:	5d                   	pop    %rbp
    5d8d:	c3                   	retq   

0000000000005d8e <safe_div_func_uint16_t_u_u>:
    5d8e:	f3 0f 1e fa          	endbr64 
    5d92:	55                   	push   %rbp
    5d93:	48 89 e5             	mov    %rsp,%rbp
    5d96:	89 fa                	mov    %edi,%edx
    5d98:	89 f0                	mov    %esi,%eax
    5d9a:	66 89 55 fc          	mov    %dx,-0x4(%rbp)
    5d9e:	66 89 45 f8          	mov    %ax,-0x8(%rbp)
    5da2:	66 83 7d f8 00       	cmpw   $0x0,-0x8(%rbp)
    5da7:	74 0f                	je     5db8 <safe_div_func_uint16_t_u_u+0x2a>
    5da9:	0f b7 45 fc          	movzwl -0x4(%rbp),%eax
    5dad:	ba 00 00 00 00       	mov    $0x0,%edx
    5db2:	66 f7 75 f8          	divw   -0x8(%rbp)
    5db6:	eb 04                	jmp    5dbc <safe_div_func_uint16_t_u_u+0x2e>
    5db8:	0f b7 45 fc          	movzwl -0x4(%rbp),%eax
    5dbc:	5d                   	pop    %rbp
    5dbd:	c3                   	retq   

0000000000005dbe <safe_lshift_func_uint16_t_u_s>:
    5dbe:	f3 0f 1e fa          	endbr64 
    5dc2:	55                   	push   %rbp
    5dc3:	48 89 e5             	mov    %rsp,%rbp
    5dc6:	89 f8                	mov    %edi,%eax
    5dc8:	89 75 f8             	mov    %esi,-0x8(%rbp)
    5dcb:	66 89 45 fc          	mov    %ax,-0x4(%rbp)
    5dcf:	83 7d f8 00          	cmpl   $0x0,-0x8(%rbp)
    5dd3:	78 2b                	js     5e00 <safe_lshift_func_uint16_t_u_s+0x42>
    5dd5:	83 7d f8 1f          	cmpl   $0x1f,-0x8(%rbp)
    5dd9:	7f 25                	jg     5e00 <safe_lshift_func_uint16_t_u_s+0x42>
    5ddb:	0f b7 55 fc          	movzwl -0x4(%rbp),%edx
    5ddf:	8b 45 f8             	mov    -0x8(%rbp),%eax
    5de2:	be ff ff 00 00       	mov    $0xffff,%esi
    5de7:	89 c1                	mov    %eax,%ecx
    5de9:	d3 fe                	sar    %cl,%esi
    5deb:	89 f0                	mov    %esi,%eax
    5ded:	39 c2                	cmp    %eax,%edx
    5def:	7f 0f                	jg     5e00 <safe_lshift_func_uint16_t_u_s+0x42>
    5df1:	0f b7 55 fc          	movzwl -0x4(%rbp),%edx
    5df5:	8b 45 f8             	mov    -0x8(%rbp),%eax
    5df8:	89 c1                	mov    %eax,%ecx
    5dfa:	d3 e2                	shl    %cl,%edx
    5dfc:	89 d0                	mov    %edx,%eax
    5dfe:	eb 04                	jmp    5e04 <safe_lshift_func_uint16_t_u_s+0x46>
    5e00:	0f b7 45 fc          	movzwl -0x4(%rbp),%eax
    5e04:	5d                   	pop    %rbp
    5e05:	c3                   	retq   

0000000000005e06 <safe_lshift_func_uint16_t_u_u>:
    5e06:	f3 0f 1e fa          	endbr64 
    5e0a:	55                   	push   %rbp
    5e0b:	48 89 e5             	mov    %rsp,%rbp
    5e0e:	89 f8                	mov    %edi,%eax
    5e10:	89 75 f8             	mov    %esi,-0x8(%rbp)
    5e13:	66 89 45 fc          	mov    %ax,-0x4(%rbp)
    5e17:	83 7d f8 1f          	cmpl   $0x1f,-0x8(%rbp)
    5e1b:	77 25                	ja     5e42 <safe_lshift_func_uint16_t_u_u+0x3c>
    5e1d:	0f b7 55 fc          	movzwl -0x4(%rbp),%edx
    5e21:	8b 45 f8             	mov    -0x8(%rbp),%eax
    5e24:	be ff ff 00 00       	mov    $0xffff,%esi
    5e29:	89 c1                	mov    %eax,%ecx
    5e2b:	d3 fe                	sar    %cl,%esi
    5e2d:	89 f0                	mov    %esi,%eax
    5e2f:	39 c2                	cmp    %eax,%edx
    5e31:	7f 0f                	jg     5e42 <safe_lshift_func_uint16_t_u_u+0x3c>
    5e33:	0f b7 55 fc          	movzwl -0x4(%rbp),%edx
    5e37:	8b 45 f8             	mov    -0x8(%rbp),%eax
    5e3a:	89 c1                	mov    %eax,%ecx
    5e3c:	d3 e2                	shl    %cl,%edx
    5e3e:	89 d0                	mov    %edx,%eax
    5e40:	eb 04                	jmp    5e46 <safe_lshift_func_uint16_t_u_u+0x40>
    5e42:	0f b7 45 fc          	movzwl -0x4(%rbp),%eax
    5e46:	5d                   	pop    %rbp
    5e47:	c3                   	retq   

0000000000005e48 <safe_rshift_func_uint16_t_u_s>:
    5e48:	f3 0f 1e fa          	endbr64 
    5e4c:	55                   	push   %rbp
    5e4d:	48 89 e5             	mov    %rsp,%rbp
    5e50:	89 f8                	mov    %edi,%eax
    5e52:	89 75 f8             	mov    %esi,-0x8(%rbp)
    5e55:	66 89 45 fc          	mov    %ax,-0x4(%rbp)
    5e59:	83 7d f8 00          	cmpl   $0x0,-0x8(%rbp)
    5e5d:	78 15                	js     5e74 <safe_rshift_func_uint16_t_u_s+0x2c>
    5e5f:	83 7d f8 1f          	cmpl   $0x1f,-0x8(%rbp)
    5e63:	7f 0f                	jg     5e74 <safe_rshift_func_uint16_t_u_s+0x2c>
    5e65:	0f b7 55 fc          	movzwl -0x4(%rbp),%edx
    5e69:	8b 45 f8             	mov    -0x8(%rbp),%eax
    5e6c:	89 c1                	mov    %eax,%ecx
    5e6e:	d3 fa                	sar    %cl,%edx
    5e70:	89 d0                	mov    %edx,%eax
    5e72:	eb 04                	jmp    5e78 <safe_rshift_func_uint16_t_u_s+0x30>
    5e74:	0f b7 45 fc          	movzwl -0x4(%rbp),%eax
    5e78:	5d                   	pop    %rbp
    5e79:	c3                   	retq   

0000000000005e7a <safe_rshift_func_uint16_t_u_u>:
    5e7a:	f3 0f 1e fa          	endbr64 
    5e7e:	55                   	push   %rbp
    5e7f:	48 89 e5             	mov    %rsp,%rbp
    5e82:	89 f8                	mov    %edi,%eax
    5e84:	89 75 f8             	mov    %esi,-0x8(%rbp)
    5e87:	66 89 45 fc          	mov    %ax,-0x4(%rbp)
    5e8b:	83 7d f8 1f          	cmpl   $0x1f,-0x8(%rbp)
    5e8f:	77 0f                	ja     5ea0 <safe_rshift_func_uint16_t_u_u+0x26>
    5e91:	0f b7 55 fc          	movzwl -0x4(%rbp),%edx
    5e95:	8b 45 f8             	mov    -0x8(%rbp),%eax
    5e98:	89 c1                	mov    %eax,%ecx
    5e9a:	d3 fa                	sar    %cl,%edx
    5e9c:	89 d0                	mov    %edx,%eax
    5e9e:	eb 04                	jmp    5ea4 <safe_rshift_func_uint16_t_u_u+0x2a>
    5ea0:	0f b7 45 fc          	movzwl -0x4(%rbp),%eax
    5ea4:	5d                   	pop    %rbp
    5ea5:	c3                   	retq   

0000000000005ea6 <safe_unary_minus_func_uint32_t_u>:
    5ea6:	f3 0f 1e fa          	endbr64 
    5eaa:	55                   	push   %rbp
    5eab:	48 89 e5             	mov    %rsp,%rbp
    5eae:	89 7d fc             	mov    %edi,-0x4(%rbp)
    5eb1:	8b 45 fc             	mov    -0x4(%rbp),%eax
    5eb4:	f7 d8                	neg    %eax
    5eb6:	5d                   	pop    %rbp
    5eb7:	c3                   	retq   

0000000000005eb8 <safe_add_func_uint32_t_u_u>:
    5eb8:	f3 0f 1e fa          	endbr64 
    5ebc:	55                   	push   %rbp
    5ebd:	48 89 e5             	mov    %rsp,%rbp
    5ec0:	89 7d fc             	mov    %edi,-0x4(%rbp)
    5ec3:	89 75 f8             	mov    %esi,-0x8(%rbp)
    5ec6:	8b 55 fc             	mov    -0x4(%rbp),%edx
    5ec9:	8b 45 f8             	mov    -0x8(%rbp),%eax
    5ecc:	01 d0                	add    %edx,%eax
    5ece:	5d                   	pop    %rbp
    5ecf:	c3                   	retq   

0000000000005ed0 <safe_sub_func_uint32_t_u_u>:
    5ed0:	f3 0f 1e fa          	endbr64 
    5ed4:	55                   	push   %rbp
    5ed5:	48 89 e5             	mov    %rsp,%rbp
    5ed8:	89 7d fc             	mov    %edi,-0x4(%rbp)
    5edb:	89 75 f8             	mov    %esi,-0x8(%rbp)
    5ede:	8b 45 fc             	mov    -0x4(%rbp),%eax
    5ee1:	2b 45 f8             	sub    -0x8(%rbp),%eax
    5ee4:	5d                   	pop    %rbp
    5ee5:	c3                   	retq   

0000000000005ee6 <safe_mul_func_uint32_t_u_u>:
    5ee6:	f3 0f 1e fa          	endbr64 
    5eea:	55                   	push   %rbp
    5eeb:	48 89 e5             	mov    %rsp,%rbp
    5eee:	89 7d fc             	mov    %edi,-0x4(%rbp)
    5ef1:	89 75 f8             	mov    %esi,-0x8(%rbp)
    5ef4:	8b 45 fc             	mov    -0x4(%rbp),%eax
    5ef7:	0f af 45 f8          	imul   -0x8(%rbp),%eax
    5efb:	5d                   	pop    %rbp
    5efc:	c3                   	retq   

0000000000005efd <safe_mod_func_uint32_t_u_u>:
    5efd:	f3 0f 1e fa          	endbr64 
    5f01:	55                   	push   %rbp
    5f02:	48 89 e5             	mov    %rsp,%rbp
    5f05:	89 7d fc             	mov    %edi,-0x4(%rbp)
    5f08:	89 75 f8             	mov    %esi,-0x8(%rbp)
    5f0b:	83 7d f8 00          	cmpl   $0x0,-0x8(%rbp)
    5f0f:	74 0f                	je     5f20 <safe_mod_func_uint32_t_u_u+0x23>
    5f11:	8b 45 fc             	mov    -0x4(%rbp),%eax
    5f14:	ba 00 00 00 00       	mov    $0x0,%edx
    5f19:	f7 75 f8             	divl   -0x8(%rbp)
    5f1c:	89 d0                	mov    %edx,%eax
    5f1e:	eb 03                	jmp    5f23 <safe_mod_func_uint32_t_u_u+0x26>
    5f20:	8b 45 fc             	mov    -0x4(%rbp),%eax
    5f23:	5d                   	pop    %rbp
    5f24:	c3                   	retq   

0000000000005f25 <safe_div_func_uint32_t_u_u>:
    5f25:	f3 0f 1e fa          	endbr64 
    5f29:	55                   	push   %rbp
    5f2a:	48 89 e5             	mov    %rsp,%rbp
    5f2d:	89 7d fc             	mov    %edi,-0x4(%rbp)
    5f30:	89 75 f8             	mov    %esi,-0x8(%rbp)
    5f33:	83 7d f8 00          	cmpl   $0x0,-0x8(%rbp)
    5f37:	74 0d                	je     5f46 <safe_div_func_uint32_t_u_u+0x21>
    5f39:	8b 45 fc             	mov    -0x4(%rbp),%eax
    5f3c:	ba 00 00 00 00       	mov    $0x0,%edx
    5f41:	f7 75 f8             	divl   -0x8(%rbp)
    5f44:	eb 03                	jmp    5f49 <safe_div_func_uint32_t_u_u+0x24>
    5f46:	8b 45 fc             	mov    -0x4(%rbp),%eax
    5f49:	5d                   	pop    %rbp
    5f4a:	c3                   	retq   

0000000000005f4b <safe_lshift_func_uint32_t_u_s>:
    5f4b:	f3 0f 1e fa          	endbr64 
    5f4f:	55                   	push   %rbp
    5f50:	48 89 e5             	mov    %rsp,%rbp
    5f53:	89 7d fc             	mov    %edi,-0x4(%rbp)
    5f56:	89 75 f8             	mov    %esi,-0x8(%rbp)
    5f59:	83 7d f8 00          	cmpl   $0x0,-0x8(%rbp)
    5f5d:	78 27                	js     5f86 <safe_lshift_func_uint32_t_u_s+0x3b>
    5f5f:	83 7d f8 1f          	cmpl   $0x1f,-0x8(%rbp)
    5f63:	7f 21                	jg     5f86 <safe_lshift_func_uint32_t_u_s+0x3b>
    5f65:	8b 45 f8             	mov    -0x8(%rbp),%eax
    5f68:	ba ff ff ff ff       	mov    $0xffffffff,%edx
    5f6d:	89 c1                	mov    %eax,%ecx
    5f6f:	d3 ea                	shr    %cl,%edx
    5f71:	89 d0                	mov    %edx,%eax
    5f73:	39 45 fc             	cmp    %eax,-0x4(%rbp)
    5f76:	77 0e                	ja     5f86 <safe_lshift_func_uint32_t_u_s+0x3b>
    5f78:	8b 45 f8             	mov    -0x8(%rbp),%eax
    5f7b:	8b 55 fc             	mov    -0x4(%rbp),%edx
    5f7e:	89 c1                	mov    %eax,%ecx
    5f80:	d3 e2                	shl    %cl,%edx
    5f82:	89 d0                	mov    %edx,%eax
    5f84:	eb 03                	jmp    5f89 <safe_lshift_func_uint32_t_u_s+0x3e>
    5f86:	8b 45 fc             	mov    -0x4(%rbp),%eax
    5f89:	5d                   	pop    %rbp
    5f8a:	c3                   	retq   

0000000000005f8b <safe_lshift_func_uint32_t_u_u>:
    5f8b:	f3 0f 1e fa          	endbr64 
    5f8f:	55                   	push   %rbp
    5f90:	48 89 e5             	mov    %rsp,%rbp
    5f93:	89 7d fc             	mov    %edi,-0x4(%rbp)
    5f96:	89 75 f8             	mov    %esi,-0x8(%rbp)
    5f99:	83 7d f8 1f          	cmpl   $0x1f,-0x8(%rbp)
    5f9d:	77 21                	ja     5fc0 <safe_lshift_func_uint32_t_u_u+0x35>
    5f9f:	8b 45 f8             	mov    -0x8(%rbp),%eax
    5fa2:	ba ff ff ff ff       	mov    $0xffffffff,%edx
    5fa7:	89 c1                	mov    %eax,%ecx
    5fa9:	d3 ea                	shr    %cl,%edx
    5fab:	89 d0                	mov    %edx,%eax
    5fad:	39 45 fc             	cmp    %eax,-0x4(%rbp)
    5fb0:	77 0e                	ja     5fc0 <safe_lshift_func_uint32_t_u_u+0x35>
    5fb2:	8b 45 f8             	mov    -0x8(%rbp),%eax
    5fb5:	8b 55 fc             	mov    -0x4(%rbp),%edx
    5fb8:	89 c1                	mov    %eax,%ecx
    5fba:	d3 e2                	shl    %cl,%edx
    5fbc:	89 d0                	mov    %edx,%eax
    5fbe:	eb 03                	jmp    5fc3 <safe_lshift_func_uint32_t_u_u+0x38>
    5fc0:	8b 45 fc             	mov    -0x4(%rbp),%eax
    5fc3:	5d                   	pop    %rbp
    5fc4:	c3                   	retq   

0000000000005fc5 <safe_rshift_func_uint32_t_u_s>:
    5fc5:	f3 0f 1e fa          	endbr64 
    5fc9:	55                   	push   %rbp
    5fca:	48 89 e5             	mov    %rsp,%rbp
    5fcd:	89 7d fc             	mov    %edi,-0x4(%rbp)
    5fd0:	89 75 f8             	mov    %esi,-0x8(%rbp)
    5fd3:	83 7d f8 00          	cmpl   $0x0,-0x8(%rbp)
    5fd7:	78 14                	js     5fed <safe_rshift_func_uint32_t_u_s+0x28>
    5fd9:	83 7d f8 1f          	cmpl   $0x1f,-0x8(%rbp)
    5fdd:	7f 0e                	jg     5fed <safe_rshift_func_uint32_t_u_s+0x28>
    5fdf:	8b 45 f8             	mov    -0x8(%rbp),%eax
    5fe2:	8b 55 fc             	mov    -0x4(%rbp),%edx
    5fe5:	89 c1                	mov    %eax,%ecx
    5fe7:	d3 ea                	shr    %cl,%edx
    5fe9:	89 d0                	mov    %edx,%eax
    5feb:	eb 03                	jmp    5ff0 <safe_rshift_func_uint32_t_u_s+0x2b>
    5fed:	8b 45 fc             	mov    -0x4(%rbp),%eax
    5ff0:	5d                   	pop    %rbp
    5ff1:	c3                   	retq   

0000000000005ff2 <safe_rshift_func_uint32_t_u_u>:
    5ff2:	f3 0f 1e fa          	endbr64 
    5ff6:	55                   	push   %rbp
    5ff7:	48 89 e5             	mov    %rsp,%rbp
    5ffa:	89 7d fc             	mov    %edi,-0x4(%rbp)
    5ffd:	89 75 f8             	mov    %esi,-0x8(%rbp)
    6000:	83 7d f8 1f          	cmpl   $0x1f,-0x8(%rbp)
    6004:	77 0e                	ja     6014 <safe_rshift_func_uint32_t_u_u+0x22>
    6006:	8b 45 f8             	mov    -0x8(%rbp),%eax
    6009:	8b 55 fc             	mov    -0x4(%rbp),%edx
    600c:	89 c1                	mov    %eax,%ecx
    600e:	d3 ea                	shr    %cl,%edx
    6010:	89 d0                	mov    %edx,%eax
    6012:	eb 03                	jmp    6017 <safe_rshift_func_uint32_t_u_u+0x25>
    6014:	8b 45 fc             	mov    -0x4(%rbp),%eax
    6017:	5d                   	pop    %rbp
    6018:	c3                   	retq   

0000000000006019 <safe_unary_minus_func_uint64_t_u>:
    6019:	f3 0f 1e fa          	endbr64 
    601d:	55                   	push   %rbp
    601e:	48 89 e5             	mov    %rsp,%rbp
    6021:	48 89 7d f8          	mov    %rdi,-0x8(%rbp)
    6025:	48 8b 45 f8          	mov    -0x8(%rbp),%rax
    6029:	48 f7 d8             	neg    %rax
    602c:	5d                   	pop    %rbp
    602d:	c3                   	retq   

000000000000602e <safe_add_func_uint64_t_u_u>:
    602e:	f3 0f 1e fa          	endbr64 
    6032:	55                   	push   %rbp
    6033:	48 89 e5             	mov    %rsp,%rbp
    6036:	48 89 7d f8          	mov    %rdi,-0x8(%rbp)
    603a:	48 89 75 f0          	mov    %rsi,-0x10(%rbp)
    603e:	48 8b 55 f8          	mov    -0x8(%rbp),%rdx
    6042:	48 8b 45 f0          	mov    -0x10(%rbp),%rax
    6046:	48 01 d0             	add    %rdx,%rax
    6049:	5d                   	pop    %rbp
    604a:	c3                   	retq   

000000000000604b <safe_sub_func_uint64_t_u_u>:
    604b:	f3 0f 1e fa          	endbr64 
    604f:	55                   	push   %rbp
    6050:	48 89 e5             	mov    %rsp,%rbp
    6053:	48 89 7d f8          	mov    %rdi,-0x8(%rbp)
    6057:	48 89 75 f0          	mov    %rsi,-0x10(%rbp)
    605b:	48 8b 45 f8          	mov    -0x8(%rbp),%rax
    605f:	48 2b 45 f0          	sub    -0x10(%rbp),%rax
    6063:	5d                   	pop    %rbp
    6064:	c3                   	retq   

0000000000006065 <safe_mul_func_uint64_t_u_u>:
    6065:	f3 0f 1e fa          	endbr64 
    6069:	55                   	push   %rbp
    606a:	48 89 e5             	mov    %rsp,%rbp
    606d:	48 89 7d f8          	mov    %rdi,-0x8(%rbp)
    6071:	48 89 75 f0          	mov    %rsi,-0x10(%rbp)
    6075:	48 8b 45 f8          	mov    -0x8(%rbp),%rax
    6079:	48 0f af 45 f0       	imul   -0x10(%rbp),%rax
    607e:	5d                   	pop    %rbp
    607f:	c3                   	retq   

0000000000006080 <safe_mod_func_uint64_t_u_u>:
    6080:	f3 0f 1e fa          	endbr64 
    6084:	55                   	push   %rbp
    6085:	48 89 e5             	mov    %rsp,%rbp
    6088:	48 89 7d f8          	mov    %rdi,-0x8(%rbp)
    608c:	48 89 75 f0          	mov    %rsi,-0x10(%rbp)
    6090:	48 83 7d f0 00       	cmpq   $0x0,-0x10(%rbp)
    6095:	74 12                	je     60a9 <safe_mod_func_uint64_t_u_u+0x29>
    6097:	48 8b 45 f8          	mov    -0x8(%rbp),%rax
    609b:	ba 00 00 00 00       	mov    $0x0,%edx
    60a0:	48 f7 75 f0          	divq   -0x10(%rbp)
    60a4:	48 89 d0             	mov    %rdx,%rax
    60a7:	eb 04                	jmp    60ad <safe_mod_func_uint64_t_u_u+0x2d>
    60a9:	48 8b 45 f8          	mov    -0x8(%rbp),%rax
    60ad:	5d                   	pop    %rbp
    60ae:	c3                   	retq   

00000000000060af <safe_div_func_uint64_t_u_u>:
    60af:	f3 0f 1e fa          	endbr64 
    60b3:	55                   	push   %rbp
    60b4:	48 89 e5             	mov    %rsp,%rbp
    60b7:	48 89 7d f8          	mov    %rdi,-0x8(%rbp)
    60bb:	48 89 75 f0          	mov    %rsi,-0x10(%rbp)
    60bf:	48 83 7d f0 00       	cmpq   $0x0,-0x10(%rbp)
    60c4:	74 0f                	je     60d5 <safe_div_func_uint64_t_u_u+0x26>
    60c6:	48 8b 45 f8          	mov    -0x8(%rbp),%rax
    60ca:	ba 00 00 00 00       	mov    $0x0,%edx
    60cf:	48 f7 75 f0          	divq   -0x10(%rbp)
    60d3:	eb 04                	jmp    60d9 <safe_div_func_uint64_t_u_u+0x2a>
    60d5:	48 8b 45 f8          	mov    -0x8(%rbp),%rax
    60d9:	5d                   	pop    %rbp
    60da:	c3                   	retq   

00000000000060db <safe_lshift_func_uint64_t_u_s>:
    60db:	f3 0f 1e fa          	endbr64 
    60df:	55                   	push   %rbp
    60e0:	48 89 e5             	mov    %rsp,%rbp
    60e3:	48 89 7d f8          	mov    %rdi,-0x8(%rbp)
    60e7:	89 75 f4             	mov    %esi,-0xc(%rbp)
    60ea:	83 7d f4 00          	cmpl   $0x0,-0xc(%rbp)
    60ee:	78 2f                	js     611f <safe_lshift_func_uint64_t_u_s+0x44>
    60f0:	83 7d f4 1f          	cmpl   $0x1f,-0xc(%rbp)
    60f4:	7f 29                	jg     611f <safe_lshift_func_uint64_t_u_s+0x44>
    60f6:	8b 45 f4             	mov    -0xc(%rbp),%eax
    60f9:	48 c7 c2 ff ff ff ff 	mov    $0xffffffffffffffff,%rdx
    6100:	89 c1                	mov    %eax,%ecx
    6102:	48 d3 ea             	shr    %cl,%rdx
    6105:	48 89 d0             	mov    %rdx,%rax
    6108:	48 39 45 f8          	cmp    %rax,-0x8(%rbp)
    610c:	77 11                	ja     611f <safe_lshift_func_uint64_t_u_s+0x44>
    610e:	8b 45 f4             	mov    -0xc(%rbp),%eax
    6111:	48 8b 55 f8          	mov    -0x8(%rbp),%rdx
    6115:	89 c1                	mov    %eax,%ecx
    6117:	48 d3 e2             	shl    %cl,%rdx
    611a:	48 89 d0             	mov    %rdx,%rax
    611d:	eb 04                	jmp    6123 <safe_lshift_func_uint64_t_u_s+0x48>
    611f:	48 8b 45 f8          	mov    -0x8(%rbp),%rax
    6123:	5d                   	pop    %rbp
    6124:	c3                   	retq   

0000000000006125 <safe_lshift_func_uint64_t_u_u>:
    6125:	f3 0f 1e fa          	endbr64 
    6129:	55                   	push   %rbp
    612a:	48 89 e5             	mov    %rsp,%rbp
    612d:	48 89 7d f8          	mov    %rdi,-0x8(%rbp)
    6131:	89 75 f4             	mov    %esi,-0xc(%rbp)
    6134:	83 7d f4 1f          	cmpl   $0x1f,-0xc(%rbp)
    6138:	77 29                	ja     6163 <safe_lshift_func_uint64_t_u_u+0x3e>
    613a:	8b 45 f4             	mov    -0xc(%rbp),%eax
    613d:	48 c7 c2 ff ff ff ff 	mov    $0xffffffffffffffff,%rdx
    6144:	89 c1                	mov    %eax,%ecx
    6146:	48 d3 ea             	shr    %cl,%rdx
    6149:	48 89 d0             	mov    %rdx,%rax
    614c:	48 39 45 f8          	cmp    %rax,-0x8(%rbp)
    6150:	77 11                	ja     6163 <safe_lshift_func_uint64_t_u_u+0x3e>
    6152:	8b 45 f4             	mov    -0xc(%rbp),%eax
    6155:	48 8b 55 f8          	mov    -0x8(%rbp),%rdx
    6159:	89 c1                	mov    %eax,%ecx
    615b:	48 d3 e2             	shl    %cl,%rdx
    615e:	48 89 d0             	mov    %rdx,%rax
    6161:	eb 04                	jmp    6167 <safe_lshift_func_uint64_t_u_u+0x42>
    6163:	48 8b 45 f8          	mov    -0x8(%rbp),%rax
    6167:	5d                   	pop    %rbp
    6168:	c3                   	retq   

0000000000006169 <safe_rshift_func_uint64_t_u_s>:
    6169:	f3 0f 1e fa          	endbr64 
    616d:	55                   	push   %rbp
    616e:	48 89 e5             	mov    %rsp,%rbp
    6171:	48 89 7d f8          	mov    %rdi,-0x8(%rbp)
    6175:	89 75 f4             	mov    %esi,-0xc(%rbp)
    6178:	83 7d f4 00          	cmpl   $0x0,-0xc(%rbp)
    617c:	78 17                	js     6195 <safe_rshift_func_uint64_t_u_s+0x2c>
    617e:	83 7d f4 1f          	cmpl   $0x1f,-0xc(%rbp)
    6182:	7f 11                	jg     6195 <safe_rshift_func_uint64_t_u_s+0x2c>
    6184:	8b 45 f4             	mov    -0xc(%rbp),%eax
    6187:	48 8b 55 f8          	mov    -0x8(%rbp),%rdx
    618b:	89 c1                	mov    %eax,%ecx
    618d:	48 d3 ea             	shr    %cl,%rdx
    6190:	48 89 d0             	mov    %rdx,%rax
    6193:	eb 04                	jmp    6199 <safe_rshift_func_uint64_t_u_s+0x30>
    6195:	48 8b 45 f8          	mov    -0x8(%rbp),%rax
    6199:	5d                   	pop    %rbp
    619a:	c3                   	retq   

000000000000619b <safe_rshift_func_uint64_t_u_u>:
    619b:	f3 0f 1e fa          	endbr64 
    619f:	55                   	push   %rbp
    61a0:	48 89 e5             	mov    %rsp,%rbp
    61a3:	48 89 7d f8          	mov    %rdi,-0x8(%rbp)
    61a7:	89 75 f4             	mov    %esi,-0xc(%rbp)
    61aa:	83 7d f4 1f          	cmpl   $0x1f,-0xc(%rbp)
    61ae:	77 11                	ja     61c1 <safe_rshift_func_uint64_t_u_u+0x26>
    61b0:	8b 45 f4             	mov    -0xc(%rbp),%eax
    61b3:	48 8b 55 f8          	mov    -0x8(%rbp),%rdx
    61b7:	89 c1                	mov    %eax,%ecx
    61b9:	48 d3 ea             	shr    %cl,%rdx
    61bc:	48 89 d0             	mov    %rdx,%rax
    61bf:	eb 04                	jmp    61c5 <safe_rshift_func_uint64_t_u_u+0x2a>
    61c1:	48 8b 45 f8          	mov    -0x8(%rbp),%rax
    61c5:	5d                   	pop    %rbp
    61c6:	c3                   	retq   

00000000000061c7 <safe_add_func_float_f_f>:
    61c7:	f3 0f 1e fa          	endbr64 
    61cb:	55                   	push   %rbp
    61cc:	48 89 e5             	mov    %rsp,%rbp
    61cf:	f3 0f 11 45 fc       	movss  %xmm0,-0x4(%rbp)
    61d4:	f3 0f 11 4d f8       	movss  %xmm1,-0x8(%rbp)
    61d9:	f3 0f 10 4d fc       	movss  -0x4(%rbp),%xmm1
    61de:	f3 0f 10 05 ae 01 01 	movss  0x101ae(%rip),%xmm0        # 16394 <g_1978+0x1314>
    61e5:	00 
    61e6:	f3 0f 59 c8          	mulss  %xmm0,%xmm1
    61ea:	f3 0f 10 55 f8       	movss  -0x8(%rbp),%xmm2
    61ef:	f3 0f 10 05 9d 01 01 	movss  0x1019d(%rip),%xmm0        # 16394 <g_1978+0x1314>
    61f6:	00 
    61f7:	f3 0f 59 c2          	mulss  %xmm2,%xmm0
    61fb:	f3 0f 58 c1          	addss  %xmm1,%xmm0
    61ff:	f3 0f 10 0d 99 01 01 	movss  0x10199(%rip),%xmm1        # 163a0 <g_1978+0x1320>
    6206:	00 
    6207:	0f 54 c1             	andps  %xmm1,%xmm0
    620a:	0f 2f 05 9f 01 01 00 	comiss 0x1019f(%rip),%xmm0        # 163b0 <g_1978+0x1330>
    6211:	76 07                	jbe    621a <safe_add_func_float_f_f+0x53>
    6213:	f3 0f 10 45 fc       	movss  -0x4(%rbp),%xmm0
    6218:	eb 0a                	jmp    6224 <safe_add_func_float_f_f+0x5d>
    621a:	f3 0f 10 45 fc       	movss  -0x4(%rbp),%xmm0
    621f:	f3 0f 58 45 f8       	addss  -0x8(%rbp),%xmm0
    6224:	5d                   	pop    %rbp
    6225:	c3                   	retq   

0000000000006226 <safe_sub_func_float_f_f>:
    6226:	f3 0f 1e fa          	endbr64 
    622a:	55                   	push   %rbp
    622b:	48 89 e5             	mov    %rsp,%rbp
    622e:	f3 0f 11 45 fc       	movss  %xmm0,-0x4(%rbp)
    6233:	f3 0f 11 4d f8       	movss  %xmm1,-0x8(%rbp)
    6238:	f3 0f 10 4d fc       	movss  -0x4(%rbp),%xmm1
    623d:	f3 0f 10 05 4f 01 01 	movss  0x1014f(%rip),%xmm0        # 16394 <g_1978+0x1314>
    6244:	00 
    6245:	f3 0f 59 c1          	mulss  %xmm1,%xmm0
    6249:	f3 0f 10 55 f8       	movss  -0x8(%rbp),%xmm2
    624e:	f3 0f 10 0d 3e 01 01 	movss  0x1013e(%rip),%xmm1        # 16394 <g_1978+0x1314>
    6255:	00 
    6256:	f3 0f 59 ca          	mulss  %xmm2,%xmm1
    625a:	f3 0f 5c c1          	subss  %xmm1,%xmm0
    625e:	f3 0f 10 0d 3a 01 01 	movss  0x1013a(%rip),%xmm1        # 163a0 <g_1978+0x1320>
    6265:	00 
    6266:	0f 54 c1             	andps  %xmm1,%xmm0
    6269:	0f 2f 05 40 01 01 00 	comiss 0x10140(%rip),%xmm0        # 163b0 <g_1978+0x1330>
    6270:	76 07                	jbe    6279 <safe_sub_func_float_f_f+0x53>
    6272:	f3 0f 10 45 fc       	movss  -0x4(%rbp),%xmm0
    6277:	eb 0a                	jmp    6283 <safe_sub_func_float_f_f+0x5d>
    6279:	f3 0f 10 45 fc       	movss  -0x4(%rbp),%xmm0
    627e:	f3 0f 5c 45 f8       	subss  -0x8(%rbp),%xmm0
    6283:	5d                   	pop    %rbp
    6284:	c3                   	retq   

0000000000006285 <safe_mul_func_float_f_f>:
    6285:	f3 0f 1e fa          	endbr64 
    6289:	55                   	push   %rbp
    628a:	48 89 e5             	mov    %rsp,%rbp
    628d:	f3 0f 11 45 fc       	movss  %xmm0,-0x4(%rbp)
    6292:	f3 0f 11 4d f8       	movss  %xmm1,-0x8(%rbp)
    6297:	f3 0f 10 4d fc       	movss  -0x4(%rbp),%xmm1
    629c:	f3 0f 10 05 10 01 01 	movss  0x10110(%rip),%xmm0        # 163b4 <g_1978+0x1334>
    62a3:	00 
    62a4:	f3 0f 59 c8          	mulss  %xmm0,%xmm1
    62a8:	f3 0f 10 55 f8       	movss  -0x8(%rbp),%xmm2
    62ad:	f3 0f 10 05 03 01 01 	movss  0x10103(%rip),%xmm0        # 163b8 <g_1978+0x1338>
    62b4:	00 
    62b5:	f3 0f 59 c2          	mulss  %xmm2,%xmm0
    62b9:	f3 0f 59 c1          	mulss  %xmm1,%xmm0
    62bd:	f3 0f 10 0d db 00 01 	movss  0x100db(%rip),%xmm1        # 163a0 <g_1978+0x1320>
    62c4:	00 
    62c5:	0f 54 c1             	andps  %xmm1,%xmm0
    62c8:	0f 2f 05 ed 00 01 00 	comiss 0x100ed(%rip),%xmm0        # 163bc <g_1978+0x133c>
    62cf:	76 07                	jbe    62d8 <safe_mul_func_float_f_f+0x53>
    62d1:	f3 0f 10 45 fc       	movss  -0x4(%rbp),%xmm0
    62d6:	eb 0a                	jmp    62e2 <safe_mul_func_float_f_f+0x5d>
    62d8:	f3 0f 10 45 fc       	movss  -0x4(%rbp),%xmm0
    62dd:	f3 0f 59 45 f8       	mulss  -0x8(%rbp),%xmm0
    62e2:	5d                   	pop    %rbp
    62e3:	c3                   	retq   

00000000000062e4 <safe_div_func_float_f_f>:
    62e4:	f3 0f 1e fa          	endbr64 
    62e8:	55                   	push   %rbp
    62e9:	48 89 e5             	mov    %rsp,%rbp
    62ec:	f3 0f 11 45 fc       	movss  %xmm0,-0x4(%rbp)
    62f1:	f3 0f 11 4d f8       	movss  %xmm1,-0x8(%rbp)
    62f6:	f3 0f 10 45 f8       	movss  -0x8(%rbp),%xmm0
    62fb:	f3 0f 10 0d 9d 00 01 	movss  0x1009d(%rip),%xmm1        # 163a0 <g_1978+0x1320>
    6302:	00 
    6303:	0f 54 c8             	andps  %xmm0,%xmm1
    6306:	f3 0f 10 05 b2 00 01 	movss  0x100b2(%rip),%xmm0        # 163c0 <g_1978+0x1340>
    630d:	00 
    630e:	0f 2f c1             	comiss %xmm1,%xmm0
    6311:	0f 97 c0             	seta   %al
    6314:	83 f0 01             	xor    $0x1,%eax
    6317:	84 c0                	test   %al,%al
    6319:	75 56                	jne    6371 <safe_div_func_float_f_f+0x8d>
    631b:	66 0f ef c0          	pxor   %xmm0,%xmm0
    631f:	0f 2e 45 f8          	ucomiss -0x8(%rbp),%xmm0
    6323:	7a 0a                	jp     632f <safe_div_func_float_f_f+0x4b>
    6325:	66 0f ef c0          	pxor   %xmm0,%xmm0
    6329:	0f 2e 45 f8          	ucomiss -0x8(%rbp),%xmm0
    632d:	74 4e                	je     637d <safe_div_func_float_f_f+0x99>
    632f:	f3 0f 10 4d fc       	movss  -0x4(%rbp),%xmm1
    6334:	f3 0f 10 05 88 00 01 	movss  0x10088(%rip),%xmm0        # 163c4 <g_1978+0x1344>
    633b:	00 
    633c:	f3 0f 59 c1          	mulss  %xmm1,%xmm0
    6340:	f3 0f 10 55 f8       	movss  -0x8(%rbp),%xmm2
    6345:	f3 0f 10 0d 7b 00 01 	movss  0x1007b(%rip),%xmm1        # 163c8 <g_1978+0x1348>
    634c:	00 
    634d:	f3 0f 59 ca          	mulss  %xmm2,%xmm1
    6351:	f3 0f 5e c1          	divss  %xmm1,%xmm0
    6355:	f3 0f 10 0d 43 00 01 	movss  0x10043(%rip),%xmm1        # 163a0 <g_1978+0x1320>
    635c:	00 
    635d:	0f 54 c1             	andps  %xmm1,%xmm0
    6360:	0f 2f 05 65 00 01 00 	comiss 0x10065(%rip),%xmm0        # 163cc <g_1978+0x134c>
    6367:	0f 97 c0             	seta   %al
    636a:	83 f0 01             	xor    $0x1,%eax
    636d:	84 c0                	test   %al,%al
    636f:	74 0c                	je     637d <safe_div_func_float_f_f+0x99>
    6371:	f3 0f 10 45 fc       	movss  -0x4(%rbp),%xmm0
    6376:	f3 0f 5e 45 f8       	divss  -0x8(%rbp),%xmm0
    637b:	eb 05                	jmp    6382 <safe_div_func_float_f_f+0x9e>
    637d:	f3 0f 10 45 fc       	movss  -0x4(%rbp),%xmm0
    6382:	5d                   	pop    %rbp
    6383:	c3                   	retq   

0000000000006384 <safe_add_func_double_f_f>:
    6384:	f3 0f 1e fa          	endbr64 
    6388:	55                   	push   %rbp
    6389:	48 89 e5             	mov    %rsp,%rbp
    638c:	f2 0f 11 45 f8       	movsd  %xmm0,-0x8(%rbp)
    6391:	f2 0f 11 4d f0       	movsd  %xmm1,-0x10(%rbp)
    6396:	f2 0f 10 4d f8       	movsd  -0x8(%rbp),%xmm1
    639b:	f2 0f 10 05 2d 00 01 	movsd  0x1002d(%rip),%xmm0        # 163d0 <g_1978+0x1350>
    63a2:	00 
    63a3:	f2 0f 59 c8          	mulsd  %xmm0,%xmm1
    63a7:	f2 0f 10 55 f0       	movsd  -0x10(%rbp),%xmm2
    63ac:	f2 0f 10 05 1c 00 01 	movsd  0x1001c(%rip),%xmm0        # 163d0 <g_1978+0x1350>
    63b3:	00 
    63b4:	f2 0f 59 c2          	mulsd  %xmm2,%xmm0
    63b8:	f2 0f 58 c1          	addsd  %xmm1,%xmm0
    63bc:	f3 0f 7e 0d 1c 00 01 	movq   0x1001c(%rip),%xmm1        # 163e0 <g_1978+0x1360>
    63c3:	00 
    63c4:	66 0f 54 c1          	andpd  %xmm1,%xmm0
    63c8:	66 0f 2f 05 20 00 01 	comisd 0x10020(%rip),%xmm0        # 163f0 <g_1978+0x1370>
    63cf:	00 
    63d0:	76 07                	jbe    63d9 <safe_add_func_double_f_f+0x55>
    63d2:	f2 0f 10 45 f8       	movsd  -0x8(%rbp),%xmm0
    63d7:	eb 0a                	jmp    63e3 <safe_add_func_double_f_f+0x5f>
    63d9:	f2 0f 10 45 f8       	movsd  -0x8(%rbp),%xmm0
    63de:	f2 0f 58 45 f0       	addsd  -0x10(%rbp),%xmm0
    63e3:	5d                   	pop    %rbp
    63e4:	c3                   	retq   

00000000000063e5 <safe_sub_func_double_f_f>:
    63e5:	f3 0f 1e fa          	endbr64 
    63e9:	55                   	push   %rbp
    63ea:	48 89 e5             	mov    %rsp,%rbp
    63ed:	f2 0f 11 45 f8       	movsd  %xmm0,-0x8(%rbp)
    63f2:	f2 0f 11 4d f0       	movsd  %xmm1,-0x10(%rbp)
    63f7:	f2 0f 10 4d f8       	movsd  -0x8(%rbp),%xmm1
    63fc:	f2 0f 10 05 cc ff 00 	movsd  0xffcc(%rip),%xmm0        # 163d0 <g_1978+0x1350>
    6403:	00 
    6404:	f2 0f 59 c1          	mulsd  %xmm1,%xmm0
    6408:	f2 0f 10 55 f0       	movsd  -0x10(%rbp),%xmm2
    640d:	f2 0f 10 0d bb ff 00 	movsd  0xffbb(%rip),%xmm1        # 163d0 <g_1978+0x1350>
    6414:	00 
    6415:	f2 0f 59 ca          	mulsd  %xmm2,%xmm1
    6419:	f2 0f 5c c1          	subsd  %xmm1,%xmm0
    641d:	f3 0f 7e 0d bb ff 00 	movq   0xffbb(%rip),%xmm1        # 163e0 <g_1978+0x1360>
    6424:	00 
    6425:	66 0f 54 c1          	andpd  %xmm1,%xmm0
    6429:	66 0f 2f 05 bf ff 00 	comisd 0xffbf(%rip),%xmm0        # 163f0 <g_1978+0x1370>
    6430:	00 
    6431:	76 07                	jbe    643a <safe_sub_func_double_f_f+0x55>
    6433:	f2 0f 10 45 f8       	movsd  -0x8(%rbp),%xmm0
    6438:	eb 0a                	jmp    6444 <safe_sub_func_double_f_f+0x5f>
    643a:	f2 0f 10 45 f8       	movsd  -0x8(%rbp),%xmm0
    643f:	f2 0f 5c 45 f0       	subsd  -0x10(%rbp),%xmm0
    6444:	5d                   	pop    %rbp
    6445:	c3                   	retq   

0000000000006446 <safe_mul_func_double_f_f>:
    6446:	f3 0f 1e fa          	endbr64 
    644a:	55                   	push   %rbp
    644b:	48 89 e5             	mov    %rsp,%rbp
    644e:	f2 0f 11 45 f8       	movsd  %xmm0,-0x8(%rbp)
    6453:	f2 0f 11 4d f0       	movsd  %xmm1,-0x10(%rbp)
    6458:	f2 0f 10 4d f8       	movsd  -0x8(%rbp),%xmm1
    645d:	f2 0f 10 05 93 ff 00 	movsd  0xff93(%rip),%xmm0        # 163f8 <g_1978+0x1378>
    6464:	00 
    6465:	f2 0f 59 c8          	mulsd  %xmm0,%xmm1
    6469:	f2 0f 10 55 f0       	movsd  -0x10(%rbp),%xmm2
    646e:	f2 0f 10 05 8a ff 00 	movsd  0xff8a(%rip),%xmm0        # 16400 <g_1978+0x1380>
    6475:	00 
    6476:	f2 0f 59 c2          	mulsd  %xmm2,%xmm0
    647a:	f2 0f 59 c1          	mulsd  %xmm1,%xmm0
    647e:	f3 0f 7e 0d 5a ff 00 	movq   0xff5a(%rip),%xmm1        # 163e0 <g_1978+0x1360>
    6485:	00 
    6486:	66 0f 54 c1          	andpd  %xmm1,%xmm0
    648a:	66 0f 2f 05 76 ff 00 	comisd 0xff76(%rip),%xmm0        # 16408 <g_1978+0x1388>
    6491:	00 
    6492:	76 07                	jbe    649b <safe_mul_func_double_f_f+0x55>
    6494:	f2 0f 10 45 f8       	movsd  -0x8(%rbp),%xmm0
    6499:	eb 0a                	jmp    64a5 <safe_mul_func_double_f_f+0x5f>
    649b:	f2 0f 10 45 f8       	movsd  -0x8(%rbp),%xmm0
    64a0:	f2 0f 59 45 f0       	mulsd  -0x10(%rbp),%xmm0
    64a5:	5d                   	pop    %rbp
    64a6:	c3                   	retq   

00000000000064a7 <safe_div_func_double_f_f>:
    64a7:	f3 0f 1e fa          	endbr64 
    64ab:	55                   	push   %rbp
    64ac:	48 89 e5             	mov    %rsp,%rbp
    64af:	f2 0f 11 45 f8       	movsd  %xmm0,-0x8(%rbp)
    64b4:	f2 0f 11 4d f0       	movsd  %xmm1,-0x10(%rbp)
    64b9:	f2 0f 10 45 f0       	movsd  -0x10(%rbp),%xmm0
    64be:	f3 0f 7e 0d 1a ff 00 	movq   0xff1a(%rip),%xmm1        # 163e0 <g_1978+0x1360>
    64c5:	00 
    64c6:	66 0f 54 c8          	andpd  %xmm0,%xmm1
    64ca:	f2 0f 10 05 3e ff 00 	movsd  0xff3e(%rip),%xmm0        # 16410 <g_1978+0x1390>
    64d1:	00 
    64d2:	66 0f 2f c1          	comisd %xmm1,%xmm0
    64d6:	0f 97 c0             	seta   %al
    64d9:	83 f0 01             	xor    $0x1,%eax
    64dc:	84 c0                	test   %al,%al
    64de:	75 5a                	jne    653a <safe_div_func_double_f_f+0x93>
    64e0:	66 0f ef c0          	pxor   %xmm0,%xmm0
    64e4:	66 0f 2e 45 f0       	ucomisd -0x10(%rbp),%xmm0
    64e9:	7a 0b                	jp     64f6 <safe_div_func_double_f_f+0x4f>
    64eb:	66 0f ef c0          	pxor   %xmm0,%xmm0
    64ef:	66 0f 2e 45 f0       	ucomisd -0x10(%rbp),%xmm0
    64f4:	74 50                	je     6546 <safe_div_func_double_f_f+0x9f>
    64f6:	f2 0f 10 4d f8       	movsd  -0x8(%rbp),%xmm1
    64fb:	f2 0f 10 05 15 ff 00 	movsd  0xff15(%rip),%xmm0        # 16418 <g_1978+0x1398>
    6502:	00 
    6503:	f2 0f 59 c1          	mulsd  %xmm1,%xmm0
    6507:	f2 0f 10 55 f0       	movsd  -0x10(%rbp),%xmm2
    650c:	f2 0f 10 0d 0c ff 00 	movsd  0xff0c(%rip),%xmm1        # 16420 <g_1978+0x13a0>
    6513:	00 
    6514:	f2 0f 59 ca          	mulsd  %xmm2,%xmm1
    6518:	f2 0f 5e c1          	divsd  %xmm1,%xmm0
    651c:	f3 0f 7e 0d bc fe 00 	movq   0xfebc(%rip),%xmm1        # 163e0 <g_1978+0x1360>
    6523:	00 
    6524:	66 0f 54 c1          	andpd  %xmm1,%xmm0
    6528:	66 0f 2f 05 f8 fe 00 	comisd 0xfef8(%rip),%xmm0        # 16428 <g_1978+0x13a8>
    652f:	00 
    6530:	0f 97 c0             	seta   %al
    6533:	83 f0 01             	xor    $0x1,%eax
    6536:	84 c0                	test   %al,%al
    6538:	74 0c                	je     6546 <safe_div_func_double_f_f+0x9f>
    653a:	f2 0f 10 45 f8       	movsd  -0x8(%rbp),%xmm0
    653f:	f2 0f 5e 45 f0       	divsd  -0x10(%rbp),%xmm0
    6544:	eb 05                	jmp    654b <safe_div_func_double_f_f+0xa4>
    6546:	f2 0f 10 45 f8       	movsd  -0x8(%rbp),%xmm0
    654b:	5d                   	pop    %rbp
    654c:	c3                   	retq   

000000000000654d <safe_convert_func_float_to_int32_t>:
    654d:	f3 0f 1e fa          	endbr64 
    6551:	55                   	push   %rbp
    6552:	48 89 e5             	mov    %rsp,%rbp
    6555:	f3 0f 11 45 fc       	movss  %xmm0,-0x4(%rbp)
    655a:	f3 0f 10 05 ce fe 00 	movss  0xfece(%rip),%xmm0        # 16430 <g_1978+0x13b0>
    6561:	00 
    6562:	0f 2f 45 fc          	comiss -0x4(%rbp),%xmm0
    6566:	0f 93 c0             	setae  %al
    6569:	83 f0 01             	xor    $0x1,%eax
    656c:	84 c0                	test   %al,%al
    656e:	74 21                	je     6591 <safe_convert_func_float_to_int32_t+0x44>
    6570:	f3 0f 10 45 fc       	movss  -0x4(%rbp),%xmm0
    6575:	0f 2f 05 b8 fe 00 00 	comiss 0xfeb8(%rip),%xmm0        # 16434 <g_1978+0x13b4>
    657c:	0f 93 c0             	setae  %al
    657f:	83 f0 01             	xor    $0x1,%eax
    6582:	84 c0                	test   %al,%al
    6584:	74 0b                	je     6591 <safe_convert_func_float_to_int32_t+0x44>
    6586:	f3 0f 10 45 fc       	movss  -0x4(%rbp),%xmm0
    658b:	f3 0f 2c c0          	cvttss2si %xmm0,%eax
    658f:	eb 05                	jmp    6596 <safe_convert_func_float_to_int32_t+0x49>
    6591:	b8 ff ff ff 7f       	mov    $0x7fffffff,%eax
    6596:	5d                   	pop    %rbp
    6597:	c3                   	retq   

0000000000006598 <crc32_gentab>:
    6598:	f3 0f 1e fa          	endbr64 
    659c:	55                   	push   %rbp
    659d:	48 89 e5             	mov    %rsp,%rbp
    65a0:	c7 45 fc 20 83 b8 ed 	movl   $0xedb88320,-0x4(%rbp)
    65a7:	c7 45 f4 00 00 00 00 	movl   $0x0,-0xc(%rbp)
    65ae:	eb 51                	jmp    6601 <crc32_gentab+0x69>
    65b0:	8b 45 f4             	mov    -0xc(%rbp),%eax
    65b3:	89 45 f0             	mov    %eax,-0x10(%rbp)
    65b6:	c7 45 f8 08 00 00 00 	movl   $0x8,-0x8(%rbp)
    65bd:	eb 1e                	jmp    65dd <crc32_gentab+0x45>
    65bf:	8b 45 f0             	mov    -0x10(%rbp),%eax
    65c2:	83 e0 01             	and    $0x1,%eax
    65c5:	85 c0                	test   %eax,%eax
    65c7:	74 0d                	je     65d6 <crc32_gentab+0x3e>
    65c9:	8b 45 f0             	mov    -0x10(%rbp),%eax
    65cc:	d1 e8                	shr    %eax
    65ce:	33 45 fc             	xor    -0x4(%rbp),%eax
    65d1:	89 45 f0             	mov    %eax,-0x10(%rbp)
    65d4:	eb 03                	jmp    65d9 <crc32_gentab+0x41>
    65d6:	d1 6d f0             	shrl   -0x10(%rbp)
    65d9:	83 6d f8 01          	subl   $0x1,-0x8(%rbp)
    65dd:	83 7d f8 00          	cmpl   $0x0,-0x8(%rbp)
    65e1:	7f dc                	jg     65bf <crc32_gentab+0x27>
    65e3:	8b 45 f4             	mov    -0xc(%rbp),%eax
    65e6:	48 98                	cltq   
    65e8:	48 8d 0c 85 00 00 00 	lea    0x0(,%rax,4),%rcx
    65ef:	00 
    65f0:	48 8d 15 89 4e 01 00 	lea    0x14e89(%rip),%rdx        # 1b480 <crc32_tab>
    65f7:	8b 45 f0             	mov    -0x10(%rbp),%eax
    65fa:	89 04 11             	mov    %eax,(%rcx,%rdx,1)
    65fd:	83 45 f4 01          	addl   $0x1,-0xc(%rbp)
    6601:	81 7d f4 ff 00 00 00 	cmpl   $0xff,-0xc(%rbp)
    6608:	7e a6                	jle    65b0 <crc32_gentab+0x18>
    660a:	90                   	nop
    660b:	90                   	nop
    660c:	5d                   	pop    %rbp
    660d:	c3                   	retq   

000000000000660e <crc32_byte>:
    660e:	f3 0f 1e fa          	endbr64 
    6612:	55                   	push   %rbp
    6613:	48 89 e5             	mov    %rsp,%rbp
    6616:	89 f8                	mov    %edi,%eax
    6618:	88 45 fc             	mov    %al,-0x4(%rbp)
    661b:	8b 05 ff 29 01 00    	mov    0x129ff(%rip),%eax        # 19020 <crc32_context>
    6621:	c1 e8 08             	shr    $0x8,%eax
    6624:	89 c1                	mov    %eax,%ecx
    6626:	0f b6 55 fc          	movzbl -0x4(%rbp),%edx
    662a:	8b 05 f0 29 01 00    	mov    0x129f0(%rip),%eax        # 19020 <crc32_context>
    6630:	31 d0                	xor    %edx,%eax
    6632:	0f b6 c0             	movzbl %al,%eax
    6635:	89 c0                	mov    %eax,%eax
    6637:	48 8d 14 85 00 00 00 	lea    0x0(,%rax,4),%rdx
    663e:	00 
    663f:	48 8d 05 3a 4e 01 00 	lea    0x14e3a(%rip),%rax        # 1b480 <crc32_tab>
    6646:	8b 04 02             	mov    (%rdx,%rax,1),%eax
    6649:	31 c8                	xor    %ecx,%eax
    664b:	89 05 cf 29 01 00    	mov    %eax,0x129cf(%rip)        # 19020 <crc32_context>
    6651:	90                   	nop
    6652:	5d                   	pop    %rbp
    6653:	c3                   	retq   

0000000000006654 <crc32_8bytes>:
    6654:	f3 0f 1e fa          	endbr64 
    6658:	55                   	push   %rbp
    6659:	48 89 e5             	mov    %rsp,%rbp
    665c:	48 83 ec 08          	sub    $0x8,%rsp
    6660:	48 89 7d f8          	mov    %rdi,-0x8(%rbp)
    6664:	48 8b 45 f8          	mov    -0x8(%rbp),%rax
    6668:	0f b6 c0             	movzbl %al,%eax
    666b:	89 c7                	mov    %eax,%edi
    666d:	e8 9c ff ff ff       	callq  660e <crc32_byte>
    6672:	48 8b 45 f8          	mov    -0x8(%rbp),%rax
    6676:	48 c1 e8 08          	shr    $0x8,%rax
    667a:	0f b6 c0             	movzbl %al,%eax
    667d:	89 c7                	mov    %eax,%edi
    667f:	e8 8a ff ff ff       	callq  660e <crc32_byte>
    6684:	48 8b 45 f8          	mov    -0x8(%rbp),%rax
    6688:	48 c1 e8 10          	shr    $0x10,%rax
    668c:	0f b6 c0             	movzbl %al,%eax
    668f:	89 c7                	mov    %eax,%edi
    6691:	e8 78 ff ff ff       	callq  660e <crc32_byte>
    6696:	48 8b 45 f8          	mov    -0x8(%rbp),%rax
    669a:	48 c1 e8 18          	shr    $0x18,%rax
    669e:	0f b6 c0             	movzbl %al,%eax
    66a1:	89 c7                	mov    %eax,%edi
    66a3:	e8 66 ff ff ff       	callq  660e <crc32_byte>
    66a8:	48 8b 45 f8          	mov    -0x8(%rbp),%rax
    66ac:	48 c1 e8 20          	shr    $0x20,%rax
    66b0:	0f b6 c0             	movzbl %al,%eax
    66b3:	89 c7                	mov    %eax,%edi
    66b5:	e8 54 ff ff ff       	callq  660e <crc32_byte>
    66ba:	48 8b 45 f8          	mov    -0x8(%rbp),%rax
    66be:	48 c1 e8 28          	shr    $0x28,%rax
    66c2:	0f b6 c0             	movzbl %al,%eax
    66c5:	89 c7                	mov    %eax,%edi
    66c7:	e8 42 ff ff ff       	callq  660e <crc32_byte>
    66cc:	48 8b 45 f8          	mov    -0x8(%rbp),%rax
    66d0:	48 c1 e8 30          	shr    $0x30,%rax
    66d4:	0f b6 c0             	movzbl %al,%eax
    66d7:	89 c7                	mov    %eax,%edi
    66d9:	e8 30 ff ff ff       	callq  660e <crc32_byte>
    66de:	48 8b 45 f8          	mov    -0x8(%rbp),%rax
    66e2:	48 c1 e8 38          	shr    $0x38,%rax
    66e6:	0f b6 c0             	movzbl %al,%eax
    66e9:	89 c7                	mov    %eax,%edi
    66eb:	e8 1e ff ff ff       	callq  660e <crc32_byte>
    66f0:	90                   	nop
    66f1:	c9                   	leaveq 
    66f2:	c3                   	retq   

00000000000066f3 <transparent_crc>:
    66f3:	f3 0f 1e fa          	endbr64 
    66f7:	55                   	push   %rbp
    66f8:	48 89 e5             	mov    %rsp,%rbp
    66fb:	48 83 ec 20          	sub    $0x20,%rsp
    66ff:	48 89 7d f8          	mov    %rdi,-0x8(%rbp)
    6703:	48 89 75 f0          	mov    %rsi,-0x10(%rbp)
    6707:	89 55 ec             	mov    %edx,-0x14(%rbp)
    670a:	48 8b 45 f8          	mov    -0x8(%rbp),%rax
    670e:	48 89 c7             	mov    %rax,%rdi
    6711:	e8 3e ff ff ff       	callq  6654 <crc32_8bytes>
    6716:	83 7d ec 00          	cmpl   $0x0,-0x14(%rbp)
    671a:	74 22                	je     673e <transparent_crc+0x4b>
    671c:	8b 05 fe 28 01 00    	mov    0x128fe(%rip),%eax        # 19020 <crc32_context>
    6722:	f7 d0                	not    %eax
    6724:	89 c2                	mov    %eax,%edx
    6726:	48 8b 45 f0          	mov    -0x10(%rbp),%rax
    672a:	48 89 c6             	mov    %rax,%rsi
    672d:	48 8d 3d fc e8 00 00 	lea    0xe8fc(%rip),%rdi        # 15030 <_IO_stdin_used+0x30>
    6734:	b8 00 00 00 00       	mov    $0x0,%eax
    6739:	e8 42 e9 ff ff       	callq  5080 <printf@plt>
    673e:	90                   	nop
    673f:	c9                   	leaveq 
    6740:	c3                   	retq   

0000000000006741 <transparent_crc_bytes>:
    6741:	f3 0f 1e fa          	endbr64 
    6745:	55                   	push   %rbp
    6746:	48 89 e5             	mov    %rsp,%rbp
    6749:	48 83 ec 30          	sub    $0x30,%rsp
    674d:	48 89 7d e8          	mov    %rdi,-0x18(%rbp)
    6751:	89 75 e4             	mov    %esi,-0x1c(%rbp)
    6754:	48 89 55 d8          	mov    %rdx,-0x28(%rbp)
    6758:	89 4d e0             	mov    %ecx,-0x20(%rbp)
    675b:	c7 45 fc 00 00 00 00 	movl   $0x0,-0x4(%rbp)
    6762:	eb 1e                	jmp    6782 <transparent_crc_bytes+0x41>
    6764:	8b 45 fc             	mov    -0x4(%rbp),%eax
    6767:	48 63 d0             	movslq %eax,%rdx
    676a:	48 8b 45 e8          	mov    -0x18(%rbp),%rax
    676e:	48 01 d0             	add    %rdx,%rax
    6771:	0f b6 00             	movzbl (%rax),%eax
    6774:	0f b6 c0             	movzbl %al,%eax
    6777:	89 c7                	mov    %eax,%edi
    6779:	e8 90 fe ff ff       	callq  660e <crc32_byte>
    677e:	83 45 fc 01          	addl   $0x1,-0x4(%rbp)
    6782:	8b 45 fc             	mov    -0x4(%rbp),%eax
    6785:	3b 45 e4             	cmp    -0x1c(%rbp),%eax
    6788:	7c da                	jl     6764 <transparent_crc_bytes+0x23>
    678a:	83 7d e0 00          	cmpl   $0x0,-0x20(%rbp)
    678e:	74 22                	je     67b2 <transparent_crc_bytes+0x71>
    6790:	8b 05 8a 28 01 00    	mov    0x1288a(%rip),%eax        # 19020 <crc32_context>
    6796:	f7 d0                	not    %eax
    6798:	89 c2                	mov    %eax,%edx
    679a:	48 8b 45 d8          	mov    -0x28(%rbp),%rax
    679e:	48 89 c6             	mov    %rax,%rsi
    67a1:	48 8d 3d 88 e8 00 00 	lea    0xe888(%rip),%rdi        # 15030 <_IO_stdin_used+0x30>
    67a8:	b8 00 00 00 00       	mov    $0x0,%eax
    67ad:	e8 ce e8 ff ff       	callq  5080 <printf@plt>
    67b2:	90                   	nop
    67b3:	c9                   	leaveq 
    67b4:	c3                   	retq   

00000000000067b5 <func_1>:
    67b5:	f3 0f 1e fa          	endbr64 
    67b9:	55                   	push   %rbp
    67ba:	48 89 e5             	mov    %rsp,%rbp
    67bd:	48 81 ec 00 09 00 00 	sub    $0x900,%rsp
    67c4:	64 48 8b 04 25 28 00 	mov    %fs:0x28,%rax
    67cb:	00 00 
    67cd:	48 89 45 f8          	mov    %rax,-0x8(%rbp)
    67d1:	31 c0                	xor    %eax,%eax
    67d3:	48 8d 85 10 f8 ff ff 	lea    -0x7f0(%rbp),%rax
    67da:	48 8d 15 1f 35 01 00 	lea    0x1351f(%rip),%rdx        # 19d00 <g_2123+0x10>
    67e1:	b9 fc 00 00 00       	mov    $0xfc,%ecx
    67e6:	48 89 c7             	mov    %rax,%rdi
    67e9:	48 89 d6             	mov    %rdx,%rsi
    67ec:	f3 48 a5             	rep movsq %ds:(%rsi),%es:(%rdi)
    67ef:	c7 85 14 f7 ff ff fd 	movl   $0xfffffffd,-0x8ec(%rbp)
    67f6:	ff ff ff 
    67f9:	48 8d 05 70 2f 01 00 	lea    0x12f70(%rip),%rax        # 19770 <g_265>
    6800:	48 89 85 70 f7 ff ff 	mov    %rax,-0x890(%rbp)
    6807:	48 8d 05 62 2f 01 00 	lea    0x12f62(%rip),%rax        # 19770 <g_265>
    680e:	48 89 85 78 f7 ff ff 	mov    %rax,-0x888(%rbp)
    6815:	48 8d 05 2c 33 01 00 	lea    0x1332c(%rip),%rax        # 19b48 <g_1640>
    681c:	48 89 85 80 f7 ff ff 	mov    %rax,-0x880(%rbp)
    6823:	48 8d 05 46 2f 01 00 	lea    0x12f46(%rip),%rax        # 19770 <g_265>
    682a:	48 89 85 88 f7 ff ff 	mov    %rax,-0x878(%rbp)
    6831:	48 8d 05 38 2f 01 00 	lea    0x12f38(%rip),%rax        # 19770 <g_265>
    6838:	48 89 85 90 f7 ff ff 	mov    %rax,-0x870(%rbp)
    683f:	48 8d 05 2a 2f 01 00 	lea    0x12f2a(%rip),%rax        # 19770 <g_265>
    6846:	48 89 85 98 f7 ff ff 	mov    %rax,-0x868(%rbp)
    684d:	48 8d 05 1c 2f 01 00 	lea    0x12f1c(%rip),%rax        # 19770 <g_265>
    6854:	48 89 85 a0 f7 ff ff 	mov    %rax,-0x860(%rbp)
    685b:	48 8d 05 e6 32 01 00 	lea    0x132e6(%rip),%rax        # 19b48 <g_1640>
    6862:	48 89 85 a8 f7 ff ff 	mov    %rax,-0x858(%rbp)
    6869:	48 8d 05 00 2f 01 00 	lea    0x12f00(%rip),%rax        # 19770 <g_265>
    6870:	48 89 85 b0 f7 ff ff 	mov    %rax,-0x850(%rbp)
    6877:	48 8d 05 f2 2e 01 00 	lea    0x12ef2(%rip),%rax        # 19770 <g_265>
    687e:	48 89 85 b8 f7 ff ff 	mov    %rax,-0x848(%rbp)
    6885:	48 8d 05 e4 2e 01 00 	lea    0x12ee4(%rip),%rax        # 19770 <g_265>
    688c:	48 89 85 c0 f7 ff ff 	mov    %rax,-0x840(%rbp)
    6893:	48 8d 05 d6 2e 01 00 	lea    0x12ed6(%rip),%rax        # 19770 <g_265>
    689a:	48 89 85 c8 f7 ff ff 	mov    %rax,-0x838(%rbp)
    68a1:	48 8d 05 a0 32 01 00 	lea    0x132a0(%rip),%rax        # 19b48 <g_1640>
    68a8:	48 89 85 d0 f7 ff ff 	mov    %rax,-0x830(%rbp)
    68af:	48 8d 05 ba 2e 01 00 	lea    0x12eba(%rip),%rax        # 19770 <g_265>
    68b6:	48 89 85 d8 f7 ff ff 	mov    %rax,-0x828(%rbp)
    68bd:	48 8d 05 ac 2e 01 00 	lea    0x12eac(%rip),%rax        # 19770 <g_265>
    68c4:	48 89 85 e0 f7 ff ff 	mov    %rax,-0x820(%rbp)
    68cb:	48 8d 05 9e 2e 01 00 	lea    0x12e9e(%rip),%rax        # 19770 <g_265>
    68d2:	48 89 85 e8 f7 ff ff 	mov    %rax,-0x818(%rbp)
    68d9:	48 8d 05 90 2e 01 00 	lea    0x12e90(%rip),%rax        # 19770 <g_265>
    68e0:	48 89 85 f0 f7 ff ff 	mov    %rax,-0x810(%rbp)
    68e7:	48 8d 05 5a 32 01 00 	lea    0x1325a(%rip),%rax        # 19b48 <g_1640>
    68ee:	48 89 85 f8 f7 ff ff 	mov    %rax,-0x808(%rbp)
    68f5:	48 8d 05 74 2e 01 00 	lea    0x12e74(%rip),%rax        # 19770 <g_265>
    68fc:	48 89 85 00 f8 ff ff 	mov    %rax,-0x800(%rbp)
    6903:	48 8d 05 66 2e 01 00 	lea    0x12e66(%rip),%rax        # 19770 <g_265>
    690a:	48 89 85 08 f8 ff ff 	mov    %rax,-0x7f8(%rbp)
    6911:	48 c7 85 20 f7 ff ff 	movq   $0x0,-0x8e0(%rbp)
    6918:	00 00 00 00 
    691c:	66 c7 85 0c f7 ff ff 	movw   $0xea86,-0x8f4(%rbp)
    6923:	86 ea 
    6925:	48 c7 85 28 f7 ff ff 	movq   $0x7,-0x8d8(%rbp)
    692c:	07 00 00 00 
    6930:	48 8d 05 e9 53 01 00 	lea    0x153e9(%rip),%rax        # 1bd20 <g_1745>
    6937:	48 89 85 30 f7 ff ff 	mov    %rax,-0x8d0(%rbp)
    693e:	66 c7 85 0e f7 ff ff 	movw   $0x8705,-0x8f2(%rbp)
    6945:	05 87 
    6947:	48 8d 05 e2 31 01 00 	lea    0x131e2(%rip),%rax        # 19b30 <g_1332>
    694e:	48 89 85 38 f7 ff ff 	mov    %rax,-0x8c8(%rbp)
    6955:	c7 85 18 f7 ff ff 03 	movl   $0x3,-0x8e8(%rbp)
    695c:	00 00 00 
    695f:	c7 85 1c f7 ff ff 8c 	movl   $0xd779508c,-0x8e4(%rbp)
    6966:	50 79 d7 
    6969:	48 8d 05 18 48 01 00 	lea    0x14818(%rip),%rax        # 1b188 <g_396>
    6970:	48 89 85 40 f7 ff ff 	mov    %rax,-0x8c0(%rbp)
    6977:	66 c7 85 50 f7 ff ff 	movw   $0x2,-0x8b0(%rbp)
    697e:	02 00 
    6980:	66 c7 85 52 f7 ff ff 	movw   $0x2,-0x8ae(%rbp)
    6987:	02 00 
    6989:	66 c7 85 54 f7 ff ff 	movw   $0x2,-0x8ac(%rbp)
    6990:	02 00 
    6992:	66 c7 85 56 f7 ff ff 	movw   $0x2,-0x8aa(%rbp)
    6999:	02 00 
    699b:	66 c7 85 58 f7 ff ff 	movw   $0x2,-0x8a8(%rbp)
    69a2:	02 00 
    69a4:	66 c7 85 5a f7 ff ff 	movw   $0x2,-0x8a6(%rbp)
    69ab:	02 00 
    69ad:	66 c7 85 5c f7 ff ff 	movw   $0x2,-0x8a4(%rbp)
    69b4:	02 00 
    69b6:	66 c7 85 5e f7 ff ff 	movw   $0x2,-0x8a2(%rbp)
    69bd:	02 00 
    69bf:	66 c7 85 60 f7 ff ff 	movw   $0x2,-0x8a0(%rbp)
    69c6:	02 00 
    69c8:	66 c7 85 62 f7 ff ff 	movw   $0x2,-0x89e(%rbp)
    69cf:	02 00 
    69d1:	66 c7 85 64 f7 ff ff 	movw   $0x2,-0x89c(%rbp)
    69d8:	02 00 
    69da:	66 c7 85 66 f7 ff ff 	movw   $0x2,-0x89a(%rbp)
    69e1:	02 00 
    69e3:	66 c7 85 68 f7 ff ff 	movw   $0x2,-0x898(%rbp)
    69ea:	02 00 
    69ec:	66 c7 85 6a f7 ff ff 	movw   $0x2,-0x896(%rbp)
    69f3:	02 00 
    69f5:	66 c7 85 6c f7 ff ff 	movw   $0x2,-0x894(%rbp)
    69fc:	02 00 
    69fe:	66 c7 85 6e f7 ff ff 	movw   $0x2,-0x892(%rbp)
    6a05:	02 00 
    6a07:	c7 85 10 f7 ff ff 00 	movl   $0x0,-0x8f0(%rbp)
    6a0e:	00 00 00 
    6a11:	eb 19                	jmp    6a2c <func_1+0x277>
    6a13:	8b 85 10 f7 ff ff    	mov    -0x8f0(%rbp),%eax
    6a19:	48 98                	cltq   
    6a1b:	66 c7 84 45 4a f7 ff 	movw   $0x4,-0x8b6(%rbp,%rax,2)
    6a22:	ff 04 00 
    6a25:	83 85 10 f7 ff ff 01 	addl   $0x1,-0x8f0(%rbp)
    6a2c:	83 bd 10 f7 ff ff 02 	cmpl   $0x2,-0x8f0(%rbp)
    6a33:	7e de                	jle    6a13 <func_1+0x25e>
    6a35:	48 8b 05 4c 4e 01 00 	mov    0x14e4c(%rip),%rax        # 1b888 <g_2>
    6a3c:	48 89 05 45 4e 01 00 	mov    %rax,0x14e45(%rip)        # 1b888 <g_2>
    6a43:	0f b7 85 4c f7 ff ff 	movzwl -0x8b4(%rbp),%eax
    6a4a:	0f b7 c0             	movzwl %ax,%eax
    6a4d:	48 8b 55 f8          	mov    -0x8(%rbp),%rdx
    6a51:	64 48 33 14 25 28 00 	xor    %fs:0x28,%rdx
    6a58:	00 00 
    6a5a:	74 05                	je     6a61 <func_1+0x2ac>
    6a5c:	e8 0f e6 ff ff       	callq  5070 <__stack_chk_fail@plt>
    6a61:	c9                   	leaveq 
    6a62:	c3                   	retq   

0000000000006a63 <func_8>:
    6a63:	f3 0f 1e fa          	endbr64 
    6a67:	55                   	push   %rbp
    6a68:	48 89 e5             	mov    %rsp,%rbp
    6a6b:	48 81 ec 10 03 00 00 	sub    $0x310,%rsp
    6a72:	48 89 bd 18 fd ff ff 	mov    %rdi,-0x2e8(%rbp)
    6a79:	48 89 b5 10 fd ff ff 	mov    %rsi,-0x2f0(%rbp)
    6a80:	48 89 95 08 fd ff ff 	mov    %rdx,-0x2f8(%rbp)
    6a87:	48 89 8d 00 fd ff ff 	mov    %rcx,-0x300(%rbp)
    6a8e:	4c 89 85 f8 fc ff ff 	mov    %r8,-0x308(%rbp)
    6a95:	64 48 8b 04 25 28 00 	mov    %fs:0x28,%rax
    6a9c:	00 00 
    6a9e:	48 89 45 f8          	mov    %rax,-0x8(%rbp)
    6aa2:	31 c0                	xor    %eax,%eax
    6aa4:	48 c7 85 38 fd ff ff 	movq   $0x0,-0x2c8(%rbp)
    6aab:	00 00 00 00 
    6aaf:	48 8d 05 0a 2d 01 00 	lea    0x12d0a(%rip),%rax        # 197c0 <g_632>
    6ab6:	48 89 85 40 fd ff ff 	mov    %rax,-0x2c0(%rbp)
    6abd:	c7 85 28 fd ff ff f5 	movl   $0x8e7ad3f5,-0x2d8(%rbp)
    6ac4:	d3 7a 8e 
    6ac7:	c7 85 2c fd ff ff 3f 	movl   $0xc6ec053f,-0x2d4(%rbp)
    6ace:	05 ec c6 
    6ad1:	48 8d 05 80 27 01 00 	lea    0x12780(%rip),%rax        # 19258 <g_92+0x218>
    6ad8:	48 89 85 48 fd ff ff 	mov    %rax,-0x2b8(%rbp)
    6adf:	c7 85 30 fd ff ff 08 	movl   $0xb88e9008,-0x2d0(%rbp)
    6ae6:	90 8e b8 
    6ae9:	48 8d 05 d0 2c 01 00 	lea    0x12cd0(%rip),%rax        # 197c0 <g_632>
    6af0:	48 89 85 50 fd ff ff 	mov    %rax,-0x2b0(%rbp)
    6af7:	c7 85 34 fd ff ff 00 	movl   $0x0,-0x2cc(%rbp)
    6afe:	00 00 00 
    6b01:	48 8d 05 70 2c 01 00 	lea    0x12c70(%rip),%rax        # 19778 <g_266>
    6b08:	48 89 85 58 fd ff ff 	mov    %rax,-0x2a8(%rbp)
    6b0f:	48 b8 d9 f7 f2 54 e0 	movabs $0x9529a7e054f2f7d9,%rax
    6b16:	a7 29 95 
    6b19:	48 89 85 60 fd ff ff 	mov    %rax,-0x2a0(%rbp)
    6b20:	48 c7 85 68 fd ff ff 	movq   $0x0,-0x298(%rbp)
    6b27:	00 00 00 00 
    6b2b:	c7 85 20 fd ff ff 00 	movl   $0x0,-0x2e0(%rbp)
    6b32:	00 00 00 
    6b35:	eb 51                	jmp    6b88 <func_8+0x125>
    6b37:	c7 85 24 fd ff ff 00 	movl   $0x0,-0x2dc(%rbp)
    6b3e:	00 00 00 
    6b41:	eb 35                	jmp    6b78 <func_8+0x115>
    6b43:	8b 85 24 fd ff ff    	mov    -0x2dc(%rbp),%eax
    6b49:	48 63 c8             	movslq %eax,%rcx
    6b4c:	8b 85 20 fd ff ff    	mov    -0x2e0(%rbp),%eax
    6b52:	48 63 d0             	movslq %eax,%rdx
    6b55:	48 89 d0             	mov    %rdx,%rax
    6b58:	48 c1 e0 03          	shl    $0x3,%rax
    6b5c:	48 01 d0             	add    %rdx,%rax
    6b5f:	48 01 c8             	add    %rcx,%rax
    6b62:	48 8d 15 1f 2c 01 00 	lea    0x12c1f(%rip),%rdx        # 19788 <g_268>
    6b69:	48 89 94 c5 70 fd ff 	mov    %rdx,-0x290(%rbp,%rax,8)
    6b70:	ff 
    6b71:	83 85 24 fd ff ff 01 	addl   $0x1,-0x2dc(%rbp)
    6b78:	83 bd 24 fd ff ff 08 	cmpl   $0x8,-0x2dc(%rbp)
    6b7f:	7e c2                	jle    6b43 <func_8+0xe0>
    6b81:	83 85 20 fd ff ff 01 	addl   $0x1,-0x2e0(%rbp)
    6b88:	83 bd 20 fd ff ff 08 	cmpl   $0x8,-0x2e0(%rbp)
    6b8f:	7e a6                	jle    6b37 <func_8+0xd4>
    6b91:	48 83 85 60 fd ff ff 	addq   $0x1,-0x2a0(%rbp)
    6b98:	01 
    6b99:	48 8d 05 b0 45 01 00 	lea    0x145b0(%rip),%rax        # 1b150 <g_82>
    6ba0:	48 89 85 68 fd ff ff 	mov    %rax,-0x298(%rbp)
    6ba7:	48 8b 85 f8 fc ff ff 	mov    -0x308(%rbp),%rax
    6bae:	48 8b 75 f8          	mov    -0x8(%rbp),%rsi
    6bb2:	64 48 33 34 25 28 00 	xor    %fs:0x28,%rsi
    6bb9:	00 00 
    6bbb:	74 05                	je     6bc2 <func_8+0x15f>
    6bbd:	e8 ae e4 ff ff       	callq  5070 <__stack_chk_fail@plt>
    6bc2:	c9                   	leaveq 
    6bc3:	c3                   	retq   

0000000000006bc4 <func_14>:
    6bc4:	f3 0f 1e fa          	endbr64 
    6bc8:	55                   	push   %rbp
    6bc9:	48 89 e5             	mov    %rsp,%rbp
    6bcc:	48 83 ec 20          	sub    $0x20,%rsp
    6bd0:	89 7d ec             	mov    %edi,-0x14(%rbp)
    6bd3:	48 89 75 e0          	mov    %rsi,-0x20(%rbp)
    6bd7:	89 d0                	mov    %edx,%eax
    6bd9:	66 89 45 e8          	mov    %ax,-0x18(%rbp)
    6bdd:	48 c7 45 f8 00 00 00 	movq   $0x0,-0x8(%rbp)
    6be4:	00 
    6be5:	c7 45 f4 24 45 8c f6 	movl   $0xf68c4524,-0xc(%rbp)
    6bec:	48 8b 45 f8          	mov    -0x8(%rbp),%rax
    6bf0:	0f be c0             	movsbl %al,%eax
    6bf3:	be 04 00 00 00       	mov    $0x4,%esi
    6bf8:	89 c7                	mov    %eax,%edi
    6bfa:	e8 ef e6 ff ff       	callq  52ee <safe_lshift_func_int8_t_s_u>
    6bff:	0f be c0             	movsbl %al,%eax
    6c02:	21 45 f4             	and    %eax,-0xc(%rbp)
    6c05:	8b 45 ec             	mov    -0x14(%rbp),%eax
    6c08:	c9                   	leaveq 
    6c09:	c3                   	retq   

0000000000006c0a <func_23>:
    6c0a:	f3 0f 1e fa          	endbr64 
    6c0e:	55                   	push   %rbp
    6c0f:	48 89 e5             	mov    %rsp,%rbp
    6c12:	41 54                	push   %r12
    6c14:	53                   	push   %rbx
    6c15:	48 81 ec 10 0c 00 00 	sub    $0xc10,%rsp
    6c1c:	89 bd ec f3 ff ff    	mov    %edi,-0xc14(%rbp)
    6c22:	48 89 b5 e0 f3 ff ff 	mov    %rsi,-0xc20(%rbp)
    6c29:	89 95 e8 f3 ff ff    	mov    %edx,-0xc18(%rbp)
    6c2f:	64 48 8b 04 25 28 00 	mov    %fs:0x28,%rax
    6c36:	00 00 
    6c38:	48 89 45 e8          	mov    %rax,-0x18(%rbp)
    6c3c:	31 c0                	xor    %eax,%eax
    6c3e:	c7 85 1c f4 ff ff 92 	movl   $0x4d4ee392,-0xbe4(%rbp)
    6c45:	e3 4e 4d 
    6c48:	48 8d 05 19 2f 01 00 	lea    0x12f19(%rip),%rax        # 19b68 <g_1655>
    6c4f:	48 89 85 50 f4 ff ff 	mov    %rax,-0xbb0(%rbp)
    6c56:	48 8d 05 33 45 01 00 	lea    0x14533(%rip),%rax        # 1b190 <g_395>
    6c5d:	48 89 85 58 f4 ff ff 	mov    %rax,-0xba8(%rbp)
    6c64:	48 8d 05 95 50 01 00 	lea    0x15095(%rip),%rax        # 1bd00 <g_944>
    6c6b:	48 89 85 38 f4 ff ff 	mov    %rax,-0xbc8(%rbp)
    6c72:	48 8d 85 38 f4 ff ff 	lea    -0xbc8(%rbp),%rax
    6c79:	48 89 85 60 f4 ff ff 	mov    %rax,-0xba0(%rbp)
    6c80:	c7 85 20 f4 ff ff 33 	movl   $0x1293c933,-0xbe0(%rbp)
    6c87:	c9 93 12 
    6c8a:	c7 85 24 f4 ff ff e5 	movl   $0x8cff70e5,-0xbdc(%rbp)
    6c91:	70 ff 8c 
    6c94:	c7 85 40 f5 ff ff eb 	movl   $0x2a90e8eb,-0xac0(%rbp)
    6c9b:	e8 90 2a 
    6c9e:	c7 85 44 f5 ff ff eb 	movl   $0x2a90e8eb,-0xabc(%rbp)
    6ca5:	e8 90 2a 
    6ca8:	c7 85 48 f5 ff ff eb 	movl   $0x2a90e8eb,-0xab8(%rbp)
    6caf:	e8 90 2a 
    6cb2:	c7 85 4c f5 ff ff eb 	movl   $0x2a90e8eb,-0xab4(%rbp)
    6cb9:	e8 90 2a 
    6cbc:	c7 85 50 f5 ff ff eb 	movl   $0x2a90e8eb,-0xab0(%rbp)
    6cc3:	e8 90 2a 
    6cc6:	c7 85 54 f5 ff ff eb 	movl   $0x2a90e8eb,-0xaac(%rbp)
    6ccd:	e8 90 2a 
    6cd0:	c7 85 58 f5 ff ff eb 	movl   $0x2a90e8eb,-0xaa8(%rbp)
    6cd7:	e8 90 2a 
    6cda:	c7 85 5c f5 ff ff eb 	movl   $0x2a90e8eb,-0xaa4(%rbp)
    6ce1:	e8 90 2a 
    6ce4:	c7 85 60 f5 ff ff eb 	movl   $0x2a90e8eb,-0xaa0(%rbp)
    6ceb:	e8 90 2a 
    6cee:	c7 85 64 f5 ff ff eb 	movl   $0x2a90e8eb,-0xa9c(%rbp)
    6cf5:	e8 90 2a 
    6cf8:	c7 85 68 f5 ff ff eb 	movl   $0x2a90e8eb,-0xa98(%rbp)
    6cff:	e8 90 2a 
    6d02:	c7 85 6c f5 ff ff eb 	movl   $0x2a90e8eb,-0xa94(%rbp)
    6d09:	e8 90 2a 
    6d0c:	c7 85 70 f5 ff ff eb 	movl   $0x2a90e8eb,-0xa90(%rbp)
    6d13:	e8 90 2a 
    6d16:	c7 85 74 f5 ff ff eb 	movl   $0x2a90e8eb,-0xa8c(%rbp)
    6d1d:	e8 90 2a 
    6d20:	c6 05 05 23 01 00 00 	movb   $0x0,0x12305(%rip)        # 1902c <g_54>
    6d27:	90                   	nop
    6d28:	0f b6 05 fd 22 01 00 	movzbl 0x122fd(%rip),%eax        # 1902c <g_54>
    6d2f:	3c e3                	cmp    $0xe3,%al
    6d31:	0f 85 f7 17 00 00    	jne    852e <func_23+0x1924>
    6d37:	c7 85 00 f4 ff ff 03 	movl   $0xc8aec303,-0xc00(%rbp)
    6d3e:	c3 ae c8 
    6d41:	c7 85 80 f5 ff ff 06 	movl   $0x6,-0xa80(%rbp)
    6d48:	00 00 00 
    6d4b:	c7 85 84 f5 ff ff 67 	movl   $0x722e7067,-0xa7c(%rbp)
    6d52:	70 2e 72 
    6d55:	c7 85 88 f5 ff ff 67 	movl   $0x722e7067,-0xa78(%rbp)
    6d5c:	70 2e 72 
    6d5f:	c7 85 8c f5 ff ff 06 	movl   $0x6,-0xa74(%rbp)
    6d66:	00 00 00 
    6d69:	c7 85 90 f5 ff ff 05 	movl   $0x5,-0xa70(%rbp)
    6d70:	00 00 00 
    6d73:	c7 85 94 f5 ff ff f8 	movl   $0xfffffff8,-0xa6c(%rbp)
    6d7a:	ff ff ff 
    6d7d:	c7 85 98 f5 ff ff 05 	movl   $0x5,-0xa68(%rbp)
    6d84:	00 00 00 
    6d87:	c7 85 9c f5 ff ff 06 	movl   $0x6,-0xa64(%rbp)
    6d8e:	00 00 00 
    6d91:	c7 85 a0 f5 ff ff 67 	movl   $0x722e7067,-0xa60(%rbp)
    6d98:	70 2e 72 
    6d9b:	c7 85 a4 f5 ff ff 67 	movl   $0x722e7067,-0xa5c(%rbp)
    6da2:	70 2e 72 
    6da5:	c7 85 a8 f5 ff ff 06 	movl   $0x6,-0xa58(%rbp)
    6dac:	00 00 00 
    6daf:	c7 85 ac f5 ff ff 05 	movl   $0x5,-0xa54(%rbp)
    6db6:	00 00 00 
    6db9:	c7 85 b0 f5 ff ff f8 	movl   $0xfffffff8,-0xa50(%rbp)
    6dc0:	ff ff ff 
    6dc3:	c7 85 b4 f5 ff ff 05 	movl   $0x5,-0xa4c(%rbp)
    6dca:	00 00 00 
    6dcd:	c7 85 e0 f4 ff ff 14 	movl   $0x41578414,-0xb20(%rbp)
    6dd4:	84 57 41 
    6dd7:	c7 85 e4 f4 ff ff ff 	movl   $0xffffffff,-0xb1c(%rbp)
    6dde:	ff ff ff 
    6de1:	c7 85 e8 f4 ff ff ff 	movl   $0xffffffff,-0xb18(%rbp)
    6de8:	ff ff ff 
    6deb:	c7 85 ec f4 ff ff 14 	movl   $0x41578414,-0xb14(%rbp)
    6df2:	84 57 41 
    6df5:	c7 85 f0 f4 ff ff ff 	movl   $0xffffffff,-0xb10(%rbp)
    6dfc:	ff ff ff 
    6dff:	c7 85 f4 f4 ff ff ff 	movl   $0xffffffff,-0xb0c(%rbp)
    6e06:	ff ff ff 
    6e09:	c7 85 f8 f4 ff ff 14 	movl   $0x41578414,-0xb08(%rbp)
    6e10:	84 57 41 
    6e13:	c7 85 fc f4 ff ff ff 	movl   $0xffffffff,-0xb04(%rbp)
    6e1a:	ff ff ff 
    6e1d:	c7 85 00 f5 ff ff ff 	movl   $0xffffffff,-0xb00(%rbp)
    6e24:	ff ff ff 
    6e27:	c7 85 04 f5 ff ff 14 	movl   $0x41578414,-0xafc(%rbp)
    6e2e:	84 57 41 
    6e31:	c6 05 b7 29 01 00 00 	movb   $0x0,0x129b7(%rip)        # 197ef <g_805>
    6e38:	e9 d8 16 00 00       	jmpq   8515 <func_23+0x190b>
    6e3d:	c7 85 28 f4 ff ff 39 	movl   $0xe4d1b539,-0xbd8(%rbp)
    6e44:	b5 d1 e4 
    6e47:	48 8d 05 b2 4e 01 00 	lea    0x14eb2(%rip),%rax        # 1bd00 <g_944>
    6e4e:	48 89 85 68 f4 ff ff 	mov    %rax,-0xb98(%rbp)
    6e55:	48 c7 85 40 f4 ff ff 	movq   $0x0,-0xbc0(%rbp)
    6e5c:	00 00 00 00 
    6e60:	c7 85 2c f4 ff ff 7e 	movl   $0xec30f07e,-0xbd4(%rbp)
    6e67:	f0 30 ec 
    6e6a:	c7 85 fc f3 ff ff 06 	movl   $0x6,-0xc04(%rbp)
    6e71:	00 00 00 
    6e74:	c7 85 10 f7 ff ff 78 	movl   $0x4d70f178,-0x8f0(%rbp)
    6e7b:	f1 70 4d 
    6e7e:	c7 85 14 f7 ff ff 72 	movl   $0x72530172,-0x8ec(%rbp)
    6e85:	01 53 72 
    6e88:	c7 85 18 f7 ff ff 78 	movl   $0x4d70f178,-0x8e8(%rbp)
    6e8f:	f1 70 4d 
    6e92:	c7 85 1c f7 ff ff 78 	movl   $0x4d70f178,-0x8e4(%rbp)
    6e99:	f1 70 4d 
    6e9c:	c7 85 20 f7 ff ff 72 	movl   $0x72530172,-0x8e0(%rbp)
    6ea3:	01 53 72 
    6ea6:	c7 85 24 f7 ff ff 78 	movl   $0x4d70f178,-0x8dc(%rbp)
    6ead:	f1 70 4d 
    6eb0:	c7 85 28 f7 ff ff 78 	movl   $0x4d70f178,-0x8d8(%rbp)
    6eb7:	f1 70 4d 
    6eba:	c7 85 2c f7 ff ff 72 	movl   $0x72530172,-0x8d4(%rbp)
    6ec1:	01 53 72 
    6ec4:	c7 85 30 f7 ff ff 78 	movl   $0x4d70f178,-0x8d0(%rbp)
    6ecb:	f1 70 4d 
    6ece:	c7 85 34 f7 ff ff 78 	movl   $0x4d70f178,-0x8cc(%rbp)
    6ed5:	f1 70 4d 
    6ed8:	c7 85 38 f7 ff ff 72 	movl   $0x72530172,-0x8c8(%rbp)
    6edf:	01 53 72 
    6ee2:	c7 85 3c f7 ff ff 78 	movl   $0x4d70f178,-0x8c4(%rbp)
    6ee9:	f1 70 4d 
    6eec:	c7 85 40 f7 ff ff 78 	movl   $0x4d70f178,-0x8c0(%rbp)
    6ef3:	f1 70 4d 
    6ef6:	c7 85 44 f7 ff ff 72 	movl   $0x72530172,-0x8bc(%rbp)
    6efd:	01 53 72 
    6f00:	c7 85 48 f7 ff ff 78 	movl   $0x4d70f178,-0x8b8(%rbp)
    6f07:	f1 70 4d 
    6f0a:	c7 85 4c f7 ff ff 78 	movl   $0x4d70f178,-0x8b4(%rbp)
    6f11:	f1 70 4d 
    6f14:	c7 85 50 f7 ff ff 72 	movl   $0x72530172,-0x8b0(%rbp)
    6f1b:	01 53 72 
    6f1e:	c7 85 54 f7 ff ff 78 	movl   $0x4d70f178,-0x8ac(%rbp)
    6f25:	f1 70 4d 
    6f28:	c7 85 58 f7 ff ff 78 	movl   $0x4d70f178,-0x8a8(%rbp)
    6f2f:	f1 70 4d 
    6f32:	c7 85 5c f7 ff ff 72 	movl   $0x72530172,-0x8a4(%rbp)
    6f39:	01 53 72 
    6f3c:	c7 85 60 f7 ff ff 78 	movl   $0x4d70f178,-0x8a0(%rbp)
    6f43:	f1 70 4d 
    6f46:	c7 85 64 f7 ff ff 78 	movl   $0x4d70f178,-0x89c(%rbp)
    6f4d:	f1 70 4d 
    6f50:	c7 85 68 f7 ff ff 72 	movl   $0x72530172,-0x898(%rbp)
    6f57:	01 53 72 
    6f5a:	c7 85 6c f7 ff ff 78 	movl   $0x4d70f178,-0x894(%rbp)
    6f61:	f1 70 4d 
    6f64:	c7 85 70 f7 ff ff 78 	movl   $0x4d70f178,-0x890(%rbp)
    6f6b:	f1 70 4d 
    6f6e:	c7 85 74 f7 ff ff 72 	movl   $0x72530172,-0x88c(%rbp)
    6f75:	01 53 72 
    6f78:	c7 85 78 f7 ff ff 78 	movl   $0x4d70f178,-0x888(%rbp)
    6f7f:	f1 70 4d 
    6f82:	c7 85 7c f7 ff ff 78 	movl   $0x4d70f178,-0x884(%rbp)
    6f89:	f1 70 4d 
    6f8c:	c7 85 80 f7 ff ff 72 	movl   $0x72530172,-0x880(%rbp)
    6f93:	01 53 72 
    6f96:	c7 85 84 f7 ff ff 78 	movl   $0x4d70f178,-0x87c(%rbp)
    6f9d:	f1 70 4d 
    6fa0:	c7 85 88 f7 ff ff 78 	movl   $0x4d70f178,-0x878(%rbp)
    6fa7:	f1 70 4d 
    6faa:	c7 85 8c f7 ff ff 72 	movl   $0x72530172,-0x874(%rbp)
    6fb1:	01 53 72 
    6fb4:	c7 85 90 f7 ff ff 78 	movl   $0x4d70f178,-0x870(%rbp)
    6fbb:	f1 70 4d 
    6fbe:	c7 85 94 f7 ff ff 78 	movl   $0x4d70f178,-0x86c(%rbp)
    6fc5:	f1 70 4d 
    6fc8:	c7 85 98 f7 ff ff 72 	movl   $0x72530172,-0x868(%rbp)
    6fcf:	01 53 72 
    6fd2:	c7 85 9c f7 ff ff 78 	movl   $0x4d70f178,-0x864(%rbp)
    6fd9:	f1 70 4d 
    6fdc:	c7 85 30 f4 ff ff ff 	movl   $0xffffffff,-0xbd0(%rbp)
    6fe3:	ff ff ff 
    6fe6:	c7 85 04 f4 ff ff 00 	movl   $0x0,-0xbfc(%rbp)
    6fed:	00 00 00 
    6ff0:	eb 4e                	jmp    7040 <func_23+0x436>
    6ff2:	c7 85 08 f4 ff ff 00 	movl   $0x0,-0xbf8(%rbp)
    6ff9:	00 00 00 
    6ffc:	eb 32                	jmp    7030 <func_23+0x426>
    6ffe:	8b 85 08 f4 ff ff    	mov    -0xbf8(%rbp),%eax
    7004:	48 63 c8             	movslq %eax,%rcx
    7007:	8b 85 04 f4 ff ff    	mov    -0xbfc(%rbp),%eax
    700d:	48 63 d0             	movslq %eax,%rdx
    7010:	48 89 d0             	mov    %rdx,%rax
    7013:	48 c1 e0 03          	shl    $0x3,%rax
    7017:	48 01 d0             	add    %rdx,%rax
    701a:	48 01 c8             	add    %rcx,%rax
    701d:	48 c7 84 c5 80 f6 ff 	movq   $0x1,-0x980(%rbp,%rax,8)
    7024:	ff 01 00 00 00 
    7029:	83 85 08 f4 ff ff 01 	addl   $0x1,-0xbf8(%rbp)
    7030:	83 bd 08 f4 ff ff 08 	cmpl   $0x8,-0xbf8(%rbp)
    7037:	7e c5                	jle    6ffe <func_23+0x3f4>
    7039:	83 85 04 f4 ff ff 01 	addl   $0x1,-0xbfc(%rbp)
    7040:	83 bd 04 f4 ff ff 01 	cmpl   $0x1,-0xbfc(%rbp)
    7047:	7e a9                	jle    6ff2 <func_23+0x3e8>
    7049:	c7 05 dd 2a 01 00 1d 	movl   $0x1d,0x12add(%rip)        # 19b30 <g_1332>
    7050:	00 00 00 
    7053:	e9 90 14 00 00       	jmpq   84e8 <func_23+0x18de>
    7058:	66 c7 85 fa f3 ff ff 	movw   $0x21f3,-0xc06(%rbp)
    705f:	f3 21 
    7061:	48 8d 05 e0 2a 01 00 	lea    0x12ae0(%rip),%rax        # 19b48 <g_1640>
    7068:	48 89 85 00 f6 ff ff 	mov    %rax,-0xa00(%rbp)
    706f:	48 8d 05 da 2a 01 00 	lea    0x12ada(%rip),%rax        # 19b50 <g_1641>
    7076:	48 89 85 08 f6 ff ff 	mov    %rax,-0x9f8(%rbp)
    707d:	48 8d 05 c4 2a 01 00 	lea    0x12ac4(%rip),%rax        # 19b48 <g_1640>
    7084:	48 89 85 10 f6 ff ff 	mov    %rax,-0x9f0(%rbp)
    708b:	48 8d 05 b6 2a 01 00 	lea    0x12ab6(%rip),%rax        # 19b48 <g_1640>
    7092:	48 89 85 18 f6 ff ff 	mov    %rax,-0x9e8(%rbp)
    7099:	48 8d 05 b0 2a 01 00 	lea    0x12ab0(%rip),%rax        # 19b50 <g_1641>
    70a0:	48 89 85 20 f6 ff ff 	mov    %rax,-0x9e0(%rbp)
    70a7:	48 8d 05 9a 2a 01 00 	lea    0x12a9a(%rip),%rax        # 19b48 <g_1640>
    70ae:	48 89 85 28 f6 ff ff 	mov    %rax,-0x9d8(%rbp)
    70b5:	48 8d 05 8c 2a 01 00 	lea    0x12a8c(%rip),%rax        # 19b48 <g_1640>
    70bc:	48 89 85 30 f6 ff ff 	mov    %rax,-0x9d0(%rbp)
    70c3:	48 8d 05 86 2a 01 00 	lea    0x12a86(%rip),%rax        # 19b50 <g_1641>
    70ca:	48 89 85 38 f6 ff ff 	mov    %rax,-0x9c8(%rbp)
    70d1:	48 8d 05 60 2a 01 00 	lea    0x12a60(%rip),%rax        # 19b38 <g_1529>
    70d8:	48 89 85 70 f4 ff ff 	mov    %rax,-0xb90(%rbp)
    70df:	48 8d 05 8c 24 01 00 	lea    0x1248c(%rip),%rax        # 19572 <g_172+0x112>
    70e6:	48 89 85 48 f4 ff ff 	mov    %rax,-0xbb8(%rbp)
    70ed:	48 8d 05 9c 40 01 00 	lea    0x1409c(%rip),%rax        # 1b190 <g_395>
    70f4:	48 89 85 78 f4 ff ff 	mov    %rax,-0xb88(%rbp)
    70fb:	c7 85 10 f5 ff ff fe 	movl   $0xfffffffe,-0xaf0(%rbp)
    7102:	ff ff ff 
    7105:	c7 85 14 f5 ff ff 00 	movl   $0x0,-0xaec(%rbp)
    710c:	00 00 00 
    710f:	c7 85 18 f5 ff ff fe 	movl   $0xfffffffe,-0xae8(%rbp)
    7116:	ff ff ff 
    7119:	c7 85 1c f5 ff ff 00 	movl   $0x0,-0xae4(%rbp)
    7120:	00 00 00 
    7123:	c7 85 20 f5 ff ff fe 	movl   $0xfffffffe,-0xae0(%rbp)
    712a:	ff ff ff 
    712d:	c7 85 24 f5 ff ff 00 	movl   $0x0,-0xadc(%rbp)
    7134:	00 00 00 
    7137:	c7 85 28 f5 ff ff fe 	movl   $0xfffffffe,-0xad8(%rbp)
    713e:	ff ff ff 
    7141:	c7 85 2c f5 ff ff 00 	movl   $0x0,-0xad4(%rbp)
    7148:	00 00 00 
    714b:	c7 85 30 f5 ff ff fe 	movl   $0xfffffffe,-0xad0(%rbp)
    7152:	ff ff ff 
    7155:	c7 85 34 f5 ff ff 00 	movl   $0x0,-0xacc(%rbp)
    715c:	00 00 00 
    715f:	48 8d 05 12 26 01 00 	lea    0x12612(%rip),%rax        # 19778 <g_266>
    7166:	48 89 85 80 f4 ff ff 	mov    %rax,-0xb80(%rbp)
    716d:	48 c7 85 88 f4 ff ff 	movq   $0x0,-0xb78(%rbp)
    7174:	00 00 00 00 
    7178:	48 c7 85 90 f4 ff ff 	movq   $0x0,-0xb70(%rbp)
    717f:	00 00 00 00 
    7183:	48 c7 85 98 f4 ff ff 	movq   $0x0,-0xb68(%rbp)
    718a:	00 00 00 00 
    718e:	48 8d 05 bb 29 01 00 	lea    0x129bb(%rip),%rax        # 19b50 <g_1641>
    7195:	48 89 85 a0 f4 ff ff 	mov    %rax,-0xb60(%rbp)
    719c:	c7 85 0c f4 ff ff ff 	movl   $0xffffffff,-0xbf4(%rbp)
    71a3:	ff ff ff 
    71a6:	c7 85 10 f4 ff ff 00 	movl   $0x0,-0xbf0(%rbp)
    71ad:	00 00 00 
    71b0:	eb 4a                	jmp    71fc <func_23+0x5f2>
    71b2:	c7 85 14 f4 ff ff 00 	movl   $0x0,-0xbec(%rbp)
    71b9:	00 00 00 
    71bc:	eb 2e                	jmp    71ec <func_23+0x5e2>
    71be:	8b 85 14 f4 ff ff    	mov    -0xbec(%rbp),%eax
    71c4:	48 98                	cltq   
    71c6:	8b 95 10 f4 ff ff    	mov    -0xbf0(%rbp),%edx
    71cc:	48 63 d2             	movslq %edx,%rdx
    71cf:	48 c1 e2 03          	shl    $0x3,%rdx
    71d3:	48 01 d0             	add    %rdx,%rax
    71d6:	48 8d 15 7b 20 01 00 	lea    0x1207b(%rip),%rdx        # 19258 <g_92+0x218>
    71dd:	48 89 94 c5 40 f6 ff 	mov    %rdx,-0x9c0(%rbp,%rax,8)
    71e4:	ff 
    71e5:	83 85 14 f4 ff ff 01 	addl   $0x1,-0xbec(%rbp)
    71ec:	83 bd 14 f4 ff ff 07 	cmpl   $0x7,-0xbec(%rbp)
    71f3:	7e c9                	jle    71be <func_23+0x5b4>
    71f5:	83 85 10 f4 ff ff 01 	addl   $0x1,-0xbf0(%rbp)
    71fc:	83 bd 10 f4 ff ff 00 	cmpl   $0x0,-0xbf0(%rbp)
    7203:	7e ad                	jle    71b2 <func_23+0x5a8>
    7205:	48 8b 05 6c 28 01 00 	mov    0x1286c(%rip),%rax        # 19a78 <g_1331+0x98>
    720c:	44 0f b7 e0          	movzwl %ax,%r12d
    7210:	8b 85 1c f4 ff ff    	mov    -0xbe4(%rbp),%eax
    7216:	48 63 d0             	movslq %eax,%rdx
    7219:	8b 85 1c f4 ff ff    	mov    -0xbe4(%rbp),%eax
    721f:	48 98                	cltq   
    7221:	48 89 d6             	mov    %rdx,%rsi
    7224:	48 89 c7             	mov    %rax,%rdi
    7227:	e8 15 e6 ff ff       	callq  5841 <safe_add_func_int64_t_s_s>
    722c:	48 8b 85 70 f4 ff ff 	mov    -0xb90(%rbp),%rax
    7233:	48 8b 18             	mov    (%rax),%rbx
    7236:	48 8d 53 01          	lea    0x1(%rbx),%rdx
    723a:	48 8b 85 70 f4 ff ff 	mov    -0xb90(%rbp),%rax
    7241:	48 89 10             	mov    %rdx,(%rax)
    7244:	48 8d 15 cd 3f 01 00 	lea    0x13fcd(%rip),%rdx        # 1b218 <g_1651+0x18>
    724b:	48 8d 05 be 4a 01 00 	lea    0x14abe(%rip),%rax        # 1bd10 <g_1348>
    7252:	48 39 c2             	cmp    %rax,%rdx
    7255:	0f 95 c0             	setne  %al
    7258:	0f b6 d0             	movzbl %al,%edx
    725b:	0f b6 05 e6 28 01 00 	movzbl 0x128e6(%rip),%eax        # 19b48 <g_1640>
    7262:	0f b6 c0             	movzbl %al,%eax
    7265:	89 d6                	mov    %edx,%esi
    7267:	89 c7                	mov    %eax,%edi
    7269:	e8 1f ea ff ff       	callq  5c8d <safe_rshift_func_uint8_t_u_s>
    726e:	0f b6 c0             	movzbl %al,%eax
    7271:	48 89 c6             	mov    %rax,%rsi
    7274:	48 c7 c7 ff ff ff ff 	mov    $0xffffffffffffffff,%rdi
    727b:	e8 34 e7 ff ff       	callq  59b4 <safe_mod_func_int64_t_s_s>
    7280:	48 31 c3             	xor    %rax,%rbx
    7283:	48 89 da             	mov    %rbx,%rdx
    7286:	48 8b 05 1b 3f 01 00 	mov    0x13f1b(%rip),%rax        # 1b1a8 <g_782>
    728d:	48 8b 00             	mov    (%rax),%rax
    7290:	48 8b 00             	mov    (%rax),%rax
    7293:	48 8b 00             	mov    (%rax),%rax
    7296:	0f b7 00             	movzwl (%rax),%eax
    7299:	89 c1                	mov    %eax,%ecx
    729b:	89 d0                	mov    %edx,%eax
    729d:	21 c1                	and    %eax,%ecx
    729f:	89 ca                	mov    %ecx,%edx
    72a1:	48 8b 05 00 3f 01 00 	mov    0x13f00(%rip),%rax        # 1b1a8 <g_782>
    72a8:	48 8b 00             	mov    (%rax),%rax
    72ab:	48 8b 00             	mov    (%rax),%rax
    72ae:	48 8b 00             	mov    (%rax),%rax
    72b1:	66 89 10             	mov    %dx,(%rax)
    72b4:	0f b7 00             	movzwl (%rax),%eax
    72b7:	48 0f bf c0          	movswq %ax,%rax
    72bb:	48 89 85 f0 f6 ff ff 	mov    %rax,-0x910(%rbp)
    72c2:	48 8b 85 20 f6 ff ff 	mov    -0x9e0(%rbp),%rax
    72c9:	48 39 85 50 f4 ff ff 	cmp    %rax,-0xbb0(%rbp)
    72d0:	0f 95 c0             	setne  %al
    72d3:	0f b6 c0             	movzbl %al,%eax
    72d6:	be 0f 00 00 00       	mov    $0xf,%esi
    72db:	89 c7                	mov    %eax,%edi
    72dd:	e8 ff e1 ff ff       	callq  54e1 <safe_lshift_func_int16_t_s_u>
    72e2:	0f bf 95 fa f3 ff ff 	movswl -0xc06(%rbp),%edx
    72e9:	8b 85 28 f4 ff ff    	mov    -0xbd8(%rbp),%eax
    72ef:	c1 e8 1f             	shr    $0x1f,%eax
    72f2:	0f b6 c0             	movzbl %al,%eax
    72f5:	39 c2                	cmp    %eax,%edx
    72f7:	0f 94 c2             	sete   %dl
    72fa:	48 8b 85 48 f4 ff ff 	mov    -0xbb8(%rbp),%rax
    7301:	0f b6 d2             	movzbl %dl,%edx
    7304:	66 89 10             	mov    %dx,(%rax)
    7307:	0f b7 00             	movzwl (%rax),%eax
    730a:	0f b7 d0             	movzwl %ax,%edx
    730d:	0f b6 05 d2 24 01 00 	movzbl 0x124d2(%rip),%eax        # 197e6 <g_756>
    7314:	0f be c0             	movsbl %al,%eax
    7317:	39 c2                	cmp    %eax,%edx
    7319:	0f 95 c0             	setne  %al
    731c:	0f b6 c0             	movzbl %al,%eax
    731f:	44 89 e6             	mov    %r12d,%esi
    7322:	89 c7                	mov    %eax,%edi
    7324:	e8 33 ea ff ff       	callq  5d5c <safe_mod_func_uint16_t_u_u>
    7329:	0f b7 d0             	movzwl %ax,%edx
    732c:	8b 05 b6 24 01 00    	mov    0x124b6(%rip),%eax        # 197e8 <g_802>
    7332:	31 d0                	xor    %edx,%eax
    7334:	89 05 ae 24 01 00    	mov    %eax,0x124ae(%rip)        # 197e8 <g_802>
    733a:	48 8b 05 67 3e 01 00 	mov    0x13e67(%rip),%rax        # 1b1a8 <g_782>
    7341:	48 8b 95 78 f4 ff ff 	mov    -0xb88(%rbp),%rdx
    7348:	48 89 10             	mov    %rdx,(%rax)
    734b:	48 8b 00             	mov    (%rax),%rax
    734e:	48 39 85 58 f4 ff ff 	cmp    %rax,-0xba8(%rbp)
    7355:	0f 95 c0             	setne  %al
    7358:	0f b6 c0             	movzbl %al,%eax
    735b:	89 85 34 f5 ff ff    	mov    %eax,-0xacc(%rbp)
    7361:	8b 85 34 f5 ff ff    	mov    -0xacc(%rbp),%eax
    7367:	21 85 00 f4 ff ff    	and    %eax,-0xc00(%rbp)
    736d:	c7 05 79 24 01 00 09 	movl   $0x9,0x12479(%rip)        # 197f0 <g_806>
    7374:	00 00 00 
    7377:	e9 39 10 00 00       	jmpq   83b5 <func_23+0x17ab>
    737c:	48 8d 85 48 f4 ff ff 	lea    -0xbb8(%rbp),%rax
    7383:	48 89 85 a0 f7 ff ff 	mov    %rax,-0x860(%rbp)
    738a:	48 8d 05 6f 49 01 00 	lea    0x1496f(%rip),%rax        # 1bd00 <g_944>
    7391:	48 89 85 a8 f7 ff ff 	mov    %rax,-0x858(%rbp)
    7398:	48 8d 85 48 f4 ff ff 	lea    -0xbb8(%rbp),%rax
    739f:	48 89 85 b0 f7 ff ff 	mov    %rax,-0x850(%rbp)
    73a6:	48 8d 85 48 f4 ff ff 	lea    -0xbb8(%rbp),%rax
    73ad:	48 89 85 b8 f7 ff ff 	mov    %rax,-0x848(%rbp)
    73b4:	48 8d 85 48 f4 ff ff 	lea    -0xbb8(%rbp),%rax
    73bb:	48 89 85 c0 f7 ff ff 	mov    %rax,-0x840(%rbp)
    73c2:	48 8d 85 48 f4 ff ff 	lea    -0xbb8(%rbp),%rax
    73c9:	48 89 85 c8 f7 ff ff 	mov    %rax,-0x838(%rbp)
    73d0:	48 8d 85 48 f4 ff ff 	lea    -0xbb8(%rbp),%rax
    73d7:	48 89 85 d0 f7 ff ff 	mov    %rax,-0x830(%rbp)
    73de:	48 8d 05 1b 49 01 00 	lea    0x1491b(%rip),%rax        # 1bd00 <g_944>
    73e5:	48 89 85 d8 f7 ff ff 	mov    %rax,-0x828(%rbp)
    73ec:	48 8d 85 48 f4 ff ff 	lea    -0xbb8(%rbp),%rax
    73f3:	48 89 85 e0 f7 ff ff 	mov    %rax,-0x820(%rbp)
    73fa:	48 8d 05 ff 48 01 00 	lea    0x148ff(%rip),%rax        # 1bd00 <g_944>
    7401:	48 89 85 e8 f7 ff ff 	mov    %rax,-0x818(%rbp)
    7408:	48 8d 85 48 f4 ff ff 	lea    -0xbb8(%rbp),%rax
    740f:	48 89 85 f0 f7 ff ff 	mov    %rax,-0x810(%rbp)
    7416:	48 c7 85 f8 f7 ff ff 	movq   $0x0,-0x808(%rbp)
    741d:	00 00 00 00 
    7421:	48 8d 85 48 f4 ff ff 	lea    -0xbb8(%rbp),%rax
    7428:	48 89 85 00 f8 ff ff 	mov    %rax,-0x800(%rbp)
    742f:	48 c7 85 08 f8 ff ff 	movq   $0x0,-0x7f8(%rbp)
    7436:	00 00 00 00 
    743a:	48 8d 85 48 f4 ff ff 	lea    -0xbb8(%rbp),%rax
    7441:	48 89 85 10 f8 ff ff 	mov    %rax,-0x7f0(%rbp)
    7448:	48 8d 05 b1 48 01 00 	lea    0x148b1(%rip),%rax        # 1bd00 <g_944>
    744f:	48 89 85 18 f8 ff ff 	mov    %rax,-0x7e8(%rbp)
    7456:	48 8d 85 48 f4 ff ff 	lea    -0xbb8(%rbp),%rax
    745d:	48 89 85 20 f8 ff ff 	mov    %rax,-0x7e0(%rbp)
    7464:	48 8d 05 95 48 01 00 	lea    0x14895(%rip),%rax        # 1bd00 <g_944>
    746b:	48 89 85 28 f8 ff ff 	mov    %rax,-0x7d8(%rbp)
    7472:	48 8d 85 48 f4 ff ff 	lea    -0xbb8(%rbp),%rax
    7479:	48 89 85 30 f8 ff ff 	mov    %rax,-0x7d0(%rbp)
    7480:	48 8d 85 48 f4 ff ff 	lea    -0xbb8(%rbp),%rax
    7487:	48 89 85 38 f8 ff ff 	mov    %rax,-0x7c8(%rbp)
    748e:	48 8d 85 48 f4 ff ff 	lea    -0xbb8(%rbp),%rax
    7495:	48 89 85 40 f8 ff ff 	mov    %rax,-0x7c0(%rbp)
    749c:	48 8d 85 48 f4 ff ff 	lea    -0xbb8(%rbp),%rax
    74a3:	48 89 85 48 f8 ff ff 	mov    %rax,-0x7b8(%rbp)
    74aa:	48 8d 85 48 f4 ff ff 	lea    -0xbb8(%rbp),%rax
    74b1:	48 89 85 50 f8 ff ff 	mov    %rax,-0x7b0(%rbp)
    74b8:	48 8d 05 41 48 01 00 	lea    0x14841(%rip),%rax        # 1bd00 <g_944>
    74bf:	48 89 85 58 f8 ff ff 	mov    %rax,-0x7a8(%rbp)
    74c6:	48 8d 85 48 f4 ff ff 	lea    -0xbb8(%rbp),%rax
    74cd:	48 89 85 60 f8 ff ff 	mov    %rax,-0x7a0(%rbp)
    74d4:	48 8d 05 25 48 01 00 	lea    0x14825(%rip),%rax        # 1bd00 <g_944>
    74db:	48 89 85 68 f8 ff ff 	mov    %rax,-0x798(%rbp)
    74e2:	48 8d 85 48 f4 ff ff 	lea    -0xbb8(%rbp),%rax
    74e9:	48 89 85 70 f8 ff ff 	mov    %rax,-0x790(%rbp)
    74f0:	48 c7 85 78 f8 ff ff 	movq   $0x0,-0x788(%rbp)
    74f7:	00 00 00 00 
    74fb:	48 8d 85 48 f4 ff ff 	lea    -0xbb8(%rbp),%rax
    7502:	48 89 85 80 f8 ff ff 	mov    %rax,-0x780(%rbp)
    7509:	48 c7 85 88 f8 ff ff 	movq   $0x0,-0x778(%rbp)
    7510:	00 00 00 00 
    7514:	48 8d 85 48 f4 ff ff 	lea    -0xbb8(%rbp),%rax
    751b:	48 89 85 90 f8 ff ff 	mov    %rax,-0x770(%rbp)
    7522:	48 8d 05 d7 47 01 00 	lea    0x147d7(%rip),%rax        # 1bd00 <g_944>
    7529:	48 89 85 98 f8 ff ff 	mov    %rax,-0x768(%rbp)
    7530:	48 8d 85 48 f4 ff ff 	lea    -0xbb8(%rbp),%rax
    7537:	48 89 85 a0 f8 ff ff 	mov    %rax,-0x760(%rbp)
    753e:	48 8d 05 bb 47 01 00 	lea    0x147bb(%rip),%rax        # 1bd00 <g_944>
    7545:	48 89 85 a8 f8 ff ff 	mov    %rax,-0x758(%rbp)
    754c:	48 8d 85 48 f4 ff ff 	lea    -0xbb8(%rbp),%rax
    7553:	48 89 85 b0 f8 ff ff 	mov    %rax,-0x750(%rbp)
    755a:	48 8d 85 48 f4 ff ff 	lea    -0xbb8(%rbp),%rax
    7561:	48 89 85 b8 f8 ff ff 	mov    %rax,-0x748(%rbp)
    7568:	48 8d 85 48 f4 ff ff 	lea    -0xbb8(%rbp),%rax
    756f:	48 89 85 c0 f8 ff ff 	mov    %rax,-0x740(%rbp)
    7576:	48 8d 85 48 f4 ff ff 	lea    -0xbb8(%rbp),%rax
    757d:	48 89 85 c8 f8 ff ff 	mov    %rax,-0x738(%rbp)
    7584:	48 8d 85 48 f4 ff ff 	lea    -0xbb8(%rbp),%rax
    758b:	48 89 85 d0 f8 ff ff 	mov    %rax,-0x730(%rbp)
    7592:	48 8d 05 67 47 01 00 	lea    0x14767(%rip),%rax        # 1bd00 <g_944>
    7599:	48 89 85 d8 f8 ff ff 	mov    %rax,-0x728(%rbp)
    75a0:	48 8d 85 48 f4 ff ff 	lea    -0xbb8(%rbp),%rax
    75a7:	48 89 85 e0 f8 ff ff 	mov    %rax,-0x720(%rbp)
    75ae:	48 8d 05 4b 47 01 00 	lea    0x1474b(%rip),%rax        # 1bd00 <g_944>
    75b5:	48 89 85 e8 f8 ff ff 	mov    %rax,-0x718(%rbp)
    75bc:	48 8d 85 48 f4 ff ff 	lea    -0xbb8(%rbp),%rax
    75c3:	48 89 85 f0 f8 ff ff 	mov    %rax,-0x710(%rbp)
    75ca:	48 c7 85 f8 f8 ff ff 	movq   $0x0,-0x708(%rbp)
    75d1:	00 00 00 00 
    75d5:	48 8d 85 48 f4 ff ff 	lea    -0xbb8(%rbp),%rax
    75dc:	48 89 85 00 f9 ff ff 	mov    %rax,-0x700(%rbp)
    75e3:	48 c7 85 08 f9 ff ff 	movq   $0x0,-0x6f8(%rbp)
    75ea:	00 00 00 00 
    75ee:	48 8d 85 48 f4 ff ff 	lea    -0xbb8(%rbp),%rax
    75f5:	48 89 85 10 f9 ff ff 	mov    %rax,-0x6f0(%rbp)
    75fc:	48 8d 05 fd 46 01 00 	lea    0x146fd(%rip),%rax        # 1bd00 <g_944>
    7603:	48 89 85 18 f9 ff ff 	mov    %rax,-0x6e8(%rbp)
    760a:	48 8d 85 48 f4 ff ff 	lea    -0xbb8(%rbp),%rax
    7611:	48 89 85 20 f9 ff ff 	mov    %rax,-0x6e0(%rbp)
    7618:	48 8d 05 e1 46 01 00 	lea    0x146e1(%rip),%rax        # 1bd00 <g_944>
    761f:	48 89 85 28 f9 ff ff 	mov    %rax,-0x6d8(%rbp)
    7626:	48 8d 85 48 f4 ff ff 	lea    -0xbb8(%rbp),%rax
    762d:	48 89 85 30 f9 ff ff 	mov    %rax,-0x6d0(%rbp)
    7634:	48 8d 85 48 f4 ff ff 	lea    -0xbb8(%rbp),%rax
    763b:	48 89 85 38 f9 ff ff 	mov    %rax,-0x6c8(%rbp)
    7642:	48 8d 85 48 f4 ff ff 	lea    -0xbb8(%rbp),%rax
    7649:	48 89 85 40 f9 ff ff 	mov    %rax,-0x6c0(%rbp)
    7650:	48 8d 85 48 f4 ff ff 	lea    -0xbb8(%rbp),%rax
    7657:	48 89 85 48 f9 ff ff 	mov    %rax,-0x6b8(%rbp)
    765e:	48 8d 85 48 f4 ff ff 	lea    -0xbb8(%rbp),%rax
    7665:	48 89 85 50 f9 ff ff 	mov    %rax,-0x6b0(%rbp)
    766c:	48 8d 05 8d 46 01 00 	lea    0x1468d(%rip),%rax        # 1bd00 <g_944>
    7673:	48 89 85 58 f9 ff ff 	mov    %rax,-0x6a8(%rbp)
    767a:	48 8d 85 48 f4 ff ff 	lea    -0xbb8(%rbp),%rax
    7681:	48 89 85 60 f9 ff ff 	mov    %rax,-0x6a0(%rbp)
    7688:	48 8d 05 71 46 01 00 	lea    0x14671(%rip),%rax        # 1bd00 <g_944>
    768f:	48 89 85 68 f9 ff ff 	mov    %rax,-0x698(%rbp)
    7696:	48 8d 85 48 f4 ff ff 	lea    -0xbb8(%rbp),%rax
    769d:	48 89 85 70 f9 ff ff 	mov    %rax,-0x690(%rbp)
    76a4:	48 c7 85 78 f9 ff ff 	movq   $0x0,-0x688(%rbp)
    76ab:	00 00 00 00 
    76af:	48 8d 85 48 f4 ff ff 	lea    -0xbb8(%rbp),%rax
    76b6:	48 89 85 80 f9 ff ff 	mov    %rax,-0x680(%rbp)
    76bd:	48 c7 85 88 f9 ff ff 	movq   $0x0,-0x678(%rbp)
    76c4:	00 00 00 00 
    76c8:	48 8d 85 48 f4 ff ff 	lea    -0xbb8(%rbp),%rax
    76cf:	48 89 85 90 f9 ff ff 	mov    %rax,-0x670(%rbp)
    76d6:	48 8d 05 23 46 01 00 	lea    0x14623(%rip),%rax        # 1bd00 <g_944>
    76dd:	48 89 85 98 f9 ff ff 	mov    %rax,-0x668(%rbp)
    76e4:	48 8d 85 48 f4 ff ff 	lea    -0xbb8(%rbp),%rax
    76eb:	48 89 85 a0 f9 ff ff 	mov    %rax,-0x660(%rbp)
    76f2:	48 8d 05 07 46 01 00 	lea    0x14607(%rip),%rax        # 1bd00 <g_944>
    76f9:	48 89 85 a8 f9 ff ff 	mov    %rax,-0x658(%rbp)
    7700:	48 8d 85 48 f4 ff ff 	lea    -0xbb8(%rbp),%rax
    7707:	48 89 85 b0 f9 ff ff 	mov    %rax,-0x650(%rbp)
    770e:	48 8d 85 48 f4 ff ff 	lea    -0xbb8(%rbp),%rax
    7715:	48 89 85 b8 f9 ff ff 	mov    %rax,-0x648(%rbp)
    771c:	48 8d 85 48 f4 ff ff 	lea    -0xbb8(%rbp),%rax
    7723:	48 89 85 c0 f9 ff ff 	mov    %rax,-0x640(%rbp)
    772a:	48 8d 85 48 f4 ff ff 	lea    -0xbb8(%rbp),%rax
    7731:	48 89 85 c8 f9 ff ff 	mov    %rax,-0x638(%rbp)
    7738:	48 8d 85 48 f4 ff ff 	lea    -0xbb8(%rbp),%rax
    773f:	48 89 85 d0 f9 ff ff 	mov    %rax,-0x630(%rbp)
    7746:	48 8d 05 b3 45 01 00 	lea    0x145b3(%rip),%rax        # 1bd00 <g_944>
    774d:	48 89 85 d8 f9 ff ff 	mov    %rax,-0x628(%rbp)
    7754:	c7 85 34 f4 ff ff 1b 	movl   $0xb103401b,-0xbcc(%rbp)
    775b:	40 03 b1 
    775e:	c7 85 c0 f4 ff ff ff 	movl   $0xffffffff,-0xb40(%rbp)
    7765:	ff ff ff 
    7768:	c7 85 c4 f4 ff ff ff 	movl   $0xffffffff,-0xb3c(%rbp)
    776f:	ff ff ff 
    7772:	c7 85 c8 f4 ff ff ff 	movl   $0xffffffff,-0xb38(%rbp)
    7779:	ff ff ff 
    777c:	c7 85 cc f4 ff ff ff 	movl   $0xffffffff,-0xb34(%rbp)
    7783:	ff ff ff 
    7786:	c7 85 d0 f4 ff ff ff 	movl   $0xffffffff,-0xb30(%rbp)
    778d:	ff ff ff 
    7790:	c7 85 d4 f4 ff ff ff 	movl   $0xffffffff,-0xb2c(%rbp)
    7797:	ff ff ff 
    779a:	48 b8 3f d1 29 59 18 	movabs $0xf62538185929d13f,%rax
    77a1:	38 25 f6 
    77a4:	48 89 85 a8 f4 ff ff 	mov    %rax,-0xb58(%rbp)
    77ab:	c7 85 18 f4 ff ff 00 	movl   $0x0,-0xbe8(%rbp)
    77b2:	00 00 00 
    77b5:	eb 1e                	jmp    77d5 <func_23+0xbcb>
    77b7:	8b 85 18 f4 ff ff    	mov    -0xbe8(%rbp),%eax
    77bd:	48 98                	cltq   
    77bf:	48 8d 15 28 20 01 00 	lea    0x12028(%rip),%rdx        # 197ee <g_804>
    77c6:	48 89 94 c5 c0 f5 ff 	mov    %rdx,-0xa40(%rbp,%rax,8)
    77cd:	ff 
    77ce:	83 85 18 f4 ff ff 01 	addl   $0x1,-0xbe8(%rbp)
    77d5:	83 bd 18 f4 ff ff 06 	cmpl   $0x6,-0xbe8(%rbp)
    77dc:	7e d9                	jle    77b7 <func_23+0xbad>
    77de:	8b 05 0c 20 01 00    	mov    0x1200c(%rip),%eax        # 197f0 <g_806>
    77e4:	48 98                	cltq   
    77e6:	8b 94 85 10 f5 ff ff 	mov    -0xaf0(%rbp,%rax,4),%edx
    77ed:	48 83 bd 60 f4 ff ff 	cmpq   $0x0,-0xba0(%rbp)
    77f4:	00 
    77f5:	0f 94 c0             	sete   %al
    77f8:	0f b6 c0             	movzbl %al,%eax
    77fb:	39 85 1c f4 ff ff    	cmp    %eax,-0xbe4(%rbp)
    7801:	0f 94 c0             	sete   %al
    7804:	0f b6 c0             	movzbl %al,%eax
    7807:	39 c2                	cmp    %eax,%edx
    7809:	0f 9f c0             	setg   %al
    780c:	0f b6 d0             	movzbl %al,%edx
    780f:	48 8b 85 70 f4 ff ff 	mov    -0xb90(%rbp),%rax
    7816:	48 89 10             	mov    %rdx,(%rax)
    7819:	48 8b 85 70 f4 ff ff 	mov    -0xb90(%rbp),%rax
    7820:	48 8b 00             	mov    (%rax),%rax
    7823:	48 85 c0             	test   %rax,%rax
    7826:	0f 85 f2 00 00 00    	jne    791e <func_23+0xd14>
    782c:	c6 05 8e 1e 01 00 88 	movb   $0x88,0x11e8e(%rip)        # 196c1 <g_226+0x61>
    7833:	bf 88 ff ff ff       	mov    $0xffffff88,%edi
    7838:	e8 82 d9 ff ff       	callq  51bf <safe_unary_minus_func_int8_t_s>
    783d:	8b 85 34 f4 ff ff    	mov    -0xbcc(%rbp),%eax
    7843:	0f b7 d8             	movzwl %ax,%ebx
    7846:	48 8b 85 d8 f8 ff ff 	mov    -0x728(%rbp),%rax
    784d:	48 39 85 68 f4 ff ff 	cmp    %rax,-0xb98(%rbp)
    7854:	0f 95 c0             	setne  %al
    7857:	0f b6 c0             	movzbl %al,%eax
    785a:	39 85 ec f3 ff ff    	cmp    %eax,-0xc14(%rbp)
    7860:	0f 94 c0             	sete   %al
    7863:	0f b6 c0             	movzbl %al,%eax
    7866:	39 85 e8 f3 ff ff    	cmp    %eax,-0xc18(%rbp)
    786c:	0f 94 c0             	sete   %al
    786f:	0f b6 c0             	movzbl %al,%eax
    7872:	be 01 00 00 00       	mov    $0x1,%esi
    7877:	89 c7                	mov    %eax,%edi
    7879:	e8 a1 e4 ff ff       	callq  5d1f <safe_sub_func_uint16_t_u_u>
    787e:	98                   	cwtl   
    787f:	be 01 00 00 00       	mov    $0x1,%esi
    7884:	89 c7                	mov    %eax,%edi
    7886:	e8 56 dc ff ff       	callq  54e1 <safe_lshift_func_int16_t_s_u>
    788b:	0f b7 d0             	movzwl %ax,%edx
    788e:	8b 85 90 f5 ff ff    	mov    -0xa70(%rbp),%eax
    7894:	33 85 ec f3 ff ff    	xor    -0xc14(%rbp),%eax
    789a:	89 85 90 f5 ff ff    	mov    %eax,-0xa70(%rbp)
    78a0:	8b 85 90 f5 ff ff    	mov    -0xa70(%rbp),%eax
    78a6:	0f b7 c0             	movzwl %ax,%eax
    78a9:	89 d6                	mov    %edx,%esi
    78ab:	89 c7                	mov    %eax,%edi
    78ad:	e8 8b e4 ff ff       	callq  5d3d <safe_mul_func_uint16_t_u_u>
    78b2:	8b 8d 98 f5 ff ff    	mov    -0xa68(%rbp),%ecx
    78b8:	8b 05 32 1f 01 00    	mov    0x11f32(%rip),%eax        # 197f0 <g_806>
    78be:	48 98                	cltq   
    78c0:	8b 94 85 10 f5 ff ff 	mov    -0xaf0(%rbp,%rax,4),%edx
    78c7:	8b 05 23 1f 01 00    	mov    0x11f23(%rip),%eax        # 197f0 <g_806>
    78cd:	09 d1                	or     %edx,%ecx
    78cf:	48 63 d0             	movslq %eax,%rdx
    78d2:	89 8c 95 10 f5 ff ff 	mov    %ecx,-0xaf0(%rbp,%rdx,4)
    78d9:	48 98                	cltq   
    78db:	8b 84 85 10 f5 ff ff 	mov    -0xaf0(%rbp,%rax,4),%eax
    78e2:	0f b7 c0             	movzwl %ax,%eax
    78e5:	89 de                	mov    %ebx,%esi
    78e7:	89 c7                	mov    %eax,%edi
    78e9:	e8 6e e4 ff ff       	callq  5d5c <safe_mod_func_uint16_t_u_u>
    78ee:	0f be c0             	movsbl %al,%eax
    78f1:	be 00 00 00 00       	mov    $0x0,%esi
    78f6:	89 c7                	mov    %eax,%edi
    78f8:	e8 15 d9 ff ff       	callq  5212 <safe_mul_func_int8_t_s_s>
    78fd:	0f b6 05 e2 1e 01 00 	movzbl 0x11ee2(%rip),%eax        # 197e6 <g_756>
    7904:	3c 0a                	cmp    $0xa,%al
    7906:	0f 9e c0             	setle  %al
    7909:	0f b6 c0             	movzbl %al,%eax
    790c:	8b 95 ec f3 ff ff    	mov    -0xc14(%rbp),%edx
    7912:	89 d6                	mov    %edx,%esi
    7914:	89 c7                	mov    %eax,%edi
    7916:	e8 2d e5 ff ff       	callq  5e48 <safe_rshift_func_uint16_t_u_s>
    791b:	66 85 c0             	test   %ax,%ax
    791e:	8b 05 cc 1e 01 00    	mov    0x11ecc(%rip),%eax        # 197f0 <g_806>
    7924:	48 98                	cltq   
    7926:	8b 84 85 10 f5 ff ff 	mov    -0xaf0(%rbp,%rax,4),%eax
    792d:	85 c0                	test   %eax,%eax
    792f:	0f 94 c2             	sete   %dl
    7932:	48 8b 05 af 38 01 00 	mov    0x138af(%rip),%rax        # 1b1e8 <g_1423>
    7939:	0f b6 d2             	movzbl %dl,%edx
    793c:	48 89 10             	mov    %rdx,(%rax)
    793f:	0f b7 05 6a 1b 01 00 	movzwl 0x11b6a(%rip),%eax        # 194b0 <g_172+0x50>
    7946:	0f b7 d0             	movzwl %ax,%edx
    7949:	0f b6 05 5f 1e 01 00 	movzbl 0x11e5f(%rip),%eax        # 197af <g_586+0x7>
    7950:	0f b6 c0             	movzbl %al,%eax
    7953:	31 d0                	xor    %edx,%eax
    7955:	3d fb a7 00 00       	cmp    $0xa7fb,%eax
    795a:	0f 85 30 0a 00 00    	jne    8390 <func_23+0x1786>
    7960:	48 c7 85 b0 f4 ff ff 	movq   $0x0,-0xb50(%rbp)
    7967:	00 00 00 00 
    796b:	48 8d 05 e6 21 01 00 	lea    0x121e6(%rip),%rax        # 19b58 <g_1642>
    7972:	48 89 85 b8 f4 ff ff 	mov    %rax,-0xb48(%rbp)
    7979:	48 8d 85 40 f4 ff ff 	lea    -0xbc0(%rbp),%rax
    7980:	48 89 85 e0 f9 ff ff 	mov    %rax,-0x620(%rbp)
    7987:	48 8d 85 40 f4 ff ff 	lea    -0xbc0(%rbp),%rax
    798e:	48 89 85 e8 f9 ff ff 	mov    %rax,-0x618(%rbp)
    7995:	48 8d 85 40 f4 ff ff 	lea    -0xbc0(%rbp),%rax
    799c:	48 89 85 f0 f9 ff ff 	mov    %rax,-0x610(%rbp)
    79a3:	48 8d 85 40 f4 ff ff 	lea    -0xbc0(%rbp),%rax
    79aa:	48 89 85 f8 f9 ff ff 	mov    %rax,-0x608(%rbp)
    79b1:	48 c7 85 00 fa ff ff 	movq   $0x0,-0x600(%rbp)
    79b8:	00 00 00 00 
    79bc:	48 8d 85 40 f4 ff ff 	lea    -0xbc0(%rbp),%rax
    79c3:	48 89 85 08 fa ff ff 	mov    %rax,-0x5f8(%rbp)
    79ca:	48 8d 85 40 f4 ff ff 	lea    -0xbc0(%rbp),%rax
    79d1:	48 89 85 10 fa ff ff 	mov    %rax,-0x5f0(%rbp)
    79d8:	48 c7 85 18 fa ff ff 	movq   $0x0,-0x5e8(%rbp)
    79df:	00 00 00 00 
    79e3:	48 8d 85 40 f4 ff ff 	lea    -0xbc0(%rbp),%rax
    79ea:	48 89 85 20 fa ff ff 	mov    %rax,-0x5e0(%rbp)
    79f1:	48 8d 85 40 f4 ff ff 	lea    -0xbc0(%rbp),%rax
    79f8:	48 89 85 28 fa ff ff 	mov    %rax,-0x5d8(%rbp)
    79ff:	48 8d 85 40 f4 ff ff 	lea    -0xbc0(%rbp),%rax
    7a06:	48 89 85 30 fa ff ff 	mov    %rax,-0x5d0(%rbp)
    7a0d:	48 8d 85 40 f4 ff ff 	lea    -0xbc0(%rbp),%rax
    7a14:	48 89 85 38 fa ff ff 	mov    %rax,-0x5c8(%rbp)
    7a1b:	48 c7 85 40 fa ff ff 	movq   $0x0,-0x5c0(%rbp)
    7a22:	00 00 00 00 
    7a26:	48 c7 85 48 fa ff ff 	movq   $0x0,-0x5b8(%rbp)
    7a2d:	00 00 00 00 
    7a31:	48 8d 85 40 f4 ff ff 	lea    -0xbc0(%rbp),%rax
    7a38:	48 89 85 50 fa ff ff 	mov    %rax,-0x5b0(%rbp)
    7a3f:	48 8d 85 40 f4 ff ff 	lea    -0xbc0(%rbp),%rax
    7a46:	48 89 85 58 fa ff ff 	mov    %rax,-0x5a8(%rbp)
    7a4d:	48 8d 85 40 f4 ff ff 	lea    -0xbc0(%rbp),%rax
    7a54:	48 89 85 60 fa ff ff 	mov    %rax,-0x5a0(%rbp)
    7a5b:	48 c7 85 68 fa ff ff 	movq   $0x0,-0x598(%rbp)
    7a62:	00 00 00 00 
    7a66:	48 8d 85 40 f4 ff ff 	lea    -0xbc0(%rbp),%rax
    7a6d:	48 89 85 70 fa ff ff 	mov    %rax,-0x590(%rbp)
    7a74:	48 c7 85 78 fa ff ff 	movq   $0x0,-0x588(%rbp)
    7a7b:	00 00 00 00 
    7a7f:	48 8d 85 40 f4 ff ff 	lea    -0xbc0(%rbp),%rax
    7a86:	48 89 85 80 fa ff ff 	mov    %rax,-0x580(%rbp)
    7a8d:	48 8d 85 40 f4 ff ff 	lea    -0xbc0(%rbp),%rax
    7a94:	48 89 85 88 fa ff ff 	mov    %rax,-0x578(%rbp)
    7a9b:	48 c7 85 90 fa ff ff 	movq   $0x0,-0x570(%rbp)
    7aa2:	00 00 00 00 
    7aa6:	48 8d 85 40 f4 ff ff 	lea    -0xbc0(%rbp),%rax
    7aad:	48 89 85 98 fa ff ff 	mov    %rax,-0x568(%rbp)
    7ab4:	48 c7 85 a0 fa ff ff 	movq   $0x0,-0x560(%rbp)
    7abb:	00 00 00 00 
    7abf:	48 8d 85 40 f4 ff ff 	lea    -0xbc0(%rbp),%rax
    7ac6:	48 89 85 a8 fa ff ff 	mov    %rax,-0x558(%rbp)
    7acd:	48 8d 85 40 f4 ff ff 	lea    -0xbc0(%rbp),%rax
    7ad4:	48 89 85 b0 fa ff ff 	mov    %rax,-0x550(%rbp)
    7adb:	48 8d 85 40 f4 ff ff 	lea    -0xbc0(%rbp),%rax
    7ae2:	48 89 85 b8 fa ff ff 	mov    %rax,-0x548(%rbp)
    7ae9:	48 c7 85 c0 fa ff ff 	movq   $0x0,-0x540(%rbp)
    7af0:	00 00 00 00 
    7af4:	48 c7 85 c8 fa ff ff 	movq   $0x0,-0x538(%rbp)
    7afb:	00 00 00 00 
    7aff:	48 8d 85 40 f4 ff ff 	lea    -0xbc0(%rbp),%rax
    7b06:	48 89 85 d0 fa ff ff 	mov    %rax,-0x530(%rbp)
    7b0d:	48 8d 85 40 f4 ff ff 	lea    -0xbc0(%rbp),%rax
    7b14:	48 89 85 d8 fa ff ff 	mov    %rax,-0x528(%rbp)
    7b1b:	48 8d 85 40 f4 ff ff 	lea    -0xbc0(%rbp),%rax
    7b22:	48 89 85 e0 fa ff ff 	mov    %rax,-0x520(%rbp)
    7b29:	48 8d 85 40 f4 ff ff 	lea    -0xbc0(%rbp),%rax
    7b30:	48 89 85 e8 fa ff ff 	mov    %rax,-0x518(%rbp)
    7b37:	48 c7 85 f0 fa ff ff 	movq   $0x0,-0x510(%rbp)
    7b3e:	00 00 00 00 
    7b42:	48 8d 85 40 f4 ff ff 	lea    -0xbc0(%rbp),%rax
    7b49:	48 89 85 f8 fa ff ff 	mov    %rax,-0x508(%rbp)
    7b50:	48 8d 85 40 f4 ff ff 	lea    -0xbc0(%rbp),%rax
    7b57:	48 89 85 00 fb ff ff 	mov    %rax,-0x500(%rbp)
    7b5e:	48 c7 85 08 fb ff ff 	movq   $0x0,-0x4f8(%rbp)
    7b65:	00 00 00 00 
    7b69:	48 8d 85 40 f4 ff ff 	lea    -0xbc0(%rbp),%rax
    7b70:	48 89 85 10 fb ff ff 	mov    %rax,-0x4f0(%rbp)
    7b77:	48 8d 85 40 f4 ff ff 	lea    -0xbc0(%rbp),%rax
    7b7e:	48 89 85 18 fb ff ff 	mov    %rax,-0x4e8(%rbp)
    7b85:	48 8d 85 40 f4 ff ff 	lea    -0xbc0(%rbp),%rax
    7b8c:	48 89 85 20 fb ff ff 	mov    %rax,-0x4e0(%rbp)
    7b93:	48 8d 85 40 f4 ff ff 	lea    -0xbc0(%rbp),%rax
    7b9a:	48 89 85 28 fb ff ff 	mov    %rax,-0x4d8(%rbp)
    7ba1:	48 c7 85 30 fb ff ff 	movq   $0x0,-0x4d0(%rbp)
    7ba8:	00 00 00 00 
    7bac:	48 c7 85 38 fb ff ff 	movq   $0x0,-0x4c8(%rbp)
    7bb3:	00 00 00 00 
    7bb7:	48 8d 85 40 f4 ff ff 	lea    -0xbc0(%rbp),%rax
    7bbe:	48 89 85 40 fb ff ff 	mov    %rax,-0x4c0(%rbp)
    7bc5:	48 8d 85 40 f4 ff ff 	lea    -0xbc0(%rbp),%rax
    7bcc:	48 89 85 48 fb ff ff 	mov    %rax,-0x4b8(%rbp)
    7bd3:	48 8d 85 40 f4 ff ff 	lea    -0xbc0(%rbp),%rax
    7bda:	48 89 85 50 fb ff ff 	mov    %rax,-0x4b0(%rbp)
    7be1:	48 c7 85 58 fb ff ff 	movq   $0x0,-0x4a8(%rbp)
    7be8:	00 00 00 00 
    7bec:	48 8d 85 40 f4 ff ff 	lea    -0xbc0(%rbp),%rax
    7bf3:	48 89 85 60 fb ff ff 	mov    %rax,-0x4a0(%rbp)
    7bfa:	48 c7 85 68 fb ff ff 	movq   $0x0,-0x498(%rbp)
    7c01:	00 00 00 00 
    7c05:	48 8d 85 40 f4 ff ff 	lea    -0xbc0(%rbp),%rax
    7c0c:	48 89 85 70 fb ff ff 	mov    %rax,-0x490(%rbp)
    7c13:	48 8d 85 40 f4 ff ff 	lea    -0xbc0(%rbp),%rax
    7c1a:	48 89 85 78 fb ff ff 	mov    %rax,-0x488(%rbp)
    7c21:	48 c7 85 80 fb ff ff 	movq   $0x0,-0x480(%rbp)
    7c28:	00 00 00 00 
    7c2c:	48 8d 85 40 f4 ff ff 	lea    -0xbc0(%rbp),%rax
    7c33:	48 89 85 88 fb ff ff 	mov    %rax,-0x478(%rbp)
    7c3a:	48 c7 85 90 fb ff ff 	movq   $0x0,-0x470(%rbp)
    7c41:	00 00 00 00 
    7c45:	48 8d 85 40 f4 ff ff 	lea    -0xbc0(%rbp),%rax
    7c4c:	48 89 85 98 fb ff ff 	mov    %rax,-0x468(%rbp)
    7c53:	48 8d 85 40 f4 ff ff 	lea    -0xbc0(%rbp),%rax
    7c5a:	48 89 85 a0 fb ff ff 	mov    %rax,-0x460(%rbp)
    7c61:	48 8d 85 40 f4 ff ff 	lea    -0xbc0(%rbp),%rax
    7c68:	48 89 85 a8 fb ff ff 	mov    %rax,-0x458(%rbp)
    7c6f:	48 c7 85 b0 fb ff ff 	movq   $0x0,-0x450(%rbp)
    7c76:	00 00 00 00 
    7c7a:	48 c7 85 b8 fb ff ff 	movq   $0x0,-0x448(%rbp)
    7c81:	00 00 00 00 
    7c85:	48 8d 85 40 f4 ff ff 	lea    -0xbc0(%rbp),%rax
    7c8c:	48 89 85 c0 fb ff ff 	mov    %rax,-0x440(%rbp)
    7c93:	48 8d 85 40 f4 ff ff 	lea    -0xbc0(%rbp),%rax
    7c9a:	48 89 85 c8 fb ff ff 	mov    %rax,-0x438(%rbp)
    7ca1:	48 8d 85 40 f4 ff ff 	lea    -0xbc0(%rbp),%rax
    7ca8:	48 89 85 d0 fb ff ff 	mov    %rax,-0x430(%rbp)
    7caf:	48 8d 85 40 f4 ff ff 	lea    -0xbc0(%rbp),%rax
    7cb6:	48 89 85 d8 fb ff ff 	mov    %rax,-0x428(%rbp)
    7cbd:	48 c7 85 e0 fb ff ff 	movq   $0x0,-0x420(%rbp)
    7cc4:	00 00 00 00 
    7cc8:	48 8d 85 40 f4 ff ff 	lea    -0xbc0(%rbp),%rax
    7ccf:	48 89 85 e8 fb ff ff 	mov    %rax,-0x418(%rbp)
    7cd6:	48 8d 85 40 f4 ff ff 	lea    -0xbc0(%rbp),%rax
    7cdd:	48 89 85 f0 fb ff ff 	mov    %rax,-0x410(%rbp)
    7ce4:	48 c7 85 f8 fb ff ff 	movq   $0x0,-0x408(%rbp)
    7ceb:	00 00 00 00 
    7cef:	48 8d 85 40 f4 ff ff 	lea    -0xbc0(%rbp),%rax
    7cf6:	48 89 85 00 fc ff ff 	mov    %rax,-0x400(%rbp)
    7cfd:	48 8d 85 40 f4 ff ff 	lea    -0xbc0(%rbp),%rax
    7d04:	48 89 85 08 fc ff ff 	mov    %rax,-0x3f8(%rbp)
    7d0b:	48 8d 85 40 f4 ff ff 	lea    -0xbc0(%rbp),%rax
    7d12:	48 89 85 10 fc ff ff 	mov    %rax,-0x3f0(%rbp)
    7d19:	48 8d 85 40 f4 ff ff 	lea    -0xbc0(%rbp),%rax
    7d20:	48 89 85 18 fc ff ff 	mov    %rax,-0x3e8(%rbp)
    7d27:	48 c7 85 20 fc ff ff 	movq   $0x0,-0x3e0(%rbp)
    7d2e:	00 00 00 00 
    7d32:	48 c7 85 28 fc ff ff 	movq   $0x0,-0x3d8(%rbp)
    7d39:	00 00 00 00 
    7d3d:	48 8d 85 40 f4 ff ff 	lea    -0xbc0(%rbp),%rax
    7d44:	48 89 85 30 fc ff ff 	mov    %rax,-0x3d0(%rbp)
    7d4b:	48 8d 85 40 f4 ff ff 	lea    -0xbc0(%rbp),%rax
    7d52:	48 89 85 38 fc ff ff 	mov    %rax,-0x3c8(%rbp)
    7d59:	48 8d 85 40 f4 ff ff 	lea    -0xbc0(%rbp),%rax
    7d60:	48 89 85 40 fc ff ff 	mov    %rax,-0x3c0(%rbp)
    7d67:	48 c7 85 48 fc ff ff 	movq   $0x0,-0x3b8(%rbp)
    7d6e:	00 00 00 00 
    7d72:	48 8d 85 40 f4 ff ff 	lea    -0xbc0(%rbp),%rax
    7d79:	48 89 85 50 fc ff ff 	mov    %rax,-0x3b0(%rbp)
    7d80:	48 c7 85 58 fc ff ff 	movq   $0x0,-0x3a8(%rbp)
    7d87:	00 00 00 00 
    7d8b:	48 8d 85 40 f4 ff ff 	lea    -0xbc0(%rbp),%rax
    7d92:	48 89 85 60 fc ff ff 	mov    %rax,-0x3a0(%rbp)
    7d99:	48 8d 85 40 f4 ff ff 	lea    -0xbc0(%rbp),%rax
    7da0:	48 89 85 68 fc ff ff 	mov    %rax,-0x398(%rbp)
    7da7:	48 c7 85 70 fc ff ff 	movq   $0x0,-0x390(%rbp)
    7dae:	00 00 00 00 
    7db2:	48 8d 85 40 f4 ff ff 	lea    -0xbc0(%rbp),%rax
    7db9:	48 89 85 78 fc ff ff 	mov    %rax,-0x388(%rbp)
    7dc0:	48 c7 85 80 fc ff ff 	movq   $0x0,-0x380(%rbp)
    7dc7:	00 00 00 00 
    7dcb:	48 8d 85 40 f4 ff ff 	lea    -0xbc0(%rbp),%rax
    7dd2:	48 89 85 88 fc ff ff 	mov    %rax,-0x378(%rbp)
    7dd9:	48 8d 85 40 f4 ff ff 	lea    -0xbc0(%rbp),%rax
    7de0:	48 89 85 90 fc ff ff 	mov    %rax,-0x370(%rbp)
    7de7:	48 8d 85 40 f4 ff ff 	lea    -0xbc0(%rbp),%rax
    7dee:	48 89 85 98 fc ff ff 	mov    %rax,-0x368(%rbp)
    7df5:	48 c7 85 a0 fc ff ff 	movq   $0x0,-0x360(%rbp)
    7dfc:	00 00 00 00 
    7e00:	48 c7 85 a8 fc ff ff 	movq   $0x0,-0x358(%rbp)
    7e07:	00 00 00 00 
    7e0b:	48 8d 85 40 f4 ff ff 	lea    -0xbc0(%rbp),%rax
    7e12:	48 89 85 b0 fc ff ff 	mov    %rax,-0x350(%rbp)
    7e19:	48 8d 85 40 f4 ff ff 	lea    -0xbc0(%rbp),%rax
    7e20:	48 89 85 b8 fc ff ff 	mov    %rax,-0x348(%rbp)
    7e27:	48 8d 85 40 f4 ff ff 	lea    -0xbc0(%rbp),%rax
    7e2e:	48 89 85 c0 fc ff ff 	mov    %rax,-0x340(%rbp)
    7e35:	48 8d 85 40 f4 ff ff 	lea    -0xbc0(%rbp),%rax
    7e3c:	48 89 85 c8 fc ff ff 	mov    %rax,-0x338(%rbp)
    7e43:	48 c7 85 d0 fc ff ff 	movq   $0x0,-0x330(%rbp)
    7e4a:	00 00 00 00 
    7e4e:	48 8d 85 40 f4 ff ff 	lea    -0xbc0(%rbp),%rax
    7e55:	48 89 85 d8 fc ff ff 	mov    %rax,-0x328(%rbp)
    7e5c:	48 8d 85 40 f4 ff ff 	lea    -0xbc0(%rbp),%rax
    7e63:	48 89 85 e0 fc ff ff 	mov    %rax,-0x320(%rbp)
    7e6a:	48 c7 85 e8 fc ff ff 	movq   $0x0,-0x318(%rbp)
    7e71:	00 00 00 00 
    7e75:	48 8d 85 40 f4 ff ff 	lea    -0xbc0(%rbp),%rax
    7e7c:	48 89 85 f0 fc ff ff 	mov    %rax,-0x310(%rbp)
    7e83:	48 8d 85 40 f4 ff ff 	lea    -0xbc0(%rbp),%rax
    7e8a:	48 89 85 f8 fc ff ff 	mov    %rax,-0x308(%rbp)
    7e91:	48 8d 85 40 f4 ff ff 	lea    -0xbc0(%rbp),%rax
    7e98:	48 89 85 00 fd ff ff 	mov    %rax,-0x300(%rbp)
    7e9f:	48 8d 85 40 f4 ff ff 	lea    -0xbc0(%rbp),%rax
    7ea6:	48 89 85 08 fd ff ff 	mov    %rax,-0x2f8(%rbp)
    7ead:	48 c7 85 10 fd ff ff 	movq   $0x0,-0x2f0(%rbp)
    7eb4:	00 00 00 00 
    7eb8:	48 c7 85 18 fd ff ff 	movq   $0x0,-0x2e8(%rbp)
    7ebf:	00 00 00 00 
    7ec3:	48 8d 85 40 f4 ff ff 	lea    -0xbc0(%rbp),%rax
    7eca:	48 89 85 20 fd ff ff 	mov    %rax,-0x2e0(%rbp)
    7ed1:	48 8d 85 40 f4 ff ff 	lea    -0xbc0(%rbp),%rax
    7ed8:	48 89 85 28 fd ff ff 	mov    %rax,-0x2d8(%rbp)
    7edf:	48 8d 85 40 f4 ff ff 	lea    -0xbc0(%rbp),%rax
    7ee6:	48 89 85 30 fd ff ff 	mov    %rax,-0x2d0(%rbp)
    7eed:	48 c7 85 38 fd ff ff 	movq   $0x0,-0x2c8(%rbp)
    7ef4:	00 00 00 00 
    7ef8:	48 8d 85 40 f4 ff ff 	lea    -0xbc0(%rbp),%rax
    7eff:	48 89 85 40 fd ff ff 	mov    %rax,-0x2c0(%rbp)
    7f06:	48 c7 85 48 fd ff ff 	movq   $0x0,-0x2b8(%rbp)
    7f0d:	00 00 00 00 
    7f11:	48 8d 85 40 f4 ff ff 	lea    -0xbc0(%rbp),%rax
    7f18:	48 89 85 50 fd ff ff 	mov    %rax,-0x2b0(%rbp)
    7f1f:	48 8d 85 40 f4 ff ff 	lea    -0xbc0(%rbp),%rax
    7f26:	48 89 85 58 fd ff ff 	mov    %rax,-0x2a8(%rbp)
    7f2d:	48 c7 85 60 fd ff ff 	movq   $0x0,-0x2a0(%rbp)
    7f34:	00 00 00 00 
    7f38:	48 8d 85 40 f4 ff ff 	lea    -0xbc0(%rbp),%rax
    7f3f:	48 89 85 68 fd ff ff 	mov    %rax,-0x298(%rbp)
    7f46:	48 c7 85 70 fd ff ff 	movq   $0x0,-0x290(%rbp)
    7f4d:	00 00 00 00 
    7f51:	48 8d 85 40 f4 ff ff 	lea    -0xbc0(%rbp),%rax
    7f58:	48 89 85 78 fd ff ff 	mov    %rax,-0x288(%rbp)
    7f5f:	48 c7 85 80 fd ff ff 	movq   $0x0,-0x280(%rbp)
    7f66:	00 00 00 00 
    7f6a:	48 8d 85 40 f4 ff ff 	lea    -0xbc0(%rbp),%rax
    7f71:	48 89 85 88 fd ff ff 	mov    %rax,-0x278(%rbp)
    7f78:	48 8d 85 40 f4 ff ff 	lea    -0xbc0(%rbp),%rax
    7f7f:	48 89 85 90 fd ff ff 	mov    %rax,-0x270(%rbp)
    7f86:	48 8d 85 40 f4 ff ff 	lea    -0xbc0(%rbp),%rax
    7f8d:	48 89 85 98 fd ff ff 	mov    %rax,-0x268(%rbp)
    7f94:	48 8d 85 40 f4 ff ff 	lea    -0xbc0(%rbp),%rax
    7f9b:	48 89 85 a0 fd ff ff 	mov    %rax,-0x260(%rbp)
    7fa2:	48 8d 85 40 f4 ff ff 	lea    -0xbc0(%rbp),%rax
    7fa9:	48 89 85 a8 fd ff ff 	mov    %rax,-0x258(%rbp)
    7fb0:	48 8d 85 40 f4 ff ff 	lea    -0xbc0(%rbp),%rax
    7fb7:	48 89 85 b0 fd ff ff 	mov    %rax,-0x250(%rbp)
    7fbe:	48 8d 85 40 f4 ff ff 	lea    -0xbc0(%rbp),%rax
    7fc5:	48 89 85 b8 fd ff ff 	mov    %rax,-0x248(%rbp)
    7fcc:	48 c7 85 c0 fd ff ff 	movq   $0x0,-0x240(%rbp)
    7fd3:	00 00 00 00 
    7fd7:	48 8d 85 40 f4 ff ff 	lea    -0xbc0(%rbp),%rax
    7fde:	48 89 85 c8 fd ff ff 	mov    %rax,-0x238(%rbp)
    7fe5:	48 8d 85 40 f4 ff ff 	lea    -0xbc0(%rbp),%rax
    7fec:	48 89 85 d0 fd ff ff 	mov    %rax,-0x230(%rbp)
    7ff3:	48 c7 85 d8 fd ff ff 	movq   $0x0,-0x228(%rbp)
    7ffa:	00 00 00 00 
    7ffe:	48 8d 85 40 f4 ff ff 	lea    -0xbc0(%rbp),%rax
    8005:	48 89 85 e0 fd ff ff 	mov    %rax,-0x220(%rbp)
    800c:	48 8d 85 40 f4 ff ff 	lea    -0xbc0(%rbp),%rax
    8013:	48 89 85 e8 fd ff ff 	mov    %rax,-0x218(%rbp)
    801a:	48 8d 85 40 f4 ff ff 	lea    -0xbc0(%rbp),%rax
    8021:	48 89 85 f0 fd ff ff 	mov    %rax,-0x210(%rbp)
    8028:	48 8d 85 40 f4 ff ff 	lea    -0xbc0(%rbp),%rax
    802f:	48 89 85 f8 fd ff ff 	mov    %rax,-0x208(%rbp)
    8036:	48 8d 85 40 f4 ff ff 	lea    -0xbc0(%rbp),%rax
    803d:	48 89 85 00 fe ff ff 	mov    %rax,-0x200(%rbp)
    8044:	48 8d 85 40 f4 ff ff 	lea    -0xbc0(%rbp),%rax
    804b:	48 89 85 08 fe ff ff 	mov    %rax,-0x1f8(%rbp)
    8052:	48 8d 85 40 f4 ff ff 	lea    -0xbc0(%rbp),%rax
    8059:	48 89 85 10 fe ff ff 	mov    %rax,-0x1f0(%rbp)
    8060:	48 c7 85 18 fe ff ff 	movq   $0x0,-0x1e8(%rbp)
    8067:	00 00 00 00 
    806b:	48 8d 85 40 f4 ff ff 	lea    -0xbc0(%rbp),%rax
    8072:	48 89 85 20 fe ff ff 	mov    %rax,-0x1e0(%rbp)
    8079:	48 8d 85 40 f4 ff ff 	lea    -0xbc0(%rbp),%rax
    8080:	48 89 85 28 fe ff ff 	mov    %rax,-0x1d8(%rbp)
    8087:	48 8d 85 40 f4 ff ff 	lea    -0xbc0(%rbp),%rax
    808e:	48 89 85 30 fe ff ff 	mov    %rax,-0x1d0(%rbp)
    8095:	48 c7 85 38 fe ff ff 	movq   $0x0,-0x1c8(%rbp)
    809c:	00 00 00 00 
    80a0:	48 c7 85 40 fe ff ff 	movq   $0x0,-0x1c0(%rbp)
    80a7:	00 00 00 00 
    80ab:	48 c7 85 48 fe ff ff 	movq   $0x0,-0x1b8(%rbp)
    80b2:	00 00 00 00 
    80b6:	48 c7 85 50 fe ff ff 	movq   $0x0,-0x1b0(%rbp)
    80bd:	00 00 00 00 
    80c1:	48 8d 85 40 f4 ff ff 	lea    -0xbc0(%rbp),%rax
    80c8:	48 89 85 58 fe ff ff 	mov    %rax,-0x1a8(%rbp)
    80cf:	48 8d 85 40 f4 ff ff 	lea    -0xbc0(%rbp),%rax
    80d6:	48 89 85 60 fe ff ff 	mov    %rax,-0x1a0(%rbp)
    80dd:	48 8d 85 40 f4 ff ff 	lea    -0xbc0(%rbp),%rax
    80e4:	48 89 85 68 fe ff ff 	mov    %rax,-0x198(%rbp)
    80eb:	48 c7 85 70 fe ff ff 	movq   $0x0,-0x190(%rbp)
    80f2:	00 00 00 00 
    80f6:	48 8d 85 40 f4 ff ff 	lea    -0xbc0(%rbp),%rax
    80fd:	48 89 85 78 fe ff ff 	mov    %rax,-0x188(%rbp)
    8104:	48 8d 85 40 f4 ff ff 	lea    -0xbc0(%rbp),%rax
    810b:	48 89 85 80 fe ff ff 	mov    %rax,-0x180(%rbp)
    8112:	48 8d 85 40 f4 ff ff 	lea    -0xbc0(%rbp),%rax
    8119:	48 89 85 88 fe ff ff 	mov    %rax,-0x178(%rbp)
    8120:	48 8d 85 40 f4 ff ff 	lea    -0xbc0(%rbp),%rax
    8127:	48 89 85 90 fe ff ff 	mov    %rax,-0x170(%rbp)
    812e:	48 8d 85 40 f4 ff ff 	lea    -0xbc0(%rbp),%rax
    8135:	48 89 85 98 fe ff ff 	mov    %rax,-0x168(%rbp)
    813c:	48 8d 85 40 f4 ff ff 	lea    -0xbc0(%rbp),%rax
    8143:	48 89 85 a0 fe ff ff 	mov    %rax,-0x160(%rbp)
    814a:	48 8d 85 40 f4 ff ff 	lea    -0xbc0(%rbp),%rax
    8151:	48 89 85 a8 fe ff ff 	mov    %rax,-0x158(%rbp)
    8158:	48 c7 85 b0 fe ff ff 	movq   $0x0,-0x150(%rbp)
    815f:	00 00 00 00 
    8163:	48 8d 85 40 f4 ff ff 	lea    -0xbc0(%rbp),%rax
    816a:	48 89 85 b8 fe ff ff 	mov    %rax,-0x148(%rbp)
    8171:	48 8d 85 40 f4 ff ff 	lea    -0xbc0(%rbp),%rax
    8178:	48 89 85 c0 fe ff ff 	mov    %rax,-0x140(%rbp)
    817f:	48 c7 85 c8 fe ff ff 	movq   $0x0,-0x138(%rbp)
    8186:	00 00 00 00 
    818a:	48 8d 85 40 f4 ff ff 	lea    -0xbc0(%rbp),%rax
    8191:	48 89 85 d0 fe ff ff 	mov    %rax,-0x130(%rbp)
    8198:	48 8d 85 40 f4 ff ff 	lea    -0xbc0(%rbp),%rax
    819f:	48 89 85 d8 fe ff ff 	mov    %rax,-0x128(%rbp)
    81a6:	48 8d 85 40 f4 ff ff 	lea    -0xbc0(%rbp),%rax
    81ad:	48 89 85 e0 fe ff ff 	mov    %rax,-0x120(%rbp)
    81b4:	48 8d 85 40 f4 ff ff 	lea    -0xbc0(%rbp),%rax
    81bb:	48 89 85 e8 fe ff ff 	mov    %rax,-0x118(%rbp)
    81c2:	48 8d 85 40 f4 ff ff 	lea    -0xbc0(%rbp),%rax
    81c9:	48 89 85 f0 fe ff ff 	mov    %rax,-0x110(%rbp)
    81d0:	48 8d 85 40 f4 ff ff 	lea    -0xbc0(%rbp),%rax
    81d7:	48 89 85 f8 fe ff ff 	mov    %rax,-0x108(%rbp)
    81de:	48 8d 85 40 f4 ff ff 	lea    -0xbc0(%rbp),%rax
    81e5:	48 89 85 00 ff ff ff 	mov    %rax,-0x100(%rbp)
    81ec:	48 c7 85 08 ff ff ff 	movq   $0x0,-0xf8(%rbp)
    81f3:	00 00 00 00 
    81f7:	48 8d 85 40 f4 ff ff 	lea    -0xbc0(%rbp),%rax
    81fe:	48 89 85 10 ff ff ff 	mov    %rax,-0xf0(%rbp)
    8205:	48 8d 85 40 f4 ff ff 	lea    -0xbc0(%rbp),%rax
    820c:	48 89 85 18 ff ff ff 	mov    %rax,-0xe8(%rbp)
    8213:	48 8d 85 40 f4 ff ff 	lea    -0xbc0(%rbp),%rax
    821a:	48 89 85 20 ff ff ff 	mov    %rax,-0xe0(%rbp)
    8221:	48 c7 85 28 ff ff ff 	movq   $0x0,-0xd8(%rbp)
    8228:	00 00 00 00 
    822c:	48 c7 85 30 ff ff ff 	movq   $0x0,-0xd0(%rbp)
    8233:	00 00 00 00 
    8237:	48 c7 85 38 ff ff ff 	movq   $0x0,-0xc8(%rbp)
    823e:	00 00 00 00 
    8242:	48 c7 85 40 ff ff ff 	movq   $0x0,-0xc0(%rbp)
    8249:	00 00 00 00 
    824d:	48 8d 85 40 f4 ff ff 	lea    -0xbc0(%rbp),%rax
    8254:	48 89 85 48 ff ff ff 	mov    %rax,-0xb8(%rbp)
    825b:	48 8d 85 40 f4 ff ff 	lea    -0xbc0(%rbp),%rax
    8262:	48 89 85 50 ff ff ff 	mov    %rax,-0xb0(%rbp)
    8269:	48 8d 85 40 f4 ff ff 	lea    -0xbc0(%rbp),%rax
    8270:	48 89 85 58 ff ff ff 	mov    %rax,-0xa8(%rbp)
    8277:	48 c7 85 60 ff ff ff 	movq   $0x0,-0xa0(%rbp)
    827e:	00 00 00 00 
    8282:	48 8d 85 40 f4 ff ff 	lea    -0xbc0(%rbp),%rax
    8289:	48 89 85 68 ff ff ff 	mov    %rax,-0x98(%rbp)
    8290:	48 8d 85 40 f4 ff ff 	lea    -0xbc0(%rbp),%rax
    8297:	48 89 85 70 ff ff ff 	mov    %rax,-0x90(%rbp)
    829e:	48 8d 85 40 f4 ff ff 	lea    -0xbc0(%rbp),%rax
    82a5:	48 89 85 78 ff ff ff 	mov    %rax,-0x88(%rbp)
    82ac:	48 8d 85 40 f4 ff ff 	lea    -0xbc0(%rbp),%rax
    82b3:	48 89 45 80          	mov    %rax,-0x80(%rbp)
    82b7:	48 8d 85 40 f4 ff ff 	lea    -0xbc0(%rbp),%rax
    82be:	48 89 45 88          	mov    %rax,-0x78(%rbp)
    82c2:	48 8d 85 40 f4 ff ff 	lea    -0xbc0(%rbp),%rax
    82c9:	48 89 45 90          	mov    %rax,-0x70(%rbp)
    82cd:	48 8d 85 40 f4 ff ff 	lea    -0xbc0(%rbp),%rax
    82d4:	48 89 45 98          	mov    %rax,-0x68(%rbp)
    82d8:	48 c7 45 a0 00 00 00 	movq   $0x0,-0x60(%rbp)
    82df:	00 
    82e0:	48 8d 85 40 f4 ff ff 	lea    -0xbc0(%rbp),%rax
    82e7:	48 89 45 a8          	mov    %rax,-0x58(%rbp)
    82eb:	48 8d 85 40 f4 ff ff 	lea    -0xbc0(%rbp),%rax
    82f2:	48 89 45 b0          	mov    %rax,-0x50(%rbp)
    82f6:	48 c7 45 b8 00 00 00 	movq   $0x0,-0x48(%rbp)
    82fd:	00 
    82fe:	48 8d 85 40 f4 ff ff 	lea    -0xbc0(%rbp),%rax
    8305:	48 89 45 c0          	mov    %rax,-0x40(%rbp)
    8309:	48 8d 85 40 f4 ff ff 	lea    -0xbc0(%rbp),%rax
    8310:	48 89 45 c8          	mov    %rax,-0x38(%rbp)
    8314:	48 8d 85 40 f4 ff ff 	lea    -0xbc0(%rbp),%rax
    831b:	48 89 45 d0          	mov    %rax,-0x30(%rbp)
    831f:	48 8d 85 40 f4 ff ff 	lea    -0xbc0(%rbp),%rax
    8326:	48 89 45 d8          	mov    %rax,-0x28(%rbp)
    832a:	48 8b 05 2f 2e 01 00 	mov    0x12e2f(%rip),%rax        # 1b160 <g_115>
    8331:	0f b7 00             	movzwl (%rax),%eax
    8334:	98                   	cwtl   
    8335:	be 0e 00 00 00       	mov    $0xe,%esi
    833a:	89 c7                	mov    %eax,%edi
    833c:	e8 51 d1 ff ff       	callq  5492 <safe_lshift_func_int16_t_s_s>
    8341:	48 8b 85 40 f4 ff ff 	mov    -0xbc0(%rbp),%rax
    8348:	48 89 05 e9 2e 01 00 	mov    %rax,0x12ee9(%rip)        # 1b238 <g_1699>
    834f:	48 8b 05 e2 2e 01 00 	mov    0x12ee2(%rip),%rax        # 1b238 <g_1699>
    8356:	48 8d 15 5b 2e 01 00 	lea    0x12e5b(%rip),%rdx        # 1b1b8 <g_843>
    835d:	48 39 d0             	cmp    %rdx,%rax
    8360:	0f 95 c0             	setne  %al
    8363:	0f b6 c0             	movzbl %al,%eax
    8366:	39 85 ec f3 ff ff    	cmp    %eax,-0xc14(%rbp)
    836c:	0f 95 c0             	setne  %al
    836f:	0f b6 d0             	movzbl %al,%edx
    8372:	8b 85 e8 f3 ff ff    	mov    -0xc18(%rbp),%eax
    8378:	48 89 d6             	mov    %rdx,%rsi
    837b:	48 89 c7             	mov    %rax,%rdi
    837e:	e8 25 d5 ff ff       	callq  58a8 <safe_sub_func_int64_t_s_s>
    8383:	89 c2                	mov    %eax,%edx
    8385:	48 8b 85 80 f4 ff ff 	mov    -0xb80(%rbp),%rax
    838c:	89 10                	mov    %edx,(%rax)
    838e:	eb 0f                	jmp    839f <func_23+0x1795>
    8390:	48 8b 05 51 2e 01 00 	mov    0x12e51(%rip),%rax        # 1b1e8 <g_1423>
    8397:	48 8b 00             	mov    (%rax),%rax
    839a:	e9 99 01 00 00       	jmpq   8538 <func_23+0x192e>
    839f:	83 ad 0c f4 ff ff 01 	subl   $0x1,-0xbf4(%rbp)
    83a6:	8b 05 44 14 01 00    	mov    0x11444(%rip),%eax        # 197f0 <g_806>
    83ac:	83 e8 01             	sub    $0x1,%eax
    83af:	89 05 3b 14 01 00    	mov    %eax,0x1143b(%rip)        # 197f0 <g_806>
    83b5:	8b 05 35 14 01 00    	mov    0x11435(%rip),%eax        # 197f0 <g_806>
    83bb:	83 f8 01             	cmp    $0x1,%eax
    83be:	0f 8f b8 ef ff ff    	jg     737c <func_23+0x772>
    83c4:	48 8b 85 e0 f3 ff ff 	mov    -0xc20(%rbp),%rax
    83cb:	8b 00                	mov    (%rax),%eax
    83cd:	41 89 c4             	mov    %eax,%r12d
    83d0:	8b 85 ec f3 ff ff    	mov    -0xc14(%rbp),%eax
    83d6:	48 63 d8             	movslq %eax,%rbx
    83d9:	be 00 00 00 00       	mov    $0x0,%esi
    83de:	bf 01 00 00 00       	mov    $0x1,%edi
    83e3:	e8 0a ce ff ff       	callq  51f2 <safe_sub_func_int8_t_s_s>
    83e8:	0f be c0             	movsbl %al,%eax
    83eb:	39 85 ec f3 ff ff    	cmp    %eax,-0xc14(%rbp)
    83f1:	0f 9d c0             	setge  %al
    83f4:	0f b6 c0             	movzbl %al,%eax
    83f7:	f7 d0                	not    %eax
    83f9:	48 98                	cltq   
    83fb:	48 89 de             	mov    %rbx,%rsi
    83fe:	48 89 c7             	mov    %rax,%rdi
    8401:	e8 a2 d4 ff ff       	callq  58a8 <safe_sub_func_int64_t_s_s>
    8406:	48 85 c0             	test   %rax,%rax
    8409:	8b 05 09 14 01 00    	mov    0x11409(%rip),%eax        # 19818 <g_1054>
    840f:	85 c0                	test   %eax,%eax
    8411:	75 0c                	jne    841f <func_23+0x1815>
    8413:	0f b7 05 96 10 01 00 	movzwl 0x11096(%rip),%eax        # 194b0 <g_172+0x50>
    841a:	66 85 c0             	test   %ax,%ax
    841d:	74 07                	je     8426 <func_23+0x181c>
    841f:	b8 01 00 00 00       	mov    $0x1,%eax
    8424:	eb 05                	jmp    842b <func_23+0x1821>
    8426:	b8 00 00 00 00       	mov    $0x0,%eax
    842b:	44 89 e6             	mov    %r12d,%esi
    842e:	89 c7                	mov    %eax,%edi
    8430:	e8 83 da ff ff       	callq  5eb8 <safe_add_func_uint32_t_u_u>
    8435:	98                   	cwtl   
    8436:	be 00 00 00 00       	mov    $0x0,%esi
    843b:	89 c7                	mov    %eax,%edi
    843d:	e8 91 cf ff ff       	callq  53d3 <safe_sub_func_int16_t_s_s>
    8442:	66 25 84 d8          	and    $0xd884,%ax
    8446:	98                   	cwtl   
    8447:	89 c7                	mov    %eax,%edi
    8449:	e8 4f cf ff ff       	callq  539d <safe_unary_minus_func_int16_t_s>
    844e:	48 0f bf c0          	movswq %ax,%rax
    8452:	48 89 c6             	mov    %rax,%rsi
    8455:	48 c7 c7 ff ff ff ff 	mov    $0xffffffffffffffff,%rdi
    845c:	e8 1f dc ff ff       	callq  6080 <safe_mod_func_uint64_t_u_u>
    8461:	89 c1                	mov    %eax,%ecx
    8463:	48 8b 15 26 2d 01 00 	mov    0x12d26(%rip),%rdx        # 1b190 <g_395>
    846a:	48 8b 85 78 f4 ff ff 	mov    -0xb88(%rbp),%rax
    8471:	48 8b 00             	mov    (%rax),%rax
    8474:	48 8b 12             	mov    (%rdx),%rdx
    8477:	48 89 10             	mov    %rdx,(%rax)
    847a:	48 8b 00             	mov    (%rax),%rax
    847d:	48 85 c0             	test   %rax,%rax
    8480:	0f 94 c0             	sete   %al
    8483:	0f b6 c0             	movzbl %al,%eax
    8486:	89 85 e8 f4 ff ff    	mov    %eax,-0xb18(%rbp)
    848c:	8b 85 e8 f4 ff ff    	mov    -0xb18(%rbp),%eax
    8492:	98                   	cwtl   
    8493:	89 ce                	mov    %ecx,%esi
    8495:	89 c7                	mov    %eax,%edi
    8497:	e8 c7 d0 ff ff       	callq  5563 <safe_rshift_func_int16_t_s_u>
    849c:	98                   	cwtl   
    849d:	89 05 e5 12 01 00    	mov    %eax,0x112e5(%rip)        # 19788 <g_268>
    84a3:	8b 05 df 12 01 00    	mov    0x112df(%rip),%eax        # 19788 <g_268>
    84a9:	89 85 ac f5 ff ff    	mov    %eax,-0xa54(%rbp)
    84af:	8b 85 ac f5 ff ff    	mov    -0xa54(%rbp),%eax
    84b5:	83 f8 11             	cmp    $0x11,%eax
    84b8:	0f 95 c2             	setne  %dl
    84bb:	48 8b 05 26 2d 01 00 	mov    0x12d26(%rip),%rax        # 1b1e8 <g_1423>
    84c2:	0f b6 d2             	movzbl %dl,%edx
    84c5:	48 89 10             	mov    %rdx,(%rax)
    84c8:	48 8b 05 81 2c 01 00 	mov    0x12c81(%rip),%rax        # 1b150 <g_82>
    84cf:	48 8d 95 fc f3 ff ff 	lea    -0xc04(%rbp),%rdx
    84d6:	48 89 10             	mov    %rdx,(%rax)
    84d9:	8b 05 51 16 01 00    	mov    0x11651(%rip),%eax        # 19b30 <g_1332>
    84df:	83 c0 01             	add    $0x1,%eax
    84e2:	89 05 48 16 01 00    	mov    %eax,0x11648(%rip)        # 19b30 <g_1332>
    84e8:	8b 05 42 16 01 00    	mov    0x11642(%rip),%eax        # 19b30 <g_1332>
    84ee:	83 f8 20             	cmp    $0x20,%eax
    84f1:	0f 84 61 eb ff ff    	je     7058 <func_23+0x44e>
    84f7:	0f b6 05 f1 12 01 00 	movzbl 0x112f1(%rip),%eax        # 197ef <g_805>
    84fe:	48 0f be c0          	movsbq %al,%rax
    8502:	be 08 00 00 00       	mov    $0x8,%esi
    8507:	48 89 c7             	mov    %rax,%rdi
    850a:	e8 1f db ff ff       	callq  602e <safe_add_func_uint64_t_u_u>
    850f:	88 05 da 12 01 00    	mov    %al,0x112da(%rip)        # 197ef <g_805>
    8515:	0f b6 05 d3 12 01 00 	movzbl 0x112d3(%rip),%eax        # 197ef <g_805>
    851c:	3c 0d                	cmp    $0xd,%al
    851e:	0f 84 19 e9 ff ff    	je     6e3d <func_23+0x233>
    8524:	8b 85 ec f3 ff ff    	mov    -0xc14(%rbp),%eax
    852a:	48 98                	cltq   
    852c:	eb 0a                	jmp    8538 <func_23+0x192e>
    852e:	48 8b 05 b3 2c 01 00 	mov    0x12cb3(%rip),%rax        # 1b1e8 <g_1423>
    8535:	48 8b 00             	mov    (%rax),%rax
    8538:	48 8b 5d e8          	mov    -0x18(%rbp),%rbx
    853c:	64 48 33 1c 25 28 00 	xor    %fs:0x28,%rbx
    8543:	00 00 
    8545:	74 05                	je     854c <func_23+0x1942>
    8547:	e8 24 cb ff ff       	callq  5070 <__stack_chk_fail@plt>
    854c:	48 81 c4 10 0c 00 00 	add    $0xc10,%rsp
    8553:	5b                   	pop    %rbx
    8554:	41 5c                	pop    %r12
    8556:	5d                   	pop    %rbp
    8557:	c3                   	retq   

0000000000008558 <func_27>:
    8558:	f3 0f 1e fa          	endbr64 
    855c:	55                   	push   %rbp
    855d:	48 89 e5             	mov    %rsp,%rbp
    8560:	41 55                	push   %r13
    8562:	41 54                	push   %r12
    8564:	53                   	push   %rbx
    8565:	48 81 ec d8 01 00 00 	sub    $0x1d8,%rsp
    856c:	89 f8                	mov    %edi,%eax
    856e:	48 89 b5 20 fe ff ff 	mov    %rsi,-0x1e0(%rbp)
    8575:	48 89 95 18 fe ff ff 	mov    %rdx,-0x1e8(%rbp)
    857c:	88 85 2c fe ff ff    	mov    %al,-0x1d4(%rbp)
    8582:	64 48 8b 04 25 28 00 	mov    %fs:0x28,%rax
    8589:	00 00 
    858b:	48 89 45 d8          	mov    %rax,-0x28(%rbp)
    858f:	31 c0                	xor    %eax,%eax
    8591:	c7 85 44 fe ff ff f9 	movl   $0xfffffff9,-0x1bc(%rbp)
    8598:	ff ff ff 
    859b:	c6 85 3d fe ff ff 00 	movb   $0x0,-0x1c3(%rbp)
    85a2:	c7 85 48 fe ff ff 01 	movl   $0x1,-0x1b8(%rbp)
    85a9:	00 00 00 
    85ac:	c7 85 4c fe ff ff 0b 	movl   $0x8d25de0b,-0x1b4(%rbp)
    85b3:	de 25 8d 
    85b6:	c7 85 50 fe ff ff 00 	movl   $0x0,-0x1b0(%rbp)
    85bd:	00 00 00 
    85c0:	c7 85 54 fe ff ff fd 	movl   $0xfffffffd,-0x1ac(%rbp)
    85c7:	ff ff ff 
    85ca:	48 c7 05 73 0e 01 00 	movq   $0x0,0x10e73(%rip)        # 19448 <g_140>
    85d1:	00 00 00 00 
    85d5:	e9 a7 06 00 00       	jmpq   8c81 <func_27+0x729>
    85da:	48 8d 05 6f 0e 01 00 	lea    0x10e6f(%rip),%rax        # 19450 <g_142>
    85e1:	48 89 85 f0 fe ff ff 	mov    %rax,-0x110(%rbp)
    85e8:	48 8d 05 61 0e 01 00 	lea    0x10e61(%rip),%rax        # 19450 <g_142>
    85ef:	48 89 85 f8 fe ff ff 	mov    %rax,-0x108(%rbp)
    85f6:	48 8d 05 53 0e 01 00 	lea    0x10e53(%rip),%rax        # 19450 <g_142>
    85fd:	48 89 85 00 ff ff ff 	mov    %rax,-0x100(%rbp)
    8604:	48 8d 05 45 0e 01 00 	lea    0x10e45(%rip),%rax        # 19450 <g_142>
    860b:	48 89 85 08 ff ff ff 	mov    %rax,-0xf8(%rbp)
    8612:	48 8d 05 37 0e 01 00 	lea    0x10e37(%rip),%rax        # 19450 <g_142>
    8619:	48 89 85 10 ff ff ff 	mov    %rax,-0xf0(%rbp)
    8620:	48 8d 05 29 0e 01 00 	lea    0x10e29(%rip),%rax        # 19450 <g_142>
    8627:	48 89 85 18 ff ff ff 	mov    %rax,-0xe8(%rbp)
    862e:	c7 85 d0 fe ff ff fd 	movl   $0xfffffffd,-0x130(%rbp)
    8635:	ff ff ff 
    8638:	c7 85 d4 fe ff ff fd 	movl   $0xfffffffd,-0x12c(%rbp)
    863f:	ff ff ff 
    8642:	c7 85 d8 fe ff ff fd 	movl   $0xfffffffd,-0x128(%rbp)
    8649:	ff ff ff 
    864c:	c7 85 dc fe ff ff fd 	movl   $0xfffffffd,-0x124(%rbp)
    8653:	ff ff ff 
    8656:	c7 85 e0 fe ff ff fd 	movl   $0xfffffffd,-0x120(%rbp)
    865d:	ff ff ff 
    8660:	c7 85 e4 fe ff ff fd 	movl   $0xfffffffd,-0x11c(%rbp)
    8667:	ff ff ff 
    866a:	c7 85 e8 fe ff ff fd 	movl   $0xfffffffd,-0x118(%rbp)
    8671:	ff ff ff 
    8674:	c7 85 ec fe ff ff fd 	movl   $0xfffffffd,-0x114(%rbp)
    867b:	ff ff ff 
    867e:	48 c7 85 78 fe ff ff 	movq   $0x0,-0x188(%rbp)
    8685:	00 00 00 00 
    8689:	66 c7 85 b0 fe ff ff 	movw   $0x30aa,-0x150(%rbp)
    8690:	aa 30 
    8692:	66 c7 85 b2 fe ff ff 	movw   $0xfffa,-0x14e(%rbp)
    8699:	fa ff 
    869b:	66 c7 85 b4 fe ff ff 	movw   $0x30aa,-0x14c(%rbp)
    86a2:	aa 30 
    86a4:	66 c7 85 b6 fe ff ff 	movw   $0x1,-0x14a(%rbp)
    86ab:	01 00 
    86ad:	66 c7 85 b8 fe ff ff 	movw   $0x1,-0x148(%rbp)
    86b4:	01 00 
    86b6:	66 c7 85 ba fe ff ff 	movw   $0x30aa,-0x146(%rbp)
    86bd:	aa 30 
    86bf:	66 c7 85 bc fe ff ff 	movw   $0xfffa,-0x144(%rbp)
    86c6:	fa ff 
    86c8:	66 c7 85 be fe ff ff 	movw   $0x30aa,-0x142(%rbp)
    86cf:	aa 30 
    86d1:	66 c7 85 c0 fe ff ff 	movw   $0x1,-0x140(%rbp)
    86d8:	01 00 
    86da:	66 c7 85 c2 fe ff ff 	movw   $0x1,-0x13e(%rbp)
    86e1:	01 00 
    86e3:	8b 85 d8 fe ff ff    	mov    -0x128(%rbp),%eax
    86e9:	83 c0 01             	add    $0x1,%eax
    86ec:	89 85 d8 fe ff ff    	mov    %eax,-0x128(%rbp)
    86f2:	c7 05 54 0d 01 00 00 	movl   $0x0,0x10d54(%rip)        # 19450 <g_142>
    86f9:	00 00 00 
    86fc:	e9 60 05 00 00       	jmpq   8c61 <func_27+0x709>
    8701:	48 8d 05 d0 10 01 00 	lea    0x110d0(%rip),%rax        # 197d8 <g_703>
    8708:	48 89 85 80 fe ff ff 	mov    %rax,-0x180(%rbp)
    870f:	48 8d 05 1a 14 01 00 	lea    0x1141a(%rip),%rax        # 19b30 <g_1332>
    8716:	48 89 85 88 fe ff ff 	mov    %rax,-0x178(%rbp)
    871d:	c7 85 40 fe ff ff 00 	movl   $0x0,-0x1c0(%rbp)
    8724:	00 00 00 
    8727:	48 8d 05 22 2a 01 00 	lea    0x12a22(%rip),%rax        # 1b150 <g_82>
    872e:	48 89 85 20 ff ff ff 	mov    %rax,-0xe0(%rbp)
    8735:	48 8d 05 14 2a 01 00 	lea    0x12a14(%rip),%rax        # 1b150 <g_82>
    873c:	48 89 85 28 ff ff ff 	mov    %rax,-0xd8(%rbp)
    8743:	48 8d 05 06 2a 01 00 	lea    0x12a06(%rip),%rax        # 1b150 <g_82>
    874a:	48 89 85 30 ff ff ff 	mov    %rax,-0xd0(%rbp)
    8751:	48 8d 05 f8 29 01 00 	lea    0x129f8(%rip),%rax        # 1b150 <g_82>
    8758:	48 89 85 38 ff ff ff 	mov    %rax,-0xc8(%rbp)
    875f:	48 8d 05 ea 29 01 00 	lea    0x129ea(%rip),%rax        # 1b150 <g_82>
    8766:	48 89 85 40 ff ff ff 	mov    %rax,-0xc0(%rbp)
    876d:	48 8d 05 dc 29 01 00 	lea    0x129dc(%rip),%rax        # 1b150 <g_82>
    8774:	48 89 85 48 ff ff ff 	mov    %rax,-0xb8(%rbp)
    877b:	48 8d 05 ce 29 01 00 	lea    0x129ce(%rip),%rax        # 1b150 <g_82>
    8782:	48 89 85 50 ff ff ff 	mov    %rax,-0xb0(%rbp)
    8789:	48 8d 05 c0 29 01 00 	lea    0x129c0(%rip),%rax        # 1b150 <g_82>
    8790:	48 89 85 58 ff ff ff 	mov    %rax,-0xa8(%rbp)
    8797:	48 8d 05 b2 29 01 00 	lea    0x129b2(%rip),%rax        # 1b150 <g_82>
    879e:	48 89 85 60 ff ff ff 	mov    %rax,-0xa0(%rbp)
    87a5:	c7 85 58 fe ff ff 06 	movl   $0x6,-0x1a8(%rbp)
    87ac:	00 00 00 
    87af:	c7 85 5c fe ff ff 05 	movl   $0x5,-0x1a4(%rbp)
    87b6:	00 00 00 
    87b9:	c7 85 60 fe ff ff f6 	movl   $0xfffffff6,-0x1a0(%rbp)
    87c0:	ff ff ff 
    87c3:	66 c7 85 3e fe ff ff 	movw   $0xfff6,-0x1c2(%rbp)
    87ca:	f6 ff 
    87cc:	c7 85 64 fe ff ff fe 	movl   $0xfffffffe,-0x19c(%rbp)
    87d3:	ff ff ff 
    87d6:	c7 85 a0 fe ff ff bf 	movl   $0xcc8b14bf,-0x160(%rbp)
    87dd:	14 8b cc 
    87e0:	c7 85 a4 fe ff ff bf 	movl   $0xcc8b14bf,-0x15c(%rbp)
    87e7:	14 8b cc 
    87ea:	c7 85 a8 fe ff ff bf 	movl   $0xcc8b14bf,-0x158(%rbp)
    87f1:	14 8b cc 
    87f4:	c7 85 ac fe ff ff bf 	movl   $0xcc8b14bf,-0x154(%rbp)
    87fb:	14 8b cc 
    87fe:	48 c7 05 37 0c 01 00 	movq   $0x0,0x10c37(%rip)        # 19440 <g_137>
    8805:	00 00 00 00 
    8809:	eb 3f                	jmp    884a <func_27+0x2f2>
    880b:	c7 85 6c fe ff ff 77 	movl   $0x52486f77,-0x194(%rbp)
    8812:	6f 48 52 
    8815:	8b 05 35 0c 01 00    	mov    0x10c35(%rip),%eax        # 19450 <g_142>
    881b:	83 c0 01             	add    $0x1,%eax
    881e:	48 98                	cltq   
    8820:	48 8d 14 85 00 00 00 	lea    0x0(,%rax,4),%rdx
    8827:	00 
    8828:	48 8d 05 91 34 01 00 	lea    0x13491(%rip),%rax        # 1bcc0 <g_594>
    882f:	8b 04 02             	mov    (%rdx,%rax,1),%eax
    8832:	21 85 6c fe ff ff    	and    %eax,-0x194(%rbp)
    8838:	48 8b 05 01 0c 01 00 	mov    0x10c01(%rip),%rax        # 19440 <g_137>
    883f:	48 83 c0 01          	add    $0x1,%rax
    8843:	48 89 05 f6 0b 01 00 	mov    %rax,0x10bf6(%rip)        # 19440 <g_137>
    884a:	48 8b 05 ef 0b 01 00 	mov    0x10bef(%rip),%rax        # 19440 <g_137>
    8851:	48 83 f8 06          	cmp    $0x6,%rax
    8855:	76 b4                	jbe    880b <func_27+0x2b3>
    8857:	48 8b 85 20 fe ff ff 	mov    -0x1e0(%rbp),%rax
    885e:	0f b6 00             	movzbl (%rax),%eax
    8861:	0f be d8             	movsbl %al,%ebx
    8864:	48 8b 05 7d 29 01 00 	mov    0x1297d(%rip),%rax        # 1b1e8 <g_1423>
    886b:	48 8b 10             	mov    (%rax),%rdx
    886e:	48 8b 05 73 29 01 00 	mov    0x12973(%rip),%rax        # 1b1e8 <g_1423>
    8875:	48 83 f2 01          	xor    $0x1,%rdx
    8879:	48 89 10             	mov    %rdx,(%rax)
    887c:	4c 8b 20             	mov    (%rax),%r12
    887f:	48 8b 05 e2 28 01 00 	mov    0x128e2(%rip),%rax        # 1b168 <g_114>
    8886:	48 8b 00             	mov    (%rax),%rax
    8889:	0f b7 00             	movzwl (%rax),%eax
    888c:	0f bf d0             	movswl %ax,%edx
    888f:	48 8b 85 80 fe ff ff 	mov    -0x180(%rbp),%rax
    8896:	0f b7 00             	movzwl (%rax),%eax
    8899:	8d 48 ff             	lea    -0x1(%rax),%ecx
    889c:	48 8b 85 80 fe ff ff 	mov    -0x180(%rbp),%rax
    88a3:	66 89 08             	mov    %cx,(%rax)
    88a6:	48 8b 85 80 fe ff ff 	mov    -0x180(%rbp),%rax
    88ad:	0f b7 00             	movzwl (%rax),%eax
    88b0:	0f b7 c0             	movzwl %ax,%eax
    88b3:	89 d6                	mov    %edx,%esi
    88b5:	89 c7                	mov    %eax,%edi
    88b7:	e8 02 d5 ff ff       	callq  5dbe <safe_lshift_func_uint16_t_u_s>
    88bc:	0f b7 c0             	movzwl %ax,%eax
    88bf:	49 39 c4             	cmp    %rax,%r12
    88c2:	0f b6 05 8b 0b 01 00 	movzbl 0x10b8b(%rip),%eax        # 19454 <g_143>
    88c9:	0f be c0             	movsbl %al,%eax
    88cc:	be b1 00 00 00       	mov    $0xb1,%esi
    88d1:	89 c7                	mov    %eax,%edi
    88d3:	e8 94 ca ff ff       	callq  536c <safe_rshift_func_int8_t_s_u>
    88d8:	41 89 c5             	mov    %eax,%r13d
    88db:	8b 85 44 fe ff ff    	mov    -0x1bc(%rbp),%eax
    88e1:	44 0f b6 e0          	movzbl %al,%r12d
    88e5:	48 8b 85 20 fe ff ff 	mov    -0x1e0(%rbp),%rax
    88ec:	0f b6 00             	movzbl (%rax),%eax
    88ef:	0f be c0             	movsbl %al,%eax
    88f2:	be 02 00 00 00       	mov    $0x2,%esi
    88f7:	89 c7                	mov    %eax,%edi
    88f9:	e8 6e ca ff ff       	callq  536c <safe_rshift_func_int8_t_s_u>
    88fe:	0f b6 95 3d fe ff ff 	movzbl -0x1c3(%rbp),%edx
    8905:	0f b6 85 2c fe ff ff 	movzbl -0x1d4(%rbp),%eax
    890c:	32 85 3d fe ff ff    	xor    -0x1c3(%rbp),%al
    8912:	0f b6 c0             	movzbl %al,%eax
    8915:	89 d6                	mov    %edx,%esi
    8917:	89 c7                	mov    %eax,%edi
    8919:	e8 bd d2 ff ff       	callq  5bdb <safe_div_func_uint8_t_u_u>
    891e:	0f b6 95 2c fe ff ff 	movzbl -0x1d4(%rbp),%edx
    8925:	48 8b 05 7c 28 01 00 	mov    0x1287c(%rip),%rax        # 1b1a8 <g_782>
    892c:	48 8b 00             	mov    (%rax),%rax
    892f:	48 8b 00             	mov    (%rax),%rax
    8932:	48 8b 00             	mov    (%rax),%rax
    8935:	0f b7 08             	movzwl (%rax),%ecx
    8938:	0f b6 d2             	movzbl %dl,%edx
    893b:	48 8b 05 66 28 01 00 	mov    0x12866(%rip),%rax        # 1b1a8 <g_782>
    8942:	48 8b 00             	mov    (%rax),%rax
    8945:	48 8b 00             	mov    (%rax),%rax
    8948:	48 8b 00             	mov    (%rax),%rax
    894b:	31 ca                	xor    %ecx,%edx
    894d:	66 89 10             	mov    %dx,(%rax)
    8950:	0f b7 00             	movzwl (%rax),%eax
    8953:	66 85 c0             	test   %ax,%ax
    8956:	75 0a                	jne    8962 <func_27+0x40a>
    8958:	48 83 bd 78 fe ff ff 	cmpq   $0x0,-0x188(%rbp)
    895f:	00 
    8960:	74 07                	je     8969 <func_27+0x411>
    8962:	b8 01 00 00 00       	mov    $0x1,%eax
    8967:	eb 05                	jmp    896e <func_27+0x416>
    8969:	b8 00 00 00 00       	mov    $0x0,%eax
    896e:	0f b6 c0             	movzbl %al,%eax
    8971:	44 89 e6             	mov    %r12d,%esi
    8974:	89 c7                	mov    %eax,%edi
    8976:	e8 33 d2 ff ff       	callq  5bae <safe_mod_func_uint8_t_u_u>
    897b:	0f b6 c0             	movzbl %al,%eax
    897e:	be c5 40 00 00       	mov    $0x40c5,%esi
    8983:	89 c7                	mov    %eax,%edi
    8985:	e8 8c ca ff ff       	callq  5416 <safe_mod_func_int16_t_s_s>
    898a:	f7 d0                	not    %eax
    898c:	48 0f bf d0          	movswq %ax,%rdx
    8990:	0f b6 85 2c fe ff ff 	movzbl -0x1d4(%rbp),%eax
    8997:	48 39 c2             	cmp    %rax,%rdx
    899a:	7e 09                	jle    89a5 <func_27+0x44d>
    899c:	80 bd 2c fe ff ff 00 	cmpb   $0x0,-0x1d4(%rbp)
    89a3:	74 07                	je     89ac <func_27+0x454>
    89a5:	b8 01 00 00 00       	mov    $0x1,%eax
    89aa:	eb 05                	jmp    89b1 <func_27+0x459>
    89ac:	b8 00 00 00 00       	mov    $0x0,%eax
    89b1:	0f be d0             	movsbl %al,%edx
    89b4:	8b 85 44 fe ff ff    	mov    -0x1bc(%rbp),%eax
    89ba:	0f be c0             	movsbl %al,%eax
    89bd:	89 d6                	mov    %edx,%esi
    89bf:	89 c7                	mov    %eax,%edi
    89c1:	e8 2c c8 ff ff       	callq  51f2 <safe_sub_func_int8_t_s_s>
    89c6:	41 38 c5             	cmp    %al,%r13b
    89c9:	0f 9d c0             	setge  %al
    89cc:	0f b6 c0             	movzbl %al,%eax
    89cf:	89 de                	mov    %ebx,%esi
    89d1:	89 c7                	mov    %eax,%edi
    89d3:	e8 3a c8 ff ff       	callq  5212 <safe_mul_func_int8_t_s_s>
    89d8:	be f9 3d 17 a2       	mov    $0xa2173df9,%esi
    89dd:	bf 00 00 00 00       	mov    $0x0,%edi
    89e2:	e8 18 cd ff ff       	callq  56ff <safe_div_func_int32_t_s_s>
    89e7:	85 c0                	test   %eax,%eax
    89e9:	74 47                	je     8a32 <func_27+0x4da>
    89eb:	48 8d 05 72 0c 01 00 	lea    0x10c72(%rip),%rax        # 19664 <g_226+0x4>
    89f2:	48 89 85 90 fe ff ff 	mov    %rax,-0x170(%rbp)
    89f9:	c7 85 68 fe ff ff 03 	movl   $0x3,-0x198(%rbp)
    8a00:	00 00 00 
    8a03:	48 8d 05 96 27 01 00 	lea    0x12796(%rip),%rax        # 1b1a0 <g_614>
    8a0a:	48 89 85 98 fe ff ff 	mov    %rax,-0x168(%rbp)
    8a11:	48 8b 85 18 fe ff ff 	mov    -0x1e8(%rbp),%rax
    8a18:	48 8d 95 40 fe ff ff 	lea    -0x1c0(%rbp),%rdx
    8a1f:	48 89 10             	mov    %rdx,(%rax)
    8a22:	0f b6 05 03 06 01 00 	movzbl 0x10603(%rip),%eax        # 1902c <g_54>
    8a29:	48 0f be c0          	movsbq %al,%rax
    8a2d:	e9 66 02 00 00       	jmpq   8c98 <func_27+0x740>
    8a32:	48 8d 05 17 27 01 00 	lea    0x12717(%rip),%rax        # 1b150 <g_82>
    8a39:	48 89 85 70 fe ff ff 	mov    %rax,-0x190(%rbp)
    8a40:	48 8d 85 70 fe ff ff 	lea    -0x190(%rbp),%rax
    8a47:	48 89 85 70 ff ff ff 	mov    %rax,-0x90(%rbp)
    8a4e:	48 8d 85 70 fe ff ff 	lea    -0x190(%rbp),%rax
    8a55:	48 89 85 78 ff ff ff 	mov    %rax,-0x88(%rbp)
    8a5c:	48 c7 45 80 00 00 00 	movq   $0x0,-0x80(%rbp)
    8a63:	00 
    8a64:	48 8d 85 70 fe ff ff 	lea    -0x190(%rbp),%rax
    8a6b:	48 89 45 88          	mov    %rax,-0x78(%rbp)
    8a6f:	48 8d 85 70 fe ff ff 	lea    -0x190(%rbp),%rax
    8a76:	48 89 45 90          	mov    %rax,-0x70(%rbp)
    8a7a:	48 c7 45 98 00 00 00 	movq   $0x0,-0x68(%rbp)
    8a81:	00 
    8a82:	48 8d 85 70 fe ff ff 	lea    -0x190(%rbp),%rax
    8a89:	48 89 45 a0          	mov    %rax,-0x60(%rbp)
    8a8d:	48 8d 85 70 fe ff ff 	lea    -0x190(%rbp),%rax
    8a94:	48 89 45 a8          	mov    %rax,-0x58(%rbp)
    8a98:	48 c7 45 b0 00 00 00 	movq   $0x0,-0x50(%rbp)
    8a9f:	00 
    8aa0:	48 8d 85 70 fe ff ff 	lea    -0x190(%rbp),%rax
    8aa7:	48 89 45 b8          	mov    %rax,-0x48(%rbp)
    8aab:	48 8d 85 70 fe ff ff 	lea    -0x190(%rbp),%rax
    8ab2:	48 89 45 c0          	mov    %rax,-0x40(%rbp)
    8ab6:	48 c7 45 c8 00 00 00 	movq   $0x0,-0x38(%rbp)
    8abd:	00 
    8abe:	c7 05 2c 0d 01 00 00 	movl   $0x0,0x10d2c(%rip)        # 197f4 <g_807>
    8ac5:	00 00 00 
    8ac8:	90                   	nop
    8ac9:	8b 05 25 0d 01 00    	mov    0x10d25(%rip),%eax        # 197f4 <g_807>
    8acf:	85 c0                	test   %eax,%eax
    8ad1:	75 0c                	jne    8adf <func_27+0x587>
    8ad3:	0f b6 85 2c fe ff ff 	movzbl -0x1d4(%rbp),%eax
    8ada:	e9 b9 01 00 00       	jmpq   8c98 <func_27+0x740>
    8adf:	80 bd 2c fe ff ff 00 	cmpb   $0x0,-0x1d4(%rbp)
    8ae6:	0f 85 62 01 00 00    	jne    8c4e <func_27+0x6f6>
    8aec:	48 8b 05 ad 26 01 00 	mov    0x126ad(%rip),%rax        # 1b1a0 <g_614>
    8af3:	8b 00                	mov    (%rax),%eax
    8af5:	85 c0                	test   %eax,%eax
    8af7:	0f 85 54 01 00 00    	jne    8c51 <func_27+0x6f9>
    8afd:	48 8b 05 9c 26 01 00 	mov    0x1269c(%rip),%rax        # 1b1a0 <g_614>
    8b04:	8b 00                	mov    (%rax),%eax
    8b06:	31 85 44 fe ff ff    	xor    %eax,-0x1bc(%rbp)
    8b0c:	48 8d 05 3d 26 01 00 	lea    0x1263d(%rip),%rax        # 1b150 <g_82>
    8b13:	48 89 85 38 ff ff ff 	mov    %rax,-0xc8(%rbp)
    8b1a:	8b 85 40 fe ff ff    	mov    -0x1c0(%rbp),%eax
    8b20:	83 f0 02             	xor    $0x2,%eax
    8b23:	89 85 40 fe ff ff    	mov    %eax,-0x1c0(%rbp)
    8b29:	8b 05 11 10 01 00    	mov    0x11011(%rip),%eax        # 19b40 <g_1616>
    8b2f:	83 c0 01             	add    $0x1,%eax
    8b32:	89 05 08 10 01 00    	mov    %eax,0x11008(%rip)        # 19b40 <g_1616>
    8b38:	66 c7 05 21 0c 01 00 	movw   $0x0,0x10c21(%rip)        # 19762 <g_240>
    8b3f:	00 00 
    8b41:	e9 f6 00 00 00       	jmpq   8c3c <func_27+0x6e4>
    8b46:	c6 85 70 ff ff ff 50 	movb   $0x50,-0x90(%rbp)
    8b4d:	c6 85 71 ff ff ff 00 	movb   $0x0,-0x8f(%rbp)
    8b54:	c6 85 72 ff ff ff 01 	movb   $0x1,-0x8e(%rbp)
    8b5b:	c6 85 73 ff ff ff 00 	movb   $0x0,-0x8d(%rbp)
    8b62:	c6 85 74 ff ff ff 50 	movb   $0x50,-0x8c(%rbp)
    8b69:	c6 85 75 ff ff ff 06 	movb   $0x6,-0x8b(%rbp)
    8b70:	c6 85 76 ff ff ff 50 	movb   $0x50,-0x8a(%rbp)
    8b77:	c6 85 77 ff ff ff 00 	movb   $0x0,-0x89(%rbp)
    8b7e:	c6 85 78 ff ff ff 01 	movb   $0x1,-0x88(%rbp)
    8b85:	c6 85 79 ff ff ff 00 	movb   $0x0,-0x87(%rbp)
    8b8c:	c6 85 7a ff ff ff 50 	movb   $0x50,-0x86(%rbp)
    8b93:	c6 85 7b ff ff ff 06 	movb   $0x6,-0x85(%rbp)
    8b9a:	c6 85 7c ff ff ff 50 	movb   $0x50,-0x84(%rbp)
    8ba1:	c6 85 7d ff ff ff 00 	movb   $0x0,-0x83(%rbp)
    8ba8:	c6 85 7e ff ff ff 01 	movb   $0x1,-0x82(%rbp)
    8baf:	c6 85 7f ff ff ff 00 	movb   $0x0,-0x81(%rbp)
    8bb6:	c6 45 80 50          	movb   $0x50,-0x80(%rbp)
    8bba:	c6 45 81 06          	movb   $0x6,-0x7f(%rbp)
    8bbe:	c6 45 82 50          	movb   $0x50,-0x7e(%rbp)
    8bc2:	c6 45 83 00          	movb   $0x0,-0x7d(%rbp)
    8bc6:	0f b6 85 75 ff ff ff 	movzbl -0x8b(%rbp),%eax
    8bcd:	0f be d8             	movsbl %al,%ebx
    8bd0:	0f b7 05 8b 0b 01 00 	movzwl 0x10b8b(%rip),%eax        # 19762 <g_240>
    8bd7:	98                   	cwtl   
    8bd8:	83 c0 06             	add    $0x6,%eax
    8bdb:	48 98                	cltq   
    8bdd:	48 8d 14 85 00 00 00 	lea    0x0(,%rax,4),%rdx
    8be4:	00 
    8be5:	48 8d 05 d4 30 01 00 	lea    0x130d4(%rip),%rax        # 1bcc0 <g_594>
    8bec:	c7 04 02 08 00 00 00 	movl   $0x8,(%rdx,%rax,1)
    8bf3:	0f b6 85 2c fe ff ff 	movzbl -0x1d4(%rbp),%eax
    8bfa:	48 89 c6             	mov    %rax,%rsi
    8bfd:	48 bf cb 72 9a 77 09 	movabs $0x88a5109779a72cb,%rdi
    8c04:	51 8a 08 
    8c07:	e8 9c cc ff ff       	callq  58a8 <safe_sub_func_int64_t_s_s>
    8c0c:	48 85 c0             	test   %rax,%rax
    8c0f:	74 07                	je     8c18 <func_27+0x6c0>
    8c11:	b8 01 00 00 00       	mov    $0x1,%eax
    8c16:	eb 05                	jmp    8c1d <func_27+0x6c5>
    8c18:	b8 00 00 00 00       	mov    $0x0,%eax
    8c1d:	39 d8                	cmp    %ebx,%eax
    8c1f:	0f 94 c0             	sete   %al
    8c22:	0f b6 c0             	movzbl %al,%eax
    8c25:	89 85 4c fe ff ff    	mov    %eax,-0x1b4(%rbp)
    8c2b:	0f b7 05 30 0b 01 00 	movzwl 0x10b30(%rip),%eax        # 19762 <g_240>
    8c32:	83 c0 01             	add    $0x1,%eax
    8c35:	66 89 05 26 0b 01 00 	mov    %ax,0x10b26(%rip)        # 19762 <g_240>
    8c3c:	0f b7 05 1f 0b 01 00 	movzwl 0x10b1f(%rip),%eax        # 19762 <g_240>
    8c43:	66 85 c0             	test   %ax,%ax
    8c46:	0f 8e fa fe ff ff    	jle    8b46 <func_27+0x5ee>
    8c4c:	eb 04                	jmp    8c52 <func_27+0x6fa>
    8c4e:	90                   	nop
    8c4f:	eb 01                	jmp    8c52 <func_27+0x6fa>
    8c51:	90                   	nop
    8c52:	8b 05 f8 07 01 00    	mov    0x107f8(%rip),%eax        # 19450 <g_142>
    8c58:	83 c0 01             	add    $0x1,%eax
    8c5b:	89 05 ef 07 01 00    	mov    %eax,0x107ef(%rip)        # 19450 <g_142>
    8c61:	8b 05 e9 07 01 00    	mov    0x107e9(%rip),%eax        # 19450 <g_142>
    8c67:	85 c0                	test   %eax,%eax
    8c69:	0f 8e 92 fa ff ff    	jle    8701 <func_27+0x1a9>
    8c6f:	48 8b 05 d2 07 01 00 	mov    0x107d2(%rip),%rax        # 19448 <g_140>
    8c76:	48 83 c0 01          	add    $0x1,%rax
    8c7a:	48 89 05 c7 07 01 00 	mov    %rax,0x107c7(%rip)        # 19448 <g_140>
    8c81:	48 8b 05 c0 07 01 00 	mov    0x107c0(%rip),%rax        # 19448 <g_140>
    8c88:	48 83 f8 01          	cmp    $0x1,%rax
    8c8c:	0f 86 48 f9 ff ff    	jbe    85da <func_27+0x82>
    8c92:	8b 85 54 fe ff ff    	mov    -0x1ac(%rbp),%eax
    8c98:	48 8b 4d d8          	mov    -0x28(%rbp),%rcx
    8c9c:	64 48 33 0c 25 28 00 	xor    %fs:0x28,%rcx
    8ca3:	00 00 
    8ca5:	74 05                	je     8cac <func_27+0x754>
    8ca7:	e8 c4 c3 ff ff       	callq  5070 <__stack_chk_fail@plt>
    8cac:	48 81 c4 d8 01 00 00 	add    $0x1d8,%rsp
    8cb3:	5b                   	pop    %rbx
    8cb4:	41 5c                	pop    %r12
    8cb6:	41 5d                	pop    %r13
    8cb8:	5d                   	pop    %rbp
    8cb9:	c3                   	retq   

0000000000008cba <func_31>:
    8cba:	f3 0f 1e fa          	endbr64 
    8cbe:	55                   	push   %rbp
    8cbf:	48 89 e5             	mov    %rsp,%rbp
    8cc2:	41 57                	push   %r15
    8cc4:	41 56                	push   %r14
    8cc6:	41 55                	push   %r13
    8cc8:	41 54                	push   %r12
    8cca:	53                   	push   %rbx
    8ccb:	48 81 ec 00 10 00 00 	sub    $0x1000,%rsp
    8cd2:	48 83 0c 24 00       	orq    $0x0,(%rsp)
    8cd7:	48 81 ec 98 07 00 00 	sub    $0x798,%rsp
    8cde:	48 89 bd 68 e8 ff ff 	mov    %rdi,-0x1798(%rbp)
    8ce5:	48 89 b5 60 e8 ff ff 	mov    %rsi,-0x17a0(%rbp)
    8cec:	48 89 95 58 e8 ff ff 	mov    %rdx,-0x17a8(%rbp)
    8cf3:	64 48 8b 04 25 28 00 	mov    %fs:0x28,%rax
    8cfa:	00 00 
    8cfc:	48 89 45 c8          	mov    %rax,-0x38(%rbp)
    8d00:	31 c0                	xor    %eax,%eax
    8d02:	48 c7 85 a8 e9 ff ff 	movq   $0x0,-0x1658(%rbp)
    8d09:	00 00 00 00 
    8d0d:	c7 85 8c e8 ff ff 3b 	movl   $0x1901c13b,-0x1774(%rbp)
    8d14:	c1 01 19 
    8d17:	48 c7 85 38 e9 ff ff 	movq   $0x0,-0x16c8(%rbp)
    8d1e:	00 00 00 00 
    8d22:	48 8d 85 38 e9 ff ff 	lea    -0x16c8(%rbp),%rax
    8d29:	48 89 85 b0 e9 ff ff 	mov    %rax,-0x1650(%rbp)
    8d30:	c7 85 cc e8 ff ff ff 	movl   $0xffffffff,-0x1734(%rbp)
    8d37:	ff ff ff 
    8d3a:	48 8d 85 e0 fb ff ff 	lea    -0x420(%rbp),%rax
    8d41:	48 8d 15 78 c3 00 00 	lea    0xc378(%rip),%rdx        # 150c0 <g_1978+0x40>
    8d48:	b9 7d 00 00 00       	mov    $0x7d,%ecx
    8d4d:	48 89 c7             	mov    %rax,%rdi
    8d50:	48 89 d6             	mov    %rdx,%rsi
    8d53:	f3 48 a5             	rep movsq %ds:(%rsi),%es:(%rdi)
    8d56:	48 b8 51 b2 21 8b 77 	movabs $0xe34adf778b21b251,%rax
    8d5d:	df 4a e3 
    8d60:	48 89 85 40 e9 ff ff 	mov    %rax,-0x16c0(%rbp)
    8d67:	48 8d 05 1a 2b 01 00 	lea    0x12b1a(%rip),%rax        # 1b888 <g_2>
    8d6e:	48 89 85 48 e9 ff ff 	mov    %rax,-0x16b8(%rbp)
    8d75:	48 8d 85 48 e9 ff ff 	lea    -0x16b8(%rbp),%rax
    8d7c:	48 89 85 50 e9 ff ff 	mov    %rax,-0x16b0(%rbp)
    8d83:	48 8d 05 fe 23 01 00 	lea    0x123fe(%rip),%rax        # 1b188 <g_396>
    8d8a:	48 89 85 b8 e9 ff ff 	mov    %rax,-0x1648(%rbp)
    8d91:	c7 85 90 ed ff ff 00 	movl   $0x0,-0x1270(%rbp)
    8d98:	00 00 00 
    8d9b:	c7 85 94 ed ff ff 00 	movl   $0x0,-0x126c(%rbp)
    8da2:	00 00 00 
    8da5:	c7 85 98 ed ff ff f6 	movl   $0x9d949f6,-0x1268(%rbp)
    8dac:	49 d9 09 
    8daf:	c7 85 9c ed ff ff ff 	movl   $0xffffffff,-0x1264(%rbp)
    8db6:	ff ff ff 
    8db9:	c7 85 a0 ed ff ff 02 	movl   $0x2,-0x1260(%rbp)
    8dc0:	00 00 00 
    8dc3:	c7 85 a4 ed ff ff f6 	movl   $0x9d949f6,-0x125c(%rbp)
    8dca:	49 d9 09 
    8dcd:	c7 85 a8 ed ff ff 02 	movl   $0x2,-0x1258(%rbp)
    8dd4:	00 00 00 
    8dd7:	c7 85 ac ed ff ff ff 	movl   $0xffffffff,-0x1254(%rbp)
    8dde:	ff ff ff 
    8de1:	c7 85 b0 ed ff ff f6 	movl   $0x9d949f6,-0x1250(%rbp)
    8de8:	49 d9 09 
    8deb:	c7 85 b4 ed ff ff 00 	movl   $0x0,-0x124c(%rbp)
    8df2:	00 00 00 
    8df5:	c7 85 b8 ed ff ff 00 	movl   $0x0,-0x1248(%rbp)
    8dfc:	00 00 00 
    8dff:	c7 85 bc ed ff ff f6 	movl   $0x9d949f6,-0x1244(%rbp)
    8e06:	49 d9 09 
    8e09:	c7 85 c0 ed ff ff ff 	movl   $0xffffffff,-0x1240(%rbp)
    8e10:	ff ff ff 
    8e13:	c7 85 c4 ed ff ff 02 	movl   $0x2,-0x123c(%rbp)
    8e1a:	00 00 00 
    8e1d:	c7 85 c8 ed ff ff f6 	movl   $0x9d949f6,-0x1238(%rbp)
    8e24:	49 d9 09 
    8e27:	c7 85 cc ed ff ff 02 	movl   $0x2,-0x1234(%rbp)
    8e2e:	00 00 00 
    8e31:	c7 85 d0 ed ff ff ff 	movl   $0xffffffff,-0x1230(%rbp)
    8e38:	ff ff ff 
    8e3b:	c7 85 d4 ed ff ff f6 	movl   $0x9d949f6,-0x122c(%rbp)
    8e42:	49 d9 09 
    8e45:	c7 85 d8 ed ff ff 00 	movl   $0x0,-0x1228(%rbp)
    8e4c:	00 00 00 
    8e4f:	c7 85 dc ed ff ff 00 	movl   $0x0,-0x1224(%rbp)
    8e56:	00 00 00 
    8e59:	c7 85 e0 ed ff ff f6 	movl   $0x9d949f6,-0x1220(%rbp)
    8e60:	49 d9 09 
    8e63:	c7 85 e4 ed ff ff ff 	movl   $0xffffffff,-0x121c(%rbp)
    8e6a:	ff ff ff 
    8e6d:	c7 85 e8 ed ff ff 02 	movl   $0x2,-0x1218(%rbp)
    8e74:	00 00 00 
    8e77:	c7 85 ec ed ff ff f6 	movl   $0x9d949f6,-0x1214(%rbp)
    8e7e:	49 d9 09 
    8e81:	c7 85 f0 ed ff ff 02 	movl   $0x2,-0x1210(%rbp)
    8e88:	00 00 00 
    8e8b:	c7 85 f4 ed ff ff ff 	movl   $0xffffffff,-0x120c(%rbp)
    8e92:	ff ff ff 
    8e95:	c7 85 f8 ed ff ff f6 	movl   $0x9d949f6,-0x1208(%rbp)
    8e9c:	49 d9 09 
    8e9f:	c7 85 fc ed ff ff 00 	movl   $0x0,-0x1204(%rbp)
    8ea6:	00 00 00 
    8ea9:	c7 85 00 ee ff ff 00 	movl   $0x0,-0x1200(%rbp)
    8eb0:	00 00 00 
    8eb3:	c7 85 04 ee ff ff f6 	movl   $0x9d949f6,-0x11fc(%rbp)
    8eba:	49 d9 09 
    8ebd:	c7 85 08 ee ff ff ff 	movl   $0xffffffff,-0x11f8(%rbp)
    8ec4:	ff ff ff 
    8ec7:	c7 85 0c ee ff ff 02 	movl   $0x2,-0x11f4(%rbp)
    8ece:	00 00 00 
    8ed1:	c7 85 10 ee ff ff f6 	movl   $0x9d949f6,-0x11f0(%rbp)
    8ed8:	49 d9 09 
    8edb:	c7 85 14 ee ff ff 02 	movl   $0x2,-0x11ec(%rbp)
    8ee2:	00 00 00 
    8ee5:	c7 85 18 ee ff ff ff 	movl   $0xffffffff,-0x11e8(%rbp)
    8eec:	ff ff ff 
    8eef:	c7 85 1c ee ff ff f6 	movl   $0x9d949f6,-0x11e4(%rbp)
    8ef6:	49 d9 09 
    8ef9:	c7 85 20 ee ff ff 00 	movl   $0x0,-0x11e0(%rbp)
    8f00:	00 00 00 
    8f03:	c7 85 24 ee ff ff 00 	movl   $0x0,-0x11dc(%rbp)
    8f0a:	00 00 00 
    8f0d:	c7 85 28 ee ff ff f6 	movl   $0x9d949f6,-0x11d8(%rbp)
    8f14:	49 d9 09 
    8f17:	c7 85 2c ee ff ff ff 	movl   $0xffffffff,-0x11d4(%rbp)
    8f1e:	ff ff ff 
    8f21:	c7 85 30 ee ff ff 02 	movl   $0x2,-0x11d0(%rbp)
    8f28:	00 00 00 
    8f2b:	c7 85 34 ee ff ff f6 	movl   $0x9d949f6,-0x11cc(%rbp)
    8f32:	49 d9 09 
    8f35:	c7 85 38 ee ff ff 02 	movl   $0x2,-0x11c8(%rbp)
    8f3c:	00 00 00 
    8f3f:	c7 85 3c ee ff ff ff 	movl   $0xffffffff,-0x11c4(%rbp)
    8f46:	ff ff ff 
    8f49:	c7 85 40 ee ff ff f6 	movl   $0x9d949f6,-0x11c0(%rbp)
    8f50:	49 d9 09 
    8f53:	c7 85 44 ee ff ff 00 	movl   $0x0,-0x11bc(%rbp)
    8f5a:	00 00 00 
    8f5d:	c7 85 48 ee ff ff 00 	movl   $0x0,-0x11b8(%rbp)
    8f64:	00 00 00 
    8f67:	c7 85 4c ee ff ff f6 	movl   $0x9d949f6,-0x11b4(%rbp)
    8f6e:	49 d9 09 
    8f71:	c7 85 50 ee ff ff ff 	movl   $0xffffffff,-0x11b0(%rbp)
    8f78:	ff ff ff 
    8f7b:	c7 85 54 ee ff ff 02 	movl   $0x2,-0x11ac(%rbp)
    8f82:	00 00 00 
    8f85:	48 8d 05 fc 07 01 00 	lea    0x107fc(%rip),%rax        # 19788 <g_268>
    8f8c:	48 89 85 c0 e9 ff ff 	mov    %rax,-0x1640(%rbp)
    8f93:	c6 85 78 e8 ff ff 2d 	movb   $0x2d,-0x1788(%rbp)
    8f9a:	c7 85 d0 e8 ff ff 07 	movl   $0x7,-0x1730(%rbp)
    8fa1:	00 00 00 
    8fa4:	c7 85 d4 e8 ff ff 01 	movl   $0x1,-0x172c(%rbp)
    8fab:	00 00 00 
    8fae:	48 8d 85 e0 f3 ff ff 	lea    -0xc20(%rbp),%rax
    8fb5:	48 8d 15 24 15 01 00 	lea    0x11524(%rip),%rdx        # 1a4e0 <g_2123+0x7f0>
    8fbc:	b9 3c 00 00 00       	mov    $0x3c,%ecx
    8fc1:	48 89 c7             	mov    %rax,%rdi
    8fc4:	48 89 d6             	mov    %rdx,%rsi
    8fc7:	f3 48 a5             	rep movsq %ds:(%rsi),%es:(%rdi)
    8fca:	c6 85 79 e8 ff ff bf 	movb   $0xbf,-0x1787(%rbp)
    8fd1:	c6 85 77 e8 ff ff 02 	movb   $0x2,-0x1789(%rbp)
    8fd8:	c7 85 d8 e8 ff ff 36 	movl   $0x15c56036,-0x1728(%rbp)
    8fdf:	60 c5 15 
    8fe2:	c7 85 dc e8 ff ff e0 	movl   $0x89d181e0,-0x1724(%rbp)
    8fe9:	81 d1 89 
    8fec:	c7 85 90 e8 ff ff 00 	movl   $0x0,-0x1770(%rbp)
    8ff3:	00 00 00 
    8ff6:	eb 19                	jmp    9011 <func_31+0x357>
    8ff8:	8b 85 90 e8 ff ff    	mov    -0x1770(%rbp),%eax
    8ffe:	48 98                	cltq   
    9000:	66 c7 84 45 f4 ea ff 	movw   $0xfffd,-0x150c(%rbp,%rax,2)
    9007:	ff fd ff 
    900a:	83 85 90 e8 ff ff 01 	addl   $0x1,-0x1770(%rbp)
    9011:	83 bd 90 e8 ff ff 01 	cmpl   $0x1,-0x1770(%rbp)
    9018:	7e de                	jle    8ff8 <func_31+0x33e>
    901a:	c7 85 90 e8 ff ff 00 	movl   $0x0,-0x1770(%rbp)
    9021:	00 00 00 
    9024:	eb 1e                	jmp    9044 <func_31+0x38a>
    9026:	8b 85 90 e8 ff ff    	mov    -0x1770(%rbp),%eax
    902c:	48 98                	cltq   
    902e:	48 8d 15 23 02 01 00 	lea    0x10223(%rip),%rdx        # 19258 <g_92+0x218>
    9035:	48 89 94 c5 10 eb ff 	mov    %rdx,-0x14f0(%rbp,%rax,8)
    903c:	ff 
    903d:	83 85 90 e8 ff ff 01 	addl   $0x1,-0x1770(%rbp)
    9044:	83 bd 90 e8 ff ff 02 	cmpl   $0x2,-0x1770(%rbp)
    904b:	7e d9                	jle    9026 <func_31+0x36c>
    904d:	c7 05 f9 03 01 00 00 	movl   $0x0,0x103f9(%rip)        # 19450 <g_142>
    9054:	00 00 00 
    9057:	e9 7c 26 00 00       	jmpq   b6d8 <func_31+0x2a1e>
    905c:	c6 85 7a e8 ff ff 69 	movb   $0x69,-0x1786(%rbp)
    9063:	48 c7 85 c8 e9 ff ff 	movq   $0x0,-0x1638(%rbp)
    906a:	00 00 00 00 
    906e:	48 8d 05 53 09 01 00 	lea    0x10953(%rip),%rax        # 199c8 <g_1207+0x1a8>
    9075:	48 89 85 58 e9 ff ff 	mov    %rax,-0x16a8(%rbp)
    907c:	48 8d 85 58 e9 ff ff 	lea    -0x16a8(%rbp),%rax
    9083:	48 89 85 60 e9 ff ff 	mov    %rax,-0x16a0(%rbp)
    908a:	48 8d 85 60 e9 ff ff 	lea    -0x16a0(%rbp),%rax
    9091:	48 89 85 20 ec ff ff 	mov    %rax,-0x13e0(%rbp)
    9098:	48 8d 85 60 e9 ff ff 	lea    -0x16a0(%rbp),%rax
    909f:	48 89 85 28 ec ff ff 	mov    %rax,-0x13d8(%rbp)
    90a6:	48 8d 85 60 e9 ff ff 	lea    -0x16a0(%rbp),%rax
    90ad:	48 89 85 30 ec ff ff 	mov    %rax,-0x13d0(%rbp)
    90b4:	48 8d 85 60 e9 ff ff 	lea    -0x16a0(%rbp),%rax
    90bb:	48 89 85 38 ec ff ff 	mov    %rax,-0x13c8(%rbp)
    90c2:	48 8d 85 60 e9 ff ff 	lea    -0x16a0(%rbp),%rax
    90c9:	48 89 85 40 ec ff ff 	mov    %rax,-0x13c0(%rbp)
    90d0:	48 8d 85 60 e9 ff ff 	lea    -0x16a0(%rbp),%rax
    90d7:	48 89 85 48 ec ff ff 	mov    %rax,-0x13b8(%rbp)
    90de:	48 8d 85 60 e9 ff ff 	lea    -0x16a0(%rbp),%rax
    90e5:	48 89 85 50 ec ff ff 	mov    %rax,-0x13b0(%rbp)
    90ec:	48 8d 85 60 e9 ff ff 	lea    -0x16a0(%rbp),%rax
    90f3:	48 89 85 58 ec ff ff 	mov    %rax,-0x13a8(%rbp)
    90fa:	48 8d 85 60 e9 ff ff 	lea    -0x16a0(%rbp),%rax
    9101:	48 89 85 60 ec ff ff 	mov    %rax,-0x13a0(%rbp)
    9108:	48 8d 85 60 e9 ff ff 	lea    -0x16a0(%rbp),%rax
    910f:	48 89 85 68 ec ff ff 	mov    %rax,-0x1398(%rbp)
    9116:	48 8d 85 60 e9 ff ff 	lea    -0x16a0(%rbp),%rax
    911d:	48 89 85 70 ec ff ff 	mov    %rax,-0x1390(%rbp)
    9124:	48 8d 85 60 e9 ff ff 	lea    -0x16a0(%rbp),%rax
    912b:	48 89 85 78 ec ff ff 	mov    %rax,-0x1388(%rbp)
    9132:	48 8d 85 20 ec ff ff 	lea    -0x13e0(%rbp),%rax
    9139:	48 89 85 68 e9 ff ff 	mov    %rax,-0x1698(%rbp)
    9140:	48 8d 85 68 e9 ff ff 	lea    -0x1698(%rbp),%rax
    9147:	48 89 85 a0 e9 ff ff 	mov    %rax,-0x1660(%rbp)
    914e:	c7 85 94 e8 ff ff ff 	movl   $0xffffffff,-0x176c(%rbp)
    9155:	ff ff ff 
    9158:	48 c7 85 70 e9 ff ff 	movq   $0x0,-0x1690(%rbp)
    915f:	00 00 00 00 
    9163:	48 8d 85 70 e9 ff ff 	lea    -0x1690(%rbp),%rax
    916a:	48 89 85 78 e9 ff ff 	mov    %rax,-0x1688(%rbp)
    9171:	48 8d 05 10 20 01 00 	lea    0x12010(%rip),%rax        # 1b188 <g_396>
    9178:	48 89 85 80 e9 ff ff 	mov    %rax,-0x1680(%rbp)
    917f:	c6 85 7b e8 ff ff 86 	movb   $0x86,-0x1785(%rbp)
    9186:	48 8d 05 83 2b 01 00 	lea    0x12b83(%rip),%rax        # 1bd10 <g_1348>
    918d:	48 89 85 88 e9 ff ff 	mov    %rax,-0x1678(%rbp)
    9194:	66 c7 85 84 e8 ff ff 	movw   $0xb299,-0x177c(%rbp)
    919b:	99 b2 
    919d:	48 8d 05 04 20 01 00 	lea    0x12004(%rip),%rax        # 1b1a8 <g_782>
    91a4:	48 89 85 d0 e9 ff ff 	mov    %rax,-0x1630(%rbp)
    91ab:	48 8d 05 be be 00 00 	lea    0xbebe(%rip),%rax        # 15070 <g_1393>
    91b2:	48 89 85 d8 e9 ff ff 	mov    %rax,-0x1628(%rbp)
    91b9:	48 8d 85 c0 f5 ff ff 	lea    -0xa40(%rbp),%rax
    91c0:	48 8d 15 f9 14 01 00 	lea    0x114f9(%rip),%rdx        # 1a6c0 <g_2123+0x9d0>
    91c7:	b9 5a 00 00 00       	mov    $0x5a,%ecx
    91cc:	48 89 c7             	mov    %rax,%rdi
    91cf:	48 89 d6             	mov    %rdx,%rsi
    91d2:	f3 48 a5             	rep movsq %ds:(%rsi),%es:(%rdi)
    91d5:	c7 85 e0 e8 ff ff a9 	movl   $0x591ceaa9,-0x1720(%rbp)
    91dc:	ea 1c 59 
    91df:	c7 85 e4 e8 ff ff e9 	movl   $0x8b16b3e9,-0x171c(%rbp)
    91e6:	b3 16 8b 
    91e9:	c7 85 98 e8 ff ff 00 	movl   $0x0,-0x1768(%rbp)
    91f0:	00 00 00 
    91f3:	eb 4d                	jmp    9242 <func_31+0x588>
    91f5:	c7 85 9c e8 ff ff 00 	movl   $0x0,-0x1764(%rbp)
    91fc:	00 00 00 
    91ff:	eb 31                	jmp    9232 <func_31+0x578>
    9201:	8b 85 9c e8 ff ff    	mov    -0x1764(%rbp),%eax
    9207:	48 63 c8             	movslq %eax,%rcx
    920a:	8b 85 98 e8 ff ff    	mov    -0x1768(%rbp),%eax
    9210:	48 63 d0             	movslq %eax,%rdx
    9213:	48 89 d0             	mov    %rdx,%rax
    9216:	48 c1 e0 02          	shl    $0x2,%rax
    921a:	48 01 d0             	add    %rdx,%rax
    921d:	48 01 c8             	add    %rcx,%rax
    9220:	c7 84 85 d0 eb ff ff 	movl   $0x1,-0x1430(%rbp,%rax,4)
    9227:	01 00 00 00 
    922b:	83 85 9c e8 ff ff 01 	addl   $0x1,-0x1764(%rbp)
    9232:	83 bd 9c e8 ff ff 04 	cmpl   $0x4,-0x1764(%rbp)
    9239:	7e c6                	jle    9201 <func_31+0x547>
    923b:	83 85 98 e8 ff ff 01 	addl   $0x1,-0x1768(%rbp)
    9242:	83 bd 98 e8 ff ff 03 	cmpl   $0x3,-0x1768(%rbp)
    9249:	7e aa                	jle    91f5 <func_31+0x53b>
    924b:	c7 05 87 05 01 00 00 	movl   $0x0,0x10587(%rip)        # 197dc <g_707>
    9252:	00 00 00 
    9255:	e9 57 24 00 00       	jmpq   b6b1 <func_31+0x29f7>
    925a:	48 8d 05 cf fd 00 00 	lea    0xfdcf(%rip),%rax        # 19030 <g_66>
    9261:	48 89 85 e0 e9 ff ff 	mov    %rax,-0x1620(%rbp)
    9268:	48 8d 85 b0 f0 ff ff 	lea    -0xf50(%rbp),%rax
    926f:	48 8d 15 4a c2 00 00 	lea    0xc24a(%rip),%rdx        # 154c0 <g_1978+0x440>
    9276:	b9 2d 00 00 00       	mov    $0x2d,%ecx
    927b:	48 89 c7             	mov    %rax,%rdi
    927e:	48 89 d6             	mov    %rdx,%rsi
    9281:	f3 48 a5             	rep movsq %ds:(%rsi),%es:(%rdi)
    9284:	48 8d 85 20 f2 ff ff 	lea    -0xde0(%rbp),%rax
    928b:	48 8d 15 0e 17 01 00 	lea    0x1170e(%rip),%rdx        # 1a9a0 <g_2123+0xcb0>
    9292:	b9 38 00 00 00       	mov    $0x38,%ecx
    9297:	48 89 c7             	mov    %rax,%rdi
    929a:	48 89 d6             	mov    %rdx,%rsi
    929d:	f3 48 a5             	rep movsq %ds:(%rsi),%es:(%rdi)
    92a0:	48 8d 05 e1 1e 01 00 	lea    0x11ee1(%rip),%rax        # 1b188 <g_396>
    92a7:	48 89 85 e8 e9 ff ff 	mov    %rax,-0x1618(%rbp)
    92ae:	66 c7 85 82 e8 ff ff 	movw   $0xfffb,-0x177e(%rbp)
    92b5:	fb ff 
    92b7:	c7 85 e0 ec ff ff ff 	movl   $0xffffffff,-0x1320(%rbp)
    92be:	ff ff ff 
    92c1:	c7 85 e4 ec ff ff ff 	movl   $0xffffffff,-0x131c(%rbp)
    92c8:	ff ff ff 
    92cb:	c7 85 e8 ec ff ff ff 	movl   $0xffffffff,-0x1318(%rbp)
    92d2:	ff ff ff 
    92d5:	c7 85 ec ec ff ff ff 	movl   $0xffffffff,-0x1314(%rbp)
    92dc:	ff ff ff 
    92df:	c7 85 f0 ec ff ff ff 	movl   $0xffffffff,-0x1310(%rbp)
    92e6:	ff ff ff 
    92e9:	c7 85 f4 ec ff ff ff 	movl   $0xffffffff,-0x130c(%rbp)
    92f0:	ff ff ff 
    92f3:	c7 85 f8 ec ff ff ff 	movl   $0xffffffff,-0x1308(%rbp)
    92fa:	ff ff ff 
    92fd:	c7 85 fc ec ff ff ff 	movl   $0xffffffff,-0x1304(%rbp)
    9304:	ff ff ff 
    9307:	c7 85 00 ed ff ff ff 	movl   $0xffffffff,-0x1300(%rbp)
    930e:	ff ff ff 
    9311:	c7 85 04 ed ff ff ff 	movl   $0xffffffff,-0x12fc(%rbp)
    9318:	ff ff ff 
    931b:	c7 85 08 ed ff ff ff 	movl   $0xffffffff,-0x12f8(%rbp)
    9322:	ff ff ff 
    9325:	c7 85 0c ed ff ff ff 	movl   $0xffffffff,-0x12f4(%rbp)
    932c:	ff ff ff 
    932f:	c7 85 10 ed ff ff ff 	movl   $0xffffffff,-0x12f0(%rbp)
    9336:	ff ff ff 
    9339:	c7 85 14 ed ff ff ff 	movl   $0xffffffff,-0x12ec(%rbp)
    9340:	ff ff ff 
    9343:	c7 85 18 ed ff ff ff 	movl   $0xffffffff,-0x12e8(%rbp)
    934a:	ff ff ff 
    934d:	c7 85 1c ed ff ff ff 	movl   $0xffffffff,-0x12e4(%rbp)
    9354:	ff ff ff 
    9357:	c7 85 20 ed ff ff ff 	movl   $0xffffffff,-0x12e0(%rbp)
    935e:	ff ff ff 
    9361:	c7 85 24 ed ff ff ff 	movl   $0xffffffff,-0x12dc(%rbp)
    9368:	ff ff ff 
    936b:	c7 85 28 ed ff ff ff 	movl   $0xffffffff,-0x12d8(%rbp)
    9372:	ff ff ff 
    9375:	c7 85 2c ed ff ff ff 	movl   $0xffffffff,-0x12d4(%rbp)
    937c:	ff ff ff 
    937f:	c7 85 30 ed ff ff ff 	movl   $0xffffffff,-0x12d0(%rbp)
    9386:	ff ff ff 
    9389:	c7 85 34 ed ff ff ff 	movl   $0xffffffff,-0x12cc(%rbp)
    9390:	ff ff ff 
    9393:	c7 85 38 ed ff ff ff 	movl   $0xffffffff,-0x12c8(%rbp)
    939a:	ff ff ff 
    939d:	c7 85 3c ed ff ff ff 	movl   $0xffffffff,-0x12c4(%rbp)
    93a4:	ff ff ff 
    93a7:	c7 85 40 ed ff ff ff 	movl   $0xffffffff,-0x12c0(%rbp)
    93ae:	ff ff ff 
    93b1:	c7 85 44 ed ff ff ff 	movl   $0xffffffff,-0x12bc(%rbp)
    93b8:	ff ff ff 
    93bb:	c7 85 48 ed ff ff ff 	movl   $0xffffffff,-0x12b8(%rbp)
    93c2:	ff ff ff 
    93c5:	c7 85 4c ed ff ff ff 	movl   $0xffffffff,-0x12b4(%rbp)
    93cc:	ff ff ff 
    93cf:	c7 85 50 ed ff ff ff 	movl   $0xffffffff,-0x12b0(%rbp)
    93d6:	ff ff ff 
    93d9:	c7 85 54 ed ff ff ff 	movl   $0xffffffff,-0x12ac(%rbp)
    93e0:	ff ff ff 
    93e3:	c7 85 58 ed ff ff ff 	movl   $0xffffffff,-0x12a8(%rbp)
    93ea:	ff ff ff 
    93ed:	c7 85 5c ed ff ff ff 	movl   $0xffffffff,-0x12a4(%rbp)
    93f4:	ff ff ff 
    93f7:	c7 85 60 ed ff ff ff 	movl   $0xffffffff,-0x12a0(%rbp)
    93fe:	ff ff ff 
    9401:	c7 85 64 ed ff ff ff 	movl   $0xffffffff,-0x129c(%rbp)
    9408:	ff ff ff 
    940b:	c7 85 68 ed ff ff ff 	movl   $0xffffffff,-0x1298(%rbp)
    9412:	ff ff ff 
    9415:	c7 85 6c ed ff ff ff 	movl   $0xffffffff,-0x1294(%rbp)
    941c:	ff ff ff 
    941f:	c7 85 70 ed ff ff ff 	movl   $0xffffffff,-0x1290(%rbp)
    9426:	ff ff ff 
    9429:	c7 85 74 ed ff ff ff 	movl   $0xffffffff,-0x128c(%rbp)
    9430:	ff ff ff 
    9433:	c7 85 78 ed ff ff ff 	movl   $0xffffffff,-0x1288(%rbp)
    943a:	ff ff ff 
    943d:	c7 85 7c ed ff ff ff 	movl   $0xffffffff,-0x1284(%rbp)
    9444:	ff ff ff 
    9447:	c7 85 80 ed ff ff ff 	movl   $0xffffffff,-0x1280(%rbp)
    944e:	ff ff ff 
    9451:	c7 85 84 ed ff ff ff 	movl   $0xffffffff,-0x127c(%rbp)
    9458:	ff ff ff 
    945b:	c7 85 e8 e8 ff ff 00 	movl   $0x0,-0x1718(%rbp)
    9462:	00 00 00 
    9465:	c6 85 7c e8 ff ff 00 	movb   $0x0,-0x1784(%rbp)
    946c:	48 8d 85 60 ef ff ff 	lea    -0x10a0(%rbp),%rax
    9473:	48 8d 15 e6 16 01 00 	lea    0x116e6(%rip),%rdx        # 1ab60 <g_2123+0xe70>
    947a:	b9 2a 00 00 00       	mov    $0x2a,%ecx
    947f:	48 89 c7             	mov    %rax,%rdi
    9482:	48 89 d6             	mov    %rdx,%rsi
    9485:	f3 48 a5             	rep movsq %ds:(%rsi),%es:(%rdi)
    9488:	48 8d 85 78 e9 ff ff 	lea    -0x1688(%rbp),%rax
    948f:	48 89 85 60 ee ff ff 	mov    %rax,-0x11a0(%rbp)
    9496:	48 8d 85 78 e9 ff ff 	lea    -0x1688(%rbp),%rax
    949d:	48 89 85 68 ee ff ff 	mov    %rax,-0x1198(%rbp)
    94a4:	48 8d 85 78 e9 ff ff 	lea    -0x1688(%rbp),%rax
    94ab:	48 89 85 70 ee ff ff 	mov    %rax,-0x1190(%rbp)
    94b2:	48 8d 85 78 e9 ff ff 	lea    -0x1688(%rbp),%rax
    94b9:	48 89 85 78 ee ff ff 	mov    %rax,-0x1188(%rbp)
    94c0:	48 8d 85 78 e9 ff ff 	lea    -0x1688(%rbp),%rax
    94c7:	48 89 85 80 ee ff ff 	mov    %rax,-0x1180(%rbp)
    94ce:	48 8d 85 78 e9 ff ff 	lea    -0x1688(%rbp),%rax
    94d5:	48 89 85 88 ee ff ff 	mov    %rax,-0x1178(%rbp)
    94dc:	48 8d 85 78 e9 ff ff 	lea    -0x1688(%rbp),%rax
    94e3:	48 89 85 90 ee ff ff 	mov    %rax,-0x1170(%rbp)
    94ea:	48 8d 85 78 e9 ff ff 	lea    -0x1688(%rbp),%rax
    94f1:	48 89 85 98 ee ff ff 	mov    %rax,-0x1168(%rbp)
    94f8:	48 8d 85 78 e9 ff ff 	lea    -0x1688(%rbp),%rax
    94ff:	48 89 85 a0 ee ff ff 	mov    %rax,-0x1160(%rbp)
    9506:	48 8d 85 78 e9 ff ff 	lea    -0x1688(%rbp),%rax
    950d:	48 89 85 a8 ee ff ff 	mov    %rax,-0x1158(%rbp)
    9514:	48 8d 85 78 e9 ff ff 	lea    -0x1688(%rbp),%rax
    951b:	48 89 85 b0 ee ff ff 	mov    %rax,-0x1150(%rbp)
    9522:	48 8d 85 78 e9 ff ff 	lea    -0x1688(%rbp),%rax
    9529:	48 89 85 b8 ee ff ff 	mov    %rax,-0x1148(%rbp)
    9530:	48 8d 85 78 e9 ff ff 	lea    -0x1688(%rbp),%rax
    9537:	48 89 85 c0 ee ff ff 	mov    %rax,-0x1140(%rbp)
    953e:	48 8d 85 78 e9 ff ff 	lea    -0x1688(%rbp),%rax
    9545:	48 89 85 c8 ee ff ff 	mov    %rax,-0x1138(%rbp)
    954c:	48 8d 85 78 e9 ff ff 	lea    -0x1688(%rbp),%rax
    9553:	48 89 85 d0 ee ff ff 	mov    %rax,-0x1130(%rbp)
    955a:	48 8d 85 78 e9 ff ff 	lea    -0x1688(%rbp),%rax
    9561:	48 89 85 d8 ee ff ff 	mov    %rax,-0x1128(%rbp)
    9568:	48 8d 85 78 e9 ff ff 	lea    -0x1688(%rbp),%rax
    956f:	48 89 85 e0 ee ff ff 	mov    %rax,-0x1120(%rbp)
    9576:	48 8d 85 78 e9 ff ff 	lea    -0x1688(%rbp),%rax
    957d:	48 89 85 e8 ee ff ff 	mov    %rax,-0x1118(%rbp)
    9584:	48 8d 85 78 e9 ff ff 	lea    -0x1688(%rbp),%rax
    958b:	48 89 85 f0 ee ff ff 	mov    %rax,-0x1110(%rbp)
    9592:	48 8d 85 78 e9 ff ff 	lea    -0x1688(%rbp),%rax
    9599:	48 89 85 f8 ee ff ff 	mov    %rax,-0x1108(%rbp)
    95a0:	48 8d 85 78 e9 ff ff 	lea    -0x1688(%rbp),%rax
    95a7:	48 89 85 00 ef ff ff 	mov    %rax,-0x1100(%rbp)
    95ae:	48 8d 85 78 e9 ff ff 	lea    -0x1688(%rbp),%rax
    95b5:	48 89 85 08 ef ff ff 	mov    %rax,-0x10f8(%rbp)
    95bc:	48 8d 85 78 e9 ff ff 	lea    -0x1688(%rbp),%rax
    95c3:	48 89 85 10 ef ff ff 	mov    %rax,-0x10f0(%rbp)
    95ca:	48 8d 85 78 e9 ff ff 	lea    -0x1688(%rbp),%rax
    95d1:	48 89 85 18 ef ff ff 	mov    %rax,-0x10e8(%rbp)
    95d8:	48 8d 85 78 e9 ff ff 	lea    -0x1688(%rbp),%rax
    95df:	48 89 85 20 ef ff ff 	mov    %rax,-0x10e0(%rbp)
    95e6:	48 8d 85 78 e9 ff ff 	lea    -0x1688(%rbp),%rax
    95ed:	48 89 85 28 ef ff ff 	mov    %rax,-0x10d8(%rbp)
    95f4:	48 8d 85 78 e9 ff ff 	lea    -0x1688(%rbp),%rax
    95fb:	48 89 85 30 ef ff ff 	mov    %rax,-0x10d0(%rbp)
    9602:	48 8d 85 78 e9 ff ff 	lea    -0x1688(%rbp),%rax
    9609:	48 89 85 38 ef ff ff 	mov    %rax,-0x10c8(%rbp)
    9610:	48 8d 85 78 e9 ff ff 	lea    -0x1688(%rbp),%rax
    9617:	48 89 85 40 ef ff ff 	mov    %rax,-0x10c0(%rbp)
    961e:	48 8d 85 78 e9 ff ff 	lea    -0x1688(%rbp),%rax
    9625:	48 89 85 48 ef ff ff 	mov    %rax,-0x10b8(%rbp)
    962c:	48 8d 85 78 e9 ff ff 	lea    -0x1688(%rbp),%rax
    9633:	48 89 85 50 ef ff ff 	mov    %rax,-0x10b0(%rbp)
    963a:	48 8d 85 78 e9 ff ff 	lea    -0x1688(%rbp),%rax
    9641:	48 89 85 58 ef ff ff 	mov    %rax,-0x10a8(%rbp)
    9648:	48 c7 85 f0 e9 ff ff 	movq   $0x0,-0x1610(%rbp)
    964f:	00 00 00 00 
    9653:	48 b8 9c 10 e8 bd 5f 	movabs $0x717c7a5fbde8109c,%rax
    965a:	7a 7c 71 
    965d:	48 89 85 f8 e9 ff ff 	mov    %rax,-0x1608(%rbp)
    9664:	c7 85 a0 e8 ff ff 00 	movl   $0x0,-0x1760(%rbp)
    966b:	00 00 00 
    966e:	e9 81 00 00 00       	jmpq   96f4 <func_31+0xa3a>
    9673:	c7 85 a4 e8 ff ff 00 	movl   $0x0,-0x175c(%rbp)
    967a:	00 00 00 
    967d:	eb 65                	jmp    96e4 <func_31+0xa2a>
    967f:	c7 85 a8 e8 ff ff 00 	movl   $0x0,-0x1758(%rbp)
    9686:	00 00 00 
    9689:	eb 49                	jmp    96d4 <func_31+0xa1a>
    968b:	8b 85 a8 e8 ff ff    	mov    -0x1758(%rbp),%eax
    9691:	48 63 f0             	movslq %eax,%rsi
    9694:	8b 85 a0 e8 ff ff    	mov    -0x1760(%rbp),%eax
    969a:	48 98                	cltq   
    969c:	8b 95 a4 e8 ff ff    	mov    -0x175c(%rbp),%edx
    96a2:	48 63 ca             	movslq %edx,%rcx
    96a5:	48 89 c2             	mov    %rax,%rdx
    96a8:	48 c1 e2 03          	shl    $0x3,%rdx
    96ac:	48 01 c2             	add    %rax,%rdx
    96af:	48 89 c8             	mov    %rcx,%rax
    96b2:	48 01 c0             	add    %rax,%rax
    96b5:	48 01 c8             	add    %rcx,%rax
    96b8:	48 01 d0             	add    %rdx,%rax
    96bb:	48 01 f0             	add    %rsi,%rax
    96be:	48 8d 15 bb 00 01 00 	lea    0x100bb(%rip),%rdx        # 19780 <g_267>
    96c5:	48 89 94 c5 80 eb ff 	mov    %rdx,-0x1480(%rbp,%rax,8)
    96cc:	ff 
    96cd:	83 85 a8 e8 ff ff 01 	addl   $0x1,-0x1758(%rbp)
    96d4:	83 bd a8 e8 ff ff 02 	cmpl   $0x2,-0x1758(%rbp)
    96db:	7e ae                	jle    968b <func_31+0x9d1>
    96dd:	83 85 a4 e8 ff ff 01 	addl   $0x1,-0x175c(%rbp)
    96e4:	83 bd a4 e8 ff ff 02 	cmpl   $0x2,-0x175c(%rbp)
    96eb:	7e 92                	jle    967f <func_31+0x9c5>
    96ed:	83 85 a0 e8 ff ff 01 	addl   $0x1,-0x1760(%rbp)
    96f4:	83 bd a0 e8 ff ff 00 	cmpl   $0x0,-0x1760(%rbp)
    96fb:	0f 8e 72 ff ff ff    	jle    9673 <func_31+0x9b9>
    9701:	c7 85 a0 e8 ff ff 00 	movl   $0x0,-0x1760(%rbp)
    9708:	00 00 00 
    970b:	eb 1a                	jmp    9727 <func_31+0xa6d>
    970d:	8b 85 a0 e8 ff ff    	mov    -0x1760(%rbp),%eax
    9713:	48 98                	cltq   
    9715:	c7 84 85 f8 ea ff ff 	movl   $0xea252ecf,-0x1508(%rbp,%rax,4)
    971c:	cf 2e 25 ea 
    9720:	83 85 a0 e8 ff ff 01 	addl   $0x1,-0x1760(%rbp)
    9727:	83 bd a0 e8 ff ff 01 	cmpl   $0x1,-0x1760(%rbp)
    972e:	7e dd                	jle    970d <func_31+0xa53>
    9730:	0f b7 85 f4 ea ff ff 	movzwl -0x150c(%rbp),%eax
    9737:	0f b7 d8             	movzwl %ax,%ebx
    973a:	48 8b 85 e0 e9 ff ff 	mov    -0x1620(%rbp),%rax
    9741:	48 89 85 c8 e9 ff ff 	mov    %rax,-0x1638(%rbp)
    9748:	48 8d 05 81 00 01 00 	lea    0x10081(%rip),%rax        # 197d0 <g_701>
    974f:	48 39 85 c8 e9 ff ff 	cmp    %rax,-0x1638(%rbp)
    9756:	0f 94 c0             	sete   %al
    9759:	0f b6 d0             	movzbl %al,%edx
    975c:	0f be 85 7a e8 ff ff 	movsbl -0x1786(%rbp),%eax
    9763:	21 d0                	and    %edx,%eax
    9765:	3d 82 e8 00 00       	cmp    $0xe882,%eax
    976a:	0f 94 c0             	sete   %al
    976d:	0f b6 d0             	movzbl %al,%edx
    9770:	8b 85 6c f1 ff ff    	mov    -0xe94(%rbp),%eax
    9776:	21 d0                	and    %edx,%eax
    9778:	be 57 22 b6 30       	mov    $0x30b62257,%esi
    977d:	89 c7                	mov    %eax,%edi
    977f:	e8 79 c7 ff ff       	callq  5efd <safe_mod_func_uint32_t_u_u>
    9784:	80 bd 7a e8 ff ff 00 	cmpb   $0x0,-0x1786(%rbp)
    978b:	74 3b                	je     97c8 <func_31+0xb0e>
    978d:	0f b6 85 7a e8 ff ff 	movzbl -0x1786(%rbp),%eax
    9794:	0f b6 c0             	movzbl %al,%eax
    9797:	be 3b 00 00 00       	mov    $0x3b,%esi
    979c:	89 c7                	mov    %eax,%edi
    979e:	e8 0b c4 ff ff       	callq  5bae <safe_mod_func_uint8_t_u_u>
    97a3:	0f b6 d0             	movzbl %al,%edx
    97a6:	0f b7 85 f4 ea ff ff 	movzwl -0x150c(%rbp),%eax
    97ad:	0f b7 c0             	movzwl %ax,%eax
    97b0:	89 d6                	mov    %edx,%esi
    97b2:	89 c7                	mov    %eax,%edi
    97b4:	e8 46 c5 ff ff       	callq  5cff <safe_add_func_uint16_t_u_u>
    97b9:	66 85 c0             	test   %ax,%ax
    97bc:	74 0a                	je     97c8 <func_31+0xb0e>
    97be:	0f b7 85 f4 ea ff ff 	movzwl -0x150c(%rbp),%eax
    97c5:	66 85 c0             	test   %ax,%ax
    97c8:	48 8b 05 c1 19 01 00 	mov    0x119c1(%rip),%rax        # 1b190 <g_395>
    97cf:	48 8b 00             	mov    (%rax),%rax
    97d2:	0f b7 00             	movzwl (%rax),%eax
    97d5:	66 85 c0             	test   %ax,%ax
    97d8:	0f 95 c0             	setne  %al
    97db:	0f b6 d0             	movzbl %al,%edx
    97de:	8b 85 68 f1 ff ff    	mov    -0xe98(%rbp),%eax
    97e4:	09 d0                	or     %edx,%eax
    97e6:	3d fe 00 00 00       	cmp    $0xfe,%eax
    97eb:	0f 96 c0             	setbe  %al
    97ee:	0f b6 c0             	movzbl %al,%eax
    97f1:	89 de                	mov    %ebx,%esi
    97f3:	89 c7                	mov    %eax,%edi
    97f5:	e8 25 c5 ff ff       	callq  5d1f <safe_sub_func_uint16_t_u_u>
    97fa:	0f b7 d0             	movzwl %ax,%edx
    97fd:	8b 85 8c e8 ff ff    	mov    -0x1774(%rbp),%eax
    9803:	21 d0                	and    %edx,%eax
    9805:	89 85 8c e8 ff ff    	mov    %eax,-0x1774(%rbp)
    980b:	be 61 ae f2 d5       	mov    $0xd5f2ae61,%esi
    9810:	bf 00 00 00 00       	mov    $0x0,%edi
    9815:	e8 b2 be ff ff       	callq  56cc <safe_mod_func_int32_t_s_s>
    981a:	48 63 d8             	movslq %eax,%rbx
    981d:	8b 85 8c e8 ff ff    	mov    -0x1774(%rbp),%eax
    9823:	48 63 d0             	movslq %eax,%rdx
    9826:	48 8b 85 c8 e9 ff ff 	mov    -0x1638(%rbp),%rax
    982d:	48 89 10             	mov    %rdx,(%rax)
    9830:	48 8b 85 c8 e9 ff ff 	mov    -0x1638(%rbp),%rax
    9837:	48 8b 00             	mov    (%rax),%rax
    983a:	48 89 c6             	mov    %rax,%rsi
    983d:	bf 01 00 00 00       	mov    $0x1,%edi
    9842:	e8 04 c8 ff ff       	callq  604b <safe_sub_func_uint64_t_u_u>
    9847:	48 c7 05 f6 fb 00 00 	movq   $0x3,0xfbf6(%rip)        # 19448 <g_140>
    984e:	03 00 00 00 
    9852:	48 8b 05 ef fb 00 00 	mov    0xfbef(%rip),%rax        # 19448 <g_140>
    9859:	48 89 de             	mov    %rbx,%rsi
    985c:	48 89 c7             	mov    %rax,%rdi
    985f:	e8 ca c7 ff ff       	callq  602e <safe_add_func_uint64_t_u_u>
    9864:	48 85 c0             	test   %rax,%rax
    9867:	74 1b                	je     9884 <func_31+0xbca>
    9869:	be 3b a9 00 00       	mov    $0xa93b,%esi
    986e:	bf 01 00 00 00       	mov    $0x1,%edi
    9873:	e8 16 c5 ff ff       	callq  5d8e <safe_div_func_uint16_t_u_u>
    9878:	66 85 c0             	test   %ax,%ax
    987b:	74 07                	je     9884 <func_31+0xbca>
    987d:	b8 01 00 00 00       	mov    $0x1,%eax
    9882:	eb 05                	jmp    9889 <func_31+0xbcf>
    9884:	b8 00 00 00 00       	mov    $0x0,%eax
    9889:	0f b7 c0             	movzwl %ax,%eax
    988c:	89 c7                	mov    %eax,%edi
    988e:	e8 56 c4 ff ff       	callq  5ce9 <safe_unary_minus_func_uint16_t_u>
    9893:	66 85 c0             	test   %ax,%ax
    9896:	0f 84 be 08 00 00    	je     a15a <func_31+0x14a0>
    989c:	48 8d 05 1d ff 00 00 	lea    0xff1d(%rip),%rax        # 197c0 <g_632>
    98a3:	48 89 85 68 ea ff ff 	mov    %rax,-0x1598(%rbp)
    98aa:	48 8d 05 07 ff 00 00 	lea    0xff07(%rip),%rax        # 197b8 <g_611>
    98b1:	48 89 85 80 ec ff ff 	mov    %rax,-0x1380(%rbp)
    98b8:	48 8d 05 f9 fe 00 00 	lea    0xfef9(%rip),%rax        # 197b8 <g_611>
    98bf:	48 89 85 88 ec ff ff 	mov    %rax,-0x1378(%rbp)
    98c6:	48 8d 05 eb fe 00 00 	lea    0xfeeb(%rip),%rax        # 197b8 <g_611>
    98cd:	48 89 85 90 ec ff ff 	mov    %rax,-0x1370(%rbp)
    98d4:	48 8d 05 f5 00 01 00 	lea    0x100f5(%rip),%rax        # 199d0 <g_1228>
    98db:	48 89 85 98 ec ff ff 	mov    %rax,-0x1368(%rbp)
    98e2:	48 8d 05 e7 00 01 00 	lea    0x100e7(%rip),%rax        # 199d0 <g_1228>
    98e9:	48 89 85 a0 ec ff ff 	mov    %rax,-0x1360(%rbp)
    98f0:	48 8d 05 d9 00 01 00 	lea    0x100d9(%rip),%rax        # 199d0 <g_1228>
    98f7:	48 89 85 a8 ec ff ff 	mov    %rax,-0x1358(%rbp)
    98fe:	48 8d 05 b3 fe 00 00 	lea    0xfeb3(%rip),%rax        # 197b8 <g_611>
    9905:	48 89 85 b0 ec ff ff 	mov    %rax,-0x1350(%rbp)
    990c:	48 8d 05 a5 fe 00 00 	lea    0xfea5(%rip),%rax        # 197b8 <g_611>
    9913:	48 89 85 b8 ec ff ff 	mov    %rax,-0x1348(%rbp)
    991a:	48 8d 05 97 fe 00 00 	lea    0xfe97(%rip),%rax        # 197b8 <g_611>
    9921:	48 89 85 c0 ec ff ff 	mov    %rax,-0x1340(%rbp)
    9928:	48 8d 05 a1 00 01 00 	lea    0x100a1(%rip),%rax        # 199d0 <g_1228>
    992f:	48 89 85 c8 ec ff ff 	mov    %rax,-0x1338(%rbp)
    9936:	48 8d 05 93 00 01 00 	lea    0x10093(%rip),%rax        # 199d0 <g_1228>
    993d:	48 89 85 d0 ec ff ff 	mov    %rax,-0x1330(%rbp)
    9944:	48 8d 05 85 00 01 00 	lea    0x10085(%rip),%rax        # 199d0 <g_1228>
    994b:	48 89 85 d8 ec ff ff 	mov    %rax,-0x1328(%rbp)
    9952:	c7 85 fc e8 ff ff 42 	movl   $0xb665db42,-0x1704(%rbp)
    9959:	db 65 b6 
    995c:	c7 85 00 e9 ff ff a3 	movl   $0x4482f2a3,-0x1700(%rbp)
    9963:	f2 82 44 
    9966:	c7 85 04 e9 ff ff ff 	movl   $0xffffffff,-0x16fc(%rbp)
    996d:	ff ff ff 
    9970:	48 8d 85 50 e9 ff ff 	lea    -0x16b0(%rbp),%rax
    9977:	48 89 85 70 ea ff ff 	mov    %rax,-0x1590(%rbp)
    997e:	c7 85 98 e9 ff ff f9 	movl   $0xfffffff9,-0x1668(%rbp)
    9985:	ff ff ff 
    9988:	c7 85 08 e9 ff ff 8d 	movl   $0xf0ce7b8d,-0x16f8(%rbp)
    998f:	7b ce f0 
    9992:	c6 85 7e e8 ff ff 4a 	movb   $0x4a,-0x1782(%rbp)
    9999:	0f b7 85 f4 ea ff ff 	movzwl -0x150c(%rbp),%eax
    99a0:	66 85 c0             	test   %ax,%ax
    99a3:	0f 84 1f 01 00 00    	je     9ac8 <func_31+0xe0e>
    99a9:	0f b6 05 11 fd 00 00 	movzbl 0xfd11(%rip),%eax        # 196c1 <g_226+0x61>
    99b0:	44 0f b6 e0          	movzbl %al,%r12d
    99b4:	8b 9d 04 e9 ff ff    	mov    -0x16fc(%rbp),%ebx
    99ba:	8d 43 ff             	lea    -0x1(%rbx),%eax
    99bd:	89 85 04 e9 ff ff    	mov    %eax,-0x16fc(%rbp)
    99c3:	48 8b 85 68 e8 ff ff 	mov    -0x1798(%rbp),%rax
    99ca:	8b 00                	mov    (%rax),%eax
    99cc:	41 89 c6             	mov    %eax,%r14d
    99cf:	44 8b 2d 1e fe 00 00 	mov    0xfe1e(%rip),%r13d        # 197f4 <g_807>
    99d6:	8b 85 ec fe ff ff    	mov    -0x114(%rbp),%eax
    99dc:	0f bf d0             	movswl %ax,%edx
    99df:	48 8b 05 7a 17 01 00 	mov    0x1177a(%rip),%rax        # 1b160 <g_115>
    99e6:	0f b7 00             	movzwl (%rax),%eax
    99e9:	98                   	cwtl   
    99ea:	89 d6                	mov    %edx,%esi
    99ec:	89 c7                	mov    %eax,%edi
    99ee:	e8 02 ba ff ff       	callq  53f5 <safe_mul_func_int16_t_s_s>
    99f3:	98                   	cwtl   
    99f4:	44 89 ee             	mov    %r13d,%esi
    99f7:	89 c7                	mov    %eax,%edi
    99f9:	e8 e3 ba ff ff       	callq  54e1 <safe_lshift_func_int16_t_s_u>
    99fe:	0f bf d0             	movswl %ax,%edx
    9a01:	48 8b 85 80 e9 ff ff 	mov    -0x1680(%rbp),%rax
    9a08:	48 39 85 b8 e9 ff ff 	cmp    %rax,-0x1648(%rbp)
    9a0f:	0f 94 c0             	sete   %al
    9a12:	0f b6 c0             	movzbl %al,%eax
    9a15:	89 d6                	mov    %edx,%esi
    9a17:	89 c7                	mov    %eax,%edi
    9a19:	e8 45 bb ff ff       	callq  5563 <safe_rshift_func_int16_t_s_u>
    9a1e:	66 85 c0             	test   %ax,%ax
    9a21:	75 0d                	jne    9a30 <func_31+0xd76>
    9a23:	48 8b 85 68 e8 ff ff 	mov    -0x1798(%rbp),%rax
    9a2a:	8b 00                	mov    (%rax),%eax
    9a2c:	85 c0                	test   %eax,%eax
    9a2e:	74 07                	je     9a37 <func_31+0xd7d>
    9a30:	b8 01 00 00 00       	mov    $0x1,%eax
    9a35:	eb 05                	jmp    9a3c <func_31+0xd82>
    9a37:	b8 00 00 00 00       	mov    $0x0,%eax
    9a3c:	0f b7 c0             	movzwl %ax,%eax
    9a3f:	be ff ff 00 00       	mov    $0xffff,%esi
    9a44:	89 c7                	mov    %eax,%edi
    9a46:	e8 b4 c2 ff ff       	callq  5cff <safe_add_func_uint16_t_u_u>
    9a4b:	0f b7 d0             	movzwl %ax,%edx
    9a4e:	8b 85 48 ee ff ff    	mov    -0x11b8(%rbp),%eax
    9a54:	21 c2                	and    %eax,%edx
    9a56:	48 8b 05 0b 17 01 00 	mov    0x1170b(%rip),%rax        # 1b168 <g_114>
    9a5d:	48 8b 00             	mov    (%rax),%rax
    9a60:	48 8b 8d 50 e9 ff ff 	mov    -0x16b0(%rbp),%rcx
    9a67:	48 8b 85 70 ea ff ff 	mov    -0x1590(%rbp),%rax
    9a6e:	48 89 08             	mov    %rcx,(%rax)
    9a71:	48 8b 85 70 ea ff ff 	mov    -0x1590(%rbp),%rax
    9a78:	48 8b 08             	mov    (%rax),%rcx
    9a7b:	48 8b 85 78 e9 ff ff 	mov    -0x1688(%rbp),%rax
    9a82:	48 39 c1             	cmp    %rax,%rcx
    9a85:	0f 94 c0             	sete   %al
    9a88:	0f b6 c0             	movzbl %al,%eax
    9a8b:	89 d6                	mov    %edx,%esi
    9a8d:	89 c7                	mov    %eax,%edi
    9a8f:	e8 d8 b8 ff ff       	callq  536c <safe_rshift_func_int8_t_s_u>
    9a94:	0f be c0             	movsbl %al,%eax
    9a97:	44 89 f6             	mov    %r14d,%esi
    9a9a:	89 c7                	mov    %eax,%edi
    9a9c:	e8 2f c4 ff ff       	callq  5ed0 <safe_sub_func_uint32_t_u_u>
    9aa1:	8b 15 49 fd 00 00    	mov    0xfd49(%rip),%edx        # 197f0 <g_806>
    9aa7:	39 d0                	cmp    %edx,%eax
    9aa9:	0f 94 c0             	sete   %al
    9aac:	0f b6 c0             	movzbl %al,%eax
    9aaf:	39 c3                	cmp    %eax,%ebx
    9ab1:	0f 94 c0             	sete   %al
    9ab4:	0f b6 c0             	movzbl %al,%eax
    9ab7:	44 89 e6             	mov    %r12d,%esi
    9aba:	89 c7                	mov    %eax,%edi
    9abc:	e8 ed c0 ff ff       	callq  5bae <safe_mod_func_uint8_t_u_u>
    9ac1:	80 bd 7a e8 ff ff 00 	cmpb   $0x0,-0x1786(%rbp)
    9ac8:	0f b6 05 17 fd 00 00 	movzbl 0xfd17(%rip),%eax        # 197e6 <g_756>
    9acf:	84 c0                	test   %al,%al
    9ad1:	0f 85 4e 02 00 00    	jne    9d25 <func_31+0x106b>
    9ad7:	c7 85 18 e9 ff ff 09 	movl   $0x39780409,-0x16e8(%rbp)
    9ade:	04 78 39 
    9ae1:	48 8d 85 90 f8 ff ff 	lea    -0x770(%rbp),%rax
    9ae8:	48 8d 15 51 bb 00 00 	lea    0xbb51(%rip),%rdx        # 15640 <g_1978+0x5c0>
    9aef:	b9 69 00 00 00       	mov    $0x69,%ecx
    9af4:	48 89 c7             	mov    %rax,%rdi
    9af7:	48 89 d6             	mov    %rdx,%rsi
    9afa:	f3 48 a5             	rep movsq %ds:(%rsi),%es:(%rdi)
    9afd:	c7 85 ac e8 ff ff 9b 	movl   $0x87674c9b,-0x1754(%rbp)
    9b04:	4c 67 87 
    9b07:	66 c7 05 d4 fc 00 00 	movw   $0xe,0xfcd4(%rip)        # 197e4 <g_709>
    9b0e:	0e 00 
    9b10:	e9 fa 01 00 00       	jmpq   9d0f <func_31+0x1055>
    9b15:	c6 85 7f e8 ff ff 29 	movb   $0x29,-0x1781(%rbp)
    9b1c:	c6 85 80 e8 ff ff fe 	movb   $0xfe,-0x1780(%rbp)
    9b23:	48 c7 85 50 eb ff ff 	movq   $0x0,-0x14b0(%rbp)
    9b2a:	00 00 00 00 
    9b2e:	48 c7 85 58 eb ff ff 	movq   $0x0,-0x14a8(%rbp)
    9b35:	00 00 00 00 
    9b39:	48 c7 85 60 eb ff ff 	movq   $0x0,-0x14a0(%rbp)
    9b40:	00 00 00 00 
    9b44:	48 c7 85 68 eb ff ff 	movq   $0x0,-0x1498(%rbp)
    9b4b:	00 00 00 00 
    9b4f:	48 c7 85 70 eb ff ff 	movq   $0x0,-0x1490(%rbp)
    9b56:	00 00 00 00 
    9b5a:	48 c7 85 78 eb ff ff 	movq   $0x0,-0x1488(%rbp)
    9b61:	00 00 00 00 
    9b65:	44 0f be ad 7f e8 ff 	movsbl -0x1781(%rbp),%r13d
    9b6c:	ff 
    9b6d:	48 8b 05 24 16 01 00 	mov    0x11624(%rip),%rax        # 1b198 <g_394>
    9b74:	48 8b 00             	mov    (%rax),%rax
    9b77:	48 8b 00             	mov    (%rax),%rax
    9b7a:	0f b7 00             	movzwl (%rax),%eax
    9b7d:	0f b7 d8             	movzwl %ax,%ebx
    9b80:	8b 85 fc ea ff ff    	mov    -0x1504(%rbp),%eax
    9b86:	44 0f b7 e0          	movzwl %ax,%r12d
    9b8a:	83 bd 18 e9 ff ff 00 	cmpl   $0x0,-0x16e8(%rbp)
    9b91:	0f 85 e3 00 00 00    	jne    9c7a <func_31+0xfc0>
    9b97:	48 8b 85 50 eb ff ff 	mov    -0x14b0(%rbp),%rax
    9b9e:	48 85 c0             	test   %rax,%rax
    9ba1:	75 0a                	jne    9bad <func_31+0xef3>
    9ba3:	0f b7 05 b6 fb 00 00 	movzwl 0xfbb6(%rip),%eax        # 19760 <g_239>
    9baa:	66 85 c0             	test   %ax,%ax
    9bad:	be 04 00 00 00       	mov    $0x4,%esi
    9bb2:	48 bf 3c fa fc 33 76 	movabs $0xeba6337633fcfa3c,%rdi
    9bb9:	33 a6 eb 
    9bbc:	e8 bf c4 ff ff       	callq  6080 <safe_mod_func_uint64_t_u_u>
    9bc1:	8b 95 18 e9 ff ff    	mov    -0x16e8(%rbp),%edx
    9bc7:	48 39 d0             	cmp    %rdx,%rax
    9bca:	0f 92 c0             	setb   %al
    9bcd:	0f b6 d0             	movzbl %al,%edx
    9bd0:	0f b6 05 81 f6 00 00 	movzbl 0xf681(%rip),%eax        # 19258 <g_92+0x218>
    9bd7:	0f b6 c0             	movzbl %al,%eax
    9bda:	39 c2                	cmp    %eax,%edx
    9bdc:	0f 94 c2             	sete   %dl
    9bdf:	48 8b 85 60 e8 ff ff 	mov    -0x17a0(%rbp),%rax
    9be6:	88 10                	mov    %dl,(%rax)
    9be8:	0f b6 00             	movzbl (%rax),%eax
    9beb:	0f be d0             	movsbl %al,%edx
    9bee:	0f b7 05 43 f4 00 00 	movzwl 0xf443(%rip),%eax        # 19038 <g_90>
    9bf5:	98                   	cwtl   
    9bf6:	09 d0                	or     %edx,%eax
    9bf8:	3d 67 61 68 69       	cmp    $0x69686167,%eax
    9bfd:	0f 9f c0             	setg   %al
    9c00:	0f b6 d0             	movzbl %al,%edx
    9c03:	0f b6 05 9e fb 00 00 	movzbl 0xfb9e(%rip),%eax        # 197a8 <g_586>
    9c0a:	0f b6 c0             	movzbl %al,%eax
    9c0d:	39 c2                	cmp    %eax,%edx
    9c0f:	0f 9e c0             	setle  %al
    9c12:	0f b6 c0             	movzbl %al,%eax
    9c15:	be 01 00 00 00       	mov    $0x1,%esi
    9c1a:	89 c7                	mov    %eax,%edi
    9c1c:	e8 e5 c1 ff ff       	callq  5e06 <safe_lshift_func_uint16_t_u_u>
    9c21:	0f b6 05 04 f4 00 00 	movzbl 0xf404(%rip),%eax        # 1902c <g_54>
    9c28:	0f b6 c0             	movzbl %al,%eax
    9c2b:	be 00 00 00 00       	mov    $0x0,%esi
    9c30:	89 c7                	mov    %eax,%edi
    9c32:	e8 41 bf ff ff       	callq  5b78 <safe_sub_func_uint8_t_u_u>
    9c37:	0f b6 d0             	movzbl %al,%edx
    9c3a:	0f b7 05 4f fb 00 00 	movzwl 0xfb4f(%rip),%eax        # 19790 <g_299>
    9c41:	31 d0                	xor    %edx,%eax
    9c43:	0f b7 d0             	movzwl %ax,%edx
    9c46:	66 0f be 85 7f e8 ff 	movsbw -0x1781(%rbp),%ax
    9c4d:	ff 
    9c4e:	0f b7 c0             	movzwl %ax,%eax
    9c51:	89 d6                	mov    %edx,%esi
    9c53:	89 c7                	mov    %eax,%edi
    9c55:	e8 34 c1 ff ff       	callq  5d8e <safe_div_func_uint16_t_u_u>
    9c5a:	0f b7 c0             	movzwl %ax,%eax
    9c5d:	be 01 00 00 00       	mov    $0x1,%esi
    9c62:	48 89 c7             	mov    %rax,%rdi
    9c65:	e8 8d bd ff ff       	callq  59f7 <safe_div_func_int64_t_s_s>
    9c6a:	48 85 c0             	test   %rax,%rax
    9c6d:	75 0b                	jne    9c7a <func_31+0xfc0>
    9c6f:	0f b6 05 13 fa 00 00 	movzbl 0xfa13(%rip),%eax        # 19689 <g_226+0x29>
    9c76:	84 c0                	test   %al,%al
    9c78:	74 07                	je     9c81 <func_31+0xfc7>
    9c7a:	b8 01 00 00 00       	mov    $0x1,%eax
    9c7f:	eb 05                	jmp    9c86 <func_31+0xfcc>
    9c81:	b8 00 00 00 00       	mov    $0x0,%eax
    9c86:	89 c2                	mov    %eax,%edx
    9c88:	0f be 85 7f e8 ff ff 	movsbl -0x1781(%rbp),%eax
    9c8f:	89 d6                	mov    %edx,%esi
    9c91:	89 c7                	mov    %eax,%edi
    9c93:	e8 8d c2 ff ff       	callq  5f25 <safe_div_func_uint32_t_u_u>
    9c98:	0f b6 05 b9 f5 00 00 	movzbl 0xf5b9(%rip),%eax        # 19258 <g_92+0x218>
    9c9f:	0f b6 c0             	movzbl %al,%eax
    9ca2:	44 89 e6             	mov    %r12d,%esi
    9ca5:	89 c7                	mov    %eax,%edi
    9ca7:	e8 53 c0 ff ff       	callq  5cff <safe_add_func_uint16_t_u_u>
    9cac:	66 0f be 85 7a e8 ff 	movsbw -0x1786(%rbp),%ax
    9cb3:	ff 
    9cb4:	0f b7 c0             	movzwl %ax,%eax
    9cb7:	89 de                	mov    %ebx,%esi
    9cb9:	89 c7                	mov    %eax,%edi
    9cbb:	e8 7d c0 ff ff       	callq  5d3d <safe_mul_func_uint16_t_u_u>
    9cc0:	66 85 c0             	test   %ax,%ax
    9cc3:	0f 95 c0             	setne  %al
    9cc6:	0f b6 c0             	movzbl %al,%eax
    9cc9:	41 39 c5             	cmp    %eax,%r13d
    9ccc:	0f 9d c0             	setge  %al
    9ccf:	0f b6 c0             	movzbl %al,%eax
    9cd2:	8b 95 18 e9 ff ff    	mov    -0x16e8(%rbp),%edx
    9cd8:	89 d6                	mov    %edx,%esi
    9cda:	89 c7                	mov    %eax,%edi
    9cdc:	e8 99 c1 ff ff       	callq  5e7a <safe_rshift_func_uint16_t_u_u>
    9ce1:	0f b7 c0             	movzwl %ax,%eax
    9ce4:	31 85 94 e8 ff ff    	xor    %eax,-0x176c(%rbp)
    9cea:	83 ad ac e8 ff ff 01 	subl   $0x1,-0x1754(%rbp)
    9cf1:	0f b7 05 ec fa 00 00 	movzwl 0xfaec(%rip),%eax        # 197e4 <g_709>
    9cf8:	0f b7 c0             	movzwl %ax,%eax
    9cfb:	be 01 00 00 00       	mov    $0x1,%esi
    9d00:	48 89 c7             	mov    %rax,%rdi
    9d03:	e8 39 bb ff ff       	callq  5841 <safe_add_func_int64_t_s_s>
    9d08:	66 89 05 d5 fa 00 00 	mov    %ax,0xfad5(%rip)        # 197e4 <g_709>
    9d0f:	0f b7 05 ce fa 00 00 	movzwl 0xface(%rip),%eax        # 197e4 <g_709>
    9d16:	66 83 f8 17          	cmp    $0x17,%ax
    9d1a:	0f 84 f5 fd ff ff    	je     9b15 <func_31+0xe5b>
    9d20:	e9 5b 03 00 00       	jmpq   a080 <func_31+0x13c6>
    9d25:	c7 85 0c e9 ff ff 09 	movl   $0x9,-0x16f4(%rbp)
    9d2c:	00 00 00 
    9d2f:	c7 85 10 e9 ff ff 94 	movl   $0x3b907194,-0x16f0(%rbp)
    9d36:	71 90 3b 
    9d39:	c7 85 90 f8 ff ff 2e 	movl   $0xda25362e,-0x770(%rbp)
    9d40:	36 25 da 
    9d43:	c7 85 94 f8 ff ff 2e 	movl   $0xda25362e,-0x76c(%rbp)
    9d4a:	36 25 da 
    9d4d:	c7 85 98 f8 ff ff 91 	movl   $0x90ec9591,-0x768(%rbp)
    9d54:	95 ec 90 
    9d57:	c7 85 9c f8 ff ff 2e 	movl   $0xda25362e,-0x764(%rbp)
    9d5e:	36 25 da 
    9d61:	c7 85 a0 f8 ff ff 2e 	movl   $0xda25362e,-0x760(%rbp)
    9d68:	36 25 da 
    9d6b:	c7 85 a4 f8 ff ff 91 	movl   $0x90ec9591,-0x75c(%rbp)
    9d72:	95 ec 90 
    9d75:	c7 85 a8 f8 ff ff 2e 	movl   $0xda25362e,-0x758(%rbp)
    9d7c:	36 25 da 
    9d7f:	c7 85 ac f8 ff ff 2e 	movl   $0xda25362e,-0x754(%rbp)
    9d86:	36 25 da 
    9d89:	8b 05 69 1d 01 00    	mov    0x11d69(%rip),%eax        # 1baf8 <g_98+0x258>
    9d8f:	0f b7 c0             	movzwl %ax,%eax
    9d92:	be 0a 00 00 00       	mov    $0xa,%esi
    9d97:	89 c7                	mov    %eax,%edi
    9d99:	e8 68 c0 ff ff       	callq  5e06 <safe_lshift_func_uint16_t_u_u>
    9d9e:	44 0f b7 e8          	movzwl %ax,%r13d
    9da2:	8b 05 80 f2 00 00    	mov    0xf280(%rip),%eax        # 19028 <g_5>
    9da8:	0f bf d8             	movswl %ax,%ebx
    9dab:	48 8b 05 06 14 01 00 	mov    0x11406(%rip),%rax        # 1b1b8 <g_843>
    9db2:	48 8b 95 68 e8 ff ff 	mov    -0x1798(%rbp),%rdx
    9db9:	48 89 10             	mov    %rdx,(%rax)
    9dbc:	48 8b 00             	mov    (%rax),%rax
    9dbf:	48 39 85 68 e8 ff ff 	cmp    %rax,-0x1798(%rbp)
    9dc6:	0f 94 c0             	sete   %al
    9dc9:	44 0f b6 f0          	movzbl %al,%r14d
    9dcd:	44 0f b6 a5 7b e8 ff 	movzbl -0x1785(%rbp),%r12d
    9dd4:	ff 
    9dd5:	0f b6 05 ec fb 00 00 	movzbl 0xfbec(%rip),%eax        # 199c8 <g_1207+0x1a8>
    9ddc:	0f be c0             	movsbl %al,%eax
    9ddf:	ba ff ff ff ff       	mov    $0xffffffff,%edx
    9de4:	0f be d2             	movsbl %dl,%edx
    9de7:	83 e2 2b             	and    $0x2b,%edx
    9dea:	89 c6                	mov    %eax,%esi
    9dec:	89 d7                	mov    %edx,%edi
    9dee:	e8 77 b4 ff ff       	callq  526a <safe_div_func_int8_t_s_s>
    9df3:	44 89 e6             	mov    %r12d,%esi
    9df6:	bf 00 00 00 00       	mov    $0x0,%edi
    9dfb:	e8 92 b6 ff ff       	callq  5492 <safe_lshift_func_int16_t_s_s>
    9e00:	98                   	cwtl   
    9e01:	41 39 c6             	cmp    %eax,%r14d
    9e04:	0f 9c c0             	setl   %al
    9e07:	0f b6 c0             	movzbl %al,%eax
    9e0a:	be b8 e9 c2 e5       	mov    $0xe5c2e9b8,%esi
    9e0f:	89 c7                	mov    %eax,%edi
    9e11:	e8 e7 c0 ff ff       	callq  5efd <safe_mod_func_uint32_t_u_u>
    9e16:	98                   	cwtl   
    9e17:	89 de                	mov    %ebx,%esi
    9e19:	89 c7                	mov    %eax,%edi
    9e1b:	e8 93 b5 ff ff       	callq  53b3 <safe_add_func_int16_t_s_s>
    9e20:	0f be c0             	movsbl %al,%eax
    9e23:	48 8b 95 58 e8 ff ff 	mov    -0x17a8(%rbp),%rdx
    9e2a:	c6 02 fc             	movb   $0xfc,(%rdx)
    9e2d:	89 c6                	mov    %eax,%esi
    9e2f:	bf fc ff ff ff       	mov    $0xfffffffc,%edi
    9e34:	e8 d9 b3 ff ff       	callq  5212 <safe_mul_func_int8_t_s_s>
    9e39:	0f be d0             	movsbl %al,%edx
    9e3c:	0f b6 05 15 f4 00 00 	movzbl 0xf415(%rip),%eax        # 19258 <g_92+0x218>
    9e43:	0f b6 c0             	movzbl %al,%eax
    9e46:	89 d6                	mov    %edx,%esi
    9e48:	89 c7                	mov    %eax,%edi
    9e4a:	e8 69 c0 ff ff       	callq  5eb8 <safe_add_func_uint32_t_u_u>
    9e4f:	41 39 c5             	cmp    %eax,%r13d
    9e52:	0f 82 cf 00 00 00    	jb     9f27 <func_31+0x126d>
    9e58:	48 b8 d1 28 74 bc 9b 	movabs $0xe2c9a99bbc7428d1,%rax
    9e5f:	a9 c9 e2 
    9e62:	48 89 85 78 ea ff ff 	mov    %rax,-0x1588(%rbp)
    9e69:	c7 85 14 e9 ff ff 3f 	movl   $0x89a6863f,-0x16ec(%rbp)
    9e70:	86 a6 89 
    9e73:	48 8d 05 de f3 00 00 	lea    0xf3de(%rip),%rax        # 19258 <g_92+0x218>
    9e7a:	48 89 85 80 ea ff ff 	mov    %rax,-0x1580(%rbp)
    9e81:	48 8b 85 68 e8 ff ff 	mov    -0x1798(%rbp),%rax
    9e88:	8b 00                	mov    (%rax),%eax
    9e8a:	85 c0                	test   %eax,%eax
    9e8c:	0f 85 30 18 00 00    	jne    b6c2 <func_31+0x2a08>
    9e92:	83 bd 0c e9 ff ff 00 	cmpl   $0x0,-0x16f4(%rbp)
    9e99:	74 14                	je     9eaf <func_31+0x11f5>
    9e9b:	0f b7 05 04 f9 00 00 	movzwl 0xf904(%rip),%eax        # 197a6 <g_532+0x6>
    9ea2:	66 83 f8 f9          	cmp    $0xfff9,%ax
    9ea6:	74 07                	je     9eaf <func_31+0x11f5>
    9ea8:	b8 01 00 00 00       	mov    $0x1,%eax
    9ead:	eb 05                	jmp    9eb4 <func_31+0x11fa>
    9eaf:	b8 00 00 00 00       	mov    $0x0,%eax
    9eb4:	89 05 be f8 00 00    	mov    %eax,0xf8be(%rip)        # 19778 <g_266>
    9eba:	8b 05 b8 f8 00 00    	mov    0xf8b8(%rip),%eax        # 19778 <g_266>
    9ec0:	48 8b 95 78 ea ff ff 	mov    -0x1588(%rbp),%rdx
    9ec7:	21 d0                	and    %edx,%eax
    9ec9:	89 85 14 e9 ff ff    	mov    %eax,-0x16ec(%rbp)
    9ecf:	48 8b 85 68 e8 ff ff 	mov    -0x1798(%rbp),%rax
    9ed6:	8b 18                	mov    (%rax),%ebx
    9ed8:	48 8b 85 80 ea ff ff 	mov    -0x1580(%rbp),%rax
    9edf:	0f b6 00             	movzbl (%rax),%eax
    9ee2:	8d 48 ff             	lea    -0x1(%rax),%ecx
    9ee5:	48 8b 95 80 ea ff ff 	mov    -0x1580(%rbp),%rdx
    9eec:	88 0a                	mov    %cl,(%rdx)
    9eee:	0f be c0             	movsbl %al,%eax
    9ef1:	89 c6                	mov    %eax,%esi
    9ef3:	bf ff ff ff ff       	mov    $0xffffffff,%edi
    9ef8:	e8 15 b3 ff ff       	callq  5212 <safe_mul_func_int8_t_s_s>
    9efd:	0f be c0             	movsbl %al,%eax
    9f00:	39 c3                	cmp    %eax,%ebx
    9f02:	0f 95 c0             	setne  %al
    9f05:	0f b6 c0             	movzbl %al,%eax
    9f08:	89 85 98 e9 ff ff    	mov    %eax,-0x1668(%rbp)
    9f0e:	8b 95 98 e9 ff ff    	mov    -0x1668(%rbp),%edx
    9f14:	8b 05 c6 f8 00 00    	mov    0xf8c6(%rip),%eax        # 197e0 <g_708>
    9f1a:	31 d0                	xor    %edx,%eax
    9f1c:	89 05 be f8 00 00    	mov    %eax,0xf8be(%rip)        # 197e0 <g_708>
    9f22:	e9 89 00 00 00       	jmpq   9fb0 <func_31+0x12f6>
    9f27:	66 c7 85 86 e8 ff ff 	movw   $0x227e,-0x177a(%rbp)
    9f2e:	7e 22 
    9f30:	48 8b 05 59 12 01 00 	mov    0x11259(%rip),%rax        # 1b190 <g_395>
    9f37:	48 8b 00             	mov    (%rax),%rax
    9f3a:	66 c7 00 00 00       	movw   $0x0,(%rax)
    9f3f:	b8 01 00 00 00       	mov    $0x1,%eax
    9f44:	89 c2                	mov    %eax,%edx
    9f46:	0f b7 85 86 e8 ff ff 	movzwl -0x177a(%rbp),%eax
    9f4d:	31 d0                	xor    %edx,%eax
    9f4f:	66 89 85 86 e8 ff ff 	mov    %ax,-0x177a(%rbp)
    9f56:	be 00 00 00 00       	mov    $0x0,%esi
    9f5b:	bf 01 00 00 00       	mov    $0x1,%edi
    9f60:	e8 c9 c0 ff ff       	callq  602e <safe_add_func_uint64_t_u_u>
    9f65:	89 c3                	mov    %eax,%ebx
    9f67:	b8 ff ff ff ff       	mov    $0xffffffff,%eax
    9f6c:	0f bf d0             	movswl %ax,%edx
    9f6f:	0f b6 05 12 f8 00 00 	movzbl 0xf812(%rip),%eax        # 19788 <g_268>
    9f76:	0f b6 c0             	movzbl %al,%eax
    9f79:	39 c2                	cmp    %eax,%edx
    9f7b:	0f 94 c0             	sete   %al
    9f7e:	0f b6 c0             	movzbl %al,%eax
    9f81:	be ff ff ff ff       	mov    $0xffffffff,%esi
    9f86:	89 c7                	mov    %eax,%edi
    9f88:	e8 78 b6 ff ff       	callq  5605 <safe_sub_func_int32_t_s_s>
    9f8d:	0f be c0             	movsbl %al,%eax
    9f90:	be 06 00 00 00       	mov    $0x6,%esi
    9f95:	89 c7                	mov    %eax,%edi
    9f97:	e8 05 b3 ff ff       	callq  52a1 <safe_lshift_func_int8_t_s_s>
    9f9c:	0f be c0             	movsbl %al,%eax
    9f9f:	89 de                	mov    %ebx,%esi
    9fa1:	89 c7                	mov    %eax,%edi
    9fa3:	e8 5d b6 ff ff       	callq  5605 <safe_sub_func_int32_t_s_s>
    9fa8:	8b 55 94             	mov    -0x6c(%rbp),%edx
    9fab:	31 d0                	xor    %edx,%eax
    9fad:	89 45 94             	mov    %eax,-0x6c(%rbp)
    9fb0:	66 c7 05 8f f6 00 00 	movw   $0x0,0xf68f(%rip)        # 19648 <g_225>
    9fb7:	00 00 
    9fb9:	e9 9d 00 00 00       	jmpq   a05b <func_31+0x13a1>
    9fbe:	0f b7 05 83 f6 00 00 	movzwl 0xf683(%rip),%eax        # 19648 <g_225>
    9fc5:	98                   	cwtl   
    9fc6:	8d 50 07             	lea    0x7(%rax),%edx
    9fc9:	0f b7 05 78 f6 00 00 	movzwl 0xf678(%rip),%eax        # 19648 <g_225>
    9fd0:	98                   	cwtl   
    9fd1:	83 c0 08             	add    $0x8,%eax
    9fd4:	48 63 c8             	movslq %eax,%rcx
    9fd7:	48 63 d2             	movslq %edx,%rdx
    9fda:	48 89 d0             	mov    %rdx,%rax
    9fdd:	48 c1 e0 02          	shl    $0x2,%rax
    9fe1:	48 01 d0             	add    %rdx,%rax
    9fe4:	48 01 c0             	add    %rax,%rax
    9fe7:	48 01 c8             	add    %rcx,%rax
    9fea:	8b 84 85 b0 f0 ff ff 	mov    -0xf50(%rbp,%rax,4),%eax
    9ff1:	85 c0                	test   %eax,%eax
    9ff3:	75 78                	jne    a06d <func_31+0x13b3>
    9ff5:	0f b7 85 82 e8 ff ff 	movzwl -0x177e(%rbp),%eax
    9ffc:	83 c0 01             	add    $0x1,%eax
    9fff:	66 89 85 82 e8 ff ff 	mov    %ax,-0x177e(%rbp)
    a006:	0f b7 05 3b f6 00 00 	movzwl 0xf63b(%rip),%eax        # 19648 <g_225>
    a00d:	98                   	cwtl   
    a00e:	8d 78 03             	lea    0x3(%rax),%edi
    a011:	0f b7 05 30 f6 00 00 	movzwl 0xf630(%rip),%eax        # 19648 <g_225>
    a018:	98                   	cwtl   
    a019:	0f b7 15 28 f6 00 00 	movzwl 0xf628(%rip),%edx        # 19648 <g_225>
    a020:	0f bf d2             	movswl %dx,%edx
    a023:	48 63 f2             	movslq %edx,%rsi
    a026:	48 63 c8             	movslq %eax,%rcx
    a029:	48 63 d7             	movslq %edi,%rdx
    a02c:	48 89 d0             	mov    %rdx,%rax
    a02f:	48 c1 e0 02          	shl    $0x2,%rax
    a033:	48 01 d0             	add    %rdx,%rax
    a036:	48 01 c0             	add    %rax,%rax
    a039:	48 01 f0             	add    %rsi,%rax
    a03c:	48 01 c8             	add    %rcx,%rax
    a03f:	8b 84 85 90 ed ff ff 	mov    -0x1270(%rbp,%rax,4),%eax
    a046:	85 c0                	test   %eax,%eax
    a048:	75 26                	jne    a070 <func_31+0x13b6>
    a04a:	0f b7 05 f7 f5 00 00 	movzwl 0xf5f7(%rip),%eax        # 19648 <g_225>
    a051:	83 c0 01             	add    $0x1,%eax
    a054:	66 89 05 ed f5 00 00 	mov    %ax,0xf5ed(%rip)        # 19648 <g_225>
    a05b:	0f b7 05 e6 f5 00 00 	movzwl 0xf5e6(%rip),%eax        # 19648 <g_225>
    a062:	66 85 c0             	test   %ax,%ax
    a065:	0f 8e 53 ff ff ff    	jle    9fbe <func_31+0x1304>
    a06b:	eb 04                	jmp    a071 <func_31+0x13b7>
    a06d:	90                   	nop
    a06e:	eb 01                	jmp    a071 <func_31+0x13b7>
    a070:	90                   	nop
    a071:	8b 05 b9 fa 00 00    	mov    0xfab9(%rip),%eax        # 19b30 <g_1332>
    a077:	83 c0 01             	add    $0x1,%eax
    a07a:	89 05 b0 fa 00 00    	mov    %eax,0xfab0(%rip)        # 19b30 <g_1332>
    a080:	c7 05 46 f9 00 00 00 	movl   $0x0,0xf946(%rip)        # 199d0 <g_1228>
    a087:	00 00 00 
    a08a:	e9 b7 00 00 00       	jmpq   a146 <func_31+0x148c>
    a08f:	48 8d 85 98 e9 ff ff 	lea    -0x1668(%rbp),%rax
    a096:	48 89 85 88 ea ff ff 	mov    %rax,-0x1578(%rbp)
    a09d:	48 8d 05 9c 10 01 00 	lea    0x1109c(%rip),%rax        # 1b140 <g_83>
    a0a4:	48 89 85 90 f8 ff ff 	mov    %rax,-0x770(%rbp)
    a0ab:	48 8d 05 8e 10 01 00 	lea    0x1108e(%rip),%rax        # 1b140 <g_83>
    a0b2:	48 89 85 98 f8 ff ff 	mov    %rax,-0x768(%rbp)
    a0b9:	48 8d 05 80 10 01 00 	lea    0x11080(%rip),%rax        # 1b140 <g_83>
    a0c0:	48 89 85 a0 f8 ff ff 	mov    %rax,-0x760(%rbp)
    a0c7:	48 8d 05 72 10 01 00 	lea    0x11072(%rip),%rax        # 1b140 <g_83>
    a0ce:	48 89 85 a8 f8 ff ff 	mov    %rax,-0x758(%rbp)
    a0d5:	48 8d 05 64 10 01 00 	lea    0x11064(%rip),%rax        # 1b140 <g_83>
    a0dc:	48 89 85 b0 f8 ff ff 	mov    %rax,-0x750(%rbp)
    a0e3:	48 8d 05 56 10 01 00 	lea    0x11056(%rip),%rax        # 1b140 <g_83>
    a0ea:	48 89 85 b8 f8 ff ff 	mov    %rax,-0x748(%rbp)
    a0f1:	48 8d 05 48 10 01 00 	lea    0x11048(%rip),%rax        # 1b140 <g_83>
    a0f8:	48 89 85 c0 f8 ff ff 	mov    %rax,-0x740(%rbp)
    a0ff:	48 8d 05 3a 10 01 00 	lea    0x1103a(%rip),%rax        # 1b140 <g_83>
    a106:	48 89 85 c8 f8 ff ff 	mov    %rax,-0x738(%rbp)
    a10d:	48 8d 05 2c 10 01 00 	lea    0x1102c(%rip),%rax        # 1b140 <g_83>
    a114:	48 89 85 d0 f8 ff ff 	mov    %rax,-0x730(%rbp)
    a11b:	48 8d 05 1e 10 01 00 	lea    0x1101e(%rip),%rax        # 1b140 <g_83>
    a122:	48 89 85 d8 f8 ff ff 	mov    %rax,-0x728(%rbp)
    a129:	48 8b 85 88 ea ff ff 	mov    -0x1578(%rbp),%rax
    a130:	48 89 85 c0 e9 ff ff 	mov    %rax,-0x1640(%rbp)
    a137:	8b 05 93 f8 00 00    	mov    0xf893(%rip),%eax        # 199d0 <g_1228>
    a13d:	83 c0 01             	add    $0x1,%eax
    a140:	89 05 8a f8 00 00    	mov    %eax,0xf88a(%rip)        # 199d0 <g_1228>
    a146:	8b 05 84 f8 00 00    	mov    0xf884(%rip),%eax        # 199d0 <g_1228>
    a14c:	83 f8 01             	cmp    $0x1,%eax
    a14f:	0f 86 3a ff ff ff    	jbe    a08f <func_31+0x13d5>
    a155:	e9 93 08 00 00       	jmpq   a9ed <func_31+0x1d33>
    a15a:	48 c7 85 00 ea ff ff 	movq   $0x0,-0x1600(%rbp)
    a161:	00 00 00 00 
    a165:	48 8d 85 88 e9 ff ff 	lea    -0x1678(%rbp),%rax
    a16c:	48 89 85 08 ea ff ff 	mov    %rax,-0x15f8(%rbp)
    a173:	c7 85 b0 e8 ff ff 9b 	movl   $0xd94a4e9b,-0x1750(%rbp)
    a17a:	4e 4a d9 
    a17d:	c7 85 ec e8 ff ff 50 	movl   $0x92615650,-0x1714(%rbp)
    a184:	56 61 92 
    a187:	c6 85 7d e8 ff ff 06 	movb   $0x6,-0x1783(%rbp)
    a18e:	80 bd 78 e8 ff ff 00 	cmpb   $0x0,-0x1788(%rbp)
    a195:	0f 85 2a 15 00 00    	jne    b6c5 <func_31+0x2a0b>
    a19b:	48 8b 85 60 e8 ff ff 	mov    -0x17a0(%rbp),%rax
    a1a2:	0f b6 00             	movzbl (%rax),%eax
    a1a5:	44 0f be e0          	movsbl %al,%r12d
    a1a9:	8b 05 a5 19 01 00    	mov    0x119a5(%rip),%eax        # 1bb54 <g_98+0x2b4>
    a1af:	89 c0                	mov    %eax,%eax
    a1b1:	48 89 85 50 e8 ff ff 	mov    %rax,-0x17b0(%rbp)
    a1b8:	48 8b 05 11 f9 00 00 	mov    0xf911(%rip),%rax        # 19ad0 <g_1331+0xf0>
    a1bf:	44 0f b6 e8          	movzbl %al,%r13d
    a1c3:	0f b7 05 94 f5 00 00 	movzwl 0xf594(%rip),%eax        # 1975e <g_234>
    a1ca:	44 0f b7 f0          	movzwl %ax,%r14d
    a1ce:	48 8b 95 88 e9 ff ff 	mov    -0x1678(%rbp),%rdx
    a1d5:	48 8b 85 08 ea ff ff 	mov    -0x15f8(%rbp),%rax
    a1dc:	48 89 10             	mov    %rdx,(%rax)
    a1df:	48 8b 85 08 ea ff ff 	mov    -0x15f8(%rbp),%rax
    a1e6:	48 8b 10             	mov    (%rax),%rdx
    a1e9:	48 8b 05 f0 0f 01 00 	mov    0x10ff0(%rip),%rax        # 1b1e0 <g_1347>
    a1f0:	48 39 c2             	cmp    %rax,%rdx
    a1f3:	8b 85 d4 e8 ff ff    	mov    -0x172c(%rbp),%eax
    a1f9:	48 63 d8             	movslq %eax,%rbx
    a1fc:	8b 85 d0 e8 ff ff    	mov    -0x1730(%rbp),%eax
    a202:	44 0f b7 f8          	movzwl %ax,%r15d
    a206:	0f b7 85 84 e8 ff ff 	movzwl -0x177c(%rbp),%eax
    a20d:	0f b6 d0             	movzbl %al,%edx
    a210:	0f b7 05 47 f5 00 00 	movzwl 0xf547(%rip),%eax        # 1975e <g_234>
    a217:	0f b6 c0             	movzbl %al,%eax
    a21a:	89 d6                	mov    %edx,%esi
    a21c:	89 c7                	mov    %eax,%edi
    a21e:	e8 b8 b9 ff ff       	callq  5bdb <safe_div_func_uint8_t_u_u>
    a223:	89 c2                	mov    %eax,%edx
    a225:	0f b6 05 c2 f5 00 00 	movzbl 0xf5c2(%rip),%eax        # 197ee <g_804>
    a22c:	09 d0                	or     %edx,%eax
    a22e:	88 05 ba f5 00 00    	mov    %al,0xf5ba(%rip)        # 197ee <g_804>
    a234:	0f b6 05 b3 f5 00 00 	movzbl 0xf5b3(%rip),%eax        # 197ee <g_804>
    a23b:	84 c0                	test   %al,%al
    a23d:	74 09                	je     a248 <func_31+0x158e>
    a23f:	0f b6 05 7b f4 00 00 	movzbl 0xf47b(%rip),%eax        # 196c1 <g_226+0x61>
    a246:	84 c0                	test   %al,%al
    a248:	8b 85 e8 e8 ff ff    	mov    -0x1718(%rbp),%eax
    a24e:	39 85 ec e8 ff ff    	cmp    %eax,-0x1714(%rbp)
    a254:	73 09                	jae    a25f <func_31+0x15a5>
    a256:	b8 07 00 00 00       	mov    $0x7,%eax
    a25b:	85 c0                	test   %eax,%eax
    a25d:	74 07                	je     a266 <func_31+0x15ac>
    a25f:	b8 01 00 00 00       	mov    $0x1,%eax
    a264:	eb 05                	jmp    a26b <func_31+0x15b1>
    a266:	b8 00 00 00 00       	mov    $0x0,%eax
    a26b:	0f b7 c0             	movzwl %ax,%eax
    a26e:	44 89 fe             	mov    %r15d,%esi
    a271:	89 c7                	mov    %eax,%edi
    a273:	e8 c5 ba ff ff       	callq  5d3d <safe_mul_func_uint16_t_u_u>
    a278:	0f b6 05 39 f5 00 00 	movzbl 0xf539(%rip),%eax        # 197b8 <g_611>
    a27f:	84 c0                	test   %al,%al
    a281:	74 07                	je     a28a <func_31+0x15d0>
    a283:	b8 01 00 00 00       	mov    $0x1,%eax
    a288:	eb 05                	jmp    a28f <func_31+0x15d5>
    a28a:	b8 00 00 00 00       	mov    $0x0,%eax
    a28f:	39 85 ec e8 ff ff    	cmp    %eax,-0x1714(%rbp)
    a295:	0f 97 c0             	seta   %al
    a298:	0f b6 c0             	movzbl %al,%eax
    a29b:	be 96 da 05 ec       	mov    $0xec05da96,%esi
    a2a0:	89 c7                	mov    %eax,%edi
    a2a2:	e8 0f b3 ff ff       	callq  55b6 <safe_add_func_int32_t_s_s>
    a2a7:	8b 85 ec e8 ff ff    	mov    -0x1714(%rbp),%eax
    a2ad:	83 e0 01             	and    $0x1,%eax
    a2b0:	48 89 c2             	mov    %rax,%rdx
    a2b3:	48 8b 05 16 f8 00 00 	mov    0xf816(%rip),%rax        # 19ad0 <g_1331+0xf0>
    a2ba:	48 39 c2             	cmp    %rax,%rdx
    a2bd:	0f 9d c0             	setge  %al
    a2c0:	0f b6 c0             	movzbl %al,%eax
    a2c3:	48 89 c6             	mov    %rax,%rsi
    a2c6:	bf 00 00 00 00       	mov    $0x0,%edi
    a2cb:	e8 5e bd ff ff       	callq  602e <safe_add_func_uint64_t_u_u>
    a2d0:	48 89 de             	mov    %rbx,%rsi
    a2d3:	48 89 c7             	mov    %rax,%rdi
    a2d6:	e8 d9 b6 ff ff       	callq  59b4 <safe_mod_func_int64_t_s_s>
    a2db:	8b 05 ff 19 01 00    	mov    0x119ff(%rip),%eax        # 1bce0 <g_702>
    a2e1:	0f b7 f0             	movzwl %ax,%esi
    a2e4:	48 8b 9d 78 e9 ff ff 	mov    -0x1688(%rbp),%rbx
    a2eb:	48 8d 8d 8c e8 ff ff 	lea    -0x1774(%rbp),%rcx
    a2f2:	48 8d 85 e0 fb ff ff 	lea    -0x420(%rbp),%rax
    a2f9:	48 8d 90 d8 02 00 00 	lea    0x2d8(%rax),%rdx
    a300:	48 8b 85 68 e8 ff ff 	mov    -0x1798(%rbp),%rax
    a307:	49 89 c8             	mov    %rcx,%r8
    a30a:	48 89 d1             	mov    %rdx,%rcx
    a30d:	4c 89 f2             	mov    %r14,%rdx
    a310:	48 89 c7             	mov    %rax,%rdi
    a313:	e8 af 4a 00 00       	callq  edc7 <func_39>
    a318:	48 89 03             	mov    %rax,(%rbx)
    a31b:	48 8b 13             	mov    (%rbx),%rdx
    a31e:	48 8b 85 50 e9 ff ff 	mov    -0x16b0(%rbp),%rax
    a325:	48 8b 00             	mov    (%rax),%rax
    a328:	48 39 c2             	cmp    %rax,%rdx
    a32b:	0f 94 c0             	sete   %al
    a32e:	0f b6 c0             	movzbl %al,%eax
    a331:	44 89 ee             	mov    %r13d,%esi
    a334:	89 c7                	mov    %eax,%edi
    a336:	e8 a0 b8 ff ff       	callq  5bdb <safe_div_func_uint8_t_u_u>
    a33b:	48 8b b5 50 e8 ff ff 	mov    -0x17b0(%rbp),%rsi
    a342:	bf 01 00 00 00       	mov    $0x1,%edi
    a347:	e8 ab b6 ff ff       	callq  59f7 <safe_div_func_int64_t_s_s>
    a34c:	0f b6 c0             	movzbl %al,%eax
    a34f:	be 04 00 00 00       	mov    $0x4,%esi
    a354:	89 c7                	mov    %eax,%edi
    a356:	e8 63 b9 ff ff       	callq  5cbe <safe_rshift_func_uint8_t_u_u>
    a35b:	0f be c0             	movsbl %al,%eax
    a35e:	44 89 e6             	mov    %r12d,%esi
    a361:	89 c7                	mov    %eax,%edi
    a363:	e8 39 af ff ff       	callq  52a1 <safe_lshift_func_int8_t_s_s>
    a368:	84 c0                	test   %al,%al
    a36a:	0f 84 39 06 00 00    	je     a9a9 <func_31+0x1cef>
    a370:	c7 85 b4 e8 ff ff 52 	movl   $0xf51a0052,-0x174c(%rbp)
    a377:	00 1a f5 
    a37a:	48 8d 85 40 e9 ff ff 	lea    -0x16c0(%rbp),%rax
    a381:	48 89 85 10 ea ff ff 	mov    %rax,-0x15f0(%rbp)
    a388:	c7 85 f4 e8 ff ff 48 	movl   $0xabb57e48,-0x170c(%rbp)
    a38f:	7e b5 ab 
    a392:	c7 05 24 f4 00 00 01 	movl   $0x1,0xf424(%rip)        # 197c0 <g_632>
    a399:	00 00 00 
    a39c:	c7 05 72 f4 00 00 00 	movl   $0x0,0xf472(%rip)        # 19818 <g_1054>
    a3a3:	00 00 00 
    a3a6:	e9 16 02 00 00       	jmpq   a5c1 <func_31+0x1907>
    a3ab:	48 c7 85 48 ea ff ff 	movq   $0x0,-0x15b8(%rbp)
    a3b2:	00 00 00 00 
    a3b6:	48 8d 05 03 f4 00 00 	lea    0xf403(%rip),%rax        # 197c0 <g_632>
    a3bd:	48 89 85 50 ea ff ff 	mov    %rax,-0x15b0(%rbp)
    a3c4:	48 8d 05 19 f4 00 00 	lea    0xf419(%rip),%rax        # 197e4 <g_709>
    a3cb:	48 89 85 58 ea ff ff 	mov    %rax,-0x15a8(%rbp)
    a3d2:	48 c7 85 60 ea ff ff 	movq   $0x0,-0x15a0(%rbp)
    a3d9:	00 00 00 00 
    a3dd:	c7 85 b8 e8 ff ff 00 	movl   $0x0,-0x1748(%rbp)
    a3e4:	00 00 00 
    a3e7:	eb 1a                	jmp    a403 <func_31+0x1749>
    a3e9:	8b 85 b8 e8 ff ff    	mov    -0x1748(%rbp),%eax
    a3ef:	48 98                	cltq   
    a3f1:	c7 84 85 90 f8 ff ff 	movl   $0x2,-0x770(%rbp,%rax,4)
    a3f8:	02 00 00 00 
    a3fc:	83 85 b8 e8 ff ff 01 	addl   $0x1,-0x1748(%rbp)
    a403:	83 bd b8 e8 ff ff 09 	cmpl   $0x9,-0x1748(%rbp)
    a40a:	7e dd                	jle    a3e9 <func_31+0x172f>
    a40c:	83 85 b4 e8 ff ff 01 	addl   $0x1,-0x174c(%rbp)
    a413:	48 8b 85 68 e8 ff ff 	mov    -0x1798(%rbp),%rax
    a41a:	8b 00                	mov    (%rax),%eax
    a41c:	09 85 b0 e8 ff ff    	or     %eax,-0x1750(%rbp)
    a422:	8b 85 a0 f8 ff ff    	mov    -0x760(%rbp),%eax
    a428:	89 c2                	mov    %eax,%edx
    a42a:	48 8b 85 50 ea ff ff 	mov    -0x15b0(%rbp),%rax
    a431:	88 10                	mov    %dl,(%rax)
    a433:	48 8b 85 50 ea ff ff 	mov    -0x15b0(%rbp),%rax
    a43a:	0f b6 00             	movzbl (%rax),%eax
    a43d:	84 c0                	test   %al,%al
    a43f:	75 22                	jne    a463 <func_31+0x17a9>
    a441:	8b 85 b0 e8 ff ff    	mov    -0x1750(%rbp),%eax
    a447:	89 c2                	mov    %eax,%edx
    a449:	48 8b 85 58 ea ff ff 	mov    -0x15a8(%rbp),%rax
    a450:	66 89 10             	mov    %dx,(%rax)
    a453:	48 8d 05 fe 0c 01 00 	lea    0x10cfe(%rip),%rax        # 1b158 <g_104>
    a45a:	48 39 85 d0 e9 ff ff 	cmp    %rax,-0x1630(%rbp)
    a461:	75 07                	jne    a46a <func_31+0x17b0>
    a463:	b9 01 00 00 00       	mov    $0x1,%ecx
    a468:	eb 05                	jmp    a46f <func_31+0x17b5>
    a46a:	b9 00 00 00 00       	mov    $0x0,%ecx
    a46f:	48 8b 05 22 0d 01 00 	mov    0x10d22(%rip),%rax        # 1b198 <g_394>
    a476:	48 8b 00             	mov    (%rax),%rax
    a479:	48 8b 00             	mov    (%rax),%rax
    a47c:	0f b7 10             	movzwl (%rax),%edx
    a47f:	48 8b 05 12 0d 01 00 	mov    0x10d12(%rip),%rax        # 1b198 <g_394>
    a486:	48 8b 00             	mov    (%rax),%rax
    a489:	48 8b 00             	mov    (%rax),%rax
    a48c:	21 ca                	and    %ecx,%edx
    a48e:	66 89 10             	mov    %dx,(%rax)
    a491:	44 0f b7 28          	movzwl (%rax),%r13d
    a495:	8b 05 59 f3 00 00    	mov    0xf359(%rip),%eax        # 197f4 <g_807>
    a49b:	0f be d8             	movsbl %al,%ebx
    a49e:	0f b6 05 db f2 00 00 	movzbl 0xf2db(%rip),%eax        # 19780 <g_267>
    a4a5:	44 0f be e0          	movsbl %al,%r12d
    a4a9:	48 8b 85 38 f4 ff ff 	mov    -0xbc8(%rbp),%rax
    a4b0:	48 89 85 d8 e9 ff ff 	mov    %rax,-0x1628(%rbp)
    a4b7:	48 83 bd d8 e9 ff ff 	cmpq   $0x0,-0x1628(%rbp)
    a4be:	00 
    a4bf:	0f 94 c0             	sete   %al
    a4c2:	0f b6 c0             	movzbl %al,%eax
    a4c5:	39 85 b0 e8 ff ff    	cmp    %eax,-0x1750(%rbp)
    a4cb:	0f 95 c0             	setne  %al
    a4ce:	0f b6 d0             	movzbl %al,%edx
    a4d1:	48 8b 85 70 e9 ff ff 	mov    -0x1690(%rbp),%rax
    a4d8:	48 8b 00             	mov    (%rax),%rax
    a4db:	8b 00                	mov    (%rax),%eax
    a4dd:	09 d0                	or     %edx,%eax
    a4df:	39 85 b4 e8 ff ff    	cmp    %eax,-0x174c(%rbp)
    a4e5:	0f 94 c0             	sete   %al
    a4e8:	0f b6 d0             	movzbl %al,%edx
    a4eb:	8b 85 a0 f8 ff ff    	mov    -0x760(%rbp),%eax
    a4f1:	39 c2                	cmp    %eax,%edx
    a4f3:	0f 95 c0             	setne  %al
    a4f6:	0f b6 d0             	movzbl %al,%edx
    a4f9:	8b 85 b4 f8 ff ff    	mov    -0x74c(%rbp),%eax
    a4ff:	39 c2                	cmp    %eax,%edx
    a501:	0f 95 c0             	setne  %al
    a504:	0f b6 c0             	movzbl %al,%eax
    a507:	89 c6                	mov    %eax,%esi
    a509:	bf 01 00 00 00       	mov    $0x1,%edi
    a50e:	e8 ff ac ff ff       	callq  5212 <safe_mul_func_int8_t_s_s>
    a513:	0f be c0             	movsbl %al,%eax
    a516:	39 85 ec e8 ff ff    	cmp    %eax,-0x1714(%rbp)
    a51c:	0f 97 c0             	seta   %al
    a51f:	22 85 7c e8 ff ff    	and    -0x1784(%rbp),%al
    a525:	0f be c0             	movsbl %al,%eax
    a528:	44 89 e6             	mov    %r12d,%esi
    a52b:	89 c7                	mov    %eax,%edi
    a52d:	e8 e0 ac ff ff       	callq  5212 <safe_mul_func_int8_t_s_s>
    a532:	88 85 79 e8 ff ff    	mov    %al,-0x1787(%rbp)
    a538:	0f be 85 79 e8 ff ff 	movsbl -0x1787(%rbp),%eax
    a53f:	be 06 00 00 00       	mov    $0x6,%esi
    a544:	89 c7                	mov    %eax,%edi
    a546:	e8 aa ae ff ff       	callq  53f5 <safe_mul_func_int16_t_s_s>
    a54b:	89 c2                	mov    %eax,%edx
    a54d:	48 8b 85 60 e8 ff ff 	mov    -0x17a0(%rbp),%rax
    a554:	88 10                	mov    %dl,(%rax)
    a556:	0f b6 00             	movzbl (%rax),%eax
    a559:	0f be c0             	movsbl %al,%eax
    a55c:	89 de                	mov    %ebx,%esi
    a55e:	89 c7                	mov    %eax,%edi
    a560:	e8 ad ac ff ff       	callq  5212 <safe_mul_func_int8_t_s_s>
    a565:	66 98                	cbtw   
    a567:	66 41 39 c5          	cmp    %ax,%r13w
    a56b:	0f 95 c0             	setne  %al
    a56e:	0f b6 c0             	movzbl %al,%eax
    a571:	ba 00 00 00 00       	mov    $0x0,%edx
    a576:	21 d0                	and    %edx,%eax
    a578:	0b 85 b0 e8 ff ff    	or     -0x1750(%rbp),%eax
    a57e:	3d 0f 0b 00 00       	cmp    $0xb0f,%eax
    a583:	0f 95 c0             	setne  %al
    a586:	0f b6 c0             	movzbl %al,%eax
    a589:	be 06 00 00 00       	mov    $0x6,%esi
    a58e:	89 c7                	mov    %eax,%edi
    a590:	e8 a0 ad ff ff       	callq  5335 <safe_rshift_func_int8_t_s_s>
    a595:	0f be d0             	movsbl %al,%edx
    a598:	8b 05 4a f2 00 00    	mov    0xf24a(%rip),%eax        # 197e8 <g_802>
    a59e:	09 d0                	or     %edx,%eax
    a5a0:	89 05 42 f2 00 00    	mov    %eax,0xf242(%rip)        # 197e8 <g_802>
    a5a6:	8b 05 6c f2 00 00    	mov    0xf26c(%rip),%eax        # 19818 <g_1054>
    a5ac:	48 98                	cltq   
    a5ae:	be 06 00 00 00       	mov    $0x6,%esi
    a5b3:	48 89 c7             	mov    %rax,%rdi
    a5b6:	e8 90 ba ff ff       	callq  604b <safe_sub_func_uint64_t_u_u>
    a5bb:	89 05 57 f2 00 00    	mov    %eax,0xf257(%rip)        # 19818 <g_1054>
    a5c1:	8b 05 51 f2 00 00    	mov    0xf251(%rip),%eax        # 19818 <g_1054>
    a5c7:	83 f8 ee             	cmp    $0xffffffee,%eax
    a5ca:	0f 8c db fd ff ff    	jl     a3ab <func_31+0x16f1>
    a5d0:	48 8b 05 d1 0b 01 00 	mov    0x10bd1(%rip),%rax        # 1b1a8 <g_782>
    a5d7:	48 8b 00             	mov    (%rax),%rax
    a5da:	48 8b 00             	mov    (%rax),%rax
    a5dd:	48 8b 00             	mov    (%rax),%rax
    a5e0:	0f b7 00             	movzwl (%rax),%eax
    a5e3:	0f bf d8             	movswl %ax,%ebx
    a5e6:	8b 85 b4 e8 ff ff    	mov    -0x174c(%rbp),%eax
    a5ec:	98                   	cwtl   
    a5ed:	89 c6                	mov    %eax,%esi
    a5ef:	bf ba ad ff ff       	mov    $0xffffadba,%edi
    a5f4:	e8 da ad ff ff       	callq  53d3 <safe_sub_func_int16_t_s_s>
    a5f9:	b9 01 00 00 00       	mov    $0x1,%ecx
    a5fe:	48 8b 85 60 e8 ff ff 	mov    -0x17a0(%rbp),%rax
    a605:	0f b6 10             	movzbl (%rax),%edx
    a608:	48 8b 85 60 e8 ff ff 	mov    -0x17a0(%rbp),%rax
    a60f:	31 ca                	xor    %ecx,%edx
    a611:	88 10                	mov    %dl,(%rax)
    a613:	0f b6 00             	movzbl (%rax),%eax
    a616:	0f be d0             	movsbl %al,%edx
    a619:	8b 05 11 f5 00 00    	mov    0xf511(%rip),%eax        # 19b30 <g_1332>
    a61f:	39 c2                	cmp    %eax,%edx
    a621:	74 07                	je     a62a <func_31+0x1970>
    a623:	ba 01 00 00 00       	mov    $0x1,%edx
    a628:	eb 05                	jmp    a62f <func_31+0x1975>
    a62a:	ba 00 00 00 00       	mov    $0x0,%edx
    a62f:	48 8b 85 78 e9 ff ff 	mov    -0x1688(%rbp),%rax
    a636:	48 8b 00             	mov    (%rax),%rax
    a639:	48 8b 00             	mov    (%rax),%rax
    a63c:	8b 00                	mov    (%rax),%eax
    a63e:	39 c2                	cmp    %eax,%edx
    a640:	0f 95 c0             	setne  %al
    a643:	44 0f b6 e0          	movzbl %al,%r12d
    a647:	b8 07 00 00 00       	mov    $0x7,%eax
    a64c:	89 c2                	mov    %eax,%edx
    a64e:	83 bd b4 e8 ff ff 00 	cmpl   $0x0,-0x174c(%rbp)
    a655:	75 09                	jne    a660 <func_31+0x19a6>
    a657:	83 bd b4 e8 ff ff 00 	cmpl   $0x0,-0x174c(%rbp)
    a65e:	74 07                	je     a667 <func_31+0x19ad>
    a660:	b8 01 00 00 00       	mov    $0x1,%eax
    a665:	eb 05                	jmp    a66c <func_31+0x19b2>
    a667:	b8 00 00 00 00       	mov    $0x0,%eax
    a66c:	48 98                	cltq   
    a66e:	48 89 d6             	mov    %rdx,%rsi
    a671:	48 89 c7             	mov    %rax,%rdi
    a674:	e8 3b b3 ff ff       	callq  59b4 <safe_mod_func_int64_t_s_s>
    a679:	48 8b 95 70 e9 ff ff 	mov    -0x1690(%rbp),%rdx
    a680:	48 8b 12             	mov    (%rdx),%rdx
    a683:	8b 0a                	mov    (%rdx),%ecx
    a685:	8b b5 c8 fe ff ff    	mov    -0x138(%rbp),%esi
    a68b:	48 8b 95 f8 f5 ff ff 	mov    -0xa08(%rbp),%rdx
    a692:	48 85 d2             	test   %rdx,%rdx
    a695:	0f 94 c2             	sete   %dl
    a698:	0f b6 d2             	movzbl %dl,%edx
    a69b:	21 f2                	and    %esi,%edx
    a69d:	89 95 c8 fe ff ff    	mov    %edx,-0x138(%rbp)
    a6a3:	8b 95 c8 fe ff ff    	mov    -0x138(%rbp),%edx
    a6a9:	39 d1                	cmp    %edx,%ecx
    a6ab:	0f 9c c2             	setl   %dl
    a6ae:	0f b6 d2             	movzbl %dl,%edx
    a6b1:	48 39 d0             	cmp    %rdx,%rax
    a6b4:	0f 94 c0             	sete   %al
    a6b7:	0f b6 c0             	movzbl %al,%eax
    a6ba:	44 89 e6             	mov    %r12d,%esi
    a6bd:	89 c7                	mov    %eax,%edi
    a6bf:	e8 0f ad ff ff       	callq  53d3 <safe_sub_func_int16_t_s_s>
    a6c4:	98                   	cwtl   
    a6c5:	39 85 b4 e8 ff ff    	cmp    %eax,-0x174c(%rbp)
    a6cb:	0f 94 c0             	sete   %al
    a6ce:	0f b6 d0             	movzbl %al,%edx
    a6d1:	48 8b 85 e0 e9 ff ff 	mov    -0x1620(%rbp),%rax
    a6d8:	48 89 10             	mov    %rdx,(%rax)
    a6db:	48 8b 85 e0 e9 ff ff 	mov    -0x1620(%rbp),%rax
    a6e2:	48 8b 10             	mov    (%rax),%rdx
    a6e5:	8b 85 b4 e8 ff ff    	mov    -0x174c(%rbp),%eax
    a6eb:	48 39 c2             	cmp    %rax,%rdx
    a6ee:	0f 95 c0             	setne  %al
    a6f1:	0f b6 c0             	movzbl %al,%eax
    a6f4:	89 c6                	mov    %eax,%esi
    a6f6:	bf 06 00 00 00       	mov    $0x6,%edi
    a6fb:	e8 3d b6 ff ff       	callq  5d3d <safe_mul_func_uint16_t_u_u>
    a700:	0f b7 c0             	movzwl %ax,%eax
    a703:	89 de                	mov    %ebx,%esi
    a705:	89 c7                	mov    %eax,%edi
    a707:	e8 3c b7 ff ff       	callq  5e48 <safe_rshift_func_uint16_t_u_s>
    a70c:	8b 85 b4 e8 ff ff    	mov    -0x174c(%rbp),%eax
    a712:	89 c6                	mov    %eax,%esi
    a714:	bf 7e 9a 93 96       	mov    $0x96939a7e,%edi
    a719:	e8 9a b7 ff ff       	callq  5eb8 <safe_add_func_uint32_t_u_u>
    a71e:	89 05 44 f0 00 00    	mov    %eax,0xf044(%rip)        # 19768 <g_263>
    a724:	66 c7 05 e7 f0 00 00 	movw   $0x0,0xf0e7(%rip)        # 19814 <g_974>
    a72b:	00 00 
    a72d:	e9 64 02 00 00       	jmpq   a996 <func_31+0x1cdc>
    a732:	c7 85 f8 e8 ff ff 68 	movl   $0x38b0d668,-0x1708(%rbp)
    a739:	d6 b0 38 
    a73c:	48 8d 05 1d f0 00 00 	lea    0xf01d(%rip),%rax        # 19760 <g_239>
    a743:	48 89 85 18 ea ff ff 	mov    %rax,-0x15e8(%rbp)
    a74a:	48 c7 85 20 ea ff ff 	movq   $0x0,-0x15e0(%rbp)
    a751:	00 00 00 00 
    a755:	48 c7 85 28 ea ff ff 	movq   $0x0,-0x15d8(%rbp)
    a75c:	00 00 00 00 
    a760:	48 c7 85 30 ea ff ff 	movq   $0x0,-0x15d0(%rbp)
    a767:	00 00 00 00 
    a76b:	48 8d 05 be f3 00 00 	lea    0xf3be(%rip),%rax        # 19b30 <g_1332>
    a772:	48 89 85 38 ea ff ff 	mov    %rax,-0x15c8(%rbp)
    a779:	48 8d 05 66 f0 00 00 	lea    0xf066(%rip),%rax        # 197e6 <g_756>
    a780:	48 89 85 90 e9 ff ff 	mov    %rax,-0x1670(%rbp)
    a787:	48 8d 85 90 e9 ff ff 	lea    -0x1670(%rbp),%rax
    a78e:	48 89 85 98 e9 ff ff 	mov    %rax,-0x1668(%rbp)
    a795:	48 8d 85 98 e9 ff ff 	lea    -0x1668(%rbp),%rax
    a79c:	48 89 85 40 ea ff ff 	mov    %rax,-0x15c0(%rbp)
    a7a3:	c7 85 bc e8 ff ff 00 	movl   $0x0,-0x1744(%rbp)
    a7aa:	00 00 00 
    a7ad:	eb 1b                	jmp    a7ca <func_31+0x1b10>
    a7af:	8b 85 bc e8 ff ff    	mov    -0x1744(%rbp),%eax
    a7b5:	48 98                	cltq   
    a7b7:	48 c7 84 c5 90 f8 ff 	movq   $0x0,-0x770(%rbp,%rax,8)
    a7be:	ff 00 00 00 00 
    a7c3:	83 85 bc e8 ff ff 01 	addl   $0x1,-0x1744(%rbp)
    a7ca:	83 bd bc e8 ff ff 01 	cmpl   $0x1,-0x1744(%rbp)
    a7d1:	7e dc                	jle    a7af <func_31+0x1af5>
    a7d3:	48 8b 85 70 e9 ff ff 	mov    -0x1690(%rbp),%rax
    a7da:	48 8b 00             	mov    (%rax),%rax
    a7dd:	8b 00                	mov    (%rax),%eax
    a7df:	41 89 c6             	mov    %eax,%r14d
    a7e2:	48 8b 85 70 e9 ff ff 	mov    -0x1690(%rbp),%rax
    a7e9:	48 8b 00             	mov    (%rax),%rax
    a7ec:	8b 00                	mov    (%rax),%eax
    a7ee:	0f bf d8             	movswl %ax,%ebx
    a7f1:	48 8b 05 a0 09 01 00 	mov    0x109a0(%rip),%rax        # 1b198 <g_394>
    a7f8:	48 8b 00             	mov    (%rax),%rax
    a7fb:	48 8b 95 18 ea ff ff 	mov    -0x15e8(%rbp),%rdx
    a802:	48 89 10             	mov    %rdx,(%rax)
    a805:	48 8b 00             	mov    (%rax),%rax
    a808:	48 8b 95 18 ea ff ff 	mov    -0x15e8(%rbp),%rdx
    a80f:	48 89 95 20 ea ff ff 	mov    %rdx,-0x15e0(%rbp)
    a816:	48 39 85 20 ea ff ff 	cmp    %rax,-0x15e0(%rbp)
    a81d:	41 0f 94 c5          	sete   %r13b
    a821:	0f b6 05 99 ee 00 00 	movzbl 0xee99(%rip),%eax        # 196c1 <g_226+0x61>
    a828:	44 0f be e0          	movsbl %al,%r12d
    a82c:	48 8b 85 38 ea ff ff 	mov    -0x15c8(%rbp),%rax
    a833:	8b 00                	mov    (%rax),%eax
    a835:	8d 48 01             	lea    0x1(%rax),%ecx
    a838:	48 8b 95 38 ea ff ff 	mov    -0x15c8(%rbp),%rdx
    a83f:	89 0a                	mov    %ecx,(%rdx)
    a841:	48 8b 95 70 e9 ff ff 	mov    -0x1690(%rbp),%rdx
    a848:	48 8b 12             	mov    (%rdx),%rdx
    a84b:	8b 12                	mov    (%rdx),%edx
    a84d:	39 d0                	cmp    %edx,%eax
    a84f:	0f 93 c0             	setae  %al
    a852:	0f b6 c0             	movzbl %al,%eax
    a855:	be 0e 00 00 00       	mov    $0xe,%esi
    a85a:	89 c7                	mov    %eax,%edi
    a85c:	e8 e7 b5 ff ff       	callq  5e48 <safe_rshift_func_uint16_t_u_s>
    a861:	0f b7 d0             	movzwl %ax,%edx
    a864:	8b 05 ae ef 00 00    	mov    0xefae(%rip),%eax        # 19818 <g_1054>
    a86a:	39 c2                	cmp    %eax,%edx
    a86c:	75 10                	jne    a87e <func_31+0x1bc4>
    a86e:	83 bd b4 e8 ff ff 00 	cmpl   $0x0,-0x174c(%rbp)
    a875:	75 07                	jne    a87e <func_31+0x1bc4>
    a877:	b8 01 00 00 00       	mov    $0x1,%eax
    a87c:	eb 05                	jmp    a883 <func_31+0x1bc9>
    a87e:	b8 00 00 00 00       	mov    $0x0,%eax
    a883:	44 39 e0             	cmp    %r12d,%eax
    a886:	0f 95 c0             	setne  %al
    a889:	44 21 e8             	and    %r13d,%eax
    a88c:	0f b6 c0             	movzbl %al,%eax
    a88f:	89 c6                	mov    %eax,%esi
    a891:	bf 00 00 00 00       	mov    $0x0,%edi
    a896:	e8 23 b5 ff ff       	callq  5dbe <safe_lshift_func_uint16_t_u_s>
    a89b:	98                   	cwtl   
    a89c:	89 c7                	mov    %eax,%edi
    a89e:	e8 fa aa ff ff       	callq  539d <safe_unary_minus_func_int16_t_s>
    a8a3:	8b 85 b4 e8 ff ff    	mov    -0x174c(%rbp),%eax
    a8a9:	89 c2                	mov    %eax,%edx
    a8ab:	8b 85 f8 e8 ff ff    	mov    -0x1708(%rbp),%eax
    a8b1:	21 d0                	and    %edx,%eax
    a8b3:	0f b7 d0             	movzwl %ax,%edx
    a8b6:	48 8b 85 10 ea ff ff 	mov    -0x15f0(%rbp),%rax
    a8bd:	48 89 85 e0 e9 ff ff 	mov    %rax,-0x1620(%rbp)
    a8c4:	48 8d 05 35 f2 00 00 	lea    0xf235(%rip),%rax        # 19b00 <g_1331+0x120>
    a8cb:	48 89 05 16 09 01 00 	mov    %rax,0x10916(%rip)        # 1b1e8 <g_1423>
    a8d2:	48 8b 05 0f 09 01 00 	mov    0x1090f(%rip),%rax        # 1b1e8 <g_1423>
    a8d9:	48 39 85 e0 e9 ff ff 	cmp    %rax,-0x1620(%rbp)
    a8e0:	0f 94 c0             	sete   %al
    a8e3:	0f b6 c0             	movzbl %al,%eax
    a8e6:	89 d6                	mov    %edx,%esi
    a8e8:	89 c7                	mov    %eax,%edi
    a8ea:	e8 9f b4 ff ff       	callq  5d8e <safe_div_func_uint16_t_u_u>
    a8ef:	0f b7 d0             	movzwl %ax,%edx
    a8f2:	48 8b 05 a7 08 01 00 	mov    0x108a7(%rip),%rax        # 1b1a0 <g_614>
    a8f9:	8b 00                	mov    (%rax),%eax
    a8fb:	39 c2                	cmp    %eax,%edx
    a8fd:	0f 9d c0             	setge  %al
    a900:	0f b6 c0             	movzbl %al,%eax
    a903:	be 88 00 00 00       	mov    $0x88,%esi
    a908:	89 c7                	mov    %eax,%edi
    a90a:	e8 9f b2 ff ff       	callq  5bae <safe_mod_func_uint8_t_u_u>
    a90f:	0f b6 c0             	movzbl %al,%eax
    a912:	89 de                	mov    %ebx,%esi
    a914:	89 c7                	mov    %eax,%edi
    a916:	e8 da aa ff ff       	callq  53f5 <safe_mul_func_int16_t_s_s>
    a91b:	98                   	cwtl   
    a91c:	44 89 f6             	mov    %r14d,%esi
    a91f:	89 c7                	mov    %eax,%edi
    a921:	e8 92 b5 ff ff       	callq  5eb8 <safe_add_func_uint32_t_u_u>
    a926:	89 c2                	mov    %eax,%edx
    a928:	48 8b 85 10 ea ff ff 	mov    -0x15f0(%rbp),%rax
    a92f:	48 89 10             	mov    %rdx,(%rax)
    a932:	48 8b 85 10 ea ff ff 	mov    -0x15f0(%rbp),%rax
    a939:	48 8b 00             	mov    (%rax),%rax
    a93c:	89 85 f4 e8 ff ff    	mov    %eax,-0x170c(%rbp)
    a942:	8b 85 f4 e8 ff ff    	mov    -0x170c(%rbp),%eax
    a948:	48 98                	cltq   
    a94a:	48 ba 75 1b 5d 55 2b 	movabs $0x89fcac2b555d1b75,%rdx
    a951:	ac fc 89 
    a954:	48 21 d0             	and    %rdx,%rax
    a957:	89 c2                	mov    %eax,%edx
    a959:	0f b6 85 77 e8 ff ff 	movzbl -0x1789(%rbp),%eax
    a960:	21 d0                	and    %edx,%eax
    a962:	88 85 77 e8 ff ff    	mov    %al,-0x1789(%rbp)
    a968:	48 8b 85 40 ea ff ff 	mov    -0x15c0(%rbp),%rax
    a96f:	48 8d 95 60 e8 ff ff 	lea    -0x17a0(%rbp),%rdx
    a976:	48 89 10             	mov    %rdx,(%rax)
    a979:	0f b7 05 94 ee 00 00 	movzwl 0xee94(%rip),%eax        # 19814 <g_974>
    a980:	0f b7 c0             	movzwl %ax,%eax
    a983:	be 01 00 00 00       	mov    $0x1,%esi
    a988:	89 c7                	mov    %eax,%edi
    a98a:	e8 70 b3 ff ff       	callq  5cff <safe_add_func_uint16_t_u_u>
    a98f:	66 89 05 7e ee 00 00 	mov    %ax,0xee7e(%rip)        # 19814 <g_974>
    a996:	0f b7 05 77 ee 00 00 	movzwl 0xee77(%rip),%eax        # 19814 <g_974>
    a99d:	66 83 f8 25          	cmp    $0x25,%ax
    a9a1:	0f 87 8b fd ff ff    	ja     a732 <func_31+0x1a78>
    a9a7:	eb 44                	jmp    a9ed <func_31+0x1d33>
    a9a9:	c7 85 f0 e8 ff ff 2b 	movl   $0x71ea812b,-0x1710(%rbp)
    a9b0:	81 ea 71 
    a9b3:	48 8b 05 96 07 01 00 	mov    0x10796(%rip),%rax        # 1b150 <g_82>
    a9ba:	48 8d 15 93 a6 00 00 	lea    0xa693(%rip),%rdx        # 15054 <g_84>
    a9c1:	48 89 10             	mov    %rdx,(%rax)
    a9c4:	83 ad f0 e8 ff ff 01 	subl   $0x1,-0x1710(%rbp)
    a9cb:	48 8b 85 70 e9 ff ff 	mov    -0x1690(%rbp),%rax
    a9d2:	48 8b 95 68 e8 ff ff 	mov    -0x1798(%rbp),%rdx
    a9d9:	48 89 10             	mov    %rdx,(%rax)
    a9dc:	48 8b 85 68 e8 ff ff 	mov    -0x1798(%rbp),%rax
    a9e3:	8b 00                	mov    (%rax),%eax
    a9e5:	85 c0                	test   %eax,%eax
    a9e7:	0f 85 db 0c 00 00    	jne    b6c8 <func_31+0x2a0e>
    a9ed:	c6 05 38 e6 00 00 00 	movb   $0x0,0xe638(%rip)        # 1902c <g_54>
    a9f4:	e9 85 0c 00 00       	jmpq   b67e <func_31+0x29c4>
    a9f9:	48 8d 05 b8 ed 00 00 	lea    0xedb8(%rip),%rax        # 197b8 <g_611>
    aa00:	48 89 85 90 ea ff ff 	mov    %rax,-0x1570(%rbp)
    aa07:	48 8d 05 ba ef 00 00 	lea    0xefba(%rip),%rax        # 199c8 <g_1207+0x1a8>
    aa0e:	48 89 85 98 ea ff ff 	mov    %rax,-0x1568(%rbp)
    aa15:	c7 85 1c e9 ff ff 01 	movl   $0x1,-0x16e4(%rbp)
    aa1c:	00 00 00 
    aa1f:	48 8d 05 8a 07 01 00 	lea    0x1078a(%rip),%rax        # 1b1b0 <g_844>
    aa26:	48 89 85 a0 ea ff ff 	mov    %rax,-0x1560(%rbp)
    aa2d:	48 8d 85 60 e9 ff ff 	lea    -0x16a0(%rbp),%rax
    aa34:	48 89 85 a8 ea ff ff 	mov    %rax,-0x1558(%rbp)
    aa3b:	c7 85 20 e9 ff ff 00 	movl   $0x0,-0x16e0(%rbp)
    aa42:	00 00 00 
    aa45:	48 8d 85 68 e9 ff ff 	lea    -0x1698(%rbp),%rax
    aa4c:	48 89 85 b0 ea ff ff 	mov    %rax,-0x1550(%rbp)
    aa53:	66 c7 85 88 e8 ff ff 	movw   $0xeb0d,-0x1778(%rbp)
    aa5a:	0d eb 
    aa5c:	c7 85 c0 e8 ff ff 00 	movl   $0x0,-0x1740(%rbp)
    aa63:	00 00 00 
    aa66:	eb 1b                	jmp    aa83 <func_31+0x1dc9>
    aa68:	8b 85 c0 e8 ff ff    	mov    -0x1740(%rbp),%eax
    aa6e:	48 98                	cltq   
    aa70:	48 c7 84 c5 30 eb ff 	movq   $0x0,-0x14d0(%rbp,%rax,8)
    aa77:	ff 00 00 00 00 
    aa7c:	83 85 c0 e8 ff ff 01 	addl   $0x1,-0x1740(%rbp)
    aa83:	83 bd c0 e8 ff ff 02 	cmpl   $0x2,-0x1740(%rbp)
    aa8a:	7e dc                	jle    aa68 <func_31+0x1dae>
    aa8c:	8b 85 94 e8 ff ff    	mov    -0x176c(%rbp),%eax
    aa92:	0f bf d8             	movswl %ax,%ebx
    aa95:	48 8b 05 c4 06 01 00 	mov    0x106c4(%rip),%rax        # 1b160 <g_115>
    aa9c:	0f b7 00             	movzwl (%rax),%eax
    aa9f:	44 0f bf e0          	movswl %ax,%r12d
    aaa3:	0f b6 05 82 e5 00 00 	movzbl 0xe582(%rip),%eax        # 1902c <g_54>
    aaaa:	0f be c0             	movsbl %al,%eax
    aaad:	0f b6 15 78 e5 00 00 	movzbl 0xe578(%rip),%edx        # 1902c <g_54>
    aab4:	0f be d2             	movsbl %dl,%edx
    aab7:	8d 4a 04             	lea    0x4(%rdx),%ecx
    aaba:	0f b6 15 6b e5 00 00 	movzbl 0xe56b(%rip),%edx        # 1902c <g_54>
    aac1:	0f be d2             	movsbl %dl,%edx
    aac4:	83 c2 02             	add    $0x2,%edx
    aac7:	48 63 f2             	movslq %edx,%rsi
    aaca:	48 63 d0             	movslq %eax,%rdx
    aacd:	48 63 c9             	movslq %ecx,%rcx
    aad0:	48 89 d0             	mov    %rdx,%rax
    aad3:	48 c1 e0 02          	shl    $0x2,%rax
    aad7:	48 01 d0             	add    %rdx,%rax
    aada:	48 c1 e0 02          	shl    $0x2,%rax
    aade:	48 01 d0             	add    %rdx,%rax
    aae1:	48 01 c0             	add    %rax,%rax
    aae4:	48 89 ca             	mov    %rcx,%rdx
    aae7:	48 01 d2             	add    %rdx,%rdx
    aaea:	48 01 ca             	add    %rcx,%rdx
    aaed:	48 01 d2             	add    %rdx,%rdx
    aaf0:	48 01 d0             	add    %rdx,%rax
    aaf3:	48 01 f0             	add    %rsi,%rax
    aaf6:	48 8d 14 c5 00 00 00 	lea    0x0(,%rax,8),%rdx
    aafd:	00 
    aafe:	48 8d 05 db ee 00 00 	lea    0xeedb(%rip),%rax        # 199e0 <g_1331>
    ab05:	4c 8b 2c 02          	mov    (%rdx,%rax,1),%r13
    ab09:	83 bd d8 e8 ff ff 00 	cmpl   $0x0,-0x1728(%rbp)
    ab10:	0f 85 a3 00 00 00    	jne    abb9 <func_31+0x1eff>
    ab16:	8b 05 d8 ec 00 00    	mov    0xecd8(%rip),%eax        # 197f4 <g_807>
    ab1c:	44 0f bf f0          	movswl %ax,%r14d
    ab20:	66 c7 05 67 ec 00 00 	movw   $0x1,0xec67(%rip)        # 19790 <g_299>
    ab27:	01 00 
    ab29:	c7 85 1c e9 ff ff 01 	movl   $0x1,-0x16e4(%rbp)
    ab30:	00 00 00 
    ab33:	8b 95 1c e9 ff ff    	mov    -0x16e4(%rbp),%edx
    ab39:	48 83 bd b8 e9 ff ff 	cmpq   $0x0,-0x1648(%rbp)
    ab40:	00 
    ab41:	0f 95 c0             	setne  %al
    ab44:	0f b6 c0             	movzbl %al,%eax
    ab47:	89 d6                	mov    %edx,%esi
    ab49:	89 c7                	mov    %eax,%edi
    ab4b:	e8 b6 b2 ff ff       	callq  5e06 <safe_lshift_func_uint16_t_u_u>
    ab50:	98                   	cwtl   
    ab51:	44 89 f6             	mov    %r14d,%esi
    ab54:	89 c7                	mov    %eax,%edi
    ab56:	e8 78 a8 ff ff       	callq  53d3 <safe_sub_func_int16_t_s_s>
    ab5b:	0f b6 c0             	movzbl %al,%eax
    ab5e:	8b 95 e4 e8 ff ff    	mov    -0x171c(%rbp),%edx
    ab64:	89 d6                	mov    %edx,%esi
    ab66:	89 c7                	mov    %eax,%edi
    ab68:	e8 20 b1 ff ff       	callq  5c8d <safe_rshift_func_uint8_t_u_s>
    ab6d:	0f b6 05 b8 e4 00 00 	movzbl 0xe4b8(%rip),%eax        # 1902c <g_54>
    ab74:	0f be c0             	movsbl %al,%eax
    ab77:	0f b6 15 ae e4 00 00 	movzbl 0xe4ae(%rip),%edx        # 1902c <g_54>
    ab7e:	0f be d2             	movsbl %dl,%edx
    ab81:	8d 4a 04             	lea    0x4(%rdx),%ecx
    ab84:	48 63 d0             	movslq %eax,%rdx
    ab87:	48 63 c9             	movslq %ecx,%rcx
    ab8a:	48 89 d0             	mov    %rdx,%rax
    ab8d:	48 c1 e0 02          	shl    $0x2,%rax
    ab91:	48 01 d0             	add    %rdx,%rax
    ab94:	48 c1 e0 02          	shl    $0x2,%rax
    ab98:	48 01 d0             	add    %rdx,%rax
    ab9b:	48 01 c0             	add    %rax,%rax
    ab9e:	48 89 c8             	mov    %rcx,%rax
    aba1:	48 01 c0             	add    %rax,%rax
    aba4:	48 01 c8             	add    %rcx,%rax
    aba7:	48 01 c0             	add    %rax,%rax
    abaa:	48 8b 05 37 06 01 00 	mov    0x10637(%rip),%rax        # 1b1e8 <g_1423>
    abb1:	48 8b 00             	mov    (%rax),%rax
    abb4:	48 85 c0             	test   %rax,%rax
    abb7:	74 07                	je     abc0 <func_31+0x1f06>
    abb9:	b8 01 00 00 00       	mov    $0x1,%eax
    abbe:	eb 05                	jmp    abc5 <func_31+0x1f0b>
    abc0:	b8 00 00 00 00       	mov    $0x0,%eax
    abc5:	48 98                	cltq   
    abc7:	4c 89 ee             	mov    %r13,%rsi
    abca:	48 89 c7             	mov    %rax,%rdi
    abcd:	e8 e2 ad ff ff       	callq  59b4 <safe_mod_func_int64_t_s_s>
    abd2:	44 89 e6             	mov    %r12d,%esi
    abd5:	bf 00 00 00 00       	mov    $0x0,%edi
    abda:	e8 f4 a7 ff ff       	callq  53d3 <safe_sub_func_int16_t_s_s>
    abdf:	48 0f bf f0          	movswq %ax,%rsi
    abe3:	0f b6 05 42 e4 00 00 	movzbl 0xe442(%rip),%eax        # 1902c <g_54>
    abea:	0f be c0             	movsbl %al,%eax
    abed:	0f b6 15 38 e4 00 00 	movzbl 0xe438(%rip),%edx        # 1902c <g_54>
    abf4:	0f be d2             	movsbl %dl,%edx
    abf7:	8d 4a 04             	lea    0x4(%rdx),%ecx
    abfa:	0f b6 15 2b e4 00 00 	movzbl 0xe42b(%rip),%edx        # 1902c <g_54>
    ac01:	0f be d2             	movsbl %dl,%edx
    ac04:	83 c2 02             	add    $0x2,%edx
    ac07:	48 63 fa             	movslq %edx,%rdi
    ac0a:	48 63 d0             	movslq %eax,%rdx
    ac0d:	48 63 c9             	movslq %ecx,%rcx
    ac10:	48 89 d0             	mov    %rdx,%rax
    ac13:	48 c1 e0 02          	shl    $0x2,%rax
    ac17:	48 01 d0             	add    %rdx,%rax
    ac1a:	48 c1 e0 02          	shl    $0x2,%rax
    ac1e:	48 01 d0             	add    %rdx,%rax
    ac21:	48 01 c0             	add    %rax,%rax
    ac24:	48 89 ca             	mov    %rcx,%rdx
    ac27:	48 01 d2             	add    %rdx,%rdx
    ac2a:	48 01 ca             	add    %rcx,%rdx
    ac2d:	48 01 d2             	add    %rdx,%rdx
    ac30:	48 01 d0             	add    %rdx,%rax
    ac33:	48 01 f8             	add    %rdi,%rax
    ac36:	48 8d 14 c5 00 00 00 	lea    0x0(,%rax,8),%rdx
    ac3d:	00 
    ac3e:	48 8d 05 9b ed 00 00 	lea    0xed9b(%rip),%rax        # 199e0 <g_1331>
    ac45:	48 8b 04 02          	mov    (%rdx,%rax,1),%rax
    ac49:	48 39 c6             	cmp    %rax,%rsi
    ac4c:	0f 9c c0             	setl   %al
    ac4f:	0f b6 d0             	movzbl %al,%edx
    ac52:	48 8b 85 c8 e9 ff ff 	mov    -0x1638(%rbp),%rax
    ac59:	48 89 10             	mov    %rdx,(%rax)
    ac5c:	48 8b 85 c8 e9 ff ff 	mov    -0x1638(%rbp),%rax
    ac63:	48 8b 00             	mov    (%rax),%rax
    ac66:	48 ba 1f 46 56 c7 2a 	movabs $0x7b93fa2ac756461f,%rdx
    ac6d:	fa 93 7b 
    ac70:	48 39 d0             	cmp    %rdx,%rax
    ac73:	0f 95 c0             	setne  %al
    ac76:	0f b6 f0             	movzbl %al,%esi
    ac79:	0f b6 05 ac e3 00 00 	movzbl 0xe3ac(%rip),%eax        # 1902c <g_54>
    ac80:	0f be c0             	movsbl %al,%eax
    ac83:	0f b6 15 a2 e3 00 00 	movzbl 0xe3a2(%rip),%edx        # 1902c <g_54>
    ac8a:	0f be d2             	movsbl %dl,%edx
    ac8d:	8d 4a 04             	lea    0x4(%rdx),%ecx
    ac90:	0f b6 15 95 e3 00 00 	movzbl 0xe395(%rip),%edx        # 1902c <g_54>
    ac97:	0f be d2             	movsbl %dl,%edx
    ac9a:	83 c2 02             	add    $0x2,%edx
    ac9d:	48 63 fa             	movslq %edx,%rdi
    aca0:	48 63 d0             	movslq %eax,%rdx
    aca3:	48 63 c9             	movslq %ecx,%rcx
    aca6:	48 89 d0             	mov    %rdx,%rax
    aca9:	48 c1 e0 02          	shl    $0x2,%rax
    acad:	48 01 d0             	add    %rdx,%rax
    acb0:	48 c1 e0 02          	shl    $0x2,%rax
    acb4:	48 01 d0             	add    %rdx,%rax
    acb7:	48 01 c0             	add    %rax,%rax
    acba:	48 89 ca             	mov    %rcx,%rdx
    acbd:	48 01 d2             	add    %rdx,%rdx
    acc0:	48 01 ca             	add    %rcx,%rdx
    acc3:	48 01 d2             	add    %rdx,%rdx
    acc6:	48 01 d0             	add    %rdx,%rax
    acc9:	48 01 f8             	add    %rdi,%rax
    accc:	48 8d 14 c5 00 00 00 	lea    0x0(,%rax,8),%rdx
    acd3:	00 
    acd4:	48 8d 05 05 ed 00 00 	lea    0xed05(%rip),%rax        # 199e0 <g_1331>
    acdb:	48 8b 04 02          	mov    (%rdx,%rax,1),%rax
    acdf:	48 39 c6             	cmp    %rax,%rsi
    ace2:	0f 9c c0             	setl   %al
    ace5:	0f b6 c8             	movzbl %al,%ecx
    ace8:	48 8b 05 99 04 01 00 	mov    0x10499(%rip),%rax        # 1b188 <g_396>
    acef:	0f b7 10             	movzwl (%rax),%edx
    acf2:	48 8b 05 8f 04 01 00 	mov    0x1048f(%rip),%rax        # 1b188 <g_396>
    acf9:	21 ca                	and    %ecx,%edx
    acfb:	66 89 10             	mov    %dx,(%rax)
    acfe:	0f b7 00             	movzwl (%rax),%eax
    ad01:	98                   	cwtl   
    ad02:	89 de                	mov    %ebx,%esi
    ad04:	89 c7                	mov    %eax,%edi
    ad06:	e8 ea a6 ff ff       	callq  53f5 <safe_mul_func_int16_t_s_s>
    ad0b:	8b 05 1f ee 00 00    	mov    0xee1f(%rip),%eax        # 19b30 <g_1332>
    ad11:	83 c0 01             	add    $0x1,%eax
    ad14:	89 05 16 ee 00 00    	mov    %eax,0xee16(%rip)        # 19b30 <g_1332>
    ad1a:	8b 35 10 ee 00 00    	mov    0xee10(%rip),%esi        # 19b30 <g_1332>
    ad20:	0f b6 05 05 e3 00 00 	movzbl 0xe305(%rip),%eax        # 1902c <g_54>
    ad27:	0f be c0             	movsbl %al,%eax
    ad2a:	0f b6 15 fb e2 00 00 	movzbl 0xe2fb(%rip),%edx        # 1902c <g_54>
    ad31:	0f be d2             	movsbl %dl,%edx
    ad34:	8d 4a 04             	lea    0x4(%rdx),%ecx
    ad37:	0f b6 15 ee e2 00 00 	movzbl 0xe2ee(%rip),%edx        # 1902c <g_54>
    ad3e:	0f be d2             	movsbl %dl,%edx
    ad41:	83 c2 02             	add    $0x2,%edx
    ad44:	48 63 fa             	movslq %edx,%rdi
    ad47:	48 63 d0             	movslq %eax,%rdx
    ad4a:	48 63 c9             	movslq %ecx,%rcx
    ad4d:	48 89 d0             	mov    %rdx,%rax
    ad50:	48 c1 e0 02          	shl    $0x2,%rax
    ad54:	48 01 d0             	add    %rdx,%rax
    ad57:	48 c1 e0 02          	shl    $0x2,%rax
    ad5b:	48 01 d0             	add    %rdx,%rax
    ad5e:	48 01 c0             	add    %rax,%rax
    ad61:	48 89 ca             	mov    %rcx,%rdx
    ad64:	48 01 d2             	add    %rdx,%rdx
    ad67:	48 01 ca             	add    %rcx,%rdx
    ad6a:	48 01 d2             	add    %rdx,%rdx
    ad6d:	48 01 d0             	add    %rdx,%rax
    ad70:	48 01 f8             	add    %rdi,%rax
    ad73:	48 8d 14 c5 00 00 00 	lea    0x0(,%rax,8),%rdx
    ad7a:	00 
    ad7b:	48 8d 05 5e ec 00 00 	lea    0xec5e(%rip),%rax        # 199e0 <g_1331>
    ad82:	48 8b 04 02          	mov    (%rdx,%rax,1),%rax
    ad86:	49 89 c0             	mov    %rax,%r8
    ad89:	0f b6 05 9c e2 00 00 	movzbl 0xe29c(%rip),%eax        # 1902c <g_54>
    ad90:	0f be c0             	movsbl %al,%eax
    ad93:	0f b6 15 92 e2 00 00 	movzbl 0xe292(%rip),%edx        # 1902c <g_54>
    ad9a:	0f be d2             	movsbl %dl,%edx
    ad9d:	8d 4a 04             	lea    0x4(%rdx),%ecx
    ada0:	0f b6 15 85 e2 00 00 	movzbl 0xe285(%rip),%edx        # 1902c <g_54>
    ada7:	0f be d2             	movsbl %dl,%edx
    adaa:	83 c2 02             	add    $0x2,%edx
    adad:	48 63 fa             	movslq %edx,%rdi
    adb0:	48 63 d0             	movslq %eax,%rdx
    adb3:	48 63 c9             	movslq %ecx,%rcx
    adb6:	48 89 d0             	mov    %rdx,%rax
    adb9:	48 c1 e0 02          	shl    $0x2,%rax
    adbd:	48 01 d0             	add    %rdx,%rax
    adc0:	48 c1 e0 02          	shl    $0x2,%rax
    adc4:	48 01 d0             	add    %rdx,%rax
    adc7:	48 01 c0             	add    %rax,%rax
    adca:	48 89 ca             	mov    %rcx,%rdx
    adcd:	48 01 d2             	add    %rdx,%rdx
    add0:	48 01 ca             	add    %rcx,%rdx
    add3:	48 01 d2             	add    %rdx,%rdx
    add6:	48 01 d0             	add    %rdx,%rax
    add9:	48 01 f8             	add    %rdi,%rax
    addc:	48 8d 14 c5 00 00 00 	lea    0x0(,%rax,8),%rdx
    ade3:	00 
    ade4:	48 8d 05 f5 eb 00 00 	lea    0xebf5(%rip),%rax        # 199e0 <g_1331>
    adeb:	48 8b 04 02          	mov    (%rdx,%rax,1),%rax
    adef:	83 e0 07             	and    $0x7,%eax
    adf2:	49 39 c0             	cmp    %rax,%r8
    adf5:	0f 96 c0             	setbe  %al
    adf8:	0f b6 c0             	movzbl %al,%eax
    adfb:	39 c6                	cmp    %eax,%esi
    adfd:	0f 92 c0             	setb   %al
    ae00:	0f b6 d0             	movzbl %al,%edx
    ae03:	48 8b 85 68 e8 ff ff 	mov    -0x1798(%rbp),%rax
    ae0a:	8b 00                	mov    (%rax),%eax
    ae0c:	39 c2                	cmp    %eax,%edx
    ae0e:	0f 95 c0             	setne  %al
    ae11:	0f b6 d0             	movzbl %al,%edx
    ae14:	48 8b 05 cd 03 01 00 	mov    0x103cd(%rip),%rax        # 1b1e8 <g_1423>
    ae1b:	48 8b 00             	mov    (%rax),%rax
    ae1e:	48 39 c2             	cmp    %rax,%rdx
    ae21:	0f 8f 64 02 00 00    	jg     b08b <func_31+0x23d1>
    ae27:	0f b6 05 fe e1 00 00 	movzbl 0xe1fe(%rip),%eax        # 1902c <g_54>
    ae2e:	0f be c0             	movsbl %al,%eax
    ae31:	0f b6 15 f4 e1 00 00 	movzbl 0xe1f4(%rip),%edx        # 1902c <g_54>
    ae38:	0f be d2             	movsbl %dl,%edx
    ae3b:	0f b6 0d ea e1 00 00 	movzbl 0xe1ea(%rip),%ecx        # 1902c <g_54>
    ae42:	0f be c9             	movsbl %cl,%ecx
    ae45:	48 63 f1             	movslq %ecx,%rsi
    ae48:	48 98                	cltq   
    ae4a:	48 63 ca             	movslq %edx,%rcx
    ae4d:	48 89 c2             	mov    %rax,%rdx
    ae50:	48 c1 e2 03          	shl    $0x3,%rdx
    ae54:	48 01 c2             	add    %rax,%rdx
    ae57:	48 89 c8             	mov    %rcx,%rax
    ae5a:	48 01 c0             	add    %rax,%rax
    ae5d:	48 01 c8             	add    %rcx,%rax
    ae60:	48 01 d0             	add    %rdx,%rax
    ae63:	48 01 f0             	add    %rsi,%rax
    ae66:	48 c7 84 c5 80 eb ff 	movq   $0x0,-0x1480(%rbp,%rax,8)
    ae6d:	ff 00 00 00 00 
    ae72:	8b 05 b8 ec 00 00    	mov    0xecb8(%rip),%eax        # 19b30 <g_1332>
    ae78:	0f b6 d8             	movzbl %al,%ebx
    ae7b:	0f b6 05 31 e9 00 00 	movzbl 0xe931(%rip),%eax        # 197b3 <g_586+0xb>
    ae82:	44 0f be e0          	movsbl %al,%r12d
    ae86:	0f b6 05 9f e1 00 00 	movzbl 0xe19f(%rip),%eax        # 1902c <g_54>
    ae8d:	0f be c0             	movsbl %al,%eax
    ae90:	0f b6 15 95 e1 00 00 	movzbl 0xe195(%rip),%edx        # 1902c <g_54>
    ae97:	0f be d2             	movsbl %dl,%edx
    ae9a:	8d 4a 04             	lea    0x4(%rdx),%ecx
    ae9d:	0f b6 15 88 e1 00 00 	movzbl 0xe188(%rip),%edx        # 1902c <g_54>
    aea4:	0f be d2             	movsbl %dl,%edx
    aea7:	83 c2 02             	add    $0x2,%edx
    aeaa:	48 63 f2             	movslq %edx,%rsi
    aead:	48 63 d0             	movslq %eax,%rdx
    aeb0:	48 63 c9             	movslq %ecx,%rcx
    aeb3:	48 89 d0             	mov    %rdx,%rax
    aeb6:	48 c1 e0 02          	shl    $0x2,%rax
    aeba:	48 01 d0             	add    %rdx,%rax
    aebd:	48 c1 e0 02          	shl    $0x2,%rax
    aec1:	48 01 d0             	add    %rdx,%rax
    aec4:	48 01 c0             	add    %rax,%rax
    aec7:	48 89 ca             	mov    %rcx,%rdx
    aeca:	48 01 d2             	add    %rdx,%rdx
    aecd:	48 01 ca             	add    %rcx,%rdx
    aed0:	48 01 d2             	add    %rdx,%rdx
    aed3:	48 01 d0             	add    %rdx,%rax
    aed6:	48 01 f0             	add    %rsi,%rax
    aed9:	48 8d 14 c5 00 00 00 	lea    0x0(,%rax,8),%rdx
    aee0:	00 
    aee1:	48 8d 05 f8 ea 00 00 	lea    0xeaf8(%rip),%rax        # 199e0 <g_1331>
    aee8:	48 8b 04 02          	mov    (%rdx,%rax,1),%rax
    aeec:	44 0f be e8          	movsbl %al,%r13d
    aef0:	0f b6 05 35 e1 00 00 	movzbl 0xe135(%rip),%eax        # 1902c <g_54>
    aef7:	0f be c0             	movsbl %al,%eax
    aefa:	0f b6 15 2b e1 00 00 	movzbl 0xe12b(%rip),%edx        # 1902c <g_54>
    af01:	0f be d2             	movsbl %dl,%edx
    af04:	8d 4a 04             	lea    0x4(%rdx),%ecx
    af07:	0f b6 15 1e e1 00 00 	movzbl 0xe11e(%rip),%edx        # 1902c <g_54>
    af0e:	0f be d2             	movsbl %dl,%edx
    af11:	83 c2 02             	add    $0x2,%edx
    af14:	48 63 f2             	movslq %edx,%rsi
    af17:	48 63 d0             	movslq %eax,%rdx
    af1a:	48 63 c9             	movslq %ecx,%rcx
    af1d:	48 89 d0             	mov    %rdx,%rax
    af20:	48 c1 e0 02          	shl    $0x2,%rax
    af24:	48 01 d0             	add    %rdx,%rax
    af27:	48 c1 e0 02          	shl    $0x2,%rax
    af2b:	48 01 d0             	add    %rdx,%rax
    af2e:	48 01 c0             	add    %rax,%rax
    af31:	48 89 ca             	mov    %rcx,%rdx
    af34:	48 01 d2             	add    %rdx,%rdx
    af37:	48 01 ca             	add    %rcx,%rdx
    af3a:	48 01 d2             	add    %rdx,%rdx
    af3d:	48 01 d0             	add    %rdx,%rax
    af40:	48 01 f0             	add    %rsi,%rax
    af43:	48 8d 14 c5 00 00 00 	lea    0x0(,%rax,8),%rdx
    af4a:	00 
    af4b:	48 8d 05 8e ea 00 00 	lea    0xea8e(%rip),%rax        # 199e0 <g_1331>
    af52:	48 8b 04 02          	mov    (%rdx,%rax,1),%rax
    af56:	41 89 c6             	mov    %eax,%r14d
    af59:	0f b6 05 08 e8 00 00 	movzbl 0xe808(%rip),%eax        # 19768 <g_263>
    af60:	0f b6 d0             	movzbl %al,%edx
    af63:	48 8b 85 a8 ef ff ff 	mov    -0x1058(%rbp),%rax
    af6a:	48 39 85 a0 ea ff ff 	cmp    %rax,-0x1560(%rbp)
    af71:	0f 94 c0             	sete   %al
    af74:	0f b6 c8             	movzbl %al,%ecx
    af77:	48 8b 05 3a 0d 01 00 	mov    0x10d3a(%rip),%rax        # 1bcb8 <g_565>
    af7e:	48 39 c1             	cmp    %rax,%rcx
    af81:	0f 94 c0             	sete   %al
    af84:	0f b6 c0             	movzbl %al,%eax
    af87:	48 89 d6             	mov    %rdx,%rsi
    af8a:	48 89 c7             	mov    %rax,%rdi
    af8d:	e8 16 a9 ff ff       	callq  58a8 <safe_sub_func_int64_t_s_s>
    af92:	c7 85 1c e9 ff ff 01 	movl   $0x1,-0x16e4(%rbp)
    af99:	00 00 00 
    af9c:	0f b7 05 bd e7 00 00 	movzwl 0xe7bd(%rip),%eax        # 19760 <g_239>
    afa3:	48 0f bf c0          	movswq %ax,%rax
    afa7:	be 00 00 00 00       	mov    $0x0,%esi
    afac:	48 89 c7             	mov    %rax,%rdi
    afaf:	e8 cc b0 ff ff       	callq  6080 <safe_mod_func_uint64_t_u_u>
    afb4:	98                   	cwtl   
    afb5:	44 89 f6             	mov    %r14d,%esi
    afb8:	89 c7                	mov    %eax,%edi
    afba:	e8 d3 a4 ff ff       	callq  5492 <safe_lshift_func_int16_t_s_s>
    afbf:	66 85 c0             	test   %ax,%ax
    afc2:	74 19                	je     afdd <func_31+0x2323>
    afc4:	48 8b 05 c5 01 01 00 	mov    0x101c5(%rip),%rax        # 1b190 <g_395>
    afcb:	48 8b 00             	mov    (%rax),%rax
    afce:	0f b7 00             	movzwl (%rax),%eax
    afd1:	66 85 c0             	test   %ax,%ax
    afd4:	74 07                	je     afdd <func_31+0x2323>
    afd6:	b8 01 00 00 00       	mov    $0x1,%eax
    afdb:	eb 05                	jmp    afe2 <func_31+0x2328>
    afdd:	b8 00 00 00 00       	mov    $0x0,%eax
    afe2:	0f be c0             	movsbl %al,%eax
    afe5:	44 89 ee             	mov    %r13d,%esi
    afe8:	89 c7                	mov    %eax,%edi
    afea:	e8 23 a2 ff ff       	callq  5212 <safe_mul_func_int8_t_s_s>
    afef:	0f b6 05 72 e7 00 00 	movzbl 0xe772(%rip),%eax        # 19768 <g_263>
    aff6:	0f b6 c0             	movzbl %al,%eax
    aff9:	be 01 00 00 00       	mov    $0x1,%esi
    affe:	89 c7                	mov    %eax,%edi
    b000:	e8 a9 ab ff ff       	callq  5bae <safe_mod_func_uint8_t_u_u>
    b005:	44 89 e6             	mov    %r12d,%esi
    b008:	bf 00 00 00 00       	mov    $0x0,%edi
    b00d:	e8 1f a2 ff ff       	callq  5231 <safe_mod_func_int8_t_s_s>
    b012:	0f b6 c0             	movzbl %al,%eax
    b015:	89 de                	mov    %ebx,%esi
    b017:	89 c7                	mov    %eax,%edi
    b019:	e8 bd ab ff ff       	callq  5bdb <safe_div_func_uint8_t_u_u>
    b01e:	0f b6 d0             	movzbl %al,%edx
    b021:	8b 85 8c e8 ff ff    	mov    -0x1774(%rbp),%eax
    b027:	09 d0                	or     %edx,%eax
    b029:	89 85 8c e8 ff ff    	mov    %eax,-0x1774(%rbp)
    b02f:	48 8b 85 68 e8 ff ff 	mov    -0x1798(%rbp),%rax
    b036:	8b 00                	mov    (%rax),%eax
    b038:	85 c0                	test   %eax,%eax
    b03a:	74 1b                	je     b057 <func_31+0x239d>
    b03c:	48 8b 85 68 e8 ff ff 	mov    -0x1798(%rbp),%rax
    b043:	8b 00                	mov    (%rax),%eax
    b045:	89 05 7d e9 00 00    	mov    %eax,0xe97d(%rip)        # 199c8 <g_1207+0x1a8>
    b04b:	48 8d 05 6f e6 00 00 	lea    0xe66f(%rip),%rax        # 196c1 <g_226+0x61>
    b052:	e9 9e 06 00 00       	jmpq   b6f5 <func_31+0x2a3b>
    b057:	c7 85 34 e9 ff ff 10 	movl   $0x18396010,-0x16cc(%rbp)
    b05e:	60 39 18 
    b061:	8b 85 34 e9 ff ff    	mov    -0x16cc(%rbp),%eax
    b067:	0f b6 d0             	movzbl %al,%edx
    b06a:	0f b6 05 4f e7 00 00 	movzbl 0xe74f(%rip),%eax        # 197c0 <g_632>
    b071:	0f b6 c0             	movzbl %al,%eax
    b074:	89 d6                	mov    %edx,%esi
    b076:	89 c7                	mov    %eax,%edi
    b078:	e8 16 ab ff ff       	callq  5b93 <safe_mul_func_uint8_t_u_u>
    b07d:	0f b6 c0             	movzbl %al,%eax
    b080:	89 85 1c e9 ff ff    	mov    %eax,-0x16e4(%rbp)
    b086:	e9 c9 05 00 00       	jmpq   b654 <func_31+0x299a>
    b08b:	48 8d 85 80 eb ff ff 	lea    -0x1480(%rbp),%rax
    b092:	48 83 c0 08          	add    $0x8,%rax
    b096:	48 89 85 50 eb ff ff 	mov    %rax,-0x14b0(%rbp)
    b09d:	48 8d 85 80 eb ff ff 	lea    -0x1480(%rbp),%rax
    b0a4:	48 83 c0 08          	add    $0x8,%rax
    b0a8:	48 89 85 58 eb ff ff 	mov    %rax,-0x14a8(%rbp)
    b0af:	48 8d 85 80 eb ff ff 	lea    -0x1480(%rbp),%rax
    b0b6:	48 83 c0 08          	add    $0x8,%rax
    b0ba:	48 89 85 60 eb ff ff 	mov    %rax,-0x14a0(%rbp)
    b0c1:	48 8d 85 80 eb ff ff 	lea    -0x1480(%rbp),%rax
    b0c8:	48 83 c0 08          	add    $0x8,%rax
    b0cc:	48 89 85 68 eb ff ff 	mov    %rax,-0x1498(%rbp)
    b0d3:	48 8d 85 50 eb ff ff 	lea    -0x14b0(%rbp),%rax
    b0da:	48 89 85 90 e9 ff ff 	mov    %rax,-0x1670(%rbp)
    b0e1:	48 8d 85 90 e9 ff ff 	lea    -0x1670(%rbp),%rax
    b0e8:	48 89 85 90 f8 ff ff 	mov    %rax,-0x770(%rbp)
    b0ef:	48 8d 85 90 e9 ff ff 	lea    -0x1670(%rbp),%rax
    b0f6:	48 89 85 98 f8 ff ff 	mov    %rax,-0x768(%rbp)
    b0fd:	48 8d 85 90 e9 ff ff 	lea    -0x1670(%rbp),%rax
    b104:	48 89 85 a0 f8 ff ff 	mov    %rax,-0x760(%rbp)
    b10b:	48 8d 85 90 e9 ff ff 	lea    -0x1670(%rbp),%rax
    b112:	48 89 85 a8 f8 ff ff 	mov    %rax,-0x758(%rbp)
    b119:	48 8d 85 90 e9 ff ff 	lea    -0x1670(%rbp),%rax
    b120:	48 89 85 b0 f8 ff ff 	mov    %rax,-0x750(%rbp)
    b127:	48 8d 85 90 e9 ff ff 	lea    -0x1670(%rbp),%rax
    b12e:	48 89 85 b8 f8 ff ff 	mov    %rax,-0x748(%rbp)
    b135:	48 8d 85 90 e9 ff ff 	lea    -0x1670(%rbp),%rax
    b13c:	48 89 85 c0 f8 ff ff 	mov    %rax,-0x740(%rbp)
    b143:	48 8d 85 90 e9 ff ff 	lea    -0x1670(%rbp),%rax
    b14a:	48 89 85 c8 f8 ff ff 	mov    %rax,-0x738(%rbp)
    b151:	48 c7 85 b8 ea ff ff 	movq   $0x0,-0x1548(%rbp)
    b158:	00 00 00 00 
    b15c:	48 8d 85 60 ee ff ff 	lea    -0x11a0(%rbp),%rax
    b163:	48 83 c0 48          	add    $0x48,%rax
    b167:	48 89 85 c0 ea ff ff 	mov    %rax,-0x1540(%rbp)
    b16e:	c7 85 24 e9 ff ff 3c 	movl   $0x58d7193c,-0x16dc(%rbp)
    b175:	19 d7 58 
    b178:	48 c7 85 c8 ea ff ff 	movq   $0xfffffffffffffffb,-0x1538(%rbp)
    b17f:	fb ff ff ff 
    b183:	48 c7 85 d0 ea ff ff 	movq   $0x0,-0x1530(%rbp)
    b18a:	00 00 00 00 
    b18e:	c7 85 c4 e8 ff ff 00 	movl   $0x0,-0x173c(%rbp)
    b195:	00 00 00 
    b198:	eb 1e                	jmp    b1b8 <func_31+0x24fe>
    b19a:	8b 85 c4 e8 ff ff    	mov    -0x173c(%rbp),%eax
    b1a0:	48 98                	cltq   
    b1a2:	48 8d 15 0a e6 00 00 	lea    0xe60a(%rip),%rdx        # 197b3 <g_586+0xb>
    b1a9:	48 89 94 c5 00 eb ff 	mov    %rdx,-0x1500(%rbp,%rax,8)
    b1b0:	ff 
    b1b1:	83 85 c4 e8 ff ff 01 	addl   $0x1,-0x173c(%rbp)
    b1b8:	83 bd c4 e8 ff ff 01 	cmpl   $0x1,-0x173c(%rbp)
    b1bf:	7e d9                	jle    b19a <func_31+0x24e0>
    b1c1:	48 8b 8d c8 f8 ff ff 	mov    -0x738(%rbp),%rcx
    b1c8:	48 8b 95 a8 ee ff ff 	mov    -0x1158(%rbp),%rdx
    b1cf:	48 8b 85 c0 ea ff ff 	mov    -0x1540(%rbp),%rax
    b1d6:	48 89 10             	mov    %rdx,(%rax)
    b1d9:	48 8b 85 c0 ea ff ff 	mov    -0x1540(%rbp),%rax
    b1e0:	48 8b 00             	mov    (%rax),%rax
    b1e3:	48 39 c1             	cmp    %rax,%rcx
    b1e6:	0f 84 da 01 00 00    	je     b3c6 <func_31+0x270c>
    b1ec:	c7 85 2c e9 ff ff 8c 	movl   $0xc96b678c,-0x16d4(%rbp)
    b1f3:	67 6b c9 
    b1f6:	66 c7 85 8a e8 ff ff 	movw   $0x96ea,-0x1776(%rbp)
    b1fd:	ea 96 
    b1ff:	48 c7 85 98 e9 ff ff 	movq   $0x0,-0x1668(%rbp)
    b206:	00 00 00 00 
    b20a:	48 8d 85 80 ec ff ff 	lea    -0x1380(%rbp),%rax
    b211:	48 83 c0 08          	add    $0x8,%rax
    b215:	48 89 85 d8 ea ff ff 	mov    %rax,-0x1528(%rbp)
    b21c:	48 8d 05 19 09 01 00 	lea    0x10919(%rip),%rax        # 1bb3c <g_98+0x29c>
    b223:	48 89 85 e0 ea ff ff 	mov    %rax,-0x1520(%rbp)
    b22a:	c7 85 30 e9 ff ff 42 	movl   $0x1a962c42,-0x16d0(%rbp)
    b231:	2c 96 1a 
    b234:	48 8d 05 35 e5 00 00 	lea    0xe535(%rip),%rax        # 19770 <g_265>
    b23b:	48 89 85 e8 ea ff ff 	mov    %rax,-0x1518(%rbp)
    b242:	c7 85 c8 e8 ff ff 00 	movl   $0x0,-0x1738(%rbp)
    b249:	00 00 00 
    b24c:	eb 1e                	jmp    b26c <func_31+0x25b2>
    b24e:	8b 85 c8 e8 ff ff    	mov    -0x1738(%rbp),%eax
    b254:	48 98                	cltq   
    b256:	48 8d 95 98 e9 ff ff 	lea    -0x1668(%rbp),%rdx
    b25d:	48 89 94 c5 80 ec ff 	mov    %rdx,-0x1380(%rbp,%rax,8)
    b264:	ff 
    b265:	83 85 c8 e8 ff ff 01 	addl   $0x1,-0x1738(%rbp)
    b26c:	83 bd c8 e8 ff ff 04 	cmpl   $0x4,-0x1738(%rbp)
    b273:	7e d9                	jle    b24e <func_31+0x2594>
    b275:	be 0c 00 00 00       	mov    $0xc,%esi
    b27a:	bf e5 4a 00 00       	mov    $0x4ae5,%edi
    b27f:	e8 c4 ab ff ff       	callq  5e48 <safe_rshift_func_uint16_t_u_s>
    b284:	81 bd 2c e9 ff ff f7 	cmpl   $0xe0f7,-0x16d4(%rbp)
    b28b:	e0 00 00 
    b28e:	0f 94 c0             	sete   %al
    b291:	0f b6 d0             	movzbl %al,%edx
    b294:	48 8b 85 58 e8 ff ff 	mov    -0x17a8(%rbp),%rax
    b29b:	0f b6 00             	movzbl (%rax),%eax
    b29e:	0f be c0             	movsbl %al,%eax
    b2a1:	89 d6                	mov    %edx,%esi
    b2a3:	89 c7                	mov    %eax,%edi
    b2a5:	e8 68 9f ff ff       	callq  5212 <safe_mul_func_int8_t_s_s>
    b2aa:	3c f6                	cmp    $0xf6,%al
    b2ac:	c7 05 b2 e4 00 00 01 	movl   $0x1,0xe4b2(%rip)        # 19768 <g_263>
    b2b3:	00 00 00 
    b2b6:	0f b7 05 a1 e4 00 00 	movzwl 0xe4a1(%rip),%eax        # 1975e <g_234>
    b2bd:	0f b7 d8             	movzwl %ax,%ebx
    b2c0:	48 8b 95 a8 ef ff ff 	mov    -0x1058(%rbp),%rdx
    b2c7:	48 8b 85 d8 ea ff ff 	mov    -0x1528(%rbp),%rax
    b2ce:	48 8d 0d db fe 00 00 	lea    0xfedb(%rip),%rcx        # 1b1b0 <g_844>
    b2d5:	48 89 08             	mov    %rcx,(%rax)
    b2d8:	48 8b 85 d8 ea ff ff 	mov    -0x1528(%rbp),%rax
    b2df:	48 8b 00             	mov    (%rax),%rax
    b2e2:	48 39 c2             	cmp    %rax,%rdx
    b2e5:	0f 95 c0             	setne  %al
    b2e8:	0f b6 d0             	movzbl %al,%edx
    b2eb:	48 8b 85 e0 ea ff ff 	mov    -0x1520(%rbp),%rax
    b2f2:	8b 00                	mov    (%rax),%eax
    b2f4:	21 c2                	and    %eax,%edx
    b2f6:	48 8b 85 e0 ea ff ff 	mov    -0x1520(%rbp),%rax
    b2fd:	89 10                	mov    %edx,(%rax)
    b2ff:	48 8b 05 e2 fe 00 00 	mov    0xfee2(%rip),%rax        # 1b1e8 <g_1423>
    b306:	4c 8b 20             	mov    (%rax),%r12
    b309:	48 8b 05 b8 fe 00 00 	mov    0xfeb8(%rip),%rax        # 1b1c8 <g_894>
    b310:	48 85 c0             	test   %rax,%rax
    b313:	48 8b 85 e8 ea ff ff 	mov    -0x1518(%rbp),%rax
    b31a:	0f b6 00             	movzbl (%rax),%eax
    b31d:	8d 50 ff             	lea    -0x1(%rax),%edx
    b320:	48 8b 85 e8 ea ff ff 	mov    -0x1518(%rbp),%rax
    b327:	88 10                	mov    %dl,(%rax)
    b329:	0f b6 05 40 e4 00 00 	movzbl 0xe440(%rip),%eax        # 19770 <g_265>
    b330:	0f b6 c0             	movzbl %al,%eax
    b333:	89 c6                	mov    %eax,%esi
    b335:	bf 01 00 00 00       	mov    $0x1,%edi
    b33a:	e8 54 a8 ff ff       	callq  5b93 <safe_mul_func_uint8_t_u_u>
    b33f:	0f b6 c0             	movzbl %al,%eax
    b342:	4c 89 e6             	mov    %r12,%rsi
    b345:	48 89 c7             	mov    %rax,%rdi
    b348:	e8 67 a6 ff ff       	callq  59b4 <safe_mod_func_int64_t_s_s>
    b34d:	48 85 c0             	test   %rax,%rax
    b350:	74 07                	je     b359 <func_31+0x269f>
    b352:	ba 01 00 00 00       	mov    $0x1,%edx
    b357:	eb 05                	jmp    b35e <func_31+0x26a4>
    b359:	ba 00 00 00 00       	mov    $0x0,%edx
    b35e:	48 8b 85 d0 e9 ff ff 	mov    -0x1630(%rbp),%rax
    b365:	48 8b 00             	mov    (%rax),%rax
    b368:	48 8b 00             	mov    (%rax),%rax
    b36b:	48 8b 00             	mov    (%rax),%rax
    b36e:	48 8b 00             	mov    (%rax),%rax
    b371:	66 89 10             	mov    %dx,(%rax)
    b374:	8b 85 2c e9 ff ff    	mov    -0x16d4(%rbp),%eax
    b37a:	48 98                	cltq   
    b37c:	be 01 00 00 00       	mov    $0x1,%esi
    b381:	48 89 c7             	mov    %rax,%rdi
    b384:	e8 b8 a4 ff ff       	callq  5841 <safe_add_func_int64_t_s_s>
    b389:	be 65 e8 d4 59       	mov    $0x59d4e865,%esi
    b38e:	89 c7                	mov    %eax,%edi
    b390:	e8 23 ab ff ff       	callq  5eb8 <safe_add_func_uint32_t_u_u>
    b395:	0f b6 c0             	movzbl %al,%eax
    b398:	89 de                	mov    %ebx,%esi
    b39a:	89 c7                	mov    %eax,%edi
    b39c:	e8 ab a8 ff ff       	callq  5c4c <safe_lshift_func_uint8_t_u_u>
    b3a1:	48 8b 85 68 e8 ff ff 	mov    -0x1798(%rbp),%rax
    b3a8:	8b 00                	mov    (%rax),%eax
    b3aa:	89 85 1c e9 ff ff    	mov    %eax,-0x16e4(%rbp)
    b3b0:	48 8b 05 99 fd 00 00 	mov    0xfd99(%rip),%rax        # 1b150 <g_82>
    b3b7:	48 8d 15 9a 9c 00 00 	lea    0x9c9a(%rip),%rdx        # 15058 <g_88>
    b3be:	48 89 10             	mov    %rdx,(%rax)
    b3c1:	e9 85 00 00 00       	jmpq   b44b <func_31+0x2791>
    b3c6:	c6 85 81 e8 ff ff ff 	movb   $0xff,-0x177f(%rbp)
    b3cd:	c7 85 28 e9 ff ff fd 	movl   $0xfffffffd,-0x16d8(%rbp)
    b3d4:	ff ff ff 
    b3d7:	83 8d 94 e8 ff ff 01 	orl    $0x1,-0x176c(%rbp)
    b3de:	48 8b 85 68 e8 ff ff 	mov    -0x1798(%rbp),%rax
    b3e5:	8b 00                	mov    (%rax),%eax
    b3e7:	85 c0                	test   %eax,%eax
    b3e9:	0f 85 a0 02 00 00    	jne    b68f <func_31+0x29d5>
    b3ef:	0f b6 05 36 dc 00 00 	movzbl 0xdc36(%rip),%eax        # 1902c <g_54>
    b3f6:	0f be c0             	movsbl %al,%eax
    b3f9:	0f b6 15 2c dc 00 00 	movzbl 0xdc2c(%rip),%edx        # 1902c <g_54>
    b400:	0f be d2             	movsbl %dl,%edx
    b403:	8d 4a 01             	lea    0x1(%rdx),%ecx
    b406:	0f b6 15 1f dc 00 00 	movzbl 0xdc1f(%rip),%edx        # 1902c <g_54>
    b40d:	0f be d2             	movsbl %dl,%edx
    b410:	48 63 f2             	movslq %edx,%rsi
    b413:	48 98                	cltq   
    b415:	48 63 c9             	movslq %ecx,%rcx
    b418:	48 89 c2             	mov    %rax,%rdx
    b41b:	48 c1 e2 03          	shl    $0x3,%rdx
    b41f:	48 01 c2             	add    %rax,%rdx
    b422:	48 89 c8             	mov    %rcx,%rax
    b425:	48 01 c0             	add    %rax,%rax
    b428:	48 01 c8             	add    %rcx,%rax
    b42b:	48 01 d0             	add    %rdx,%rax
    b42e:	48 8d 14 30          	lea    (%rax,%rsi,1),%rdx
    b432:	48 8b 85 68 e8 ff ff 	mov    -0x1798(%rbp),%rax
    b439:	48 89 84 d5 80 eb ff 	mov    %rax,-0x1480(%rbp,%rdx,8)
    b440:	ff 
    b441:	81 b5 28 e9 ff ff 67 	xorl   $0x45966167,-0x16d8(%rbp)
    b448:	61 96 45 
    b44b:	0f b7 05 52 e3 00 00 	movzwl 0xe352(%rip),%eax        # 197a4 <g_532+0x4>
    b452:	0f bf d8             	movswl %ax,%ebx
    b455:	0f b7 05 48 e3 00 00 	movzwl 0xe348(%rip),%eax        # 197a4 <g_532+0x4>
    b45c:	44 0f be e0          	movsbl %al,%r12d
    b460:	0f b7 05 85 e3 00 00 	movzwl 0xe385(%rip),%eax        # 197ec <g_803>
    b467:	44 0f bf e8          	movswl %ax,%r13d
    b46b:	48 8b 05 ce df 00 00 	mov    0xdfce(%rip),%rax        # 19440 <g_137>
    b472:	44 0f b6 f0          	movzbl %al,%r14d
    b476:	48 8b 05 2b fd 00 00 	mov    0xfd2b(%rip),%rax        # 1b1a8 <g_782>
    b47d:	48 8b 00             	mov    (%rax),%rax
    b480:	48 8b 00             	mov    (%rax),%rax
    b483:	48 8b 00             	mov    (%rax),%rax
    b486:	0f b7 00             	movzwl (%rax),%eax
    b489:	98                   	cwtl   
    b48a:	89 85 50 e8 ff ff    	mov    %eax,-0x17b0(%rbp)
    b490:	0f b6 05 95 db 00 00 	movzbl 0xdb95(%rip),%eax        # 1902c <g_54>
    b497:	0f be c0             	movsbl %al,%eax
    b49a:	0f b6 15 8b db 00 00 	movzbl 0xdb8b(%rip),%edx        # 1902c <g_54>
    b4a1:	0f be d2             	movsbl %dl,%edx
    b4a4:	8d 4a 04             	lea    0x4(%rdx),%ecx
    b4a7:	0f b6 15 7e db 00 00 	movzbl 0xdb7e(%rip),%edx        # 1902c <g_54>
    b4ae:	0f be d2             	movsbl %dl,%edx
    b4b1:	83 c2 02             	add    $0x2,%edx
    b4b4:	48 63 f2             	movslq %edx,%rsi
    b4b7:	48 63 d0             	movslq %eax,%rdx
    b4ba:	48 63 c9             	movslq %ecx,%rcx
    b4bd:	48 89 d0             	mov    %rdx,%rax
    b4c0:	48 c1 e0 02          	shl    $0x2,%rax
    b4c4:	48 01 d0             	add    %rdx,%rax
    b4c7:	48 c1 e0 02          	shl    $0x2,%rax
    b4cb:	48 01 d0             	add    %rdx,%rax
    b4ce:	48 01 c0             	add    %rax,%rax
    b4d1:	48 89 ca             	mov    %rcx,%rdx
    b4d4:	48 01 d2             	add    %rdx,%rdx
    b4d7:	48 01 ca             	add    %rcx,%rdx
    b4da:	48 01 d2             	add    %rdx,%rdx
    b4dd:	48 01 d0             	add    %rdx,%rax
    b4e0:	48 01 f0             	add    %rsi,%rax
    b4e3:	48 8d 14 c5 00 00 00 	lea    0x0(,%rax,8),%rdx
    b4ea:	00 
    b4eb:	48 8d 05 ee e4 00 00 	lea    0xe4ee(%rip),%rax        # 199e0 <g_1331>
    b4f2:	48 8b 04 02          	mov    (%rdx,%rax,1),%rax
    b4f6:	89 85 4c e8 ff ff    	mov    %eax,-0x17b4(%rbp)
    b4fc:	0f b7 05 ad df 00 00 	movzwl 0xdfad(%rip),%eax        # 194b0 <g_172+0x50>
    b503:	44 0f bf f8          	movswl %ax,%r15d
    b507:	48 8b 85 68 e8 ff ff 	mov    -0x1798(%rbp),%rax
    b50e:	8b 00                	mov    (%rax),%eax
    b510:	89 85 48 e8 ff ff    	mov    %eax,-0x17b8(%rbp)
    b516:	83 bd 24 e9 ff ff 00 	cmpl   $0x0,-0x16dc(%rbp)
    b51d:	74 2e                	je     b54d <func_31+0x2893>
    b51f:	48 8b 85 58 e8 ff ff 	mov    -0x17a8(%rbp),%rax
    b526:	0f b6 00             	movzbl (%rax),%eax
    b529:	0f be d0             	movsbl %al,%edx
    b52c:	48 8b 85 60 e8 ff ff 	mov    -0x17a0(%rbp),%rax
    b533:	0f b6 00             	movzbl (%rax),%eax
    b536:	0f be c0             	movsbl %al,%eax
    b539:	89 d6                	mov    %edx,%esi
    b53b:	89 c7                	mov    %eax,%edi
    b53d:	e8 d0 9c ff ff       	callq  5212 <safe_mul_func_int8_t_s_s>
    b542:	84 c0                	test   %al,%al
    b544:	74 07                	je     b54d <func_31+0x2893>
    b546:	b8 01 00 00 00       	mov    $0x1,%eax
    b54b:	eb 05                	jmp    b552 <func_31+0x2898>
    b54d:	b8 00 00 00 00       	mov    $0x0,%eax
    b552:	3b 85 48 e8 ff ff    	cmp    -0x17b8(%rbp),%eax
    b558:	be f7 ff 00 00       	mov    $0xfff7,%esi
    b55d:	bf cd 0c 00 00       	mov    $0xccd,%edi
    b562:	e8 b8 a7 ff ff       	callq  5d1f <safe_sub_func_uint16_t_u_u>
    b567:	98                   	cwtl   
    b568:	44 89 fe             	mov    %r15d,%esi
    b56b:	89 c7                	mov    %eax,%edi
    b56d:	e8 83 9e ff ff       	callq  53f5 <safe_mul_func_int16_t_s_s>
    b572:	0f b7 c0             	movzwl %ax,%eax
    b575:	25 9e 72 00 00       	and    $0x729e,%eax
    b57a:	8b b5 4c e8 ff ff    	mov    -0x17b4(%rbp),%esi
    b580:	89 c7                	mov    %eax,%edi
    b582:	e8 c1 a8 ff ff       	callq  5e48 <safe_rshift_func_uint16_t_u_s>
    b587:	0f b7 c0             	movzwl %ax,%eax
    b58a:	39 85 50 e8 ff ff    	cmp    %eax,-0x17b0(%rbp)
    b590:	0f 94 c0             	sete   %al
    b593:	0f b6 d0             	movzbl %al,%edx
    b596:	b8 ff ff ff ff       	mov    $0xffffffff,%eax
    b59b:	0f b6 c0             	movzbl %al,%eax
    b59e:	39 c2                	cmp    %eax,%edx
    b5a0:	0f 9d c2             	setge  %dl
    b5a3:	48 8b 05 fe fb 00 00 	mov    0xfbfe(%rip),%rax        # 1b1a8 <g_782>
    b5aa:	48 8b 00             	mov    (%rax),%rax
    b5ad:	48 8b 00             	mov    (%rax),%rax
    b5b0:	48 8b 00             	mov    (%rax),%rax
    b5b3:	0f b6 d2             	movzbl %dl,%edx
    b5b6:	66 89 10             	mov    %dx,(%rax)
    b5b9:	48 8b 85 a8 e9 ff ff 	mov    -0x1658(%rbp),%rax
    b5c0:	48 3b 85 b0 ea ff ff 	cmp    -0x1550(%rbp),%rax
    b5c7:	0f 95 c0             	setne  %al
    b5ca:	88 05 a0 e1 00 00    	mov    %al,0xe1a0(%rip)        # 19770 <g_265>
    b5d0:	0f b6 05 99 e1 00 00 	movzbl 0xe199(%rip),%eax        # 19770 <g_265>
    b5d7:	0f b6 c0             	movzbl %al,%eax
    b5da:	44 89 f6             	mov    %r14d,%esi
    b5dd:	89 c7                	mov    %eax,%edi
    b5df:	e8 af a5 ff ff       	callq  5b93 <safe_mul_func_uint8_t_u_u>
    b5e4:	0f b6 d0             	movzbl %al,%edx
    b5e7:	8b 85 20 e9 ff ff    	mov    -0x16e0(%rbp),%eax
    b5ed:	89 d6                	mov    %edx,%esi
    b5ef:	89 c7                	mov    %eax,%edi
    b5f1:	e8 c2 a8 ff ff       	callq  5eb8 <safe_add_func_uint32_t_u_u>
    b5f6:	f7 d0                	not    %eax
    b5f8:	89 c0                	mov    %eax,%eax
    b5fa:	48 39 85 f8 e9 ff ff 	cmp    %rax,-0x1608(%rbp)
    b601:	0f 96 c0             	setbe  %al
    b604:	0f b6 c0             	movzbl %al,%eax
    b607:	8b 15 e3 e1 00 00    	mov    0xe1e3(%rip),%edx        # 197f0 <g_806>
    b60d:	21 d0                	and    %edx,%eax
    b60f:	0f b7 c0             	movzwl %ax,%eax
    b612:	44 89 ee             	mov    %r13d,%esi
    b615:	89 c7                	mov    %eax,%edi
    b617:	e8 5e a8 ff ff       	callq  5e7a <safe_rshift_func_uint16_t_u_u>
    b61c:	0f be c0             	movsbl %al,%eax
    b61f:	44 89 e6             	mov    %r12d,%esi
    b622:	89 c7                	mov    %eax,%edi
    b624:	e8 e9 9b ff ff       	callq  5212 <safe_mul_func_int8_t_s_s>
    b629:	48 0f be d0          	movsbq %al,%rdx
    b62d:	48 8b 05 04 e5 00 00 	mov    0xe504(%rip),%rax        # 19b38 <g_1529>
    b634:	48 39 c2             	cmp    %rax,%rdx
    b637:	0f 96 c0             	setbe  %al
    b63a:	0f b6 c0             	movzbl %al,%eax
    b63d:	89 de                	mov    %ebx,%esi
    b63f:	89 c7                	mov    %eax,%edi
    b641:	e8 1d 9f ff ff       	callq  5563 <safe_rshift_func_int16_t_s_u>
    b646:	66 85 c0             	test   %ax,%ax
    b649:	48 c7 85 c0 e9 ff ff 	movq   $0x0,-0x1640(%rbp)
    b650:	00 00 00 00 
    b654:	48 8b 85 68 e8 ff ff 	mov    -0x1798(%rbp),%rax
    b65b:	8b 00                	mov    (%rax),%eax
    b65d:	85 c0                	test   %eax,%eax
    b65f:	75 31                	jne    b692 <func_31+0x29d8>
    b661:	0f bf 85 88 e8 ff ff 	movswl -0x1778(%rbp),%eax
    b668:	89 05 1a e1 00 00    	mov    %eax,0xe11a(%rip)        # 19788 <g_268>
    b66e:	0f b6 05 b7 d9 00 00 	movzbl 0xd9b7(%rip),%eax        # 1902c <g_54>
    b675:	83 c0 01             	add    $0x1,%eax
    b678:	88 05 ae d9 00 00    	mov    %al,0xd9ae(%rip)        # 1902c <g_54>
    b67e:	0f b6 05 a7 d9 00 00 	movzbl 0xd9a7(%rip),%eax        # 1902c <g_54>
    b685:	84 c0                	test   %al,%al
    b687:	0f 8e 6c f3 ff ff    	jle    a9f9 <func_31+0x1d3f>
    b68d:	eb 04                	jmp    b693 <func_31+0x29d9>
    b68f:	90                   	nop
    b690:	eb 01                	jmp    b693 <func_31+0x29d9>
    b692:	90                   	nop
    b693:	8b 05 43 e1 00 00    	mov    0xe143(%rip),%eax        # 197dc <g_707>
    b699:	0f b7 c0             	movzwl %ax,%eax
    b69c:	be 09 00 00 00       	mov    $0x9,%esi
    b6a1:	89 c7                	mov    %eax,%edi
    b6a3:	e8 77 a6 ff ff       	callq  5d1f <safe_sub_func_uint16_t_u_u>
    b6a8:	0f b7 c0             	movzwl %ax,%eax
    b6ab:	89 05 2b e1 00 00    	mov    %eax,0xe12b(%rip)        # 197dc <g_707>
    b6b1:	8b 05 25 e1 00 00    	mov    0xe125(%rip),%eax        # 197dc <g_707>
    b6b7:	83 f8 fd             	cmp    $0xfffffffd,%eax
    b6ba:	0f 8d 9a db ff ff    	jge    925a <func_31+0x5a0>
    b6c0:	eb 07                	jmp    b6c9 <func_31+0x2a0f>
    b6c2:	90                   	nop
    b6c3:	eb 04                	jmp    b6c9 <func_31+0x2a0f>
    b6c5:	90                   	nop
    b6c6:	eb 01                	jmp    b6c9 <func_31+0x2a0f>
    b6c8:	90                   	nop
    b6c9:	8b 05 81 dd 00 00    	mov    0xdd81(%rip),%eax        # 19450 <g_142>
    b6cf:	83 c0 01             	add    $0x1,%eax
    b6d2:	89 05 78 dd 00 00    	mov    %eax,0xdd78(%rip)        # 19450 <g_142>
    b6d8:	8b 05 72 dd 00 00    	mov    0xdd72(%rip),%eax        # 19450 <g_142>
    b6de:	83 f8 1b             	cmp    $0x1b,%eax
    b6e1:	0f 8e 75 d9 ff ff    	jle    905c <func_31+0x3a2>
    b6e7:	83 ad dc e8 ff ff 01 	subl   $0x1,-0x1724(%rbp)
    b6ee:	48 8d 05 8e df 00 00 	lea    0xdf8e(%rip),%rax        # 19683 <g_226+0x23>
    b6f5:	48 8b 5d c8          	mov    -0x38(%rbp),%rbx
    b6f9:	64 48 33 1c 25 28 00 	xor    %fs:0x28,%rbx
    b700:	00 00 
    b702:	74 05                	je     b709 <func_31+0x2a4f>
    b704:	e8 67 99 ff ff       	callq  5070 <__stack_chk_fail@plt>
    b709:	48 81 c4 98 17 00 00 	add    $0x1798,%rsp
    b710:	5b                   	pop    %rbx
    b711:	41 5c                	pop    %r12
    b713:	41 5d                	pop    %r13
    b715:	41 5e                	pop    %r14
    b717:	41 5f                	pop    %r15
    b719:	5d                   	pop    %rbp
    b71a:	c3                   	retq   

000000000000b71b <func_35>:
    b71b:	f3 0f 1e fa          	endbr64 
    b71f:	55                   	push   %rbp
    b720:	48 89 e5             	mov    %rsp,%rbp
    b723:	41 57                	push   %r15
    b725:	41 56                	push   %r14
    b727:	41 55                	push   %r13
    b729:	41 54                	push   %r12
    b72b:	53                   	push   %rbx
    b72c:	48 81 ec c8 0b 00 00 	sub    $0xbc8,%rsp
    b733:	48 89 bd 28 f4 ff ff 	mov    %rdi,-0xbd8(%rbp)
    b73a:	48 89 b5 20 f4 ff ff 	mov    %rsi,-0xbe0(%rbp)
    b741:	48 89 95 18 f4 ff ff 	mov    %rdx,-0xbe8(%rbp)
    b748:	64 48 8b 04 25 28 00 	mov    %fs:0x28,%rax
    b74f:	00 00 
    b751:	48 89 45 c8          	mov    %rax,-0x38(%rbp)
    b755:	31 c0                	xor    %eax,%eax
    b757:	c7 85 60 fa ff ff 00 	movl   $0x90700,-0x5a0(%rbp)
    b75e:	07 09 00 
    b761:	c7 85 64 fa ff ff cd 	movl   $0xfffa6ecd,-0x59c(%rbp)
    b768:	6e fa ff 
    b76b:	c7 85 68 fa ff ff 04 	movl   $0x2f88e04,-0x598(%rbp)
    b772:	8e f8 02 
    b775:	c7 85 6c fa ff ff 7c 	movl   $0xff015b7c,-0x594(%rbp)
    b77c:	5b 01 ff 
    b77f:	c7 85 70 fa ff ff 00 	movl   $0x12020200,-0x590(%rbp)
    b786:	02 02 12 
    b789:	c7 85 74 fa ff ff f8 	movl   $0x100f8,-0x58c(%rbp)
    b790:	00 01 00 
    b793:	c7 85 78 fa ff ff 00 	movl   $0xcdf80600,-0x588(%rbp)
    b79a:	06 f8 cd 
    b79d:	c7 85 7c fa ff ff ff 	movl   $0xcd6efaff,-0x584(%rbp)
    b7a4:	fa 6e cd 
    b7a7:	c7 85 80 fa ff ff 01 	movl   $0x7f0601,-0x580(%rbp)
    b7ae:	06 7f 00 
    b7b1:	c7 85 84 fa ff ff 01 	movl   $0x122f0001,-0x57c(%rbp)
    b7b8:	00 2f 12 
    b7bb:	c7 85 88 fa ff ff 58 	movl   $0x4fb0258,-0x578(%rbp)
    b7c2:	02 fb 04 
    b7c5:	c7 85 8c fa ff ff 06 	movl   $0x11820106,-0x574(%rbp)
    b7cc:	01 82 11 
    b7cf:	c7 85 90 fa ff ff 7f 	movl   $0x700787f,-0x570(%rbp)
    b7d6:	78 00 07 
    b7d9:	c7 85 94 fa ff ff ff 	movl   $0x8e0000ff,-0x56c(%rbp)
    b7e0:	00 00 8e 
    b7e3:	c7 85 98 fa ff ff f8 	movl   $0x10109f8,-0x568(%rbp)
    b7ea:	09 01 01 
    b7ed:	c7 85 9c fa ff ff 00 	movl   $0x27fd1200,-0x564(%rbp)
    b7f4:	12 fd 27 
    b7f7:	c7 85 a0 fa ff ff 27 	movl   $0xf8c50027,-0x560(%rbp)
    b7fe:	00 c5 f8 
    b801:	c7 85 a4 fa ff ff 8d 	movl   $0xf8048e8d,-0x55c(%rbp)
    b808:	8e 04 f8 
    b80b:	c7 85 a8 fa ff ff 01 	movl   $0x3b00f801,-0x558(%rbp)
    b812:	f8 00 3b 
    b815:	c7 85 ac fa ff ff 02 	movl   $0xef8fc02,-0x554(%rbp)
    b81c:	fc f8 0e 
    b81f:	c7 85 b0 fa ff ff 04 	movl   $0xff060104,-0x550(%rbp)
    b826:	01 06 ff 
    b829:	c7 85 b4 fa ff ff 00 	movl   $0x9f8ff00,-0x54c(%rbp)
    b830:	ff f8 09 
    b833:	c7 85 b8 fa ff ff 04 	movl   $0x1070104,-0x548(%rbp)
    b83a:	01 07 01 
    b83d:	c7 85 bc fa ff ff f6 	movl   $0x6e047cf6,-0x544(%rbp)
    b844:	7c 04 6e 
    b847:	c7 85 c0 fa ff ff f8 	movl   $0xff0204f8,-0x540(%rbp)
    b84e:	04 02 ff 
    b851:	c7 85 c4 fa ff ff 1d 	movl   $0x1011d,-0x53c(%rbp)
    b858:	01 01 00 
    b85b:	c7 85 c8 fa ff ff 1d 	movl   $0xfa02831d,-0x538(%rbp)
    b862:	83 02 fa 
    b865:	c7 85 cc fa ff ff f8 	movl   $0x1d0400f8,-0x534(%rbp)
    b86c:	00 04 1d 
    b86f:	c7 85 d0 fa ff ff f6 	movl   $0x2077ff6,-0x530(%rbp)
    b876:	7f 07 02 
    b879:	c7 85 d4 fa ff ff 04 	movl   $0xf8f604,-0x52c(%rbp)
    b880:	f6 f8 00 
    b883:	c7 85 d8 fa ff ff 00 	movl   $0xf8065b00,-0x528(%rbp)
    b88a:	5b 06 f8 
    b88d:	c7 85 dc fa ff ff 04 	movl   $0x6f89804,-0x524(%rbp)
    b894:	98 f8 06 
    b897:	c7 85 e0 fa ff ff 02 	movl   $0x7000102,-0x520(%rbp)
    b89e:	01 00 07 
    b8a1:	c7 85 e4 fa ff ff 01 	movl   $0xff040001,-0x51c(%rbp)
    b8a8:	00 04 ff 
    b8ab:	c7 85 e8 fa ff ff 8d 	movl   $0x3c5ff8d,-0x518(%rbp)
    b8b2:	ff c5 03 
    b8b5:	c7 85 ec fa ff ff 27 	movl   $0xf6fd0127,-0x514(%rbp)
    b8bc:	01 fd f6 
    b8bf:	c7 85 f0 fa ff ff 00 	movl   $0x4016e00,-0x510(%rbp)
    b8c6:	6e 01 04 
    b8c9:	c7 85 f4 fa ff ff f8 	movl   $0x8d00c0f8,-0x50c(%rbp)
    b8d0:	c0 00 8d 
    b8d3:	c7 85 f8 fa ff ff ff 	movl   $0x8800fbff,-0x508(%rbp)
    b8da:	fb 00 88 
    b8dd:	c7 85 fc fa ff ff 7f 	movl   $0x82f87f,-0x504(%rbp)
    b8e4:	f8 82 00 
    b8e7:	c7 85 00 fb ff ff 06 	movl   $0xfbfbf606,-0x500(%rbp)
    b8ee:	f6 fb fb 
    b8f1:	c7 85 04 fb ff ff 58 	movl   $0x22f5858,-0x4fc(%rbp)
    b8f8:	58 2f 02 
    b8fb:	c7 85 08 fb ff ff 01 	movl   $0x7f2701,-0x4f8(%rbp)
    b902:	27 7f 00 
    b905:	c7 85 0c fb ff ff 01 	movl   $0x7f6e0001,-0x4f4(%rbp)
    b90c:	00 6e 7f 
    b90f:	c7 85 10 fb ff ff ff 	movl   $0xf800ff,-0x4f0(%rbp)
    b916:	00 f8 00 
    b919:	c7 85 14 fb ff ff 00 	movl   $0x2012700,-0x4ec(%rbp)
    b920:	27 01 02 
    b923:	c7 85 18 fb ff ff f8 	movl   $0xfb0258f8,-0x4e8(%rbp)
    b92a:	58 02 fb 
    b92d:	c7 85 1c fb ff ff 12 	movl   $0x4f612,-0x4e4(%rbp)
    b934:	f6 04 00 
    b937:	c7 85 20 fb ff ff 00 	movl   $0x88c0f800,-0x4e0(%rbp)
    b93e:	f8 c0 88 
    b941:	c7 85 24 fb ff ff 00 	movl   $0x8dfcfb00,-0x4dc(%rbp)
    b948:	fb fc 8d 
    b94b:	c7 85 28 fb ff ff 82 	movl   $0x4ffc082,-0x4d8(%rbp)
    b952:	c0 ff 04 
    b955:	c7 85 2c fb ff ff fd 	movl   $0x98786efd,-0x4d4(%rbp)
    b95c:	6e 78 98 
    b95f:	c7 85 30 fb ff ff 04 	movl   $0x27f0404,-0x4d0(%rbp)
    b966:	04 7f 02 
    b969:	c7 85 34 fb ff ff 12 	movl   $0x88cd0412,-0x4cc(%rbp)
    b970:	04 cd 88 
    b973:	48 8d 05 1e f8 00 00 	lea    0xf81e(%rip),%rax        # 1b198 <g_394>
    b97a:	48 89 85 e0 f4 ff ff 	mov    %rax,-0xb20(%rbp)
    b981:	c7 85 44 f4 ff ff 7f 	movl   $0x466b427f,-0xbbc(%rbp)
    b988:	42 6b 46 
    b98b:	c7 85 48 f4 ff ff 01 	movl   $0x1,-0xbb8(%rbp)
    b992:	00 00 00 
    b995:	c7 85 4c f4 ff ff 01 	movl   $0x1,-0xbb4(%rbp)
    b99c:	00 00 00 
    b99f:	c7 85 70 f7 ff ff 00 	movl   $0x20b2200,-0x890(%rbp)
    b9a6:	22 0b 02 
    b9a9:	c7 85 74 f7 ff ff 00 	movl   $0x20b2200,-0x88c(%rbp)
    b9b0:	22 0b 02 
    b9b3:	c7 85 78 f7 ff ff a4 	movl   $0x3135d1a4,-0x888(%rbp)
    b9ba:	d1 35 31 
    b9bd:	c7 85 7c f7 ff ff 00 	movl   $0x20b2200,-0x884(%rbp)
    b9c4:	22 0b 02 
    b9c7:	c7 85 80 f7 ff ff 00 	movl   $0x20b2200,-0x880(%rbp)
    b9ce:	22 0b 02 
    b9d1:	c7 85 84 f7 ff ff a4 	movl   $0x3135d1a4,-0x87c(%rbp)
    b9d8:	d1 35 31 
    b9db:	48 8d 05 0d de 00 00 	lea    0xde0d(%rip),%rax        # 197ef <g_805>
    b9e2:	48 89 85 28 f5 ff ff 	mov    %rax,-0xad8(%rbp)
    b9e9:	48 8d 05 c0 f7 00 00 	lea    0xf7c0(%rip),%rax        # 1b1b0 <g_844>
    b9f0:	48 89 85 30 f5 ff ff 	mov    %rax,-0xad0(%rbp)
    b9f7:	48 c7 85 38 f5 ff ff 	movq   $0x0,-0xac8(%rbp)
    b9fe:	00 00 00 00 
    ba02:	48 8d 85 e0 f4 ff ff 	lea    -0xb20(%rbp),%rax
    ba09:	48 89 85 d0 f7 ff ff 	mov    %rax,-0x830(%rbp)
    ba10:	48 8d 85 e0 f4 ff ff 	lea    -0xb20(%rbp),%rax
    ba17:	48 89 85 d8 f7 ff ff 	mov    %rax,-0x828(%rbp)
    ba1e:	48 8d 85 e0 f4 ff ff 	lea    -0xb20(%rbp),%rax
    ba25:	48 89 85 e0 f7 ff ff 	mov    %rax,-0x820(%rbp)
    ba2c:	48 8d 85 e0 f4 ff ff 	lea    -0xb20(%rbp),%rax
    ba33:	48 89 85 e8 f7 ff ff 	mov    %rax,-0x818(%rbp)
    ba3a:	48 8d 85 e0 f4 ff ff 	lea    -0xb20(%rbp),%rax
    ba41:	48 89 85 f0 f7 ff ff 	mov    %rax,-0x810(%rbp)
    ba48:	48 8d 05 b1 02 01 00 	lea    0x102b1(%rip),%rax        # 1bd00 <g_944>
    ba4f:	48 89 85 e8 f4 ff ff 	mov    %rax,-0xb18(%rbp)
    ba56:	48 8d 05 d3 d5 00 00 	lea    0xd5d3(%rip),%rax        # 19030 <g_66>
    ba5d:	48 89 85 40 f5 ff ff 	mov    %rax,-0xac0(%rbp)
    ba64:	66 c7 85 40 f4 ff ff 	movw   $0xfffe,-0xbc0(%rbp)
    ba6b:	fe ff 
    ba6d:	c7 85 9c f4 ff ff 50 	movl   $0xbca11b50,-0xb64(%rbp)
    ba74:	1b a1 bc 
    ba77:	48 c7 85 48 f5 ff ff 	movq   $0x0,-0xab8(%rbp)
    ba7e:	00 00 00 00 
    ba82:	c6 05 5d dd 00 00 f1 	movb   $0xf1,0xdd5d(%rip)        # 197e6 <g_756>
    ba89:	e9 dd 04 00 00       	jmpq   bf6b <func_35+0x850>
    ba8e:	48 8d 05 b3 d9 00 00 	lea    0xd9b3(%rip),%rax        # 19448 <g_140>
    ba95:	48 89 85 08 f7 ff ff 	mov    %rax,-0x8f8(%rbp)
    ba9c:	c7 85 dc f4 ff ff cd 	movl   $0x3f0a16cd,-0xb24(%rbp)
    baa3:	16 0a 3f 
    baa6:	48 8d 05 eb f6 00 00 	lea    0xf6eb(%rip),%rax        # 1b198 <g_394>
    baad:	48 89 85 18 f5 ff ff 	mov    %rax,-0xae8(%rbp)
    bab4:	48 c7 85 10 f7 ff ff 	movq   $0x0,-0x8f0(%rbp)
    babb:	00 00 00 00 
    babf:	48 8d 05 da f6 00 00 	lea    0xf6da(%rip),%rax        # 1b1a0 <g_614>
    bac6:	48 89 85 18 f7 ff ff 	mov    %rax,-0x8e8(%rbp)
    bacd:	c7 85 88 f4 ff ff 00 	movl   $0x0,-0xb78(%rbp)
    bad4:	00 00 00 
    bad7:	eb 1a                	jmp    baf3 <func_35+0x3d8>
    bad9:	8b 85 88 f4 ff ff    	mov    -0xb78(%rbp),%eax
    badf:	48 98                	cltq   
    bae1:	c7 84 85 90 f9 ff ff 	movl   $0xffffffff,-0x670(%rbp,%rax,4)
    bae8:	ff ff ff ff 
    baec:	83 85 88 f4 ff ff 01 	addl   $0x1,-0xb78(%rbp)
    baf3:	83 bd 88 f4 ff ff 05 	cmpl   $0x5,-0xb78(%rbp)
    bafa:	7e dd                	jle    bad9 <func_35+0x3be>
    bafc:	48 8b 85 08 f7 ff ff 	mov    -0x8f8(%rbp),%rax
    bb03:	48 8b 10             	mov    (%rax),%rdx
    bb06:	0f b6 85 b7 fa ff ff 	movzbl -0x549(%rbp),%eax
    bb0d:	0f b6 c0             	movzbl %al,%eax
    bb10:	48 31 c2             	xor    %rax,%rdx
    bb13:	48 8b 85 08 f7 ff ff 	mov    -0x8f8(%rbp),%rax
    bb1a:	48 89 10             	mov    %rdx,(%rax)
    bb1d:	48 8b 85 08 f7 ff ff 	mov    -0x8f8(%rbp),%rax
    bb24:	4c 8b 30             	mov    (%rax),%r14
    bb27:	48 8b 85 18 f4 ff ff 	mov    -0xbe8(%rbp),%rax
    bb2e:	0f b6 00             	movzbl (%rax),%eax
    bb31:	0f be d8             	movsbl %al,%ebx
    bb34:	8b 85 dc f4 ff ff    	mov    -0xb24(%rbp),%eax
    bb3a:	44 0f b7 e0          	movzwl %ax,%r12d
    bb3e:	0f b6 05 13 d7 00 00 	movzbl 0xd713(%rip),%eax        # 19258 <g_92+0x218>
    bb45:	84 c0                	test   %al,%al
    bb47:	75 6f                	jne    bbb8 <func_35+0x49d>
    bb49:	0f b6 85 c6 fa ff ff 	movzbl -0x53a(%rbp),%eax
    bb50:	44 0f b6 e8          	movzbl %al,%r13d
    bb54:	8b 05 86 01 01 00    	mov    0x10186(%rip),%eax        # 1bce0 <g_702>
    bb5a:	3d ff 00 00 00       	cmp    $0xff,%eax
    bb5f:	0f 95 c0             	setne  %al
    bb62:	0f b6 d0             	movzbl %al,%edx
    bb65:	0f b6 85 c2 fa ff ff 	movzbl -0x53e(%rbp),%eax
    bb6c:	0f b6 c0             	movzbl %al,%eax
    bb6f:	09 d0                	or     %edx,%eax
    bb71:	48 63 d0             	movslq %eax,%rdx
    bb74:	8b 85 dc f4 ff ff    	mov    -0xb24(%rbp),%eax
    bb7a:	48 98                	cltq   
    bb7c:	48 89 d6             	mov    %rdx,%rsi
    bb7f:	48 89 c7             	mov    %rax,%rdi
    bb82:	e8 70 9e ff ff       	callq  59f7 <safe_div_func_int64_t_s_s>
    bb87:	be 01 00 00 00       	mov    $0x1,%esi
    bb8c:	89 c7                	mov    %eax,%edi
    bb8e:	e8 39 9b ff ff       	callq  56cc <safe_mod_func_int32_t_s_s>
    bb93:	44 89 ee             	mov    %r13d,%esi
    bb96:	89 c7                	mov    %eax,%edi
    bb98:	e8 60 a3 ff ff       	callq  5efd <safe_mod_func_uint32_t_u_u>
    bb9d:	0f b7 d0             	movzwl %ax,%edx
    bba0:	0f b6 85 85 fa ff ff 	movzbl -0x57b(%rbp),%eax
    bba7:	0f b6 c0             	movzbl %al,%eax
    bbaa:	89 d6                	mov    %edx,%esi
    bbac:	89 c7                	mov    %eax,%edi
    bbae:	e8 6c a1 ff ff       	callq  5d1f <safe_sub_func_uint16_t_u_u>
    bbb3:	66 85 c0             	test   %ax,%ax
    bbb6:	74 07                	je     bbbf <func_35+0x4a4>
    bbb8:	b8 01 00 00 00       	mov    $0x1,%eax
    bbbd:	eb 05                	jmp    bbc4 <func_35+0x4a9>
    bbbf:	b8 00 00 00 00       	mov    $0x0,%eax
    bbc4:	0f b7 c0             	movzwl %ax,%eax
    bbc7:	be fb ff 00 00       	mov    $0xfffb,%esi
    bbcc:	89 c7                	mov    %eax,%edi
    bbce:	e8 6a a1 ff ff       	callq  5d3d <safe_mul_func_uint16_t_u_u>
    bbd3:	0f b7 c0             	movzwl %ax,%eax
    bbd6:	0b 85 dc f4 ff ff    	or     -0xb24(%rbp),%eax
    bbdc:	39 85 dc f4 ff ff    	cmp    %eax,-0xb24(%rbp)
    bbe2:	0f 95 c0             	setne  %al
    bbe5:	0f b6 c0             	movzbl %al,%eax
    bbe8:	be 04 00 00 00       	mov    $0x4,%esi
    bbed:	89 c7                	mov    %eax,%edi
    bbef:	e8 31 a3 ff ff       	callq  5f25 <safe_div_func_uint32_t_u_u>
    bbf4:	0f b7 05 95 fc 00 00 	movzwl 0xfc95(%rip),%eax        # 1b890 <g_67>
    bbfb:	0f b7 c0             	movzwl %ax,%eax
    bbfe:	44 89 e6             	mov    %r12d,%esi
    bc01:	89 c7                	mov    %eax,%edi
    bc03:	e8 86 a1 ff ff       	callq  5d8e <safe_div_func_uint16_t_u_u>
    bc08:	0f be c0             	movsbl %al,%eax
    bc0b:	89 de                	mov    %ebx,%esi
    bc0d:	89 c7                	mov    %eax,%edi
    bc0f:	e8 8d 96 ff ff       	callq  52a1 <safe_lshift_func_int8_t_s_s>
    bc14:	48 0f be c0          	movsbq %al,%rax
    bc18:	4c 89 f2             	mov    %r14,%rdx
    bc1b:	48 21 c2             	and    %rax,%rdx
    bc1e:	0f b6 85 7e fa ff ff 	movzbl -0x582(%rbp),%eax
    bc25:	0f b6 c0             	movzbl %al,%eax
    bc28:	48 21 d0             	and    %rdx,%rax
    bc2b:	48 83 f8 04          	cmp    $0x4,%rax
    bc2f:	0f 86 fb 01 00 00    	jbe    be30 <func_35+0x715>
    bc35:	48 8d 85 18 f5 ff ff 	lea    -0xae8(%rbp),%rax
    bc3c:	48 89 85 f0 fc ff ff 	mov    %rax,-0x310(%rbp)
    bc43:	48 8d 85 18 f5 ff ff 	lea    -0xae8(%rbp),%rax
    bc4a:	48 89 85 f8 fc ff ff 	mov    %rax,-0x308(%rbp)
    bc51:	48 8d 85 18 f5 ff ff 	lea    -0xae8(%rbp),%rax
    bc58:	48 89 85 00 fd ff ff 	mov    %rax,-0x300(%rbp)
    bc5f:	48 8d 85 18 f5 ff ff 	lea    -0xae8(%rbp),%rax
    bc66:	48 89 85 08 fd ff ff 	mov    %rax,-0x2f8(%rbp)
    bc6d:	48 8d 85 18 f5 ff ff 	lea    -0xae8(%rbp),%rax
    bc74:	48 89 85 10 fd ff ff 	mov    %rax,-0x2f0(%rbp)
    bc7b:	48 8d 85 18 f5 ff ff 	lea    -0xae8(%rbp),%rax
    bc82:	48 89 85 18 fd ff ff 	mov    %rax,-0x2e8(%rbp)
    bc89:	48 8d 85 18 f5 ff ff 	lea    -0xae8(%rbp),%rax
    bc90:	48 89 85 20 fd ff ff 	mov    %rax,-0x2e0(%rbp)
    bc97:	48 8d 85 18 f5 ff ff 	lea    -0xae8(%rbp),%rax
    bc9e:	48 89 85 28 fd ff ff 	mov    %rax,-0x2d8(%rbp)
    bca5:	48 8d 85 18 f5 ff ff 	lea    -0xae8(%rbp),%rax
    bcac:	48 89 85 30 fd ff ff 	mov    %rax,-0x2d0(%rbp)
    bcb3:	48 8d 05 be da 00 00 	lea    0xdabe(%rip),%rax        # 19778 <g_266>
    bcba:	48 89 85 20 f7 ff ff 	mov    %rax,-0x8e0(%rbp)
    bcc1:	c7 85 10 f5 ff ff ff 	movl   $0xffffffff,-0xaf0(%rbp)
    bcc8:	ff ff ff 
    bccb:	48 c7 85 28 f7 ff ff 	movq   $0x0,-0x8d8(%rbp)
    bcd2:	00 00 00 00 
    bcd6:	48 c7 85 30 f7 ff ff 	movq   $0x0,-0x8d0(%rbp)
    bcdd:	00 00 00 00 
    bce1:	48 8d 05 80 da 00 00 	lea    0xda80(%rip),%rax        # 19768 <g_263>
    bce8:	48 89 85 38 f7 ff ff 	mov    %rax,-0x8c8(%rbp)
    bcef:	48 8d 05 c2 da 00 00 	lea    0xdac2(%rip),%rax        # 197b8 <g_611>
    bcf6:	48 89 85 40 f7 ff ff 	mov    %rax,-0x8c0(%rbp)
    bcfd:	48 8d 05 74 da 00 00 	lea    0xda74(%rip),%rax        # 19778 <g_266>
    bd04:	48 89 85 48 f7 ff ff 	mov    %rax,-0x8b8(%rbp)
    bd0b:	48 8d 85 10 f5 ff ff 	lea    -0xaf0(%rbp),%rax
    bd12:	48 89 85 50 f7 ff ff 	mov    %rax,-0x8b0(%rbp)
    bd19:	48 8d 05 50 da 00 00 	lea    0xda50(%rip),%rax        # 19770 <g_265>
    bd20:	48 89 85 58 f7 ff ff 	mov    %rax,-0x8a8(%rbp)
    bd27:	48 8d 85 10 f5 ff ff 	lea    -0xaf0(%rbp),%rax
    bd2e:	48 89 85 40 fb ff ff 	mov    %rax,-0x4c0(%rbp)
    bd35:	48 8d 85 10 f5 ff ff 	lea    -0xaf0(%rbp),%rax
    bd3c:	48 89 85 48 fb ff ff 	mov    %rax,-0x4b8(%rbp)
    bd43:	48 8d 85 10 f5 ff ff 	lea    -0xaf0(%rbp),%rax
    bd4a:	48 89 85 50 fb ff ff 	mov    %rax,-0x4b0(%rbp)
    bd51:	48 8d 85 10 f5 ff ff 	lea    -0xaf0(%rbp),%rax
    bd58:	48 89 85 58 fb ff ff 	mov    %rax,-0x4a8(%rbp)
    bd5f:	48 8b 85 28 f7 ff ff 	mov    -0x8d8(%rbp),%rax
    bd66:	0f b7 d0             	movzwl %ax,%edx
    bd69:	48 83 bd 10 f7 ff ff 	cmpq   $0x0,-0x8f0(%rbp)
    bd70:	00 
    bd71:	0f 94 c0             	sete   %al
    bd74:	0f b6 c0             	movzbl %al,%eax
    bd77:	89 d6                	mov    %edx,%esi
    bd79:	89 c7                	mov    %eax,%edi
    bd7b:	e8 0e a0 ff ff       	callq  5d8e <safe_div_func_uint16_t_u_u>
    bd80:	0f b7 d0             	movzwl %ax,%edx
    bd83:	48 8b 85 18 f4 ff ff 	mov    -0xbe8(%rbp),%rax
    bd8a:	0f b6 00             	movzbl (%rax),%eax
    bd8d:	0f be c0             	movsbl %al,%eax
    bd90:	39 c2                	cmp    %eax,%edx
    bd92:	48 8b 95 10 fd ff ff 	mov    -0x2f0(%rbp),%rdx
    bd99:	48 8d 85 18 f5 ff ff 	lea    -0xae8(%rbp),%rax
    bda0:	48 39 c2             	cmp    %rax,%rdx
    bda3:	0f 95 c0             	setne  %al
    bda6:	0f b6 c0             	movzbl %al,%eax
    bda9:	8b 95 dc f4 ff ff    	mov    -0xb24(%rbp),%edx
    bdaf:	31 c2                	xor    %eax,%edx
    bdb1:	0f b6 05 b8 d9 00 00 	movzbl 0xd9b8(%rip),%eax        # 19770 <g_265>
    bdb8:	0f b6 c0             	movzbl %al,%eax
    bdbb:	21 d0                	and    %edx,%eax
    bdbd:	0f bf d0             	movswl %ax,%edx
    bdc0:	48 8b 85 20 f7 ff ff 	mov    -0x8e0(%rbp),%rax
    bdc7:	c7 00 f8 ff ff ff    	movl   $0xfffffff8,(%rax)
    bdcd:	48 8b 85 18 f5 ff ff 	mov    -0xae8(%rbp),%rax
    bdd4:	48 89 05 cd f3 00 00 	mov    %rax,0xf3cd(%rip)        # 1b1a8 <g_782>
    bddb:	48 8b 0d c6 f3 00 00 	mov    0xf3c6(%rip),%rcx        # 1b1a8 <g_782>
    bde2:	48 8b 85 e0 f4 ff ff 	mov    -0xb20(%rbp),%rax
    bde9:	48 39 c1             	cmp    %rax,%rcx
    bdec:	0f 95 c0             	setne  %al
    bdef:	0f b6 c0             	movzbl %al,%eax
    bdf2:	0f b7 0d 97 fa 00 00 	movzwl 0xfa97(%rip),%ecx        # 1b890 <g_67>
    bdf9:	31 c8                	xor    %ecx,%eax
    bdfb:	98                   	cwtl   
    bdfc:	89 d6                	mov    %edx,%esi
    bdfe:	89 c7                	mov    %eax,%edi
    be00:	e8 f0 95 ff ff       	callq  53f5 <safe_mul_func_int16_t_s_s>
    be05:	48 8b 95 20 f4 ff ff 	mov    -0xbe0(%rbp),%rdx
    be0c:	8b 0a                	mov    (%rdx),%ecx
    be0e:	0f bf d0             	movswl %ax,%edx
    be11:	48 8b 85 20 f4 ff ff 	mov    -0xbe0(%rbp),%rax
    be18:	09 ca                	or     %ecx,%edx
    be1a:	89 10                	mov    %edx,(%rax)
    be1c:	8b 05 d2 d9 00 00    	mov    0xd9d2(%rip),%eax        # 197f4 <g_807>
    be22:	83 e8 01             	sub    $0x1,%eax
    be25:	89 05 c9 d9 00 00    	mov    %eax,0xd9c9(%rip)        # 197f4 <g_807>
    be2b:	e9 09 01 00 00       	jmpq   bf39 <func_35+0x81e>
    be30:	c6 05 1d d6 00 00 00 	movb   $0x0,0xd61d(%rip)        # 19454 <g_143>
    be37:	90                   	nop
    be38:	0f b6 05 15 d6 00 00 	movzbl 0xd615(%rip),%eax        # 19454 <g_143>
    be3f:	3c 03                	cmp    $0x3,%al
    be41:	0f 87 f2 00 00 00    	ja     bf39 <func_35+0x81e>
    be47:	c6 05 de d1 00 00 00 	movb   $0x0,0xd1de(%rip)        # 1902c <g_54>
    be4e:	e9 cb 00 00 00       	jmpq   bf1e <func_35+0x803>
    be53:	48 8b 15 16 f3 00 00 	mov    0xf316(%rip),%rdx        # 1b170 <g_308>
    be5a:	48 8b 05 0f f3 00 00 	mov    0xf30f(%rip),%rax        # 1b170 <g_308>
    be61:	48 8b 12             	mov    (%rdx),%rdx
    be64:	48 89 10             	mov    %rdx,(%rax)
    be67:	66 c7 05 20 d9 00 00 	movw   $0x0,0xd920(%rip)        # 19790 <g_299>
    be6e:	00 00 
    be70:	eb 6b                	jmp    bedd <func_35+0x7c2>
    be72:	48 8b 85 20 f4 ff ff 	mov    -0xbe0(%rbp),%rax
    be79:	8b 08                	mov    (%rax),%ecx
    be7b:	0f b6 05 d2 d5 00 00 	movzbl 0xd5d2(%rip),%eax        # 19454 <g_143>
    be82:	0f b6 c0             	movzbl %al,%eax
    be85:	8d 70 02             	lea    0x2(%rax),%esi
    be88:	0f b6 05 9d d1 00 00 	movzbl 0xd19d(%rip),%eax        # 1902c <g_54>
    be8f:	0f be c0             	movsbl %al,%eax
    be92:	8d 78 01             	lea    0x1(%rax),%edi
    be95:	0f b6 05 90 d1 00 00 	movzbl 0xd190(%rip),%eax        # 1902c <g_54>
    be9c:	0f be c0             	movsbl %al,%eax
    be9f:	48 63 d0             	movslq %eax,%rdx
    bea2:	48 63 c7             	movslq %edi,%rax
    bea5:	48 63 f6             	movslq %esi,%rsi
    bea8:	48 01 f6             	add    %rsi,%rsi
    beab:	48 01 f2             	add    %rsi,%rdx
    beae:	48 01 c2             	add    %rax,%rdx
    beb1:	48 8d 05 f0 d8 00 00 	lea    0xd8f0(%rip),%rax        # 197a8 <g_586>
    beb8:	48 01 d0             	add    %rdx,%rax
    bebb:	0f b6 00             	movzbl (%rax),%eax
    bebe:	0f b6 d0             	movzbl %al,%edx
    bec1:	48 8b 85 20 f4 ff ff 	mov    -0xbe0(%rbp),%rax
    bec8:	31 ca                	xor    %ecx,%edx
    beca:	89 10                	mov    %edx,(%rax)
    becc:	0f b7 05 bd d8 00 00 	movzwl 0xd8bd(%rip),%eax        # 19790 <g_299>
    bed3:	83 c0 01             	add    $0x1,%eax
    bed6:	66 89 05 b3 d8 00 00 	mov    %ax,0xd8b3(%rip)        # 19790 <g_299>
    bedd:	0f b7 05 ac d8 00 00 	movzwl 0xd8ac(%rip),%eax        # 19790 <g_299>
    bee4:	66 83 f8 03          	cmp    $0x3,%ax
    bee8:	76 88                	jbe    be72 <func_35+0x757>
    beea:	48 c7 05 c3 fd 00 00 	movq   $0x3,0xfdc3(%rip)        # 1bcb8 <g_565>
    bef1:	03 00 00 00 
    bef5:	90                   	nop
    bef6:	48 8b 05 bb fd 00 00 	mov    0xfdbb(%rip),%rax        # 1bcb8 <g_565>
    befd:	48 85 c0             	test   %rax,%rax
    bf00:	78 0c                	js     bf0e <func_35+0x7f3>
    bf02:	48 8d 05 b8 d7 00 00 	lea    0xd7b8(%rip),%rax        # 196c1 <g_226+0x61>
    bf09:	e9 93 2e 00 00       	jmpq   eda1 <func_35+0x3686>
    bf0e:	0f b6 05 17 d1 00 00 	movzbl 0xd117(%rip),%eax        # 1902c <g_54>
    bf15:	83 e8 01             	sub    $0x1,%eax
    bf18:	88 05 0e d1 00 00    	mov    %al,0xd10e(%rip)        # 1902c <g_54>
    bf1e:	0f b6 05 07 d1 00 00 	movzbl 0xd107(%rip),%eax        # 1902c <g_54>
    bf25:	84 c0                	test   %al,%al
    bf27:	0f 89 26 ff ff ff    	jns    be53 <func_35+0x738>
    bf2d:	48 8b 85 28 f5 ff ff 	mov    -0xad8(%rbp),%rax
    bf34:	e9 68 2e 00 00       	jmpq   eda1 <func_35+0x3686>
    bf39:	48 8b 85 28 f4 ff ff 	mov    -0xbd8(%rbp),%rax
    bf40:	48 8b 10             	mov    (%rax),%rdx
    bf43:	48 8b 85 18 f7 ff ff 	mov    -0x8e8(%rbp),%rax
    bf4a:	48 89 10             	mov    %rdx,(%rax)
    bf4d:	0f b6 05 92 d8 00 00 	movzbl 0xd892(%rip),%eax        # 197e6 <g_756>
    bf54:	48 0f be c0          	movsbq %al,%rax
    bf58:	be 07 00 00 00       	mov    $0x7,%esi
    bf5d:	48 89 c7             	mov    %rax,%rdi
    bf60:	e8 dc 98 ff ff       	callq  5841 <safe_add_func_int64_t_s_s>
    bf65:	88 05 7b d8 00 00    	mov    %al,0xd87b(%rip)        # 197e6 <g_756>
    bf6b:	0f b6 05 74 d8 00 00 	movzbl 0xd874(%rip),%eax        # 197e6 <g_756>
    bf72:	3c 1d                	cmp    $0x1d,%al
    bf74:	0f 84 14 fb ff ff    	je     ba8e <func_35+0x373>
    bf7a:	c6 05 db d7 00 00 00 	movb   $0x0,0xd7db(%rip)        # 1975c <g_227>
    bf81:	e9 be 26 00 00       	jmpq   e644 <func_35+0x2f29>
    bf86:	c7 85 50 f4 ff ff 00 	movl   $0x0,-0xbb0(%rbp)
    bf8d:	00 00 00 
    bf90:	48 8d 05 1c d8 00 00 	lea    0xd81c(%rip),%rax        # 197b3 <g_586+0xb>
    bf97:	48 89 85 50 f5 ff ff 	mov    %rax,-0xab0(%rbp)
    bf9e:	48 8d 05 b3 d2 00 00 	lea    0xd2b3(%rip),%rax        # 19258 <g_92+0x218>
    bfa5:	48 89 85 f0 f4 ff ff 	mov    %rax,-0xb10(%rbp)
    bfac:	48 8d 05 b5 d7 00 00 	lea    0xd7b5(%rip),%rax        # 19768 <g_263>
    bfb3:	48 89 85 80 f8 ff ff 	mov    %rax,-0x780(%rbp)
    bfba:	48 8d 05 a7 d7 00 00 	lea    0xd7a7(%rip),%rax        # 19768 <g_263>
    bfc1:	48 89 85 88 f8 ff ff 	mov    %rax,-0x778(%rbp)
    bfc8:	48 8d 05 e9 d7 00 00 	lea    0xd7e9(%rip),%rax        # 197b8 <g_611>
    bfcf:	48 89 85 90 f8 ff ff 	mov    %rax,-0x770(%rbp)
    bfd6:	48 8d 05 8b d7 00 00 	lea    0xd78b(%rip),%rax        # 19768 <g_263>
    bfdd:	48 89 85 98 f8 ff ff 	mov    %rax,-0x768(%rbp)
    bfe4:	48 8d 05 7d d7 00 00 	lea    0xd77d(%rip),%rax        # 19768 <g_263>
    bfeb:	48 89 85 a0 f8 ff ff 	mov    %rax,-0x760(%rbp)
    bff2:	48 8d 05 bf d7 00 00 	lea    0xd7bf(%rip),%rax        # 197b8 <g_611>
    bff9:	48 89 85 a8 f8 ff ff 	mov    %rax,-0x758(%rbp)
    c000:	48 8d 05 61 d7 00 00 	lea    0xd761(%rip),%rax        # 19768 <g_263>
    c007:	48 89 85 b0 f8 ff ff 	mov    %rax,-0x750(%rbp)
    c00e:	48 8d 05 53 d7 00 00 	lea    0xd753(%rip),%rax        # 19768 <g_263>
    c015:	48 89 85 b8 f8 ff ff 	mov    %rax,-0x748(%rbp)
    c01c:	48 8d 05 95 d7 00 00 	lea    0xd795(%rip),%rax        # 197b8 <g_611>
    c023:	48 89 85 c0 f8 ff ff 	mov    %rax,-0x740(%rbp)
    c02a:	48 c7 85 58 f5 ff ff 	movq   $0x0,-0xaa8(%rbp)
    c031:	00 00 00 00 
    c035:	c7 85 a0 f4 ff ff 75 	movl   $0x5d8c6175,-0xb60(%rbp)
    c03c:	61 8c 5d 
    c03f:	48 8d 05 4a f1 00 00 	lea    0xf14a(%rip),%rax        # 1b190 <g_395>
    c046:	48 89 85 60 f5 ff ff 	mov    %rax,-0xaa0(%rbp)
    c04d:	c7 85 b0 f7 ff ff cf 	movl   $0xcf0124cf,-0x850(%rbp)
    c054:	24 01 cf 
    c057:	c7 85 b4 f7 ff ff cf 	movl   $0xcf0124cf,-0x84c(%rbp)
    c05e:	24 01 cf 
    c061:	c7 85 b8 f7 ff ff fc 	movl   $0xfffffffc,-0x848(%rbp)
    c068:	ff ff ff 
    c06b:	c7 85 bc f7 ff ff cf 	movl   $0xcf0124cf,-0x844(%rbp)
    c072:	24 01 cf 
    c075:	c7 85 c0 f7 ff ff cf 	movl   $0xcf0124cf,-0x840(%rbp)
    c07c:	24 01 cf 
    c07f:	c7 85 c4 f7 ff ff fc 	movl   $0xfffffffc,-0x83c(%rbp)
    c086:	ff ff ff 
    c089:	c7 85 c8 f7 ff ff cf 	movl   $0xcf0124cf,-0x838(%rbp)
    c090:	24 01 cf 
    c093:	c7 85 8c f4 ff ff 00 	movl   $0x0,-0xb74(%rbp)
    c09a:	00 00 00 
    c09d:	eb 4c                	jmp    c0eb <func_35+0x9d0>
    c09f:	c7 85 90 f4 ff ff 00 	movl   $0x0,-0xb70(%rbp)
    c0a6:	00 00 00 
    c0a9:	eb 30                	jmp    c0db <func_35+0x9c0>
    c0ab:	8b 85 90 f4 ff ff    	mov    -0xb70(%rbp),%eax
    c0b1:	48 63 c8             	movslq %eax,%rcx
    c0b4:	8b 85 8c f4 ff ff    	mov    -0xb74(%rbp),%eax
    c0ba:	48 63 d0             	movslq %eax,%rdx
    c0bd:	48 89 d0             	mov    %rdx,%rax
    c0c0:	48 01 c0             	add    %rax,%rax
    c0c3:	48 01 d0             	add    %rdx,%rax
    c0c6:	48 01 c8             	add    %rcx,%rax
    c0c9:	c7 84 85 90 f7 ff ff 	movl   $0x1,-0x870(%rbp,%rax,4)
    c0d0:	01 00 00 00 
    c0d4:	83 85 90 f4 ff ff 01 	addl   $0x1,-0xb70(%rbp)
    c0db:	83 bd 90 f4 ff ff 02 	cmpl   $0x2,-0xb70(%rbp)
    c0e2:	7e c7                	jle    c0ab <func_35+0x990>
    c0e4:	83 85 8c f4 ff ff 01 	addl   $0x1,-0xb74(%rbp)
    c0eb:	83 bd 8c f4 ff ff 01 	cmpl   $0x1,-0xb74(%rbp)
    c0f2:	7e ab                	jle    c09f <func_35+0x984>
    c0f4:	0f b6 05 61 d6 00 00 	movzbl 0xd661(%rip),%eax        # 1975c <g_227>
    c0fb:	0f b6 c8             	movzbl %al,%ecx
    c0fe:	48 8b 05 4b f0 00 00 	mov    0xf04b(%rip),%rax        # 1b150 <g_82>
    c105:	48 8d 95 70 f7 ff ff 	lea    -0x890(%rbp),%rdx
    c10c:	48 63 c9             	movslq %ecx,%rcx
    c10f:	48 c1 e1 02          	shl    $0x2,%rcx
    c113:	48 01 ca             	add    %rcx,%rdx
    c116:	48 89 10             	mov    %rdx,(%rax)
    c119:	48 8b 05 30 f0 00 00 	mov    0xf030(%rip),%rax        # 1b150 <g_82>
    c120:	48 c7 00 00 00 00 00 	movq   $0x0,(%rax)
    c127:	8b 85 48 f4 ff ff    	mov    -0xbb8(%rbp),%eax
    c12d:	0f bf d8             	movswl %ax,%ebx
    c130:	c7 85 4c f4 ff ff 01 	movl   $0x1,-0xbb4(%rbp)
    c137:	00 00 00 
    c13a:	0f b6 85 2f fb ff ff 	movzbl -0x4d1(%rbp),%eax
    c141:	44 0f b6 e0          	movzbl %al,%r12d
    c145:	8b 85 50 f4 ff ff    	mov    -0xbb0(%rbp),%eax
    c14b:	0f be d0             	movsbl %al,%edx
    c14e:	48 8b 85 18 f4 ff ff 	mov    -0xbe8(%rbp),%rax
    c155:	0f b6 00             	movzbl (%rax),%eax
    c158:	0f be c0             	movsbl %al,%eax
    c15b:	89 d6                	mov    %edx,%esi
    c15d:	89 c7                	mov    %eax,%edi
    c15f:	e8 cd 90 ff ff       	callq  5231 <safe_mod_func_int8_t_s_s>
    c164:	0f be d0             	movsbl %al,%edx
    c167:	8b 85 48 f4 ff ff    	mov    -0xbb8(%rbp),%eax
    c16d:	39 c2                	cmp    %eax,%edx
    c16f:	0f 9d c0             	setge  %al
    c172:	44 0f b6 e8          	movzbl %al,%r13d
    c176:	8b 85 80 f7 ff ff    	mov    -0x880(%rbp),%eax
    c17c:	89 c2                	mov    %eax,%edx
    c17e:	0f b6 05 fb d5 00 00 	movzbl 0xd5fb(%rip),%eax        # 19780 <g_267>
    c185:	0f b6 c0             	movzbl %al,%eax
    c188:	89 d6                	mov    %edx,%esi
    c18a:	89 c7                	mov    %eax,%edi
    c18c:	e8 2d 9b ff ff       	callq  5cbe <safe_rshift_func_uint8_t_u_u>
    c191:	0f b6 c0             	movzbl %al,%eax
    c194:	41 39 c5             	cmp    %eax,%r13d
    c197:	0f 9e c0             	setle  %al
    c19a:	0f b6 c0             	movzbl %al,%eax
    c19d:	41 39 c4             	cmp    %eax,%r12d
    c1a0:	7c 0a                	jl     c1ac <func_35+0xa91>
    c1a2:	8b 85 50 f4 ff ff    	mov    -0xbb0(%rbp),%eax
    c1a8:	85 c0                	test   %eax,%eax
    c1aa:	74 07                	je     c1b3 <func_35+0xa98>
    c1ac:	b8 01 00 00 00       	mov    $0x1,%eax
    c1b1:	eb 05                	jmp    c1b8 <func_35+0xa9d>
    c1b3:	b8 00 00 00 00       	mov    $0x0,%eax
    c1b8:	83 f8 01             	cmp    $0x1,%eax
    c1bb:	0f 94 c0             	sete   %al
    c1be:	89 c2                	mov    %eax,%edx
    c1c0:	48 8b 85 50 f5 ff ff 	mov    -0xab0(%rbp),%rax
    c1c7:	88 10                	mov    %dl,(%rax)
    c1c9:	48 8b 85 50 f5 ff ff 	mov    -0xab0(%rbp),%rax
    c1d0:	0f b6 00             	movzbl (%rax),%eax
    c1d3:	0f b6 c0             	movzbl %al,%eax
    c1d6:	be 03 00 00 00       	mov    $0x3,%esi
    c1db:	89 c7                	mov    %eax,%edi
    c1dd:	e8 78 99 ff ff       	callq  5b5a <safe_add_func_uint8_t_u_u>
    c1e2:	89 c2                	mov    %eax,%edx
    c1e4:	48 8b 85 f0 f4 ff ff 	mov    -0xb10(%rbp),%rax
    c1eb:	0f b6 d2             	movzbl %dl,%edx
    c1ee:	89 10                	mov    %edx,(%rax)
    c1f0:	8b 00                	mov    (%rax),%eax
    c1f2:	8b 95 44 f4 ff ff    	mov    -0xbbc(%rbp),%edx
    c1f8:	09 d0                	or     %edx,%eax
    c1fa:	89 85 44 f4 ff ff    	mov    %eax,-0xbbc(%rbp)
    c200:	8b 85 44 f4 ff ff    	mov    -0xbbc(%rbp),%eax
    c206:	0f be d0             	movsbl %al,%edx
    c209:	0f b6 05 68 d5 00 00 	movzbl 0xd568(%rip),%eax        # 19778 <g_266>
    c210:	0f be c0             	movsbl %al,%eax
    c213:	89 d6                	mov    %edx,%esi
    c215:	89 c7                	mov    %eax,%edi
    c217:	e8 15 90 ff ff       	callq  5231 <safe_mod_func_int8_t_s_s>
    c21c:	0f be d0             	movsbl %al,%edx
    c21f:	48 8b 05 62 ef 00 00 	mov    0xef62(%rip),%rax        # 1b188 <g_396>
    c226:	0f b7 00             	movzwl (%rax),%eax
    c229:	98                   	cwtl   
    c22a:	89 d6                	mov    %edx,%esi
    c22c:	89 c7                	mov    %eax,%edi
    c22e:	e8 30 93 ff ff       	callq  5563 <safe_rshift_func_int16_t_s_u>
    c233:	98                   	cwtl   
    c234:	89 de                	mov    %ebx,%esi
    c236:	89 c7                	mov    %eax,%edi
    c238:	e8 96 91 ff ff       	callq  53d3 <safe_sub_func_int16_t_s_s>
    c23d:	66 85 c0             	test   %ax,%ax
    c240:	0f 84 bc 00 00 00    	je     c302 <func_35+0xbe7>
    c246:	48 c7 85 58 f6 ff ff 	movq   $0x0,-0x9a8(%rbp)
    c24d:	00 00 00 00 
    c251:	48 8d 05 ee d3 00 00 	lea    0xd3ee(%rip),%rax        # 19646 <g_224>
    c258:	48 89 85 60 f6 ff ff 	mov    %rax,-0x9a0(%rbp)
    c25f:	8b 95 50 f4 ff ff    	mov    -0xbb0(%rbp),%edx
    c265:	8b 85 50 f4 ff ff    	mov    -0xbb0(%rbp),%eax
    c26b:	89 d6                	mov    %edx,%esi
    c26d:	89 c7                	mov    %eax,%edi
    c26f:	e8 91 93 ff ff       	callq  5605 <safe_sub_func_int32_t_s_s>
    c274:	48 8b 05 d5 ee 00 00 	mov    0xeed5(%rip),%rax        # 1b150 <g_82>
    c27b:	48 8d 95 70 f7 ff ff 	lea    -0x890(%rbp),%rdx
    c282:	48 83 c2 10          	add    $0x10,%rdx
    c286:	48 89 10             	mov    %rdx,(%rax)
    c289:	48 8b 18             	mov    (%rax),%rbx
    c28c:	48 8b 85 20 f4 ff ff 	mov    -0xbe0(%rbp),%rax
    c293:	48 89 c6             	mov    %rax,%rsi
    c296:	48 8d 3d b3 d1 00 00 	lea    0xd1b3(%rip),%rdi        # 19450 <g_142>
    c29d:	e8 5c 2d 00 00       	callq  effe <func_45>
    c2a2:	4c 8b 25 a7 ee 00 00 	mov    0xeea7(%rip),%r12        # 1b150 <g_82>
    c2a9:	48 89 de             	mov    %rbx,%rsi
    c2ac:	48 89 c7             	mov    %rax,%rdi
    c2af:	e8 4a 2d 00 00       	callq  effe <func_45>
    c2b4:	49 89 04 24          	mov    %rax,(%r12)
    c2b8:	0f b6 05 9d d4 00 00 	movzbl 0xd49d(%rip),%eax        # 1975c <g_227>
    c2bf:	0f b6 c0             	movzbl %al,%eax
    c2c2:	48 98                	cltq   
    c2c4:	8b 8c 85 70 f7 ff ff 	mov    -0x890(%rbp,%rax,4),%ecx
    c2cb:	48 8b 85 e0 f4 ff ff 	mov    -0xb20(%rbp),%rax
    c2d2:	48 8b 00             	mov    (%rax),%rax
    c2d5:	48 8b 00             	mov    (%rax),%rax
    c2d8:	48 8b 00             	mov    (%rax),%rax
    c2db:	48 39 85 60 f6 ff ff 	cmp    %rax,-0x9a0(%rbp)
    c2e2:	0f 95 c0             	setne  %al
    c2e5:	0f b6 d0             	movzbl %al,%edx
    c2e8:	0f b6 05 6d d4 00 00 	movzbl 0xd46d(%rip),%eax        # 1975c <g_227>
    c2ef:	0f b6 c0             	movzbl %al,%eax
    c2f2:	31 ca                	xor    %ecx,%edx
    c2f4:	48 98                	cltq   
    c2f6:	89 94 85 70 f7 ff ff 	mov    %edx,-0x890(%rbp,%rax,4)
    c2fd:	e9 32 23 00 00       	jmpq   e634 <func_35+0x2f19>
    c302:	48 8d 05 a7 ee 00 00 	lea    0xeea7(%rip),%rax        # 1b1b0 <g_844>
    c309:	48 89 85 68 f5 ff ff 	mov    %rax,-0xa98(%rbp)
    c310:	c7 85 90 f9 ff ff fa 	movl   $0xfffffffa,-0x670(%rbp)
    c317:	ff ff ff 
    c31a:	c7 85 94 f9 ff ff fa 	movl   $0xfffffffa,-0x66c(%rbp)
    c321:	ff ff ff 
    c324:	c7 85 98 f9 ff ff fc 	movl   $0xfffffffc,-0x668(%rbp)
    c32b:	ff ff ff 
    c32e:	c7 85 9c f9 ff ff fc 	movl   $0xfffffffc,-0x664(%rbp)
    c335:	ff ff ff 
    c338:	c7 85 a0 f9 ff ff fa 	movl   $0xfffffffa,-0x660(%rbp)
    c33f:	ff ff ff 
    c342:	c7 85 a4 f9 ff ff bd 	movl   $0x5261edbd,-0x65c(%rbp)
    c349:	ed 61 52 
    c34c:	c7 85 a8 f9 ff ff 43 	movl   $0x17858c43,-0x658(%rbp)
    c353:	8c 85 17 
    c356:	c7 85 ac f9 ff ff bd 	movl   $0x5261edbd,-0x654(%rbp)
    c35d:	ed 61 52 
    c360:	c7 85 b0 f9 ff ff 43 	movl   $0x17858c43,-0x650(%rbp)
    c367:	8c 85 17 
    c36a:	c7 85 b4 f9 ff ff bd 	movl   $0x5261edbd,-0x64c(%rbp)
    c371:	ed 61 52 
    c374:	c7 85 b8 f9 ff ff fa 	movl   $0xfffffffa,-0x648(%rbp)
    c37b:	ff ff ff 
    c37e:	c7 85 bc f9 ff ff fc 	movl   $0xfffffffc,-0x644(%rbp)
    c385:	ff ff ff 
    c388:	c7 85 c0 f9 ff ff fc 	movl   $0xfffffffc,-0x640(%rbp)
    c38f:	ff ff ff 
    c392:	c7 85 c4 f9 ff ff fa 	movl   $0xfffffffa,-0x63c(%rbp)
    c399:	ff ff ff 
    c39c:	c7 85 c8 f9 ff ff fa 	movl   $0xfffffffa,-0x638(%rbp)
    c3a3:	ff ff ff 
    c3a6:	c7 85 cc f9 ff ff fd 	movl   $0xfffffffd,-0x634(%rbp)
    c3ad:	ff ff ff 
    c3b0:	c7 85 d0 f9 ff ff 43 	movl   $0x17858c43,-0x630(%rbp)
    c3b7:	8c 85 17 
    c3ba:	c7 85 d4 f9 ff ff fd 	movl   $0xfffffffd,-0x62c(%rbp)
    c3c1:	ff ff ff 
    c3c4:	c7 85 d8 f9 ff ff 43 	movl   $0x17858c43,-0x628(%rbp)
    c3cb:	8c 85 17 
    c3ce:	c7 85 dc f9 ff ff fd 	movl   $0xfffffffd,-0x624(%rbp)
    c3d5:	ff ff ff 
    c3d8:	c7 85 e0 f9 ff ff fa 	movl   $0xfffffffa,-0x620(%rbp)
    c3df:	ff ff ff 
    c3e2:	c7 85 e4 f9 ff ff fa 	movl   $0xfffffffa,-0x61c(%rbp)
    c3e9:	ff ff ff 
    c3ec:	c7 85 e8 f9 ff ff fc 	movl   $0xfffffffc,-0x618(%rbp)
    c3f3:	ff ff ff 
    c3f6:	c7 85 ec f9 ff ff fc 	movl   $0xfffffffc,-0x614(%rbp)
    c3fd:	ff ff ff 
    c400:	c7 85 f0 f9 ff ff fa 	movl   $0xfffffffa,-0x610(%rbp)
    c407:	ff ff ff 
    c40a:	c7 85 f4 f9 ff ff bd 	movl   $0x5261edbd,-0x60c(%rbp)
    c411:	ed 61 52 
    c414:	c7 85 f8 f9 ff ff 43 	movl   $0x17858c43,-0x608(%rbp)
    c41b:	8c 85 17 
    c41e:	c7 85 fc f9 ff ff bd 	movl   $0x5261edbd,-0x604(%rbp)
    c425:	ed 61 52 
    c428:	c7 85 00 fa ff ff 43 	movl   $0x17858c43,-0x600(%rbp)
    c42f:	8c 85 17 
    c432:	c7 85 04 fa ff ff bd 	movl   $0x5261edbd,-0x5fc(%rbp)
    c439:	ed 61 52 
    c43c:	c7 85 08 fa ff ff fa 	movl   $0xfffffffa,-0x5f8(%rbp)
    c443:	ff ff ff 
    c446:	c7 85 0c fa ff ff fc 	movl   $0xfffffffc,-0x5f4(%rbp)
    c44d:	ff ff ff 
    c450:	c7 85 10 fa ff ff fc 	movl   $0xfffffffc,-0x5f0(%rbp)
    c457:	ff ff ff 
    c45a:	c7 85 14 fa ff ff fa 	movl   $0xfffffffa,-0x5ec(%rbp)
    c461:	ff ff ff 
    c464:	c7 85 18 fa ff ff fa 	movl   $0xfffffffa,-0x5e8(%rbp)
    c46b:	ff ff ff 
    c46e:	c7 85 1c fa ff ff fd 	movl   $0xfffffffd,-0x5e4(%rbp)
    c475:	ff ff ff 
    c478:	c7 85 20 fa ff ff 43 	movl   $0x17858c43,-0x5e0(%rbp)
    c47f:	8c 85 17 
    c482:	c7 85 24 fa ff ff fd 	movl   $0xfffffffd,-0x5dc(%rbp)
    c489:	ff ff ff 
    c48c:	c7 85 28 fa ff ff 43 	movl   $0x17858c43,-0x5d8(%rbp)
    c493:	8c 85 17 
    c496:	c7 85 2c fa ff ff fd 	movl   $0xfffffffd,-0x5d4(%rbp)
    c49d:	ff ff ff 
    c4a0:	c7 85 30 fa ff ff fa 	movl   $0xfffffffa,-0x5d0(%rbp)
    c4a7:	ff ff ff 
    c4aa:	c7 85 34 fa ff ff fa 	movl   $0xfffffffa,-0x5cc(%rbp)
    c4b1:	ff ff ff 
    c4b4:	c7 85 38 fa ff ff fc 	movl   $0xfffffffc,-0x5c8(%rbp)
    c4bb:	ff ff ff 
    c4be:	c7 85 3c fa ff ff fc 	movl   $0xfffffffc,-0x5c4(%rbp)
    c4c5:	ff ff ff 
    c4c8:	c7 85 40 fa ff ff fa 	movl   $0xfffffffa,-0x5c0(%rbp)
    c4cf:	ff ff ff 
    c4d2:	c7 85 44 fa ff ff bd 	movl   $0x5261edbd,-0x5bc(%rbp)
    c4d9:	ed 61 52 
    c4dc:	c7 85 48 fa ff ff 43 	movl   $0x17858c43,-0x5b8(%rbp)
    c4e3:	8c 85 17 
    c4e6:	c7 85 4c fa ff ff bd 	movl   $0x5261edbd,-0x5b4(%rbp)
    c4ed:	ed 61 52 
    c4f0:	c7 85 50 fa ff ff 43 	movl   $0x17858c43,-0x5b0(%rbp)
    c4f7:	8c 85 17 
    c4fa:	c7 85 54 fa ff ff bd 	movl   $0x5261edbd,-0x5ac(%rbp)
    c501:	ed 61 52 
    c504:	48 c7 85 f8 f4 ff ff 	movq   $0x0,-0xb08(%rbp)
    c50b:	00 00 00 00 
    c50f:	48 8d 85 f8 f4 ff ff 	lea    -0xb08(%rbp),%rax
    c516:	48 89 85 00 f5 ff ff 	mov    %rax,-0xb00(%rbp)
    c51d:	48 8d 85 00 f5 ff ff 	lea    -0xb00(%rbp),%rax
    c524:	48 89 85 70 f5 ff ff 	mov    %rax,-0xa90(%rbp)
    c52b:	c7 85 54 f4 ff ff f7 	movl   $0xfffffff7,-0xbac(%rbp)
    c532:	ff ff ff 
    c535:	48 8d 05 a8 d2 00 00 	lea    0xd2a8(%rip),%rax        # 197e4 <g_709>
    c53c:	48 89 85 78 f5 ff ff 	mov    %rax,-0xa88(%rbp)
    c543:	c7 85 94 f4 ff ff 03 	movl   $0x3,-0xb6c(%rbp)
    c54a:	00 00 00 
    c54d:	c7 85 98 f4 ff ff 00 	movl   $0x0,-0xb68(%rbp)
    c554:	00 00 00 
    c557:	eb 51                	jmp    c5aa <func_35+0xe8f>
    c559:	c7 85 84 f4 ff ff 00 	movl   $0x0,-0xb7c(%rbp)
    c560:	00 00 00 
    c563:	eb 35                	jmp    c59a <func_35+0xe7f>
    c565:	8b 85 84 f4 ff ff    	mov    -0xb7c(%rbp),%eax
    c56b:	48 63 c8             	movslq %eax,%rcx
    c56e:	8b 85 98 f4 ff ff    	mov    -0xb68(%rbp),%eax
    c574:	48 63 d0             	movslq %eax,%rdx
    c577:	48 89 d0             	mov    %rdx,%rax
    c57a:	48 01 c0             	add    %rax,%rax
    c57d:	48 01 d0             	add    %rdx,%rax
    c580:	48 8d 5d d0          	lea    -0x30(%rbp),%rbx
    c584:	48 01 d8             	add    %rbx,%rax
    c587:	48 01 c8             	add    %rcx,%rax
    c58a:	48 2d 6b 08 00 00    	sub    $0x86b,%rax
    c590:	c6 00 00             	movb   $0x0,(%rax)
    c593:	83 85 84 f4 ff ff 01 	addl   $0x1,-0xb7c(%rbp)
    c59a:	83 bd 84 f4 ff ff 02 	cmpl   $0x2,-0xb7c(%rbp)
    c5a1:	7e c2                	jle    c565 <func_35+0xe4a>
    c5a3:	83 85 98 f4 ff ff 01 	addl   $0x1,-0xb68(%rbp)
    c5aa:	83 bd 98 f4 ff ff 00 	cmpl   $0x0,-0xb68(%rbp)
    c5b1:	7e a6                	jle    c559 <func_35+0xe3e>
    c5b3:	48 8b 05 e6 eb 00 00 	mov    0xebe6(%rip),%rax        # 1b1a0 <g_614>
    c5ba:	8b 00                	mov    (%rax),%eax
    c5bc:	85 c0                	test   %eax,%eax
    c5be:	0f 84 83 0b 00 00    	je     d147 <func_35+0x1a2c>
    c5c4:	66 c7 85 42 f4 ff ff 	movw   $0xe0f1,-0xbbe(%rbp)
    c5cb:	f1 e0 
    c5cd:	c7 85 80 f4 ff ff 00 	movl   $0x0,-0xb80(%rbp)
    c5d4:	00 00 00 
    c5d7:	eb 1a                	jmp    c5f3 <func_35+0xed8>
    c5d9:	8b 85 80 f4 ff ff    	mov    -0xb80(%rbp),%eax
    c5df:	48 98                	cltq   
    c5e1:	c7 84 85 68 f7 ff ff 	movl   $0x7,-0x898(%rbp,%rax,4)
    c5e8:	07 00 00 00 
    c5ec:	83 85 80 f4 ff ff 01 	addl   $0x1,-0xb80(%rbp)
    c5f3:	83 bd 80 f4 ff ff 01 	cmpl   $0x1,-0xb80(%rbp)
    c5fa:	7e dd                	jle    c5d9 <func_35+0xebe>
    c5fc:	48 c7 05 41 ce 00 00 	movq   $0x1,0xce41(%rip)        # 19448 <g_140>
    c603:	01 00 00 00 
    c607:	e9 1f 0a 00 00       	jmpq   d02b <func_35+0x1910>
    c60c:	48 8d 05 8d eb 00 00 	lea    0xeb8d(%rip),%rax        # 1b1a0 <g_614>
    c613:	48 89 85 00 f8 ff ff 	mov    %rax,-0x800(%rbp)
    c61a:	48 8d 05 7f eb 00 00 	lea    0xeb7f(%rip),%rax        # 1b1a0 <g_614>
    c621:	48 89 85 08 f8 ff ff 	mov    %rax,-0x7f8(%rbp)
    c628:	48 8d 05 71 eb 00 00 	lea    0xeb71(%rip),%rax        # 1b1a0 <g_614>
    c62f:	48 89 85 10 f8 ff ff 	mov    %rax,-0x7f0(%rbp)
    c636:	48 8d 05 63 eb 00 00 	lea    0xeb63(%rip),%rax        # 1b1a0 <g_614>
    c63d:	48 89 85 18 f8 ff ff 	mov    %rax,-0x7e8(%rbp)
    c644:	48 8d 05 55 eb 00 00 	lea    0xeb55(%rip),%rax        # 1b1a0 <g_614>
    c64b:	48 89 85 20 f8 ff ff 	mov    %rax,-0x7e0(%rbp)
    c652:	48 8d 05 47 eb 00 00 	lea    0xeb47(%rip),%rax        # 1b1a0 <g_614>
    c659:	48 89 85 28 f8 ff ff 	mov    %rax,-0x7d8(%rbp)
    c660:	48 8d 05 39 eb 00 00 	lea    0xeb39(%rip),%rax        # 1b1a0 <g_614>
    c667:	48 89 85 30 f8 ff ff 	mov    %rax,-0x7d0(%rbp)
    c66e:	48 8d 05 2b eb 00 00 	lea    0xeb2b(%rip),%rax        # 1b1a0 <g_614>
    c675:	48 89 85 d0 f8 ff ff 	mov    %rax,-0x730(%rbp)
    c67c:	48 8d 05 1d eb 00 00 	lea    0xeb1d(%rip),%rax        # 1b1a0 <g_614>
    c683:	48 89 85 d8 f8 ff ff 	mov    %rax,-0x728(%rbp)
    c68a:	48 8d 05 0f eb 00 00 	lea    0xeb0f(%rip),%rax        # 1b1a0 <g_614>
    c691:	48 89 85 e0 f8 ff ff 	mov    %rax,-0x720(%rbp)
    c698:	48 8d 05 e9 f1 00 00 	lea    0xf1e9(%rip),%rax        # 1b888 <g_2>
    c69f:	48 89 85 e8 f8 ff ff 	mov    %rax,-0x718(%rbp)
    c6a6:	48 8d 05 f3 ea 00 00 	lea    0xeaf3(%rip),%rax        # 1b1a0 <g_614>
    c6ad:	48 89 85 f0 f8 ff ff 	mov    %rax,-0x710(%rbp)
    c6b4:	48 8d 05 cd f1 00 00 	lea    0xf1cd(%rip),%rax        # 1b888 <g_2>
    c6bb:	48 89 85 f8 f8 ff ff 	mov    %rax,-0x708(%rbp)
    c6c2:	48 8d 05 bf f1 00 00 	lea    0xf1bf(%rip),%rax        # 1b888 <g_2>
    c6c9:	48 89 85 00 f9 ff ff 	mov    %rax,-0x700(%rbp)
    c6d0:	48 8d 05 c9 ea 00 00 	lea    0xeac9(%rip),%rax        # 1b1a0 <g_614>
    c6d7:	48 89 85 08 f9 ff ff 	mov    %rax,-0x6f8(%rbp)
    c6de:	48 8d 05 bb ea 00 00 	lea    0xeabb(%rip),%rax        # 1b1a0 <g_614>
    c6e5:	48 89 85 10 f9 ff ff 	mov    %rax,-0x6f0(%rbp)
    c6ec:	48 8d 05 95 f1 00 00 	lea    0xf195(%rip),%rax        # 1b888 <g_2>
    c6f3:	48 89 85 18 f9 ff ff 	mov    %rax,-0x6e8(%rbp)
    c6fa:	48 8d 05 9f ea 00 00 	lea    0xea9f(%rip),%rax        # 1b1a0 <g_614>
    c701:	48 89 85 20 f9 ff ff 	mov    %rax,-0x6e0(%rbp)
    c708:	48 8d 05 79 f1 00 00 	lea    0xf179(%rip),%rax        # 1b888 <g_2>
    c70f:	48 89 85 28 f9 ff ff 	mov    %rax,-0x6d8(%rbp)
    c716:	48 8d 05 6b f1 00 00 	lea    0xf16b(%rip),%rax        # 1b888 <g_2>
    c71d:	48 89 85 30 f9 ff ff 	mov    %rax,-0x6d0(%rbp)
    c724:	48 8d 05 75 ea 00 00 	lea    0xea75(%rip),%rax        # 1b1a0 <g_614>
    c72b:	48 89 85 38 f9 ff ff 	mov    %rax,-0x6c8(%rbp)
    c732:	48 8d 05 67 ea 00 00 	lea    0xea67(%rip),%rax        # 1b1a0 <g_614>
    c739:	48 89 85 40 f9 ff ff 	mov    %rax,-0x6c0(%rbp)
    c740:	48 8d 05 59 ea 00 00 	lea    0xea59(%rip),%rax        # 1b1a0 <g_614>
    c747:	48 89 85 48 f9 ff ff 	mov    %rax,-0x6b8(%rbp)
    c74e:	48 8d 05 4b ea 00 00 	lea    0xea4b(%rip),%rax        # 1b1a0 <g_614>
    c755:	48 89 85 50 f9 ff ff 	mov    %rax,-0x6b0(%rbp)
    c75c:	48 8d 05 3d ea 00 00 	lea    0xea3d(%rip),%rax        # 1b1a0 <g_614>
    c763:	48 89 85 58 f9 ff ff 	mov    %rax,-0x6a8(%rbp)
    c76a:	48 8d 05 17 f1 00 00 	lea    0xf117(%rip),%rax        # 1b888 <g_2>
    c771:	48 89 85 60 f9 ff ff 	mov    %rax,-0x6a0(%rbp)
    c778:	48 8d 05 21 ea 00 00 	lea    0xea21(%rip),%rax        # 1b1a0 <g_614>
    c77f:	48 89 85 68 f9 ff ff 	mov    %rax,-0x698(%rbp)
    c786:	48 8d 05 13 ea 00 00 	lea    0xea13(%rip),%rax        # 1b1a0 <g_614>
    c78d:	48 89 85 70 f9 ff ff 	mov    %rax,-0x690(%rbp)
    c794:	48 8d 05 05 ea 00 00 	lea    0xea05(%rip),%rax        # 1b1a0 <g_614>
    c79b:	48 89 85 78 f9 ff ff 	mov    %rax,-0x688(%rbp)
    c7a2:	48 8d 05 f7 e9 00 00 	lea    0xe9f7(%rip),%rax        # 1b1a0 <g_614>
    c7a9:	48 89 85 80 f9 ff ff 	mov    %rax,-0x680(%rbp)
    c7b0:	48 8d 05 d1 f0 00 00 	lea    0xf0d1(%rip),%rax        # 1b888 <g_2>
    c7b7:	48 89 85 88 f9 ff ff 	mov    %rax,-0x678(%rbp)
    c7be:	48 8d 05 c3 f0 00 00 	lea    0xf0c3(%rip),%rax        # 1b888 <g_2>
    c7c5:	48 89 85 50 f6 ff ff 	mov    %rax,-0x9b0(%rbp)
    c7cc:	48 8d 85 e0 f4 ff ff 	lea    -0xb20(%rbp),%rax
    c7d3:	48 89 85 40 fb ff ff 	mov    %rax,-0x4c0(%rbp)
    c7da:	48 8d 85 e0 f4 ff ff 	lea    -0xb20(%rbp),%rax
    c7e1:	48 89 85 48 fb ff ff 	mov    %rax,-0x4b8(%rbp)
    c7e8:	48 8d 85 e0 f4 ff ff 	lea    -0xb20(%rbp),%rax
    c7ef:	48 89 85 50 fb ff ff 	mov    %rax,-0x4b0(%rbp)
    c7f6:	48 8d 85 e0 f4 ff ff 	lea    -0xb20(%rbp),%rax
    c7fd:	48 89 85 58 fb ff ff 	mov    %rax,-0x4a8(%rbp)
    c804:	48 8d 85 e0 f4 ff ff 	lea    -0xb20(%rbp),%rax
    c80b:	48 89 85 60 fb ff ff 	mov    %rax,-0x4a0(%rbp)
    c812:	48 8d 85 e0 f4 ff ff 	lea    -0xb20(%rbp),%rax
    c819:	48 89 85 68 fb ff ff 	mov    %rax,-0x498(%rbp)
    c820:	48 8d 85 e0 f4 ff ff 	lea    -0xb20(%rbp),%rax
    c827:	48 89 85 70 fb ff ff 	mov    %rax,-0x490(%rbp)
    c82e:	48 8d 85 e0 f4 ff ff 	lea    -0xb20(%rbp),%rax
    c835:	48 89 85 78 fb ff ff 	mov    %rax,-0x488(%rbp)
    c83c:	48 8d 85 e0 f4 ff ff 	lea    -0xb20(%rbp),%rax
    c843:	48 89 85 80 fb ff ff 	mov    %rax,-0x480(%rbp)
    c84a:	48 8d 85 e0 f4 ff ff 	lea    -0xb20(%rbp),%rax
    c851:	48 89 85 88 fb ff ff 	mov    %rax,-0x478(%rbp)
    c858:	48 c7 85 90 fb ff ff 	movq   $0x0,-0x470(%rbp)
    c85f:	00 00 00 00 
    c863:	48 c7 85 98 fb ff ff 	movq   $0x0,-0x468(%rbp)
    c86a:	00 00 00 00 
    c86e:	48 8d 85 e0 f4 ff ff 	lea    -0xb20(%rbp),%rax
    c875:	48 89 85 a0 fb ff ff 	mov    %rax,-0x460(%rbp)
    c87c:	48 8d 85 e0 f4 ff ff 	lea    -0xb20(%rbp),%rax
    c883:	48 89 85 a8 fb ff ff 	mov    %rax,-0x458(%rbp)
    c88a:	48 c7 85 b0 fb ff ff 	movq   $0x0,-0x450(%rbp)
    c891:	00 00 00 00 
    c895:	48 c7 85 b8 fb ff ff 	movq   $0x0,-0x448(%rbp)
    c89c:	00 00 00 00 
    c8a0:	48 8d 85 e0 f4 ff ff 	lea    -0xb20(%rbp),%rax
    c8a7:	48 89 85 c0 fb ff ff 	mov    %rax,-0x440(%rbp)
    c8ae:	48 8d 85 e0 f4 ff ff 	lea    -0xb20(%rbp),%rax
    c8b5:	48 89 85 c8 fb ff ff 	mov    %rax,-0x438(%rbp)
    c8bc:	48 8d 85 e0 f4 ff ff 	lea    -0xb20(%rbp),%rax
    c8c3:	48 89 85 d0 fb ff ff 	mov    %rax,-0x430(%rbp)
    c8ca:	48 8d 85 e0 f4 ff ff 	lea    -0xb20(%rbp),%rax
    c8d1:	48 89 85 d8 fb ff ff 	mov    %rax,-0x428(%rbp)
    c8d8:	48 8d 85 e0 f4 ff ff 	lea    -0xb20(%rbp),%rax
    c8df:	48 89 85 e0 fb ff ff 	mov    %rax,-0x420(%rbp)
    c8e6:	48 8d 85 e0 f4 ff ff 	lea    -0xb20(%rbp),%rax
    c8ed:	48 89 85 e8 fb ff ff 	mov    %rax,-0x418(%rbp)
    c8f4:	48 8d 85 e0 f4 ff ff 	lea    -0xb20(%rbp),%rax
    c8fb:	48 89 85 f0 fb ff ff 	mov    %rax,-0x410(%rbp)
    c902:	48 8d 85 e0 f4 ff ff 	lea    -0xb20(%rbp),%rax
    c909:	48 89 85 f8 fb ff ff 	mov    %rax,-0x408(%rbp)
    c910:	48 8d 85 e0 f4 ff ff 	lea    -0xb20(%rbp),%rax
    c917:	48 89 85 00 fc ff ff 	mov    %rax,-0x400(%rbp)
    c91e:	48 8d 85 e0 f4 ff ff 	lea    -0xb20(%rbp),%rax
    c925:	48 89 85 08 fc ff ff 	mov    %rax,-0x3f8(%rbp)
    c92c:	48 8d 85 e0 f4 ff ff 	lea    -0xb20(%rbp),%rax
    c933:	48 89 85 10 fc ff ff 	mov    %rax,-0x3f0(%rbp)
    c93a:	48 8d 85 e0 f4 ff ff 	lea    -0xb20(%rbp),%rax
    c941:	48 89 85 18 fc ff ff 	mov    %rax,-0x3e8(%rbp)
    c948:	48 8d 85 e0 f4 ff ff 	lea    -0xb20(%rbp),%rax
    c94f:	48 89 85 20 fc ff ff 	mov    %rax,-0x3e0(%rbp)
    c956:	48 c7 85 28 fc ff ff 	movq   $0x0,-0x3d8(%rbp)
    c95d:	00 00 00 00 
    c961:	48 c7 85 30 fc ff ff 	movq   $0x0,-0x3d0(%rbp)
    c968:	00 00 00 00 
    c96c:	48 8d 85 e0 f4 ff ff 	lea    -0xb20(%rbp),%rax
    c973:	48 89 85 38 fc ff ff 	mov    %rax,-0x3c8(%rbp)
    c97a:	48 8d 85 e0 f4 ff ff 	lea    -0xb20(%rbp),%rax
    c981:	48 89 85 40 fc ff ff 	mov    %rax,-0x3c0(%rbp)
    c988:	48 c7 85 48 fc ff ff 	movq   $0x0,-0x3b8(%rbp)
    c98f:	00 00 00 00 
    c993:	48 c7 85 50 fc ff ff 	movq   $0x0,-0x3b0(%rbp)
    c99a:	00 00 00 00 
    c99e:	48 8d 85 e0 f4 ff ff 	lea    -0xb20(%rbp),%rax
    c9a5:	48 89 85 58 fc ff ff 	mov    %rax,-0x3a8(%rbp)
    c9ac:	48 8d 85 e0 f4 ff ff 	lea    -0xb20(%rbp),%rax
    c9b3:	48 89 85 60 fc ff ff 	mov    %rax,-0x3a0(%rbp)
    c9ba:	48 8d 85 e0 f4 ff ff 	lea    -0xb20(%rbp),%rax
    c9c1:	48 89 85 68 fc ff ff 	mov    %rax,-0x398(%rbp)
    c9c8:	48 8d 85 e0 f4 ff ff 	lea    -0xb20(%rbp),%rax
    c9cf:	48 89 85 70 fc ff ff 	mov    %rax,-0x390(%rbp)
    c9d6:	48 8d 85 e0 f4 ff ff 	lea    -0xb20(%rbp),%rax
    c9dd:	48 89 85 78 fc ff ff 	mov    %rax,-0x388(%rbp)
    c9e4:	48 8d 85 e0 f4 ff ff 	lea    -0xb20(%rbp),%rax
    c9eb:	48 89 85 80 fc ff ff 	mov    %rax,-0x380(%rbp)
    c9f2:	48 8d 85 e0 f4 ff ff 	lea    -0xb20(%rbp),%rax
    c9f9:	48 89 85 88 fc ff ff 	mov    %rax,-0x378(%rbp)
    ca00:	48 8d 85 e0 f4 ff ff 	lea    -0xb20(%rbp),%rax
    ca07:	48 89 85 90 fc ff ff 	mov    %rax,-0x370(%rbp)
    ca0e:	48 8d 85 e0 f4 ff ff 	lea    -0xb20(%rbp),%rax
    ca15:	48 89 85 98 fc ff ff 	mov    %rax,-0x368(%rbp)
    ca1c:	48 8d 85 e0 f4 ff ff 	lea    -0xb20(%rbp),%rax
    ca23:	48 89 85 a0 fc ff ff 	mov    %rax,-0x360(%rbp)
    ca2a:	48 8d 85 e0 f4 ff ff 	lea    -0xb20(%rbp),%rax
    ca31:	48 89 85 a8 fc ff ff 	mov    %rax,-0x358(%rbp)
    ca38:	48 c7 85 b0 fc ff ff 	movq   $0x0,-0x350(%rbp)
    ca3f:	00 00 00 00 
    ca43:	48 c7 85 b8 fc ff ff 	movq   $0x0,-0x348(%rbp)
    ca4a:	00 00 00 00 
    ca4e:	48 8d 85 e0 f4 ff ff 	lea    -0xb20(%rbp),%rax
    ca55:	48 89 85 c0 fc ff ff 	mov    %rax,-0x340(%rbp)
    ca5c:	48 8d 85 e0 f4 ff ff 	lea    -0xb20(%rbp),%rax
    ca63:	48 89 85 c8 fc ff ff 	mov    %rax,-0x338(%rbp)
    ca6a:	48 c7 85 d0 fc ff ff 	movq   $0x0,-0x330(%rbp)
    ca71:	00 00 00 00 
    ca75:	48 c7 85 d8 fc ff ff 	movq   $0x0,-0x328(%rbp)
    ca7c:	00 00 00 00 
    ca80:	48 8d 85 e0 f4 ff ff 	lea    -0xb20(%rbp),%rax
    ca87:	48 89 85 e0 fc ff ff 	mov    %rax,-0x320(%rbp)
    ca8e:	48 8d 85 e0 f4 ff ff 	lea    -0xb20(%rbp),%rax
    ca95:	48 89 85 e8 fc ff ff 	mov    %rax,-0x318(%rbp)
    ca9c:	48 8b 85 28 f4 ff ff 	mov    -0xbd8(%rbp),%rax
    caa3:	48 8b 10             	mov    (%rax),%rdx
    caa6:	48 8b 85 50 f6 ff ff 	mov    -0x9b0(%rbp),%rax
    caad:	48 89 10             	mov    %rdx,(%rax)
    cab0:	c7 05 26 cd 00 00 00 	movl   $0x0,0xcd26(%rip)        # 197e0 <g_708>
    cab7:	00 00 00 
    caba:	e9 a9 03 00 00       	jmpq   ce68 <func_35+0x174d>
    cabf:	48 8d 85 f0 fc ff ff 	lea    -0x310(%rbp),%rax
    cac6:	48 8d 15 f3 e1 00 00 	lea    0xe1f3(%rip),%rdx        # 1acc0 <g_2123+0xfd0>
    cacd:	b9 5a 00 00 00       	mov    $0x5a,%ecx
    cad2:	48 89 c7             	mov    %rax,%rdi
    cad5:	48 89 d6             	mov    %rdx,%rsi
    cad8:	f3 48 a5             	rep movsq %ds:(%rsi),%es:(%rdi)
    cadb:	48 8d 05 c6 e6 00 00 	lea    0xe6c6(%rip),%rax        # 1b1a8 <g_782>
    cae2:	48 89 85 40 f8 ff ff 	mov    %rax,-0x7c0(%rbp)
    cae9:	48 8d 05 b8 e6 00 00 	lea    0xe6b8(%rip),%rax        # 1b1a8 <g_782>
    caf0:	48 89 85 48 f8 ff ff 	mov    %rax,-0x7b8(%rbp)
    caf7:	48 8d 05 aa e6 00 00 	lea    0xe6aa(%rip),%rax        # 1b1a8 <g_782>
    cafe:	48 89 85 50 f8 ff ff 	mov    %rax,-0x7b0(%rbp)
    cb05:	48 8d 05 9c e6 00 00 	lea    0xe69c(%rip),%rax        # 1b1a8 <g_782>
    cb0c:	48 89 85 58 f8 ff ff 	mov    %rax,-0x7a8(%rbp)
    cb13:	48 8d 05 8e e6 00 00 	lea    0xe68e(%rip),%rax        # 1b1a8 <g_782>
    cb1a:	48 89 85 60 f8 ff ff 	mov    %rax,-0x7a0(%rbp)
    cb21:	48 8d 05 80 e6 00 00 	lea    0xe680(%rip),%rax        # 1b1a8 <g_782>
    cb28:	48 89 85 68 f8 ff ff 	mov    %rax,-0x798(%rbp)
    cb2f:	48 8d 05 72 e6 00 00 	lea    0xe672(%rip),%rax        # 1b1a8 <g_782>
    cb36:	48 89 85 70 f8 ff ff 	mov    %rax,-0x790(%rbp)
    cb3d:	48 8d 05 64 e6 00 00 	lea    0xe664(%rip),%rax        # 1b1a8 <g_782>
    cb44:	48 89 85 78 f8 ff ff 	mov    %rax,-0x788(%rbp)
    cb4b:	8b 85 50 f4 ff ff    	mov    -0xbb0(%rbp),%eax
    cb51:	85 c0                	test   %eax,%eax
    cb53:	0f 85 29 ef ff ff    	jne    ba82 <func_35+0x367>
    cb59:	8b 05 c9 c4 00 00    	mov    0xc4c9(%rip),%eax        # 19028 <g_5>
    cb5f:	0f b6 d8             	movzbl %al,%ebx
    cb62:	48 8b 05 4f e6 00 00 	mov    0xe64f(%rip),%rax        # 1b1b8 <g_843>
    cb69:	48 89 85 a0 fe ff ff 	mov    %rax,-0x160(%rbp)
    cb70:	48 8b 85 a0 fe ff ff 	mov    -0x160(%rbp),%rax
    cb77:	48 85 c0             	test   %rax,%rax
    cb7a:	8b 85 50 f4 ff ff    	mov    -0xbb0(%rbp),%eax
    cb80:	89 85 14 f4 ff ff    	mov    %eax,-0xbec(%rbp)
    cb86:	48 8b 15 bb c8 00 00 	mov    0xc8bb(%rip),%rdx        # 19448 <g_140>
    cb8d:	48 8b 05 b4 c8 00 00 	mov    0xc8b4(%rip),%rax        # 19448 <g_140>
    cb94:	48 8d 70 03          	lea    0x3(%rax),%rsi
    cb98:	8b 05 42 cc 00 00    	mov    0xcc42(%rip),%eax        # 197e0 <g_708>
    cb9e:	83 c0 02             	add    $0x2,%eax
    cba1:	48 63 c8             	movslq %eax,%rcx
    cba4:	48 89 d0             	mov    %rdx,%rax
    cba7:	48 c1 e0 03          	shl    $0x3,%rax
    cbab:	48 01 d0             	add    %rdx,%rax
    cbae:	48 01 f0             	add    %rsi,%rax
    cbb1:	48 c1 e0 02          	shl    $0x2,%rax
    cbb5:	48 8d 7d d0          	lea    -0x30(%rbp),%rdi
    cbb9:	48 01 f8             	add    %rdi,%rax
    cbbc:	48 01 c8             	add    %rcx,%rax
    cbbf:	48 2d 70 05 00 00    	sub    $0x570,%rax
    cbc5:	0f b6 00             	movzbl (%rax),%eax
    cbc8:	88 85 10 f4 ff ff    	mov    %al,-0xbf0(%rbp)
    cbce:	8b 85 50 f4 ff ff    	mov    -0xbb0(%rbp),%eax
    cbd4:	4c 63 e0             	movslq %eax,%r12
    cbd7:	48 8b 15 6a c8 00 00 	mov    0xc86a(%rip),%rdx        # 19448 <g_140>
    cbde:	48 8b 05 63 c8 00 00 	mov    0xc863(%rip),%rax        # 19448 <g_140>
    cbe5:	48 8d 70 03          	lea    0x3(%rax),%rsi
    cbe9:	8b 05 f1 cb 00 00    	mov    0xcbf1(%rip),%eax        # 197e0 <g_708>
    cbef:	83 c0 02             	add    $0x2,%eax
    cbf2:	48 63 c8             	movslq %eax,%rcx
    cbf5:	48 89 d0             	mov    %rdx,%rax
    cbf8:	48 c1 e0 03          	shl    $0x3,%rax
    cbfc:	48 01 d0             	add    %rdx,%rax
    cbff:	48 01 f0             	add    %rsi,%rax
    cc02:	48 c1 e0 02          	shl    $0x2,%rax
    cc06:	48 8d 7d d0          	lea    -0x30(%rbp),%rdi
    cc0a:	48 01 f8             	add    %rdi,%rax
    cc0d:	48 01 c8             	add    %rcx,%rax
    cc10:	48 2d 70 05 00 00    	sub    $0x570,%rax
    cc16:	0f b6 00             	movzbl (%rax),%eax
    cc19:	44 0f b6 e8          	movzbl %al,%r13d
    cc1d:	8b 85 4c fa ff ff    	mov    -0x5b4(%rbp),%eax
    cc23:	44 0f bf f0          	movswl %ax,%r14d
    cc27:	0f b6 05 93 ca 00 00 	movzbl 0xca93(%rip),%eax        # 196c1 <g_226+0x61>
    cc2e:	4c 0f be f8          	movsbq %al,%r15
    cc32:	b8 b0 bc b8 79       	mov    $0x79b8bcb0,%eax
    cc37:	0f b7 c8             	movzwl %ax,%ecx
    cc3a:	8b 05 a0 cb 00 00    	mov    0xcba0(%rip),%eax        # 197e0 <g_708>
    cc40:	0f b6 15 15 cb 00 00 	movzbl 0xcb15(%rip),%edx        # 1975c <g_227>
    cc47:	0f b6 d2             	movzbl %dl,%edx
    cc4a:	8d 7a 01             	lea    0x1(%rdx),%edi
    cc4d:	0f b6 15 08 cb 00 00 	movzbl 0xcb08(%rip),%edx        # 1975c <g_227>
    cc54:	0f b6 d2             	movzbl %dl,%edx
    cc57:	48 63 f2             	movslq %edx,%rsi
    cc5a:	48 63 d0             	movslq %eax,%rdx
    cc5d:	48 63 ff             	movslq %edi,%rdi
    cc60:	48 89 d0             	mov    %rdx,%rax
    cc63:	48 c1 e0 03          	shl    $0x3,%rax
    cc67:	48 01 d0             	add    %rdx,%rax
    cc6a:	48 01 f8             	add    %rdi,%rax
    cc6d:	48 c1 e0 02          	shl    $0x2,%rax
    cc71:	48 8d 7d d0          	lea    -0x30(%rbp),%rdi
    cc75:	48 01 f8             	add    %rdi,%rax
    cc78:	48 01 f0             	add    %rsi,%rax
    cc7b:	48 2d 70 05 00 00    	sub    $0x570,%rax
    cc81:	0f b6 00             	movzbl (%rax),%eax
    cc84:	0f b6 c0             	movzbl %al,%eax
    cc87:	89 ce                	mov    %ecx,%esi
    cc89:	89 c7                	mov    %eax,%edi
    cc8b:	e8 6f 90 ff ff       	callq  5cff <safe_add_func_uint16_t_u_u>
    cc90:	48 8b 85 30 f5 ff ff 	mov    -0xad0(%rbp),%rax
    cc97:	48 3b 85 68 f5 ff ff 	cmp    -0xa98(%rbp),%rax
    cc9e:	0f 95 c0             	setne  %al
    cca1:	0f b6 c0             	movzbl %al,%eax
    cca4:	4c 89 fe             	mov    %r15,%rsi
    cca7:	48 89 c7             	mov    %rax,%rdi
    ccaa:	e8 d1 93 ff ff       	callq  6080 <safe_mod_func_uint64_t_u_u>
    ccaf:	8b 85 00 fa ff ff    	mov    -0x600(%rbp),%eax
    ccb5:	c1 e8 1f             	shr    $0x1f,%eax
    ccb8:	0f b6 c0             	movzbl %al,%eax
    ccbb:	44 89 f6             	mov    %r14d,%esi
    ccbe:	89 c7                	mov    %eax,%edi
    ccc0:	e8 ee 86 ff ff       	callq  53b3 <safe_add_func_int16_t_s_s>
    ccc5:	48 8d 85 18 f4 ff ff 	lea    -0xbe8(%rbp),%rax
    cccc:	48 39 85 38 f5 ff ff 	cmp    %rax,-0xac8(%rbp)
    ccd3:	0f 94 c0             	sete   %al
    ccd6:	0f b6 c0             	movzbl %al,%eax
    ccd9:	44 89 ee             	mov    %r13d,%esi
    ccdc:	89 c7                	mov    %eax,%edi
    ccde:	e8 5a 90 ff ff       	callq  5d3d <safe_mul_func_uint16_t_u_u>
    cce3:	0f b7 c0             	movzwl %ax,%eax
    cce6:	4c 89 e6             	mov    %r12,%rsi
    cce9:	48 89 c7             	mov    %rax,%rdi
    ccec:	e8 be 93 ff ff       	callq  60af <safe_div_func_uint64_t_u_u>
    ccf1:	48 85 c0             	test   %rax,%rax
    ccf4:	0f 95 c0             	setne  %al
    ccf7:	0f b6 c0             	movzbl %al,%eax
    ccfa:	be c6 46 00 00       	mov    $0x46c6,%esi
    ccff:	89 c7                	mov    %eax,%edi
    cd01:	e8 10 87 ff ff       	callq  5416 <safe_mod_func_int16_t_s_s>
    cd06:	48 0f bf c0          	movswq %ax,%rax
    cd0a:	48 ba ac 8b a6 e9 81 	movabs $0x2c96c881e9a68bac,%rdx
    cd11:	c8 96 2c 
    cd14:	48 09 d0             	or     %rdx,%rax
    cd17:	48 83 f8 03          	cmp    $0x3,%rax
    cd1b:	0f 96 c0             	setbe  %al
    cd1e:	0a 85 10 f4 ff ff    	or     -0xbf0(%rbp),%al
    cd24:	0f b6 c0             	movzbl %al,%eax
    cd27:	8b b5 14 f4 ff ff    	mov    -0xbec(%rbp),%esi
    cd2d:	89 c7                	mov    %eax,%edi
    cd2f:	e8 18 8f ff ff       	callq  5c4c <safe_lshift_func_uint8_t_u_u>
    cd34:	48 8b 15 0d c7 00 00 	mov    0xc70d(%rip),%rdx        # 19448 <g_140>
    cd3b:	48 8b 05 06 c7 00 00 	mov    0xc706(%rip),%rax        # 19448 <g_140>
    cd42:	48 8d 70 03          	lea    0x3(%rax),%rsi
    cd46:	8b 05 94 ca 00 00    	mov    0xca94(%rip),%eax        # 197e0 <g_708>
    cd4c:	83 c0 02             	add    $0x2,%eax
    cd4f:	48 63 c8             	movslq %eax,%rcx
    cd52:	48 89 d0             	mov    %rdx,%rax
    cd55:	48 c1 e0 03          	shl    $0x3,%rax
    cd59:	48 01 d0             	add    %rdx,%rax
    cd5c:	48 01 f0             	add    %rsi,%rax
    cd5f:	48 c1 e0 02          	shl    $0x2,%rax
    cd63:	48 8d 7d d0          	lea    -0x30(%rbp),%rdi
    cd67:	48 01 f8             	add    %rdi,%rax
    cd6a:	48 01 c8             	add    %rcx,%rax
    cd6d:	48 2d 70 05 00 00    	sub    $0x570,%rax
    cd73:	0f b6 00             	movzbl (%rax),%eax
    cd76:	44 0f b6 e0          	movzbl %al,%r12d
    cd7a:	48 8b 95 48 f8 ff ff 	mov    -0x7b8(%rbp),%rdx
    cd81:	48 8d 85 e0 f4 ff ff 	lea    -0xb20(%rbp),%rax
    cd88:	48 89 85 70 fb ff ff 	mov    %rax,-0x490(%rbp)
    cd8f:	48 8b 85 70 fb ff ff 	mov    -0x490(%rbp),%rax
    cd96:	48 39 c2             	cmp    %rax,%rdx
    cd99:	0f 94 c0             	sete   %al
    cd9c:	0f b6 c0             	movzbl %al,%eax
    cd9f:	be 00 00 00 00       	mov    $0x0,%esi
    cda4:	89 c7                	mov    %eax,%edi
    cda6:	e8 a1 8e ff ff       	callq  5c4c <safe_lshift_func_uint8_t_u_u>
    cdab:	0f b6 c0             	movzbl %al,%eax
    cdae:	44 89 e6             	mov    %r12d,%esi
    cdb1:	89 c7                	mov    %eax,%edi
    cdb3:	e8 47 89 ff ff       	callq  56ff <safe_div_func_int32_t_s_s>
    cdb8:	8b 05 22 ca 00 00    	mov    0xca22(%rip),%eax        # 197e0 <g_708>
    cdbe:	8d 70 04             	lea    0x4(%rax),%esi
    cdc1:	8b 15 19 ca 00 00    	mov    0xca19(%rip),%edx        # 197e0 <g_708>
    cdc7:	8b 0d 13 ca 00 00    	mov    0xca13(%rip),%ecx        # 197e0 <g_708>
    cdcd:	48 63 f9             	movslq %ecx,%rdi
    cdd0:	48 63 c2             	movslq %edx,%rax
    cdd3:	4c 63 c6             	movslq %esi,%r8
    cdd6:	4d 01 c0             	add    %r8,%r8
    cdd9:	4c 01 c7             	add    %r8,%rdi
    cddc:	48 01 c7             	add    %rax,%rdi
    cddf:	48 8d 05 c2 c9 00 00 	lea    0xc9c2(%rip),%rax        # 197a8 <g_586>
    cde6:	48 01 f8             	add    %rdi,%rax
    cde9:	0f b6 00             	movzbl (%rax),%eax
    cdec:	8d 78 ff             	lea    -0x1(%rax),%edi
    cdef:	48 63 c9             	movslq %ecx,%rcx
    cdf2:	48 63 d2             	movslq %edx,%rdx
    cdf5:	48 63 f6             	movslq %esi,%rsi
    cdf8:	48 01 f6             	add    %rsi,%rsi
    cdfb:	48 01 f1             	add    %rsi,%rcx
    cdfe:	48 01 d1             	add    %rdx,%rcx
    ce01:	48 8d 15 a0 c9 00 00 	lea    0xc9a0(%rip),%rdx        # 197a8 <g_586>
    ce08:	48 01 ca             	add    %rcx,%rdx
    ce0b:	40 88 3a             	mov    %dil,(%rdx)
    ce0e:	0f b6 c0             	movzbl %al,%eax
    ce11:	be 01 00 00 00       	mov    $0x1,%esi
    ce16:	89 c7                	mov    %eax,%edi
    ce18:	e8 e8 8d ff ff       	callq  5c05 <safe_lshift_func_uint8_t_u_s>
    ce1d:	89 c2                	mov    %eax,%edx
    ce1f:	0f b6 05 36 c9 00 00 	movzbl 0xc936(%rip),%eax        # 1975c <g_227>
    ce26:	0f b6 c0             	movzbl %al,%eax
    ce29:	48 98                	cltq   
    ce2b:	8b 84 85 70 f7 ff ff 	mov    -0x890(%rbp,%rax,4),%eax
    ce32:	21 d0                	and    %edx,%eax
    ce34:	0f b6 c0             	movzbl %al,%eax
    ce37:	89 de                	mov    %ebx,%esi
    ce39:	89 c7                	mov    %eax,%edi
    ce3b:	e8 53 8d ff ff       	callq  5b93 <safe_mul_func_uint8_t_u_u>
    ce40:	b9 00 00 00 00       	mov    $0x0,%ecx
    ce45:	48 8b 85 20 f4 ff ff 	mov    -0xbe0(%rbp),%rax
    ce4c:	8b 10                	mov    (%rax),%edx
    ce4e:	48 8b 85 20 f4 ff ff 	mov    -0xbe0(%rbp),%rax
    ce55:	09 ca                	or     %ecx,%edx
    ce57:	89 10                	mov    %edx,(%rax)
    ce59:	8b 05 81 c9 00 00    	mov    0xc981(%rip),%eax        # 197e0 <g_708>
    ce5f:	83 e8 01             	sub    $0x1,%eax
    ce62:	89 05 78 c9 00 00    	mov    %eax,0xc978(%rip)        # 197e0 <g_708>
    ce68:	8b 05 72 c9 00 00    	mov    0xc972(%rip),%eax        # 197e0 <g_708>
    ce6e:	85 c0                	test   %eax,%eax
    ce70:	0f 89 49 fc ff ff    	jns    cabf <func_35+0x13a4>
    ce76:	c6 05 72 c9 00 00 00 	movb   $0x0,0xc972(%rip)        # 197ef <g_805>
    ce7d:	e9 88 01 00 00       	jmpq   d00a <func_35+0x18ef>
    ce82:	c7 85 c8 f4 ff ff 9c 	movl   $0x9027f29c,-0xb38(%rbp)
    ce89:	f2 27 90 
    ce8c:	48 8b 85 20 f4 ff ff 	mov    -0xbe0(%rbp),%rax
    ce93:	48 89 05 ee e9 00 00 	mov    %rax,0xe9ee(%rip)        # 1b888 <g_2>
    ce9a:	48 8b 05 af e2 00 00 	mov    0xe2af(%rip),%rax        # 1b150 <g_82>
    cea1:	48 8b 15 e0 e9 00 00 	mov    0xe9e0(%rip),%rdx        # 1b888 <g_2>
    cea8:	48 89 10             	mov    %rdx,(%rax)
    ceab:	48 8b 95 20 f4 ff ff 	mov    -0xbe0(%rbp),%rdx
    ceb2:	48 8b 05 cf e9 00 00 	mov    0xe9cf(%rip),%rax        # 1b888 <g_2>
    ceb9:	8b 12                	mov    (%rdx),%edx
    cebb:	89 10                	mov    %edx,(%rax)
    cebd:	8b 85 c8 f4 ff ff    	mov    -0xb38(%rbp),%eax
    cec3:	0f bf d8             	movswl %ax,%ebx
    cec6:	8b 05 24 c9 00 00    	mov    0xc924(%rip),%eax        # 197f0 <g_806>
    cecc:	0f b7 c0             	movzwl %ax,%eax
    cecf:	be 02 00 00 00       	mov    $0x2,%esi
    ced4:	89 c7                	mov    %eax,%edi
    ced6:	e8 9f 8f ff ff       	callq  5e7a <safe_rshift_func_uint16_t_u_u>
    cedb:	0f b6 05 0d c9 00 00 	movzbl 0xc90d(%rip),%eax        # 197ef <g_805>
    cee2:	0f be c0             	movsbl %al,%eax
    cee5:	8d 50 01             	lea    0x1(%rax),%edx
    cee8:	0f b6 05 00 c9 00 00 	movzbl 0xc900(%rip),%eax        # 197ef <g_805>
    ceef:	0f be c0             	movsbl %al,%eax
    cef2:	8d 70 02             	lea    0x2(%rax),%esi
    cef5:	0f b6 05 f3 c8 00 00 	movzbl 0xc8f3(%rip),%eax        # 197ef <g_805>
    cefc:	0f be c0             	movsbl %al,%eax
    ceff:	48 63 c8             	movslq %eax,%rcx
    cf02:	48 63 d2             	movslq %edx,%rdx
    cf05:	48 63 f6             	movslq %esi,%rsi
    cf08:	48 89 d0             	mov    %rdx,%rax
    cf0b:	48 c1 e0 03          	shl    $0x3,%rax
    cf0f:	48 01 d0             	add    %rdx,%rax
    cf12:	48 01 f0             	add    %rsi,%rax
    cf15:	48 c1 e0 02          	shl    $0x2,%rax
    cf19:	48 8d 7d d0          	lea    -0x30(%rbp),%rdi
    cf1d:	48 01 f8             	add    %rdi,%rax
    cf20:	48 01 c8             	add    %rcx,%rax
    cf23:	48 2d 70 05 00 00    	sub    $0x570,%rax
    cf29:	c6 00 00             	movb   $0x0,(%rax)
    cf2c:	44 0f b7 a5 42 f4 ff 	movzwl -0xbbe(%rbp),%r12d
    cf33:	ff 
    cf34:	8b 85 44 f4 ff ff    	mov    -0xbbc(%rbp),%eax
    cf3a:	89 c6                	mov    %eax,%esi
    cf3c:	bf 9b e9 e5 af       	mov    $0xafe5e99b,%edi
    cf41:	e8 df 8f ff ff       	callq  5f25 <safe_div_func_uint32_t_u_u>
    cf46:	89 c2                	mov    %eax,%edx
    cf48:	48 c7 85 e0 f7 ff ff 	movq   $0x0,-0x820(%rbp)
    cf4f:	00 00 00 00 
    cf53:	48 8b 8d e0 f7 ff ff 	mov    -0x820(%rbp),%rcx
    cf5a:	48 8d 85 e0 f4 ff ff 	lea    -0xb20(%rbp),%rax
    cf61:	48 39 c1             	cmp    %rax,%rcx
    cf64:	0f 94 c0             	sete   %al
    cf67:	0f b6 c0             	movzbl %al,%eax
    cf6a:	89 d6                	mov    %edx,%esi
    cf6c:	89 c7                	mov    %eax,%edi
    cf6e:	e8 b2 8f ff ff       	callq  5f25 <safe_div_func_uint32_t_u_u>
    cf73:	44 09 e0             	or     %r12d,%eax
    cf76:	89 85 6c f7 ff ff    	mov    %eax,-0x894(%rbp)
    cf7c:	be 00 00 00 00       	mov    $0x0,%esi
    cf81:	bf 00 00 00 00       	mov    $0x0,%edi
    cf86:	e8 63 83 ff ff       	callq  52ee <safe_lshift_func_int8_t_s_u>
    cf8b:	48 8b 05 f6 e1 00 00 	mov    0xe1f6(%rip),%rax        # 1b188 <g_396>
    cf92:	0f b7 00             	movzwl (%rax),%eax
    cf95:	98                   	cwtl   
    cf96:	89 de                	mov    %ebx,%esi
    cf98:	89 c7                	mov    %eax,%edi
    cf9a:	e8 b6 84 ff ff       	callq  5455 <safe_div_func_int16_t_s_s>
    cf9f:	66 85 c0             	test   %ax,%ax
    cfa2:	75 0a                	jne    cfae <func_35+0x1893>
    cfa4:	8b 85 50 f4 ff ff    	mov    -0xbb0(%rbp),%eax
    cfaa:	85 c0                	test   %eax,%eax
    cfac:	74 07                	je     cfb5 <func_35+0x189a>
    cfae:	b9 01 00 00 00       	mov    $0x1,%ecx
    cfb3:	eb 05                	jmp    cfba <func_35+0x189f>
    cfb5:	b9 00 00 00 00       	mov    $0x0,%ecx
    cfba:	0f b6 05 9b c7 00 00 	movzbl 0xc79b(%rip),%eax        # 1975c <g_227>
    cfc1:	0f b6 c0             	movzbl %al,%eax
    cfc4:	48 98                	cltq   
    cfc6:	8b 94 85 70 f7 ff ff 	mov    -0x890(%rbp,%rax,4),%edx
    cfcd:	0f b6 05 88 c7 00 00 	movzbl 0xc788(%rip),%eax        # 1975c <g_227>
    cfd4:	0f b6 c0             	movzbl %al,%eax
    cfd7:	09 d1                	or     %edx,%ecx
    cfd9:	48 63 d0             	movslq %eax,%rdx
    cfdc:	89 8c 95 70 f7 ff ff 	mov    %ecx,-0x890(%rbp,%rdx,4)
    cfe3:	48 98                	cltq   
    cfe5:	8b 94 85 70 f7 ff ff 	mov    -0x890(%rbp,%rax,4),%edx
    cfec:	8b 85 44 fa ff ff    	mov    -0x5bc(%rbp),%eax
    cff2:	21 d0                	and    %edx,%eax
    cff4:	89 85 44 fa ff ff    	mov    %eax,-0x5bc(%rbp)
    cffa:	0f b6 05 ee c7 00 00 	movzbl 0xc7ee(%rip),%eax        # 197ef <g_805>
    d001:	83 c0 01             	add    $0x1,%eax
    d004:	88 05 e5 c7 00 00    	mov    %al,0xc7e5(%rip)        # 197ef <g_805>
    d00a:	0f b6 05 de c7 00 00 	movzbl 0xc7de(%rip),%eax        # 197ef <g_805>
    d011:	3c 03                	cmp    $0x3,%al
    d013:	0f 8e 69 fe ff ff    	jle    ce82 <func_35+0x1767>
    d019:	48 8b 05 28 c4 00 00 	mov    0xc428(%rip),%rax        # 19448 <g_140>
    d020:	48 83 c0 01          	add    $0x1,%rax
    d024:	48 89 05 1d c4 00 00 	mov    %rax,0xc41d(%rip)        # 19448 <g_140>
    d02b:	48 8b 05 16 c4 00 00 	mov    0xc416(%rip),%rax        # 19448 <g_140>
    d032:	48 83 f8 05          	cmp    $0x5,%rax
    d036:	0f 86 d0 f5 ff ff    	jbe    c60c <func_35+0xef1>
    d03c:	66 c7 05 03 c6 00 00 	movw   $0x0,0xc603(%rip)        # 19648 <g_225>
    d043:	00 00 
    d045:	90                   	nop
    d046:	0f b7 05 fb c5 00 00 	movzwl 0xc5fb(%rip),%eax        # 19648 <g_225>
    d04d:	66 83 f8 0f          	cmp    $0xf,%ax
    d051:	0f 84 dd 15 00 00    	je     e634 <func_35+0x2f19>
    d057:	48 8d 05 a2 c7 00 00 	lea    0xc7a2(%rip),%rax        # 19800 <g_887>
    d05e:	48 89 85 30 f6 ff ff 	mov    %rax,-0x9d0(%rbp)
    d065:	8b 85 70 f7 ff ff    	mov    -0x890(%rbp),%eax
    d06b:	85 c0                	test   %eax,%eax
    d06d:	0f 84 ab 00 00 00    	je     d11e <func_35+0x1a03>
    d073:	48 8d 85 50 f4 ff ff 	lea    -0xbb0(%rbp),%rax
    d07a:	48 89 85 38 f6 ff ff 	mov    %rax,-0x9c8(%rbp)
    d081:	0f b6 05 d4 c6 00 00 	movzbl 0xc6d4(%rip),%eax        # 1975c <g_227>
    d088:	0f b6 d0             	movzbl %al,%edx
    d08b:	48 8d 85 70 f7 ff ff 	lea    -0x890(%rbp),%rax
    d092:	48 63 d2             	movslq %edx,%rdx
    d095:	48 c1 e2 02          	shl    $0x2,%rdx
    d099:	48 01 d0             	add    %rdx,%rax
    d09c:	48 89 85 40 f6 ff ff 	mov    %rax,-0x9c0(%rbp)
    d0a3:	48 8d 05 1e e1 00 00 	lea    0xe11e(%rip),%rax        # 1b1c8 <g_894>
    d0aa:	48 89 85 48 f6 ff ff 	mov    %rax,-0x9b8(%rbp)
    d0b1:	c7 85 7c f4 ff ff 00 	movl   $0x0,-0xb84(%rbp)
    d0b8:	00 00 00 
    d0bb:	eb 1e                	jmp    d0db <func_35+0x19c0>
    d0bd:	8b 85 7c f4 ff ff    	mov    -0xb84(%rbp),%eax
    d0c3:	48 98                	cltq   
    d0c5:	48 8d 15 bc c6 00 00 	lea    0xc6bc(%rip),%rdx        # 19788 <g_268>
    d0cc:	48 89 94 c5 f0 fc ff 	mov    %rdx,-0x310(%rbp,%rax,8)
    d0d3:	ff 
    d0d4:	83 85 7c f4 ff ff 01 	addl   $0x1,-0xb84(%rbp)
    d0db:	83 bd 7c f4 ff ff 01 	cmpl   $0x1,-0xb84(%rbp)
    d0e2:	7e d9                	jle    d0bd <func_35+0x19a2>
    d0e4:	48 8d 05 ad c6 00 00 	lea    0xc6ad(%rip),%rax        # 19798 <g_363>
    d0eb:	48 89 85 30 f6 ff ff 	mov    %rax,-0x9d0(%rbp)
    d0f2:	8b 85 98 f7 ff ff    	mov    -0x868(%rbp),%eax
    d0f8:	83 e8 01             	sub    $0x1,%eax
    d0fb:	89 85 98 f7 ff ff    	mov    %eax,-0x868(%rbp)
    d101:	48 8b 15 c0 e0 00 00 	mov    0xe0c0(%rip),%rdx        # 1b1c8 <g_894>
    d108:	48 8b 85 48 f6 ff ff 	mov    -0x9b8(%rbp),%rax
    d10f:	48 89 10             	mov    %rdx,(%rax)
    d112:	48 8d 05 cd c6 00 00 	lea    0xc6cd(%rip),%rax        # 197e6 <g_756>
    d119:	e9 83 1c 00 00       	jmpq   eda1 <func_35+0x3686>
    d11e:	48 8b 85 20 f4 ff ff 	mov    -0xbe0(%rbp),%rax
    d125:	8b 08                	mov    (%rax),%ecx
    d127:	48 8b 05 72 e0 00 00 	mov    0xe072(%rip),%rax        # 1b1a0 <g_614>
    d12e:	8b 10                	mov    (%rax),%edx
    d130:	48 8b 85 20 f4 ff ff 	mov    -0xbe0(%rbp),%rax
    d137:	21 ca                	and    %ecx,%edx
    d139:	89 10                	mov    %edx,(%rax)
    d13b:	48 8b 85 18 f4 ff ff 	mov    -0xbe8(%rbp),%rax
    d142:	e9 5a 1c 00 00       	jmpq   eda1 <func_35+0x3686>
    d147:	c7 85 58 f4 ff ff 8f 	movl   $0xc8f7758f,-0xba8(%rbp)
    d14e:	75 f7 c8 
    d151:	48 c7 85 08 f5 ff ff 	movq   $0x0,-0xaf8(%rbp)
    d158:	00 00 00 00 
    d15c:	c7 85 a4 f4 ff ff 01 	movl   $0x1,-0xb5c(%rbp)
    d163:	00 00 00 
    d166:	c7 85 5c f4 ff ff fc 	movl   $0xfffffffc,-0xba4(%rbp)
    d16d:	ff ff ff 
    d170:	48 b8 bf 9a f2 e6 e2 	movabs $0xb8a34ce2e6f29abf,%rax
    d177:	4c a3 b8 
    d17a:	48 89 85 80 f5 ff ff 	mov    %rax,-0xa80(%rbp)
    d181:	c7 85 60 f4 ff ff 01 	movl   $0x1,-0xba0(%rbp)
    d188:	00 00 00 
    d18b:	c7 85 a8 f4 ff ff fa 	movl   $0xfffffffa,-0xb58(%rbp)
    d192:	ff ff ff 
    d195:	c7 85 6c f4 ff ff 00 	movl   $0x0,-0xb94(%rbp)
    d19c:	00 00 00 
    d19f:	eb 1a                	jmp    d1bb <func_35+0x1aa0>
    d1a1:	8b 85 6c f4 ff ff    	mov    -0xb94(%rbp),%eax
    d1a7:	48 98                	cltq   
    d1a9:	c7 84 85 00 f8 ff ff 	movl   $0x801bfdb2,-0x800(%rbp,%rax,4)
    d1b0:	b2 fd 1b 80 
    d1b4:	83 85 6c f4 ff ff 01 	addl   $0x1,-0xb94(%rbp)
    d1bb:	83 bd 6c f4 ff ff 01 	cmpl   $0x1,-0xb94(%rbp)
    d1c2:	7e dd                	jle    d1a1 <func_35+0x1a86>
    d1c4:	c7 85 6c f4 ff ff 00 	movl   $0x0,-0xb94(%rbp)
    d1cb:	00 00 00 
    d1ce:	eb 1e                	jmp    d1ee <func_35+0x1ad3>
    d1d0:	8b 85 6c f4 ff ff    	mov    -0xb94(%rbp),%eax
    d1d6:	48 98                	cltq   
    d1d8:	48 8d 95 08 f5 ff ff 	lea    -0xaf8(%rbp),%rdx
    d1df:	48 89 94 c5 d0 f8 ff 	mov    %rdx,-0x730(%rbp,%rax,8)
    d1e6:	ff 
    d1e7:	83 85 6c f4 ff ff 01 	addl   $0x1,-0xb94(%rbp)
    d1ee:	83 bd 6c f4 ff ff 02 	cmpl   $0x2,-0xb94(%rbp)
    d1f5:	7e d9                	jle    d1d0 <func_35+0x1ab5>
    d1f7:	c7 05 4f c2 00 00 ec 	movl   $0xffffffec,0xc24f(%rip)        # 19450 <g_142>
    d1fe:	ff ff ff 
    d201:	e9 3e 0b 00 00       	jmpq   dd44 <func_35+0x2629>
    d206:	66 c7 85 3e f4 ff ff 	movw   $0x99b5,-0xbc2(%rbp)
    d20d:	b5 99 
    d20f:	48 8d 05 42 c0 00 00 	lea    0xc042(%rip),%rax        # 19258 <g_92+0x218>
    d216:	48 89 85 88 f5 ff ff 	mov    %rax,-0xa78(%rbp)
    d21d:	48 8d 05 d4 ea 00 00 	lea    0xead4(%rip),%rax        # 1bcf8 <g_906>
    d224:	48 89 85 90 f5 ff ff 	mov    %rax,-0xa70(%rbp)
    d22b:	48 8d 05 3e c5 00 00 	lea    0xc53e(%rip),%rax        # 19770 <g_265>
    d232:	48 89 85 98 f5 ff ff 	mov    %rax,-0xa68(%rbp)
    d239:	48 8d 85 44 f4 ff ff 	lea    -0xbbc(%rbp),%rax
    d240:	48 89 85 a0 f5 ff ff 	mov    %rax,-0xa60(%rbp)
    d247:	c7 85 ac f4 ff ff c9 	movl   $0xfc9a34c9,-0xb54(%rbp)
    d24e:	34 9a fc 
    d251:	c7 85 70 f4 ff ff 00 	movl   $0x0,-0xb90(%rbp)
    d258:	00 00 00 
    d25b:	eb 1a                	jmp    d277 <func_35+0x1b5c>
    d25d:	8b 85 70 f4 ff ff    	mov    -0xb90(%rbp),%eax
    d263:	48 98                	cltq   
    d265:	c7 84 85 40 f8 ff ff 	movl   $0xed7f6a21,-0x7c0(%rbp,%rax,4)
    d26c:	21 6a 7f ed 
    d270:	83 85 70 f4 ff ff 01 	addl   $0x1,-0xb90(%rbp)
    d277:	83 bd 70 f4 ff ff 02 	cmpl   $0x2,-0xb90(%rbp)
    d27e:	7e dd                	jle    d25d <func_35+0x1b42>
    d280:	66 c7 05 63 c5 00 00 	movw   $0x1,0xc563(%rip)        # 197ec <g_803>
    d287:	01 00 
    d289:	90                   	nop
    d28a:	0f b7 05 5b c5 00 00 	movzwl 0xc55b(%rip),%eax        # 197ec <g_803>
    d291:	66 85 c0             	test   %ax,%ax
    d294:	0f 88 83 00 00 00    	js     d31d <func_35+0x1c02>
    d29a:	48 c7 85 10 f6 ff ff 	movq   $0x0,-0x9f0(%rbp)
    d2a1:	00 00 00 00 
    d2a5:	c7 85 74 f4 ff ff 00 	movl   $0x0,-0xb8c(%rbp)
    d2ac:	00 00 00 
    d2af:	eb 46                	jmp    d2f7 <func_35+0x1bdc>
    d2b1:	c7 85 78 f4 ff ff 00 	movl   $0x0,-0xb88(%rbp)
    d2b8:	00 00 00 
    d2bb:	eb 2a                	jmp    d2e7 <func_35+0x1bcc>
    d2bd:	8b 85 78 f4 ff ff    	mov    -0xb88(%rbp),%eax
    d2c3:	48 63 d0             	movslq %eax,%rdx
    d2c6:	8b 85 74 f4 ff ff    	mov    -0xb8c(%rbp),%eax
    d2cc:	48 98                	cltq   
    d2ce:	48 01 c2             	add    %rax,%rdx
    d2d1:	48 8d 85 44 f4 ff ff 	lea    -0xbbc(%rbp),%rax
    d2d8:	48 89 84 d5 f0 fc ff 	mov    %rax,-0x310(%rbp,%rdx,8)
    d2df:	ff 
    d2e0:	83 85 78 f4 ff ff 01 	addl   $0x1,-0xb88(%rbp)
    d2e7:	83 bd 78 f4 ff ff 00 	cmpl   $0x0,-0xb88(%rbp)
    d2ee:	7e cd                	jle    d2bd <func_35+0x1ba2>
    d2f0:	83 85 74 f4 ff ff 01 	addl   $0x1,-0xb8c(%rbp)
    d2f7:	83 bd 74 f4 ff ff 01 	cmpl   $0x1,-0xb8c(%rbp)
    d2fe:	7e b1                	jle    d2b1 <func_35+0x1b96>
    d300:	0f b7 85 3e f4 ff ff 	movzwl -0xbc2(%rbp),%eax
    d307:	83 e8 01             	sub    $0x1,%eax
    d30a:	66 89 85 3e f4 ff ff 	mov    %ax,-0xbc2(%rbp)
    d311:	48 8d 05 f2 c3 00 00 	lea    0xc3f2(%rip),%rax        # 1970a <g_226+0xaa>
    d318:	e9 84 1a 00 00       	jmpq   eda1 <func_35+0x3686>
    d31d:	8b 85 98 f7 ff ff    	mov    -0x868(%rbp),%eax
    d323:	89 c2                	mov    %eax,%edx
    d325:	48 8b 85 88 f5 ff ff 	mov    -0xa78(%rbp),%rax
    d32c:	89 10                	mov    %edx,(%rax)
    d32e:	48 8b 15 c3 e9 00 00 	mov    0xe9c3(%rip),%rdx        # 1bcf8 <g_906>
    d335:	48 8b 85 90 f5 ff ff 	mov    -0xa70(%rbp),%rax
    d33c:	48 89 10             	mov    %rdx,(%rax)
    d33f:	8b 05 e3 bc 00 00    	mov    0xbce3(%rip),%eax        # 19028 <g_5>
    d345:	41 89 c5             	mov    %eax,%r13d
    d348:	48 8b 85 18 f4 ff ff 	mov    -0xbe8(%rbp),%rax
    d34f:	0f b6 00             	movzbl (%rax),%eax
    d352:	66 0f be d8          	movsbw %al,%bx
    d356:	0f b6 05 0b c4 00 00 	movzbl 0xc40b(%rip),%eax        # 19768 <g_263>
    d35d:	44 0f b6 e0          	movzbl %al,%r12d
    d361:	48 8b 05 70 de 00 00 	mov    0xde70(%rip),%rax        # 1b1d8 <g_916>
    d368:	48 85 c0             	test   %rax,%rax
    d36b:	0f 95 c0             	setne  %al
    d36e:	0f b6 c0             	movzbl %al,%eax
    d371:	89 c7                	mov    %eax,%edi
    d373:	e8 1e 82 ff ff       	callq  5596 <safe_unary_minus_func_int32_t_s>
    d378:	41 39 c4             	cmp    %eax,%r12d
    d37b:	7c 79                	jl     d3f6 <func_35+0x1cdb>
    d37d:	44 8b a5 98 f7 ff ff 	mov    -0x868(%rbp),%r12d
    d384:	8b 85 4c fa ff ff    	mov    -0x5b4(%rbp),%eax
    d38a:	89 c6                	mov    %eax,%esi
    d38c:	bf 60 53 d2 8c       	mov    $0x8cd25360,%edi
    d391:	e8 36 83 ff ff       	callq  56cc <safe_mod_func_int32_t_s_s>
    d396:	0f be c0             	movsbl %al,%eax
    d399:	be f8 ff ff ff       	mov    $0xfffffff8,%esi
    d39e:	89 c7                	mov    %eax,%edi
    d3a0:	e8 6d 7e ff ff       	callq  5212 <safe_mul_func_int8_t_s_s>
    d3a5:	0f be d0             	movsbl %al,%edx
    d3a8:	48 8b 05 f1 dd 00 00 	mov    0xddf1(%rip),%rax        # 1b1a0 <g_614>
    d3af:	8b 00                	mov    (%rax),%eax
    d3b1:	39 c2                	cmp    %eax,%edx
    d3b3:	0f 9f c0             	setg   %al
    d3b6:	0f b6 c0             	movzbl %al,%eax
    d3b9:	44 21 e0             	and    %r12d,%eax
    d3bc:	89 c2                	mov    %eax,%edx
    d3be:	48 8b 85 88 f5 ff ff 	mov    -0xa78(%rbp),%rax
    d3c5:	89 10                	mov    %edx,(%rax)
    d3c7:	48 8b 85 88 f5 ff ff 	mov    -0xa78(%rbp),%rax
    d3ce:	8b 10                	mov    (%rax),%edx
    d3d0:	8b 85 50 f4 ff ff    	mov    -0xbb0(%rbp),%eax
    d3d6:	21 d0                	and    %edx,%eax
    d3d8:	89 85 50 f4 ff ff    	mov    %eax,-0xbb0(%rbp)
    d3de:	8b 85 50 f4 ff ff    	mov    -0xbb0(%rbp),%eax
    d3e4:	89 c2                	mov    %eax,%edx
    d3e6:	48 8b 05 e3 c3 00 00 	mov    0xc3e3(%rip),%rax        # 197d0 <g_701>
    d3ed:	89 d6                	mov    %edx,%esi
    d3ef:	89 c7                	mov    %eax,%edi
    d3f1:	e8 da 8a ff ff       	callq  5ed0 <safe_sub_func_uint32_t_u_u>
    d3f6:	b8 01 00 00 00       	mov    $0x1,%eax
    d3fb:	31 d8                	xor    %ebx,%eax
    d3fd:	98                   	cwtl   
    d3fe:	be 0d 00 00 00       	mov    $0xd,%esi
    d403:	89 c7                	mov    %eax,%edi
    d405:	e8 88 80 ff ff       	callq  5492 <safe_lshift_func_int16_t_s_s>
    d40a:	8b 85 58 f4 ff ff    	mov    -0xba8(%rbp),%eax
    d410:	0f be c0             	movsbl %al,%eax
    d413:	be ee ff ff ff       	mov    $0xffffffee,%esi
    d418:	89 c7                	mov    %eax,%edi
    d41a:	e8 4b 7e ff ff       	callq  526a <safe_div_func_int8_t_s_s>
    d41f:	84 c0                	test   %al,%al
    d421:	0f 95 c0             	setne  %al
    d424:	0f b6 d0             	movzbl %al,%edx
    d427:	0f b6 85 7e fa ff ff 	movzbl -0x582(%rbp),%eax
    d42e:	0f b6 c0             	movzbl %al,%eax
    d431:	39 c2                	cmp    %eax,%edx
    d433:	0f 9e c0             	setle  %al
    d436:	0f b6 c0             	movzbl %al,%eax
    d439:	44 89 ee             	mov    %r13d,%esi
    d43c:	89 c7                	mov    %eax,%edi
    d43e:	e8 37 8a ff ff       	callq  5e7a <safe_rshift_func_uint16_t_u_u>
    d443:	48 8b 95 a0 f5 ff ff 	mov    -0xa60(%rbp),%rdx
    d44a:	8b 12                	mov    (%rdx),%edx
    d44c:	0f b7 c0             	movzwl %ax,%eax
    d44f:	09 c2                	or     %eax,%edx
    d451:	48 8b 85 a0 f5 ff ff 	mov    -0xa60(%rbp),%rax
    d458:	89 10                	mov    %edx,(%rax)
    d45a:	48 8b 85 a0 f5 ff ff 	mov    -0xa60(%rbp),%rax
    d461:	8b 00                	mov    (%rax),%eax
    d463:	85 c0                	test   %eax,%eax
    d465:	75 11                	jne    d478 <func_35+0x1d5d>
    d467:	48 8b 85 20 f4 ff ff 	mov    -0xbe0(%rbp),%rax
    d46e:	8b 00                	mov    (%rax),%eax
    d470:	85 c0                	test   %eax,%eax
    d472:	0f 84 17 02 00 00    	je     d68f <func_35+0x1f74>
    d478:	48 8d 85 08 f5 ff ff 	lea    -0xaf8(%rbp),%rax
    d47f:	48 89 85 f0 fc ff ff 	mov    %rax,-0x310(%rbp)
    d486:	48 8d 85 08 f5 ff ff 	lea    -0xaf8(%rbp),%rax
    d48d:	48 89 85 f8 fc ff ff 	mov    %rax,-0x308(%rbp)
    d494:	48 8d 85 08 f5 ff ff 	lea    -0xaf8(%rbp),%rax
    d49b:	48 89 85 00 fd ff ff 	mov    %rax,-0x300(%rbp)
    d4a2:	48 8d 85 08 f5 ff ff 	lea    -0xaf8(%rbp),%rax
    d4a9:	48 89 85 08 fd ff ff 	mov    %rax,-0x2f8(%rbp)
    d4b0:	48 8d 85 08 f5 ff ff 	lea    -0xaf8(%rbp),%rax
    d4b7:	48 89 85 10 fd ff ff 	mov    %rax,-0x2f0(%rbp)
    d4be:	48 8d 85 08 f5 ff ff 	lea    -0xaf8(%rbp),%rax
    d4c5:	48 89 85 18 fd ff ff 	mov    %rax,-0x2e8(%rbp)
    d4cc:	48 8d 85 08 f5 ff ff 	lea    -0xaf8(%rbp),%rax
    d4d3:	48 89 85 20 fd ff ff 	mov    %rax,-0x2e0(%rbp)
    d4da:	48 8d 85 08 f5 ff ff 	lea    -0xaf8(%rbp),%rax
    d4e1:	48 89 85 28 fd ff ff 	mov    %rax,-0x2d8(%rbp)
    d4e8:	48 8d 85 08 f5 ff ff 	lea    -0xaf8(%rbp),%rax
    d4ef:	48 89 85 30 fd ff ff 	mov    %rax,-0x2d0(%rbp)
    d4f6:	48 8d 85 08 f5 ff ff 	lea    -0xaf8(%rbp),%rax
    d4fd:	48 89 85 38 fd ff ff 	mov    %rax,-0x2c8(%rbp)
    d504:	c7 85 b4 f4 ff ff 43 	movl   $0x9bd91643,-0xb4c(%rbp)
    d50b:	16 d9 9b 
    d50e:	b8 ff ff ff ff       	mov    $0xffffffff,%eax
    d513:	0f bf d8             	movswl %ax,%ebx
    d516:	0f b7 05 73 c2 00 00 	movzwl 0xc273(%rip),%eax        # 19790 <g_299>
    d51d:	44 0f bf e0          	movswl %ax,%r12d
    d521:	0f b6 05 34 c2 00 00 	movzbl 0xc234(%rip),%eax        # 1975c <g_227>
    d528:	0f b6 c0             	movzbl %al,%eax
    d52b:	48 98                	cltq   
    d52d:	8b 84 85 70 f7 ff ff 	mov    -0x890(%rbp,%rax,4),%eax
    d534:	48 98                	cltq   
    d536:	48 f7 d0             	not    %rax
    d539:	49 89 c5             	mov    %rax,%r13
    d53c:	48 8b 85 08 f5 ff ff 	mov    -0xaf8(%rbp),%rax
    d543:	48 89 05 b6 e7 00 00 	mov    %rax,0xe7b6(%rip)        # 1bd00 <g_944>
    d54a:	48 8b 15 af e7 00 00 	mov    0xe7af(%rip),%rdx        # 1bd00 <g_944>
    d551:	48 8d 85 3e f4 ff ff 	lea    -0xbc2(%rbp),%rax
    d558:	48 39 c2             	cmp    %rax,%rdx
    d55b:	0f 94 c2             	sete   %dl
    d55e:	48 8b 85 e0 f4 ff ff 	mov    -0xb20(%rbp),%rax
    d565:	48 8b 00             	mov    (%rax),%rax
    d568:	48 8b 00             	mov    (%rax),%rax
    d56b:	48 8b 00             	mov    (%rax),%rax
    d56e:	0f b6 d2             	movzbl %dl,%edx
    d571:	66 89 10             	mov    %dx,(%rax)
    d574:	0f b7 00             	movzwl (%rax),%eax
    d577:	98                   	cwtl   
    d578:	89 85 b4 f4 ff ff    	mov    %eax,-0xb4c(%rbp)
    d57e:	8b 85 b4 f4 ff ff    	mov    -0xb4c(%rbp),%eax
    d584:	98                   	cwtl   
    d585:	be 7a ed ff ff       	mov    $0xffffed7a,%esi
    d58a:	89 c7                	mov    %eax,%edi
    d58c:	e8 64 7e ff ff       	callq  53f5 <safe_mul_func_int16_t_s_s>
    d591:	48 0f bf c0          	movswq %ax,%rax
    d595:	49 39 c5             	cmp    %rax,%r13
    d598:	0f 95 c0             	setne  %al
    d59b:	0f b6 c0             	movzbl %al,%eax
    d59e:	48 63 d0             	movslq %eax,%rdx
    d5a1:	8b 85 7c f7 ff ff    	mov    -0x884(%rbp),%eax
    d5a7:	48 98                	cltq   
    d5a9:	48 89 d6             	mov    %rdx,%rsi
    d5ac:	48 89 c7             	mov    %rax,%rdi
    d5af:	e8 8d 82 ff ff       	callq  5841 <safe_add_func_int64_t_s_s>
    d5b4:	44 89 e6             	mov    %r12d,%esi
    d5b7:	bf 01 00 00 00       	mov    $0x1,%edi
    d5bc:	e8 34 7e ff ff       	callq  53f5 <safe_mul_func_int16_t_s_s>
    d5c1:	0f b6 c0             	movzbl %al,%eax
    d5c4:	be 00 00 00 00       	mov    $0x0,%esi
    d5c9:	89 c7                	mov    %eax,%edi
    d5cb:	e8 a8 85 ff ff       	callq  5b78 <safe_sub_func_uint8_t_u_u>
    d5d0:	0f b6 c0             	movzbl %al,%eax
    d5d3:	89 c6                	mov    %eax,%esi
    d5d5:	bf 02 00 00 00       	mov    $0x2,%edi
    d5da:	e8 20 81 ff ff       	callq  56ff <safe_div_func_int32_t_s_s>
    d5df:	0f be c0             	movsbl %al,%eax
    d5e2:	89 de                	mov    %ebx,%esi
    d5e4:	89 c7                	mov    %eax,%edi
    d5e6:	e8 b6 7c ff ff       	callq  52a1 <safe_lshift_func_int8_t_s_s>
    d5eb:	8b 15 db e6 00 00    	mov    0xe6db(%rip),%edx        # 1bccc <g_594+0xc>
    d5f1:	8b 05 f9 c1 00 00    	mov    0xc1f9(%rip),%eax        # 197f0 <g_806>
    d5f7:	39 c2                	cmp    %eax,%edx
    d5f9:	0f 94 c0             	sete   %al
    d5fc:	0f b6 c0             	movzbl %al,%eax
    d5ff:	89 c6                	mov    %eax,%esi
    d601:	bf 08 00 00 00       	mov    $0x8,%edi
    d606:	e8 fa 7f ff ff       	callq  5605 <safe_sub_func_int32_t_s_s>
    d60b:	48 8b 85 88 f5 ff ff 	mov    -0xa78(%rbp),%rax
    d612:	c7 00 25 d8 5b b2    	movl   $0xb25bd825,(%rax)
    d618:	48 8b 85 88 f5 ff ff 	mov    -0xa78(%rbp),%rax
    d61f:	8b 00                	mov    (%rax),%eax
    d621:	89 85 4c f4 ff ff    	mov    %eax,-0xbb4(%rbp)
    d627:	8b 95 4c f4 ff ff    	mov    -0xbb4(%rbp),%edx
    d62d:	48 8b 85 a0 f5 ff ff 	mov    -0xa60(%rbp),%rax
    d634:	8b 00                	mov    (%rax),%eax
    d636:	21 c2                	and    %eax,%edx
    d638:	48 8b 85 a0 f5 ff ff 	mov    -0xa60(%rbp),%rax
    d63f:	89 10                	mov    %edx,(%rax)
    d641:	48 8b 85 a0 f5 ff ff 	mov    -0xa60(%rbp),%rax
    d648:	8b 10                	mov    (%rax),%edx
    d64a:	48 8b 85 98 f5 ff ff 	mov    -0xa68(%rbp),%rax
    d651:	89 10                	mov    %edx,(%rax)
    d653:	8b 85 04 f8 ff ff    	mov    -0x7fc(%rbp),%eax
    d659:	85 c0                	test   %eax,%eax
    d65b:	0f 85 c8 06 00 00    	jne    dd29 <func_35+0x260e>
    d661:	0f b6 05 f4 c0 00 00 	movzbl 0xc0f4(%rip),%eax        # 1975c <g_227>
    d668:	0f b6 c0             	movzbl %al,%eax
    d66b:	48 98                	cltq   
    d66d:	8b 84 85 70 f7 ff ff 	mov    -0x890(%rbp,%rax,4),%eax
    d674:	85 c0                	test   %eax,%eax
    d676:	0f 85 d7 06 00 00    	jne    dd53 <func_35+0x2638>
    d67c:	8b 85 44 f4 ff ff    	mov    -0xbbc(%rbp),%eax
    d682:	85 c0                	test   %eax,%eax
    d684:	0f 84 9e 06 00 00    	je     dd28 <func_35+0x260d>
    d68a:	e9 f3 e3 ff ff       	jmpq   ba82 <func_35+0x367>
    d68f:	48 8d 05 f4 bd 00 00 	lea    0xbdf4(%rip),%rax        # 1948a <g_172+0x2a>
    d696:	48 89 85 a8 f5 ff ff 	mov    %rax,-0xa58(%rbp)
    d69d:	48 8d 05 5c e6 00 00 	lea    0xe65c(%rip),%rax        # 1bd00 <g_944>
    d6a4:	48 89 85 b0 f5 ff ff 	mov    %rax,-0xa50(%rbp)
    d6ab:	48 c7 85 b8 f5 ff ff 	movq   $0x0,-0xa48(%rbp)
    d6b2:	00 00 00 00 
    d6b6:	48 8d 85 d0 f8 ff ff 	lea    -0x730(%rbp),%rax
    d6bd:	48 83 c0 08          	add    $0x8,%rax
    d6c1:	48 89 85 c0 f5 ff ff 	mov    %rax,-0xa40(%rbp)
    d6c8:	48 8d 85 f0 f4 ff ff 	lea    -0xb10(%rbp),%rax
    d6cf:	48 89 85 c8 f5 ff ff 	mov    %rax,-0xa38(%rbp)
    d6d6:	48 8d 85 58 f4 ff ff 	lea    -0xba8(%rbp),%rax
    d6dd:	48 89 85 10 f5 ff ff 	mov    %rax,-0xaf0(%rbp)
    d6e4:	48 8d 85 10 f5 ff ff 	lea    -0xaf0(%rbp),%rax
    d6eb:	48 89 85 d0 f5 ff ff 	mov    %rax,-0xa30(%rbp)
    d6f2:	48 8d 05 1b c1 00 00 	lea    0xc11b(%rip),%rax        # 19814 <g_974>
    d6f9:	48 89 85 18 f5 ff ff 	mov    %rax,-0xae8(%rbp)
    d700:	48 8d 85 40 fb ff ff 	lea    -0x4c0(%rbp),%rax
    d707:	48 89 85 d8 f5 ff ff 	mov    %rax,-0xa28(%rbp)
    d70e:	c7 85 b0 f4 ff ff ff 	movl   $0xffffffff,-0xb50(%rbp)
    d715:	ff ff ff 
    d718:	48 c7 85 e0 f5 ff ff 	movq   $0x0,-0xa20(%rbp)
    d71f:	00 00 00 00 
    d723:	48 8d 85 48 f4 ff ff 	lea    -0xbb8(%rbp),%rax
    d72a:	48 89 85 e8 f5 ff ff 	mov    %rax,-0xa18(%rbp)
    d731:	48 8d 85 50 f4 ff ff 	lea    -0xbb0(%rbp),%rax
    d738:	48 89 85 f0 f5 ff ff 	mov    %rax,-0xa10(%rbp)
    d73f:	48 8d 85 70 f7 ff ff 	lea    -0x890(%rbp),%rax
    d746:	48 83 c0 0c          	add    $0xc,%rax
    d74a:	48 89 85 f8 f5 ff ff 	mov    %rax,-0xa08(%rbp)
    d751:	48 8d 05 88 c0 00 00 	lea    0xc088(%rip),%rax        # 197e0 <g_708>
    d758:	48 89 85 00 f6 ff ff 	mov    %rax,-0xa00(%rbp)
    d75f:	48 8d 05 82 c0 00 00 	lea    0xc082(%rip),%rax        # 197e8 <g_802>
    d766:	48 89 85 f0 fc ff ff 	mov    %rax,-0x310(%rbp)
    d76d:	0f b6 05 e8 bf 00 00 	movzbl 0xbfe8(%rip),%eax        # 1975c <g_227>
    d774:	0f b6 d0             	movzbl %al,%edx
    d777:	48 8d 85 70 f7 ff ff 	lea    -0x890(%rbp),%rax
    d77e:	48 63 d2             	movslq %edx,%rdx
    d781:	48 c1 e2 02          	shl    $0x2,%rdx
    d785:	48 01 d0             	add    %rdx,%rax
    d788:	48 89 85 f8 fc ff ff 	mov    %rax,-0x308(%rbp)
    d78f:	48 8d 05 52 c0 00 00 	lea    0xc052(%rip),%rax        # 197e8 <g_802>
    d796:	48 89 85 00 fd ff ff 	mov    %rax,-0x300(%rbp)
    d79d:	0f b6 05 b8 bf 00 00 	movzbl 0xbfb8(%rip),%eax        # 1975c <g_227>
    d7a4:	0f b6 d0             	movzbl %al,%edx
    d7a7:	48 8d 85 70 f7 ff ff 	lea    -0x890(%rbp),%rax
    d7ae:	48 63 d2             	movslq %edx,%rdx
    d7b1:	48 c1 e2 02          	shl    $0x2,%rdx
    d7b5:	48 01 d0             	add    %rdx,%rax
    d7b8:	48 89 85 08 fd ff ff 	mov    %rax,-0x2f8(%rbp)
    d7bf:	48 8d 05 22 c0 00 00 	lea    0xc022(%rip),%rax        # 197e8 <g_802>
    d7c6:	48 89 85 10 fd ff ff 	mov    %rax,-0x2f0(%rbp)
    d7cd:	0f b6 05 88 bf 00 00 	movzbl 0xbf88(%rip),%eax        # 1975c <g_227>
    d7d4:	0f b6 d0             	movzbl %al,%edx
    d7d7:	48 8d 85 70 f7 ff ff 	lea    -0x890(%rbp),%rax
    d7de:	48 63 d2             	movslq %edx,%rdx
    d7e1:	48 c1 e2 02          	shl    $0x2,%rdx
    d7e5:	48 01 d0             	add    %rdx,%rax
    d7e8:	48 89 85 18 fd ff ff 	mov    %rax,-0x2e8(%rbp)
    d7ef:	0f b6 05 66 bf 00 00 	movzbl 0xbf66(%rip),%eax        # 1975c <g_227>
    d7f6:	0f b6 d0             	movzbl %al,%edx
    d7f9:	48 8d 85 70 f7 ff ff 	lea    -0x890(%rbp),%rax
    d800:	48 63 d2             	movslq %edx,%rdx
    d803:	48 c1 e2 02          	shl    $0x2,%rdx
    d807:	48 01 d0             	add    %rdx,%rax
    d80a:	48 89 85 20 fd ff ff 	mov    %rax,-0x2e0(%rbp)
    d811:	0f b6 05 44 bf 00 00 	movzbl 0xbf44(%rip),%eax        # 1975c <g_227>
    d818:	0f b6 d0             	movzbl %al,%edx
    d81b:	48 8d 85 70 f7 ff ff 	lea    -0x890(%rbp),%rax
    d822:	48 63 d2             	movslq %edx,%rdx
    d825:	48 c1 e2 02          	shl    $0x2,%rdx
    d829:	48 01 d0             	add    %rdx,%rax
    d82c:	48 89 85 28 fd ff ff 	mov    %rax,-0x2d8(%rbp)
    d833:	0f b6 05 22 bf 00 00 	movzbl 0xbf22(%rip),%eax        # 1975c <g_227>
    d83a:	0f b6 d0             	movzbl %al,%edx
    d83d:	48 8d 85 70 f7 ff ff 	lea    -0x890(%rbp),%rax
    d844:	48 63 d2             	movslq %edx,%rdx
    d847:	48 c1 e2 02          	shl    $0x2,%rdx
    d84b:	48 01 d0             	add    %rdx,%rax
    d84e:	48 89 85 30 fd ff ff 	mov    %rax,-0x2d0(%rbp)
    d855:	0f b6 05 00 bf 00 00 	movzbl 0xbf00(%rip),%eax        # 1975c <g_227>
    d85c:	0f b6 d0             	movzbl %al,%edx
    d85f:	48 8d 85 70 f7 ff ff 	lea    -0x890(%rbp),%rax
    d866:	48 63 d2             	movslq %edx,%rdx
    d869:	48 c1 e2 02          	shl    $0x2,%rdx
    d86d:	48 01 d0             	add    %rdx,%rax
    d870:	48 89 85 38 fd ff ff 	mov    %rax,-0x2c8(%rbp)
    d877:	0f b6 05 de be 00 00 	movzbl 0xbede(%rip),%eax        # 1975c <g_227>
    d87e:	0f b6 d0             	movzbl %al,%edx
    d881:	48 8d 85 70 f7 ff ff 	lea    -0x890(%rbp),%rax
    d888:	48 63 d2             	movslq %edx,%rdx
    d88b:	48 c1 e2 02          	shl    $0x2,%rdx
    d88f:	48 01 d0             	add    %rdx,%rax
    d892:	48 89 85 40 fd ff ff 	mov    %rax,-0x2c0(%rbp)
    d899:	0f b6 05 bc be 00 00 	movzbl 0xbebc(%rip),%eax        # 1975c <g_227>
    d8a0:	0f b6 d0             	movzbl %al,%edx
    d8a3:	48 8d 85 70 f7 ff ff 	lea    -0x890(%rbp),%rax
    d8aa:	48 63 d2             	movslq %edx,%rdx
    d8ad:	48 c1 e2 02          	shl    $0x2,%rdx
    d8b1:	48 01 d0             	add    %rdx,%rax
    d8b4:	48 89 85 48 fd ff ff 	mov    %rax,-0x2b8(%rbp)
    d8bb:	48 8d 05 26 bf 00 00 	lea    0xbf26(%rip),%rax        # 197e8 <g_802>
    d8c2:	48 89 85 50 fd ff ff 	mov    %rax,-0x2b0(%rbp)
    d8c9:	0f b6 05 8c be 00 00 	movzbl 0xbe8c(%rip),%eax        # 1975c <g_227>
    d8d0:	0f b6 d0             	movzbl %al,%edx
    d8d3:	48 8d 85 70 f7 ff ff 	lea    -0x890(%rbp),%rax
    d8da:	48 63 d2             	movslq %edx,%rdx
    d8dd:	48 c1 e2 02          	shl    $0x2,%rdx
    d8e1:	48 01 d0             	add    %rdx,%rax
    d8e4:	48 89 85 58 fd ff ff 	mov    %rax,-0x2a8(%rbp)
    d8eb:	48 8d 05 f6 be 00 00 	lea    0xbef6(%rip),%rax        # 197e8 <g_802>
    d8f2:	48 89 85 60 fd ff ff 	mov    %rax,-0x2a0(%rbp)
    d8f9:	0f b6 05 5c be 00 00 	movzbl 0xbe5c(%rip),%eax        # 1975c <g_227>
    d900:	0f b6 d0             	movzbl %al,%edx
    d903:	48 8d 85 70 f7 ff ff 	lea    -0x890(%rbp),%rax
    d90a:	48 63 d2             	movslq %edx,%rdx
    d90d:	48 c1 e2 02          	shl    $0x2,%rdx
    d911:	48 01 d0             	add    %rdx,%rax
    d914:	48 89 85 68 fd ff ff 	mov    %rax,-0x298(%rbp)
    d91b:	48 8d 05 c6 be 00 00 	lea    0xbec6(%rip),%rax        # 197e8 <g_802>
    d922:	48 89 85 70 fd ff ff 	mov    %rax,-0x290(%rbp)
    d929:	0f b6 05 2c be 00 00 	movzbl 0xbe2c(%rip),%eax        # 1975c <g_227>
    d930:	0f b6 d0             	movzbl %al,%edx
    d933:	48 8d 85 70 f7 ff ff 	lea    -0x890(%rbp),%rax
    d93a:	48 63 d2             	movslq %edx,%rdx
    d93d:	48 c1 e2 02          	shl    $0x2,%rdx
    d941:	48 01 d0             	add    %rdx,%rax
    d944:	48 89 85 78 fd ff ff 	mov    %rax,-0x288(%rbp)
    d94b:	0f b6 05 0a be 00 00 	movzbl 0xbe0a(%rip),%eax        # 1975c <g_227>
    d952:	0f b6 d0             	movzbl %al,%edx
    d955:	48 8d 85 70 f7 ff ff 	lea    -0x890(%rbp),%rax
    d95c:	48 63 d2             	movslq %edx,%rdx
    d95f:	48 c1 e2 02          	shl    $0x2,%rdx
    d963:	48 01 d0             	add    %rdx,%rax
    d966:	48 89 85 80 fd ff ff 	mov    %rax,-0x280(%rbp)
    d96d:	0f b6 05 e8 bd 00 00 	movzbl 0xbde8(%rip),%eax        # 1975c <g_227>
    d974:	0f b6 d0             	movzbl %al,%edx
    d977:	48 8d 85 70 f7 ff ff 	lea    -0x890(%rbp),%rax
    d97e:	48 63 d2             	movslq %edx,%rdx
    d981:	48 c1 e2 02          	shl    $0x2,%rdx
    d985:	48 01 d0             	add    %rdx,%rax
    d988:	48 89 85 88 fd ff ff 	mov    %rax,-0x278(%rbp)
    d98f:	0f b6 05 c6 bd 00 00 	movzbl 0xbdc6(%rip),%eax        # 1975c <g_227>
    d996:	0f b6 d0             	movzbl %al,%edx
    d999:	48 8d 85 70 f7 ff ff 	lea    -0x890(%rbp),%rax
    d9a0:	48 63 d2             	movslq %edx,%rdx
    d9a3:	48 c1 e2 02          	shl    $0x2,%rdx
    d9a7:	48 01 d0             	add    %rdx,%rax
    d9aa:	48 89 85 90 fd ff ff 	mov    %rax,-0x270(%rbp)
    d9b1:	0f b6 05 a4 bd 00 00 	movzbl 0xbda4(%rip),%eax        # 1975c <g_227>
    d9b8:	0f b6 d0             	movzbl %al,%edx
    d9bb:	48 8d 85 70 f7 ff ff 	lea    -0x890(%rbp),%rax
    d9c2:	48 63 d2             	movslq %edx,%rdx
    d9c5:	48 c1 e2 02          	shl    $0x2,%rdx
    d9c9:	48 01 d0             	add    %rdx,%rax
    d9cc:	48 89 85 98 fd ff ff 	mov    %rax,-0x268(%rbp)
    d9d3:	0f b6 05 82 bd 00 00 	movzbl 0xbd82(%rip),%eax        # 1975c <g_227>
    d9da:	0f b6 d0             	movzbl %al,%edx
    d9dd:	48 8d 85 70 f7 ff ff 	lea    -0x890(%rbp),%rax
    d9e4:	48 63 d2             	movslq %edx,%rdx
    d9e7:	48 c1 e2 02          	shl    $0x2,%rdx
    d9eb:	48 01 d0             	add    %rdx,%rax
    d9ee:	48 89 85 a0 fd ff ff 	mov    %rax,-0x260(%rbp)
    d9f5:	0f b6 05 60 bd 00 00 	movzbl 0xbd60(%rip),%eax        # 1975c <g_227>
    d9fc:	0f b6 d0             	movzbl %al,%edx
    d9ff:	48 8d 85 70 f7 ff ff 	lea    -0x890(%rbp),%rax
    da06:	48 63 d2             	movslq %edx,%rdx
    da09:	48 c1 e2 02          	shl    $0x2,%rdx
    da0d:	48 01 d0             	add    %rdx,%rax
    da10:	48 89 85 a8 fd ff ff 	mov    %rax,-0x258(%rbp)
    da17:	48 8d 85 00 f8 ff ff 	lea    -0x800(%rbp),%rax
    da1e:	48 83 c0 04          	add    $0x4,%rax
    da22:	48 89 85 08 f6 ff ff 	mov    %rax,-0x9f8(%rbp)
    da29:	c7 85 64 f4 ff ff 00 	movl   $0x0,-0xb9c(%rbp)
    da30:	00 00 00 
    da33:	eb 1e                	jmp    da53 <func_35+0x2338>
    da35:	8b 85 64 f4 ff ff    	mov    -0xb9c(%rbp),%eax
    da3b:	48 98                	cltq   
    da3d:	48 8d 95 18 f5 ff ff 	lea    -0xae8(%rbp),%rdx
    da44:	48 89 94 c5 40 fb ff 	mov    %rdx,-0x4c0(%rbp,%rax,8)
    da4b:	ff 
    da4c:	83 85 64 f4 ff ff 01 	addl   $0x1,-0xb9c(%rbp)
    da53:	83 bd 64 f4 ff ff 03 	cmpl   $0x3,-0xb9c(%rbp)
    da5a:	7e d9                	jle    da35 <func_35+0x231a>
    da5c:	8b 85 7c f7 ff ff    	mov    -0x884(%rbp),%eax
    da62:	0f b7 d0             	movzwl %ax,%edx
    da65:	0f b6 85 a5 fa ff ff 	movzbl -0x55b(%rbp),%eax
    da6c:	0f b6 c8             	movzbl %al,%ecx
    da6f:	8b 05 73 bd 00 00    	mov    0xbd73(%rip),%eax        # 197e8 <g_802>
    da75:	39 c1                	cmp    %eax,%ecx
    da77:	0f 9d c0             	setge  %al
    da7a:	0f b6 c0             	movzbl %al,%eax
    da7d:	89 d6                	mov    %edx,%esi
    da7f:	89 c7                	mov    %eax,%edi
    da81:	e8 d6 82 ff ff       	callq  5d5c <safe_mod_func_uint16_t_u_u>
    da86:	ba ff ff ff ff       	mov    $0xffffffff,%edx
    da8b:	0f b6 d2             	movzbl %dl,%edx
    da8e:	66 39 d0             	cmp    %dx,%ax
    da91:	0f 96 c0             	setbe  %al
    da94:	0f b6 d8             	movzbl %al,%ebx
    da97:	48 8b 85 b0 f5 ff ff 	mov    -0xa50(%rbp),%rax
    da9e:	48 8d 15 3f bd 00 00 	lea    0xbd3f(%rip),%rdx        # 197e4 <g_709>
    daa5:	48 89 10             	mov    %rdx,(%rax)
    daa8:	48 8b 85 b0 f5 ff ff 	mov    -0xa50(%rbp),%rax
    daaf:	48 8b 00             	mov    (%rax),%rax
    dab2:	48 39 85 a8 f5 ff ff 	cmp    %rax,-0xa58(%rbp)
    dab9:	0f 95 c0             	setne  %al
    dabc:	0f b6 c0             	movzbl %al,%eax
    dabf:	be 05 00 00 00       	mov    $0x5,%esi
    dac4:	89 c7                	mov    %eax,%edi
    dac6:	e8 f3 82 ff ff       	callq  5dbe <safe_lshift_func_uint16_t_u_s>
    dacb:	0f b7 c0             	movzwl %ax,%eax
    dace:	89 c6                	mov    %eax,%esi
    dad0:	bf ff ff ff ff       	mov    $0xffffffff,%edi
    dad5:	e8 5b 78 ff ff       	callq  5335 <safe_rshift_func_int8_t_s_s>
    dada:	48 8b 95 e0 f8 ff ff 	mov    -0x720(%rbp),%rdx
    dae1:	48 8b 85 c0 f5 ff ff 	mov    -0xa40(%rbp),%rax
    dae8:	48 89 10             	mov    %rdx,(%rax)
    daeb:	48 8b 85 c8 f5 ff ff 	mov    -0xa38(%rbp),%rax
    daf2:	48 8d 95 58 f4 ff ff 	lea    -0xba8(%rbp),%rdx
    daf9:	48 89 10             	mov    %rdx,(%rax)
    dafc:	48 8b 85 c8 f5 ff ff 	mov    -0xa38(%rbp),%rax
    db03:	48 8b 08             	mov    (%rax),%rcx
    db06:	48 8b 95 20 f4 ff ff 	mov    -0xbe0(%rbp),%rdx
    db0d:	48 8b 85 d0 f5 ff ff 	mov    -0xa30(%rbp),%rax
    db14:	48 89 10             	mov    %rdx,(%rax)
    db17:	48 8b 85 d0 f5 ff ff 	mov    -0xa30(%rbp),%rax
    db1e:	48 8b 00             	mov    (%rax),%rax
    db21:	48 39 c1             	cmp    %rax,%rcx
    db24:	0f 94 c0             	sete   %al
    db27:	0f b6 c0             	movzbl %al,%eax
    db2a:	48 89 de             	mov    %rbx,%rsi
    db2d:	48 89 c7             	mov    %rax,%rdi
    db30:	e8 0c 7d ff ff       	callq  5841 <safe_add_func_int64_t_s_s>
    db35:	98                   	cwtl   
    db36:	be 02 00 00 00       	mov    $0x2,%esi
    db3b:	89 c7                	mov    %eax,%edi
    db3d:	e8 e8 79 ff ff       	callq  552a <safe_rshift_func_int16_t_s_s>
    db42:	c7 85 a4 f4 ff ff b3 	movl   $0x2b7e9cb3,-0xb5c(%rbp)
    db49:	9c 7e 2b 
    db4c:	8b 95 a4 f4 ff ff    	mov    -0xb5c(%rbp),%edx
    db52:	48 8b 85 a0 f5 ff ff 	mov    -0xa60(%rbp),%rax
    db59:	8b 00                	mov    (%rax),%eax
    db5b:	31 c2                	xor    %eax,%edx
    db5d:	48 8b 85 a0 f5 ff ff 	mov    -0xa60(%rbp),%rax
    db64:	89 10                	mov    %edx,(%rax)
    db66:	48 8b 85 d8 f5 ff ff 	mov    -0xa28(%rbp),%rax
    db6d:	48 8d 15 8c e1 00 00 	lea    0xe18c(%rip),%rdx        # 1bd00 <g_944>
    db74:	48 89 10             	mov    %rdx,(%rax)
    db77:	48 8b 85 d8 f5 ff ff 	mov    -0xa28(%rbp),%rax
    db7e:	48 8b 00             	mov    (%rax),%rax
    db81:	48 39 85 58 f5 ff ff 	cmp    %rax,-0xaa8(%rbp)
    db88:	0f 95 c0             	setne  %al
    db8b:	44 0f b6 e0          	movzbl %al,%r12d
    db8f:	b8 07 00 00 00       	mov    $0x7,%eax
    db94:	41 89 c5             	mov    %eax,%r13d
    db97:	8b 85 44 f4 ff ff    	mov    -0xbbc(%rbp),%eax
    db9d:	48 63 d8             	movslq %eax,%rbx
    dba0:	b8 ff ff ff ff       	mov    $0xffffffff,%eax
    dba5:	66 83 f8 01          	cmp    $0x1,%ax
    dba9:	0f 9e c0             	setle  %al
    dbac:	0f b6 d0             	movzbl %al,%edx
    dbaf:	8b 85 b0 f4 ff ff    	mov    -0xb50(%rbp),%eax
    dbb5:	89 d6                	mov    %edx,%esi
    dbb7:	89 c7                	mov    %eax,%edi
    dbb9:	e8 47 7a ff ff       	callq  5605 <safe_sub_func_int32_t_s_s>
    dbbe:	48 89 de             	mov    %rbx,%rsi
    dbc1:	bf 00 00 00 00       	mov    $0x0,%edi
    dbc6:	e8 e4 84 ff ff       	callq  60af <safe_div_func_uint64_t_u_u>
    dbcb:	4c 89 ee             	mov    %r13,%rsi
    dbce:	bf 00 00 00 00       	mov    $0x0,%edi
    dbd3:	e8 1f 7e ff ff       	callq  59f7 <safe_div_func_int64_t_s_s>
    dbd8:	8b 85 04 f8 ff ff    	mov    -0x7fc(%rbp),%eax
    dbde:	3d f8 fd 00 00       	cmp    $0xfdf8,%eax
    dbe3:	76 0a                	jbe    dbef <func_35+0x24d4>
    dbe5:	8b 05 f1 bb 00 00    	mov    0xbbf1(%rip),%eax        # 197dc <g_707>
    dbeb:	85 c0                	test   %eax,%eax
    dbed:	74 07                	je     dbf6 <func_35+0x24db>
    dbef:	b8 01 00 00 00       	mov    $0x1,%eax
    dbf4:	eb 05                	jmp    dbfb <func_35+0x24e0>
    dbf6:	b8 00 00 00 00       	mov    $0x0,%eax
    dbfb:	89 c2                	mov    %eax,%edx
    dbfd:	48 8b 85 28 f5 ff ff 	mov    -0xad8(%rbp),%rax
    dc04:	88 10                	mov    %dl,(%rax)
    dc06:	48 8b 85 18 f4 ff ff 	mov    -0xbe8(%rbp),%rax
    dc0d:	48 8b 95 28 f5 ff ff 	mov    -0xad8(%rbp),%rdx
    dc14:	0f b6 12             	movzbl (%rdx),%edx
    dc17:	88 10                	mov    %dl,(%rax)
    dc19:	0f b6 00             	movzbl (%rax),%eax
    dc1c:	0f be c0             	movsbl %al,%eax
    dc1f:	41 39 c4             	cmp    %eax,%r12d
    dc22:	0f 94 c0             	sete   %al
    dc25:	0f b6 d0             	movzbl %al,%edx
    dc28:	0f b7 05 31 bb 00 00 	movzwl 0xbb31(%rip),%eax        # 19760 <g_239>
    dc2f:	98                   	cwtl   
    dc30:	09 d0                	or     %edx,%eax
    dc32:	85 c0                	test   %eax,%eax
    dc34:	74 0a                	je     dc40 <func_35+0x2525>
    dc36:	0f b7 05 9b bb 00 00 	movzwl 0xbb9b(%rip),%eax        # 197d8 <g_703>
    dc3d:	66 85 c0             	test   %ax,%ax
    dc40:	8b 95 b0 f4 ff ff    	mov    -0xb50(%rbp),%edx
    dc46:	0f b6 05 1b bb 00 00 	movzbl 0xbb1b(%rip),%eax        # 19768 <g_263>
    dc4d:	0f b6 c0             	movzbl %al,%eax
    dc50:	89 d6                	mov    %edx,%esi
    dc52:	89 c7                	mov    %eax,%edi
    dc54:	e8 65 80 ff ff       	callq  5cbe <safe_rshift_func_uint8_t_u_u>
    dc59:	0f b6 c0             	movzbl %al,%eax
    dc5c:	f7 d0                	not    %eax
    dc5e:	21 85 a4 f4 ff ff    	and    %eax,-0xb5c(%rbp)
    dc64:	48 8b 85 a0 f5 ff ff 	mov    -0xa60(%rbp),%rax
    dc6b:	8b 95 a4 f4 ff ff    	mov    -0xb5c(%rbp),%edx
    dc71:	89 10                	mov    %edx,(%rax)
    dc73:	83 85 ac f4 ff ff 01 	addl   $0x1,-0xb54(%rbp)
    dc7a:	48 8b 85 08 f6 ff ff 	mov    -0x9f8(%rbp),%rax
    dc81:	8b 00                	mov    (%rax),%eax
    dc83:	8d 50 01             	lea    0x1(%rax),%edx
    dc86:	48 8b 85 08 f6 ff ff 	mov    -0x9f8(%rbp),%rax
    dc8d:	89 10                	mov    %edx,(%rax)
    dc8f:	48 8d 05 3a bb 00 00 	lea    0xbb3a(%rip),%rax        # 197d0 <g_701>
    dc96:	48 39 85 40 f5 ff ff 	cmp    %rax,-0xac0(%rbp)
    dc9d:	48 8b 05 64 e0 00 00 	mov    0xe064(%rip),%rax        # 1bd08 <g_1008>
    dca4:	48 89 05 5d e0 00 00 	mov    %rax,0xe05d(%rip)        # 1bd08 <g_1008>
    dcab:	48 8b 05 56 e0 00 00 	mov    0xe056(%rip),%rax        # 1bd08 <g_1008>
    dcb2:	48 39 85 70 f5 ff ff 	cmp    %rax,-0xa90(%rbp)
    dcb9:	0f 95 c0             	setne  %al
    dcbc:	0f b6 c0             	movzbl %al,%eax
    dcbf:	89 c2                	mov    %eax,%edx
    dcc1:	48 8b 05 b8 d4 00 00 	mov    0xd4b8(%rip),%rax        # 1b180 <g_333>
    dcc8:	48 8b 00             	mov    (%rax),%rax
    dccb:	48 39 85 60 f5 ff ff 	cmp    %rax,-0xaa0(%rbp)
    dcd2:	0f 95 c0             	setne  %al
    dcd5:	0f b6 c0             	movzbl %al,%eax
    dcd8:	89 d6                	mov    %edx,%esi
    dcda:	89 c7                	mov    %eax,%edi
    dcdc:	e8 d7 81 ff ff       	callq  5eb8 <safe_add_func_uint32_t_u_u>
    dce1:	8b 95 7c f7 ff ff    	mov    -0x884(%rbp),%edx
    dce7:	39 d0                	cmp    %edx,%eax
    dce9:	0f 97 c0             	seta   %al
    dcec:	0f b6 c0             	movzbl %al,%eax
    dcef:	be 97 00 00 00       	mov    $0x97,%esi
    dcf4:	89 c7                	mov    %eax,%edi
    dcf6:	e8 b3 7e ff ff       	callq  5bae <safe_mod_func_uint8_t_u_u>
    dcfb:	8b 85 50 f4 ff ff    	mov    -0xbb0(%rbp),%eax
    dd01:	83 f8 01             	cmp    $0x1,%eax
    dd04:	75 07                	jne    dd0d <func_35+0x25f2>
    dd06:	ba 03 00 00 00       	mov    $0x3,%edx
    dd0b:	eb 05                	jmp    dd12 <func_35+0x25f7>
    dd0d:	ba 02 00 00 00       	mov    $0x2,%edx
    dd12:	48 8b 85 a0 f5 ff ff 	mov    -0xa60(%rbp),%rax
    dd19:	8b 00                	mov    (%rax),%eax
    dd1b:	31 c2                	xor    %eax,%edx
    dd1d:	48 8b 85 a0 f5 ff ff 	mov    -0xa60(%rbp),%rax
    dd24:	89 10                	mov    %edx,(%rax)
    dd26:	eb 01                	jmp    dd29 <func_35+0x260e>
    dd28:	90                   	nop
    dd29:	8b 05 21 b7 00 00    	mov    0xb721(%rip),%eax        # 19450 <g_142>
    dd2f:	48 98                	cltq   
    dd31:	be 01 00 00 00       	mov    $0x1,%esi
    dd36:	48 89 c7             	mov    %rax,%rdi
    dd39:	e8 03 7b ff ff       	callq  5841 <safe_add_func_int64_t_s_s>
    dd3e:	89 05 0c b7 00 00    	mov    %eax,0xb70c(%rip)        # 19450 <g_142>
    dd44:	8b 05 06 b7 00 00    	mov    0xb706(%rip),%eax        # 19450 <g_142>
    dd4a:	83 f8 1b             	cmp    $0x1b,%eax
    dd4d:	0f 8e b3 f4 ff ff    	jle    d206 <func_35+0x1aeb>
    dd53:	8b 9d a0 f4 ff ff    	mov    -0xb60(%rbp),%ebx
    dd59:	8b 85 a4 f9 ff ff    	mov    -0x65c(%rbp),%eax
    dd5f:	44 0f bf e0          	movswl %ax,%r12d
    dd63:	8b 85 4c f4 ff ff    	mov    -0xbb4(%rbp),%eax
    dd69:	89 85 14 f4 ff ff    	mov    %eax,-0xbec(%rbp)
    dd6f:	0f b6 05 e6 b9 00 00 	movzbl 0xb9e6(%rip),%eax        # 1975c <g_227>
    dd76:	0f b6 c0             	movzbl %al,%eax
    dd79:	48 98                	cltq   
    dd7b:	8b 84 85 70 f7 ff ff 	mov    -0x890(%rbp,%rax,4),%eax
    dd82:	89 85 10 f4 ff ff    	mov    %eax,-0xbf0(%rbp)
    dd88:	0f b6 05 c9 b4 00 00 	movzbl 0xb4c9(%rip),%eax        # 19258 <g_92+0x218>
    dd8f:	44 0f b6 e8          	movzbl %al,%r13d
    dd93:	48 8b 85 80 f5 ff ff 	mov    -0xa80(%rbp),%rax
    dd9a:	44 0f b7 f0          	movzwl %ax,%r14d
    dd9e:	48 8b 85 18 f4 ff ff 	mov    -0xbe8(%rbp),%rax
    dda5:	0f b6 00             	movzbl (%rax),%eax
    dda8:	44 0f b6 f8          	movzbl %al,%r15d
    ddac:	8b 85 a4 f7 ff ff    	mov    -0x85c(%rbp),%eax
    ddb2:	0f b6 c0             	movzbl %al,%eax
    ddb5:	be 04 00 00 00       	mov    $0x4,%esi
    ddba:	89 c7                	mov    %eax,%edi
    ddbc:	e8 fd 7e ff ff       	callq  5cbe <safe_rshift_func_uint8_t_u_u>
    ddc1:	0f b6 c0             	movzbl %al,%eax
    ddc4:	8b 95 58 f4 ff ff    	mov    -0xba8(%rbp),%edx
    ddca:	21 d0                	and    %edx,%eax
    ddcc:	0f b7 d0             	movzwl %ax,%edx
    ddcf:	0f b7 05 72 b8 00 00 	movzwl 0xb872(%rip),%eax        # 19648 <g_225>
    ddd6:	0f b7 c0             	movzwl %ax,%eax
    ddd9:	89 d6                	mov    %edx,%esi
    dddb:	89 c7                	mov    %eax,%edi
    dddd:	e8 7a 7f ff ff       	callq  5d5c <safe_mod_func_uint16_t_u_u>
    dde2:	0f b6 05 8f b9 00 00 	movzbl 0xb98f(%rip),%eax        # 19778 <g_266>
    dde9:	0f b6 d0             	movzbl %al,%edx
    ddec:	8b 85 c4 f9 ff ff    	mov    -0x63c(%rbp),%eax
    ddf2:	89 85 50 f4 ff ff    	mov    %eax,-0xbb0(%rbp)
    ddf8:	8b 85 44 f4 ff ff    	mov    -0xbbc(%rbp),%eax
    ddfe:	3d 80 a3 00 00       	cmp    $0xa380,%eax
    de03:	0f 9e c1             	setle  %cl
    de06:	48 8b 85 20 f4 ff ff 	mov    -0xbe0(%rbp),%rax
    de0d:	0f b6 c9             	movzbl %cl,%ecx
    de10:	89 08                	mov    %ecx,(%rax)
    de12:	8b 85 50 f4 ff ff    	mov    -0xbb0(%rbp),%eax
    de18:	0f be c0             	movsbl %al,%eax
    de1b:	89 d6                	mov    %edx,%esi
    de1d:	89 c7                	mov    %eax,%edi
    de1f:	e8 11 75 ff ff       	callq  5335 <safe_rshift_func_int8_t_s_s>
    de24:	44 89 fe             	mov    %r15d,%esi
    de27:	bf 01 00 00 00       	mov    $0x1,%edi
    de2c:	e8 7d 7d ff ff       	callq  5bae <safe_mod_func_uint8_t_u_u>
    de31:	0f b6 c0             	movzbl %al,%eax
    de34:	44 89 f6             	mov    %r14d,%esi
    de37:	89 c7                	mov    %eax,%edi
    de39:	e8 ff 7e ff ff       	callq  5d3d <safe_mul_func_uint16_t_u_u>
    de3e:	0f b7 d0             	movzwl %ax,%edx
    de41:	48 8b 05 58 d3 00 00 	mov    0xd358(%rip),%rax        # 1b1a0 <g_614>
    de48:	8b 00                	mov    (%rax),%eax
    de4a:	09 d0                	or     %edx,%eax
    de4c:	85 c0                	test   %eax,%eax
    de4e:	75 0b                	jne    de5b <func_35+0x2740>
    de50:	0f b6 85 66 f7 ff ff 	movzbl -0x89a(%rbp),%eax
    de57:	84 c0                	test   %al,%al
    de59:	74 07                	je     de62 <func_35+0x2747>
    de5b:	b8 01 00 00 00       	mov    $0x1,%eax
    de60:	eb 05                	jmp    de67 <func_35+0x274c>
    de62:	b8 00 00 00 00       	mov    $0x0,%eax
    de67:	83 f8 07             	cmp    $0x7,%eax
    de6a:	48 be a4 a6 75 56 37 	movabs $0xebe736375675a6a4,%rsi
    de71:	36 e7 eb 
    de74:	bf 00 00 00 00       	mov    $0x0,%edi
    de79:	e8 cd 81 ff ff       	callq  604b <safe_sub_func_uint64_t_u_u>
    de7e:	48 3d 6b 89 00 00    	cmp    $0x896b,%rax
    de84:	0f 97 c0             	seta   %al
    de87:	0f b6 c0             	movzbl %al,%eax
    de8a:	44 89 ee             	mov    %r13d,%esi
    de8d:	89 c7                	mov    %eax,%edi
    de8f:	e8 71 7d ff ff       	callq  5c05 <safe_lshift_func_uint8_t_u_s>
    de94:	0f b6 c0             	movzbl %al,%eax
    de97:	8b b5 10 f4 ff ff    	mov    -0xbf0(%rbp),%esi
    de9d:	89 c7                	mov    %eax,%edi
    de9f:	e8 3d 76 ff ff       	callq  54e1 <safe_lshift_func_int16_t_s_u>
    dea4:	48 0f bf c0          	movswq %ax,%rax
    dea8:	48 be 7f 7f bc 5c be 	movabs $0x4a90e9be5cbc7f7f,%rsi
    deaf:	e9 90 4a 
    deb2:	48 89 c7             	mov    %rax,%rdi
    deb5:	e8 c6 81 ff ff       	callq  6080 <safe_mod_func_uint64_t_u_u>
    deba:	be f9 ff ff ff       	mov    $0xfffffff9,%esi
    debf:	bf 00 00 00 00       	mov    $0x0,%edi
    dec4:	e8 49 73 ff ff       	callq  5212 <safe_mul_func_int8_t_s_s>
    dec9:	66 98                	cbtw   
    decb:	0f b7 c0             	movzwl %ax,%eax
    dece:	8b b5 14 f4 ff ff    	mov    -0xbec(%rbp),%esi
    ded4:	89 c7                	mov    %eax,%edi
    ded6:	e8 9f 7f ff ff       	callq  5e7a <safe_rshift_func_uint16_t_u_u>
    dedb:	66 3d fa 00          	cmp    $0xfa,%ax
    dedf:	0f 95 c0             	setne  %al
    dee2:	0f b6 d0             	movzbl %al,%edx
    dee5:	8b 85 7c f7 ff ff    	mov    -0x884(%rbp),%eax
    deeb:	39 c2                	cmp    %eax,%edx
    deed:	0f 9e c0             	setle  %al
    def0:	0f b6 d0             	movzbl %al,%edx
    def3:	8b 85 98 f7 ff ff    	mov    -0x868(%rbp),%eax
    def9:	39 c2                	cmp    %eax,%edx
    defb:	0f 92 c0             	setb   %al
    defe:	0f b6 d0             	movzbl %al,%edx
    df01:	8b 85 38 fa ff ff    	mov    -0x5c8(%rbp),%eax
    df07:	0f b6 c0             	movzbl %al,%eax
    df0a:	89 d6                	mov    %edx,%esi
    df0c:	89 c7                	mov    %eax,%edi
    df0e:	e8 80 7c ff ff       	callq  5b93 <safe_mul_func_uint8_t_u_u>
    df13:	0f b6 85 67 f7 ff ff 	movzbl -0x899(%rbp),%eax
    df1a:	0f be c0             	movsbl %al,%eax
    df1d:	44 89 e6             	mov    %r12d,%esi
    df20:	89 c7                	mov    %eax,%edi
    df22:	e8 ce 74 ff ff       	callq  53f5 <safe_mul_func_int16_t_s_s>
    df27:	66 85 c0             	test   %ax,%ax
    df2a:	b8 00 00 00 00       	mov    $0x0,%eax
    df2f:	0f b7 c0             	movzwl %ax,%eax
    df32:	89 de                	mov    %ebx,%esi
    df34:	89 c7                	mov    %eax,%edi
    df36:	e8 cb 7e ff ff       	callq  5e06 <safe_lshift_func_uint16_t_u_u>
    df3b:	b8 00 00 00 00       	mov    $0x0,%eax
    df40:	89 c2                	mov    %eax,%edx
    df42:	8b 85 54 f4 ff ff    	mov    -0xbac(%rbp),%eax
    df48:	09 d0                	or     %edx,%eax
    df4a:	89 85 54 f4 ff ff    	mov    %eax,-0xbac(%rbp)
    df50:	8b 85 54 f4 ff ff    	mov    -0xbac(%rbp),%eax
    df56:	85 c0                	test   %eax,%eax
    df58:	0f 84 19 01 00 00    	je     e077 <func_35+0x295c>
    df5e:	c7 85 c4 f4 ff ff 01 	movl   $0x1,-0xb3c(%rbp)
    df65:	00 00 00 
    df68:	8b 85 44 f4 ff ff    	mov    -0xbbc(%rbp),%eax
    df6e:	89 c3                	mov    %eax,%ebx
    df70:	48 8b 85 18 f4 ff ff 	mov    -0xbe8(%rbp),%rax
    df77:	0f b6 00             	movzbl (%rax),%eax
    df7a:	0f be d0             	movsbl %al,%edx
    df7d:	0f b7 05 72 b5 00 00 	movzwl 0xb572(%rip),%eax        # 194f6 <g_172+0x96>
    df84:	0f be c0             	movsbl %al,%eax
    df87:	89 d6                	mov    %edx,%esi
    df89:	89 c7                	mov    %eax,%edi
    df8b:	e8 82 72 ff ff       	callq  5212 <safe_mul_func_int8_t_s_s>
    df90:	48 8b 85 18 f4 ff ff 	mov    -0xbe8(%rbp),%rax
    df97:	0f b6 00             	movzbl (%rax),%eax
    df9a:	0f be c0             	movsbl %al,%eax
    df9d:	89 c7                	mov    %eax,%edi
    df9f:	e8 1b 72 ff ff       	callq  51bf <safe_unary_minus_func_int8_t_s>
    dfa4:	0f b6 85 7e fa ff ff 	movzbl -0x582(%rbp),%eax
    dfab:	0f b6 c0             	movzbl %al,%eax
    dfae:	89 c6                	mov    %eax,%esi
    dfb0:	bf bf f2 ff ff       	mov    $0xfffff2bf,%edi
    dfb5:	e8 a9 75 ff ff       	callq  5563 <safe_rshift_func_int16_t_s_u>
    dfba:	0f bf d0             	movswl %ax,%edx
    dfbd:	8b 85 98 f7 ff ff    	mov    -0x868(%rbp),%eax
    dfc3:	31 c2                	xor    %eax,%edx
    dfc5:	0f b7 05 d8 b7 00 00 	movzwl 0xb7d8(%rip),%eax        # 197a4 <g_532+0x4>
    dfcc:	98                   	cwtl   
    dfcd:	39 c2                	cmp    %eax,%edx
    dfcf:	0f 93 c0             	setae  %al
    dfd2:	0f b6 c0             	movzbl %al,%eax
    dfd5:	39 85 a0 f4 ff ff    	cmp    %eax,-0xb60(%rbp)
    dfdb:	0f 9c c0             	setl   %al
    dfde:	0f b6 d0             	movzbl %al,%edx
    dfe1:	8b 05 31 b8 00 00    	mov    0xb831(%rip),%eax        # 19818 <g_1054>
    dfe7:	39 c2                	cmp    %eax,%edx
    dfe9:	48 8b 05 e8 d1 00 00 	mov    0xd1e8(%rip),%rax        # 1b1d8 <g_916>
    dff0:	48 8b 00             	mov    (%rax),%rax
    dff3:	48 39 85 78 f5 ff ff 	cmp    %rax,-0xa88(%rbp)
    dffa:	0f 95 c0             	setne  %al
    dffd:	0f b6 c0             	movzbl %al,%eax
    e000:	39 85 c4 f4 ff ff    	cmp    %eax,-0xb3c(%rbp)
    e006:	0f 9e c0             	setle  %al
    e009:	0f b6 c0             	movzbl %al,%eax
    e00c:	33 85 c4 f4 ff ff    	xor    -0xb3c(%rbp),%eax
    e012:	41 89 c4             	mov    %eax,%r12d
    e015:	be 06 00 00 00       	mov    $0x6,%esi
    e01a:	bf eb 69 00 00       	mov    $0x69eb,%edi
    e01f:	e8 24 7e ff ff       	callq  5e48 <safe_rshift_func_uint16_t_u_s>
    e024:	0f b7 d0             	movzwl %ax,%edx
    e027:	48 8b 85 28 f5 ff ff 	mov    -0xad8(%rbp),%rax
    e02e:	0f b6 00             	movzbl (%rax),%eax
    e031:	44 89 e1             	mov    %r12d,%ecx
    e034:	09 c1                	or     %eax,%ecx
    e036:	48 8b 85 28 f5 ff ff 	mov    -0xad8(%rbp),%rax
    e03d:	88 08                	mov    %cl,(%rax)
    e03f:	48 8b 85 28 f5 ff ff 	mov    -0xad8(%rbp),%rax
    e046:	0f b6 00             	movzbl (%rax),%eax
    e049:	0f be c0             	movsbl %al,%eax
    e04c:	39 c2                	cmp    %eax,%edx
    e04e:	8b 85 00 f8 ff ff    	mov    -0x800(%rbp),%eax
    e054:	0f b7 c0             	movzwl %ax,%eax
    e057:	89 de                	mov    %ebx,%esi
    e059:	89 c7                	mov    %eax,%edi
    e05b:	e8 a6 7d ff ff       	callq  5e06 <safe_lshift_func_uint16_t_u_u>
    e060:	98                   	cwtl   
    e061:	89 c7                	mov    %eax,%edi
    e063:	e8 35 73 ff ff       	callq  539d <safe_unary_minus_func_int16_t_s>
    e068:	c7 85 00 fa ff ff 26 	movl   $0x31d86626,-0x600(%rbp)
    e06f:	66 d8 31 
    e072:	e9 7f 05 00 00       	jmpq   e5f6 <func_35+0x2edb>
    e077:	c6 85 3b f4 ff ff 00 	movb   $0x0,-0xbc5(%rbp)
    e07e:	48 8d 05 cb b3 00 00 	lea    0xb3cb(%rip),%rax        # 19450 <g_142>
    e085:	48 89 85 18 f6 ff ff 	mov    %rax,-0x9e8(%rbp)
    e08c:	48 8d 85 5c f4 ff ff 	lea    -0xba4(%rbp),%rax
    e093:	48 89 85 40 fb ff ff 	mov    %rax,-0x4c0(%rbp)
    e09a:	48 8d 85 5c f4 ff ff 	lea    -0xba4(%rbp),%rax
    e0a1:	48 89 85 48 fb ff ff 	mov    %rax,-0x4b8(%rbp)
    e0a8:	48 8d 85 5c f4 ff ff 	lea    -0xba4(%rbp),%rax
    e0af:	48 89 85 50 fb ff ff 	mov    %rax,-0x4b0(%rbp)
    e0b6:	48 8d 85 5c f4 ff ff 	lea    -0xba4(%rbp),%rax
    e0bd:	48 89 85 58 fb ff ff 	mov    %rax,-0x4a8(%rbp)
    e0c4:	48 8d 85 5c f4 ff ff 	lea    -0xba4(%rbp),%rax
    e0cb:	48 89 85 60 fb ff ff 	mov    %rax,-0x4a0(%rbp)
    e0d2:	48 8d 85 5c f4 ff ff 	lea    -0xba4(%rbp),%rax
    e0d9:	48 89 85 68 fb ff ff 	mov    %rax,-0x498(%rbp)
    e0e0:	48 8d 85 5c f4 ff ff 	lea    -0xba4(%rbp),%rax
    e0e7:	48 89 85 70 fb ff ff 	mov    %rax,-0x490(%rbp)
    e0ee:	48 8d 85 5c f4 ff ff 	lea    -0xba4(%rbp),%rax
    e0f5:	48 89 85 78 fb ff ff 	mov    %rax,-0x488(%rbp)
    e0fc:	48 8d 85 5c f4 ff ff 	lea    -0xba4(%rbp),%rax
    e103:	48 89 85 80 fb ff ff 	mov    %rax,-0x480(%rbp)
    e10a:	80 bd 3b f4 ff ff 00 	cmpb   $0x0,-0xbc5(%rbp)
    e111:	74 55                	je     e168 <func_35+0x2a4d>
    e113:	48 8b 1d 36 d0 00 00 	mov    0xd036(%rip),%rbx        # 1b150 <g_82>
    e11a:	48 8b 95 18 f6 ff ff 	mov    -0x9e8(%rbp),%rdx
    e121:	48 8d 85 54 f4 ff ff 	lea    -0xbac(%rbp),%rax
    e128:	48 89 d6             	mov    %rdx,%rsi
    e12b:	48 89 c7             	mov    %rax,%rdi
    e12e:	e8 cb 0e 00 00       	callq  effe <func_45>
    e133:	48 89 03             	mov    %rax,(%rbx)
    e136:	66 83 ad 40 f4 ff ff 	subw   $0x1,-0xbc0(%rbp)
    e13d:	01 
    e13e:	48 8b 85 20 f4 ff ff 	mov    -0xbe0(%rbp),%rax
    e145:	8b 08                	mov    (%rax),%ecx
    e147:	8b 95 48 f4 ff ff    	mov    -0xbb8(%rbp),%edx
    e14d:	48 8b 85 20 f4 ff ff 	mov    -0xbe0(%rbp),%rax
    e154:	09 ca                	or     %ecx,%edx
    e156:	89 10                	mov    %edx,(%rax)
    e158:	48 c7 05 55 db 00 00 	movq   $0x0,0xdb55(%rip)        # 1bcb8 <g_565>
    e15f:	00 00 00 00 
    e163:	e9 7d 04 00 00       	jmpq   e5e5 <func_35+0x2eca>
    e168:	c7 85 b8 f4 ff ff 04 	movl   $0x4,-0xb48(%rbp)
    e16f:	00 00 00 
    e172:	c7 85 bc f4 ff ff ff 	movl   $0xffffffff,-0xb44(%rbp)
    e179:	ff ff ff 
    e17c:	48 8d 05 fd b5 00 00 	lea    0xb5fd(%rip),%rax        # 19780 <g_267>
    e183:	48 89 85 f0 fc ff ff 	mov    %rax,-0x310(%rbp)
    e18a:	48 8d 05 ef b5 00 00 	lea    0xb5ef(%rip),%rax        # 19780 <g_267>
    e191:	48 89 85 f8 fc ff ff 	mov    %rax,-0x308(%rbp)
    e198:	48 8d 05 e1 b5 00 00 	lea    0xb5e1(%rip),%rax        # 19780 <g_267>
    e19f:	48 89 85 00 fd ff ff 	mov    %rax,-0x300(%rbp)
    e1a6:	48 8d 05 d3 b5 00 00 	lea    0xb5d3(%rip),%rax        # 19780 <g_267>
    e1ad:	48 89 85 08 fd ff ff 	mov    %rax,-0x2f8(%rbp)
    e1b4:	48 8d 05 c5 b5 00 00 	lea    0xb5c5(%rip),%rax        # 19780 <g_267>
    e1bb:	48 89 85 10 fd ff ff 	mov    %rax,-0x2f0(%rbp)
    e1c2:	8b 85 bc f4 ff ff    	mov    -0xb44(%rbp),%eax
    e1c8:	0f bf d8             	movswl %ax,%ebx
    e1cb:	44 8b 2d 0e db 00 00 	mov    0xdb0e(%rip),%r13d        # 1bce0 <g_702>
    e1d2:	0f b6 85 7e fa ff ff 	movzbl -0x582(%rbp),%eax
    e1d9:	3c 01                	cmp    $0x1,%al
    e1db:	0f 96 c0             	setbe  %al
    e1de:	0f b6 c0             	movzbl %al,%eax
    e1e1:	09 85 b8 f4 ff ff    	or     %eax,-0xb48(%rbp)
    e1e7:	83 bd b8 f4 ff ff 00 	cmpl   $0x0,-0xb48(%rbp)
    e1ee:	0f 85 08 01 00 00    	jne    e2fc <func_35+0x2be1>
    e1f4:	44 8b a5 a4 f9 ff ff 	mov    -0x65c(%rbp),%r12d
    e1fb:	48 8b 05 5e cf 00 00 	mov    0xcf5e(%rip),%rax        # 1b160 <g_115>
    e202:	0f b7 00             	movzwl (%rax),%eax
    e205:	98                   	cwtl   
    e206:	be 00 00 00 00       	mov    $0x0,%esi
    e20b:	89 c7                	mov    %eax,%edi
    e20d:	e8 80 72 ff ff       	callq  5492 <safe_lshift_func_int16_t_s_s>
    e212:	98                   	cwtl   
    e213:	41 39 c4             	cmp    %eax,%r12d
    e216:	0f 85 e0 00 00 00    	jne    e2fc <func_35+0x2be1>
    e21c:	48 8b 85 78 f5 ff ff 	mov    -0xa88(%rbp),%rax
    e223:	0f b7 00             	movzwl (%rax),%eax
    e226:	8d 50 01             	lea    0x1(%rax),%edx
    e229:	48 8b 85 78 f5 ff ff 	mov    -0xa88(%rbp),%rax
    e230:	66 89 10             	mov    %dx,(%rax)
    e233:	48 8b 85 78 f5 ff ff 	mov    -0xa88(%rbp),%rax
    e23a:	44 0f b7 30          	movzwl (%rax),%r14d
    e23e:	48 8b 85 18 f4 ff ff 	mov    -0xbe8(%rbp),%rax
    e245:	0f b6 00             	movzbl (%rax),%eax
    e248:	44 0f be e0          	movsbl %al,%r12d
    e24c:	be 07 00 00 00       	mov    $0x7,%esi
    e251:	bf 00 00 00 00       	mov    $0x0,%edi
    e256:	e8 aa 79 ff ff       	callq  5c05 <safe_lshift_func_uint8_t_u_s>
    e25b:	0f be c0             	movsbl %al,%eax
    e25e:	44 89 e6             	mov    %r12d,%esi
    e261:	89 c7                	mov    %eax,%edi
    e263:	e8 6c 6f ff ff       	callq  51d4 <safe_add_func_int8_t_s_s>
    e268:	66 98                	cbtw   
    e26a:	66 89 05 3f b2 00 00 	mov    %ax,0xb23f(%rip)        # 194b0 <g_172+0x50>
    e271:	0f b7 05 38 b2 00 00 	movzwl 0xb238(%rip),%eax        # 194b0 <g_172+0x50>
    e278:	66 41 39 c6          	cmp    %ax,%r14w
    e27c:	0f 94 c0             	sete   %al
    e27f:	0f b6 c0             	movzbl %al,%eax
    e282:	be ff ff ff ff       	mov    $0xffffffff,%esi
    e287:	89 c7                	mov    %eax,%edi
    e289:	e8 88 71 ff ff       	callq  5416 <safe_mod_func_int16_t_s_s>
    e28e:	0f bf d0             	movswl %ax,%edx
    e291:	8b 05 49 b5 00 00    	mov    0xb549(%rip),%eax        # 197e0 <g_708>
    e297:	39 c2                	cmp    %eax,%edx
    e299:	0f 9e c0             	setle  %al
    e29c:	0f b6 d0             	movzbl %al,%edx
    e29f:	8b 85 b8 f4 ff ff    	mov    -0xb48(%rbp),%eax
    e2a5:	89 d6                	mov    %edx,%esi
    e2a7:	89 c7                	mov    %eax,%edi
    e2a9:	e8 22 7c ff ff       	callq  5ed0 <safe_sub_func_uint32_t_u_u>
    e2ae:	ba 07 00 00 00       	mov    $0x7,%edx
    e2b3:	39 d0                	cmp    %edx,%eax
    e2b5:	0f 92 c0             	setb   %al
    e2b8:	0f b6 d0             	movzbl %al,%edx
    e2bb:	8b 85 48 f4 ff ff    	mov    -0xbb8(%rbp),%eax
    e2c1:	21 d0                	and    %edx,%eax
    e2c3:	85 c0                	test   %eax,%eax
    e2c5:	0f 94 c0             	sete   %al
    e2c8:	0f b6 d0             	movzbl %al,%edx
    e2cb:	48 8b 85 18 f6 ff ff 	mov    -0x9e8(%rbp),%rax
    e2d2:	8b 00                	mov    (%rax),%eax
    e2d4:	0f be c0             	movsbl %al,%eax
    e2d7:	89 d6                	mov    %edx,%esi
    e2d9:	89 c7                	mov    %eax,%edi
    e2db:	e8 32 6f ff ff       	callq  5212 <safe_mul_func_int8_t_s_s>
    e2e0:	0f be d0             	movsbl %al,%edx
    e2e3:	48 8b 85 18 f6 ff ff 	mov    -0x9e8(%rbp),%rax
    e2ea:	8b 00                	mov    (%rax),%eax
    e2ec:	39 c2                	cmp    %eax,%edx
    e2ee:	75 0c                	jne    e2fc <func_35+0x2be1>
    e2f0:	48 8b 05 51 b1 00 00 	mov    0xb151(%rip),%rax        # 19448 <g_140>
    e2f7:	48 85 c0             	test   %rax,%rax
    e2fa:	74 07                	je     e303 <func_35+0x2be8>
    e2fc:	b8 01 00 00 00       	mov    $0x1,%eax
    e301:	eb 05                	jmp    e308 <func_35+0x2bed>
    e303:	b8 00 00 00 00       	mov    $0x0,%eax
    e308:	48 98                	cltq   
    e30a:	48 39 85 80 f5 ff ff 	cmp    %rax,-0xa80(%rbp)
    e311:	0f 95 c0             	setne  %al
    e314:	0f b6 d0             	movzbl %al,%edx
    e317:	48 8b 85 18 f4 ff ff 	mov    -0xbe8(%rbp),%rax
    e31e:	0f b6 00             	movzbl (%rax),%eax
    e321:	0f be c0             	movsbl %al,%eax
    e324:	39 c2                	cmp    %eax,%edx
    e326:	0f 9f c0             	setg   %al
    e329:	0f b6 c0             	movzbl %al,%eax
    e32c:	44 21 e8             	and    %r13d,%eax
    e32f:	89 c2                	mov    %eax,%edx
    e331:	8b 85 58 f4 ff ff    	mov    -0xba8(%rbp),%eax
    e337:	39 c2                	cmp    %eax,%edx
    e339:	0f 92 c0             	setb   %al
    e33c:	0f b6 c0             	movzbl %al,%eax
    e33f:	39 85 a0 f4 ff ff    	cmp    %eax,-0xb60(%rbp)
    e345:	0f 9d c0             	setge  %al
    e348:	0f b6 c0             	movzbl %al,%eax
    e34b:	89 de                	mov    %ebx,%esi
    e34d:	89 c7                	mov    %eax,%edi
    e34f:	e8 01 71 ff ff       	callq  5455 <safe_div_func_int16_t_s_s>
    e354:	0f bf d0             	movswl %ax,%edx
    e357:	8b 85 50 f4 ff ff    	mov    -0xbb0(%rbp),%eax
    e35d:	09 d0                	or     %edx,%eax
    e35f:	89 85 50 f4 ff ff    	mov    %eax,-0xbb0(%rbp)
    e365:	48 8b 85 18 f4 ff ff 	mov    -0xbe8(%rbp),%rax
    e36c:	e9 30 0a 00 00       	jmpq   eda1 <func_35+0x3686>
    e371:	48 8d 05 40 ce 00 00 	lea    0xce40(%rip),%rax        # 1b1b8 <g_843>
    e378:	48 89 85 20 f6 ff ff 	mov    %rax,-0x9e0(%rbp)
    e37f:	48 8b 05 32 d9 00 00 	mov    0xd932(%rip),%rax        # 1bcb8 <g_565>
    e386:	48 8d 14 85 00 00 00 	lea    0x0(,%rax,4),%rdx
    e38d:	00 
    e38e:	48 8d 05 4b d9 00 00 	lea    0xd94b(%rip),%rax        # 1bce0 <g_702>
    e395:	48 01 d0             	add    %rdx,%rax
    e398:	48 89 85 10 f5 ff ff 	mov    %rax,-0xaf0(%rbp)
    e39f:	48 8d 85 10 f5 ff ff 	lea    -0xaf0(%rbp),%rax
    e3a6:	48 89 85 18 f5 ff ff 	mov    %rax,-0xae8(%rbp)
    e3ad:	48 8d 85 18 f5 ff ff 	lea    -0xae8(%rbp),%rax
    e3b4:	48 89 85 f0 fc ff ff 	mov    %rax,-0x310(%rbp)
    e3bb:	48 8d 85 18 f5 ff ff 	lea    -0xae8(%rbp),%rax
    e3c2:	48 89 85 f8 fc ff ff 	mov    %rax,-0x308(%rbp)
    e3c9:	48 8d 85 18 f5 ff ff 	lea    -0xae8(%rbp),%rax
    e3d0:	48 89 85 00 fd ff ff 	mov    %rax,-0x300(%rbp)
    e3d7:	48 8d 85 18 f5 ff ff 	lea    -0xae8(%rbp),%rax
    e3de:	48 89 85 08 fd ff ff 	mov    %rax,-0x2f8(%rbp)
    e3e5:	48 8d 85 18 f5 ff ff 	lea    -0xae8(%rbp),%rax
    e3ec:	48 89 85 10 fd ff ff 	mov    %rax,-0x2f0(%rbp)
    e3f3:	48 8d 85 18 f5 ff ff 	lea    -0xae8(%rbp),%rax
    e3fa:	48 89 85 18 fd ff ff 	mov    %rax,-0x2e8(%rbp)
    e401:	48 8d 85 18 f5 ff ff 	lea    -0xae8(%rbp),%rax
    e408:	48 89 85 20 fd ff ff 	mov    %rax,-0x2e0(%rbp)
    e40f:	48 8d 85 18 f5 ff ff 	lea    -0xae8(%rbp),%rax
    e416:	48 89 85 28 fd ff ff 	mov    %rax,-0x2d8(%rbp)
    e41d:	48 8d 85 18 f5 ff ff 	lea    -0xae8(%rbp),%rax
    e424:	48 89 85 30 fd ff ff 	mov    %rax,-0x2d0(%rbp)
    e42b:	48 8d 85 18 f5 ff ff 	lea    -0xae8(%rbp),%rax
    e432:	48 89 85 38 fd ff ff 	mov    %rax,-0x2c8(%rbp)
    e439:	48 8d 85 f0 fc ff ff 	lea    -0x310(%rbp),%rax
    e440:	48 83 c0 10          	add    $0x10,%rax
    e444:	48 89 85 28 f6 ff ff 	mov    %rax,-0x9d8(%rbp)
    e44b:	c7 85 c0 f4 ff ff d7 	movl   $0xac1fc5d7,-0xb40(%rbp)
    e452:	c5 1f ac 
    e455:	48 8b 85 28 f6 ff ff 	mov    -0x9d8(%rbp),%rax
    e45c:	48 8d 15 55 cd 00 00 	lea    0xcd55(%rip),%rdx        # 1b1b8 <g_843>
    e463:	48 89 10             	mov    %rdx,(%rax)
    e466:	48 8b 85 28 f6 ff ff 	mov    -0x9d8(%rbp),%rax
    e46d:	48 8b 00             	mov    (%rax),%rax
    e470:	48 39 85 20 f6 ff ff 	cmp    %rax,-0x9e0(%rbp)
    e477:	0f 94 c0             	sete   %al
    e47a:	0f b6 c0             	movzbl %al,%eax
    e47d:	89 85 a4 f4 ff ff    	mov    %eax,-0xb5c(%rbp)
    e483:	8b 85 a4 f4 ff ff    	mov    -0xb5c(%rbp),%eax
    e489:	89 c2                	mov    %eax,%edx
    e48b:	b8 ff ff ff ff       	mov    $0xffffffff,%eax
    e490:	0f b6 c0             	movzbl %al,%eax
    e493:	89 d3                	mov    %edx,%ebx
    e495:	21 c3                	and    %eax,%ebx
    e497:	be 03 00 00 00       	mov    $0x3,%esi
    e49c:	bf 7e 00 00 00       	mov    $0x7e,%edi
    e4a1:	e8 e7 77 ff ff       	callq  5c8d <safe_rshift_func_uint8_t_u_s>
    e4a6:	84 c0                	test   %al,%al
    e4a8:	75 67                	jne    e511 <func_35+0x2df6>
    e4aa:	8b 05 44 b3 00 00    	mov    0xb344(%rip),%eax        # 197f4 <g_807>
    e4b0:	41 89 c4             	mov    %eax,%r12d
    e4b3:	48 8b 05 fe d7 00 00 	mov    0xd7fe(%rip),%rax        # 1bcb8 <g_565>
    e4ba:	48 8d 14 85 00 00 00 	lea    0x0(,%rax,4),%rdx
    e4c1:	00 
    e4c2:	48 8d 05 17 d8 00 00 	lea    0xd817(%rip),%rax        # 1bce0 <g_702>
    e4c9:	8b 04 02             	mov    (%rdx,%rax,1),%eax
    e4cc:	85 c0                	test   %eax,%eax
    e4ce:	0f 95 c0             	setne  %al
    e4d1:	0f b6 c0             	movzbl %al,%eax
    e4d4:	be 2b c1 2c aa       	mov    $0xaa2cc12b,%esi
    e4d9:	89 c7                	mov    %eax,%edi
    e4db:	e8 1f 72 ff ff       	callq  56ff <safe_div_func_int32_t_s_s>
    e4e0:	0f b6 15 07 b2 00 00 	movzbl 0xb207(%rip),%edx        # 196ee <g_226+0x8e>
    e4e7:	0f be d2             	movsbl %dl,%edx
    e4ea:	09 d0                	or     %edx,%eax
    e4ec:	89 c2                	mov    %eax,%edx
    e4ee:	8b 85 c4 f7 ff ff    	mov    -0x83c(%rbp),%eax
    e4f4:	83 c8 01             	or     $0x1,%eax
    e4f7:	89 d6                	mov    %edx,%esi
    e4f9:	89 c7                	mov    %eax,%edi
    e4fb:	e8 25 7a ff ff       	callq  5f25 <safe_div_func_uint32_t_u_u>
    e500:	0f be c0             	movsbl %al,%eax
    e503:	44 89 e6             	mov    %r12d,%esi
    e506:	89 c7                	mov    %eax,%edi
    e508:	e8 94 6d ff ff       	callq  52a1 <safe_lshift_func_int8_t_s_s>
    e50d:	84 c0                	test   %al,%al
    e50f:	74 07                	je     e518 <func_35+0x2dfd>
    e511:	ba 01 00 00 00       	mov    $0x1,%edx
    e516:	eb 05                	jmp    e51d <func_35+0x2e02>
    e518:	ba 00 00 00 00       	mov    $0x0,%edx
    e51d:	48 8b 85 18 f4 ff ff 	mov    -0xbe8(%rbp),%rax
    e524:	0f b6 00             	movzbl (%rax),%eax
    e527:	0f be c0             	movsbl %al,%eax
    e52a:	39 c2                	cmp    %eax,%edx
    e52c:	0f 9c c0             	setl   %al
    e52f:	0f b6 c0             	movzbl %al,%eax
    e532:	21 c3                	and    %eax,%ebx
    e534:	89 da                	mov    %ebx,%edx
    e536:	8b 85 74 f7 ff ff    	mov    -0x88c(%rbp),%eax
    e53c:	09 d0                	or     %edx,%eax
    e53e:	0f bf d0             	movswl %ax,%edx
    e541:	48 8b 05 50 cc 00 00 	mov    0xcc50(%rip),%rax        # 1b198 <g_394>
    e548:	48 8b 00             	mov    (%rax),%rax
    e54b:	48 8b 00             	mov    (%rax),%rax
    e54e:	0f b7 00             	movzwl (%rax),%eax
    e551:	98                   	cwtl   
    e552:	89 d6                	mov    %edx,%esi
    e554:	89 c7                	mov    %eax,%edi
    e556:	e8 9a 6e ff ff       	callq  53f5 <safe_mul_func_int16_t_s_s>
    e55b:	48 8b 05 56 d7 00 00 	mov    0xd756(%rip),%rax        # 1bcb8 <g_565>
    e562:	48 8d 14 85 00 00 00 	lea    0x0(,%rax,4),%rdx
    e569:	00 
    e56a:	48 8d 05 6f d7 00 00 	lea    0xd76f(%rip),%rax        # 1bce0 <g_702>
    e571:	8b 04 02             	mov    (%rdx,%rax,1),%eax
    e574:	48 98                	cltq   
    e576:	be 05 00 00 00       	mov    $0x5,%esi
    e57b:	48 89 c7             	mov    %rax,%rdi
    e57e:	e8 25 73 ff ff       	callq  58a8 <safe_sub_func_int64_t_s_s>
    e583:	0f b6 85 66 f7 ff ff 	movzbl -0x89a(%rbp),%eax
    e58a:	0f be d0             	movsbl %al,%edx
    e58d:	48 8b 05 24 d7 00 00 	mov    0xd724(%rip),%rax        # 1bcb8 <g_565>
    e594:	48 8d 0c 85 00 00 00 	lea    0x0(,%rax,4),%rcx
    e59b:	00 
    e59c:	48 8d 05 3d d7 00 00 	lea    0xd73d(%rip),%rax        # 1bce0 <g_702>
    e5a3:	8b 04 01             	mov    (%rcx,%rax,1),%eax
    e5a6:	39 c2                	cmp    %eax,%edx
    e5a8:	0f 9e c2             	setle  %dl
    e5ab:	48 8b 85 20 f4 ff ff 	mov    -0xbe0(%rbp),%rax
    e5b2:	0f b6 d2             	movzbl %dl,%edx
    e5b5:	89 10                	mov    %edx,(%rax)
    e5b7:	0f b6 05 6e aa 00 00 	movzbl 0xaa6e(%rip),%eax        # 1902c <g_54>
    e5be:	84 c0                	test   %al,%al
    e5c0:	75 66                	jne    e628 <func_35+0x2f0d>
    e5c2:	83 85 94 f4 ff ff 01 	addl   $0x1,-0xb6c(%rbp)
    e5c9:	8b 05 81 ae 00 00    	mov    0xae81(%rip),%eax        # 19450 <g_142>
    e5cf:	85 c0                	test   %eax,%eax
    e5d1:	75 5b                	jne    e62e <func_35+0x2f13>
    e5d3:	48 8b 05 de d6 00 00 	mov    0xd6de(%rip),%rax        # 1bcb8 <g_565>
    e5da:	48 83 c0 01          	add    $0x1,%rax
    e5de:	48 89 05 d3 d6 00 00 	mov    %rax,0xd6d3(%rip)        # 1bcb8 <g_565>
    e5e5:	48 8b 05 cc d6 00 00 	mov    0xd6cc(%rip),%rax        # 1bcb8 <g_565>
    e5ec:	48 83 f8 03          	cmp    $0x3,%rax
    e5f0:	0f 8e 7b fd ff ff    	jle    e371 <func_35+0x2c56>
    e5f6:	48 8b 1d 53 cb 00 00 	mov    0xcb53(%rip),%rbx        # 1b150 <g_82>
    e5fd:	48 8d 85 60 f4 ff ff 	lea    -0xba0(%rbp),%rax
    e604:	48 89 c6             	mov    %rax,%rsi
    e607:	48 8d 3d d2 b1 00 00 	lea    0xb1d2(%rip),%rdi        # 197e0 <g_708>
    e60e:	e8 eb 09 00 00       	callq  effe <func_45>
    e613:	48 89 03             	mov    %rax,(%rbx)
    e616:	48 8b 85 28 f4 ff ff 	mov    -0xbd8(%rbp),%rax
    e61d:	48 8b 00             	mov    (%rax),%rax
    e620:	8b 00                	mov    (%rax),%eax
    e622:	85 c0                	test   %eax,%eax
    e624:	74 0e                	je     e634 <func_35+0x2f19>
    e626:	eb 2b                	jmp    e653 <func_35+0x2f38>
    e628:	90                   	nop
    e629:	e9 54 d4 ff ff       	jmpq   ba82 <func_35+0x367>
    e62e:	90                   	nop
    e62f:	e9 4e d4 ff ff       	jmpq   ba82 <func_35+0x367>
    e634:	0f b6 05 21 b1 00 00 	movzbl 0xb121(%rip),%eax        # 1975c <g_227>
    e63b:	83 c0 01             	add    $0x1,%eax
    e63e:	88 05 18 b1 00 00    	mov    %al,0xb118(%rip)        # 1975c <g_227>
    e644:	0f b6 05 11 b1 00 00 	movzbl 0xb111(%rip),%eax        # 1975c <g_227>
    e64b:	3c 03                	cmp    $0x3,%al
    e64d:	0f 86 33 d9 ff ff    	jbe    bf86 <func_35+0x86b>
    e653:	48 8b 85 20 f4 ff ff 	mov    -0xbe0(%rbp),%rax
    e65a:	8b 00                	mov    (%rax),%eax
    e65c:	85 c0                	test   %eax,%eax
    e65e:	0f 84 64 02 00 00    	je     e8c8 <func_35+0x31ad>
    e664:	48 8d 05 d5 ad 00 00 	lea    0xadd5(%rip),%rax        # 19440 <g_137>
    e66b:	48 89 85 78 f6 ff ff 	mov    %rax,-0x988(%rbp)
    e672:	c7 85 18 f5 ff ff 05 	movl   $0xa574e505,-0xae8(%rbp)
    e679:	e5 74 a5 
    e67c:	48 8d 85 44 f4 ff ff 	lea    -0xbbc(%rbp),%rax
    e683:	48 89 85 80 f6 ff ff 	mov    %rax,-0x980(%rbp)
    e68a:	48 8d 85 48 f4 ff ff 	lea    -0xbb8(%rbp),%rax
    e691:	48 89 85 88 f6 ff ff 	mov    %rax,-0x978(%rbp)
    e698:	48 8d 05 c9 b0 00 00 	lea    0xb0c9(%rip),%rax        # 19768 <g_263>
    e69f:	48 89 85 90 f6 ff ff 	mov    %rax,-0x970(%rbp)
    e6a6:	c7 85 d0 f4 ff ff 93 	movl   $0x907a9193,-0xb30(%rbp)
    e6ad:	91 7a 90 
    e6b0:	48 8d 85 4c f4 ff ff 	lea    -0xbb4(%rbp),%rax
    e6b7:	48 89 85 98 f6 ff ff 	mov    %rax,-0x968(%rbp)
    e6be:	48 8d 05 ab b0 00 00 	lea    0xb0ab(%rip),%rax        # 19770 <g_265>
    e6c5:	48 89 85 a0 f6 ff ff 	mov    %rax,-0x960(%rbp)
    e6cc:	48 8d 05 e5 b0 00 00 	lea    0xb0e5(%rip),%rax        # 197b8 <g_611>
    e6d3:	48 89 85 a8 f6 ff ff 	mov    %rax,-0x958(%rbp)
    e6da:	c7 85 d4 f4 ff ff ff 	movl   $0xffffffff,-0xb2c(%rbp)
    e6e1:	ff ff ff 
    e6e4:	48 8d 05 8d b0 00 00 	lea    0xb08d(%rip),%rax        # 19778 <g_266>
    e6eb:	48 89 85 b0 f6 ff ff 	mov    %rax,-0x950(%rbp)
    e6f2:	48 8d 85 44 f4 ff ff 	lea    -0xbbc(%rbp),%rax
    e6f9:	48 89 85 b8 f6 ff ff 	mov    %rax,-0x948(%rbp)
    e700:	48 8d 05 b9 b0 00 00 	lea    0xb0b9(%rip),%rax        # 197c0 <g_632>
    e707:	48 89 85 c0 f6 ff ff 	mov    %rax,-0x940(%rbp)
    e70e:	48 8d 85 18 f5 ff ff 	lea    -0xae8(%rbp),%rax
    e715:	48 89 85 f0 fc ff ff 	mov    %rax,-0x310(%rbp)
    e71c:	48 8d 05 bd b0 00 00 	lea    0xb0bd(%rip),%rax        # 197e0 <g_708>
    e723:	48 89 85 f8 fc ff ff 	mov    %rax,-0x308(%rbp)
    e72a:	48 8d 05 af b0 00 00 	lea    0xb0af(%rip),%rax        # 197e0 <g_708>
    e731:	48 89 85 00 fd ff ff 	mov    %rax,-0x300(%rbp)
    e738:	48 8d 85 18 f5 ff ff 	lea    -0xae8(%rbp),%rax
    e73f:	48 89 85 08 fd ff ff 	mov    %rax,-0x2f8(%rbp)
    e746:	48 8d 85 70 f7 ff ff 	lea    -0x890(%rbp),%rax
    e74d:	48 83 c0 0c          	add    $0xc,%rax
    e751:	48 89 85 10 fd ff ff 	mov    %rax,-0x2f0(%rbp)
    e758:	48 8d 85 18 f5 ff ff 	lea    -0xae8(%rbp),%rax
    e75f:	48 89 85 18 fd ff ff 	mov    %rax,-0x2e8(%rbp)
    e766:	48 8d 05 73 b0 00 00 	lea    0xb073(%rip),%rax        # 197e0 <g_708>
    e76d:	48 89 85 20 fd ff ff 	mov    %rax,-0x2e0(%rbp)
    e774:	48 8d 05 65 b0 00 00 	lea    0xb065(%rip),%rax        # 197e0 <g_708>
    e77b:	48 89 85 28 fd ff ff 	mov    %rax,-0x2d8(%rbp)
    e782:	48 8d 85 18 f5 ff ff 	lea    -0xae8(%rbp),%rax
    e789:	48 89 85 30 fd ff ff 	mov    %rax,-0x2d0(%rbp)
    e790:	48 8d 85 70 f7 ff ff 	lea    -0x890(%rbp),%rax
    e797:	48 83 c0 0c          	add    $0xc,%rax
    e79b:	48 89 85 38 fd ff ff 	mov    %rax,-0x2c8(%rbp)
    e7a2:	c7 05 6c b0 00 00 00 	movl   $0x0,0xb06c(%rip)        # 19818 <g_1054>
    e7a9:	00 00 00 
    e7ac:	e9 eb 00 00 00       	jmpq   e89c <func_35+0x3181>
    e7b1:	48 c7 05 8c ac 00 00 	movq   $0xfffffffffffffff6,0xac8c(%rip)        # 19448 <g_140>
    e7b8:	f6 ff ff ff 
    e7bc:	e9 a7 00 00 00       	jmpq   e868 <func_35+0x314d>
    e7c1:	48 8d 05 80 ac 00 00 	lea    0xac80(%rip),%rax        # 19448 <g_140>
    e7c8:	48 89 85 c8 f6 ff ff 	mov    %rax,-0x938(%rbp)
    e7cf:	48 8b 85 20 f4 ff ff 	mov    -0xbe0(%rbp),%rax
    e7d6:	8b 08                	mov    (%rax),%ecx
    e7d8:	0f b6 05 79 aa 00 00 	movzbl 0xaa79(%rip),%eax        # 19258 <g_92+0x218>
    e7df:	0f b6 d0             	movzbl %al,%edx
    e7e2:	48 8b 85 c8 f6 ff ff 	mov    -0x938(%rbp),%rax
    e7e9:	48 3b 85 78 f6 ff ff 	cmp    -0x988(%rbp),%rax
    e7f0:	0f 95 c0             	setne  %al
    e7f3:	0f b6 f0             	movzbl %al,%esi
    e7f6:	48 8b 05 a3 c9 00 00 	mov    0xc9a3(%rip),%rax        # 1b1a0 <g_614>
    e7fd:	8b 00                	mov    (%rax),%eax
    e7ff:	39 c6                	cmp    %eax,%esi
    e801:	0f 95 c0             	setne  %al
    e804:	0f b6 c0             	movzbl %al,%eax
    e807:	39 c2                	cmp    %eax,%edx
    e809:	0f 9d c0             	setge  %al
    e80c:	0f b6 d0             	movzbl %al,%edx
    e80f:	48 8b 85 20 f4 ff ff 	mov    -0xbe0(%rbp),%rax
    e816:	09 ca                	or     %ecx,%edx
    e818:	89 10                	mov    %edx,(%rax)
    e81a:	0f b6 95 7e fa ff ff 	movzbl -0x582(%rbp),%edx
    e821:	48 8b 85 20 f4 ff ff 	mov    -0xbe0(%rbp),%rax
    e828:	0f b6 d2             	movzbl %dl,%edx
    e82b:	89 10                	mov    %edx,(%rax)
    e82d:	66 c7 85 40 f4 ff ff 	movw   $0xfff5,-0xbc0(%rbp)
    e834:	f5 ff 
    e836:	66 83 bd 40 f4 ff ff 	cmpw   $0x33,-0xbc0(%rbp)
    e83d:	33 
    e83e:	76 0c                	jbe    e84c <func_35+0x3131>
    e840:	48 8d 05 9f af 00 00 	lea    0xaf9f(%rip),%rax        # 197e6 <g_756>
    e847:	e9 55 05 00 00       	jmpq   eda1 <func_35+0x3686>
    e84c:	48 8b 05 f5 ab 00 00 	mov    0xabf5(%rip),%rax        # 19448 <g_140>
    e853:	be 07 00 00 00       	mov    $0x7,%esi
    e858:	89 c7                	mov    %eax,%edi
    e85a:	e8 59 76 ff ff       	callq  5eb8 <safe_add_func_uint32_t_u_u>
    e85f:	89 c0                	mov    %eax,%eax
    e861:	48 89 05 e0 ab 00 00 	mov    %rax,0xabe0(%rip)        # 19448 <g_140>
    e868:	48 8b 05 d9 ab 00 00 	mov    0xabd9(%rip),%rax        # 19448 <g_140>
    e86f:	48 83 f8 17          	cmp    $0x17,%rax
    e873:	0f 86 48 ff ff ff    	jbe    e7c1 <func_35+0x30a6>
    e879:	48 8b 85 20 f4 ff ff 	mov    -0xbe0(%rbp),%rax
    e880:	8b 00                	mov    (%rax),%eax
    e882:	85 c0                	test   %eax,%eax
    e884:	8b 05 8e af 00 00    	mov    0xaf8e(%rip),%eax        # 19818 <g_1054>
    e88a:	be 01 00 00 00       	mov    $0x1,%esi
    e88f:	89 c7                	mov    %eax,%edi
    e891:	e8 22 76 ff ff       	callq  5eb8 <safe_add_func_uint32_t_u_u>
    e896:	89 05 7c af 00 00    	mov    %eax,0xaf7c(%rip)        # 19818 <g_1054>
    e89c:	8b 05 76 af 00 00    	mov    0xaf76(%rip),%eax        # 19818 <g_1054>
    e8a2:	83 f8 1a             	cmp    $0x1a,%eax
    e8a5:	0f 85 06 ff ff ff    	jne    e7b1 <func_35+0x3096>
    e8ab:	83 ad 9c f4 ff ff 01 	subl   $0x1,-0xb64(%rbp)
    e8b2:	48 8b 05 97 c8 00 00 	mov    0xc897(%rip),%rax        # 1b150 <g_82>
    e8b9:	48 8d 15 20 af 00 00 	lea    0xaf20(%rip),%rdx        # 197e0 <g_708>
    e8c0:	48 89 10             	mov    %rdx,(%rax)
    e8c3:	e9 4a 01 00 00       	jmpq   ea12 <func_35+0x32f7>
    e8c8:	c6 85 3c f4 ff ff 01 	movb   $0x1,-0xbc4(%rbp)
    e8cf:	c7 85 cc f4 ff ff 86 	movl   $0xdef89486,-0xb34(%rbp)
    e8d6:	94 f8 de 
    e8d9:	48 8d 05 b0 ae 00 00 	lea    0xaeb0(%rip),%rax        # 19790 <g_299>
    e8e0:	48 89 85 68 f6 ff ff 	mov    %rax,-0x998(%rbp)
    e8e7:	48 8d 05 5a ab 00 00 	lea    0xab5a(%rip),%rax        # 19448 <g_140>
    e8ee:	48 89 85 70 f6 ff ff 	mov    %rax,-0x990(%rbp)
    e8f5:	0f b6 85 3c f4 ff ff 	movzbl -0xbc4(%rbp),%eax
    e8fc:	83 e0 f7             	and    $0xfffffff7,%eax
    e8ff:	41 89 c4             	mov    %eax,%r12d
    e902:	0f b6 05 4b ab 00 00 	movzbl 0xab4b(%rip),%eax        # 19454 <g_143>
    e909:	0f be d8             	movsbl %al,%ebx
    e90c:	8b 85 cc f4 ff ff    	mov    -0xb34(%rbp),%eax
    e912:	98                   	cwtl   
    e913:	89 c7                	mov    %eax,%edi
    e915:	e8 83 6a ff ff       	callq  539d <safe_unary_minus_func_int16_t_s>
    e91a:	98                   	cwtl   
    e91b:	39 85 cc f4 ff ff    	cmp    %eax,-0xb34(%rbp)
    e921:	0f 9c c0             	setl   %al
    e924:	0f b6 d0             	movzbl %al,%edx
    e927:	0f b6 85 3c f4 ff ff 	movzbl -0xbc4(%rbp),%eax
    e92e:	b9 b0 bc b8 79       	mov    $0x79b8bcb0,%ecx
    e933:	39 c8                	cmp    %ecx,%eax
    e935:	0f 95 c0             	setne  %al
    e938:	0f b6 c0             	movzbl %al,%eax
    e93b:	89 d6                	mov    %edx,%esi
    e93d:	89 c7                	mov    %eax,%edi
    e93f:	e8 b1 6a ff ff       	callq  53f5 <safe_mul_func_int16_t_s_s>
    e944:	66 85 c0             	test   %ax,%ax
    e947:	74 42                	je     e98b <func_35+0x3270>
    e949:	0f b7 05 12 ae 00 00 	movzwl 0xae12(%rip),%eax        # 19762 <g_240>
    e950:	0f b6 c0             	movzbl %al,%eax
    e953:	be 07 00 00 00       	mov    $0x7,%esi
    e958:	89 c7                	mov    %eax,%edi
    e95a:	e8 5f 73 ff ff       	callq  5cbe <safe_rshift_func_uint8_t_u_u>
    e95f:	0f b6 d0             	movzbl %al,%edx
    e962:	48 8b 85 68 f6 ff ff 	mov    -0x998(%rbp),%rax
    e969:	66 89 10             	mov    %dx,(%rax)
    e96c:	48 8b 85 68 f6 ff ff 	mov    -0x998(%rbp),%rax
    e973:	0f b7 00             	movzwl (%rax),%eax
    e976:	66 85 c0             	test   %ax,%ax
    e979:	75 09                	jne    e984 <func_35+0x3269>
    e97b:	83 bd cc f4 ff ff 00 	cmpl   $0x0,-0xb34(%rbp)
    e982:	74 07                	je     e98b <func_35+0x3270>
    e984:	b8 01 00 00 00       	mov    $0x1,%eax
    e989:	eb 05                	jmp    e990 <func_35+0x3275>
    e98b:	b8 00 00 00 00       	mov    $0x0,%eax
    e990:	48 63 d0             	movslq %eax,%rdx
    e993:	48 8b 85 70 f6 ff ff 	mov    -0x990(%rbp),%rax
    e99a:	48 89 10             	mov    %rdx,(%rax)
    e99d:	48 8b 85 70 f6 ff ff 	mov    -0x990(%rbp),%rax
    e9a4:	48 8b 10             	mov    (%rax),%rdx
    e9a7:	0f b6 05 d2 ad 00 00 	movzbl 0xadd2(%rip),%eax        # 19780 <g_267>
    e9ae:	0f b6 c0             	movzbl %al,%eax
    e9b1:	48 09 c2             	or     %rax,%rdx
    e9b4:	b8 ff ff ff ff       	mov    $0xffffffff,%eax
    e9b9:	48 0f bf c0          	movswq %ax,%rax
    e9bd:	48 39 c2             	cmp    %rax,%rdx
    e9c0:	0f 96 c0             	setbe  %al
    e9c3:	0f b6 d0             	movzbl %al,%edx
    e9c6:	0f b6 85 3c f4 ff ff 	movzbl -0xbc4(%rbp),%eax
    e9cd:	48 89 d6             	mov    %rdx,%rsi
    e9d0:	48 89 c7             	mov    %rax,%rdi
    e9d3:	e8 73 76 ff ff       	callq  604b <safe_sub_func_uint64_t_u_u>
    e9d8:	0f be c0             	movsbl %al,%eax
    e9db:	89 de                	mov    %ebx,%esi
    e9dd:	89 c7                	mov    %eax,%edi
    e9df:	e8 2e 68 ff ff       	callq  5212 <safe_mul_func_int8_t_s_s>
    e9e4:	0f be c0             	movsbl %al,%eax
    e9e7:	44 31 e0             	xor    %r12d,%eax
    e9ea:	89 05 f0 ad 00 00    	mov    %eax,0xadf0(%rip)        # 197e0 <g_708>
    e9f0:	c7 85 44 f4 ff ff f5 	movl   $0xfffffff5,-0xbbc(%rbp)
    e9f7:	ff ff ff 
    e9fa:	90                   	nop
    e9fb:	8b 85 44 f4 ff ff    	mov    -0xbbc(%rbp),%eax
    ea01:	83 f8 01             	cmp    $0x1,%eax
    ea04:	7f 0c                	jg     ea12 <func_35+0x32f7>
    ea06:	48 8d 05 d9 ad 00 00 	lea    0xadd9(%rip),%rax        # 197e6 <g_756>
    ea0d:	e9 8f 03 00 00       	jmpq   eda1 <func_35+0x3686>
    ea12:	c7 05 34 aa 00 00 f9 	movl   $0xfffffff9,0xaa34(%rip)        # 19450 <g_142>
    ea19:	ff ff ff 
    ea1c:	e9 67 03 00 00       	jmpq   ed88 <func_35+0x366d>
    ea21:	c6 85 3d f4 ff ff ff 	movb   $0xff,-0xbc3(%rbp)
    ea28:	48 8d 05 11 aa 00 00 	lea    0xaa11(%rip),%rax        # 19440 <g_137>
    ea2f:	48 89 85 d0 f6 ff ff 	mov    %rax,-0x930(%rbp)
    ea36:	48 8d 85 e0 f4 ff ff 	lea    -0xb20(%rbp),%rax
    ea3d:	48 89 85 d8 f6 ff ff 	mov    %rax,-0x928(%rbp)
    ea44:	48 8d 85 e0 f4 ff ff 	lea    -0xb20(%rbp),%rax
    ea4b:	48 89 85 e0 f6 ff ff 	mov    %rax,-0x920(%rbp)
    ea52:	c7 85 40 fb ff ff fd 	movl   $0x5c66befd,-0x4c0(%rbp)
    ea59:	be 66 5c 
    ea5c:	c7 85 44 fb ff ff fd 	movl   $0x5c66befd,-0x4bc(%rbp)
    ea63:	be 66 5c 
    ea66:	c7 85 48 fb ff ff fd 	movl   $0x5c66befd,-0x4b8(%rbp)
    ea6d:	be 66 5c 
    ea70:	c7 85 4c fb ff ff f6 	movl   $0xfffffff6,-0x4b4(%rbp)
    ea77:	ff ff ff 
    ea7a:	c7 85 50 fb ff ff f6 	movl   $0xfffffff6,-0x4b0(%rbp)
    ea81:	ff ff ff 
    ea84:	c7 85 54 fb ff ff f6 	movl   $0xfffffff6,-0x4ac(%rbp)
    ea8b:	ff ff ff 
    ea8e:	c7 85 58 fb ff ff fd 	movl   $0x5c66befd,-0x4a8(%rbp)
    ea95:	be 66 5c 
    ea98:	c7 85 5c fb ff ff fd 	movl   $0x5c66befd,-0x4a4(%rbp)
    ea9f:	be 66 5c 
    eaa2:	c7 85 60 fb ff ff fd 	movl   $0x5c66befd,-0x4a0(%rbp)
    eaa9:	be 66 5c 
    eaac:	c7 85 64 fb ff ff f6 	movl   $0xfffffff6,-0x49c(%rbp)
    eab3:	ff ff ff 
    eab6:	c7 85 68 fb ff ff f6 	movl   $0xfffffff6,-0x498(%rbp)
    eabd:	ff ff ff 
    eac0:	c7 85 6c fb ff ff f6 	movl   $0xfffffff6,-0x494(%rbp)
    eac7:	ff ff ff 
    eaca:	48 8b 85 18 f4 ff ff 	mov    -0xbe8(%rbp),%rax
    ead1:	0f b6 00             	movzbl (%rax),%eax
    ead4:	0f be d8             	movsbl %al,%ebx
    ead7:	b8 ff ff ff ff       	mov    $0xffffffff,%eax
    eadc:	0f b6 c0             	movzbl %al,%eax
    eadf:	89 c6                	mov    %eax,%esi
    eae1:	bf 07 00 00 00       	mov    $0x7,%edi
    eae6:	e8 8d 70 ff ff       	callq  5b78 <safe_sub_func_uint8_t_u_u>
    eaeb:	48 8b 85 d0 f6 ff ff 	mov    -0x930(%rbp),%rax
    eaf2:	48 8b 00             	mov    (%rax),%rax
    eaf5:	48 8d 48 01          	lea    0x1(%rax),%rcx
    eaf9:	48 8b 95 d0 f6 ff ff 	mov    -0x930(%rbp),%rdx
    eb00:	48 89 0a             	mov    %rcx,(%rdx)
    eb03:	48 0f be 95 3d f4 ff 	movsbq -0xbc3(%rbp),%rdx
    eb0a:	ff 
    eb0b:	48 39 d0             	cmp    %rdx,%rax
    eb0e:	0f 93 c0             	setae  %al
    eb11:	0f b6 c0             	movzbl %al,%eax
    eb14:	89 de                	mov    %ebx,%esi
    eb16:	89 c7                	mov    %eax,%edi
    eb18:	e8 14 67 ff ff       	callq  5231 <safe_mod_func_int8_t_s_s>
    eb1d:	0f b6 85 3d f4 ff ff 	movzbl -0xbc3(%rbp),%eax
    eb24:	0f b6 c0             	movzbl %al,%eax
    eb27:	be fb 00 00 00       	mov    $0xfb,%esi
    eb2c:	89 c7                	mov    %eax,%edi
    eb2e:	e8 45 70 ff ff       	callq  5b78 <safe_sub_func_uint8_t_u_u>
    eb33:	0f b6 c0             	movzbl %al,%eax
    eb36:	be 09 00 00 00       	mov    $0x9,%esi
    eb3b:	89 c7                	mov    %eax,%edi
    eb3d:	e8 fb 71 ff ff       	callq  5d3d <safe_mul_func_uint16_t_u_u>
    eb42:	0f b6 c0             	movzbl %al,%eax
    eb45:	be 16 00 00 00       	mov    $0x16,%esi
    eb4a:	89 c7                	mov    %eax,%edi
    eb4c:	e8 42 70 ff ff       	callq  5b93 <safe_mul_func_uint8_t_u_u>
    eb51:	0a 85 3d f4 ff ff    	or     -0xbc3(%rbp),%al
    eb57:	0f be d0             	movsbl %al,%edx
    eb5a:	48 8b 85 28 f5 ff ff 	mov    -0xad8(%rbp),%rax
    eb61:	0f b6 8d 3d f4 ff ff 	movzbl -0xbc3(%rbp),%ecx
    eb68:	88 08                	mov    %cl,(%rax)
    eb6a:	48 8b 85 28 f5 ff ff 	mov    -0xad8(%rbp),%rax
    eb71:	0f b6 00             	movzbl (%rax),%eax
    eb74:	0f be c0             	movsbl %al,%eax
    eb77:	89 d6                	mov    %edx,%esi
    eb79:	89 c7                	mov    %eax,%edi
    eb7b:	e8 92 66 ff ff       	callq  5212 <safe_mul_func_int8_t_s_s>
    eb80:	0f be c0             	movsbl %al,%eax
    eb83:	89 c6                	mov    %eax,%esi
    eb85:	bf 00 00 00 00       	mov    $0x0,%edi
    eb8a:	e8 83 66 ff ff       	callq  5212 <safe_mul_func_int8_t_s_s>
    eb8f:	84 c0                	test   %al,%al
    eb91:	74 1a                	je     ebad <func_35+0x3492>
    eb93:	48 8d 05 55 ac 00 00 	lea    0xac55(%rip),%rax        # 197ef <g_805>
    eb9a:	48 89 85 00 f7 ff ff 	mov    %rax,-0x900(%rbp)
    eba1:	48 8b 85 00 f7 ff ff 	mov    -0x900(%rbp),%rax
    eba8:	e9 f4 01 00 00       	jmpq   eda1 <func_35+0x3686>
    ebad:	48 c7 85 20 f5 ff ff 	movq   $0xffffffffffffffff,-0xae0(%rbp)
    ebb4:	ff ff ff ff 
    ebb8:	48 8d 85 e8 f4 ff ff 	lea    -0xb18(%rbp),%rax
    ebbf:	48 89 85 e8 f6 ff ff 	mov    %rax,-0x918(%rbp)
    ebc6:	c7 85 d8 f4 ff ff e6 	movl   $0x379ceae6,-0xb28(%rbp)
    ebcd:	ea 9c 37 
    ebd0:	c7 85 68 f4 ff ff 00 	movl   $0x0,-0xb98(%rbp)
    ebd7:	00 00 00 
    ebda:	eb 1e                	jmp    ebfa <func_35+0x34df>
    ebdc:	8b 85 68 f4 ff ff    	mov    -0xb98(%rbp),%eax
    ebe2:	48 98                	cltq   
    ebe4:	48 8d 15 95 ab 00 00 	lea    0xab95(%rip),%rdx        # 19780 <g_267>
    ebeb:	48 89 94 c5 f0 fc ff 	mov    %rdx,-0x310(%rbp,%rax,8)
    ebf2:	ff 
    ebf3:	83 85 68 f4 ff ff 01 	addl   $0x1,-0xb98(%rbp)
    ebfa:	83 bd 68 f4 ff ff 06 	cmpl   $0x6,-0xb98(%rbp)
    ec01:	7e d9                	jle    ebdc <func_35+0x34c1>
    ec03:	66 c7 05 3a aa 00 00 	movw   $0x0,0xaa3a(%rip)        # 19646 <g_224>
    ec0a:	00 00 
    ec0c:	eb 49                	jmp    ec57 <func_35+0x353c>
    ec0e:	48 8d 05 33 c5 00 00 	lea    0xc533(%rip),%rax        # 1b148 <g_83+0x8>
    ec15:	48 89 85 f0 f6 ff ff 	mov    %rax,-0x910(%rbp)
    ec1c:	48 8d 05 75 d0 00 00 	lea    0xd075(%rip),%rax        # 1bc98 <g_163>
    ec23:	48 89 85 f8 f6 ff ff 	mov    %rax,-0x908(%rbp)
    ec2a:	48 8b 85 f8 f6 ff ff 	mov    -0x908(%rbp),%rax
    ec31:	48 8d 15 18 a8 00 00 	lea    0xa818(%rip),%rdx        # 19450 <g_142>
    ec38:	48 89 10             	mov    %rdx,(%rax)
    ec3b:	48 c7 85 20 f5 ff ff 	movq   $0x1,-0xae0(%rbp)
    ec42:	01 00 00 00 
    ec46:	0f b7 05 f9 a9 00 00 	movzwl 0xa9f9(%rip),%eax        # 19646 <g_224>
    ec4d:	83 e8 01             	sub    $0x1,%eax
    ec50:	66 89 05 ef a9 00 00 	mov    %ax,0xa9ef(%rip)        # 19646 <g_224>
    ec57:	0f b7 05 e8 a9 00 00 	movzwl 0xa9e8(%rip),%eax        # 19646 <g_224>
    ec5e:	66 83 f8 f5          	cmp    $0xfff5,%ax
    ec62:	7c aa                	jl     ec0e <func_35+0x34f3>
    ec64:	8b 85 48 f4 ff ff    	mov    -0xbb8(%rbp),%eax
    ec6a:	0f b7 d8             	movzwl %ax,%ebx
    ec6d:	0f b6 05 04 ab 00 00 	movzbl 0xab04(%rip),%eax        # 19778 <g_266>
    ec74:	0f b6 d0             	movzbl %al,%edx
    ec77:	48 83 bd 20 f5 ff ff 	cmpq   $0x0,-0xae0(%rbp)
    ec7e:	00 
    ec7f:	0f 84 8a 00 00 00    	je     ed0f <func_35+0x35f4>
    ec85:	c7 85 44 f4 ff ff fb 	movl   $0xfffffffb,-0xbbc(%rbp)
    ec8c:	ff ff ff 
    ec8f:	48 8d 05 12 c5 00 00 	lea    0xc512(%rip),%rax        # 1b1a8 <g_782>
    ec96:	48 89 85 d8 f6 ff ff 	mov    %rax,-0x928(%rbp)
    ec9d:	48 8b 85 d8 f6 ff ff 	mov    -0x928(%rbp),%rax
    eca4:	48 3b 85 e0 f6 ff ff 	cmp    -0x920(%rbp),%rax
    ecab:	8b 8d 84 f7 ff ff    	mov    -0x87c(%rbp),%ecx
    ecb1:	8b 05 1d d0 00 00    	mov    0xd01d(%rip),%eax        # 1bcd4 <g_594+0x14>
    ecb7:	f7 d0                	not    %eax
    ecb9:	89 c6                	mov    %eax,%esi
    ecbb:	48 83 bd e8 f6 ff ff 	cmpq   $0x0,-0x918(%rbp)
    ecc2:	00 
    ecc3:	74 13                	je     ecd8 <func_35+0x35bd>
    ecc5:	48 8b 05 ec cf 00 00 	mov    0xcfec(%rip),%rax        # 1bcb8 <g_565>
    eccc:	48 85 c0             	test   %rax,%rax
    eccf:	74 07                	je     ecd8 <func_35+0x35bd>
    ecd1:	b8 01 00 00 00       	mov    $0x1,%eax
    ecd6:	eb 05                	jmp    ecdd <func_35+0x35c2>
    ecd8:	b8 00 00 00 00       	mov    $0x0,%eax
    ecdd:	83 f0 fb             	xor    $0xfffffffb,%eax
    ece0:	39 c6                	cmp    %eax,%esi
    ece2:	0f 95 c0             	setne  %al
    ece5:	0f b6 c0             	movzbl %al,%eax
    ece8:	39 c1                	cmp    %eax,%ecx
    ecea:	48 8b 05 b7 c4 00 00 	mov    0xc4b7(%rip),%rax        # 1b1a8 <g_782>
    ecf1:	48 8b 00             	mov    (%rax),%rax
    ecf4:	48 8b 00             	mov    (%rax),%rax
    ecf7:	48 8b 00             	mov    (%rax),%rax
    ecfa:	66 c7 00 01 00       	movw   $0x1,(%rax)
    ecff:	83 bd d8 f4 ff ff 00 	cmpl   $0x0,-0xb28(%rbp)
    ed06:	74 07                	je     ed0f <func_35+0x35f4>
    ed08:	b9 01 00 00 00       	mov    $0x1,%ecx
    ed0d:	eb 05                	jmp    ed14 <func_35+0x35f9>
    ed0f:	b9 00 00 00 00       	mov    $0x0,%ecx
    ed14:	48 8b 85 28 f4 ff ff 	mov    -0xbd8(%rbp),%rax
    ed1b:	48 8b 00             	mov    (%rax),%rax
    ed1e:	8b 00                	mov    (%rax),%eax
    ed20:	39 c1                	cmp    %eax,%ecx
    ed22:	0f 9d c0             	setge  %al
    ed25:	0f b6 c0             	movzbl %al,%eax
    ed28:	89 d6                	mov    %edx,%esi
    ed2a:	89 c7                	mov    %eax,%edi
    ed2c:	e8 62 6e ff ff       	callq  5b93 <safe_mul_func_uint8_t_u_u>
    ed31:	0f b6 d0             	movzbl %al,%edx
    ed34:	0f be 85 3d f4 ff ff 	movsbl -0xbc3(%rbp),%eax
    ed3b:	39 c2                	cmp    %eax,%edx
    ed3d:	b8 b0 bc b8 79       	mov    $0x79b8bcb0,%eax
    ed42:	0f b7 c0             	movzwl %ax,%eax
    ed45:	89 de                	mov    %ebx,%esi
    ed47:	89 c7                	mov    %eax,%edi
    ed49:	e8 b1 6f ff ff       	callq  5cff <safe_add_func_uint16_t_u_u>
    ed4e:	8b 95 48 fb ff ff    	mov    -0x4b8(%rbp),%edx
    ed54:	0f b7 c0             	movzwl %ax,%eax
    ed57:	21 d0                	and    %edx,%eax
    ed59:	89 85 48 fb ff ff    	mov    %eax,-0x4b8(%rbp)
    ed5f:	48 8b 85 20 f4 ff ff 	mov    -0xbe0(%rbp),%rax
    ed66:	8b 00                	mov    (%rax),%eax
    ed68:	85 c0                	test   %eax,%eax
    ed6a:	75 2d                	jne    ed99 <func_35+0x367e>
    ed6c:	0f be 85 3d f4 ff ff 	movsbl -0xbc3(%rbp),%eax
    ed73:	89 85 64 fb ff ff    	mov    %eax,-0x49c(%rbp)
    ed79:	8b 05 d1 a6 00 00    	mov    0xa6d1(%rip),%eax        # 19450 <g_142>
    ed7f:	83 e8 01             	sub    $0x1,%eax
    ed82:	89 05 c8 a6 00 00    	mov    %eax,0xa6c8(%rip)        # 19450 <g_142>
    ed88:	8b 05 c2 a6 00 00    	mov    0xa6c2(%rip),%eax        # 19450 <g_142>
    ed8e:	83 f8 e2             	cmp    $0xffffffe2,%eax
    ed91:	0f 85 8a fc ff ff    	jne    ea21 <func_35+0x3306>
    ed97:	eb 01                	jmp    ed9a <func_35+0x367f>
    ed99:	90                   	nop
    ed9a:	48 8b 85 28 f5 ff ff 	mov    -0xad8(%rbp),%rax
    eda1:	48 8b 5d c8          	mov    -0x38(%rbp),%rbx
    eda5:	64 48 33 1c 25 28 00 	xor    %fs:0x28,%rbx
    edac:	00 00 
    edae:	74 05                	je     edb5 <func_35+0x369a>
    edb0:	e8 bb 62 ff ff       	callq  5070 <__stack_chk_fail@plt>
    edb5:	48 81 c4 c8 0b 00 00 	add    $0xbc8,%rsp
    edbc:	5b                   	pop    %rbx
    edbd:	41 5c                	pop    %r12
    edbf:	41 5d                	pop    %r13
    edc1:	41 5e                	pop    %r14
    edc3:	41 5f                	pop    %r15
    edc5:	5d                   	pop    %rbp
    edc6:	c3                   	retq   

000000000000edc7 <func_39>:
    edc7:	f3 0f 1e fa          	endbr64 
    edcb:	55                   	push   %rbp
    edcc:	48 89 e5             	mov    %rsp,%rbp
    edcf:	41 56                	push   %r14
    edd1:	41 55                	push   %r13
    edd3:	41 54                	push   %r12
    edd5:	53                   	push   %rbx
    edd6:	48 81 ec 90 00 00 00 	sub    $0x90,%rsp
    eddd:	48 89 bd 78 ff ff ff 	mov    %rdi,-0x88(%rbp)
    ede4:	89 f0                	mov    %esi,%eax
    ede6:	48 89 95 68 ff ff ff 	mov    %rdx,-0x98(%rbp)
    eded:	48 89 8d 60 ff ff ff 	mov    %rcx,-0xa0(%rbp)
    edf4:	4c 89 85 58 ff ff ff 	mov    %r8,-0xa8(%rbp)
    edfb:	66 89 85 74 ff ff ff 	mov    %ax,-0x8c(%rbp)
    ee02:	64 48 8b 04 25 28 00 	mov    %fs:0x28,%rax
    ee09:	00 00 
    ee0b:	48 89 45 d8          	mov    %rax,-0x28(%rbp)
    ee0f:	31 c0                	xor    %eax,%eax
    ee11:	66 c7 45 8c 08 00    	movw   $0x8,-0x74(%rbp)
    ee17:	66 c7 45 8e 01 00    	movw   $0x1,-0x72(%rbp)
    ee1d:	48 b8 1e b7 ce 57 8c 	movabs $0xa0832f8c57ceb71e,%rax
    ee24:	2f 83 a0 
    ee27:	48 89 45 a0          	mov    %rax,-0x60(%rbp)
    ee2b:	48 89 45 a8          	mov    %rax,-0x58(%rbp)
    ee2f:	48 89 45 b0          	mov    %rax,-0x50(%rbp)
    ee33:	48 89 45 b8          	mov    %rax,-0x48(%rbp)
    ee37:	48 89 45 c0          	mov    %rax,-0x40(%rbp)
    ee3b:	48 89 45 c8          	mov    %rax,-0x38(%rbp)
    ee3f:	48 89 45 d0          	mov    %rax,-0x30(%rbp)
    ee43:	48 8d 05 6e ce 00 00 	lea    0xce6e(%rip),%rax        # 1bcb8 <g_565>
    ee4a:	48 89 45 90          	mov    %rax,-0x70(%rbp)
    ee4e:	48 8d 05 4b c3 00 00 	lea    0xc34b(%rip),%rax        # 1b1a0 <g_614>
    ee55:	48 89 45 98          	mov    %rax,-0x68(%rbp)
    ee59:	0f b6 05 08 a9 00 00 	movzbl 0xa908(%rip),%eax        # 19768 <g_263>
    ee60:	0f b6 d8             	movzbl %al,%ebx
    ee63:	0f b6 05 06 a9 00 00 	movzbl 0xa906(%rip),%eax        # 19770 <g_265>
    ee6a:	44 0f b6 e0          	movzbl %al,%r12d
    ee6e:	0f b7 05 53 a9 00 00 	movzwl 0xa953(%rip),%eax        # 197c8 <g_700>
    ee75:	4c 0f bf e8          	movswq %ax,%r13
    ee79:	48 8b 55 c0          	mov    -0x40(%rbp),%rdx
    ee7d:	48 8b 45 a8          	mov    -0x58(%rbp),%rax
    ee81:	48 39 c2             	cmp    %rax,%rdx
    ee84:	0f 93 c0             	setae  %al
    ee87:	0f b6 c0             	movzbl %al,%eax
    ee8a:	be 00 00 00 00       	mov    $0x0,%esi
    ee8f:	89 c7                	mov    %eax,%edi
    ee91:	e8 4b 66 ff ff       	callq  54e1 <safe_lshift_func_int16_t_s_u>
    ee96:	66 83 7d 8c 00       	cmpw   $0x0,-0x74(%rbp)
    ee9b:	75 55                	jne    eef2 <func_39+0x12b>
    ee9d:	8b 05 1d ce 00 00    	mov    0xce1d(%rip),%eax        # 1bcc0 <g_594>
    eea3:	41 89 c6             	mov    %eax,%r14d
    eea6:	0f b7 85 74 ff ff ff 	movzwl -0x8c(%rbp),%eax
    eead:	89 c2                	mov    %eax,%edx
    eeaf:	0f b7 05 22 a9 00 00 	movzwl 0xa922(%rip),%eax        # 197d8 <g_703>
    eeb6:	31 d0                	xor    %edx,%eax
    eeb8:	0f be c0             	movsbl %al,%eax
    eebb:	be ce ff ff ff       	mov    $0xffffffce,%esi
    eec0:	89 c7                	mov    %eax,%edi
    eec2:	e8 a3 63 ff ff       	callq  526a <safe_div_func_int8_t_s_s>
    eec7:	48 8b 55 90          	mov    -0x70(%rbp),%rdx
    eecb:	48 8b 12             	mov    (%rdx),%rdx
    eece:	48 0f be c0          	movsbq %al,%rax
    eed2:	48 09 c2             	or     %rax,%rdx
    eed5:	48 8b 45 90          	mov    -0x70(%rbp),%rax
    eed9:	48 89 10             	mov    %rdx,(%rax)
    eedc:	0f b7 45 8c          	movzwl -0x74(%rbp),%eax
    eee0:	0f b7 c0             	movzwl %ax,%eax
    eee3:	44 89 f6             	mov    %r14d,%esi
    eee6:	89 c7                	mov    %eax,%edi
    eee8:	e8 19 6f ff ff       	callq  5e06 <safe_lshift_func_uint16_t_u_u>
    eeed:	66 85 c0             	test   %ax,%ax
    eef0:	74 07                	je     eef9 <func_39+0x132>
    eef2:	b8 01 00 00 00       	mov    $0x1,%eax
    eef7:	eb 05                	jmp    eefe <func_39+0x137>
    eef9:	b8 00 00 00 00       	mov    $0x0,%eax
    eefe:	85 c0                	test   %eax,%eax
    ef00:	75 0a                	jne    ef0c <func_39+0x145>
    ef02:	66 83 bd 74 ff ff ff 	cmpw   $0x0,-0x8c(%rbp)
    ef09:	00 
    ef0a:	74 07                	je     ef13 <func_39+0x14c>
    ef0c:	b8 01 00 00 00       	mov    $0x1,%eax
    ef11:	eb 05                	jmp    ef18 <func_39+0x151>
    ef13:	b8 00 00 00 00       	mov    $0x0,%eax
    ef18:	89 c2                	mov    %eax,%edx
    ef1a:	48 8b 85 68 ff ff ff 	mov    -0x98(%rbp),%rax
    ef21:	09 d0                	or     %edx,%eax
    ef23:	0f b6 c0             	movzbl %al,%eax
    ef26:	be ff 00 00 00       	mov    $0xff,%esi
    ef2b:	89 c7                	mov    %eax,%edi
    ef2d:	e8 61 6c ff ff       	callq  5b93 <safe_mul_func_uint8_t_u_u>
    ef32:	0f b7 55 8e          	movzwl -0x72(%rbp),%edx
    ef36:	0f b7 05 53 a8 00 00 	movzwl 0xa853(%rip),%eax        # 19790 <g_299>
    ef3d:	66 85 c0             	test   %ax,%ax
    ef40:	0f 94 c0             	sete   %al
    ef43:	0f b6 c0             	movzbl %al,%eax
    ef46:	39 c2                	cmp    %eax,%edx
    ef48:	0f 9d c0             	setge  %al
    ef4b:	0f b6 c0             	movzbl %al,%eax
    ef4e:	be ce ff ff ff       	mov    $0xffffffce,%esi
    ef53:	89 c7                	mov    %eax,%edi
    ef55:	e8 b8 62 ff ff       	callq  5212 <safe_mul_func_int8_t_s_s>
    ef5a:	66 98                	cbtw   
    ef5c:	66 39 45 8c          	cmp    %ax,-0x74(%rbp)
    ef60:	0f 95 c0             	setne  %al
    ef63:	0f b6 c0             	movzbl %al,%eax
    ef66:	48 0b 85 68 ff ff ff 	or     -0x98(%rbp),%rax
    ef6d:	49 39 c5             	cmp    %rax,%r13
    ef70:	0f 92 c0             	setb   %al
    ef73:	89 c2                	mov    %eax,%edx
    ef75:	0f b7 05 e2 a7 00 00 	movzwl 0xa7e2(%rip),%eax        # 1975e <g_234>
    ef7c:	31 d0                	xor    %edx,%eax
    ef7e:	0f b6 c0             	movzbl %al,%eax
    ef81:	44 89 e6             	mov    %r12d,%esi
    ef84:	89 c7                	mov    %eax,%edi
    ef86:	e8 33 6d ff ff       	callq  5cbe <safe_rshift_func_uint8_t_u_u>
    ef8b:	0f b6 c0             	movzbl %al,%eax
    ef8e:	89 de                	mov    %ebx,%esi
    ef90:	89 c7                	mov    %eax,%edi
    ef92:	e8 f6 6c ff ff       	callq  5c8d <safe_rshift_func_uint8_t_u_s>
    ef97:	0f b6 c0             	movzbl %al,%eax
    ef9a:	be 05 00 00 00       	mov    $0x5,%esi
    ef9f:	89 c7                	mov    %eax,%edi
    efa1:	e8 84 65 ff ff       	callq  552a <safe_rshift_func_int16_t_s_s>
    efa6:	66 83 bd 74 ff ff ff 	cmpw   $0x0,-0x8c(%rbp)
    efad:	00 
    efae:	48 8b 45 a0          	mov    -0x60(%rbp),%rax
    efb2:	48 85 c0             	test   %rax,%rax
    efb5:	75 0a                	jne    efc1 <func_39+0x1fa>
    efb7:	48 83 bd 68 ff ff ff 	cmpq   $0x0,-0x98(%rbp)
    efbe:	00 
    efbf:	74 07                	je     efc8 <func_39+0x201>
    efc1:	ba 01 00 00 00       	mov    $0x1,%edx
    efc6:	eb 05                	jmp    efcd <func_39+0x206>
    efc8:	ba 00 00 00 00       	mov    $0x0,%edx
    efcd:	48 8b 85 58 ff ff ff 	mov    -0xa8(%rbp),%rax
    efd4:	89 10                	mov    %edx,(%rax)
    efd6:	48 8b 45 98          	mov    -0x68(%rbp),%rax
    efda:	48 8b 4d d8          	mov    -0x28(%rbp),%rcx
    efde:	64 48 33 0c 25 28 00 	xor    %fs:0x28,%rcx
    efe5:	00 00 
    efe7:	74 05                	je     efee <func_39+0x227>
    efe9:	e8 82 60 ff ff       	callq  5070 <__stack_chk_fail@plt>
    efee:	48 81 c4 90 00 00 00 	add    $0x90,%rsp
    eff5:	5b                   	pop    %rbx
    eff6:	41 5c                	pop    %r12
    eff8:	41 5d                	pop    %r13
    effa:	41 5e                	pop    %r14
    effc:	5d                   	pop    %rbp
    effd:	c3                   	retq   

000000000000effe <func_45>:
    effe:	f3 0f 1e fa          	endbr64 
    f002:	55                   	push   %rbp
    f003:	48 89 e5             	mov    %rsp,%rbp
    f006:	41 57                	push   %r15
    f008:	41 56                	push   %r14
    f00a:	41 55                	push   %r13
    f00c:	41 54                	push   %r12
    f00e:	53                   	push   %rbx
    f00f:	48 81 ec 98 08 00 00 	sub    $0x898,%rsp
    f016:	48 89 bd 48 f7 ff ff 	mov    %rdi,-0x8b8(%rbp)
    f01d:	48 89 b5 40 f7 ff ff 	mov    %rsi,-0x8c0(%rbp)
    f024:	64 48 8b 04 25 28 00 	mov    %fs:0x28,%rax
    f02b:	00 00 
    f02d:	48 89 45 c8          	mov    %rax,-0x38(%rbp)
    f031:	31 c0                	xor    %eax,%eax
    f033:	c6 85 54 f7 ff ff f3 	movb   $0xf3,-0x8ac(%rbp)
    f03a:	48 8d 05 7f a7 00 00 	lea    0xa77f(%rip),%rax        # 197c0 <g_632>
    f041:	48 89 85 88 f7 ff ff 	mov    %rax,-0x878(%rbp)
    f048:	48 8d 85 60 f9 ff ff 	lea    -0x6a0(%rbp),%rax
    f04f:	48 83 c0 10          	add    $0x10,%rax
    f053:	48 89 85 90 f7 ff ff 	mov    %rax,-0x870(%rbp)
    f05a:	48 8d 85 90 f7 ff ff 	lea    -0x870(%rbp),%rax
    f061:	48 89 85 b0 f7 ff ff 	mov    %rax,-0x850(%rbp)
    f068:	48 8d 05 21 c1 00 00 	lea    0xc121(%rip),%rax        # 1b190 <g_395>
    f06f:	48 89 85 b8 f7 ff ff 	mov    %rax,-0x848(%rbp)
    f076:	48 8d 05 4f cc 00 00 	lea    0xcc4f(%rip),%rax        # 1bccc <g_594+0xc>
    f07d:	48 89 85 98 f7 ff ff 	mov    %rax,-0x868(%rbp)
    f084:	48 8d 85 98 f7 ff ff 	lea    -0x868(%rbp),%rax
    f08b:	48 89 85 c0 f7 ff ff 	mov    %rax,-0x840(%rbp)
    f092:	c7 85 58 f7 ff ff 02 	movl   $0x2,-0x8a8(%rbp)
    f099:	00 00 00 
    f09c:	c6 85 55 f7 ff ff 03 	movb   $0x3,-0x8ab(%rbp)
    f0a3:	c7 85 5c f7 ff ff ff 	movl   $0xffffffff,-0x8a4(%rbp)
    f0aa:	ff ff ff 
    f0ad:	c7 85 50 f8 ff ff f9 	movl   $0xfffffff9,-0x7b0(%rbp)
    f0b4:	ff ff ff 
    f0b7:	c7 85 54 f8 ff ff f9 	movl   $0xfffffff9,-0x7ac(%rbp)
    f0be:	ff ff ff 
    f0c1:	c7 85 58 f8 ff ff ff 	movl   $0xffffffff,-0x7a8(%rbp)
    f0c8:	ff ff ff 
    f0cb:	c7 85 5c f8 ff ff f9 	movl   $0xfffffff9,-0x7a4(%rbp)
    f0d2:	ff ff ff 
    f0d5:	c7 85 60 f8 ff ff f9 	movl   $0xfffffff9,-0x7a0(%rbp)
    f0dc:	ff ff ff 
    f0df:	c7 85 64 f8 ff ff ff 	movl   $0xffffffff,-0x79c(%rbp)
    f0e6:	ff ff ff 
    f0e9:	c7 85 70 f7 ff ff 09 	movl   $0x9,-0x890(%rbp)
    f0f0:	00 00 00 
    f0f3:	48 8d 85 60 fc ff ff 	lea    -0x3a0(%rbp),%rax
    f0fa:	48 8d 15 9f 68 00 00 	lea    0x689f(%rip),%rdx        # 159a0 <g_1978+0x920>
    f101:	b9 6c 00 00 00       	mov    $0x6c,%ecx
    f106:	48 89 c7             	mov    %rax,%rdi
    f109:	48 89 d6             	mov    %rdx,%rsi
    f10c:	f3 48 a5             	rep movsq %ds:(%rsi),%es:(%rdi)
    f10f:	c7 85 64 f7 ff ff 00 	movl   $0x0,-0x89c(%rbp)
    f116:	00 00 00 
    f119:	eb 52                	jmp    f16d <func_45+0x16f>
    f11b:	c7 85 68 f7 ff ff 00 	movl   $0x0,-0x898(%rbp)
    f122:	00 00 00 
    f125:	eb 36                	jmp    f15d <func_45+0x15f>
    f127:	8b 85 68 f7 ff ff    	mov    -0x898(%rbp),%eax
    f12d:	48 63 c8             	movslq %eax,%rcx
    f130:	8b 85 64 f7 ff ff    	mov    -0x89c(%rbp),%eax
    f136:	48 63 d0             	movslq %eax,%rdx
    f139:	48 89 d0             	mov    %rdx,%rax
    f13c:	48 c1 e0 03          	shl    $0x3,%rax
    f140:	48 01 d0             	add    %rdx,%rax
    f143:	48 8d 14 08          	lea    (%rax,%rcx,1),%rdx
    f147:	48 8d 85 88 f7 ff ff 	lea    -0x878(%rbp),%rax
    f14e:	48 89 84 d5 60 f9 ff 	mov    %rax,-0x6a0(%rbp,%rdx,8)
    f155:	ff 
    f156:	83 85 68 f7 ff ff 01 	addl   $0x1,-0x898(%rbp)
    f15d:	83 bd 68 f7 ff ff 08 	cmpl   $0x8,-0x898(%rbp)
    f164:	7e c1                	jle    f127 <func_45+0x129>
    f166:	83 85 64 f7 ff ff 01 	addl   $0x1,-0x89c(%rbp)
    f16d:	83 bd 64 f7 ff ff 00 	cmpl   $0x0,-0x89c(%rbp)
    f174:	7e a5                	jle    f11b <func_45+0x11d>
    f176:	66 c7 05 b9 9e 00 00 	movw   $0xfff8,0x9eb9(%rip)        # 19038 <g_90>
    f17d:	f8 ff 
    f17f:	e9 68 0b 00 00       	jmpq   fcec <func_45+0xcee>
    f184:	48 8d 05 fd c6 00 00 	lea    0xc6fd(%rip),%rax        # 1b888 <g_2>
    f18b:	48 89 85 c8 f7 ff ff 	mov    %rax,-0x838(%rbp)
    f192:	48 8d 05 ad a4 00 00 	lea    0xa4ad(%rip),%rax        # 19646 <g_224>
    f199:	48 89 85 d0 f7 ff ff 	mov    %rax,-0x830(%rbp)
    f1a0:	48 c7 85 d8 f7 ff ff 	movq   $0x0,-0x828(%rbp)
    f1a7:	00 00 00 00 
    f1ab:	48 c7 85 e0 f7 ff ff 	movq   $0x0,-0x820(%rbp)
    f1b2:	00 00 00 00 
    f1b6:	48 c7 85 e8 f7 ff ff 	movq   $0x0,-0x818(%rbp)
    f1bd:	00 00 00 00 
    f1c1:	c7 85 60 f7 ff ff ff 	movl   $0xffffffff,-0x8a0(%rbp)
    f1c8:	ff ff ff 
    f1cb:	48 8d 05 ee ca 00 00 	lea    0xcaee(%rip),%rax        # 1bcc0 <g_594>
    f1d2:	48 89 85 a0 f7 ff ff 	mov    %rax,-0x860(%rbp)
    f1d9:	48 c7 85 b0 f9 ff ff 	movq   $0x0,-0x650(%rbp)
    f1e0:	00 00 00 00 
    f1e4:	48 c7 85 b8 f9 ff ff 	movq   $0x0,-0x648(%rbp)
    f1eb:	00 00 00 00 
    f1ef:	48 c7 85 c0 f9 ff ff 	movq   $0x0,-0x640(%rbp)
    f1f6:	00 00 00 00 
    f1fa:	48 c7 85 c8 f9 ff ff 	movq   $0x0,-0x638(%rbp)
    f201:	00 00 00 00 
    f205:	48 c7 85 d0 f9 ff ff 	movq   $0x0,-0x630(%rbp)
    f20c:	00 00 00 00 
    f210:	48 c7 85 d8 f9 ff ff 	movq   $0x0,-0x628(%rbp)
    f217:	00 00 00 00 
    f21b:	48 c7 85 e0 f9 ff ff 	movq   $0x0,-0x620(%rbp)
    f222:	00 00 00 00 
    f226:	48 8d 85 a0 f7 ff ff 	lea    -0x860(%rbp),%rax
    f22d:	48 89 85 e8 f9 ff ff 	mov    %rax,-0x618(%rbp)
    f234:	48 8d 85 a0 f7 ff ff 	lea    -0x860(%rbp),%rax
    f23b:	48 89 85 f0 f9 ff ff 	mov    %rax,-0x610(%rbp)
    f242:	48 8d 85 a0 f7 ff ff 	lea    -0x860(%rbp),%rax
    f249:	48 89 85 f8 f9 ff ff 	mov    %rax,-0x608(%rbp)
    f250:	48 8d 85 a0 f7 ff ff 	lea    -0x860(%rbp),%rax
    f257:	48 89 85 00 fa ff ff 	mov    %rax,-0x600(%rbp)
    f25e:	48 8d 85 a0 f7 ff ff 	lea    -0x860(%rbp),%rax
    f265:	48 89 85 08 fa ff ff 	mov    %rax,-0x5f8(%rbp)
    f26c:	48 8d 85 a0 f7 ff ff 	lea    -0x860(%rbp),%rax
    f273:	48 89 85 10 fa ff ff 	mov    %rax,-0x5f0(%rbp)
    f27a:	48 8d 85 a0 f7 ff ff 	lea    -0x860(%rbp),%rax
    f281:	48 89 85 18 fa ff ff 	mov    %rax,-0x5e8(%rbp)
    f288:	48 c7 85 20 fa ff ff 	movq   $0x0,-0x5e0(%rbp)
    f28f:	00 00 00 00 
    f293:	48 c7 85 28 fa ff ff 	movq   $0x0,-0x5d8(%rbp)
    f29a:	00 00 00 00 
    f29e:	48 c7 85 30 fa ff ff 	movq   $0x0,-0x5d0(%rbp)
    f2a5:	00 00 00 00 
    f2a9:	48 c7 85 38 fa ff ff 	movq   $0x0,-0x5c8(%rbp)
    f2b0:	00 00 00 00 
    f2b4:	48 c7 85 40 fa ff ff 	movq   $0x0,-0x5c0(%rbp)
    f2bb:	00 00 00 00 
    f2bf:	48 c7 85 48 fa ff ff 	movq   $0x0,-0x5b8(%rbp)
    f2c6:	00 00 00 00 
    f2ca:	48 c7 85 50 fa ff ff 	movq   $0x0,-0x5b0(%rbp)
    f2d1:	00 00 00 00 
    f2d5:	48 8d 85 a0 f7 ff ff 	lea    -0x860(%rbp),%rax
    f2dc:	48 89 85 58 fa ff ff 	mov    %rax,-0x5a8(%rbp)
    f2e3:	48 8d 85 a0 f7 ff ff 	lea    -0x860(%rbp),%rax
    f2ea:	48 89 85 60 fa ff ff 	mov    %rax,-0x5a0(%rbp)
    f2f1:	48 8d 85 a0 f7 ff ff 	lea    -0x860(%rbp),%rax
    f2f8:	48 89 85 68 fa ff ff 	mov    %rax,-0x598(%rbp)
    f2ff:	48 8d 85 a0 f7 ff ff 	lea    -0x860(%rbp),%rax
    f306:	48 89 85 70 fa ff ff 	mov    %rax,-0x590(%rbp)
    f30d:	48 8d 85 a0 f7 ff ff 	lea    -0x860(%rbp),%rax
    f314:	48 89 85 78 fa ff ff 	mov    %rax,-0x588(%rbp)
    f31b:	48 8d 85 a0 f7 ff ff 	lea    -0x860(%rbp),%rax
    f322:	48 89 85 80 fa ff ff 	mov    %rax,-0x580(%rbp)
    f329:	48 8d 85 a0 f7 ff ff 	lea    -0x860(%rbp),%rax
    f330:	48 89 85 88 fa ff ff 	mov    %rax,-0x578(%rbp)
    f337:	48 c7 85 90 fa ff ff 	movq   $0x0,-0x570(%rbp)
    f33e:	00 00 00 00 
    f342:	48 c7 85 98 fa ff ff 	movq   $0x0,-0x568(%rbp)
    f349:	00 00 00 00 
    f34d:	48 c7 85 a0 fa ff ff 	movq   $0x0,-0x560(%rbp)
    f354:	00 00 00 00 
    f358:	48 c7 85 a8 fa ff ff 	movq   $0x0,-0x558(%rbp)
    f35f:	00 00 00 00 
    f363:	48 c7 85 b0 fa ff ff 	movq   $0x0,-0x550(%rbp)
    f36a:	00 00 00 00 
    f36e:	48 c7 85 b8 fa ff ff 	movq   $0x0,-0x548(%rbp)
    f375:	00 00 00 00 
    f379:	48 c7 85 c0 fa ff ff 	movq   $0x0,-0x540(%rbp)
    f380:	00 00 00 00 
    f384:	48 c7 85 f0 f7 ff ff 	movq   $0x0,-0x810(%rbp)
    f38b:	00 00 00 00 
    f38f:	c7 85 74 f7 ff ff 05 	movl   $0x5,-0x88c(%rbp)
    f396:	00 00 00 
    f399:	c7 85 78 f7 ff ff 94 	movl   $0x362c9d94,-0x888(%rbp)
    f3a0:	9d 2c 36 
    f3a3:	c7 85 7c f7 ff ff 01 	movl   $0x1,-0x884(%rbp)
    f3aa:	00 00 00 
    f3ad:	c7 85 70 f8 ff ff ff 	movl   $0xffffffff,-0x790(%rbp)
    f3b4:	ff ff ff 
    f3b7:	c7 85 74 f8 ff ff fc 	movl   $0xf11049fc,-0x78c(%rbp)
    f3be:	49 10 f1 
    f3c1:	c7 85 78 f8 ff ff ff 	movl   $0xffffffff,-0x788(%rbp)
    f3c8:	ff ff ff 
    f3cb:	c7 85 7c f8 ff ff ff 	movl   $0xffffffff,-0x784(%rbp)
    f3d2:	ff ff ff 
    f3d5:	c7 85 80 f8 ff ff fc 	movl   $0xf11049fc,-0x780(%rbp)
    f3dc:	49 10 f1 
    f3df:	c7 85 84 f8 ff ff ff 	movl   $0xffffffff,-0x77c(%rbp)
    f3e6:	ff ff ff 
    f3e9:	c7 85 88 f8 ff ff ff 	movl   $0xffffffff,-0x778(%rbp)
    f3f0:	ff ff ff 
    f3f3:	c7 85 8c f8 ff ff fc 	movl   $0xf11049fc,-0x774(%rbp)
    f3fa:	49 10 f1 
    f3fd:	c7 85 90 f8 ff ff ff 	movl   $0xffffffff,-0x770(%rbp)
    f404:	ff ff ff 
    f407:	c7 85 94 f8 ff ff ff 	movl   $0xffffffff,-0x76c(%rbp)
    f40e:	ff ff ff 
    f411:	48 8b 85 c8 f7 ff ff 	mov    -0x838(%rbp),%rax
    f418:	48 8b 95 48 f7 ff ff 	mov    -0x8b8(%rbp),%rdx
    f41f:	48 89 10             	mov    %rdx,(%rax)
    f422:	48 8b 85 c8 f7 ff ff 	mov    -0x838(%rbp),%rax
    f429:	48 8b 00             	mov    (%rax),%rax
    f42c:	8b 18                	mov    (%rax),%ebx
    f42e:	48 8b 85 c8 f7 ff ff 	mov    -0x838(%rbp),%rax
    f435:	48 8b 00             	mov    (%rax),%rax
    f438:	8b 00                	mov    (%rax),%eax
    f43a:	44 0f bf e0          	movswl %ax,%r12d
    f43e:	48 8b 85 48 f7 ff ff 	mov    -0x8b8(%rbp),%rax
    f445:	44 8b 30             	mov    (%rax),%r14d
    f448:	80 bd 54 f7 ff ff 00 	cmpb   $0x0,-0x8ac(%rbp)
    f44f:	0f 84 fa 00 00 00    	je     f54f <func_45+0x551>
    f455:	48 83 bd b0 f7 ff ff 	cmpq   $0x0,-0x850(%rbp)
    f45c:	00 
    f45d:	74 2c                	je     f48b <func_45+0x48d>
    f45f:	0f be 95 54 f7 ff ff 	movsbl -0x8ac(%rbp),%edx
    f466:	0f b7 05 db a1 00 00 	movzwl 0xa1db(%rip),%eax        # 19648 <g_225>
    f46d:	98                   	cwtl   
    f46e:	89 d6                	mov    %edx,%esi
    f470:	89 c7                	mov    %eax,%edi
    f472:	e8 ae 6a ff ff       	callq  5f25 <safe_div_func_uint32_t_u_u>
    f477:	0f b7 c0             	movzwl %ax,%eax
    f47a:	89 c6                	mov    %eax,%esi
    f47c:	bf 01 00 00 00       	mov    $0x1,%edi
    f481:	e8 99 68 ff ff       	callq  5d1f <safe_sub_func_uint16_t_u_u>
    f486:	66 85 c0             	test   %ax,%ax
    f489:	74 08                	je     f493 <func_45+0x495>
    f48b:	41 bf 01 00 00 00    	mov    $0x1,%r15d
    f491:	eb 06                	jmp    f499 <func_45+0x49b>
    f493:	41 bf 00 00 00 00    	mov    $0x0,%r15d
    f499:	48 8b 85 c8 f7 ff ff 	mov    -0x838(%rbp),%rax
    f4a0:	48 8b 00             	mov    (%rax),%rax
    f4a3:	8b 00                	mov    (%rax),%eax
    f4a5:	44 0f b7 e8          	movzwl %ax,%r13d
    f4a9:	48 8b 85 c8 f7 ff ff 	mov    -0x838(%rbp),%rax
    f4b0:	48 8b 00             	mov    (%rax),%rax
    f4b3:	8b 00                	mov    (%rax),%eax
    f4b5:	0f b6 d0             	movzbl %al,%edx
    f4b8:	48 83 bd b8 f7 ff ff 	cmpq   $0x0,-0x848(%rbp)
    f4bf:	00 
    f4c0:	0f 95 c0             	setne  %al
    f4c3:	0f b6 c0             	movzbl %al,%eax
    f4c6:	89 d6                	mov    %edx,%esi
    f4c8:	89 c7                	mov    %eax,%edi
    f4ca:	e8 c4 66 ff ff       	callq  5b93 <safe_mul_func_uint8_t_u_u>
    f4cf:	84 c0                	test   %al,%al
    f4d1:	75 09                	jne    f4dc <func_45+0x4de>
    f4d3:	b8 00 00 00 00       	mov    $0x0,%eax
    f4d8:	85 c0                	test   %eax,%eax
    f4da:	74 07                	je     f4e3 <func_45+0x4e5>
    f4dc:	b8 01 00 00 00       	mov    $0x1,%eax
    f4e1:	eb 05                	jmp    f4e8 <func_45+0x4ea>
    f4e3:	b8 00 00 00 00       	mov    $0x0,%eax
    f4e8:	0f b7 c0             	movzwl %ax,%eax
    f4eb:	44 89 ee             	mov    %r13d,%esi
    f4ee:	89 c7                	mov    %eax,%edi
    f4f0:	e8 2a 68 ff ff       	callq  5d1f <safe_sub_func_uint16_t_u_u>
    f4f5:	66 85 c0             	test   %ax,%ax
    f4f8:	0f 94 c0             	sete   %al
    f4fb:	0f b6 c0             	movzbl %al,%eax
    f4fe:	44 31 f8             	xor    %r15d,%eax
    f501:	89 c2                	mov    %eax,%edx
    f503:	0f b6 05 ab a1 00 00 	movzbl 0xa1ab(%rip),%eax        # 196b5 <g_226+0x55>
    f50a:	0f be c0             	movsbl %al,%eax
    f50d:	89 d6                	mov    %edx,%esi
    f50f:	89 c7                	mov    %eax,%edi
    f511:	e8 a2 69 ff ff       	callq  5eb8 <safe_add_func_uint32_t_u_u>
    f516:	0f b6 05 96 a2 00 00 	movzbl 0xa296(%rip),%eax        # 197b3 <g_586+0xb>
    f51d:	84 c0                	test   %al,%al
    f51f:	75 17                	jne    f538 <func_45+0x53a>
    f521:	48 8b 85 c8 f7 ff ff 	mov    -0x838(%rbp),%rax
    f528:	48 8b 00             	mov    (%rax),%rax
    f52b:	8b 00                	mov    (%rax),%eax
    f52d:	85 c0                	test   %eax,%eax
    f52f:	74 07                	je     f538 <func_45+0x53a>
    f531:	ba 01 00 00 00       	mov    $0x1,%edx
    f536:	eb 05                	jmp    f53d <func_45+0x53f>
    f538:	ba 00 00 00 00       	mov    $0x0,%edx
    f53d:	0f be 85 54 f7 ff ff 	movsbl -0x8ac(%rbp),%eax
    f544:	39 c2                	cmp    %eax,%edx
    f546:	75 07                	jne    f54f <func_45+0x551>
    f548:	b8 01 00 00 00       	mov    $0x1,%eax
    f54d:	eb 05                	jmp    f554 <func_45+0x556>
    f54f:	b8 00 00 00 00       	mov    $0x0,%eax
    f554:	44 39 f0             	cmp    %r14d,%eax
    f557:	0f 9e c0             	setle  %al
    f55a:	0f b6 d0             	movzbl %al,%edx
    f55d:	48 8b 85 d0 f7 ff ff 	mov    -0x830(%rbp),%rax
    f564:	0f b7 00             	movzwl (%rax),%eax
    f567:	31 c2                	xor    %eax,%edx
    f569:	48 8b 85 d0 f7 ff ff 	mov    -0x830(%rbp),%rax
    f570:	66 89 10             	mov    %dx,(%rax)
    f573:	48 8b 85 d0 f7 ff ff 	mov    -0x830(%rbp),%rax
    f57a:	0f b7 00             	movzwl (%rax),%eax
    f57d:	0f bf d0             	movswl %ax,%edx
    f580:	8b 85 60 f7 ff ff    	mov    -0x8a0(%rbp),%eax
    f586:	09 d0                	or     %edx,%eax
    f588:	89 85 60 f7 ff ff    	mov    %eax,-0x8a0(%rbp)
    f58e:	8b 85 60 f7 ff ff    	mov    -0x8a0(%rbp),%eax
    f594:	98                   	cwtl   
    f595:	44 89 e6             	mov    %r12d,%esi
    f598:	89 c7                	mov    %eax,%edi
    f59a:	e8 77 5e ff ff       	callq  5416 <safe_mod_func_int16_t_s_s>
    f59f:	83 f0 1a             	xor    $0x1a,%eax
    f5a2:	48 0f bf c0          	movswq %ax,%rax
    f5a6:	48 c7 c6 ff ff ff ff 	mov    $0xffffffffffffffff,%rsi
    f5ad:	48 89 c7             	mov    %rax,%rdi
    f5b0:	e8 79 6a ff ff       	callq  602e <safe_add_func_uint64_t_u_u>
    f5b5:	89 de                	mov    %ebx,%esi
    f5b7:	89 c7                	mov    %eax,%edi
    f5b9:	e8 0e 61 ff ff       	callq  56cc <safe_mod_func_int32_t_s_s>
    f5be:	85 c0                	test   %eax,%eax
    f5c0:	0f 84 70 04 00 00    	je     fa36 <func_45+0xa38>
    f5c6:	48 8d 05 87 c5 00 00 	lea    0xc587(%rip),%rax        # 1bb54 <g_98+0x2b4>
    f5cd:	48 89 85 e0 f8 ff ff 	mov    %rax,-0x720(%rbp)
    f5d4:	48 8d 05 7d c6 00 00 	lea    0xc67d(%rip),%rax        # 1bc58 <g_98+0x3b8>
    f5db:	48 89 85 e8 f8 ff ff 	mov    %rax,-0x718(%rbp)
    f5e2:	48 8d 05 6b c5 00 00 	lea    0xc56b(%rip),%rax        # 1bb54 <g_98+0x2b4>
    f5e9:	48 89 85 f0 f8 ff ff 	mov    %rax,-0x710(%rbp)
    f5f0:	48 8d 05 61 c6 00 00 	lea    0xc661(%rip),%rax        # 1bc58 <g_98+0x3b8>
    f5f7:	48 89 85 f8 f8 ff ff 	mov    %rax,-0x708(%rbp)
    f5fe:	48 8d 05 4f c5 00 00 	lea    0xc54f(%rip),%rax        # 1bb54 <g_98+0x2b4>
    f605:	48 89 85 00 f9 ff ff 	mov    %rax,-0x700(%rbp)
    f60c:	48 8d 05 45 c6 00 00 	lea    0xc645(%rip),%rax        # 1bc58 <g_98+0x3b8>
    f613:	48 89 85 08 f9 ff ff 	mov    %rax,-0x6f8(%rbp)
    f61a:	48 8d 05 33 c5 00 00 	lea    0xc533(%rip),%rax        # 1bb54 <g_98+0x2b4>
    f621:	48 89 85 10 f9 ff ff 	mov    %rax,-0x6f0(%rbp)
    f628:	48 8d 05 29 c6 00 00 	lea    0xc629(%rip),%rax        # 1bc58 <g_98+0x3b8>
    f62f:	48 89 85 18 f9 ff ff 	mov    %rax,-0x6e8(%rbp)
    f636:	c7 85 84 f7 ff ff 2c 	movl   $0x4a00db2c,-0x87c(%rbp)
    f63d:	db 00 4a 
    f640:	48 8d 85 b0 f9 ff ff 	lea    -0x650(%rbp),%rax
    f647:	48 83 c0 38          	add    $0x38,%rax
    f64b:	48 89 85 00 f8 ff ff 	mov    %rax,-0x800(%rbp)
    f652:	48 8d 85 a0 f7 ff ff 	lea    -0x860(%rbp),%rax
    f659:	48 89 85 a8 f7 ff ff 	mov    %rax,-0x858(%rbp)
    f660:	48 8d 85 a8 f7 ff ff 	lea    -0x858(%rbp),%rax
    f667:	48 89 85 08 f8 ff ff 	mov    %rax,-0x7f8(%rbp)
    f66e:	48 8d 85 d0 fa ff ff 	lea    -0x530(%rbp),%rax
    f675:	48 8d 15 24 b9 00 00 	lea    0xb924(%rip),%rdx        # 1afa0 <g_2123+0x12b0>
    f67c:	b9 32 00 00 00       	mov    $0x32,%ecx
    f681:	48 89 c7             	mov    %rax,%rdi
    f684:	48 89 d6             	mov    %rdx,%rsi
    f687:	f3 48 a5             	rep movsq %ds:(%rsi),%es:(%rdi)
    f68a:	66 c7 85 56 f7 ff ff 	movw   $0x7be4,-0x8aa(%rbp)
    f691:	e4 7b 
    f693:	48 c7 85 10 f8 ff ff 	movq   $0x0,-0x7f0(%rbp)
    f69a:	00 00 00 00 
    f69e:	48 8d 85 60 f7 ff ff 	lea    -0x8a0(%rbp),%rax
    f6a5:	48 89 85 18 f8 ff ff 	mov    %rax,-0x7e8(%rbp)
    f6ac:	48 8d 05 95 9d 00 00 	lea    0x9d95(%rip),%rax        # 19448 <g_140>
    f6b3:	48 89 85 20 f8 ff ff 	mov    %rax,-0x7e0(%rbp)
    f6ba:	48 8d 05 ff 9d 00 00 	lea    0x9dff(%rip),%rax        # 194c0 <g_172+0x60>
    f6c1:	48 89 85 28 f8 ff ff 	mov    %rax,-0x7d8(%rbp)
    f6c8:	48 8d 05 99 a0 00 00 	lea    0xa099(%rip),%rax        # 19768 <g_263>
    f6cf:	48 89 85 30 f8 ff ff 	mov    %rax,-0x7d0(%rbp)
    f6d6:	48 8d 05 e3 a0 00 00 	lea    0xa0e3(%rip),%rax        # 197c0 <g_632>
    f6dd:	48 89 85 38 f8 ff ff 	mov    %rax,-0x7c8(%rbp)
    f6e4:	48 c7 85 40 f8 ff ff 	movq   $0x0,-0x7c0(%rbp)
    f6eb:	00 00 00 00 
    f6ef:	48 8d 05 7a a0 00 00 	lea    0xa07a(%rip),%rax        # 19770 <g_265>
    f6f6:	48 89 85 48 f8 ff ff 	mov    %rax,-0x7b8(%rbp)
    f6fd:	c7 85 20 f9 ff ff 12 	movl   $0xd9846a12,-0x6e0(%rbp)
    f704:	6a 84 d9 
    f707:	c7 85 24 f9 ff ff ed 	movl   $0x56e543ed,-0x6dc(%rbp)
    f70e:	43 e5 56 
    f711:	c7 85 28 f9 ff ff ed 	movl   $0x56e543ed,-0x6d8(%rbp)
    f718:	43 e5 56 
    f71b:	c7 85 2c f9 ff ff 12 	movl   $0xd9846a12,-0x6d4(%rbp)
    f722:	6a 84 d9 
    f725:	c7 85 30 f9 ff ff ed 	movl   $0x56e543ed,-0x6d0(%rbp)
    f72c:	43 e5 56 
    f72f:	c7 85 34 f9 ff ff 12 	movl   $0xd9846a12,-0x6cc(%rbp)
    f736:	6a 84 d9 
    f739:	c7 85 38 f9 ff ff ed 	movl   $0x56e543ed,-0x6c8(%rbp)
    f740:	43 e5 56 
    f743:	c7 85 3c f9 ff ff ed 	movl   $0x56e543ed,-0x6c4(%rbp)
    f74a:	43 e5 56 
    f74d:	c7 85 40 f9 ff ff 12 	movl   $0xd9846a12,-0x6c0(%rbp)
    f754:	6a 84 d9 
    f757:	c7 85 44 f9 ff ff 12 	movl   $0xd9846a12,-0x6bc(%rbp)
    f75e:	6a 84 d9 
    f761:	c7 85 48 f9 ff ff 02 	movl   $0x2,-0x6b8(%rbp)
    f768:	00 00 00 
    f76b:	c7 85 4c f9 ff ff 12 	movl   $0xd9846a12,-0x6b4(%rbp)
    f772:	6a 84 d9 
    f775:	c7 85 50 f9 ff ff 12 	movl   $0xd9846a12,-0x6b0(%rbp)
    f77c:	6a 84 d9 
    f77f:	c7 85 54 f9 ff ff ed 	movl   $0x56e543ed,-0x6ac(%rbp)
    f786:	43 e5 56 
    f789:	c7 85 58 f9 ff ff ed 	movl   $0x56e543ed,-0x6a8(%rbp)
    f790:	43 e5 56 
    f793:	c7 85 5c f9 ff ff 12 	movl   $0xd9846a12,-0x6a4(%rbp)
    f79a:	6a 84 d9 
    f79d:	c7 85 6c f7 ff ff 00 	movl   $0x0,-0x894(%rbp)
    f7a4:	00 00 00 
    f7a7:	eb 1e                	jmp    f7c7 <func_45+0x7c9>
    f7a9:	8b 85 6c f7 ff ff    	mov    -0x894(%rbp),%eax
    f7af:	48 98                	cltq   
    f7b1:	48 8d 95 58 f7 ff ff 	lea    -0x8a8(%rbp),%rdx
    f7b8:	48 89 94 c5 a0 f8 ff 	mov    %rdx,-0x760(%rbp,%rax,8)
    f7bf:	ff 
    f7c0:	83 85 6c f7 ff ff 01 	addl   $0x1,-0x894(%rbp)
    f7c7:	83 bd 6c f7 ff ff 06 	cmpl   $0x6,-0x894(%rbp)
    f7ce:	7e d9                	jle    f7a9 <func_45+0x7ab>
    f7d0:	8b 05 7e c3 00 00    	mov    0xc37e(%rip),%eax        # 1bb54 <g_98+0x2b4>
    f7d6:	83 e8 01             	sub    $0x1,%eax
    f7d9:	89 05 75 c3 00 00    	mov    %eax,0xc375(%rip)        # 1bb54 <g_98+0x2b4>
    f7df:	0f be 85 54 f7 ff ff 	movsbl -0x8ac(%rbp),%eax
    f7e6:	be 07 00 00 00       	mov    $0x7,%esi
    f7eb:	89 c7                	mov    %eax,%edi
    f7ed:	e8 fc 5a ff ff       	callq  52ee <safe_lshift_func_int8_t_s_u>
    f7f2:	0f be c0             	movsbl %al,%eax
    f7f5:	be 03 00 00 00       	mov    $0x3,%esi
    f7fa:	89 c7                	mov    %eax,%edi
    f7fc:	e8 91 5c ff ff       	callq  5492 <safe_lshift_func_int16_t_s_s>
    f801:	41 89 c6             	mov    %eax,%r14d
    f804:	0f b7 85 56 f7 ff ff 	movzwl -0x8aa(%rbp),%eax
    f80b:	0f bf d8             	movswl %ax,%ebx
    f80e:	48 8b 05 33 9c 00 00 	mov    0x9c33(%rip),%rax        # 19448 <g_140>
    f815:	0f b7 c0             	movzwl %ax,%eax
    f818:	89 c7                	mov    %eax,%edi
    f81a:	e8 ca 64 ff ff       	callq  5ce9 <safe_unary_minus_func_uint16_t_u>
    f81f:	44 8b a5 74 f7 ff ff 	mov    -0x88c(%rbp),%r12d
    f826:	44 0f be ad 54 f7 ff 	movsbl -0x8ac(%rbp),%r13d
    f82d:	ff 
    f82e:	8b 85 84 f7 ff ff    	mov    -0x87c(%rbp),%eax
    f834:	0f b6 d0             	movzbl %al,%edx
    f837:	48 8b 8d 60 fa ff ff 	mov    -0x5a0(%rbp),%rcx
    f83e:	48 8b 85 00 f8 ff ff 	mov    -0x800(%rbp),%rax
    f845:	48 89 08             	mov    %rcx,(%rax)
    f848:	48 8b 85 00 f8 ff ff 	mov    -0x800(%rbp),%rax
    f84f:	48 8b 08             	mov    (%rax),%rcx
    f852:	48 8b 85 08 f8 ff ff 	mov    -0x7f8(%rbp),%rax
    f859:	48 89 08             	mov    %rcx,(%rax)
    f85c:	48 8b 85 08 f8 ff ff 	mov    -0x7f8(%rbp),%rax
    f863:	48 8b 00             	mov    (%rax),%rax
    f866:	48 8d 8d a0 f7 ff ff 	lea    -0x860(%rbp),%rcx
    f86d:	48 89 8d c0 f7 ff ff 	mov    %rcx,-0x840(%rbp)
    f874:	48 39 85 c0 f7 ff ff 	cmp    %rax,-0x840(%rbp)
    f87b:	74 13                	je     f890 <func_45+0x892>
    f87d:	48 8b 05 c4 9b 00 00 	mov    0x9bc4(%rip),%rax        # 19448 <g_140>
    f884:	48 85 c0             	test   %rax,%rax
    f887:	74 07                	je     f890 <func_45+0x892>
    f889:	b8 01 00 00 00       	mov    $0x1,%eax
    f88e:	eb 05                	jmp    f895 <func_45+0x897>
    f890:	b8 00 00 00 00       	mov    $0x0,%eax
    f895:	88 05 1d 9f 00 00    	mov    %al,0x9f1d(%rip)        # 197b8 <g_611>
    f89b:	0f b6 05 16 9f 00 00 	movzbl 0x9f16(%rip),%eax        # 197b8 <g_611>
    f8a2:	0f b6 c0             	movzbl %al,%eax
    f8a5:	89 d6                	mov    %edx,%esi
    f8a7:	89 c7                	mov    %eax,%edi
    f8a9:	e8 e5 62 ff ff       	callq  5b93 <safe_mul_func_uint8_t_u_u>
    f8ae:	48 8b 95 b8 f7 ff ff 	mov    -0x848(%rbp),%rdx
    f8b5:	48 8b 12             	mov    (%rdx),%rdx
    f8b8:	48 8b 12             	mov    (%rdx),%rdx
    f8bb:	0f b7 0a             	movzwl (%rdx),%ecx
    f8be:	0f b6 d0             	movzbl %al,%edx
    f8c1:	48 8b 85 b8 f7 ff ff 	mov    -0x848(%rbp),%rax
    f8c8:	48 8b 00             	mov    (%rax),%rax
    f8cb:	48 8b 00             	mov    (%rax),%rax
    f8ce:	09 ca                	or     %ecx,%edx
    f8d0:	66 89 10             	mov    %dx,(%rax)
    f8d3:	48 8b 85 40 f7 ff ff 	mov    -0x8c0(%rbp),%rax
    f8da:	8b 00                	mov    (%rax),%eax
    f8dc:	8b 95 84 f7 ff ff    	mov    -0x87c(%rbp),%edx
    f8e2:	89 d6                	mov    %edx,%esi
    f8e4:	89 c7                	mov    %eax,%edi
    f8e6:	e8 cb 5c ff ff       	callq  55b6 <safe_add_func_int32_t_s_s>
    f8eb:	48 8b 95 c8 f7 ff ff 	mov    -0x838(%rbp),%rdx
    f8f2:	48 8b 12             	mov    (%rdx),%rdx
    f8f5:	8b 12                	mov    (%rdx),%edx
    f8f7:	39 d0                	cmp    %edx,%eax
    f8f9:	0f 9f c0             	setg   %al
    f8fc:	0f b6 d0             	movzbl %al,%edx
    f8ff:	0f b7 85 56 f7 ff ff 	movzwl -0x8aa(%rbp),%eax
    f906:	21 d0                	and    %edx,%eax
    f908:	0f b7 c0             	movzwl %ax,%eax
    f90b:	89 c6                	mov    %eax,%esi
    f90d:	bf 5d 4c 00 00       	mov    $0x4c5d,%edi
    f912:	e8 26 64 ff ff       	callq  5d3d <safe_mul_func_uint16_t_u_u>
    f917:	0f be c0             	movsbl %al,%eax
    f91a:	44 89 ee             	mov    %r13d,%esi
    f91d:	89 c7                	mov    %eax,%edi
    f91f:	e8 ce 58 ff ff       	callq  51f2 <safe_sub_func_int8_t_s_s>
    f924:	83 c8 ba             	or     $0xffffffba,%eax
    f927:	0f b6 c0             	movzbl %al,%eax
    f92a:	44 89 e6             	mov    %r12d,%esi
    f92d:	89 c7                	mov    %eax,%edi
    f92f:	e8 8a 63 ff ff       	callq  5cbe <safe_rshift_func_uint8_t_u_u>
    f934:	0f b6 05 45 9e 00 00 	movzbl 0x9e45(%rip),%eax        # 19780 <g_267>
    f93b:	0f b6 d0             	movzbl %al,%edx
    f93e:	0f b7 85 56 f7 ff ff 	movzwl -0x8aa(%rbp),%eax
    f945:	39 c2                	cmp    %eax,%edx
    f947:	0f 9e c0             	setle  %al
    f94a:	0f b6 d0             	movzbl %al,%edx
    f94d:	48 8b 85 d0 f7 ff ff 	mov    -0x830(%rbp),%rax
    f954:	0f b7 00             	movzwl (%rax),%eax
    f957:	09 c2                	or     %eax,%edx
    f959:	48 8b 85 d0 f7 ff ff 	mov    -0x830(%rbp),%rax
    f960:	66 89 10             	mov    %dx,(%rax)
    f963:	48 8b 85 d0 f7 ff ff 	mov    -0x830(%rbp),%rax
    f96a:	0f b7 00             	movzwl (%rax),%eax
    f96d:	98                   	cwtl   
    f96e:	89 de                	mov    %ebx,%esi
    f970:	89 c7                	mov    %eax,%edi
    f972:	e8 5c 5a ff ff       	callq  53d3 <safe_sub_func_int16_t_s_s>
    f977:	44 31 f0             	xor    %r14d,%eax
    f97a:	0f bf d0             	movswl %ax,%edx
    f97d:	48 8b 85 18 f8 ff ff 	mov    -0x7e8(%rbp),%rax
    f984:	89 10                	mov    %edx,(%rax)
    f986:	0f be 8d 54 f7 ff ff 	movsbl -0x8ac(%rbp),%ecx
    f98d:	48 8b 85 c8 f7 ff ff 	mov    -0x838(%rbp),%rax
    f994:	48 8b 00             	mov    (%rax),%rax
    f997:	8b 00                	mov    (%rax),%eax
    f999:	48 63 d0             	movslq %eax,%rdx
    f99c:	48 8b 85 20 f8 ff ff 	mov    -0x7e0(%rbp),%rax
    f9a3:	48 89 10             	mov    %rdx,(%rax)
    f9a6:	8b 05 a8 c1 00 00    	mov    0xc1a8(%rip),%eax        # 1bb54 <g_98+0x2b4>
    f9ac:	89 85 58 f7 ff ff    	mov    %eax,-0x8a8(%rbp)
    f9b2:	48 83 bd b8 f7 ff ff 	cmpq   $0x0,-0x848(%rbp)
    f9b9:	00 
    f9ba:	0f 94 c0             	sete   %al
    f9bd:	0f b6 d0             	movzbl %al,%edx
    f9c0:	48 8d 05 f9 c2 00 00 	lea    0xc2f9(%rip),%rax        # 1bcc0 <g_594>
    f9c7:	48 39 85 48 f7 ff ff 	cmp    %rax,-0x8b8(%rbp)
    f9ce:	0f 94 c0             	sete   %al
    f9d1:	0f b6 c0             	movzbl %al,%eax
    f9d4:	31 d0                	xor    %edx,%eax
    f9d6:	89 c2                	mov    %eax,%edx
    f9d8:	48 8b 85 28 f8 ff ff 	mov    -0x7d8(%rbp),%rax
    f9df:	66 89 10             	mov    %dx,(%rax)
    f9e2:	48 8b 85 28 f8 ff ff 	mov    -0x7d8(%rbp),%rax
    f9e9:	0f b7 00             	movzwl (%rax),%eax
    f9ec:	0f b7 c0             	movzwl %ax,%eax
    f9ef:	39 c1                	cmp    %eax,%ecx
    f9f1:	0f 94 c0             	sete   %al
    f9f4:	0f b6 c0             	movzbl %al,%eax
    f9f7:	f7 d0                	not    %eax
    f9f9:	89 c2                	mov    %eax,%edx
    f9fb:	48 8b 85 18 f8 ff ff 	mov    -0x7e8(%rbp),%rax
    fa02:	8b 00                	mov    (%rax),%eax
    fa04:	21 c2                	and    %eax,%edx
    fa06:	48 8b 85 18 f8 ff ff 	mov    -0x7e8(%rbp),%rax
    fa0d:	89 10                	mov    %edx,(%rax)
    fa0f:	0f b7 05 c2 9d 00 00 	movzwl 0x9dc2(%rip),%eax        # 197d8 <g_703>
    fa16:	83 c0 01             	add    $0x1,%eax
    fa19:	66 89 05 b8 9d 00 00 	mov    %ax,0x9db8(%rip)        # 197d8 <g_703>
    fa20:	0f b7 05 bd 9d 00 00 	movzwl 0x9dbd(%rip),%eax        # 197e4 <g_709>
    fa27:	83 e8 01             	sub    $0x1,%eax
    fa2a:	66 89 05 b3 9d 00 00 	mov    %ax,0x9db3(%rip)        # 197e4 <g_709>
    fa31:	e9 9b 02 00 00       	jmpq   fcd1 <func_45+0xcd3>
    fa36:	48 8d 05 3b 9d 00 00 	lea    0x9d3b(%rip),%rax        # 19778 <g_266>
    fa3d:	48 89 85 d0 fa ff ff 	mov    %rax,-0x530(%rbp)
    fa44:	48 8d 85 5c f7 ff ff 	lea    -0x8a4(%rbp),%rax
    fa4b:	48 89 85 d8 fa ff ff 	mov    %rax,-0x528(%rbp)
    fa52:	48 8d 85 5c f7 ff ff 	lea    -0x8a4(%rbp),%rax
    fa59:	48 89 85 e0 fa ff ff 	mov    %rax,-0x520(%rbp)
    fa60:	48 8d 05 11 9d 00 00 	lea    0x9d11(%rip),%rax        # 19778 <g_266>
    fa67:	48 89 85 e8 fa ff ff 	mov    %rax,-0x518(%rbp)
    fa6e:	48 8d 85 5c f7 ff ff 	lea    -0x8a4(%rbp),%rax
    fa75:	48 89 85 f0 fa ff ff 	mov    %rax,-0x510(%rbp)
    fa7c:	48 8d 85 5c f7 ff ff 	lea    -0x8a4(%rbp),%rax
    fa83:	48 89 85 f8 fa ff ff 	mov    %rax,-0x508(%rbp)
    fa8a:	48 8d 05 e7 9c 00 00 	lea    0x9ce7(%rip),%rax        # 19778 <g_266>
    fa91:	48 89 85 00 fb ff ff 	mov    %rax,-0x500(%rbp)
    fa98:	48 8d 85 5c f7 ff ff 	lea    -0x8a4(%rbp),%rax
    fa9f:	48 89 85 08 fb ff ff 	mov    %rax,-0x4f8(%rbp)
    faa6:	48 8d 85 5c f7 ff ff 	lea    -0x8a4(%rbp),%rax
    faad:	48 89 85 10 fb ff ff 	mov    %rax,-0x4f0(%rbp)
    fab4:	48 8d 05 bd 9c 00 00 	lea    0x9cbd(%rip),%rax        # 19778 <g_266>
    fabb:	48 89 85 18 fb ff ff 	mov    %rax,-0x4e8(%rbp)
    fac2:	48 8d 85 5c f7 ff ff 	lea    -0x8a4(%rbp),%rax
    fac9:	48 89 85 20 fb ff ff 	mov    %rax,-0x4e0(%rbp)
    fad0:	48 8d 85 5c f7 ff ff 	lea    -0x8a4(%rbp),%rax
    fad7:	48 89 85 28 fb ff ff 	mov    %rax,-0x4d8(%rbp)
    fade:	48 8d 05 93 9c 00 00 	lea    0x9c93(%rip),%rax        # 19778 <g_266>
    fae5:	48 89 85 30 fb ff ff 	mov    %rax,-0x4d0(%rbp)
    faec:	48 8d 85 5c f7 ff ff 	lea    -0x8a4(%rbp),%rax
    faf3:	48 89 85 38 fb ff ff 	mov    %rax,-0x4c8(%rbp)
    fafa:	48 8d 85 5c f7 ff ff 	lea    -0x8a4(%rbp),%rax
    fb01:	48 89 85 40 fb ff ff 	mov    %rax,-0x4c0(%rbp)
    fb08:	48 8d 05 69 9c 00 00 	lea    0x9c69(%rip),%rax        # 19778 <g_266>
    fb0f:	48 89 85 48 fb ff ff 	mov    %rax,-0x4b8(%rbp)
    fb16:	48 8d 85 5c f7 ff ff 	lea    -0x8a4(%rbp),%rax
    fb1d:	48 89 85 50 fb ff ff 	mov    %rax,-0x4b0(%rbp)
    fb24:	48 8d 85 5c f7 ff ff 	lea    -0x8a4(%rbp),%rax
    fb2b:	48 89 85 58 fb ff ff 	mov    %rax,-0x4a8(%rbp)
    fb32:	48 8d 05 3f 9c 00 00 	lea    0x9c3f(%rip),%rax        # 19778 <g_266>
    fb39:	48 89 85 60 fb ff ff 	mov    %rax,-0x4a0(%rbp)
    fb40:	48 8d 85 5c f7 ff ff 	lea    -0x8a4(%rbp),%rax
    fb47:	48 89 85 68 fb ff ff 	mov    %rax,-0x498(%rbp)
    fb4e:	8b 85 60 f7 ff ff    	mov    -0x8a0(%rbp),%eax
    fb54:	89 85 60 f7 ff ff    	mov    %eax,-0x8a0(%rbp)
    fb5a:	66 c7 05 75 9c 00 00 	movw   $0x0,0x9c75(%rip)        # 197d8 <g_703>
    fb61:	00 00 
    fb63:	90                   	nop
    fb64:	0f b7 05 6d 9c 00 00 	movzwl 0x9c6d(%rip),%eax        # 197d8 <g_703>
    fb6b:	66 83 f8 39          	cmp    $0x39,%ax
    fb6f:	0f 86 5c 01 00 00    	jbe    fcd1 <func_45+0xcd3>
    fb75:	48 8d 05 01 9b 00 00 	lea    0x9b01(%rip),%rax        # 1967d <g_226+0x1d>
    fb7c:	48 89 85 a8 f7 ff ff 	mov    %rax,-0x858(%rbp)
    fb83:	48 8d 85 a8 f7 ff ff 	lea    -0x858(%rbp),%rax
    fb8a:	48 89 85 f8 f7 ff ff 	mov    %rax,-0x808(%rbp)
    fb91:	c7 85 80 f7 ff ff b3 	movl   $0xc79be6b3,-0x880(%rbp)
    fb98:	e6 9b c7 
    fb9b:	48 8b 85 c8 f7 ff ff 	mov    -0x838(%rbp),%rax
    fba2:	48 8b 00             	mov    (%rax),%rax
    fba5:	8b 00                	mov    (%rax),%eax
    fba7:	0f b6 d8             	movzbl %al,%ebx
    fbaa:	48 8b 85 c8 f7 ff ff 	mov    -0x838(%rbp),%rax
    fbb1:	48 8b 00             	mov    (%rax),%rax
    fbb4:	8b 00                	mov    (%rax),%eax
    fbb6:	4c 63 e0             	movslq %eax,%r12
    fbb9:	8b 85 58 f7 ff ff    	mov    -0x8a8(%rbp),%eax
    fbbf:	0f b6 d0             	movzbl %al,%edx
    fbc2:	48 8b 85 f8 f7 ff ff 	mov    -0x808(%rbp),%rax
    fbc9:	48 8d 0d 5a 9b 00 00 	lea    0x9b5a(%rip),%rcx        # 1972a <g_226+0xca>
    fbd0:	48 89 08             	mov    %rcx,(%rax)
    fbd3:	48 8b 85 f8 f7 ff ff 	mov    -0x808(%rbp),%rax
    fbda:	48 8b 00             	mov    (%rax),%rax
    fbdd:	48 8d 0d 48 94 00 00 	lea    0x9448(%rip),%rcx        # 1902c <g_54>
    fbe4:	48 39 c8             	cmp    %rcx,%rax
    fbe7:	0f 94 c0             	sete   %al
    fbea:	89 c1                	mov    %eax,%ecx
    fbec:	48 8b 85 c8 f7 ff ff 	mov    -0x838(%rbp),%rax
    fbf3:	48 8b 00             	mov    (%rax),%rax
    fbf6:	8b 00                	mov    (%rax),%eax
    fbf8:	21 c8                	and    %ecx,%eax
    fbfa:	0f b6 c0             	movzbl %al,%eax
    fbfd:	89 d6                	mov    %edx,%esi
    fbff:	89 c7                	mov    %eax,%edi
    fc01:	e8 72 5f ff ff       	callq  5b78 <safe_sub_func_uint8_t_u_u>
    fc06:	0f b6 c0             	movzbl %al,%eax
    fc09:	4c 89 e6             	mov    %r12,%rsi
    fc0c:	48 89 c7             	mov    %rax,%rdi
    fc0f:	e8 6c 64 ff ff       	callq  6080 <safe_mod_func_uint64_t_u_u>
    fc14:	48 85 c0             	test   %rax,%rax
    fc17:	74 07                	je     fc20 <func_45+0xc22>
    fc19:	b8 01 00 00 00       	mov    $0x1,%eax
    fc1e:	eb 05                	jmp    fc25 <func_45+0xc27>
    fc20:	b8 00 00 00 00       	mov    $0x0,%eax
    fc25:	0f b6 c0             	movzbl %al,%eax
    fc28:	be fd 00 00 00       	mov    $0xfd,%esi
    fc2d:	89 c7                	mov    %eax,%edi
    fc2f:	e8 44 5f ff ff       	callq  5b78 <safe_sub_func_uint8_t_u_u>
    fc34:	84 c0                	test   %al,%al
    fc36:	74 07                	je     fc3f <func_45+0xc41>
    fc38:	b8 01 00 00 00       	mov    $0x1,%eax
    fc3d:	eb 05                	jmp    fc44 <func_45+0xc46>
    fc3f:	b8 00 00 00 00       	mov    $0x0,%eax
    fc44:	48 63 d0             	movslq %eax,%rdx
    fc47:	48 8b 05 e2 93 00 00 	mov    0x93e2(%rip),%rax        # 19030 <g_66>
    fc4e:	48 39 c2             	cmp    %rax,%rdx
    fc51:	0f 9d c0             	setge  %al
    fc54:	0f b6 d0             	movzbl %al,%edx
    fc57:	8b 85 64 f8 ff ff    	mov    -0x79c(%rbp),%eax
    fc5d:	0f b7 c0             	movzwl %ax,%eax
    fc60:	89 d6                	mov    %edx,%esi
    fc62:	89 c7                	mov    %eax,%edi
    fc64:	e8 96 60 ff ff       	callq  5cff <safe_add_func_uint16_t_u_u>
    fc69:	0f b7 c0             	movzwl %ax,%eax
    fc6c:	be 0c 00 00 00       	mov    $0xc,%esi
    fc71:	89 c7                	mov    %eax,%edi
    fc73:	e8 02 62 ff ff       	callq  5e7a <safe_rshift_func_uint16_t_u_u>
    fc78:	66 83 f8 3e          	cmp    $0x3e,%ax
    fc7c:	0f 94 c0             	sete   %al
    fc7f:	0f b6 c0             	movzbl %al,%eax
    fc82:	f7 d0                	not    %eax
    fc84:	48 98                	cltq   
    fc86:	48 89 c7             	mov    %rax,%rdi
    fc89:	e8 88 5b ff ff       	callq  5816 <safe_unary_minus_func_int64_t_s>
    fc8e:	48 3d a2 00 00 00    	cmp    $0xa2,%rax
    fc94:	0f 95 c0             	setne  %al
    fc97:	0f b6 c0             	movzbl %al,%eax
    fc9a:	89 85 80 f7 ff ff    	mov    %eax,-0x880(%rbp)
    fca0:	b8 00 00 00 00       	mov    $0x0,%eax
    fca5:	83 f0 03             	xor    $0x3,%eax
    fca8:	0f b6 c0             	movzbl %al,%eax
    fcab:	89 de                	mov    %ebx,%esi
    fcad:	89 c7                	mov    %eax,%edi
    fcaf:	e8 27 5f ff ff       	callq  5bdb <safe_div_func_uint8_t_u_u>
    fcb4:	8b 95 7c f8 ff ff    	mov    -0x784(%rbp),%edx
    fcba:	0f b6 c0             	movzbl %al,%eax
    fcbd:	21 d0                	and    %edx,%eax
    fcbf:	89 85 7c f8 ff ff    	mov    %eax,-0x784(%rbp)
    fcc5:	48 8b 85 c8 f7 ff ff 	mov    -0x838(%rbp),%rax
    fccc:	48 8b 00             	mov    (%rax),%rax
    fccf:	eb 36                	jmp    fd07 <func_45+0xd09>
    fcd1:	8b 85 58 f7 ff ff    	mov    -0x8a8(%rbp),%eax
    fcd7:	85 c0                	test   %eax,%eax
    fcd9:	75 24                	jne    fcff <func_45+0xd01>
    fcdb:	0f b7 05 56 93 00 00 	movzwl 0x9356(%rip),%eax        # 19038 <g_90>
    fce2:	83 c0 01             	add    $0x1,%eax
    fce5:	66 89 05 4c 93 00 00 	mov    %ax,0x934c(%rip)        # 19038 <g_90>
    fcec:	0f b7 05 45 93 00 00 	movzwl 0x9345(%rip),%eax        # 19038 <g_90>
    fcf3:	66 83 f8 03          	cmp    $0x3,%ax
    fcf7:	0f 84 87 f4 ff ff    	je     f184 <func_45+0x186>
    fcfd:	eb 01                	jmp    fd00 <func_45+0xd02>
    fcff:	90                   	nop
    fd00:	48 8d 05 49 97 00 00 	lea    0x9749(%rip),%rax        # 19450 <g_142>
    fd07:	48 8b 5d c8          	mov    -0x38(%rbp),%rbx
    fd0b:	64 48 33 1c 25 28 00 	xor    %fs:0x28,%rbx
    fd12:	00 00 
    fd14:	74 05                	je     fd1b <func_45+0xd1d>
    fd16:	e8 55 53 ff ff       	callq  5070 <__stack_chk_fail@plt>
    fd1b:	48 81 c4 98 08 00 00 	add    $0x898,%rsp
    fd22:	5b                   	pop    %rbx
    fd23:	41 5c                	pop    %r12
    fd25:	41 5d                	pop    %r13
    fd27:	41 5e                	pop    %r14
    fd29:	41 5f                	pop    %r15
    fd2b:	5d                   	pop    %rbp
    fd2c:	c3                   	retq   

000000000000fd2d <func_48>:
    fd2d:	f3 0f 1e fa          	endbr64 
    fd31:	55                   	push   %rbp
    fd32:	48 89 e5             	mov    %rsp,%rbp
    fd35:	41 57                	push   %r15
    fd37:	41 56                	push   %r14
    fd39:	41 55                	push   %r13
    fd3b:	41 54                	push   %r12
    fd3d:	53                   	push   %rbx
    fd3e:	48 81 ec 00 10 00 00 	sub    $0x1000,%rsp
    fd45:	48 83 0c 24 00       	orq    $0x0,(%rsp)
    fd4a:	48 81 ec 28 0b 00 00 	sub    $0xb28,%rsp
    fd51:	48 89 bd c8 e4 ff ff 	mov    %rdi,-0x1b38(%rbp)
    fd58:	89 b5 c4 e4 ff ff    	mov    %esi,-0x1b3c(%rbp)
    fd5e:	48 89 95 b8 e4 ff ff 	mov    %rdx,-0x1b48(%rbp)
    fd65:	48 89 8d b0 e4 ff ff 	mov    %rcx,-0x1b50(%rbp)
    fd6c:	64 48 8b 04 25 28 00 	mov    %fs:0x28,%rax
    fd73:	00 00 
    fd75:	48 89 45 c8          	mov    %rax,-0x38(%rbp)
    fd79:	31 c0                	xor    %eax,%eax
    fd7b:	48 8d 85 a0 ea ff ff 	lea    -0x1560(%rbp),%rax
    fd82:	48 8d 15 77 5f 00 00 	lea    0x5f77(%rip),%rdx        # 15d00 <g_1978+0xc80>
    fd89:	b9 28 00 00 00       	mov    $0x28,%ecx
    fd8e:	48 89 c7             	mov    %rax,%rdi
    fd91:	48 89 d6             	mov    %rdx,%rsi
    fd94:	f3 48 a5             	rep movsq %ds:(%rsi),%es:(%rdi)
    fd97:	c7 85 e4 e4 ff ff d0 	movl   $0xfd6825d0,-0x1b1c(%rbp)
    fd9e:	25 68 fd 
    fda1:	c7 85 e0 e9 ff ff c2 	movl   $0x28c330c2,-0x1620(%rbp)
    fda8:	30 c3 28 
    fdab:	c7 85 e4 e9 ff ff 5f 	movl   $0x2eab385f,-0x161c(%rbp)
    fdb2:	38 ab 2e 
    fdb5:	c7 85 e8 e9 ff ff a1 	movl   $0xff7dd1a1,-0x1618(%rbp)
    fdbc:	d1 7d ff 
    fdbf:	c7 85 ec e9 ff ff 5f 	movl   $0x2eab385f,-0x1614(%rbp)
    fdc6:	38 ab 2e 
    fdc9:	c7 85 f0 e9 ff ff c2 	movl   $0x28c330c2,-0x1610(%rbp)
    fdd0:	30 c3 28 
    fdd3:	c7 85 f4 e9 ff ff 51 	movl   $0xe11b4c51,-0x160c(%rbp)
    fdda:	4c 1b e1 
    fddd:	c7 85 f8 e9 ff ff c2 	movl   $0x28c330c2,-0x1608(%rbp)
    fde4:	30 c3 28 
    fde7:	c7 85 fc e9 ff ff d3 	movl   $0x3393d3,-0x1604(%rbp)
    fdee:	93 33 00 
    fdf1:	c7 85 00 ea ff ff 5f 	movl   $0x2eab385f,-0x1600(%rbp)
    fdf8:	38 ab 2e 
    fdfb:	c7 85 04 ea ff ff 1d 	movl   $0xbcda4f1d,-0x15fc(%rbp)
    fe02:	4f da bc 
    fe05:	c7 85 08 ea ff ff 4d 	movl   $0x8d7ebc4d,-0x15f8(%rbp)
    fe0c:	bc 7e 8d 
    fe0f:	c7 85 0c ea ff ff 4d 	movl   $0x8d7ebc4d,-0x15f4(%rbp)
    fe16:	bc 7e 8d 
    fe19:	c7 85 10 ea ff ff d3 	movl   $0x3393d3,-0x15f0(%rbp)
    fe20:	93 33 00 
    fe23:	c7 85 14 ea ff ff 08 	movl   $0x8,-0x15ec(%rbp)
    fe2a:	00 00 00 
    fe2d:	c7 85 18 ea ff ff 08 	movl   $0x8,-0x15e8(%rbp)
    fe34:	00 00 00 
    fe37:	c7 85 1c ea ff ff d3 	movl   $0x3393d3,-0x15e4(%rbp)
    fe3e:	93 33 00 
    fe41:	c7 85 20 ea ff ff a1 	movl   $0xff7dd1a1,-0x15e0(%rbp)
    fe48:	d1 7d ff 
    fe4b:	c7 85 24 ea ff ff 4d 	movl   $0x8d7ebc4d,-0x15dc(%rbp)
    fe52:	bc 7e 8d 
    fe55:	c7 85 28 ea ff ff fd 	movl   $0xfffffffd,-0x15d8(%rbp)
    fe5c:	ff ff ff 
    fe5f:	c7 85 2c ea ff ff 4d 	movl   $0x8d7ebc4d,-0x15d4(%rbp)
    fe66:	bc 7e 8d 
    fe69:	c7 85 30 ea ff ff 5f 	movl   $0x2eab385f,-0x15d0(%rbp)
    fe70:	38 ab 2e 
    fe73:	c7 85 34 ea ff ff 51 	movl   $0xe11b4c51,-0x15cc(%rbp)
    fe7a:	4c 1b e1 
    fe7d:	c7 85 38 ea ff ff 1d 	movl   $0xbcda4f1d,-0x15c8(%rbp)
    fe84:	4f da bc 
    fe87:	c7 85 3c ea ff ff 51 	movl   $0xe11b4c51,-0x15c4(%rbp)
    fe8e:	4c 1b e1 
    fe91:	c7 85 40 ea ff ff a1 	movl   $0xff7dd1a1,-0x15c0(%rbp)
    fe98:	d1 7d ff 
    fe9b:	c7 85 44 ea ff ff 00 	movl   $0x0,-0x15bc(%rbp)
    fea2:	00 00 00 
    fea5:	c7 85 48 ea ff ff a1 	movl   $0xff7dd1a1,-0x15b8(%rbp)
    feac:	d1 7d ff 
    feaf:	c7 85 4c ea ff ff ff 	movl   $0xffffffff,-0x15b4(%rbp)
    feb6:	ff ff ff 
    feb9:	c7 85 50 ea ff ff 1d 	movl   $0xbcda4f1d,-0x15b0(%rbp)
    fec0:	4f da bc 
    fec3:	c7 85 54 ea ff ff c2 	movl   $0x28c330c2,-0x15ac(%rbp)
    feca:	30 c3 28 
    fecd:	c7 85 58 ea ff ff 5f 	movl   $0x2eab385f,-0x15a8(%rbp)
    fed4:	38 ab 2e 
    fed7:	c7 85 5c ea ff ff 4d 	movl   $0x8d7ebc4d,-0x15a4(%rbp)
    fede:	bc 7e 8d 
    fee1:	c7 85 60 ea ff ff fd 	movl   $0xfffffffd,-0x15a0(%rbp)
    fee8:	ff ff ff 
    feeb:	c7 85 64 ea ff ff a1 	movl   $0xff7dd1a1,-0x159c(%rbp)
    fef2:	d1 7d ff 
    fef5:	c7 85 68 ea ff ff a1 	movl   $0xff7dd1a1,-0x1598(%rbp)
    fefc:	d1 7d ff 
    feff:	c7 85 6c ea ff ff fd 	movl   $0xfffffffd,-0x1594(%rbp)
    ff06:	ff ff ff 
    ff09:	c7 85 70 ea ff ff 08 	movl   $0x8,-0x1590(%rbp)
    ff10:	00 00 00 
    ff13:	c7 85 74 ea ff ff 08 	movl   $0x8,-0x158c(%rbp)
    ff1a:	00 00 00 
    ff1d:	c7 85 78 ea ff ff d3 	movl   $0x3393d3,-0x1588(%rbp)
    ff24:	93 33 00 
    ff27:	c7 85 7c ea ff ff a1 	movl   $0xff7dd1a1,-0x1584(%rbp)
    ff2e:	d1 7d ff 
    ff31:	c7 85 80 ea ff ff 4d 	movl   $0x8d7ebc4d,-0x1580(%rbp)
    ff38:	bc 7e 8d 
    ff3b:	c7 85 84 ea ff ff ff 	movl   $0xffffffff,-0x157c(%rbp)
    ff42:	ff ff ff 
    ff45:	c7 85 88 ea ff ff 5f 	movl   $0x2eab385f,-0x1578(%rbp)
    ff4c:	38 ab 2e 
    ff4f:	c7 85 8c ea ff ff d3 	movl   $0x3393d3,-0x1574(%rbp)
    ff56:	93 33 00 
    ff59:	c7 85 90 ea ff ff c2 	movl   $0x28c330c2,-0x1570(%rbp)
    ff60:	30 c3 28 
    ff63:	c7 85 94 ea ff ff ff 	movl   $0xffffffff,-0x156c(%rbp)
    ff6a:	ff ff ff 
    ff6d:	c7 85 98 ea ff ff c2 	movl   $0x28c330c2,-0x1568(%rbp)
    ff74:	30 c3 28 
    ff77:	c7 85 9c ea ff ff d3 	movl   $0x3393d3,-0x1564(%rbp)
    ff7e:	93 33 00 
    ff81:	48 c7 85 00 f0 ff ff 	movq   $0x0,-0x1000(%rbp)
    ff88:	00 00 00 00 
    ff8c:	48 8d 85 e4 e4 ff ff 	lea    -0x1b1c(%rbp),%rax
    ff93:	48 89 85 08 f0 ff ff 	mov    %rax,-0xff8(%rbp)
    ff9a:	48 c7 85 10 f0 ff ff 	movq   $0x0,-0xff0(%rbp)
    ffa1:	00 00 00 00 
    ffa5:	48 8d 85 e4 e4 ff ff 	lea    -0x1b1c(%rbp),%rax
    ffac:	48 89 85 18 f0 ff ff 	mov    %rax,-0xfe8(%rbp)
    ffb3:	48 c7 85 20 f0 ff ff 	movq   $0x0,-0xfe0(%rbp)
    ffba:	00 00 00 00 
    ffbe:	48 8d 85 e0 e9 ff ff 	lea    -0x1620(%rbp),%rax
    ffc5:	48 83 c0 48          	add    $0x48,%rax
    ffc9:	48 89 85 28 f0 ff ff 	mov    %rax,-0xfd8(%rbp)
    ffd0:	48 8d 85 e4 e4 ff ff 	lea    -0x1b1c(%rbp),%rax
    ffd7:	48 89 85 30 f0 ff ff 	mov    %rax,-0xfd0(%rbp)
    ffde:	48 8d 05 43 90 00 00 	lea    0x9043(%rip),%rax        # 19028 <g_5>
    ffe5:	48 89 85 38 f0 ff ff 	mov    %rax,-0xfc8(%rbp)
    ffec:	48 8d 85 e4 e4 ff ff 	lea    -0x1b1c(%rbp),%rax
    fff3:	48 89 85 40 f0 ff ff 	mov    %rax,-0xfc0(%rbp)
    fffa:	48 c7 85 48 f0 ff ff 	movq   $0x0,-0xfb8(%rbp)
   10001:	00 00 00 00 
   10005:	48 8d 85 e4 e4 ff ff 	lea    -0x1b1c(%rbp),%rax
   1000c:	48 89 85 50 f0 ff ff 	mov    %rax,-0xfb0(%rbp)
   10013:	48 c7 85 58 f0 ff ff 	movq   $0x0,-0xfa8(%rbp)
   1001a:	00 00 00 00 
   1001e:	48 c7 85 60 f0 ff ff 	movq   $0x0,-0xfa0(%rbp)
   10025:	00 00 00 00 
   10029:	48 8d 85 e0 e9 ff ff 	lea    -0x1620(%rbp),%rax
   10030:	48 83 c0 48          	add    $0x48,%rax
   10034:	48 89 85 68 f0 ff ff 	mov    %rax,-0xf98(%rbp)
   1003b:	48 8d 85 e4 e4 ff ff 	lea    -0x1b1c(%rbp),%rax
   10042:	48 89 85 70 f0 ff ff 	mov    %rax,-0xf90(%rbp)
   10049:	48 c7 85 78 f0 ff ff 	movq   $0x0,-0xf88(%rbp)
   10050:	00 00 00 00 
   10054:	48 8d 85 e4 e4 ff ff 	lea    -0x1b1c(%rbp),%rax
   1005b:	48 89 85 80 f0 ff ff 	mov    %rax,-0xf80(%rbp)
   10062:	48 8d 05 bf 8f 00 00 	lea    0x8fbf(%rip),%rax        # 19028 <g_5>
   10069:	48 89 85 88 f0 ff ff 	mov    %rax,-0xf78(%rbp)
   10070:	48 c7 85 90 f0 ff ff 	movq   $0x0,-0xf70(%rbp)
   10077:	00 00 00 00 
   1007b:	48 8d 85 e0 e9 ff ff 	lea    -0x1620(%rbp),%rax
   10082:	48 83 c0 48          	add    $0x48,%rax
   10086:	48 89 85 98 f0 ff ff 	mov    %rax,-0xf68(%rbp)
   1008d:	48 8d 05 94 8f 00 00 	lea    0x8f94(%rip),%rax        # 19028 <g_5>
   10094:	48 89 85 a0 f0 ff ff 	mov    %rax,-0xf60(%rbp)
   1009b:	48 c7 85 a8 f0 ff ff 	movq   $0x0,-0xf58(%rbp)
   100a2:	00 00 00 00 
   100a6:	48 c7 85 b0 f0 ff ff 	movq   $0x0,-0xf50(%rbp)
   100ad:	00 00 00 00 
   100b1:	48 8d 05 70 8f 00 00 	lea    0x8f70(%rip),%rax        # 19028 <g_5>
   100b8:	48 89 85 b8 f0 ff ff 	mov    %rax,-0xf48(%rbp)
   100bf:	48 8d 85 e4 e4 ff ff 	lea    -0x1b1c(%rbp),%rax
   100c6:	48 89 85 c0 f0 ff ff 	mov    %rax,-0xf40(%rbp)
   100cd:	48 8d 85 e0 e9 ff ff 	lea    -0x1620(%rbp),%rax
   100d4:	48 83 c0 48          	add    $0x48,%rax
   100d8:	48 89 85 c8 f0 ff ff 	mov    %rax,-0xf38(%rbp)
   100df:	48 8d 85 e4 e4 ff ff 	lea    -0x1b1c(%rbp),%rax
   100e6:	48 89 85 d0 f0 ff ff 	mov    %rax,-0xf30(%rbp)
   100ed:	48 8d 85 e4 e4 ff ff 	lea    -0x1b1c(%rbp),%rax
   100f4:	48 89 85 d8 f0 ff ff 	mov    %rax,-0xf28(%rbp)
   100fb:	48 c7 85 e0 f0 ff ff 	movq   $0x0,-0xf20(%rbp)
   10102:	00 00 00 00 
   10106:	48 8d 85 e0 e9 ff ff 	lea    -0x1620(%rbp),%rax
   1010d:	48 83 c0 10          	add    $0x10,%rax
   10111:	48 89 85 e8 f0 ff ff 	mov    %rax,-0xf18(%rbp)
   10118:	48 8d 85 e4 e4 ff ff 	lea    -0x1b1c(%rbp),%rax
   1011f:	48 89 85 f0 f0 ff ff 	mov    %rax,-0xf10(%rbp)
   10126:	48 8d 85 e4 e4 ff ff 	lea    -0x1b1c(%rbp),%rax
   1012d:	48 89 85 f8 f0 ff ff 	mov    %rax,-0xf08(%rbp)
   10134:	48 8d 85 e4 e4 ff ff 	lea    -0x1b1c(%rbp),%rax
   1013b:	48 89 85 00 f1 ff ff 	mov    %rax,-0xf00(%rbp)
   10142:	48 8d 85 e4 e4 ff ff 	lea    -0x1b1c(%rbp),%rax
   10149:	48 89 85 08 f1 ff ff 	mov    %rax,-0xef8(%rbp)
   10150:	48 8d 85 e4 e4 ff ff 	lea    -0x1b1c(%rbp),%rax
   10157:	48 89 85 10 f1 ff ff 	mov    %rax,-0xef0(%rbp)
   1015e:	48 8d 85 e4 e4 ff ff 	lea    -0x1b1c(%rbp),%rax
   10165:	48 89 85 18 f1 ff ff 	mov    %rax,-0xee8(%rbp)
   1016c:	48 c7 85 20 f1 ff ff 	movq   $0x0,-0xee0(%rbp)
   10173:	00 00 00 00 
   10177:	48 c7 85 28 f1 ff ff 	movq   $0x0,-0xed8(%rbp)
   1017e:	00 00 00 00 
   10182:	48 c7 85 30 f1 ff ff 	movq   $0x0,-0xed0(%rbp)
   10189:	00 00 00 00 
   1018d:	48 8d 05 94 8e 00 00 	lea    0x8e94(%rip),%rax        # 19028 <g_5>
   10194:	48 89 85 38 f1 ff ff 	mov    %rax,-0xec8(%rbp)
   1019b:	48 c7 85 40 f1 ff ff 	movq   $0x0,-0xec0(%rbp)
   101a2:	00 00 00 00 
   101a6:	48 8d 05 7b 8e 00 00 	lea    0x8e7b(%rip),%rax        # 19028 <g_5>
   101ad:	48 89 85 48 f1 ff ff 	mov    %rax,-0xeb8(%rbp)
   101b4:	48 c7 85 50 f1 ff ff 	movq   $0x0,-0xeb0(%rbp)
   101bb:	00 00 00 00 
   101bf:	48 8d 85 e0 e9 ff ff 	lea    -0x1620(%rbp),%rax
   101c6:	48 83 c0 48          	add    $0x48,%rax
   101ca:	48 89 85 58 f1 ff ff 	mov    %rax,-0xea8(%rbp)
   101d1:	48 c7 85 60 f1 ff ff 	movq   $0x0,-0xea0(%rbp)
   101d8:	00 00 00 00 
   101dc:	48 8d 85 e0 e9 ff ff 	lea    -0x1620(%rbp),%rax
   101e3:	48 83 c0 48          	add    $0x48,%rax
   101e7:	48 89 85 68 f1 ff ff 	mov    %rax,-0xe98(%rbp)
   101ee:	48 8d 85 e0 e9 ff ff 	lea    -0x1620(%rbp),%rax
   101f5:	48 83 c0 48          	add    $0x48,%rax
   101f9:	48 89 85 70 f1 ff ff 	mov    %rax,-0xe90(%rbp)
   10200:	48 8d 85 e0 e9 ff ff 	lea    -0x1620(%rbp),%rax
   10207:	48 05 a0 00 00 00    	add    $0xa0,%rax
   1020d:	48 89 85 78 f1 ff ff 	mov    %rax,-0xe88(%rbp)
   10214:	48 8d 85 e0 e9 ff ff 	lea    -0x1620(%rbp),%rax
   1021b:	48 83 c0 48          	add    $0x48,%rax
   1021f:	48 89 85 80 f1 ff ff 	mov    %rax,-0xe80(%rbp)
   10226:	48 8d 05 fb 8d 00 00 	lea    0x8dfb(%rip),%rax        # 19028 <g_5>
   1022d:	48 89 85 88 f1 ff ff 	mov    %rax,-0xe78(%rbp)
   10234:	48 c7 85 90 f1 ff ff 	movq   $0x0,-0xe70(%rbp)
   1023b:	00 00 00 00 
   1023f:	48 8d 05 e2 8d 00 00 	lea    0x8de2(%rip),%rax        # 19028 <g_5>
   10246:	48 89 85 98 f1 ff ff 	mov    %rax,-0xe68(%rbp)
   1024d:	48 c7 85 a0 f1 ff ff 	movq   $0x0,-0xe60(%rbp)
   10254:	00 00 00 00 
   10258:	48 8d 85 e0 e9 ff ff 	lea    -0x1620(%rbp),%rax
   1025f:	48 83 c0 54          	add    $0x54,%rax
   10263:	48 89 85 a8 f1 ff ff 	mov    %rax,-0xe58(%rbp)
   1026a:	48 8d 05 b7 8d 00 00 	lea    0x8db7(%rip),%rax        # 19028 <g_5>
   10271:	48 89 85 b0 f1 ff ff 	mov    %rax,-0xe50(%rbp)
   10278:	48 c7 85 b8 f1 ff ff 	movq   $0x0,-0xe48(%rbp)
   1027f:	00 00 00 00 
   10283:	48 8d 85 e0 e9 ff ff 	lea    -0x1620(%rbp),%rax
   1028a:	48 83 c0 48          	add    $0x48,%rax
   1028e:	48 89 85 c0 f1 ff ff 	mov    %rax,-0xe40(%rbp)
   10295:	48 8d 85 e4 e4 ff ff 	lea    -0x1b1c(%rbp),%rax
   1029c:	48 89 85 c8 f1 ff ff 	mov    %rax,-0xe38(%rbp)
   102a3:	48 8d 85 e4 e4 ff ff 	lea    -0x1b1c(%rbp),%rax
   102aa:	48 89 85 d0 f1 ff ff 	mov    %rax,-0xe30(%rbp)
   102b1:	48 c7 85 d8 f1 ff ff 	movq   $0x0,-0xe28(%rbp)
   102b8:	00 00 00 00 
   102bc:	48 8d 85 e0 e9 ff ff 	lea    -0x1620(%rbp),%rax
   102c3:	48 83 c0 48          	add    $0x48,%rax
   102c7:	48 89 85 e0 f1 ff ff 	mov    %rax,-0xe20(%rbp)
   102ce:	48 8d 85 e0 e9 ff ff 	lea    -0x1620(%rbp),%rax
   102d5:	48 83 c0 48          	add    $0x48,%rax
   102d9:	48 89 85 e8 f1 ff ff 	mov    %rax,-0xe18(%rbp)
   102e0:	48 c7 85 f0 f1 ff ff 	movq   $0x0,-0xe10(%rbp)
   102e7:	00 00 00 00 
   102eb:	48 8d 05 36 8d 00 00 	lea    0x8d36(%rip),%rax        # 19028 <g_5>
   102f2:	48 89 85 f8 f1 ff ff 	mov    %rax,-0xe08(%rbp)
   102f9:	48 8d 05 28 8d 00 00 	lea    0x8d28(%rip),%rax        # 19028 <g_5>
   10300:	48 89 85 00 f2 ff ff 	mov    %rax,-0xe00(%rbp)
   10307:	48 c7 85 08 f2 ff ff 	movq   $0x0,-0xdf8(%rbp)
   1030e:	00 00 00 00 
   10312:	48 c7 85 10 f2 ff ff 	movq   $0x0,-0xdf0(%rbp)
   10319:	00 00 00 00 
   1031d:	48 8d 85 e0 e9 ff ff 	lea    -0x1620(%rbp),%rax
   10324:	48 83 c0 38          	add    $0x38,%rax
   10328:	48 89 85 18 f2 ff ff 	mov    %rax,-0xde8(%rbp)
   1032f:	48 c7 85 20 f2 ff ff 	movq   $0x0,-0xde0(%rbp)
   10336:	00 00 00 00 
   1033a:	48 c7 85 28 f2 ff ff 	movq   $0x0,-0xdd8(%rbp)
   10341:	00 00 00 00 
   10345:	48 8d 85 e0 e9 ff ff 	lea    -0x1620(%rbp),%rax
   1034c:	48 05 88 00 00 00    	add    $0x88,%rax
   10352:	48 89 85 30 f2 ff ff 	mov    %rax,-0xdd0(%rbp)
   10359:	48 c7 85 38 f2 ff ff 	movq   $0x0,-0xdc8(%rbp)
   10360:	00 00 00 00 
   10364:	48 8d 05 bd 8c 00 00 	lea    0x8cbd(%rip),%rax        # 19028 <g_5>
   1036b:	48 89 85 40 f2 ff ff 	mov    %rax,-0xdc0(%rbp)
   10372:	48 c7 85 48 f2 ff ff 	movq   $0x0,-0xdb8(%rbp)
   10379:	00 00 00 00 
   1037d:	48 c7 85 50 f2 ff ff 	movq   $0x0,-0xdb0(%rbp)
   10384:	00 00 00 00 
   10388:	48 8d 05 99 8c 00 00 	lea    0x8c99(%rip),%rax        # 19028 <g_5>
   1038f:	48 89 85 58 f2 ff ff 	mov    %rax,-0xda8(%rbp)
   10396:	48 c7 85 60 f2 ff ff 	movq   $0x0,-0xda0(%rbp)
   1039d:	00 00 00 00 
   103a1:	48 8d 05 80 8c 00 00 	lea    0x8c80(%rip),%rax        # 19028 <g_5>
   103a8:	48 89 85 68 f2 ff ff 	mov    %rax,-0xd98(%rbp)
   103af:	48 8d 85 e4 e4 ff ff 	lea    -0x1b1c(%rbp),%rax
   103b6:	48 89 85 70 f2 ff ff 	mov    %rax,-0xd90(%rbp)
   103bd:	48 8d 85 e0 e9 ff ff 	lea    -0x1620(%rbp),%rax
   103c4:	48 83 c0 48          	add    $0x48,%rax
   103c8:	48 89 85 78 f2 ff ff 	mov    %rax,-0xd88(%rbp)
   103cf:	48 8d 05 52 8c 00 00 	lea    0x8c52(%rip),%rax        # 19028 <g_5>
   103d6:	48 89 85 80 f2 ff ff 	mov    %rax,-0xd80(%rbp)
   103dd:	48 8d 85 e0 e9 ff ff 	lea    -0x1620(%rbp),%rax
   103e4:	48 83 c0 48          	add    $0x48,%rax
   103e8:	48 89 85 88 f2 ff ff 	mov    %rax,-0xd78(%rbp)
   103ef:	48 8d 85 e4 e4 ff ff 	lea    -0x1b1c(%rbp),%rax
   103f6:	48 89 85 90 f2 ff ff 	mov    %rax,-0xd70(%rbp)
   103fd:	48 c7 85 98 f2 ff ff 	movq   $0x0,-0xd68(%rbp)
   10404:	00 00 00 00 
   10408:	48 8d 05 19 8c 00 00 	lea    0x8c19(%rip),%rax        # 19028 <g_5>
   1040f:	48 89 85 a0 f2 ff ff 	mov    %rax,-0xd60(%rbp)
   10416:	48 8d 85 e4 e4 ff ff 	lea    -0x1b1c(%rbp),%rax
   1041d:	48 89 85 a8 f2 ff ff 	mov    %rax,-0xd58(%rbp)
   10424:	48 8d 85 e4 e4 ff ff 	lea    -0x1b1c(%rbp),%rax
   1042b:	48 89 85 b0 f2 ff ff 	mov    %rax,-0xd50(%rbp)
   10432:	48 8d 85 e0 e9 ff ff 	lea    -0x1620(%rbp),%rax
   10439:	48 83 c0 48          	add    $0x48,%rax
   1043d:	48 89 85 b8 f2 ff ff 	mov    %rax,-0xd48(%rbp)
   10444:	48 8d 85 e0 e9 ff ff 	lea    -0x1620(%rbp),%rax
   1044b:	48 83 c0 10          	add    $0x10,%rax
   1044f:	48 89 85 c0 f2 ff ff 	mov    %rax,-0xd40(%rbp)
   10456:	48 c7 85 c8 f2 ff ff 	movq   $0x0,-0xd38(%rbp)
   1045d:	00 00 00 00 
   10461:	48 8d 05 c0 8b 00 00 	lea    0x8bc0(%rip),%rax        # 19028 <g_5>
   10468:	48 89 85 d0 f2 ff ff 	mov    %rax,-0xd30(%rbp)
   1046f:	48 8d 85 e0 e9 ff ff 	lea    -0x1620(%rbp),%rax
   10476:	48 83 c0 4c          	add    $0x4c,%rax
   1047a:	48 89 85 d8 f2 ff ff 	mov    %rax,-0xd28(%rbp)
   10481:	48 8d 85 e4 e4 ff ff 	lea    -0x1b1c(%rbp),%rax
   10488:	48 89 85 e0 f2 ff ff 	mov    %rax,-0xd20(%rbp)
   1048f:	48 8d 05 92 8b 00 00 	lea    0x8b92(%rip),%rax        # 19028 <g_5>
   10496:	48 89 85 e8 f2 ff ff 	mov    %rax,-0xd18(%rbp)
   1049d:	48 8d 85 e0 e9 ff ff 	lea    -0x1620(%rbp),%rax
   104a4:	48 83 c0 48          	add    $0x48,%rax
   104a8:	48 89 85 f0 f2 ff ff 	mov    %rax,-0xd10(%rbp)
   104af:	48 8d 85 e0 e9 ff ff 	lea    -0x1620(%rbp),%rax
   104b6:	48 83 c0 48          	add    $0x48,%rax
   104ba:	48 89 85 f8 f2 ff ff 	mov    %rax,-0xd08(%rbp)
   104c1:	48 8d 85 e0 e9 ff ff 	lea    -0x1620(%rbp),%rax
   104c8:	48 83 c0 48          	add    $0x48,%rax
   104cc:	48 89 85 00 f3 ff ff 	mov    %rax,-0xd00(%rbp)
   104d3:	48 8d 85 e0 e9 ff ff 	lea    -0x1620(%rbp),%rax
   104da:	48 83 c0 48          	add    $0x48,%rax
   104de:	48 89 85 08 f3 ff ff 	mov    %rax,-0xcf8(%rbp)
   104e5:	48 8d 85 e0 e9 ff ff 	lea    -0x1620(%rbp),%rax
   104ec:	48 05 88 00 00 00    	add    $0x88,%rax
   104f2:	48 89 85 10 f3 ff ff 	mov    %rax,-0xcf0(%rbp)
   104f9:	48 c7 85 18 f3 ff ff 	movq   $0x0,-0xce8(%rbp)
   10500:	00 00 00 00 
   10504:	48 8d 85 e0 e9 ff ff 	lea    -0x1620(%rbp),%rax
   1050b:	48 83 c0 48          	add    $0x48,%rax
   1050f:	48 89 85 20 f3 ff ff 	mov    %rax,-0xce0(%rbp)
   10516:	48 c7 85 28 f3 ff ff 	movq   $0x0,-0xcd8(%rbp)
   1051d:	00 00 00 00 
   10521:	48 8d 05 00 8b 00 00 	lea    0x8b00(%rip),%rax        # 19028 <g_5>
   10528:	48 89 85 30 f3 ff ff 	mov    %rax,-0xcd0(%rbp)
   1052f:	48 8d 85 e4 e4 ff ff 	lea    -0x1b1c(%rbp),%rax
   10536:	48 89 85 38 f3 ff ff 	mov    %rax,-0xcc8(%rbp)
   1053d:	48 8d 85 e0 e9 ff ff 	lea    -0x1620(%rbp),%rax
   10544:	48 83 c0 38          	add    $0x38,%rax
   10548:	48 89 85 40 f3 ff ff 	mov    %rax,-0xcc0(%rbp)
   1054f:	48 c7 85 48 f3 ff ff 	movq   $0x0,-0xcb8(%rbp)
   10556:	00 00 00 00 
   1055a:	48 8d 05 c7 8a 00 00 	lea    0x8ac7(%rip),%rax        # 19028 <g_5>
   10561:	48 89 85 50 f3 ff ff 	mov    %rax,-0xcb0(%rbp)
   10568:	48 8d 85 e0 e9 ff ff 	lea    -0x1620(%rbp),%rax
   1056f:	48 83 c0 48          	add    $0x48,%rax
   10573:	48 89 85 58 f3 ff ff 	mov    %rax,-0xca8(%rbp)
   1057a:	48 8d 85 e0 e9 ff ff 	lea    -0x1620(%rbp),%rax
   10581:	48 83 c0 48          	add    $0x48,%rax
   10585:	48 89 85 60 f3 ff ff 	mov    %rax,-0xca0(%rbp)
   1058c:	48 8d 85 e0 e9 ff ff 	lea    -0x1620(%rbp),%rax
   10593:	48 83 c0 48          	add    $0x48,%rax
   10597:	48 89 85 68 f3 ff ff 	mov    %rax,-0xc98(%rbp)
   1059e:	48 8d 85 e0 e9 ff ff 	lea    -0x1620(%rbp),%rax
   105a5:	48 05 a4 00 00 00    	add    $0xa4,%rax
   105ab:	48 89 85 70 f3 ff ff 	mov    %rax,-0xc90(%rbp)
   105b2:	48 8d 85 e4 e4 ff ff 	lea    -0x1b1c(%rbp),%rax
   105b9:	48 89 85 78 f3 ff ff 	mov    %rax,-0xc88(%rbp)
   105c0:	48 8d 85 e4 e4 ff ff 	lea    -0x1b1c(%rbp),%rax
   105c7:	48 89 85 80 f3 ff ff 	mov    %rax,-0xc80(%rbp)
   105ce:	48 8d 85 e0 e9 ff ff 	lea    -0x1620(%rbp),%rax
   105d5:	48 05 a0 00 00 00    	add    $0xa0,%rax
   105db:	48 89 85 88 f3 ff ff 	mov    %rax,-0xc78(%rbp)
   105e2:	48 8d 85 e4 e4 ff ff 	lea    -0x1b1c(%rbp),%rax
   105e9:	48 89 85 90 f3 ff ff 	mov    %rax,-0xc70(%rbp)
   105f0:	48 8d 05 31 8a 00 00 	lea    0x8a31(%rip),%rax        # 19028 <g_5>
   105f7:	48 89 85 98 f3 ff ff 	mov    %rax,-0xc68(%rbp)
   105fe:	48 8d 85 e4 e4 ff ff 	lea    -0x1b1c(%rbp),%rax
   10605:	48 89 85 a0 f3 ff ff 	mov    %rax,-0xc60(%rbp)
   1060c:	48 c7 85 a8 f3 ff ff 	movq   $0x0,-0xc58(%rbp)
   10613:	00 00 00 00 
   10617:	48 8d 85 e0 e9 ff ff 	lea    -0x1620(%rbp),%rax
   1061e:	48 83 c0 48          	add    $0x48,%rax
   10622:	48 89 85 b0 f3 ff ff 	mov    %rax,-0xc50(%rbp)
   10629:	48 c7 85 b8 f3 ff ff 	movq   $0x0,-0xc48(%rbp)
   10630:	00 00 00 00 
   10634:	48 8d 05 ed 89 00 00 	lea    0x89ed(%rip),%rax        # 19028 <g_5>
   1063b:	48 89 85 c0 f3 ff ff 	mov    %rax,-0xc40(%rbp)
   10642:	48 c7 85 c8 f3 ff ff 	movq   $0x0,-0xc38(%rbp)
   10649:	00 00 00 00 
   1064d:	48 8d 05 d4 89 00 00 	lea    0x89d4(%rip),%rax        # 19028 <g_5>
   10654:	48 89 85 d0 f3 ff ff 	mov    %rax,-0xc30(%rbp)
   1065b:	48 8d 85 e0 e9 ff ff 	lea    -0x1620(%rbp),%rax
   10662:	48 83 c0 54          	add    $0x54,%rax
   10666:	48 89 85 d8 f3 ff ff 	mov    %rax,-0xc28(%rbp)
   1066d:	48 c7 85 e0 f3 ff ff 	movq   $0x0,-0xc20(%rbp)
   10674:	00 00 00 00 
   10678:	48 8d 85 e4 e4 ff ff 	lea    -0x1b1c(%rbp),%rax
   1067f:	48 89 85 e8 f3 ff ff 	mov    %rax,-0xc18(%rbp)
   10686:	48 8d 85 e4 e4 ff ff 	lea    -0x1b1c(%rbp),%rax
   1068d:	48 89 85 f0 f3 ff ff 	mov    %rax,-0xc10(%rbp)
   10694:	48 8d 85 e4 e4 ff ff 	lea    -0x1b1c(%rbp),%rax
   1069b:	48 89 85 f8 f3 ff ff 	mov    %rax,-0xc08(%rbp)
   106a2:	48 c7 85 00 f4 ff ff 	movq   $0x0,-0xc00(%rbp)
   106a9:	00 00 00 00 
   106ad:	48 c7 85 08 f4 ff ff 	movq   $0x0,-0xbf8(%rbp)
   106b4:	00 00 00 00 
   106b8:	48 8d 85 e4 e4 ff ff 	lea    -0x1b1c(%rbp),%rax
   106bf:	48 89 85 10 f4 ff ff 	mov    %rax,-0xbf0(%rbp)
   106c6:	48 8d 05 5b 89 00 00 	lea    0x895b(%rip),%rax        # 19028 <g_5>
   106cd:	48 89 85 18 f4 ff ff 	mov    %rax,-0xbe8(%rbp)
   106d4:	48 c7 85 20 f4 ff ff 	movq   $0x0,-0xbe0(%rbp)
   106db:	00 00 00 00 
   106df:	48 8d 85 e0 e9 ff ff 	lea    -0x1620(%rbp),%rax
   106e6:	48 83 c0 54          	add    $0x54,%rax
   106ea:	48 89 85 28 f4 ff ff 	mov    %rax,-0xbd8(%rbp)
   106f1:	48 8d 85 e0 e9 ff ff 	lea    -0x1620(%rbp),%rax
   106f8:	48 83 c0 48          	add    $0x48,%rax
   106fc:	48 89 85 30 f4 ff ff 	mov    %rax,-0xbd0(%rbp)
   10703:	48 8d 85 e4 e4 ff ff 	lea    -0x1b1c(%rbp),%rax
   1070a:	48 89 85 38 f4 ff ff 	mov    %rax,-0xbc8(%rbp)
   10711:	48 8d 85 e0 e9 ff ff 	lea    -0x1620(%rbp),%rax
   10718:	48 83 c0 48          	add    $0x48,%rax
   1071c:	48 89 85 40 f4 ff ff 	mov    %rax,-0xbc0(%rbp)
   10723:	48 8d 85 e0 e9 ff ff 	lea    -0x1620(%rbp),%rax
   1072a:	48 83 c0 48          	add    $0x48,%rax
   1072e:	48 89 85 48 f4 ff ff 	mov    %rax,-0xbb8(%rbp)
   10735:	48 c7 85 50 f4 ff ff 	movq   $0x0,-0xbb0(%rbp)
   1073c:	00 00 00 00 
   10740:	48 8d 85 e0 e9 ff ff 	lea    -0x1620(%rbp),%rax
   10747:	48 83 c0 48          	add    $0x48,%rax
   1074b:	48 89 85 58 f4 ff ff 	mov    %rax,-0xba8(%rbp)
   10752:	48 8d 85 e0 e9 ff ff 	lea    -0x1620(%rbp),%rax
   10759:	48 83 c0 10          	add    $0x10,%rax
   1075d:	48 89 85 60 f4 ff ff 	mov    %rax,-0xba0(%rbp)
   10764:	48 8d 85 e0 e9 ff ff 	lea    -0x1620(%rbp),%rax
   1076b:	48 83 c0 48          	add    $0x48,%rax
   1076f:	48 89 85 68 f4 ff ff 	mov    %rax,-0xb98(%rbp)
   10776:	48 8d 85 e4 e4 ff ff 	lea    -0x1b1c(%rbp),%rax
   1077d:	48 89 85 70 f4 ff ff 	mov    %rax,-0xb90(%rbp)
   10784:	48 8d 85 e4 e4 ff ff 	lea    -0x1b1c(%rbp),%rax
   1078b:	48 89 85 78 f4 ff ff 	mov    %rax,-0xb88(%rbp)
   10792:	48 8d 85 e0 e9 ff ff 	lea    -0x1620(%rbp),%rax
   10799:	48 83 c0 48          	add    $0x48,%rax
   1079d:	48 89 85 80 f4 ff ff 	mov    %rax,-0xb80(%rbp)
   107a4:	48 8d 85 e0 e9 ff ff 	lea    -0x1620(%rbp),%rax
   107ab:	48 83 c0 54          	add    $0x54,%rax
   107af:	48 89 85 88 f4 ff ff 	mov    %rax,-0xb78(%rbp)
   107b6:	48 8d 85 e0 e9 ff ff 	lea    -0x1620(%rbp),%rax
   107bd:	48 83 c0 48          	add    $0x48,%rax
   107c1:	48 89 85 90 f4 ff ff 	mov    %rax,-0xb70(%rbp)
   107c8:	48 8d 05 59 88 00 00 	lea    0x8859(%rip),%rax        # 19028 <g_5>
   107cf:	48 89 85 98 f4 ff ff 	mov    %rax,-0xb68(%rbp)
   107d6:	48 8d 85 e0 e9 ff ff 	lea    -0x1620(%rbp),%rax
   107dd:	48 83 c0 48          	add    $0x48,%rax
   107e1:	48 89 85 a0 f4 ff ff 	mov    %rax,-0xb60(%rbp)
   107e8:	48 c7 85 a8 f4 ff ff 	movq   $0x0,-0xb58(%rbp)
   107ef:	00 00 00 00 
   107f3:	48 c7 85 b0 f4 ff ff 	movq   $0x0,-0xb50(%rbp)
   107fa:	00 00 00 00 
   107fe:	48 8d 85 e4 e4 ff ff 	lea    -0x1b1c(%rbp),%rax
   10805:	48 89 85 b8 f4 ff ff 	mov    %rax,-0xb48(%rbp)
   1080c:	48 8d 05 15 88 00 00 	lea    0x8815(%rip),%rax        # 19028 <g_5>
   10813:	48 89 85 c0 f4 ff ff 	mov    %rax,-0xb40(%rbp)
   1081a:	48 8d 85 e4 e4 ff ff 	lea    -0x1b1c(%rbp),%rax
   10821:	48 89 85 c8 f4 ff ff 	mov    %rax,-0xb38(%rbp)
   10828:	48 8d 85 e0 e9 ff ff 	lea    -0x1620(%rbp),%rax
   1082f:	48 83 c0 68          	add    $0x68,%rax
   10833:	48 89 85 d0 f4 ff ff 	mov    %rax,-0xb30(%rbp)
   1083a:	48 8d 85 e0 e9 ff ff 	lea    -0x1620(%rbp),%rax
   10841:	48 83 c0 54          	add    $0x54,%rax
   10845:	48 89 85 d8 f4 ff ff 	mov    %rax,-0xb28(%rbp)
   1084c:	48 c7 85 e0 f4 ff ff 	movq   $0x0,-0xb20(%rbp)
   10853:	00 00 00 00 
   10857:	48 c7 85 e8 f4 ff ff 	movq   $0x0,-0xb18(%rbp)
   1085e:	00 00 00 00 
   10862:	48 8d 05 bf 87 00 00 	lea    0x87bf(%rip),%rax        # 19028 <g_5>
   10869:	48 89 85 f0 f4 ff ff 	mov    %rax,-0xb10(%rbp)
   10870:	48 c7 85 f8 f4 ff ff 	movq   $0x0,-0xb08(%rbp)
   10877:	00 00 00 00 
   1087b:	48 8d 85 e0 e9 ff ff 	lea    -0x1620(%rbp),%rax
   10882:	48 83 c0 44          	add    $0x44,%rax
   10886:	48 89 85 00 f5 ff ff 	mov    %rax,-0xb00(%rbp)
   1088d:	48 c7 85 08 f5 ff ff 	movq   $0x0,-0xaf8(%rbp)
   10894:	00 00 00 00 
   10898:	48 8d 85 e0 e9 ff ff 	lea    -0x1620(%rbp),%rax
   1089f:	48 83 c0 48          	add    $0x48,%rax
   108a3:	48 89 85 10 f5 ff ff 	mov    %rax,-0xaf0(%rbp)
   108aa:	48 8d 05 77 87 00 00 	lea    0x8777(%rip),%rax        # 19028 <g_5>
   108b1:	48 89 85 18 f5 ff ff 	mov    %rax,-0xae8(%rbp)
   108b8:	48 8d 85 e0 e9 ff ff 	lea    -0x1620(%rbp),%rax
   108bf:	48 83 c0 48          	add    $0x48,%rax
   108c3:	48 89 85 20 f5 ff ff 	mov    %rax,-0xae0(%rbp)
   108ca:	48 8d 85 e0 e9 ff ff 	lea    -0x1620(%rbp),%rax
   108d1:	48 05 a0 00 00 00    	add    $0xa0,%rax
   108d7:	48 89 85 28 f5 ff ff 	mov    %rax,-0xad8(%rbp)
   108de:	48 8d 85 e0 e9 ff ff 	lea    -0x1620(%rbp),%rax
   108e5:	48 05 88 00 00 00    	add    $0x88,%rax
   108eb:	48 89 85 30 f5 ff ff 	mov    %rax,-0xad0(%rbp)
   108f2:	48 8d 85 e4 e4 ff ff 	lea    -0x1b1c(%rbp),%rax
   108f9:	48 89 85 38 f5 ff ff 	mov    %rax,-0xac8(%rbp)
   10900:	48 8d 85 e0 e9 ff ff 	lea    -0x1620(%rbp),%rax
   10907:	48 83 c0 74          	add    $0x74,%rax
   1090b:	48 89 85 40 f5 ff ff 	mov    %rax,-0xac0(%rbp)
   10912:	48 8d 85 e0 e9 ff ff 	lea    -0x1620(%rbp),%rax
   10919:	48 83 c0 48          	add    $0x48,%rax
   1091d:	48 89 85 48 f5 ff ff 	mov    %rax,-0xab8(%rbp)
   10924:	48 8d 85 e4 e4 ff ff 	lea    -0x1b1c(%rbp),%rax
   1092b:	48 89 85 50 f5 ff ff 	mov    %rax,-0xab0(%rbp)
   10932:	48 8d 85 e0 e9 ff ff 	lea    -0x1620(%rbp),%rax
   10939:	48 83 c0 48          	add    $0x48,%rax
   1093d:	48 89 85 58 f5 ff ff 	mov    %rax,-0xaa8(%rbp)
   10944:	48 8d 05 dd 86 00 00 	lea    0x86dd(%rip),%rax        # 19028 <g_5>
   1094b:	48 89 85 60 f5 ff ff 	mov    %rax,-0xaa0(%rbp)
   10952:	48 c7 85 68 f5 ff ff 	movq   $0x0,-0xa98(%rbp)
   10959:	00 00 00 00 
   1095d:	48 8d 05 c4 86 00 00 	lea    0x86c4(%rip),%rax        # 19028 <g_5>
   10964:	48 89 85 70 f5 ff ff 	mov    %rax,-0xa90(%rbp)
   1096b:	48 8d 85 e4 e4 ff ff 	lea    -0x1b1c(%rbp),%rax
   10972:	48 89 85 78 f5 ff ff 	mov    %rax,-0xa88(%rbp)
   10979:	48 c7 85 80 f5 ff ff 	movq   $0x0,-0xa80(%rbp)
   10980:	00 00 00 00 
   10984:	48 c7 85 88 f5 ff ff 	movq   $0x0,-0xa78(%rbp)
   1098b:	00 00 00 00 
   1098f:	48 8d 05 92 86 00 00 	lea    0x8692(%rip),%rax        # 19028 <g_5>
   10996:	48 89 85 90 f5 ff ff 	mov    %rax,-0xa70(%rbp)
   1099d:	48 c7 85 98 f5 ff ff 	movq   $0x0,-0xa68(%rbp)
   109a4:	00 00 00 00 
   109a8:	48 8d 85 e4 e4 ff ff 	lea    -0x1b1c(%rbp),%rax
   109af:	48 89 85 a0 f5 ff ff 	mov    %rax,-0xa60(%rbp)
   109b6:	48 8d 85 e0 e9 ff ff 	lea    -0x1620(%rbp),%rax
   109bd:	48 83 c0 48          	add    $0x48,%rax
   109c1:	48 89 85 a8 f5 ff ff 	mov    %rax,-0xa58(%rbp)
   109c8:	48 8d 05 59 86 00 00 	lea    0x8659(%rip),%rax        # 19028 <g_5>
   109cf:	48 89 85 b0 f5 ff ff 	mov    %rax,-0xa50(%rbp)
   109d6:	48 8d 85 e4 e4 ff ff 	lea    -0x1b1c(%rbp),%rax
   109dd:	48 89 85 b8 f5 ff ff 	mov    %rax,-0xa48(%rbp)
   109e4:	48 c7 85 c0 f5 ff ff 	movq   $0x0,-0xa40(%rbp)
   109eb:	00 00 00 00 
   109ef:	48 c7 85 c8 f5 ff ff 	movq   $0x0,-0xa38(%rbp)
   109f6:	00 00 00 00 
   109fa:	48 c7 85 d0 f5 ff ff 	movq   $0x0,-0xa30(%rbp)
   10a01:	00 00 00 00 
   10a05:	48 c7 85 d8 f5 ff ff 	movq   $0x0,-0xa28(%rbp)
   10a0c:	00 00 00 00 
   10a10:	48 8d 85 e0 e9 ff ff 	lea    -0x1620(%rbp),%rax
   10a17:	48 83 c0 48          	add    $0x48,%rax
   10a1b:	48 89 85 e0 f5 ff ff 	mov    %rax,-0xa20(%rbp)
   10a22:	48 8d 85 e0 e9 ff ff 	lea    -0x1620(%rbp),%rax
   10a29:	48 83 c0 48          	add    $0x48,%rax
   10a2d:	48 89 85 e8 f5 ff ff 	mov    %rax,-0xa18(%rbp)
   10a34:	48 c7 85 f0 f5 ff ff 	movq   $0x0,-0xa10(%rbp)
   10a3b:	00 00 00 00 
   10a3f:	48 c7 85 f8 f5 ff ff 	movq   $0x0,-0xa08(%rbp)
   10a46:	00 00 00 00 
   10a4a:	48 8d 85 e4 e4 ff ff 	lea    -0x1b1c(%rbp),%rax
   10a51:	48 89 85 00 f6 ff ff 	mov    %rax,-0xa00(%rbp)
   10a58:	48 8d 85 e0 e9 ff ff 	lea    -0x1620(%rbp),%rax
   10a5f:	48 83 c0 48          	add    $0x48,%rax
   10a63:	48 89 85 08 f6 ff ff 	mov    %rax,-0x9f8(%rbp)
   10a6a:	48 8d 85 e4 e4 ff ff 	lea    -0x1b1c(%rbp),%rax
   10a71:	48 89 85 10 f6 ff ff 	mov    %rax,-0x9f0(%rbp)
   10a78:	48 c7 85 18 f6 ff ff 	movq   $0x0,-0x9e8(%rbp)
   10a7f:	00 00 00 00 
   10a83:	48 c7 85 20 f6 ff ff 	movq   $0x0,-0x9e0(%rbp)
   10a8a:	00 00 00 00 
   10a8e:	48 8d 85 e4 e4 ff ff 	lea    -0x1b1c(%rbp),%rax
   10a95:	48 89 85 28 f6 ff ff 	mov    %rax,-0x9d8(%rbp)
   10a9c:	48 8d 85 e4 e4 ff ff 	lea    -0x1b1c(%rbp),%rax
   10aa3:	48 89 85 30 f6 ff ff 	mov    %rax,-0x9d0(%rbp)
   10aaa:	48 8d 85 e4 e4 ff ff 	lea    -0x1b1c(%rbp),%rax
   10ab1:	48 89 85 38 f6 ff ff 	mov    %rax,-0x9c8(%rbp)
   10ab8:	48 8d 05 69 85 00 00 	lea    0x8569(%rip),%rax        # 19028 <g_5>
   10abf:	48 89 85 40 f6 ff ff 	mov    %rax,-0x9c0(%rbp)
   10ac6:	48 8d 85 e0 e9 ff ff 	lea    -0x1620(%rbp),%rax
   10acd:	48 83 c0 54          	add    $0x54,%rax
   10ad1:	48 89 85 48 f6 ff ff 	mov    %rax,-0x9b8(%rbp)
   10ad8:	48 8d 85 e4 e4 ff ff 	lea    -0x1b1c(%rbp),%rax
   10adf:	48 89 85 50 f6 ff ff 	mov    %rax,-0x9b0(%rbp)
   10ae6:	48 8d 85 e0 e9 ff ff 	lea    -0x1620(%rbp),%rax
   10aed:	48 83 c0 48          	add    $0x48,%rax
   10af1:	48 89 85 58 f6 ff ff 	mov    %rax,-0x9a8(%rbp)
   10af8:	48 c7 85 60 f6 ff ff 	movq   $0x0,-0x9a0(%rbp)
   10aff:	00 00 00 00 
   10b03:	48 8d 85 e0 e9 ff ff 	lea    -0x1620(%rbp),%rax
   10b0a:	48 83 c0 48          	add    $0x48,%rax
   10b0e:	48 89 85 68 f6 ff ff 	mov    %rax,-0x998(%rbp)
   10b15:	48 8d 85 e0 e9 ff ff 	lea    -0x1620(%rbp),%rax
   10b1c:	48 83 c0 4c          	add    $0x4c,%rax
   10b20:	48 89 85 70 f6 ff ff 	mov    %rax,-0x990(%rbp)
   10b27:	48 8d 85 e0 e9 ff ff 	lea    -0x1620(%rbp),%rax
   10b2e:	48 05 a4 00 00 00    	add    $0xa4,%rax
   10b34:	48 89 85 78 f6 ff ff 	mov    %rax,-0x988(%rbp)
   10b3b:	48 8d 85 e0 e9 ff ff 	lea    -0x1620(%rbp),%rax
   10b42:	48 83 c0 10          	add    $0x10,%rax
   10b46:	48 89 85 80 f6 ff ff 	mov    %rax,-0x980(%rbp)
   10b4d:	48 8d 85 e4 e4 ff ff 	lea    -0x1b1c(%rbp),%rax
   10b54:	48 89 85 88 f6 ff ff 	mov    %rax,-0x978(%rbp)
   10b5b:	48 8d 85 e0 e9 ff ff 	lea    -0x1620(%rbp),%rax
   10b62:	48 83 c0 54          	add    $0x54,%rax
   10b66:	48 89 85 90 f6 ff ff 	mov    %rax,-0x970(%rbp)
   10b6d:	48 8d 85 e4 e4 ff ff 	lea    -0x1b1c(%rbp),%rax
   10b74:	48 89 85 98 f6 ff ff 	mov    %rax,-0x968(%rbp)
   10b7b:	48 8d 85 e0 e9 ff ff 	lea    -0x1620(%rbp),%rax
   10b82:	48 83 c0 48          	add    $0x48,%rax
   10b86:	48 89 85 a0 f6 ff ff 	mov    %rax,-0x960(%rbp)
   10b8d:	48 8d 85 e0 e9 ff ff 	lea    -0x1620(%rbp),%rax
   10b94:	48 83 c0 48          	add    $0x48,%rax
   10b98:	48 89 85 a8 f6 ff ff 	mov    %rax,-0x958(%rbp)
   10b9f:	48 8d 85 e4 e4 ff ff 	lea    -0x1b1c(%rbp),%rax
   10ba6:	48 89 85 b0 f6 ff ff 	mov    %rax,-0x950(%rbp)
   10bad:	48 8d 05 74 84 00 00 	lea    0x8474(%rip),%rax        # 19028 <g_5>
   10bb4:	48 89 85 b8 f6 ff ff 	mov    %rax,-0x948(%rbp)
   10bbb:	48 8d 85 e4 e4 ff ff 	lea    -0x1b1c(%rbp),%rax
   10bc2:	48 89 85 c0 f6 ff ff 	mov    %rax,-0x940(%rbp)
   10bc9:	48 c7 85 c8 f6 ff ff 	movq   $0x0,-0x938(%rbp)
   10bd0:	00 00 00 00 
   10bd4:	48 8d 85 e0 e9 ff ff 	lea    -0x1620(%rbp),%rax
   10bdb:	48 83 c0 48          	add    $0x48,%rax
   10bdf:	48 89 85 d0 f6 ff ff 	mov    %rax,-0x930(%rbp)
   10be6:	48 8d 85 e4 e4 ff ff 	lea    -0x1b1c(%rbp),%rax
   10bed:	48 89 85 d8 f6 ff ff 	mov    %rax,-0x928(%rbp)
   10bf4:	48 c7 85 e0 f6 ff ff 	movq   $0x0,-0x920(%rbp)
   10bfb:	00 00 00 00 
   10bff:	48 8d 85 e0 e9 ff ff 	lea    -0x1620(%rbp),%rax
   10c06:	48 83 c0 48          	add    $0x48,%rax
   10c0a:	48 89 85 e8 f6 ff ff 	mov    %rax,-0x918(%rbp)
   10c11:	48 8d 85 e0 e9 ff ff 	lea    -0x1620(%rbp),%rax
   10c18:	48 83 c0 68          	add    $0x68,%rax
   10c1c:	48 89 85 f0 f6 ff ff 	mov    %rax,-0x910(%rbp)
   10c23:	48 8d 05 fe 83 00 00 	lea    0x83fe(%rip),%rax        # 19028 <g_5>
   10c2a:	48 89 85 f8 f6 ff ff 	mov    %rax,-0x908(%rbp)
   10c31:	48 8d 85 e4 e4 ff ff 	lea    -0x1b1c(%rbp),%rax
   10c38:	48 89 85 00 f7 ff ff 	mov    %rax,-0x900(%rbp)
   10c3f:	48 8d 85 e0 e9 ff ff 	lea    -0x1620(%rbp),%rax
   10c46:	48 83 c0 48          	add    $0x48,%rax
   10c4a:	48 89 85 08 f7 ff ff 	mov    %rax,-0x8f8(%rbp)
   10c51:	48 8d 85 e4 e4 ff ff 	lea    -0x1b1c(%rbp),%rax
   10c58:	48 89 85 10 f7 ff ff 	mov    %rax,-0x8f0(%rbp)
   10c5f:	48 8d 85 e4 e4 ff ff 	lea    -0x1b1c(%rbp),%rax
   10c66:	48 89 85 18 f7 ff ff 	mov    %rax,-0x8e8(%rbp)
   10c6d:	48 8d 05 b4 83 00 00 	lea    0x83b4(%rip),%rax        # 19028 <g_5>
   10c74:	48 89 85 20 f7 ff ff 	mov    %rax,-0x8e0(%rbp)
   10c7b:	48 c7 85 28 f7 ff ff 	movq   $0x0,-0x8d8(%rbp)
   10c82:	00 00 00 00 
   10c86:	48 c7 85 30 f7 ff ff 	movq   $0x0,-0x8d0(%rbp)
   10c8d:	00 00 00 00 
   10c91:	48 8d 85 e0 e9 ff ff 	lea    -0x1620(%rbp),%rax
   10c98:	48 83 c0 44          	add    $0x44,%rax
   10c9c:	48 89 85 38 f7 ff ff 	mov    %rax,-0x8c8(%rbp)
   10ca3:	48 8d 85 e0 e9 ff ff 	lea    -0x1620(%rbp),%rax
   10caa:	48 83 c0 48          	add    $0x48,%rax
   10cae:	48 89 85 40 f7 ff ff 	mov    %rax,-0x8c0(%rbp)
   10cb5:	48 c7 85 48 f7 ff ff 	movq   $0x0,-0x8b8(%rbp)
   10cbc:	00 00 00 00 
   10cc0:	48 8d 85 e0 e9 ff ff 	lea    -0x1620(%rbp),%rax
   10cc7:	48 83 c0 48          	add    $0x48,%rax
   10ccb:	48 89 85 50 f7 ff ff 	mov    %rax,-0x8b0(%rbp)
   10cd2:	48 c7 85 58 f7 ff ff 	movq   $0x0,-0x8a8(%rbp)
   10cd9:	00 00 00 00 
   10cdd:	48 8d 85 e0 e9 ff ff 	lea    -0x1620(%rbp),%rax
   10ce4:	48 83 c0 74          	add    $0x74,%rax
   10ce8:	48 89 85 60 f7 ff ff 	mov    %rax,-0x8a0(%rbp)
   10cef:	48 c7 85 68 f7 ff ff 	movq   $0x0,-0x898(%rbp)
   10cf6:	00 00 00 00 
   10cfa:	48 8d 85 e0 e9 ff ff 	lea    -0x1620(%rbp),%rax
   10d01:	48 83 c0 54          	add    $0x54,%rax
   10d05:	48 89 85 70 f7 ff ff 	mov    %rax,-0x890(%rbp)
   10d0c:	48 c7 85 78 f7 ff ff 	movq   $0x0,-0x888(%rbp)
   10d13:	00 00 00 00 
   10d17:	48 8d 85 e4 e4 ff ff 	lea    -0x1b1c(%rbp),%rax
   10d1e:	48 89 85 80 f7 ff ff 	mov    %rax,-0x880(%rbp)
   10d25:	48 8d 85 e4 e4 ff ff 	lea    -0x1b1c(%rbp),%rax
   10d2c:	48 89 85 88 f7 ff ff 	mov    %rax,-0x878(%rbp)
   10d33:	48 8d 05 ee 82 00 00 	lea    0x82ee(%rip),%rax        # 19028 <g_5>
   10d3a:	48 89 85 90 f7 ff ff 	mov    %rax,-0x870(%rbp)
   10d41:	48 8d 85 e4 e4 ff ff 	lea    -0x1b1c(%rbp),%rax
   10d48:	48 89 85 98 f7 ff ff 	mov    %rax,-0x868(%rbp)
   10d4f:	48 c7 85 a0 f7 ff ff 	movq   $0x0,-0x860(%rbp)
   10d56:	00 00 00 00 
   10d5a:	48 8d 85 e0 e9 ff ff 	lea    -0x1620(%rbp),%rax
   10d61:	48 83 c0 48          	add    $0x48,%rax
   10d65:	48 89 85 a8 f7 ff ff 	mov    %rax,-0x858(%rbp)
   10d6c:	48 8d 85 e0 e9 ff ff 	lea    -0x1620(%rbp),%rax
   10d73:	48 83 c0 48          	add    $0x48,%rax
   10d77:	48 89 85 b0 f7 ff ff 	mov    %rax,-0x850(%rbp)
   10d7e:	48 8d 85 e0 e9 ff ff 	lea    -0x1620(%rbp),%rax
   10d85:	48 83 c0 48          	add    $0x48,%rax
   10d89:	48 89 85 b8 f7 ff ff 	mov    %rax,-0x848(%rbp)
   10d90:	48 8d 05 91 82 00 00 	lea    0x8291(%rip),%rax        # 19028 <g_5>
   10d97:	48 89 85 c0 f7 ff ff 	mov    %rax,-0x840(%rbp)
   10d9e:	48 8d 85 e0 e9 ff ff 	lea    -0x1620(%rbp),%rax
   10da5:	48 05 a0 00 00 00    	add    $0xa0,%rax
   10dab:	48 89 85 c8 f7 ff ff 	mov    %rax,-0x838(%rbp)
   10db2:	48 8d 05 6f 82 00 00 	lea    0x826f(%rip),%rax        # 19028 <g_5>
   10db9:	48 89 85 d0 f7 ff ff 	mov    %rax,-0x830(%rbp)
   10dc0:	48 c7 85 d8 f7 ff ff 	movq   $0x0,-0x828(%rbp)
   10dc7:	00 00 00 00 
   10dcb:	48 c7 85 70 e7 ff ff 	movq   $0x0,-0x1890(%rbp)
   10dd2:	00 00 00 00 
   10dd6:	48 c7 85 78 e7 ff ff 	movq   $0x0,-0x1888(%rbp)
   10ddd:	00 00 00 00 
   10de1:	48 c7 85 80 e7 ff ff 	movq   $0x0,-0x1880(%rbp)
   10de8:	00 00 00 00 
   10dec:	48 c7 85 88 e7 ff ff 	movq   $0x0,-0x1878(%rbp)
   10df3:	00 00 00 00 
   10df7:	48 c7 85 90 e7 ff ff 	movq   $0x0,-0x1870(%rbp)
   10dfe:	00 00 00 00 
   10e02:	48 c7 85 98 e7 ff ff 	movq   $0x0,-0x1868(%rbp)
   10e09:	00 00 00 00 
   10e0d:	48 8d 05 44 84 00 00 	lea    0x8444(%rip),%rax        # 19258 <g_92+0x218>
   10e14:	48 89 85 60 e5 ff ff 	mov    %rax,-0x1aa0(%rbp)
   10e1b:	48 c7 85 b8 e5 ff ff 	movq   $0x0,-0x1a48(%rbp)
   10e22:	00 00 00 00 
   10e26:	48 b8 2d c7 e0 10 41 	movabs $0x637064110e0c72d,%rax
   10e2d:	06 37 06 
   10e30:	48 89 85 c0 e5 ff ff 	mov    %rax,-0x1a40(%rbp)
   10e37:	c7 85 e8 e4 ff ff dd 	movl   $0x3bd686dd,-0x1b18(%rbp)
   10e3e:	86 d6 3b 
   10e41:	48 8d 05 18 42 00 00 	lea    0x4218(%rip),%rax        # 15060 <g_202>
   10e48:	48 89 85 68 e5 ff ff 	mov    %rax,-0x1a98(%rbp)
   10e4f:	48 8d 85 68 e5 ff ff 	lea    -0x1a98(%rbp),%rax
   10e56:	48 89 85 70 ed ff ff 	mov    %rax,-0x1290(%rbp)
   10e5d:	48 8d 85 68 e5 ff ff 	lea    -0x1a98(%rbp),%rax
   10e64:	48 89 85 78 ed ff ff 	mov    %rax,-0x1288(%rbp)
   10e6b:	48 8d 85 68 e5 ff ff 	lea    -0x1a98(%rbp),%rax
   10e72:	48 89 85 80 ed ff ff 	mov    %rax,-0x1280(%rbp)
   10e79:	48 8d 85 68 e5 ff ff 	lea    -0x1a98(%rbp),%rax
   10e80:	48 89 85 88 ed ff ff 	mov    %rax,-0x1278(%rbp)
   10e87:	48 8d 85 68 e5 ff ff 	lea    -0x1a98(%rbp),%rax
   10e8e:	48 89 85 90 ed ff ff 	mov    %rax,-0x1270(%rbp)
   10e95:	48 8d 85 68 e5 ff ff 	lea    -0x1a98(%rbp),%rax
   10e9c:	48 89 85 98 ed ff ff 	mov    %rax,-0x1268(%rbp)
   10ea3:	48 8d 85 68 e5 ff ff 	lea    -0x1a98(%rbp),%rax
   10eaa:	48 89 85 a0 ed ff ff 	mov    %rax,-0x1260(%rbp)
   10eb1:	48 8d 85 68 e5 ff ff 	lea    -0x1a98(%rbp),%rax
   10eb8:	48 89 85 a8 ed ff ff 	mov    %rax,-0x1258(%rbp)
   10ebf:	48 8d 85 68 e5 ff ff 	lea    -0x1a98(%rbp),%rax
   10ec6:	48 89 85 b0 ed ff ff 	mov    %rax,-0x1250(%rbp)
   10ecd:	48 8d 85 68 e5 ff ff 	lea    -0x1a98(%rbp),%rax
   10ed4:	48 89 85 b8 ed ff ff 	mov    %rax,-0x1248(%rbp)
   10edb:	48 8d 85 68 e5 ff ff 	lea    -0x1a98(%rbp),%rax
   10ee2:	48 89 85 c0 ed ff ff 	mov    %rax,-0x1240(%rbp)
   10ee9:	48 8d 85 68 e5 ff ff 	lea    -0x1a98(%rbp),%rax
   10ef0:	48 89 85 c8 ed ff ff 	mov    %rax,-0x1238(%rbp)
   10ef7:	48 8d 85 68 e5 ff ff 	lea    -0x1a98(%rbp),%rax
   10efe:	48 89 85 d0 ed ff ff 	mov    %rax,-0x1230(%rbp)
   10f05:	48 8d 85 68 e5 ff ff 	lea    -0x1a98(%rbp),%rax
   10f0c:	48 89 85 d8 ed ff ff 	mov    %rax,-0x1228(%rbp)
   10f13:	48 8d 85 68 e5 ff ff 	lea    -0x1a98(%rbp),%rax
   10f1a:	48 89 85 e0 ed ff ff 	mov    %rax,-0x1220(%rbp)
   10f21:	48 8d 85 68 e5 ff ff 	lea    -0x1a98(%rbp),%rax
   10f28:	48 89 85 e8 ed ff ff 	mov    %rax,-0x1218(%rbp)
   10f2f:	48 8d 85 68 e5 ff ff 	lea    -0x1a98(%rbp),%rax
   10f36:	48 89 85 f0 ed ff ff 	mov    %rax,-0x1210(%rbp)
   10f3d:	48 8d 85 68 e5 ff ff 	lea    -0x1a98(%rbp),%rax
   10f44:	48 89 85 f8 ed ff ff 	mov    %rax,-0x1208(%rbp)
   10f4b:	48 8d 85 68 e5 ff ff 	lea    -0x1a98(%rbp),%rax
   10f52:	48 89 85 00 ee ff ff 	mov    %rax,-0x1200(%rbp)
   10f59:	48 8d 85 68 e5 ff ff 	lea    -0x1a98(%rbp),%rax
   10f60:	48 89 85 08 ee ff ff 	mov    %rax,-0x11f8(%rbp)
   10f67:	48 8d 85 68 e5 ff ff 	lea    -0x1a98(%rbp),%rax
   10f6e:	48 89 85 10 ee ff ff 	mov    %rax,-0x11f0(%rbp)
   10f75:	48 8d 85 68 e5 ff ff 	lea    -0x1a98(%rbp),%rax
   10f7c:	48 89 85 18 ee ff ff 	mov    %rax,-0x11e8(%rbp)
   10f83:	48 8d 85 68 e5 ff ff 	lea    -0x1a98(%rbp),%rax
   10f8a:	48 89 85 20 ee ff ff 	mov    %rax,-0x11e0(%rbp)
   10f91:	48 8d 85 68 e5 ff ff 	lea    -0x1a98(%rbp),%rax
   10f98:	48 89 85 28 ee ff ff 	mov    %rax,-0x11d8(%rbp)
   10f9f:	48 8d 85 68 e5 ff ff 	lea    -0x1a98(%rbp),%rax
   10fa6:	48 89 85 30 ee ff ff 	mov    %rax,-0x11d0(%rbp)
   10fad:	48 8d 85 68 e5 ff ff 	lea    -0x1a98(%rbp),%rax
   10fb4:	48 89 85 38 ee ff ff 	mov    %rax,-0x11c8(%rbp)
   10fbb:	48 8d 85 68 e5 ff ff 	lea    -0x1a98(%rbp),%rax
   10fc2:	48 89 85 40 ee ff ff 	mov    %rax,-0x11c0(%rbp)
   10fc9:	48 8d 85 68 e5 ff ff 	lea    -0x1a98(%rbp),%rax
   10fd0:	48 89 85 48 ee ff ff 	mov    %rax,-0x11b8(%rbp)
   10fd7:	48 8d 85 68 e5 ff ff 	lea    -0x1a98(%rbp),%rax
   10fde:	48 89 85 50 ee ff ff 	mov    %rax,-0x11b0(%rbp)
   10fe5:	48 8d 85 68 e5 ff ff 	lea    -0x1a98(%rbp),%rax
   10fec:	48 89 85 58 ee ff ff 	mov    %rax,-0x11a8(%rbp)
   10ff3:	48 8d 85 68 e5 ff ff 	lea    -0x1a98(%rbp),%rax
   10ffa:	48 89 85 60 ee ff ff 	mov    %rax,-0x11a0(%rbp)
   11001:	48 8d 85 68 e5 ff ff 	lea    -0x1a98(%rbp),%rax
   11008:	48 89 85 68 ee ff ff 	mov    %rax,-0x1198(%rbp)
   1100f:	48 8d 85 68 e5 ff ff 	lea    -0x1a98(%rbp),%rax
   11016:	48 89 85 70 ee ff ff 	mov    %rax,-0x1190(%rbp)
   1101d:	48 8d 85 68 e5 ff ff 	lea    -0x1a98(%rbp),%rax
   11024:	48 89 85 78 ee ff ff 	mov    %rax,-0x1188(%rbp)
   1102b:	48 8d 85 68 e5 ff ff 	lea    -0x1a98(%rbp),%rax
   11032:	48 89 85 80 ee ff ff 	mov    %rax,-0x1180(%rbp)
   11039:	48 8d 85 68 e5 ff ff 	lea    -0x1a98(%rbp),%rax
   11040:	48 89 85 88 ee ff ff 	mov    %rax,-0x1178(%rbp)
   11047:	48 8d 85 68 e5 ff ff 	lea    -0x1a98(%rbp),%rax
   1104e:	48 89 85 90 ee ff ff 	mov    %rax,-0x1170(%rbp)
   11055:	48 8d 85 68 e5 ff ff 	lea    -0x1a98(%rbp),%rax
   1105c:	48 89 85 98 ee ff ff 	mov    %rax,-0x1168(%rbp)
   11063:	48 8d 85 68 e5 ff ff 	lea    -0x1a98(%rbp),%rax
   1106a:	48 89 85 a0 ee ff ff 	mov    %rax,-0x1160(%rbp)
   11071:	48 8d 85 68 e5 ff ff 	lea    -0x1a98(%rbp),%rax
   11078:	48 89 85 a8 ee ff ff 	mov    %rax,-0x1158(%rbp)
   1107f:	48 8d 85 68 e5 ff ff 	lea    -0x1a98(%rbp),%rax
   11086:	48 89 85 b0 ee ff ff 	mov    %rax,-0x1150(%rbp)
   1108d:	48 8d 85 68 e5 ff ff 	lea    -0x1a98(%rbp),%rax
   11094:	48 89 85 b8 ee ff ff 	mov    %rax,-0x1148(%rbp)
   1109b:	48 8d 85 68 e5 ff ff 	lea    -0x1a98(%rbp),%rax
   110a2:	48 89 85 c0 ee ff ff 	mov    %rax,-0x1140(%rbp)
   110a9:	48 8d 85 68 e5 ff ff 	lea    -0x1a98(%rbp),%rax
   110b0:	48 89 85 c8 ee ff ff 	mov    %rax,-0x1138(%rbp)
   110b7:	48 8d 85 68 e5 ff ff 	lea    -0x1a98(%rbp),%rax
   110be:	48 89 85 d0 ee ff ff 	mov    %rax,-0x1130(%rbp)
   110c5:	48 8d 85 68 e5 ff ff 	lea    -0x1a98(%rbp),%rax
   110cc:	48 89 85 d8 ee ff ff 	mov    %rax,-0x1128(%rbp)
   110d3:	48 8d 85 68 e5 ff ff 	lea    -0x1a98(%rbp),%rax
   110da:	48 89 85 e0 ee ff ff 	mov    %rax,-0x1120(%rbp)
   110e1:	48 8d 85 68 e5 ff ff 	lea    -0x1a98(%rbp),%rax
   110e8:	48 89 85 e8 ee ff ff 	mov    %rax,-0x1118(%rbp)
   110ef:	48 8d 85 68 e5 ff ff 	lea    -0x1a98(%rbp),%rax
   110f6:	48 89 85 f0 ee ff ff 	mov    %rax,-0x1110(%rbp)
   110fd:	48 8d 85 68 e5 ff ff 	lea    -0x1a98(%rbp),%rax
   11104:	48 89 85 f8 ee ff ff 	mov    %rax,-0x1108(%rbp)
   1110b:	48 8d 85 68 e5 ff ff 	lea    -0x1a98(%rbp),%rax
   11112:	48 89 85 00 ef ff ff 	mov    %rax,-0x1100(%rbp)
   11119:	48 8d 85 68 e5 ff ff 	lea    -0x1a98(%rbp),%rax
   11120:	48 89 85 08 ef ff ff 	mov    %rax,-0x10f8(%rbp)
   11127:	48 8d 85 68 e5 ff ff 	lea    -0x1a98(%rbp),%rax
   1112e:	48 89 85 10 ef ff ff 	mov    %rax,-0x10f0(%rbp)
   11135:	48 8d 85 68 e5 ff ff 	lea    -0x1a98(%rbp),%rax
   1113c:	48 89 85 18 ef ff ff 	mov    %rax,-0x10e8(%rbp)
   11143:	48 8d 85 68 e5 ff ff 	lea    -0x1a98(%rbp),%rax
   1114a:	48 89 85 20 ef ff ff 	mov    %rax,-0x10e0(%rbp)
   11151:	48 8d 85 68 e5 ff ff 	lea    -0x1a98(%rbp),%rax
   11158:	48 89 85 28 ef ff ff 	mov    %rax,-0x10d8(%rbp)
   1115f:	48 8d 85 68 e5 ff ff 	lea    -0x1a98(%rbp),%rax
   11166:	48 89 85 30 ef ff ff 	mov    %rax,-0x10d0(%rbp)
   1116d:	48 8d 85 68 e5 ff ff 	lea    -0x1a98(%rbp),%rax
   11174:	48 89 85 38 ef ff ff 	mov    %rax,-0x10c8(%rbp)
   1117b:	48 8d 85 68 e5 ff ff 	lea    -0x1a98(%rbp),%rax
   11182:	48 89 85 40 ef ff ff 	mov    %rax,-0x10c0(%rbp)
   11189:	48 8d 85 68 e5 ff ff 	lea    -0x1a98(%rbp),%rax
   11190:	48 89 85 48 ef ff ff 	mov    %rax,-0x10b8(%rbp)
   11197:	48 8d 85 68 e5 ff ff 	lea    -0x1a98(%rbp),%rax
   1119e:	48 89 85 50 ef ff ff 	mov    %rax,-0x10b0(%rbp)
   111a5:	48 8d 85 68 e5 ff ff 	lea    -0x1a98(%rbp),%rax
   111ac:	48 89 85 58 ef ff ff 	mov    %rax,-0x10a8(%rbp)
   111b3:	48 8d 85 68 e5 ff ff 	lea    -0x1a98(%rbp),%rax
   111ba:	48 89 85 60 ef ff ff 	mov    %rax,-0x10a0(%rbp)
   111c1:	48 8d 85 68 e5 ff ff 	lea    -0x1a98(%rbp),%rax
   111c8:	48 89 85 68 ef ff ff 	mov    %rax,-0x1098(%rbp)
   111cf:	48 8d 85 68 e5 ff ff 	lea    -0x1a98(%rbp),%rax
   111d6:	48 89 85 70 ef ff ff 	mov    %rax,-0x1090(%rbp)
   111dd:	48 8d 85 68 e5 ff ff 	lea    -0x1a98(%rbp),%rax
   111e4:	48 89 85 78 ef ff ff 	mov    %rax,-0x1088(%rbp)
   111eb:	48 8d 85 68 e5 ff ff 	lea    -0x1a98(%rbp),%rax
   111f2:	48 89 85 80 ef ff ff 	mov    %rax,-0x1080(%rbp)
   111f9:	48 8d 85 68 e5 ff ff 	lea    -0x1a98(%rbp),%rax
   11200:	48 89 85 88 ef ff ff 	mov    %rax,-0x1078(%rbp)
   11207:	48 8d 85 68 e5 ff ff 	lea    -0x1a98(%rbp),%rax
   1120e:	48 89 85 90 ef ff ff 	mov    %rax,-0x1070(%rbp)
   11215:	48 8d 85 68 e5 ff ff 	lea    -0x1a98(%rbp),%rax
   1121c:	48 89 85 98 ef ff ff 	mov    %rax,-0x1068(%rbp)
   11223:	48 8d 85 68 e5 ff ff 	lea    -0x1a98(%rbp),%rax
   1122a:	48 89 85 a0 ef ff ff 	mov    %rax,-0x1060(%rbp)
   11231:	48 8d 85 68 e5 ff ff 	lea    -0x1a98(%rbp),%rax
   11238:	48 89 85 a8 ef ff ff 	mov    %rax,-0x1058(%rbp)
   1123f:	48 8d 85 68 e5 ff ff 	lea    -0x1a98(%rbp),%rax
   11246:	48 89 85 b0 ef ff ff 	mov    %rax,-0x1050(%rbp)
   1124d:	48 8d 85 68 e5 ff ff 	lea    -0x1a98(%rbp),%rax
   11254:	48 89 85 b8 ef ff ff 	mov    %rax,-0x1048(%rbp)
   1125b:	48 8d 85 68 e5 ff ff 	lea    -0x1a98(%rbp),%rax
   11262:	48 89 85 c0 ef ff ff 	mov    %rax,-0x1040(%rbp)
   11269:	48 8d 85 68 e5 ff ff 	lea    -0x1a98(%rbp),%rax
   11270:	48 89 85 c8 ef ff ff 	mov    %rax,-0x1038(%rbp)
   11277:	48 8d 85 68 e5 ff ff 	lea    -0x1a98(%rbp),%rax
   1127e:	48 89 85 d0 ef ff ff 	mov    %rax,-0x1030(%rbp)
   11285:	48 8d 85 68 e5 ff ff 	lea    -0x1a98(%rbp),%rax
   1128c:	48 89 85 d8 ef ff ff 	mov    %rax,-0x1028(%rbp)
   11293:	48 8d 85 68 e5 ff ff 	lea    -0x1a98(%rbp),%rax
   1129a:	48 89 85 e0 ef ff ff 	mov    %rax,-0x1020(%rbp)
   112a1:	48 8d 85 68 e5 ff ff 	lea    -0x1a98(%rbp),%rax
   112a8:	48 89 85 e8 ef ff ff 	mov    %rax,-0x1018(%rbp)
   112af:	48 8d 85 68 e5 ff ff 	lea    -0x1a98(%rbp),%rax
   112b6:	48 89 85 f0 ef ff ff 	mov    %rax,-0x1010(%rbp)
   112bd:	48 8d 85 70 ed ff ff 	lea    -0x1290(%rbp),%rax
   112c4:	48 05 38 02 00 00    	add    $0x238,%rax
   112ca:	48 89 85 c8 e5 ff ff 	mov    %rax,-0x1a38(%rbp)
   112d1:	66 c7 85 e0 e4 ff ff 	movw   $0x603c,-0x1b20(%rbp)
   112d8:	3c 60 
   112da:	c6 85 da e4 ff ff 00 	movb   $0x0,-0x1b26(%rbp)
   112e1:	48 8d 05 80 3d 00 00 	lea    0x3d80(%rip),%rax        # 15068 <g_321>
   112e8:	48 89 85 70 e5 ff ff 	mov    %rax,-0x1a90(%rbp)
   112ef:	48 c7 85 d0 e8 ff ff 	movq   $0x0,-0x1730(%rbp)
   112f6:	00 00 00 00 
   112fa:	48 c7 85 d8 e8 ff ff 	movq   $0x0,-0x1728(%rbp)
   11301:	00 00 00 00 
   11305:	48 c7 85 e0 e8 ff ff 	movq   $0x0,-0x1720(%rbp)
   1130c:	00 00 00 00 
   11310:	48 c7 85 e8 e8 ff ff 	movq   $0x0,-0x1718(%rbp)
   11317:	00 00 00 00 
   1131b:	48 c7 85 f0 e8 ff ff 	movq   $0x0,-0x1710(%rbp)
   11322:	00 00 00 00 
   11326:	48 c7 85 f8 e8 ff ff 	movq   $0x0,-0x1708(%rbp)
   1132d:	00 00 00 00 
   11331:	48 c7 85 00 e9 ff ff 	movq   $0x0,-0x1700(%rbp)
   11338:	00 00 00 00 
   1133c:	48 8d 85 70 e5 ff ff 	lea    -0x1a90(%rbp),%rax
   11343:	48 89 85 08 e9 ff ff 	mov    %rax,-0x16f8(%rbp)
   1134a:	48 8d 85 70 e5 ff ff 	lea    -0x1a90(%rbp),%rax
   11351:	48 89 85 10 e9 ff ff 	mov    %rax,-0x16f0(%rbp)
   11358:	48 8d 85 70 e5 ff ff 	lea    -0x1a90(%rbp),%rax
   1135f:	48 89 85 18 e9 ff ff 	mov    %rax,-0x16e8(%rbp)
   11366:	48 8d 85 70 e5 ff ff 	lea    -0x1a90(%rbp),%rax
   1136d:	48 89 85 20 e9 ff ff 	mov    %rax,-0x16e0(%rbp)
   11374:	48 8d 85 70 e5 ff ff 	lea    -0x1a90(%rbp),%rax
   1137b:	48 89 85 28 e9 ff ff 	mov    %rax,-0x16d8(%rbp)
   11382:	48 8d 85 70 e5 ff ff 	lea    -0x1a90(%rbp),%rax
   11389:	48 89 85 30 e9 ff ff 	mov    %rax,-0x16d0(%rbp)
   11390:	48 8d 85 70 e5 ff ff 	lea    -0x1a90(%rbp),%rax
   11397:	48 89 85 38 e9 ff ff 	mov    %rax,-0x16c8(%rbp)
   1139e:	48 8d 85 d0 e8 ff ff 	lea    -0x1730(%rbp),%rax
   113a5:	48 89 85 78 e5 ff ff 	mov    %rax,-0x1a88(%rbp)
   113ac:	48 8d 85 78 e5 ff ff 	lea    -0x1a88(%rbp),%rax
   113b3:	48 89 85 e0 f7 ff ff 	mov    %rax,-0x820(%rbp)
   113ba:	48 8d 85 78 e5 ff ff 	lea    -0x1a88(%rbp),%rax
   113c1:	48 89 85 e8 f7 ff ff 	mov    %rax,-0x818(%rbp)
   113c8:	48 8d 85 78 e5 ff ff 	lea    -0x1a88(%rbp),%rax
   113cf:	48 89 85 f0 f7 ff ff 	mov    %rax,-0x810(%rbp)
   113d6:	48 c7 85 f8 f7 ff ff 	movq   $0x0,-0x808(%rbp)
   113dd:	00 00 00 00 
   113e1:	48 8d 85 78 e5 ff ff 	lea    -0x1a88(%rbp),%rax
   113e8:	48 89 85 00 f8 ff ff 	mov    %rax,-0x800(%rbp)
   113ef:	48 8d 85 78 e5 ff ff 	lea    -0x1a88(%rbp),%rax
   113f6:	48 89 85 08 f8 ff ff 	mov    %rax,-0x7f8(%rbp)
   113fd:	48 8d 85 78 e5 ff ff 	lea    -0x1a88(%rbp),%rax
   11404:	48 89 85 10 f8 ff ff 	mov    %rax,-0x7f0(%rbp)
   1140b:	48 8d 85 78 e5 ff ff 	lea    -0x1a88(%rbp),%rax
   11412:	48 89 85 18 f8 ff ff 	mov    %rax,-0x7e8(%rbp)
   11419:	48 8d 85 78 e5 ff ff 	lea    -0x1a88(%rbp),%rax
   11420:	48 89 85 20 f8 ff ff 	mov    %rax,-0x7e0(%rbp)
   11427:	48 8d 85 78 e5 ff ff 	lea    -0x1a88(%rbp),%rax
   1142e:	48 89 85 28 f8 ff ff 	mov    %rax,-0x7d8(%rbp)
   11435:	48 c7 85 30 f8 ff ff 	movq   $0x0,-0x7d0(%rbp)
   1143c:	00 00 00 00 
   11440:	48 8d 85 78 e5 ff ff 	lea    -0x1a88(%rbp),%rax
   11447:	48 89 85 38 f8 ff ff 	mov    %rax,-0x7c8(%rbp)
   1144e:	48 8d 85 78 e5 ff ff 	lea    -0x1a88(%rbp),%rax
   11455:	48 89 85 40 f8 ff ff 	mov    %rax,-0x7c0(%rbp)
   1145c:	48 8d 85 78 e5 ff ff 	lea    -0x1a88(%rbp),%rax
   11463:	48 89 85 48 f8 ff ff 	mov    %rax,-0x7b8(%rbp)
   1146a:	48 8d 85 78 e5 ff ff 	lea    -0x1a88(%rbp),%rax
   11471:	48 89 85 50 f8 ff ff 	mov    %rax,-0x7b0(%rbp)
   11478:	48 8d 85 78 e5 ff ff 	lea    -0x1a88(%rbp),%rax
   1147f:	48 89 85 58 f8 ff ff 	mov    %rax,-0x7a8(%rbp)
   11486:	48 8d 85 78 e5 ff ff 	lea    -0x1a88(%rbp),%rax
   1148d:	48 89 85 60 f8 ff ff 	mov    %rax,-0x7a0(%rbp)
   11494:	48 8d 85 78 e5 ff ff 	lea    -0x1a88(%rbp),%rax
   1149b:	48 89 85 68 f8 ff ff 	mov    %rax,-0x798(%rbp)
   114a2:	48 c7 85 70 f8 ff ff 	movq   $0x0,-0x790(%rbp)
   114a9:	00 00 00 00 
   114ad:	48 8d 85 78 e5 ff ff 	lea    -0x1a88(%rbp),%rax
   114b4:	48 89 85 78 f8 ff ff 	mov    %rax,-0x788(%rbp)
   114bb:	48 8d 85 78 e5 ff ff 	lea    -0x1a88(%rbp),%rax
   114c2:	48 89 85 80 f8 ff ff 	mov    %rax,-0x780(%rbp)
   114c9:	48 8d 85 78 e5 ff ff 	lea    -0x1a88(%rbp),%rax
   114d0:	48 89 85 88 f8 ff ff 	mov    %rax,-0x778(%rbp)
   114d7:	48 c7 85 90 f8 ff ff 	movq   $0x0,-0x770(%rbp)
   114de:	00 00 00 00 
   114e2:	48 c7 85 98 f8 ff ff 	movq   $0x0,-0x768(%rbp)
   114e9:	00 00 00 00 
   114ed:	48 8d 85 78 e5 ff ff 	lea    -0x1a88(%rbp),%rax
   114f4:	48 89 85 a0 f8 ff ff 	mov    %rax,-0x760(%rbp)
   114fb:	48 c7 85 a8 f8 ff ff 	movq   $0x0,-0x758(%rbp)
   11502:	00 00 00 00 
   11506:	48 c7 85 b0 f8 ff ff 	movq   $0x0,-0x750(%rbp)
   1150d:	00 00 00 00 
   11511:	48 8d 85 78 e5 ff ff 	lea    -0x1a88(%rbp),%rax
   11518:	48 89 85 b8 f8 ff ff 	mov    %rax,-0x748(%rbp)
   1151f:	48 8d 85 78 e5 ff ff 	lea    -0x1a88(%rbp),%rax
   11526:	48 89 85 c0 f8 ff ff 	mov    %rax,-0x740(%rbp)
   1152d:	48 8d 85 78 e5 ff ff 	lea    -0x1a88(%rbp),%rax
   11534:	48 89 85 c8 f8 ff ff 	mov    %rax,-0x738(%rbp)
   1153b:	48 c7 85 d0 f8 ff ff 	movq   $0x0,-0x730(%rbp)
   11542:	00 00 00 00 
   11546:	48 8d 85 78 e5 ff ff 	lea    -0x1a88(%rbp),%rax
   1154d:	48 89 85 d8 f8 ff ff 	mov    %rax,-0x728(%rbp)
   11554:	48 8d 85 78 e5 ff ff 	lea    -0x1a88(%rbp),%rax
   1155b:	48 89 85 e0 f8 ff ff 	mov    %rax,-0x720(%rbp)
   11562:	48 8d 85 78 e5 ff ff 	lea    -0x1a88(%rbp),%rax
   11569:	48 89 85 e8 f8 ff ff 	mov    %rax,-0x718(%rbp)
   11570:	48 8d 85 78 e5 ff ff 	lea    -0x1a88(%rbp),%rax
   11577:	48 89 85 f0 f8 ff ff 	mov    %rax,-0x710(%rbp)
   1157e:	48 8d 85 78 e5 ff ff 	lea    -0x1a88(%rbp),%rax
   11585:	48 89 85 f8 f8 ff ff 	mov    %rax,-0x708(%rbp)
   1158c:	48 8d 85 78 e5 ff ff 	lea    -0x1a88(%rbp),%rax
   11593:	48 89 85 00 f9 ff ff 	mov    %rax,-0x700(%rbp)
   1159a:	48 8d 85 78 e5 ff ff 	lea    -0x1a88(%rbp),%rax
   115a1:	48 89 85 08 f9 ff ff 	mov    %rax,-0x6f8(%rbp)
   115a8:	48 c7 85 10 f9 ff ff 	movq   $0x0,-0x6f0(%rbp)
   115af:	00 00 00 00 
   115b3:	48 8d 85 78 e5 ff ff 	lea    -0x1a88(%rbp),%rax
   115ba:	48 89 85 18 f9 ff ff 	mov    %rax,-0x6e8(%rbp)
   115c1:	48 8d 85 78 e5 ff ff 	lea    -0x1a88(%rbp),%rax
   115c8:	48 89 85 20 f9 ff ff 	mov    %rax,-0x6e0(%rbp)
   115cf:	48 8d 85 78 e5 ff ff 	lea    -0x1a88(%rbp),%rax
   115d6:	48 89 85 28 f9 ff ff 	mov    %rax,-0x6d8(%rbp)
   115dd:	48 8d 85 78 e5 ff ff 	lea    -0x1a88(%rbp),%rax
   115e4:	48 89 85 30 f9 ff ff 	mov    %rax,-0x6d0(%rbp)
   115eb:	48 8d 85 78 e5 ff ff 	lea    -0x1a88(%rbp),%rax
   115f2:	48 89 85 38 f9 ff ff 	mov    %rax,-0x6c8(%rbp)
   115f9:	48 8d 85 78 e5 ff ff 	lea    -0x1a88(%rbp),%rax
   11600:	48 89 85 40 f9 ff ff 	mov    %rax,-0x6c0(%rbp)
   11607:	48 c7 85 48 f9 ff ff 	movq   $0x0,-0x6b8(%rbp)
   1160e:	00 00 00 00 
   11612:	48 8d 85 78 e5 ff ff 	lea    -0x1a88(%rbp),%rax
   11619:	48 89 85 50 f9 ff ff 	mov    %rax,-0x6b0(%rbp)
   11620:	48 8d 85 78 e5 ff ff 	lea    -0x1a88(%rbp),%rax
   11627:	48 89 85 58 f9 ff ff 	mov    %rax,-0x6a8(%rbp)
   1162e:	48 8d 85 78 e5 ff ff 	lea    -0x1a88(%rbp),%rax
   11635:	48 89 85 60 f9 ff ff 	mov    %rax,-0x6a0(%rbp)
   1163c:	48 c7 85 68 f9 ff ff 	movq   $0x0,-0x698(%rbp)
   11643:	00 00 00 00 
   11647:	48 8d 85 78 e5 ff ff 	lea    -0x1a88(%rbp),%rax
   1164e:	48 89 85 70 f9 ff ff 	mov    %rax,-0x690(%rbp)
   11655:	48 8d 85 78 e5 ff ff 	lea    -0x1a88(%rbp),%rax
   1165c:	48 89 85 78 f9 ff ff 	mov    %rax,-0x688(%rbp)
   11663:	48 c7 85 80 f9 ff ff 	movq   $0x0,-0x680(%rbp)
   1166a:	00 00 00 00 
   1166e:	48 8d 85 78 e5 ff ff 	lea    -0x1a88(%rbp),%rax
   11675:	48 89 85 88 f9 ff ff 	mov    %rax,-0x678(%rbp)
   1167c:	48 c7 85 90 f9 ff ff 	movq   $0x0,-0x670(%rbp)
   11683:	00 00 00 00 
   11687:	48 8d 85 78 e5 ff ff 	lea    -0x1a88(%rbp),%rax
   1168e:	48 89 85 98 f9 ff ff 	mov    %rax,-0x668(%rbp)
   11695:	48 8d 85 78 e5 ff ff 	lea    -0x1a88(%rbp),%rax
   1169c:	48 89 85 a0 f9 ff ff 	mov    %rax,-0x660(%rbp)
   116a3:	48 8d 85 78 e5 ff ff 	lea    -0x1a88(%rbp),%rax
   116aa:	48 89 85 a8 f9 ff ff 	mov    %rax,-0x658(%rbp)
   116b1:	48 8d 85 78 e5 ff ff 	lea    -0x1a88(%rbp),%rax
   116b8:	48 89 85 b0 f9 ff ff 	mov    %rax,-0x650(%rbp)
   116bf:	48 8d 85 78 e5 ff ff 	lea    -0x1a88(%rbp),%rax
   116c6:	48 89 85 b8 f9 ff ff 	mov    %rax,-0x648(%rbp)
   116cd:	48 c7 85 c0 f9 ff ff 	movq   $0x0,-0x640(%rbp)
   116d4:	00 00 00 00 
   116d8:	48 8d 85 78 e5 ff ff 	lea    -0x1a88(%rbp),%rax
   116df:	48 89 85 c8 f9 ff ff 	mov    %rax,-0x638(%rbp)
   116e6:	48 c7 85 d0 f9 ff ff 	movq   $0x0,-0x630(%rbp)
   116ed:	00 00 00 00 
   116f1:	48 8d 85 78 e5 ff ff 	lea    -0x1a88(%rbp),%rax
   116f8:	48 89 85 d8 f9 ff ff 	mov    %rax,-0x628(%rbp)
   116ff:	48 c7 85 e0 f9 ff ff 	movq   $0x0,-0x620(%rbp)
   11706:	00 00 00 00 
   1170a:	48 8d 85 78 e5 ff ff 	lea    -0x1a88(%rbp),%rax
   11711:	48 89 85 e8 f9 ff ff 	mov    %rax,-0x618(%rbp)
   11718:	48 c7 85 f0 f9 ff ff 	movq   $0x0,-0x610(%rbp)
   1171f:	00 00 00 00 
   11723:	48 8d 85 78 e5 ff ff 	lea    -0x1a88(%rbp),%rax
   1172a:	48 89 85 f8 f9 ff ff 	mov    %rax,-0x608(%rbp)
   11731:	48 8d 85 78 e5 ff ff 	lea    -0x1a88(%rbp),%rax
   11738:	48 89 85 00 fa ff ff 	mov    %rax,-0x600(%rbp)
   1173f:	48 8d 85 78 e5 ff ff 	lea    -0x1a88(%rbp),%rax
   11746:	48 89 85 08 fa ff ff 	mov    %rax,-0x5f8(%rbp)
   1174d:	48 8d 85 78 e5 ff ff 	lea    -0x1a88(%rbp),%rax
   11754:	48 89 85 10 fa ff ff 	mov    %rax,-0x5f0(%rbp)
   1175b:	48 8d 85 78 e5 ff ff 	lea    -0x1a88(%rbp),%rax
   11762:	48 89 85 18 fa ff ff 	mov    %rax,-0x5e8(%rbp)
   11769:	48 c7 85 20 fa ff ff 	movq   $0x0,-0x5e0(%rbp)
   11770:	00 00 00 00 
   11774:	48 8d 85 78 e5 ff ff 	lea    -0x1a88(%rbp),%rax
   1177b:	48 89 85 28 fa ff ff 	mov    %rax,-0x5d8(%rbp)
   11782:	48 c7 85 30 fa ff ff 	movq   $0x0,-0x5d0(%rbp)
   11789:	00 00 00 00 
   1178d:	48 8d 85 78 e5 ff ff 	lea    -0x1a88(%rbp),%rax
   11794:	48 89 85 38 fa ff ff 	mov    %rax,-0x5c8(%rbp)
   1179b:	48 8d 85 78 e5 ff ff 	lea    -0x1a88(%rbp),%rax
   117a2:	48 89 85 40 fa ff ff 	mov    %rax,-0x5c0(%rbp)
   117a9:	48 c7 85 48 fa ff ff 	movq   $0x0,-0x5b8(%rbp)
   117b0:	00 00 00 00 
   117b4:	48 8d 85 78 e5 ff ff 	lea    -0x1a88(%rbp),%rax
   117bb:	48 89 85 50 fa ff ff 	mov    %rax,-0x5b0(%rbp)
   117c2:	48 8d 85 78 e5 ff ff 	lea    -0x1a88(%rbp),%rax
   117c9:	48 89 85 58 fa ff ff 	mov    %rax,-0x5a8(%rbp)
   117d0:	48 8d 85 78 e5 ff ff 	lea    -0x1a88(%rbp),%rax
   117d7:	48 89 85 60 fa ff ff 	mov    %rax,-0x5a0(%rbp)
   117de:	48 c7 85 68 fa ff ff 	movq   $0x0,-0x598(%rbp)
   117e5:	00 00 00 00 
   117e9:	48 8d 85 78 e5 ff ff 	lea    -0x1a88(%rbp),%rax
   117f0:	48 89 85 70 fa ff ff 	mov    %rax,-0x590(%rbp)
   117f7:	48 8d 85 78 e5 ff ff 	lea    -0x1a88(%rbp),%rax
   117fe:	48 89 85 78 fa ff ff 	mov    %rax,-0x588(%rbp)
   11805:	48 8d 85 78 e5 ff ff 	lea    -0x1a88(%rbp),%rax
   1180c:	48 89 85 80 fa ff ff 	mov    %rax,-0x580(%rbp)
   11813:	48 8d 85 78 e5 ff ff 	lea    -0x1a88(%rbp),%rax
   1181a:	48 89 85 88 fa ff ff 	mov    %rax,-0x578(%rbp)
   11821:	48 8d 85 78 e5 ff ff 	lea    -0x1a88(%rbp),%rax
   11828:	48 89 85 90 fa ff ff 	mov    %rax,-0x570(%rbp)
   1182f:	48 8d 85 78 e5 ff ff 	lea    -0x1a88(%rbp),%rax
   11836:	48 89 85 98 fa ff ff 	mov    %rax,-0x568(%rbp)
   1183d:	48 c7 85 a0 fa ff ff 	movq   $0x0,-0x560(%rbp)
   11844:	00 00 00 00 
   11848:	48 8d 85 78 e5 ff ff 	lea    -0x1a88(%rbp),%rax
   1184f:	48 89 85 a8 fa ff ff 	mov    %rax,-0x558(%rbp)
   11856:	48 8d 85 78 e5 ff ff 	lea    -0x1a88(%rbp),%rax
   1185d:	48 89 85 b0 fa ff ff 	mov    %rax,-0x550(%rbp)
   11864:	48 8d 85 78 e5 ff ff 	lea    -0x1a88(%rbp),%rax
   1186b:	48 89 85 b8 fa ff ff 	mov    %rax,-0x548(%rbp)
   11872:	48 8d 85 78 e5 ff ff 	lea    -0x1a88(%rbp),%rax
   11879:	48 89 85 c0 fa ff ff 	mov    %rax,-0x540(%rbp)
   11880:	48 8d 85 78 e5 ff ff 	lea    -0x1a88(%rbp),%rax
   11887:	48 89 85 c8 fa ff ff 	mov    %rax,-0x538(%rbp)
   1188e:	48 8d 85 78 e5 ff ff 	lea    -0x1a88(%rbp),%rax
   11895:	48 89 85 d0 fa ff ff 	mov    %rax,-0x530(%rbp)
   1189c:	48 8d 85 78 e5 ff ff 	lea    -0x1a88(%rbp),%rax
   118a3:	48 89 85 d8 fa ff ff 	mov    %rax,-0x528(%rbp)
   118aa:	48 c7 85 e0 fa ff ff 	movq   $0x0,-0x520(%rbp)
   118b1:	00 00 00 00 
   118b5:	48 8d 85 78 e5 ff ff 	lea    -0x1a88(%rbp),%rax
   118bc:	48 89 85 e8 fa ff ff 	mov    %rax,-0x518(%rbp)
   118c3:	48 8d 85 78 e5 ff ff 	lea    -0x1a88(%rbp),%rax
   118ca:	48 89 85 f0 fa ff ff 	mov    %rax,-0x510(%rbp)
   118d1:	48 8d 85 78 e5 ff ff 	lea    -0x1a88(%rbp),%rax
   118d8:	48 89 85 f8 fa ff ff 	mov    %rax,-0x508(%rbp)
   118df:	48 c7 85 00 fb ff ff 	movq   $0x0,-0x500(%rbp)
   118e6:	00 00 00 00 
   118ea:	48 c7 85 08 fb ff ff 	movq   $0x0,-0x4f8(%rbp)
   118f1:	00 00 00 00 
   118f5:	48 8d 85 78 e5 ff ff 	lea    -0x1a88(%rbp),%rax
   118fc:	48 89 85 10 fb ff ff 	mov    %rax,-0x4f0(%rbp)
   11903:	48 c7 85 18 fb ff ff 	movq   $0x0,-0x4e8(%rbp)
   1190a:	00 00 00 00 
   1190e:	48 c7 85 20 fb ff ff 	movq   $0x0,-0x4e0(%rbp)
   11915:	00 00 00 00 
   11919:	48 8d 85 78 e5 ff ff 	lea    -0x1a88(%rbp),%rax
   11920:	48 89 85 28 fb ff ff 	mov    %rax,-0x4d8(%rbp)
   11927:	48 8d 85 78 e5 ff ff 	lea    -0x1a88(%rbp),%rax
   1192e:	48 89 85 30 fb ff ff 	mov    %rax,-0x4d0(%rbp)
   11935:	48 8d 85 78 e5 ff ff 	lea    -0x1a88(%rbp),%rax
   1193c:	48 89 85 38 fb ff ff 	mov    %rax,-0x4c8(%rbp)
   11943:	48 c7 85 40 fb ff ff 	movq   $0x0,-0x4c0(%rbp)
   1194a:	00 00 00 00 
   1194e:	48 8d 85 78 e5 ff ff 	lea    -0x1a88(%rbp),%rax
   11955:	48 89 85 48 fb ff ff 	mov    %rax,-0x4b8(%rbp)
   1195c:	48 8d 85 78 e5 ff ff 	lea    -0x1a88(%rbp),%rax
   11963:	48 89 85 50 fb ff ff 	mov    %rax,-0x4b0(%rbp)
   1196a:	48 8d 85 78 e5 ff ff 	lea    -0x1a88(%rbp),%rax
   11971:	48 89 85 58 fb ff ff 	mov    %rax,-0x4a8(%rbp)
   11978:	48 8d 85 78 e5 ff ff 	lea    -0x1a88(%rbp),%rax
   1197f:	48 89 85 60 fb ff ff 	mov    %rax,-0x4a0(%rbp)
   11986:	48 8d 85 78 e5 ff ff 	lea    -0x1a88(%rbp),%rax
   1198d:	48 89 85 68 fb ff ff 	mov    %rax,-0x498(%rbp)
   11994:	48 8d 85 78 e5 ff ff 	lea    -0x1a88(%rbp),%rax
   1199b:	48 89 85 70 fb ff ff 	mov    %rax,-0x490(%rbp)
   119a2:	48 8d 85 78 e5 ff ff 	lea    -0x1a88(%rbp),%rax
   119a9:	48 89 85 78 fb ff ff 	mov    %rax,-0x488(%rbp)
   119b0:	48 c7 85 80 fb ff ff 	movq   $0x0,-0x480(%rbp)
   119b7:	00 00 00 00 
   119bb:	48 8d 85 78 e5 ff ff 	lea    -0x1a88(%rbp),%rax
   119c2:	48 89 85 88 fb ff ff 	mov    %rax,-0x478(%rbp)
   119c9:	48 8d 85 78 e5 ff ff 	lea    -0x1a88(%rbp),%rax
   119d0:	48 89 85 90 fb ff ff 	mov    %rax,-0x470(%rbp)
   119d7:	48 8d 85 78 e5 ff ff 	lea    -0x1a88(%rbp),%rax
   119de:	48 89 85 98 fb ff ff 	mov    %rax,-0x468(%rbp)
   119e5:	48 8d 85 78 e5 ff ff 	lea    -0x1a88(%rbp),%rax
   119ec:	48 89 85 a0 fb ff ff 	mov    %rax,-0x460(%rbp)
   119f3:	48 8d 85 78 e5 ff ff 	lea    -0x1a88(%rbp),%rax
   119fa:	48 89 85 a8 fb ff ff 	mov    %rax,-0x458(%rbp)
   11a01:	48 8d 85 78 e5 ff ff 	lea    -0x1a88(%rbp),%rax
   11a08:	48 89 85 b0 fb ff ff 	mov    %rax,-0x450(%rbp)
   11a0f:	48 c7 85 b8 fb ff ff 	movq   $0x0,-0x448(%rbp)
   11a16:	00 00 00 00 
   11a1a:	48 8d 85 78 e5 ff ff 	lea    -0x1a88(%rbp),%rax
   11a21:	48 89 85 c0 fb ff ff 	mov    %rax,-0x440(%rbp)
   11a28:	48 8d 85 78 e5 ff ff 	lea    -0x1a88(%rbp),%rax
   11a2f:	48 89 85 c8 fb ff ff 	mov    %rax,-0x438(%rbp)
   11a36:	48 8d 85 78 e5 ff ff 	lea    -0x1a88(%rbp),%rax
   11a3d:	48 89 85 d0 fb ff ff 	mov    %rax,-0x430(%rbp)
   11a44:	48 8d 85 78 e5 ff ff 	lea    -0x1a88(%rbp),%rax
   11a4b:	48 89 85 d8 fb ff ff 	mov    %rax,-0x428(%rbp)
   11a52:	48 c7 85 e0 fb ff ff 	movq   $0x0,-0x420(%rbp)
   11a59:	00 00 00 00 
   11a5d:	48 c7 85 e8 fb ff ff 	movq   $0x0,-0x418(%rbp)
   11a64:	00 00 00 00 
   11a68:	48 8d 85 78 e5 ff ff 	lea    -0x1a88(%rbp),%rax
   11a6f:	48 89 85 f0 fb ff ff 	mov    %rax,-0x410(%rbp)
   11a76:	48 8d 85 78 e5 ff ff 	lea    -0x1a88(%rbp),%rax
   11a7d:	48 89 85 f8 fb ff ff 	mov    %rax,-0x408(%rbp)
   11a84:	48 8d 85 78 e5 ff ff 	lea    -0x1a88(%rbp),%rax
   11a8b:	48 89 85 00 fc ff ff 	mov    %rax,-0x400(%rbp)
   11a92:	48 8d 85 78 e5 ff ff 	lea    -0x1a88(%rbp),%rax
   11a99:	48 89 85 08 fc ff ff 	mov    %rax,-0x3f8(%rbp)
   11aa0:	48 c7 85 10 fc ff ff 	movq   $0x0,-0x3f0(%rbp)
   11aa7:	00 00 00 00 
   11aab:	48 8d 85 78 e5 ff ff 	lea    -0x1a88(%rbp),%rax
   11ab2:	48 89 85 18 fc ff ff 	mov    %rax,-0x3e8(%rbp)
   11ab9:	48 8d 85 78 e5 ff ff 	lea    -0x1a88(%rbp),%rax
   11ac0:	48 89 85 20 fc ff ff 	mov    %rax,-0x3e0(%rbp)
   11ac7:	48 8d 85 78 e5 ff ff 	lea    -0x1a88(%rbp),%rax
   11ace:	48 89 85 28 fc ff ff 	mov    %rax,-0x3d8(%rbp)
   11ad5:	48 8d 85 78 e5 ff ff 	lea    -0x1a88(%rbp),%rax
   11adc:	48 89 85 30 fc ff ff 	mov    %rax,-0x3d0(%rbp)
   11ae3:	48 c7 85 38 fc ff ff 	movq   $0x0,-0x3c8(%rbp)
   11aea:	00 00 00 00 
   11aee:	48 c7 85 40 fc ff ff 	movq   $0x0,-0x3c0(%rbp)
   11af5:	00 00 00 00 
   11af9:	48 8d 85 78 e5 ff ff 	lea    -0x1a88(%rbp),%rax
   11b00:	48 89 85 48 fc ff ff 	mov    %rax,-0x3b8(%rbp)
   11b07:	48 c7 85 50 fc ff ff 	movq   $0x0,-0x3b0(%rbp)
   11b0e:	00 00 00 00 
   11b12:	48 c7 85 58 fc ff ff 	movq   $0x0,-0x3a8(%rbp)
   11b19:	00 00 00 00 
   11b1d:	48 8d 85 78 e5 ff ff 	lea    -0x1a88(%rbp),%rax
   11b24:	48 89 85 60 fc ff ff 	mov    %rax,-0x3a0(%rbp)
   11b2b:	48 8d 85 78 e5 ff ff 	lea    -0x1a88(%rbp),%rax
   11b32:	48 89 85 68 fc ff ff 	mov    %rax,-0x398(%rbp)
   11b39:	48 8d 85 78 e5 ff ff 	lea    -0x1a88(%rbp),%rax
   11b40:	48 89 85 70 fc ff ff 	mov    %rax,-0x390(%rbp)
   11b47:	48 8d 85 78 e5 ff ff 	lea    -0x1a88(%rbp),%rax
   11b4e:	48 89 85 78 fc ff ff 	mov    %rax,-0x388(%rbp)
   11b55:	48 c7 85 80 fc ff ff 	movq   $0x0,-0x380(%rbp)
   11b5c:	00 00 00 00 
   11b60:	48 8d 85 78 e5 ff ff 	lea    -0x1a88(%rbp),%rax
   11b67:	48 89 85 88 fc ff ff 	mov    %rax,-0x378(%rbp)
   11b6e:	48 8d 85 78 e5 ff ff 	lea    -0x1a88(%rbp),%rax
   11b75:	48 89 85 90 fc ff ff 	mov    %rax,-0x370(%rbp)
   11b7c:	48 8d 85 78 e5 ff ff 	lea    -0x1a88(%rbp),%rax
   11b83:	48 89 85 98 fc ff ff 	mov    %rax,-0x368(%rbp)
   11b8a:	48 8d 85 78 e5 ff ff 	lea    -0x1a88(%rbp),%rax
   11b91:	48 89 85 a0 fc ff ff 	mov    %rax,-0x360(%rbp)
   11b98:	48 c7 85 a8 fc ff ff 	movq   $0x0,-0x358(%rbp)
   11b9f:	00 00 00 00 
   11ba3:	48 c7 85 b0 fc ff ff 	movq   $0x0,-0x350(%rbp)
   11baa:	00 00 00 00 
   11bae:	48 8d 85 78 e5 ff ff 	lea    -0x1a88(%rbp),%rax
   11bb5:	48 89 85 b8 fc ff ff 	mov    %rax,-0x348(%rbp)
   11bbc:	48 8d 85 78 e5 ff ff 	lea    -0x1a88(%rbp),%rax
   11bc3:	48 89 85 c0 fc ff ff 	mov    %rax,-0x340(%rbp)
   11bca:	48 8d 85 78 e5 ff ff 	lea    -0x1a88(%rbp),%rax
   11bd1:	48 89 85 c8 fc ff ff 	mov    %rax,-0x338(%rbp)
   11bd8:	48 8d 85 78 e5 ff ff 	lea    -0x1a88(%rbp),%rax
   11bdf:	48 89 85 d0 fc ff ff 	mov    %rax,-0x330(%rbp)
   11be6:	48 8d 85 78 e5 ff ff 	lea    -0x1a88(%rbp),%rax
   11bed:	48 89 85 d8 fc ff ff 	mov    %rax,-0x328(%rbp)
   11bf4:	48 c7 85 e0 fc ff ff 	movq   $0x0,-0x320(%rbp)
   11bfb:	00 00 00 00 
   11bff:	48 c7 85 e8 fc ff ff 	movq   $0x0,-0x318(%rbp)
   11c06:	00 00 00 00 
   11c0a:	48 c7 85 f0 fc ff ff 	movq   $0x0,-0x310(%rbp)
   11c11:	00 00 00 00 
   11c15:	48 8d 85 78 e5 ff ff 	lea    -0x1a88(%rbp),%rax
   11c1c:	48 89 85 f8 fc ff ff 	mov    %rax,-0x308(%rbp)
   11c23:	48 8d 85 78 e5 ff ff 	lea    -0x1a88(%rbp),%rax
   11c2a:	48 89 85 00 fd ff ff 	mov    %rax,-0x300(%rbp)
   11c31:	48 8d 85 78 e5 ff ff 	lea    -0x1a88(%rbp),%rax
   11c38:	48 89 85 08 fd ff ff 	mov    %rax,-0x2f8(%rbp)
   11c3f:	48 c7 85 10 fd ff ff 	movq   $0x0,-0x2f0(%rbp)
   11c46:	00 00 00 00 
   11c4a:	48 8d 85 78 e5 ff ff 	lea    -0x1a88(%rbp),%rax
   11c51:	48 89 85 18 fd ff ff 	mov    %rax,-0x2e8(%rbp)
   11c58:	48 8d 85 78 e5 ff ff 	lea    -0x1a88(%rbp),%rax
   11c5f:	48 89 85 20 fd ff ff 	mov    %rax,-0x2e0(%rbp)
   11c66:	48 c7 85 28 fd ff ff 	movq   $0x0,-0x2d8(%rbp)
   11c6d:	00 00 00 00 
   11c71:	48 8d 85 78 e5 ff ff 	lea    -0x1a88(%rbp),%rax
   11c78:	48 89 85 30 fd ff ff 	mov    %rax,-0x2d0(%rbp)
   11c7f:	48 8d 85 78 e5 ff ff 	lea    -0x1a88(%rbp),%rax
   11c86:	48 89 85 38 fd ff ff 	mov    %rax,-0x2c8(%rbp)
   11c8d:	48 8d 85 78 e5 ff ff 	lea    -0x1a88(%rbp),%rax
   11c94:	48 89 85 40 fd ff ff 	mov    %rax,-0x2c0(%rbp)
   11c9b:	48 c7 85 48 fd ff ff 	movq   $0x0,-0x2b8(%rbp)
   11ca2:	00 00 00 00 
   11ca6:	48 8d 85 78 e5 ff ff 	lea    -0x1a88(%rbp),%rax
   11cad:	48 89 85 50 fd ff ff 	mov    %rax,-0x2b0(%rbp)
   11cb4:	48 8d 85 78 e5 ff ff 	lea    -0x1a88(%rbp),%rax
   11cbb:	48 89 85 58 fd ff ff 	mov    %rax,-0x2a8(%rbp)
   11cc2:	48 8d 85 78 e5 ff ff 	lea    -0x1a88(%rbp),%rax
   11cc9:	48 89 85 60 fd ff ff 	mov    %rax,-0x2a0(%rbp)
   11cd0:	48 8d 85 78 e5 ff ff 	lea    -0x1a88(%rbp),%rax
   11cd7:	48 89 85 68 fd ff ff 	mov    %rax,-0x298(%rbp)
   11cde:	48 8d 85 78 e5 ff ff 	lea    -0x1a88(%rbp),%rax
   11ce5:	48 89 85 70 fd ff ff 	mov    %rax,-0x290(%rbp)
   11cec:	48 8d 85 78 e5 ff ff 	lea    -0x1a88(%rbp),%rax
   11cf3:	48 89 85 78 fd ff ff 	mov    %rax,-0x288(%rbp)
   11cfa:	48 8d 85 78 e5 ff ff 	lea    -0x1a88(%rbp),%rax
   11d01:	48 89 85 80 fd ff ff 	mov    %rax,-0x280(%rbp)
   11d08:	48 8d 85 78 e5 ff ff 	lea    -0x1a88(%rbp),%rax
   11d0f:	48 89 85 88 fd ff ff 	mov    %rax,-0x278(%rbp)
   11d16:	48 8d 85 78 e5 ff ff 	lea    -0x1a88(%rbp),%rax
   11d1d:	48 89 85 90 fd ff ff 	mov    %rax,-0x270(%rbp)
   11d24:	48 8d 85 78 e5 ff ff 	lea    -0x1a88(%rbp),%rax
   11d2b:	48 89 85 98 fd ff ff 	mov    %rax,-0x268(%rbp)
   11d32:	48 8d 85 78 e5 ff ff 	lea    -0x1a88(%rbp),%rax
   11d39:	48 89 85 a0 fd ff ff 	mov    %rax,-0x260(%rbp)
   11d40:	48 8d 85 78 e5 ff ff 	lea    -0x1a88(%rbp),%rax
   11d47:	48 89 85 a8 fd ff ff 	mov    %rax,-0x258(%rbp)
   11d4e:	48 8d 85 78 e5 ff ff 	lea    -0x1a88(%rbp),%rax
   11d55:	48 89 85 b0 fd ff ff 	mov    %rax,-0x250(%rbp)
   11d5c:	48 c7 85 b8 fd ff ff 	movq   $0x0,-0x248(%rbp)
   11d63:	00 00 00 00 
   11d67:	48 8d 85 78 e5 ff ff 	lea    -0x1a88(%rbp),%rax
   11d6e:	48 89 85 c0 fd ff ff 	mov    %rax,-0x240(%rbp)
   11d75:	48 8d 85 78 e5 ff ff 	lea    -0x1a88(%rbp),%rax
   11d7c:	48 89 85 c8 fd ff ff 	mov    %rax,-0x238(%rbp)
   11d83:	48 8d 85 78 e5 ff ff 	lea    -0x1a88(%rbp),%rax
   11d8a:	48 89 85 d0 fd ff ff 	mov    %rax,-0x230(%rbp)
   11d91:	48 c7 85 d8 fd ff ff 	movq   $0x0,-0x228(%rbp)
   11d98:	00 00 00 00 
   11d9c:	48 8d 85 78 e5 ff ff 	lea    -0x1a88(%rbp),%rax
   11da3:	48 89 85 e0 fd ff ff 	mov    %rax,-0x220(%rbp)
   11daa:	48 8d 85 78 e5 ff ff 	lea    -0x1a88(%rbp),%rax
   11db1:	48 89 85 e8 fd ff ff 	mov    %rax,-0x218(%rbp)
   11db8:	48 c7 85 f0 fd ff ff 	movq   $0x0,-0x210(%rbp)
   11dbf:	00 00 00 00 
   11dc3:	48 8d 85 78 e5 ff ff 	lea    -0x1a88(%rbp),%rax
   11dca:	48 89 85 f8 fd ff ff 	mov    %rax,-0x208(%rbp)
   11dd1:	48 8d 85 78 e5 ff ff 	lea    -0x1a88(%rbp),%rax
   11dd8:	48 89 85 00 fe ff ff 	mov    %rax,-0x200(%rbp)
   11ddf:	48 8d 85 78 e5 ff ff 	lea    -0x1a88(%rbp),%rax
   11de6:	48 89 85 08 fe ff ff 	mov    %rax,-0x1f8(%rbp)
   11ded:	48 c7 85 10 fe ff ff 	movq   $0x0,-0x1f0(%rbp)
   11df4:	00 00 00 00 
   11df8:	48 c7 85 18 fe ff ff 	movq   $0x0,-0x1e8(%rbp)
   11dff:	00 00 00 00 
   11e03:	48 c7 85 20 fe ff ff 	movq   $0x0,-0x1e0(%rbp)
   11e0a:	00 00 00 00 
   11e0e:	48 8d 85 78 e5 ff ff 	lea    -0x1a88(%rbp),%rax
   11e15:	48 89 85 28 fe ff ff 	mov    %rax,-0x1d8(%rbp)
   11e1c:	48 8d 85 78 e5 ff ff 	lea    -0x1a88(%rbp),%rax
   11e23:	48 89 85 30 fe ff ff 	mov    %rax,-0x1d0(%rbp)
   11e2a:	48 8d 85 78 e5 ff ff 	lea    -0x1a88(%rbp),%rax
   11e31:	48 89 85 38 fe ff ff 	mov    %rax,-0x1c8(%rbp)
   11e38:	48 8d 85 78 e5 ff ff 	lea    -0x1a88(%rbp),%rax
   11e3f:	48 89 85 40 fe ff ff 	mov    %rax,-0x1c0(%rbp)
   11e46:	48 8d 85 78 e5 ff ff 	lea    -0x1a88(%rbp),%rax
   11e4d:	48 89 85 48 fe ff ff 	mov    %rax,-0x1b8(%rbp)
   11e54:	48 c7 85 50 fe ff ff 	movq   $0x0,-0x1b0(%rbp)
   11e5b:	00 00 00 00 
   11e5f:	48 c7 85 58 fe ff ff 	movq   $0x0,-0x1a8(%rbp)
   11e66:	00 00 00 00 
   11e6a:	48 8d 85 78 e5 ff ff 	lea    -0x1a88(%rbp),%rax
   11e71:	48 89 85 60 fe ff ff 	mov    %rax,-0x1a0(%rbp)
   11e78:	48 8d 85 78 e5 ff ff 	lea    -0x1a88(%rbp),%rax
   11e7f:	48 89 85 68 fe ff ff 	mov    %rax,-0x198(%rbp)
   11e86:	48 8d 85 78 e5 ff ff 	lea    -0x1a88(%rbp),%rax
   11e8d:	48 89 85 70 fe ff ff 	mov    %rax,-0x190(%rbp)
   11e94:	48 8d 85 78 e5 ff ff 	lea    -0x1a88(%rbp),%rax
   11e9b:	48 89 85 78 fe ff ff 	mov    %rax,-0x188(%rbp)
   11ea2:	48 c7 85 80 fe ff ff 	movq   $0x0,-0x180(%rbp)
   11ea9:	00 00 00 00 
   11ead:	48 8d 85 78 e5 ff ff 	lea    -0x1a88(%rbp),%rax
   11eb4:	48 89 85 88 fe ff ff 	mov    %rax,-0x178(%rbp)
   11ebb:	48 8d 85 78 e5 ff ff 	lea    -0x1a88(%rbp),%rax
   11ec2:	48 89 85 90 fe ff ff 	mov    %rax,-0x170(%rbp)
   11ec9:	48 8d 85 78 e5 ff ff 	lea    -0x1a88(%rbp),%rax
   11ed0:	48 89 85 98 fe ff ff 	mov    %rax,-0x168(%rbp)
   11ed7:	48 8d 85 78 e5 ff ff 	lea    -0x1a88(%rbp),%rax
   11ede:	48 89 85 a0 fe ff ff 	mov    %rax,-0x160(%rbp)
   11ee5:	48 c7 85 a8 fe ff ff 	movq   $0x0,-0x158(%rbp)
   11eec:	00 00 00 00 
   11ef0:	48 c7 85 b0 fe ff ff 	movq   $0x0,-0x150(%rbp)
   11ef7:	00 00 00 00 
   11efb:	48 8d 85 78 e5 ff ff 	lea    -0x1a88(%rbp),%rax
   11f02:	48 89 85 b8 fe ff ff 	mov    %rax,-0x148(%rbp)
   11f09:	48 c7 85 c0 fe ff ff 	movq   $0x0,-0x140(%rbp)
   11f10:	00 00 00 00 
   11f14:	48 c7 85 c8 fe ff ff 	movq   $0x0,-0x138(%rbp)
   11f1b:	00 00 00 00 
   11f1f:	48 8d 85 78 e5 ff ff 	lea    -0x1a88(%rbp),%rax
   11f26:	48 89 85 d0 fe ff ff 	mov    %rax,-0x130(%rbp)
   11f2d:	48 8d 85 78 e5 ff ff 	lea    -0x1a88(%rbp),%rax
   11f34:	48 89 85 d8 fe ff ff 	mov    %rax,-0x128(%rbp)
   11f3b:	48 8d 85 78 e5 ff ff 	lea    -0x1a88(%rbp),%rax
   11f42:	48 89 85 e0 fe ff ff 	mov    %rax,-0x120(%rbp)
   11f49:	48 8d 85 78 e5 ff ff 	lea    -0x1a88(%rbp),%rax
   11f50:	48 89 85 e8 fe ff ff 	mov    %rax,-0x118(%rbp)
   11f57:	48 c7 85 f0 fe ff ff 	movq   $0x0,-0x110(%rbp)
   11f5e:	00 00 00 00 
   11f62:	48 8d 85 78 e5 ff ff 	lea    -0x1a88(%rbp),%rax
   11f69:	48 89 85 f8 fe ff ff 	mov    %rax,-0x108(%rbp)
   11f70:	48 8d 85 78 e5 ff ff 	lea    -0x1a88(%rbp),%rax
   11f77:	48 89 85 00 ff ff ff 	mov    %rax,-0x100(%rbp)
   11f7e:	48 8d 85 78 e5 ff ff 	lea    -0x1a88(%rbp),%rax
   11f85:	48 89 85 08 ff ff ff 	mov    %rax,-0xf8(%rbp)
   11f8c:	48 8d 85 78 e5 ff ff 	lea    -0x1a88(%rbp),%rax
   11f93:	48 89 85 10 ff ff ff 	mov    %rax,-0xf0(%rbp)
   11f9a:	48 c7 85 18 ff ff ff 	movq   $0x0,-0xe8(%rbp)
   11fa1:	00 00 00 00 
   11fa5:	48 c7 85 20 ff ff ff 	movq   $0x0,-0xe0(%rbp)
   11fac:	00 00 00 00 
   11fb0:	48 8d 85 78 e5 ff ff 	lea    -0x1a88(%rbp),%rax
   11fb7:	48 89 85 28 ff ff ff 	mov    %rax,-0xd8(%rbp)
   11fbe:	48 8d 85 78 e5 ff ff 	lea    -0x1a88(%rbp),%rax
   11fc5:	48 89 85 30 ff ff ff 	mov    %rax,-0xd0(%rbp)
   11fcc:	48 8d 85 78 e5 ff ff 	lea    -0x1a88(%rbp),%rax
   11fd3:	48 89 85 38 ff ff ff 	mov    %rax,-0xc8(%rbp)
   11fda:	48 8d 85 78 e5 ff ff 	lea    -0x1a88(%rbp),%rax
   11fe1:	48 89 85 40 ff ff ff 	mov    %rax,-0xc0(%rbp)
   11fe8:	48 8d 85 78 e5 ff ff 	lea    -0x1a88(%rbp),%rax
   11fef:	48 89 85 48 ff ff ff 	mov    %rax,-0xb8(%rbp)
   11ff6:	48 c7 85 50 ff ff ff 	movq   $0x0,-0xb0(%rbp)
   11ffd:	00 00 00 00 
   12001:	48 c7 85 58 ff ff ff 	movq   $0x0,-0xa8(%rbp)
   12008:	00 00 00 00 
   1200c:	48 c7 85 60 ff ff ff 	movq   $0x0,-0xa0(%rbp)
   12013:	00 00 00 00 
   12017:	48 8d 85 78 e5 ff ff 	lea    -0x1a88(%rbp),%rax
   1201e:	48 89 85 68 ff ff ff 	mov    %rax,-0x98(%rbp)
   12025:	48 8d 85 78 e5 ff ff 	lea    -0x1a88(%rbp),%rax
   1202c:	48 89 85 70 ff ff ff 	mov    %rax,-0x90(%rbp)
   12033:	48 8d 85 78 e5 ff ff 	lea    -0x1a88(%rbp),%rax
   1203a:	48 89 85 78 ff ff ff 	mov    %rax,-0x88(%rbp)
   12041:	48 c7 45 80 00 00 00 	movq   $0x0,-0x80(%rbp)
   12048:	00 
   12049:	48 8d 85 78 e5 ff ff 	lea    -0x1a88(%rbp),%rax
   12050:	48 89 45 88          	mov    %rax,-0x78(%rbp)
   12054:	48 8d 85 78 e5 ff ff 	lea    -0x1a88(%rbp),%rax
   1205b:	48 89 45 90          	mov    %rax,-0x70(%rbp)
   1205f:	48 c7 45 98 00 00 00 	movq   $0x0,-0x68(%rbp)
   12066:	00 
   12067:	48 8d 85 78 e5 ff ff 	lea    -0x1a88(%rbp),%rax
   1206e:	48 89 45 a0          	mov    %rax,-0x60(%rbp)
   12072:	48 8d 85 78 e5 ff ff 	lea    -0x1a88(%rbp),%rax
   12079:	48 89 45 a8          	mov    %rax,-0x58(%rbp)
   1207d:	48 8d 85 78 e5 ff ff 	lea    -0x1a88(%rbp),%rax
   12084:	48 89 45 b0          	mov    %rax,-0x50(%rbp)
   12088:	48 c7 45 b8 00 00 00 	movq   $0x0,-0x48(%rbp)
   1208f:	00 
   12090:	48 8d 85 e0 f7 ff ff 	lea    -0x820(%rbp),%rax
   12097:	48 05 c8 03 00 00    	add    $0x3c8,%rax
   1209d:	48 89 85 d0 e5 ff ff 	mov    %rax,-0x1a30(%rbp)
   120a4:	66 c7 85 de e4 ff ff 	movw   $0x4,-0x1b22(%rbp)
   120ab:	04 00 
   120ad:	48 b8 83 3f 51 fb 74 	movabs $0x77c71174fb513f83,%rax
   120b4:	11 c7 77 
   120b7:	48 89 85 80 e5 ff ff 	mov    %rax,-0x1a80(%rbp)
   120be:	c7 85 08 e5 ff ff b2 	movl   $0x3849f3b2,-0x1af8(%rbp)
   120c5:	f3 49 38 
   120c8:	c6 85 db e4 ff ff fa 	movb   $0xfa,-0x1b25(%rbp)
   120cf:	48 c7 85 20 e8 ff ff 	movq   $0x0,-0x17e0(%rbp)
   120d6:	00 00 00 00 
   120da:	48 c7 85 28 e8 ff ff 	movq   $0x0,-0x17d8(%rbp)
   120e1:	00 00 00 00 
   120e5:	48 c7 85 30 e8 ff ff 	movq   $0x0,-0x17d0(%rbp)
   120ec:	00 00 00 00 
   120f0:	48 c7 85 38 e8 ff ff 	movq   $0x0,-0x17c8(%rbp)
   120f7:	00 00 00 00 
   120fb:	48 c7 85 40 e8 ff ff 	movq   $0x0,-0x17c0(%rbp)
   12102:	00 00 00 00 
   12106:	48 c7 85 48 e8 ff ff 	movq   $0x0,-0x17b8(%rbp)
   1210d:	00 00 00 00 
   12111:	48 c7 85 50 e8 ff ff 	movq   $0x0,-0x17b0(%rbp)
   12118:	00 00 00 00 
   1211c:	48 c7 85 58 e8 ff ff 	movq   $0x0,-0x17a8(%rbp)
   12123:	00 00 00 00 
   12127:	48 c7 85 60 e8 ff ff 	movq   $0x0,-0x17a0(%rbp)
   1212e:	00 00 00 00 
   12132:	48 c7 85 68 e8 ff ff 	movq   $0x0,-0x1798(%rbp)
   12139:	00 00 00 00 
   1213d:	c7 85 00 e5 ff ff 00 	movl   $0x0,-0x1b00(%rbp)
   12144:	00 00 00 
   12147:	eb 1e                	jmp    12167 <func_48+0x243a>
   12149:	8b 85 00 e5 ff ff    	mov    -0x1b00(%rbp),%eax
   1214f:	48 98                	cltq   
   12151:	48 8d 15 58 73 00 00 	lea    0x7358(%rip),%rdx        # 194b0 <g_172+0x50>
   12158:	48 89 94 c5 a0 e7 ff 	mov    %rdx,-0x1860(%rbp,%rax,8)
   1215f:	ff 
   12160:	83 85 00 e5 ff ff 01 	addl   $0x1,-0x1b00(%rbp)
   12167:	83 bd 00 e5 ff ff 05 	cmpl   $0x5,-0x1b00(%rbp)
   1216e:	7e d9                	jle    12149 <func_48+0x241c>
   12170:	c7 85 00 e5 ff ff 00 	movl   $0x0,-0x1b00(%rbp)
   12177:	00 00 00 
   1217a:	eb 1e                	jmp    1219a <func_48+0x246d>
   1217c:	8b 85 00 e5 ff ff    	mov    -0x1b00(%rbp),%eax
   12182:	48 98                	cltq   
   12184:	48 8d 15 05 90 00 00 	lea    0x9005(%rip),%rdx        # 1b190 <g_395>
   1218b:	48 89 94 c5 40 e7 ff 	mov    %rdx,-0x18c0(%rbp,%rax,8)
   12192:	ff 
   12193:	83 85 00 e5 ff ff 01 	addl   $0x1,-0x1b00(%rbp)
   1219a:	83 bd 00 e5 ff ff 00 	cmpl   $0x0,-0x1b00(%rbp)
   121a1:	7e d9                	jle    1217c <func_48+0x244f>
   121a3:	c7 85 00 e5 ff ff 00 	movl   $0x0,-0x1b00(%rbp)
   121aa:	00 00 00 
   121ad:	eb 1a                	jmp    121c9 <func_48+0x249c>
   121af:	8b 85 00 e5 ff ff    	mov    -0x1b00(%rbp),%eax
   121b5:	48 98                	cltq   
   121b7:	c7 84 85 48 e7 ff ff 	movl   $0xffffffff,-0x18b8(%rbp,%rax,4)
   121be:	ff ff ff ff 
   121c2:	83 85 00 e5 ff ff 01 	addl   $0x1,-0x1b00(%rbp)
   121c9:	83 bd 00 e5 ff ff 01 	cmpl   $0x1,-0x1b00(%rbp)
   121d0:	7e dd                	jle    121af <func_48+0x2482>
   121d2:	90                   	nop
   121d3:	c6 05 52 6e 00 00 00 	movb   $0x0,0x6e52(%rip)        # 1902c <g_54>
   121da:	e9 d4 03 00 00       	jmpq   125b3 <func_48+0x2886>
   121df:	48 8d 85 e4 e4 ff ff 	lea    -0x1b1c(%rbp),%rax
   121e6:	48 89 85 00 e7 ff ff 	mov    %rax,-0x1900(%rbp)
   121ed:	c7 85 4c e5 ff ff 25 	movl   $0xbd0f6225,-0x1ab4(%rbp)
   121f4:	62 0f bd 
   121f7:	48 8d 05 3a 6e 00 00 	lea    0x6e3a(%rip),%rax        # 19038 <g_90>
   121fe:	48 89 85 90 e5 ff ff 	mov    %rax,-0x1a70(%rbp)
   12205:	48 8d 85 90 e5 ff ff 	lea    -0x1a70(%rbp),%rax
   1220c:	48 89 85 98 e5 ff ff 	mov    %rax,-0x1a68(%rbp)
   12213:	48 8d 85 98 e5 ff ff 	lea    -0x1a68(%rbp),%rax
   1221a:	48 89 85 a0 e5 ff ff 	mov    %rax,-0x1a60(%rbp)
   12221:	48 8d 85 70 e8 ff ff 	lea    -0x1790(%rbp),%rax
   12228:	48 83 c0 38          	add    $0x38,%rax
   1222c:	48 89 85 08 e7 ff ff 	mov    %rax,-0x18f8(%rbp)
   12233:	48 8d 85 60 e5 ff ff 	lea    -0x1aa0(%rbp),%rax
   1223a:	48 89 85 10 e7 ff ff 	mov    %rax,-0x18f0(%rbp)
   12241:	c7 85 50 e5 ff ff 19 	movl   $0xf074f619,-0x1ab0(%rbp)
   12248:	f6 74 f0 
   1224b:	c7 85 04 e5 ff ff 00 	movl   $0x0,-0x1afc(%rbp)
   12252:	00 00 00 
   12255:	eb 1e                	jmp    12275 <func_48+0x2548>
   12257:	8b 85 04 e5 ff ff    	mov    -0x1afc(%rbp),%eax
   1225d:	48 98                	cltq   
   1225f:	48 8d 95 e4 e4 ff ff 	lea    -0x1b1c(%rbp),%rdx
   12266:	48 89 94 c5 d0 e7 ff 	mov    %rdx,-0x1830(%rbp,%rax,8)
   1226d:	ff 
   1226e:	83 85 04 e5 ff ff 01 	addl   $0x1,-0x1afc(%rbp)
   12275:	83 bd 04 e5 ff ff 04 	cmpl   $0x4,-0x1afc(%rbp)
   1227c:	7e d9                	jle    12257 <func_48+0x252a>
   1227e:	c7 85 04 e5 ff ff 00 	movl   $0x0,-0x1afc(%rbp)
   12285:	00 00 00 
   12288:	eb 1b                	jmp    122a5 <func_48+0x2578>
   1228a:	8b 85 04 e5 ff ff    	mov    -0x1afc(%rbp),%eax
   12290:	48 98                	cltq   
   12292:	48 c7 84 c5 70 e8 ff 	movq   $0x0,-0x1790(%rbp,%rax,8)
   12299:	ff 00 00 00 00 
   1229e:	83 85 04 e5 ff ff 01 	addl   $0x1,-0x1afc(%rbp)
   122a5:	83 bd 04 e5 ff ff 09 	cmpl   $0x9,-0x1afc(%rbp)
   122ac:	7e dc                	jle    1228a <func_48+0x255d>
   122ae:	0f b7 05 db 95 00 00 	movzwl 0x95db(%rip),%eax        # 1b890 <g_67>
   122b5:	83 c0 01             	add    $0x1,%eax
   122b8:	66 89 05 d1 95 00 00 	mov    %ax,0x95d1(%rip)        # 1b890 <g_67>
   122bf:	66 c7 05 c8 95 00 00 	movw   $0x0,0x95c8(%rip)        # 1b890 <g_67>
   122c6:	00 00 
   122c8:	e9 c6 02 00 00       	jmpq   12593 <func_48+0x2866>
   122cd:	48 8d 85 d0 e7 ff ff 	lea    -0x1830(%rbp),%rax
   122d4:	48 83 c0 10          	add    $0x10,%rax
   122d8:	48 89 85 18 e7 ff ff 	mov    %rax,-0x18e8(%rbp)
   122df:	48 8d 85 70 e7 ff ff 	lea    -0x1890(%rbp),%rax
   122e6:	48 83 c0 10          	add    $0x10,%rax
   122ea:	48 89 85 e0 eb ff ff 	mov    %rax,-0x1420(%rbp)
   122f1:	48 8d 85 70 e7 ff ff 	lea    -0x1890(%rbp),%rax
   122f8:	48 83 c0 10          	add    $0x10,%rax
   122fc:	48 89 85 e8 eb ff ff 	mov    %rax,-0x1418(%rbp)
   12303:	48 8d 85 70 e7 ff ff 	lea    -0x1890(%rbp),%rax
   1230a:	48 89 85 f0 eb ff ff 	mov    %rax,-0x1410(%rbp)
   12311:	48 8d 85 70 e7 ff ff 	lea    -0x1890(%rbp),%rax
   12318:	48 83 c0 10          	add    $0x10,%rax
   1231c:	48 89 85 f8 eb ff ff 	mov    %rax,-0x1408(%rbp)
   12323:	48 8d 85 70 e7 ff ff 	lea    -0x1890(%rbp),%rax
   1232a:	48 83 c0 10          	add    $0x10,%rax
   1232e:	48 89 85 00 ec ff ff 	mov    %rax,-0x1400(%rbp)
   12335:	48 8d 85 70 e7 ff ff 	lea    -0x1890(%rbp),%rax
   1233c:	48 83 c0 20          	add    $0x20,%rax
   12340:	48 89 85 08 ec ff ff 	mov    %rax,-0x13f8(%rbp)
   12347:	48 8d 85 70 e7 ff ff 	lea    -0x1890(%rbp),%rax
   1234e:	48 83 c0 10          	add    $0x10,%rax
   12352:	48 89 85 10 ec ff ff 	mov    %rax,-0x13f0(%rbp)
   12359:	48 8d 85 70 e7 ff ff 	lea    -0x1890(%rbp),%rax
   12360:	48 83 c0 20          	add    $0x20,%rax
   12364:	48 89 85 18 ec ff ff 	mov    %rax,-0x13e8(%rbp)
   1236b:	48 8d 85 70 e7 ff ff 	lea    -0x1890(%rbp),%rax
   12372:	48 83 c0 20          	add    $0x20,%rax
   12376:	48 89 85 20 ec ff ff 	mov    %rax,-0x13e0(%rbp)
   1237d:	48 8d 85 70 e7 ff ff 	lea    -0x1890(%rbp),%rax
   12384:	48 83 c0 10          	add    $0x10,%rax
   12388:	48 89 85 28 ec ff ff 	mov    %rax,-0x13d8(%rbp)
   1238f:	48 8d 85 70 e7 ff ff 	lea    -0x1890(%rbp),%rax
   12396:	48 83 c0 10          	add    $0x10,%rax
   1239a:	48 89 85 30 ec ff ff 	mov    %rax,-0x13d0(%rbp)
   123a1:	48 8d 85 70 e7 ff ff 	lea    -0x1890(%rbp),%rax
   123a8:	48 83 c0 20          	add    $0x20,%rax
   123ac:	48 89 85 38 ec ff ff 	mov    %rax,-0x13c8(%rbp)
   123b3:	48 8d 85 70 e7 ff ff 	lea    -0x1890(%rbp),%rax
   123ba:	48 83 c0 20          	add    $0x20,%rax
   123be:	48 89 85 40 ec ff ff 	mov    %rax,-0x13c0(%rbp)
   123c5:	48 8d 85 70 e7 ff ff 	lea    -0x1890(%rbp),%rax
   123cc:	48 83 c0 10          	add    $0x10,%rax
   123d0:	48 89 85 48 ec ff ff 	mov    %rax,-0x13b8(%rbp)
   123d7:	48 8d 85 70 e7 ff ff 	lea    -0x1890(%rbp),%rax
   123de:	48 83 c0 20          	add    $0x20,%rax
   123e2:	48 89 85 50 ec ff ff 	mov    %rax,-0x13b0(%rbp)
   123e9:	48 8d 85 70 e7 ff ff 	lea    -0x1890(%rbp),%rax
   123f0:	48 83 c0 10          	add    $0x10,%rax
   123f4:	48 89 85 58 ec ff ff 	mov    %rax,-0x13a8(%rbp)
   123fb:	48 8d 85 70 e7 ff ff 	lea    -0x1890(%rbp),%rax
   12402:	48 83 c0 10          	add    $0x10,%rax
   12406:	48 89 85 60 ec ff ff 	mov    %rax,-0x13a0(%rbp)
   1240d:	48 8d 85 70 e7 ff ff 	lea    -0x1890(%rbp),%rax
   12414:	48 89 85 68 ec ff ff 	mov    %rax,-0x1398(%rbp)
   1241b:	48 8d 85 70 e7 ff ff 	lea    -0x1890(%rbp),%rax
   12422:	48 83 c0 10          	add    $0x10,%rax
   12426:	48 89 85 70 ec ff ff 	mov    %rax,-0x1390(%rbp)
   1242d:	48 8d 85 70 e7 ff ff 	lea    -0x1890(%rbp),%rax
   12434:	48 83 c0 10          	add    $0x10,%rax
   12438:	48 89 85 78 ec ff ff 	mov    %rax,-0x1388(%rbp)
   1243f:	48 8d 05 12 2c 00 00 	lea    0x2c12(%rip),%rax        # 15058 <g_88>
   12446:	48 89 85 a8 e5 ff ff 	mov    %rax,-0x1a58(%rbp)
   1244d:	48 8d 85 a8 e5 ff ff 	lea    -0x1a58(%rbp),%rax
   12454:	48 89 85 b0 e5 ff ff 	mov    %rax,-0x1a50(%rbp)
   1245b:	48 8d 85 b0 e5 ff ff 	lea    -0x1a50(%rbp),%rax
   12462:	48 89 85 20 e7 ff ff 	mov    %rax,-0x18e0(%rbp)
   12469:	48 8d 05 c8 6b 00 00 	lea    0x6bc8(%rip),%rax        # 19038 <g_90>
   12470:	48 89 85 28 e7 ff ff 	mov    %rax,-0x18d8(%rbp)
   12477:	48 c7 85 30 e7 ff ff 	movq   $0x0,-0x18d0(%rbp)
   1247e:	00 00 00 00 
   12482:	c7 85 54 e5 ff ff f1 	movl   $0x4c988bf1,-0x1aac(%rbp)
   12489:	8b 98 4c 
   1248c:	48 8d 85 98 e5 ff ff 	lea    -0x1a68(%rbp),%rax
   12493:	48 89 85 40 e9 ff ff 	mov    %rax,-0x16c0(%rbp)
   1249a:	48 8d 85 98 e5 ff ff 	lea    -0x1a68(%rbp),%rax
   124a1:	48 89 85 48 e9 ff ff 	mov    %rax,-0x16b8(%rbp)
   124a8:	48 8d 85 98 e5 ff ff 	lea    -0x1a68(%rbp),%rax
   124af:	48 89 85 50 e9 ff ff 	mov    %rax,-0x16b0(%rbp)
   124b6:	48 8d 85 98 e5 ff ff 	lea    -0x1a68(%rbp),%rax
   124bd:	48 89 85 58 e9 ff ff 	mov    %rax,-0x16a8(%rbp)
   124c4:	48 8d 85 98 e5 ff ff 	lea    -0x1a68(%rbp),%rax
   124cb:	48 89 85 60 e9 ff ff 	mov    %rax,-0x16a0(%rbp)
   124d2:	48 8d 85 98 e5 ff ff 	lea    -0x1a68(%rbp),%rax
   124d9:	48 89 85 68 e9 ff ff 	mov    %rax,-0x1698(%rbp)
   124e0:	48 8d 85 98 e5 ff ff 	lea    -0x1a68(%rbp),%rax
   124e7:	48 89 85 70 e9 ff ff 	mov    %rax,-0x1690(%rbp)
   124ee:	48 8d 85 98 e5 ff ff 	lea    -0x1a68(%rbp),%rax
   124f5:	48 89 85 78 e9 ff ff 	mov    %rax,-0x1688(%rbp)
   124fc:	48 8d 85 98 e5 ff ff 	lea    -0x1a68(%rbp),%rax
   12503:	48 89 85 80 e9 ff ff 	mov    %rax,-0x1680(%rbp)
   1250a:	48 8d 85 98 e5 ff ff 	lea    -0x1a68(%rbp),%rax
   12511:	48 89 85 88 e9 ff ff 	mov    %rax,-0x1678(%rbp)
   12518:	48 8d 85 50 e7 ff ff 	lea    -0x18b0(%rbp),%rax
   1251f:	48 83 c0 10          	add    $0x10,%rax
   12523:	48 89 85 38 e7 ff ff 	mov    %rax,-0x18c8(%rbp)
   1252a:	c7 85 58 e5 ff ff fa 	movl   $0xfffffffa,-0x1aa8(%rbp)
   12531:	ff ff ff 
   12534:	c7 85 5c e5 ff ff b2 	movl   $0x3b7cbdb2,-0x1aa4(%rbp)
   1253b:	bd 7c 3b 
   1253e:	c7 85 fc e4 ff ff 00 	movl   $0x0,-0x1b04(%rbp)
   12545:	00 00 00 
   12548:	eb 1e                	jmp    12568 <func_48+0x283b>
   1254a:	8b 85 fc e4 ff ff    	mov    -0x1b04(%rbp),%eax
   12550:	48 98                	cltq   
   12552:	48 8d 95 a0 e5 ff ff 	lea    -0x1a60(%rbp),%rdx
   12559:	48 89 94 c5 50 e7 ff 	mov    %rdx,-0x18b0(%rbp,%rax,8)
   12560:	ff 
   12561:	83 85 fc e4 ff ff 01 	addl   $0x1,-0x1b04(%rbp)
   12568:	83 bd fc e4 ff ff 02 	cmpl   $0x2,-0x1b04(%rbp)
   1256f:	7e d9                	jle    1254a <func_48+0x281d>
   12571:	48 8b 85 18 e7 ff ff 	mov    -0x18e8(%rbp),%rax
   12578:	48 8d 95 c4 e4 ff ff 	lea    -0x1b3c(%rbp),%rdx
   1257f:	48 89 10             	mov    %rdx,(%rax)
   12582:	0f b7 05 07 93 00 00 	movzwl 0x9307(%rip),%eax        # 1b890 <g_67>
   12589:	83 c0 01             	add    $0x1,%eax
   1258c:	66 89 05 fd 92 00 00 	mov    %ax,0x92fd(%rip)        # 1b890 <g_67>
   12593:	0f b7 05 f6 92 00 00 	movzwl 0x92f6(%rip),%eax        # 1b890 <g_67>
   1259a:	66 85 c0             	test   %ax,%ax
   1259d:	0f 84 2a fd ff ff    	je     122cd <func_48+0x25a0>
   125a3:	0f b6 05 82 6a 00 00 	movzbl 0x6a82(%rip),%eax        # 1902c <g_54>
   125aa:	83 c0 01             	add    $0x1,%eax
   125ad:	88 05 79 6a 00 00    	mov    %al,0x6a79(%rip)        # 1902c <g_54>
   125b3:	0f b6 05 72 6a 00 00 	movzbl 0x6a72(%rip),%eax        # 1902c <g_54>
   125ba:	84 c0                	test   %al,%al
   125bc:	0f 8e 1d fc ff ff    	jle    121df <func_48+0x24b2>
   125c2:	0f b7 9d e0 e4 ff ff 	movzwl -0x1b20(%rbp),%ebx
   125c9:	48 8b 05 80 8b 00 00 	mov    0x8b80(%rip),%rax        # 1b150 <g_82>
   125d0:	48 8b 00             	mov    (%rax),%rax
   125d3:	8b 00                	mov    (%rax),%eax
   125d5:	89 c2                	mov    %eax,%edx
   125d7:	b8 00 00 00 00       	mov    $0x0,%eax
   125dc:	89 d6                	mov    %edx,%esi
   125de:	89 c7                	mov    %eax,%edi
   125e0:	e8 d3 38 ff ff       	callq  5eb8 <safe_add_func_uint32_t_u_u>
   125e5:	89 c2                	mov    %eax,%edx
   125e7:	8b 85 c4 e4 ff ff    	mov    -0x1b3c(%rbp),%eax
   125ed:	31 d0                	xor    %edx,%eax
   125ef:	0f b7 c0             	movzwl %ax,%eax
   125f2:	be 03 00 00 00       	mov    $0x3,%esi
   125f7:	89 c7                	mov    %eax,%edi
   125f9:	e8 7c 38 ff ff       	callq  5e7a <safe_rshift_func_uint16_t_u_u>
   125fe:	0f b7 c0             	movzwl %ax,%eax
   12601:	89 c7                	mov    %eax,%edi
   12603:	e8 e1 36 ff ff       	callq  5ce9 <safe_unary_minus_func_uint16_t_u>
   12608:	0f b7 d0             	movzwl %ax,%edx
   1260b:	8b 85 c4 e4 ff ff    	mov    -0x1b3c(%rbp),%eax
   12611:	39 c2                	cmp    %eax,%edx
   12613:	8b 85 c4 e4 ff ff    	mov    -0x1b3c(%rbp),%eax
   12619:	83 f8 10             	cmp    $0x10,%eax
   1261c:	0f 95 c0             	setne  %al
   1261f:	0f b6 c0             	movzbl %al,%eax
   12622:	89 de                	mov    %ebx,%esi
   12624:	89 c7                	mov    %eax,%edi
   12626:	e8 41 2d ff ff       	callq  536c <safe_rshift_func_int8_t_s_u>
   1262b:	8b 85 c4 e4 ff ff    	mov    -0x1b3c(%rbp),%eax
   12631:	0f b7 d0             	movzwl %ax,%edx
   12634:	8b 8d e4 e4 ff ff    	mov    -0x1b1c(%rbp),%ecx
   1263a:	8b 85 c4 e4 ff ff    	mov    -0x1b3c(%rbp),%eax
   12640:	09 c8                	or     %ecx,%eax
   12642:	89 85 e4 e4 ff ff    	mov    %eax,-0x1b1c(%rbp)
   12648:	8b 85 e4 e4 ff ff    	mov    -0x1b1c(%rbp),%eax
   1264e:	0f b7 c0             	movzwl %ax,%eax
   12651:	89 d6                	mov    %edx,%esi
   12653:	89 c7                	mov    %eax,%edi
   12655:	e8 02 37 ff ff       	callq  5d5c <safe_mod_func_uint16_t_u_u>
   1265a:	0f b7 d8             	movzwl %ax,%ebx
   1265d:	48 83 bd c8 e5 ff ff 	cmpq   $0x0,-0x1a38(%rbp)
   12664:	00 
   12665:	0f 94 c0             	sete   %al
   12668:	0f b6 d0             	movzbl %al,%edx
   1266b:	8b 85 c4 e4 ff ff    	mov    -0x1b3c(%rbp),%eax
   12671:	48 98                	cltq   
   12673:	48 89 d6             	mov    %rdx,%rsi
   12676:	48 89 c7             	mov    %rax,%rdi
   12679:	e8 b0 39 ff ff       	callq  602e <safe_add_func_uint64_t_u_u>
   1267e:	8b 95 c4 e4 ff ff    	mov    -0x1b3c(%rbp),%edx
   12684:	83 fa 01             	cmp    $0x1,%edx
   12687:	0f 94 c2             	sete   %dl
   1268a:	0f b6 d2             	movzbl %dl,%edx
   1268d:	48 39 d0             	cmp    %rdx,%rax
   12690:	0f 95 c0             	setne  %al
   12693:	0f b6 c0             	movzbl %al,%eax
   12696:	39 c3                	cmp    %eax,%ebx
   12698:	0f 85 0a 05 00 00    	jne    12ba8 <func_48+0x2e7b>
   1269e:	48 8d 05 ab 6d 00 00 	lea    0x6dab(%rip),%rax        # 19450 <g_142>
   126a5:	48 89 85 90 e6 ff ff 	mov    %rax,-0x1970(%rbp)
   126ac:	48 8d 85 e0 e9 ff ff 	lea    -0x1620(%rbp),%rax
   126b3:	48 83 c0 48          	add    $0x48,%rax
   126b7:	48 89 85 98 e6 ff ff 	mov    %rax,-0x1968(%rbp)
   126be:	48 8d 85 e4 e4 ff ff 	lea    -0x1b1c(%rbp),%rax
   126c5:	48 89 85 a0 e6 ff ff 	mov    %rax,-0x1960(%rbp)
   126cc:	48 c7 85 a8 e6 ff ff 	movq   $0x0,-0x1958(%rbp)
   126d3:	00 00 00 00 
   126d7:	48 8d 85 e0 e9 ff ff 	lea    -0x1620(%rbp),%rax
   126de:	48 83 c0 48          	add    $0x48,%rax
   126e2:	48 89 85 b0 e6 ff ff 	mov    %rax,-0x1950(%rbp)
   126e9:	48 8d 85 e0 e9 ff ff 	lea    -0x1620(%rbp),%rax
   126f0:	48 83 c0 48          	add    $0x48,%rax
   126f4:	48 89 85 b8 e6 ff ff 	mov    %rax,-0x1948(%rbp)
   126fb:	48 8d 05 4e 6d 00 00 	lea    0x6d4e(%rip),%rax        # 19450 <g_142>
   12702:	48 89 85 c0 e6 ff ff 	mov    %rax,-0x1940(%rbp)
   12709:	48 8d 85 e4 e4 ff ff 	lea    -0x1b1c(%rbp),%rax
   12710:	48 89 85 a8 e5 ff ff 	mov    %rax,-0x1a58(%rbp)
   12717:	c7 85 18 e5 ff ff 18 	movl   $0x7a393618,-0x1ae8(%rbp)
   1271e:	36 39 7a 
   12721:	c7 85 1c e5 ff ff 00 	movl   $0x0,-0x1ae4(%rbp)
   12728:	00 00 00 
   1272b:	48 c7 85 e0 eb ff ff 	movq   $0x0,-0x1420(%rbp)
   12732:	00 00 00 00 
   12736:	48 c7 85 e8 eb ff ff 	movq   $0x0,-0x1418(%rbp)
   1273d:	00 00 00 00 
   12741:	48 c7 85 f0 eb ff ff 	movq   $0x0,-0x1410(%rbp)
   12748:	00 00 00 00 
   1274c:	48 8d 05 d5 68 00 00 	lea    0x68d5(%rip),%rax        # 19028 <g_5>
   12753:	48 89 85 f8 eb ff ff 	mov    %rax,-0x1408(%rbp)
   1275a:	48 8d 05 c7 68 00 00 	lea    0x68c7(%rip),%rax        # 19028 <g_5>
   12761:	48 89 85 00 ec ff ff 	mov    %rax,-0x1400(%rbp)
   12768:	48 8d 05 b9 68 00 00 	lea    0x68b9(%rip),%rax        # 19028 <g_5>
   1276f:	48 89 85 08 ec ff ff 	mov    %rax,-0x13f8(%rbp)
   12776:	48 c7 85 10 ec ff ff 	movq   $0x0,-0x13f0(%rbp)
   1277d:	00 00 00 00 
   12781:	48 c7 85 18 ec ff ff 	movq   $0x0,-0x13e8(%rbp)
   12788:	00 00 00 00 
   1278c:	48 c7 85 20 ec ff ff 	movq   $0x0,-0x13e0(%rbp)
   12793:	00 00 00 00 
   12797:	48 8d 05 8a 68 00 00 	lea    0x688a(%rip),%rax        # 19028 <g_5>
   1279e:	48 89 85 28 ec ff ff 	mov    %rax,-0x13d8(%rbp)
   127a5:	48 8d 05 7c 68 00 00 	lea    0x687c(%rip),%rax        # 19028 <g_5>
   127ac:	48 89 85 30 ec ff ff 	mov    %rax,-0x13d0(%rbp)
   127b3:	48 8d 05 6e 68 00 00 	lea    0x686e(%rip),%rax        # 19028 <g_5>
   127ba:	48 89 85 38 ec ff ff 	mov    %rax,-0x13c8(%rbp)
   127c1:	48 c7 85 40 ec ff ff 	movq   $0x0,-0x13c0(%rbp)
   127c8:	00 00 00 00 
   127cc:	48 c7 85 48 ec ff ff 	movq   $0x0,-0x13b8(%rbp)
   127d3:	00 00 00 00 
   127d7:	48 c7 85 50 ec ff ff 	movq   $0x0,-0x13b0(%rbp)
   127de:	00 00 00 00 
   127e2:	48 8d 05 3f 68 00 00 	lea    0x683f(%rip),%rax        # 19028 <g_5>
   127e9:	48 89 85 58 ec ff ff 	mov    %rax,-0x13a8(%rbp)
   127f0:	48 8d 05 31 68 00 00 	lea    0x6831(%rip),%rax        # 19028 <g_5>
   127f7:	48 89 85 60 ec ff ff 	mov    %rax,-0x13a0(%rbp)
   127fe:	48 8d 05 23 68 00 00 	lea    0x6823(%rip),%rax        # 19028 <g_5>
   12805:	48 89 85 68 ec ff ff 	mov    %rax,-0x1398(%rbp)
   1280c:	c7 85 20 e5 ff ff ff 	movl   $0xffffffff,-0x1ae0(%rbp)
   12813:	ff ff ff 
   12816:	48 8d 05 4b 6f 00 00 	lea    0x6f4b(%rip),%rax        # 19768 <g_263>
   1281d:	48 89 85 c8 e6 ff ff 	mov    %rax,-0x1938(%rbp)
   12824:	48 c7 85 b0 e5 ff ff 	movq   $0x0,-0x1a50(%rbp)
   1282b:	00 00 00 00 
   1282f:	48 8d 85 b0 e5 ff ff 	lea    -0x1a50(%rbp),%rax
   12836:	48 89 85 70 e8 ff ff 	mov    %rax,-0x1790(%rbp)
   1283d:	48 8d 85 b0 e5 ff ff 	lea    -0x1a50(%rbp),%rax
   12844:	48 89 85 78 e8 ff ff 	mov    %rax,-0x1788(%rbp)
   1284b:	48 8d 85 b0 e5 ff ff 	lea    -0x1a50(%rbp),%rax
   12852:	48 89 85 80 e8 ff ff 	mov    %rax,-0x1780(%rbp)
   12859:	48 8d 85 b0 e5 ff ff 	lea    -0x1a50(%rbp),%rax
   12860:	48 89 85 88 e8 ff ff 	mov    %rax,-0x1778(%rbp)
   12867:	48 8d 85 b0 e5 ff ff 	lea    -0x1a50(%rbp),%rax
   1286e:	48 89 85 90 e8 ff ff 	mov    %rax,-0x1770(%rbp)
   12875:	48 8d 85 b0 e5 ff ff 	lea    -0x1a50(%rbp),%rax
   1287c:	48 89 85 98 e8 ff ff 	mov    %rax,-0x1768(%rbp)
   12883:	0f b6 05 d2 6e 00 00 	movzbl 0x6ed2(%rip),%eax        # 1975c <g_227>
   1288a:	83 c0 01             	add    $0x1,%eax
   1288d:	88 05 c9 6e 00 00    	mov    %al,0x6ec9(%rip)        # 1975c <g_227>
   12893:	c6 05 c2 6e 00 00 00 	movb   $0x0,0x6ec2(%rip)        # 1975c <g_227>
   1289a:	e9 98 00 00 00       	jmpq   12937 <func_48+0x2c0a>
   1289f:	48 b8 c4 81 0f d3 b6 	movabs $0x20be43b6d30f81c4,%rax
   128a6:	43 be 20 
   128a9:	48 89 85 d0 e6 ff ff 	mov    %rax,-0x1930(%rbp)
   128b0:	c7 85 24 e5 ff ff 04 	movl   $0x4,-0x1adc(%rbp)
   128b7:	00 00 00 
   128ba:	0f b7 05 9d 6e 00 00 	movzwl 0x6e9d(%rip),%eax        # 1975e <g_234>
   128c1:	83 e8 01             	sub    $0x1,%eax
   128c4:	66 89 05 93 6e 00 00 	mov    %ax,0x6e93(%rip)        # 1975e <g_234>
   128cb:	48 83 bd d0 e6 ff ff 	cmpq   $0x0,-0x1930(%rbp)
   128d2:	00 
   128d3:	75 73                	jne    12948 <func_48+0x2c1b>
   128d5:	c7 85 e8 e4 ff ff 00 	movl   $0x0,-0x1b18(%rbp)
   128dc:	00 00 00 
   128df:	eb 2f                	jmp    12910 <func_48+0x2be3>
   128e1:	c6 85 dd e4 ff ff ca 	movb   $0xca,-0x1b23(%rbp)
   128e8:	0f b6 85 dd e4 ff ff 	movzbl -0x1b23(%rbp),%eax
   128ef:	83 e8 01             	sub    $0x1,%eax
   128f2:	88 85 dd e4 ff ff    	mov    %al,-0x1b23(%rbp)
   128f8:	8b 85 e8 e4 ff ff    	mov    -0x1b18(%rbp),%eax
   128fe:	be 02 00 00 00       	mov    $0x2,%esi
   12903:	89 c7                	mov    %eax,%edi
   12905:	e8 ac 2c ff ff       	callq  55b6 <safe_add_func_int32_t_s_s>
   1290a:	89 85 e8 e4 ff ff    	mov    %eax,-0x1b18(%rbp)
   12910:	8b 85 e8 e4 ff ff    	mov    -0x1b18(%rbp),%eax
   12916:	83 f8 0a             	cmp    $0xa,%eax
   12919:	77 c6                	ja     128e1 <func_48+0x2bb4>
   1291b:	0f b6 05 3a 6e 00 00 	movzbl 0x6e3a(%rip),%eax        # 1975c <g_227>
   12922:	0f b6 c0             	movzbl %al,%eax
   12925:	be 02 00 00 00       	mov    $0x2,%esi
   1292a:	89 c7                	mov    %eax,%edi
   1292c:	e8 ce 33 ff ff       	callq  5cff <safe_add_func_uint16_t_u_u>
   12931:	88 05 25 6e 00 00    	mov    %al,0x6e25(%rip)        # 1975c <g_227>
   12937:	0f b6 05 1e 6e 00 00 	movzbl 0x6e1e(%rip),%eax        # 1975c <g_227>
   1293e:	3c 1d                	cmp    $0x1d,%al
   12940:	0f 86 59 ff ff ff    	jbe    1289f <func_48+0x2b72>
   12946:	eb 01                	jmp    12949 <func_48+0x2c1c>
   12948:	90                   	nop
   12949:	c6 05 dc 66 00 00 00 	movb   $0x0,0x66dc(%rip)        # 1902c <g_54>
   12950:	e9 3f 02 00 00       	jmpq   12b94 <func_48+0x2e67>
   12955:	48 8d 05 14 6e 00 00 	lea    0x6e14(%rip),%rax        # 19770 <g_265>
   1295c:	48 89 85 40 e9 ff ff 	mov    %rax,-0x16c0(%rbp)
   12963:	48 8d 05 06 6e 00 00 	lea    0x6e06(%rip),%rax        # 19770 <g_265>
   1296a:	48 89 85 48 e9 ff ff 	mov    %rax,-0x16b8(%rbp)
   12971:	48 8d 05 f8 6d 00 00 	lea    0x6df8(%rip),%rax        # 19770 <g_265>
   12978:	48 89 85 50 e9 ff ff 	mov    %rax,-0x16b0(%rbp)
   1297f:	48 8d 05 ea 6d 00 00 	lea    0x6dea(%rip),%rax        # 19770 <g_265>
   12986:	48 89 85 58 e9 ff ff 	mov    %rax,-0x16a8(%rbp)
   1298d:	48 8d 05 dc 6d 00 00 	lea    0x6ddc(%rip),%rax        # 19770 <g_265>
   12994:	48 89 85 60 e9 ff ff 	mov    %rax,-0x16a0(%rbp)
   1299b:	48 8d 05 ce 6d 00 00 	lea    0x6dce(%rip),%rax        # 19770 <g_265>
   129a2:	48 89 85 68 e9 ff ff 	mov    %rax,-0x1698(%rbp)
   129a9:	48 8d 05 c0 6d 00 00 	lea    0x6dc0(%rip),%rax        # 19770 <g_265>
   129b0:	48 89 85 70 e9 ff ff 	mov    %rax,-0x1690(%rbp)
   129b7:	48 8d 05 b2 6d 00 00 	lea    0x6db2(%rip),%rax        # 19770 <g_265>
   129be:	48 89 85 78 e9 ff ff 	mov    %rax,-0x1688(%rbp)
   129c5:	48 8d 05 a4 6d 00 00 	lea    0x6da4(%rip),%rax        # 19770 <g_265>
   129cc:	48 89 85 80 e9 ff ff 	mov    %rax,-0x1680(%rbp)
   129d3:	48 8d 85 a8 e5 ff ff 	lea    -0x1a58(%rbp),%rax
   129da:	48 89 85 d8 e6 ff ff 	mov    %rax,-0x1928(%rbp)
   129e1:	48 8d 05 60 6c 00 00 	lea    0x6c60(%rip),%rax        # 19648 <g_225>
   129e8:	48 89 85 e0 e6 ff ff 	mov    %rax,-0x1920(%rbp)
   129ef:	48 8d 05 4a 6a 00 00 	lea    0x6a4a(%rip),%rax        # 19440 <g_137>
   129f6:	48 89 85 e8 e6 ff ff 	mov    %rax,-0x1918(%rbp)
   129fd:	c7 85 28 e5 ff ff fb 	movl   $0xfffffffb,-0x1ad8(%rbp)
   12a04:	ff ff ff 
   12a07:	c7 85 2c e5 ff ff 75 	movl   $0xf15f9075,-0x1ad4(%rbp)
   12a0e:	90 5f f1 
   12a11:	c7 85 30 e5 ff ff c5 	movl   $0x65c469c5,-0x1ad0(%rbp)
   12a18:	69 c4 65 
   12a1b:	c7 85 34 e5 ff ff 08 	movl   $0xd38ebb08,-0x1acc(%rbp)
   12a22:	bb 8e d3 
   12a25:	c7 85 38 e5 ff ff ff 	movl   $0xffffffff,-0x1ac8(%rbp)
   12a2c:	ff ff ff 
   12a2f:	c7 85 3c e5 ff ff 2b 	movl   $0x3c4ab22b,-0x1ac4(%rbp)
   12a36:	b2 4a 3c 
   12a39:	c7 85 40 e5 ff ff a4 	movl   $0x3f70eda4,-0x1ac0(%rbp)
   12a40:	ed 70 3f 
   12a43:	c7 85 44 e5 ff ff 01 	movl   $0x1,-0x1abc(%rbp)
   12a4a:	00 00 00 
   12a4d:	c7 85 48 e5 ff ff f5 	movl   $0x3077d0f5,-0x1ab8(%rbp)
   12a54:	d0 77 30 
   12a57:	48 c7 85 f0 e6 ff ff 	movq   $0x0,-0x1910(%rbp)
   12a5e:	00 00 00 00 
   12a62:	48 c7 85 f8 e6 ff ff 	movq   $0x0,-0x1908(%rbp)
   12a69:	00 00 00 00 
   12a6d:	c7 85 d0 e7 ff ff 9d 	movl   $0x5ea2949d,-0x1830(%rbp)
   12a74:	94 a2 5e 
   12a77:	c7 85 d4 e7 ff ff 9d 	movl   $0x5ea2949d,-0x182c(%rbp)
   12a7e:	94 a2 5e 
   12a81:	c7 85 d8 e7 ff ff 9d 	movl   $0x5ea2949d,-0x1828(%rbp)
   12a88:	94 a2 5e 
   12a8b:	c7 85 dc e7 ff ff 9d 	movl   $0x5ea2949d,-0x1824(%rbp)
   12a92:	94 a2 5e 
   12a95:	c7 85 e0 e7 ff ff 9d 	movl   $0x5ea2949d,-0x1820(%rbp)
   12a9c:	94 a2 5e 
   12a9f:	c7 85 e4 e7 ff ff 9d 	movl   $0x5ea2949d,-0x181c(%rbp)
   12aa6:	94 a2 5e 
   12aa9:	c7 85 e8 e7 ff ff 9d 	movl   $0x5ea2949d,-0x1818(%rbp)
   12ab0:	94 a2 5e 
   12ab3:	66 c7 05 7c 65 00 00 	movw   $0x0,0x657c(%rip)        # 19038 <g_90>
   12aba:	00 00 
   12abc:	e9 b2 00 00 00       	jmpq   12b73 <func_48+0x2e46>
   12ac1:	66 c7 05 96 6c 00 00 	movw   $0x0,0x6c96(%rip)        # 19760 <g_239>
   12ac8:	00 00 
   12aca:	e9 82 00 00 00       	jmpq   12b51 <func_48+0x2e24>
   12acf:	66 c7 05 6e 6b 00 00 	movw   $0x0,0x6b6e(%rip)        # 19646 <g_224>
   12ad6:	00 00 
   12ad8:	eb 59                	jmp    12b33 <func_48+0x2e06>
   12ada:	0f b7 05 57 65 00 00 	movzwl 0x6557(%rip),%eax        # 19038 <g_90>
   12ae1:	0f bf d0             	movswl %ax,%edx
   12ae4:	0f b7 05 75 6c 00 00 	movzwl 0x6c75(%rip),%eax        # 19760 <g_239>
   12aeb:	98                   	cwtl   
   12aec:	0f b7 0d 53 6b 00 00 	movzwl 0x6b53(%rip),%ecx        # 19646 <g_224>
   12af3:	0f bf c9             	movswl %cx,%ecx
   12af6:	48 63 c9             	movslq %ecx,%rcx
   12af9:	48 63 d2             	movslq %edx,%rdx
   12afc:	48 63 f0             	movslq %eax,%rsi
   12aff:	48 89 d0             	mov    %rdx,%rax
   12b02:	48 c1 e0 03          	shl    $0x3,%rax
   12b06:	48 01 d0             	add    %rdx,%rax
   12b09:	48 01 f0             	add    %rsi,%rax
   12b0c:	48 c1 e0 02          	shl    $0x2,%rax
   12b10:	48 01 c8             	add    %rcx,%rax
   12b13:	48 8d 15 36 69 00 00 	lea    0x6936(%rip),%rdx        # 19450 <g_142>
   12b1a:	48 89 94 c5 00 f0 ff 	mov    %rdx,-0x1000(%rbp,%rax,8)
   12b21:	ff 
   12b22:	0f b7 05 1d 6b 00 00 	movzwl 0x6b1d(%rip),%eax        # 19646 <g_224>
   12b29:	83 c0 01             	add    $0x1,%eax
   12b2c:	66 89 05 13 6b 00 00 	mov    %ax,0x6b13(%rip)        # 19646 <g_224>
   12b33:	0f b7 05 0c 6b 00 00 	movzwl 0x6b0c(%rip),%eax        # 19646 <g_224>
   12b3a:	66 83 f8 03          	cmp    $0x3,%ax
   12b3e:	7e 9a                	jle    12ada <func_48+0x2dad>
   12b40:	0f b7 05 19 6c 00 00 	movzwl 0x6c19(%rip),%eax        # 19760 <g_239>
   12b47:	83 c0 01             	add    $0x1,%eax
   12b4a:	66 89 05 0f 6c 00 00 	mov    %ax,0x6c0f(%rip)        # 19760 <g_239>
   12b51:	0f b7 05 08 6c 00 00 	movzwl 0x6c08(%rip),%eax        # 19760 <g_239>
   12b58:	66 83 f8 08          	cmp    $0x8,%ax
   12b5c:	0f 8e 6d ff ff ff    	jle    12acf <func_48+0x2da2>
   12b62:	0f b7 05 cf 64 00 00 	movzwl 0x64cf(%rip),%eax        # 19038 <g_90>
   12b69:	83 c0 01             	add    $0x1,%eax
   12b6c:	66 89 05 c5 64 00 00 	mov    %ax,0x64c5(%rip)        # 19038 <g_90>
   12b73:	0f b7 05 be 64 00 00 	movzwl 0x64be(%rip),%eax        # 19038 <g_90>
   12b7a:	66 83 f8 06          	cmp    $0x6,%ax
   12b7e:	0f 8e 3d ff ff ff    	jle    12ac1 <func_48+0x2d94>
   12b84:	0f b6 05 a1 64 00 00 	movzbl 0x64a1(%rip),%eax        # 1902c <g_54>
   12b8b:	83 c0 01             	add    $0x1,%eax
   12b8e:	88 05 98 64 00 00    	mov    %al,0x6498(%rip)        # 1902c <g_54>
   12b94:	0f b6 05 91 64 00 00 	movzbl 0x6491(%rip),%eax        # 1902c <g_54>
   12b9b:	3c 0d                	cmp    $0xd,%al
   12b9d:	0f 8f b2 fd ff ff    	jg     12955 <func_48+0x2c28>
   12ba3:	e9 43 0d 00 00       	jmpq   138eb <func_48+0x3bbe>
   12ba8:	48 c7 85 88 e5 ff ff 	movq   $0x0,-0x1a78(%rbp)
   12baf:	00 00 00 00 
   12bb3:	48 c7 85 d8 e5 ff ff 	movq   $0x0,-0x1a28(%rbp)
   12bba:	00 00 00 00 
   12bbe:	48 c7 85 e0 e5 ff ff 	movq   $0x0,-0x1a20(%rbp)
   12bc5:	00 00 00 00 
   12bc9:	48 8d 95 70 e8 ff ff 	lea    -0x1790(%rbp),%rdx
   12bd0:	b8 00 00 00 00       	mov    $0x0,%eax
   12bd5:	b9 0c 00 00 00       	mov    $0xc,%ecx
   12bda:	48 89 d7             	mov    %rdx,%rdi
   12bdd:	f3 48 ab             	rep stos %rax,%es:(%rdi)
   12be0:	c6 85 dc e4 ff ff 09 	movb   $0x9,-0x1b24(%rbp)
   12be7:	48 8d 05 9a 8c 00 00 	lea    0x8c9a(%rip),%rax        # 1b888 <g_2>
   12bee:	48 89 85 90 e5 ff ff 	mov    %rax,-0x1a70(%rbp)
   12bf5:	48 8d 85 90 e5 ff ff 	lea    -0x1a70(%rbp),%rax
   12bfc:	48 89 85 98 e5 ff ff 	mov    %rax,-0x1a68(%rbp)
   12c03:	48 8d 85 98 e5 ff ff 	lea    -0x1a68(%rbp),%rax
   12c0a:	48 89 85 e8 e5 ff ff 	mov    %rax,-0x1a18(%rbp)
   12c11:	48 8d 05 b4 90 00 00 	lea    0x90b4(%rip),%rax        # 1bccc <g_594+0xc>
   12c18:	48 89 85 a0 e5 ff ff 	mov    %rax,-0x1a60(%rbp)
   12c1f:	48 8d 85 a0 e5 ff ff 	lea    -0x1a60(%rbp),%rax
   12c26:	48 89 85 f0 e5 ff ff 	mov    %rax,-0x1a10(%rbp)
   12c2d:	48 8d 05 8d 6a 00 00 	lea    0x6a8d(%rip),%rax        # 196c1 <g_226+0x61>
   12c34:	48 89 85 f8 e5 ff ff 	mov    %rax,-0x1a08(%rbp)
   12c3b:	48 c7 85 00 e6 ff ff 	movq   $0x0,-0x1a00(%rbp)
   12c42:	00 00 00 00 
   12c46:	48 8d 85 a0 e7 ff ff 	lea    -0x1860(%rbp),%rax
   12c4d:	48 83 c0 28          	add    $0x28,%rax
   12c51:	48 89 85 08 e6 ff ff 	mov    %rax,-0x19f8(%rbp)
   12c58:	c7 85 f0 e4 ff ff 00 	movl   $0x0,-0x1b10(%rbp)
   12c5f:	00 00 00 
   12c62:	eb 51                	jmp    12cb5 <func_48+0x2f88>
   12c64:	c7 85 f4 e4 ff ff 00 	movl   $0x0,-0x1b0c(%rbp)
   12c6b:	00 00 00 
   12c6e:	eb 35                	jmp    12ca5 <func_48+0x2f78>
   12c70:	8b 85 f4 e4 ff ff    	mov    -0x1b0c(%rbp),%eax
   12c76:	48 63 c8             	movslq %eax,%rcx
   12c79:	8b 85 f0 e4 ff ff    	mov    -0x1b10(%rbp),%eax
   12c7f:	48 63 d0             	movslq %eax,%rdx
   12c82:	48 89 d0             	mov    %rdx,%rax
   12c85:	48 c1 e0 02          	shl    $0x2,%rax
   12c89:	48 01 d0             	add    %rdx,%rax
   12c8c:	48 01 c8             	add    %rcx,%rax
   12c8f:	48 8d 15 a2 63 00 00 	lea    0x63a2(%rip),%rdx        # 19038 <g_90>
   12c96:	48 89 94 c5 40 e9 ff 	mov    %rdx,-0x16c0(%rbp,%rax,8)
   12c9d:	ff 
   12c9e:	83 85 f4 e4 ff ff 01 	addl   $0x1,-0x1b0c(%rbp)
   12ca5:	83 bd f4 e4 ff ff 04 	cmpl   $0x4,-0x1b0c(%rbp)
   12cac:	7e c2                	jle    12c70 <func_48+0x2f43>
   12cae:	83 85 f0 e4 ff ff 01 	addl   $0x1,-0x1b10(%rbp)
   12cb5:	83 bd f0 e4 ff ff 03 	cmpl   $0x3,-0x1b10(%rbp)
   12cbc:	7e a6                	jle    12c64 <func_48+0x2f37>
   12cbe:	c7 85 f0 e4 ff ff 00 	movl   $0x0,-0x1b10(%rbp)
   12cc5:	00 00 00 
   12cc8:	eb 1a                	jmp    12ce4 <func_48+0x2fb7>
   12cca:	8b 85 f0 e4 ff ff    	mov    -0x1b10(%rbp),%eax
   12cd0:	48 98                	cltq   
   12cd2:	c7 84 85 50 e7 ff ff 	movl   $0xffffffff,-0x18b0(%rbp,%rax,4)
   12cd9:	ff ff ff ff 
   12cdd:	83 85 f0 e4 ff ff 01 	addl   $0x1,-0x1b10(%rbp)
   12ce4:	83 bd f0 e4 ff ff 05 	cmpl   $0x5,-0x1b10(%rbp)
   12ceb:	7e dd                	jle    12cca <func_48+0x2f9d>
   12ced:	90                   	nop
   12cee:	0f b7 05 69 6a 00 00 	movzwl 0x6a69(%rip),%eax        # 1975e <g_234>
   12cf5:	0f b7 d8             	movzwl %ax,%ebx
   12cf8:	8b 85 c4 e4 ff ff    	mov    -0x1b3c(%rbp),%eax
   12cfe:	41 89 c5             	mov    %eax,%r13d
   12d01:	44 8b a5 c4 e4 ff ff 	mov    -0x1b3c(%rbp),%r12d
   12d08:	8b 85 c4 e4 ff ff    	mov    -0x1b3c(%rbp),%eax
   12d0e:	0f b7 c0             	movzwl %ax,%eax
   12d11:	89 c6                	mov    %eax,%esi
   12d13:	bf 03 fa 00 00       	mov    $0xfa03,%edi
   12d18:	e8 e2 2f ff ff       	callq  5cff <safe_add_func_uint16_t_u_u>
   12d1d:	f7 d0                	not    %eax
   12d1f:	0f b6 c0             	movzbl %al,%eax
   12d22:	89 c6                	mov    %eax,%esi
   12d24:	bf ff 00 00 00       	mov    $0xff,%edi
   12d29:	e8 2c 2e ff ff       	callq  5b5a <safe_add_func_uint8_t_u_u>
   12d2e:	0f b6 c0             	movzbl %al,%eax
   12d31:	be f6 ff 00 00       	mov    $0xfff6,%esi
   12d36:	89 c7                	mov    %eax,%edi
   12d38:	e8 e2 2f ff ff       	callq  5d1f <safe_sub_func_uint16_t_u_u>
   12d3d:	0f b7 d0             	movzwl %ax,%edx
   12d40:	48 8b 05 01 67 00 00 	mov    0x6701(%rip),%rax        # 19448 <g_140>
   12d47:	48 39 c2             	cmp    %rax,%rdx
   12d4a:	0f 95 c0             	setne  %al
   12d4d:	0f b6 c0             	movzbl %al,%eax
   12d50:	44 89 e6             	mov    %r12d,%esi
   12d53:	89 c7                	mov    %eax,%edi
   12d55:	e8 38 27 ff ff       	callq  5492 <safe_lshift_func_int16_t_s_s>
   12d5a:	0f b7 05 c5 67 00 00 	movzwl 0x67c5(%rip),%eax        # 19526 <g_172+0xc6>
   12d61:	0f b7 c0             	movzwl %ax,%eax
   12d64:	25 d4 d8 00 00       	and    $0xd8d4,%eax
   12d69:	44 89 ee             	mov    %r13d,%esi
   12d6c:	89 c7                	mov    %eax,%edi
   12d6e:	e8 45 31 ff ff       	callq  5eb8 <safe_add_func_uint32_t_u_u>
   12d73:	0f b6 c0             	movzbl %al,%eax
   12d76:	89 de                	mov    %ebx,%esi
   12d78:	89 c7                	mov    %eax,%edi
   12d7a:	e8 0e 2f ff ff       	callq  5c8d <safe_rshift_func_uint8_t_u_s>
   12d7f:	0f b6 c0             	movzbl %al,%eax
   12d82:	be 00 00 00 00       	mov    $0x0,%esi
   12d87:	89 c7                	mov    %eax,%edi
   12d89:	e8 04 27 ff ff       	callq  5492 <safe_lshift_func_int16_t_s_s>
   12d8e:	0f bf d0             	movswl %ax,%edx
   12d91:	8b 85 5c e7 ff ff    	mov    -0x18a4(%rbp),%eax
   12d97:	39 c2                	cmp    %eax,%edx
   12d99:	0f 9d c0             	setge  %al
   12d9c:	0f b6 c0             	movzbl %al,%eax
   12d9f:	89 c6                	mov    %eax,%esi
   12da1:	bf 00 00 00 00       	mov    $0x0,%edi
   12da6:	e8 08 26 ff ff       	callq  53b3 <safe_add_func_int16_t_s_s>
   12dab:	0f bf d0             	movswl %ax,%edx
   12dae:	8b 85 c4 e4 ff ff    	mov    -0x1b3c(%rbp),%eax
   12db4:	39 c2                	cmp    %eax,%edx
   12db6:	0f 9e c0             	setle  %al
   12db9:	0f b6 d0             	movzbl %al,%edx
   12dbc:	48 8b 05 ed 8e 00 00 	mov    0x8eed(%rip),%rax        # 1bcb0 <g_358>
   12dc3:	48 39 85 d8 e5 ff ff 	cmp    %rax,-0x1a28(%rbp)
   12dca:	0f 95 c0             	setne  %al
   12dcd:	0f b6 c0             	movzbl %al,%eax
   12dd0:	89 d6                	mov    %edx,%esi
   12dd2:	89 c7                	mov    %eax,%edi
   12dd4:	e8 e5 2e ff ff       	callq  5cbe <safe_rshift_func_uint8_t_u_u>
   12dd9:	0f b6 c0             	movzbl %al,%eax
   12ddc:	48 89 05 4d 62 00 00 	mov    %rax,0x624d(%rip)        # 19030 <g_66>
   12de3:	48 8b 05 46 62 00 00 	mov    0x6246(%rip),%rax        # 19030 <g_66>
   12dea:	be 00 00 00 00       	mov    $0x0,%esi
   12def:	48 89 c7             	mov    %rax,%rdi
   12df2:	e8 4a 2a ff ff       	callq  5841 <safe_add_func_int64_t_s_s>
   12df7:	48 85 c0             	test   %rax,%rax
   12dfa:	74 08                	je     12e04 <func_48+0x30d7>
   12dfc:	8b 85 c4 e4 ff ff    	mov    -0x1b3c(%rbp),%eax
   12e02:	85 c0                	test   %eax,%eax
   12e04:	8b 85 c4 e4 ff ff    	mov    -0x1b3c(%rbp),%eax
   12e0a:	3d 38 6f 00 00       	cmp    $0x6f38,%eax
   12e0f:	0f 9e c0             	setle  %al
   12e12:	0f b6 d8             	movzbl %al,%ebx
   12e15:	48 8b 85 c8 e4 ff ff 	mov    -0x1b38(%rbp),%rax
   12e1c:	0f b6 00             	movzbl (%rax),%eax
   12e1f:	0f be d0             	movsbl %al,%edx
   12e22:	48 8b 85 a0 e7 ff ff 	mov    -0x1860(%rbp),%rax
   12e29:	48 89 85 48 e9 ff ff 	mov    %rax,-0x16b8(%rbp)
   12e30:	48 8b 8d 48 e9 ff ff 	mov    -0x16b8(%rbp),%rcx
   12e37:	48 8b 85 88 e5 ff ff 	mov    -0x1a78(%rbp),%rax
   12e3e:	48 39 c1             	cmp    %rax,%rcx
   12e41:	0f 94 c0             	sete   %al
   12e44:	0f b6 c0             	movzbl %al,%eax
   12e47:	89 d6                	mov    %edx,%esi
   12e49:	89 c7                	mov    %eax,%edi
   12e4b:	e8 3d 2e ff ff       	callq  5c8d <safe_rshift_func_uint8_t_u_s>
   12e50:	0f b6 c0             	movzbl %al,%eax
   12e53:	89 85 90 ea ff ff    	mov    %eax,-0x1570(%rbp)
   12e59:	8b 85 90 ea ff ff    	mov    -0x1570(%rbp),%eax
   12e5f:	0f b6 c0             	movzbl %al,%eax
   12e62:	89 de                	mov    %ebx,%esi
   12e64:	89 c7                	mov    %eax,%edi
   12e66:	e8 e1 2d ff ff       	callq  5c4c <safe_lshift_func_uint8_t_u_u>
   12e6b:	89 c2                	mov    %eax,%edx
   12e6d:	48 8b 85 c8 e4 ff ff 	mov    -0x1b38(%rbp),%rax
   12e74:	88 10                	mov    %dl,(%rax)
   12e76:	48 c7 85 10 e6 ff ff 	movq   $0x0,-0x19f0(%rbp)
   12e7d:	00 00 00 00 
   12e81:	48 8d 85 50 e7 ff ff 	lea    -0x18b0(%rbp),%rax
   12e88:	48 83 c0 0c          	add    $0xc,%rax
   12e8c:	48 89 85 18 e6 ff ff 	mov    %rax,-0x19e8(%rbp)
   12e93:	48 8d 05 ce 68 00 00 	lea    0x68ce(%rip),%rax        # 19768 <g_263>
   12e9a:	48 89 85 20 e6 ff ff 	mov    %rax,-0x19e0(%rbp)
   12ea1:	48 8d 85 e0 e9 ff ff 	lea    -0x1620(%rbp),%rax
   12ea8:	48 05 90 00 00 00    	add    $0x90,%rax
   12eae:	48 89 85 d0 e7 ff ff 	mov    %rax,-0x1830(%rbp)
   12eb5:	48 c7 85 d8 e7 ff ff 	movq   $0x0,-0x1828(%rbp)
   12ebc:	00 00 00 00 
   12ec0:	48 c7 85 e0 e7 ff ff 	movq   $0x0,-0x1820(%rbp)
   12ec7:	00 00 00 00 
   12ecb:	48 8d 85 e0 e9 ff ff 	lea    -0x1620(%rbp),%rax
   12ed2:	48 05 90 00 00 00    	add    $0x90,%rax
   12ed8:	48 89 85 e8 e7 ff ff 	mov    %rax,-0x1818(%rbp)
   12edf:	48 c7 85 f0 e7 ff ff 	movq   $0x0,-0x1810(%rbp)
   12ee6:	00 00 00 00 
   12eea:	48 c7 85 f8 e7 ff ff 	movq   $0x0,-0x1808(%rbp)
   12ef1:	00 00 00 00 
   12ef5:	48 8d 85 e0 e9 ff ff 	lea    -0x1620(%rbp),%rax
   12efc:	48 05 90 00 00 00    	add    $0x90,%rax
   12f02:	48 89 85 00 e8 ff ff 	mov    %rax,-0x1800(%rbp)
   12f09:	48 c7 85 08 e8 ff ff 	movq   $0x0,-0x17f8(%rbp)
   12f10:	00 00 00 00 
   12f14:	48 c7 85 10 e8 ff ff 	movq   $0x0,-0x17f0(%rbp)
   12f1b:	00 00 00 00 
   12f1f:	c7 85 ec e4 ff ff 01 	movl   $0x1,-0x1b14(%rbp)
   12f26:	00 00 00 
   12f29:	48 c7 85 a8 e5 ff ff 	movq   $0x0,-0x1a58(%rbp)
   12f30:	00 00 00 00 
   12f34:	48 b8 00 f6 2f 5b c7 	movabs $0x165dd9c75b2ff600,%rax
   12f3b:	d9 5d 16 
   12f3e:	48 89 85 28 e6 ff ff 	mov    %rax,-0x19d8(%rbp)
   12f45:	48 8d 85 a0 ea ff ff 	lea    -0x1560(%rbp),%rax
   12f4c:	48 05 ac 00 00 00    	add    $0xac,%rax
   12f52:	48 89 85 30 e6 ff ff 	mov    %rax,-0x19d0(%rbp)
   12f59:	48 8b 05 f0 81 00 00 	mov    0x81f0(%rip),%rax        # 1b150 <g_82>
   12f60:	48 8d 95 c4 e4 ff ff 	lea    -0x1b3c(%rbp),%rdx
   12f67:	48 89 10             	mov    %rdx,(%rax)
   12f6a:	48 8b 85 80 e5 ff ff 	mov    -0x1a80(%rbp),%rax
   12f71:	48 83 e8 01          	sub    $0x1,%rax
   12f75:	48 89 85 80 e5 ff ff 	mov    %rax,-0x1a80(%rbp)
   12f7c:	66 c7 05 d9 67 00 00 	movw   $0x0,0x67d9(%rip)        # 1975e <g_234>
   12f83:	00 00 
   12f85:	e9 d5 06 00 00       	jmpq   1365f <func_48+0x3932>
   12f8a:	48 8d 85 a8 e5 ff ff 	lea    -0x1a58(%rbp),%rax
   12f91:	48 89 85 38 e6 ff ff 	mov    %rax,-0x19c8(%rbp)
   12f98:	48 8d 85 e0 eb ff ff 	lea    -0x1420(%rbp),%rax
   12f9f:	48 8d 15 9a 2e 00 00 	lea    0x2e9a(%rip),%rdx        # 15e40 <g_1978+0xdc0>
   12fa6:	b9 32 00 00 00       	mov    $0x32,%ecx
   12fab:	48 89 c7             	mov    %rax,%rdi
   12fae:	48 89 d6             	mov    %rdx,%rsi
   12fb1:	f3 48 a5             	rep movsq %ds:(%rsi),%es:(%rdi)
   12fb4:	48 c7 85 40 e6 ff ff 	movq   $0x0,-0x19c0(%rbp)
   12fbb:	00 00 00 00 
   12fbf:	48 c7 85 b0 e5 ff ff 	movq   $0x6,-0x1a50(%rbp)
   12fc6:	06 00 00 00 
   12fca:	48 8b 95 a8 e5 ff ff 	mov    -0x1a58(%rbp),%rdx
   12fd1:	48 8b 85 38 e6 ff ff 	mov    -0x19c8(%rbp),%rax
   12fd8:	48 89 10             	mov    %rdx,(%rax)
   12fdb:	48 8b 85 38 e6 ff ff 	mov    -0x19c8(%rbp),%rax
   12fe2:	48 8b 00             	mov    (%rax),%rax
   12fe5:	48 8d 95 70 e7 ff ff 	lea    -0x1890(%rbp),%rdx
   12fec:	48 83 c2 20          	add    $0x20,%rdx
   12ff0:	48 39 d0             	cmp    %rdx,%rax
   12ff3:	0f 84 5f 05 00 00    	je     13558 <func_48+0x382b>
   12ff9:	48 c7 85 48 e6 ff ff 	movq   $0x0,-0x19b8(%rbp)
   13000:	00 00 00 00 
   13004:	48 8d 05 8d 81 00 00 	lea    0x818d(%rip),%rax        # 1b198 <g_394>
   1300b:	48 89 85 50 e6 ff ff 	mov    %rax,-0x19b0(%rbp)
   13012:	48 8d 05 0f 60 00 00 	lea    0x600f(%rip),%rax        # 19028 <g_5>
   13019:	48 89 85 58 e6 ff ff 	mov    %rax,-0x19a8(%rbp)
   13020:	c7 85 0c e5 ff ff 52 	movl   $0xe627c252,-0x1af4(%rbp)
   13027:	c2 27 e6 
   1302a:	48 8d 85 80 e5 ff ff 	lea    -0x1a80(%rbp),%rax
   13031:	48 89 85 60 e6 ff ff 	mov    %rax,-0x19a0(%rbp)
   13038:	66 c7 85 e2 e4 ff ff 	movw   $0x9e82,-0x1b1e(%rbp)
   1303f:	82 9e 
   13041:	48 8d 05 10 62 00 00 	lea    0x6210(%rip),%rax        # 19258 <g_92+0x218>
   13048:	48 89 85 68 e6 ff ff 	mov    %rax,-0x1998(%rbp)
   1304f:	48 8b 15 42 81 00 00 	mov    0x8142(%rip),%rdx        # 1b198 <g_394>
   13056:	48 8b 85 50 e6 ff ff 	mov    -0x19b0(%rbp),%rax
   1305d:	48 89 10             	mov    %rdx,(%rax)
   13060:	8b 85 60 e7 ff ff    	mov    -0x18a0(%rbp),%eax
   13066:	85 c0                	test   %eax,%eax
   13068:	74 22                	je     1308c <func_48+0x335f>
   1306a:	c7 85 14 e5 ff ff e9 	movl   $0xf738cfe9,-0x1aec(%rbp)
   13071:	cf 38 f7 
   13074:	8b 85 14 e5 ff ff    	mov    -0x1aec(%rbp),%eax
   1307a:	89 05 d8 61 00 00    	mov    %eax,0x61d8(%rip)        # 19258 <g_92+0x218>
   13080:	48 8b 85 58 e6 ff ff 	mov    -0x19a8(%rbp),%rax
   13087:	e9 66 08 00 00       	jmpq   138f2 <func_48+0x3bc5>
   1308c:	48 c7 85 70 e6 ff ff 	movq   $0x0,-0x1990(%rbp)
   13093:	00 00 00 00 
   13097:	48 8d 05 e2 66 00 00 	lea    0x66e2(%rip),%rax        # 19780 <g_267>
   1309e:	48 89 85 78 e6 ff ff 	mov    %rax,-0x1988(%rbp)
   130a5:	48 8d 85 e8 e4 ff ff 	lea    -0x1b18(%rbp),%rax
   130ac:	48 89 85 80 e6 ff ff 	mov    %rax,-0x1980(%rbp)
   130b3:	48 8d 85 ec e4 ff ff 	lea    -0x1b14(%rbp),%rax
   130ba:	48 89 85 88 e6 ff ff 	mov    %rax,-0x1978(%rbp)
   130c1:	c7 85 10 e5 ff ff fa 	movl   $0xfffffffa,-0x1af0(%rbp)
   130c8:	ff ff ff 
   130cb:	48 8b 05 5e 5f 00 00 	mov    0x5f5e(%rip),%rax        # 19030 <g_66>
   130d2:	41 89 c4             	mov    %eax,%r12d
   130d5:	48 8b 05 8c 80 00 00 	mov    0x808c(%rip),%rax        # 1b168 <g_114>
   130dc:	48 8b 00             	mov    (%rax),%rax
   130df:	48 8b 85 c8 e4 ff ff 	mov    -0x1b38(%rbp),%rax
   130e6:	0f b6 00             	movzbl (%rax),%eax
   130e9:	0f be d8             	movsbl %al,%ebx
   130ec:	8b 05 ca 89 00 00    	mov    0x89ca(%rip),%eax        # 1babc <g_98+0x21c>
   130f2:	0f b6 c0             	movzbl %al,%eax
   130f5:	be 1e 00 00 00       	mov    $0x1e,%esi
   130fa:	89 c7                	mov    %eax,%edi
   130fc:	e8 92 2a ff ff       	callq  5b93 <safe_mul_func_uint8_t_u_u>
   13101:	0f be c0             	movsbl %al,%eax
   13104:	89 c7                	mov    %eax,%edi
   13106:	e8 b4 20 ff ff       	callq  51bf <safe_unary_minus_func_int8_t_s>
   1310b:	83 e0 93             	and    $0xffffff93,%eax
   1310e:	0f be c0             	movsbl %al,%eax
   13111:	89 de                	mov    %ebx,%esi
   13113:	89 c7                	mov    %eax,%edi
   13115:	e8 f8 20 ff ff       	callq  5212 <safe_mul_func_int8_t_s_s>
   1311a:	0f b7 05 8f 63 00 00 	movzwl 0x638f(%rip),%eax        # 194b0 <g_172+0x50>
   13121:	0f b7 d0             	movzwl %ax,%edx
   13124:	8b 85 c4 e4 ff ff    	mov    -0x1b3c(%rbp),%eax
   1312a:	f7 d0                	not    %eax
   1312c:	0f be c0             	movsbl %al,%eax
   1312f:	89 d6                	mov    %edx,%esi
   13131:	89 c7                	mov    %eax,%edi
   13133:	e8 34 22 ff ff       	callq  536c <safe_rshift_func_int8_t_s_u>
   13138:	b9 00 00 00 00       	mov    $0x0,%ecx
   1313d:	48 8b 85 80 e6 ff ff 	mov    -0x1980(%rbp),%rax
   13144:	8b 00                	mov    (%rax),%eax
   13146:	89 c2                	mov    %eax,%edx
   13148:	89 c8                	mov    %ecx,%eax
   1314a:	21 d0                	and    %edx,%eax
   1314c:	89 c2                	mov    %eax,%edx
   1314e:	48 8b 85 80 e6 ff ff 	mov    -0x1980(%rbp),%rax
   13155:	89 10                	mov    %edx,(%rax)
   13157:	48 8b 85 80 e6 ff ff 	mov    -0x1980(%rbp),%rax
   1315e:	8b 00                	mov    (%rax),%eax
   13160:	85 c0                	test   %eax,%eax
   13162:	75 0e                	jne    13172 <func_48+0x3445>
   13164:	48 8b 05 e5 7f 00 00 	mov    0x7fe5(%rip),%rax        # 1b150 <g_82>
   1316b:	48 8b 00             	mov    (%rax),%rax
   1316e:	8b 00                	mov    (%rax),%eax
   13170:	85 c0                	test   %eax,%eax
   13172:	48 8b 85 88 e6 ff ff 	mov    -0x1978(%rbp),%rax
   13179:	c7 00 6f 3d b0 4e    	movl   $0x4eb03d6f,(%rax)
   1317f:	44 89 e6             	mov    %r12d,%esi
   13182:	bf 00 00 00 00       	mov    $0x0,%edi
   13187:	e8 7a 2c ff ff       	callq  5e06 <safe_lshift_func_uint16_t_u_u>
   1318c:	48 8b 95 18 e6 ff ff 	mov    -0x19e8(%rbp),%rdx
   13193:	8b 12                	mov    (%rdx),%edx
   13195:	0f b7 c0             	movzwl %ax,%eax
   13198:	09 c2                	or     %eax,%edx
   1319a:	48 8b 85 18 e6 ff ff 	mov    -0x19e8(%rbp),%rax
   131a1:	89 10                	mov    %edx,(%rax)
   131a3:	48 8b 85 40 e7 ff ff 	mov    -0x18c0(%rbp),%rax
   131aa:	48 89 85 40 e7 ff ff 	mov    %rax,-0x18c0(%rbp)
   131b1:	48 8b 85 40 e7 ff ff 	mov    -0x18c0(%rbp),%rax
   131b8:	48 85 c0             	test   %rax,%rax
   131bb:	0f 95 c0             	setne  %al
   131be:	0f b6 c0             	movzbl %al,%eax
   131c1:	39 85 08 e5 ff ff    	cmp    %eax,-0x1af8(%rbp)
   131c7:	0f 96 c0             	setbe  %al
   131ca:	0f b6 d8             	movzbl %al,%ebx
   131cd:	48 8b 05 5c 5e 00 00 	mov    0x5e5c(%rip),%rax        # 19030 <g_66>
   131d4:	0f be d0             	movsbl %al,%edx
   131d7:	48 8b 85 c8 e4 ff ff 	mov    -0x1b38(%rbp),%rax
   131de:	0f b6 00             	movzbl (%rax),%eax
   131e1:	0f be c0             	movsbl %al,%eax
   131e4:	89 d6                	mov    %edx,%esi
   131e6:	89 c7                	mov    %eax,%edi
   131e8:	e8 25 20 ff ff       	callq  5212 <safe_mul_func_int8_t_s_s>
   131ed:	0f be c0             	movsbl %al,%eax
   131f0:	39 c3                	cmp    %eax,%ebx
   131f2:	0f 95 c0             	setne  %al
   131f5:	0f b6 c0             	movzbl %al,%eax
   131f8:	21 85 0c e5 ff ff    	and    %eax,-0x1af4(%rbp)
   131fe:	48 8b 05 4b 7f 00 00 	mov    0x7f4b(%rip),%rax        # 1b150 <g_82>
   13205:	48 8d 95 c4 e4 ff ff 	lea    -0x1b3c(%rbp),%rdx
   1320c:	48 89 10             	mov    %rdx,(%rax)
   1320f:	48 8d 85 c4 e4 ff ff 	lea    -0x1b3c(%rbp),%rax
   13216:	48 89 85 58 e6 ff ff 	mov    %rax,-0x19a8(%rbp)
   1321d:	8b 85 c4 e4 ff ff    	mov    -0x1b3c(%rbp),%eax
   13223:	0f bf d8             	movswl %ax,%ebx
   13226:	48 8b 85 18 e6 ff ff 	mov    -0x19e8(%rbp),%rax
   1322d:	8b 10                	mov    (%rax),%edx
   1322f:	48 83 bd e8 e5 ff ff 	cmpq   $0x0,-0x1a18(%rbp)
   13236:	00 
   13237:	0f 94 c0             	sete   %al
   1323a:	0f b6 c0             	movzbl %al,%eax
   1323d:	39 c2                	cmp    %eax,%edx
   1323f:	0f 85 8f 00 00 00    	jne    132d4 <func_48+0x35a7>
   13245:	8b 95 c4 e4 ff ff    	mov    -0x1b3c(%rbp),%edx
   1324b:	48 8b 05 3e 7f 00 00 	mov    0x7f3e(%rip),%rax        # 1b190 <g_395>
   13252:	48 8b 00             	mov    (%rax),%rax
   13255:	66 89 10             	mov    %dx,(%rax)
   13258:	8b 85 c4 e4 ff ff    	mov    -0x1b3c(%rbp),%eax
   1325e:	85 c0                	test   %eax,%eax
   13260:	75 50                	jne    132b2 <func_48+0x3585>
   13262:	b8 ff ff ff ff       	mov    $0xffffffff,%eax
   13267:	0f b7 c0             	movzwl %ax,%eax
   1326a:	be 01 00 00 00       	mov    $0x1,%esi
   1326f:	89 c7                	mov    %eax,%edi
   13271:	e8 d2 2b ff ff       	callq  5e48 <safe_rshift_func_uint16_t_u_s>
   13276:	0f b7 d0             	movzwl %ax,%edx
   13279:	8b 85 b8 ec ff ff    	mov    -0x1348(%rbp),%eax
   1327f:	21 d0                	and    %edx,%eax
   13281:	85 c0                	test   %eax,%eax
   13283:	75 0d                	jne    13292 <func_48+0x3565>
   13285:	48 8b 85 58 e6 ff ff 	mov    -0x19a8(%rbp),%rax
   1328c:	8b 00                	mov    (%rax),%eax
   1328e:	85 c0                	test   %eax,%eax
   13290:	74 07                	je     13299 <func_48+0x356c>
   13292:	ba 01 00 00 00       	mov    $0x1,%edx
   13297:	eb 05                	jmp    1329e <func_48+0x3571>
   13299:	ba 00 00 00 00       	mov    $0x0,%edx
   1329e:	8b 85 c4 e4 ff ff    	mov    -0x1b3c(%rbp),%eax
   132a4:	39 c2                	cmp    %eax,%edx
   132a6:	74 0b                	je     132b3 <func_48+0x3586>
   132a8:	0f b7 05 e1 64 00 00 	movzwl 0x64e1(%rip),%eax        # 19790 <g_299>
   132af:	66 85 c0             	test   %ax,%ax
   132b2:	90                   	nop
   132b3:	be 50 44 81 1b       	mov    $0x1b814450,%esi
   132b8:	bf 01 00 00 00       	mov    $0x1,%edi
   132bd:	e8 43 23 ff ff       	callq  5605 <safe_sub_func_int32_t_s_s>
   132c2:	98                   	cwtl   
   132c3:	be 08 00 00 00       	mov    $0x8,%esi
   132c8:	89 c7                	mov    %eax,%edi
   132ca:	e8 86 21 ff ff       	callq  5455 <safe_div_func_int16_t_s_s>
   132cf:	66 85 c0             	test   %ax,%ax
   132d2:	74 07                	je     132db <func_48+0x35ae>
   132d4:	b8 01 00 00 00       	mov    $0x1,%eax
   132d9:	eb 05                	jmp    132e0 <func_48+0x35b3>
   132db:	b8 00 00 00 00       	mov    $0x0,%eax
   132e0:	89 85 28 ea ff ff    	mov    %eax,-0x15d8(%rbp)
   132e6:	8b 85 28 ea ff ff    	mov    -0x15d8(%rbp),%eax
   132ec:	98                   	cwtl   
   132ed:	be 05 00 00 00       	mov    $0x5,%esi
   132f2:	89 c7                	mov    %eax,%edi
   132f4:	e8 99 21 ff ff       	callq  5492 <safe_lshift_func_int16_t_s_s>
   132f9:	98                   	cwtl   
   132fa:	89 de                	mov    %ebx,%esi
   132fc:	89 c7                	mov    %eax,%edi
   132fe:	e8 b0 20 ff ff       	callq  53b3 <safe_add_func_int16_t_s_s>
   13303:	66 3d d2 39          	cmp    $0x39d2,%ax
   13307:	0f 9f c0             	setg   %al
   1330a:	0f b6 c0             	movzbl %al,%eax
   1330d:	31 85 0c e5 ff ff    	xor    %eax,-0x1af4(%rbp)
   13313:	0f b6 05 42 64 00 00 	movzbl 0x6442(%rip),%eax        # 1975c <g_227>
   1331a:	84 c0                	test   %al,%al
   1331c:	74 05                	je     13323 <func_48+0x35f6>
   1331e:	e9 b0 ee ff ff       	jmpq   121d3 <func_48+0x24a6>
   13323:	48 8b 05 06 5d 00 00 	mov    0x5d06(%rip),%rax        # 19030 <g_66>
   1332a:	49 89 c7             	mov    %rax,%r15
   1332d:	b8 b0 bc b8 79       	mov    $0x79b8bcb0,%eax
   13332:	0f b6 d8             	movzbl %al,%ebx
   13335:	48 8b 85 b0 e5 ff ff 	mov    -0x1a50(%rbp),%rax
   1333c:	89 85 c0 e4 ff ff    	mov    %eax,-0x1b40(%rbp)
   13342:	0f b7 05 fd 62 00 00 	movzwl 0x62fd(%rip),%eax        # 19646 <g_224>
   13349:	44 0f b7 e0          	movzwl %ax,%r12d
   1334d:	48 8b 05 fc 7d 00 00 	mov    0x7dfc(%rip),%rax        # 1b150 <g_82>
   13354:	48 8b 00             	mov    (%rax),%rax
   13357:	8b 00                	mov    (%rax),%eax
   13359:	89 c2                	mov    %eax,%edx
   1335b:	0f b7 05 e6 62 00 00 	movzwl 0x62e6(%rip),%eax        # 19648 <g_225>
   13362:	98                   	cwtl   
   13363:	89 d6                	mov    %edx,%esi
   13365:	89 c7                	mov    %eax,%edi
   13367:	e8 91 2b ff ff       	callq  5efd <safe_mod_func_uint32_t_u_u>
   1336c:	89 c1                	mov    %eax,%ecx
   1336e:	48 8b 85 60 e6 ff ff 	mov    -0x19a0(%rbp),%rax
   13375:	48 8b 00             	mov    (%rax),%rax
   13378:	48 8d 50 01          	lea    0x1(%rax),%rdx
   1337c:	48 8b 85 60 e6 ff ff 	mov    -0x19a0(%rbp),%rax
   13383:	48 89 10             	mov    %rdx,(%rax)
   13386:	48 8b 85 60 e6 ff ff 	mov    -0x19a0(%rbp),%rax
   1338d:	48 8b 00             	mov    (%rax),%rax
   13390:	89 c2                	mov    %eax,%edx
   13392:	8b 85 c4 e4 ff ff    	mov    -0x1b3c(%rbp),%eax
   13398:	21 d0                	and    %edx,%eax
   1339a:	89 ce                	mov    %ecx,%esi
   1339c:	89 c7                	mov    %eax,%edi
   1339e:	e8 29 23 ff ff       	callq  56cc <safe_mod_func_int32_t_s_s>
   133a3:	0f b7 d0             	movzwl %ax,%edx
   133a6:	0f b7 05 e3 63 00 00 	movzwl 0x63e3(%rip),%eax        # 19790 <g_299>
   133ad:	8d 48 ff             	lea    -0x1(%rax),%ecx
   133b0:	66 89 0d d9 63 00 00 	mov    %cx,0x63d9(%rip)        # 19790 <g_299>
   133b7:	0f b7 c0             	movzwl %ax,%eax
   133ba:	89 d6                	mov    %edx,%esi
   133bc:	89 c7                	mov    %eax,%edi
   133be:	e8 99 29 ff ff       	callq  5d5c <safe_mod_func_uint16_t_u_u>
   133c3:	8b 85 c4 e4 ff ff    	mov    -0x1b3c(%rbp),%eax
   133c9:	4c 63 e8             	movslq %eax,%r13
   133cc:	48 8b 85 b0 e5 ff ff 	mov    -0x1a50(%rbp),%rax
   133d3:	48 85 c0             	test   %rax,%rax
   133d6:	0f 95 c0             	setne  %al
   133d9:	0f b6 d0             	movzbl %al,%edx
   133dc:	8b 85 c4 e4 ff ff    	mov    -0x1b3c(%rbp),%eax
   133e2:	09 d0                	or     %edx,%eax
   133e4:	4c 63 f0             	movslq %eax,%r14
   133e7:	8b 85 c4 e4 ff ff    	mov    -0x1b3c(%rbp),%eax
   133ed:	0f b7 c0             	movzwl %ax,%eax
   133f0:	be 0a 00 00 00       	mov    $0xa,%esi
   133f5:	89 c7                	mov    %eax,%edi
   133f7:	e8 0a 2a ff ff       	callq  5e06 <safe_lshift_func_uint16_t_u_u>
   133fc:	0f b7 c0             	movzwl %ax,%eax
   133ff:	4c 89 f6             	mov    %r14,%rsi
   13402:	48 89 c7             	mov    %rax,%rdi
   13405:	e8 76 2c ff ff       	callq  6080 <safe_mod_func_uint64_t_u_u>
   1340a:	4c 89 ee             	mov    %r13,%rsi
   1340d:	48 89 c7             	mov    %rax,%rdi
   13410:	e8 6b 2c ff ff       	callq  6080 <safe_mod_func_uint64_t_u_u>
   13415:	48 8d 85 b0 e5 ff ff 	lea    -0x1a50(%rbp),%rax
   1341c:	48 39 85 40 e6 ff ff 	cmp    %rax,-0x19c0(%rbp)
   13423:	48 8b 05 26 7d 00 00 	mov    0x7d26(%rip),%rax        # 1b150 <g_82>
   1342a:	48 8b 00             	mov    (%rax),%rax
   1342d:	8b 00                	mov    (%rax),%eax
   1342f:	89 c2                	mov    %eax,%edx
   13431:	8b 85 c4 e4 ff ff    	mov    -0x1b3c(%rbp),%eax
   13437:	09 c2                	or     %eax,%edx
   13439:	48 8b 85 c8 e4 ff ff 	mov    -0x1b38(%rbp),%rax
   13440:	88 10                	mov    %dl,(%rax)
   13442:	48 8b 85 c8 e4 ff ff 	mov    -0x1b38(%rbp),%rax
   13449:	0f b6 00             	movzbl (%rax),%eax
   1344c:	0f be d0             	movsbl %al,%edx
   1344f:	0f b7 85 e2 e4 ff ff 	movzwl -0x1b1e(%rbp),%eax
   13456:	39 c2                	cmp    %eax,%edx
   13458:	0f 94 c2             	sete   %dl
   1345b:	48 8b 05 36 7d 00 00 	mov    0x7d36(%rip),%rax        # 1b198 <g_394>
   13462:	48 8b 00             	mov    (%rax),%rax
   13465:	48 8b 00             	mov    (%rax),%rax
   13468:	0f b6 d2             	movzbl %dl,%edx
   1346b:	66 89 10             	mov    %dx,(%rax)
   1346e:	0f b7 00             	movzwl (%rax),%eax
   13471:	98                   	cwtl   
   13472:	89 85 28 ea ff ff    	mov    %eax,-0x15d8(%rbp)
   13478:	8b 95 28 ea ff ff    	mov    -0x15d8(%rbp),%edx
   1347e:	8b 85 e4 e4 ff ff    	mov    -0x1b1c(%rbp),%eax
   13484:	21 d0                	and    %edx,%eax
   13486:	89 85 e4 e4 ff ff    	mov    %eax,-0x1b1c(%rbp)
   1348c:	48 8b 85 88 e5 ff ff 	mov    -0x1a78(%rbp),%rax
   13493:	48 85 c0             	test   %rax,%rax
   13496:	0f 95 c0             	setne  %al
   13499:	0f b6 c0             	movzbl %al,%eax
   1349c:	be 0e 00 00 00       	mov    $0xe,%esi
   134a1:	89 c7                	mov    %eax,%edi
   134a3:	e8 d2 29 ff ff       	callq  5e7a <safe_rshift_func_uint16_t_u_u>
   134a8:	66 85 c0             	test   %ax,%ax
   134ab:	74 17                	je     134c4 <func_48+0x3797>
   134ad:	48 8b 05 9c 7c 00 00 	mov    0x7c9c(%rip),%rax        # 1b150 <g_82>
   134b4:	48 8b 00             	mov    (%rax),%rax
   134b7:	8b 00                	mov    (%rax),%eax
   134b9:	85 c0                	test   %eax,%eax
   134bb:	74 07                	je     134c4 <func_48+0x3797>
   134bd:	b8 01 00 00 00       	mov    $0x1,%eax
   134c2:	eb 05                	jmp    134c9 <func_48+0x379c>
   134c4:	b8 00 00 00 00       	mov    $0x0,%eax
   134c9:	0f b6 c0             	movzbl %al,%eax
   134cc:	be 90 00 00 00       	mov    $0x90,%esi
   134d1:	89 c7                	mov    %eax,%edi
   134d3:	e8 bb 26 ff ff       	callq  5b93 <safe_mul_func_uint8_t_u_u>
   134d8:	0f b6 c0             	movzbl %al,%eax
   134db:	44 89 e6             	mov    %r12d,%esi
   134de:	89 c7                	mov    %eax,%edi
   134e0:	e8 77 28 ff ff       	callq  5d5c <safe_mod_func_uint16_t_u_u>
   134e5:	0f b6 c0             	movzbl %al,%eax
   134e8:	89 c6                	mov    %eax,%esi
   134ea:	bf 01 00 00 00       	mov    $0x1,%edi
   134ef:	e8 66 26 ff ff       	callq  5b5a <safe_add_func_uint8_t_u_u>
   134f4:	0f b6 c0             	movzbl %al,%eax
   134f7:	8b b5 c0 e4 ff ff    	mov    -0x1b40(%rbp),%esi
   134fd:	89 c7                	mov    %eax,%edi
   134ff:	e8 b2 20 ff ff       	callq  55b6 <safe_add_func_int32_t_s_s>
   13504:	89 c7                	mov    %eax,%edi
   13506:	e8 9b 29 ff ff       	callq  5ea6 <safe_unary_minus_func_uint32_t_u>
   1350b:	89 c2                	mov    %eax,%edx
   1350d:	48 8b 85 68 e6 ff ff 	mov    -0x1998(%rbp),%rax
   13514:	0f b6 00             	movzbl (%rax),%eax
   13517:	31 c2                	xor    %eax,%edx
   13519:	48 8b 85 68 e6 ff ff 	mov    -0x1998(%rbp),%rax
   13520:	88 10                	mov    %dl,(%rax)
   13522:	48 8b 85 68 e6 ff ff 	mov    -0x1998(%rbp),%rax
   13529:	0f b6 00             	movzbl (%rax),%eax
   1352c:	0f b6 c0             	movzbl %al,%eax
   1352f:	89 de                	mov    %ebx,%esi
   13531:	89 c7                	mov    %eax,%edi
   13533:	e8 22 26 ff ff       	callq  5b5a <safe_add_func_uint8_t_u_u>
   13538:	0f b6 c0             	movzbl %al,%eax
   1353b:	4c 89 fe             	mov    %r15,%rsi
   1353e:	48 89 c7             	mov    %rax,%rdi
   13541:	e8 05 2b ff ff       	callq  604b <safe_sub_func_uint64_t_u_u>
   13546:	48 8b 85 58 e6 ff ff 	mov    -0x19a8(%rbp),%rax
   1354d:	c7 00 00 00 00 00    	movl   $0x0,(%rax)
   13553:	e9 d6 00 00 00       	jmpq   1362e <func_48+0x3901>
   13558:	c7 85 f8 e4 ff ff 34 	movl   $0xcdfb7334,-0x1b08(%rbp)
   1355f:	73 fb cd 
   13562:	48 c7 05 c3 5a 00 00 	movq   $0x1,0x5ac3(%rip)        # 19030 <g_66>
   13569:	01 00 00 00 
   1356d:	90                   	nop
   1356e:	48 8b 05 bb 5a 00 00 	mov    0x5abb(%rip),%rax        # 19030 <g_66>
   13575:	48 85 c0             	test   %rax,%rax
   13578:	78 30                	js     135aa <func_48+0x387d>
   1357a:	48 8b 15 af 5a 00 00 	mov    0x5aaf(%rip),%rdx        # 19030 <g_66>
   13581:	48 8b 05 c8 7b 00 00 	mov    0x7bc8(%rip),%rax        # 1b150 <g_82>
   13588:	48 8d 0c d5 00 00 00 	lea    0x0(,%rdx,8),%rcx
   1358f:	00 
   13590:	48 8d 15 a9 7b 00 00 	lea    0x7ba9(%rip),%rdx        # 1b140 <g_83>
   13597:	48 8b 14 11          	mov    (%rcx,%rdx,1),%rdx
   1359b:	48 89 10             	mov    %rdx,(%rax)
   1359e:	48 8d 05 83 5a 00 00 	lea    0x5a83(%rip),%rax        # 19028 <g_5>
   135a5:	e9 48 03 00 00       	jmpq   138f2 <func_48+0x3bc5>
   135aa:	48 8b 15 9f 7b 00 00 	mov    0x7b9f(%rip),%rdx        # 1b150 <g_82>
   135b1:	48 8b 05 98 7b 00 00 	mov    0x7b98(%rip),%rax        # 1b150 <g_82>
   135b8:	48 8b 12             	mov    (%rdx),%rdx
   135bb:	48 89 10             	mov    %rdx,(%rax)
   135be:	66 c7 05 81 60 00 00 	movw   $0x0,0x6081(%rip)        # 19648 <g_225>
   135c5:	00 00 
   135c7:	eb 58                	jmp    13621 <func_48+0x38f4>
   135c9:	48 8b 85 18 e6 ff ff 	mov    -0x19e8(%rbp),%rax
   135d0:	8b 10                	mov    (%rax),%edx
   135d2:	48 8b 85 18 e6 ff ff 	mov    -0x19e8(%rbp),%rax
   135d9:	89 10                	mov    %edx,(%rax)
   135db:	48 8b 05 7e 7b 00 00 	mov    0x7b7e(%rip),%rax        # 1b160 <g_115>
   135e2:	0f b7 00             	movzwl (%rax),%eax
   135e5:	98                   	cwtl   
   135e6:	be 00 00 00 00       	mov    $0x0,%esi
   135eb:	89 c7                	mov    %eax,%edi
   135ed:	e8 71 1f ff ff       	callq  5563 <safe_rshift_func_int16_t_s_u>
   135f2:	66 85 c0             	test   %ax,%ax
   135f5:	74 07                	je     135fe <func_48+0x38d1>
   135f7:	b8 01 00 00 00       	mov    $0x1,%eax
   135fc:	eb 05                	jmp    13603 <func_48+0x38d6>
   135fe:	b8 00 00 00 00       	mov    $0x0,%eax
   13603:	89 85 28 ea ff ff    	mov    %eax,-0x15d8(%rbp)
   13609:	83 ad f8 e4 ff ff 01 	subl   $0x1,-0x1b08(%rbp)
   13610:	0f b7 05 31 60 00 00 	movzwl 0x6031(%rip),%eax        # 19648 <g_225>
   13617:	83 e8 01             	sub    $0x1,%eax
   1361a:	66 89 05 27 60 00 00 	mov    %ax,0x6027(%rip)        # 19648 <g_225>
   13621:	0f b7 05 20 60 00 00 	movzwl 0x6020(%rip),%eax        # 19648 <g_225>
   13628:	66 83 f8 f8          	cmp    $0xfff8,%ax
   1362c:	7c 9b                	jl     135c9 <func_48+0x389c>
   1362e:	48 8b 05 1b 7b 00 00 	mov    0x7b1b(%rip),%rax        # 1b150 <g_82>
   13635:	48 8d 95 c4 e4 ff ff 	lea    -0x1b3c(%rbp),%rdx
   1363c:	48 89 10             	mov    %rdx,(%rax)
   1363f:	0f b7 05 18 61 00 00 	movzwl 0x6118(%rip),%eax        # 1975e <g_234>
   13646:	0f b6 c0             	movzbl %al,%eax
   13649:	be 05 00 00 00       	mov    $0x5,%esi
   1364e:	89 c7                	mov    %eax,%edi
   13650:	e8 05 25 ff ff       	callq  5b5a <safe_add_func_uint8_t_u_u>
   13655:	0f b6 c0             	movzbl %al,%eax
   13658:	66 89 05 ff 60 00 00 	mov    %ax,0x60ff(%rip)        # 1975e <g_234>
   1365f:	0f b7 05 f8 60 00 00 	movzwl 0x60f8(%rip),%eax        # 1975e <g_234>
   13666:	66 83 f8 3a          	cmp    $0x3a,%ax
   1366a:	0f 86 1a f9 ff ff    	jbe    12f8a <func_48+0x325d>
   13670:	8b 85 28 ea ff ff    	mov    -0x15d8(%rbp),%eax
   13676:	0d 9e e1 00 00       	or     $0xe19e,%eax
   1367b:	89 85 28 ea ff ff    	mov    %eax,-0x15d8(%rbp)
   13681:	8b 85 c4 e4 ff ff    	mov    -0x1b3c(%rbp),%eax
   13687:	0f bf d8             	movswl %ax,%ebx
   1368a:	be 02 00 00 00       	mov    $0x2,%esi
   1368f:	bf f8 ff ff ff       	mov    $0xfffffff8,%edi
   13694:	e8 d3 1c ff ff       	callq  536c <safe_rshift_func_int8_t_s_u>
   13699:	8b 95 74 ea ff ff    	mov    -0x158c(%rbp),%edx
   1369f:	0f be c0             	movsbl %al,%eax
   136a2:	09 d0                	or     %edx,%eax
   136a4:	89 85 74 ea ff ff    	mov    %eax,-0x158c(%rbp)
   136aa:	8b 85 74 ea ff ff    	mov    -0x158c(%rbp),%eax
   136b0:	89 c2                	mov    %eax,%edx
   136b2:	0f b6 05 7d 60 00 00 	movzbl 0x607d(%rip),%eax        # 19736 <g_226+0xd6>
   136b9:	0f b6 c0             	movzbl %al,%eax
   136bc:	89 d6                	mov    %edx,%esi
   136be:	89 c7                	mov    %eax,%edi
   136c0:	e8 87 25 ff ff       	callq  5c4c <safe_lshift_func_uint8_t_u_u>
   136c5:	c7 85 e4 e4 ff ff 00 	movl   $0x0,-0x1b1c(%rbp)
   136cc:	00 00 00 
   136cf:	8b 95 5c e7 ff ff    	mov    -0x18a4(%rbp),%edx
   136d5:	0f b6 05 80 60 00 00 	movzbl 0x6080(%rip),%eax        # 1975c <g_227>
   136dc:	0f b6 c0             	movzbl %al,%eax
   136df:	31 d0                	xor    %edx,%eax
   136e1:	89 85 5c e7 ff ff    	mov    %eax,-0x18a4(%rbp)
   136e7:	8b 95 5c e7 ff ff    	mov    -0x18a4(%rbp),%edx
   136ed:	0f b7 05 6a 60 00 00 	movzwl 0x606a(%rip),%eax        # 1975e <g_234>
   136f4:	0f b7 c0             	movzwl %ax,%eax
   136f7:	39 c2                	cmp    %eax,%edx
   136f9:	0f 9f c0             	setg   %al
   136fc:	0f b6 d0             	movzbl %al,%edx
   136ff:	0f b7 05 42 5f 00 00 	movzwl 0x5f42(%rip),%eax        # 19648 <g_225>
   13706:	98                   	cwtl   
   13707:	39 c2                	cmp    %eax,%edx
   13709:	0f 9d c0             	setge  %al
   1370c:	0f b6 d0             	movzbl %al,%edx
   1370f:	48 8b 85 30 e6 ff ff 	mov    -0x19d0(%rbp),%rax
   13716:	8b 00                	mov    (%rax),%eax
   13718:	09 c2                	or     %eax,%edx
   1371a:	48 8b 85 30 e6 ff ff 	mov    -0x19d0(%rbp),%rax
   13721:	89 10                	mov    %edx,(%rax)
   13723:	48 8b 85 30 e6 ff ff 	mov    -0x19d0(%rbp),%rax
   1372a:	8b 00                	mov    (%rax),%eax
   1372c:	8b 95 c4 e4 ff ff    	mov    -0x1b3c(%rbp),%edx
   13732:	89 c6                	mov    %eax,%esi
   13734:	89 d7                	mov    %edx,%edi
   13736:	e8 7d 27 ff ff       	callq  5eb8 <safe_add_func_uint32_t_u_u>
   1373b:	98                   	cwtl   
   1373c:	89 de                	mov    %ebx,%esi
   1373e:	89 c7                	mov    %eax,%edi
   13740:	e8 b0 1c ff ff       	callq  53f5 <safe_mul_func_int16_t_s_s>
   13745:	0f b7 05 14 60 00 00 	movzwl 0x6014(%rip),%eax        # 19760 <g_239>
   1374c:	66 85 c0             	test   %ax,%ax
   1374f:	0f 9f c0             	setg   %al
   13752:	0f b6 c0             	movzbl %al,%eax
   13755:	be 07 00 00 00       	mov    $0x7,%esi
   1375a:	89 c7                	mov    %eax,%edi
   1375c:	e8 2c 25 ff ff       	callq  5c8d <safe_rshift_func_uint8_t_u_s>
   13761:	0f b6 c0             	movzbl %al,%eax
   13764:	25 47 c9 00 00       	and    $0xc947,%eax
   13769:	be 01 00 00 00       	mov    $0x1,%esi
   1376e:	48 89 c7             	mov    %rax,%rdi
   13771:	e8 0a 29 ff ff       	callq  6080 <safe_mod_func_uint64_t_u_u>
   13776:	48 83 f8 5d          	cmp    $0x5d,%rax
   1377a:	0f 97 c0             	seta   %al
   1377d:	0f b6 c0             	movzbl %al,%eax
   13780:	89 85 4c e7 ff ff    	mov    %eax,-0x18b4(%rbp)
   13786:	48 8b 95 a0 e5 ff ff 	mov    -0x1a60(%rbp),%rdx
   1378d:	48 8b 85 f0 e5 ff ff 	mov    -0x1a10(%rbp),%rax
   13794:	48 89 10             	mov    %rdx,(%rax)
   13797:	48 8b 85 f0 e5 ff ff 	mov    -0x1a10(%rbp),%rax
   1379e:	48 8b 00             	mov    (%rax),%rax
   137a1:	48 39 85 b0 e4 ff ff 	cmp    %rax,-0x1b50(%rbp)
   137a8:	0f 95 c0             	setne  %al
   137ab:	44 0f b6 e0          	movzbl %al,%r12d
   137af:	8b 9d c4 e4 ff ff    	mov    -0x1b3c(%rbp),%ebx
   137b5:	44 0f b6 ad db e4 ff 	movzbl -0x1b25(%rbp),%r13d
   137bc:	ff 
   137bd:	48 83 bd f8 e5 ff ff 	cmpq   $0x0,-0x1a08(%rbp)
   137c4:	00 
   137c5:	0f 94 c0             	sete   %al
   137c8:	44 0f b6 f0          	movzbl %al,%r14d
   137cc:	48 8b 85 c8 e4 ff ff 	mov    -0x1b38(%rbp),%rax
   137d3:	44 0f b6 38          	movzbl (%rax),%r15d
   137d7:	8b 95 c4 e4 ff ff    	mov    -0x1b3c(%rbp),%edx
   137dd:	48 8d 85 de e4 ff ff 	lea    -0x1b22(%rbp),%rax
   137e4:	48 89 85 00 e6 ff ff 	mov    %rax,-0x1a00(%rbp)
   137eb:	48 8b 85 08 e6 ff ff 	mov    -0x19f8(%rbp),%rax
   137f2:	48 8b 8d 00 e6 ff ff 	mov    -0x1a00(%rbp),%rcx
   137f9:	48 89 08             	mov    %rcx,(%rax)
   137fc:	48 8b 85 08 e6 ff ff 	mov    -0x19f8(%rbp),%rax
   13803:	48 8b 00             	mov    (%rax),%rax
   13806:	48 8d 0d 51 5f 00 00 	lea    0x5f51(%rip),%rcx        # 1975e <g_234>
   1380d:	48 39 c8             	cmp    %rcx,%rax
   13810:	0f 95 c0             	setne  %al
   13813:	0f b6 c0             	movzbl %al,%eax
   13816:	89 d6                	mov    %edx,%esi
   13818:	89 c7                	mov    %eax,%edi
   1381a:	e8 e0 1e ff ff       	callq  56ff <safe_div_func_int32_t_s_s>
   1381f:	89 c2                	mov    %eax,%edx
   13821:	b8 ff ff ff ff       	mov    $0xffffffff,%eax
   13826:	21 d0                	and    %edx,%eax
   13828:	88 05 39 5e 00 00    	mov    %al,0x5e39(%rip)        # 19667 <g_226+0x7>
   1382e:	0f b6 05 32 5e 00 00 	movzbl 0x5e32(%rip),%eax        # 19667 <g_226+0x7>
   13835:	41 38 c7             	cmp    %al,%r15b
   13838:	0f 94 c0             	sete   %al
   1383b:	0f b6 c0             	movzbl %al,%eax
   1383e:	be 60 e7 00 00       	mov    $0xe760,%esi
   13843:	89 c7                	mov    %eax,%edi
   13845:	e8 12 25 ff ff       	callq  5d5c <safe_mod_func_uint16_t_u_u>
   1384a:	8b 85 c4 e4 ff ff    	mov    -0x1b3c(%rbp),%eax
   13850:	0f b6 c0             	movzbl %al,%eax
   13853:	be 05 00 00 00       	mov    $0x5,%esi
   13858:	89 c7                	mov    %eax,%edi
   1385a:	e8 ed 23 ff ff       	callq  5c4c <safe_lshift_func_uint8_t_u_u>
   1385f:	0f b6 c0             	movzbl %al,%eax
   13862:	ba 00 00 00 00       	mov    $0x0,%edx
   13867:	09 d0                	or     %edx,%eax
   13869:	44 31 f0             	xor    %r14d,%eax
   1386c:	41 39 c5             	cmp    %eax,%r13d
   1386f:	0f 9d c0             	setge  %al
   13872:	0f b6 c0             	movzbl %al,%eax
   13875:	ba 07 00 00 00       	mov    $0x7,%edx
   1387a:	39 d0                	cmp    %edx,%eax
   1387c:	0f 92 c0             	setb   %al
   1387f:	0f b6 c0             	movzbl %al,%eax
   13882:	be f8 ff 00 00       	mov    $0xfff8,%esi
   13887:	89 c7                	mov    %eax,%edi
   13889:	e8 00 25 ff ff       	callq  5d8e <safe_div_func_uint16_t_u_u>
   1388e:	0f b7 c0             	movzwl %ax,%eax
   13891:	89 de                	mov    %ebx,%esi
   13893:	89 c7                	mov    %eax,%edi
   13895:	e8 6b 1d ff ff       	callq  5605 <safe_sub_func_int32_t_s_s>
   1389a:	3d e1 a5 00 00       	cmp    $0xa5e1,%eax
   1389f:	0f 94 c0             	sete   %al
   138a2:	0f b6 c0             	movzbl %al,%eax
   138a5:	41 39 c4             	cmp    %eax,%r12d
   138a8:	0f 9f c0             	setg   %al
   138ab:	0f b6 c0             	movzbl %al,%eax
   138ae:	48 c7 c6 fc ff ff ff 	mov    $0xfffffffffffffffc,%rsi
   138b5:	48 89 c7             	mov    %rax,%rdi
   138b8:	e8 f7 20 ff ff       	callq  59b4 <safe_mod_func_int64_t_s_s>
   138bd:	48 85 c0             	test   %rax,%rax
   138c0:	74 18                	je     138da <func_48+0x3bad>
   138c2:	48 8b 85 58 e8 ff ff 	mov    -0x17a8(%rbp),%rax
   138c9:	48 85 c0             	test   %rax,%rax
   138cc:	0f 95 c0             	setne  %al
   138cf:	0f b6 c0             	movzbl %al,%eax
   138d2:	89 05 98 5e 00 00    	mov    %eax,0x5e98(%rip)        # 19770 <g_265>
   138d8:	eb 11                	jmp    138eb <func_48+0x3bbe>
   138da:	48 8b 85 80 e5 ff ff 	mov    -0x1a80(%rbp),%rax
   138e1:	48 85 c0             	test   %rax,%rax
   138e4:	74 05                	je     138eb <func_48+0x3bbe>
   138e6:	e9 03 f4 ff ff       	jmpq   12cee <func_48+0x2fc1>
   138eb:	48 8d 05 36 57 00 00 	lea    0x5736(%rip),%rax        # 19028 <g_5>
   138f2:	48 8b 5d c8          	mov    -0x38(%rbp),%rbx
   138f6:	64 48 33 1c 25 28 00 	xor    %fs:0x28,%rbx
   138fd:	00 00 
   138ff:	74 05                	je     13906 <func_48+0x3bd9>
   13901:	e8 6a 17 ff ff       	callq  5070 <__stack_chk_fail@plt>
   13906:	48 81 c4 28 1b 00 00 	add    $0x1b28,%rsp
   1390d:	5b                   	pop    %rbx
   1390e:	41 5c                	pop    %r12
   13910:	41 5d                	pop    %r13
   13912:	41 5e                	pop    %r14
   13914:	41 5f                	pop    %r15
   13916:	5d                   	pop    %rbp
   13917:	c3                   	retq   

0000000000013918 <main>:
   13918:	f3 0f 1e fa          	endbr64 
   1391c:	55                   	push   %rbp
   1391d:	48 89 e5             	mov    %rsp,%rbp
   13920:	48 83 ec 20          	sub    $0x20,%rsp
   13924:	89 7d ec             	mov    %edi,-0x14(%rbp)
   13927:	48 89 75 e0          	mov    %rsi,-0x20(%rbp)
   1392b:	c7 45 fc 00 00 00 00 	movl   $0x0,-0x4(%rbp)
   13932:	83 7d ec 02          	cmpl   $0x2,-0x14(%rbp)
   13936:	75 25                	jne    1395d <main+0x45>
   13938:	48 8b 45 e0          	mov    -0x20(%rbp),%rax
   1393c:	48 83 c0 08          	add    $0x8,%rax
   13940:	48 8b 00             	mov    (%rax),%rax
   13943:	48 8d 35 86 26 00 00 	lea    0x2686(%rip),%rsi        # 15fd0 <g_1978+0xf50>
   1394a:	48 89 c7             	mov    %rax,%rdi
   1394d:	e8 3e 17 ff ff       	callq  5090 <strcmp@plt>
   13952:	85 c0                	test   %eax,%eax
   13954:	75 07                	jne    1395d <main+0x45>
   13956:	c7 45 fc 01 00 00 00 	movl   $0x1,-0x4(%rbp)
   1395d:	e8 27 18 ff ff       	callq  5189 <platform_main_begin>
   13962:	e8 31 2c ff ff       	callq  6598 <crc32_gentab>
   13967:	e8 49 2e ff ff       	callq  67b5 <func_1>
   1396c:	8b 05 b2 56 00 00    	mov    0x56b2(%rip),%eax        # 19024 <g_4>
   13972:	48 98                	cltq   
   13974:	8b 55 fc             	mov    -0x4(%rbp),%edx
   13977:	48 8d 35 54 26 00 00 	lea    0x2654(%rip),%rsi        # 15fd2 <g_1978+0xf52>
   1397e:	48 89 c7             	mov    %rax,%rdi
   13981:	e8 6d 2d ff ff       	callq  66f3 <transparent_crc>
   13986:	8b 05 9c 56 00 00    	mov    0x569c(%rip),%eax        # 19028 <g_5>
   1398c:	48 98                	cltq   
   1398e:	8b 55 fc             	mov    -0x4(%rbp),%edx
   13991:	48 8d 35 3e 26 00 00 	lea    0x263e(%rip),%rsi        # 15fd6 <g_1978+0xf56>
   13998:	48 89 c7             	mov    %rax,%rdi
   1399b:	e8 53 2d ff ff       	callq  66f3 <transparent_crc>
   139a0:	0f b6 05 85 56 00 00 	movzbl 0x5685(%rip),%eax        # 1902c <g_54>
   139a7:	48 0f be c0          	movsbq %al,%rax
   139ab:	8b 55 fc             	mov    -0x4(%rbp),%edx
   139ae:	48 8d 35 25 26 00 00 	lea    0x2625(%rip),%rsi        # 15fda <g_1978+0xf5a>
   139b5:	48 89 c7             	mov    %rax,%rdi
   139b8:	e8 36 2d ff ff       	callq  66f3 <transparent_crc>
   139bd:	48 8b 05 6c 56 00 00 	mov    0x566c(%rip),%rax        # 19030 <g_66>
   139c4:	48 89 c1             	mov    %rax,%rcx
   139c7:	8b 45 fc             	mov    -0x4(%rbp),%eax
   139ca:	89 c2                	mov    %eax,%edx
   139cc:	48 8d 35 0c 26 00 00 	lea    0x260c(%rip),%rsi        # 15fdf <g_1978+0xf5f>
   139d3:	48 89 cf             	mov    %rcx,%rdi
   139d6:	e8 18 2d ff ff       	callq  66f3 <transparent_crc>
   139db:	0f b7 05 ae 7e 00 00 	movzwl 0x7eae(%rip),%eax        # 1b890 <g_67>
   139e2:	0f b7 c0             	movzwl %ax,%eax
   139e5:	8b 55 fc             	mov    -0x4(%rbp),%edx
   139e8:	48 8d 35 f5 25 00 00 	lea    0x25f5(%rip),%rsi        # 15fe4 <g_1978+0xf64>
   139ef:	48 89 c7             	mov    %rax,%rdi
   139f2:	e8 fc 2c ff ff       	callq  66f3 <transparent_crc>
   139f7:	b8 00 00 00 00       	mov    $0x0,%eax
   139fc:	48 98                	cltq   
   139fe:	8b 55 fc             	mov    -0x4(%rbp),%edx
   13a01:	48 8d 35 e1 25 00 00 	lea    0x25e1(%rip),%rsi        # 15fe9 <g_1978+0xf69>
   13a08:	48 89 c7             	mov    %rax,%rdi
   13a0b:	e8 e3 2c ff ff       	callq  66f3 <transparent_crc>
   13a10:	b8 b0 bc b8 79       	mov    $0x79b8bcb0,%eax
   13a15:	48 98                	cltq   
   13a17:	8b 55 fc             	mov    -0x4(%rbp),%edx
   13a1a:	48 8d 35 cd 25 00 00 	lea    0x25cd(%rip),%rsi        # 15fee <g_1978+0xf6e>
   13a21:	48 89 c7             	mov    %rax,%rdi
   13a24:	e8 ca 2c ff ff       	callq  66f3 <transparent_crc>
   13a29:	0f b7 05 08 56 00 00 	movzwl 0x5608(%rip),%eax        # 19038 <g_90>
   13a30:	48 0f bf c0          	movswq %ax,%rax
   13a34:	8b 55 fc             	mov    -0x4(%rbp),%edx
   13a37:	48 8d 35 b5 25 00 00 	lea    0x25b5(%rip),%rsi        # 15ff3 <g_1978+0xf73>
   13a3e:	48 89 c7             	mov    %rax,%rdi
   13a41:	e8 ad 2c ff ff       	callq  66f3 <transparent_crc>
   13a46:	c7 45 f0 00 00 00 00 	movl   $0x0,-0x10(%rbp)
   13a4d:	e9 e6 00 00 00       	jmpq   13b38 <main+0x220>
   13a52:	c7 45 f4 00 00 00 00 	movl   $0x0,-0xc(%rbp)
   13a59:	e9 cc 00 00 00       	jmpq   13b2a <main+0x212>
   13a5e:	c7 45 f8 00 00 00 00 	movl   $0x0,-0x8(%rbp)
   13a65:	e9 b2 00 00 00       	jmpq   13b1c <main+0x204>
   13a6a:	8b 45 f8             	mov    -0x8(%rbp),%eax
   13a6d:	48 98                	cltq   
   13a6f:	8b 55 f0             	mov    -0x10(%rbp),%edx
   13a72:	48 63 ca             	movslq %edx,%rcx
   13a75:	8b 55 f4             	mov    -0xc(%rbp),%edx
   13a78:	48 63 d2             	movslq %edx,%rdx
   13a7b:	48 01 c9             	add    %rcx,%rcx
   13a7e:	48 01 ca             	add    %rcx,%rdx
   13a81:	48 c1 e2 03          	shl    $0x3,%rdx
   13a85:	48 01 d0             	add    %rdx,%rax
   13a88:	48 8d 14 c5 00 00 00 	lea    0x0(,%rax,8),%rdx
   13a8f:	00 
   13a90:	48 8d 05 a9 55 00 00 	lea    0x55a9(%rip),%rax        # 19040 <g_92>
   13a97:	0f b6 04 02          	movzbl (%rdx,%rax,1),%eax
   13a9b:	0f b6 c0             	movzbl %al,%eax
   13a9e:	8b 55 fc             	mov    -0x4(%rbp),%edx
   13aa1:	48 8d 35 50 25 00 00 	lea    0x2550(%rip),%rsi        # 15ff8 <g_1978+0xf78>
   13aa8:	48 89 c7             	mov    %rax,%rdi
   13aab:	e8 43 2c ff ff       	callq  66f3 <transparent_crc>
   13ab0:	8b 45 f8             	mov    -0x8(%rbp),%eax
   13ab3:	48 98                	cltq   
   13ab5:	8b 55 f0             	mov    -0x10(%rbp),%edx
   13ab8:	48 63 ca             	movslq %edx,%rcx
   13abb:	8b 55 f4             	mov    -0xc(%rbp),%edx
   13abe:	48 63 d2             	movslq %edx,%rdx
   13ac1:	48 01 c9             	add    %rcx,%rcx
   13ac4:	48 01 ca             	add    %rcx,%rdx
   13ac7:	48 c1 e2 03          	shl    $0x3,%rdx
   13acb:	48 01 d0             	add    %rdx,%rax
   13ace:	48 8d 14 c5 00 00 00 	lea    0x0(,%rax,8),%rdx
   13ad5:	00 
   13ad6:	48 8d 05 63 55 00 00 	lea    0x5563(%rip),%rax        # 19040 <g_92>
   13add:	0f b6 04 02          	movzbl (%rdx,%rax,1),%eax
   13ae1:	0f b6 c0             	movzbl %al,%eax
   13ae4:	8b 55 fc             	mov    -0x4(%rbp),%edx
   13ae7:	48 8d 35 1b 25 00 00 	lea    0x251b(%rip),%rsi        # 16009 <g_1978+0xf89>
   13aee:	48 89 c7             	mov    %rax,%rdi
   13af1:	e8 fd 2b ff ff       	callq  66f3 <transparent_crc>
   13af6:	83 7d fc 00          	cmpl   $0x0,-0x4(%rbp)
   13afa:	74 1c                	je     13b18 <main+0x200>
   13afc:	8b 4d f8             	mov    -0x8(%rbp),%ecx
   13aff:	8b 55 f4             	mov    -0xc(%rbp),%edx
   13b02:	8b 45 f0             	mov    -0x10(%rbp),%eax
   13b05:	89 c6                	mov    %eax,%esi
   13b07:	48 8d 3d 0c 25 00 00 	lea    0x250c(%rip),%rdi        # 1601a <g_1978+0xf9a>
   13b0e:	b8 00 00 00 00       	mov    $0x0,%eax
   13b13:	e8 68 15 ff ff       	callq  5080 <printf@plt>
   13b18:	83 45 f8 01          	addl   $0x1,-0x8(%rbp)
   13b1c:	83 7d f8 07          	cmpl   $0x7,-0x8(%rbp)
   13b20:	0f 8e 44 ff ff ff    	jle    13a6a <main+0x152>
   13b26:	83 45 f4 01          	addl   $0x1,-0xc(%rbp)
   13b2a:	83 7d f4 01          	cmpl   $0x1,-0xc(%rbp)
   13b2e:	0f 8e 2a ff ff ff    	jle    13a5e <main+0x146>
   13b34:	83 45 f0 01          	addl   $0x1,-0x10(%rbp)
   13b38:	83 7d f0 07          	cmpl   $0x7,-0x10(%rbp)
   13b3c:	0f 8e 10 ff ff ff    	jle    13a52 <main+0x13a>
   13b42:	c7 45 f0 00 00 00 00 	movl   $0x0,-0x10(%rbp)
   13b49:	e9 a1 00 00 00       	jmpq   13bef <main+0x2d7>
   13b4e:	c7 45 f4 00 00 00 00 	movl   $0x0,-0xc(%rbp)
   13b55:	e9 87 00 00 00       	jmpq   13be1 <main+0x2c9>
   13b5a:	c7 45 f8 00 00 00 00 	movl   $0x0,-0x8(%rbp)
   13b61:	eb 74                	jmp    13bd7 <main+0x2bf>
   13b63:	8b 45 f8             	mov    -0x8(%rbp),%eax
   13b66:	48 63 c8             	movslq %eax,%rcx
   13b69:	8b 45 f0             	mov    -0x10(%rbp),%eax
   13b6c:	48 63 d0             	movslq %eax,%rdx
   13b6f:	8b 45 f4             	mov    -0xc(%rbp),%eax
   13b72:	48 63 f0             	movslq %eax,%rsi
   13b75:	48 89 d0             	mov    %rdx,%rax
   13b78:	48 c1 e0 03          	shl    $0x3,%rax
   13b7c:	48 29 d0             	sub    %rdx,%rax
   13b7f:	48 01 f0             	add    %rsi,%rax
   13b82:	48 c1 e0 02          	shl    $0x2,%rax
   13b86:	48 01 c8             	add    %rcx,%rax
   13b89:	48 8d 14 85 00 00 00 	lea    0x0(,%rax,4),%rdx
   13b90:	00 
   13b91:	48 8d 05 08 7d 00 00 	lea    0x7d08(%rip),%rax        # 1b8a0 <g_98>
   13b98:	8b 04 02             	mov    (%rdx,%rax,1),%eax
   13b9b:	89 c1                	mov    %eax,%ecx
   13b9d:	8b 45 fc             	mov    -0x4(%rbp),%eax
   13ba0:	89 c2                	mov    %eax,%edx
   13ba2:	48 8d 35 87 24 00 00 	lea    0x2487(%rip),%rsi        # 16030 <g_1978+0xfb0>
   13ba9:	48 89 cf             	mov    %rcx,%rdi
   13bac:	e8 42 2b ff ff       	callq  66f3 <transparent_crc>
   13bb1:	83 7d fc 00          	cmpl   $0x0,-0x4(%rbp)
   13bb5:	74 1c                	je     13bd3 <main+0x2bb>
   13bb7:	8b 4d f8             	mov    -0x8(%rbp),%ecx
   13bba:	8b 55 f4             	mov    -0xc(%rbp),%edx
   13bbd:	8b 45 f0             	mov    -0x10(%rbp),%eax
   13bc0:	89 c6                	mov    %eax,%esi
   13bc2:	48 8d 3d 51 24 00 00 	lea    0x2451(%rip),%rdi        # 1601a <g_1978+0xf9a>
   13bc9:	b8 00 00 00 00       	mov    $0x0,%eax
   13bce:	e8 ad 14 ff ff       	callq  5080 <printf@plt>
   13bd3:	83 45 f8 01          	addl   $0x1,-0x8(%rbp)
   13bd7:	83 7d f8 03          	cmpl   $0x3,-0x8(%rbp)
   13bdb:	7e 86                	jle    13b63 <main+0x24b>
   13bdd:	83 45 f4 01          	addl   $0x1,-0xc(%rbp)
   13be1:	83 7d f4 06          	cmpl   $0x6,-0xc(%rbp)
   13be5:	0f 8e 6f ff ff ff    	jle    13b5a <main+0x242>
   13beb:	83 45 f0 01          	addl   $0x1,-0x10(%rbp)
   13bef:	83 7d f0 08          	cmpl   $0x8,-0x10(%rbp)
   13bf3:	0f 8e 55 ff ff ff    	jle    13b4e <main+0x236>
   13bf9:	48 8b 05 40 58 00 00 	mov    0x5840(%rip),%rax        # 19440 <g_137>
   13c00:	8b 55 fc             	mov    -0x4(%rbp),%edx
   13c03:	48 8d 35 34 24 00 00 	lea    0x2434(%rip),%rsi        # 1603e <g_1978+0xfbe>
   13c0a:	48 89 c7             	mov    %rax,%rdi
   13c0d:	e8 e1 2a ff ff       	callq  66f3 <transparent_crc>
   13c12:	48 8b 05 2f 58 00 00 	mov    0x582f(%rip),%rax        # 19448 <g_140>
   13c19:	8b 55 fc             	mov    -0x4(%rbp),%edx
   13c1c:	48 8d 35 21 24 00 00 	lea    0x2421(%rip),%rsi        # 16044 <g_1978+0xfc4>
   13c23:	48 89 c7             	mov    %rax,%rdi
   13c26:	e8 c8 2a ff ff       	callq  66f3 <transparent_crc>
   13c2b:	8b 05 1f 58 00 00    	mov    0x581f(%rip),%eax        # 19450 <g_142>
   13c31:	48 98                	cltq   
   13c33:	8b 55 fc             	mov    -0x4(%rbp),%edx
   13c36:	48 8d 35 0d 24 00 00 	lea    0x240d(%rip),%rsi        # 1604a <g_1978+0xfca>
   13c3d:	48 89 c7             	mov    %rax,%rdi
   13c40:	e8 ae 2a ff ff       	callq  66f3 <transparent_crc>
   13c45:	0f b6 05 08 58 00 00 	movzbl 0x5808(%rip),%eax        # 19454 <g_143>
   13c4c:	0f b6 c0             	movzbl %al,%eax
   13c4f:	8b 55 fc             	mov    -0x4(%rbp),%edx
   13c52:	48 8d 35 f7 23 00 00 	lea    0x23f7(%rip),%rsi        # 16050 <g_1978+0xfd0>
   13c59:	48 89 c7             	mov    %rax,%rdi
   13c5c:	e8 92 2a ff ff       	callq  66f3 <transparent_crc>
   13c61:	c7 45 f0 00 00 00 00 	movl   $0x0,-0x10(%rbp)
   13c68:	e9 b0 00 00 00       	jmpq   13d1d <main+0x405>
   13c6d:	c7 45 f4 00 00 00 00 	movl   $0x0,-0xc(%rbp)
   13c74:	e9 96 00 00 00       	jmpq   13d0f <main+0x3f7>
   13c79:	c7 45 f8 00 00 00 00 	movl   $0x0,-0x8(%rbp)
   13c80:	eb 7f                	jmp    13d01 <main+0x3e9>
   13c82:	8b 45 f8             	mov    -0x8(%rbp),%eax
   13c85:	48 63 f0             	movslq %eax,%rsi
   13c88:	8b 45 f0             	mov    -0x10(%rbp),%eax
   13c8b:	48 63 d0             	movslq %eax,%rdx
   13c8e:	8b 45 f4             	mov    -0xc(%rbp),%eax
   13c91:	48 63 c8             	movslq %eax,%rcx
   13c94:	48 89 d0             	mov    %rdx,%rax
   13c97:	48 01 c0             	add    %rax,%rax
   13c9a:	48 01 d0             	add    %rdx,%rax
   13c9d:	48 8d 14 c5 00 00 00 	lea    0x0(,%rax,8),%rdx
   13ca4:	00 
   13ca5:	48 01 d0             	add    %rdx,%rax
   13ca8:	48 89 ca             	mov    %rcx,%rdx
   13cab:	48 01 d2             	add    %rdx,%rdx
   13cae:	48 01 ca             	add    %rcx,%rdx
   13cb1:	48 01 d0             	add    %rdx,%rax
   13cb4:	48 01 f0             	add    %rsi,%rax
   13cb7:	48 8d 14 00          	lea    (%rax,%rax,1),%rdx
   13cbb:	48 8d 05 9e 57 00 00 	lea    0x579e(%rip),%rax        # 19460 <g_172>
   13cc2:	0f b7 04 02          	movzwl (%rdx,%rax,1),%eax
   13cc6:	0f b7 c0             	movzwl %ax,%eax
   13cc9:	8b 55 fc             	mov    -0x4(%rbp),%edx
   13ccc:	48 8d 35 83 23 00 00 	lea    0x2383(%rip),%rsi        # 16056 <g_1978+0xfd6>
   13cd3:	48 89 c7             	mov    %rax,%rdi
   13cd6:	e8 18 2a ff ff       	callq  66f3 <transparent_crc>
   13cdb:	83 7d fc 00          	cmpl   $0x0,-0x4(%rbp)
   13cdf:	74 1c                	je     13cfd <main+0x3e5>
   13ce1:	8b 4d f8             	mov    -0x8(%rbp),%ecx
   13ce4:	8b 55 f4             	mov    -0xc(%rbp),%edx
   13ce7:	8b 45 f0             	mov    -0x10(%rbp),%eax
   13cea:	89 c6                	mov    %eax,%esi
   13cec:	48 8d 3d 27 23 00 00 	lea    0x2327(%rip),%rdi        # 1601a <g_1978+0xf9a>
   13cf3:	b8 00 00 00 00       	mov    $0x0,%eax
   13cf8:	e8 83 13 ff ff       	callq  5080 <printf@plt>
   13cfd:	83 45 f8 01          	addl   $0x1,-0x8(%rbp)
   13d01:	83 7d f8 02          	cmpl   $0x2,-0x8(%rbp)
   13d05:	0f 8e 77 ff ff ff    	jle    13c82 <main+0x36a>
   13d0b:	83 45 f4 01          	addl   $0x1,-0xc(%rbp)
   13d0f:	83 7d f4 08          	cmpl   $0x8,-0xc(%rbp)
   13d13:	0f 8e 60 ff ff ff    	jle    13c79 <main+0x361>
   13d19:	83 45 f0 01          	addl   $0x1,-0x10(%rbp)
   13d1d:	83 7d f0 08          	cmpl   $0x8,-0x10(%rbp)
   13d21:	0f 8e 46 ff ff ff    	jle    13c6d <main+0x355>
   13d27:	0f b6 05 32 13 00 00 	movzbl 0x1332(%rip),%eax        # 15060 <g_202>
   13d2e:	0f b6 c0             	movzbl %al,%eax
   13d31:	8b 55 fc             	mov    -0x4(%rbp),%edx
   13d34:	48 8d 35 2a 23 00 00 	lea    0x232a(%rip),%rsi        # 16065 <g_1978+0xfe5>
   13d3b:	48 89 c7             	mov    %rax,%rdi
   13d3e:	e8 b0 29 ff ff       	callq  66f3 <transparent_crc>
   13d43:	b8 ff ff ff ff       	mov    $0xffffffff,%eax
   13d48:	0f b6 c0             	movzbl %al,%eax
   13d4b:	8b 55 fc             	mov    -0x4(%rbp),%edx
   13d4e:	48 8d 35 19 23 00 00 	lea    0x2319(%rip),%rsi        # 1606e <g_1978+0xfee>
   13d55:	48 89 c7             	mov    %rax,%rdi
   13d58:	e8 96 29 ff ff       	callq  66f3 <transparent_crc>
   13d5d:	0f b7 05 e2 58 00 00 	movzwl 0x58e2(%rip),%eax        # 19646 <g_224>
   13d64:	48 0f bf c0          	movswq %ax,%rax
   13d68:	8b 55 fc             	mov    -0x4(%rbp),%edx
   13d6b:	48 8d 35 05 23 00 00 	lea    0x2305(%rip),%rsi        # 16077 <g_1978+0xff7>
   13d72:	48 89 c7             	mov    %rax,%rdi
   13d75:	e8 79 29 ff ff       	callq  66f3 <transparent_crc>
   13d7a:	0f b7 05 c7 58 00 00 	movzwl 0x58c7(%rip),%eax        # 19648 <g_225>
   13d81:	48 0f bf c0          	movswq %ax,%rax
   13d85:	8b 55 fc             	mov    -0x4(%rbp),%edx
   13d88:	48 8d 35 ee 22 00 00 	lea    0x22ee(%rip),%rsi        # 1607d <g_1978+0xffd>
   13d8f:	48 89 c7             	mov    %rax,%rdi
   13d92:	e8 5c 29 ff ff       	callq  66f3 <transparent_crc>
   13d97:	c7 45 f0 00 00 00 00 	movl   $0x0,-0x10(%rbp)
   13d9e:	e9 a2 00 00 00       	jmpq   13e45 <main+0x52d>
   13da3:	c7 45 f4 00 00 00 00 	movl   $0x0,-0xc(%rbp)
   13daa:	e9 88 00 00 00       	jmpq   13e37 <main+0x51f>
   13daf:	c7 45 f8 00 00 00 00 	movl   $0x0,-0x8(%rbp)
   13db6:	eb 75                	jmp    13e2d <main+0x515>
   13db8:	8b 45 f8             	mov    -0x8(%rbp),%eax
   13dbb:	48 63 f0             	movslq %eax,%rsi
   13dbe:	8b 45 f0             	mov    -0x10(%rbp),%eax
   13dc1:	48 98                	cltq   
   13dc3:	8b 55 f4             	mov    -0xc(%rbp),%edx
   13dc6:	48 63 ca             	movslq %edx,%rcx
   13dc9:	48 89 c2             	mov    %rax,%rdx
   13dcc:	48 c1 e2 06          	shl    $0x6,%rdx
   13dd0:	48 29 c2             	sub    %rax,%rdx
   13dd3:	48 89 c8             	mov    %rcx,%rax
   13dd6:	48 c1 e0 03          	shl    $0x3,%rax
   13dda:	48 29 c8             	sub    %rcx,%rax
   13ddd:	48 01 d0             	add    %rdx,%rax
   13de0:	48 8d 14 30          	lea    (%rax,%rsi,1),%rdx
   13de4:	48 8d 05 75 58 00 00 	lea    0x5875(%rip),%rax        # 19660 <g_226>
   13deb:	48 01 d0             	add    %rdx,%rax
   13dee:	0f b6 00             	movzbl (%rax),%eax
   13df1:	48 0f be c0          	movsbq %al,%rax
   13df5:	8b 55 fc             	mov    -0x4(%rbp),%edx
   13df8:	48 8d 35 84 22 00 00 	lea    0x2284(%rip),%rsi        # 16083 <g_1978+0x1003>
   13dff:	48 89 c7             	mov    %rax,%rdi
   13e02:	e8 ec 28 ff ff       	callq  66f3 <transparent_crc>
   13e07:	83 7d fc 00          	cmpl   $0x0,-0x4(%rbp)
   13e0b:	74 1c                	je     13e29 <main+0x511>
   13e0d:	8b 4d f8             	mov    -0x8(%rbp),%ecx
   13e10:	8b 55 f4             	mov    -0xc(%rbp),%edx
   13e13:	8b 45 f0             	mov    -0x10(%rbp),%eax
   13e16:	89 c6                	mov    %eax,%esi
   13e18:	48 8d 3d fb 21 00 00 	lea    0x21fb(%rip),%rdi        # 1601a <g_1978+0xf9a>
   13e1f:	b8 00 00 00 00       	mov    $0x0,%eax
   13e24:	e8 57 12 ff ff       	callq  5080 <printf@plt>
   13e29:	83 45 f8 01          	addl   $0x1,-0x8(%rbp)
   13e2d:	83 7d f8 06          	cmpl   $0x6,-0x8(%rbp)
   13e31:	7e 85                	jle    13db8 <main+0x4a0>
   13e33:	83 45 f4 01          	addl   $0x1,-0xc(%rbp)
   13e37:	83 7d f4 08          	cmpl   $0x8,-0xc(%rbp)
   13e3b:	0f 8e 6e ff ff ff    	jle    13daf <main+0x497>
   13e41:	83 45 f0 01          	addl   $0x1,-0x10(%rbp)
   13e45:	83 7d f0 03          	cmpl   $0x3,-0x10(%rbp)
   13e49:	0f 8e 54 ff ff ff    	jle    13da3 <main+0x48b>
   13e4f:	0f b6 05 06 59 00 00 	movzbl 0x5906(%rip),%eax        # 1975c <g_227>
   13e56:	0f b6 c0             	movzbl %al,%eax
   13e59:	8b 55 fc             	mov    -0x4(%rbp),%edx
   13e5c:	48 8d 35 2f 22 00 00 	lea    0x222f(%rip),%rsi        # 16092 <g_1978+0x1012>
   13e63:	48 89 c7             	mov    %rax,%rdi
   13e66:	e8 88 28 ff ff       	callq  66f3 <transparent_crc>
   13e6b:	0f b7 05 ec 58 00 00 	movzwl 0x58ec(%rip),%eax        # 1975e <g_234>
   13e72:	0f b7 c0             	movzwl %ax,%eax
   13e75:	8b 55 fc             	mov    -0x4(%rbp),%edx
   13e78:	48 8d 35 19 22 00 00 	lea    0x2219(%rip),%rsi        # 16098 <g_1978+0x1018>
   13e7f:	48 89 c7             	mov    %rax,%rdi
   13e82:	e8 6c 28 ff ff       	callq  66f3 <transparent_crc>
   13e87:	0f b7 05 d2 58 00 00 	movzwl 0x58d2(%rip),%eax        # 19760 <g_239>
   13e8e:	48 0f bf c0          	movswq %ax,%rax
   13e92:	8b 55 fc             	mov    -0x4(%rbp),%edx
   13e95:	48 8d 35 02 22 00 00 	lea    0x2202(%rip),%rsi        # 1609e <g_1978+0x101e>
   13e9c:	48 89 c7             	mov    %rax,%rdi
   13e9f:	e8 4f 28 ff ff       	callq  66f3 <transparent_crc>
   13ea4:	0f b7 05 b7 58 00 00 	movzwl 0x58b7(%rip),%eax        # 19762 <g_240>
   13eab:	48 0f bf c0          	movswq %ax,%rax
   13eaf:	8b 55 fc             	mov    -0x4(%rbp),%edx
   13eb2:	48 8d 35 eb 21 00 00 	lea    0x21eb(%rip),%rsi        # 160a4 <g_1978+0x1024>
   13eb9:	48 89 c7             	mov    %rax,%rdi
   13ebc:	e8 32 28 ff ff       	callq  66f3 <transparent_crc>
   13ec1:	0f b6 05 a0 58 00 00 	movzbl 0x58a0(%rip),%eax        # 19768 <g_263>
   13ec8:	0f b6 c0             	movzbl %al,%eax
   13ecb:	8b 55 fc             	mov    -0x4(%rbp),%edx
   13ece:	48 8d 35 d5 21 00 00 	lea    0x21d5(%rip),%rsi        # 160aa <g_1978+0x102a>
   13ed5:	48 89 c7             	mov    %rax,%rdi
   13ed8:	e8 16 28 ff ff       	callq  66f3 <transparent_crc>
   13edd:	0f b6 05 84 58 00 00 	movzbl 0x5884(%rip),%eax        # 19768 <g_263>
   13ee4:	0f b6 c0             	movzbl %al,%eax
   13ee7:	8b 55 fc             	mov    -0x4(%rbp),%edx
   13eea:	48 8d 35 c2 21 00 00 	lea    0x21c2(%rip),%rsi        # 160b3 <g_1978+0x1033>
   13ef1:	48 89 c7             	mov    %rax,%rdi
   13ef4:	e8 fa 27 ff ff       	callq  66f3 <transparent_crc>
   13ef9:	0f b6 05 70 58 00 00 	movzbl 0x5870(%rip),%eax        # 19770 <g_265>
   13f00:	0f b6 c0             	movzbl %al,%eax
   13f03:	8b 55 fc             	mov    -0x4(%rbp),%edx
   13f06:	48 8d 35 af 21 00 00 	lea    0x21af(%rip),%rsi        # 160bc <g_1978+0x103c>
   13f0d:	48 89 c7             	mov    %rax,%rdi
   13f10:	e8 de 27 ff ff       	callq  66f3 <transparent_crc>
   13f15:	0f b6 05 54 58 00 00 	movzbl 0x5854(%rip),%eax        # 19770 <g_265>
   13f1c:	0f b6 c0             	movzbl %al,%eax
   13f1f:	8b 55 fc             	mov    -0x4(%rbp),%edx
   13f22:	48 8d 35 9c 21 00 00 	lea    0x219c(%rip),%rsi        # 160c5 <g_1978+0x1045>
   13f29:	48 89 c7             	mov    %rax,%rdi
   13f2c:	e8 c2 27 ff ff       	callq  66f3 <transparent_crc>
   13f31:	0f b6 05 40 58 00 00 	movzbl 0x5840(%rip),%eax        # 19778 <g_266>
   13f38:	0f b6 c0             	movzbl %al,%eax
   13f3b:	8b 55 fc             	mov    -0x4(%rbp),%edx
   13f3e:	48 8d 35 89 21 00 00 	lea    0x2189(%rip),%rsi        # 160ce <g_1978+0x104e>
   13f45:	48 89 c7             	mov    %rax,%rdi
   13f48:	e8 a6 27 ff ff       	callq  66f3 <transparent_crc>
   13f4d:	0f b6 05 24 58 00 00 	movzbl 0x5824(%rip),%eax        # 19778 <g_266>
   13f54:	0f b6 c0             	movzbl %al,%eax
   13f57:	8b 55 fc             	mov    -0x4(%rbp),%edx
   13f5a:	48 8d 35 76 21 00 00 	lea    0x2176(%rip),%rsi        # 160d7 <g_1978+0x1057>
   13f61:	48 89 c7             	mov    %rax,%rdi
   13f64:	e8 8a 27 ff ff       	callq  66f3 <transparent_crc>
   13f69:	0f b6 05 10 58 00 00 	movzbl 0x5810(%rip),%eax        # 19780 <g_267>
   13f70:	0f b6 c0             	movzbl %al,%eax
   13f73:	8b 55 fc             	mov    -0x4(%rbp),%edx
   13f76:	48 8d 35 63 21 00 00 	lea    0x2163(%rip),%rsi        # 160e0 <g_1978+0x1060>
   13f7d:	48 89 c7             	mov    %rax,%rdi
   13f80:	e8 6e 27 ff ff       	callq  66f3 <transparent_crc>
   13f85:	0f b6 05 f4 57 00 00 	movzbl 0x57f4(%rip),%eax        # 19780 <g_267>
   13f8c:	0f b6 c0             	movzbl %al,%eax
   13f8f:	8b 55 fc             	mov    -0x4(%rbp),%edx
   13f92:	48 8d 35 50 21 00 00 	lea    0x2150(%rip),%rsi        # 160e9 <g_1978+0x1069>
   13f99:	48 89 c7             	mov    %rax,%rdi
   13f9c:	e8 52 27 ff ff       	callq  66f3 <transparent_crc>
   13fa1:	0f b6 05 e0 57 00 00 	movzbl 0x57e0(%rip),%eax        # 19788 <g_268>
   13fa8:	0f b6 c0             	movzbl %al,%eax
   13fab:	8b 55 fc             	mov    -0x4(%rbp),%edx
   13fae:	48 8d 35 3d 21 00 00 	lea    0x213d(%rip),%rsi        # 160f2 <g_1978+0x1072>
   13fb5:	48 89 c7             	mov    %rax,%rdi
   13fb8:	e8 36 27 ff ff       	callq  66f3 <transparent_crc>
   13fbd:	0f b6 05 c4 57 00 00 	movzbl 0x57c4(%rip),%eax        # 19788 <g_268>
   13fc4:	0f b6 c0             	movzbl %al,%eax
   13fc7:	8b 55 fc             	mov    -0x4(%rbp),%edx
   13fca:	48 8d 35 2a 21 00 00 	lea    0x212a(%rip),%rsi        # 160fb <g_1978+0x107b>
   13fd1:	48 89 c7             	mov    %rax,%rdi
   13fd4:	e8 1a 27 ff ff       	callq  66f3 <transparent_crc>
   13fd9:	0f b7 05 b0 57 00 00 	movzwl 0x57b0(%rip),%eax        # 19790 <g_299>
   13fe0:	0f b7 c0             	movzwl %ax,%eax
   13fe3:	8b 55 fc             	mov    -0x4(%rbp),%edx
   13fe6:	48 8d 35 17 21 00 00 	lea    0x2117(%rip),%rsi        # 16104 <g_1978+0x1084>
   13fed:	48 89 c7             	mov    %rax,%rdi
   13ff0:	e8 fe 26 ff ff       	callq  66f3 <transparent_crc>
   13ff5:	b8 ff ff ff ff       	mov    $0xffffffff,%eax
   13ffa:	48 0f bf c0          	movswq %ax,%rax
   13ffe:	8b 55 fc             	mov    -0x4(%rbp),%edx
   14001:	48 8d 35 02 21 00 00 	lea    0x2102(%rip),%rsi        # 1610a <g_1978+0x108a>
   14008:	48 89 c7             	mov    %rax,%rdi
   1400b:	e8 e3 26 ff ff       	callq  66f3 <transparent_crc>
   14010:	0f b6 05 81 57 00 00 	movzbl 0x5781(%rip),%eax        # 19798 <g_363>
   14017:	0f b6 c0             	movzbl %al,%eax
   1401a:	8b 55 fc             	mov    -0x4(%rbp),%edx
   1401d:	48 8d 35 ec 20 00 00 	lea    0x20ec(%rip),%rsi        # 16110 <g_1978+0x1090>
   14024:	48 89 c7             	mov    %rax,%rdi
   14027:	e8 c7 26 ff ff       	callq  66f3 <transparent_crc>
   1402c:	0f b6 05 65 57 00 00 	movzbl 0x5765(%rip),%eax        # 19798 <g_363>
   14033:	0f b6 c0             	movzbl %al,%eax
   14036:	8b 55 fc             	mov    -0x4(%rbp),%edx
   14039:	48 8d 35 d9 20 00 00 	lea    0x20d9(%rip),%rsi        # 16119 <g_1978+0x1099>
   14040:	48 89 c7             	mov    %rax,%rdi
   14043:	e8 ab 26 ff ff       	callq  66f3 <transparent_crc>
   14048:	c7 45 f0 00 00 00 00 	movl   $0x0,-0x10(%rbp)
   1404f:	eb 4a                	jmp    1409b <main+0x783>
   14051:	8b 45 f0             	mov    -0x10(%rbp),%eax
   14054:	48 98                	cltq   
   14056:	48 8d 14 00          	lea    (%rax,%rax,1),%rdx
   1405a:	48 8d 05 3f 57 00 00 	lea    0x573f(%rip),%rax        # 197a0 <g_532>
   14061:	0f b7 04 02          	movzwl (%rdx,%rax,1),%eax
   14065:	48 0f bf c0          	movswq %ax,%rax
   14069:	8b 55 fc             	mov    -0x4(%rbp),%edx
   1406c:	48 8d 35 af 20 00 00 	lea    0x20af(%rip),%rsi        # 16122 <g_1978+0x10a2>
   14073:	48 89 c7             	mov    %rax,%rdi
   14076:	e8 78 26 ff ff       	callq  66f3 <transparent_crc>
   1407b:	83 7d fc 00          	cmpl   $0x0,-0x4(%rbp)
   1407f:	74 16                	je     14097 <main+0x77f>
   14081:	8b 45 f0             	mov    -0x10(%rbp),%eax
   14084:	89 c6                	mov    %eax,%esi
   14086:	48 8d 3d 9e 20 00 00 	lea    0x209e(%rip),%rdi        # 1612b <g_1978+0x10ab>
   1408d:	b8 00 00 00 00       	mov    $0x0,%eax
   14092:	e8 e9 0f ff ff       	callq  5080 <printf@plt>
   14097:	83 45 f0 01          	addl   $0x1,-0x10(%rbp)
   1409b:	83 7d f0 03          	cmpl   $0x3,-0x10(%rbp)
   1409f:	7e b0                	jle    14051 <main+0x739>
   140a1:	b8 07 00 00 00       	mov    $0x7,%eax
   140a6:	89 c1                	mov    %eax,%ecx
   140a8:	8b 45 fc             	mov    -0x4(%rbp),%eax
   140ab:	89 c2                	mov    %eax,%edx
   140ad:	48 8d 35 85 20 00 00 	lea    0x2085(%rip),%rsi        # 16139 <g_1978+0x10b9>
   140b4:	48 89 cf             	mov    %rcx,%rdi
   140b7:	e8 37 26 ff ff       	callq  66f3 <transparent_crc>
   140bc:	48 8b 05 f5 7b 00 00 	mov    0x7bf5(%rip),%rax        # 1bcb8 <g_565>
   140c3:	48 89 c1             	mov    %rax,%rcx
   140c6:	8b 45 fc             	mov    -0x4(%rbp),%eax
   140c9:	89 c2                	mov    %eax,%edx
   140cb:	48 8d 35 6d 20 00 00 	lea    0x206d(%rip),%rsi        # 1613f <g_1978+0x10bf>
   140d2:	48 89 cf             	mov    %rcx,%rdi
   140d5:	e8 19 26 ff ff       	callq  66f3 <transparent_crc>
   140da:	c7 45 f0 00 00 00 00 	movl   $0x0,-0x10(%rbp)
   140e1:	e9 88 00 00 00       	jmpq   1416e <main+0x856>
   140e6:	c7 45 f4 00 00 00 00 	movl   $0x0,-0xc(%rbp)
   140ed:	eb 75                	jmp    14164 <main+0x84c>
   140ef:	c7 45 f8 00 00 00 00 	movl   $0x0,-0x8(%rbp)
   140f6:	eb 62                	jmp    1415a <main+0x842>
   140f8:	8b 45 f8             	mov    -0x8(%rbp),%eax
   140fb:	48 63 d0             	movslq %eax,%rdx
   140fe:	8b 45 f4             	mov    -0xc(%rbp),%eax
   14101:	48 98                	cltq   
   14103:	8b 4d f0             	mov    -0x10(%rbp),%ecx
   14106:	48 63 c9             	movslq %ecx,%rcx
   14109:	48 01 c9             	add    %rcx,%rcx
   1410c:	48 01 ca             	add    %rcx,%rdx
   1410f:	48 01 c2             	add    %rax,%rdx
   14112:	48 8d 05 8f 56 00 00 	lea    0x568f(%rip),%rax        # 197a8 <g_586>
   14119:	48 01 d0             	add    %rdx,%rax
   1411c:	0f b6 00             	movzbl (%rax),%eax
   1411f:	0f b6 c0             	movzbl %al,%eax
   14122:	8b 55 fc             	mov    -0x4(%rbp),%edx
   14125:	48 8d 35 19 20 00 00 	lea    0x2019(%rip),%rsi        # 16145 <g_1978+0x10c5>
   1412c:	48 89 c7             	mov    %rax,%rdi
   1412f:	e8 bf 25 ff ff       	callq  66f3 <transparent_crc>
   14134:	83 7d fc 00          	cmpl   $0x0,-0x4(%rbp)
   14138:	74 1c                	je     14156 <main+0x83e>
   1413a:	8b 4d f8             	mov    -0x8(%rbp),%ecx
   1413d:	8b 55 f4             	mov    -0xc(%rbp),%edx
   14140:	8b 45 f0             	mov    -0x10(%rbp),%eax
   14143:	89 c6                	mov    %eax,%esi
   14145:	48 8d 3d ce 1e 00 00 	lea    0x1ece(%rip),%rdi        # 1601a <g_1978+0xf9a>
   1414c:	b8 00 00 00 00       	mov    $0x0,%eax
   14151:	e8 2a 0f ff ff       	callq  5080 <printf@plt>
   14156:	83 45 f8 01          	addl   $0x1,-0x8(%rbp)
   1415a:	83 7d f8 00          	cmpl   $0x0,-0x8(%rbp)
   1415e:	7e 98                	jle    140f8 <main+0x7e0>
   14160:	83 45 f4 01          	addl   $0x1,-0xc(%rbp)
   14164:	83 7d f4 01          	cmpl   $0x1,-0xc(%rbp)
   14168:	7e 85                	jle    140ef <main+0x7d7>
   1416a:	83 45 f0 01          	addl   $0x1,-0x10(%rbp)
   1416e:	83 7d f0 06          	cmpl   $0x6,-0x10(%rbp)
   14172:	0f 8e 6e ff ff ff    	jle    140e6 <main+0x7ce>
   14178:	c7 45 f0 00 00 00 00 	movl   $0x0,-0x10(%rbp)
   1417f:	eb 4b                	jmp    141cc <main+0x8b4>
   14181:	8b 45 f0             	mov    -0x10(%rbp),%eax
   14184:	48 98                	cltq   
   14186:	48 8d 14 85 00 00 00 	lea    0x0(,%rax,4),%rdx
   1418d:	00 
   1418e:	48 8d 05 2b 7b 00 00 	lea    0x7b2b(%rip),%rax        # 1bcc0 <g_594>
   14195:	8b 04 02             	mov    (%rdx,%rax,1),%eax
   14198:	48 98                	cltq   
   1419a:	8b 55 fc             	mov    -0x4(%rbp),%edx
   1419d:	48 8d 35 b0 1f 00 00 	lea    0x1fb0(%rip),%rsi        # 16154 <g_1978+0x10d4>
   141a4:	48 89 c7             	mov    %rax,%rdi
   141a7:	e8 47 25 ff ff       	callq  66f3 <transparent_crc>
   141ac:	83 7d fc 00          	cmpl   $0x0,-0x4(%rbp)
   141b0:	74 16                	je     141c8 <main+0x8b0>
   141b2:	8b 45 f0             	mov    -0x10(%rbp),%eax
   141b5:	89 c6                	mov    %eax,%esi
   141b7:	48 8d 3d 6d 1f 00 00 	lea    0x1f6d(%rip),%rdi        # 1612b <g_1978+0x10ab>
   141be:	b8 00 00 00 00       	mov    $0x0,%eax
   141c3:	e8 b8 0e ff ff       	callq  5080 <printf@plt>
   141c8:	83 45 f0 01          	addl   $0x1,-0x10(%rbp)
   141cc:	83 7d f0 06          	cmpl   $0x6,-0x10(%rbp)
   141d0:	7e af                	jle    14181 <main+0x869>
   141d2:	0f b6 05 df 55 00 00 	movzbl 0x55df(%rip),%eax        # 197b8 <g_611>
   141d9:	0f b6 c0             	movzbl %al,%eax
   141dc:	8b 55 fc             	mov    -0x4(%rbp),%edx
   141df:	48 8d 35 77 1f 00 00 	lea    0x1f77(%rip),%rsi        # 1615d <g_1978+0x10dd>
   141e6:	48 89 c7             	mov    %rax,%rdi
   141e9:	e8 05 25 ff ff       	callq  66f3 <transparent_crc>
   141ee:	0f b6 05 c3 55 00 00 	movzbl 0x55c3(%rip),%eax        # 197b8 <g_611>
   141f5:	0f b6 c0             	movzbl %al,%eax
   141f8:	8b 55 fc             	mov    -0x4(%rbp),%edx
   141fb:	48 8d 35 64 1f 00 00 	lea    0x1f64(%rip),%rsi        # 16166 <g_1978+0x10e6>
   14202:	48 89 c7             	mov    %rax,%rdi
   14205:	e8 e9 24 ff ff       	callq  66f3 <transparent_crc>
   1420a:	0f b6 05 af 55 00 00 	movzbl 0x55af(%rip),%eax        # 197c0 <g_632>
   14211:	0f b6 c0             	movzbl %al,%eax
   14214:	8b 55 fc             	mov    -0x4(%rbp),%edx
   14217:	48 8d 35 51 1f 00 00 	lea    0x1f51(%rip),%rsi        # 1616f <g_1978+0x10ef>
   1421e:	48 89 c7             	mov    %rax,%rdi
   14221:	e8 cd 24 ff ff       	callq  66f3 <transparent_crc>
   14226:	0f b6 05 93 55 00 00 	movzbl 0x5593(%rip),%eax        # 197c0 <g_632>
   1422d:	0f b6 c0             	movzbl %al,%eax
   14230:	8b 55 fc             	mov    -0x4(%rbp),%edx
   14233:	48 8d 35 3e 1f 00 00 	lea    0x1f3e(%rip),%rsi        # 16178 <g_1978+0x10f8>
   1423a:	48 89 c7             	mov    %rax,%rdi
   1423d:	e8 b1 24 ff ff       	callq  66f3 <transparent_crc>
   14242:	0f b7 05 7f 55 00 00 	movzwl 0x557f(%rip),%eax        # 197c8 <g_700>
   14249:	48 0f bf c0          	movswq %ax,%rax
   1424d:	8b 55 fc             	mov    -0x4(%rbp),%edx
   14250:	48 8d 35 2a 1f 00 00 	lea    0x1f2a(%rip),%rsi        # 16181 <g_1978+0x1101>
   14257:	48 89 c7             	mov    %rax,%rdi
   1425a:	e8 94 24 ff ff       	callq  66f3 <transparent_crc>
   1425f:	48 8b 05 6a 55 00 00 	mov    0x556a(%rip),%rax        # 197d0 <g_701>
   14266:	48 89 c1             	mov    %rax,%rcx
   14269:	8b 45 fc             	mov    -0x4(%rbp),%eax
   1426c:	89 c2                	mov    %eax,%edx
   1426e:	48 8d 35 12 1f 00 00 	lea    0x1f12(%rip),%rsi        # 16187 <g_1978+0x1107>
   14275:	48 89 cf             	mov    %rcx,%rdi
   14278:	e8 76 24 ff ff       	callq  66f3 <transparent_crc>
   1427d:	c7 45 f0 00 00 00 00 	movl   $0x0,-0x10(%rbp)
   14284:	eb 4b                	jmp    142d1 <main+0x9b9>
   14286:	8b 45 f0             	mov    -0x10(%rbp),%eax
   14289:	48 98                	cltq   
   1428b:	48 8d 14 85 00 00 00 	lea    0x0(,%rax,4),%rdx
   14292:	00 
   14293:	48 8d 05 46 7a 00 00 	lea    0x7a46(%rip),%rax        # 1bce0 <g_702>
   1429a:	8b 04 02             	mov    (%rdx,%rax,1),%eax
   1429d:	48 98                	cltq   
   1429f:	8b 55 fc             	mov    -0x4(%rbp),%edx
   142a2:	48 8d 35 e4 1e 00 00 	lea    0x1ee4(%rip),%rsi        # 1618d <g_1978+0x110d>
   142a9:	48 89 c7             	mov    %rax,%rdi
   142ac:	e8 42 24 ff ff       	callq  66f3 <transparent_crc>
   142b1:	83 7d fc 00          	cmpl   $0x0,-0x4(%rbp)
   142b5:	74 16                	je     142cd <main+0x9b5>
   142b7:	8b 45 f0             	mov    -0x10(%rbp),%eax
   142ba:	89 c6                	mov    %eax,%esi
   142bc:	48 8d 3d 68 1e 00 00 	lea    0x1e68(%rip),%rdi        # 1612b <g_1978+0x10ab>
   142c3:	b8 00 00 00 00       	mov    $0x0,%eax
   142c8:	e8 b3 0d ff ff       	callq  5080 <printf@plt>
   142cd:	83 45 f0 01          	addl   $0x1,-0x10(%rbp)
   142d1:	83 7d f0 03          	cmpl   $0x3,-0x10(%rbp)
   142d5:	7e af                	jle    14286 <main+0x96e>
   142d7:	0f b7 05 fa 54 00 00 	movzwl 0x54fa(%rip),%eax        # 197d8 <g_703>
   142de:	0f b7 c0             	movzwl %ax,%eax
   142e1:	8b 55 fc             	mov    -0x4(%rbp),%edx
   142e4:	48 8d 35 ab 1e 00 00 	lea    0x1eab(%rip),%rsi        # 16196 <g_1978+0x1116>
   142eb:	48 89 c7             	mov    %rax,%rdi
   142ee:	e8 00 24 ff ff       	callq  66f3 <transparent_crc>
   142f3:	8b 05 e3 54 00 00    	mov    0x54e3(%rip),%eax        # 197dc <g_707>
   142f9:	48 98                	cltq   
   142fb:	8b 55 fc             	mov    -0x4(%rbp),%edx
   142fe:	48 8d 35 97 1e 00 00 	lea    0x1e97(%rip),%rsi        # 1619c <g_1978+0x111c>
   14305:	48 89 c7             	mov    %rax,%rdi
   14308:	e8 e6 23 ff ff       	callq  66f3 <transparent_crc>
   1430d:	8b 05 cd 54 00 00    	mov    0x54cd(%rip),%eax        # 197e0 <g_708>
   14313:	48 98                	cltq   
   14315:	8b 55 fc             	mov    -0x4(%rbp),%edx
   14318:	48 8d 35 83 1e 00 00 	lea    0x1e83(%rip),%rsi        # 161a2 <g_1978+0x1122>
   1431f:	48 89 c7             	mov    %rax,%rdi
   14322:	e8 cc 23 ff ff       	callq  66f3 <transparent_crc>
   14327:	0f b7 05 b6 54 00 00 	movzwl 0x54b6(%rip),%eax        # 197e4 <g_709>
   1432e:	0f b7 c0             	movzwl %ax,%eax
   14331:	8b 55 fc             	mov    -0x4(%rbp),%edx
   14334:	48 8d 35 6d 1e 00 00 	lea    0x1e6d(%rip),%rsi        # 161a8 <g_1978+0x1128>
   1433b:	48 89 c7             	mov    %rax,%rdi
   1433e:	e8 b0 23 ff ff       	callq  66f3 <transparent_crc>
   14343:	0f b6 05 9c 54 00 00 	movzbl 0x549c(%rip),%eax        # 197e6 <g_756>
   1434a:	48 0f be c0          	movsbq %al,%rax
   1434e:	8b 55 fc             	mov    -0x4(%rbp),%edx
   14351:	48 8d 35 56 1e 00 00 	lea    0x1e56(%rip),%rsi        # 161ae <g_1978+0x112e>
   14358:	48 89 c7             	mov    %rax,%rdi
   1435b:	e8 93 23 ff ff       	callq  66f3 <transparent_crc>
   14360:	8b 05 82 54 00 00    	mov    0x5482(%rip),%eax        # 197e8 <g_802>
   14366:	48 98                	cltq   
   14368:	8b 55 fc             	mov    -0x4(%rbp),%edx
   1436b:	48 8d 35 42 1e 00 00 	lea    0x1e42(%rip),%rsi        # 161b4 <g_1978+0x1134>
   14372:	48 89 c7             	mov    %rax,%rdi
   14375:	e8 79 23 ff ff       	callq  66f3 <transparent_crc>
   1437a:	0f b7 05 6b 54 00 00 	movzwl 0x546b(%rip),%eax        # 197ec <g_803>
   14381:	48 0f bf c0          	movswq %ax,%rax
   14385:	8b 55 fc             	mov    -0x4(%rbp),%edx
   14388:	48 8d 35 2b 1e 00 00 	lea    0x1e2b(%rip),%rsi        # 161ba <g_1978+0x113a>
   1438f:	48 89 c7             	mov    %rax,%rdi
   14392:	e8 5c 23 ff ff       	callq  66f3 <transparent_crc>
   14397:	0f b6 05 50 54 00 00 	movzbl 0x5450(%rip),%eax        # 197ee <g_804>
   1439e:	48 0f be c0          	movsbq %al,%rax
   143a2:	8b 55 fc             	mov    -0x4(%rbp),%edx
   143a5:	48 8d 35 14 1e 00 00 	lea    0x1e14(%rip),%rsi        # 161c0 <g_1978+0x1140>
   143ac:	48 89 c7             	mov    %rax,%rdi
   143af:	e8 3f 23 ff ff       	callq  66f3 <transparent_crc>
   143b4:	0f b6 05 34 54 00 00 	movzbl 0x5434(%rip),%eax        # 197ef <g_805>
   143bb:	48 0f be c0          	movsbq %al,%rax
   143bf:	8b 55 fc             	mov    -0x4(%rbp),%edx
   143c2:	48 8d 35 fd 1d 00 00 	lea    0x1dfd(%rip),%rsi        # 161c6 <g_1978+0x1146>
   143c9:	48 89 c7             	mov    %rax,%rdi
   143cc:	e8 22 23 ff ff       	callq  66f3 <transparent_crc>
   143d1:	8b 05 19 54 00 00    	mov    0x5419(%rip),%eax        # 197f0 <g_806>
   143d7:	48 98                	cltq   
   143d9:	8b 55 fc             	mov    -0x4(%rbp),%edx
   143dc:	48 8d 35 e9 1d 00 00 	lea    0x1de9(%rip),%rsi        # 161cc <g_1978+0x114c>
   143e3:	48 89 c7             	mov    %rax,%rdi
   143e6:	e8 08 23 ff ff       	callq  66f3 <transparent_crc>
   143eb:	8b 05 03 54 00 00    	mov    0x5403(%rip),%eax        # 197f4 <g_807>
   143f1:	89 c1                	mov    %eax,%ecx
   143f3:	8b 45 fc             	mov    -0x4(%rbp),%eax
   143f6:	89 c2                	mov    %eax,%edx
   143f8:	48 8d 35 d3 1d 00 00 	lea    0x1dd3(%rip),%rsi        # 161d2 <g_1978+0x1152>
   143ff:	48 89 cf             	mov    %rcx,%rdi
   14402:	e8 ec 22 ff ff       	callq  66f3 <transparent_crc>
   14407:	c7 45 f0 00 00 00 00 	movl   $0x0,-0x10(%rbp)
   1440e:	eb 7a                	jmp    1448a <main+0xb72>
   14410:	8b 45 f0             	mov    -0x10(%rbp),%eax
   14413:	48 98                	cltq   
   14415:	48 8d 14 c5 00 00 00 	lea    0x0(,%rax,8),%rdx
   1441c:	00 
   1441d:	48 8d 05 dc 53 00 00 	lea    0x53dc(%rip),%rax        # 19800 <g_887>
   14424:	0f b6 04 02          	movzbl (%rdx,%rax,1),%eax
   14428:	0f b6 c0             	movzbl %al,%eax
   1442b:	8b 55 fc             	mov    -0x4(%rbp),%edx
   1442e:	48 8d 35 a3 1d 00 00 	lea    0x1da3(%rip),%rsi        # 161d8 <g_1978+0x1158>
   14435:	48 89 c7             	mov    %rax,%rdi
   14438:	e8 b6 22 ff ff       	callq  66f3 <transparent_crc>
   1443d:	8b 45 f0             	mov    -0x10(%rbp),%eax
   14440:	48 98                	cltq   
   14442:	48 8d 14 c5 00 00 00 	lea    0x0(,%rax,8),%rdx
   14449:	00 
   1444a:	48 8d 05 af 53 00 00 	lea    0x53af(%rip),%rax        # 19800 <g_887>
   14451:	0f b6 04 02          	movzbl (%rdx,%rax,1),%eax
   14455:	0f b6 c0             	movzbl %al,%eax
   14458:	8b 55 fc             	mov    -0x4(%rbp),%edx
   1445b:	48 8d 35 82 1d 00 00 	lea    0x1d82(%rip),%rsi        # 161e4 <g_1978+0x1164>
   14462:	48 89 c7             	mov    %rax,%rdi
   14465:	e8 89 22 ff ff       	callq  66f3 <transparent_crc>
   1446a:	83 7d fc 00          	cmpl   $0x0,-0x4(%rbp)
   1446e:	74 16                	je     14486 <main+0xb6e>
   14470:	8b 45 f0             	mov    -0x10(%rbp),%eax
   14473:	89 c6                	mov    %eax,%esi
   14475:	48 8d 3d af 1c 00 00 	lea    0x1caf(%rip),%rdi        # 1612b <g_1978+0x10ab>
   1447c:	b8 00 00 00 00       	mov    $0x0,%eax
   14481:	e8 fa 0b ff ff       	callq  5080 <printf@plt>
   14486:	83 45 f0 01          	addl   $0x1,-0x10(%rbp)
   1448a:	83 7d f0 01          	cmpl   $0x1,-0x10(%rbp)
   1448e:	7e 80                	jle    14410 <main+0xaf8>
   14490:	c7 45 f0 00 00 00 00 	movl   $0x0,-0x10(%rbp)
   14497:	eb 49                	jmp    144e2 <main+0xbca>
   14499:	8b 45 f0             	mov    -0x10(%rbp),%eax
   1449c:	48 98                	cltq   
   1449e:	48 8d 14 00          	lea    (%rax,%rax,1),%rdx
   144a2:	48 8d 05 67 53 00 00 	lea    0x5367(%rip),%rax        # 19810 <g_918>
   144a9:	0f b7 04 02          	movzwl (%rdx,%rax,1),%eax
   144ad:	0f b7 c0             	movzwl %ax,%eax
   144b0:	8b 55 fc             	mov    -0x4(%rbp),%edx
   144b3:	48 8d 35 36 1d 00 00 	lea    0x1d36(%rip),%rsi        # 161f0 <g_1978+0x1170>
   144ba:	48 89 c7             	mov    %rax,%rdi
   144bd:	e8 31 22 ff ff       	callq  66f3 <transparent_crc>
   144c2:	83 7d fc 00          	cmpl   $0x0,-0x4(%rbp)
   144c6:	74 16                	je     144de <main+0xbc6>
   144c8:	8b 45 f0             	mov    -0x10(%rbp),%eax
   144cb:	89 c6                	mov    %eax,%esi
   144cd:	48 8d 3d 57 1c 00 00 	lea    0x1c57(%rip),%rdi        # 1612b <g_1978+0x10ab>
   144d4:	b8 00 00 00 00       	mov    $0x0,%eax
   144d9:	e8 a2 0b ff ff       	callq  5080 <printf@plt>
   144de:	83 45 f0 01          	addl   $0x1,-0x10(%rbp)
   144e2:	83 7d f0 01          	cmpl   $0x1,-0x10(%rbp)
   144e6:	7e b1                	jle    14499 <main+0xb81>
   144e8:	0f b7 05 25 53 00 00 	movzwl 0x5325(%rip),%eax        # 19814 <g_974>
   144ef:	0f b7 c0             	movzwl %ax,%eax
   144f2:	8b 55 fc             	mov    -0x4(%rbp),%edx
   144f5:	48 8d 35 fd 1c 00 00 	lea    0x1cfd(%rip),%rsi        # 161f9 <g_1978+0x1179>
   144fc:	48 89 c7             	mov    %rax,%rdi
   144ff:	e8 ef 21 ff ff       	callq  66f3 <transparent_crc>
   14504:	8b 05 0e 53 00 00    	mov    0x530e(%rip),%eax        # 19818 <g_1054>
   1450a:	48 98                	cltq   
   1450c:	8b 55 fc             	mov    -0x4(%rbp),%edx
   1450f:	48 8d 35 e9 1c 00 00 	lea    0x1ce9(%rip),%rsi        # 161ff <g_1978+0x117f>
   14516:	48 89 c7             	mov    %rax,%rdi
   14519:	e8 d5 21 ff ff       	callq  66f3 <transparent_crc>
   1451e:	c7 45 f0 00 00 00 00 	movl   $0x0,-0x10(%rbp)
   14525:	e9 bf 00 00 00       	jmpq   145e9 <main+0xcd1>
   1452a:	c7 45 f4 00 00 00 00 	movl   $0x0,-0xc(%rbp)
   14531:	e9 a5 00 00 00       	jmpq   145db <main+0xcc3>
   14536:	8b 45 f4             	mov    -0xc(%rbp),%eax
   14539:	48 63 c8             	movslq %eax,%rcx
   1453c:	8b 45 f0             	mov    -0x10(%rbp),%eax
   1453f:	48 63 d0             	movslq %eax,%rdx
   14542:	48 89 d0             	mov    %rdx,%rax
   14545:	48 c1 e0 03          	shl    $0x3,%rax
   14549:	48 01 d0             	add    %rdx,%rax
   1454c:	48 01 c8             	add    %rcx,%rax
   1454f:	48 8d 14 c5 00 00 00 	lea    0x0(,%rax,8),%rdx
   14556:	00 
   14557:	48 8d 05 c2 52 00 00 	lea    0x52c2(%rip),%rax        # 19820 <g_1207>
   1455e:	0f b6 04 02          	movzbl (%rdx,%rax,1),%eax
   14562:	0f b6 c0             	movzbl %al,%eax
   14565:	8b 55 fc             	mov    -0x4(%rbp),%edx
   14568:	48 8d 35 97 1c 00 00 	lea    0x1c97(%rip),%rsi        # 16206 <g_1978+0x1186>
   1456f:	48 89 c7             	mov    %rax,%rdi
   14572:	e8 7c 21 ff ff       	callq  66f3 <transparent_crc>
   14577:	8b 45 f4             	mov    -0xc(%rbp),%eax
   1457a:	48 63 c8             	movslq %eax,%rcx
   1457d:	8b 45 f0             	mov    -0x10(%rbp),%eax
   14580:	48 63 d0             	movslq %eax,%rdx
   14583:	48 89 d0             	mov    %rdx,%rax
   14586:	48 c1 e0 03          	shl    $0x3,%rax
   1458a:	48 01 d0             	add    %rdx,%rax
   1458d:	48 01 c8             	add    %rcx,%rax
   14590:	48 8d 14 c5 00 00 00 	lea    0x0(,%rax,8),%rdx
   14597:	00 
   14598:	48 8d 05 81 52 00 00 	lea    0x5281(%rip),%rax        # 19820 <g_1207>
   1459f:	0f b6 04 02          	movzbl (%rdx,%rax,1),%eax
   145a3:	0f b6 c0             	movzbl %al,%eax
   145a6:	8b 55 fc             	mov    -0x4(%rbp),%edx
   145a9:	48 8d 35 66 1c 00 00 	lea    0x1c66(%rip),%rsi        # 16216 <g_1978+0x1196>
   145b0:	48 89 c7             	mov    %rax,%rdi
   145b3:	e8 3b 21 ff ff       	callq  66f3 <transparent_crc>
   145b8:	83 7d fc 00          	cmpl   $0x0,-0x4(%rbp)
   145bc:	74 19                	je     145d7 <main+0xcbf>
   145be:	8b 55 f4             	mov    -0xc(%rbp),%edx
   145c1:	8b 45 f0             	mov    -0x10(%rbp),%eax
   145c4:	89 c6                	mov    %eax,%esi
   145c6:	48 8d 3d 59 1c 00 00 	lea    0x1c59(%rip),%rdi        # 16226 <g_1978+0x11a6>
   145cd:	b8 00 00 00 00       	mov    $0x0,%eax
   145d2:	e8 a9 0a ff ff       	callq  5080 <printf@plt>
   145d7:	83 45 f4 01          	addl   $0x1,-0xc(%rbp)
   145db:	83 7d f4 08          	cmpl   $0x8,-0xc(%rbp)
   145df:	0f 8e 51 ff ff ff    	jle    14536 <main+0xc1e>
   145e5:	83 45 f0 01          	addl   $0x1,-0x10(%rbp)
   145e9:	83 7d f0 05          	cmpl   $0x5,-0x10(%rbp)
   145ed:	0f 8e 37 ff ff ff    	jle    1452a <main+0xc12>
   145f3:	8b 05 d7 53 00 00    	mov    0x53d7(%rip),%eax        # 199d0 <g_1228>
   145f9:	89 c1                	mov    %eax,%ecx
   145fb:	8b 45 fc             	mov    -0x4(%rbp),%eax
   145fe:	89 c2                	mov    %eax,%edx
   14600:	48 8d 35 31 1c 00 00 	lea    0x1c31(%rip),%rsi        # 16238 <g_1978+0x11b8>
   14607:	48 89 cf             	mov    %rcx,%rdi
   1460a:	e8 e4 20 ff ff       	callq  66f3 <transparent_crc>
   1460f:	c7 45 f0 00 00 00 00 	movl   $0x0,-0x10(%rbp)
   14616:	e9 bc 00 00 00       	jmpq   146d7 <main+0xdbf>
   1461b:	c7 45 f4 00 00 00 00 	movl   $0x0,-0xc(%rbp)
   14622:	e9 a2 00 00 00       	jmpq   146c9 <main+0xdb1>
   14627:	c7 45 f8 00 00 00 00 	movl   $0x0,-0x8(%rbp)
   1462e:	e9 88 00 00 00       	jmpq   146bb <main+0xda3>
   14633:	8b 45 f8             	mov    -0x8(%rbp),%eax
   14636:	48 63 f0             	movslq %eax,%rsi
   14639:	8b 45 f0             	mov    -0x10(%rbp),%eax
   1463c:	48 63 d0             	movslq %eax,%rdx
   1463f:	8b 45 f4             	mov    -0xc(%rbp),%eax
   14642:	48 63 c8             	movslq %eax,%rcx
   14645:	48 89 d0             	mov    %rdx,%rax
   14648:	48 c1 e0 02          	shl    $0x2,%rax
   1464c:	48 01 d0             	add    %rdx,%rax
   1464f:	48 c1 e0 02          	shl    $0x2,%rax
   14653:	48 01 d0             	add    %rdx,%rax
   14656:	48 01 c0             	add    %rax,%rax
   14659:	48 89 ca             	mov    %rcx,%rdx
   1465c:	48 01 d2             	add    %rdx,%rdx
   1465f:	48 01 ca             	add    %rcx,%rdx
   14662:	48 01 d2             	add    %rdx,%rdx
   14665:	48 01 d0             	add    %rdx,%rax
   14668:	48 01 f0             	add    %rsi,%rax
   1466b:	48 8d 14 c5 00 00 00 	lea    0x0(,%rax,8),%rdx
   14672:	00 
   14673:	48 8d 05 66 53 00 00 	lea    0x5366(%rip),%rax        # 199e0 <g_1331>
   1467a:	48 8b 04 02          	mov    (%rdx,%rax,1),%rax
   1467e:	48 89 c1             	mov    %rax,%rcx
   14681:	8b 45 fc             	mov    -0x4(%rbp),%eax
   14684:	89 c2                	mov    %eax,%edx
   14686:	48 8d 35 b2 1b 00 00 	lea    0x1bb2(%rip),%rsi        # 1623f <g_1978+0x11bf>
   1468d:	48 89 cf             	mov    %rcx,%rdi
   14690:	e8 5e 20 ff ff       	callq  66f3 <transparent_crc>
   14695:	83 7d fc 00          	cmpl   $0x0,-0x4(%rbp)
   14699:	74 1c                	je     146b7 <main+0xd9f>
   1469b:	8b 4d f8             	mov    -0x8(%rbp),%ecx
   1469e:	8b 55 f4             	mov    -0xc(%rbp),%edx
   146a1:	8b 45 f0             	mov    -0x10(%rbp),%eax
   146a4:	89 c6                	mov    %eax,%esi
   146a6:	48 8d 3d 6d 19 00 00 	lea    0x196d(%rip),%rdi        # 1601a <g_1978+0xf9a>
   146ad:	b8 00 00 00 00       	mov    $0x0,%eax
   146b2:	e8 c9 09 ff ff       	callq  5080 <printf@plt>
   146b7:	83 45 f8 01          	addl   $0x1,-0x8(%rbp)
   146bb:	83 7d f8 05          	cmpl   $0x5,-0x8(%rbp)
   146bf:	0f 8e 6e ff ff ff    	jle    14633 <main+0xd1b>
   146c5:	83 45 f4 01          	addl   $0x1,-0xc(%rbp)
   146c9:	83 7d f4 06          	cmpl   $0x6,-0xc(%rbp)
   146cd:	0f 8e 54 ff ff ff    	jle    14627 <main+0xd0f>
   146d3:	83 45 f0 01          	addl   $0x1,-0x10(%rbp)
   146d7:	83 7d f0 00          	cmpl   $0x0,-0x10(%rbp)
   146db:	0f 8e 3a ff ff ff    	jle    1461b <main+0xd03>
   146e1:	8b 05 49 54 00 00    	mov    0x5449(%rip),%eax        # 19b30 <g_1332>
   146e7:	89 c1                	mov    %eax,%ecx
   146e9:	8b 45 fc             	mov    -0x4(%rbp),%eax
   146ec:	89 c2                	mov    %eax,%edx
   146ee:	48 8d 35 5a 1b 00 00 	lea    0x1b5a(%rip),%rsi        # 1624f <g_1978+0x11cf>
   146f5:	48 89 cf             	mov    %rcx,%rdi
   146f8:	e8 f6 1f ff ff       	callq  66f3 <transparent_crc>
   146fd:	48 b9 7d c6 11 be 61 	movabs $0x2015be61be11c67d,%rcx
   14704:	be 15 20 
   14707:	8b 45 fc             	mov    -0x4(%rbp),%eax
   1470a:	89 c2                	mov    %eax,%edx
   1470c:	48 8d 35 43 1b 00 00 	lea    0x1b43(%rip),%rsi        # 16256 <g_1978+0x11d6>
   14713:	48 89 cf             	mov    %rcx,%rdi
   14716:	e8 d8 1f ff ff       	callq  66f3 <transparent_crc>
   1471b:	48 8b 05 16 54 00 00 	mov    0x5416(%rip),%rax        # 19b38 <g_1529>
   14722:	8b 55 fc             	mov    -0x4(%rbp),%edx
   14725:	48 8d 35 31 1b 00 00 	lea    0x1b31(%rip),%rsi        # 1625d <g_1978+0x11dd>
   1472c:	48 89 c7             	mov    %rax,%rdi
   1472f:	e8 bf 1f ff ff       	callq  66f3 <transparent_crc>
   14734:	8b 05 06 54 00 00    	mov    0x5406(%rip),%eax        # 19b40 <g_1616>
   1473a:	89 c1                	mov    %eax,%ecx
   1473c:	8b 45 fc             	mov    -0x4(%rbp),%eax
   1473f:	89 c2                	mov    %eax,%edx
   14741:	48 8d 35 1c 1b 00 00 	lea    0x1b1c(%rip),%rsi        # 16264 <g_1978+0x11e4>
   14748:	48 89 cf             	mov    %rcx,%rdi
   1474b:	e8 a3 1f ff ff       	callq  66f3 <transparent_crc>
   14750:	0f b7 05 ed 53 00 00 	movzwl 0x53ed(%rip),%eax        # 19b44 <g_1624>
   14757:	48 0f bf c0          	movswq %ax,%rax
   1475b:	8b 55 fc             	mov    -0x4(%rbp),%edx
   1475e:	48 8d 35 06 1b 00 00 	lea    0x1b06(%rip),%rsi        # 1626b <g_1978+0x11eb>
   14765:	48 89 c7             	mov    %rax,%rdi
   14768:	e8 86 1f ff ff       	callq  66f3 <transparent_crc>
   1476d:	0f b6 05 d4 53 00 00 	movzbl 0x53d4(%rip),%eax        # 19b48 <g_1640>
   14774:	0f b6 c0             	movzbl %al,%eax
   14777:	8b 55 fc             	mov    -0x4(%rbp),%edx
   1477a:	48 8d 35 f1 1a 00 00 	lea    0x1af1(%rip),%rsi        # 16272 <g_1978+0x11f2>
   14781:	48 89 c7             	mov    %rax,%rdi
   14784:	e8 6a 1f ff ff       	callq  66f3 <transparent_crc>
   14789:	0f b6 05 b8 53 00 00 	movzbl 0x53b8(%rip),%eax        # 19b48 <g_1640>
   14790:	0f b6 c0             	movzbl %al,%eax
   14793:	8b 55 fc             	mov    -0x4(%rbp),%edx
   14796:	48 8d 35 df 1a 00 00 	lea    0x1adf(%rip),%rsi        # 1627c <g_1978+0x11fc>
   1479d:	48 89 c7             	mov    %rax,%rdi
   147a0:	e8 4e 1f ff ff       	callq  66f3 <transparent_crc>
   147a5:	0f b6 05 a4 53 00 00 	movzbl 0x53a4(%rip),%eax        # 19b50 <g_1641>
   147ac:	0f b6 c0             	movzbl %al,%eax
   147af:	8b 55 fc             	mov    -0x4(%rbp),%edx
   147b2:	48 8d 35 cd 1a 00 00 	lea    0x1acd(%rip),%rsi        # 16286 <g_1978+0x1206>
   147b9:	48 89 c7             	mov    %rax,%rdi
   147bc:	e8 32 1f ff ff       	callq  66f3 <transparent_crc>
   147c1:	0f b6 05 88 53 00 00 	movzbl 0x5388(%rip),%eax        # 19b50 <g_1641>
   147c8:	0f b6 c0             	movzbl %al,%eax
   147cb:	8b 55 fc             	mov    -0x4(%rbp),%edx
   147ce:	48 8d 35 bb 1a 00 00 	lea    0x1abb(%rip),%rsi        # 16290 <g_1978+0x1210>
   147d5:	48 89 c7             	mov    %rax,%rdi
   147d8:	e8 16 1f ff ff       	callq  66f3 <transparent_crc>
   147dd:	0f b6 05 74 53 00 00 	movzbl 0x5374(%rip),%eax        # 19b58 <g_1642>
   147e4:	0f b6 c0             	movzbl %al,%eax
   147e7:	8b 55 fc             	mov    -0x4(%rbp),%edx
   147ea:	48 8d 35 a9 1a 00 00 	lea    0x1aa9(%rip),%rsi        # 1629a <g_1978+0x121a>
   147f1:	48 89 c7             	mov    %rax,%rdi
   147f4:	e8 fa 1e ff ff       	callq  66f3 <transparent_crc>
   147f9:	0f b6 05 58 53 00 00 	movzbl 0x5358(%rip),%eax        # 19b58 <g_1642>
   14800:	0f b6 c0             	movzbl %al,%eax
   14803:	8b 55 fc             	mov    -0x4(%rbp),%edx
   14806:	48 8d 35 97 1a 00 00 	lea    0x1a97(%rip),%rsi        # 162a4 <g_1978+0x1224>
   1480d:	48 89 c7             	mov    %rax,%rdi
   14810:	e8 de 1e ff ff       	callq  66f3 <transparent_crc>
   14815:	8b 05 45 53 00 00    	mov    0x5345(%rip),%eax        # 19b60 <g_1652>
   1481b:	89 c1                	mov    %eax,%ecx
   1481d:	8b 45 fc             	mov    -0x4(%rbp),%eax
   14820:	89 c2                	mov    %eax,%edx
   14822:	48 8d 35 85 1a 00 00 	lea    0x1a85(%rip),%rsi        # 162ae <g_1978+0x122e>
   14829:	48 89 cf             	mov    %rcx,%rdi
   1482c:	e8 c2 1e ff ff       	callq  66f3 <transparent_crc>
   14831:	0f b6 05 30 53 00 00 	movzbl 0x5330(%rip),%eax        # 19b68 <g_1655>
   14838:	0f b6 c0             	movzbl %al,%eax
   1483b:	8b 55 fc             	mov    -0x4(%rbp),%edx
   1483e:	48 8d 35 70 1a 00 00 	lea    0x1a70(%rip),%rsi        # 162b5 <g_1978+0x1235>
   14845:	48 89 c7             	mov    %rax,%rdi
   14848:	e8 a6 1e ff ff       	callq  66f3 <transparent_crc>
   1484d:	0f b6 05 14 53 00 00 	movzbl 0x5314(%rip),%eax        # 19b68 <g_1655>
   14854:	0f b6 c0             	movzbl %al,%eax
   14857:	8b 55 fc             	mov    -0x4(%rbp),%edx
   1485a:	48 8d 35 5e 1a 00 00 	lea    0x1a5e(%rip),%rsi        # 162bf <g_1978+0x123f>
   14861:	48 89 c7             	mov    %rax,%rdi
   14864:	e8 8a 1e ff ff       	callq  66f3 <transparent_crc>
   14869:	8b 05 01 53 00 00    	mov    0x5301(%rip),%eax        # 19b70 <g_1702>
   1486f:	48 98                	cltq   
   14871:	8b 55 fc             	mov    -0x4(%rbp),%edx
   14874:	48 8d 35 4e 1a 00 00 	lea    0x1a4e(%rip),%rsi        # 162c9 <g_1978+0x1249>
   1487b:	48 89 c7             	mov    %rax,%rdi
   1487e:	e8 70 1e ff ff       	callq  66f3 <transparent_crc>
   14883:	8b 05 eb 52 00 00    	mov    0x52eb(%rip),%eax        # 19b74 <g_1703>
   14889:	48 98                	cltq   
   1488b:	8b 55 fc             	mov    -0x4(%rbp),%edx
   1488e:	48 8d 35 3b 1a 00 00 	lea    0x1a3b(%rip),%rsi        # 162d0 <g_1978+0x1250>
   14895:	48 89 c7             	mov    %rax,%rdi
   14898:	e8 56 1e ff ff       	callq  66f3 <transparent_crc>
   1489d:	8b 05 d5 52 00 00    	mov    0x52d5(%rip),%eax        # 19b78 <g_1704>
   148a3:	48 98                	cltq   
   148a5:	8b 55 fc             	mov    -0x4(%rbp),%edx
   148a8:	48 8d 35 28 1a 00 00 	lea    0x1a28(%rip),%rsi        # 162d7 <g_1978+0x1257>
   148af:	48 89 c7             	mov    %rax,%rdi
   148b2:	e8 3c 1e ff ff       	callq  66f3 <transparent_crc>
   148b7:	c7 45 f0 00 00 00 00 	movl   $0x0,-0x10(%rbp)
   148be:	eb 75                	jmp    14935 <main+0x101d>
   148c0:	c7 45 f4 00 00 00 00 	movl   $0x0,-0xc(%rbp)
   148c7:	eb 62                	jmp    1492b <main+0x1013>
   148c9:	8b 45 f4             	mov    -0xc(%rbp),%eax
   148cc:	48 63 c8             	movslq %eax,%rcx
   148cf:	8b 45 f0             	mov    -0x10(%rbp),%eax
   148d2:	48 63 d0             	movslq %eax,%rdx
   148d5:	48 89 d0             	mov    %rdx,%rax
   148d8:	48 c1 e0 03          	shl    $0x3,%rax
   148dc:	48 29 d0             	sub    %rdx,%rax
   148df:	48 01 c8             	add    %rcx,%rax
   148e2:	48 8d 14 85 00 00 00 	lea    0x0(,%rax,4),%rdx
   148e9:	00 
   148ea:	48 8d 05 8f 52 00 00 	lea    0x528f(%rip),%rax        # 19b80 <g_1705>
   148f1:	8b 04 02             	mov    (%rdx,%rax,1),%eax
   148f4:	48 98                	cltq   
   148f6:	8b 55 fc             	mov    -0x4(%rbp),%edx
   148f9:	48 8d 35 de 19 00 00 	lea    0x19de(%rip),%rsi        # 162de <g_1978+0x125e>
   14900:	48 89 c7             	mov    %rax,%rdi
   14903:	e8 eb 1d ff ff       	callq  66f3 <transparent_crc>
   14908:	83 7d fc 00          	cmpl   $0x0,-0x4(%rbp)
   1490c:	74 19                	je     14927 <main+0x100f>
   1490e:	8b 55 f4             	mov    -0xc(%rbp),%edx
   14911:	8b 45 f0             	mov    -0x10(%rbp),%eax
   14914:	89 c6                	mov    %eax,%esi
   14916:	48 8d 3d 09 19 00 00 	lea    0x1909(%rip),%rdi        # 16226 <g_1978+0x11a6>
   1491d:	b8 00 00 00 00       	mov    $0x0,%eax
   14922:	e8 59 07 ff ff       	callq  5080 <printf@plt>
   14927:	83 45 f4 01          	addl   $0x1,-0xc(%rbp)
   1492b:	83 7d f4 06          	cmpl   $0x6,-0xc(%rbp)
   1492f:	7e 98                	jle    148c9 <main+0xfb1>
   14931:	83 45 f0 01          	addl   $0x1,-0x10(%rbp)
   14935:	83 7d f0 09          	cmpl   $0x9,-0x10(%rbp)
   14939:	7e 85                	jle    148c0 <main+0xfa8>
   1493b:	8b 05 d7 73 00 00    	mov    0x73d7(%rip),%eax        # 1bd18 <g_1706>
   14941:	48 98                	cltq   
   14943:	8b 55 fc             	mov    -0x4(%rbp),%edx
   14946:	48 8d 35 9e 19 00 00 	lea    0x199e(%rip),%rsi        # 162eb <g_1978+0x126b>
   1494d:	48 89 c7             	mov    %rax,%rdi
   14950:	e8 9e 1d ff ff       	callq  66f3 <transparent_crc>
   14955:	8b 05 3d 53 00 00    	mov    0x533d(%rip),%eax        # 19c98 <g_1707>
   1495b:	48 98                	cltq   
   1495d:	8b 55 fc             	mov    -0x4(%rbp),%edx
   14960:	48 8d 35 8b 19 00 00 	lea    0x198b(%rip),%rsi        # 162f2 <g_1978+0x1272>
   14967:	48 89 c7             	mov    %rax,%rdi
   1496a:	e8 84 1d ff ff       	callq  66f3 <transparent_crc>
   1496f:	8b 05 a7 73 00 00    	mov    0x73a7(%rip),%eax        # 1bd1c <g_1708>
   14975:	48 98                	cltq   
   14977:	8b 55 fc             	mov    -0x4(%rbp),%edx
   1497a:	48 8d 35 78 19 00 00 	lea    0x1978(%rip),%rsi        # 162f9 <g_1978+0x1279>
   14981:	48 89 c7             	mov    %rax,%rdi
   14984:	e8 6a 1d ff ff       	callq  66f3 <transparent_crc>
   14989:	8b 05 0d 53 00 00    	mov    0x530d(%rip),%eax        # 19c9c <g_1709>
   1498f:	48 98                	cltq   
   14991:	8b 55 fc             	mov    -0x4(%rbp),%edx
   14994:	48 8d 35 65 19 00 00 	lea    0x1965(%rip),%rsi        # 16300 <g_1978+0x1280>
   1499b:	48 89 c7             	mov    %rax,%rdi
   1499e:	e8 50 1d ff ff       	callq  66f3 <transparent_crc>
   149a3:	8b 05 f7 52 00 00    	mov    0x52f7(%rip),%eax        # 19ca0 <g_1710>
   149a9:	48 98                	cltq   
   149ab:	8b 55 fc             	mov    -0x4(%rbp),%edx
   149ae:	48 8d 35 52 19 00 00 	lea    0x1952(%rip),%rsi        # 16307 <g_1978+0x1287>
   149b5:	48 89 c7             	mov    %rax,%rdi
   149b8:	e8 36 1d ff ff       	callq  66f3 <transparent_crc>
   149bd:	c7 45 f0 00 00 00 00 	movl   $0x0,-0x10(%rbp)
   149c4:	eb 4b                	jmp    14a11 <main+0x10f9>
   149c6:	8b 45 f0             	mov    -0x10(%rbp),%eax
   149c9:	48 98                	cltq   
   149cb:	48 8d 14 85 00 00 00 	lea    0x0(,%rax,4),%rdx
   149d2:	00 
   149d3:	48 8d 05 ce 52 00 00 	lea    0x52ce(%rip),%rax        # 19ca8 <g_1711>
   149da:	8b 04 02             	mov    (%rdx,%rax,1),%eax
   149dd:	48 98                	cltq   
   149df:	8b 55 fc             	mov    -0x4(%rbp),%edx
   149e2:	48 8d 35 25 19 00 00 	lea    0x1925(%rip),%rsi        # 1630e <g_1978+0x128e>
   149e9:	48 89 c7             	mov    %rax,%rdi
   149ec:	e8 02 1d ff ff       	callq  66f3 <transparent_crc>
   149f1:	83 7d fc 00          	cmpl   $0x0,-0x4(%rbp)
   149f5:	74 16                	je     14a0d <main+0x10f5>
   149f7:	8b 45 f0             	mov    -0x10(%rbp),%eax
   149fa:	89 c6                	mov    %eax,%esi
   149fc:	48 8d 3d 28 17 00 00 	lea    0x1728(%rip),%rdi        # 1612b <g_1978+0x10ab>
   14a03:	b8 00 00 00 00       	mov    $0x0,%eax
   14a08:	e8 73 06 ff ff       	callq  5080 <printf@plt>
   14a0d:	83 45 f0 01          	addl   $0x1,-0x10(%rbp)
   14a11:	83 7d f0 02          	cmpl   $0x2,-0x10(%rbp)
   14a15:	7e af                	jle    149c6 <main+0x10ae>
   14a17:	c7 45 f0 00 00 00 00 	movl   $0x0,-0x10(%rbp)
   14a1e:	eb 4b                	jmp    14a6b <main+0x1153>
   14a20:	8b 45 f0             	mov    -0x10(%rbp),%eax
   14a23:	48 98                	cltq   
   14a25:	48 8d 14 85 00 00 00 	lea    0x0(,%rax,4),%rdx
   14a2c:	00 
   14a2d:	48 8d 05 84 52 00 00 	lea    0x5284(%rip),%rax        # 19cb8 <g_1808>
   14a34:	8b 04 02             	mov    (%rdx,%rax,1),%eax
   14a37:	48 98                	cltq   
   14a39:	8b 55 fc             	mov    -0x4(%rbp),%edx
   14a3c:	48 8d 35 d5 18 00 00 	lea    0x18d5(%rip),%rsi        # 16318 <g_1978+0x1298>
   14a43:	48 89 c7             	mov    %rax,%rdi
   14a46:	e8 a8 1c ff ff       	callq  66f3 <transparent_crc>
   14a4b:	83 7d fc 00          	cmpl   $0x0,-0x4(%rbp)
   14a4f:	74 16                	je     14a67 <main+0x114f>
   14a51:	8b 45 f0             	mov    -0x10(%rbp),%eax
   14a54:	89 c6                	mov    %eax,%esi
   14a56:	48 8d 3d ce 16 00 00 	lea    0x16ce(%rip),%rdi        # 1612b <g_1978+0x10ab>
   14a5d:	b8 00 00 00 00       	mov    $0x0,%eax
   14a62:	e8 19 06 ff ff       	callq  5080 <printf@plt>
   14a67:	83 45 f0 01          	addl   $0x1,-0x10(%rbp)
   14a6b:	83 7d f0 02          	cmpl   $0x2,-0x10(%rbp)
   14a6f:	7e af                	jle    14a20 <main+0x1108>
   14a71:	8b 05 4d 52 00 00    	mov    0x524d(%rip),%eax        # 19cc4 <g_1809>
   14a77:	48 98                	cltq   
   14a79:	8b 55 fc             	mov    -0x4(%rbp),%edx
   14a7c:	48 8d 35 9f 18 00 00 	lea    0x189f(%rip),%rsi        # 16322 <g_1978+0x12a2>
   14a83:	48 89 c7             	mov    %rax,%rdi
   14a86:	e8 68 1c ff ff       	callq  66f3 <transparent_crc>
   14a8b:	c7 45 f0 00 00 00 00 	movl   $0x0,-0x10(%rbp)
   14a92:	eb 6c                	jmp    14b00 <main+0x11e8>
   14a94:	c7 45 f4 00 00 00 00 	movl   $0x0,-0xc(%rbp)
   14a9b:	eb 59                	jmp    14af6 <main+0x11de>
   14a9d:	8b 45 f4             	mov    -0xc(%rbp),%eax
   14aa0:	48 63 d0             	movslq %eax,%rdx
   14aa3:	8b 45 f0             	mov    -0x10(%rbp),%eax
   14aa6:	48 98                	cltq   
   14aa8:	48 01 d0             	add    %rdx,%rax
   14aab:	48 8d 14 85 00 00 00 	lea    0x0(,%rax,4),%rdx
   14ab2:	00 
   14ab3:	48 8d 05 c6 05 00 00 	lea    0x5c6(%rip),%rax        # 15080 <g_1978>
   14aba:	8b 04 02             	mov    (%rdx,%rax,1),%eax
   14abd:	89 c1                	mov    %eax,%ecx
   14abf:	8b 45 fc             	mov    -0x4(%rbp),%eax
   14ac2:	89 c2                	mov    %eax,%edx
   14ac4:	48 8d 35 5e 18 00 00 	lea    0x185e(%rip),%rsi        # 16329 <g_1978+0x12a9>
   14acb:	48 89 cf             	mov    %rcx,%rdi
   14ace:	e8 20 1c ff ff       	callq  66f3 <transparent_crc>
   14ad3:	83 7d fc 00          	cmpl   $0x0,-0x4(%rbp)
   14ad7:	74 19                	je     14af2 <main+0x11da>
   14ad9:	8b 55 f4             	mov    -0xc(%rbp),%edx
   14adc:	8b 45 f0             	mov    -0x10(%rbp),%eax
   14adf:	89 c6                	mov    %eax,%esi
   14ae1:	48 8d 3d 3e 17 00 00 	lea    0x173e(%rip),%rdi        # 16226 <g_1978+0x11a6>
   14ae8:	b8 00 00 00 00       	mov    $0x0,%eax
   14aed:	e8 8e 05 ff ff       	callq  5080 <printf@plt>
   14af2:	83 45 f4 01          	addl   $0x1,-0xc(%rbp)
   14af6:	83 7d f4 00          	cmpl   $0x0,-0xc(%rbp)
   14afa:	7e a1                	jle    14a9d <main+0x1185>
   14afc:	83 45 f0 01          	addl   $0x1,-0x10(%rbp)
   14b00:	83 7d f0 08          	cmpl   $0x8,-0x10(%rbp)
   14b04:	7e 8e                	jle    14a94 <main+0x117c>
   14b06:	0f b6 05 bb 51 00 00 	movzbl 0x51bb(%rip),%eax        # 19cc8 <g_2051>
   14b0d:	0f b6 c0             	movzbl %al,%eax
   14b10:	8b 55 fc             	mov    -0x4(%rbp),%edx
   14b13:	48 8d 35 1c 18 00 00 	lea    0x181c(%rip),%rsi        # 16336 <g_1978+0x12b6>
   14b1a:	48 89 c7             	mov    %rax,%rdi
   14b1d:	e8 d1 1b ff ff       	callq  66f3 <transparent_crc>
   14b22:	0f b6 05 9f 51 00 00 	movzbl 0x519f(%rip),%eax        # 19cc8 <g_2051>
   14b29:	0f b6 c0             	movzbl %al,%eax
   14b2c:	8b 55 fc             	mov    -0x4(%rbp),%edx
   14b2f:	48 8d 35 0a 18 00 00 	lea    0x180a(%rip),%rsi        # 16340 <g_1978+0x12c0>
   14b36:	48 89 c7             	mov    %rax,%rdi
   14b39:	e8 b5 1b ff ff       	callq  66f3 <transparent_crc>
   14b3e:	0f b6 05 8b 51 00 00 	movzbl 0x518b(%rip),%eax        # 19cd0 <g_2058>
   14b45:	0f b6 c0             	movzbl %al,%eax
   14b48:	8b 55 fc             	mov    -0x4(%rbp),%edx
   14b4b:	48 8d 35 f8 17 00 00 	lea    0x17f8(%rip),%rsi        # 1634a <g_1978+0x12ca>
   14b52:	48 89 c7             	mov    %rax,%rdi
   14b55:	e8 99 1b ff ff       	callq  66f3 <transparent_crc>
   14b5a:	0f b6 05 6f 51 00 00 	movzbl 0x516f(%rip),%eax        # 19cd0 <g_2058>
   14b61:	0f b6 c0             	movzbl %al,%eax
   14b64:	8b 55 fc             	mov    -0x4(%rbp),%edx
   14b67:	48 8d 35 e6 17 00 00 	lea    0x17e6(%rip),%rsi        # 16354 <g_1978+0x12d4>
   14b6e:	48 89 c7             	mov    %rax,%rdi
   14b71:	e8 7d 1b ff ff       	callq  66f3 <transparent_crc>
   14b76:	0f b6 05 5b 51 00 00 	movzbl 0x515b(%rip),%eax        # 19cd8 <g_2068>
   14b7d:	0f b6 c0             	movzbl %al,%eax
   14b80:	8b 55 fc             	mov    -0x4(%rbp),%edx
   14b83:	48 8d 35 d4 17 00 00 	lea    0x17d4(%rip),%rsi        # 1635e <g_1978+0x12de>
   14b8a:	48 89 c7             	mov    %rax,%rdi
   14b8d:	e8 61 1b ff ff       	callq  66f3 <transparent_crc>
   14b92:	0f b6 05 3f 51 00 00 	movzbl 0x513f(%rip),%eax        # 19cd8 <g_2068>
   14b99:	0f b6 c0             	movzbl %al,%eax
   14b9c:	8b 55 fc             	mov    -0x4(%rbp),%edx
   14b9f:	48 8d 35 c2 17 00 00 	lea    0x17c2(%rip),%rsi        # 16368 <g_1978+0x12e8>
   14ba6:	48 89 c7             	mov    %rax,%rdi
   14ba9:	e8 45 1b ff ff       	callq  66f3 <transparent_crc>
   14bae:	48 8b 05 2b 51 00 00 	mov    0x512b(%rip),%rax        # 19ce0 <g_2074>
   14bb5:	8b 55 fc             	mov    -0x4(%rbp),%edx
   14bb8:	48 8d 35 b3 17 00 00 	lea    0x17b3(%rip),%rsi        # 16372 <g_1978+0x12f2>
   14bbf:	48 89 c7             	mov    %rax,%rdi
   14bc2:	e8 2c 1b ff ff       	callq  66f3 <transparent_crc>
   14bc7:	0f b6 05 1a 51 00 00 	movzbl 0x511a(%rip),%eax        # 19ce8 <g_2080>
   14bce:	0f b6 c0             	movzbl %al,%eax
   14bd1:	8b 55 fc             	mov    -0x4(%rbp),%edx
   14bd4:	48 8d 35 9e 17 00 00 	lea    0x179e(%rip),%rsi        # 16379 <g_1978+0x12f9>
   14bdb:	48 89 c7             	mov    %rax,%rdi
   14bde:	e8 10 1b ff ff       	callq  66f3 <transparent_crc>
   14be3:	0f b6 05 fe 50 00 00 	movzbl 0x50fe(%rip),%eax        # 19ce8 <g_2080>
   14bea:	0f b6 c0             	movzbl %al,%eax
   14bed:	8b 55 fc             	mov    -0x4(%rbp),%edx
   14bf0:	48 8d 35 8c 17 00 00 	lea    0x178c(%rip),%rsi        # 16383 <g_1978+0x1303>
   14bf7:	48 89 c7             	mov    %rax,%rdi
   14bfa:	e8 f4 1a ff ff       	callq  66f3 <transparent_crc>
   14bff:	0f b6 05 ea 50 00 00 	movzbl 0x50ea(%rip),%eax        # 19cf0 <g_2123>
   14c06:	0f b6 c0             	movzbl %al,%eax
   14c09:	8b 55 fc             	mov    -0x4(%rbp),%edx
   14c0c:	48 8d 35 7a 17 00 00 	lea    0x177a(%rip),%rsi        # 1638d <g_1978+0x130d>
   14c13:	48 89 c7             	mov    %rax,%rdi
   14c16:	e8 d8 1a ff ff       	callq  66f3 <transparent_crc>
   14c1b:	8b 05 ff 43 00 00    	mov    0x43ff(%rip),%eax        # 19020 <crc32_context>
   14c21:	f7 d0                	not    %eax
   14c23:	89 c2                	mov    %eax,%edx
   14c25:	8b 45 fc             	mov    -0x4(%rbp),%eax
   14c28:	89 c6                	mov    %eax,%esi
   14c2a:	89 d7                	mov    %edx,%edi
   14c2c:	e8 63 05 ff ff       	callq  5194 <platform_main_end>
   14c31:	b8 00 00 00 00       	mov    $0x0,%eax
   14c36:	c9                   	leaveq 
   14c37:	c3                   	retq   
   14c38:	0f 1f 84 00 00 00 00 	nopl   0x0(%rax,%rax,1)
   14c3f:	00 

0000000000014c40 <__libc_csu_init>:
   14c40:	f3 0f 1e fa          	endbr64 
   14c44:	41 57                	push   %r15
   14c46:	4c 8d 3d 43 40 00 00 	lea    0x4043(%rip),%r15        # 18c90 <__frame_dummy_init_array_entry>
   14c4d:	41 56                	push   %r14
   14c4f:	49 89 d6             	mov    %rdx,%r14
   14c52:	41 55                	push   %r13
   14c54:	49 89 f5             	mov    %rsi,%r13
   14c57:	41 54                	push   %r12
   14c59:	41 89 fc             	mov    %edi,%r12d
   14c5c:	55                   	push   %rbp
   14c5d:	48 8d 2d 34 40 00 00 	lea    0x4034(%rip),%rbp        # 18c98 <__do_global_dtors_aux_fini_array_entry>
   14c64:	53                   	push   %rbx
   14c65:	4c 29 fd             	sub    %r15,%rbp
   14c68:	48 83 ec 08          	sub    $0x8,%rsp
   14c6c:	e8 8f 03 ff ff       	callq  5000 <_init>
   14c71:	48 c1 fd 03          	sar    $0x3,%rbp
   14c75:	74 1f                	je     14c96 <__libc_csu_init+0x56>
   14c77:	31 db                	xor    %ebx,%ebx
   14c79:	0f 1f 80 00 00 00 00 	nopl   0x0(%rax)
   14c80:	4c 89 f2             	mov    %r14,%rdx
   14c83:	4c 89 ee             	mov    %r13,%rsi
   14c86:	44 89 e7             	mov    %r12d,%edi
   14c89:	41 ff 14 df          	callq  *(%r15,%rbx,8)
   14c8d:	48 83 c3 01          	add    $0x1,%rbx
   14c91:	48 39 dd             	cmp    %rbx,%rbp
   14c94:	75 ea                	jne    14c80 <__libc_csu_init+0x40>
   14c96:	48 83 c4 08          	add    $0x8,%rsp
   14c9a:	5b                   	pop    %rbx
   14c9b:	5d                   	pop    %rbp
   14c9c:	41 5c                	pop    %r12
   14c9e:	41 5d                	pop    %r13
   14ca0:	41 5e                	pop    %r14
   14ca2:	41 5f                	pop    %r15
   14ca4:	c3                   	retq   
   14ca5:	66 66 2e 0f 1f 84 00 	data16 nopw %cs:0x0(%rax,%rax,1)
   14cac:	00 00 00 00 

0000000000014cb0 <__libc_csu_fini>:
   14cb0:	f3 0f 1e fa          	endbr64 
   14cb4:	c3                   	retq   
