


Disassembly of section .text:

00000000000060a0 <_start>:
    60a0:	f3 0f 1e fa          	endbr64 
    60a4:	31 ed                	xor    %ebp,%ebp
    60a6:	49 89 d1             	mov    %rdx,%r9
    60a9:	5e                   	pop    %rsi
    60aa:	48 89 e2             	mov    %rsp,%rdx
    60ad:	48 83 e4 f0          	and    $0xfffffffffffffff0,%rsp
    60b1:	50                   	push   %rax
    60b2:	54                   	push   %rsp
    60b3:	4c 8d 05 c6 cf 00 00 	lea    0xcfc6(%rip),%r8        # 13080 <__libc_csu_fini>
    60ba:	48 8d 0d 4f cf 00 00 	lea    0xcf4f(%rip),%rcx        # 13010 <__libc_csu_init>
    60c1:	48 8d 3d b4 c0 00 00 	lea    0xc0b4(%rip),%rdi        # 1217c <main>
    60c8:	ff 15 02 1f 01 00    	callq  *0x11f02(%rip)        # 17fd0 <__libc_start_main@GLIBC_2.2.5>
    60ce:	f4                   	hlt    
    60cf:	90                   	nop

00000000000060d0 <deregister_tm_clones>:
    60d0:	48 8d 3d 79 4f 01 00 	lea    0x14f79(%rip),%rdi        # 1b050 <__TMC_END__>
    60d7:	48 8d 05 72 4f 01 00 	lea    0x14f72(%rip),%rax        # 1b050 <__TMC_END__>
    60de:	48 39 f8             	cmp    %rdi,%rax
    60e1:	74 15                	je     60f8 <deregister_tm_clones+0x28>
    60e3:	48 8b 05 de 1e 01 00 	mov    0x11ede(%rip),%rax        # 17fc8 <_ITM_deregisterTMCloneTable>
    60ea:	48 85 c0             	test   %rax,%rax
    60ed:	74 09                	je     60f8 <deregister_tm_clones+0x28>
    60ef:	ff e0                	jmpq   *%rax
    60f1:	0f 1f 80 00 00 00 00 	nopl   0x0(%rax)
    60f8:	c3                   	retq   
    60f9:	0f 1f 80 00 00 00 00 	nopl   0x0(%rax)

0000000000006100 <register_tm_clones>:
    6100:	48 8d 3d 49 4f 01 00 	lea    0x14f49(%rip),%rdi        # 1b050 <__TMC_END__>
    6107:	48 8d 35 42 4f 01 00 	lea    0x14f42(%rip),%rsi        # 1b050 <__TMC_END__>
    610e:	48 29 fe             	sub    %rdi,%rsi
    6111:	48 89 f0             	mov    %rsi,%rax
    6114:	48 c1 ee 3f          	shr    $0x3f,%rsi
    6118:	48 c1 f8 03          	sar    $0x3,%rax
    611c:	48 01 c6             	add    %rax,%rsi
    611f:	48 d1 fe             	sar    %rsi
    6122:	74 14                	je     6138 <register_tm_clones+0x38>
    6124:	48 8b 05 b5 1e 01 00 	mov    0x11eb5(%rip),%rax        # 17fe0 <_ITM_registerTMCloneTable>
    612b:	48 85 c0             	test   %rax,%rax
    612e:	74 08                	je     6138 <register_tm_clones+0x38>
    6130:	ff e0                	jmpq   *%rax
    6132:	66 0f 1f 44 00 00    	nopw   0x0(%rax,%rax,1)
    6138:	c3                   	retq   
    6139:	0f 1f 80 00 00 00 00 	nopl   0x0(%rax)

0000000000006140 <__do_global_dtors_aux>:
    6140:	f3 0f 1e fa          	endbr64 
    6144:	80 3d 15 4f 01 00 00 	cmpb   $0x0,0x14f15(%rip)        # 1b060 <completed.8061>
    614b:	75 2b                	jne    6178 <__do_global_dtors_aux+0x38>
    614d:	55                   	push   %rbp
    614e:	48 83 3d 92 1e 01 00 	cmpq   $0x0,0x11e92(%rip)        # 17fe8 <__cxa_finalize@GLIBC_2.2.5>
    6155:	00 
    6156:	48 89 e5             	mov    %rsp,%rbp
    6159:	74 0c                	je     6167 <__do_global_dtors_aux+0x27>
    615b:	48 8b 3d a6 1e 01 00 	mov    0x11ea6(%rip),%rdi        # 18008 <__dso_handle>
    6162:	e8 f9 fe ff ff       	callq  6060 <__cxa_finalize@plt>
    6167:	e8 64 ff ff ff       	callq  60d0 <deregister_tm_clones>
    616c:	c6 05 ed 4e 01 00 01 	movb   $0x1,0x14eed(%rip)        # 1b060 <completed.8061>
    6173:	5d                   	pop    %rbp
    6174:	c3                   	retq   
    6175:	0f 1f 00             	nopl   (%rax)
    6178:	c3                   	retq   
    6179:	0f 1f 80 00 00 00 00 	nopl   0x0(%rax)

0000000000006180 <frame_dummy>:
    6180:	f3 0f 1e fa          	endbr64 
    6184:	e9 77 ff ff ff       	jmpq   6100 <register_tm_clones>

0000000000006189 <platform_main_begin>:
    6189:	f3 0f 1e fa          	endbr64 
    618d:	55                   	push   %rbp
    618e:	48 89 e5             	mov    %rsp,%rbp
    6191:	90                   	nop
    6192:	5d                   	pop    %rbp
    6193:	c3                   	retq   

0000000000006194 <platform_main_end>:
    6194:	f3 0f 1e fa          	endbr64 
    6198:	55                   	push   %rbp
    6199:	48 89 e5             	mov    %rsp,%rbp
    619c:	48 83 ec 10          	sub    $0x10,%rsp
    61a0:	89 7d fc             	mov    %edi,-0x4(%rbp)
    61a3:	89 75 f8             	mov    %esi,-0x8(%rbp)
    61a6:	8b 45 fc             	mov    -0x4(%rbp),%eax
    61a9:	89 c6                	mov    %eax,%esi
    61ab:	48 8d 3d 6e de 00 00 	lea    0xde6e(%rip),%rdi        # 14020 <_IO_stdin_used+0x20>
    61b2:	b8 00 00 00 00       	mov    $0x0,%eax
    61b7:	e8 c4 fe ff ff       	callq  6080 <printf@plt>
    61bc:	90                   	nop
    61bd:	c9                   	leaveq 
    61be:	c3                   	retq   

00000000000061bf <safe_unary_minus_func_int8_t_s>:
    61bf:	f3 0f 1e fa          	endbr64 
    61c3:	55                   	push   %rbp
    61c4:	48 89 e5             	mov    %rsp,%rbp
    61c7:	89 f8                	mov    %edi,%eax
    61c9:	88 45 fc             	mov    %al,-0x4(%rbp)
    61cc:	0f b6 45 fc          	movzbl -0x4(%rbp),%eax
    61d0:	f7 d8                	neg    %eax
    61d2:	5d                   	pop    %rbp
    61d3:	c3                   	retq   

00000000000061d4 <safe_add_func_int8_t_s_s>:
    61d4:	f3 0f 1e fa          	endbr64 
    61d8:	55                   	push   %rbp
    61d9:	48 89 e5             	mov    %rsp,%rbp
    61dc:	89 fa                	mov    %edi,%edx
    61de:	89 f0                	mov    %esi,%eax
    61e0:	88 55 fc             	mov    %dl,-0x4(%rbp)
    61e3:	88 45 f8             	mov    %al,-0x8(%rbp)
    61e6:	0f b6 55 fc          	movzbl -0x4(%rbp),%edx
    61ea:	0f b6 45 f8          	movzbl -0x8(%rbp),%eax
    61ee:	01 d0                	add    %edx,%eax
    61f0:	5d                   	pop    %rbp
    61f1:	c3                   	retq   

00000000000061f2 <safe_sub_func_int8_t_s_s>:
    61f2:	f3 0f 1e fa          	endbr64 
    61f6:	55                   	push   %rbp
    61f7:	48 89 e5             	mov    %rsp,%rbp
    61fa:	89 fa                	mov    %edi,%edx
    61fc:	89 f0                	mov    %esi,%eax
    61fe:	88 55 fc             	mov    %dl,-0x4(%rbp)
    6201:	88 45 f8             	mov    %al,-0x8(%rbp)
    6204:	0f b6 55 fc          	movzbl -0x4(%rbp),%edx
    6208:	0f b6 45 f8          	movzbl -0x8(%rbp),%eax
    620c:	29 c2                	sub    %eax,%edx
    620e:	89 d0                	mov    %edx,%eax
    6210:	5d                   	pop    %rbp
    6211:	c3                   	retq   

0000000000006212 <safe_mul_func_int8_t_s_s>:
    6212:	f3 0f 1e fa          	endbr64 
    6216:	55                   	push   %rbp
    6217:	48 89 e5             	mov    %rsp,%rbp
    621a:	89 fa                	mov    %edi,%edx
    621c:	89 f0                	mov    %esi,%eax
    621e:	88 55 fc             	mov    %dl,-0x4(%rbp)
    6221:	88 45 f8             	mov    %al,-0x8(%rbp)
    6224:	0f b6 45 fc          	movzbl -0x4(%rbp),%eax
    6228:	0f b6 55 f8          	movzbl -0x8(%rbp),%edx
    622c:	0f af c2             	imul   %edx,%eax
    622f:	5d                   	pop    %rbp
    6230:	c3                   	retq   

0000000000006231 <safe_mod_func_int8_t_s_s>:
    6231:	f3 0f 1e fa          	endbr64 
    6235:	55                   	push   %rbp
    6236:	48 89 e5             	mov    %rsp,%rbp
    6239:	89 fa                	mov    %edi,%edx
    623b:	89 f0                	mov    %esi,%eax
    623d:	88 55 fc             	mov    %dl,-0x4(%rbp)
    6240:	88 45 f8             	mov    %al,-0x8(%rbp)
    6243:	80 7d f8 00          	cmpb   $0x0,-0x8(%rbp)
    6247:	74 1b                	je     6264 <safe_mod_func_int8_t_s_s+0x33>
    6249:	80 7d fc 80          	cmpb   $0x80,-0x4(%rbp)
    624d:	75 06                	jne    6255 <safe_mod_func_int8_t_s_s+0x24>
    624f:	80 7d f8 ff          	cmpb   $0xff,-0x8(%rbp)
    6253:	74 0f                	je     6264 <safe_mod_func_int8_t_s_s+0x33>
    6255:	0f be 45 fc          	movsbl -0x4(%rbp),%eax
    6259:	0f be 4d f8          	movsbl -0x8(%rbp),%ecx
    625d:	99                   	cltd   
    625e:	f7 f9                	idiv   %ecx
    6260:	89 d0                	mov    %edx,%eax
    6262:	eb 04                	jmp    6268 <safe_mod_func_int8_t_s_s+0x37>
    6264:	0f b6 45 fc          	movzbl -0x4(%rbp),%eax
    6268:	5d                   	pop    %rbp
    6269:	c3                   	retq   

000000000000626a <safe_div_func_int8_t_s_s>:
    626a:	f3 0f 1e fa          	endbr64 
    626e:	55                   	push   %rbp
    626f:	48 89 e5             	mov    %rsp,%rbp
    6272:	89 fa                	mov    %edi,%edx
    6274:	89 f0                	mov    %esi,%eax
    6276:	88 55 fc             	mov    %dl,-0x4(%rbp)
    6279:	88 45 f8             	mov    %al,-0x8(%rbp)
    627c:	80 7d f8 00          	cmpb   $0x0,-0x8(%rbp)
    6280:	74 19                	je     629b <safe_div_func_int8_t_s_s+0x31>
    6282:	80 7d fc 80          	cmpb   $0x80,-0x4(%rbp)
    6286:	75 06                	jne    628e <safe_div_func_int8_t_s_s+0x24>
    6288:	80 7d f8 ff          	cmpb   $0xff,-0x8(%rbp)
    628c:	74 0d                	je     629b <safe_div_func_int8_t_s_s+0x31>
    628e:	0f be 45 fc          	movsbl -0x4(%rbp),%eax
    6292:	0f be 4d f8          	movsbl -0x8(%rbp),%ecx
    6296:	99                   	cltd   
    6297:	f7 f9                	idiv   %ecx
    6299:	eb 04                	jmp    629f <safe_div_func_int8_t_s_s+0x35>
    629b:	0f b6 45 fc          	movzbl -0x4(%rbp),%eax
    629f:	5d                   	pop    %rbp
    62a0:	c3                   	retq   

00000000000062a1 <safe_lshift_func_int8_t_s_s>:
    62a1:	f3 0f 1e fa          	endbr64 
    62a5:	55                   	push   %rbp
    62a6:	48 89 e5             	mov    %rsp,%rbp
    62a9:	89 f8                	mov    %edi,%eax
    62ab:	89 75 f8             	mov    %esi,-0x8(%rbp)
    62ae:	88 45 fc             	mov    %al,-0x4(%rbp)
    62b1:	80 7d fc 00          	cmpb   $0x0,-0x4(%rbp)
    62b5:	78 31                	js     62e8 <safe_lshift_func_int8_t_s_s+0x47>
    62b7:	83 7d f8 00          	cmpl   $0x0,-0x8(%rbp)
    62bb:	78 2b                	js     62e8 <safe_lshift_func_int8_t_s_s+0x47>
    62bd:	83 7d f8 1f          	cmpl   $0x1f,-0x8(%rbp)
    62c1:	7f 25                	jg     62e8 <safe_lshift_func_int8_t_s_s+0x47>
    62c3:	0f be 55 fc          	movsbl -0x4(%rbp),%edx
    62c7:	8b 45 f8             	mov    -0x8(%rbp),%eax
    62ca:	be 7f 00 00 00       	mov    $0x7f,%esi
    62cf:	89 c1                	mov    %eax,%ecx
    62d1:	d3 fe                	sar    %cl,%esi
    62d3:	89 f0                	mov    %esi,%eax
    62d5:	39 c2                	cmp    %eax,%edx
    62d7:	7f 0f                	jg     62e8 <safe_lshift_func_int8_t_s_s+0x47>
    62d9:	0f be 55 fc          	movsbl -0x4(%rbp),%edx
    62dd:	8b 45 f8             	mov    -0x8(%rbp),%eax
    62e0:	89 c1                	mov    %eax,%ecx
    62e2:	d3 e2                	shl    %cl,%edx
    62e4:	89 d0                	mov    %edx,%eax
    62e6:	eb 04                	jmp    62ec <safe_lshift_func_int8_t_s_s+0x4b>
    62e8:	0f b6 45 fc          	movzbl -0x4(%rbp),%eax
    62ec:	5d                   	pop    %rbp
    62ed:	c3                   	retq   

00000000000062ee <safe_lshift_func_int8_t_s_u>:
    62ee:	f3 0f 1e fa          	endbr64 
    62f2:	55                   	push   %rbp
    62f3:	48 89 e5             	mov    %rsp,%rbp
    62f6:	89 f8                	mov    %edi,%eax
    62f8:	89 75 f8             	mov    %esi,-0x8(%rbp)
    62fb:	88 45 fc             	mov    %al,-0x4(%rbp)
    62fe:	80 7d fc 00          	cmpb   $0x0,-0x4(%rbp)
    6302:	78 2b                	js     632f <safe_lshift_func_int8_t_s_u+0x41>
    6304:	83 7d f8 1f          	cmpl   $0x1f,-0x8(%rbp)
    6308:	77 25                	ja     632f <safe_lshift_func_int8_t_s_u+0x41>
    630a:	0f be 55 fc          	movsbl -0x4(%rbp),%edx
    630e:	8b 45 f8             	mov    -0x8(%rbp),%eax
    6311:	be 7f 00 00 00       	mov    $0x7f,%esi
    6316:	89 c1                	mov    %eax,%ecx
    6318:	d3 fe                	sar    %cl,%esi
    631a:	89 f0                	mov    %esi,%eax
    631c:	39 c2                	cmp    %eax,%edx
    631e:	7f 0f                	jg     632f <safe_lshift_func_int8_t_s_u+0x41>
    6320:	0f be 55 fc          	movsbl -0x4(%rbp),%edx
    6324:	8b 45 f8             	mov    -0x8(%rbp),%eax
    6327:	89 c1                	mov    %eax,%ecx
    6329:	d3 e2                	shl    %cl,%edx
    632b:	89 d0                	mov    %edx,%eax
    632d:	eb 04                	jmp    6333 <safe_lshift_func_int8_t_s_u+0x45>
    632f:	0f b6 45 fc          	movzbl -0x4(%rbp),%eax
    6333:	5d                   	pop    %rbp
    6334:	c3                   	retq   

0000000000006335 <safe_rshift_func_int8_t_s_s>:
    6335:	f3 0f 1e fa          	endbr64 
    6339:	55                   	push   %rbp
    633a:	48 89 e5             	mov    %rsp,%rbp
    633d:	89 f8                	mov    %edi,%eax
    633f:	89 75 f8             	mov    %esi,-0x8(%rbp)
    6342:	88 45 fc             	mov    %al,-0x4(%rbp)
    6345:	80 7d fc 00          	cmpb   $0x0,-0x4(%rbp)
    6349:	78 1b                	js     6366 <safe_rshift_func_int8_t_s_s+0x31>
    634b:	83 7d f8 00          	cmpl   $0x0,-0x8(%rbp)
    634f:	78 15                	js     6366 <safe_rshift_func_int8_t_s_s+0x31>
    6351:	83 7d f8 1f          	cmpl   $0x1f,-0x8(%rbp)
    6355:	7f 0f                	jg     6366 <safe_rshift_func_int8_t_s_s+0x31>
    6357:	0f be 55 fc          	movsbl -0x4(%rbp),%edx
    635b:	8b 45 f8             	mov    -0x8(%rbp),%eax
    635e:	89 c1                	mov    %eax,%ecx
    6360:	d3 fa                	sar    %cl,%edx
    6362:	89 d0                	mov    %edx,%eax
    6364:	eb 04                	jmp    636a <safe_rshift_func_int8_t_s_s+0x35>
    6366:	0f b6 45 fc          	movzbl -0x4(%rbp),%eax
    636a:	5d                   	pop    %rbp
    636b:	c3                   	retq   

000000000000636c <safe_rshift_func_int8_t_s_u>:
    636c:	f3 0f 1e fa          	endbr64 
    6370:	55                   	push   %rbp
    6371:	48 89 e5             	mov    %rsp,%rbp
    6374:	89 f8                	mov    %edi,%eax
    6376:	89 75 f8             	mov    %esi,-0x8(%rbp)
    6379:	88 45 fc             	mov    %al,-0x4(%rbp)
    637c:	80 7d fc 00          	cmpb   $0x0,-0x4(%rbp)
    6380:	78 15                	js     6397 <safe_rshift_func_int8_t_s_u+0x2b>
    6382:	83 7d f8 1f          	cmpl   $0x1f,-0x8(%rbp)
    6386:	77 0f                	ja     6397 <safe_rshift_func_int8_t_s_u+0x2b>
    6388:	0f be 55 fc          	movsbl -0x4(%rbp),%edx
    638c:	8b 45 f8             	mov    -0x8(%rbp),%eax
    638f:	89 c1                	mov    %eax,%ecx
    6391:	d3 fa                	sar    %cl,%edx
    6393:	89 d0                	mov    %edx,%eax
    6395:	eb 04                	jmp    639b <safe_rshift_func_int8_t_s_u+0x2f>
    6397:	0f b6 45 fc          	movzbl -0x4(%rbp),%eax
    639b:	5d                   	pop    %rbp
    639c:	c3                   	retq   

000000000000639d <safe_unary_minus_func_int16_t_s>:
    639d:	f3 0f 1e fa          	endbr64 
    63a1:	55                   	push   %rbp
    63a2:	48 89 e5             	mov    %rsp,%rbp
    63a5:	89 f8                	mov    %edi,%eax
    63a7:	66 89 45 fc          	mov    %ax,-0x4(%rbp)
    63ab:	0f b7 45 fc          	movzwl -0x4(%rbp),%eax
    63af:	f7 d8                	neg    %eax
    63b1:	5d                   	pop    %rbp
    63b2:	c3                   	retq   

00000000000063b3 <safe_add_func_int16_t_s_s>:
    63b3:	f3 0f 1e fa          	endbr64 
    63b7:	55                   	push   %rbp
    63b8:	48 89 e5             	mov    %rsp,%rbp
    63bb:	89 fa                	mov    %edi,%edx
    63bd:	89 f0                	mov    %esi,%eax
    63bf:	66 89 55 fc          	mov    %dx,-0x4(%rbp)
    63c3:	66 89 45 f8          	mov    %ax,-0x8(%rbp)
    63c7:	0f b7 55 fc          	movzwl -0x4(%rbp),%edx
    63cb:	0f b7 45 f8          	movzwl -0x8(%rbp),%eax
    63cf:	01 d0                	add    %edx,%eax
    63d1:	5d                   	pop    %rbp
    63d2:	c3                   	retq   

00000000000063d3 <safe_sub_func_int16_t_s_s>:
    63d3:	f3 0f 1e fa          	endbr64 
    63d7:	55                   	push   %rbp
    63d8:	48 89 e5             	mov    %rsp,%rbp
    63db:	89 fa                	mov    %edi,%edx
    63dd:	89 f0                	mov    %esi,%eax
    63df:	66 89 55 fc          	mov    %dx,-0x4(%rbp)
    63e3:	66 89 45 f8          	mov    %ax,-0x8(%rbp)
    63e7:	0f b7 55 fc          	movzwl -0x4(%rbp),%edx
    63eb:	0f b7 45 f8          	movzwl -0x8(%rbp),%eax
    63ef:	29 c2                	sub    %eax,%edx
    63f1:	89 d0                	mov    %edx,%eax
    63f3:	5d                   	pop    %rbp
    63f4:	c3                   	retq   

00000000000063f5 <safe_mul_func_int16_t_s_s>:
    63f5:	f3 0f 1e fa          	endbr64 
    63f9:	55                   	push   %rbp
    63fa:	48 89 e5             	mov    %rsp,%rbp
    63fd:	89 fa                	mov    %edi,%edx
    63ff:	89 f0                	mov    %esi,%eax
    6401:	66 89 55 fc          	mov    %dx,-0x4(%rbp)
    6405:	66 89 45 f8          	mov    %ax,-0x8(%rbp)
    6409:	0f b7 55 fc          	movzwl -0x4(%rbp),%edx
    640d:	0f b7 45 f8          	movzwl -0x8(%rbp),%eax
    6411:	0f af c2             	imul   %edx,%eax
    6414:	5d                   	pop    %rbp
    6415:	c3                   	retq   

0000000000006416 <safe_mod_func_int16_t_s_s>:
    6416:	f3 0f 1e fa          	endbr64 
    641a:	55                   	push   %rbp
    641b:	48 89 e5             	mov    %rsp,%rbp
    641e:	89 fa                	mov    %edi,%edx
    6420:	89 f0                	mov    %esi,%eax
    6422:	66 89 55 fc          	mov    %dx,-0x4(%rbp)
    6426:	66 89 45 f8          	mov    %ax,-0x8(%rbp)
    642a:	66 83 7d f8 00       	cmpw   $0x0,-0x8(%rbp)
    642f:	74 1e                	je     644f <safe_mod_func_int16_t_s_s+0x39>
    6431:	66 81 7d fc 00 80    	cmpw   $0x8000,-0x4(%rbp)
    6437:	75 07                	jne    6440 <safe_mod_func_int16_t_s_s+0x2a>
    6439:	66 83 7d f8 ff       	cmpw   $0xffff,-0x8(%rbp)
    643e:	74 0f                	je     644f <safe_mod_func_int16_t_s_s+0x39>
    6440:	0f bf 45 fc          	movswl -0x4(%rbp),%eax
    6444:	0f bf 4d f8          	movswl -0x8(%rbp),%ecx
    6448:	99                   	cltd   
    6449:	f7 f9                	idiv   %ecx
    644b:	89 d0                	mov    %edx,%eax
    644d:	eb 04                	jmp    6453 <safe_mod_func_int16_t_s_s+0x3d>
    644f:	0f b7 45 fc          	movzwl -0x4(%rbp),%eax
    6453:	5d                   	pop    %rbp
    6454:	c3                   	retq   

0000000000006455 <safe_div_func_int16_t_s_s>:
    6455:	f3 0f 1e fa          	endbr64 
    6459:	55                   	push   %rbp
    645a:	48 89 e5             	mov    %rsp,%rbp
    645d:	89 fa                	mov    %edi,%edx
    645f:	89 f0                	mov    %esi,%eax
    6461:	66 89 55 fc          	mov    %dx,-0x4(%rbp)
    6465:	66 89 45 f8          	mov    %ax,-0x8(%rbp)
    6469:	66 83 7d f8 00       	cmpw   $0x0,-0x8(%rbp)
    646e:	74 1c                	je     648c <safe_div_func_int16_t_s_s+0x37>
    6470:	66 81 7d fc 00 80    	cmpw   $0x8000,-0x4(%rbp)
    6476:	75 07                	jne    647f <safe_div_func_int16_t_s_s+0x2a>
    6478:	66 83 7d f8 ff       	cmpw   $0xffff,-0x8(%rbp)
    647d:	74 0d                	je     648c <safe_div_func_int16_t_s_s+0x37>
    647f:	0f bf 45 fc          	movswl -0x4(%rbp),%eax
    6483:	0f bf 4d f8          	movswl -0x8(%rbp),%ecx
    6487:	99                   	cltd   
    6488:	f7 f9                	idiv   %ecx
    648a:	eb 04                	jmp    6490 <safe_div_func_int16_t_s_s+0x3b>
    648c:	0f b7 45 fc          	movzwl -0x4(%rbp),%eax
    6490:	5d                   	pop    %rbp
    6491:	c3                   	retq   

0000000000006492 <safe_lshift_func_int16_t_s_s>:
    6492:	f3 0f 1e fa          	endbr64 
    6496:	55                   	push   %rbp
    6497:	48 89 e5             	mov    %rsp,%rbp
    649a:	89 f8                	mov    %edi,%eax
    649c:	89 75 f8             	mov    %esi,-0x8(%rbp)
    649f:	66 89 45 fc          	mov    %ax,-0x4(%rbp)
    64a3:	66 83 7d fc 00       	cmpw   $0x0,-0x4(%rbp)
    64a8:	78 31                	js     64db <safe_lshift_func_int16_t_s_s+0x49>
    64aa:	83 7d f8 00          	cmpl   $0x0,-0x8(%rbp)
    64ae:	78 2b                	js     64db <safe_lshift_func_int16_t_s_s+0x49>
    64b0:	83 7d f8 1f          	cmpl   $0x1f,-0x8(%rbp)
    64b4:	7f 25                	jg     64db <safe_lshift_func_int16_t_s_s+0x49>
    64b6:	0f bf 55 fc          	movswl -0x4(%rbp),%edx
    64ba:	8b 45 f8             	mov    -0x8(%rbp),%eax
    64bd:	be ff 7f 00 00       	mov    $0x7fff,%esi
    64c2:	89 c1                	mov    %eax,%ecx
    64c4:	d3 fe                	sar    %cl,%esi
    64c6:	89 f0                	mov    %esi,%eax
    64c8:	39 c2                	cmp    %eax,%edx
    64ca:	7f 0f                	jg     64db <safe_lshift_func_int16_t_s_s+0x49>
    64cc:	0f bf 55 fc          	movswl -0x4(%rbp),%edx
    64d0:	8b 45 f8             	mov    -0x8(%rbp),%eax
    64d3:	89 c1                	mov    %eax,%ecx
    64d5:	d3 e2                	shl    %cl,%edx
    64d7:	89 d0                	mov    %edx,%eax
    64d9:	eb 04                	jmp    64df <safe_lshift_func_int16_t_s_s+0x4d>
    64db:	0f b7 45 fc          	movzwl -0x4(%rbp),%eax
    64df:	5d                   	pop    %rbp
    64e0:	c3                   	retq   

00000000000064e1 <safe_lshift_func_int16_t_s_u>:
    64e1:	f3 0f 1e fa          	endbr64 
    64e5:	55                   	push   %rbp
    64e6:	48 89 e5             	mov    %rsp,%rbp
    64e9:	89 f8                	mov    %edi,%eax
    64eb:	89 75 f8             	mov    %esi,-0x8(%rbp)
    64ee:	66 89 45 fc          	mov    %ax,-0x4(%rbp)
    64f2:	66 83 7d fc 00       	cmpw   $0x0,-0x4(%rbp)
    64f7:	78 2b                	js     6524 <safe_lshift_func_int16_t_s_u+0x43>
    64f9:	83 7d f8 1f          	cmpl   $0x1f,-0x8(%rbp)
    64fd:	77 25                	ja     6524 <safe_lshift_func_int16_t_s_u+0x43>
    64ff:	0f bf 55 fc          	movswl -0x4(%rbp),%edx
    6503:	8b 45 f8             	mov    -0x8(%rbp),%eax
    6506:	be ff 7f 00 00       	mov    $0x7fff,%esi
    650b:	89 c1                	mov    %eax,%ecx
    650d:	d3 fe                	sar    %cl,%esi
    650f:	89 f0                	mov    %esi,%eax
    6511:	39 c2                	cmp    %eax,%edx
    6513:	7f 0f                	jg     6524 <safe_lshift_func_int16_t_s_u+0x43>
    6515:	0f bf 55 fc          	movswl -0x4(%rbp),%edx
    6519:	8b 45 f8             	mov    -0x8(%rbp),%eax
    651c:	89 c1                	mov    %eax,%ecx
    651e:	d3 e2                	shl    %cl,%edx
    6520:	89 d0                	mov    %edx,%eax
    6522:	eb 04                	jmp    6528 <safe_lshift_func_int16_t_s_u+0x47>
    6524:	0f b7 45 fc          	movzwl -0x4(%rbp),%eax
    6528:	5d                   	pop    %rbp
    6529:	c3                   	retq   

000000000000652a <safe_rshift_func_int16_t_s_s>:
    652a:	f3 0f 1e fa          	endbr64 
    652e:	55                   	push   %rbp
    652f:	48 89 e5             	mov    %rsp,%rbp
    6532:	89 f8                	mov    %edi,%eax
    6534:	89 75 f8             	mov    %esi,-0x8(%rbp)
    6537:	66 89 45 fc          	mov    %ax,-0x4(%rbp)
    653b:	66 83 7d fc 00       	cmpw   $0x0,-0x4(%rbp)
    6540:	78 1b                	js     655d <safe_rshift_func_int16_t_s_s+0x33>
    6542:	83 7d f8 00          	cmpl   $0x0,-0x8(%rbp)
    6546:	78 15                	js     655d <safe_rshift_func_int16_t_s_s+0x33>
    6548:	83 7d f8 1f          	cmpl   $0x1f,-0x8(%rbp)
    654c:	7f 0f                	jg     655d <safe_rshift_func_int16_t_s_s+0x33>
    654e:	0f bf 55 fc          	movswl -0x4(%rbp),%edx
    6552:	8b 45 f8             	mov    -0x8(%rbp),%eax
    6555:	89 c1                	mov    %eax,%ecx
    6557:	d3 fa                	sar    %cl,%edx
    6559:	89 d0                	mov    %edx,%eax
    655b:	eb 04                	jmp    6561 <safe_rshift_func_int16_t_s_s+0x37>
    655d:	0f b7 45 fc          	movzwl -0x4(%rbp),%eax
    6561:	5d                   	pop    %rbp
    6562:	c3                   	retq   

0000000000006563 <safe_rshift_func_int16_t_s_u>:
    6563:	f3 0f 1e fa          	endbr64 
    6567:	55                   	push   %rbp
    6568:	48 89 e5             	mov    %rsp,%rbp
    656b:	89 f8                	mov    %edi,%eax
    656d:	89 75 f8             	mov    %esi,-0x8(%rbp)
    6570:	66 89 45 fc          	mov    %ax,-0x4(%rbp)
    6574:	66 83 7d fc 00       	cmpw   $0x0,-0x4(%rbp)
    6579:	78 15                	js     6590 <safe_rshift_func_int16_t_s_u+0x2d>
    657b:	83 7d f8 1f          	cmpl   $0x1f,-0x8(%rbp)
    657f:	77 0f                	ja     6590 <safe_rshift_func_int16_t_s_u+0x2d>
    6581:	0f bf 55 fc          	movswl -0x4(%rbp),%edx
    6585:	8b 45 f8             	mov    -0x8(%rbp),%eax
    6588:	89 c1                	mov    %eax,%ecx
    658a:	d3 fa                	sar    %cl,%edx
    658c:	89 d0                	mov    %edx,%eax
    658e:	eb 04                	jmp    6594 <safe_rshift_func_int16_t_s_u+0x31>
    6590:	0f b7 45 fc          	movzwl -0x4(%rbp),%eax
    6594:	5d                   	pop    %rbp
    6595:	c3                   	retq   

0000000000006596 <safe_unary_minus_func_int32_t_s>:
    6596:	f3 0f 1e fa          	endbr64 
    659a:	55                   	push   %rbp
    659b:	48 89 e5             	mov    %rsp,%rbp
    659e:	89 7d fc             	mov    %edi,-0x4(%rbp)
    65a1:	81 7d fc 00 00 00 80 	cmpl   $0x80000000,-0x4(%rbp)
    65a8:	74 07                	je     65b1 <safe_unary_minus_func_int32_t_s+0x1b>
    65aa:	8b 45 fc             	mov    -0x4(%rbp),%eax
    65ad:	f7 d8                	neg    %eax
    65af:	eb 03                	jmp    65b4 <safe_unary_minus_func_int32_t_s+0x1e>
    65b1:	8b 45 fc             	mov    -0x4(%rbp),%eax
    65b4:	5d                   	pop    %rbp
    65b5:	c3                   	retq   

00000000000065b6 <safe_add_func_int32_t_s_s>:
    65b6:	f3 0f 1e fa          	endbr64 
    65ba:	55                   	push   %rbp
    65bb:	48 89 e5             	mov    %rsp,%rbp
    65be:	89 7d fc             	mov    %edi,-0x4(%rbp)
    65c1:	89 75 f8             	mov    %esi,-0x8(%rbp)
    65c4:	83 7d fc 00          	cmpl   $0x0,-0x4(%rbp)
    65c8:	7e 13                	jle    65dd <safe_add_func_int32_t_s_s+0x27>
    65ca:	83 7d f8 00          	cmpl   $0x0,-0x8(%rbp)
    65ce:	7e 0d                	jle    65dd <safe_add_func_int32_t_s_s+0x27>
    65d0:	b8 ff ff ff 7f       	mov    $0x7fffffff,%eax
    65d5:	2b 45 f8             	sub    -0x8(%rbp),%eax
    65d8:	39 45 fc             	cmp    %eax,-0x4(%rbp)
    65db:	7f 23                	jg     6600 <safe_add_func_int32_t_s_s+0x4a>
    65dd:	83 7d fc 00          	cmpl   $0x0,-0x4(%rbp)
    65e1:	79 13                	jns    65f6 <safe_add_func_int32_t_s_s+0x40>
    65e3:	83 7d f8 00          	cmpl   $0x0,-0x8(%rbp)
    65e7:	79 0d                	jns    65f6 <safe_add_func_int32_t_s_s+0x40>
    65e9:	b8 00 00 00 80       	mov    $0x80000000,%eax
    65ee:	2b 45 f8             	sub    -0x8(%rbp),%eax
    65f1:	39 45 fc             	cmp    %eax,-0x4(%rbp)
    65f4:	7c 0a                	jl     6600 <safe_add_func_int32_t_s_s+0x4a>
    65f6:	8b 55 fc             	mov    -0x4(%rbp),%edx
    65f9:	8b 45 f8             	mov    -0x8(%rbp),%eax
    65fc:	01 d0                	add    %edx,%eax
    65fe:	eb 03                	jmp    6603 <safe_add_func_int32_t_s_s+0x4d>
    6600:	8b 45 fc             	mov    -0x4(%rbp),%eax
    6603:	5d                   	pop    %rbp
    6604:	c3                   	retq   

0000000000006605 <safe_sub_func_int32_t_s_s>:
    6605:	f3 0f 1e fa          	endbr64 
    6609:	55                   	push   %rbp
    660a:	48 89 e5             	mov    %rsp,%rbp
    660d:	89 7d fc             	mov    %edi,-0x4(%rbp)
    6610:	89 75 f8             	mov    %esi,-0x8(%rbp)
    6613:	8b 45 fc             	mov    -0x4(%rbp),%eax
    6616:	33 45 f8             	xor    -0x8(%rbp),%eax
    6619:	89 c2                	mov    %eax,%edx
    661b:	8b 45 fc             	mov    -0x4(%rbp),%eax
    661e:	33 45 f8             	xor    -0x8(%rbp),%eax
    6621:	25 00 00 00 80       	and    $0x80000000,%eax
    6626:	33 45 fc             	xor    -0x4(%rbp),%eax
    6629:	2b 45 f8             	sub    -0x8(%rbp),%eax
    662c:	33 45 f8             	xor    -0x8(%rbp),%eax
    662f:	21 d0                	and    %edx,%eax
    6631:	85 c0                	test   %eax,%eax
    6633:	78 08                	js     663d <safe_sub_func_int32_t_s_s+0x38>
    6635:	8b 45 fc             	mov    -0x4(%rbp),%eax
    6638:	2b 45 f8             	sub    -0x8(%rbp),%eax
    663b:	eb 03                	jmp    6640 <safe_sub_func_int32_t_s_s+0x3b>
    663d:	8b 45 fc             	mov    -0x4(%rbp),%eax
    6640:	5d                   	pop    %rbp
    6641:	c3                   	retq   

0000000000006642 <safe_mul_func_int32_t_s_s>:
    6642:	f3 0f 1e fa          	endbr64 
    6646:	55                   	push   %rbp
    6647:	48 89 e5             	mov    %rsp,%rbp
    664a:	89 7d fc             	mov    %edi,-0x4(%rbp)
    664d:	89 75 f8             	mov    %esi,-0x8(%rbp)
    6650:	83 7d fc 00          	cmpl   $0x0,-0x4(%rbp)
    6654:	7e 14                	jle    666a <safe_mul_func_int32_t_s_s+0x28>
    6656:	83 7d f8 00          	cmpl   $0x0,-0x8(%rbp)
    665a:	7e 0e                	jle    666a <safe_mul_func_int32_t_s_s+0x28>
    665c:	b8 ff ff ff 7f       	mov    $0x7fffffff,%eax
    6661:	99                   	cltd   
    6662:	f7 7d f8             	idivl  -0x8(%rbp)
    6665:	39 45 fc             	cmp    %eax,-0x4(%rbp)
    6668:	7f 5d                	jg     66c7 <safe_mul_func_int32_t_s_s+0x85>
    666a:	83 7d fc 00          	cmpl   $0x0,-0x4(%rbp)
    666e:	7e 14                	jle    6684 <safe_mul_func_int32_t_s_s+0x42>
    6670:	83 7d f8 00          	cmpl   $0x0,-0x8(%rbp)
    6674:	7f 0e                	jg     6684 <safe_mul_func_int32_t_s_s+0x42>
    6676:	b8 00 00 00 80       	mov    $0x80000000,%eax
    667b:	99                   	cltd   
    667c:	f7 7d fc             	idivl  -0x4(%rbp)
    667f:	39 45 f8             	cmp    %eax,-0x8(%rbp)
    6682:	7c 43                	jl     66c7 <safe_mul_func_int32_t_s_s+0x85>
    6684:	83 7d fc 00          	cmpl   $0x0,-0x4(%rbp)
    6688:	7f 14                	jg     669e <safe_mul_func_int32_t_s_s+0x5c>
    668a:	83 7d f8 00          	cmpl   $0x0,-0x8(%rbp)
    668e:	7e 0e                	jle    669e <safe_mul_func_int32_t_s_s+0x5c>
    6690:	b8 00 00 00 80       	mov    $0x80000000,%eax
    6695:	99                   	cltd   
    6696:	f7 7d f8             	idivl  -0x8(%rbp)
    6699:	39 45 fc             	cmp    %eax,-0x4(%rbp)
    669c:	7c 29                	jl     66c7 <safe_mul_func_int32_t_s_s+0x85>
    669e:	83 7d fc 00          	cmpl   $0x0,-0x4(%rbp)
    66a2:	7f 1a                	jg     66be <safe_mul_func_int32_t_s_s+0x7c>
    66a4:	83 7d f8 00          	cmpl   $0x0,-0x8(%rbp)
    66a8:	7f 14                	jg     66be <safe_mul_func_int32_t_s_s+0x7c>
    66aa:	83 7d fc 00          	cmpl   $0x0,-0x4(%rbp)
    66ae:	74 0e                	je     66be <safe_mul_func_int32_t_s_s+0x7c>
    66b0:	b8 ff ff ff 7f       	mov    $0x7fffffff,%eax
    66b5:	99                   	cltd   
    66b6:	f7 7d fc             	idivl  -0x4(%rbp)
    66b9:	39 45 f8             	cmp    %eax,-0x8(%rbp)
    66bc:	7c 09                	jl     66c7 <safe_mul_func_int32_t_s_s+0x85>
    66be:	8b 45 fc             	mov    -0x4(%rbp),%eax
    66c1:	0f af 45 f8          	imul   -0x8(%rbp),%eax
    66c5:	eb 03                	jmp    66ca <safe_mul_func_int32_t_s_s+0x88>
    66c7:	8b 45 fc             	mov    -0x4(%rbp),%eax
    66ca:	5d                   	pop    %rbp
    66cb:	c3                   	retq   

00000000000066cc <safe_mod_func_int32_t_s_s>:
    66cc:	f3 0f 1e fa          	endbr64 
    66d0:	55                   	push   %rbp
    66d1:	48 89 e5             	mov    %rsp,%rbp
    66d4:	89 7d fc             	mov    %edi,-0x4(%rbp)
    66d7:	89 75 f8             	mov    %esi,-0x8(%rbp)
    66da:	83 7d f8 00          	cmpl   $0x0,-0x8(%rbp)
    66de:	74 1a                	je     66fa <safe_mod_func_int32_t_s_s+0x2e>
    66e0:	81 7d fc 00 00 00 80 	cmpl   $0x80000000,-0x4(%rbp)
    66e7:	75 06                	jne    66ef <safe_mod_func_int32_t_s_s+0x23>
    66e9:	83 7d f8 ff          	cmpl   $0xffffffff,-0x8(%rbp)
    66ed:	74 0b                	je     66fa <safe_mod_func_int32_t_s_s+0x2e>
    66ef:	8b 45 fc             	mov    -0x4(%rbp),%eax
    66f2:	99                   	cltd   
    66f3:	f7 7d f8             	idivl  -0x8(%rbp)
    66f6:	89 d0                	mov    %edx,%eax
    66f8:	eb 03                	jmp    66fd <safe_mod_func_int32_t_s_s+0x31>
    66fa:	8b 45 fc             	mov    -0x4(%rbp),%eax
    66fd:	5d                   	pop    %rbp
    66fe:	c3                   	retq   

00000000000066ff <safe_div_func_int32_t_s_s>:
    66ff:	f3 0f 1e fa          	endbr64 
    6703:	55                   	push   %rbp
    6704:	48 89 e5             	mov    %rsp,%rbp
    6707:	89 7d fc             	mov    %edi,-0x4(%rbp)
    670a:	89 75 f8             	mov    %esi,-0x8(%rbp)
    670d:	83 7d f8 00          	cmpl   $0x0,-0x8(%rbp)
    6711:	74 18                	je     672b <safe_div_func_int32_t_s_s+0x2c>
    6713:	81 7d fc 00 00 00 80 	cmpl   $0x80000000,-0x4(%rbp)
    671a:	75 06                	jne    6722 <safe_div_func_int32_t_s_s+0x23>
    671c:	83 7d f8 ff          	cmpl   $0xffffffff,-0x8(%rbp)
    6720:	74 09                	je     672b <safe_div_func_int32_t_s_s+0x2c>
    6722:	8b 45 fc             	mov    -0x4(%rbp),%eax
    6725:	99                   	cltd   
    6726:	f7 7d f8             	idivl  -0x8(%rbp)
    6729:	eb 03                	jmp    672e <safe_div_func_int32_t_s_s+0x2f>
    672b:	8b 45 fc             	mov    -0x4(%rbp),%eax
    672e:	5d                   	pop    %rbp
    672f:	c3                   	retq   

0000000000006730 <safe_lshift_func_int32_t_s_s>:
    6730:	f3 0f 1e fa          	endbr64 
    6734:	55                   	push   %rbp
    6735:	48 89 e5             	mov    %rsp,%rbp
    6738:	89 7d fc             	mov    %edi,-0x4(%rbp)
    673b:	89 75 f8             	mov    %esi,-0x8(%rbp)
    673e:	83 7d fc 00          	cmpl   $0x0,-0x4(%rbp)
    6742:	78 2d                	js     6771 <safe_lshift_func_int32_t_s_s+0x41>
    6744:	83 7d f8 00          	cmpl   $0x0,-0x8(%rbp)
    6748:	78 27                	js     6771 <safe_lshift_func_int32_t_s_s+0x41>
    674a:	83 7d f8 1f          	cmpl   $0x1f,-0x8(%rbp)
    674e:	7f 21                	jg     6771 <safe_lshift_func_int32_t_s_s+0x41>
    6750:	8b 45 f8             	mov    -0x8(%rbp),%eax
    6753:	ba ff ff ff 7f       	mov    $0x7fffffff,%edx
    6758:	89 c1                	mov    %eax,%ecx
    675a:	d3 fa                	sar    %cl,%edx
    675c:	89 d0                	mov    %edx,%eax
    675e:	39 45 fc             	cmp    %eax,-0x4(%rbp)
    6761:	7f 0e                	jg     6771 <safe_lshift_func_int32_t_s_s+0x41>
    6763:	8b 45 f8             	mov    -0x8(%rbp),%eax
    6766:	8b 55 fc             	mov    -0x4(%rbp),%edx
    6769:	89 c1                	mov    %eax,%ecx
    676b:	d3 e2                	shl    %cl,%edx
    676d:	89 d0                	mov    %edx,%eax
    676f:	eb 03                	jmp    6774 <safe_lshift_func_int32_t_s_s+0x44>
    6771:	8b 45 fc             	mov    -0x4(%rbp),%eax
    6774:	5d                   	pop    %rbp
    6775:	c3                   	retq   

0000000000006776 <safe_lshift_func_int32_t_s_u>:
    6776:	f3 0f 1e fa          	endbr64 
    677a:	55                   	push   %rbp
    677b:	48 89 e5             	mov    %rsp,%rbp
    677e:	89 7d fc             	mov    %edi,-0x4(%rbp)
    6781:	89 75 f8             	mov    %esi,-0x8(%rbp)
    6784:	83 7d fc 00          	cmpl   $0x0,-0x4(%rbp)
    6788:	78 27                	js     67b1 <safe_lshift_func_int32_t_s_u+0x3b>
    678a:	83 7d f8 1f          	cmpl   $0x1f,-0x8(%rbp)
    678e:	77 21                	ja     67b1 <safe_lshift_func_int32_t_s_u+0x3b>
    6790:	8b 45 f8             	mov    -0x8(%rbp),%eax
    6793:	ba ff ff ff 7f       	mov    $0x7fffffff,%edx
    6798:	89 c1                	mov    %eax,%ecx
    679a:	d3 fa                	sar    %cl,%edx
    679c:	89 d0                	mov    %edx,%eax
    679e:	39 45 fc             	cmp    %eax,-0x4(%rbp)
    67a1:	7f 0e                	jg     67b1 <safe_lshift_func_int32_t_s_u+0x3b>
    67a3:	8b 45 f8             	mov    -0x8(%rbp),%eax
    67a6:	8b 55 fc             	mov    -0x4(%rbp),%edx
    67a9:	89 c1                	mov    %eax,%ecx
    67ab:	d3 e2                	shl    %cl,%edx
    67ad:	89 d0                	mov    %edx,%eax
    67af:	eb 03                	jmp    67b4 <safe_lshift_func_int32_t_s_u+0x3e>
    67b1:	8b 45 fc             	mov    -0x4(%rbp),%eax
    67b4:	5d                   	pop    %rbp
    67b5:	c3                   	retq   

00000000000067b6 <safe_rshift_func_int32_t_s_s>:
    67b6:	f3 0f 1e fa          	endbr64 
    67ba:	55                   	push   %rbp
    67bb:	48 89 e5             	mov    %rsp,%rbp
    67be:	89 7d fc             	mov    %edi,-0x4(%rbp)
    67c1:	89 75 f8             	mov    %esi,-0x8(%rbp)
    67c4:	83 7d fc 00          	cmpl   $0x0,-0x4(%rbp)
    67c8:	78 1a                	js     67e4 <safe_rshift_func_int32_t_s_s+0x2e>
    67ca:	83 7d f8 00          	cmpl   $0x0,-0x8(%rbp)
    67ce:	78 14                	js     67e4 <safe_rshift_func_int32_t_s_s+0x2e>
    67d0:	83 7d f8 1f          	cmpl   $0x1f,-0x8(%rbp)
    67d4:	7f 0e                	jg     67e4 <safe_rshift_func_int32_t_s_s+0x2e>
    67d6:	8b 45 f8             	mov    -0x8(%rbp),%eax
    67d9:	8b 55 fc             	mov    -0x4(%rbp),%edx
    67dc:	89 c1                	mov    %eax,%ecx
    67de:	d3 fa                	sar    %cl,%edx
    67e0:	89 d0                	mov    %edx,%eax
    67e2:	eb 03                	jmp    67e7 <safe_rshift_func_int32_t_s_s+0x31>
    67e4:	8b 45 fc             	mov    -0x4(%rbp),%eax
    67e7:	5d                   	pop    %rbp
    67e8:	c3                   	retq   

00000000000067e9 <safe_rshift_func_int32_t_s_u>:
    67e9:	f3 0f 1e fa          	endbr64 
    67ed:	55                   	push   %rbp
    67ee:	48 89 e5             	mov    %rsp,%rbp
    67f1:	89 7d fc             	mov    %edi,-0x4(%rbp)
    67f4:	89 75 f8             	mov    %esi,-0x8(%rbp)
    67f7:	83 7d fc 00          	cmpl   $0x0,-0x4(%rbp)
    67fb:	78 14                	js     6811 <safe_rshift_func_int32_t_s_u+0x28>
    67fd:	83 7d f8 1f          	cmpl   $0x1f,-0x8(%rbp)
    6801:	77 0e                	ja     6811 <safe_rshift_func_int32_t_s_u+0x28>
    6803:	8b 45 f8             	mov    -0x8(%rbp),%eax
    6806:	8b 55 fc             	mov    -0x4(%rbp),%edx
    6809:	89 c1                	mov    %eax,%ecx
    680b:	d3 fa                	sar    %cl,%edx
    680d:	89 d0                	mov    %edx,%eax
    680f:	eb 03                	jmp    6814 <safe_rshift_func_int32_t_s_u+0x2b>
    6811:	8b 45 fc             	mov    -0x4(%rbp),%eax
    6814:	5d                   	pop    %rbp
    6815:	c3                   	retq   

0000000000006816 <safe_unary_minus_func_int64_t_s>:
    6816:	f3 0f 1e fa          	endbr64 
    681a:	55                   	push   %rbp
    681b:	48 89 e5             	mov    %rsp,%rbp
    681e:	48 89 7d f8          	mov    %rdi,-0x8(%rbp)
    6822:	48 b8 00 00 00 00 00 	movabs $0x8000000000000000,%rax
    6829:	00 00 80 
    682c:	48 39 45 f8          	cmp    %rax,-0x8(%rbp)
    6830:	74 09                	je     683b <safe_unary_minus_func_int64_t_s+0x25>
    6832:	48 8b 45 f8          	mov    -0x8(%rbp),%rax
    6836:	48 f7 d8             	neg    %rax
    6839:	eb 04                	jmp    683f <safe_unary_minus_func_int64_t_s+0x29>
    683b:	48 8b 45 f8          	mov    -0x8(%rbp),%rax
    683f:	5d                   	pop    %rbp
    6840:	c3                   	retq   

0000000000006841 <safe_add_func_int64_t_s_s>:
    6841:	f3 0f 1e fa          	endbr64 
    6845:	55                   	push   %rbp
    6846:	48 89 e5             	mov    %rsp,%rbp
    6849:	48 89 7d f8          	mov    %rdi,-0x8(%rbp)
    684d:	48 89 75 f0          	mov    %rsi,-0x10(%rbp)
    6851:	48 83 7d f8 00       	cmpq   $0x0,-0x8(%rbp)
    6856:	7e 1b                	jle    6873 <safe_add_func_int64_t_s_s+0x32>
    6858:	48 83 7d f0 00       	cmpq   $0x0,-0x10(%rbp)
    685d:	7e 14                	jle    6873 <safe_add_func_int64_t_s_s+0x32>
    685f:	48 b8 ff ff ff ff ff 	movabs $0x7fffffffffffffff,%rax
    6866:	ff ff 7f 
    6869:	48 2b 45 f0          	sub    -0x10(%rbp),%rax
    686d:	48 39 45 f8          	cmp    %rax,-0x8(%rbp)
    6871:	7f 2f                	jg     68a2 <safe_add_func_int64_t_s_s+0x61>
    6873:	48 83 7d f8 00       	cmpq   $0x0,-0x8(%rbp)
    6878:	79 1b                	jns    6895 <safe_add_func_int64_t_s_s+0x54>
    687a:	48 83 7d f0 00       	cmpq   $0x0,-0x10(%rbp)
    687f:	79 14                	jns    6895 <safe_add_func_int64_t_s_s+0x54>
    6881:	48 b8 00 00 00 00 00 	movabs $0x8000000000000000,%rax
    6888:	00 00 80 
    688b:	48 2b 45 f0          	sub    -0x10(%rbp),%rax
    688f:	48 39 45 f8          	cmp    %rax,-0x8(%rbp)
    6893:	7c 0d                	jl     68a2 <safe_add_func_int64_t_s_s+0x61>
    6895:	48 8b 55 f8          	mov    -0x8(%rbp),%rdx
    6899:	48 8b 45 f0          	mov    -0x10(%rbp),%rax
    689d:	48 01 d0             	add    %rdx,%rax
    68a0:	eb 04                	jmp    68a6 <safe_add_func_int64_t_s_s+0x65>
    68a2:	48 8b 45 f8          	mov    -0x8(%rbp),%rax
    68a6:	5d                   	pop    %rbp
    68a7:	c3                   	retq   

00000000000068a8 <safe_sub_func_int64_t_s_s>:
    68a8:	f3 0f 1e fa          	endbr64 
    68ac:	55                   	push   %rbp
    68ad:	48 89 e5             	mov    %rsp,%rbp
    68b0:	48 89 7d f8          	mov    %rdi,-0x8(%rbp)
    68b4:	48 89 75 f0          	mov    %rsi,-0x10(%rbp)
    68b8:	48 8b 45 f8          	mov    -0x8(%rbp),%rax
    68bc:	48 33 45 f0          	xor    -0x10(%rbp),%rax
    68c0:	48 89 c2             	mov    %rax,%rdx
    68c3:	48 8b 45 f8          	mov    -0x8(%rbp),%rax
    68c7:	48 33 45 f0          	xor    -0x10(%rbp),%rax
    68cb:	48 b9 00 00 00 00 00 	movabs $0x8000000000000000,%rcx
    68d2:	00 00 80 
    68d5:	48 21 c8             	and    %rcx,%rax
    68d8:	48 33 45 f8          	xor    -0x8(%rbp),%rax
    68dc:	48 2b 45 f0          	sub    -0x10(%rbp),%rax
    68e0:	48 33 45 f0          	xor    -0x10(%rbp),%rax
    68e4:	48 21 d0             	and    %rdx,%rax
    68e7:	48 85 c0             	test   %rax,%rax
    68ea:	78 0a                	js     68f6 <safe_sub_func_int64_t_s_s+0x4e>
    68ec:	48 8b 45 f8          	mov    -0x8(%rbp),%rax
    68f0:	48 2b 45 f0          	sub    -0x10(%rbp),%rax
    68f4:	eb 04                	jmp    68fa <safe_sub_func_int64_t_s_s+0x52>
    68f6:	48 8b 45 f8          	mov    -0x8(%rbp),%rax
    68fa:	5d                   	pop    %rbp
    68fb:	c3                   	retq   

00000000000068fc <safe_mul_func_int64_t_s_s>:
    68fc:	f3 0f 1e fa          	endbr64 
    6900:	55                   	push   %rbp
    6901:	48 89 e5             	mov    %rsp,%rbp
    6904:	48 89 7d f8          	mov    %rdi,-0x8(%rbp)
    6908:	48 89 75 f0          	mov    %rsi,-0x10(%rbp)
    690c:	48 83 7d f8 00       	cmpq   $0x0,-0x8(%rbp)
    6911:	7e 1d                	jle    6930 <safe_mul_func_int64_t_s_s+0x34>
    6913:	48 83 7d f0 00       	cmpq   $0x0,-0x10(%rbp)
    6918:	7e 16                	jle    6930 <safe_mul_func_int64_t_s_s+0x34>
    691a:	48 b8 ff ff ff ff ff 	movabs $0x7fffffffffffffff,%rax
    6921:	ff ff 7f 
    6924:	48 99                	cqto   
    6926:	48 f7 7d f0          	idivq  -0x10(%rbp)
    692a:	48 39 45 f8          	cmp    %rax,-0x8(%rbp)
    692e:	7f 7e                	jg     69ae <safe_mul_func_int64_t_s_s+0xb2>
    6930:	48 83 7d f8 00       	cmpq   $0x0,-0x8(%rbp)
    6935:	7e 1d                	jle    6954 <safe_mul_func_int64_t_s_s+0x58>
    6937:	48 83 7d f0 00       	cmpq   $0x0,-0x10(%rbp)
    693c:	7f 16                	jg     6954 <safe_mul_func_int64_t_s_s+0x58>
    693e:	48 b8 00 00 00 00 00 	movabs $0x8000000000000000,%rax
    6945:	00 00 80 
    6948:	48 99                	cqto   
    694a:	48 f7 7d f8          	idivq  -0x8(%rbp)
    694e:	48 39 45 f0          	cmp    %rax,-0x10(%rbp)
    6952:	7c 5a                	jl     69ae <safe_mul_func_int64_t_s_s+0xb2>
    6954:	48 83 7d f8 00       	cmpq   $0x0,-0x8(%rbp)
    6959:	7f 1d                	jg     6978 <safe_mul_func_int64_t_s_s+0x7c>
    695b:	48 83 7d f0 00       	cmpq   $0x0,-0x10(%rbp)
    6960:	7e 16                	jle    6978 <safe_mul_func_int64_t_s_s+0x7c>
    6962:	48 b8 00 00 00 00 00 	movabs $0x8000000000000000,%rax
    6969:	00 00 80 
    696c:	48 99                	cqto   
    696e:	48 f7 7d f0          	idivq  -0x10(%rbp)
    6972:	48 39 45 f8          	cmp    %rax,-0x8(%rbp)
    6976:	7c 36                	jl     69ae <safe_mul_func_int64_t_s_s+0xb2>
    6978:	48 83 7d f8 00       	cmpq   $0x0,-0x8(%rbp)
    697d:	7f 24                	jg     69a3 <safe_mul_func_int64_t_s_s+0xa7>
    697f:	48 83 7d f0 00       	cmpq   $0x0,-0x10(%rbp)
    6984:	7f 1d                	jg     69a3 <safe_mul_func_int64_t_s_s+0xa7>
    6986:	48 83 7d f8 00       	cmpq   $0x0,-0x8(%rbp)
    698b:	74 16                	je     69a3 <safe_mul_func_int64_t_s_s+0xa7>
    698d:	48 b8 ff ff ff ff ff 	movabs $0x7fffffffffffffff,%rax
    6994:	ff ff 7f 
    6997:	48 99                	cqto   
    6999:	48 f7 7d f8          	idivq  -0x8(%rbp)
    699d:	48 39 45 f0          	cmp    %rax,-0x10(%rbp)
    69a1:	7c 0b                	jl     69ae <safe_mul_func_int64_t_s_s+0xb2>
    69a3:	48 8b 45 f8          	mov    -0x8(%rbp),%rax
    69a7:	48 0f af 45 f0       	imul   -0x10(%rbp),%rax
    69ac:	eb 04                	jmp    69b2 <safe_mul_func_int64_t_s_s+0xb6>
    69ae:	48 8b 45 f8          	mov    -0x8(%rbp),%rax
    69b2:	5d                   	pop    %rbp
    69b3:	c3                   	retq   

00000000000069b4 <safe_mod_func_int64_t_s_s>:
    69b4:	f3 0f 1e fa          	endbr64 
    69b8:	55                   	push   %rbp
    69b9:	48 89 e5             	mov    %rsp,%rbp
    69bc:	48 89 7d f8          	mov    %rdi,-0x8(%rbp)
    69c0:	48 89 75 f0          	mov    %rsi,-0x10(%rbp)
    69c4:	48 83 7d f0 00       	cmpq   $0x0,-0x10(%rbp)
    69c9:	74 26                	je     69f1 <safe_mod_func_int64_t_s_s+0x3d>
    69cb:	48 b8 00 00 00 00 00 	movabs $0x8000000000000000,%rax
    69d2:	00 00 80 
    69d5:	48 39 45 f8          	cmp    %rax,-0x8(%rbp)
    69d9:	75 07                	jne    69e2 <safe_mod_func_int64_t_s_s+0x2e>
    69db:	48 83 7d f0 ff       	cmpq   $0xffffffffffffffff,-0x10(%rbp)
    69e0:	74 0f                	je     69f1 <safe_mod_func_int64_t_s_s+0x3d>
    69e2:	48 8b 45 f8          	mov    -0x8(%rbp),%rax
    69e6:	48 99                	cqto   
    69e8:	48 f7 7d f0          	idivq  -0x10(%rbp)
    69ec:	48 89 d0             	mov    %rdx,%rax
    69ef:	eb 04                	jmp    69f5 <safe_mod_func_int64_t_s_s+0x41>
    69f1:	48 8b 45 f8          	mov    -0x8(%rbp),%rax
    69f5:	5d                   	pop    %rbp
    69f6:	c3                   	retq   

00000000000069f7 <safe_div_func_int64_t_s_s>:
    69f7:	f3 0f 1e fa          	endbr64 
    69fb:	55                   	push   %rbp
    69fc:	48 89 e5             	mov    %rsp,%rbp
    69ff:	48 89 7d f8          	mov    %rdi,-0x8(%rbp)
    6a03:	48 89 75 f0          	mov    %rsi,-0x10(%rbp)
    6a07:	48 83 7d f0 00       	cmpq   $0x0,-0x10(%rbp)
    6a0c:	74 23                	je     6a31 <safe_div_func_int64_t_s_s+0x3a>
    6a0e:	48 b8 00 00 00 00 00 	movabs $0x8000000000000000,%rax
    6a15:	00 00 80 
    6a18:	48 39 45 f8          	cmp    %rax,-0x8(%rbp)
    6a1c:	75 07                	jne    6a25 <safe_div_func_int64_t_s_s+0x2e>
    6a1e:	48 83 7d f0 ff       	cmpq   $0xffffffffffffffff,-0x10(%rbp)
    6a23:	74 0c                	je     6a31 <safe_div_func_int64_t_s_s+0x3a>
    6a25:	48 8b 45 f8          	mov    -0x8(%rbp),%rax
    6a29:	48 99                	cqto   
    6a2b:	48 f7 7d f0          	idivq  -0x10(%rbp)
    6a2f:	eb 04                	jmp    6a35 <safe_div_func_int64_t_s_s+0x3e>
    6a31:	48 8b 45 f8          	mov    -0x8(%rbp),%rax
    6a35:	5d                   	pop    %rbp
    6a36:	c3                   	retq   

0000000000006a37 <safe_lshift_func_int64_t_s_s>:
    6a37:	f3 0f 1e fa          	endbr64 
    6a3b:	55                   	push   %rbp
    6a3c:	48 89 e5             	mov    %rsp,%rbp
    6a3f:	48 89 7d f8          	mov    %rdi,-0x8(%rbp)
    6a43:	89 75 f4             	mov    %esi,-0xc(%rbp)
    6a46:	48 83 7d f8 00       	cmpq   $0x0,-0x8(%rbp)
    6a4b:	78 38                	js     6a85 <safe_lshift_func_int64_t_s_s+0x4e>
    6a4d:	83 7d f4 00          	cmpl   $0x0,-0xc(%rbp)
    6a51:	78 32                	js     6a85 <safe_lshift_func_int64_t_s_s+0x4e>
    6a53:	83 7d f4 1f          	cmpl   $0x1f,-0xc(%rbp)
    6a57:	7f 2c                	jg     6a85 <safe_lshift_func_int64_t_s_s+0x4e>
    6a59:	8b 45 f4             	mov    -0xc(%rbp),%eax
    6a5c:	48 ba ff ff ff ff ff 	movabs $0x7fffffffffffffff,%rdx
    6a63:	ff ff 7f 
    6a66:	89 c1                	mov    %eax,%ecx
    6a68:	48 d3 fa             	sar    %cl,%rdx
    6a6b:	48 89 d0             	mov    %rdx,%rax
    6a6e:	48 39 45 f8          	cmp    %rax,-0x8(%rbp)
    6a72:	7f 11                	jg     6a85 <safe_lshift_func_int64_t_s_s+0x4e>
    6a74:	8b 45 f4             	mov    -0xc(%rbp),%eax
    6a77:	48 8b 55 f8          	mov    -0x8(%rbp),%rdx
    6a7b:	89 c1                	mov    %eax,%ecx
    6a7d:	48 d3 e2             	shl    %cl,%rdx
    6a80:	48 89 d0             	mov    %rdx,%rax
    6a83:	eb 04                	jmp    6a89 <safe_lshift_func_int64_t_s_s+0x52>
    6a85:	48 8b 45 f8          	mov    -0x8(%rbp),%rax
    6a89:	5d                   	pop    %rbp
    6a8a:	c3                   	retq   

0000000000006a8b <safe_lshift_func_int64_t_s_u>:
    6a8b:	f3 0f 1e fa          	endbr64 
    6a8f:	55                   	push   %rbp
    6a90:	48 89 e5             	mov    %rsp,%rbp
    6a93:	48 89 7d f8          	mov    %rdi,-0x8(%rbp)
    6a97:	89 75 f4             	mov    %esi,-0xc(%rbp)
    6a9a:	48 83 7d f8 00       	cmpq   $0x0,-0x8(%rbp)
    6a9f:	78 32                	js     6ad3 <safe_lshift_func_int64_t_s_u+0x48>
    6aa1:	83 7d f4 1f          	cmpl   $0x1f,-0xc(%rbp)
    6aa5:	77 2c                	ja     6ad3 <safe_lshift_func_int64_t_s_u+0x48>
    6aa7:	8b 45 f4             	mov    -0xc(%rbp),%eax
    6aaa:	48 ba ff ff ff ff ff 	movabs $0x7fffffffffffffff,%rdx
    6ab1:	ff ff 7f 
    6ab4:	89 c1                	mov    %eax,%ecx
    6ab6:	48 d3 fa             	sar    %cl,%rdx
    6ab9:	48 89 d0             	mov    %rdx,%rax
    6abc:	48 39 45 f8          	cmp    %rax,-0x8(%rbp)
    6ac0:	7f 11                	jg     6ad3 <safe_lshift_func_int64_t_s_u+0x48>
    6ac2:	8b 45 f4             	mov    -0xc(%rbp),%eax
    6ac5:	48 8b 55 f8          	mov    -0x8(%rbp),%rdx
    6ac9:	89 c1                	mov    %eax,%ecx
    6acb:	48 d3 e2             	shl    %cl,%rdx
    6ace:	48 89 d0             	mov    %rdx,%rax
    6ad1:	eb 04                	jmp    6ad7 <safe_lshift_func_int64_t_s_u+0x4c>
    6ad3:	48 8b 45 f8          	mov    -0x8(%rbp),%rax
    6ad7:	5d                   	pop    %rbp
    6ad8:	c3                   	retq   

0000000000006ad9 <safe_rshift_func_int64_t_s_s>:
    6ad9:	f3 0f 1e fa          	endbr64 
    6add:	55                   	push   %rbp
    6ade:	48 89 e5             	mov    %rsp,%rbp
    6ae1:	48 89 7d f8          	mov    %rdi,-0x8(%rbp)
    6ae5:	89 75 f4             	mov    %esi,-0xc(%rbp)
    6ae8:	48 83 7d f8 00       	cmpq   $0x0,-0x8(%rbp)
    6aed:	78 1d                	js     6b0c <safe_rshift_func_int64_t_s_s+0x33>
    6aef:	83 7d f4 00          	cmpl   $0x0,-0xc(%rbp)
    6af3:	78 17                	js     6b0c <safe_rshift_func_int64_t_s_s+0x33>
    6af5:	83 7d f4 1f          	cmpl   $0x1f,-0xc(%rbp)
    6af9:	7f 11                	jg     6b0c <safe_rshift_func_int64_t_s_s+0x33>
    6afb:	8b 45 f4             	mov    -0xc(%rbp),%eax
    6afe:	48 8b 55 f8          	mov    -0x8(%rbp),%rdx
    6b02:	89 c1                	mov    %eax,%ecx
    6b04:	48 d3 fa             	sar    %cl,%rdx
    6b07:	48 89 d0             	mov    %rdx,%rax
    6b0a:	eb 04                	jmp    6b10 <safe_rshift_func_int64_t_s_s+0x37>
    6b0c:	48 8b 45 f8          	mov    -0x8(%rbp),%rax
    6b10:	5d                   	pop    %rbp
    6b11:	c3                   	retq   

0000000000006b12 <safe_rshift_func_int64_t_s_u>:
    6b12:	f3 0f 1e fa          	endbr64 
    6b16:	55                   	push   %rbp
    6b17:	48 89 e5             	mov    %rsp,%rbp
    6b1a:	48 89 7d f8          	mov    %rdi,-0x8(%rbp)
    6b1e:	89 75 f4             	mov    %esi,-0xc(%rbp)
    6b21:	48 83 7d f8 00       	cmpq   $0x0,-0x8(%rbp)
    6b26:	78 17                	js     6b3f <safe_rshift_func_int64_t_s_u+0x2d>
    6b28:	83 7d f4 1f          	cmpl   $0x1f,-0xc(%rbp)
    6b2c:	77 11                	ja     6b3f <safe_rshift_func_int64_t_s_u+0x2d>
    6b2e:	8b 45 f4             	mov    -0xc(%rbp),%eax
    6b31:	48 8b 55 f8          	mov    -0x8(%rbp),%rdx
    6b35:	89 c1                	mov    %eax,%ecx
    6b37:	48 d3 fa             	sar    %cl,%rdx
    6b3a:	48 89 d0             	mov    %rdx,%rax
    6b3d:	eb 04                	jmp    6b43 <safe_rshift_func_int64_t_s_u+0x31>
    6b3f:	48 8b 45 f8          	mov    -0x8(%rbp),%rax
    6b43:	5d                   	pop    %rbp
    6b44:	c3                   	retq   

0000000000006b45 <safe_unary_minus_func_uint8_t_u>:
    6b45:	f3 0f 1e fa          	endbr64 
    6b49:	55                   	push   %rbp
    6b4a:	48 89 e5             	mov    %rsp,%rbp
    6b4d:	89 f8                	mov    %edi,%eax
    6b4f:	88 45 fc             	mov    %al,-0x4(%rbp)
    6b52:	0f b6 45 fc          	movzbl -0x4(%rbp),%eax
    6b56:	f7 d8                	neg    %eax
    6b58:	5d                   	pop    %rbp
    6b59:	c3                   	retq   

0000000000006b5a <safe_add_func_uint8_t_u_u>:
    6b5a:	f3 0f 1e fa          	endbr64 
    6b5e:	55                   	push   %rbp
    6b5f:	48 89 e5             	mov    %rsp,%rbp
    6b62:	89 fa                	mov    %edi,%edx
    6b64:	89 f0                	mov    %esi,%eax
    6b66:	88 55 fc             	mov    %dl,-0x4(%rbp)
    6b69:	88 45 f8             	mov    %al,-0x8(%rbp)
    6b6c:	0f b6 55 fc          	movzbl -0x4(%rbp),%edx
    6b70:	0f b6 45 f8          	movzbl -0x8(%rbp),%eax
    6b74:	01 d0                	add    %edx,%eax
    6b76:	5d                   	pop    %rbp
    6b77:	c3                   	retq   

0000000000006b78 <safe_sub_func_uint8_t_u_u>:
    6b78:	f3 0f 1e fa          	endbr64 
    6b7c:	55                   	push   %rbp
    6b7d:	48 89 e5             	mov    %rsp,%rbp
    6b80:	89 fa                	mov    %edi,%edx
    6b82:	89 f0                	mov    %esi,%eax
    6b84:	88 55 fc             	mov    %dl,-0x4(%rbp)
    6b87:	88 45 f8             	mov    %al,-0x8(%rbp)
    6b8a:	0f b6 45 fc          	movzbl -0x4(%rbp),%eax
    6b8e:	2a 45 f8             	sub    -0x8(%rbp),%al
    6b91:	5d                   	pop    %rbp
    6b92:	c3                   	retq   

0000000000006b93 <safe_mul_func_uint8_t_u_u>:
    6b93:	f3 0f 1e fa          	endbr64 
    6b97:	55                   	push   %rbp
    6b98:	48 89 e5             	mov    %rsp,%rbp
    6b9b:	89 fa                	mov    %edi,%edx
    6b9d:	89 f0                	mov    %esi,%eax
    6b9f:	88 55 fc             	mov    %dl,-0x4(%rbp)
    6ba2:	88 45 f8             	mov    %al,-0x8(%rbp)
    6ba5:	0f b6 45 fc          	movzbl -0x4(%rbp),%eax
    6ba9:	f6 65 f8             	mulb   -0x8(%rbp)
    6bac:	5d                   	pop    %rbp
    6bad:	c3                   	retq   

0000000000006bae <safe_mod_func_uint8_t_u_u>:
    6bae:	f3 0f 1e fa          	endbr64 
    6bb2:	55                   	push   %rbp
    6bb3:	48 89 e5             	mov    %rsp,%rbp
    6bb6:	89 fa                	mov    %edi,%edx
    6bb8:	89 f0                	mov    %esi,%eax
    6bba:	88 55 fc             	mov    %dl,-0x4(%rbp)
    6bbd:	88 45 f8             	mov    %al,-0x8(%rbp)
    6bc0:	80 7d f8 00          	cmpb   $0x0,-0x8(%rbp)
    6bc4:	74 0f                	je     6bd5 <safe_mod_func_uint8_t_u_u+0x27>
    6bc6:	0f b6 45 fc          	movzbl -0x4(%rbp),%eax
    6bca:	0f b6 c0             	movzbl %al,%eax
    6bcd:	f6 75 f8             	divb   -0x8(%rbp)
    6bd0:	0f b6 c4             	movzbl %ah,%eax
    6bd3:	eb 04                	jmp    6bd9 <safe_mod_func_uint8_t_u_u+0x2b>
    6bd5:	0f b6 45 fc          	movzbl -0x4(%rbp),%eax
    6bd9:	5d                   	pop    %rbp
    6bda:	c3                   	retq   

0000000000006bdb <safe_div_func_uint8_t_u_u>:
    6bdb:	f3 0f 1e fa          	endbr64 
    6bdf:	55                   	push   %rbp
    6be0:	48 89 e5             	mov    %rsp,%rbp
    6be3:	89 fa                	mov    %edi,%edx
    6be5:	89 f0                	mov    %esi,%eax
    6be7:	88 55 fc             	mov    %dl,-0x4(%rbp)
    6bea:	88 45 f8             	mov    %al,-0x8(%rbp)
    6bed:	80 7d f8 00          	cmpb   $0x0,-0x8(%rbp)
    6bf1:	74 0c                	je     6bff <safe_div_func_uint8_t_u_u+0x24>
    6bf3:	0f b6 45 fc          	movzbl -0x4(%rbp),%eax
    6bf7:	0f b6 c0             	movzbl %al,%eax
    6bfa:	f6 75 f8             	divb   -0x8(%rbp)
    6bfd:	eb 04                	jmp    6c03 <safe_div_func_uint8_t_u_u+0x28>
    6bff:	0f b6 45 fc          	movzbl -0x4(%rbp),%eax
    6c03:	5d                   	pop    %rbp
    6c04:	c3                   	retq   

0000000000006c05 <safe_lshift_func_uint8_t_u_s>:
    6c05:	f3 0f 1e fa          	endbr64 
    6c09:	55                   	push   %rbp
    6c0a:	48 89 e5             	mov    %rsp,%rbp
    6c0d:	89 f8                	mov    %edi,%eax
    6c0f:	89 75 f8             	mov    %esi,-0x8(%rbp)
    6c12:	88 45 fc             	mov    %al,-0x4(%rbp)
    6c15:	83 7d f8 00          	cmpl   $0x0,-0x8(%rbp)
    6c19:	78 2b                	js     6c46 <safe_lshift_func_uint8_t_u_s+0x41>
    6c1b:	83 7d f8 1f          	cmpl   $0x1f,-0x8(%rbp)
    6c1f:	7f 25                	jg     6c46 <safe_lshift_func_uint8_t_u_s+0x41>
    6c21:	0f b6 55 fc          	movzbl -0x4(%rbp),%edx
    6c25:	8b 45 f8             	mov    -0x8(%rbp),%eax
    6c28:	be ff 00 00 00       	mov    $0xff,%esi
    6c2d:	89 c1                	mov    %eax,%ecx
    6c2f:	d3 fe                	sar    %cl,%esi
    6c31:	89 f0                	mov    %esi,%eax
    6c33:	39 c2                	cmp    %eax,%edx
    6c35:	7f 0f                	jg     6c46 <safe_lshift_func_uint8_t_u_s+0x41>
    6c37:	0f b6 55 fc          	movzbl -0x4(%rbp),%edx
    6c3b:	8b 45 f8             	mov    -0x8(%rbp),%eax
    6c3e:	89 c1                	mov    %eax,%ecx
    6c40:	d3 e2                	shl    %cl,%edx
    6c42:	89 d0                	mov    %edx,%eax
    6c44:	eb 04                	jmp    6c4a <safe_lshift_func_uint8_t_u_s+0x45>
    6c46:	0f b6 45 fc          	movzbl -0x4(%rbp),%eax
    6c4a:	5d                   	pop    %rbp
    6c4b:	c3                   	retq   

0000000000006c4c <safe_lshift_func_uint8_t_u_u>:
    6c4c:	f3 0f 1e fa          	endbr64 
    6c50:	55                   	push   %rbp
    6c51:	48 89 e5             	mov    %rsp,%rbp
    6c54:	89 f8                	mov    %edi,%eax
    6c56:	89 75 f8             	mov    %esi,-0x8(%rbp)
    6c59:	88 45 fc             	mov    %al,-0x4(%rbp)
    6c5c:	83 7d f8 1f          	cmpl   $0x1f,-0x8(%rbp)
    6c60:	77 25                	ja     6c87 <safe_lshift_func_uint8_t_u_u+0x3b>
    6c62:	0f b6 55 fc          	movzbl -0x4(%rbp),%edx
    6c66:	8b 45 f8             	mov    -0x8(%rbp),%eax
    6c69:	be ff 00 00 00       	mov    $0xff,%esi
    6c6e:	89 c1                	mov    %eax,%ecx
    6c70:	d3 fe                	sar    %cl,%esi
    6c72:	89 f0                	mov    %esi,%eax
    6c74:	39 c2                	cmp    %eax,%edx
    6c76:	7f 0f                	jg     6c87 <safe_lshift_func_uint8_t_u_u+0x3b>
    6c78:	0f b6 55 fc          	movzbl -0x4(%rbp),%edx
    6c7c:	8b 45 f8             	mov    -0x8(%rbp),%eax
    6c7f:	89 c1                	mov    %eax,%ecx
    6c81:	d3 e2                	shl    %cl,%edx
    6c83:	89 d0                	mov    %edx,%eax
    6c85:	eb 04                	jmp    6c8b <safe_lshift_func_uint8_t_u_u+0x3f>
    6c87:	0f b6 45 fc          	movzbl -0x4(%rbp),%eax
    6c8b:	5d                   	pop    %rbp
    6c8c:	c3                   	retq   

0000000000006c8d <safe_rshift_func_uint8_t_u_s>:
    6c8d:	f3 0f 1e fa          	endbr64 
    6c91:	55                   	push   %rbp
    6c92:	48 89 e5             	mov    %rsp,%rbp
    6c95:	89 f8                	mov    %edi,%eax
    6c97:	89 75 f8             	mov    %esi,-0x8(%rbp)
    6c9a:	88 45 fc             	mov    %al,-0x4(%rbp)
    6c9d:	83 7d f8 00          	cmpl   $0x0,-0x8(%rbp)
    6ca1:	78 15                	js     6cb8 <safe_rshift_func_uint8_t_u_s+0x2b>
    6ca3:	83 7d f8 1f          	cmpl   $0x1f,-0x8(%rbp)
    6ca7:	7f 0f                	jg     6cb8 <safe_rshift_func_uint8_t_u_s+0x2b>
    6ca9:	0f b6 55 fc          	movzbl -0x4(%rbp),%edx
    6cad:	8b 45 f8             	mov    -0x8(%rbp),%eax
    6cb0:	89 c1                	mov    %eax,%ecx
    6cb2:	d3 fa                	sar    %cl,%edx
    6cb4:	89 d0                	mov    %edx,%eax
    6cb6:	eb 04                	jmp    6cbc <safe_rshift_func_uint8_t_u_s+0x2f>
    6cb8:	0f b6 45 fc          	movzbl -0x4(%rbp),%eax
    6cbc:	5d                   	pop    %rbp
    6cbd:	c3                   	retq   

0000000000006cbe <safe_rshift_func_uint8_t_u_u>:
    6cbe:	f3 0f 1e fa          	endbr64 
    6cc2:	55                   	push   %rbp
    6cc3:	48 89 e5             	mov    %rsp,%rbp
    6cc6:	89 f8                	mov    %edi,%eax
    6cc8:	89 75 f8             	mov    %esi,-0x8(%rbp)
    6ccb:	88 45 fc             	mov    %al,-0x4(%rbp)
    6cce:	83 7d f8 1f          	cmpl   $0x1f,-0x8(%rbp)
    6cd2:	77 0f                	ja     6ce3 <safe_rshift_func_uint8_t_u_u+0x25>
    6cd4:	0f b6 55 fc          	movzbl -0x4(%rbp),%edx
    6cd8:	8b 45 f8             	mov    -0x8(%rbp),%eax
    6cdb:	89 c1                	mov    %eax,%ecx
    6cdd:	d3 fa                	sar    %cl,%edx
    6cdf:	89 d0                	mov    %edx,%eax
    6ce1:	eb 04                	jmp    6ce7 <safe_rshift_func_uint8_t_u_u+0x29>
    6ce3:	0f b6 45 fc          	movzbl -0x4(%rbp),%eax
    6ce7:	5d                   	pop    %rbp
    6ce8:	c3                   	retq   

0000000000006ce9 <safe_unary_minus_func_uint16_t_u>:
    6ce9:	f3 0f 1e fa          	endbr64 
    6ced:	55                   	push   %rbp
    6cee:	48 89 e5             	mov    %rsp,%rbp
    6cf1:	89 f8                	mov    %edi,%eax
    6cf3:	66 89 45 fc          	mov    %ax,-0x4(%rbp)
    6cf7:	0f b7 45 fc          	movzwl -0x4(%rbp),%eax
    6cfb:	f7 d8                	neg    %eax
    6cfd:	5d                   	pop    %rbp
    6cfe:	c3                   	retq   

0000000000006cff <safe_add_func_uint16_t_u_u>:
    6cff:	f3 0f 1e fa          	endbr64 
    6d03:	55                   	push   %rbp
    6d04:	48 89 e5             	mov    %rsp,%rbp
    6d07:	89 fa                	mov    %edi,%edx
    6d09:	89 f0                	mov    %esi,%eax
    6d0b:	66 89 55 fc          	mov    %dx,-0x4(%rbp)
    6d0f:	66 89 45 f8          	mov    %ax,-0x8(%rbp)
    6d13:	0f b7 55 fc          	movzwl -0x4(%rbp),%edx
    6d17:	0f b7 45 f8          	movzwl -0x8(%rbp),%eax
    6d1b:	01 d0                	add    %edx,%eax
    6d1d:	5d                   	pop    %rbp
    6d1e:	c3                   	retq   

0000000000006d1f <safe_sub_func_uint16_t_u_u>:
    6d1f:	f3 0f 1e fa          	endbr64 
    6d23:	55                   	push   %rbp
    6d24:	48 89 e5             	mov    %rsp,%rbp
    6d27:	89 fa                	mov    %edi,%edx
    6d29:	89 f0                	mov    %esi,%eax
    6d2b:	66 89 55 fc          	mov    %dx,-0x4(%rbp)
    6d2f:	66 89 45 f8          	mov    %ax,-0x8(%rbp)
    6d33:	0f b7 45 fc          	movzwl -0x4(%rbp),%eax
    6d37:	66 2b 45 f8          	sub    -0x8(%rbp),%ax
    6d3b:	5d                   	pop    %rbp
    6d3c:	c3                   	retq   

0000000000006d3d <safe_mul_func_uint16_t_u_u>:
    6d3d:	f3 0f 1e fa          	endbr64 
    6d41:	55                   	push   %rbp
    6d42:	48 89 e5             	mov    %rsp,%rbp
    6d45:	89 fa                	mov    %edi,%edx
    6d47:	89 f0                	mov    %esi,%eax
    6d49:	66 89 55 fc          	mov    %dx,-0x4(%rbp)
    6d4d:	66 89 45 f8          	mov    %ax,-0x8(%rbp)
    6d51:	0f b7 45 fc          	movzwl -0x4(%rbp),%eax
    6d55:	66 0f af 45 f8       	imul   -0x8(%rbp),%ax
    6d5a:	5d                   	pop    %rbp
    6d5b:	c3                   	retq   

0000000000006d5c <safe_mod_func_uint16_t_u_u>:
    6d5c:	f3 0f 1e fa          	endbr64 
    6d60:	55                   	push   %rbp
    6d61:	48 89 e5             	mov    %rsp,%rbp
    6d64:	89 fa                	mov    %edi,%edx
    6d66:	89 f0                	mov    %esi,%eax
    6d68:	66 89 55 fc          	mov    %dx,-0x4(%rbp)
    6d6c:	66 89 45 f8          	mov    %ax,-0x8(%rbp)
    6d70:	66 83 7d f8 00       	cmpw   $0x0,-0x8(%rbp)
    6d75:	74 11                	je     6d88 <safe_mod_func_uint16_t_u_u+0x2c>
    6d77:	0f b7 45 fc          	movzwl -0x4(%rbp),%eax
    6d7b:	ba 00 00 00 00       	mov    $0x0,%edx
    6d80:	66 f7 75 f8          	divw   -0x8(%rbp)
    6d84:	89 d0                	mov    %edx,%eax
    6d86:	eb 04                	jmp    6d8c <safe_mod_func_uint16_t_u_u+0x30>
    6d88:	0f b7 45 fc          	movzwl -0x4(%rbp),%eax
    6d8c:	5d                   	pop    %rbp
    6d8d:	c3                   	retq   

0000000000006d8e <safe_div_func_uint16_t_u_u>:
    6d8e:	f3 0f 1e fa          	endbr64 
    6d92:	55                   	push   %rbp
    6d93:	48 89 e5             	mov    %rsp,%rbp
    6d96:	89 fa                	mov    %edi,%edx
    6d98:	89 f0                	mov    %esi,%eax
    6d9a:	66 89 55 fc          	mov    %dx,-0x4(%rbp)
    6d9e:	66 89 45 f8          	mov    %ax,-0x8(%rbp)
    6da2:	66 83 7d f8 00       	cmpw   $0x0,-0x8(%rbp)
    6da7:	74 0f                	je     6db8 <safe_div_func_uint16_t_u_u+0x2a>
    6da9:	0f b7 45 fc          	movzwl -0x4(%rbp),%eax
    6dad:	ba 00 00 00 00       	mov    $0x0,%edx
    6db2:	66 f7 75 f8          	divw   -0x8(%rbp)
    6db6:	eb 04                	jmp    6dbc <safe_div_func_uint16_t_u_u+0x2e>
    6db8:	0f b7 45 fc          	movzwl -0x4(%rbp),%eax
    6dbc:	5d                   	pop    %rbp
    6dbd:	c3                   	retq   

0000000000006dbe <safe_lshift_func_uint16_t_u_s>:
    6dbe:	f3 0f 1e fa          	endbr64 
    6dc2:	55                   	push   %rbp
    6dc3:	48 89 e5             	mov    %rsp,%rbp
    6dc6:	89 f8                	mov    %edi,%eax
    6dc8:	89 75 f8             	mov    %esi,-0x8(%rbp)
    6dcb:	66 89 45 fc          	mov    %ax,-0x4(%rbp)
    6dcf:	83 7d f8 00          	cmpl   $0x0,-0x8(%rbp)
    6dd3:	78 2b                	js     6e00 <safe_lshift_func_uint16_t_u_s+0x42>
    6dd5:	83 7d f8 1f          	cmpl   $0x1f,-0x8(%rbp)
    6dd9:	7f 25                	jg     6e00 <safe_lshift_func_uint16_t_u_s+0x42>
    6ddb:	0f b7 55 fc          	movzwl -0x4(%rbp),%edx
    6ddf:	8b 45 f8             	mov    -0x8(%rbp),%eax
    6de2:	be ff ff 00 00       	mov    $0xffff,%esi
    6de7:	89 c1                	mov    %eax,%ecx
    6de9:	d3 fe                	sar    %cl,%esi
    6deb:	89 f0                	mov    %esi,%eax
    6ded:	39 c2                	cmp    %eax,%edx
    6def:	7f 0f                	jg     6e00 <safe_lshift_func_uint16_t_u_s+0x42>
    6df1:	0f b7 55 fc          	movzwl -0x4(%rbp),%edx
    6df5:	8b 45 f8             	mov    -0x8(%rbp),%eax
    6df8:	89 c1                	mov    %eax,%ecx
    6dfa:	d3 e2                	shl    %cl,%edx
    6dfc:	89 d0                	mov    %edx,%eax
    6dfe:	eb 04                	jmp    6e04 <safe_lshift_func_uint16_t_u_s+0x46>
    6e00:	0f b7 45 fc          	movzwl -0x4(%rbp),%eax
    6e04:	5d                   	pop    %rbp
    6e05:	c3                   	retq   

0000000000006e06 <safe_lshift_func_uint16_t_u_u>:
    6e06:	f3 0f 1e fa          	endbr64 
    6e0a:	55                   	push   %rbp
    6e0b:	48 89 e5             	mov    %rsp,%rbp
    6e0e:	89 f8                	mov    %edi,%eax
    6e10:	89 75 f8             	mov    %esi,-0x8(%rbp)
    6e13:	66 89 45 fc          	mov    %ax,-0x4(%rbp)
    6e17:	83 7d f8 1f          	cmpl   $0x1f,-0x8(%rbp)
    6e1b:	77 25                	ja     6e42 <safe_lshift_func_uint16_t_u_u+0x3c>
    6e1d:	0f b7 55 fc          	movzwl -0x4(%rbp),%edx
    6e21:	8b 45 f8             	mov    -0x8(%rbp),%eax
    6e24:	be ff ff 00 00       	mov    $0xffff,%esi
    6e29:	89 c1                	mov    %eax,%ecx
    6e2b:	d3 fe                	sar    %cl,%esi
    6e2d:	89 f0                	mov    %esi,%eax
    6e2f:	39 c2                	cmp    %eax,%edx
    6e31:	7f 0f                	jg     6e42 <safe_lshift_func_uint16_t_u_u+0x3c>
    6e33:	0f b7 55 fc          	movzwl -0x4(%rbp),%edx
    6e37:	8b 45 f8             	mov    -0x8(%rbp),%eax
    6e3a:	89 c1                	mov    %eax,%ecx
    6e3c:	d3 e2                	shl    %cl,%edx
    6e3e:	89 d0                	mov    %edx,%eax
    6e40:	eb 04                	jmp    6e46 <safe_lshift_func_uint16_t_u_u+0x40>
    6e42:	0f b7 45 fc          	movzwl -0x4(%rbp),%eax
    6e46:	5d                   	pop    %rbp
    6e47:	c3                   	retq   

0000000000006e48 <safe_rshift_func_uint16_t_u_s>:
    6e48:	f3 0f 1e fa          	endbr64 
    6e4c:	55                   	push   %rbp
    6e4d:	48 89 e5             	mov    %rsp,%rbp
    6e50:	89 f8                	mov    %edi,%eax
    6e52:	89 75 f8             	mov    %esi,-0x8(%rbp)
    6e55:	66 89 45 fc          	mov    %ax,-0x4(%rbp)
    6e59:	83 7d f8 00          	cmpl   $0x0,-0x8(%rbp)
    6e5d:	78 15                	js     6e74 <safe_rshift_func_uint16_t_u_s+0x2c>
    6e5f:	83 7d f8 1f          	cmpl   $0x1f,-0x8(%rbp)
    6e63:	7f 0f                	jg     6e74 <safe_rshift_func_uint16_t_u_s+0x2c>
    6e65:	0f b7 55 fc          	movzwl -0x4(%rbp),%edx
    6e69:	8b 45 f8             	mov    -0x8(%rbp),%eax
    6e6c:	89 c1                	mov    %eax,%ecx
    6e6e:	d3 fa                	sar    %cl,%edx
    6e70:	89 d0                	mov    %edx,%eax
    6e72:	eb 04                	jmp    6e78 <safe_rshift_func_uint16_t_u_s+0x30>
    6e74:	0f b7 45 fc          	movzwl -0x4(%rbp),%eax
    6e78:	5d                   	pop    %rbp
    6e79:	c3                   	retq   

0000000000006e7a <safe_rshift_func_uint16_t_u_u>:
    6e7a:	f3 0f 1e fa          	endbr64 
    6e7e:	55                   	push   %rbp
    6e7f:	48 89 e5             	mov    %rsp,%rbp
    6e82:	89 f8                	mov    %edi,%eax
    6e84:	89 75 f8             	mov    %esi,-0x8(%rbp)
    6e87:	66 89 45 fc          	mov    %ax,-0x4(%rbp)
    6e8b:	83 7d f8 1f          	cmpl   $0x1f,-0x8(%rbp)
    6e8f:	77 0f                	ja     6ea0 <safe_rshift_func_uint16_t_u_u+0x26>
    6e91:	0f b7 55 fc          	movzwl -0x4(%rbp),%edx
    6e95:	8b 45 f8             	mov    -0x8(%rbp),%eax
    6e98:	89 c1                	mov    %eax,%ecx
    6e9a:	d3 fa                	sar    %cl,%edx
    6e9c:	89 d0                	mov    %edx,%eax
    6e9e:	eb 04                	jmp    6ea4 <safe_rshift_func_uint16_t_u_u+0x2a>
    6ea0:	0f b7 45 fc          	movzwl -0x4(%rbp),%eax
    6ea4:	5d                   	pop    %rbp
    6ea5:	c3                   	retq   

0000000000006ea6 <safe_unary_minus_func_uint32_t_u>:
    6ea6:	f3 0f 1e fa          	endbr64 
    6eaa:	55                   	push   %rbp
    6eab:	48 89 e5             	mov    %rsp,%rbp
    6eae:	89 7d fc             	mov    %edi,-0x4(%rbp)
    6eb1:	8b 45 fc             	mov    -0x4(%rbp),%eax
    6eb4:	f7 d8                	neg    %eax
    6eb6:	5d                   	pop    %rbp
    6eb7:	c3                   	retq   

0000000000006eb8 <safe_add_func_uint32_t_u_u>:
    6eb8:	f3 0f 1e fa          	endbr64 
    6ebc:	55                   	push   %rbp
    6ebd:	48 89 e5             	mov    %rsp,%rbp
    6ec0:	89 7d fc             	mov    %edi,-0x4(%rbp)
    6ec3:	89 75 f8             	mov    %esi,-0x8(%rbp)
    6ec6:	8b 55 fc             	mov    -0x4(%rbp),%edx
    6ec9:	8b 45 f8             	mov    -0x8(%rbp),%eax
    6ecc:	01 d0                	add    %edx,%eax
    6ece:	5d                   	pop    %rbp
    6ecf:	c3                   	retq   

0000000000006ed0 <safe_sub_func_uint32_t_u_u>:
    6ed0:	f3 0f 1e fa          	endbr64 
    6ed4:	55                   	push   %rbp
    6ed5:	48 89 e5             	mov    %rsp,%rbp
    6ed8:	89 7d fc             	mov    %edi,-0x4(%rbp)
    6edb:	89 75 f8             	mov    %esi,-0x8(%rbp)
    6ede:	8b 45 fc             	mov    -0x4(%rbp),%eax
    6ee1:	2b 45 f8             	sub    -0x8(%rbp),%eax
    6ee4:	5d                   	pop    %rbp
    6ee5:	c3                   	retq   

0000000000006ee6 <safe_mul_func_uint32_t_u_u>:
    6ee6:	f3 0f 1e fa          	endbr64 
    6eea:	55                   	push   %rbp
    6eeb:	48 89 e5             	mov    %rsp,%rbp
    6eee:	89 7d fc             	mov    %edi,-0x4(%rbp)
    6ef1:	89 75 f8             	mov    %esi,-0x8(%rbp)
    6ef4:	8b 45 fc             	mov    -0x4(%rbp),%eax
    6ef7:	0f af 45 f8          	imul   -0x8(%rbp),%eax
    6efb:	5d                   	pop    %rbp
    6efc:	c3                   	retq   

0000000000006efd <safe_mod_func_uint32_t_u_u>:
    6efd:	f3 0f 1e fa          	endbr64 
    6f01:	55                   	push   %rbp
    6f02:	48 89 e5             	mov    %rsp,%rbp
    6f05:	89 7d fc             	mov    %edi,-0x4(%rbp)
    6f08:	89 75 f8             	mov    %esi,-0x8(%rbp)
    6f0b:	83 7d f8 00          	cmpl   $0x0,-0x8(%rbp)
    6f0f:	74 0f                	je     6f20 <safe_mod_func_uint32_t_u_u+0x23>
    6f11:	8b 45 fc             	mov    -0x4(%rbp),%eax
    6f14:	ba 00 00 00 00       	mov    $0x0,%edx
    6f19:	f7 75 f8             	divl   -0x8(%rbp)
    6f1c:	89 d0                	mov    %edx,%eax
    6f1e:	eb 03                	jmp    6f23 <safe_mod_func_uint32_t_u_u+0x26>
    6f20:	8b 45 fc             	mov    -0x4(%rbp),%eax
    6f23:	5d                   	pop    %rbp
    6f24:	c3                   	retq   

0000000000006f25 <safe_div_func_uint32_t_u_u>:
    6f25:	f3 0f 1e fa          	endbr64 
    6f29:	55                   	push   %rbp
    6f2a:	48 89 e5             	mov    %rsp,%rbp
    6f2d:	89 7d fc             	mov    %edi,-0x4(%rbp)
    6f30:	89 75 f8             	mov    %esi,-0x8(%rbp)
    6f33:	83 7d f8 00          	cmpl   $0x0,-0x8(%rbp)
    6f37:	74 0d                	je     6f46 <safe_div_func_uint32_t_u_u+0x21>
    6f39:	8b 45 fc             	mov    -0x4(%rbp),%eax
    6f3c:	ba 00 00 00 00       	mov    $0x0,%edx
    6f41:	f7 75 f8             	divl   -0x8(%rbp)
    6f44:	eb 03                	jmp    6f49 <safe_div_func_uint32_t_u_u+0x24>
    6f46:	8b 45 fc             	mov    -0x4(%rbp),%eax
    6f49:	5d                   	pop    %rbp
    6f4a:	c3                   	retq   

0000000000006f4b <safe_lshift_func_uint32_t_u_s>:
    6f4b:	f3 0f 1e fa          	endbr64 
    6f4f:	55                   	push   %rbp
    6f50:	48 89 e5             	mov    %rsp,%rbp
    6f53:	89 7d fc             	mov    %edi,-0x4(%rbp)
    6f56:	89 75 f8             	mov    %esi,-0x8(%rbp)
    6f59:	83 7d f8 00          	cmpl   $0x0,-0x8(%rbp)
    6f5d:	78 27                	js     6f86 <safe_lshift_func_uint32_t_u_s+0x3b>
    6f5f:	83 7d f8 1f          	cmpl   $0x1f,-0x8(%rbp)
    6f63:	7f 21                	jg     6f86 <safe_lshift_func_uint32_t_u_s+0x3b>
    6f65:	8b 45 f8             	mov    -0x8(%rbp),%eax
    6f68:	ba ff ff ff ff       	mov    $0xffffffff,%edx
    6f6d:	89 c1                	mov    %eax,%ecx
    6f6f:	d3 ea                	shr    %cl,%edx
    6f71:	89 d0                	mov    %edx,%eax
    6f73:	39 45 fc             	cmp    %eax,-0x4(%rbp)
    6f76:	77 0e                	ja     6f86 <safe_lshift_func_uint32_t_u_s+0x3b>
    6f78:	8b 45 f8             	mov    -0x8(%rbp),%eax
    6f7b:	8b 55 fc             	mov    -0x4(%rbp),%edx
    6f7e:	89 c1                	mov    %eax,%ecx
    6f80:	d3 e2                	shl    %cl,%edx
    6f82:	89 d0                	mov    %edx,%eax
    6f84:	eb 03                	jmp    6f89 <safe_lshift_func_uint32_t_u_s+0x3e>
    6f86:	8b 45 fc             	mov    -0x4(%rbp),%eax
    6f89:	5d                   	pop    %rbp
    6f8a:	c3                   	retq   

0000000000006f8b <safe_lshift_func_uint32_t_u_u>:
    6f8b:	f3 0f 1e fa          	endbr64 
    6f8f:	55                   	push   %rbp
    6f90:	48 89 e5             	mov    %rsp,%rbp
    6f93:	89 7d fc             	mov    %edi,-0x4(%rbp)
    6f96:	89 75 f8             	mov    %esi,-0x8(%rbp)
    6f99:	83 7d f8 1f          	cmpl   $0x1f,-0x8(%rbp)
    6f9d:	77 21                	ja     6fc0 <safe_lshift_func_uint32_t_u_u+0x35>
    6f9f:	8b 45 f8             	mov    -0x8(%rbp),%eax
    6fa2:	ba ff ff ff ff       	mov    $0xffffffff,%edx
    6fa7:	89 c1                	mov    %eax,%ecx
    6fa9:	d3 ea                	shr    %cl,%edx
    6fab:	89 d0                	mov    %edx,%eax
    6fad:	39 45 fc             	cmp    %eax,-0x4(%rbp)
    6fb0:	77 0e                	ja     6fc0 <safe_lshift_func_uint32_t_u_u+0x35>
    6fb2:	8b 45 f8             	mov    -0x8(%rbp),%eax
    6fb5:	8b 55 fc             	mov    -0x4(%rbp),%edx
    6fb8:	89 c1                	mov    %eax,%ecx
    6fba:	d3 e2                	shl    %cl,%edx
    6fbc:	89 d0                	mov    %edx,%eax
    6fbe:	eb 03                	jmp    6fc3 <safe_lshift_func_uint32_t_u_u+0x38>
    6fc0:	8b 45 fc             	mov    -0x4(%rbp),%eax
    6fc3:	5d                   	pop    %rbp
    6fc4:	c3                   	retq   

0000000000006fc5 <safe_rshift_func_uint32_t_u_s>:
    6fc5:	f3 0f 1e fa          	endbr64 
    6fc9:	55                   	push   %rbp
    6fca:	48 89 e5             	mov    %rsp,%rbp
    6fcd:	89 7d fc             	mov    %edi,-0x4(%rbp)
    6fd0:	89 75 f8             	mov    %esi,-0x8(%rbp)
    6fd3:	83 7d f8 00          	cmpl   $0x0,-0x8(%rbp)
    6fd7:	78 14                	js     6fed <safe_rshift_func_uint32_t_u_s+0x28>
    6fd9:	83 7d f8 1f          	cmpl   $0x1f,-0x8(%rbp)
    6fdd:	7f 0e                	jg     6fed <safe_rshift_func_uint32_t_u_s+0x28>
    6fdf:	8b 45 f8             	mov    -0x8(%rbp),%eax
    6fe2:	8b 55 fc             	mov    -0x4(%rbp),%edx
    6fe5:	89 c1                	mov    %eax,%ecx
    6fe7:	d3 ea                	shr    %cl,%edx
    6fe9:	89 d0                	mov    %edx,%eax
    6feb:	eb 03                	jmp    6ff0 <safe_rshift_func_uint32_t_u_s+0x2b>
    6fed:	8b 45 fc             	mov    -0x4(%rbp),%eax
    6ff0:	5d                   	pop    %rbp
    6ff1:	c3                   	retq   

0000000000006ff2 <safe_rshift_func_uint32_t_u_u>:
    6ff2:	f3 0f 1e fa          	endbr64 
    6ff6:	55                   	push   %rbp
    6ff7:	48 89 e5             	mov    %rsp,%rbp
    6ffa:	89 7d fc             	mov    %edi,-0x4(%rbp)
    6ffd:	89 75 f8             	mov    %esi,-0x8(%rbp)
    7000:	83 7d f8 1f          	cmpl   $0x1f,-0x8(%rbp)
    7004:	77 0e                	ja     7014 <safe_rshift_func_uint32_t_u_u+0x22>
    7006:	8b 45 f8             	mov    -0x8(%rbp),%eax
    7009:	8b 55 fc             	mov    -0x4(%rbp),%edx
    700c:	89 c1                	mov    %eax,%ecx
    700e:	d3 ea                	shr    %cl,%edx
    7010:	89 d0                	mov    %edx,%eax
    7012:	eb 03                	jmp    7017 <safe_rshift_func_uint32_t_u_u+0x25>
    7014:	8b 45 fc             	mov    -0x4(%rbp),%eax
    7017:	5d                   	pop    %rbp
    7018:	c3                   	retq   

0000000000007019 <safe_unary_minus_func_uint64_t_u>:
    7019:	f3 0f 1e fa          	endbr64 
    701d:	55                   	push   %rbp
    701e:	48 89 e5             	mov    %rsp,%rbp
    7021:	48 89 7d f8          	mov    %rdi,-0x8(%rbp)
    7025:	48 8b 45 f8          	mov    -0x8(%rbp),%rax
    7029:	48 f7 d8             	neg    %rax
    702c:	5d                   	pop    %rbp
    702d:	c3                   	retq   

000000000000702e <safe_add_func_uint64_t_u_u>:
    702e:	f3 0f 1e fa          	endbr64 
    7032:	55                   	push   %rbp
    7033:	48 89 e5             	mov    %rsp,%rbp
    7036:	48 89 7d f8          	mov    %rdi,-0x8(%rbp)
    703a:	48 89 75 f0          	mov    %rsi,-0x10(%rbp)
    703e:	48 8b 55 f8          	mov    -0x8(%rbp),%rdx
    7042:	48 8b 45 f0          	mov    -0x10(%rbp),%rax
    7046:	48 01 d0             	add    %rdx,%rax
    7049:	5d                   	pop    %rbp
    704a:	c3                   	retq   

000000000000704b <safe_sub_func_uint64_t_u_u>:
    704b:	f3 0f 1e fa          	endbr64 
    704f:	55                   	push   %rbp
    7050:	48 89 e5             	mov    %rsp,%rbp
    7053:	48 89 7d f8          	mov    %rdi,-0x8(%rbp)
    7057:	48 89 75 f0          	mov    %rsi,-0x10(%rbp)
    705b:	48 8b 45 f8          	mov    -0x8(%rbp),%rax
    705f:	48 2b 45 f0          	sub    -0x10(%rbp),%rax
    7063:	5d                   	pop    %rbp
    7064:	c3                   	retq   

0000000000007065 <safe_mul_func_uint64_t_u_u>:
    7065:	f3 0f 1e fa          	endbr64 
    7069:	55                   	push   %rbp
    706a:	48 89 e5             	mov    %rsp,%rbp
    706d:	48 89 7d f8          	mov    %rdi,-0x8(%rbp)
    7071:	48 89 75 f0          	mov    %rsi,-0x10(%rbp)
    7075:	48 8b 45 f8          	mov    -0x8(%rbp),%rax
    7079:	48 0f af 45 f0       	imul   -0x10(%rbp),%rax
    707e:	5d                   	pop    %rbp
    707f:	c3                   	retq   

0000000000007080 <safe_mod_func_uint64_t_u_u>:
    7080:	f3 0f 1e fa          	endbr64 
    7084:	55                   	push   %rbp
    7085:	48 89 e5             	mov    %rsp,%rbp
    7088:	48 89 7d f8          	mov    %rdi,-0x8(%rbp)
    708c:	48 89 75 f0          	mov    %rsi,-0x10(%rbp)
    7090:	48 83 7d f0 00       	cmpq   $0x0,-0x10(%rbp)
    7095:	74 12                	je     70a9 <safe_mod_func_uint64_t_u_u+0x29>
    7097:	48 8b 45 f8          	mov    -0x8(%rbp),%rax
    709b:	ba 00 00 00 00       	mov    $0x0,%edx
    70a0:	48 f7 75 f0          	divq   -0x10(%rbp)
    70a4:	48 89 d0             	mov    %rdx,%rax
    70a7:	eb 04                	jmp    70ad <safe_mod_func_uint64_t_u_u+0x2d>
    70a9:	48 8b 45 f8          	mov    -0x8(%rbp),%rax
    70ad:	5d                   	pop    %rbp
    70ae:	c3                   	retq   

00000000000070af <safe_div_func_uint64_t_u_u>:
    70af:	f3 0f 1e fa          	endbr64 
    70b3:	55                   	push   %rbp
    70b4:	48 89 e5             	mov    %rsp,%rbp
    70b7:	48 89 7d f8          	mov    %rdi,-0x8(%rbp)
    70bb:	48 89 75 f0          	mov    %rsi,-0x10(%rbp)
    70bf:	48 83 7d f0 00       	cmpq   $0x0,-0x10(%rbp)
    70c4:	74 0f                	je     70d5 <safe_div_func_uint64_t_u_u+0x26>
    70c6:	48 8b 45 f8          	mov    -0x8(%rbp),%rax
    70ca:	ba 00 00 00 00       	mov    $0x0,%edx
    70cf:	48 f7 75 f0          	divq   -0x10(%rbp)
    70d3:	eb 04                	jmp    70d9 <safe_div_func_uint64_t_u_u+0x2a>
    70d5:	48 8b 45 f8          	mov    -0x8(%rbp),%rax
    70d9:	5d                   	pop    %rbp
    70da:	c3                   	retq   

00000000000070db <safe_lshift_func_uint64_t_u_s>:
    70db:	f3 0f 1e fa          	endbr64 
    70df:	55                   	push   %rbp
    70e0:	48 89 e5             	mov    %rsp,%rbp
    70e3:	48 89 7d f8          	mov    %rdi,-0x8(%rbp)
    70e7:	89 75 f4             	mov    %esi,-0xc(%rbp)
    70ea:	83 7d f4 00          	cmpl   $0x0,-0xc(%rbp)
    70ee:	78 2f                	js     711f <safe_lshift_func_uint64_t_u_s+0x44>
    70f0:	83 7d f4 1f          	cmpl   $0x1f,-0xc(%rbp)
    70f4:	7f 29                	jg     711f <safe_lshift_func_uint64_t_u_s+0x44>
    70f6:	8b 45 f4             	mov    -0xc(%rbp),%eax
    70f9:	48 c7 c2 ff ff ff ff 	mov    $0xffffffffffffffff,%rdx
    7100:	89 c1                	mov    %eax,%ecx
    7102:	48 d3 ea             	shr    %cl,%rdx
    7105:	48 89 d0             	mov    %rdx,%rax
    7108:	48 39 45 f8          	cmp    %rax,-0x8(%rbp)
    710c:	77 11                	ja     711f <safe_lshift_func_uint64_t_u_s+0x44>
    710e:	8b 45 f4             	mov    -0xc(%rbp),%eax
    7111:	48 8b 55 f8          	mov    -0x8(%rbp),%rdx
    7115:	89 c1                	mov    %eax,%ecx
    7117:	48 d3 e2             	shl    %cl,%rdx
    711a:	48 89 d0             	mov    %rdx,%rax
    711d:	eb 04                	jmp    7123 <safe_lshift_func_uint64_t_u_s+0x48>
    711f:	48 8b 45 f8          	mov    -0x8(%rbp),%rax
    7123:	5d                   	pop    %rbp
    7124:	c3                   	retq   

0000000000007125 <safe_lshift_func_uint64_t_u_u>:
    7125:	f3 0f 1e fa          	endbr64 
    7129:	55                   	push   %rbp
    712a:	48 89 e5             	mov    %rsp,%rbp
    712d:	48 89 7d f8          	mov    %rdi,-0x8(%rbp)
    7131:	89 75 f4             	mov    %esi,-0xc(%rbp)
    7134:	83 7d f4 1f          	cmpl   $0x1f,-0xc(%rbp)
    7138:	77 29                	ja     7163 <safe_lshift_func_uint64_t_u_u+0x3e>
    713a:	8b 45 f4             	mov    -0xc(%rbp),%eax
    713d:	48 c7 c2 ff ff ff ff 	mov    $0xffffffffffffffff,%rdx
    7144:	89 c1                	mov    %eax,%ecx
    7146:	48 d3 ea             	shr    %cl,%rdx
    7149:	48 89 d0             	mov    %rdx,%rax
    714c:	48 39 45 f8          	cmp    %rax,-0x8(%rbp)
    7150:	77 11                	ja     7163 <safe_lshift_func_uint64_t_u_u+0x3e>
    7152:	8b 45 f4             	mov    -0xc(%rbp),%eax
    7155:	48 8b 55 f8          	mov    -0x8(%rbp),%rdx
    7159:	89 c1                	mov    %eax,%ecx
    715b:	48 d3 e2             	shl    %cl,%rdx
    715e:	48 89 d0             	mov    %rdx,%rax
    7161:	eb 04                	jmp    7167 <safe_lshift_func_uint64_t_u_u+0x42>
    7163:	48 8b 45 f8          	mov    -0x8(%rbp),%rax
    7167:	5d                   	pop    %rbp
    7168:	c3                   	retq   

0000000000007169 <safe_rshift_func_uint64_t_u_s>:
    7169:	f3 0f 1e fa          	endbr64 
    716d:	55                   	push   %rbp
    716e:	48 89 e5             	mov    %rsp,%rbp
    7171:	48 89 7d f8          	mov    %rdi,-0x8(%rbp)
    7175:	89 75 f4             	mov    %esi,-0xc(%rbp)
    7178:	83 7d f4 00          	cmpl   $0x0,-0xc(%rbp)
    717c:	78 17                	js     7195 <safe_rshift_func_uint64_t_u_s+0x2c>
    717e:	83 7d f4 1f          	cmpl   $0x1f,-0xc(%rbp)
    7182:	7f 11                	jg     7195 <safe_rshift_func_uint64_t_u_s+0x2c>
    7184:	8b 45 f4             	mov    -0xc(%rbp),%eax
    7187:	48 8b 55 f8          	mov    -0x8(%rbp),%rdx
    718b:	89 c1                	mov    %eax,%ecx
    718d:	48 d3 ea             	shr    %cl,%rdx
    7190:	48 89 d0             	mov    %rdx,%rax
    7193:	eb 04                	jmp    7199 <safe_rshift_func_uint64_t_u_s+0x30>
    7195:	48 8b 45 f8          	mov    -0x8(%rbp),%rax
    7199:	5d                   	pop    %rbp
    719a:	c3                   	retq   

000000000000719b <safe_rshift_func_uint64_t_u_u>:
    719b:	f3 0f 1e fa          	endbr64 
    719f:	55                   	push   %rbp
    71a0:	48 89 e5             	mov    %rsp,%rbp
    71a3:	48 89 7d f8          	mov    %rdi,-0x8(%rbp)
    71a7:	89 75 f4             	mov    %esi,-0xc(%rbp)
    71aa:	83 7d f4 1f          	cmpl   $0x1f,-0xc(%rbp)
    71ae:	77 11                	ja     71c1 <safe_rshift_func_uint64_t_u_u+0x26>
    71b0:	8b 45 f4             	mov    -0xc(%rbp),%eax
    71b3:	48 8b 55 f8          	mov    -0x8(%rbp),%rdx
    71b7:	89 c1                	mov    %eax,%ecx
    71b9:	48 d3 ea             	shr    %cl,%rdx
    71bc:	48 89 d0             	mov    %rdx,%rax
    71bf:	eb 04                	jmp    71c5 <safe_rshift_func_uint64_t_u_u+0x2a>
    71c1:	48 8b 45 f8          	mov    -0x8(%rbp),%rax
    71c5:	5d                   	pop    %rbp
    71c6:	c3                   	retq   

00000000000071c7 <safe_add_func_float_f_f>:
    71c7:	f3 0f 1e fa          	endbr64 
    71cb:	55                   	push   %rbp
    71cc:	48 89 e5             	mov    %rsp,%rbp
    71cf:	f3 0f 11 45 fc       	movss  %xmm0,-0x4(%rbp)
    71d4:	f3 0f 11 4d f8       	movss  %xmm1,-0x8(%rbp)
    71d9:	f3 0f 10 4d fc       	movss  -0x4(%rbp),%xmm1
    71de:	f3 0f 10 05 3e de 00 	movss  0xde3e(%rip),%xmm0        # 15024 <g_2736+0xfb4>
    71e5:	00 
    71e6:	f3 0f 59 c8          	mulss  %xmm0,%xmm1
    71ea:	f3 0f 10 55 f8       	movss  -0x8(%rbp),%xmm2
    71ef:	f3 0f 10 05 2d de 00 	movss  0xde2d(%rip),%xmm0        # 15024 <g_2736+0xfb4>
    71f6:	00 
    71f7:	f3 0f 59 c2          	mulss  %xmm2,%xmm0
    71fb:	f3 0f 58 c1          	addss  %xmm1,%xmm0
    71ff:	f3 0f 10 0d 29 de 00 	movss  0xde29(%rip),%xmm1        # 15030 <g_2736+0xfc0>
    7206:	00 
    7207:	0f 54 c1             	andps  %xmm1,%xmm0
    720a:	0f 2f 05 2f de 00 00 	comiss 0xde2f(%rip),%xmm0        # 15040 <g_2736+0xfd0>
    7211:	76 07                	jbe    721a <safe_add_func_float_f_f+0x53>
    7213:	f3 0f 10 45 fc       	movss  -0x4(%rbp),%xmm0
    7218:	eb 0a                	jmp    7224 <safe_add_func_float_f_f+0x5d>
    721a:	f3 0f 10 45 fc       	movss  -0x4(%rbp),%xmm0
    721f:	f3 0f 58 45 f8       	addss  -0x8(%rbp),%xmm0
    7224:	5d                   	pop    %rbp
    7225:	c3                   	retq   

0000000000007226 <safe_sub_func_float_f_f>:
    7226:	f3 0f 1e fa          	endbr64 
    722a:	55                   	push   %rbp
    722b:	48 89 e5             	mov    %rsp,%rbp
    722e:	f3 0f 11 45 fc       	movss  %xmm0,-0x4(%rbp)
    7233:	f3 0f 11 4d f8       	movss  %xmm1,-0x8(%rbp)
    7238:	f3 0f 10 4d fc       	movss  -0x4(%rbp),%xmm1
    723d:	f3 0f 10 05 df dd 00 	movss  0xdddf(%rip),%xmm0        # 15024 <g_2736+0xfb4>
    7244:	00 
    7245:	f3 0f 59 c1          	mulss  %xmm1,%xmm0
    7249:	f3 0f 10 55 f8       	movss  -0x8(%rbp),%xmm2
    724e:	f3 0f 10 0d ce dd 00 	movss  0xddce(%rip),%xmm1        # 15024 <g_2736+0xfb4>
    7255:	00 
    7256:	f3 0f 59 ca          	mulss  %xmm2,%xmm1
    725a:	f3 0f 5c c1          	subss  %xmm1,%xmm0
    725e:	f3 0f 10 0d ca dd 00 	movss  0xddca(%rip),%xmm1        # 15030 <g_2736+0xfc0>
    7265:	00 
    7266:	0f 54 c1             	andps  %xmm1,%xmm0
    7269:	0f 2f 05 d0 dd 00 00 	comiss 0xddd0(%rip),%xmm0        # 15040 <g_2736+0xfd0>
    7270:	76 07                	jbe    7279 <safe_sub_func_float_f_f+0x53>
    7272:	f3 0f 10 45 fc       	movss  -0x4(%rbp),%xmm0
    7277:	eb 0a                	jmp    7283 <safe_sub_func_float_f_f+0x5d>
    7279:	f3 0f 10 45 fc       	movss  -0x4(%rbp),%xmm0
    727e:	f3 0f 5c 45 f8       	subss  -0x8(%rbp),%xmm0
    7283:	5d                   	pop    %rbp
    7284:	c3                   	retq   

0000000000007285 <safe_mul_func_float_f_f>:
    7285:	f3 0f 1e fa          	endbr64 
    7289:	55                   	push   %rbp
    728a:	48 89 e5             	mov    %rsp,%rbp
    728d:	f3 0f 11 45 fc       	movss  %xmm0,-0x4(%rbp)
    7292:	f3 0f 11 4d f8       	movss  %xmm1,-0x8(%rbp)
    7297:	f3 0f 10 4d fc       	movss  -0x4(%rbp),%xmm1
    729c:	f3 0f 10 05 a0 dd 00 	movss  0xdda0(%rip),%xmm0        # 15044 <g_2736+0xfd4>
    72a3:	00 
    72a4:	f3 0f 59 c8          	mulss  %xmm0,%xmm1
    72a8:	f3 0f 10 55 f8       	movss  -0x8(%rbp),%xmm2
    72ad:	f3 0f 10 05 93 dd 00 	movss  0xdd93(%rip),%xmm0        # 15048 <g_2736+0xfd8>
    72b4:	00 
    72b5:	f3 0f 59 c2          	mulss  %xmm2,%xmm0
    72b9:	f3 0f 59 c1          	mulss  %xmm1,%xmm0
    72bd:	f3 0f 10 0d 6b dd 00 	movss  0xdd6b(%rip),%xmm1        # 15030 <g_2736+0xfc0>
    72c4:	00 
    72c5:	0f 54 c1             	andps  %xmm1,%xmm0
    72c8:	0f 2f 05 7d dd 00 00 	comiss 0xdd7d(%rip),%xmm0        # 1504c <g_2736+0xfdc>
    72cf:	76 07                	jbe    72d8 <safe_mul_func_float_f_f+0x53>
    72d1:	f3 0f 10 45 fc       	movss  -0x4(%rbp),%xmm0
    72d6:	eb 0a                	jmp    72e2 <safe_mul_func_float_f_f+0x5d>
    72d8:	f3 0f 10 45 fc       	movss  -0x4(%rbp),%xmm0
    72dd:	f3 0f 59 45 f8       	mulss  -0x8(%rbp),%xmm0
    72e2:	5d                   	pop    %rbp
    72e3:	c3                   	retq   

00000000000072e4 <safe_div_func_float_f_f>:
    72e4:	f3 0f 1e fa          	endbr64 
    72e8:	55                   	push   %rbp
    72e9:	48 89 e5             	mov    %rsp,%rbp
    72ec:	f3 0f 11 45 fc       	movss  %xmm0,-0x4(%rbp)
    72f1:	f3 0f 11 4d f8       	movss  %xmm1,-0x8(%rbp)
    72f6:	f3 0f 10 45 f8       	movss  -0x8(%rbp),%xmm0
    72fb:	f3 0f 10 0d 2d dd 00 	movss  0xdd2d(%rip),%xmm1        # 15030 <g_2736+0xfc0>
    7302:	00 
    7303:	0f 54 c8             	andps  %xmm0,%xmm1
    7306:	f3 0f 10 05 42 dd 00 	movss  0xdd42(%rip),%xmm0        # 15050 <g_2736+0xfe0>
    730d:	00 
    730e:	0f 2f c1             	comiss %xmm1,%xmm0
    7311:	0f 97 c0             	seta   %al
    7314:	83 f0 01             	xor    $0x1,%eax
    7317:	84 c0                	test   %al,%al
    7319:	75 56                	jne    7371 <safe_div_func_float_f_f+0x8d>
    731b:	66 0f ef c0          	pxor   %xmm0,%xmm0
    731f:	0f 2e 45 f8          	ucomiss -0x8(%rbp),%xmm0
    7323:	7a 0a                	jp     732f <safe_div_func_float_f_f+0x4b>
    7325:	66 0f ef c0          	pxor   %xmm0,%xmm0
    7329:	0f 2e 45 f8          	ucomiss -0x8(%rbp),%xmm0
    732d:	74 4e                	je     737d <safe_div_func_float_f_f+0x99>
    732f:	f3 0f 10 4d fc       	movss  -0x4(%rbp),%xmm1
    7334:	f3 0f 10 05 18 dd 00 	movss  0xdd18(%rip),%xmm0        # 15054 <g_2736+0xfe4>
    733b:	00 
    733c:	f3 0f 59 c1          	mulss  %xmm1,%xmm0
    7340:	f3 0f 10 55 f8       	movss  -0x8(%rbp),%xmm2
    7345:	f3 0f 10 0d 0b dd 00 	movss  0xdd0b(%rip),%xmm1        # 15058 <g_2736+0xfe8>
    734c:	00 
    734d:	f3 0f 59 ca          	mulss  %xmm2,%xmm1
    7351:	f3 0f 5e c1          	divss  %xmm1,%xmm0
    7355:	f3 0f 10 0d d3 dc 00 	movss  0xdcd3(%rip),%xmm1        # 15030 <g_2736+0xfc0>
    735c:	00 
    735d:	0f 54 c1             	andps  %xmm1,%xmm0
    7360:	0f 2f 05 f5 dc 00 00 	comiss 0xdcf5(%rip),%xmm0        # 1505c <g_2736+0xfec>
    7367:	0f 97 c0             	seta   %al
    736a:	83 f0 01             	xor    $0x1,%eax
    736d:	84 c0                	test   %al,%al
    736f:	74 0c                	je     737d <safe_div_func_float_f_f+0x99>
    7371:	f3 0f 10 45 fc       	movss  -0x4(%rbp),%xmm0
    7376:	f3 0f 5e 45 f8       	divss  -0x8(%rbp),%xmm0
    737b:	eb 05                	jmp    7382 <safe_div_func_float_f_f+0x9e>
    737d:	f3 0f 10 45 fc       	movss  -0x4(%rbp),%xmm0
    7382:	5d                   	pop    %rbp
    7383:	c3                   	retq   

0000000000007384 <safe_add_func_double_f_f>:
    7384:	f3 0f 1e fa          	endbr64 
    7388:	55                   	push   %rbp
    7389:	48 89 e5             	mov    %rsp,%rbp
    738c:	f2 0f 11 45 f8       	movsd  %xmm0,-0x8(%rbp)
    7391:	f2 0f 11 4d f0       	movsd  %xmm1,-0x10(%rbp)
    7396:	f2 0f 10 4d f8       	movsd  -0x8(%rbp),%xmm1
    739b:	f2 0f 10 05 bd dc 00 	movsd  0xdcbd(%rip),%xmm0        # 15060 <g_2736+0xff0>
    73a2:	00 
    73a3:	f2 0f 59 c8          	mulsd  %xmm0,%xmm1
    73a7:	f2 0f 10 55 f0       	movsd  -0x10(%rbp),%xmm2
    73ac:	f2 0f 10 05 ac dc 00 	movsd  0xdcac(%rip),%xmm0        # 15060 <g_2736+0xff0>
    73b3:	00 
    73b4:	f2 0f 59 c2          	mulsd  %xmm2,%xmm0
    73b8:	f2 0f 58 c1          	addsd  %xmm1,%xmm0
    73bc:	f3 0f 7e 0d ac dc 00 	movq   0xdcac(%rip),%xmm1        # 15070 <g_2736+0x1000>
    73c3:	00 
    73c4:	66 0f 54 c1          	andpd  %xmm1,%xmm0
    73c8:	66 0f 2f 05 b0 dc 00 	comisd 0xdcb0(%rip),%xmm0        # 15080 <g_2736+0x1010>
    73cf:	00 
    73d0:	76 07                	jbe    73d9 <safe_add_func_double_f_f+0x55>
    73d2:	f2 0f 10 45 f8       	movsd  -0x8(%rbp),%xmm0
    73d7:	eb 0a                	jmp    73e3 <safe_add_func_double_f_f+0x5f>
    73d9:	f2 0f 10 45 f8       	movsd  -0x8(%rbp),%xmm0
    73de:	f2 0f 58 45 f0       	addsd  -0x10(%rbp),%xmm0
    73e3:	5d                   	pop    %rbp
    73e4:	c3                   	retq   

00000000000073e5 <safe_sub_func_double_f_f>:
    73e5:	f3 0f 1e fa          	endbr64 
    73e9:	55                   	push   %rbp
    73ea:	48 89 e5             	mov    %rsp,%rbp
    73ed:	f2 0f 11 45 f8       	movsd  %xmm0,-0x8(%rbp)
    73f2:	f2 0f 11 4d f0       	movsd  %xmm1,-0x10(%rbp)
    73f7:	f2 0f 10 4d f8       	movsd  -0x8(%rbp),%xmm1
    73fc:	f2 0f 10 05 5c dc 00 	movsd  0xdc5c(%rip),%xmm0        # 15060 <g_2736+0xff0>
    7403:	00 
    7404:	f2 0f 59 c1          	mulsd  %xmm1,%xmm0
    7408:	f2 0f 10 55 f0       	movsd  -0x10(%rbp),%xmm2
    740d:	f2 0f 10 0d 4b dc 00 	movsd  0xdc4b(%rip),%xmm1        # 15060 <g_2736+0xff0>
    7414:	00 
    7415:	f2 0f 59 ca          	mulsd  %xmm2,%xmm1
    7419:	f2 0f 5c c1          	subsd  %xmm1,%xmm0
    741d:	f3 0f 7e 0d 4b dc 00 	movq   0xdc4b(%rip),%xmm1        # 15070 <g_2736+0x1000>
    7424:	00 
    7425:	66 0f 54 c1          	andpd  %xmm1,%xmm0
    7429:	66 0f 2f 05 4f dc 00 	comisd 0xdc4f(%rip),%xmm0        # 15080 <g_2736+0x1010>
    7430:	00 
    7431:	76 07                	jbe    743a <safe_sub_func_double_f_f+0x55>
    7433:	f2 0f 10 45 f8       	movsd  -0x8(%rbp),%xmm0
    7438:	eb 0a                	jmp    7444 <safe_sub_func_double_f_f+0x5f>
    743a:	f2 0f 10 45 f8       	movsd  -0x8(%rbp),%xmm0
    743f:	f2 0f 5c 45 f0       	subsd  -0x10(%rbp),%xmm0
    7444:	5d                   	pop    %rbp
    7445:	c3                   	retq   

0000000000007446 <safe_mul_func_double_f_f>:
    7446:	f3 0f 1e fa          	endbr64 
    744a:	55                   	push   %rbp
    744b:	48 89 e5             	mov    %rsp,%rbp
    744e:	f2 0f 11 45 f8       	movsd  %xmm0,-0x8(%rbp)
    7453:	f2 0f 11 4d f0       	movsd  %xmm1,-0x10(%rbp)
    7458:	f2 0f 10 4d f8       	movsd  -0x8(%rbp),%xmm1
    745d:	f2 0f 10 05 23 dc 00 	movsd  0xdc23(%rip),%xmm0        # 15088 <g_2736+0x1018>
    7464:	00 
    7465:	f2 0f 59 c8          	mulsd  %xmm0,%xmm1
    7469:	f2 0f 10 55 f0       	movsd  -0x10(%rbp),%xmm2
    746e:	f2 0f 10 05 1a dc 00 	movsd  0xdc1a(%rip),%xmm0        # 15090 <g_2736+0x1020>
    7475:	00 
    7476:	f2 0f 59 c2          	mulsd  %xmm2,%xmm0
    747a:	f2 0f 59 c1          	mulsd  %xmm1,%xmm0
    747e:	f3 0f 7e 0d ea db 00 	movq   0xdbea(%rip),%xmm1        # 15070 <g_2736+0x1000>
    7485:	00 
    7486:	66 0f 54 c1          	andpd  %xmm1,%xmm0
    748a:	66 0f 2f 05 06 dc 00 	comisd 0xdc06(%rip),%xmm0        # 15098 <g_2736+0x1028>
    7491:	00 
    7492:	76 07                	jbe    749b <safe_mul_func_double_f_f+0x55>
    7494:	f2 0f 10 45 f8       	movsd  -0x8(%rbp),%xmm0
    7499:	eb 0a                	jmp    74a5 <safe_mul_func_double_f_f+0x5f>
    749b:	f2 0f 10 45 f8       	movsd  -0x8(%rbp),%xmm0
    74a0:	f2 0f 59 45 f0       	mulsd  -0x10(%rbp),%xmm0
    74a5:	5d                   	pop    %rbp
    74a6:	c3                   	retq   

00000000000074a7 <safe_div_func_double_f_f>:
    74a7:	f3 0f 1e fa          	endbr64 
    74ab:	55                   	push   %rbp
    74ac:	48 89 e5             	mov    %rsp,%rbp
    74af:	f2 0f 11 45 f8       	movsd  %xmm0,-0x8(%rbp)
    74b4:	f2 0f 11 4d f0       	movsd  %xmm1,-0x10(%rbp)
    74b9:	f2 0f 10 45 f0       	movsd  -0x10(%rbp),%xmm0
    74be:	f3 0f 7e 0d aa db 00 	movq   0xdbaa(%rip),%xmm1        # 15070 <g_2736+0x1000>
    74c5:	00 
    74c6:	66 0f 54 c8          	andpd  %xmm0,%xmm1
    74ca:	f2 0f 10 05 ce db 00 	movsd  0xdbce(%rip),%xmm0        # 150a0 <g_2736+0x1030>
    74d1:	00 
    74d2:	66 0f 2f c1          	comisd %xmm1,%xmm0
    74d6:	0f 97 c0             	seta   %al
    74d9:	83 f0 01             	xor    $0x1,%eax
    74dc:	84 c0                	test   %al,%al
    74de:	75 5a                	jne    753a <safe_div_func_double_f_f+0x93>
    74e0:	66 0f ef c0          	pxor   %xmm0,%xmm0
    74e4:	66 0f 2e 45 f0       	ucomisd -0x10(%rbp),%xmm0
    74e9:	7a 0b                	jp     74f6 <safe_div_func_double_f_f+0x4f>
    74eb:	66 0f ef c0          	pxor   %xmm0,%xmm0
    74ef:	66 0f 2e 45 f0       	ucomisd -0x10(%rbp),%xmm0
    74f4:	74 50                	je     7546 <safe_div_func_double_f_f+0x9f>
    74f6:	f2 0f 10 4d f8       	movsd  -0x8(%rbp),%xmm1
    74fb:	f2 0f 10 05 a5 db 00 	movsd  0xdba5(%rip),%xmm0        # 150a8 <g_2736+0x1038>
    7502:	00 
    7503:	f2 0f 59 c1          	mulsd  %xmm1,%xmm0
    7507:	f2 0f 10 55 f0       	movsd  -0x10(%rbp),%xmm2
    750c:	f2 0f 10 0d 9c db 00 	movsd  0xdb9c(%rip),%xmm1        # 150b0 <g_2736+0x1040>
    7513:	00 
    7514:	f2 0f 59 ca          	mulsd  %xmm2,%xmm1
    7518:	f2 0f 5e c1          	divsd  %xmm1,%xmm0
    751c:	f3 0f 7e 0d 4c db 00 	movq   0xdb4c(%rip),%xmm1        # 15070 <g_2736+0x1000>
    7523:	00 
    7524:	66 0f 54 c1          	andpd  %xmm1,%xmm0
    7528:	66 0f 2f 05 88 db 00 	comisd 0xdb88(%rip),%xmm0        # 150b8 <g_2736+0x1048>
    752f:	00 
    7530:	0f 97 c0             	seta   %al
    7533:	83 f0 01             	xor    $0x1,%eax
    7536:	84 c0                	test   %al,%al
    7538:	74 0c                	je     7546 <safe_div_func_double_f_f+0x9f>
    753a:	f2 0f 10 45 f8       	movsd  -0x8(%rbp),%xmm0
    753f:	f2 0f 5e 45 f0       	divsd  -0x10(%rbp),%xmm0
    7544:	eb 05                	jmp    754b <safe_div_func_double_f_f+0xa4>
    7546:	f2 0f 10 45 f8       	movsd  -0x8(%rbp),%xmm0
    754b:	5d                   	pop    %rbp
    754c:	c3                   	retq   

000000000000754d <safe_convert_func_float_to_int32_t>:
    754d:	f3 0f 1e fa          	endbr64 
    7551:	55                   	push   %rbp
    7552:	48 89 e5             	mov    %rsp,%rbp
    7555:	f3 0f 11 45 fc       	movss  %xmm0,-0x4(%rbp)
    755a:	f3 0f 10 05 5e db 00 	movss  0xdb5e(%rip),%xmm0        # 150c0 <g_2736+0x1050>
    7561:	00 
    7562:	0f 2f 45 fc          	comiss -0x4(%rbp),%xmm0
    7566:	0f 93 c0             	setae  %al
    7569:	83 f0 01             	xor    $0x1,%eax
    756c:	84 c0                	test   %al,%al
    756e:	74 21                	je     7591 <safe_convert_func_float_to_int32_t+0x44>
    7570:	f3 0f 10 45 fc       	movss  -0x4(%rbp),%xmm0
    7575:	0f 2f 05 48 db 00 00 	comiss 0xdb48(%rip),%xmm0        # 150c4 <g_2736+0x1054>
    757c:	0f 93 c0             	setae  %al
    757f:	83 f0 01             	xor    $0x1,%eax
    7582:	84 c0                	test   %al,%al
    7584:	74 0b                	je     7591 <safe_convert_func_float_to_int32_t+0x44>
    7586:	f3 0f 10 45 fc       	movss  -0x4(%rbp),%xmm0
    758b:	f3 0f 2c c0          	cvttss2si %xmm0,%eax
    758f:	eb 05                	jmp    7596 <safe_convert_func_float_to_int32_t+0x49>
    7591:	b8 ff ff ff 7f       	mov    $0x7fffffff,%eax
    7596:	5d                   	pop    %rbp
    7597:	c3                   	retq   

0000000000007598 <crc32_gentab>:
    7598:	f3 0f 1e fa          	endbr64 
    759c:	55                   	push   %rbp
    759d:	48 89 e5             	mov    %rsp,%rbp
    75a0:	c7 45 fc 20 83 b8 ed 	movl   $0xedb88320,-0x4(%rbp)
    75a7:	c7 45 f4 00 00 00 00 	movl   $0x0,-0xc(%rbp)
    75ae:	eb 51                	jmp    7601 <crc32_gentab+0x69>
    75b0:	8b 45 f4             	mov    -0xc(%rbp),%eax
    75b3:	89 45 f0             	mov    %eax,-0x10(%rbp)
    75b6:	c7 45 f8 08 00 00 00 	movl   $0x8,-0x8(%rbp)
    75bd:	eb 1e                	jmp    75dd <crc32_gentab+0x45>
    75bf:	8b 45 f0             	mov    -0x10(%rbp),%eax
    75c2:	83 e0 01             	and    $0x1,%eax
    75c5:	85 c0                	test   %eax,%eax
    75c7:	74 0d                	je     75d6 <crc32_gentab+0x3e>
    75c9:	8b 45 f0             	mov    -0x10(%rbp),%eax
    75cc:	d1 e8                	shr    %eax
    75ce:	33 45 fc             	xor    -0x4(%rbp),%eax
    75d1:	89 45 f0             	mov    %eax,-0x10(%rbp)
    75d4:	eb 03                	jmp    75d9 <crc32_gentab+0x41>
    75d6:	d1 6d f0             	shrl   -0x10(%rbp)
    75d9:	83 6d f8 01          	subl   $0x1,-0x8(%rbp)
    75dd:	83 7d f8 00          	cmpl   $0x0,-0x8(%rbp)
    75e1:	7f dc                	jg     75bf <crc32_gentab+0x27>
    75e3:	8b 45 f4             	mov    -0xc(%rbp),%eax
    75e6:	48 98                	cltq   
    75e8:	48 8d 0c 85 00 00 00 	lea    0x0(,%rax,4),%rcx
    75ef:	00 
    75f0:	48 8d 15 89 3a 01 00 	lea    0x13a89(%rip),%rdx        # 1b080 <crc32_tab>
    75f7:	8b 45 f0             	mov    -0x10(%rbp),%eax
    75fa:	89 04 11             	mov    %eax,(%rcx,%rdx,1)
    75fd:	83 45 f4 01          	addl   $0x1,-0xc(%rbp)
    7601:	81 7d f4 ff 00 00 00 	cmpl   $0xff,-0xc(%rbp)
    7608:	7e a6                	jle    75b0 <crc32_gentab+0x18>
    760a:	90                   	nop
    760b:	90                   	nop
    760c:	5d                   	pop    %rbp
    760d:	c3                   	retq   

000000000000760e <crc32_byte>:
    760e:	f3 0f 1e fa          	endbr64 
    7612:	55                   	push   %rbp
    7613:	48 89 e5             	mov    %rsp,%rbp
    7616:	89 f8                	mov    %edi,%eax
    7618:	88 45 fc             	mov    %al,-0x4(%rbp)
    761b:	8b 05 ff 09 01 00    	mov    0x109ff(%rip),%eax        # 18020 <crc32_context>
    7621:	c1 e8 08             	shr    $0x8,%eax
    7624:	89 c1                	mov    %eax,%ecx
    7626:	0f b6 55 fc          	movzbl -0x4(%rbp),%edx
    762a:	8b 05 f0 09 01 00    	mov    0x109f0(%rip),%eax        # 18020 <crc32_context>
    7630:	31 d0                	xor    %edx,%eax
    7632:	0f b6 c0             	movzbl %al,%eax
    7635:	89 c0                	mov    %eax,%eax
    7637:	48 8d 14 85 00 00 00 	lea    0x0(,%rax,4),%rdx
    763e:	00 
    763f:	48 8d 05 3a 3a 01 00 	lea    0x13a3a(%rip),%rax        # 1b080 <crc32_tab>
    7646:	8b 04 02             	mov    (%rdx,%rax,1),%eax
    7649:	31 c8                	xor    %ecx,%eax
    764b:	89 05 cf 09 01 00    	mov    %eax,0x109cf(%rip)        # 18020 <crc32_context>
    7651:	90                   	nop
    7652:	5d                   	pop    %rbp
    7653:	c3                   	retq   

0000000000007654 <crc32_8bytes>:
    7654:	f3 0f 1e fa          	endbr64 
    7658:	55                   	push   %rbp
    7659:	48 89 e5             	mov    %rsp,%rbp
    765c:	48 83 ec 08          	sub    $0x8,%rsp
    7660:	48 89 7d f8          	mov    %rdi,-0x8(%rbp)
    7664:	48 8b 45 f8          	mov    -0x8(%rbp),%rax
    7668:	0f b6 c0             	movzbl %al,%eax
    766b:	89 c7                	mov    %eax,%edi
    766d:	e8 9c ff ff ff       	callq  760e <crc32_byte>
    7672:	48 8b 45 f8          	mov    -0x8(%rbp),%rax
    7676:	48 c1 e8 08          	shr    $0x8,%rax
    767a:	0f b6 c0             	movzbl %al,%eax
    767d:	89 c7                	mov    %eax,%edi
    767f:	e8 8a ff ff ff       	callq  760e <crc32_byte>
    7684:	48 8b 45 f8          	mov    -0x8(%rbp),%rax
    7688:	48 c1 e8 10          	shr    $0x10,%rax
    768c:	0f b6 c0             	movzbl %al,%eax
    768f:	89 c7                	mov    %eax,%edi
    7691:	e8 78 ff ff ff       	callq  760e <crc32_byte>
    7696:	48 8b 45 f8          	mov    -0x8(%rbp),%rax
    769a:	48 c1 e8 18          	shr    $0x18,%rax
    769e:	0f b6 c0             	movzbl %al,%eax
    76a1:	89 c7                	mov    %eax,%edi
    76a3:	e8 66 ff ff ff       	callq  760e <crc32_byte>
    76a8:	48 8b 45 f8          	mov    -0x8(%rbp),%rax
    76ac:	48 c1 e8 20          	shr    $0x20,%rax
    76b0:	0f b6 c0             	movzbl %al,%eax
    76b3:	89 c7                	mov    %eax,%edi
    76b5:	e8 54 ff ff ff       	callq  760e <crc32_byte>
    76ba:	48 8b 45 f8          	mov    -0x8(%rbp),%rax
    76be:	48 c1 e8 28          	shr    $0x28,%rax
    76c2:	0f b6 c0             	movzbl %al,%eax
    76c5:	89 c7                	mov    %eax,%edi
    76c7:	e8 42 ff ff ff       	callq  760e <crc32_byte>
    76cc:	48 8b 45 f8          	mov    -0x8(%rbp),%rax
    76d0:	48 c1 e8 30          	shr    $0x30,%rax
    76d4:	0f b6 c0             	movzbl %al,%eax
    76d7:	89 c7                	mov    %eax,%edi
    76d9:	e8 30 ff ff ff       	callq  760e <crc32_byte>
    76de:	48 8b 45 f8          	mov    -0x8(%rbp),%rax
    76e2:	48 c1 e8 38          	shr    $0x38,%rax
    76e6:	0f b6 c0             	movzbl %al,%eax
    76e9:	89 c7                	mov    %eax,%edi
    76eb:	e8 1e ff ff ff       	callq  760e <crc32_byte>
    76f0:	90                   	nop
    76f1:	c9                   	leaveq 
    76f2:	c3                   	retq   

00000000000076f3 <transparent_crc>:
    76f3:	f3 0f 1e fa          	endbr64 
    76f7:	55                   	push   %rbp
    76f8:	48 89 e5             	mov    %rsp,%rbp
    76fb:	48 83 ec 20          	sub    $0x20,%rsp
    76ff:	48 89 7d f8          	mov    %rdi,-0x8(%rbp)
    7703:	48 89 75 f0          	mov    %rsi,-0x10(%rbp)
    7707:	89 55 ec             	mov    %edx,-0x14(%rbp)
    770a:	48 8b 45 f8          	mov    -0x8(%rbp),%rax
    770e:	48 89 c7             	mov    %rax,%rdi
    7711:	e8 3e ff ff ff       	callq  7654 <crc32_8bytes>
    7716:	83 7d ec 00          	cmpl   $0x0,-0x14(%rbp)
    771a:	74 22                	je     773e <transparent_crc+0x4b>
    771c:	8b 05 fe 08 01 00    	mov    0x108fe(%rip),%eax        # 18020 <crc32_context>
    7722:	f7 d0                	not    %eax
    7724:	89 c2                	mov    %eax,%edx
    7726:	48 8b 45 f0          	mov    -0x10(%rbp),%rax
    772a:	48 89 c6             	mov    %rax,%rsi
    772d:	48 8d 3d fc c8 00 00 	lea    0xc8fc(%rip),%rdi        # 14030 <_IO_stdin_used+0x30>
    7734:	b8 00 00 00 00       	mov    $0x0,%eax
    7739:	e8 42 e9 ff ff       	callq  6080 <printf@plt>
    773e:	90                   	nop
    773f:	c9                   	leaveq 
    7740:	c3                   	retq   

0000000000007741 <transparent_crc_bytes>:
    7741:	f3 0f 1e fa          	endbr64 
    7745:	55                   	push   %rbp
    7746:	48 89 e5             	mov    %rsp,%rbp
    7749:	48 83 ec 30          	sub    $0x30,%rsp
    774d:	48 89 7d e8          	mov    %rdi,-0x18(%rbp)
    7751:	89 75 e4             	mov    %esi,-0x1c(%rbp)
    7754:	48 89 55 d8          	mov    %rdx,-0x28(%rbp)
    7758:	89 4d e0             	mov    %ecx,-0x20(%rbp)
    775b:	c7 45 fc 00 00 00 00 	movl   $0x0,-0x4(%rbp)
    7762:	eb 1e                	jmp    7782 <transparent_crc_bytes+0x41>
    7764:	8b 45 fc             	mov    -0x4(%rbp),%eax
    7767:	48 63 d0             	movslq %eax,%rdx
    776a:	48 8b 45 e8          	mov    -0x18(%rbp),%rax
    776e:	48 01 d0             	add    %rdx,%rax
    7771:	0f b6 00             	movzbl (%rax),%eax
    7774:	0f b6 c0             	movzbl %al,%eax
    7777:	89 c7                	mov    %eax,%edi
    7779:	e8 90 fe ff ff       	callq  760e <crc32_byte>
    777e:	83 45 fc 01          	addl   $0x1,-0x4(%rbp)
    7782:	8b 45 fc             	mov    -0x4(%rbp),%eax
    7785:	3b 45 e4             	cmp    -0x1c(%rbp),%eax
    7788:	7c da                	jl     7764 <transparent_crc_bytes+0x23>
    778a:	83 7d e0 00          	cmpl   $0x0,-0x20(%rbp)
    778e:	74 22                	je     77b2 <transparent_crc_bytes+0x71>
    7790:	8b 05 8a 08 01 00    	mov    0x1088a(%rip),%eax        # 18020 <crc32_context>
    7796:	f7 d0                	not    %eax
    7798:	89 c2                	mov    %eax,%edx
    779a:	48 8b 45 d8          	mov    -0x28(%rbp),%rax
    779e:	48 89 c6             	mov    %rax,%rsi
    77a1:	48 8d 3d 88 c8 00 00 	lea    0xc888(%rip),%rdi        # 14030 <_IO_stdin_used+0x30>
    77a8:	b8 00 00 00 00       	mov    $0x0,%eax
    77ad:	e8 ce e8 ff ff       	callq  6080 <printf@plt>
    77b2:	90                   	nop
    77b3:	c9                   	leaveq 
    77b4:	c3                   	retq   

00000000000077b5 <func_1>:
    77b5:	f3 0f 1e fa          	endbr64 
    77b9:	55                   	push   %rbp
    77ba:	48 89 e5             	mov    %rsp,%rbp
    77bd:	41 54                	push   %r12
    77bf:	53                   	push   %rbx
    77c0:	48 83 ec 20          	sub    $0x20,%rsp
    77c4:	64 48 8b 04 25 28 00 	mov    %fs:0x28,%rax
    77cb:	00 00 
    77cd:	48 89 45 e8          	mov    %rax,-0x18(%rbp)
    77d1:	31 c0                	xor    %eax,%eax
    77d3:	48 c7 45 d8 ff ff ff 	movq   $0xffffffffffffffff,-0x28(%rbp)
    77da:	ff 
    77db:	48 8d 05 e6 17 01 00 	lea    0x117e6(%rip),%rax        # 18fc8 <g_2442>
    77e2:	48 89 45 e0          	mov    %rax,-0x20(%rbp)
    77e6:	c7 45 d0 01 00 00 00 	movl   $0x1,-0x30(%rbp)
    77ed:	c7 45 d4 05 00 00 00 	movl   $0x5,-0x2c(%rbp)
    77f4:	48 8b 5d d8          	mov    -0x28(%rbp),%rbx
    77f8:	48 83 7d d8 00       	cmpq   $0x0,-0x28(%rbp)
    77fd:	75 07                	jne    7806 <func_1+0x51>
    77ff:	48 83 7d d8 00       	cmpq   $0x0,-0x28(%rbp)
    7804:	75 07                	jne    780d <func_1+0x58>
    7806:	b8 01 00 00 00       	mov    $0x1,%eax
    780b:	eb 05                	jmp    7812 <func_1+0x5d>
    780d:	b8 00 00 00 00       	mov    $0x0,%eax
    7812:	41 89 c4             	mov    %eax,%r12d
    7815:	48 8b 45 d8          	mov    -0x28(%rbp),%rax
    7819:	0f b7 c0             	movzwl %ax,%eax
    781c:	89 c7                	mov    %eax,%edi
    781e:	e8 cd 07 00 00       	callq  7ff0 <func_11>
    7823:	48 89 c6             	mov    %rax,%rsi
    7826:	48 8b 45 d8          	mov    -0x28(%rbp),%rax
    782a:	89 c7                	mov    %eax,%edi
    782c:	48 8b 45 e0          	mov    -0x20(%rbp),%rax
    7830:	48 89 c1             	mov    %rax,%rcx
    7833:	44 89 e2             	mov    %r12d,%edx
    7836:	e8 56 00 00 00       	callq  7891 <func_5>
    783b:	48 8b 05 2e 2b 01 00 	mov    0x12b2e(%rip),%rax        # 1a370 <g_822>
    7842:	48 8b 00             	mov    (%rax),%rax
    7845:	48 89 de             	mov    %rbx,%rsi
    7848:	48 89 c7             	mov    %rax,%rdi
    784b:	e8 30 f8 ff ff       	callq  7080 <safe_mod_func_uint64_t_u_u>
    7850:	89 c2                	mov    %eax,%edx
    7852:	8b 45 d0             	mov    -0x30(%rbp),%eax
    7855:	09 d0                	or     %edx,%eax
    7857:	89 45 d0             	mov    %eax,-0x30(%rbp)
    785a:	8b 45 d0             	mov    -0x30(%rbp),%eax
    785d:	21 45 d4             	and    %eax,-0x2c(%rbp)
    7860:	48 8b 05 a9 29 01 00 	mov    0x129a9(%rip),%rax        # 1a210 <g_364>
    7867:	48 8b 00             	mov    (%rax),%rax
    786a:	48 8d 55 d0          	lea    -0x30(%rbp),%rdx
    786e:	48 89 10             	mov    %rdx,(%rax)
    7871:	8b 45 d4             	mov    -0x2c(%rbp),%eax
    7874:	48 8b 4d e8          	mov    -0x18(%rbp),%rcx
    7878:	64 48 33 0c 25 28 00 	xor    %fs:0x28,%rcx
    787f:	00 00 
    7881:	74 05                	je     7888 <func_1+0xd3>
    7883:	e8 e8 e7 ff ff       	callq  6070 <__stack_chk_fail@plt>
    7888:	48 83 c4 20          	add    $0x20,%rsp
    788c:	5b                   	pop    %rbx
    788d:	41 5c                	pop    %r12
    788f:	5d                   	pop    %rbp
    7890:	c3                   	retq   

0000000000007891 <func_5>:
    7891:	f3 0f 1e fa          	endbr64 
    7895:	55                   	push   %rbp
    7896:	48 89 e5             	mov    %rsp,%rbp
    7899:	53                   	push   %rbx
    789a:	48 81 ec 18 06 00 00 	sub    $0x618,%rsp
    78a1:	89 bd fc f9 ff ff    	mov    %edi,-0x604(%rbp)
    78a7:	48 89 b5 f0 f9 ff ff 	mov    %rsi,-0x610(%rbp)
    78ae:	89 95 f8 f9 ff ff    	mov    %edx,-0x608(%rbp)
    78b4:	48 89 8d e8 f9 ff ff 	mov    %rcx,-0x618(%rbp)
    78bb:	64 48 8b 04 25 28 00 	mov    %fs:0x28,%rax
    78c2:	00 00 
    78c4:	48 89 45 e8          	mov    %rax,-0x18(%rbp)
    78c8:	31 c0                	xor    %eax,%eax
    78ca:	66 c7 85 0e fa ff ff 	movw   $0x2,-0x5f2(%rbp)
    78d1:	02 00 
    78d3:	48 8d 05 de 14 01 00 	lea    0x114de(%rip),%rax        # 18db8 <g_1817+0x18>
    78da:	48 89 85 50 fa ff ff 	mov    %rax,-0x5b0(%rbp)
    78e1:	48 c7 85 58 fa ff ff 	movq   $0x0,-0x5a8(%rbp)
    78e8:	00 00 00 00 
    78ec:	c7 85 58 fa ff ff ff 	movl   $0xffffffff,-0x5a8(%rbp)
    78f3:	ff ff ff 
    78f6:	48 8d 05 9b 28 01 00 	lea    0x1289b(%rip),%rax        # 1a198 <g_358+0x78>
    78fd:	48 89 85 88 fa ff ff 	mov    %rax,-0x578(%rbp)
    7904:	c7 85 24 fa ff ff e6 	movl   $0x4881a1e6,-0x5dc(%rbp)
    790b:	a1 81 48 
    790e:	48 c7 45 df 00 00 00 	movq   $0x0,-0x21(%rbp)
    7915:	00 
    7916:	c6 45 e7 00          	movb   $0x0,-0x19(%rbp)
    791a:	48 8d 05 cf 27 01 00 	lea    0x127cf(%rip),%rax        # 1a0f0 <g_332>
    7921:	48 89 85 90 fa ff ff 	mov    %rax,-0x570(%rbp)
    7928:	48 8d 05 b9 27 01 00 	lea    0x127b9(%rip),%rax        # 1a0e8 <g_238>
    792f:	48 89 85 98 fa ff ff 	mov    %rax,-0x568(%rbp)
    7936:	48 b8 78 d1 c1 1a fc 	movabs $0x7c66bfc1ac1d178,%rax
    793d:	6b c6 07 
    7940:	48 89 85 a0 fa ff ff 	mov    %rax,-0x560(%rbp)
    7947:	48 8d 05 0a 2a 01 00 	lea    0x12a0a(%rip),%rax        # 1a358 <g_708>
    794e:	48 89 85 a8 fa ff ff 	mov    %rax,-0x558(%rbp)
    7955:	48 8d 85 10 fc ff ff 	lea    -0x3f0(%rbp),%rax
    795c:	48 8d 15 3d 17 01 00 	lea    0x1173d(%rip),%rdx        # 190a0 <g_3189+0x8>
    7963:	b9 32 00 00 00       	mov    $0x32,%ecx
    7968:	48 89 c7             	mov    %rax,%rdi
    796b:	48 89 d6             	mov    %rdx,%rsi
    796e:	f3 48 a5             	rep movsq %ds:(%rsi),%es:(%rdi)
    7971:	66 c7 85 10 fa ff ff 	movw   $0x3,-0x5f0(%rbp)
    7978:	03 00 
    797a:	c7 85 14 fa ff ff 00 	movl   $0x0,-0x5ec(%rbp)
    7981:	00 00 00 
    7984:	eb 1a                	jmp    79a0 <func_5+0x10f>
    7986:	8b 85 14 fa ff ff    	mov    -0x5ec(%rbp),%eax
    798c:	48 98                	cltq   
    798e:	c7 84 85 30 fb ff ff 	movl   $0x78ef364e,-0x4d0(%rbp,%rax,4)
    7995:	4e 36 ef 78 
    7999:	83 85 14 fa ff ff 01 	addl   $0x1,-0x5ec(%rbp)
    79a0:	83 bd 14 fa ff ff 05 	cmpl   $0x5,-0x5ec(%rbp)
    79a7:	7e dd                	jle    7986 <func_5+0xf5>
    79a9:	8b 85 f8 f9 ff ff    	mov    -0x608(%rbp),%eax
    79af:	0f b6 d8             	movzbl %al,%ebx
    79b2:	be 0c 00 00 00       	mov    $0xc,%esi
    79b7:	bf fe ff 00 00       	mov    $0xfffe,%edi
    79bc:	e8 fd f3 ff ff       	callq  6dbe <safe_lshift_func_uint16_t_u_s>
    79c1:	0f b7 c0             	movzwl %ax,%eax
    79c4:	89 85 24 fa ff ff    	mov    %eax,-0x5dc(%rbp)
    79ca:	8b 85 24 fa ff ff    	mov    -0x5dc(%rbp),%eax
    79d0:	0f b6 c0             	movzbl %al,%eax
    79d3:	89 de                	mov    %ebx,%esi
    79d5:	89 c7                	mov    %eax,%edi
    79d7:	e8 9c f1 ff ff       	callq  6b78 <safe_sub_func_uint8_t_u_u>
    79dc:	66 83 bd 0e fa ff ff 	cmpw   $0x0,-0x5f2(%rbp)
    79e3:	00 
    79e4:	0f 9f c2             	setg   %dl
    79e7:	48 8b 05 f2 26 01 00 	mov    0x126f2(%rip),%rax        # 1a0e0 <g_98>
    79ee:	0f b6 d2             	movzbl %dl,%edx
    79f1:	89 10                	mov    %edx,(%rax)
    79f3:	c6 05 bf 0e 01 00 00 	movb   $0x0,0x10ebf(%rip)        # 188b9 <g_1074>
    79fa:	e9 be 05 00 00       	jmpq   7fbd <func_5+0x72c>
    79ff:	48 8d 05 1e 06 01 00 	lea    0x1061e(%rip),%rax        # 18024 <g_66>
    7a06:	48 89 85 60 fa ff ff 	mov    %rax,-0x5a0(%rbp)
    7a0d:	48 8d 05 f4 29 01 00 	lea    0x129f4(%rip),%rax        # 1a408 <g_1230>
    7a14:	48 89 85 b0 fa ff ff 	mov    %rax,-0x550(%rbp)
    7a1b:	c7 85 20 fb ff ff 00 	movl   $0x0,-0x4e0(%rbp)
    7a22:	00 00 00 
    7a25:	c7 85 24 fb ff ff 00 	movl   $0x0,-0x4dc(%rbp)
    7a2c:	00 00 00 
    7a2f:	c7 85 28 fb ff ff 00 	movl   $0x0,-0x4d8(%rbp)
    7a36:	00 00 00 
    7a39:	c7 85 2c fb ff ff 00 	movl   $0x0,-0x4d4(%rbp)
    7a40:	00 00 00 
    7a43:	48 c7 85 b8 fa ff ff 	movq   $0x0,-0x548(%rbp)
    7a4a:	00 00 00 00 
    7a4e:	c7 85 28 fa ff ff ff 	movl   $0xffffffff,-0x5d8(%rbp)
    7a55:	ff ff ff 
    7a58:	c7 85 2c fa ff ff 04 	movl   $0x4,-0x5d4(%rbp)
    7a5f:	00 00 00 
    7a62:	c7 85 30 fa ff ff 6a 	movl   $0x583c436a,-0x5d0(%rbp)
    7a69:	43 3c 58 
    7a6c:	c7 85 34 fa ff ff 0e 	movl   $0x54c7940e,-0x5cc(%rbp)
    7a73:	94 c7 54 
    7a76:	c7 85 38 fa ff ff f8 	movl   $0xfffffff8,-0x5c8(%rbp)
    7a7d:	ff ff ff 
    7a80:	c7 85 3c fa ff ff f8 	movl   $0xfffffff8,-0x5c4(%rbp)
    7a87:	ff ff ff 
    7a8a:	c7 85 18 fa ff ff e5 	movl   $0x10f1b8e5,-0x5e8(%rbp)
    7a91:	b8 f1 10 
    7a94:	66 c7 85 90 fb ff ff 	movw   $0x5,-0x470(%rbp)
    7a9b:	05 00 
    7a9d:	66 c7 85 92 fb ff ff 	movw   $0x0,-0x46e(%rbp)
    7aa4:	00 00 
    7aa6:	66 c7 85 94 fb ff ff 	movw   $0xfffd,-0x46c(%rbp)
    7aad:	fd ff 
    7aaf:	66 c7 85 96 fb ff ff 	movw   $0x546a,-0x46a(%rbp)
    7ab6:	6a 54 
    7ab8:	66 c7 85 98 fb ff ff 	movw   $0x546a,-0x468(%rbp)
    7abf:	6a 54 
    7ac1:	66 c7 85 9a fb ff ff 	movw   $0xfffd,-0x466(%rbp)
    7ac8:	fd ff 
    7aca:	66 c7 85 9c fb ff ff 	movw   $0x0,-0x464(%rbp)
    7ad1:	00 00 
    7ad3:	66 c7 85 9e fb ff ff 	movw   $0x5,-0x462(%rbp)
    7ada:	05 00 
    7adc:	66 c7 85 a0 fb ff ff 	movw   $0x0,-0x460(%rbp)
    7ae3:	00 00 
    7ae5:	66 c7 85 a2 fb ff ff 	movw   $0x1,-0x45e(%rbp)
    7aec:	01 00 
    7aee:	66 c7 85 a4 fb ff ff 	movw   $0xfff8,-0x45c(%rbp)
    7af5:	f8 ff 
    7af7:	66 c7 85 a6 fb ff ff 	movw   $0x2,-0x45a(%rbp)
    7afe:	02 00 
    7b00:	66 c7 85 a8 fb ff ff 	movw   $0x2,-0x458(%rbp)
    7b07:	02 00 
    7b09:	66 c7 85 aa fb ff ff 	movw   $0xfff8,-0x456(%rbp)
    7b10:	f8 ff 
    7b12:	66 c7 85 ac fb ff ff 	movw   $0x1,-0x454(%rbp)
    7b19:	01 00 
    7b1b:	66 c7 85 ae fb ff ff 	movw   $0xffff,-0x452(%rbp)
    7b22:	ff ff 
    7b24:	66 c7 85 b0 fb ff ff 	movw   $0x1,-0x450(%rbp)
    7b2b:	01 00 
    7b2d:	66 c7 85 b2 fb ff ff 	movw   $0xfff8,-0x44e(%rbp)
    7b34:	f8 ff 
    7b36:	66 c7 85 b4 fb ff ff 	movw   $0x3,-0x44c(%rbp)
    7b3d:	03 00 
    7b3f:	66 c7 85 b6 fb ff ff 	movw   $0x0,-0x44a(%rbp)
    7b46:	00 00 
    7b48:	66 c7 85 b8 fb ff ff 	movw   $0x0,-0x448(%rbp)
    7b4f:	00 00 
    7b51:	66 c7 85 ba fb ff ff 	movw   $0x3,-0x446(%rbp)
    7b58:	03 00 
    7b5a:	66 c7 85 bc fb ff ff 	movw   $0x5,-0x444(%rbp)
    7b61:	05 00 
    7b63:	66 c7 85 be fb ff ff 	movw   $0x15bf,-0x442(%rbp)
    7b6a:	bf 15 
    7b6c:	66 c7 85 c0 fb ff ff 	movw   $0x5,-0x440(%rbp)
    7b73:	05 00 
    7b75:	66 c7 85 c2 fb ff ff 	movw   $0x3,-0x43e(%rbp)
    7b7c:	03 00 
    7b7e:	66 c7 85 c4 fb ff ff 	movw   $0x0,-0x43c(%rbp)
    7b85:	00 00 
    7b87:	66 c7 85 c6 fb ff ff 	movw   $0xcecd,-0x43a(%rbp)
    7b8e:	cd ce 
    7b90:	66 c7 85 c8 fb ff ff 	movw   $0xcecd,-0x438(%rbp)
    7b97:	cd ce 
    7b99:	66 c7 85 ca fb ff ff 	movw   $0xffff,-0x436(%rbp)
    7ba0:	ff ff 
    7ba2:	66 c7 85 cc fb ff ff 	movw   $0xfff8,-0x434(%rbp)
    7ba9:	f8 ff 
    7bab:	66 c7 85 ce fb ff ff 	movw   $0xfff8,-0x432(%rbp)
    7bb2:	f8 ff 
    7bb4:	66 c7 85 d0 fb ff ff 	movw   $0xfff8,-0x430(%rbp)
    7bbb:	f8 ff 
    7bbd:	66 c7 85 d2 fb ff ff 	movw   $0xffff,-0x42e(%rbp)
    7bc4:	ff ff 
    7bc6:	66 c7 85 d4 fb ff ff 	movw   $0xcecd,-0x42c(%rbp)
    7bcd:	cd ce 
    7bcf:	66 c7 85 d6 fb ff ff 	movw   $0xcecd,-0x42a(%rbp)
    7bd6:	cd ce 
    7bd8:	66 c7 85 d8 fb ff ff 	movw   $0x0,-0x428(%rbp)
    7bdf:	00 00 
    7be1:	66 c7 85 da fb ff ff 	movw   $0x3,-0x426(%rbp)
    7be8:	03 00 
    7bea:	66 c7 85 dc fb ff ff 	movw   $0x5,-0x424(%rbp)
    7bf1:	05 00 
    7bf3:	66 c7 85 de fb ff ff 	movw   $0x15bf,-0x422(%rbp)
    7bfa:	bf 15 
    7bfc:	66 c7 85 e0 fb ff ff 	movw   $0x5,-0x420(%rbp)
    7c03:	05 00 
    7c05:	66 c7 85 e2 fb ff ff 	movw   $0x3,-0x41e(%rbp)
    7c0c:	03 00 
    7c0e:	66 c7 85 e4 fb ff ff 	movw   $0x0,-0x41c(%rbp)
    7c15:	00 00 
    7c17:	66 c7 85 e6 fb ff ff 	movw   $0x0,-0x41a(%rbp)
    7c1e:	00 00 
    7c20:	66 c7 85 e8 fb ff ff 	movw   $0x3,-0x418(%rbp)
    7c27:	03 00 
    7c29:	66 c7 85 ea fb ff ff 	movw   $0xfff8,-0x416(%rbp)
    7c30:	f8 ff 
    7c32:	66 c7 85 ec fb ff ff 	movw   $0x1,-0x414(%rbp)
    7c39:	01 00 
    7c3b:	66 c7 85 ee fb ff ff 	movw   $0xffff,-0x412(%rbp)
    7c42:	ff ff 
    7c44:	66 c7 85 f0 fb ff ff 	movw   $0x1,-0x410(%rbp)
    7c4b:	01 00 
    7c4d:	66 c7 85 f2 fb ff ff 	movw   $0xfff8,-0x40e(%rbp)
    7c54:	f8 ff 
    7c56:	66 c7 85 f4 fb ff ff 	movw   $0x2,-0x40c(%rbp)
    7c5d:	02 00 
    7c5f:	66 c7 85 f6 fb ff ff 	movw   $0x2,-0x40a(%rbp)
    7c66:	02 00 
    7c68:	66 c7 85 f8 fb ff ff 	movw   $0xfff8,-0x408(%rbp)
    7c6f:	f8 ff 
    7c71:	66 c7 85 fa fb ff ff 	movw   $0x1,-0x406(%rbp)
    7c78:	01 00 
    7c7a:	66 c7 85 fc fb ff ff 	movw   $0x0,-0x404(%rbp)
    7c81:	00 00 
    7c83:	66 c7 85 fe fb ff ff 	movw   $0x5,-0x402(%rbp)
    7c8a:	05 00 
    7c8c:	66 c7 85 00 fc ff ff 	movw   $0x0,-0x400(%rbp)
    7c93:	00 00 
    7c95:	66 c7 85 02 fc ff ff 	movw   $0xfffd,-0x3fe(%rbp)
    7c9c:	fd ff 
    7c9e:	66 c7 85 04 fc ff ff 	movw   $0x546a,-0x3fc(%rbp)
    7ca5:	6a 54 
    7ca7:	66 c7 85 06 fc ff ff 	movw   $0x546a,-0x3fa(%rbp)
    7cae:	6a 54 
    7cb0:	66 c7 85 08 fc ff ff 	movw   $0xfffd,-0x3f8(%rbp)
    7cb7:	fd ff 
    7cb9:	66 c7 85 0a fc ff ff 	movw   $0x0,-0x3f6(%rbp)
    7cc0:	00 00 
    7cc2:	66 c7 85 0c fc ff ff 	movw   $0x5,-0x3f4(%rbp)
    7cc9:	05 00 
    7ccb:	48 8d 85 50 fa ff ff 	lea    -0x5b0(%rbp),%rax
    7cd2:	48 89 85 c0 fa ff ff 	mov    %rax,-0x540(%rbp)
    7cd9:	48 c7 85 68 fa ff ff 	movq   $0x0,-0x598(%rbp)
    7ce0:	00 00 00 00 
    7ce4:	c7 85 68 fa ff ff f6 	movl   $0xfffffff6,-0x598(%rbp)
    7ceb:	ff ff ff 
    7cee:	48 8d 05 fb 23 01 00 	lea    0x123fb(%rip),%rax        # 1a0f0 <g_332>
    7cf5:	48 89 85 c8 fa ff ff 	mov    %rax,-0x538(%rbp)
    7cfc:	48 b8 02 e7 ba 05 fa 	movabs $0x218900fa05bae702,%rax
    7d03:	00 89 21 
    7d06:	48 89 85 d0 fa ff ff 	mov    %rax,-0x530(%rbp)
    7d0d:	48 c7 85 70 fa ff ff 	movq   $0x0,-0x590(%rbp)
    7d14:	00 00 00 00 
    7d18:	48 8d 85 70 fa ff ff 	lea    -0x590(%rbp),%rax
    7d1f:	48 89 85 78 fa ff ff 	mov    %rax,-0x588(%rbp)
    7d26:	48 8d 85 78 fa ff ff 	lea    -0x588(%rbp),%rax
    7d2d:	48 89 85 80 fa ff ff 	mov    %rax,-0x580(%rbp)
    7d34:	48 8d 85 80 fa ff ff 	lea    -0x580(%rbp),%rax
    7d3b:	48 89 85 d8 fa ff ff 	mov    %rax,-0x528(%rbp)
    7d42:	48 8d 05 af 24 01 00 	lea    0x124af(%rip),%rax        # 1a1f8 <g_358+0xd8>
    7d49:	48 89 85 e0 fa ff ff 	mov    %rax,-0x520(%rbp)
    7d50:	48 8d 85 60 fa ff ff 	lea    -0x5a0(%rbp),%rax
    7d57:	48 89 85 e8 fa ff ff 	mov    %rax,-0x518(%rbp)
    7d5e:	48 8b 05 9b 23 01 00 	mov    0x1239b(%rip),%rax        # 1a100 <g_359>
    7d65:	48 8b 95 60 fa ff ff 	mov    -0x5a0(%rbp),%rdx
    7d6c:	48 89 10             	mov    %rdx,(%rax)
    7d6f:	48 c7 05 46 0f 01 00 	movq   $0x0,0x10f46(%rip)        # 18cc0 <g_1301>
    7d76:	00 00 00 00 
    7d7a:	e9 b8 01 00 00       	jmpq   7f37 <func_5+0x6a6>
    7d7f:	c7 85 40 fa ff ff b2 	movl   $0x10b4dab2,-0x5c0(%rbp)
    7d86:	da b4 10 
    7d89:	c7 85 44 fa ff ff a6 	movl   $0xd982a0a6,-0x5bc(%rbp)
    7d90:	a0 82 d9 
    7d93:	48 8d 05 56 23 01 00 	lea    0x12356(%rip),%rax        # 1a0f0 <g_332>
    7d9a:	48 89 85 f0 fa ff ff 	mov    %rax,-0x510(%rbp)
    7da1:	c7 85 48 fa ff ff c1 	movl   $0xe982c6c1,-0x5b8(%rbp)
    7da8:	c6 82 e9 
    7dab:	c7 85 4c fa ff ff f7 	movl   $0xfffffff7,-0x5b4(%rbp)
    7db2:	ff ff ff 
    7db5:	c7 85 50 fb ff ff d1 	movl   $0x76d610d1,-0x4b0(%rbp)
    7dbc:	10 d6 76 
    7dbf:	c7 85 54 fb ff ff 00 	movl   $0x0,-0x4ac(%rbp)
    7dc6:	00 00 00 
    7dc9:	c7 85 58 fb ff ff 00 	movl   $0x0,-0x4a8(%rbp)
    7dd0:	00 00 00 
    7dd3:	c7 85 5c fb ff ff c8 	movl   $0x653393c8,-0x4a4(%rbp)
    7dda:	93 33 65 
    7ddd:	c7 85 60 fb ff ff c8 	movl   $0x653393c8,-0x4a0(%rbp)
    7de4:	93 33 65 
    7de7:	c7 85 64 fb ff ff 00 	movl   $0x0,-0x49c(%rbp)
    7dee:	00 00 00 
    7df1:	c7 85 68 fb ff ff d1 	movl   $0x76d610d1,-0x498(%rbp)
    7df8:	10 d6 76 
    7dfb:	c7 85 6c fb ff ff 00 	movl   $0x0,-0x494(%rbp)
    7e02:	00 00 00 
    7e05:	c7 85 70 fb ff ff 00 	movl   $0x0,-0x490(%rbp)
    7e0c:	00 00 00 
    7e0f:	c7 85 74 fb ff ff c8 	movl   $0x653393c8,-0x48c(%rbp)
    7e16:	93 33 65 
    7e19:	c7 85 78 fb ff ff 00 	movl   $0x0,-0x488(%rbp)
    7e20:	00 00 00 
    7e23:	c7 85 7c fb ff ff 00 	movl   $0x0,-0x484(%rbp)
    7e2a:	00 00 00 
    7e2d:	c7 85 80 fb ff ff d1 	movl   $0x76d610d1,-0x480(%rbp)
    7e34:	10 d6 76 
    7e37:	c7 85 84 fb ff ff 00 	movl   $0x0,-0x47c(%rbp)
    7e3e:	00 00 00 
    7e41:	c7 85 88 fb ff ff 00 	movl   $0x0,-0x478(%rbp)
    7e48:	00 00 00 
    7e4b:	48 8d 05 b6 24 01 00 	lea    0x124b6(%rip),%rax        # 1a308 <g_584>
    7e52:	48 89 85 f8 fa ff ff 	mov    %rax,-0x508(%rbp)
    7e59:	c6 85 0d fa ff ff 3e 	movb   $0x3e,-0x5f3(%rbp)
    7e60:	48 8d 05 f9 11 01 00 	lea    0x111f9(%rip),%rax        # 19060 <g_2794>
    7e67:	48 89 85 00 fb ff ff 	mov    %rax,-0x500(%rbp)
    7e6e:	48 8d 05 6b 26 01 00 	lea    0x1266b(%rip),%rax        # 1a4e0 <g_1576+0xc0>
    7e75:	48 89 85 08 fb ff ff 	mov    %rax,-0x4f8(%rbp)
    7e7c:	48 8d 05 1d 36 01 00 	lea    0x1361d(%rip),%rax        # 1b4a0 <g_599>
    7e83:	48 89 85 10 fb ff ff 	mov    %rax,-0x4f0(%rbp)
    7e8a:	66 c7 85 12 fa ff ff 	movw   $0xc4ea,-0x5ee(%rbp)
    7e91:	ea c4 
    7e93:	c7 85 1c fa ff ff 00 	movl   $0x0,-0x5e4(%rbp)
    7e9a:	00 00 00 
    7e9d:	eb 1a                	jmp    7eb9 <func_5+0x628>
    7e9f:	8b 85 1c fa ff ff    	mov    -0x5e4(%rbp),%eax
    7ea5:	48 98                	cltq   
    7ea7:	c7 84 85 1c fb ff ff 	movl   $0x983f90ff,-0x4e4(%rbp,%rax,4)
    7eae:	ff 90 3f 98 
    7eb2:	83 85 1c fa ff ff 01 	addl   $0x1,-0x5e4(%rbp)
    7eb9:	83 bd 1c fa ff ff 00 	cmpl   $0x0,-0x5e4(%rbp)
    7ec0:	7e dd                	jle    7e9f <func_5+0x60e>
    7ec2:	c7 85 1c fa ff ff 00 	movl   $0x0,-0x5e4(%rbp)
    7ec9:	00 00 00 
    7ecc:	eb 4e                	jmp    7f1c <func_5+0x68b>
    7ece:	c7 85 20 fa ff ff 00 	movl   $0x0,-0x5e0(%rbp)
    7ed5:	00 00 00 
    7ed8:	eb 32                	jmp    7f0c <func_5+0x67b>
    7eda:	8b 85 20 fa ff ff    	mov    -0x5e0(%rbp),%eax
    7ee0:	48 63 c8             	movslq %eax,%rcx
    7ee3:	8b 85 1c fa ff ff    	mov    -0x5e4(%rbp),%eax
    7ee9:	48 63 d0             	movslq %eax,%rdx
    7eec:	48 89 d0             	mov    %rdx,%rax
    7eef:	48 c1 e0 03          	shl    $0x3,%rax
    7ef3:	48 29 d0             	sub    %rdx,%rax
    7ef6:	48 01 c8             	add    %rcx,%rax
    7ef9:	48 c7 84 c5 a0 fd ff 	movq   $0x0,-0x260(%rbp,%rax,8)
    7f00:	ff 00 00 00 00 
    7f05:	83 85 20 fa ff ff 01 	addl   $0x1,-0x5e0(%rbp)
    7f0c:	83 bd 20 fa ff ff 06 	cmpl   $0x6,-0x5e0(%rbp)
    7f13:	7e c5                	jle    7eda <func_5+0x649>
    7f15:	83 85 1c fa ff ff 01 	addl   $0x1,-0x5e4(%rbp)
    7f1c:	83 bd 1c fa ff ff 09 	cmpl   $0x9,-0x5e4(%rbp)
    7f23:	7e a9                	jle    7ece <func_5+0x63d>
    7f25:	48 8b 05 94 0d 01 00 	mov    0x10d94(%rip),%rax        # 18cc0 <g_1301>
    7f2c:	48 83 e8 01          	sub    $0x1,%rax
    7f30:	48 89 05 89 0d 01 00 	mov    %rax,0x10d89(%rip)        # 18cc0 <g_1301>
    7f37:	48 8b 05 82 0d 01 00 	mov    0x10d82(%rip),%rax        # 18cc0 <g_1301>
    7f3e:	48 83 f8 fb          	cmp    $0xfffffffffffffffb,%rax
    7f42:	0f 85 37 fe ff ff    	jne    7d7f <func_5+0x4ee>
    7f48:	48 8b 15 b1 21 01 00 	mov    0x121b1(%rip),%rdx        # 1a100 <g_359>
    7f4f:	48 8b 05 ba 22 01 00 	mov    0x122ba(%rip),%rax        # 1a210 <g_364>
    7f56:	48 8b 00             	mov    (%rax),%rax
    7f59:	48 8b 12             	mov    (%rdx),%rdx
    7f5c:	48 89 10             	mov    %rdx,(%rax)
    7f5f:	48 8b 10             	mov    (%rax),%rdx
    7f62:	48 8b 85 e8 fa ff ff 	mov    -0x518(%rbp),%rax
    7f69:	48 89 10             	mov    %rdx,(%rax)
    7f6c:	c7 85 18 fa ff ff 00 	movl   $0x0,-0x5e8(%rbp)
    7f73:	00 00 00 
    7f76:	eb 20                	jmp    7f98 <func_5+0x707>
    7f78:	8b 85 18 fa ff ff    	mov    -0x5e8(%rbp),%eax
    7f7e:	48 98                	cltq   
    7f80:	48 8d 14 00          	lea    (%rax,%rax,1),%rdx
    7f84:	48 8d 05 f9 0d 01 00 	lea    0x10df9(%rip),%rax        # 18d84 <g_1708>
    7f8b:	66 c7 04 02 07 00    	movw   $0x7,(%rdx,%rax,1)
    7f91:	83 85 18 fa ff ff 01 	addl   $0x1,-0x5e8(%rbp)
    7f98:	83 bd 18 fa ff ff 02 	cmpl   $0x2,-0x5e8(%rbp)
    7f9f:	7e d7                	jle    7f78 <func_5+0x6e7>
    7fa1:	0f b6 05 11 09 01 00 	movzbl 0x10911(%rip),%eax        # 188b9 <g_1074>
    7fa8:	0f be c0             	movsbl %al,%eax
    7fab:	be 08 00 00 00       	mov    $0x8,%esi
    7fb0:	89 c7                	mov    %eax,%edi
    7fb2:	e8 ff e5 ff ff       	callq  65b6 <safe_add_func_int32_t_s_s>
    7fb7:	88 05 fc 08 01 00    	mov    %al,0x108fc(%rip)        # 188b9 <g_1074>
    7fbd:	0f b6 05 f5 08 01 00 	movzbl 0x108f5(%rip),%eax        # 188b9 <g_1074>
    7fc4:	3c 18                	cmp    $0x18,%al
    7fc6:	0f 85 33 fa ff ff    	jne    79ff <func_5+0x16e>
    7fcc:	8b 85 fc f9 ff ff    	mov    -0x604(%rbp),%eax
    7fd2:	48 8b 5d e8          	mov    -0x18(%rbp),%rbx
    7fd6:	64 48 33 1c 25 28 00 	xor    %fs:0x28,%rbx
    7fdd:	00 00 
    7fdf:	74 05                	je     7fe6 <func_5+0x755>
    7fe1:	e8 8a e0 ff ff       	callq  6070 <__stack_chk_fail@plt>
    7fe6:	48 81 c4 18 06 00 00 	add    $0x618,%rsp
    7fed:	5b                   	pop    %rbx
    7fee:	5d                   	pop    %rbp
    7fef:	c3                   	retq   

0000000000007ff0 <func_11>:
    7ff0:	f3 0f 1e fa          	endbr64 
    7ff4:	55                   	push   %rbp
    7ff5:	48 89 e5             	mov    %rsp,%rbp
    7ff8:	41 57                	push   %r15
    7ffa:	41 56                	push   %r14
    7ffc:	41 55                	push   %r13
    7ffe:	41 54                	push   %r12
    8000:	53                   	push   %rbx
    8001:	48 81 ec 38 05 00 00 	sub    $0x538,%rsp
    8008:	89 f8                	mov    %edi,%eax
    800a:	66 89 85 bc fa ff ff 	mov    %ax,-0x544(%rbp)
    8011:	64 48 8b 04 25 28 00 	mov    %fs:0x28,%rax
    8018:	00 00 
    801a:	48 89 45 c8          	mov    %rax,-0x38(%rbp)
    801e:	31 c0                	xor    %eax,%eax
    8020:	48 8d 05 61 34 01 00 	lea    0x13461(%rip),%rax        # 1b488 <g_2>
    8027:	48 89 85 f8 fa ff ff 	mov    %rax,-0x508(%rbp)
    802e:	c7 85 e0 fa ff ff 5f 	movl   $0xd0a3205f,-0x520(%rbp)
    8035:	20 a3 d0 
    8038:	48 c7 85 00 fb ff ff 	movq   $0x0,-0x500(%rbp)
    803f:	00 00 00 00 
    8043:	48 8d 05 62 0d 01 00 	lea    0x10d62(%rip),%rax        # 18dac <g_1817+0xc>
    804a:	48 89 85 08 fb ff ff 	mov    %rax,-0x4f8(%rbp)
    8051:	48 8d 05 18 10 01 00 	lea    0x11018(%rip),%rax        # 19070 <g_2794+0x10>
    8058:	48 89 85 40 fb ff ff 	mov    %rax,-0x4c0(%rbp)
    805f:	48 8d 05 0a 23 01 00 	lea    0x1230a(%rip),%rax        # 1a370 <g_822>
    8066:	48 89 85 48 fb ff ff 	mov    %rax,-0x4b8(%rbp)
    806d:	c7 85 d0 fa ff ff fa 	movl   $0x4f1d0afa,-0x530(%rbp)
    8074:	0a 1d 4f 
    8077:	48 c7 85 30 fb ff ff 	movq   $0x0,-0x4d0(%rbp)
    807e:	00 00 00 00 
    8082:	48 b8 86 2a aa 15 c5 	movabs $0xa4b93ac515aa2a86,%rax
    8089:	3a b9 a4 
    808c:	48 89 85 38 fb ff ff 	mov    %rax,-0x4c8(%rbp)
    8093:	48 8d 05 ef 33 01 00 	lea    0x133ef(%rip),%rax        # 1b489 <g_92>
    809a:	48 89 85 20 fb ff ff 	mov    %rax,-0x4e0(%rbp)
    80a1:	48 8d 05 e8 06 01 00 	lea    0x106e8(%rip),%rax        # 18790 <g_291>
    80a8:	48 89 85 28 fb ff ff 	mov    %rax,-0x4d8(%rbp)
    80af:	c6 85 cb fa ff ff ff 	movb   $0xff,-0x535(%rbp)
    80b6:	c7 85 d8 fa ff ff 37 	movl   $0xab68c037,-0x528(%rbp)
    80bd:	c0 68 ab 
    80c0:	48 8d 85 20 fd ff ff 	lea    -0x2e0(%rbp),%rax
    80c7:	48 8d 15 b2 bf 00 00 	lea    0xbfb2(%rip),%rdx        # 14080 <g_2736+0x10>
    80ce:	b9 23 00 00 00       	mov    $0x23,%ecx
    80d3:	48 89 c7             	mov    %rax,%rdi
    80d6:	48 89 d6             	mov    %rdx,%rsi
    80d9:	f3 48 a5             	rep movsq %ds:(%rsi),%es:(%rdi)
    80dc:	c7 85 dc fa ff ff 4b 	movl   $0x3605614b,-0x524(%rbp)
    80e3:	61 05 36 
    80e6:	48 8d 05 13 20 01 00 	lea    0x12013(%rip),%rax        # 1a100 <g_359>
    80ed:	48 89 85 18 fb ff ff 	mov    %rax,-0x4e8(%rbp)
    80f4:	0f b6 05 8d 33 01 00 	movzbl 0x1338d(%rip),%eax        # 1b488 <g_2>
    80fb:	0f be c0             	movsbl %al,%eax
    80fe:	89 85 b8 fa ff ff    	mov    %eax,-0x548(%rbp)
    8104:	48 8b 9d f8 fa ff ff 	mov    -0x508(%rbp),%rbx
    810b:	4c 8b a5 f8 fa ff ff 	mov    -0x508(%rbp),%r12
    8112:	48 8b 8d f8 fa ff ff 	mov    -0x508(%rbp),%rcx
    8119:	48 89 8d b0 fa ff ff 	mov    %rcx,-0x550(%rbp)
    8120:	4c 8b b5 f8 fa ff ff 	mov    -0x508(%rbp),%r14
    8127:	48 8b 05 aa 07 01 00 	mov    0x107aa(%rip),%rax        # 188d8 <g_1295>
    812e:	89 85 a8 fa ff ff    	mov    %eax,-0x558(%rbp)
    8134:	44 0f b7 ad bc fa ff 	movzwl -0x544(%rbp),%r13d
    813b:	ff 
    813c:	44 0f b7 bd bc fa ff 	movzwl -0x544(%rbp),%r15d
    8143:	ff 
    8144:	8b 05 da fe 00 00    	mov    0xfeda(%rip),%eax        # 18024 <g_66>
    814a:	48 63 f0             	movslq %eax,%rsi
    814d:	48 89 b5 a0 fa ff ff 	mov    %rsi,-0x560(%rbp)
    8154:	8b 95 e0 fa ff ff    	mov    -0x520(%rbp),%edx
    815a:	0f b6 05 27 33 01 00 	movzbl 0x13327(%rip),%eax        # 1b488 <g_2>
    8161:	3c 11                	cmp    $0x11,%al
    8163:	0f 95 c0             	setne  %al
    8166:	0f b6 c0             	movzbl %al,%eax
    8169:	89 d6                	mov    %edx,%esi
    816b:	89 c7                	mov    %eax,%edi
    816d:	e8 94 ec ff ff       	callq  6e06 <safe_lshift_func_uint16_t_u_u>
    8172:	0f b7 c0             	movzwl %ax,%eax
    8175:	be 07 00 00 00       	mov    $0x7,%esi
    817a:	89 c7                	mov    %eax,%edi
    817c:	e8 c7 ec ff ff       	callq  6e48 <safe_rshift_func_uint16_t_u_s>
    8181:	0f b6 c0             	movzbl %al,%eax
    8184:	be 5e 00 00 00       	mov    $0x5e,%esi
    8189:	89 c7                	mov    %eax,%edi
    818b:	e8 1e ea ff ff       	callq  6bae <safe_mod_func_uint8_t_u_u>
    8190:	0f b7 85 bc fa ff ff 	movzwl -0x544(%rbp),%eax
    8197:	89 c7                	mov    %eax,%edi
    8199:	e8 4b eb ff ff       	callq  6ce9 <safe_unary_minus_func_uint16_t_u>
    819e:	0f b7 d0             	movzwl %ax,%edx
    81a1:	8b 85 e0 fa ff ff    	mov    -0x520(%rbp),%eax
    81a7:	0f bf f0             	movswl %ax,%esi
    81aa:	48 8b 85 f8 fa ff ff 	mov    -0x508(%rbp),%rax
    81b1:	89 d1                	mov    %edx,%ecx
    81b3:	ba 00 00 00 00       	mov    $0x0,%edx
    81b8:	48 89 c7             	mov    %rax,%rdi
    81bb:	e8 54 9e 00 00       	callq  12014 <func_35>
    81c0:	48 8b b5 a0 fa ff ff 	mov    -0x560(%rbp),%rsi
    81c7:	48 89 c7             	mov    %rax,%rdi
    81ca:	e8 89 57 00 00       	callq  d958 <func_32>
    81cf:	0f be c0             	movsbl %al,%eax
    81d2:	89 c7                	mov    %eax,%edi
    81d4:	e8 71 47 00 00       	callq  c94a <func_30>
    81d9:	48 8b 05 f0 23 01 00 	mov    0x123f0(%rip),%rax        # 1a5d0 <g_1575>
    81e0:	48 8b 00             	mov    (%rax),%rax
    81e3:	c7 00 01 00 00 00    	movl   $0x1,(%rax)
    81e9:	8b 08                	mov    (%rax),%ecx
    81eb:	48 8b 85 08 fb ff ff 	mov    -0x4f8(%rbp),%rax
    81f2:	8b 10                	mov    (%rax),%edx
    81f4:	48 8b 85 08 fb ff ff 	mov    -0x4f8(%rbp),%rax
    81fb:	09 ca                	or     %ecx,%edx
    81fd:	89 10                	mov    %edx,(%rax)
    81ff:	8b 00                	mov    (%rax),%eax
    8201:	44 89 fe             	mov    %r15d,%esi
    8204:	89 c7                	mov    %eax,%edi
    8206:	e8 9c 46 00 00       	callq  c8a7 <func_27>
    820b:	4c 8b 85 b0 fa ff ff 	mov    -0x550(%rbp),%r8
    8212:	4c 89 f1             	mov    %r14,%rcx
    8215:	8b 95 a8 fa ff ff    	mov    -0x558(%rbp),%edx
    821b:	44 89 ee             	mov    %r13d,%esi
    821e:	48 89 c7             	mov    %rax,%rdi
    8221:	e8 50 40 00 00       	callq  c276 <func_21>
    8226:	48 8b 05 43 21 01 00 	mov    0x12143(%rip),%rax        # 1a370 <g_822>
    822d:	48 c7 00 01 00 00 00 	movq   $0x1,(%rax)
    8234:	0f b7 85 bc fa ff ff 	movzwl -0x544(%rbp),%eax
    823b:	23 85 e0 fa ff ff    	and    -0x520(%rbp),%eax
    8241:	4c 89 e6             	mov    %r12,%rsi
    8244:	89 c7                	mov    %eax,%edi
    8246:	e8 db 36 00 00       	callq  b926 <func_18>
    824b:	48 89 c2             	mov    %rax,%rdx
    824e:	0f b7 85 bc fa ff ff 	movzwl -0x544(%rbp),%eax
    8255:	48 89 d9             	mov    %rbx,%rcx
    8258:	89 c6                	mov    %eax,%esi
    825a:	48 8d 3d 27 32 01 00 	lea    0x13227(%rip),%rdi        # 1b488 <g_2>
    8261:	e8 ab 0b 00 00       	callq  8e11 <func_13>
    8266:	83 e0 fb             	and    $0xfffffffb,%eax
    8269:	39 85 b8 fa ff ff    	cmp    %eax,-0x548(%rbp)
    826f:	0f 9c c0             	setl   %al
    8272:	0f b6 d0             	movzbl %al,%edx
    8275:	48 8b 85 40 fb ff ff 	mov    -0x4c0(%rbp),%rax
    827c:	0f b6 00             	movzbl (%rax),%eax
    827f:	89 c1                	mov    %eax,%ecx
    8281:	89 d0                	mov    %edx,%eax
    8283:	21 c8                	and    %ecx,%eax
    8285:	89 c2                	mov    %eax,%edx
    8287:	48 8b 85 40 fb ff ff 	mov    -0x4c0(%rbp),%rax
    828e:	88 10                	mov    %dl,(%rax)
    8290:	66 c7 85 ce fa ff ff 	movw   $0xba0f,-0x532(%rbp)
    8297:	0f ba 
    8299:	c7 85 d4 fa ff ff 05 	movl   $0x5,-0x52c(%rbp)
    82a0:	00 00 00 
    82a3:	c7 85 e4 fa ff ff 26 	movl   $0x81ace426,-0x51c(%rbp)
    82aa:	e4 ac 81 
    82ad:	48 8d 05 0c 0d 01 00 	lea    0x10d0c(%rip),%rax        # 18fc0 <g_2076>
    82b4:	48 89 85 50 fb ff ff 	mov    %rax,-0x4b0(%rbp)
    82bb:	48 8d 85 08 fb ff ff 	lea    -0x4f8(%rbp),%rax
    82c2:	48 89 85 58 fb ff ff 	mov    %rax,-0x4a8(%rbp)
    82c9:	48 8d 05 f0 31 01 00 	lea    0x131f0(%rip),%rax        # 1b4c0 <g_1491>
    82d0:	48 89 85 10 fb ff ff 	mov    %rax,-0x4f0(%rbp)
    82d7:	c6 85 cc fa ff ff 01 	movb   $0x1,-0x534(%rbp)
    82de:	c7 85 c0 fb ff ff 85 	movl   $0xf4bcd085,-0x440(%rbp)
    82e5:	d0 bc f4 
    82e8:	c7 85 c4 fb ff ff 76 	movl   $0xa9931376,-0x43c(%rbp)
    82ef:	13 93 a9 
    82f2:	c7 85 c8 fb ff ff 01 	movl   $0x1,-0x438(%rbp)
    82f9:	00 00 00 
    82fc:	c7 85 cc fb ff ff 00 	movl   $0x0,-0x434(%rbp)
    8303:	00 00 00 
    8306:	c7 85 d0 fb ff ff 85 	movl   $0xf4bcd085,-0x430(%rbp)
    830d:	d0 bc f4 
    8310:	c7 85 d4 fb ff ff 01 	movl   $0x1,-0x42c(%rbp)
    8317:	00 00 00 
    831a:	c7 85 d8 fb ff ff 85 	movl   $0xf4bcd085,-0x428(%rbp)
    8321:	d0 bc f4 
    8324:	c7 85 dc fb ff ff 00 	movl   $0x0,-0x424(%rbp)
    832b:	00 00 00 
    832e:	c7 85 e0 fb ff ff 76 	movl   $0xa9931376,-0x420(%rbp)
    8335:	13 93 a9 
    8338:	c7 85 e4 fb ff ff 00 	movl   $0x0,-0x41c(%rbp)
    833f:	00 00 00 
    8342:	c7 85 e8 fb ff ff 00 	movl   $0x0,-0x418(%rbp)
    8349:	00 00 00 
    834c:	c7 85 ec fb ff ff 00 	movl   $0x0,-0x414(%rbp)
    8353:	00 00 00 
    8356:	c7 85 f0 fb ff ff 01 	movl   $0x1,-0x410(%rbp)
    835d:	00 00 00 
    8360:	c7 85 f4 fb ff ff 01 	movl   $0x1,-0x40c(%rbp)
    8367:	00 00 00 
    836a:	c7 85 f8 fb ff ff 25 	movl   $0xd582a125,-0x408(%rbp)
    8371:	a1 82 d5 
    8374:	c7 85 fc fb ff ff 00 	movl   $0x0,-0x404(%rbp)
    837b:	00 00 00 
    837e:	c7 85 00 fc ff ff 00 	movl   $0x0,-0x400(%rbp)
    8385:	00 00 00 
    8388:	c7 85 04 fc ff ff 76 	movl   $0xa9931376,-0x3fc(%rbp)
    838f:	13 93 a9 
    8392:	c7 85 08 fc ff ff 25 	movl   $0xd582a125,-0x3f8(%rbp)
    8399:	a1 82 d5 
    839c:	c7 85 0c fc ff ff 76 	movl   $0xa9931376,-0x3f4(%rbp)
    83a3:	13 93 a9 
    83a6:	48 8d 85 c0 fb ff ff 	lea    -0x440(%rbp),%rax
    83ad:	48 89 85 60 fb ff ff 	mov    %rax,-0x4a0(%rbp)
    83b4:	48 8d 05 69 fc 00 00 	lea    0xfc69(%rip),%rax        # 18024 <g_66>
    83bb:	48 89 85 40 fe ff ff 	mov    %rax,-0x1c0(%rbp)
    83c2:	48 8d 85 d0 fa ff ff 	lea    -0x530(%rbp),%rax
    83c9:	48 89 85 48 fe ff ff 	mov    %rax,-0x1b8(%rbp)
    83d0:	48 8d 85 d0 fa ff ff 	lea    -0x530(%rbp),%rax
    83d7:	48 89 85 50 fe ff ff 	mov    %rax,-0x1b0(%rbp)
    83de:	48 8d 05 3f fc 00 00 	lea    0xfc3f(%rip),%rax        # 18024 <g_66>
    83e5:	48 89 85 58 fe ff ff 	mov    %rax,-0x1a8(%rbp)
    83ec:	48 8d 85 d0 fa ff ff 	lea    -0x530(%rbp),%rax
    83f3:	48 89 85 60 fe ff ff 	mov    %rax,-0x1a0(%rbp)
    83fa:	48 8d 85 d0 fa ff ff 	lea    -0x530(%rbp),%rax
    8401:	48 89 85 68 fe ff ff 	mov    %rax,-0x198(%rbp)
    8408:	48 8d 05 15 fc 00 00 	lea    0xfc15(%rip),%rax        # 18024 <g_66>
    840f:	48 89 85 70 fe ff ff 	mov    %rax,-0x190(%rbp)
    8416:	48 8d 85 d0 fa ff ff 	lea    -0x530(%rbp),%rax
    841d:	48 89 85 78 fe ff ff 	mov    %rax,-0x188(%rbp)
    8424:	48 8d 85 d0 fa ff ff 	lea    -0x530(%rbp),%rax
    842b:	48 89 85 80 fe ff ff 	mov    %rax,-0x180(%rbp)
    8432:	48 8d 05 eb fb 00 00 	lea    0xfbeb(%rip),%rax        # 18024 <g_66>
    8439:	48 89 85 88 fe ff ff 	mov    %rax,-0x178(%rbp)
    8440:	48 8d 85 d0 fa ff ff 	lea    -0x530(%rbp),%rax
    8447:	48 89 85 90 fe ff ff 	mov    %rax,-0x170(%rbp)
    844e:	48 8d 85 d0 fa ff ff 	lea    -0x530(%rbp),%rax
    8455:	48 89 85 98 fe ff ff 	mov    %rax,-0x168(%rbp)
    845c:	48 8d 05 c1 fb 00 00 	lea    0xfbc1(%rip),%rax        # 18024 <g_66>
    8463:	48 89 85 a0 fe ff ff 	mov    %rax,-0x160(%rbp)
    846a:	48 8d 85 d0 fa ff ff 	lea    -0x530(%rbp),%rax
    8471:	48 89 85 a8 fe ff ff 	mov    %rax,-0x158(%rbp)
    8478:	48 8d 85 d0 fa ff ff 	lea    -0x530(%rbp),%rax
    847f:	48 89 85 b0 fe ff ff 	mov    %rax,-0x150(%rbp)
    8486:	48 8d 05 97 fb 00 00 	lea    0xfb97(%rip),%rax        # 18024 <g_66>
    848d:	48 89 85 b8 fe ff ff 	mov    %rax,-0x148(%rbp)
    8494:	48 8d 85 d0 fa ff ff 	lea    -0x530(%rbp),%rax
    849b:	48 89 85 c0 fe ff ff 	mov    %rax,-0x140(%rbp)
    84a2:	48 8d 85 d0 fa ff ff 	lea    -0x530(%rbp),%rax
    84a9:	48 89 85 c8 fe ff ff 	mov    %rax,-0x138(%rbp)
    84b0:	48 8d 05 6d fb 00 00 	lea    0xfb6d(%rip),%rax        # 18024 <g_66>
    84b7:	48 89 85 d0 fe ff ff 	mov    %rax,-0x130(%rbp)
    84be:	48 8d 85 d0 fa ff ff 	lea    -0x530(%rbp),%rax
    84c5:	48 89 85 d8 fe ff ff 	mov    %rax,-0x128(%rbp)
    84cc:	48 8d 85 d0 fa ff ff 	lea    -0x530(%rbp),%rax
    84d3:	48 89 85 e0 fe ff ff 	mov    %rax,-0x120(%rbp)
    84da:	48 8d 05 43 fb 00 00 	lea    0xfb43(%rip),%rax        # 18024 <g_66>
    84e1:	48 89 85 e8 fe ff ff 	mov    %rax,-0x118(%rbp)
    84e8:	48 8d 85 d0 fa ff ff 	lea    -0x530(%rbp),%rax
    84ef:	48 89 85 f0 fe ff ff 	mov    %rax,-0x110(%rbp)
    84f6:	48 8d 85 d0 fa ff ff 	lea    -0x530(%rbp),%rax
    84fd:	48 89 85 f8 fe ff ff 	mov    %rax,-0x108(%rbp)
    8504:	48 8d 05 19 fb 00 00 	lea    0xfb19(%rip),%rax        # 18024 <g_66>
    850b:	48 89 85 00 ff ff ff 	mov    %rax,-0x100(%rbp)
    8512:	48 8d 85 d0 fa ff ff 	lea    -0x530(%rbp),%rax
    8519:	48 89 85 08 ff ff ff 	mov    %rax,-0xf8(%rbp)
    8520:	48 8d 85 d0 fa ff ff 	lea    -0x530(%rbp),%rax
    8527:	48 89 85 10 ff ff ff 	mov    %rax,-0xf0(%rbp)
    852e:	48 8d 05 ef fa 00 00 	lea    0xfaef(%rip),%rax        # 18024 <g_66>
    8535:	48 89 85 18 ff ff ff 	mov    %rax,-0xe8(%rbp)
    853c:	48 8d 85 d0 fa ff ff 	lea    -0x530(%rbp),%rax
    8543:	48 89 85 20 ff ff ff 	mov    %rax,-0xe0(%rbp)
    854a:	48 8d 85 d0 fa ff ff 	lea    -0x530(%rbp),%rax
    8551:	48 89 85 28 ff ff ff 	mov    %rax,-0xd8(%rbp)
    8558:	48 8d 05 c5 fa 00 00 	lea    0xfac5(%rip),%rax        # 18024 <g_66>
    855f:	48 89 85 30 ff ff ff 	mov    %rax,-0xd0(%rbp)
    8566:	48 8d 85 d0 fa ff ff 	lea    -0x530(%rbp),%rax
    856d:	48 89 85 38 ff ff ff 	mov    %rax,-0xc8(%rbp)
    8574:	48 8d 85 d0 fa ff ff 	lea    -0x530(%rbp),%rax
    857b:	48 89 85 40 ff ff ff 	mov    %rax,-0xc0(%rbp)
    8582:	48 8d 05 9b fa 00 00 	lea    0xfa9b(%rip),%rax        # 18024 <g_66>
    8589:	48 89 85 48 ff ff ff 	mov    %rax,-0xb8(%rbp)
    8590:	48 8d 85 d0 fa ff ff 	lea    -0x530(%rbp),%rax
    8597:	48 89 85 50 ff ff ff 	mov    %rax,-0xb0(%rbp)
    859e:	48 8d 85 d0 fa ff ff 	lea    -0x530(%rbp),%rax
    85a5:	48 89 85 58 ff ff ff 	mov    %rax,-0xa8(%rbp)
    85ac:	48 8d 05 71 fa 00 00 	lea    0xfa71(%rip),%rax        # 18024 <g_66>
    85b3:	48 89 85 60 ff ff ff 	mov    %rax,-0xa0(%rbp)
    85ba:	48 8d 85 d0 fa ff ff 	lea    -0x530(%rbp),%rax
    85c1:	48 89 85 68 ff ff ff 	mov    %rax,-0x98(%rbp)
    85c8:	48 8d 85 d0 fa ff ff 	lea    -0x530(%rbp),%rax
    85cf:	48 89 85 70 ff ff ff 	mov    %rax,-0x90(%rbp)
    85d6:	48 8d 05 47 fa 00 00 	lea    0xfa47(%rip),%rax        # 18024 <g_66>
    85dd:	48 89 85 78 ff ff ff 	mov    %rax,-0x88(%rbp)
    85e4:	48 8d 85 d0 fa ff ff 	lea    -0x530(%rbp),%rax
    85eb:	48 89 45 80          	mov    %rax,-0x80(%rbp)
    85ef:	48 8d 85 d0 fa ff ff 	lea    -0x530(%rbp),%rax
    85f6:	48 89 45 88          	mov    %rax,-0x78(%rbp)
    85fa:	48 8d 05 23 fa 00 00 	lea    0xfa23(%rip),%rax        # 18024 <g_66>
    8601:	48 89 45 90          	mov    %rax,-0x70(%rbp)
    8605:	48 8d 85 d0 fa ff ff 	lea    -0x530(%rbp),%rax
    860c:	48 89 45 98          	mov    %rax,-0x68(%rbp)
    8610:	48 8d 85 d0 fa ff ff 	lea    -0x530(%rbp),%rax
    8617:	48 89 45 a0          	mov    %rax,-0x60(%rbp)
    861b:	48 8d 05 02 fa 00 00 	lea    0xfa02(%rip),%rax        # 18024 <g_66>
    8622:	48 89 45 a8          	mov    %rax,-0x58(%rbp)
    8626:	48 8d 85 d0 fa ff ff 	lea    -0x530(%rbp),%rax
    862d:	48 89 45 b0          	mov    %rax,-0x50(%rbp)
    8631:	48 8d 85 d0 fa ff ff 	lea    -0x530(%rbp),%rax
    8638:	48 89 45 b8          	mov    %rax,-0x48(%rbp)
    863c:	c6 85 cd fa ff ff 09 	movb   $0x9,-0x533(%rbp)
    8643:	48 c7 85 68 fb ff ff 	movq   $0x0,-0x498(%rbp)
    864a:	00 00 00 00 
    864e:	48 8d 85 ce fa ff ff 	lea    -0x532(%rbp),%rax
    8655:	48 89 85 70 fb ff ff 	mov    %rax,-0x490(%rbp)
    865c:	c7 85 e8 fa ff ff 06 	movl   $0x6,-0x518(%rbp)
    8663:	00 00 00 
    8666:	0f b7 85 ce fa ff ff 	movzwl -0x532(%rbp),%eax
    866d:	66 85 c0             	test   %ax,%ax
    8670:	0f 84 5b 05 00 00    	je     8bd1 <func_11+0xbe1>
    8676:	48 c7 85 90 fb ff ff 	movq   $0x0,-0x470(%rbp)
    867d:	00 00 00 00 
    8681:	48 8d 05 d8 f9 00 00 	lea    0xf9d8(%rip),%rax        # 18060 <g_99>
    8688:	48 89 85 98 fb ff ff 	mov    %rax,-0x468(%rbp)
    868f:	48 c7 85 a0 fb ff ff 	movq   $0x0,-0x460(%rbp)
    8696:	00 00 00 00 
    869a:	48 8d 05 f7 2d 01 00 	lea    0x12df7(%rip),%rax        # 1b498 <g_343>
    86a1:	48 89 85 90 fc ff ff 	mov    %rax,-0x370(%rbp)
    86a8:	48 8d 05 e9 2d 01 00 	lea    0x12de9(%rip),%rax        # 1b498 <g_343>
    86af:	48 89 85 98 fc ff ff 	mov    %rax,-0x368(%rbp)
    86b6:	48 8d 05 db 2d 01 00 	lea    0x12ddb(%rip),%rax        # 1b498 <g_343>
    86bd:	48 89 85 a0 fc ff ff 	mov    %rax,-0x360(%rbp)
    86c4:	48 8d 05 cd 2d 01 00 	lea    0x12dcd(%rip),%rax        # 1b498 <g_343>
    86cb:	48 89 85 a8 fc ff ff 	mov    %rax,-0x358(%rbp)
    86d2:	48 8d 05 bf 2d 01 00 	lea    0x12dbf(%rip),%rax        # 1b498 <g_343>
    86d9:	48 89 85 b0 fc ff ff 	mov    %rax,-0x350(%rbp)
    86e0:	48 8d 05 b1 2d 01 00 	lea    0x12db1(%rip),%rax        # 1b498 <g_343>
    86e7:	48 89 85 b8 fc ff ff 	mov    %rax,-0x348(%rbp)
    86ee:	48 8d 05 a3 2d 01 00 	lea    0x12da3(%rip),%rax        # 1b498 <g_343>
    86f5:	48 89 85 c0 fc ff ff 	mov    %rax,-0x340(%rbp)
    86fc:	48 8d 05 95 2d 01 00 	lea    0x12d95(%rip),%rax        # 1b498 <g_343>
    8703:	48 89 85 c8 fc ff ff 	mov    %rax,-0x338(%rbp)
    870a:	48 8d 05 87 2d 01 00 	lea    0x12d87(%rip),%rax        # 1b498 <g_343>
    8711:	48 89 85 d0 fc ff ff 	mov    %rax,-0x330(%rbp)
    8718:	48 8d 05 79 2d 01 00 	lea    0x12d79(%rip),%rax        # 1b498 <g_343>
    871f:	48 89 85 d8 fc ff ff 	mov    %rax,-0x328(%rbp)
    8726:	48 8d 05 6b 2d 01 00 	lea    0x12d6b(%rip),%rax        # 1b498 <g_343>
    872d:	48 89 85 e0 fc ff ff 	mov    %rax,-0x320(%rbp)
    8734:	48 8d 05 5d 2d 01 00 	lea    0x12d5d(%rip),%rax        # 1b498 <g_343>
    873b:	48 89 85 e8 fc ff ff 	mov    %rax,-0x318(%rbp)
    8742:	48 8d 05 4f 2d 01 00 	lea    0x12d4f(%rip),%rax        # 1b498 <g_343>
    8749:	48 89 85 f0 fc ff ff 	mov    %rax,-0x310(%rbp)
    8750:	48 8d 05 41 2d 01 00 	lea    0x12d41(%rip),%rax        # 1b498 <g_343>
    8757:	48 89 85 f8 fc ff ff 	mov    %rax,-0x308(%rbp)
    875e:	48 8d 05 33 2d 01 00 	lea    0x12d33(%rip),%rax        # 1b498 <g_343>
    8765:	48 89 85 00 fd ff ff 	mov    %rax,-0x300(%rbp)
    876c:	48 8d 05 25 2d 01 00 	lea    0x12d25(%rip),%rax        # 1b498 <g_343>
    8773:	48 89 85 08 fd ff ff 	mov    %rax,-0x2f8(%rbp)
    877a:	48 8d 05 17 2d 01 00 	lea    0x12d17(%rip),%rax        # 1b498 <g_343>
    8781:	48 89 85 10 fd ff ff 	mov    %rax,-0x2f0(%rbp)
    8788:	48 8d 05 09 2d 01 00 	lea    0x12d09(%rip),%rax        # 1b498 <g_343>
    878f:	48 89 85 18 fd ff ff 	mov    %rax,-0x2e8(%rbp)
    8796:	c7 85 f0 fa ff ff 3c 	movl   $0x2af85f3c,-0x510(%rbp)
    879d:	5f f8 2a 
    87a0:	0f b7 9d bc fa ff ff 	movzwl -0x544(%rbp),%ebx
    87a7:	0f b7 95 bc fa ff ff 	movzwl -0x544(%rbp),%edx
    87ae:	48 8b 05 b3 1b 01 00 	mov    0x11bb3(%rip),%rax        # 1a368 <g_817>
    87b5:	48 83 bd 48 fb ff ff 	cmpq   $0x0,-0x4b8(%rbp)
    87bc:	00 
    87bd:	0f 95 c0             	setne  %al
    87c0:	0f b6 c0             	movzbl %al,%eax
    87c3:	89 d6                	mov    %edx,%esi
    87c5:	89 c7                	mov    %eax,%edi
    87c7:	e8 d5 da ff ff       	callq  62a1 <safe_lshift_func_int8_t_s_s>
    87cc:	48 8b 05 35 1c 01 00 	mov    0x11c35(%rip),%rax        # 1a408 <g_1230>
    87d3:	48 8b 00             	mov    (%rax),%rax
    87d6:	48 8b 10             	mov    (%rax),%rdx
    87d9:	0f b7 85 bc fa ff ff 	movzwl -0x544(%rbp),%eax
    87e0:	48 39 c2             	cmp    %rax,%rdx
    87e3:	7e 07                	jle    87ec <func_11+0x7fc>
    87e5:	ba 01 00 00 00       	mov    $0x1,%edx
    87ea:	eb 05                	jmp    87f1 <func_11+0x801>
    87ec:	ba 00 00 00 00       	mov    $0x0,%edx
    87f1:	0f b7 85 ce fa ff ff 	movzwl -0x532(%rbp),%eax
    87f8:	0f b7 c0             	movzwl %ax,%eax
    87fb:	39 c2                	cmp    %eax,%edx
    87fd:	0f 9d c0             	setge  %al
    8800:	0f b6 d0             	movzbl %al,%edx
    8803:	48 8b 85 98 fb ff ff 	mov    -0x468(%rbp),%rax
    880a:	89 10                	mov    %edx,(%rax)
    880c:	48 8b 85 98 fb ff ff 	mov    -0x468(%rbp),%rax
    8813:	8b 00                	mov    (%rax),%eax
    8815:	89 85 d4 fa ff ff    	mov    %eax,-0x52c(%rbp)
    881b:	8b 85 d4 fa ff ff    	mov    -0x52c(%rbp),%eax
    8821:	39 c3                	cmp    %eax,%ebx
    8823:	0f 9f c0             	setg   %al
    8826:	0f b6 c0             	movzbl %al,%eax
    8829:	89 85 d0 fa ff ff    	mov    %eax,-0x530(%rbp)
    882f:	48 8d 85 00 fb ff ff 	lea    -0x500(%rbp),%rax
    8836:	48 39 85 58 fb ff ff 	cmp    %rax,-0x4a8(%rbp)
    883d:	0f 95 c0             	setne  %al
    8840:	0f b6 d0             	movzbl %al,%edx
    8843:	48 8b 85 98 fb ff ff 	mov    -0x468(%rbp),%rax
    884a:	89 10                	mov    %edx,(%rax)
    884c:	48 c7 05 79 04 01 00 	movq   $0x0,0x10479(%rip)        # 18cd0 <g_1303>
    8853:	00 00 00 00 
    8857:	e9 5f 03 00 00       	jmpq   8bbb <func_11+0xbcb>
    885c:	48 8d 05 27 2c 01 00 	lea    0x12c27(%rip),%rax        # 1b48a <g_161>
    8863:	48 89 85 a8 fb ff ff 	mov    %rax,-0x458(%rbp)
    886a:	48 8d 85 10 fb ff ff 	lea    -0x4f0(%rbp),%rax
    8871:	48 89 85 b0 fb ff ff 	mov    %rax,-0x450(%rbp)
    8878:	c7 85 f4 fa ff ff 01 	movl   $0x1,-0x50c(%rbp)
    887f:	00 00 00 
    8882:	48 8d 85 ce fa ff ff 	lea    -0x532(%rbp),%rax
    8889:	48 89 85 10 fc ff ff 	mov    %rax,-0x3f0(%rbp)
    8890:	48 8d 85 ce fa ff ff 	lea    -0x532(%rbp),%rax
    8897:	48 89 85 18 fc ff ff 	mov    %rax,-0x3e8(%rbp)
    889e:	48 8d 85 ce fa ff ff 	lea    -0x532(%rbp),%rax
    88a5:	48 89 85 20 fc ff ff 	mov    %rax,-0x3e0(%rbp)
    88ac:	48 8d 85 ce fa ff ff 	lea    -0x532(%rbp),%rax
    88b3:	48 89 85 28 fc ff ff 	mov    %rax,-0x3d8(%rbp)
    88ba:	48 8d 85 ce fa ff ff 	lea    -0x532(%rbp),%rax
    88c1:	48 89 85 30 fc ff ff 	mov    %rax,-0x3d0(%rbp)
    88c8:	48 8d 85 ce fa ff ff 	lea    -0x532(%rbp),%rax
    88cf:	48 89 85 38 fc ff ff 	mov    %rax,-0x3c8(%rbp)
    88d6:	48 8d 85 ce fa ff ff 	lea    -0x532(%rbp),%rax
    88dd:	48 89 85 40 fc ff ff 	mov    %rax,-0x3c0(%rbp)
    88e4:	48 8d 85 ce fa ff ff 	lea    -0x532(%rbp),%rax
    88eb:	48 89 85 48 fc ff ff 	mov    %rax,-0x3b8(%rbp)
    88f2:	48 8d 85 ce fa ff ff 	lea    -0x532(%rbp),%rax
    88f9:	48 89 85 50 fc ff ff 	mov    %rax,-0x3b0(%rbp)
    8900:	48 8d 85 ce fa ff ff 	lea    -0x532(%rbp),%rax
    8907:	48 89 85 58 fc ff ff 	mov    %rax,-0x3a8(%rbp)
    890e:	48 8d 85 ce fa ff ff 	lea    -0x532(%rbp),%rax
    8915:	48 89 85 60 fc ff ff 	mov    %rax,-0x3a0(%rbp)
    891c:	48 8d 85 ce fa ff ff 	lea    -0x532(%rbp),%rax
    8923:	48 89 85 68 fc ff ff 	mov    %rax,-0x398(%rbp)
    892a:	48 8d 85 ce fa ff ff 	lea    -0x532(%rbp),%rax
    8931:	48 89 85 70 fc ff ff 	mov    %rax,-0x390(%rbp)
    8938:	48 8d 85 ce fa ff ff 	lea    -0x532(%rbp),%rax
    893f:	48 89 85 78 fc ff ff 	mov    %rax,-0x388(%rbp)
    8946:	48 8d 85 ce fa ff ff 	lea    -0x532(%rbp),%rax
    894d:	48 89 85 80 fc ff ff 	mov    %rax,-0x380(%rbp)
    8954:	48 8d 85 08 fb ff ff 	lea    -0x4f8(%rbp),%rax
    895b:	48 89 85 b8 fb ff ff 	mov    %rax,-0x448(%rbp)
    8962:	0f b7 9d bc fa ff ff 	movzwl -0x544(%rbp),%ebx
    8969:	0f b7 95 bc fa ff ff 	movzwl -0x544(%rbp),%edx
    8970:	48 8b 85 a8 fb ff ff 	mov    -0x458(%rbp),%rax
    8977:	66 89 10             	mov    %dx,(%rax)
    897a:	44 0f b7 a5 bc fa ff 	movzwl -0x544(%rbp),%r12d
    8981:	ff 
    8982:	44 0f b7 ad bc fa ff 	movzwl -0x544(%rbp),%r13d
    8989:	ff 
    898a:	48 8b 95 10 fb ff ff 	mov    -0x4f0(%rbp),%rdx
    8991:	48 8b 85 b0 fb ff ff 	mov    -0x450(%rbp),%rax
    8998:	48 89 10             	mov    %rdx,(%rax)
    899b:	48 8b 85 b0 fb ff ff 	mov    -0x450(%rbp),%rax
    89a2:	48 8b 10             	mov    (%rax),%rdx
    89a5:	48 8b 05 6c 1a 01 00 	mov    0x11a6c(%rip),%rax        # 1a418 <g_1488>
    89ac:	48 8b 00             	mov    (%rax),%rax
    89af:	48 8b 00             	mov    (%rax),%rax
    89b2:	48 39 c2             	cmp    %rax,%rdx
    89b5:	0f 95 c0             	setne  %al
    89b8:	0f b6 c0             	movzbl %al,%eax
    89bb:	be 01 00 00 00       	mov    $0x1,%esi
    89c0:	89 c7                	mov    %eax,%edi
    89c2:	e8 f7 e3 ff ff       	callq  6dbe <safe_lshift_func_uint16_t_u_s>
    89c7:	0f b7 15 ba fd 00 00 	movzwl 0xfdba(%rip),%edx        # 18788 <g_218>
    89ce:	83 c2 01             	add    $0x1,%edx
    89d1:	66 89 15 b0 fd 00 00 	mov    %dx,0xfdb0(%rip)        # 18788 <g_218>
    89d8:	0f b7 15 a9 fd 00 00 	movzwl 0xfda9(%rip),%edx        # 18788 <g_218>
    89df:	21 d0                	and    %edx,%eax
    89e1:	0f b7 d0             	movzwl %ax,%edx
    89e4:	0f b7 85 bc fa ff ff 	movzwl -0x544(%rbp),%eax
    89eb:	98                   	cwtl   
    89ec:	89 d6                	mov    %edx,%esi
    89ee:	89 c7                	mov    %eax,%edi
    89f0:	e8 6e db ff ff       	callq  6563 <safe_rshift_func_int16_t_s_u>
    89f5:	0f b7 85 bc fa ff ff 	movzwl -0x544(%rbp),%eax
    89fc:	44 0f b6 f0          	movzbl %al,%r14d
    8a00:	44 0f b6 bd cb fa ff 	movzbl -0x535(%rbp),%r15d
    8a07:	ff 
    8a08:	0f b7 85 bc fa ff ff 	movzwl -0x544(%rbp),%eax
    8a0f:	98                   	cwtl   
    8a10:	89 85 b8 fa ff ff    	mov    %eax,-0x548(%rbp)
    8a16:	8b 85 d4 fa ff ff    	mov    -0x52c(%rbp),%eax
    8a1c:	89 85 b0 fa ff ff    	mov    %eax,-0x550(%rbp)
    8a22:	48 8b 05 47 19 01 00 	mov    0x11947(%rip),%rax        # 1a370 <g_822>
    8a29:	48 8b 00             	mov    (%rax),%rax
    8a2c:	48 89 85 a8 fa ff ff 	mov    %rax,-0x558(%rbp)
    8a33:	be 01 00 00 00       	mov    $0x1,%esi
    8a38:	bf 08 00 00 00       	mov    $0x8,%edi
    8a3d:	e8 92 d7 ff ff       	callq  61d4 <safe_add_func_int8_t_s_s>
    8a42:	48 8b 05 97 19 01 00 	mov    0x11997(%rip),%rax        # 1a3e0 <g_1128>
    8a49:	48 8b 00             	mov    (%rax),%rax
    8a4c:	0f b6 00             	movzbl (%rax),%eax
    8a4f:	3c ff                	cmp    $0xff,%al
    8a51:	0f 9c c2             	setl   %dl
    8a54:	48 8b 05 ad 18 01 00 	mov    0x118ad(%rip),%rax        # 1a308 <g_584>
    8a5b:	0f b6 d2             	movzbl %dl,%edx
    8a5e:	48 89 10             	mov    %rdx,(%rax)
    8a61:	48 8b 00             	mov    (%rax),%rax
    8a64:	48 8b b5 a8 fa ff ff 	mov    -0x558(%rbp),%rsi
    8a6b:	48 89 c7             	mov    %rax,%rdi
    8a6e:	e8 35 de ff ff       	callq  68a8 <safe_sub_func_int64_t_s_s>
    8a73:	48 89 85 a8 fa ff ff 	mov    %rax,-0x558(%rbp)
    8a7a:	be bc 1c 00 00       	mov    $0x1cbc,%esi
    8a7f:	bf ff ff ff ff       	mov    $0xffffffff,%edi
    8a84:	e8 2a d9 ff ff       	callq  63b3 <safe_add_func_int16_t_s_s>
    8a89:	8b 85 a8 fa ff ff    	mov    -0x558(%rbp),%eax
    8a8f:	09 85 f4 fa ff ff    	or     %eax,-0x50c(%rbp)
    8a95:	8b b5 b0 fa ff ff    	mov    -0x550(%rbp),%esi
    8a9b:	bf 01 00 00 00       	mov    $0x1,%edi
    8aa0:	e8 2b e4 ff ff       	callq  6ed0 <safe_sub_func_uint32_t_u_u>
    8aa5:	0f b7 c0             	movzwl %ax,%eax
    8aa8:	be 07 00 00 00       	mov    $0x7,%esi
    8aad:	89 c7                	mov    %eax,%edi
    8aaf:	e8 c6 e3 ff ff       	callq  6e7a <safe_rshift_func_uint16_t_u_u>
    8ab4:	98                   	cwtl   
    8ab5:	8b b5 b8 fa ff ff    	mov    -0x548(%rbp),%esi
    8abb:	89 c7                	mov    %eax,%edi
    8abd:	e8 54 d9 ff ff       	callq  6416 <safe_mod_func_int16_t_s_s>
    8ac2:	98                   	cwtl   
    8ac3:	44 89 fe             	mov    %r15d,%esi
    8ac6:	89 c7                	mov    %eax,%edi
    8ac8:	e8 38 db ff ff       	callq  6605 <safe_sub_func_int32_t_s_s>
    8acd:	48 98                	cltq   
    8acf:	25 99 00 00 00       	and    $0x99,%eax
    8ad4:	8b 15 a6 04 01 00    	mov    0x104a6(%rip),%edx        # 18f80 <g_2075>
    8ada:	89 d2                	mov    %edx,%edx
    8adc:	48 31 c2             	xor    %rax,%rdx
    8adf:	b8 fc ff ff ff       	mov    $0xfffffffc,%eax
    8ae4:	48 39 c2             	cmp    %rax,%rdx
    8ae7:	0f 95 c0             	setne  %al
    8aea:	0f b6 d0             	movzbl %al,%edx
    8aed:	8b 85 d0 fa ff ff    	mov    -0x530(%rbp),%eax
    8af3:	39 c2                	cmp    %eax,%edx
    8af5:	0f 95 c0             	setne  %al
    8af8:	0f b6 d0             	movzbl %al,%edx
    8afb:	0f b7 85 bc fa ff ff 	movzwl -0x544(%rbp),%eax
    8b02:	39 c2                	cmp    %eax,%edx
    8b04:	7d 09                	jge    8b0f <func_11+0xb1f>
    8b06:	83 bd f4 fa ff ff 00 	cmpl   $0x0,-0x50c(%rbp)
    8b0d:	74 07                	je     8b16 <func_11+0xb26>
    8b0f:	b8 01 00 00 00       	mov    $0x1,%eax
    8b14:	eb 05                	jmp    8b1b <func_11+0xb2b>
    8b16:	b8 00 00 00 00       	mov    $0x0,%eax
    8b1b:	0f b6 c0             	movzbl %al,%eax
    8b1e:	44 89 f6             	mov    %r14d,%esi
    8b21:	89 c7                	mov    %eax,%edi
    8b23:	e8 b3 e0 ff ff       	callq  6bdb <safe_div_func_uint8_t_u_u>
    8b28:	66 81 bd bc fa ff ff 	cmpw   $0xb549,-0x544(%rbp)
    8b2f:	49 b5 
    8b31:	48 83 bd b8 fb ff ff 	cmpq   $0x0,-0x448(%rbp)
    8b38:	00 
    8b39:	0f 95 c0             	setne  %al
    8b3c:	0f b6 d0             	movzbl %al,%edx
    8b3f:	0f b7 85 bc fa ff ff 	movzwl -0x544(%rbp),%eax
    8b46:	39 c2                	cmp    %eax,%edx
    8b48:	0f 9c c0             	setl   %al
    8b4b:	0f b6 c0             	movzbl %al,%eax
    8b4e:	4c 89 ee             	mov    %r13,%rsi
    8b51:	48 89 c7             	mov    %rax,%rdi
    8b54:	e8 e8 dc ff ff       	callq  6841 <safe_add_func_int64_t_s_s>
    8b59:	4c 89 e6             	mov    %r12,%rsi
    8b5c:	48 89 c7             	mov    %rax,%rdi
    8b5f:	e8 e7 e4 ff ff       	callq  704b <safe_sub_func_uint64_t_u_u>
    8b64:	48 85 c0             	test   %rax,%rax
    8b67:	75 09                	jne    8b72 <func_11+0xb82>
    8b69:	83 bd f4 fa ff ff 00 	cmpl   $0x0,-0x50c(%rbp)
    8b70:	74 07                	je     8b79 <func_11+0xb89>
    8b72:	ba 01 00 00 00       	mov    $0x1,%edx
    8b77:	eb 05                	jmp    8b7e <func_11+0xb8e>
    8b79:	ba 00 00 00 00       	mov    $0x0,%edx
    8b7e:	0f b7 85 bc fa ff ff 	movzwl -0x544(%rbp),%eax
    8b85:	39 c2                	cmp    %eax,%edx
    8b87:	0f 9c c0             	setl   %al
    8b8a:	89 c2                	mov    %eax,%edx
    8b8c:	8b 05 0e fd 00 00    	mov    0xfd0e(%rip),%eax        # 188a0 <g_706>
    8b92:	21 d0                	and    %edx,%eax
    8b94:	0f be c0             	movsbl %al,%eax
    8b97:	89 de                	mov    %ebx,%esi
    8b99:	89 c7                	mov    %eax,%edi
    8b9b:	e8 95 d7 ff ff       	callq  6335 <safe_rshift_func_int8_t_s_s>
    8ba0:	0f be c0             	movsbl %al,%eax
    8ba3:	09 85 d8 fa ff ff    	or     %eax,-0x528(%rbp)
    8ba9:	48 8b 05 20 01 01 00 	mov    0x10120(%rip),%rax        # 18cd0 <g_1303>
    8bb0:	48 83 c0 01          	add    $0x1,%rax
    8bb4:	48 89 05 15 01 01 00 	mov    %rax,0x10115(%rip)        # 18cd0 <g_1303>
    8bbb:	48 8b 05 0e 01 01 00 	mov    0x1010e(%rip),%rax        # 18cd0 <g_1303>
    8bc2:	48 83 f8 0c          	cmp    $0xc,%rax
    8bc6:	0f 8e 90 fc ff ff    	jle    885c <func_11+0x86c>
    8bcc:	e9 8d 00 00 00       	jmpq   8c5e <func_11+0xc6e>
    8bd1:	48 8d 85 c0 fb ff ff 	lea    -0x440(%rbp),%rax
    8bd8:	48 83 c0 04          	add    $0x4,%rax
    8bdc:	48 89 85 78 fb ff ff 	mov    %rax,-0x488(%rbp)
    8be3:	48 8d 05 ae 28 01 00 	lea    0x128ae(%rip),%rax        # 1b498 <g_343>
    8bea:	48 89 85 80 fb ff ff 	mov    %rax,-0x480(%rbp)
    8bf1:	48 8d 05 68 f4 00 00 	lea    0xf468(%rip),%rax        # 18060 <g_99>
    8bf8:	48 89 85 88 fb ff ff 	mov    %rax,-0x478(%rbp)
    8bff:	48 8d 05 1e f4 00 00 	lea    0xf41e(%rip),%rax        # 18024 <g_66>
    8c06:	48 89 85 90 fc ff ff 	mov    %rax,-0x370(%rbp)
    8c0d:	48 8d 85 d4 fa ff ff 	lea    -0x52c(%rbp),%rax
    8c14:	48 89 85 98 fc ff ff 	mov    %rax,-0x368(%rbp)
    8c1b:	48 8d 05 02 f4 00 00 	lea    0xf402(%rip),%rax        # 18024 <g_66>
    8c22:	48 89 85 a0 fc ff ff 	mov    %rax,-0x360(%rbp)
    8c29:	48 8d 85 d4 fa ff ff 	lea    -0x52c(%rbp),%rax
    8c30:	48 89 85 a8 fc ff ff 	mov    %rax,-0x358(%rbp)
    8c37:	48 8d 05 e6 f3 00 00 	lea    0xf3e6(%rip),%rax        # 18024 <g_66>
    8c3e:	48 89 85 b0 fc ff ff 	mov    %rax,-0x350(%rbp)
    8c45:	c7 85 ec fa ff ff 01 	movl   $0x1,-0x514(%rbp)
    8c4c:	00 00 00 
    8c4f:	8b 05 33 04 01 00    	mov    0x10433(%rip),%eax        # 19088 <g_2878>
    8c55:	83 c0 01             	add    $0x1,%eax
    8c58:	89 05 2a 04 01 00    	mov    %eax,0x1042a(%rip)        # 19088 <g_2878>
    8c5e:	0f b6 85 cd fa ff ff 	movzbl -0x533(%rbp),%eax
    8c65:	83 c0 01             	add    $0x1,%eax
    8c68:	88 85 cd fa ff ff    	mov    %al,-0x533(%rbp)
    8c6e:	8b 9d e8 fa ff ff    	mov    -0x518(%rbp),%ebx
    8c74:	0f b7 85 bc fa ff ff 	movzwl -0x544(%rbp),%eax
    8c7b:	44 0f b6 e0          	movzbl %al,%r12d
    8c7f:	44 0f b7 ad bc fa ff 	movzwl -0x544(%rbp),%r13d
    8c86:	ff 
    8c87:	44 0f b7 b5 bc fa ff 	movzwl -0x544(%rbp),%r14d
    8c8e:	ff 
    8c8f:	c7 85 1c fe ff ff b9 	movl   $0x1b9,-0x1e4(%rbp)
    8c96:	01 00 00 
    8c99:	ba 01 00 00 00       	mov    $0x1,%edx
    8c9e:	0f b7 85 bc fa ff ff 	movzwl -0x544(%rbp),%eax
    8ca5:	09 c2                	or     %eax,%edx
    8ca7:	0f b7 85 bc fa ff ff 	movzwl -0x544(%rbp),%eax
    8cae:	0f be c0             	movsbl %al,%eax
    8cb1:	89 d6                	mov    %edx,%esi
    8cb3:	89 c7                	mov    %eax,%edi
    8cb5:	e8 7b d6 ff ff       	callq  6335 <safe_rshift_func_int8_t_s_s>
    8cba:	0f be c0             	movsbl %al,%eax
    8cbd:	44 89 f6             	mov    %r14d,%esi
    8cc0:	89 c7                	mov    %eax,%edi
    8cc2:	e8 09 e2 ff ff       	callq  6ed0 <safe_sub_func_uint32_t_u_u>
    8cc7:	0f b6 c0             	movzbl %al,%eax
    8cca:	be 03 00 00 00       	mov    $0x3,%esi
    8ccf:	89 c7                	mov    %eax,%edi
    8cd1:	e8 76 df ff ff       	callq  6c4c <safe_lshift_func_uint8_t_u_u>
    8cd6:	89 c2                	mov    %eax,%edx
    8cd8:	48 8b 05 29 17 01 00 	mov    0x11729(%rip),%rax        # 1a408 <g_1230>
    8cdf:	48 8b 00             	mov    (%rax),%rax
    8ce2:	0f b6 d2             	movzbl %dl,%edx
    8ce5:	48 89 10             	mov    %rdx,(%rax)
    8ce8:	48 8b 10             	mov    (%rax),%rdx
    8ceb:	0f b7 85 bc fa ff ff 	movzwl -0x544(%rbp),%eax
    8cf2:	48 39 c2             	cmp    %rax,%rdx
    8cf5:	ba 01 00 00 00       	mov    $0x1,%edx
    8cfa:	0f b7 85 bc fa ff ff 	movzwl -0x544(%rbp),%eax
    8d01:	39 c2                	cmp    %eax,%edx
    8d03:	0f 9f c0             	setg   %al
    8d06:	0f b6 c0             	movzbl %al,%eax
    8d09:	be 77 5a 4b 82       	mov    $0x824b5a77,%esi
    8d0e:	89 c7                	mov    %eax,%edi
    8d10:	e8 a3 e1 ff ff       	callq  6eb8 <safe_add_func_uint32_t_u_u>
    8d15:	89 c0                	mov    %eax,%eax
    8d17:	4c 89 ee             	mov    %r13,%rsi
    8d1a:	48 89 c7             	mov    %rax,%rdi
    8d1d:	e8 86 db ff ff       	callq  68a8 <safe_sub_func_int64_t_s_s>
    8d22:	48 89 c2             	mov    %rax,%rdx
    8d25:	b8 fe ff ff ff       	mov    $0xfffffffe,%eax
    8d2a:	48 39 c2             	cmp    %rax,%rdx
    8d2d:	0f 96 c0             	setbe  %al
    8d30:	0f b6 c0             	movzbl %al,%eax
    8d33:	44 89 e6             	mov    %r12d,%esi
    8d36:	89 c7                	mov    %eax,%edi
    8d38:	e8 3b de ff ff       	callq  6b78 <safe_sub_func_uint8_t_u_u>
    8d3d:	0f b6 c0             	movzbl %al,%eax
    8d40:	66 39 85 bc fa ff ff 	cmp    %ax,-0x544(%rbp)
    8d47:	0f 95 c0             	setne  %al
    8d4a:	0f b6 c0             	movzbl %al,%eax
    8d4d:	89 de                	mov    %ebx,%esi
    8d4f:	89 c7                	mov    %eax,%edi
    8d51:	e8 7a e1 ff ff       	callq  6ed0 <safe_sub_func_uint32_t_u_u>
    8d56:	89 c1                	mov    %eax,%ecx
    8d58:	48 8b 05 b9 16 01 00 	mov    0x116b9(%rip),%rax        # 1a418 <g_1488>
    8d5f:	48 8b 00             	mov    (%rax),%rax
    8d62:	48 8b 00             	mov    (%rax),%rax
    8d65:	48 39 85 68 fb ff ff 	cmp    %rax,-0x498(%rbp)
    8d6c:	74 2d                	je     8d9b <func_11+0xdab>
    8d6e:	48 8b 85 70 fb ff ff 	mov    -0x490(%rbp),%rax
    8d75:	0f b7 00             	movzwl (%rax),%eax
    8d78:	8d 50 ff             	lea    -0x1(%rax),%edx
    8d7b:	48 8b 85 70 fb ff ff 	mov    -0x490(%rbp),%rax
    8d82:	66 89 10             	mov    %dx,(%rax)
    8d85:	48 8b 85 70 fb ff ff 	mov    -0x490(%rbp),%rax
    8d8c:	0f b7 00             	movzwl (%rax),%eax
    8d8f:	66 85 c0             	test   %ax,%ax
    8d92:	74 07                	je     8d9b <func_11+0xdab>
    8d94:	b8 01 00 00 00       	mov    $0x1,%eax
    8d99:	eb 05                	jmp    8da0 <func_11+0xdb0>
    8d9b:	b8 00 00 00 00       	mov    $0x0,%eax
    8da0:	48 98                	cltq   
    8da2:	48 89 ce             	mov    %rcx,%rsi
    8da5:	48 89 c7             	mov    %rax,%rdi
    8da8:	e8 81 e2 ff ff       	callq  702e <safe_add_func_uint64_t_u_u>
    8dad:	be dd 76 40 96       	mov    $0x964076dd,%esi
    8db2:	89 c7                	mov    %eax,%edi
    8db4:	e8 4c d8 ff ff       	callq  6605 <safe_sub_func_int32_t_s_s>
    8db9:	f7 d0                	not    %eax
    8dbb:	39 85 e0 fa ff ff    	cmp    %eax,-0x520(%rbp)
    8dc1:	0f 9c c0             	setl   %al
    8dc4:	0f b6 d0             	movzbl %al,%edx
    8dc7:	0f b7 85 bc fa ff ff 	movzwl -0x544(%rbp),%eax
    8dce:	21 c2                	and    %eax,%edx
    8dd0:	48 8b 85 60 fb ff ff 	mov    -0x4a0(%rbp),%rax
    8dd7:	8b 00                	mov    (%rax),%eax
    8dd9:	31 c2                	xor    %eax,%edx
    8ddb:	48 8b 85 60 fb ff ff 	mov    -0x4a0(%rbp),%rax
    8de2:	89 10                	mov    %edx,(%rax)
    8de4:	48 8b 85 40 fb ff ff 	mov    -0x4c0(%rbp),%rax
    8deb:	48 8b 5d c8          	mov    -0x38(%rbp),%rbx
    8def:	64 48 33 1c 25 28 00 	xor    %fs:0x28,%rbx
    8df6:	00 00 
    8df8:	74 05                	je     8dff <func_11+0xe0f>
    8dfa:	e8 71 d2 ff ff       	callq  6070 <__stack_chk_fail@plt>
    8dff:	48 81 c4 38 05 00 00 	add    $0x538,%rsp
    8e06:	5b                   	pop    %rbx
    8e07:	41 5c                	pop    %r12
    8e09:	41 5d                	pop    %r13
    8e0b:	41 5e                	pop    %r14
    8e0d:	41 5f                	pop    %r15
    8e0f:	5d                   	pop    %rbp
    8e10:	c3                   	retq   

0000000000008e11 <func_13>:
    8e11:	f3 0f 1e fa          	endbr64 
    8e15:	55                   	push   %rbp
    8e16:	48 89 e5             	mov    %rsp,%rbp
    8e19:	41 57                	push   %r15
    8e1b:	41 56                	push   %r14
    8e1d:	41 55                	push   %r13
    8e1f:	41 54                	push   %r12
    8e21:	53                   	push   %rbx
    8e22:	48 81 ec c8 0e 00 00 	sub    $0xec8,%rsp
    8e29:	48 89 bd 28 f1 ff ff 	mov    %rdi,-0xed8(%rbp)
    8e30:	89 f0                	mov    %esi,%eax
    8e32:	48 89 95 18 f1 ff ff 	mov    %rdx,-0xee8(%rbp)
    8e39:	48 89 8d 10 f1 ff ff 	mov    %rcx,-0xef0(%rbp)
    8e40:	66 89 85 24 f1 ff ff 	mov    %ax,-0xedc(%rbp)
    8e47:	64 48 8b 04 25 28 00 	mov    %fs:0x28,%rax
    8e4e:	00 00 
    8e50:	48 89 45 c8          	mov    %rax,-0x38(%rbp)
    8e54:	31 c0                	xor    %eax,%eax
    8e56:	48 8d 05 13 15 01 00 	lea    0x11513(%rip),%rax        # 1a370 <g_822>
    8e5d:	48 89 85 40 f4 ff ff 	mov    %rax,-0xbc0(%rbp)
    8e64:	48 8d 05 05 15 01 00 	lea    0x11505(%rip),%rax        # 1a370 <g_822>
    8e6b:	48 89 85 48 f4 ff ff 	mov    %rax,-0xbb8(%rbp)
    8e72:	48 8d 05 f7 14 01 00 	lea    0x114f7(%rip),%rax        # 1a370 <g_822>
    8e79:	48 89 85 50 f4 ff ff 	mov    %rax,-0xbb0(%rbp)
    8e80:	48 8d 05 e9 14 01 00 	lea    0x114e9(%rip),%rax        # 1a370 <g_822>
    8e87:	48 89 85 58 f4 ff ff 	mov    %rax,-0xba8(%rbp)
    8e8e:	48 8d 05 db 14 01 00 	lea    0x114db(%rip),%rax        # 1a370 <g_822>
    8e95:	48 89 85 60 f4 ff ff 	mov    %rax,-0xba0(%rbp)
    8e9c:	48 8d 05 cd 14 01 00 	lea    0x114cd(%rip),%rax        # 1a370 <g_822>
    8ea3:	48 89 85 68 f4 ff ff 	mov    %rax,-0xb98(%rbp)
    8eaa:	48 8d 05 bf 14 01 00 	lea    0x114bf(%rip),%rax        # 1a370 <g_822>
    8eb1:	48 89 85 70 f4 ff ff 	mov    %rax,-0xb90(%rbp)
    8eb8:	48 8d 05 b1 14 01 00 	lea    0x114b1(%rip),%rax        # 1a370 <g_822>
    8ebf:	48 89 85 78 f4 ff ff 	mov    %rax,-0xb88(%rbp)
    8ec6:	48 8d 05 a3 14 01 00 	lea    0x114a3(%rip),%rax        # 1a370 <g_822>
    8ecd:	48 89 85 80 f4 ff ff 	mov    %rax,-0xb80(%rbp)
    8ed4:	48 8d 85 40 f4 ff ff 	lea    -0xbc0(%rbp),%rax
    8edb:	48 83 c0 10          	add    $0x10,%rax
    8edf:	48 89 85 f8 f1 ff ff 	mov    %rax,-0xe08(%rbp)
    8ee6:	c7 85 40 f1 ff ff 27 	movl   $0x9647a227,-0xec0(%rbp)
    8eed:	a2 47 96 
    8ef0:	48 c7 85 a0 f1 ff ff 	movq   $0x0,-0xe60(%rbp)
    8ef7:	00 00 00 00 
    8efb:	c7 85 44 f1 ff ff 00 	movl   $0x0,-0xebc(%rbp)
    8f02:	00 00 00 
    8f05:	66 c7 85 36 f1 ff ff 	movw   $0x33f,-0xeca(%rbp)
    8f0c:	3f 03 
    8f0e:	c6 85 34 f1 ff ff 01 	movb   $0x1,-0xecc(%rbp)
    8f15:	48 b8 08 01 00 01 06 	movabs $0x106070601000108,%rax
    8f1c:	07 06 01 
    8f1f:	48 89 85 00 f4 ff ff 	mov    %rax,-0xc00(%rbp)
    8f26:	66 c7 85 08 f4 ff ff 	movw   $0x0,-0xbf8(%rbp)
    8f2d:	00 00 
    8f2f:	48 b8 06 00 00 6d 6d 	movabs $0x600006d6d000006,%rax
    8f36:	00 00 06 
    8f39:	48 89 85 0a f4 ff ff 	mov    %rax,-0xbf6(%rbp)
    8f40:	66 c7 85 12 f4 ff ff 	movw   $0x0,-0xbee(%rbp)
    8f47:	00 00 
    8f49:	48 b8 07 01 6d 01 07 	movabs $0x7000007016d0107,%rax
    8f50:	00 00 07 
    8f53:	48 89 85 14 f4 ff ff 	mov    %rax,-0xbec(%rbp)
    8f5a:	66 c7 85 1c f4 ff ff 	movw   $0x6d01,-0xbe4(%rbp)
    8f61:	01 6d 
    8f63:	48 b8 06 06 6d 07 08 	movabs $0x66d0708076d0606,%rax
    8f6a:	07 6d 06 
    8f6d:	48 89 85 1e f4 ff ff 	mov    %rax,-0xbe2(%rbp)
    8f74:	66 c7 85 26 f4 ff ff 	movw   $0x6d06,-0xbda(%rbp)
    8f7b:	06 6d 
    8f7d:	48 b8 01 07 00 00 07 	movabs $0x16d010700000701,%rax
    8f84:	01 6d 01 
    8f87:	48 89 85 28 f4 ff ff 	mov    %rax,-0xbd8(%rbp)
    8f8e:	66 c7 85 30 f4 ff ff 	movw   $0x7,-0xbd0(%rbp)
    8f95:	07 00 
    8f97:	48 b8 00 06 00 00 6d 	movabs $0x6d6d00000600,%rax
    8f9e:	6d 00 00 
    8fa1:	48 89 85 32 f4 ff ff 	mov    %rax,-0xbce(%rbp)
    8fa8:	66 c7 85 3a f4 ff ff 	movw   $0x6,-0xbc6(%rbp)
    8faf:	06 00 
    8fb1:	48 c7 85 a8 f1 ff ff 	movq   $0x0,-0xe58(%rbp)
    8fb8:	00 00 00 00 
    8fbc:	c7 85 a8 f1 ff ff 8c 	movl   $0x80a6a08c,-0xe58(%rbp)
    8fc3:	a0 a6 80 
    8fc6:	48 8d 05 e3 f8 00 00 	lea    0xf8e3(%rip),%rax        # 188b0 <g_923>
    8fcd:	48 89 85 00 f2 ff ff 	mov    %rax,-0xe00(%rbp)
    8fd4:	c7 85 64 f1 ff ff 5d 	movl   $0x46e9995d,-0xe9c(%rbp)
    8fdb:	99 e9 46 
    8fde:	48 c7 85 08 f2 ff ff 	movq   $0x0,-0xdf8(%rbp)
    8fe5:	00 00 00 00 
    8fe9:	c7 45 bd fe fe fe fe 	movl   $0xfefefefe,-0x43(%rbp)
    8ff0:	48 8d 05 a1 24 01 00 	lea    0x124a1(%rip),%rax        # 1b498 <g_343>
    8ff7:	48 89 85 00 f7 ff ff 	mov    %rax,-0x900(%rbp)
    8ffe:	48 8d 85 40 f1 ff ff 	lea    -0xec0(%rbp),%rax
    9005:	48 89 85 08 f7 ff ff 	mov    %rax,-0x8f8(%rbp)
    900c:	48 8d 85 40 f1 ff ff 	lea    -0xec0(%rbp),%rax
    9013:	48 89 85 10 f7 ff ff 	mov    %rax,-0x8f0(%rbp)
    901a:	48 8d 85 44 f1 ff ff 	lea    -0xebc(%rbp),%rax
    9021:	48 89 85 18 f7 ff ff 	mov    %rax,-0x8e8(%rbp)
    9028:	48 8d 85 40 f1 ff ff 	lea    -0xec0(%rbp),%rax
    902f:	48 89 85 20 f7 ff ff 	mov    %rax,-0x8e0(%rbp)
    9036:	48 8d 85 40 f1 ff ff 	lea    -0xec0(%rbp),%rax
    903d:	48 89 85 28 f7 ff ff 	mov    %rax,-0x8d8(%rbp)
    9044:	48 8d 05 4d 24 01 00 	lea    0x1244d(%rip),%rax        # 1b498 <g_343>
    904b:	48 89 85 30 f7 ff ff 	mov    %rax,-0x8d0(%rbp)
    9052:	48 8d 85 40 f1 ff ff 	lea    -0xec0(%rbp),%rax
    9059:	48 89 85 38 f7 ff ff 	mov    %rax,-0x8c8(%rbp)
    9060:	48 c7 85 40 f7 ff ff 	movq   $0x0,-0x8c0(%rbp)
    9067:	00 00 00 00 
    906b:	48 c7 85 48 f7 ff ff 	movq   $0x0,-0x8b8(%rbp)
    9072:	00 00 00 00 
    9076:	48 8d 85 40 f1 ff ff 	lea    -0xec0(%rbp),%rax
    907d:	48 89 85 50 f7 ff ff 	mov    %rax,-0x8b0(%rbp)
    9084:	48 8d 05 0d 24 01 00 	lea    0x1240d(%rip),%rax        # 1b498 <g_343>
    908b:	48 89 85 58 f7 ff ff 	mov    %rax,-0x8a8(%rbp)
    9092:	48 8d 85 40 f1 ff ff 	lea    -0xec0(%rbp),%rax
    9099:	48 89 85 60 f7 ff ff 	mov    %rax,-0x8a0(%rbp)
    90a0:	48 8d 85 40 f1 ff ff 	lea    -0xec0(%rbp),%rax
    90a7:	48 89 85 68 f7 ff ff 	mov    %rax,-0x898(%rbp)
    90ae:	48 8d 85 44 f1 ff ff 	lea    -0xebc(%rbp),%rax
    90b5:	48 89 85 70 f7 ff ff 	mov    %rax,-0x890(%rbp)
    90bc:	48 8d 85 40 f1 ff ff 	lea    -0xec0(%rbp),%rax
    90c3:	48 89 85 78 f7 ff ff 	mov    %rax,-0x888(%rbp)
    90ca:	48 8d 85 40 f1 ff ff 	lea    -0xec0(%rbp),%rax
    90d1:	48 89 85 80 f7 ff ff 	mov    %rax,-0x880(%rbp)
    90d8:	48 8d 05 b9 23 01 00 	lea    0x123b9(%rip),%rax        # 1b498 <g_343>
    90df:	48 89 85 88 f7 ff ff 	mov    %rax,-0x878(%rbp)
    90e6:	48 8d 85 40 f1 ff ff 	lea    -0xec0(%rbp),%rax
    90ed:	48 89 85 90 f7 ff ff 	mov    %rax,-0x870(%rbp)
    90f4:	48 c7 85 98 f7 ff ff 	movq   $0x0,-0x868(%rbp)
    90fb:	00 00 00 00 
    90ff:	48 c7 85 a0 f7 ff ff 	movq   $0x0,-0x860(%rbp)
    9106:	00 00 00 00 
    910a:	48 8d 85 40 f1 ff ff 	lea    -0xec0(%rbp),%rax
    9111:	48 89 85 a8 f7 ff ff 	mov    %rax,-0x858(%rbp)
    9118:	48 8d 05 79 23 01 00 	lea    0x12379(%rip),%rax        # 1b498 <g_343>
    911f:	48 89 85 b0 f7 ff ff 	mov    %rax,-0x850(%rbp)
    9126:	48 8d 85 40 f1 ff ff 	lea    -0xec0(%rbp),%rax
    912d:	48 89 85 b8 f7 ff ff 	mov    %rax,-0x848(%rbp)
    9134:	48 8d 85 40 f1 ff ff 	lea    -0xec0(%rbp),%rax
    913b:	48 89 85 c0 f7 ff ff 	mov    %rax,-0x840(%rbp)
    9142:	48 8d 85 44 f1 ff ff 	lea    -0xebc(%rbp),%rax
    9149:	48 89 85 c8 f7 ff ff 	mov    %rax,-0x838(%rbp)
    9150:	48 8d 85 40 f1 ff ff 	lea    -0xec0(%rbp),%rax
    9157:	48 89 85 d0 f7 ff ff 	mov    %rax,-0x830(%rbp)
    915e:	48 8d 85 40 f1 ff ff 	lea    -0xec0(%rbp),%rax
    9165:	48 89 85 d8 f7 ff ff 	mov    %rax,-0x828(%rbp)
    916c:	48 8d 05 25 23 01 00 	lea    0x12325(%rip),%rax        # 1b498 <g_343>
    9173:	48 89 85 e0 f7 ff ff 	mov    %rax,-0x820(%rbp)
    917a:	48 8d 85 40 f1 ff ff 	lea    -0xec0(%rbp),%rax
    9181:	48 89 85 e8 f7 ff ff 	mov    %rax,-0x818(%rbp)
    9188:	48 c7 85 f0 f7 ff ff 	movq   $0x0,-0x810(%rbp)
    918f:	00 00 00 00 
    9193:	48 c7 85 f8 f7 ff ff 	movq   $0x0,-0x808(%rbp)
    919a:	00 00 00 00 
    919e:	48 8d 85 40 f1 ff ff 	lea    -0xec0(%rbp),%rax
    91a5:	48 89 85 00 f8 ff ff 	mov    %rax,-0x800(%rbp)
    91ac:	48 8d 05 e5 22 01 00 	lea    0x122e5(%rip),%rax        # 1b498 <g_343>
    91b3:	48 89 85 08 f8 ff ff 	mov    %rax,-0x7f8(%rbp)
    91ba:	48 8d 85 40 f1 ff ff 	lea    -0xec0(%rbp),%rax
    91c1:	48 89 85 10 f8 ff ff 	mov    %rax,-0x7f0(%rbp)
    91c8:	48 8d 85 40 f1 ff ff 	lea    -0xec0(%rbp),%rax
    91cf:	48 89 85 18 f8 ff ff 	mov    %rax,-0x7e8(%rbp)
    91d6:	48 8d 85 44 f1 ff ff 	lea    -0xebc(%rbp),%rax
    91dd:	48 89 85 20 f8 ff ff 	mov    %rax,-0x7e0(%rbp)
    91e4:	48 8d 85 40 f1 ff ff 	lea    -0xec0(%rbp),%rax
    91eb:	48 89 85 28 f8 ff ff 	mov    %rax,-0x7d8(%rbp)
    91f2:	48 8d 85 40 f1 ff ff 	lea    -0xec0(%rbp),%rax
    91f9:	48 89 85 30 f8 ff ff 	mov    %rax,-0x7d0(%rbp)
    9200:	48 8d 05 91 22 01 00 	lea    0x12291(%rip),%rax        # 1b498 <g_343>
    9207:	48 89 85 38 f8 ff ff 	mov    %rax,-0x7c8(%rbp)
    920e:	48 8d 85 40 f1 ff ff 	lea    -0xec0(%rbp),%rax
    9215:	48 89 85 40 f8 ff ff 	mov    %rax,-0x7c0(%rbp)
    921c:	48 c7 85 48 f8 ff ff 	movq   $0x0,-0x7b8(%rbp)
    9223:	00 00 00 00 
    9227:	48 c7 85 50 f8 ff ff 	movq   $0x0,-0x7b0(%rbp)
    922e:	00 00 00 00 
    9232:	48 8d 85 40 f1 ff ff 	lea    -0xec0(%rbp),%rax
    9239:	48 89 85 58 f8 ff ff 	mov    %rax,-0x7a8(%rbp)
    9240:	48 8d 05 51 22 01 00 	lea    0x12251(%rip),%rax        # 1b498 <g_343>
    9247:	48 89 85 60 f8 ff ff 	mov    %rax,-0x7a0(%rbp)
    924e:	48 8d 85 40 f1 ff ff 	lea    -0xec0(%rbp),%rax
    9255:	48 89 85 68 f8 ff ff 	mov    %rax,-0x798(%rbp)
    925c:	48 8d 85 40 f1 ff ff 	lea    -0xec0(%rbp),%rax
    9263:	48 89 85 70 f8 ff ff 	mov    %rax,-0x790(%rbp)
    926a:	48 8d 85 44 f1 ff ff 	lea    -0xebc(%rbp),%rax
    9271:	48 89 85 78 f8 ff ff 	mov    %rax,-0x788(%rbp)
    9278:	48 8d 85 40 f1 ff ff 	lea    -0xec0(%rbp),%rax
    927f:	48 89 85 80 f8 ff ff 	mov    %rax,-0x780(%rbp)
    9286:	48 8d 85 40 f1 ff ff 	lea    -0xec0(%rbp),%rax
    928d:	48 89 85 88 f8 ff ff 	mov    %rax,-0x778(%rbp)
    9294:	48 8d 05 fd 21 01 00 	lea    0x121fd(%rip),%rax        # 1b498 <g_343>
    929b:	48 89 85 90 f8 ff ff 	mov    %rax,-0x770(%rbp)
    92a2:	48 8d 85 40 f1 ff ff 	lea    -0xec0(%rbp),%rax
    92a9:	48 89 85 98 f8 ff ff 	mov    %rax,-0x768(%rbp)
    92b0:	48 c7 85 a0 f8 ff ff 	movq   $0x0,-0x760(%rbp)
    92b7:	00 00 00 00 
    92bb:	48 c7 85 a8 f8 ff ff 	movq   $0x0,-0x758(%rbp)
    92c2:	00 00 00 00 
    92c6:	48 8d 85 40 f1 ff ff 	lea    -0xec0(%rbp),%rax
    92cd:	48 89 85 b0 f8 ff ff 	mov    %rax,-0x750(%rbp)
    92d4:	48 8d 05 bd 21 01 00 	lea    0x121bd(%rip),%rax        # 1b498 <g_343>
    92db:	48 89 85 b8 f8 ff ff 	mov    %rax,-0x748(%rbp)
    92e2:	48 8d 85 40 f1 ff ff 	lea    -0xec0(%rbp),%rax
    92e9:	48 89 85 c0 f8 ff ff 	mov    %rax,-0x740(%rbp)
    92f0:	48 8d 85 40 f1 ff ff 	lea    -0xec0(%rbp),%rax
    92f7:	48 89 85 c8 f8 ff ff 	mov    %rax,-0x738(%rbp)
    92fe:	48 8d 85 44 f1 ff ff 	lea    -0xebc(%rbp),%rax
    9305:	48 89 85 d0 f8 ff ff 	mov    %rax,-0x730(%rbp)
    930c:	48 8d 85 40 f1 ff ff 	lea    -0xec0(%rbp),%rax
    9313:	48 89 85 d8 f8 ff ff 	mov    %rax,-0x728(%rbp)
    931a:	48 8d 85 40 f1 ff ff 	lea    -0xec0(%rbp),%rax
    9321:	48 89 85 e0 f8 ff ff 	mov    %rax,-0x720(%rbp)
    9328:	48 8d 05 69 21 01 00 	lea    0x12169(%rip),%rax        # 1b498 <g_343>
    932f:	48 89 85 e8 f8 ff ff 	mov    %rax,-0x718(%rbp)
    9336:	48 8d 85 40 f1 ff ff 	lea    -0xec0(%rbp),%rax
    933d:	48 89 85 f0 f8 ff ff 	mov    %rax,-0x710(%rbp)
    9344:	48 c7 85 f8 f8 ff ff 	movq   $0x0,-0x708(%rbp)
    934b:	00 00 00 00 
    934f:	48 c7 85 00 f9 ff ff 	movq   $0x0,-0x700(%rbp)
    9356:	00 00 00 00 
    935a:	48 8d 85 40 f1 ff ff 	lea    -0xec0(%rbp),%rax
    9361:	48 89 85 08 f9 ff ff 	mov    %rax,-0x6f8(%rbp)
    9368:	48 8d 05 29 21 01 00 	lea    0x12129(%rip),%rax        # 1b498 <g_343>
    936f:	48 89 85 10 f9 ff ff 	mov    %rax,-0x6f0(%rbp)
    9376:	48 8d 85 40 f1 ff ff 	lea    -0xec0(%rbp),%rax
    937d:	48 89 85 18 f9 ff ff 	mov    %rax,-0x6e8(%rbp)
    9384:	48 8d 85 40 f1 ff ff 	lea    -0xec0(%rbp),%rax
    938b:	48 89 85 20 f9 ff ff 	mov    %rax,-0x6e0(%rbp)
    9392:	48 8d 85 44 f1 ff ff 	lea    -0xebc(%rbp),%rax
    9399:	48 89 85 28 f9 ff ff 	mov    %rax,-0x6d8(%rbp)
    93a0:	48 8d 85 40 f1 ff ff 	lea    -0xec0(%rbp),%rax
    93a7:	48 89 85 30 f9 ff ff 	mov    %rax,-0x6d0(%rbp)
    93ae:	48 8d 85 40 f1 ff ff 	lea    -0xec0(%rbp),%rax
    93b5:	48 89 85 38 f9 ff ff 	mov    %rax,-0x6c8(%rbp)
    93bc:	48 8d 85 00 f7 ff ff 	lea    -0x900(%rbp),%rax
    93c3:	48 05 b0 01 00 00    	add    $0x1b0,%rax
    93c9:	48 89 85 b0 f1 ff ff 	mov    %rax,-0xe50(%rbp)
    93d0:	48 8d 85 b0 f1 ff ff 	lea    -0xe50(%rbp),%rax
    93d7:	48 89 85 30 f5 ff ff 	mov    %rax,-0xad0(%rbp)
    93de:	48 8d 85 b0 f1 ff ff 	lea    -0xe50(%rbp),%rax
    93e5:	48 89 85 38 f5 ff ff 	mov    %rax,-0xac8(%rbp)
    93ec:	48 8d 85 b0 f1 ff ff 	lea    -0xe50(%rbp),%rax
    93f3:	48 89 85 40 f5 ff ff 	mov    %rax,-0xac0(%rbp)
    93fa:	48 8d 85 b0 f1 ff ff 	lea    -0xe50(%rbp),%rax
    9401:	48 89 85 48 f5 ff ff 	mov    %rax,-0xab8(%rbp)
    9408:	48 8d 85 b0 f1 ff ff 	lea    -0xe50(%rbp),%rax
    940f:	48 89 85 50 f5 ff ff 	mov    %rax,-0xab0(%rbp)
    9416:	48 8d 85 b0 f1 ff ff 	lea    -0xe50(%rbp),%rax
    941d:	48 89 85 58 f5 ff ff 	mov    %rax,-0xaa8(%rbp)
    9424:	48 8d 85 b0 f1 ff ff 	lea    -0xe50(%rbp),%rax
    942b:	48 89 85 60 f5 ff ff 	mov    %rax,-0xaa0(%rbp)
    9432:	48 8d 85 b0 f1 ff ff 	lea    -0xe50(%rbp),%rax
    9439:	48 89 85 68 f5 ff ff 	mov    %rax,-0xa98(%rbp)
    9440:	48 8d 85 b0 f1 ff ff 	lea    -0xe50(%rbp),%rax
    9447:	48 89 85 70 f5 ff ff 	mov    %rax,-0xa90(%rbp)
    944e:	48 8d 85 b0 f1 ff ff 	lea    -0xe50(%rbp),%rax
    9455:	48 89 85 78 f5 ff ff 	mov    %rax,-0xa88(%rbp)
    945c:	c7 85 4c f1 ff ff 00 	movl   $0x0,-0xeb4(%rbp)
    9463:	00 00 00 
    9466:	eb 1a                	jmp    9482 <func_13+0x671>
    9468:	8b 85 4c f1 ff ff    	mov    -0xeb4(%rbp),%eax
    946e:	48 98                	cltq   
    9470:	c7 84 85 b0 f3 ff ff 	movl   $0x31441da1,-0xc50(%rbp,%rax,4)
    9477:	a1 1d 44 31 
    947b:	83 85 4c f1 ff ff 01 	addl   $0x1,-0xeb4(%rbp)
    9482:	83 bd 4c f1 ff ff 07 	cmpl   $0x7,-0xeb4(%rbp)
    9489:	7e dd                	jle    9468 <func_13+0x657>
    948b:	c7 85 4c f1 ff ff 00 	movl   $0x0,-0xeb4(%rbp)
    9492:	00 00 00 
    9495:	eb 56                	jmp    94ed <func_13+0x6dc>
    9497:	c7 85 50 f1 ff ff 00 	movl   $0x0,-0xeb0(%rbp)
    949e:	00 00 00 
    94a1:	eb 3a                	jmp    94dd <func_13+0x6cc>
    94a3:	8b 85 50 f1 ff ff    	mov    -0xeb0(%rbp),%eax
    94a9:	48 63 c8             	movslq %eax,%rcx
    94ac:	8b 85 4c f1 ff ff    	mov    -0xeb4(%rbp),%eax
    94b2:	48 63 d0             	movslq %eax,%rdx
    94b5:	48 89 d0             	mov    %rdx,%rax
    94b8:	48 01 c0             	add    %rax,%rax
    94bb:	48 01 d0             	add    %rdx,%rax
    94be:	48 01 c0             	add    %rax,%rax
    94c1:	48 01 c8             	add    %rcx,%rax
    94c4:	48 bb 14 b2 9d 17 f9 	movabs $0xee42c5f9179db214,%rbx
    94cb:	c5 42 ee 
    94ce:	48 89 9c c5 40 f6 ff 	mov    %rbx,-0x9c0(%rbp,%rax,8)
    94d5:	ff 
    94d6:	83 85 50 f1 ff ff 01 	addl   $0x1,-0xeb0(%rbp)
    94dd:	83 bd 50 f1 ff ff 05 	cmpl   $0x5,-0xeb0(%rbp)
    94e4:	7e bd                	jle    94a3 <func_13+0x692>
    94e6:	83 85 4c f1 ff ff 01 	addl   $0x1,-0xeb4(%rbp)
    94ed:	83 bd 4c f1 ff ff 03 	cmpl   $0x3,-0xeb4(%rbp)
    94f4:	7e a1                	jle    9497 <func_13+0x686>
    94f6:	c7 85 4c f1 ff ff 00 	movl   $0x0,-0xeb4(%rbp)
    94fd:	00 00 00 
    9500:	eb 1e                	jmp    9520 <func_13+0x70f>
    9502:	8b 85 4c f1 ff ff    	mov    -0xeb4(%rbp),%eax
    9508:	48 98                	cltq   
    950a:	48 8d 15 5b eb 00 00 	lea    0xeb5b(%rip),%rdx        # 1806c <g_141+0x4>
    9511:	48 89 94 c5 70 f3 ff 	mov    %rdx,-0xc90(%rbp,%rax,8)
    9518:	ff 
    9519:	83 85 4c f1 ff ff 01 	addl   $0x1,-0xeb4(%rbp)
    9520:	83 bd 4c f1 ff ff 02 	cmpl   $0x2,-0xeb4(%rbp)
    9527:	7e d9                	jle    9502 <func_13+0x6f1>
    9529:	c7 05 6d f3 00 00 00 	movl   $0x0,0xf36d(%rip)        # 188a0 <g_706>
    9530:	00 00 00 
    9533:	e9 f4 0d 00 00       	jmpq   a32c <func_13+0x151b>
    9538:	66 c7 85 d8 f1 ff ff 	movw   $0xc8e,-0xe28(%rbp)
    953f:	8e 0c 
    9541:	c7 85 e0 f1 ff ff ee 	movl   $0x4337daee,-0xe20(%rbp)
    9548:	da 37 43 
    954b:	48 8d 05 76 18 01 00 	lea    0x11876(%rip),%rax        # 1adc8 <g_2248>
    9552:	48 89 85 b0 f2 ff ff 	mov    %rax,-0xd50(%rbp)
    9559:	48 c7 85 e8 f1 ff ff 	movq   $0x0,-0xe18(%rbp)
    9560:	00 00 00 00 
    9564:	c7 85 e8 f1 ff ff e1 	movl   $0x6ed342e1,-0xe18(%rbp)
    956b:	42 d3 6e 
    956e:	48 8d 05 23 1f 01 00 	lea    0x11f23(%rip),%rax        # 1b498 <g_343>
    9575:	48 89 85 b8 f2 ff ff 	mov    %rax,-0xd48(%rbp)
    957c:	48 8d 05 25 f2 00 00 	lea    0xf225(%rip),%rax        # 187a8 <g_394>
    9583:	48 89 85 c0 f2 ff ff 	mov    %rax,-0xd40(%rbp)
    958a:	48 8d 05 07 1f 01 00 	lea    0x11f07(%rip),%rax        # 1b498 <g_343>
    9591:	48 89 85 c8 f2 ff ff 	mov    %rax,-0xd38(%rbp)
    9598:	48 8d 85 40 f1 ff ff 	lea    -0xec0(%rbp),%rax
    959f:	48 89 85 d0 f2 ff ff 	mov    %rax,-0xd30(%rbp)
    95a6:	48 8d 85 e0 f1 ff ff 	lea    -0xe20(%rbp),%rax
    95ad:	48 89 85 d8 f2 ff ff 	mov    %rax,-0xd28(%rbp)
    95b4:	48 8d 05 ed f1 00 00 	lea    0xf1ed(%rip),%rax        # 187a8 <g_394>
    95bb:	48 89 85 e0 f2 ff ff 	mov    %rax,-0xd20(%rbp)
    95c2:	48 c7 85 e8 f2 ff ff 	movq   $0x0,-0xd18(%rbp)
    95c9:	00 00 00 00 
    95cd:	48 8d 85 40 f1 ff ff 	lea    -0xec0(%rbp),%rax
    95d4:	48 89 85 f0 f2 ff ff 	mov    %rax,-0xd10(%rbp)
    95db:	48 8d 05 b6 1e 01 00 	lea    0x11eb6(%rip),%rax        # 1b498 <g_343>
    95e2:	48 89 85 f8 f2 ff ff 	mov    %rax,-0xd08(%rbp)
    95e9:	48 8d 85 e0 f1 ff ff 	lea    -0xe20(%rbp),%rax
    95f0:	48 89 85 00 f3 ff ff 	mov    %rax,-0xd00(%rbp)
    95f7:	48 8d 85 40 f1 ff ff 	lea    -0xec0(%rbp),%rax
    95fe:	48 89 85 08 f3 ff ff 	mov    %rax,-0xcf8(%rbp)
    9605:	48 8d 85 e0 f1 ff ff 	lea    -0xe20(%rbp),%rax
    960c:	48 89 85 10 f3 ff ff 	mov    %rax,-0xcf0(%rbp)
    9613:	48 8d 05 7e 1e 01 00 	lea    0x11e7e(%rip),%rax        # 1b498 <g_343>
    961a:	48 89 85 18 f3 ff ff 	mov    %rax,-0xce8(%rbp)
    9621:	48 8d 85 b0 f3 ff ff 	lea    -0xc50(%rbp),%rax
    9628:	48 83 c0 10          	add    $0x10,%rax
    962c:	48 89 85 20 f3 ff ff 	mov    %rax,-0xce0(%rbp)
    9633:	48 8d 85 b0 f3 ff ff 	lea    -0xc50(%rbp),%rax
    963a:	48 89 85 28 f3 ff ff 	mov    %rax,-0xcd8(%rbp)
    9641:	48 c7 85 30 f3 ff ff 	movq   $0x0,-0xcd0(%rbp)
    9648:	00 00 00 00 
    964c:	48 8d 05 0d ea 00 00 	lea    0xea0d(%rip),%rax        # 18060 <g_99>
    9653:	48 89 85 38 f3 ff ff 	mov    %rax,-0xcc8(%rbp)
    965a:	48 8d 85 e0 f1 ff ff 	lea    -0xe20(%rbp),%rax
    9661:	48 89 85 40 f3 ff ff 	mov    %rax,-0xcc0(%rbp)
    9668:	48 8d 05 b5 e9 00 00 	lea    0xe9b5(%rip),%rax        # 18024 <g_66>
    966f:	48 89 85 48 f3 ff ff 	mov    %rax,-0xcb8(%rbp)
    9676:	48 8d 05 a7 e9 00 00 	lea    0xe9a7(%rip),%rax        # 18024 <g_66>
    967d:	48 89 85 d0 fb ff ff 	mov    %rax,-0x430(%rbp)
    9684:	48 8d 85 e0 f1 ff ff 	lea    -0xe20(%rbp),%rax
    968b:	48 89 85 d8 fb ff ff 	mov    %rax,-0x428(%rbp)
    9692:	48 8d 05 8b e9 00 00 	lea    0xe98b(%rip),%rax        # 18024 <g_66>
    9699:	48 89 85 e0 fb ff ff 	mov    %rax,-0x420(%rbp)
    96a0:	48 8d 05 01 f1 00 00 	lea    0xf101(%rip),%rax        # 187a8 <g_394>
    96a7:	48 89 85 e8 fb ff ff 	mov    %rax,-0x418(%rbp)
    96ae:	48 8d 85 44 f1 ff ff 	lea    -0xebc(%rbp),%rax
    96b5:	48 89 85 f0 fb ff ff 	mov    %rax,-0x410(%rbp)
    96bc:	48 8d 05 d5 1d 01 00 	lea    0x11dd5(%rip),%rax        # 1b498 <g_343>
    96c3:	48 89 85 f8 fb ff ff 	mov    %rax,-0x408(%rbp)
    96ca:	48 8d 05 c7 1d 01 00 	lea    0x11dc7(%rip),%rax        # 1b498 <g_343>
    96d1:	48 89 85 00 fc ff ff 	mov    %rax,-0x400(%rbp)
    96d8:	48 8d 05 45 e9 00 00 	lea    0xe945(%rip),%rax        # 18024 <g_66>
    96df:	48 89 85 08 fc ff ff 	mov    %rax,-0x3f8(%rbp)
    96e6:	48 8d 05 37 e9 00 00 	lea    0xe937(%rip),%rax        # 18024 <g_66>
    96ed:	48 89 85 10 fc ff ff 	mov    %rax,-0x3f0(%rbp)
    96f4:	48 8d 85 40 f1 ff ff 	lea    -0xec0(%rbp),%rax
    96fb:	48 89 85 18 fc ff ff 	mov    %rax,-0x3e8(%rbp)
    9702:	48 8d 05 57 e9 00 00 	lea    0xe957(%rip),%rax        # 18060 <g_99>
    9709:	48 89 85 20 fc ff ff 	mov    %rax,-0x3e0(%rbp)
    9710:	48 8d 85 e0 f1 ff ff 	lea    -0xe20(%rbp),%rax
    9717:	48 89 85 28 fc ff ff 	mov    %rax,-0x3d8(%rbp)
    971e:	48 c7 85 30 fc ff ff 	movq   $0x0,-0x3d0(%rbp)
    9725:	00 00 00 00 
    9729:	48 8d 85 40 f1 ff ff 	lea    -0xec0(%rbp),%rax
    9730:	48 89 85 38 fc ff ff 	mov    %rax,-0x3c8(%rbp)
    9737:	48 8d 05 5a 1d 01 00 	lea    0x11d5a(%rip),%rax        # 1b498 <g_343>
    973e:	48 89 85 40 fc ff ff 	mov    %rax,-0x3c0(%rbp)
    9745:	48 8d 85 44 f1 ff ff 	lea    -0xebc(%rbp),%rax
    974c:	48 89 85 48 fc ff ff 	mov    %rax,-0x3b8(%rbp)
    9753:	48 c7 85 50 fc ff ff 	movq   $0x0,-0x3b0(%rbp)
    975a:	00 00 00 00 
    975e:	48 8d 85 44 f1 ff ff 	lea    -0xebc(%rbp),%rax
    9765:	48 89 85 58 fc ff ff 	mov    %rax,-0x3a8(%rbp)
    976c:	48 8d 85 44 f1 ff ff 	lea    -0xebc(%rbp),%rax
    9773:	48 89 85 60 fc ff ff 	mov    %rax,-0x3a0(%rbp)
    977a:	48 c7 85 68 fc ff ff 	movq   $0x0,-0x398(%rbp)
    9781:	00 00 00 00 
    9785:	48 8d 85 44 f1 ff ff 	lea    -0xebc(%rbp),%rax
    978c:	48 89 85 70 fc ff ff 	mov    %rax,-0x390(%rbp)
    9793:	48 c7 85 78 fc ff ff 	movq   $0x0,-0x388(%rbp)
    979a:	00 00 00 00 
    979e:	48 8d 85 b0 f3 ff ff 	lea    -0xc50(%rbp),%rax
    97a5:	48 83 c0 10          	add    $0x10,%rax
    97a9:	48 89 85 80 fc ff ff 	mov    %rax,-0x380(%rbp)
    97b0:	48 c7 85 88 fc ff ff 	movq   $0x0,-0x378(%rbp)
    97b7:	00 00 00 00 
    97bb:	48 8d 05 62 e8 00 00 	lea    0xe862(%rip),%rax        # 18024 <g_66>
    97c2:	48 89 85 90 fc ff ff 	mov    %rax,-0x370(%rbp)
    97c9:	48 c7 85 98 fc ff ff 	movq   $0x0,-0x368(%rbp)
    97d0:	00 00 00 00 
    97d4:	48 8d 05 49 e8 00 00 	lea    0xe849(%rip),%rax        # 18024 <g_66>
    97db:	48 89 85 a0 fc ff ff 	mov    %rax,-0x360(%rbp)
    97e2:	48 8d 85 b0 f3 ff ff 	lea    -0xc50(%rbp),%rax
    97e9:	48 89 85 a8 fc ff ff 	mov    %rax,-0x358(%rbp)
    97f0:	48 c7 85 b0 fc ff ff 	movq   $0x0,-0x350(%rbp)
    97f7:	00 00 00 00 
    97fb:	48 8d 05 5e e8 00 00 	lea    0xe85e(%rip),%rax        # 18060 <g_99>
    9802:	48 89 85 b8 fc ff ff 	mov    %rax,-0x348(%rbp)
    9809:	48 c7 85 c0 fc ff ff 	movq   $0x0,-0x340(%rbp)
    9810:	00 00 00 00 
    9814:	48 c7 85 c8 fc ff ff 	movq   $0x0,-0x338(%rbp)
    981b:	00 00 00 00 
    981f:	48 c7 85 d0 fc ff ff 	movq   $0x0,-0x330(%rbp)
    9826:	00 00 00 00 
    982a:	48 8d 05 77 ef 00 00 	lea    0xef77(%rip),%rax        # 187a8 <g_394>
    9831:	48 89 85 d8 fc ff ff 	mov    %rax,-0x328(%rbp)
    9838:	48 8d 05 21 e8 00 00 	lea    0xe821(%rip),%rax        # 18060 <g_99>
    983f:	48 89 85 e0 fc ff ff 	mov    %rax,-0x320(%rbp)
    9846:	48 c7 85 e8 fc ff ff 	movq   $0x0,-0x318(%rbp)
    984d:	00 00 00 00 
    9851:	48 c7 85 f0 fc ff ff 	movq   $0x0,-0x310(%rbp)
    9858:	00 00 00 00 
    985c:	48 8d 05 c1 e7 00 00 	lea    0xe7c1(%rip),%rax        # 18024 <g_66>
    9863:	48 89 85 f8 fc ff ff 	mov    %rax,-0x308(%rbp)
    986a:	48 8d 85 e0 f1 ff ff 	lea    -0xe20(%rbp),%rax
    9871:	48 89 85 00 fd ff ff 	mov    %rax,-0x300(%rbp)
    9878:	48 8d 05 29 ef 00 00 	lea    0xef29(%rip),%rax        # 187a8 <g_394>
    987f:	48 89 85 08 fd ff ff 	mov    %rax,-0x2f8(%rbp)
    9886:	48 8d 05 d3 e7 00 00 	lea    0xe7d3(%rip),%rax        # 18060 <g_99>
    988d:	48 89 85 10 fd ff ff 	mov    %rax,-0x2f0(%rbp)
    9894:	48 8d 85 b0 f3 ff ff 	lea    -0xc50(%rbp),%rax
    989b:	48 89 85 18 fd ff ff 	mov    %rax,-0x2e8(%rbp)
    98a2:	48 c7 85 20 fd ff ff 	movq   $0x0,-0x2e0(%rbp)
    98a9:	00 00 00 00 
    98ad:	48 c7 85 28 fd ff ff 	movq   $0x0,-0x2d8(%rbp)
    98b4:	00 00 00 00 
    98b8:	48 c7 85 30 fd ff ff 	movq   $0x0,-0x2d0(%rbp)
    98bf:	00 00 00 00 
    98c3:	48 8d 85 b0 f3 ff ff 	lea    -0xc50(%rbp),%rax
    98ca:	48 89 85 38 fd ff ff 	mov    %rax,-0x2c8(%rbp)
    98d1:	48 8d 05 88 e7 00 00 	lea    0xe788(%rip),%rax        # 18060 <g_99>
    98d8:	48 89 85 40 fd ff ff 	mov    %rax,-0x2c0(%rbp)
    98df:	48 8d 05 3e e7 00 00 	lea    0xe73e(%rip),%rax        # 18024 <g_66>
    98e6:	48 89 85 48 fd ff ff 	mov    %rax,-0x2b8(%rbp)
    98ed:	48 8d 05 b4 ee 00 00 	lea    0xeeb4(%rip),%rax        # 187a8 <g_394>
    98f4:	48 89 85 50 fd ff ff 	mov    %rax,-0x2b0(%rbp)
    98fb:	48 c7 85 58 fd ff ff 	movq   $0x0,-0x2a8(%rbp)
    9902:	00 00 00 00 
    9906:	48 8d 05 53 e7 00 00 	lea    0xe753(%rip),%rax        # 18060 <g_99>
    990d:	48 89 85 60 fd ff ff 	mov    %rax,-0x2a0(%rbp)
    9914:	48 8d 05 8d ee 00 00 	lea    0xee8d(%rip),%rax        # 187a8 <g_394>
    991b:	48 89 85 68 fd ff ff 	mov    %rax,-0x298(%rbp)
    9922:	48 8d 05 37 e7 00 00 	lea    0xe737(%rip),%rax        # 18060 <g_99>
    9929:	48 89 85 70 fd ff ff 	mov    %rax,-0x290(%rbp)
    9930:	48 8d 05 29 e7 00 00 	lea    0xe729(%rip),%rax        # 18060 <g_99>
    9937:	48 89 85 78 fd ff ff 	mov    %rax,-0x288(%rbp)
    993e:	48 8d 05 1b e7 00 00 	lea    0xe71b(%rip),%rax        # 18060 <g_99>
    9945:	48 89 85 80 fd ff ff 	mov    %rax,-0x280(%rbp)
    994c:	48 8d 85 e0 f1 ff ff 	lea    -0xe20(%rbp),%rax
    9953:	48 89 85 88 fd ff ff 	mov    %rax,-0x278(%rbp)
    995a:	48 8d 85 e0 f1 ff ff 	lea    -0xe20(%rbp),%rax
    9961:	48 89 85 90 fd ff ff 	mov    %rax,-0x270(%rbp)
    9968:	48 8d 05 f1 e6 00 00 	lea    0xe6f1(%rip),%rax        # 18060 <g_99>
    996f:	48 89 85 98 fd ff ff 	mov    %rax,-0x268(%rbp)
    9976:	48 c7 85 a0 fd ff ff 	movq   $0x0,-0x260(%rbp)
    997d:	00 00 00 00 
    9981:	48 8d 05 20 ee 00 00 	lea    0xee20(%rip),%rax        # 187a8 <g_394>
    9988:	48 89 85 a8 fd ff ff 	mov    %rax,-0x258(%rbp)
    998f:	48 8d 85 44 f1 ff ff 	lea    -0xebc(%rbp),%rax
    9996:	48 89 85 b0 fd ff ff 	mov    %rax,-0x250(%rbp)
    999d:	48 8d 05 80 e6 00 00 	lea    0xe680(%rip),%rax        # 18024 <g_66>
    99a4:	48 89 85 b8 fd ff ff 	mov    %rax,-0x248(%rbp)
    99ab:	48 8d 05 72 e6 00 00 	lea    0xe672(%rip),%rax        # 18024 <g_66>
    99b2:	48 89 85 c0 fd ff ff 	mov    %rax,-0x240(%rbp)
    99b9:	48 8d 05 a0 e6 00 00 	lea    0xe6a0(%rip),%rax        # 18060 <g_99>
    99c0:	48 89 85 c8 fd ff ff 	mov    %rax,-0x238(%rbp)
    99c7:	48 c7 85 d0 fd ff ff 	movq   $0x0,-0x230(%rbp)
    99ce:	00 00 00 00 
    99d2:	48 8d 05 bf 1a 01 00 	lea    0x11abf(%rip),%rax        # 1b498 <g_343>
    99d9:	48 89 85 d8 fd ff ff 	mov    %rax,-0x228(%rbp)
    99e0:	48 8d 05 79 e6 00 00 	lea    0xe679(%rip),%rax        # 18060 <g_99>
    99e7:	48 89 85 e0 fd ff ff 	mov    %rax,-0x220(%rbp)
    99ee:	48 8d 85 e0 f1 ff ff 	lea    -0xe20(%rbp),%rax
    99f5:	48 89 85 e8 fd ff ff 	mov    %rax,-0x218(%rbp)
    99fc:	48 8d 05 5d e6 00 00 	lea    0xe65d(%rip),%rax        # 18060 <g_99>
    9a03:	48 89 85 f0 fd ff ff 	mov    %rax,-0x210(%rbp)
    9a0a:	48 8d 05 4f e6 00 00 	lea    0xe64f(%rip),%rax        # 18060 <g_99>
    9a11:	48 89 85 f8 fd ff ff 	mov    %rax,-0x208(%rbp)
    9a18:	48 c7 85 00 fe ff ff 	movq   $0x0,-0x200(%rbp)
    9a1f:	00 00 00 00 
    9a23:	48 8d 85 b0 f3 ff ff 	lea    -0xc50(%rbp),%rax
    9a2a:	48 83 c0 10          	add    $0x10,%rax
    9a2e:	48 89 85 08 fe ff ff 	mov    %rax,-0x1f8(%rbp)
    9a35:	48 8d 85 44 f1 ff ff 	lea    -0xebc(%rbp),%rax
    9a3c:	48 89 85 10 fe ff ff 	mov    %rax,-0x1f0(%rbp)
    9a43:	48 8d 05 da e5 00 00 	lea    0xe5da(%rip),%rax        # 18024 <g_66>
    9a4a:	48 89 85 18 fe ff ff 	mov    %rax,-0x1e8(%rbp)
    9a51:	48 c7 85 20 fe ff ff 	movq   $0x0,-0x1e0(%rbp)
    9a58:	00 00 00 00 
    9a5c:	48 c7 85 28 fe ff ff 	movq   $0x0,-0x1d8(%rbp)
    9a63:	00 00 00 00 
    9a67:	48 c7 85 30 fe ff ff 	movq   $0x0,-0x1d0(%rbp)
    9a6e:	00 00 00 00 
    9a72:	48 8d 85 44 f1 ff ff 	lea    -0xebc(%rbp),%rax
    9a79:	48 89 85 38 fe ff ff 	mov    %rax,-0x1c8(%rbp)
    9a80:	48 8d 05 21 ed 00 00 	lea    0xed21(%rip),%rax        # 187a8 <g_394>
    9a87:	48 89 85 40 fe ff ff 	mov    %rax,-0x1c0(%rbp)
    9a8e:	48 8d 85 e0 f1 ff ff 	lea    -0xe20(%rbp),%rax
    9a95:	48 89 85 48 fe ff ff 	mov    %rax,-0x1b8(%rbp)
    9a9c:	48 8d 85 40 f1 ff ff 	lea    -0xec0(%rbp),%rax
    9aa3:	48 89 85 50 fe ff ff 	mov    %rax,-0x1b0(%rbp)
    9aaa:	48 8d 85 b0 f3 ff ff 	lea    -0xc50(%rbp),%rax
    9ab1:	48 83 c0 10          	add    $0x10,%rax
    9ab5:	48 89 85 58 fe ff ff 	mov    %rax,-0x1a8(%rbp)
    9abc:	48 8d 05 9d e5 00 00 	lea    0xe59d(%rip),%rax        # 18060 <g_99>
    9ac3:	48 89 85 60 fe ff ff 	mov    %rax,-0x1a0(%rbp)
    9aca:	48 c7 85 68 fe ff ff 	movq   $0x0,-0x198(%rbp)
    9ad1:	00 00 00 00 
    9ad5:	48 8d 85 e0 f1 ff ff 	lea    -0xe20(%rbp),%rax
    9adc:	48 89 85 70 fe ff ff 	mov    %rax,-0x190(%rbp)
    9ae3:	48 c7 85 78 fe ff ff 	movq   $0x0,-0x188(%rbp)
    9aea:	00 00 00 00 
    9aee:	48 c7 85 80 fe ff ff 	movq   $0x0,-0x180(%rbp)
    9af5:	00 00 00 00 
    9af9:	48 c7 85 88 fe ff ff 	movq   $0x0,-0x178(%rbp)
    9b00:	00 00 00 00 
    9b04:	48 8d 85 e0 f1 ff ff 	lea    -0xe20(%rbp),%rax
    9b0b:	48 89 85 90 fe ff ff 	mov    %rax,-0x170(%rbp)
    9b12:	48 8d 05 8f ec 00 00 	lea    0xec8f(%rip),%rax        # 187a8 <g_394>
    9b19:	48 89 85 98 fe ff ff 	mov    %rax,-0x168(%rbp)
    9b20:	48 c7 85 a0 fe ff ff 	movq   $0x0,-0x160(%rbp)
    9b27:	00 00 00 00 
    9b2b:	48 8d 85 44 f1 ff ff 	lea    -0xebc(%rbp),%rax
    9b32:	48 89 85 a8 fe ff ff 	mov    %rax,-0x158(%rbp)
    9b39:	48 8d 85 44 f1 ff ff 	lea    -0xebc(%rbp),%rax
    9b40:	48 89 85 b0 fe ff ff 	mov    %rax,-0x150(%rbp)
    9b47:	48 8d 05 12 e5 00 00 	lea    0xe512(%rip),%rax        # 18060 <g_99>
    9b4e:	48 89 85 b8 fe ff ff 	mov    %rax,-0x148(%rbp)
    9b55:	48 c7 85 c0 fe ff ff 	movq   $0x0,-0x140(%rbp)
    9b5c:	00 00 00 00 
    9b60:	48 8d 85 e0 f1 ff ff 	lea    -0xe20(%rbp),%rax
    9b67:	48 89 85 c8 fe ff ff 	mov    %rax,-0x138(%rbp)
    9b6e:	48 c7 85 d0 fe ff ff 	movq   $0x0,-0x130(%rbp)
    9b75:	00 00 00 00 
    9b79:	48 c7 85 d8 fe ff ff 	movq   $0x0,-0x128(%rbp)
    9b80:	00 00 00 00 
    9b84:	48 8d 05 1d ec 00 00 	lea    0xec1d(%rip),%rax        # 187a8 <g_394>
    9b8b:	48 89 85 e0 fe ff ff 	mov    %rax,-0x120(%rbp)
    9b92:	48 8d 85 44 f1 ff ff 	lea    -0xebc(%rbp),%rax
    9b99:	48 89 85 e8 fe ff ff 	mov    %rax,-0x118(%rbp)
    9ba0:	48 8d 05 7d e4 00 00 	lea    0xe47d(%rip),%rax        # 18024 <g_66>
    9ba7:	48 89 85 f0 fe ff ff 	mov    %rax,-0x110(%rbp)
    9bae:	48 8d 85 e0 f1 ff ff 	lea    -0xe20(%rbp),%rax
    9bb5:	48 89 85 f8 fe ff ff 	mov    %rax,-0x108(%rbp)
    9bbc:	48 8d 85 b0 f3 ff ff 	lea    -0xc50(%rbp),%rax
    9bc3:	48 83 c0 10          	add    $0x10,%rax
    9bc7:	48 89 85 00 ff ff ff 	mov    %rax,-0x100(%rbp)
    9bce:	48 8d 05 d3 eb 00 00 	lea    0xebd3(%rip),%rax        # 187a8 <g_394>
    9bd5:	48 89 85 08 ff ff ff 	mov    %rax,-0xf8(%rbp)
    9bdc:	48 8d 85 44 f1 ff ff 	lea    -0xebc(%rbp),%rax
    9be3:	48 89 85 10 ff ff ff 	mov    %rax,-0xf0(%rbp)
    9bea:	48 8d 85 44 f1 ff ff 	lea    -0xebc(%rbp),%rax
    9bf1:	48 89 85 18 ff ff ff 	mov    %rax,-0xe8(%rbp)
    9bf8:	48 8d 05 99 18 01 00 	lea    0x11899(%rip),%rax        # 1b498 <g_343>
    9bff:	48 89 85 20 ff ff ff 	mov    %rax,-0xe0(%rbp)
    9c06:	48 8d 05 9b eb 00 00 	lea    0xeb9b(%rip),%rax        # 187a8 <g_394>
    9c0d:	48 89 85 28 ff ff ff 	mov    %rax,-0xd8(%rbp)
    9c14:	48 8d 05 09 e4 00 00 	lea    0xe409(%rip),%rax        # 18024 <g_66>
    9c1b:	48 89 85 30 ff ff ff 	mov    %rax,-0xd0(%rbp)
    9c22:	48 8d 85 44 f1 ff ff 	lea    -0xebc(%rbp),%rax
    9c29:	48 89 85 38 ff ff ff 	mov    %rax,-0xc8(%rbp)
    9c30:	48 c7 85 40 ff ff ff 	movq   $0x0,-0xc0(%rbp)
    9c37:	00 00 00 00 
    9c3b:	48 8d 85 e0 f1 ff ff 	lea    -0xe20(%rbp),%rax
    9c42:	48 89 85 48 ff ff ff 	mov    %rax,-0xb8(%rbp)
    9c49:	48 8d 05 58 eb 00 00 	lea    0xeb58(%rip),%rax        # 187a8 <g_394>
    9c50:	48 89 85 50 ff ff ff 	mov    %rax,-0xb0(%rbp)
    9c57:	48 c7 85 58 ff ff ff 	movq   $0x0,-0xa8(%rbp)
    9c5e:	00 00 00 00 
    9c62:	48 8d 85 44 f1 ff ff 	lea    -0xebc(%rbp),%rax
    9c69:	48 89 85 60 ff ff ff 	mov    %rax,-0xa0(%rbp)
    9c70:	48 c7 85 68 ff ff ff 	movq   $0x0,-0x98(%rbp)
    9c77:	00 00 00 00 
    9c7b:	48 8d 85 40 f1 ff ff 	lea    -0xec0(%rbp),%rax
    9c82:	48 89 85 70 ff ff ff 	mov    %rax,-0x90(%rbp)
    9c89:	48 8d 85 40 f1 ff ff 	lea    -0xec0(%rbp),%rax
    9c90:	48 89 85 78 ff ff ff 	mov    %rax,-0x88(%rbp)
    9c97:	48 c7 45 80 00 00 00 	movq   $0x0,-0x80(%rbp)
    9c9e:	00 
    9c9f:	48 8d 85 44 f1 ff ff 	lea    -0xebc(%rbp),%rax
    9ca6:	48 89 45 88          	mov    %rax,-0x78(%rbp)
    9caa:	c7 85 80 f5 ff ff 01 	movl   $0x1,-0xa80(%rbp)
    9cb1:	00 00 00 
    9cb4:	c7 85 84 f5 ff ff 00 	movl   $0x0,-0xa7c(%rbp)
    9cbb:	00 00 00 
    9cbe:	c7 85 88 f5 ff ff ff 	movl   $0xffffffff,-0xa78(%rbp)
    9cc5:	ff ff ff 
    9cc8:	c7 85 8c f5 ff ff 01 	movl   $0x1,-0xa74(%rbp)
    9ccf:	00 00 00 
    9cd2:	c7 85 90 f5 ff ff fb 	movl   $0xfffffffb,-0xa70(%rbp)
    9cd9:	ff ff ff 
    9cdc:	c7 85 94 f5 ff ff 01 	movl   $0x1,-0xa6c(%rbp)
    9ce3:	00 00 00 
    9ce6:	c7 85 98 f5 ff ff 1f 	movl   $0x2126751f,-0xa68(%rbp)
    9ced:	75 26 21 
    9cf0:	c7 85 9c f5 ff ff 01 	movl   $0x1,-0xa64(%rbp)
    9cf7:	00 00 00 
    9cfa:	c7 85 a0 f5 ff ff ff 	movl   $0xffffffff,-0xa60(%rbp)
    9d01:	ff ff ff 
    9d04:	c7 85 a4 f5 ff ff 08 	movl   $0x8,-0xa5c(%rbp)
    9d0b:	00 00 00 
    9d0e:	c7 85 a8 f5 ff ff 08 	movl   $0x8,-0xa58(%rbp)
    9d15:	00 00 00 
    9d18:	c7 85 ac f5 ff ff fc 	movl   $0xfffffffc,-0xa54(%rbp)
    9d1f:	ff ff ff 
    9d22:	c7 85 b0 f5 ff ff 00 	movl   $0x0,-0xa50(%rbp)
    9d29:	00 00 00 
    9d2c:	c7 85 b4 f5 ff ff 01 	movl   $0x1,-0xa4c(%rbp)
    9d33:	00 00 00 
    9d36:	c7 85 b8 f5 ff ff 01 	movl   $0x1,-0xa48(%rbp)
    9d3d:	00 00 00 
    9d40:	c7 85 bc f5 ff ff fc 	movl   $0xfffffffc,-0xa44(%rbp)
    9d47:	ff ff ff 
    9d4a:	c7 85 c0 f5 ff ff fb 	movl   $0xfffffffb,-0xa40(%rbp)
    9d51:	ff ff ff 
    9d54:	c7 85 c4 f5 ff ff 84 	movl   $0x63498984,-0xa3c(%rbp)
    9d5b:	89 49 63 
    9d5e:	c7 85 c8 f5 ff ff 00 	movl   $0x0,-0xa38(%rbp)
    9d65:	00 00 00 
    9d68:	c7 85 cc f5 ff ff 00 	movl   $0x0,-0xa34(%rbp)
    9d6f:	00 00 00 
    9d72:	c7 85 d0 f5 ff ff 00 	movl   $0x0,-0xa30(%rbp)
    9d79:	00 00 00 
    9d7c:	c7 85 d4 f5 ff ff 08 	movl   $0x8,-0xa2c(%rbp)
    9d83:	00 00 00 
    9d86:	c7 85 d8 f5 ff ff fc 	movl   $0xfffffffc,-0xa28(%rbp)
    9d8d:	ff ff ff 
    9d90:	c7 85 dc f5 ff ff 84 	movl   $0x63498984,-0xa24(%rbp)
    9d97:	89 49 63 
    9d9a:	c7 85 e0 f5 ff ff 1f 	movl   $0x2126751f,-0xa20(%rbp)
    9da1:	75 26 21 
    9da4:	c7 85 e4 f5 ff ff 1f 	movl   $0x2126751f,-0xa1c(%rbp)
    9dab:	75 26 21 
    9dae:	c7 85 e8 f5 ff ff 01 	movl   $0x1,-0xa18(%rbp)
    9db5:	00 00 00 
    9db8:	c7 85 ec f5 ff ff 01 	movl   $0x1,-0xa14(%rbp)
    9dbf:	00 00 00 
    9dc2:	c7 85 f0 f5 ff ff fc 	movl   $0xfffffffc,-0xa10(%rbp)
    9dc9:	ff ff ff 
    9dcc:	c7 85 f4 f5 ff ff fc 	movl   $0xfffffffc,-0xa0c(%rbp)
    9dd3:	ff ff ff 
    9dd6:	48 8d 05 ad e9 00 00 	lea    0xe9ad(%rip),%rax        # 1878a <g_269>
    9ddd:	48 89 85 50 f3 ff ff 	mov    %rax,-0xcb0(%rbp)
    9de4:	c7 85 98 f1 ff ff 0c 	movl   $0xf53c140c,-0xe68(%rbp)
    9deb:	14 3c f5 
    9dee:	48 b8 0f 73 e4 72 df 	movabs $0xef7e1ddf72e4730f,%rax
    9df5:	1d 7e ef 
    9df8:	48 89 85 58 f3 ff ff 	mov    %rax,-0xca8(%rbp)
    9dff:	c6 85 35 f1 ff ff e4 	movb   $0xe4,-0xecb(%rbp)
    9e06:	48 8d 85 d8 f1 ff ff 	lea    -0xe28(%rbp),%rax
    9e0d:	48 89 85 40 f9 ff ff 	mov    %rax,-0x6c0(%rbp)
    9e14:	48 8d 85 36 f1 ff ff 	lea    -0xeca(%rbp),%rax
    9e1b:	48 89 85 48 f9 ff ff 	mov    %rax,-0x6b8(%rbp)
    9e22:	48 8d 85 d8 f1 ff ff 	lea    -0xe28(%rbp),%rax
    9e29:	48 89 85 50 f9 ff ff 	mov    %rax,-0x6b0(%rbp)
    9e30:	48 c7 85 58 f9 ff ff 	movq   $0x0,-0x6a8(%rbp)
    9e37:	00 00 00 00 
    9e3b:	48 8d 05 46 e9 00 00 	lea    0xe946(%rip),%rax        # 18788 <g_218>
    9e42:	48 89 85 60 f9 ff ff 	mov    %rax,-0x6a0(%rbp)
    9e49:	48 8d 85 36 f1 ff ff 	lea    -0xeca(%rbp),%rax
    9e50:	48 89 85 68 f9 ff ff 	mov    %rax,-0x698(%rbp)
    9e57:	48 8d 85 36 f1 ff ff 	lea    -0xeca(%rbp),%rax
    9e5e:	48 89 85 70 f9 ff ff 	mov    %rax,-0x690(%rbp)
    9e65:	48 8d 05 1c e9 00 00 	lea    0xe91c(%rip),%rax        # 18788 <g_218>
    9e6c:	48 89 85 78 f9 ff ff 	mov    %rax,-0x688(%rbp)
    9e73:	48 8d 05 0e e9 00 00 	lea    0xe90e(%rip),%rax        # 18788 <g_218>
    9e7a:	48 89 85 80 f9 ff ff 	mov    %rax,-0x680(%rbp)
    9e81:	48 8d 85 36 f1 ff ff 	lea    -0xeca(%rbp),%rax
    9e88:	48 89 85 88 f9 ff ff 	mov    %rax,-0x678(%rbp)
    9e8f:	48 8d 85 d8 f1 ff ff 	lea    -0xe28(%rbp),%rax
    9e96:	48 89 85 90 f9 ff ff 	mov    %rax,-0x670(%rbp)
    9e9d:	48 8d 85 d8 f1 ff ff 	lea    -0xe28(%rbp),%rax
    9ea4:	48 89 85 98 f9 ff ff 	mov    %rax,-0x668(%rbp)
    9eab:	48 c7 85 a0 f9 ff ff 	movq   $0x0,-0x660(%rbp)
    9eb2:	00 00 00 00 
    9eb6:	48 8d 85 d8 f1 ff ff 	lea    -0xe28(%rbp),%rax
    9ebd:	48 89 85 a8 f9 ff ff 	mov    %rax,-0x658(%rbp)
    9ec4:	48 8d 85 d8 f1 ff ff 	lea    -0xe28(%rbp),%rax
    9ecb:	48 89 85 b0 f9 ff ff 	mov    %rax,-0x650(%rbp)
    9ed2:	48 8d 85 36 f1 ff ff 	lea    -0xeca(%rbp),%rax
    9ed9:	48 89 85 b8 f9 ff ff 	mov    %rax,-0x648(%rbp)
    9ee0:	48 8d 05 a1 e8 00 00 	lea    0xe8a1(%rip),%rax        # 18788 <g_218>
    9ee7:	48 89 85 c0 f9 ff ff 	mov    %rax,-0x640(%rbp)
    9eee:	48 8d 05 93 e8 00 00 	lea    0xe893(%rip),%rax        # 18788 <g_218>
    9ef5:	48 89 85 c8 f9 ff ff 	mov    %rax,-0x638(%rbp)
    9efc:	48 8d 85 d8 f1 ff ff 	lea    -0xe28(%rbp),%rax
    9f03:	48 89 85 d0 f9 ff ff 	mov    %rax,-0x630(%rbp)
    9f0a:	48 c7 85 d8 f9 ff ff 	movq   $0x0,-0x628(%rbp)
    9f11:	00 00 00 00 
    9f15:	48 8d 85 36 f1 ff ff 	lea    -0xeca(%rbp),%rax
    9f1c:	48 89 85 e0 f9 ff ff 	mov    %rax,-0x620(%rbp)
    9f23:	48 8d 05 5e e8 00 00 	lea    0xe85e(%rip),%rax        # 18788 <g_218>
    9f2a:	48 89 85 e8 f9 ff ff 	mov    %rax,-0x618(%rbp)
    9f31:	48 8d 85 36 f1 ff ff 	lea    -0xeca(%rbp),%rax
    9f38:	48 89 85 f0 f9 ff ff 	mov    %rax,-0x610(%rbp)
    9f3f:	48 8d 85 d8 f1 ff ff 	lea    -0xe28(%rbp),%rax
    9f46:	48 89 85 f8 f9 ff ff 	mov    %rax,-0x608(%rbp)
    9f4d:	48 8d 85 d8 f1 ff ff 	lea    -0xe28(%rbp),%rax
    9f54:	48 89 85 00 fa ff ff 	mov    %rax,-0x600(%rbp)
    9f5b:	48 8d 85 d8 f1 ff ff 	lea    -0xe28(%rbp),%rax
    9f62:	48 89 85 08 fa ff ff 	mov    %rax,-0x5f8(%rbp)
    9f69:	48 8d 05 18 e8 00 00 	lea    0xe818(%rip),%rax        # 18788 <g_218>
    9f70:	48 89 85 10 fa ff ff 	mov    %rax,-0x5f0(%rbp)
    9f77:	48 8d 05 0a e8 00 00 	lea    0xe80a(%rip),%rax        # 18788 <g_218>
    9f7e:	48 89 85 18 fa ff ff 	mov    %rax,-0x5e8(%rbp)
    9f85:	48 8d 85 d8 f1 ff ff 	lea    -0xe28(%rbp),%rax
    9f8c:	48 89 85 20 fa ff ff 	mov    %rax,-0x5e0(%rbp)
    9f93:	48 8d 05 ee e7 00 00 	lea    0xe7ee(%rip),%rax        # 18788 <g_218>
    9f9a:	48 89 85 28 fa ff ff 	mov    %rax,-0x5d8(%rbp)
    9fa1:	48 8d 85 d8 f1 ff ff 	lea    -0xe28(%rbp),%rax
    9fa8:	48 89 85 30 fa ff ff 	mov    %rax,-0x5d0(%rbp)
    9faf:	48 8d 85 36 f1 ff ff 	lea    -0xeca(%rbp),%rax
    9fb6:	48 89 85 38 fa ff ff 	mov    %rax,-0x5c8(%rbp)
    9fbd:	48 8d 85 36 f1 ff ff 	lea    -0xeca(%rbp),%rax
    9fc4:	48 89 85 40 fa ff ff 	mov    %rax,-0x5c0(%rbp)
    9fcb:	48 8d 05 b6 e7 00 00 	lea    0xe7b6(%rip),%rax        # 18788 <g_218>
    9fd2:	48 89 85 48 fa ff ff 	mov    %rax,-0x5b8(%rbp)
    9fd9:	48 8d 05 a8 e7 00 00 	lea    0xe7a8(%rip),%rax        # 18788 <g_218>
    9fe0:	48 89 85 50 fa ff ff 	mov    %rax,-0x5b0(%rbp)
    9fe7:	48 c7 85 58 fa ff ff 	movq   $0x0,-0x5a8(%rbp)
    9fee:	00 00 00 00 
    9ff2:	48 c7 85 60 fa ff ff 	movq   $0x0,-0x5a0(%rbp)
    9ff9:	00 00 00 00 
    9ffd:	48 8d 05 84 e7 00 00 	lea    0xe784(%rip),%rax        # 18788 <g_218>
    a004:	48 89 85 68 fa ff ff 	mov    %rax,-0x598(%rbp)
    a00b:	48 8d 05 76 e7 00 00 	lea    0xe776(%rip),%rax        # 18788 <g_218>
    a012:	48 89 85 70 fa ff ff 	mov    %rax,-0x590(%rbp)
    a019:	48 8d 85 d8 f1 ff ff 	lea    -0xe28(%rbp),%rax
    a020:	48 89 85 78 fa ff ff 	mov    %rax,-0x588(%rbp)
    a027:	48 c7 85 80 fa ff ff 	movq   $0x0,-0x580(%rbp)
    a02e:	00 00 00 00 
    a032:	48 8d 85 d8 f1 ff ff 	lea    -0xe28(%rbp),%rax
    a039:	48 89 85 88 fa ff ff 	mov    %rax,-0x578(%rbp)
    a040:	48 8d 05 41 e7 00 00 	lea    0xe741(%rip),%rax        # 18788 <g_218>
    a047:	48 89 85 90 fa ff ff 	mov    %rax,-0x570(%rbp)
    a04e:	48 8d 05 33 e7 00 00 	lea    0xe733(%rip),%rax        # 18788 <g_218>
    a055:	48 89 85 98 fa ff ff 	mov    %rax,-0x568(%rbp)
    a05c:	48 8d 05 25 e7 00 00 	lea    0xe725(%rip),%rax        # 18788 <g_218>
    a063:	48 89 85 a0 fa ff ff 	mov    %rax,-0x560(%rbp)
    a06a:	48 8d 05 17 e7 00 00 	lea    0xe717(%rip),%rax        # 18788 <g_218>
    a071:	48 89 85 a8 fa ff ff 	mov    %rax,-0x558(%rbp)
    a078:	48 8d 05 09 e7 00 00 	lea    0xe709(%rip),%rax        # 18788 <g_218>
    a07f:	48 89 85 b0 fa ff ff 	mov    %rax,-0x550(%rbp)
    a086:	48 8d 05 fb e6 00 00 	lea    0xe6fb(%rip),%rax        # 18788 <g_218>
    a08d:	48 89 85 b8 fa ff ff 	mov    %rax,-0x548(%rbp)
    a094:	48 8d 05 ed e6 00 00 	lea    0xe6ed(%rip),%rax        # 18788 <g_218>
    a09b:	48 89 85 c0 fa ff ff 	mov    %rax,-0x540(%rbp)
    a0a2:	48 8d 05 df e6 00 00 	lea    0xe6df(%rip),%rax        # 18788 <g_218>
    a0a9:	48 89 85 c8 fa ff ff 	mov    %rax,-0x538(%rbp)
    a0b0:	48 8d 05 d1 e6 00 00 	lea    0xe6d1(%rip),%rax        # 18788 <g_218>
    a0b7:	48 89 85 d0 fa ff ff 	mov    %rax,-0x530(%rbp)
    a0be:	48 8d 85 36 f1 ff ff 	lea    -0xeca(%rbp),%rax
    a0c5:	48 89 85 d8 fa ff ff 	mov    %rax,-0x528(%rbp)
    a0cc:	48 8d 05 b5 e6 00 00 	lea    0xe6b5(%rip),%rax        # 18788 <g_218>
    a0d3:	48 89 85 e0 fa ff ff 	mov    %rax,-0x520(%rbp)
    a0da:	48 c7 85 e8 fa ff ff 	movq   $0x0,-0x518(%rbp)
    a0e1:	00 00 00 00 
    a0e5:	48 8d 85 d8 f1 ff ff 	lea    -0xe28(%rbp),%rax
    a0ec:	48 89 85 f0 fa ff ff 	mov    %rax,-0x510(%rbp)
    a0f3:	48 8d 85 36 f1 ff ff 	lea    -0xeca(%rbp),%rax
    a0fa:	48 89 85 f8 fa ff ff 	mov    %rax,-0x508(%rbp)
    a101:	48 8d 05 80 e6 00 00 	lea    0xe680(%rip),%rax        # 18788 <g_218>
    a108:	48 89 85 00 fb ff ff 	mov    %rax,-0x500(%rbp)
    a10f:	48 8d 05 72 e6 00 00 	lea    0xe672(%rip),%rax        # 18788 <g_218>
    a116:	48 89 85 08 fb ff ff 	mov    %rax,-0x4f8(%rbp)
    a11d:	48 8d 85 d8 f1 ff ff 	lea    -0xe28(%rbp),%rax
    a124:	48 89 85 10 fb ff ff 	mov    %rax,-0x4f0(%rbp)
    a12b:	48 c7 85 18 fb ff ff 	movq   $0x0,-0x4e8(%rbp)
    a132:	00 00 00 00 
    a136:	48 c7 85 20 fb ff ff 	movq   $0x0,-0x4e0(%rbp)
    a13d:	00 00 00 00 
    a141:	48 8d 05 40 e6 00 00 	lea    0xe640(%rip),%rax        # 18788 <g_218>
    a148:	48 89 85 28 fb ff ff 	mov    %rax,-0x4d8(%rbp)
    a14f:	48 8d 05 32 e6 00 00 	lea    0xe632(%rip),%rax        # 18788 <g_218>
    a156:	48 89 85 30 fb ff ff 	mov    %rax,-0x4d0(%rbp)
    a15d:	48 c7 85 38 fb ff ff 	movq   $0x0,-0x4c8(%rbp)
    a164:	00 00 00 00 
    a168:	48 8d 85 36 f1 ff ff 	lea    -0xeca(%rbp),%rax
    a16f:	48 89 85 40 fb ff ff 	mov    %rax,-0x4c0(%rbp)
    a176:	48 8d 85 36 f1 ff ff 	lea    -0xeca(%rbp),%rax
    a17d:	48 89 85 48 fb ff ff 	mov    %rax,-0x4b8(%rbp)
    a184:	48 8d 85 36 f1 ff ff 	lea    -0xeca(%rbp),%rax
    a18b:	48 89 85 50 fb ff ff 	mov    %rax,-0x4b0(%rbp)
    a192:	48 8d 85 d8 f1 ff ff 	lea    -0xe28(%rbp),%rax
    a199:	48 89 85 58 fb ff ff 	mov    %rax,-0x4a8(%rbp)
    a1a0:	48 8d 85 d8 f1 ff ff 	lea    -0xe28(%rbp),%rax
    a1a7:	48 89 85 60 fb ff ff 	mov    %rax,-0x4a0(%rbp)
    a1ae:	48 8d 85 36 f1 ff ff 	lea    -0xeca(%rbp),%rax
    a1b5:	48 89 85 68 fb ff ff 	mov    %rax,-0x498(%rbp)
    a1bc:	48 c7 85 70 fb ff ff 	movq   $0x0,-0x490(%rbp)
    a1c3:	00 00 00 00 
    a1c7:	48 8d 85 d8 f1 ff ff 	lea    -0xe28(%rbp),%rax
    a1ce:	48 89 85 78 fb ff ff 	mov    %rax,-0x488(%rbp)
    a1d5:	48 8d 05 ac e5 00 00 	lea    0xe5ac(%rip),%rax        # 18788 <g_218>
    a1dc:	48 89 85 80 fb ff ff 	mov    %rax,-0x480(%rbp)
    a1e3:	48 8d 05 9e e5 00 00 	lea    0xe59e(%rip),%rax        # 18788 <g_218>
    a1ea:	48 89 85 88 fb ff ff 	mov    %rax,-0x478(%rbp)
    a1f1:	48 8d 85 d8 f1 ff ff 	lea    -0xe28(%rbp),%rax
    a1f8:	48 89 85 90 fb ff ff 	mov    %rax,-0x470(%rbp)
    a1ff:	48 8d 85 d8 f1 ff ff 	lea    -0xe28(%rbp),%rax
    a206:	48 89 85 98 fb ff ff 	mov    %rax,-0x468(%rbp)
    a20d:	48 8d 85 36 f1 ff ff 	lea    -0xeca(%rbp),%rax
    a214:	48 89 85 a0 fb ff ff 	mov    %rax,-0x460(%rbp)
    a21b:	48 8d 85 36 f1 ff ff 	lea    -0xeca(%rbp),%rax
    a222:	48 89 85 a8 fb ff ff 	mov    %rax,-0x458(%rbp)
    a229:	48 8d 05 58 e5 00 00 	lea    0xe558(%rip),%rax        # 18788 <g_218>
    a230:	48 89 85 b0 fb ff ff 	mov    %rax,-0x450(%rbp)
    a237:	48 8d 05 4a e5 00 00 	lea    0xe54a(%rip),%rax        # 18788 <g_218>
    a23e:	48 89 85 b8 fb ff ff 	mov    %rax,-0x448(%rbp)
    a245:	48 8d 85 36 f1 ff ff 	lea    -0xeca(%rbp),%rax
    a24c:	48 89 85 c0 fb ff ff 	mov    %rax,-0x440(%rbp)
    a253:	c7 85 9c f1 ff ff f8 	movl   $0xfffffff8,-0xe64(%rbp)
    a25a:	ff ff ff 
    a25d:	48 8d 05 4c e6 00 00 	lea    0xe64c(%rip),%rax        # 188b0 <g_923>
    a264:	48 89 85 e0 f4 ff ff 	mov    %rax,-0xb20(%rbp)
    a26b:	48 8d 05 3e e6 00 00 	lea    0xe63e(%rip),%rax        # 188b0 <g_923>
    a272:	48 89 85 e8 f4 ff ff 	mov    %rax,-0xb18(%rbp)
    a279:	48 8d 05 50 e6 00 00 	lea    0xe650(%rip),%rax        # 188d0 <g_1275>
    a280:	48 89 85 f0 f4 ff ff 	mov    %rax,-0xb10(%rbp)
    a287:	48 8d 05 22 e6 00 00 	lea    0xe622(%rip),%rax        # 188b0 <g_923>
    a28e:	48 89 85 f8 f4 ff ff 	mov    %rax,-0xb08(%rbp)
    a295:	48 8d 05 14 e6 00 00 	lea    0xe614(%rip),%rax        # 188b0 <g_923>
    a29c:	48 89 85 00 f5 ff ff 	mov    %rax,-0xb00(%rbp)
    a2a3:	48 8d 05 26 e6 00 00 	lea    0xe626(%rip),%rax        # 188d0 <g_1275>
    a2aa:	48 89 85 08 f5 ff ff 	mov    %rax,-0xaf8(%rbp)
    a2b1:	48 8d 05 18 e6 00 00 	lea    0xe618(%rip),%rax        # 188d0 <g_1275>
    a2b8:	48 89 85 10 f5 ff ff 	mov    %rax,-0xaf0(%rbp)
    a2bf:	48 8d 05 fa e5 00 00 	lea    0xe5fa(%rip),%rax        # 188c0 <g_1102>
    a2c6:	48 89 85 60 f3 ff ff 	mov    %rax,-0xca0(%rbp)
    a2cd:	c7 45 c1 04 04 04 04 	movl   $0x4040404,-0x3f(%rbp)
    a2d4:	66 c7 45 c5 04 04    	movw   $0x404,-0x3b(%rbp)
    a2da:	c6 45 c7 04          	movb   $0x4,-0x39(%rbp)
    a2de:	c7 85 54 f1 ff ff 00 	movl   $0x0,-0xeac(%rbp)
    a2e5:	00 00 00 
    a2e8:	eb 1e                	jmp    a308 <func_13+0x14f7>
    a2ea:	8b 85 54 f1 ff ff    	mov    -0xeac(%rbp),%eax
    a2f0:	48 98                	cltq   
    a2f2:	48 8d 15 37 0b 01 00 	lea    0x10b37(%rip),%rdx        # 1ae30 <g_2411>
    a2f9:	48 89 94 c5 90 f4 ff 	mov    %rdx,-0xb70(%rbp,%rax,8)
    a300:	ff 
    a301:	83 85 54 f1 ff ff 01 	addl   $0x1,-0xeac(%rbp)
    a308:	83 bd 54 f1 ff ff 01 	cmpl   $0x1,-0xeac(%rbp)
    a30f:	7e d9                	jle    a2ea <func_13+0x14d9>
    a311:	8b 05 89 e5 00 00    	mov    0xe589(%rip),%eax        # 188a0 <g_706>
    a317:	89 c0                	mov    %eax,%eax
    a319:	be 03 00 00 00       	mov    $0x3,%esi
    a31e:	48 89 c7             	mov    %rax,%rdi
    a321:	e8 1b c5 ff ff       	callq  6841 <safe_add_func_int64_t_s_s>
    a326:	89 05 74 e5 00 00    	mov    %eax,0xe574(%rip)        # 188a0 <g_706>
    a32c:	8b 05 6e e5 00 00    	mov    0xe56e(%rip),%eax        # 188a0 <g_706>
    a332:	83 f8 03             	cmp    $0x3,%eax
    a335:	0f 87 fd f1 ff ff    	ja     9538 <func_13+0x727>
    a33b:	48 8b 85 78 f3 ff ff 	mov    -0xc88(%rbp),%rax
    a342:	48 85 c0             	test   %rax,%rax
    a345:	0f 84 31 15 00 00    	je     b87c <func_13+0x2a6b>
    a34b:	48 b8 e2 3f de 26 95 	movabs $0x7f58e9526de3fe2,%rax
    a352:	8e f5 07 
    a355:	48 89 85 f0 f1 ff ff 	mov    %rax,-0xe10(%rbp)
    a35c:	48 8d 85 40 f1 ff ff 	lea    -0xec0(%rbp),%rax
    a363:	48 89 85 10 f2 ff ff 	mov    %rax,-0xdf0(%rbp)
    a36a:	48 8d 05 97 00 01 00 	lea    0x10097(%rip),%rax        # 1a408 <g_1230>
    a371:	48 89 85 18 f2 ff ff 	mov    %rax,-0xde8(%rbp)
    a378:	48 8d 05 d1 ff 00 00 	lea    0xffd1(%rip),%rax        # 1a350 <g_612>
    a37f:	48 89 85 b8 f1 ff ff 	mov    %rax,-0xe48(%rbp)
    a386:	48 8d 85 b8 f1 ff ff 	lea    -0xe48(%rbp),%rax
    a38d:	48 89 85 c0 f1 ff ff 	mov    %rax,-0xe40(%rbp)
    a394:	48 8d 85 c0 f1 ff ff 	lea    -0xe40(%rbp),%rax
    a39b:	48 89 85 c8 f1 ff ff 	mov    %rax,-0xe38(%rbp)
    a3a2:	c7 85 68 f1 ff ff ff 	movl   $0xffffffff,-0xe98(%rbp)
    a3a9:	ff ff ff 
    a3ac:	c7 85 6c f1 ff ff 26 	movl   $0xb2cd5326,-0xe94(%rbp)
    a3b3:	53 cd b2 
    a3b6:	c7 85 70 f1 ff ff b1 	movl   $0x781cc2b1,-0xe90(%rbp)
    a3bd:	c2 1c 78 
    a3c0:	c7 85 74 f1 ff ff bf 	movl   $0xb35a5bbf,-0xe8c(%rbp)
    a3c7:	5b 5a b3 
    a3ca:	c7 85 78 f1 ff ff f5 	movl   $0x682e12f5,-0xe88(%rbp)
    a3d1:	12 2e 68 
    a3d4:	c7 85 7c f1 ff ff 87 	movl   $0x42e75287,-0xe84(%rbp)
    a3db:	52 e7 42 
    a3de:	c7 85 80 f5 ff ff 00 	movl   $0x0,-0xa80(%rbp)
    a3e5:	00 00 00 
    a3e8:	c7 85 84 f5 ff ff ff 	movl   $0xffffffff,-0xa7c(%rbp)
    a3ef:	ff ff ff 
    a3f2:	c7 85 88 f5 ff ff 37 	movl   $0x9b231f37,-0xa78(%rbp)
    a3f9:	1f 23 9b 
    a3fc:	c7 85 8c f5 ff ff 37 	movl   $0x9b231f37,-0xa74(%rbp)
    a403:	1f 23 9b 
    a406:	c7 85 90 f5 ff ff ff 	movl   $0xffffffff,-0xa70(%rbp)
    a40d:	ff ff ff 
    a410:	c7 85 94 f5 ff ff 00 	movl   $0x0,-0xa6c(%rbp)
    a417:	00 00 00 
    a41a:	c7 85 98 f5 ff ff ff 	movl   $0xffffffff,-0xa68(%rbp)
    a421:	ff ff ff 
    a424:	c7 85 9c f5 ff ff 37 	movl   $0x9b231f37,-0xa64(%rbp)
    a42b:	1f 23 9b 
    a42e:	c7 85 a0 f5 ff ff 37 	movl   $0x9b231f37,-0xa60(%rbp)
    a435:	1f 23 9b 
    a438:	c7 85 a4 f5 ff ff ff 	movl   $0xffffffff,-0xa5c(%rbp)
    a43f:	ff ff ff 
    a442:	c7 85 a8 f5 ff ff ff 	movl   $0xffffffff,-0xa58(%rbp)
    a449:	ff ff ff 
    a44c:	c7 85 ac f5 ff ff 00 	movl   $0x0,-0xa54(%rbp)
    a453:	00 00 00 
    a456:	c7 85 b0 f5 ff ff 37 	movl   $0x9b231f37,-0xa50(%rbp)
    a45d:	1f 23 9b 
    a460:	c7 85 b4 f5 ff ff 00 	movl   $0x0,-0xa4c(%rbp)
    a467:	00 00 00 
    a46a:	c7 85 b8 f5 ff ff ff 	movl   $0xffffffff,-0xa48(%rbp)
    a471:	ff ff ff 
    a474:	c7 85 bc f5 ff ff ff 	movl   $0xffffffff,-0xa44(%rbp)
    a47b:	ff ff ff 
    a47e:	c7 85 c0 f5 ff ff 00 	movl   $0x0,-0xa40(%rbp)
    a485:	00 00 00 
    a488:	c7 85 c4 f5 ff ff 37 	movl   $0x9b231f37,-0xa3c(%rbp)
    a48f:	1f 23 9b 
    a492:	c7 85 c8 f5 ff ff 3b 	movl   $0xf502b33b,-0xa38(%rbp)
    a499:	b3 02 f5 
    a49c:	c7 85 cc f5 ff ff ff 	movl   $0xffffffff,-0xa34(%rbp)
    a4a3:	ff ff ff 
    a4a6:	c7 85 d0 f5 ff ff 3b 	movl   $0xf502b33b,-0xa30(%rbp)
    a4ad:	b3 02 f5 
    a4b0:	c7 85 d4 f5 ff ff 00 	movl   $0x0,-0xa2c(%rbp)
    a4b7:	00 00 00 
    a4ba:	c7 85 d8 f5 ff ff 00 	movl   $0x0,-0xa28(%rbp)
    a4c1:	00 00 00 
    a4c4:	c7 85 dc f5 ff ff 3b 	movl   $0xf502b33b,-0xa24(%rbp)
    a4cb:	b3 02 f5 
    a4ce:	c7 85 e0 f5 ff ff ff 	movl   $0xffffffff,-0xa20(%rbp)
    a4d5:	ff ff ff 
    a4d8:	c7 85 e4 f5 ff ff 3b 	movl   $0xf502b33b,-0xa1c(%rbp)
    a4df:	b3 02 f5 
    a4e2:	c7 85 e8 f5 ff ff 00 	movl   $0x0,-0xa18(%rbp)
    a4e9:	00 00 00 
    a4ec:	c7 85 ec f5 ff ff 3b 	movl   $0xf502b33b,-0xa14(%rbp)
    a4f3:	b3 02 f5 
    a4f6:	c7 85 f0 f5 ff ff 00 	movl   $0x0,-0xa10(%rbp)
    a4fd:	00 00 00 
    a500:	c7 85 f4 f5 ff ff 00 	movl   $0x0,-0xa0c(%rbp)
    a507:	00 00 00 
    a50a:	c7 85 f8 f5 ff ff 3b 	movl   $0xf502b33b,-0xa08(%rbp)
    a511:	b3 02 f5 
    a514:	c7 85 fc f5 ff ff ff 	movl   $0xffffffff,-0xa04(%rbp)
    a51b:	ff ff ff 
    a51e:	c7 85 00 f6 ff ff 3b 	movl   $0xf502b33b,-0xa00(%rbp)
    a525:	b3 02 f5 
    a528:	c7 85 04 f6 ff ff 00 	movl   $0x0,-0x9fc(%rbp)
    a52f:	00 00 00 
    a532:	c7 85 08 f6 ff ff 00 	movl   $0x0,-0x9f8(%rbp)
    a539:	00 00 00 
    a53c:	c7 85 0c f6 ff ff 3b 	movl   $0xf502b33b,-0x9f4(%rbp)
    a543:	b3 02 f5 
    a546:	c7 85 10 f6 ff ff ff 	movl   $0xffffffff,-0x9f0(%rbp)
    a54d:	ff ff ff 
    a550:	c7 85 14 f6 ff ff 00 	movl   $0x0,-0x9ec(%rbp)
    a557:	00 00 00 
    a55a:	c7 85 18 f6 ff ff 37 	movl   $0x9b231f37,-0x9e8(%rbp)
    a561:	1f 23 9b 
    a564:	c7 85 1c f6 ff ff 00 	movl   $0x0,-0x9e4(%rbp)
    a56b:	00 00 00 
    a56e:	c7 85 20 f6 ff ff ff 	movl   $0xffffffff,-0x9e0(%rbp)
    a575:	ff ff ff 
    a578:	c7 85 24 f6 ff ff ff 	movl   $0xffffffff,-0x9dc(%rbp)
    a57f:	ff ff ff 
    a582:	c7 85 28 f6 ff ff 00 	movl   $0x0,-0x9d8(%rbp)
    a589:	00 00 00 
    a58c:	c7 85 2c f6 ff ff 37 	movl   $0x9b231f37,-0x9d4(%rbp)
    a593:	1f 23 9b 
    a596:	c7 85 30 f6 ff ff 00 	movl   $0x0,-0x9d0(%rbp)
    a59d:	00 00 00 
    a5a0:	66 c7 85 38 f1 ff ff 	movw   $0x1,-0xec8(%rbp)
    a5a7:	01 00 
    a5a9:	48 8d 85 a0 f1 ff ff 	lea    -0xe60(%rbp),%rax
    a5b0:	48 89 85 20 f2 ff ff 	mov    %rax,-0xde0(%rbp)
    a5b7:	48 c7 85 d0 f1 ff ff 	movq   $0x0,-0xe30(%rbp)
    a5be:	00 00 00 00 
    a5c2:	48 c7 85 d8 f1 ff ff 	movq   $0x0,-0xe28(%rbp)
    a5c9:	00 00 00 00 
    a5cd:	48 8d 85 d0 f1 ff ff 	lea    -0xe30(%rbp),%rax
    a5d4:	48 89 85 90 f4 ff ff 	mov    %rax,-0xb70(%rbp)
    a5db:	48 8d 85 d8 f1 ff ff 	lea    -0xe28(%rbp),%rax
    a5e2:	48 89 85 98 f4 ff ff 	mov    %rax,-0xb68(%rbp)
    a5e9:	48 8d 85 d0 f1 ff ff 	lea    -0xe30(%rbp),%rax
    a5f0:	48 89 85 a0 f4 ff ff 	mov    %rax,-0xb60(%rbp)
    a5f7:	48 8d 85 d0 f1 ff ff 	lea    -0xe30(%rbp),%rax
    a5fe:	48 89 85 a8 f4 ff ff 	mov    %rax,-0xb58(%rbp)
    a605:	48 8d 85 d8 f1 ff ff 	lea    -0xe28(%rbp),%rax
    a60c:	48 89 85 b0 f4 ff ff 	mov    %rax,-0xb50(%rbp)
    a613:	48 8d 85 d0 f1 ff ff 	lea    -0xe30(%rbp),%rax
    a61a:	48 89 85 b8 f4 ff ff 	mov    %rax,-0xb48(%rbp)
    a621:	48 8d 85 d0 f1 ff ff 	lea    -0xe30(%rbp),%rax
    a628:	48 89 85 c0 f4 ff ff 	mov    %rax,-0xb40(%rbp)
    a62f:	48 8d 85 d8 f1 ff ff 	lea    -0xe28(%rbp),%rax
    a636:	48 89 85 c8 f4 ff ff 	mov    %rax,-0xb38(%rbp)
    a63d:	48 8d 85 d0 f1 ff ff 	lea    -0xe30(%rbp),%rax
    a644:	48 89 85 d0 f4 ff ff 	mov    %rax,-0xb30(%rbp)
    a64b:	48 8d 85 90 f4 ff ff 	lea    -0xb70(%rbp),%rax
    a652:	48 89 85 28 f2 ff ff 	mov    %rax,-0xdd8(%rbp)
    a659:	48 83 ad f0 f1 ff ff 	subq   $0x1,-0xe10(%rbp)
    a660:	01 
    a661:	0f b6 05 60 e9 00 00 	movzbl 0xe960(%rip),%eax        # 18fc8 <g_2442>
    a668:	66 98                	cbtw   
    a66a:	0f b7 d0             	movzwl %ax,%edx
    a66d:	8b 85 18 f1 ff ff    	mov    -0xee8(%rbp),%eax
    a673:	0f b7 c0             	movzwl %ax,%eax
    a676:	89 d6                	mov    %edx,%esi
    a678:	89 c7                	mov    %eax,%edi
    a67a:	e8 be c6 ff ff       	callq  6d3d <safe_mul_func_uint16_t_u_u>
    a67f:	0f b7 d0             	movzwl %ax,%edx
    a682:	0f b7 85 24 f1 ff ff 	movzwl -0xedc(%rbp),%eax
    a689:	0f b7 c8             	movzwl %ax,%ecx
    a68c:	48 8b 05 dd fc 00 00 	mov    0xfcdd(%rip),%rax        # 1a370 <g_822>
    a693:	48 8b 00             	mov    (%rax),%rax
    a696:	48 39 c1             	cmp    %rax,%rcx
    a699:	0f 96 c0             	setbe  %al
    a69c:	0f b6 c8             	movzbl %al,%ecx
    a69f:	48 8b 05 62 fc 00 00 	mov    0xfc62(%rip),%rax        # 1a308 <g_584>
    a6a6:	48 8b 30             	mov    (%rax),%rsi
    a6a9:	0f b6 85 32 f4 ff ff 	movzbl -0xbce(%rbp),%eax
    a6b0:	84 c0                	test   %al,%al
    a6b2:	74 11                	je     a6c5 <func_13+0x18b4>
    a6b4:	48 83 bd f0 f1 ff ff 	cmpq   $0x0,-0xe10(%rbp)
    a6bb:	00 
    a6bc:	74 07                	je     a6c5 <func_13+0x18b4>
    a6be:	b8 01 00 00 00       	mov    $0x1,%eax
    a6c3:	eb 05                	jmp    a6ca <func_13+0x18b9>
    a6c5:	b8 00 00 00 00       	mov    $0x0,%eax
    a6ca:	48 98                	cltq   
    a6cc:	48 39 c6             	cmp    %rax,%rsi
    a6cf:	0f 95 c0             	setne  %al
    a6d2:	0f b6 c0             	movzbl %al,%eax
    a6d5:	f7 d0                	not    %eax
    a6d7:	39 c1                	cmp    %eax,%ecx
    a6d9:	0f 9d c0             	setge  %al
    a6dc:	0f b6 c0             	movzbl %al,%eax
    a6df:	39 c2                	cmp    %eax,%edx
    a6e1:	7d 0a                	jge    a6ed <func_13+0x18dc>
    a6e3:	8b 85 18 f1 ff ff    	mov    -0xee8(%rbp),%eax
    a6e9:	85 c0                	test   %eax,%eax
    a6eb:	74 07                	je     a6f4 <func_13+0x18e3>
    a6ed:	b8 01 00 00 00       	mov    $0x1,%eax
    a6f2:	eb 05                	jmp    a6f9 <func_13+0x18e8>
    a6f4:	b8 00 00 00 00       	mov    $0x0,%eax
    a6f9:	83 f8 02             	cmp    $0x2,%eax
    a6fc:	0f 9f c0             	setg   %al
    a6ff:	0f b6 c0             	movzbl %al,%eax
    a702:	48 8b 95 f0 f1 ff ff 	mov    -0xe10(%rbp),%rdx
    a709:	09 d0                	or     %edx,%eax
    a70b:	98                   	cwtl   
    a70c:	89 c6                	mov    %eax,%esi
    a70e:	bf ff ff ff ff       	mov    $0xffffffff,%edi
    a713:	e8 dd bc ff ff       	callq  63f5 <safe_mul_func_int16_t_s_s>
    a718:	48 8d 05 09 fb 00 00 	lea    0xfb09(%rip),%rax        # 1a228 <g_375+0x8>
    a71f:	48 89 85 30 f2 ff ff 	mov    %rax,-0xdd0(%rbp)
    a726:	48 8d 85 44 f1 ff ff 	lea    -0xebc(%rbp),%rax
    a72d:	48 89 85 38 f2 ff ff 	mov    %rax,-0xdc8(%rbp)
    a734:	48 c7 85 e0 f1 ff ff 	movq   $0xfffffffffffffffc,-0xe20(%rbp)
    a73b:	fc ff ff ff 
    a73f:	48 8d 05 ba 06 01 00 	lea    0x106ba(%rip),%rax        # 1ae00 <g_2412+0x20>
    a746:	48 89 85 40 f2 ff ff 	mov    %rax,-0xdc0(%rbp)
    a74d:	66 c7 85 3a f1 ff ff 	movw   $0x99ab,-0xec6(%rbp)
    a754:	ab 99 
    a756:	c7 85 48 f1 ff ff 01 	movl   $0x1,-0xeb8(%rbp)
    a75d:	00 00 00 
    a760:	c7 85 80 f1 ff ff a4 	movl   $0xa9602ba4,-0xe80(%rbp)
    a767:	2b 60 a9 
    a76a:	48 8d 05 5f fe 00 00 	lea    0xfe5f(%rip),%rax        # 1a5d0 <g_1575>
    a771:	48 89 85 48 f2 ff ff 	mov    %rax,-0xdb8(%rbp)
    a778:	c7 85 58 f1 ff ff 00 	movl   $0x0,-0xea8(%rbp)
    a77f:	00 00 00 
    a782:	eb 1a                	jmp    a79e <func_13+0x198d>
    a784:	8b 85 58 f1 ff ff    	mov    -0xea8(%rbp),%eax
    a78a:	48 98                	cltq   
    a78c:	c7 84 85 68 f3 ff ff 	movl   $0xfffffff8,-0xc98(%rbp,%rax,4)
    a793:	f8 ff ff ff 
    a797:	83 85 58 f1 ff ff 01 	addl   $0x1,-0xea8(%rbp)
    a79e:	83 bd 58 f1 ff ff 01 	cmpl   $0x1,-0xea8(%rbp)
    a7a5:	7e dd                	jle    a784 <func_13+0x1973>
    a7a7:	0f b7 85 24 f1 ff ff 	movzwl -0xedc(%rbp),%eax
    a7ae:	0f b7 d8             	movzwl %ax,%ebx
    a7b1:	48 8b 05 80 06 01 00 	mov    0x10680(%rip),%rax        # 1ae38 <g_2410>
    a7b8:	48 8b 00             	mov    (%rax),%rax
    a7bb:	48 8b 00             	mov    (%rax),%rax
    a7be:	48 8b 00             	mov    (%rax),%rax
    a7c1:	48 39 85 30 f2 ff ff 	cmp    %rax,-0xdd0(%rbp)
    a7c8:	0f 94 c0             	sete   %al
    a7cb:	0f b6 d0             	movzbl %al,%edx
    a7ce:	8b 85 18 f1 ff ff    	mov    -0xee8(%rbp),%eax
    a7d4:	0f b7 c0             	movzwl %ax,%eax
    a7d7:	89 d6                	mov    %edx,%esi
    a7d9:	89 c7                	mov    %eax,%edi
    a7db:	e8 3f c5 ff ff       	callq  6d1f <safe_sub_func_uint16_t_u_u>
    a7e0:	48 be 65 62 e5 96 92 	movabs $0xfe06c79296e56265,%rsi
    a7e7:	c7 06 fe 
    a7ea:	bf 01 00 00 00       	mov    $0x1,%edi
    a7ef:	e8 03 c2 ff ff       	callq  69f7 <safe_div_func_int64_t_s_s>
    a7f4:	48 85 c0             	test   %rax,%rax
    a7f7:	74 16                	je     a80f <func_13+0x19fe>
    a7f9:	48 8b 05 70 fb 00 00 	mov    0xfb70(%rip),%rax        # 1a370 <g_822>
    a800:	48 8b 00             	mov    (%rax),%rax
    a803:	48 85 c0             	test   %rax,%rax
    a806:	74 07                	je     a80f <func_13+0x19fe>
    a808:	b8 01 00 00 00       	mov    $0x1,%eax
    a80d:	eb 05                	jmp    a814 <func_13+0x1a03>
    a80f:	b8 00 00 00 00       	mov    $0x0,%eax
    a814:	0f b7 c0             	movzwl %ax,%eax
    a817:	89 c6                	mov    %eax,%esi
    a819:	bf 00 00 00 00       	mov    $0x0,%edi
    a81e:	e8 dc c4 ff ff       	callq  6cff <safe_add_func_uint16_t_u_u>
    a823:	98                   	cwtl   
    a824:	89 c6                	mov    %eax,%esi
    a826:	bf 00 00 00 00       	mov    $0x0,%edi
    a82b:	e8 c5 bb ff ff       	callq  63f5 <safe_mul_func_int16_t_s_s>
    a830:	98                   	cwtl   
    a831:	89 de                	mov    %ebx,%esi
    a833:	89 c7                	mov    %eax,%edi
    a835:	e8 eb c6 ff ff       	callq  6f25 <safe_div_func_uint32_t_u_u>
    a83a:	0f b7 95 24 f1 ff ff 	movzwl -0xedc(%rbp),%edx
    a841:	0f b7 d2             	movzwl %dx,%edx
    a844:	39 d0                	cmp    %edx,%eax
    a846:	0f 96 c0             	setbe  %al
    a849:	0f b6 d0             	movzbl %al,%edx
    a84c:	0f b7 85 24 f1 ff ff 	movzwl -0xedc(%rbp),%eax
    a853:	0f b7 c0             	movzwl %ax,%eax
    a856:	39 c2                	cmp    %eax,%edx
    a858:	0f 84 fb 0d 00 00    	je     b659 <func_13+0x2848>
    a85e:	66 c7 85 d0 f3 ff ff 	movw   $0x5,-0xc30(%rbp)
    a865:	05 00 
    a867:	66 c7 85 d2 f3 ff ff 	movw   $0xa8ab,-0xc2e(%rbp)
    a86e:	ab a8 
    a870:	66 c7 85 d4 f3 ff ff 	movw   $0x9b81,-0xc2c(%rbp)
    a877:	81 9b 
    a879:	66 c7 85 d6 f3 ff ff 	movw   $0x9b81,-0xc2a(%rbp)
    a880:	81 9b 
    a882:	66 c7 85 d8 f3 ff ff 	movw   $0xa8ab,-0xc28(%rbp)
    a889:	ab a8 
    a88b:	66 c7 85 da f3 ff ff 	movw   $0x5,-0xc26(%rbp)
    a892:	05 00 
    a894:	66 c7 85 dc f3 ff ff 	movw   $0x5,-0xc24(%rbp)
    a89b:	05 00 
    a89d:	66 c7 85 de f3 ff ff 	movw   $0x3,-0xc22(%rbp)
    a8a4:	03 00 
    a8a6:	66 c7 85 e0 f3 ff ff 	movw   $0xb6f1,-0xc20(%rbp)
    a8ad:	f1 b6 
    a8af:	66 c7 85 e2 f3 ff ff 	movw   $0x9b81,-0xc1e(%rbp)
    a8b6:	81 9b 
    a8b8:	66 c7 85 e4 f3 ff ff 	movw   $0x3,-0xc1c(%rbp)
    a8bf:	03 00 
    a8c1:	66 c7 85 e6 f3 ff ff 	movw   $0x9b81,-0xc1a(%rbp)
    a8c8:	81 9b 
    a8ca:	66 c7 85 e8 f3 ff ff 	movw   $0x5,-0xc18(%rbp)
    a8d1:	05 00 
    a8d3:	66 c7 85 ea f3 ff ff 	movw   $0x529f,-0xc16(%rbp)
    a8da:	9f 52 
    a8dc:	66 c7 85 ec f3 ff ff 	movw   $0x5,-0xc14(%rbp)
    a8e3:	05 00 
    a8e5:	66 c7 85 ee f3 ff ff 	movw   $0x9b81,-0xc12(%rbp)
    a8ec:	81 9b 
    a8ee:	66 c7 85 f0 f3 ff ff 	movw   $0x529f,-0xc10(%rbp)
    a8f5:	9f 52 
    a8f7:	66 c7 85 f2 f3 ff ff 	movw   $0xb6f1,-0xc0e(%rbp)
    a8fe:	f1 b6 
    a900:	66 c7 85 3c f1 ff ff 	movw   $0x4,-0xec4(%rbp)
    a907:	04 00 
    a909:	48 8d 05 48 f8 00 00 	lea    0xf848(%rip),%rax        # 1a158 <g_358+0x38>
    a910:	48 89 85 e8 f1 ff ff 	mov    %rax,-0xe18(%rbp)
    a917:	48 c7 85 60 f2 ff ff 	movq   $0x0,-0xda0(%rbp)
    a91e:	00 00 00 00 
    a922:	48 8d 85 c8 f1 ff ff 	lea    -0xe38(%rbp),%rax
    a929:	48 89 85 68 f2 ff ff 	mov    %rax,-0xd98(%rbp)
    a930:	48 8d 85 e8 f1 ff ff 	lea    -0xe18(%rbp),%rax
    a937:	48 89 85 70 f2 ff ff 	mov    %rax,-0xd90(%rbp)
    a93e:	c7 85 88 f1 ff ff 01 	movl   $0x1,-0xe78(%rbp)
    a945:	00 00 00 
    a948:	c7 85 8c f1 ff ff 01 	movl   $0x1,-0xe74(%rbp)
    a94f:	00 00 00 
    a952:	48 8d 85 d0 fb ff ff 	lea    -0x430(%rbp),%rax
    a959:	48 8d 15 40 98 00 00 	lea    0x9840(%rip),%rdx        # 141a0 <g_2736+0x130>
    a960:	b9 7d 00 00 00       	mov    $0x7d,%ecx
    a965:	48 89 c7             	mov    %rax,%rdi
    a968:	48 89 d6             	mov    %rdx,%rsi
    a96b:	f3 48 a5             	rep movsq %ds:(%rsi),%es:(%rdi)
    a96e:	c7 85 90 f1 ff ff 62 	movl   $0x5b343962,-0xe70(%rbp)
    a975:	39 34 5b 
    a978:	48 c7 85 78 f2 ff ff 	movq   $0xfffffffffffffffc,-0xd88(%rbp)
    a97f:	fc ff ff ff 
    a983:	c7 85 5c f1 ff ff 00 	movl   $0x0,-0xea4(%rbp)
    a98a:	00 00 00 
    a98d:	eb 1a                	jmp    a9a9 <func_13+0x1b98>
    a98f:	8b 85 5c f1 ff ff    	mov    -0xea4(%rbp),%eax
    a995:	48 98                	cltq   
    a997:	c7 84 85 90 f3 ff ff 	movl   $0xfffffffa,-0xc70(%rbp,%rax,4)
    a99e:	fa ff ff ff 
    a9a2:	83 85 5c f1 ff ff 01 	addl   $0x1,-0xea4(%rbp)
    a9a9:	83 bd 5c f1 ff ff 06 	cmpl   $0x6,-0xea4(%rbp)
    a9b0:	7e dd                	jle    a98f <func_13+0x1b7e>
    a9b2:	48 8b 05 57 f8 00 00 	mov    0xf857(%rip),%rax        # 1a210 <g_364>
    a9b9:	48 8b 00             	mov    (%rax),%rax
    a9bc:	48 8b 95 38 f2 ff ff 	mov    -0xdc8(%rbp),%rdx
    a9c3:	48 89 10             	mov    %rdx,(%rax)
    a9c6:	48 c7 05 4f e3 00 00 	movq   $0x13,0xe34f(%rip)        # 18d20 <g_1308>
    a9cd:	13 00 00 00 
    a9d1:	e9 bd 02 00 00       	jmpq   ac93 <func_13+0x1e82>
    a9d6:	48 8d 05 33 f8 00 00 	lea    0xf833(%rip),%rax        # 1a210 <g_364>
    a9dd:	48 89 85 90 f2 ff ff 	mov    %rax,-0xd70(%rbp)
    a9e4:	48 c7 85 98 f2 ff ff 	movq   $0x0,-0xd68(%rbp)
    a9eb:	00 00 00 00 
    a9ef:	0f b7 85 24 f1 ff ff 	movzwl -0xedc(%rbp),%eax
    a9f6:	0f b7 d8             	movzwl %ax,%ebx
    a9f9:	48 8b 85 10 f1 ff ff 	mov    -0xef0(%rbp),%rax
    aa00:	0f b6 00             	movzbl (%rax),%eax
    aa03:	44 0f be e0          	movsbl %al,%r12d
    aa07:	48 8b 05 f2 f6 00 00 	mov    0xf6f2(%rip),%rax        # 1a100 <g_359>
    aa0e:	48 8b 00             	mov    (%rax),%rax
    aa11:	48 39 85 10 f2 ff ff 	cmp    %rax,-0xdf0(%rbp)
    aa18:	0f 95 c0             	setne  %al
    aa1b:	0f b6 d0             	movzbl %al,%edx
    aa1e:	48 8b 85 90 f2 ff ff 	mov    -0xd70(%rbp),%rax
    aa25:	48 8b 00             	mov    (%rax),%rax
    aa28:	48 8b 00             	mov    (%rax),%rax
    aa2b:	48 8b 00             	mov    (%rax),%rax
    aa2e:	8b 00                	mov    (%rax),%eax
    aa30:	39 c2                	cmp    %eax,%edx
    aa32:	0f 95 c2             	setne  %dl
    aa35:	48 8b 85 90 f2 ff ff 	mov    -0xd70(%rbp),%rax
    aa3c:	48 8b 00             	mov    (%rax),%rax
    aa3f:	48 8b 00             	mov    (%rax),%rax
    aa42:	48 8b 00             	mov    (%rax),%rax
    aa45:	0f b6 d2             	movzbl %dl,%edx
    aa48:	89 10                	mov    %edx,(%rax)
    aa4a:	48 8b 85 98 f2 ff ff 	mov    -0xd68(%rbp),%rax
    aa51:	48 3b 85 18 f2 ff ff 	cmp    -0xde8(%rbp),%rax
    aa58:	0f b7 85 d8 f3 ff ff 	movzwl -0xc28(%rbp),%eax
    aa5f:	0f b7 d0             	movzwl %ax,%edx
    aa62:	48 8b 85 38 f2 ff ff 	mov    -0xdc8(%rbp),%rax
    aa69:	8b 00                	mov    (%rax),%eax
    aa6b:	39 c2                	cmp    %eax,%edx
    aa6d:	0f 95 c2             	setne  %dl
    aa70:	48 8b 05 01 f9 00 00 	mov    0xf901(%rip),%rax        # 1a378 <g_826>
    aa77:	0f b6 d2             	movzbl %dl,%edx
    aa7a:	48 89 10             	mov    %rdx,(%rax)
    aa7d:	66 83 bd 3c f1 ff ff 	cmpw   $0x0,-0xec4(%rbp)
    aa84:	00 
    aa85:	48 8b 85 e8 f1 ff ff 	mov    -0xe18(%rbp),%rax
    aa8c:	48 39 85 90 f2 ff ff 	cmp    %rax,-0xd70(%rbp)
    aa93:	74 13                	je     aaa8 <func_13+0x1c97>
    aa95:	0f b7 85 24 f1 ff ff 	movzwl -0xedc(%rbp),%eax
    aa9c:	66 85 c0             	test   %ax,%ax
    aa9f:	74 07                	je     aaa8 <func_13+0x1c97>
    aaa1:	b8 01 00 00 00       	mov    $0x1,%eax
    aaa6:	eb 05                	jmp    aaad <func_13+0x1c9c>
    aaa8:	b8 00 00 00 00       	mov    $0x0,%eax
    aaad:	0f b7 c0             	movzwl %ax,%eax
    aab0:	be e9 93 00 00       	mov    $0x93e9,%esi
    aab5:	89 c7                	mov    %eax,%edi
    aab7:	e8 81 c2 ff ff       	callq  6d3d <safe_mul_func_uint16_t_u_u>
    aabc:	89 c2                	mov    %eax,%edx
    aabe:	8b 85 64 f1 ff ff    	mov    -0xe9c(%rbp),%eax
    aac4:	21 d0                	and    %edx,%eax
    aac6:	0f be c0             	movsbl %al,%eax
    aac9:	44 89 e6             	mov    %r12d,%esi
    aacc:	89 c7                	mov    %eax,%edi
    aace:	e8 1f b7 ff ff       	callq  61f2 <safe_sub_func_int8_t_s_s>
    aad3:	48 8b 05 1e f6 00 00 	mov    0xf61e(%rip),%rax        # 1a0f8 <g_360>
    aada:	8b 00                	mov    (%rax),%eax
    aadc:	89 de                	mov    %ebx,%esi
    aade:	89 c7                	mov    %eax,%edi
    aae0:	e8 e7 bb ff ff       	callq  66cc <safe_mod_func_int32_t_s_s>
    aae5:	48 8b 95 10 f2 ff ff 	mov    -0xdf0(%rbp),%rdx
    aaec:	8b 12                	mov    (%rdx),%edx
    aaee:	09 c2                	or     %eax,%edx
    aaf0:	48 8b 85 10 f2 ff ff 	mov    -0xdf0(%rbp),%rax
    aaf7:	89 10                	mov    %edx,(%rax)
    aaf9:	48 8b 05 f8 fa 00 00 	mov    0xfaf8(%rip),%rax        # 1a5f8 <g_2113>
    ab00:	48 8b 00             	mov    (%rax),%rax
    ab03:	0f b6 00             	movzbl (%rax),%eax
    ab06:	0f b6 d8             	movzbl %al,%ebx
    ab09:	48 8b 85 38 f2 ff ff 	mov    -0xdc8(%rbp),%rax
    ab10:	8b 00                	mov    (%rax),%eax
    ab12:	89 85 20 f1 ff ff    	mov    %eax,-0xee0(%rbp)
    ab18:	0f b6 05 9a dd 00 00 	movzbl 0xdd9a(%rip),%eax        # 188b9 <g_1074>
    ab1f:	44 0f be e0          	movsbl %al,%r12d
    ab23:	48 8b 05 ce fa 00 00 	mov    0xface(%rip),%rax        # 1a5f8 <g_2113>
    ab2a:	48 8b 00             	mov    (%rax),%rax
    ab2d:	0f b6 00             	movzbl (%rax),%eax
    ab30:	44 0f be e8          	movsbl %al,%r13d
    ab34:	44 0f b7 b5 3a f1 ff 	movzwl -0xec6(%rbp),%r14d
    ab3b:	ff 
    ab3c:	48 8b 05 d5 f8 00 00 	mov    0xf8d5(%rip),%rax        # 1a418 <g_1488>
    ab43:	48 8b 00             	mov    (%rax),%rax
    ab46:	48 39 85 40 f2 ff ff 	cmp    %rax,-0xdc0(%rbp)
    ab4d:	0f 95 c0             	setne  %al
    ab50:	44 0f b6 f8          	movzbl %al,%r15d
    ab54:	48 83 bd 60 f2 ff ff 	cmpq   $0x0,-0xda0(%rbp)
    ab5b:	00 
    ab5c:	0f 95 c0             	setne  %al
    ab5f:	0f b6 c0             	movzbl %al,%eax
    ab62:	89 c6                	mov    %eax,%esi
    ab64:	bf 25 00 00 00       	mov    $0x25,%edi
    ab69:	e8 25 c0 ff ff       	callq  6b93 <safe_mul_func_uint8_t_u_u>
    ab6e:	84 c0                	test   %al,%al
    ab70:	0f 94 c0             	sete   %al
    ab73:	0f b6 c0             	movzbl %al,%eax
    ab76:	41 39 c7             	cmp    %eax,%r15d
    ab79:	0f 9c c2             	setl   %dl
    ab7c:	48 8b 05 fd d1 00 00 	mov    0xd1fd(%rip),%rax        # 17d80 <l_2652.4454>
    ab83:	48 39 85 08 f2 ff ff 	cmp    %rax,-0xdf8(%rbp)
    ab8a:	0f 95 c0             	setne  %al
    ab8d:	09 d0                	or     %edx,%eax
    ab8f:	0f b6 d0             	movzbl %al,%edx
    ab92:	48 8b 05 4f e1 00 00 	mov    0xe14f(%rip),%rax        # 18ce8 <g_1306>
    ab99:	98                   	cwtl   
    ab9a:	89 d6                	mov    %edx,%esi
    ab9c:	89 c7                	mov    %eax,%edi
    ab9e:	e8 b2 b8 ff ff       	callq  6455 <safe_div_func_int16_t_s_s>
    aba3:	48 8b 05 56 f5 00 00 	mov    0xf556(%rip),%rax        # 1a100 <g_359>
    abaa:	48 8b 00             	mov    (%rax),%rax
    abad:	8b 10                	mov    (%rax),%edx
    abaf:	48 8b 85 10 f2 ff ff 	mov    -0xdf0(%rbp),%rax
    abb6:	8b 00                	mov    (%rax),%eax
    abb8:	39 c2                	cmp    %eax,%edx
    abba:	0f 95 c0             	setne  %al
    abbd:	0f b6 c0             	movzbl %al,%eax
    abc0:	4c 89 f6             	mov    %r14,%rsi
    abc3:	48 89 c7             	mov    %rax,%rdi
    abc6:	e8 dd bc ff ff       	callq  68a8 <safe_sub_func_int64_t_s_s>
    abcb:	48 8b 85 10 f1 ff ff 	mov    -0xef0(%rbp),%rax
    abd2:	0f b6 00             	movzbl (%rax),%eax
    abd5:	0f be c0             	movsbl %al,%eax
    abd8:	44 89 ee             	mov    %r13d,%esi
    abdb:	89 c7                	mov    %eax,%edi
    abdd:	e8 10 b6 ff ff       	callq  61f2 <safe_sub_func_int8_t_s_s>
    abe2:	0f be c0             	movsbl %al,%eax
    abe5:	44 89 e6             	mov    %r12d,%esi
    abe8:	89 c7                	mov    %eax,%edi
    abea:	e8 27 b8 ff ff       	callq  6416 <safe_mod_func_int16_t_s_s>
    abef:	48 8b 05 12 f7 00 00 	mov    0xf712(%rip),%rax        # 1a308 <g_584>
    abf6:	48 c7 00 00 00 00 00 	movq   $0x0,(%rax)
    abfd:	8b 95 18 f1 ff ff    	mov    -0xee8(%rbp),%edx
    ac03:	48 8b 85 28 f1 ff ff 	mov    -0xed8(%rbp),%rax
    ac0a:	0f b6 00             	movzbl (%rax),%eax
    ac0d:	0f be c0             	movsbl %al,%eax
    ac10:	89 d6                	mov    %edx,%esi
    ac12:	89 c7                	mov    %eax,%edi
    ac14:	e8 53 b7 ff ff       	callq  636c <safe_rshift_func_int8_t_s_u>
    ac19:	be 04 00 00 00       	mov    $0x4,%esi
    ac1e:	bf 01 00 00 00       	mov    $0x1,%edi
    ac23:	e8 02 b9 ff ff       	callq  652a <safe_rshift_func_int16_t_s_s>
    ac28:	0f be c0             	movsbl %al,%eax
    ac2b:	8b b5 20 f1 ff ff    	mov    -0xee0(%rbp),%esi
    ac31:	89 c7                	mov    %eax,%edi
    ac33:	e8 b6 b6 ff ff       	callq  62ee <safe_lshift_func_int8_t_s_u>
    ac38:	0f be d0             	movsbl %al,%edx
    ac3b:	48 8b 85 90 f2 ff ff 	mov    -0xd70(%rbp),%rax
    ac42:	48 8b 00             	mov    (%rax),%rax
    ac45:	48 8b 00             	mov    (%rax),%rax
    ac48:	48 8b 00             	mov    (%rax),%rax
    ac4b:	8b 00                	mov    (%rax),%eax
    ac4d:	39 c2                	cmp    %eax,%edx
    ac4f:	0f 9c c0             	setl   %al
    ac52:	0f b6 c0             	movzbl %al,%eax
    ac55:	89 de                	mov    %ebx,%esi
    ac57:	89 c7                	mov    %eax,%edi
    ac59:	e8 7d bf ff ff       	callq  6bdb <safe_div_func_uint8_t_u_u>
    ac5e:	48 8b 85 10 f2 ff ff 	mov    -0xdf0(%rbp),%rax
    ac65:	8b 00                	mov    (%rax),%eax
    ac67:	83 e0 01             	and    $0x1,%eax
    ac6a:	89 c6                	mov    %eax,%esi
    ac6c:	bf fd 76 64 c7       	mov    $0xc76476fd,%edi
    ac71:	e8 5a c2 ff ff       	callq  6ed0 <safe_sub_func_uint32_t_u_u>
    ac76:	89 c2                	mov    %eax,%edx
    ac78:	48 8b 85 10 f2 ff ff 	mov    -0xdf0(%rbp),%rax
    ac7f:	89 10                	mov    %edx,(%rax)
    ac81:	48 8b 05 98 e0 00 00 	mov    0xe098(%rip),%rax        # 18d20 <g_1308>
    ac88:	48 83 e8 01          	sub    $0x1,%rax
    ac8c:	48 89 05 8d e0 00 00 	mov    %rax,0xe08d(%rip)        # 18d20 <g_1308>
    ac93:	48 8b 05 86 e0 00 00 	mov    0xe086(%rip),%rax        # 18d20 <g_1308>
    ac9a:	48 83 f8 11          	cmp    $0x11,%rax
    ac9e:	0f 85 32 fd ff ff    	jne    a9d6 <func_13+0x1bc5>
    aca4:	48 8b 85 38 f2 ff ff 	mov    -0xdc8(%rbp),%rax
    acab:	8b 00                	mov    (%rax),%eax
    acad:	48 63 d8             	movslq %eax,%rbx
    acb0:	8b 85 18 f1 ff ff    	mov    -0xee8(%rbp),%eax
    acb6:	0f b6 c0             	movzbl %al,%eax
    acb9:	be ff 00 00 00       	mov    $0xff,%esi
    acbe:	89 c7                	mov    %eax,%edi
    acc0:	e8 ce be ff ff       	callq  6b93 <safe_mul_func_uint8_t_u_u>
    acc5:	44 0f b6 e8          	movzbl %al,%r13d
    acc9:	44 8b a5 68 f1 ff ff 	mov    -0xe98(%rbp),%r12d
    acd0:	48 8b 05 39 f5 00 00 	mov    0xf539(%rip),%rax        # 1a210 <g_364>
    acd7:	48 8b 00             	mov    (%rax),%rax
    acda:	48 8b 00             	mov    (%rax),%rax
    acdd:	8b 00                	mov    (%rax),%eax
    acdf:	89 c1                	mov    %eax,%ecx
    ace1:	48 8b 85 28 f1 ff ff 	mov    -0xed8(%rbp),%rax
    ace8:	0f b6 10             	movzbl (%rax),%edx
    aceb:	48 8b 85 10 f1 ff ff 	mov    -0xef0(%rbp),%rax
    acf2:	0f b6 00             	movzbl (%rax),%eax
    acf5:	38 c2                	cmp    %al,%dl
    acf7:	0f 9f c0             	setg   %al
    acfa:	0f b6 c0             	movzbl %al,%eax
    acfd:	89 ce                	mov    %ecx,%esi
    acff:	89 c7                	mov    %eax,%edi
    ad01:	e8 f7 c1 ff ff       	callq  6efd <safe_mod_func_uint32_t_u_u>
    ad06:	0f b7 c0             	movzwl %ax,%eax
    ad09:	44 89 e6             	mov    %r12d,%esi
    ad0c:	89 c7                	mov    %eax,%edi
    ad0e:	e8 f3 c0 ff ff       	callq  6e06 <safe_lshift_func_uint16_t_u_u>
    ad13:	0f b7 c0             	movzwl %ax,%eax
    ad16:	48 8b 95 70 f2 ff ff 	mov    -0xd90(%rbp),%rdx
    ad1d:	48 c7 02 00 00 00 00 	movq   $0x0,(%rdx)
    ad24:	48 8b 8d c8 f1 ff ff 	mov    -0xe38(%rbp),%rcx
    ad2b:	48 8b 95 68 f2 ff ff 	mov    -0xd98(%rbp),%rdx
    ad32:	48 89 0a             	mov    %rcx,(%rdx)
    ad35:	8b 95 18 f1 ff ff    	mov    -0xee8(%rbp),%edx
    ad3b:	89 c6                	mov    %eax,%esi
    ad3d:	89 d7                	mov    %edx,%edi
    ad3f:	e8 8c c1 ff ff       	callq  6ed0 <safe_sub_func_uint32_t_u_u>
    ad44:	41 39 c5             	cmp    %eax,%r13d
    ad47:	0f 93 c0             	setae  %al
    ad4a:	44 0f b6 e0          	movzbl %al,%r12d
    ad4e:	48 8b 85 28 f1 ff ff 	mov    -0xed8(%rbp),%rax
    ad55:	0f b6 00             	movzbl (%rax),%eax
    ad58:	0f be c0             	movsbl %al,%eax
    ad5b:	be 00 00 00 00       	mov    $0x0,%esi
    ad60:	89 c7                	mov    %eax,%edi
    ad62:	e8 ab b4 ff ff       	callq  6212 <safe_mul_func_int8_t_s_s>
    ad67:	44 89 e6             	mov    %r12d,%esi
    ad6a:	bf 01 00 00 00       	mov    $0x1,%edi
    ad6f:	e8 6d b7 ff ff       	callq  64e1 <safe_lshift_func_int16_t_s_u>
    ad74:	48 8b 85 60 f6 ff ff 	mov    -0x9a0(%rbp),%rax
    ad7b:	83 e0 01             	and    $0x1,%eax
    ad7e:	48 89 de             	mov    %rbx,%rsi
    ad81:	48 89 c7             	mov    %rax,%rdi
    ad84:	e8 26 c3 ff ff       	callq  70af <safe_div_func_uint64_t_u_u>
    ad89:	48 89 c2             	mov    %rax,%rdx
    ad8c:	48 8b 05 6d f3 00 00 	mov    0xf36d(%rip),%rax        # 1a100 <g_359>
    ad93:	48 8b 00             	mov    (%rax),%rax
    ad96:	89 10                	mov    %edx,(%rax)
    ad98:	48 c7 05 d5 df 00 00 	movq   $0x0,0xdfd5(%rip)        # 18d78 <g_1314>
    ad9f:	00 00 00 00 
    ada3:	e9 9b 08 00 00       	jmpq   b643 <func_13+0x2832>
    ada8:	48 c7 85 40 f9 ff ff 	movq   $0x0,-0x6c0(%rbp)
    adaf:	00 00 00 00 
    adb3:	48 c7 85 48 f9 ff ff 	movq   $0x0,-0x6b8(%rbp)
    adba:	00 00 00 00 
    adbe:	48 c7 85 50 f9 ff ff 	movq   $0x0,-0x6b0(%rbp)
    adc5:	00 00 00 00 
    adc9:	48 c7 85 58 f9 ff ff 	movq   $0x0,-0x6a8(%rbp)
    add0:	00 00 00 00 
    add4:	48 8d 85 00 f4 ff ff 	lea    -0xc00(%rbp),%rax
    addb:	48 83 c0 11          	add    $0x11,%rax
    addf:	48 89 85 60 f9 ff ff 	mov    %rax,-0x6a0(%rbp)
    ade6:	48 c7 85 68 f9 ff ff 	movq   $0x0,-0x698(%rbp)
    aded:	00 00 00 00 
    adf1:	48 c7 85 70 f9 ff ff 	movq   $0x0,-0x690(%rbp)
    adf8:	00 00 00 00 
    adfc:	48 c7 85 78 f9 ff ff 	movq   $0x0,-0x688(%rbp)
    ae03:	00 00 00 00 
    ae07:	48 c7 85 80 f9 ff ff 	movq   $0x0,-0x680(%rbp)
    ae0e:	00 00 00 00 
    ae12:	48 8d 85 00 f4 ff ff 	lea    -0xc00(%rbp),%rax
    ae19:	48 83 c0 37          	add    $0x37,%rax
    ae1d:	48 89 85 88 f9 ff ff 	mov    %rax,-0x678(%rbp)
    ae24:	48 8d 85 34 f1 ff ff 	lea    -0xecc(%rbp),%rax
    ae2b:	48 89 85 90 f9 ff ff 	mov    %rax,-0x670(%rbp)
    ae32:	48 8d 85 00 f4 ff ff 	lea    -0xc00(%rbp),%rax
    ae39:	48 83 c0 11          	add    $0x11,%rax
    ae3d:	48 89 85 98 f9 ff ff 	mov    %rax,-0x668(%rbp)
    ae44:	48 c7 85 a0 f9 ff ff 	movq   $0x0,-0x660(%rbp)
    ae4b:	00 00 00 00 
    ae4f:	48 c7 85 a8 f9 ff ff 	movq   $0x0,-0x658(%rbp)
    ae56:	00 00 00 00 
    ae5a:	48 c7 85 b0 f9 ff ff 	movq   $0x0,-0x650(%rbp)
    ae61:	00 00 00 00 
    ae65:	48 c7 85 b8 f9 ff ff 	movq   $0x0,-0x648(%rbp)
    ae6c:	00 00 00 00 
    ae70:	48 c7 85 c0 f9 ff ff 	movq   $0x0,-0x640(%rbp)
    ae77:	00 00 00 00 
    ae7b:	48 8d 85 34 f1 ff ff 	lea    -0xecc(%rbp),%rax
    ae82:	48 89 85 c8 f9 ff ff 	mov    %rax,-0x638(%rbp)
    ae89:	48 c7 85 d0 f9 ff ff 	movq   $0x0,-0x630(%rbp)
    ae90:	00 00 00 00 
    ae94:	48 c7 85 d8 f9 ff ff 	movq   $0x0,-0x628(%rbp)
    ae9b:	00 00 00 00 
    ae9f:	48 c7 85 e0 f9 ff ff 	movq   $0x0,-0x620(%rbp)
    aea6:	00 00 00 00 
    aeaa:	48 c7 85 e8 f9 ff ff 	movq   $0x0,-0x618(%rbp)
    aeb1:	00 00 00 00 
    aeb5:	48 c7 85 f0 f9 ff ff 	movq   $0x0,-0x610(%rbp)
    aebc:	00 00 00 00 
    aec0:	48 c7 85 f8 f9 ff ff 	movq   $0x0,-0x608(%rbp)
    aec7:	00 00 00 00 
    aecb:	48 c7 85 00 fa ff ff 	movq   $0x0,-0x600(%rbp)
    aed2:	00 00 00 00 
    aed6:	48 8d 85 00 f4 ff ff 	lea    -0xc00(%rbp),%rax
    aedd:	48 83 c0 11          	add    $0x11,%rax
    aee1:	48 89 85 08 fa ff ff 	mov    %rax,-0x5f8(%rbp)
    aee8:	48 c7 85 10 fa ff ff 	movq   $0x0,-0x5f0(%rbp)
    aeef:	00 00 00 00 
    aef3:	48 c7 85 18 fa ff ff 	movq   $0x0,-0x5e8(%rbp)
    aefa:	00 00 00 00 
    aefe:	48 c7 85 20 fa ff ff 	movq   $0x0,-0x5e0(%rbp)
    af05:	00 00 00 00 
    af09:	48 c7 85 28 fa ff ff 	movq   $0x0,-0x5d8(%rbp)
    af10:	00 00 00 00 
    af14:	48 8d 85 00 f4 ff ff 	lea    -0xc00(%rbp),%rax
    af1b:	48 83 c0 37          	add    $0x37,%rax
    af1f:	48 89 85 30 fa ff ff 	mov    %rax,-0x5d0(%rbp)
    af26:	48 8d 85 34 f1 ff ff 	lea    -0xecc(%rbp),%rax
    af2d:	48 89 85 38 fa ff ff 	mov    %rax,-0x5c8(%rbp)
    af34:	48 8d 85 00 f4 ff ff 	lea    -0xc00(%rbp),%rax
    af3b:	48 83 c0 11          	add    $0x11,%rax
    af3f:	48 89 85 40 fa ff ff 	mov    %rax,-0x5c0(%rbp)
    af46:	48 c7 85 48 fa ff ff 	movq   $0x0,-0x5b8(%rbp)
    af4d:	00 00 00 00 
    af51:	48 c7 85 50 fa ff ff 	movq   $0x0,-0x5b0(%rbp)
    af58:	00 00 00 00 
    af5c:	48 c7 85 58 fa ff ff 	movq   $0x0,-0x5a8(%rbp)
    af63:	00 00 00 00 
    af67:	48 c7 85 60 fa ff ff 	movq   $0x0,-0x5a0(%rbp)
    af6e:	00 00 00 00 
    af72:	48 c7 85 68 fa ff ff 	movq   $0x0,-0x598(%rbp)
    af79:	00 00 00 00 
    af7d:	48 8d 85 34 f1 ff ff 	lea    -0xecc(%rbp),%rax
    af84:	48 89 85 70 fa ff ff 	mov    %rax,-0x590(%rbp)
    af8b:	48 c7 85 78 fa ff ff 	movq   $0x0,-0x588(%rbp)
    af92:	00 00 00 00 
    af96:	48 c7 85 80 fa ff ff 	movq   $0x0,-0x580(%rbp)
    af9d:	00 00 00 00 
    afa1:	48 c7 85 88 fa ff ff 	movq   $0x0,-0x578(%rbp)
    afa8:	00 00 00 00 
    afac:	48 c7 85 90 fa ff ff 	movq   $0x0,-0x570(%rbp)
    afb3:	00 00 00 00 
    afb7:	48 c7 85 98 fa ff ff 	movq   $0x0,-0x568(%rbp)
    afbe:	00 00 00 00 
    afc2:	48 c7 85 a0 fa ff ff 	movq   $0x0,-0x560(%rbp)
    afc9:	00 00 00 00 
    afcd:	48 c7 85 a8 fa ff ff 	movq   $0x0,-0x558(%rbp)
    afd4:	00 00 00 00 
    afd8:	48 8d 85 00 f4 ff ff 	lea    -0xc00(%rbp),%rax
    afdf:	48 83 c0 11          	add    $0x11,%rax
    afe3:	48 89 85 b0 fa ff ff 	mov    %rax,-0x550(%rbp)
    afea:	48 8d 85 00 f4 ff ff 	lea    -0xc00(%rbp),%rax
    aff1:	48 83 c0 0d          	add    $0xd,%rax
    aff5:	48 89 85 b8 fa ff ff 	mov    %rax,-0x548(%rbp)
    affc:	48 c7 85 c0 fa ff ff 	movq   $0x0,-0x540(%rbp)
    b003:	00 00 00 00 
    b007:	48 c7 85 c8 fa ff ff 	movq   $0x0,-0x538(%rbp)
    b00e:	00 00 00 00 
    b012:	48 c7 85 d0 fa ff ff 	movq   $0x0,-0x530(%rbp)
    b019:	00 00 00 00 
    b01d:	48 c7 85 d8 fa ff ff 	movq   $0x0,-0x528(%rbp)
    b024:	00 00 00 00 
    b028:	48 8d 85 00 f4 ff ff 	lea    -0xc00(%rbp),%rax
    b02f:	48 83 c0 04          	add    $0x4,%rax
    b033:	48 89 85 e0 fa ff ff 	mov    %rax,-0x520(%rbp)
    b03a:	48 8d 85 34 f1 ff ff 	lea    -0xecc(%rbp),%rax
    b041:	48 89 85 e8 fa ff ff 	mov    %rax,-0x518(%rbp)
    b048:	48 c7 85 f0 fa ff ff 	movq   $0x0,-0x510(%rbp)
    b04f:	00 00 00 00 
    b053:	48 c7 85 f8 fa ff ff 	movq   $0x0,-0x508(%rbp)
    b05a:	00 00 00 00 
    b05e:	48 c7 85 00 fb ff ff 	movq   $0x0,-0x500(%rbp)
    b065:	00 00 00 00 
    b069:	48 8d 85 00 f4 ff ff 	lea    -0xc00(%rbp),%rax
    b070:	48 83 c0 0d          	add    $0xd,%rax
    b074:	48 89 85 08 fb ff ff 	mov    %rax,-0x4f8(%rbp)
    b07b:	48 8d 85 00 f4 ff ff 	lea    -0xc00(%rbp),%rax
    b082:	48 83 c0 15          	add    $0x15,%rax
    b086:	48 89 85 10 fb ff ff 	mov    %rax,-0x4f0(%rbp)
    b08d:	48 8d 85 00 f4 ff ff 	lea    -0xc00(%rbp),%rax
    b094:	48 83 c0 04          	add    $0x4,%rax
    b098:	48 89 85 18 fb ff ff 	mov    %rax,-0x4e8(%rbp)
    b09f:	48 8d 85 00 f4 ff ff 	lea    -0xc00(%rbp),%rax
    b0a6:	48 83 c0 15          	add    $0x15,%rax
    b0aa:	48 89 85 20 fb ff ff 	mov    %rax,-0x4e0(%rbp)
    b0b1:	48 8d 85 00 f4 ff ff 	lea    -0xc00(%rbp),%rax
    b0b8:	48 83 c0 0d          	add    $0xd,%rax
    b0bc:	48 89 85 28 fb ff ff 	mov    %rax,-0x4d8(%rbp)
    b0c3:	48 c7 85 30 fb ff ff 	movq   $0x0,-0x4d0(%rbp)
    b0ca:	00 00 00 00 
    b0ce:	48 c7 85 38 fb ff ff 	movq   $0x0,-0x4c8(%rbp)
    b0d5:	00 00 00 00 
    b0d9:	48 c7 85 40 fb ff ff 	movq   $0x0,-0x4c0(%rbp)
    b0e0:	00 00 00 00 
    b0e4:	48 8d 85 00 f4 ff ff 	lea    -0xc00(%rbp),%rax
    b0eb:	48 83 c0 15          	add    $0x15,%rax
    b0ef:	48 89 85 48 fb ff ff 	mov    %rax,-0x4b8(%rbp)
    b0f6:	48 8d 05 8d d6 00 00 	lea    0xd68d(%rip),%rax        # 1878a <g_269>
    b0fd:	48 89 85 50 fb ff ff 	mov    %rax,-0x4b0(%rbp)
    b104:	48 8d 85 34 f1 ff ff 	lea    -0xecc(%rbp),%rax
    b10b:	48 89 85 58 fb ff ff 	mov    %rax,-0x4a8(%rbp)
    b112:	48 8d 85 00 f4 ff ff 	lea    -0xc00(%rbp),%rax
    b119:	48 83 c0 0d          	add    $0xd,%rax
    b11d:	48 89 85 60 fb ff ff 	mov    %rax,-0x4a0(%rbp)
    b124:	48 c7 85 68 fb ff ff 	movq   $0x0,-0x498(%rbp)
    b12b:	00 00 00 00 
    b12f:	48 8d 85 36 f1 ff ff 	lea    -0xeca(%rbp),%rax
    b136:	48 89 85 80 f2 ff ff 	mov    %rax,-0xd80(%rbp)
    b13d:	c7 85 60 f1 ff ff 00 	movl   $0x0,-0xea0(%rbp)
    b144:	00 00 00 
    b147:	eb 1b                	jmp    b164 <func_13+0x2353>
    b149:	8b 85 60 f1 ff ff    	mov    -0xea0(%rbp),%eax
    b14f:	48 98                	cltq   
    b151:	48 c7 84 c5 e0 f4 ff 	movq   $0x0,-0xb20(%rbp,%rax,8)
    b158:	ff 00 00 00 00 
    b15d:	83 85 60 f1 ff ff 01 	addl   $0x1,-0xea0(%rbp)
    b164:	83 bd 60 f1 ff ff 08 	cmpl   $0x8,-0xea0(%rbp)
    b16b:	7e dc                	jle    b149 <func_13+0x2338>
    b16d:	8b 05 91 de 00 00    	mov    0xde91(%rip),%eax        # 19004 <g_2692+0x24>
    b173:	83 e8 01             	sub    $0x1,%eax
    b176:	89 05 88 de 00 00    	mov    %eax,0xde88(%rip)        # 19004 <g_2692+0x24>
    b17c:	48 8b 05 7d ef 00 00 	mov    0xef7d(%rip),%rax        # 1a100 <g_359>
    b183:	48 8b 00             	mov    (%rax),%rax
    b186:	8b 00                	mov    (%rax),%eax
    b188:	85 c0                	test   %eax,%eax
    b18a:	0f 85 81 06 00 00    	jne    b811 <func_13+0x2a00>
    b190:	48 8b 05 d9 f1 00 00 	mov    0xf1d9(%rip),%rax        # 1a370 <g_822>
    b197:	48 8b 10             	mov    (%rax),%rdx
    b19a:	48 83 c2 01          	add    $0x1,%rdx
    b19e:	48 89 10             	mov    %rdx,(%rax)
    b1a1:	0f b7 85 24 f1 ff ff 	movzwl -0xedc(%rbp),%eax
    b1a8:	44 0f b7 e8          	movzwl %ax,%r13d
    b1ac:	8b 05 52 de 00 00    	mov    0xde52(%rip),%eax        # 19004 <g_2692+0x24>
    b1b2:	0f bf d8             	movswl %ax,%ebx
    b1b5:	48 8b 85 28 f1 ff ff 	mov    -0xed8(%rbp),%rax
    b1bc:	0f b6 00             	movzbl (%rax),%eax
    b1bf:	44 0f b6 e0          	movzbl %al,%r12d
    b1c3:	48 8b 05 2e d7 00 00 	mov    0xd72e(%rip),%rax        # 188f8 <g_1299>
    b1ca:	89 c2                	mov    %eax,%edx
    b1cc:	48 8b 85 38 f2 ff ff 	mov    -0xdc8(%rbp),%rax
    b1d3:	89 10                	mov    %edx,(%rax)
    b1d5:	48 8b 85 38 f2 ff ff 	mov    -0xdc8(%rbp),%rax
    b1dc:	8b 00                	mov    (%rax),%eax
    b1de:	85 c0                	test   %eax,%eax
    b1e0:	74 30                	je     b212 <func_13+0x2401>
    b1e2:	48 8b 05 4f fe 00 00 	mov    0xfe4f(%rip),%rax        # 1b038 <g_2717>
    b1e9:	48 89 05 48 fe 00 00 	mov    %rax,0xfe48(%rip)        # 1b038 <g_2717>
    b1f0:	0f b6 45 bd          	movzbl -0x43(%rbp),%eax
    b1f4:	8d 50 ff             	lea    -0x1(%rax),%edx
    b1f7:	88 55 bd             	mov    %dl,-0x43(%rbp)
    b1fa:	0f b6 d0             	movzbl %al,%edx
    b1fd:	0f b7 85 24 f1 ff ff 	movzwl -0xedc(%rbp),%eax
    b204:	0f b7 c0             	movzwl %ax,%eax
    b207:	39 c2                	cmp    %eax,%edx
    b209:	74 07                	je     b212 <func_13+0x2401>
    b20b:	b8 01 00 00 00       	mov    $0x1,%eax
    b210:	eb 05                	jmp    b217 <func_13+0x2406>
    b212:	b8 00 00 00 00       	mov    $0x0,%eax
    b217:	0f bf d0             	movswl %ax,%edx
    b21a:	b8 09 00 00 00       	mov    $0x9,%eax
    b21f:	98                   	cwtl   
    b220:	89 d6                	mov    %edx,%esi
    b222:	89 c7                	mov    %eax,%edi
    b224:	e8 8a b1 ff ff       	callq  63b3 <safe_add_func_int16_t_s_s>
    b229:	0f b7 85 24 f1 ff ff 	movzwl -0xedc(%rbp),%eax
    b230:	44 0f b7 f0          	movzwl %ax,%r14d
    b234:	48 8b 85 10 f1 ff ff 	mov    -0xef0(%rbp),%rax
    b23b:	0f b6 00             	movzbl (%rax),%eax
    b23e:	0f be d0             	movsbl %al,%edx
    b241:	48 8b 85 28 f1 ff ff 	mov    -0xed8(%rbp),%rax
    b248:	0f b6 00             	movzbl (%rax),%eax
    b24b:	0f be c0             	movsbl %al,%eax
    b24e:	89 d6                	mov    %edx,%esi
    b250:	89 c7                	mov    %eax,%edi
    b252:	e8 da af ff ff       	callq  6231 <safe_mod_func_int8_t_s_s>
    b257:	0f be c0             	movsbl %al,%eax
    b25a:	41 39 c6             	cmp    %eax,%r14d
    b25d:	48 8b 85 30 f2 ff ff 	mov    -0xdd0(%rbp),%rax
    b264:	48 8b 00             	mov    (%rax),%rax
    b267:	8b 10                	mov    (%rax),%edx
    b269:	83 c2 01             	add    $0x1,%edx
    b26c:	89 10                	mov    %edx,(%rax)
    b26e:	8b 00                	mov    (%rax),%eax
    b270:	be 09 00 00 00       	mov    $0x9,%esi
    b275:	89 c7                	mov    %eax,%edi
    b277:	e8 a9 bc ff ff       	callq  6f25 <safe_div_func_uint32_t_u_u>
    b27c:	89 c2                	mov    %eax,%edx
    b27e:	48 8b 85 18 f2 ff ff 	mov    -0xde8(%rbp),%rax
    b285:	48 8b 00             	mov    (%rax),%rax
    b288:	48 8b 00             	mov    (%rax),%rax
    b28b:	89 d2                	mov    %edx,%edx
    b28d:	48 89 10             	mov    %rdx,(%rax)
    b290:	44 89 e6             	mov    %r12d,%esi
    b293:	bf 05 00 00 00       	mov    $0x5,%edi
    b298:	e8 11 b9 ff ff       	callq  6bae <safe_mod_func_uint8_t_u_u>
    b29d:	89 c2                	mov    %eax,%edx
    b29f:	48 8b 05 22 fb 00 00 	mov    0xfb22(%rip),%rax        # 1adc8 <g_2248>
    b2a6:	0f b6 d2             	movzbl %dl,%edx
    b2a9:	89 10                	mov    %edx,(%rax)
    b2ab:	48 8b 05 7e da 00 00 	mov    0xda7e(%rip),%rax        # 18d30 <g_1310>
    b2b2:	98                   	cwtl   
    b2b3:	89 de                	mov    %ebx,%esi
    b2b5:	89 c7                	mov    %eax,%edi
    b2b7:	e8 99 b1 ff ff       	callq  6455 <safe_div_func_int16_t_s_s>
    b2bc:	66 85 c0             	test   %ax,%ax
    b2bf:	75 0a                	jne    b2cb <func_13+0x24ba>
    b2c1:	8b 85 18 f1 ff ff    	mov    -0xee8(%rbp),%eax
    b2c7:	85 c0                	test   %eax,%eax
    b2c9:	74 07                	je     b2d2 <func_13+0x24c1>
    b2cb:	b8 01 00 00 00       	mov    $0x1,%eax
    b2d0:	eb 05                	jmp    b2d7 <func_13+0x24c6>
    b2d2:	b8 00 00 00 00       	mov    $0x0,%eax
    b2d7:	44 21 e8             	and    %r13d,%eax
    b2da:	48 98                	cltq   
    b2dc:	48 ba 17 d1 b4 a4 f7 	movabs $0xfdb34cf7a4b4d117,%rdx
    b2e3:	4c b3 fd 
    b2e6:	48 21 d0             	and    %rdx,%rax
    b2e9:	48 c7 c6 ff ff ff ff 	mov    $0xffffffffffffffff,%rsi
    b2f0:	48 89 c7             	mov    %rax,%rdi
    b2f3:	e8 b7 bd ff ff       	callq  70af <safe_div_func_uint64_t_u_u>
    b2f8:	89 c2                	mov    %eax,%edx
    b2fa:	0f b7 85 24 f1 ff ff 	movzwl -0xedc(%rbp),%eax
    b301:	98                   	cwtl   
    b302:	89 d6                	mov    %edx,%esi
    b304:	89 c7                	mov    %eax,%edi
    b306:	e8 87 b1 ff ff       	callq  6492 <safe_lshift_func_int16_t_s_s>
    b30b:	66 85 c0             	test   %ax,%ax
    b30e:	0f 84 7b 01 00 00    	je     b48f <func_13+0x267e>
    b314:	48 c7 85 88 f2 ff ff 	movq   $0x0,-0xd78(%rbp)
    b31b:	00 00 00 00 
    b31f:	48 8b 85 28 f1 ff ff 	mov    -0xed8(%rbp),%rax
    b326:	0f b6 00             	movzbl (%rax),%eax
    b329:	0f be d8             	movsbl %al,%ebx
    b32c:	8b 05 8e d5 00 00    	mov    0xd58e(%rip),%eax        # 188c0 <g_1102>
    b332:	41 89 c4             	mov    %eax,%r12d
    b335:	48 8b 05 c4 f2 00 00 	mov    0xf2c4(%rip),%rax        # 1a600 <g_2112>
    b33c:	48 8b 00             	mov    (%rax),%rax
    b33f:	48 8b 00             	mov    (%rax),%rax
    b342:	c6 00 dd             	movb   $0xdd,(%rax)
    b345:	48 8b 85 10 f1 ff ff 	mov    -0xef0(%rbp),%rax
    b34c:	0f b6 00             	movzbl (%rax),%eax
    b34f:	3c de                	cmp    $0xde,%al
    b351:	41 0f 9d c6          	setge  %r14b
    b355:	8b 85 18 f1 ff ff    	mov    -0xee8(%rbp),%eax
    b35b:	41 89 c5             	mov    %eax,%r13d
    b35e:	48 8b 85 88 f2 ff ff 	mov    -0xd78(%rbp),%rax
    b365:	0f b6 d0             	movzbl %al,%edx
    b368:	48 8b 05 91 f2 00 00 	mov    0xf291(%rip),%rax        # 1a600 <g_2112>
    b36f:	48 8b 00             	mov    (%rax),%rax
    b372:	48 89 05 c7 fc 00 00 	mov    %rax,0xfcc7(%rip)        # 1b040 <g_2735>
    b379:	48 8b 0d c0 fc 00 00 	mov    0xfcc0(%rip),%rcx        # 1b040 <g_2735>
    b380:	48 8b 05 79 f2 00 00 	mov    0xf279(%rip),%rax        # 1a600 <g_2112>
    b387:	48 8b 00             	mov    (%rax),%rax
    b38a:	48 39 c1             	cmp    %rax,%rcx
    b38d:	0f 95 c0             	setne  %al
    b390:	0f b6 c0             	movzbl %al,%eax
    b393:	89 d6                	mov    %edx,%esi
    b395:	89 c7                	mov    %eax,%edi
    b397:	e8 f7 b7 ff ff       	callq  6b93 <safe_mul_func_uint8_t_u_u>
    b39c:	0f be c0             	movsbl %al,%eax
    b39f:	44 89 ee             	mov    %r13d,%esi
    b3a2:	89 c7                	mov    %eax,%edi
    b3a4:	e8 45 af ff ff       	callq  62ee <safe_lshift_func_int8_t_s_u>
    b3a9:	0f be d0             	movsbl %al,%edx
    b3ac:	48 8b 85 38 f2 ff ff 	mov    -0xdc8(%rbp),%rax
    b3b3:	8b 00                	mov    (%rax),%eax
    b3b5:	83 e0 01             	and    $0x1,%eax
    b3b8:	89 c1                	mov    %eax,%ecx
    b3ba:	48 8b 85 38 f2 ff ff 	mov    -0xdc8(%rbp),%rax
    b3c1:	89 08                	mov    %ecx,(%rax)
    b3c3:	48 8b 85 38 f2 ff ff 	mov    -0xdc8(%rbp),%rax
    b3ca:	8b 00                	mov    (%rax),%eax
    b3cc:	89 85 6c f3 ff ff    	mov    %eax,-0xc94(%rbp)
    b3d2:	8b 85 6c f3 ff ff    	mov    -0xc94(%rbp),%eax
    b3d8:	0f be c0             	movsbl %al,%eax
    b3db:	89 d6                	mov    %edx,%esi
    b3dd:	89 c7                	mov    %eax,%edi
    b3df:	e8 4d ae ff ff       	callq  6231 <safe_mod_func_int8_t_s_s>
    b3e4:	0f be d0             	movsbl %al,%edx
    b3e7:	8b 85 18 f1 ff ff    	mov    -0xee8(%rbp),%eax
    b3ed:	39 c2                	cmp    %eax,%edx
    b3ef:	0f 97 c0             	seta   %al
    b3f2:	0f b6 d0             	movzbl %al,%edx
    b3f5:	48 8b 05 b4 d3 00 00 	mov    0xd3b4(%rip),%rax        # 187b0 <g_396>
    b3fc:	48 39 c2             	cmp    %rax,%rdx
    b3ff:	7e 07                	jle    b408 <func_13+0x25f7>
    b401:	ba ca 00 00 00       	mov    $0xca,%edx
    b406:	eb 05                	jmp    b40d <func_13+0x25fc>
    b408:	ba cb 00 00 00       	mov    $0xcb,%edx
    b40d:	8b 85 18 f1 ff ff    	mov    -0xee8(%rbp),%eax
    b413:	48 98                	cltq   
    b415:	48 39 c2             	cmp    %rax,%rdx
    b418:	0f 95 c0             	setne  %al
    b41b:	44 31 f0             	xor    %r14d,%eax
    b41e:	0f b6 c0             	movzbl %al,%eax
    b421:	44 89 e6             	mov    %r12d,%esi
    b424:	89 c7                	mov    %eax,%edi
    b426:	e8 1d ba ff ff       	callq  6e48 <safe_rshift_func_uint16_t_u_s>
    b42b:	89 de                	mov    %ebx,%esi
    b42d:	bf 00 00 00 00       	mov    $0x0,%edi
    b432:	e8 bb ad ff ff       	callq  61f2 <safe_sub_func_int8_t_s_s>
    b437:	84 c0                	test   %al,%al
    b439:	74 11                	je     b44c <func_13+0x263b>
    b43b:	8b 85 18 f1 ff ff    	mov    -0xee8(%rbp),%eax
    b441:	85 c0                	test   %eax,%eax
    b443:	74 07                	je     b44c <func_13+0x263b>
    b445:	ba 01 00 00 00       	mov    $0x1,%edx
    b44a:	eb 05                	jmp    b451 <func_13+0x2640>
    b44c:	ba 00 00 00 00       	mov    $0x0,%edx
    b451:	48 8b 85 10 f2 ff ff 	mov    -0xdf0(%rbp),%rax
    b458:	8b 00                	mov    (%rax),%eax
    b45a:	21 c2                	and    %eax,%edx
    b45c:	48 8b 85 10 f2 ff ff 	mov    -0xdf0(%rbp),%rax
    b463:	89 10                	mov    %edx,(%rax)
    b465:	48 8b 05 94 ec 00 00 	mov    0xec94(%rip),%rax        # 1a100 <g_359>
    b46c:	48 c7 00 00 00 00 00 	movq   $0x0,(%rax)
    b473:	66 c7 85 38 f1 ff ff 	movw   $0x1,-0xec8(%rbp)
    b47a:	01 00 
    b47c:	48 8b 05 7d ec 00 00 	mov    0xec7d(%rip),%rax        # 1a100 <g_359>
    b483:	48 8d 95 48 f1 ff ff 	lea    -0xeb8(%rbp),%rdx
    b48a:	48 89 10             	mov    %rdx,(%rax)
    b48d:	eb 62                	jmp    b4f1 <func_13+0x26e0>
    b48f:	c7 85 94 f1 ff ff d3 	movl   $0x5b3c0cd3,-0xe6c(%rbp)
    b496:	0c 3c 5b 
    b499:	0f b7 85 24 f1 ff ff 	movzwl -0xedc(%rbp),%eax
    b4a0:	0f b7 c0             	movzwl %ax,%eax
    b4a3:	48 0d e2 dd 10 74    	or     $0x7410dde2,%rax
    b4a9:	48 89 c2             	mov    %rax,%rdx
    b4ac:	48 8b 85 70 f2 ff ff 	mov    -0xd90(%rbp),%rax
    b4b3:	48 8b 00             	mov    (%rax),%rax
    b4b6:	48 89 85 28 f2 ff ff 	mov    %rax,-0xdd8(%rbp)
    b4bd:	48 8d 05 4c ed 00 00 	lea    0xed4c(%rip),%rax        # 1a210 <g_364>
    b4c4:	48 39 85 28 f2 ff ff 	cmp    %rax,-0xdd8(%rbp)
    b4cb:	0f 95 c0             	setne  %al
    b4ce:	0f b6 c0             	movzbl %al,%eax
    b4d1:	48 39 c2             	cmp    %rax,%rdx
    b4d4:	0f 9c c0             	setl   %al
    b4d7:	0f b6 d0             	movzbl %al,%edx
    b4da:	8b 85 18 f1 ff ff    	mov    -0xee8(%rbp),%eax
    b4e0:	98                   	cwtl   
    b4e1:	89 d6                	mov    %edx,%esi
    b4e3:	89 c7                	mov    %eax,%edi
    b4e5:	e8 79 b0 ff ff       	callq  6563 <safe_rshift_func_int16_t_s_u>
    b4ea:	98                   	cwtl   
    b4eb:	89 85 94 f1 ff ff    	mov    %eax,-0xe6c(%rbp)
    b4f1:	8b 85 18 f1 ff ff    	mov    -0xee8(%rbp),%eax
    b4f7:	0d 63 99 00 00       	or     $0x9963,%eax
    b4fc:	48 63 d8             	movslq %eax,%rbx
    b4ff:	0f b7 85 24 f1 ff ff 	movzwl -0xedc(%rbp),%eax
    b506:	0f b6 c0             	movzbl %al,%eax
    b509:	be 04 00 00 00       	mov    $0x4,%esi
    b50e:	89 c7                	mov    %eax,%edi
    b510:	e8 37 b7 ff ff       	callq  6c4c <safe_lshift_func_uint8_t_u_u>
    b515:	84 c0                	test   %al,%al
    b517:	0f 94 c0             	sete   %al
    b51a:	0f b6 c0             	movzbl %al,%eax
    b51d:	48 39 c3             	cmp    %rax,%rbx
    b520:	0f 9c c0             	setl   %al
    b523:	0f b6 d8             	movzbl %al,%ebx
    b526:	be 0a 00 00 00       	mov    $0xa,%esi
    b52b:	bf 01 00 00 00       	mov    $0x1,%edi
    b530:	e8 45 b9 ff ff       	callq  6e7a <safe_rshift_func_uint16_t_u_u>
    b535:	89 c2                	mov    %eax,%edx
    b537:	48 8b 05 aa eb 00 00 	mov    0xebaa(%rip),%rax        # 1a0e8 <g_238>
    b53e:	88 10                	mov    %dl,(%rax)
    b540:	0f b6 00             	movzbl (%rax),%eax
    b543:	0f be c0             	movsbl %al,%eax
    b546:	89 de                	mov    %ebx,%esi
    b548:	89 c7                	mov    %eax,%edi
    b54a:	e8 85 ac ff ff       	callq  61d4 <safe_add_func_int8_t_s_s>
    b54f:	48 8b 05 8a eb 00 00 	mov    0xeb8a(%rip),%rax        # 1a0e0 <g_98>
    b556:	8b 00                	mov    (%rax),%eax
    b558:	85 c0                	test   %eax,%eax
    b55a:	0f 94 c0             	sete   %al
    b55d:	0f b6 c0             	movzbl %al,%eax
    b560:	48 39 85 78 f2 ff ff 	cmp    %rax,-0xd88(%rbp)
    b567:	0f 96 c0             	setbe  %al
    b56a:	0f b6 d0             	movzbl %al,%edx
    b56d:	0f b7 85 24 f1 ff ff 	movzwl -0xedc(%rbp),%eax
    b574:	0f b7 c0             	movzwl %ax,%eax
    b577:	21 c2                	and    %eax,%edx
    b579:	48 8b 85 38 f2 ff ff 	mov    -0xdc8(%rbp),%rax
    b580:	89 10                	mov    %edx,(%rax)
    b582:	48 8b 85 38 f2 ff ff 	mov    -0xdc8(%rbp),%rax
    b589:	8b 00                	mov    (%rax),%eax
    b58b:	0f b6 d0             	movzbl %al,%edx
    b58e:	0f b7 85 24 f1 ff ff 	movzwl -0xedc(%rbp),%eax
    b595:	0f b6 c0             	movzbl %al,%eax
    b598:	89 d6                	mov    %edx,%esi
    b59a:	89 c7                	mov    %eax,%edi
    b59c:	e8 f2 b5 ff ff       	callq  6b93 <safe_mul_func_uint8_t_u_u>
    b5a1:	48 8b 15 c8 ed 00 00 	mov    0xedc8(%rip),%rdx        # 1a370 <g_822>
    b5a8:	48 8b 0a             	mov    (%rdx),%rcx
    b5ab:	0f b6 d0             	movzbl %al,%edx
    b5ae:	48 8b 05 bb ed 00 00 	mov    0xedbb(%rip),%rax        # 1a370 <g_822>
    b5b5:	48 31 ca             	xor    %rcx,%rdx
    b5b8:	48 89 10             	mov    %rdx,(%rax)
    b5bb:	48 8b 00             	mov    (%rax),%rax
    b5be:	48 85 c0             	test   %rax,%rax
    b5c1:	75 0c                	jne    b5cf <func_13+0x27be>
    b5c3:	0f b7 85 24 f1 ff ff 	movzwl -0xedc(%rbp),%eax
    b5ca:	66 85 c0             	test   %ax,%ax
    b5cd:	74 07                	je     b5d6 <func_13+0x27c5>
    b5cf:	b8 01 00 00 00       	mov    $0x1,%eax
    b5d4:	eb 05                	jmp    b5db <func_13+0x27ca>
    b5d6:	b8 00 00 00 00       	mov    $0x0,%eax
    b5db:	85 c0                	test   %eax,%eax
    b5dd:	74 15                	je     b5f4 <func_13+0x27e3>
    b5df:	48 8b 85 28 f1 ff ff 	mov    -0xed8(%rbp),%rax
    b5e6:	0f b6 00             	movzbl (%rax),%eax
    b5e9:	84 c0                	test   %al,%al
    b5eb:	74 07                	je     b5f4 <func_13+0x27e3>
    b5ed:	b8 01 00 00 00       	mov    $0x1,%eax
    b5f2:	eb 05                	jmp    b5f9 <func_13+0x27e8>
    b5f4:	b8 00 00 00 00       	mov    $0x0,%eax
    b5f9:	89 c2                	mov    %eax,%edx
    b5fb:	48 8b 85 80 f2 ff ff 	mov    -0xd80(%rbp),%rax
    b602:	66 89 10             	mov    %dx,(%rax)
    b605:	48 8b 85 80 f2 ff ff 	mov    -0xd80(%rbp),%rax
    b60c:	0f b7 00             	movzwl (%rax),%eax
    b60f:	0f b7 d0             	movzwl %ax,%edx
    b612:	48 8b 05 ff d5 00 00 	mov    0xd5ff(%rip),%rax        # 18c18 <g_1300+0x318>
    b619:	48 39 c2             	cmp    %rax,%rdx
    b61c:	0f 9d c0             	setge  %al
    b61f:	0f b6 c0             	movzbl %al,%eax
    b622:	89 85 68 f3 ff ff    	mov    %eax,-0xc98(%rbp)
    b628:	48 8b 05 49 d7 00 00 	mov    0xd749(%rip),%rax        # 18d78 <g_1314>
    b62f:	be 05 00 00 00       	mov    $0x5,%esi
    b634:	48 89 c7             	mov    %rax,%rdi
    b637:	e8 05 b2 ff ff       	callq  6841 <safe_add_func_int64_t_s_s>
    b63c:	48 89 05 35 d7 00 00 	mov    %rax,0xd735(%rip)        # 18d78 <g_1314>
    b643:	48 8b 05 2e d7 00 00 	mov    0xd72e(%rip),%rax        # 18d78 <g_1314>
    b64a:	48 83 f8 19          	cmp    $0x19,%rax
    b64e:	0f 85 54 f7 ff ff    	jne    ada8 <func_13+0x1f97>
    b654:	e9 b9 01 00 00       	jmpq   b812 <func_13+0x2a01>
    b659:	48 8d 85 00 f4 ff ff 	lea    -0xc00(%rbp),%rax
    b660:	48 83 c0 27          	add    $0x27,%rax
    b664:	48 89 85 50 f2 ff ff 	mov    %rax,-0xdb0(%rbp)
    b66b:	48 8d 05 47 d2 00 00 	lea    0xd247(%rip),%rax        # 188b9 <g_1074>
    b672:	48 89 85 58 f2 ff ff 	mov    %rax,-0xda8(%rbp)
    b679:	c7 85 84 f1 ff ff 3f 	movl   $0xa400113f,-0xe7c(%rbp)
    b680:	11 00 a4 
    b683:	48 8b 85 38 f2 ff ff 	mov    -0xdc8(%rbp),%rax
    b68a:	8b 00                	mov    (%rax),%eax
    b68c:	0f b6 d8             	movzbl %al,%ebx
    b68f:	48 8b 85 c8 f6 ff ff 	mov    -0x938(%rbp),%rax
    b696:	41 89 c4             	mov    %eax,%r12d
    b699:	48 8b 05 d0 d6 00 00 	mov    0xd6d0(%rip),%rax        # 18d70 <g_1313>
    b6a0:	41 89 c5             	mov    %eax,%r13d
    b6a3:	8b 85 18 f1 ff ff    	mov    -0xee8(%rbp),%eax
    b6a9:	83 f8 01             	cmp    $0x1,%eax
    b6ac:	0f 97 c0             	seta   %al
    b6af:	0f b6 c0             	movzbl %al,%eax
    b6b2:	48 be 7b fb 4f 99 38 	movabs $0x44119938994ffb7b,%rsi
    b6b9:	99 11 44 
    b6bc:	48 89 c7             	mov    %rax,%rdi
    b6bf:	e8 eb b9 ff ff       	callq  70af <safe_div_func_uint64_t_u_u>
    b6c4:	0f b7 c0             	movzwl %ax,%eax
    b6c7:	44 89 ee             	mov    %r13d,%esi
    b6ca:	89 c7                	mov    %eax,%edi
    b6cc:	e8 ed b6 ff ff       	callq  6dbe <safe_lshift_func_uint16_t_u_s>
    b6d1:	0f b7 c0             	movzwl %ax,%eax
    b6d4:	be 01 00 00 00       	mov    $0x1,%esi
    b6d9:	89 c7                	mov    %eax,%edi
    b6db:	e8 1f b6 ff ff       	callq  6cff <safe_add_func_uint16_t_u_u>
    b6e0:	8b 85 18 f1 ff ff    	mov    -0xee8(%rbp),%eax
    b6e6:	48 98                	cltq   
    b6e8:	48 83 f8 fc          	cmp    $0xfffffffffffffffc,%rax
    b6ec:	0f 97 c0             	seta   %al
    b6ef:	0f b6 c0             	movzbl %al,%eax
    b6f2:	be 28 e5 17 3b       	mov    $0x3b17e528,%esi
    b6f7:	89 c7                	mov    %eax,%edi
    b6f9:	e8 ce af ff ff       	callq  66cc <safe_mod_func_int32_t_s_s>
    b6fe:	89 c2                	mov    %eax,%edx
    b700:	8b 85 18 f1 ff ff    	mov    -0xee8(%rbp),%eax
    b706:	89 d6                	mov    %edx,%esi
    b708:	89 c7                	mov    %eax,%edi
    b70a:	e8 98 11 00 00       	callq  c8a7 <func_27>
    b70f:	48 89 c2             	mov    %rax,%rdx
    b712:	0f b7 85 24 f1 ff ff 	movzwl -0xedc(%rbp),%eax
    b719:	0f b7 c0             	movzwl %ax,%eax
    b71c:	48 89 d6             	mov    %rdx,%rsi
    b71f:	89 c7                	mov    %eax,%edi
    b721:	e8 00 02 00 00       	callq  b926 <func_18>
    b726:	48 8b 05 cb ee 00 00 	mov    0xeecb(%rip),%rax        # 1a5f8 <g_2113>
    b72d:	48 8b 00             	mov    (%rax),%rax
    b730:	48 39 85 28 f1 ff ff 	cmp    %rax,-0xed8(%rbp)
    b737:	0f 95 c0             	setne  %al
    b73a:	0f b6 d0             	movzbl %al,%edx
    b73d:	8b 85 18 f1 ff ff    	mov    -0xee8(%rbp),%eax
    b743:	89 c1                	mov    %eax,%ecx
    b745:	48 8b 85 50 f2 ff ff 	mov    -0xdb0(%rbp),%rax
    b74c:	88 08                	mov    %cl,(%rax)
    b74e:	48 8b 85 58 f2 ff ff 	mov    -0xda8(%rbp),%rax
    b755:	0f b6 00             	movzbl (%rax),%eax
    b758:	21 c2                	and    %eax,%edx
    b75a:	48 8b 85 58 f2 ff ff 	mov    -0xda8(%rbp),%rax
    b761:	88 10                	mov    %dl,(%rax)
    b763:	0f b7 85 24 f1 ff ff 	movzwl -0xedc(%rbp),%eax
    b76a:	0f b7 d0             	movzwl %ax,%edx
    b76d:	8b 85 18 f1 ff ff    	mov    -0xee8(%rbp),%eax
    b773:	39 c2                	cmp    %eax,%edx
    b775:	0f 92 c0             	setb   %al
    b778:	0f b6 c0             	movzbl %al,%eax
    b77b:	44 89 e6             	mov    %r12d,%esi
    b77e:	89 c7                	mov    %eax,%edi
    b780:	e8 78 b7 ff ff       	callq  6efd <safe_mod_func_uint32_t_u_u>
    b785:	89 c0                	mov    %eax,%eax
    b787:	48 89 c7             	mov    %rax,%rdi
    b78a:	e8 8a b8 ff ff       	callq  7019 <safe_unary_minus_func_uint64_t_u>
    b78f:	0f b6 c0             	movzbl %al,%eax
    b792:	89 de                	mov    %ebx,%esi
    b794:	89 c7                	mov    %eax,%edi
    b796:	e8 bf b3 ff ff       	callq  6b5a <safe_add_func_uint8_t_u_u>
    b79b:	8b 95 c0 f3 ff ff    	mov    -0xc40(%rbp),%edx
    b7a1:	0f b6 c0             	movzbl %al,%eax
    b7a4:	21 d0                	and    %edx,%eax
    b7a6:	89 85 c0 f3 ff ff    	mov    %eax,-0xc40(%rbp)
    b7ac:	48 c7 05 11 d5 00 00 	movq   $0x0,0xd511(%rip)        # 18cc8 <g_1302>
    b7b3:	00 00 00 00 
    b7b7:	eb 29                	jmp    b7e2 <func_13+0x29d1>
    b7b9:	8b 85 18 f1 ff ff    	mov    -0xee8(%rbp),%eax
    b7bf:	85 c0                	test   %eax,%eax
    b7c1:	75 2e                	jne    b7f1 <func_13+0x29e0>
    b7c3:	48 8b 05 fe d4 00 00 	mov    0xd4fe(%rip),%rax        # 18cc8 <g_1302>
    b7ca:	98                   	cwtl   
    b7cb:	be 03 00 00 00       	mov    $0x3,%esi
    b7d0:	89 c7                	mov    %eax,%edi
    b7d2:	e8 dc ab ff ff       	callq  63b3 <safe_add_func_int16_t_s_s>
    b7d7:	48 0f bf c0          	movswq %ax,%rax
    b7db:	48 89 05 e6 d4 00 00 	mov    %rax,0xd4e6(%rip)        # 18cc8 <g_1302>
    b7e2:	48 8b 05 df d4 00 00 	mov    0xd4df(%rip),%rax        # 18cc8 <g_1302>
    b7e9:	48 83 f8 13          	cmp    $0x13,%rax
    b7ed:	7e ca                	jle    b7b9 <func_13+0x29a8>
    b7ef:	eb 01                	jmp    b7f2 <func_13+0x29e1>
    b7f1:	90                   	nop
    b7f2:	8b 05 68 c8 00 00    	mov    0xc868(%rip),%eax        # 18060 <g_99>
    b7f8:	85 c0                	test   %eax,%eax
    b7fa:	74 05                	je     b801 <func_13+0x29f0>
    b7fc:	e9 58 ee ff ff       	jmpq   a659 <func_13+0x1848>
    b801:	48 8b 05 f8 e8 00 00 	mov    0xe8f8(%rip),%rax        # 1a100 <g_359>
    b808:	48 c7 00 00 00 00 00 	movq   $0x0,(%rax)
    b80f:	eb 01                	jmp    b812 <func_13+0x2a01>
    b811:	90                   	nop
    b812:	48 8b 85 90 f7 ff ff 	mov    -0x870(%rbp),%rax
    b819:	48 89 85 a0 f1 ff ff 	mov    %rax,-0xe60(%rbp)
    b820:	48 c7 85 a0 f1 ff ff 	movq   $0x0,-0xe60(%rbp)
    b827:	00 00 00 00 
    b82b:	48 c7 05 c2 d0 00 00 	movq   $0x17,0xd0c2(%rip)        # 188f8 <g_1299>
    b832:	17 00 00 00 
    b836:	eb 35                	jmp    b86d <func_13+0x2a5c>
    b838:	66 c7 85 3e f1 ff ff 	movw   $0x86d7,-0xec2(%rbp)
    b83f:	d7 86 
    b841:	0f b7 85 3e f1 ff ff 	movzwl -0xec2(%rbp),%eax
    b848:	83 c0 01             	add    $0x1,%eax
    b84b:	66 89 85 3e f1 ff ff 	mov    %ax,-0xec2(%rbp)
    b852:	48 8b 05 9f d0 00 00 	mov    0xd09f(%rip),%rax        # 188f8 <g_1299>
    b859:	be 07 00 00 00       	mov    $0x7,%esi
    b85e:	48 89 c7             	mov    %rax,%rdi
    b861:	e8 db af ff ff       	callq  6841 <safe_add_func_int64_t_s_s>
    b866:	48 89 05 8b d0 00 00 	mov    %rax,0xd08b(%rip)        # 188f8 <g_1299>
    b86d:	48 8b 05 84 d0 00 00 	mov    0xd084(%rip),%rax        # 188f8 <g_1299>
    b874:	48 83 f8 19          	cmp    $0x19,%rax
    b878:	7f be                	jg     b838 <func_13+0x2a27>
    b87a:	eb 08                	jmp    b884 <func_13+0x2a73>
    b87c:	8b 85 18 f1 ff ff    	mov    -0xee8(%rbp),%eax
    b882:	eb 7c                	jmp    b900 <func_13+0x2aef>
    b884:	48 8b 05 55 e8 00 00 	mov    0xe855(%rip),%rax        # 1a0e0 <g_98>
    b88b:	8b 08                	mov    (%rax),%ecx
    b88d:	48 8b 95 30 f5 ff ff 	mov    -0xad0(%rbp),%rdx
    b894:	48 85 d2             	test   %rdx,%rdx
    b897:	0f 95 c2             	setne  %dl
    b89a:	0f b6 d2             	movzbl %dl,%edx
    b89d:	21 ca                	and    %ecx,%edx
    b89f:	89 10                	mov    %edx,(%rax)
    b8a1:	c7 05 c9 c7 00 00 10 	movl   $0x10,0xc7c9(%rip)        # 18074 <g_145>
    b8a8:	00 00 00 
    b8ab:	eb 42                	jmp    b8ef <func_13+0x2ade>
    b8ad:	48 8d 85 a0 f1 ff ff 	lea    -0xe60(%rbp),%rax
    b8b4:	48 89 85 a0 f2 ff ff 	mov    %rax,-0xd60(%rbp)
    b8bb:	48 8d 85 a0 f1 ff ff 	lea    -0xe60(%rbp),%rax
    b8c2:	48 89 85 a8 f2 ff ff 	mov    %rax,-0xd58(%rbp)
    b8c9:	48 8b 85 a0 f2 ff ff 	mov    -0xd60(%rbp),%rax
    b8d0:	48 89 85 a8 f2 ff ff 	mov    %rax,-0xd58(%rbp)
    b8d7:	8b 05 97 c7 00 00    	mov    0xc797(%rip),%eax        # 18074 <g_145>
    b8dd:	be 06 00 00 00       	mov    $0x6,%esi
    b8e2:	89 c7                	mov    %eax,%edi
    b8e4:	e8 cf b5 ff ff       	callq  6eb8 <safe_add_func_uint32_t_u_u>
    b8e9:	89 05 85 c7 00 00    	mov    %eax,0xc785(%rip)        # 18074 <g_145>
    b8ef:	8b 05 7f c7 00 00    	mov    0xc77f(%rip),%eax        # 18074 <g_145>
    b8f5:	83 f8 1e             	cmp    $0x1e,%eax
    b8f8:	77 b3                	ja     b8ad <func_13+0x2a9c>
    b8fa:	8b 85 18 f1 ff ff    	mov    -0xee8(%rbp),%eax
    b900:	48 8b 5d c8          	mov    -0x38(%rbp),%rbx
    b904:	64 48 33 1c 25 28 00 	xor    %fs:0x28,%rbx
    b90b:	00 00 
    b90d:	74 05                	je     b914 <func_13+0x2b03>
    b90f:	e8 5c a7 ff ff       	callq  6070 <__stack_chk_fail@plt>
    b914:	48 81 c4 c8 0e 00 00 	add    $0xec8,%rsp
    b91b:	5b                   	pop    %rbx
    b91c:	41 5c                	pop    %r12
    b91e:	41 5d                	pop    %r13
    b920:	41 5e                	pop    %r14
    b922:	41 5f                	pop    %r15
    b924:	5d                   	pop    %rbp
    b925:	c3                   	retq   

000000000000b926 <func_18>:
    b926:	f3 0f 1e fa          	endbr64 
    b92a:	55                   	push   %rbp
    b92b:	48 89 e5             	mov    %rsp,%rbp
    b92e:	41 55                	push   %r13
    b930:	41 54                	push   %r12
    b932:	53                   	push   %rbx
    b933:	48 81 ec 48 0a 00 00 	sub    $0xa48,%rsp
    b93a:	89 bd ac f5 ff ff    	mov    %edi,-0xa54(%rbp)
    b940:	48 89 b5 a0 f5 ff ff 	mov    %rsi,-0xa60(%rbp)
    b947:	64 48 8b 04 25 28 00 	mov    %fs:0x28,%rax
    b94e:	00 00 
    b950:	48 89 45 d8          	mov    %rax,-0x28(%rbp)
    b954:	31 c0                	xor    %eax,%eax
    b956:	66 c7 85 be f5 ff ff 	movw   $0x1274,-0xa42(%rbp)
    b95d:	74 12 
    b95f:	48 c7 85 f0 f5 ff ff 	movq   $0x0,-0xa10(%rbp)
    b966:	00 00 00 00 
    b96a:	48 8d 05 cf c6 00 00 	lea    0xc6cf(%rip),%rax        # 18040 <g_81>
    b971:	48 89 85 40 f7 ff ff 	mov    %rax,-0x8c0(%rbp)
    b978:	48 8d 05 c1 c6 00 00 	lea    0xc6c1(%rip),%rax        # 18040 <g_81>
    b97f:	48 89 85 48 f7 ff ff 	mov    %rax,-0x8b8(%rbp)
    b986:	48 8d 05 b3 c6 00 00 	lea    0xc6b3(%rip),%rax        # 18040 <g_81>
    b98d:	48 89 85 50 f7 ff ff 	mov    %rax,-0x8b0(%rbp)
    b994:	48 8d 05 a5 c6 00 00 	lea    0xc6a5(%rip),%rax        # 18040 <g_81>
    b99b:	48 89 85 58 f7 ff ff 	mov    %rax,-0x8a8(%rbp)
    b9a2:	48 8d 05 97 c6 00 00 	lea    0xc697(%rip),%rax        # 18040 <g_81>
    b9a9:	48 89 85 60 f7 ff ff 	mov    %rax,-0x8a0(%rbp)
    b9b0:	48 8d 05 89 c6 00 00 	lea    0xc689(%rip),%rax        # 18040 <g_81>
    b9b7:	48 89 85 68 f7 ff ff 	mov    %rax,-0x898(%rbp)
    b9be:	48 8d 05 7b c6 00 00 	lea    0xc67b(%rip),%rax        # 18040 <g_81>
    b9c5:	48 89 85 70 f7 ff ff 	mov    %rax,-0x890(%rbp)
    b9cc:	48 8d 05 6d c6 00 00 	lea    0xc66d(%rip),%rax        # 18040 <g_81>
    b9d3:	48 89 85 78 f7 ff ff 	mov    %rax,-0x888(%rbp)
    b9da:	48 8d 05 5f c6 00 00 	lea    0xc65f(%rip),%rax        # 18040 <g_81>
    b9e1:	48 89 85 80 f7 ff ff 	mov    %rax,-0x880(%rbp)
    b9e8:	48 8d 05 51 c6 00 00 	lea    0xc651(%rip),%rax        # 18040 <g_81>
    b9ef:	48 89 85 88 f7 ff ff 	mov    %rax,-0x878(%rbp)
    b9f6:	c7 85 cc f5 ff ff fb 	movl   $0xfffffffb,-0xa34(%rbp)
    b9fd:	ff ff ff 
    ba00:	48 8d 85 b0 f6 ff ff 	lea    -0x950(%rbp),%rax
    ba07:	48 83 c0 08          	add    $0x8,%rax
    ba0b:	48 89 85 f8 f5 ff ff 	mov    %rax,-0xa08(%rbp)
    ba12:	48 c7 85 80 f6 ff ff 	movq   $0x0,-0x980(%rbp)
    ba19:	00 00 00 00 
    ba1d:	48 c7 85 88 f6 ff ff 	movq   $0x0,-0x978(%rbp)
    ba24:	00 00 00 00 
    ba28:	48 c7 85 90 f6 ff ff 	movq   $0x0,-0x970(%rbp)
    ba2f:	00 00 00 00 
    ba33:	48 c7 85 98 f6 ff ff 	movq   $0x0,-0x968(%rbp)
    ba3a:	00 00 00 00 
    ba3e:	48 c7 85 a0 f6 ff ff 	movq   $0x0,-0x960(%rbp)
    ba45:	00 00 00 00 
    ba49:	48 c7 85 a8 f6 ff ff 	movq   $0x0,-0x958(%rbp)
    ba50:	00 00 00 00 
    ba54:	48 c7 85 00 f6 ff ff 	movq   $0x0,-0xa00(%rbp)
    ba5b:	00 00 00 00 
    ba5f:	48 c7 85 d8 f5 ff ff 	movq   $0x0,-0xa28(%rbp)
    ba66:	00 00 00 00 
    ba6a:	48 c7 85 08 f6 ff ff 	movq   $0x0,-0x9f8(%rbp)
    ba71:	00 00 00 00 
    ba75:	48 8d 05 44 fa 00 00 	lea    0xfa44(%rip),%rax        # 1b4c0 <g_1491>
    ba7c:	48 89 85 e0 f5 ff ff 	mov    %rax,-0xa20(%rbp)
    ba83:	48 8d 85 e0 f5 ff ff 	lea    -0xa20(%rbp),%rax
    ba8a:	48 89 85 10 f6 ff ff 	mov    %rax,-0x9f0(%rbp)
    ba91:	c7 85 d0 f5 ff ff 62 	movl   $0xcb2dc662,-0xa30(%rbp)
    ba98:	c6 2d cb 
    ba9b:	c6 85 bd f5 ff ff f9 	movb   $0xf9,-0xa43(%rbp)
    baa2:	48 8d 95 90 f7 ff ff 	lea    -0x870(%rbp),%rdx
    baa9:	b8 00 00 00 00       	mov    $0x0,%eax
    baae:	b9 0c 00 00 00       	mov    $0xc,%ecx
    bab3:	48 89 d7             	mov    %rdx,%rdi
    bab6:	f3 48 ab             	rep stos %rax,%es:(%rdi)
    bab9:	c7 85 90 f7 ff ff 08 	movl   $0x8,-0x870(%rbp)
    bac0:	00 00 00 
    bac3:	c7 85 98 f7 ff ff 63 	movl   $0xef3c4c63,-0x868(%rbp)
    baca:	4c 3c ef 
    bacd:	c7 85 a0 f7 ff ff 63 	movl   $0xef3c4c63,-0x860(%rbp)
    bad4:	4c 3c ef 
    bad7:	c7 85 a8 f7 ff ff 08 	movl   $0x8,-0x858(%rbp)
    bade:	00 00 00 
    bae1:	c7 85 b0 f7 ff ff 63 	movl   $0xef3c4c63,-0x850(%rbp)
    bae8:	4c 3c ef 
    baeb:	c7 85 b8 f7 ff ff 63 	movl   $0xef3c4c63,-0x848(%rbp)
    baf2:	4c 3c ef 
    baf5:	c7 85 c0 f7 ff ff 08 	movl   $0x8,-0x840(%rbp)
    bafc:	00 00 00 
    baff:	c7 85 c8 f7 ff ff 63 	movl   $0xef3c4c63,-0x838(%rbp)
    bb06:	4c 3c ef 
    bb09:	c7 85 d0 f7 ff ff 63 	movl   $0xef3c4c63,-0x830(%rbp)
    bb10:	4c 3c ef 
    bb13:	c7 85 d8 f7 ff ff 08 	movl   $0x8,-0x828(%rbp)
    bb1a:	00 00 00 
    bb1d:	c7 85 e0 f7 ff ff 63 	movl   $0xef3c4c63,-0x820(%rbp)
    bb24:	4c 3c ef 
    bb27:	c7 85 e8 f7 ff ff 63 	movl   $0xef3c4c63,-0x818(%rbp)
    bb2e:	4c 3c ef 
    bb31:	48 8d 05 c0 ea 00 00 	lea    0xeac0(%rip),%rax        # 1a5f8 <g_2113>
    bb38:	48 89 85 18 f6 ff ff 	mov    %rax,-0x9e8(%rbp)
    bb3f:	c7 85 c0 f5 ff ff 00 	movl   $0x0,-0xa40(%rbp)
    bb46:	00 00 00 
    bb49:	eb 1e                	jmp    bb69 <func_18+0x243>
    bb4b:	8b 85 c0 f5 ff ff    	mov    -0xa40(%rbp),%eax
    bb51:	48 98                	cltq   
    bb53:	48 8d 15 4e f9 00 00 	lea    0xf94e(%rip),%rdx        # 1b4a8 <g_772>
    bb5a:	48 89 94 c5 b0 f6 ff 	mov    %rdx,-0x950(%rbp,%rax,8)
    bb61:	ff 
    bb62:	83 85 c0 f5 ff ff 01 	addl   $0x1,-0xa40(%rbp)
    bb69:	83 bd c0 f5 ff ff 07 	cmpl   $0x7,-0xa40(%rbp)
    bb70:	7e d9                	jle    bb4b <func_18+0x225>
    bb72:	c7 85 c0 f5 ff ff 00 	movl   $0x0,-0xa40(%rbp)
    bb79:	00 00 00 
    bb7c:	eb 1e                	jmp    bb9c <func_18+0x276>
    bb7e:	8b 85 c0 f5 ff ff    	mov    -0xa40(%rbp),%eax
    bb84:	48 98                	cltq   
    bb86:	48 8d 15 ff cb 00 00 	lea    0xcbff(%rip),%rdx        # 1878c <g_286>
    bb8d:	48 89 94 c5 40 f6 ff 	mov    %rdx,-0x9c0(%rbp,%rax,8)
    bb94:	ff 
    bb95:	83 85 c0 f5 ff ff 01 	addl   $0x1,-0xa40(%rbp)
    bb9c:	83 bd c0 f5 ff ff 01 	cmpl   $0x1,-0xa40(%rbp)
    bba3:	7e d9                	jle    bb7e <func_18+0x258>
    bba5:	48 8b 05 64 e6 00 00 	mov    0xe664(%rip),%rax        # 1a210 <g_364>
    bbac:	48 8b 00             	mov    (%rax),%rax
    bbaf:	48 8b 00             	mov    (%rax),%rax
    bbb2:	8b 00                	mov    (%rax),%eax
    bbb4:	23 85 ac f5 ff ff    	and    -0xa54(%rbp),%eax
    bbba:	89 c2                	mov    %eax,%edx
    bbbc:	48 8b 05 4d e6 00 00 	mov    0xe64d(%rip),%rax        # 1a210 <g_364>
    bbc3:	48 8b 00             	mov    (%rax),%rax
    bbc6:	48 8b 00             	mov    (%rax),%rax
    bbc9:	89 10                	mov    %edx,(%rax)
    bbcb:	8b 00                	mov    (%rax),%eax
    bbcd:	89 c2                	mov    %eax,%edx
    bbcf:	0f b7 85 be f5 ff ff 	movzwl -0xa42(%rbp),%eax
    bbd6:	31 d0                	xor    %edx,%eax
    bbd8:	66 89 85 be f5 ff ff 	mov    %ax,-0xa42(%rbp)
    bbdf:	8b 05 63 d2 00 00    	mov    0xd263(%rip),%eax        # 18e48 <g_1960+0x68>
    bbe5:	89 85 cc f5 ff ff    	mov    %eax,-0xa34(%rbp)
    bbeb:	8b 85 cc f5 ff ff    	mov    -0xa34(%rbp),%eax
    bbf1:	89 05 65 c4 00 00    	mov    %eax,0xc465(%rip)        # 1805c <g_81+0x1c>
    bbf7:	0f b7 85 be f5 ff ff 	movzwl -0xa42(%rbp),%eax
    bbfe:	0f b6 d8             	movzbl %al,%ebx
    bc01:	0f b7 85 be f5 ff ff 	movzwl -0xa42(%rbp),%eax
    bc08:	44 0f b7 e0          	movzwl %ax,%r12d
    bc0c:	8b 85 cc f5 ff ff    	mov    -0xa34(%rbp),%eax
    bc12:	0f b7 c0             	movzwl %ax,%eax
    bc15:	89 c6                	mov    %eax,%esi
    bc17:	bf 01 00 00 00       	mov    $0x1,%edi
    bc1c:	e8 3b b1 ff ff       	callq  6d5c <safe_mod_func_uint16_t_u_u>
    bc21:	0f b7 c0             	movzwl %ax,%eax
    bc24:	44 89 e6             	mov    %r12d,%esi
    bc27:	89 c7                	mov    %eax,%edi
    bc29:	e8 d8 b1 ff ff       	callq  6e06 <safe_lshift_func_uint16_t_u_u>
    bc2e:	0f b7 95 be f5 ff ff 	movzwl -0xa42(%rbp),%edx
    bc35:	21 d0                	and    %edx,%eax
    bc37:	0f b7 c8             	movzwl %ax,%ecx
    bc3a:	48 8b 15 2f e7 00 00 	mov    0xe72f(%rip),%rdx        # 1a370 <g_822>
    bc41:	48 8b 02             	mov    (%rdx),%rax
    bc44:	48 8d 70 ff          	lea    -0x1(%rax),%rsi
    bc48:	48 89 32             	mov    %rsi,(%rdx)
    bc4b:	48 85 c0             	test   %rax,%rax
    bc4e:	74 07                	je     bc57 <func_18+0x331>
    bc50:	b8 01 00 00 00       	mov    $0x1,%eax
    bc55:	eb 05                	jmp    bc5c <func_18+0x336>
    bc57:	b8 00 00 00 00       	mov    $0x0,%eax
    bc5c:	0f b7 c0             	movzwl %ax,%eax
    bc5f:	89 ce                	mov    %ecx,%esi
    bc61:	89 c7                	mov    %eax,%edi
    bc63:	e8 9e b1 ff ff       	callq  6e06 <safe_lshift_func_uint16_t_u_u>
    bc68:	83 c8 96             	or     $0xffffff96,%eax
    bc6b:	0f b6 d0             	movzbl %al,%edx
    bc6e:	8b 05 34 cb 00 00    	mov    0xcb34(%rip),%eax        # 187a8 <g_394>
    bc74:	85 c0                	test   %eax,%eax
    bc76:	0f 94 c0             	sete   %al
    bc79:	0f b6 c0             	movzbl %al,%eax
    bc7c:	89 d6                	mov    %edx,%esi
    bc7e:	89 c7                	mov    %eax,%edi
    bc80:	e8 f3 ae ff ff       	callq  6b78 <safe_sub_func_uint8_t_u_u>
    bc85:	0f b6 c0             	movzbl %al,%eax
    bc88:	89 de                	mov    %ebx,%esi
    bc8a:	89 c7                	mov    %eax,%edi
    bc8c:	e8 02 af ff ff       	callq  6b93 <safe_mul_func_uint8_t_u_u>
    bc91:	be fd 00 00 00       	mov    $0xfd,%esi
    bc96:	bf 00 00 00 00       	mov    $0x0,%edi
    bc9b:	e8 f3 ae ff ff       	callq  6b93 <safe_mul_func_uint8_t_u_u>
    bca0:	b9 01 00 00 00       	mov    $0x1,%ecx
    bca5:	48 8b 05 4c e4 00 00 	mov    0xe44c(%rip),%rax        # 1a0f8 <g_360>
    bcac:	8b 10                	mov    (%rax),%edx
    bcae:	48 8b 05 43 e4 00 00 	mov    0xe443(%rip),%rax        # 1a0f8 <g_360>
    bcb5:	31 ca                	xor    %ecx,%edx
    bcb7:	89 10                	mov    %edx,(%rax)
    bcb9:	0f b7 85 be f5 ff ff 	movzwl -0xa42(%rbp),%eax
    bcc0:	44 0f b7 e0          	movzwl %ax,%r12d
    bcc4:	0f b7 85 be f5 ff ff 	movzwl -0xa42(%rbp),%eax
    bccb:	0f b7 d8             	movzwl %ax,%ebx
    bcce:	8b 85 ac f5 ff ff    	mov    -0xa54(%rbp),%eax
    bcd4:	89 c6                	mov    %eax,%esi
    bcd6:	bf 15 8e 00 00       	mov    $0x8e15,%edi
    bcdb:	e8 9a b1 ff ff       	callq  6e7a <safe_rshift_func_uint16_t_u_u>
    bce0:	44 0f b7 e8          	movzwl %ax,%r13d
    bce4:	48 c7 c7 fe ff ff ff 	mov    $0xfffffffffffffffe,%rdi
    bceb:	e8 29 b3 ff ff       	callq  7019 <safe_unary_minus_func_uint64_t_u>
    bcf0:	48 8d 15 55 c3 00 00 	lea    0xc355(%rip),%rdx        # 1804c <g_81+0xc>
    bcf7:	48 89 15 ca f0 00 00 	mov    %rdx,0xf0ca(%rip)        # 1adc8 <g_2248>
    bcfe:	48 8b 15 c3 f0 00 00 	mov    0xf0c3(%rip),%rdx        # 1adc8 <g_2248>
    bd05:	48 8d 0d 50 c3 00 00 	lea    0xc350(%rip),%rcx        # 1805c <g_81+0x1c>
    bd0c:	48 39 ca             	cmp    %rcx,%rdx
    bd0f:	0f 95 c2             	setne  %dl
    bd12:	0f b6 d2             	movzbl %dl,%edx
    bd15:	39 95 ac f5 ff ff    	cmp    %edx,-0xa54(%rbp)
    bd1b:	0f 92 c2             	setb   %dl
    bd1e:	0f b6 d2             	movzbl %dl,%edx
    bd21:	48 31 d0             	xor    %rdx,%rax
    bd24:	4c 89 e9             	mov    %r13,%rcx
    bd27:	48 21 c1             	and    %rax,%rcx
    bd2a:	48 8b 05 3f e6 00 00 	mov    0xe63f(%rip),%rax        # 1a370 <g_822>
    bd31:	48 8b 10             	mov    (%rax),%rdx
    bd34:	48 83 ea 01          	sub    $0x1,%rdx
    bd38:	48 89 10             	mov    %rdx,(%rax)
    bd3b:	48 8b 00             	mov    (%rax),%rax
    bd3e:	48 39 c1             	cmp    %rax,%rcx
    bd41:	0f 95 c0             	setne  %al
    bd44:	0f b6 c0             	movzbl %al,%eax
    bd47:	89 85 cc f5 ff ff    	mov    %eax,-0xa34(%rbp)
    bd4d:	8b 85 cc f5 ff ff    	mov    -0xa34(%rbp),%eax
    bd53:	89 de                	mov    %ebx,%esi
    bd55:	89 c7                	mov    %eax,%edi
    bd57:	e8 5c b1 ff ff       	callq  6eb8 <safe_add_func_uint32_t_u_u>
    bd5c:	44 21 e0             	and    %r12d,%eax
    bd5f:	85 c0                	test   %eax,%eax
    bd61:	74 14                	je     bd77 <func_18+0x451>
    bd63:	48 8b 05 8e e3 00 00 	mov    0xe38e(%rip),%rax        # 1a0f8 <g_360>
    bd6a:	8b 95 ac f5 ff ff    	mov    -0xa54(%rbp),%edx
    bd70:	89 10                	mov    %edx,(%rax)
    bd72:	e9 d6 04 00 00       	jmpq   c24d <func_18+0x927>
    bd77:	48 8d 85 f0 f7 ff ff 	lea    -0x810(%rbp),%rax
    bd7e:	48 8d 15 bb d4 00 00 	lea    0xd4bb(%rip),%rdx        # 19240 <g_3189+0x1a8>
    bd85:	b9 fc 00 00 00       	mov    $0xfc,%ecx
    bd8a:	48 89 c7             	mov    %rax,%rdi
    bd8d:	48 89 d6             	mov    %rdx,%rsi
    bd90:	f3 48 a5             	rep movsq %ds:(%rsi),%es:(%rdi)
    bd93:	48 8d 85 f0 f7 ff ff 	lea    -0x810(%rbp),%rax
    bd9a:	48 05 70 02 00 00    	add    $0x270,%rax
    bda0:	48 89 85 f0 f6 ff ff 	mov    %rax,-0x910(%rbp)
    bda7:	48 8d 85 f0 f7 ff ff 	lea    -0x810(%rbp),%rax
    bdae:	48 05 a8 07 00 00    	add    $0x7a8,%rax
    bdb4:	48 89 85 f8 f6 ff ff 	mov    %rax,-0x908(%rbp)
    bdbb:	48 8d 85 f0 f7 ff ff 	lea    -0x810(%rbp),%rax
    bdc2:	48 05 a8 07 00 00    	add    $0x7a8,%rax
    bdc8:	48 89 85 00 f7 ff ff 	mov    %rax,-0x900(%rbp)
    bdcf:	48 8d 85 f0 f7 ff ff 	lea    -0x810(%rbp),%rax
    bdd6:	48 05 70 02 00 00    	add    $0x270,%rax
    bddc:	48 89 85 08 f7 ff ff 	mov    %rax,-0x8f8(%rbp)
    bde3:	48 8d 85 f0 f7 ff ff 	lea    -0x810(%rbp),%rax
    bdea:	48 05 a8 07 00 00    	add    $0x7a8,%rax
    bdf0:	48 89 85 10 f7 ff ff 	mov    %rax,-0x8f0(%rbp)
    bdf7:	48 8d 85 f0 f7 ff ff 	lea    -0x810(%rbp),%rax
    bdfe:	48 05 a8 07 00 00    	add    $0x7a8,%rax
    be04:	48 89 85 18 f7 ff ff 	mov    %rax,-0x8e8(%rbp)
    be0b:	48 8d 85 f0 f7 ff ff 	lea    -0x810(%rbp),%rax
    be12:	48 05 70 02 00 00    	add    $0x270,%rax
    be18:	48 89 85 20 f7 ff ff 	mov    %rax,-0x8e0(%rbp)
    be1f:	48 8d 85 f0 f7 ff ff 	lea    -0x810(%rbp),%rax
    be26:	48 05 a8 07 00 00    	add    $0x7a8,%rax
    be2c:	48 89 85 28 f7 ff ff 	mov    %rax,-0x8d8(%rbp)
    be33:	48 8d 85 f0 f7 ff ff 	lea    -0x810(%rbp),%rax
    be3a:	48 05 a8 07 00 00    	add    $0x7a8,%rax
    be40:	48 89 85 30 f7 ff ff 	mov    %rax,-0x8d0(%rbp)
    be47:	c7 85 50 f6 ff ff ff 	movl   $0xffffffff,-0x9b0(%rbp)
    be4e:	ff ff ff 
    be51:	c7 85 54 f6 ff ff ff 	movl   $0xffffffff,-0x9ac(%rbp)
    be58:	ff ff ff 
    be5b:	c7 85 58 f6 ff ff ff 	movl   $0xffffffff,-0x9a8(%rbp)
    be62:	ff ff ff 
    be65:	c7 85 5c f6 ff ff ff 	movl   $0xffffffff,-0x9a4(%rbp)
    be6c:	ff ff ff 
    be6f:	48 c7 85 20 f6 ff ff 	movq   $0x0,-0x9e0(%rbp)
    be76:	00 00 00 00 
    be7a:	48 c7 85 e8 f5 ff ff 	movq   $0x0,-0xa18(%rbp)
    be81:	00 00 00 00 
    be85:	48 8d 85 e8 f5 ff ff 	lea    -0xa18(%rbp),%rax
    be8c:	48 89 85 28 f6 ff ff 	mov    %rax,-0x9d8(%rbp)
    be93:	c7 85 d4 f5 ff ff c2 	movl   $0x9b3f4bc2,-0xa2c(%rbp)
    be9a:	4b 3f 9b 
    be9d:	c7 85 c4 f5 ff ff 00 	movl   $0x0,-0xa3c(%rbp)
    bea4:	00 00 00 
    bea7:	eb 22                	jmp    becb <func_18+0x5a5>
    bea9:	8b 85 c4 f5 ff ff    	mov    -0xa3c(%rbp),%eax
    beaf:	48 98                	cltq   
    beb1:	48 8d 95 f0 f6 ff ff 	lea    -0x910(%rbp),%rdx
    beb8:	48 83 c2 08          	add    $0x8,%rdx
    bebc:	48 89 94 c5 60 f6 ff 	mov    %rdx,-0x9a0(%rbp,%rax,8)
    bec3:	ff 
    bec4:	83 85 c4 f5 ff ff 01 	addl   $0x1,-0xa3c(%rbp)
    becb:	83 bd c4 f5 ff ff 02 	cmpl   $0x2,-0xa3c(%rbp)
    bed2:	7e d5                	jle    bea9 <func_18+0x583>
    bed4:	c7 85 c4 f5 ff ff 00 	movl   $0x0,-0xa3c(%rbp)
    bedb:	00 00 00 
    bede:	eb 1e                	jmp    befe <func_18+0x5d8>
    bee0:	8b 85 c4 f5 ff ff    	mov    -0xa3c(%rbp),%eax
    bee6:	48 98                	cltq   
    bee8:	48 8d 15 79 c1 00 00 	lea    0xc179(%rip),%rdx        # 18068 <g_141>
    beef:	48 89 94 c5 30 f6 ff 	mov    %rdx,-0x9d0(%rbp,%rax,8)
    bef6:	ff 
    bef7:	83 85 c4 f5 ff ff 01 	addl   $0x1,-0xa3c(%rbp)
    befe:	83 bd c4 f5 ff ff 00 	cmpl   $0x0,-0xa3c(%rbp)
    bf05:	7e d9                	jle    bee0 <func_18+0x5ba>
    bf07:	c7 85 c4 f5 ff ff 00 	movl   $0x0,-0xa3c(%rbp)
    bf0e:	00 00 00 
    bf11:	eb 46                	jmp    bf59 <func_18+0x633>
    bf13:	c7 85 c8 f5 ff ff 00 	movl   $0x0,-0xa38(%rbp)
    bf1a:	00 00 00 
    bf1d:	eb 2a                	jmp    bf49 <func_18+0x623>
    bf1f:	8b 85 c8 f5 ff ff    	mov    -0xa38(%rbp),%eax
    bf25:	48 63 d0             	movslq %eax,%rdx
    bf28:	8b 85 c4 f5 ff ff    	mov    -0xa3c(%rbp),%eax
    bf2e:	48 98                	cltq   
    bf30:	48 01 d0             	add    %rdx,%rax
    bf33:	48 8d 15 ae c9 00 00 	lea    0xc9ae(%rip),%rdx        # 188e8 <g_1297>
    bf3a:	48 89 94 c5 38 f6 ff 	mov    %rdx,-0x9c8(%rbp,%rax,8)
    bf41:	ff 
    bf42:	83 85 c8 f5 ff ff 01 	addl   $0x1,-0xa38(%rbp)
    bf49:	83 bd c8 f5 ff ff 00 	cmpl   $0x0,-0xa38(%rbp)
    bf50:	7e cd                	jle    bf1f <func_18+0x5f9>
    bf52:	83 85 c4 f5 ff ff 01 	addl   $0x1,-0xa3c(%rbp)
    bf59:	83 bd c4 f5 ff ff 00 	cmpl   $0x0,-0xa3c(%rbp)
    bf60:	7e b1                	jle    bf13 <func_18+0x5ed>
    bf62:	8b 9d ac f5 ff ff    	mov    -0xa54(%rbp),%ebx
    bf68:	8b 85 ac f5 ff ff    	mov    -0xa54(%rbp),%eax
    bf6e:	83 f0 01             	xor    $0x1,%eax
    bf71:	89 85 cc f5 ff ff    	mov    %eax,-0xa34(%rbp)
    bf77:	44 8b a5 ac f5 ff ff 	mov    -0xa54(%rbp),%r12d
    bf7e:	48 8b 85 08 f6 ff ff 	mov    -0x9f8(%rbp),%rax
    bf85:	48 89 85 10 f6 ff ff 	mov    %rax,-0x9f0(%rbp)
    bf8c:	48 8b 85 10 f6 ff ff 	mov    -0x9f0(%rbp),%rax
    bf93:	48 3b 85 08 f6 ff ff 	cmp    -0x9f8(%rbp),%rax
    bf9a:	0f 95 c0             	setne  %al
    bf9d:	0f b6 c8             	movzbl %al,%ecx
    bfa0:	0f b7 85 be f5 ff ff 	movzwl -0xa42(%rbp),%eax
    bfa7:	0f b7 c0             	movzwl %ax,%eax
    bfaa:	39 85 ac f5 ff ff    	cmp    %eax,-0xa54(%rbp)
    bfb0:	0f 95 c2             	setne  %dl
    bfb3:	48 8b 05 b6 e3 00 00 	mov    0xe3b6(%rip),%rax        # 1a370 <g_822>
    bfba:	0f b6 d2             	movzbl %dl,%edx
    bfbd:	48 89 10             	mov    %rdx,(%rax)
    bfc0:	48 8b 00             	mov    (%rax),%rax
    bfc3:	48 39 c1             	cmp    %rax,%rcx
    bfc6:	0f 95 c0             	setne  %al
    bfc9:	0f b6 c0             	movzbl %al,%eax
    bfcc:	48 be cb 66 58 10 e2 	movabs $0x1ab0fae2105866cb,%rsi
    bfd3:	fa b0 1a 
    bfd6:	48 89 c7             	mov    %rax,%rdi
    bfd9:	e8 6d b0 ff ff       	callq  704b <safe_sub_func_uint64_t_u_u>
    bfde:	49 39 c4             	cmp    %rax,%r12
    bfe1:	0f 97 c0             	seta   %al
    bfe4:	0f b6 c0             	movzbl %al,%eax
    bfe7:	89 85 58 f6 ff ff    	mov    %eax,-0x9a8(%rbp)
    bfed:	8b 85 58 f6 ff ff    	mov    -0x9a8(%rbp),%eax
    bff3:	39 85 cc f5 ff ff    	cmp    %eax,-0xa34(%rbp)
    bff9:	0f 95 c0             	setne  %al
    bffc:	0f b6 c0             	movzbl %al,%eax
    bfff:	21 85 d0 f5 ff ff    	and    %eax,-0xa30(%rbp)
    c005:	8b 85 d0 f5 ff ff    	mov    -0xa30(%rbp),%eax
    c00b:	98                   	cwtl   
    c00c:	89 de                	mov    %ebx,%esi
    c00e:	89 c7                	mov    %eax,%edi
    c010:	e8 7d a4 ff ff       	callq  6492 <safe_lshift_func_int16_t_s_s>
    c015:	98                   	cwtl   
    c016:	be d2 a2 ff ff       	mov    $0xffffa2d2,%esi
    c01b:	89 c7                	mov    %eax,%edi
    c01d:	e8 91 a3 ff ff       	callq  63b3 <safe_add_func_int16_t_s_s>
    c022:	0f b6 d0             	movzbl %al,%edx
    c025:	0f b7 85 be f5 ff ff 	movzwl -0xa42(%rbp),%eax
    c02c:	0f b6 c0             	movzbl %al,%eax
    c02f:	89 d6                	mov    %edx,%esi
    c031:	89 c7                	mov    %eax,%edi
    c033:	e8 40 ab ff ff       	callq  6b78 <safe_sub_func_uint8_t_u_u>
    c038:	48 8b 15 c1 e0 00 00 	mov    0xe0c1(%rip),%rdx        # 1a100 <g_359>
    c03f:	48 8b 12             	mov    (%rdx),%rdx
    c042:	8b 0a                	mov    (%rdx),%ecx
    c044:	0f b6 d0             	movzbl %al,%edx
    c047:	48 8b 05 b2 e0 00 00 	mov    0xe0b2(%rip),%rax        # 1a100 <g_359>
    c04e:	48 8b 00             	mov    (%rax),%rax
    c051:	09 ca                	or     %ecx,%edx
    c053:	89 10                	mov    %edx,(%rax)
    c055:	8b 85 58 f6 ff ff    	mov    -0x9a8(%rbp),%eax
    c05b:	89 c3                	mov    %eax,%ebx
    c05d:	48 8b 05 a4 e3 00 00 	mov    0xe3a4(%rip),%rax        # 1a408 <g_1230>
    c064:	48 8b 00             	mov    (%rax),%rax
    c067:	48 85 c0             	test   %rax,%rax
    c06a:	48 8b 05 9f e1 00 00 	mov    0xe19f(%rip),%rax        # 1a210 <g_364>
    c071:	48 8b 00             	mov    (%rax),%rax
    c074:	48 8b 00             	mov    (%rax),%rax
    c077:	8b 00                	mov    (%rax),%eax
    c079:	41 89 c4             	mov    %eax,%r12d
    c07c:	48 8b 15 85 cc 00 00 	mov    0xcc85(%rip),%rdx        # 18d08 <g_1307+0x8>
    c083:	48 8b 05 7e e3 00 00 	mov    0xe37e(%rip),%rax        # 1a408 <g_1230>
    c08a:	48 8b 00             	mov    (%rax),%rax
    c08d:	48 8b 00             	mov    (%rax),%rax
    c090:	48 21 d0             	and    %rdx,%rax
    c093:	48 89 05 6e cc 00 00 	mov    %rax,0xcc6e(%rip)        # 18d08 <g_1307+0x8>
    c09a:	48 8b 05 67 e3 00 00 	mov    0xe367(%rip),%rax        # 1a408 <g_1230>
    c0a1:	48 8b 00             	mov    (%rax),%rax
    c0a4:	48 8b 00             	mov    (%rax),%rax
    c0a7:	be 08 00 00 00       	mov    $0x8,%esi
    c0ac:	48 89 c7             	mov    %rax,%rdi
    c0af:	e8 00 a9 ff ff       	callq  69b4 <safe_mod_func_int64_t_s_s>
    c0b4:	8b 95 58 f6 ff ff    	mov    -0x9a8(%rbp),%edx
    c0ba:	48 63 d2             	movslq %edx,%rdx
    c0bd:	48 39 d0             	cmp    %rdx,%rax
    c0c0:	0f 9d c0             	setge  %al
    c0c3:	0f b6 d0             	movzbl %al,%edx
    c0c6:	48 8b 85 a0 f5 ff ff 	mov    -0xa60(%rbp),%rax
    c0cd:	0f b6 00             	movzbl (%rax),%eax
    c0d0:	0f be c0             	movsbl %al,%eax
    c0d3:	89 d6                	mov    %edx,%esi
    c0d5:	89 c7                	mov    %eax,%edi
    c0d7:	e8 16 a1 ff ff       	callq  61f2 <safe_sub_func_int8_t_s_s>
    c0dc:	8b 85 ac f5 ff ff    	mov    -0xa54(%rbp),%eax
    c0e2:	44 89 e6             	mov    %r12d,%esi
    c0e5:	89 c7                	mov    %eax,%edi
    c0e7:	e8 39 ae ff ff       	callq  6f25 <safe_div_func_uint32_t_u_u>
    c0ec:	0f b7 c0             	movzwl %ax,%eax
    c0ef:	be 63 7f 00 00       	mov    $0x7f63,%esi
    c0f4:	89 c7                	mov    %eax,%edi
    c0f6:	e8 24 ac ff ff       	callq  6d1f <safe_sub_func_uint16_t_u_u>
    c0fb:	66 3d 90 00          	cmp    $0x90,%ax
    c0ff:	48 8b 05 da df 00 00 	mov    0xdfda(%rip),%rax        # 1a0e0 <g_98>
    c106:	8b 00                	mov    (%rax),%eax
    c108:	f7 d0                	not    %eax
    c10a:	c1 e8 1f             	shr    $0x1f,%eax
    c10d:	0f b6 d0             	movzbl %al,%edx
    c110:	0f b6 85 bd f5 ff ff 	movzbl -0xa43(%rbp),%eax
    c117:	39 c2                	cmp    %eax,%edx
    c119:	0f 9d c0             	setge  %al
    c11c:	0f b6 c0             	movzbl %al,%eax
    c11f:	89 85 d0 f5 ff ff    	mov    %eax,-0xa30(%rbp)
    c125:	0f b6 85 bd f5 ff ff 	movzbl -0xa43(%rbp),%eax
    c12c:	39 85 d0 f5 ff ff    	cmp    %eax,-0xa30(%rbp)
    c132:	0f 95 c0             	setne  %al
    c135:	0f b6 c0             	movzbl %al,%eax
    c138:	89 de                	mov    %ebx,%esi
    c13a:	89 c7                	mov    %eax,%edi
    c13c:	e8 bc ad ff ff       	callq  6efd <safe_mod_func_uint32_t_u_u>
    c141:	0f b6 c0             	movzbl %al,%eax
    c144:	be 03 00 00 00       	mov    $0x3,%esi
    c149:	89 c7                	mov    %eax,%edi
    c14b:	e8 43 aa ff ff       	callq  6b93 <safe_mul_func_uint8_t_u_u>
    c150:	0f b6 c0             	movzbl %al,%eax
    c153:	8b 95 ac f5 ff ff    	mov    -0xa54(%rbp),%edx
    c159:	89 d6                	mov    %edx,%esi
    c15b:	89 c7                	mov    %eax,%edi
    c15d:	e8 c3 ad ff ff       	callq  6f25 <safe_div_func_uint32_t_u_u>
    c162:	39 85 ac f5 ff ff    	cmp    %eax,-0xa54(%rbp)
    c168:	48 8b 05 a1 e0 00 00 	mov    0xe0a1(%rip),%rax        # 1a210 <g_364>
    c16f:	48 8b 00             	mov    (%rax),%rax
    c172:	48 8b 00             	mov    (%rax),%rax
    c175:	c7 00 00 00 00 00    	movl   $0x0,(%rax)
    c17b:	8b 85 58 f6 ff ff    	mov    -0x9a8(%rbp),%eax
    c181:	0f bf d8             	movswl %ax,%ebx
    c184:	48 8b 85 20 f6 ff ff 	mov    -0x9e0(%rbp),%rax
    c18b:	48 3b 85 18 f6 ff ff 	cmp    -0x9e8(%rbp),%rax
    c192:	0f 95 c0             	setne  %al
    c195:	0f b6 c0             	movzbl %al,%eax
    c198:	be fb 00 00 00       	mov    $0xfb,%esi
    c19d:	89 c7                	mov    %eax,%edi
    c19f:	e8 0a aa ff ff       	callq  6bae <safe_mod_func_uint8_t_u_u>
    c1a4:	0f b6 c0             	movzbl %al,%eax
    c1a7:	8b 95 58 f6 ff ff    	mov    -0x9a8(%rbp),%edx
    c1ad:	81 f2 ff ff 00 00    	xor    $0xffff,%edx
    c1b3:	89 c6                	mov    %eax,%esi
    c1b5:	89 d7                	mov    %edx,%edi
    c1b7:	e8 41 ad ff ff       	callq  6efd <safe_mod_func_uint32_t_u_u>
    c1bc:	89 c2                	mov    %eax,%edx
    c1be:	48 8b 05 3b df 00 00 	mov    0xdf3b(%rip),%rax        # 1a100 <g_359>
    c1c5:	48 8b 00             	mov    (%rax),%rax
    c1c8:	89 10                	mov    %edx,(%rax)
    c1ca:	8b 00                	mov    (%rax),%eax
    c1cc:	4c 63 e0             	movslq %eax,%r12
    c1cf:	48 8d 85 e8 f5 ff ff 	lea    -0xa18(%rbp),%rax
    c1d6:	48 39 85 28 f6 ff ff 	cmp    %rax,-0x9d8(%rbp)
    c1dd:	0f 95 c0             	setne  %al
    c1e0:	0f b6 c0             	movzbl %al,%eax
    c1e3:	48 89 c7             	mov    %rax,%rdi
    c1e6:	e8 2b a6 ff ff       	callq  6816 <safe_unary_minus_func_int64_t_s>
    c1eb:	49 39 c4             	cmp    %rax,%r12
    c1ee:	0f 9f c0             	setg   %al
    c1f1:	0f b6 c0             	movzbl %al,%eax
    c1f4:	31 85 cc f5 ff ff    	xor    %eax,-0xa34(%rbp)
    c1fa:	8b 85 cc f5 ff ff    	mov    -0xa34(%rbp),%eax
    c200:	98                   	cwtl   
    c201:	89 de                	mov    %ebx,%esi
    c203:	89 c7                	mov    %eax,%edi
    c205:	e8 eb a1 ff ff       	callq  63f5 <safe_mul_func_int16_t_s_s>
    c20a:	89 c2                	mov    %eax,%edx
    c20c:	48 8b 05 e5 e3 00 00 	mov    0xe3e5(%rip),%rax        # 1a5f8 <g_2113>
    c213:	48 8b 00             	mov    (%rax),%rax
    c216:	88 10                	mov    %dl,(%rax)
    c218:	0f b6 00             	movzbl (%rax),%eax
    c21b:	0f be c0             	movsbl %al,%eax
    c21e:	89 c6                	mov    %eax,%esi
    c220:	bf 1e 00 00 00       	mov    $0x1e,%edi
    c225:	e8 e8 9f ff ff       	callq  6212 <safe_mul_func_int8_t_s_s>
    c22a:	0f be c0             	movsbl %al,%eax
    c22d:	be f9 ff ff ff       	mov    $0xfffffff9,%esi
    c232:	89 c7                	mov    %eax,%edi
    c234:	e8 cc a3 ff ff       	callq  6605 <safe_sub_func_int32_t_s_s>
    c239:	98                   	cwtl   
    c23a:	be 04 00 00 00       	mov    $0x4,%esi
    c23f:	89 c7                	mov    %eax,%edi
    c241:	e8 9b a2 ff ff       	callq  64e1 <safe_lshift_func_int16_t_s_u>
    c246:	98                   	cwtl   
    c247:	21 85 d4 f5 ff ff    	and    %eax,-0xa2c(%rbp)
    c24d:	48 8b 85 a0 f7 ff ff 	mov    -0x860(%rbp),%rax
    c254:	48 8b 5d d8          	mov    -0x28(%rbp),%rbx
    c258:	64 48 33 1c 25 28 00 	xor    %fs:0x28,%rbx
    c25f:	00 00 
    c261:	74 05                	je     c268 <func_18+0x942>
    c263:	e8 08 9e ff ff       	callq  6070 <__stack_chk_fail@plt>
    c268:	48 81 c4 48 0a 00 00 	add    $0xa48,%rsp
    c26f:	5b                   	pop    %rbx
    c270:	41 5c                	pop    %r12
    c272:	41 5d                	pop    %r13
    c274:	5d                   	pop    %rbp
    c275:	c3                   	retq   

000000000000c276 <func_21>:
    c276:	f3 0f 1e fa          	endbr64 
    c27a:	55                   	push   %rbp
    c27b:	48 89 e5             	mov    %rsp,%rbp
    c27e:	41 55                	push   %r13
    c280:	41 54                	push   %r12
    c282:	53                   	push   %rbx
    c283:	48 81 ec 48 05 00 00 	sub    $0x548,%rsp
    c28a:	48 89 bd b8 fa ff ff 	mov    %rdi,-0x548(%rbp)
    c291:	89 b5 b4 fa ff ff    	mov    %esi,-0x54c(%rbp)
    c297:	89 95 b0 fa ff ff    	mov    %edx,-0x550(%rbp)
    c29d:	48 89 8d a8 fa ff ff 	mov    %rcx,-0x558(%rbp)
    c2a4:	4c 89 85 a0 fa ff ff 	mov    %r8,-0x560(%rbp)
    c2ab:	64 48 8b 04 25 28 00 	mov    %fs:0x28,%rax
    c2b2:	00 00 
    c2b4:	48 89 45 d8          	mov    %rax,-0x28(%rbp)
    c2b8:	31 c0                	xor    %eax,%eax
    c2ba:	48 8d 05 c7 c4 00 00 	lea    0xc4c7(%rip),%rax        # 18788 <g_218>
    c2c1:	48 89 85 e8 fa ff ff 	mov    %rax,-0x518(%rbp)
    c2c8:	48 8d 85 e8 fa ff ff 	lea    -0x518(%rbp),%rax
    c2cf:	48 89 85 f0 fa ff ff 	mov    %rax,-0x510(%rbp)
    c2d6:	48 8d 85 f0 fa ff ff 	lea    -0x510(%rbp),%rax
    c2dd:	48 89 85 10 fb ff ff 	mov    %rax,-0x4f0(%rbp)
    c2e4:	c7 85 dc fa ff ff f7 	movl   $0xfffffff7,-0x524(%rbp)
    c2eb:	ff ff ff 
    c2ee:	48 c7 85 18 fb ff ff 	movq   $0x0,-0x4e8(%rbp)
    c2f5:	00 00 00 00 
    c2f9:	48 8d 05 e8 dd 00 00 	lea    0xdde8(%rip),%rax        # 1a0e8 <g_238>
    c300:	48 89 85 90 fb ff ff 	mov    %rax,-0x470(%rbp)
    c307:	48 c7 85 98 fb ff ff 	movq   $0x0,-0x468(%rbp)
    c30e:	00 00 00 00 
    c312:	48 8d 05 cf dd 00 00 	lea    0xddcf(%rip),%rax        # 1a0e8 <g_238>
    c319:	48 89 85 a0 fb ff ff 	mov    %rax,-0x460(%rbp)
    c320:	48 8d 05 c1 dd 00 00 	lea    0xddc1(%rip),%rax        # 1a0e8 <g_238>
    c327:	48 89 85 a8 fb ff ff 	mov    %rax,-0x458(%rbp)
    c32e:	48 c7 85 b0 fb ff ff 	movq   $0x0,-0x450(%rbp)
    c335:	00 00 00 00 
    c339:	48 8d 05 a8 dd 00 00 	lea    0xdda8(%rip),%rax        # 1a0e8 <g_238>
    c340:	48 89 85 b8 fb ff ff 	mov    %rax,-0x448(%rbp)
    c347:	48 8d 05 9a dd 00 00 	lea    0xdd9a(%rip),%rax        # 1a0e8 <g_238>
    c34e:	48 89 85 c0 fb ff ff 	mov    %rax,-0x440(%rbp)
    c355:	48 c7 85 20 fb ff ff 	movq   $0x0,-0x4e0(%rbp)
    c35c:	00 00 00 00 
    c360:	48 8d 05 41 c4 00 00 	lea    0xc441(%rip),%rax        # 187a8 <g_394>
    c367:	48 89 85 28 fb ff ff 	mov    %rax,-0x4d8(%rbp)
    c36e:	48 c7 85 30 fb ff ff 	movq   $0x0,-0x4d0(%rbp)
    c375:	00 00 00 00 
    c379:	c6 85 c7 fa ff ff 00 	movb   $0x0,-0x539(%rbp)
    c380:	48 c7 85 38 fb ff ff 	movq   $0xfffffffffffffffc,-0x4c8(%rbp)
    c387:	fc ff ff ff 
    c38b:	48 c7 85 40 fb ff ff 	movq   $0x0,-0x4c0(%rbp)
    c392:	00 00 00 00 
    c396:	48 8d 05 87 bc 00 00 	lea    0xbc87(%rip),%rax        # 18024 <g_66>
    c39d:	48 89 85 48 fb ff ff 	mov    %rax,-0x4b8(%rbp)
    c3a4:	c7 85 cc fa ff ff 00 	movl   $0x0,-0x534(%rbp)
    c3ab:	00 00 00 
    c3ae:	eb 21                	jmp    c3d1 <func_21+0x15b>
    c3b0:	8b 85 cc fa ff ff    	mov    -0x534(%rbp),%eax
    c3b6:	48 98                	cltq   
    c3b8:	48 bb 34 41 73 5d 80 	movabs $0x140446805d734134,%rbx
    c3bf:	46 04 14 
    c3c2:	48 89 9c c5 80 fb ff 	mov    %rbx,-0x480(%rbp,%rax,8)
    c3c9:	ff 
    c3ca:	83 85 cc fa ff ff 01 	addl   $0x1,-0x534(%rbp)
    c3d1:	83 bd cc fa ff ff 01 	cmpl   $0x1,-0x534(%rbp)
    c3d8:	7e d6                	jle    c3b0 <func_21+0x13a>
    c3da:	c7 85 cc fa ff ff 00 	movl   $0x0,-0x534(%rbp)
    c3e1:	00 00 00 
    c3e4:	eb 1e                	jmp    c404 <func_21+0x18e>
    c3e6:	8b 85 cc fa ff ff    	mov    -0x534(%rbp),%eax
    c3ec:	48 98                	cltq   
    c3ee:	48 8d 15 95 f0 00 00 	lea    0xf095(%rip),%rdx        # 1b48a <g_161>
    c3f5:	48 89 94 c5 d0 fb ff 	mov    %rdx,-0x430(%rbp,%rax,8)
    c3fc:	ff 
    c3fd:	83 85 cc fa ff ff 01 	addl   $0x1,-0x534(%rbp)
    c404:	83 bd cc fa ff ff 07 	cmpl   $0x7,-0x534(%rbp)
    c40b:	7e d9                	jle    c3e6 <func_21+0x170>
    c40d:	48 8b 05 fc dd 00 00 	mov    0xddfc(%rip),%rax        # 1a210 <g_364>
    c414:	48 8b 10             	mov    (%rax),%rdx
    c417:	48 8b 05 f2 dd 00 00 	mov    0xddf2(%rip),%rax        # 1a210 <g_364>
    c41e:	48 8b 00             	mov    (%rax),%rax
    c421:	48 8b 12             	mov    (%rdx),%rdx
    c424:	48 89 10             	mov    %rdx,(%rax)
    c427:	48 c7 05 a6 c4 00 00 	movq   $0x0,0xc4a6(%rip)        # 188d8 <g_1295>
    c42e:	00 00 00 00 
    c432:	e9 15 03 00 00       	jmpq   c74c <func_21+0x4d6>
    c437:	48 8d 85 f0 fa ff ff 	lea    -0x510(%rbp),%rax
    c43e:	48 89 85 f8 fa ff ff 	mov    %rax,-0x508(%rbp)
    c445:	48 8d 85 f8 fa ff ff 	lea    -0x508(%rbp),%rax
    c44c:	48 89 85 50 fb ff ff 	mov    %rax,-0x4b0(%rbp)
    c453:	c7 85 e0 fa ff ff 03 	movl   $0xea60bd03,-0x520(%rbp)
    c45a:	bd 60 ea 
    c45d:	48 c7 85 00 fb ff ff 	movq   $0x0,-0x500(%rbp)
    c464:	00 00 00 00 
    c468:	c7 85 00 fb ff ff 45 	movl   $0xcf81f445,-0x500(%rbp)
    c46f:	f4 81 cf 
    c472:	48 8d 85 70 fc ff ff 	lea    -0x390(%rbp),%rax
    c479:	48 8d 15 a0 d5 00 00 	lea    0xd5a0(%rip),%rdx        # 19a20 <g_3189+0x988>
    c480:	b9 6c 00 00 00       	mov    $0x6c,%ecx
    c485:	48 89 c7             	mov    %rax,%rdi
    c488:	48 89 d6             	mov    %rdx,%rsi
    c48b:	f3 48 a5             	rep movsq %ds:(%rsi),%es:(%rdi)
    c48e:	48 8d 05 3b e1 00 00 	lea    0xe13b(%rip),%rax        # 1a5d0 <g_1575>
    c495:	48 89 85 08 fb ff ff 	mov    %rax,-0x4f8(%rbp)
    c49c:	48 8d 85 08 fb ff ff 	lea    -0x4f8(%rbp),%rax
    c4a3:	48 89 85 58 fb ff ff 	mov    %rax,-0x4a8(%rbp)
    c4aa:	48 8d 05 77 c8 00 00 	lea    0xc877(%rip),%rax        # 18d28 <g_1309>
    c4b1:	48 89 85 60 fb ff ff 	mov    %rax,-0x4a0(%rbp)
    c4b8:	c7 85 e4 fa ff ff ff 	movl   $0xffffffff,-0x51c(%rbp)
    c4bf:	ff ff ff 
    c4c2:	48 8b 95 f8 fa ff ff 	mov    -0x508(%rbp),%rdx
    c4c9:	48 8b 85 50 fb ff ff 	mov    -0x4b0(%rbp),%rax
    c4d0:	48 89 10             	mov    %rdx,(%rax)
    c4d3:	48 8b 85 50 fb ff ff 	mov    -0x4b0(%rbp),%rax
    c4da:	48 8b 00             	mov    (%rax),%rax
    c4dd:	48 39 85 10 fb ff ff 	cmp    %rax,-0x4f0(%rbp)
    c4e4:	0f 95 c2             	setne  %dl
    c4e7:	48 8b 05 22 dd 00 00 	mov    0xdd22(%rip),%rax        # 1a210 <g_364>
    c4ee:	48 8b 00             	mov    (%rax),%rax
    c4f1:	48 8b 00             	mov    (%rax),%rax
    c4f4:	0f b6 d2             	movzbl %dl,%edx
    c4f7:	89 10                	mov    %edx,(%rax)
    c4f9:	48 8b 05 10 dd 00 00 	mov    0xdd10(%rip),%rax        # 1a210 <g_364>
    c500:	48 8b 00             	mov    (%rax),%rax
    c503:	48 8b 00             	mov    (%rax),%rax
    c506:	8b 95 e0 fa ff ff    	mov    -0x520(%rbp),%edx
    c50c:	89 10                	mov    %edx,(%rax)
    c50e:	66 c7 05 79 c2 00 00 	movw   $0xffe8,0xc279(%rip)        # 18790 <g_291>
    c515:	e8 ff 
    c517:	e9 05 01 00 00       	jmpq   c621 <func_21+0x3ab>
    c51c:	c7 85 c8 fa ff ff 01 	movl   $0x1,-0x538(%rbp)
    c523:	00 00 00 
    c526:	48 8d 05 6b ef 00 00 	lea    0xef6b(%rip),%rax        # 1b498 <g_343>
    c52d:	48 89 85 68 fb ff ff 	mov    %rax,-0x498(%rbp)
    c534:	48 8d 85 c8 fa ff ff 	lea    -0x538(%rbp),%rax
    c53b:	48 89 85 70 fb ff ff 	mov    %rax,-0x490(%rbp)
    c542:	48 c7 85 78 fb ff ff 	movq   $0x0,-0x488(%rbp)
    c549:	00 00 00 00 
    c54d:	c7 85 d0 fa ff ff 00 	movl   $0x0,-0x530(%rbp)
    c554:	00 00 00 
    c557:	e9 8b 00 00 00       	jmpq   c5e7 <func_21+0x371>
    c55c:	c7 85 d4 fa ff ff 00 	movl   $0x0,-0x52c(%rbp)
    c563:	00 00 00 
    c566:	eb 6f                	jmp    c5d7 <func_21+0x361>
    c568:	c7 85 d8 fa ff ff 00 	movl   $0x0,-0x528(%rbp)
    c56f:	00 00 00 
    c572:	eb 53                	jmp    c5c7 <func_21+0x351>
    c574:	8b 85 d8 fa ff ff    	mov    -0x528(%rbp),%eax
    c57a:	48 63 f0             	movslq %eax,%rsi
    c57d:	8b 85 d0 fa ff ff    	mov    -0x530(%rbp),%eax
    c583:	48 98                	cltq   
    c585:	8b 95 d4 fa ff ff    	mov    -0x52c(%rbp),%edx
    c58b:	48 63 ca             	movslq %edx,%rcx
    c58e:	48 89 c2             	mov    %rax,%rdx
    c591:	48 01 d2             	add    %rdx,%rdx
    c594:	48 01 c2             	add    %rax,%rdx
    c597:	48 8d 04 95 00 00 00 	lea    0x0(,%rdx,4),%rax
    c59e:	00 
    c59f:	48 89 c2             	mov    %rax,%rdx
    c5a2:	48 89 c8             	mov    %rcx,%rax
    c5a5:	48 01 c0             	add    %rax,%rax
    c5a8:	48 01 c8             	add    %rcx,%rax
    c5ab:	48 01 c0             	add    %rax,%rax
    c5ae:	48 01 d0             	add    %rdx,%rax
    c5b1:	48 01 f0             	add    %rsi,%rax
    c5b4:	48 c7 84 c5 10 fc ff 	movq   $0x0,-0x3f0(%rbp,%rax,8)
    c5bb:	ff 00 00 00 00 
    c5c0:	83 85 d8 fa ff ff 01 	addl   $0x1,-0x528(%rbp)
    c5c7:	83 bd d8 fa ff ff 05 	cmpl   $0x5,-0x528(%rbp)
    c5ce:	7e a4                	jle    c574 <func_21+0x2fe>
    c5d0:	83 85 d4 fa ff ff 01 	addl   $0x1,-0x52c(%rbp)
    c5d7:	83 bd d4 fa ff ff 01 	cmpl   $0x1,-0x52c(%rbp)
    c5de:	7e 88                	jle    c568 <func_21+0x2f2>
    c5e0:	83 85 d0 fa ff ff 01 	addl   $0x1,-0x530(%rbp)
    c5e7:	83 bd d0 fa ff ff 00 	cmpl   $0x0,-0x530(%rbp)
    c5ee:	0f 8e 68 ff ff ff    	jle    c55c <func_21+0x2e6>
    c5f4:	48 8b 85 88 fb ff ff 	mov    -0x478(%rbp),%rax
    c5fb:	48 83 e8 01          	sub    $0x1,%rax
    c5ff:	48 89 85 88 fb ff ff 	mov    %rax,-0x478(%rbp)
    c606:	0f b7 05 83 c1 00 00 	movzwl 0xc183(%rip),%eax        # 18790 <g_291>
    c60d:	98                   	cwtl   
    c60e:	be 05 00 00 00       	mov    $0x5,%esi
    c613:	89 c7                	mov    %eax,%edi
    c615:	e8 9e a8 ff ff       	callq  6eb8 <safe_add_func_uint32_t_u_u>
    c61a:	66 89 05 6f c1 00 00 	mov    %ax,0xc16f(%rip)        # 18790 <g_291>
    c621:	0f b7 05 68 c1 00 00 	movzwl 0xc168(%rip),%eax        # 18790 <g_291>
    c628:	66 83 f8 04          	cmp    $0x4,%ax
    c62c:	0f 8f ea fe ff ff    	jg     c51c <func_21+0x2a6>
    c632:	8b 9d e4 fa ff ff    	mov    -0x51c(%rbp),%ebx
    c638:	8b 85 00 fb ff ff    	mov    -0x500(%rbp),%eax
    c63e:	41 89 c5             	mov    %eax,%r13d
    c641:	48 8b 85 58 fe ff ff 	mov    -0x1a8(%rbp),%rax
    c648:	48 85 c0             	test   %rax,%rax
    c64b:	0f 95 c0             	setne  %al
    c64e:	44 0f b6 e0          	movzbl %al,%r12d
    c652:	8b 85 b0 fa ff ff    	mov    -0x550(%rbp),%eax
    c658:	0f bf d0             	movswl %ax,%edx
    c65b:	8b 85 00 fb ff ff    	mov    -0x500(%rbp),%eax
    c661:	89 c1                	mov    %eax,%ecx
    c663:	8b 85 b0 fa ff ff    	mov    -0x550(%rbp),%eax
    c669:	21 c8                	and    %ecx,%eax
    c66b:	98                   	cwtl   
    c66c:	89 d6                	mov    %edx,%esi
    c66e:	89 c7                	mov    %eax,%edi
    c670:	e8 5e 9d ff ff       	callq  63d3 <safe_sub_func_int16_t_s_s>
    c675:	8b 85 e0 fa ff ff    	mov    -0x520(%rbp),%eax
    c67b:	c1 e8 1f             	shr    $0x1f,%eax
    c67e:	0f b6 d0             	movzbl %al,%edx
    c681:	8b 85 dc fa ff ff    	mov    -0x524(%rbp),%eax
    c687:	89 d6                	mov    %edx,%esi
    c689:	89 c7                	mov    %eax,%edi
    c68b:	e8 40 a8 ff ff       	callq  6ed0 <safe_sub_func_uint32_t_u_u>
    c690:	44 89 e2             	mov    %r12d,%edx
    c693:	31 c2                	xor    %eax,%edx
    c695:	8b 85 b4 fa ff ff    	mov    -0x54c(%rbp),%eax
    c69b:	39 c2                	cmp    %eax,%edx
    c69d:	0f 93 c0             	setae  %al
    c6a0:	0f b6 c0             	movzbl %al,%eax
    c6a3:	be 15 8c ca f6       	mov    $0xf6ca8c15,%esi
    c6a8:	89 c7                	mov    %eax,%edi
    c6aa:	e8 50 a0 ff ff       	callq  66ff <safe_div_func_int32_t_s_s>
    c6af:	89 c2                	mov    %eax,%edx
    c6b1:	8b 85 dc fa ff ff    	mov    -0x524(%rbp),%eax
    c6b7:	0f b6 c0             	movzbl %al,%eax
    c6ba:	89 d6                	mov    %edx,%esi
    c6bc:	89 c7                	mov    %eax,%edi
    c6be:	e8 fb a5 ff ff       	callq  6cbe <safe_rshift_func_uint8_t_u_u>
    c6c3:	0f b6 d0             	movzbl %al,%edx
    c6c6:	48 8b 05 3b dc 00 00 	mov    0xdc3b(%rip),%rax        # 1a308 <g_584>
    c6cd:	48 8b 00             	mov    (%rax),%rax
    c6d0:	48 09 c2             	or     %rax,%rdx
    c6d3:	48 8b 85 60 fb ff ff 	mov    -0x4a0(%rbp),%rax
    c6da:	48 8b 00             	mov    (%rax),%rax
    c6dd:	48 09 c2             	or     %rax,%rdx
    c6e0:	48 8b 85 60 fb ff ff 	mov    -0x4a0(%rbp),%rax
    c6e7:	48 89 10             	mov    %rdx,(%rax)
    c6ea:	48 8b 85 60 fb ff ff 	mov    -0x4a0(%rbp),%rax
    c6f1:	48 8b 00             	mov    (%rax),%rax
    c6f4:	4c 89 ee             	mov    %r13,%rsi
    c6f7:	48 89 c7             	mov    %rax,%rdi
    c6fa:	e8 b5 a2 ff ff       	callq  69b4 <safe_mod_func_int64_t_s_s>
    c6ff:	48 89 de             	mov    %rbx,%rsi
    c702:	bf 00 00 00 00       	mov    $0x0,%edi
    c707:	e8 3f a9 ff ff       	callq  704b <safe_sub_func_uint64_t_u_u>
    c70c:	48 8b 15 fd da 00 00 	mov    0xdafd(%rip),%rdx        # 1a210 <g_364>
    c713:	48 8b 12             	mov    (%rdx),%rdx
    c716:	48 8b 12             	mov    (%rdx),%rdx
    c719:	8b 12                	mov    (%rdx),%edx
    c71b:	21 c2                	and    %eax,%edx
    c71d:	48 8b 05 ec da 00 00 	mov    0xdaec(%rip),%rax        # 1a210 <g_364>
    c724:	48 8b 00             	mov    (%rax),%rax
    c727:	48 8b 00             	mov    (%rax),%rax
    c72a:	89 10                	mov    %edx,(%rax)
    c72c:	48 8b 05 a5 c1 00 00 	mov    0xc1a5(%rip),%rax        # 188d8 <g_1295>
    c733:	0f b7 c0             	movzwl %ax,%eax
    c736:	be 01 00 00 00       	mov    $0x1,%esi
    c73b:	89 c7                	mov    %eax,%edi
    c73d:	e8 bd a5 ff ff       	callq  6cff <safe_add_func_uint16_t_u_u>
    c742:	0f b7 c0             	movzwl %ax,%eax
    c745:	48 89 05 8c c1 00 00 	mov    %rax,0xc18c(%rip)        # 188d8 <g_1295>
    c74c:	48 8b 05 85 c1 00 00 	mov    0xc185(%rip),%rax        # 188d8 <g_1295>
    c753:	48 83 f8 0f          	cmp    $0xf,%rax
    c757:	0f 8f da fc ff ff    	jg     c437 <func_21+0x1c1>
    c75d:	48 8b 05 5c c5 00 00 	mov    0xc55c(%rip),%rax        # 18cc0 <g_1301>
    c764:	98                   	cwtl   
    c765:	89 c6                	mov    %eax,%esi
    c767:	bf 00 00 00 00       	mov    $0x0,%edi
    c76c:	e8 a5 9c ff ff       	callq  6416 <safe_mod_func_int16_t_s_s>
    c771:	88 85 c7 fa ff ff    	mov    %al,-0x539(%rbp)
    c777:	48 0f be 85 c7 fa ff 	movsbq -0x539(%rbp),%rax
    c77e:	ff 
    c77f:	48 39 85 38 fb ff ff 	cmp    %rax,-0x4c8(%rbp)
    c786:	0f 9c c0             	setl   %al
    c789:	0f b6 d8             	movzbl %al,%ebx
    c78c:	48 8b 05 55 d9 00 00 	mov    0xd955(%rip),%rax        # 1a0e8 <g_238>
    c793:	0f b6 00             	movzbl (%rax),%eax
    c796:	0f be c0             	movsbl %al,%eax
    c799:	89 c6                	mov    %eax,%esi
    c79b:	bf 01 00 00 00       	mov    $0x1,%edi
    c7a0:	e8 c5 9a ff ff       	callq  626a <safe_div_func_int8_t_s_s>
    c7a5:	48 8b 15 54 d9 00 00 	mov    0xd954(%rip),%rdx        # 1a100 <g_359>
    c7ac:	48 8b 12             	mov    (%rdx),%rdx
    c7af:	8b 0a                	mov    (%rdx),%ecx
    c7b1:	0f be d0             	movsbl %al,%edx
    c7b4:	48 8b 05 45 d9 00 00 	mov    0xd945(%rip),%rax        # 1a100 <g_359>
    c7bb:	48 8b 00             	mov    (%rax),%rax
    c7be:	21 ca                	and    %ecx,%edx
    c7c0:	89 10                	mov    %edx,(%rax)
    c7c2:	8b 08                	mov    (%rax),%ecx
    c7c4:	48 8b 85 90 fb ff ff 	mov    -0x470(%rbp),%rax
    c7cb:	48 89 85 90 fb ff ff 	mov    %rax,-0x470(%rbp)
    c7d2:	48 8b 95 90 fb ff ff 	mov    -0x470(%rbp),%rdx
    c7d9:	48 8d 85 a8 fa ff ff 	lea    -0x558(%rbp),%rax
    c7e0:	48 39 c2             	cmp    %rax,%rdx
    c7e3:	0f 95 c0             	setne  %al
    c7e6:	0f b6 d0             	movzbl %al,%edx
    c7e9:	48 8b 85 28 fb ff ff 	mov    -0x4d8(%rbp),%rax
    c7f0:	89 10                	mov    %edx,(%rax)
    c7f2:	48 8b 85 28 fb ff ff 	mov    -0x4d8(%rbp),%rax
    c7f9:	8b 00                	mov    (%rax),%eax
    c7fb:	39 c1                	cmp    %eax,%ecx
    c7fd:	0f 9c c0             	setl   %al
    c800:	0f b6 c0             	movzbl %al,%eax
    c803:	89 de                	mov    %ebx,%esi
    c805:	89 c7                	mov    %eax,%edi
    c807:	e8 e9 9b ff ff       	callq  63f5 <safe_mul_func_int16_t_s_s>
    c80c:	98                   	cwtl   
    c80d:	48 8b 95 88 fb ff ff 	mov    -0x478(%rbp),%rdx
    c814:	89 c6                	mov    %eax,%esi
    c816:	89 d7                	mov    %edx,%edi
    c818:	e8 e0 a6 ff ff       	callq  6efd <safe_mod_func_uint32_t_u_u>
    c81d:	89 85 dc fa ff ff    	mov    %eax,-0x524(%rbp)
    c823:	48 8b 85 48 fb ff ff 	mov    -0x4b8(%rbp),%rax
    c82a:	c7 00 51 06 cd 83    	movl   $0x83cd0651,(%rax)
    c830:	be 01 00 00 00       	mov    $0x1,%esi
    c835:	bf 01 00 00 00       	mov    $0x1,%edi
    c83a:	e8 d3 99 ff ff       	callq  6212 <safe_mul_func_int8_t_s_s>
    c83f:	66 98                	cbtw   
    c841:	0f b7 c0             	movzwl %ax,%eax
    c844:	be 04 00 00 00       	mov    $0x4,%esi
    c849:	89 c7                	mov    %eax,%edi
    c84b:	e8 2a a6 ff ff       	callq  6e7a <safe_rshift_func_uint16_t_u_u>
    c850:	0f b7 d0             	movzwl %ax,%edx
    c853:	48 8b 85 28 fb ff ff 	mov    -0x4d8(%rbp),%rax
    c85a:	8b 08                	mov    (%rax),%ecx
    c85c:	48 8b 85 a8 fa ff ff 	mov    -0x558(%rbp),%rax
    c863:	0f b6 00             	movzbl (%rax),%eax
    c866:	0f be c0             	movsbl %al,%eax
    c869:	09 c8                	or     %ecx,%eax
    c86b:	21 c2                	and    %eax,%edx
    c86d:	48 8b 85 48 fb ff ff 	mov    -0x4b8(%rbp),%rax
    c874:	89 10                	mov    %edx,(%rax)
    c876:	48 8b 05 93 d9 00 00 	mov    0xd993(%rip),%rax        # 1a210 <g_364>
    c87d:	48 8b 00             	mov    (%rax),%rax
    c880:	48 8b 00             	mov    (%rax),%rax
    c883:	8b 00                	mov    (%rax),%eax
    c885:	48 8b 5d d8          	mov    -0x28(%rbp),%rbx
    c889:	64 48 33 1c 25 28 00 	xor    %fs:0x28,%rbx
    c890:	00 00 
    c892:	74 05                	je     c899 <func_21+0x623>
    c894:	e8 d7 97 ff ff       	callq  6070 <__stack_chk_fail@plt>
    c899:	48 81 c4 48 05 00 00 	add    $0x548,%rsp
    c8a0:	5b                   	pop    %rbx
    c8a1:	41 5c                	pop    %r12
    c8a3:	41 5d                	pop    %r13
    c8a5:	5d                   	pop    %rbp
    c8a6:	c3                   	retq   

000000000000c8a7 <func_27>:
    c8a7:	f3 0f 1e fa          	endbr64 
    c8ab:	55                   	push   %rbp
    c8ac:	48 89 e5             	mov    %rsp,%rbp
    c8af:	89 7d ec             	mov    %edi,-0x14(%rbp)
    c8b2:	89 75 e8             	mov    %esi,-0x18(%rbp)
    c8b5:	48 8d 05 fc bf 00 00 	lea    0xbffc(%rip),%rax        # 188b8 <g_1024>
    c8bc:	48 89 45 f8          	mov    %rax,-0x8(%rbp)
    c8c0:	48 c7 05 d5 be 00 00 	movq   $0xffffffffffffffe8,0xbed5(%rip)        # 187a0 <g_346>
    c8c7:	e8 ff ff ff 
    c8cb:	eb 37                	jmp    c904 <func_27+0x5d>
    c8cd:	48 c7 05 10 c0 00 00 	movq   $0xb,0xc010(%rip)        # 188e8 <g_1297>
    c8d4:	0b 00 00 00 
    c8d8:	90                   	nop
    c8d9:	48 8b 05 08 c0 00 00 	mov    0xc008(%rip),%rax        # 188e8 <g_1297>
    c8e0:	48 83 f8 13          	cmp    $0x13,%rax
    c8e4:	7f 0c                	jg     c8f2 <func_27+0x4b>
    c8e6:	48 8b 05 0b dd 00 00 	mov    0xdd0b(%rip),%rax        # 1a5f8 <g_2113>
    c8ed:	48 8b 00             	mov    (%rax),%rax
    c8f0:	eb 56                	jmp    c948 <func_27+0xa1>
    c8f2:	48 8b 05 a7 be 00 00 	mov    0xbea7(%rip),%rax        # 187a0 <g_346>
    c8f9:	48 83 c0 01          	add    $0x1,%rax
    c8fd:	48 89 05 9c be 00 00 	mov    %rax,0xbe9c(%rip)        # 187a0 <g_346>
    c904:	48 8b 05 95 be 00 00 	mov    0xbe95(%rip),%rax        # 187a0 <g_346>
    c90b:	48 83 f8 03          	cmp    $0x3,%rax
    c90f:	76 bc                	jbe    c8cd <func_27+0x26>
    c911:	c7 05 7d be 00 00 16 	movl   $0x16,0xbe7d(%rip)        # 18798 <g_318>
    c918:	00 00 00 
    c91b:	eb 19                	jmp    c936 <func_27+0x8f>
    c91d:	c6 45 f7 ff          	movb   $0xff,-0x9(%rbp)
    c921:	80 7d f7 00          	cmpb   $0x0,-0x9(%rbp)
    c925:	75 1c                	jne    c943 <func_27+0x9c>
    c927:	8b 05 6b be 00 00    	mov    0xbe6b(%rip),%eax        # 18798 <g_318>
    c92d:	83 c0 01             	add    $0x1,%eax
    c930:	89 05 62 be 00 00    	mov    %eax,0xbe62(%rip)        # 18798 <g_318>
    c936:	8b 05 5c be 00 00    	mov    0xbe5c(%rip),%eax        # 18798 <g_318>
    c93c:	83 f8 20             	cmp    $0x20,%eax
    c93f:	77 dc                	ja     c91d <func_27+0x76>
    c941:	eb 01                	jmp    c944 <func_27+0x9d>
    c943:	90                   	nop
    c944:	48 8b 45 f8          	mov    -0x8(%rbp),%rax
    c948:	5d                   	pop    %rbp
    c949:	c3                   	retq   

000000000000c94a <func_30>:
    c94a:	f3 0f 1e fa          	endbr64 
    c94e:	55                   	push   %rbp
    c94f:	48 89 e5             	mov    %rsp,%rbp
    c952:	48 81 ec 10 0f 00 00 	sub    $0xf10,%rsp
    c959:	89 f8                	mov    %edi,%eax
    c95b:	88 85 fc f0 ff ff    	mov    %al,-0xf04(%rbp)
    c961:	64 48 8b 04 25 28 00 	mov    %fs:0x28,%rax
    c968:	00 00 
    c96a:	48 89 45 f8          	mov    %rax,-0x8(%rbp)
    c96e:	31 c0                	xor    %eax,%eax
    c970:	c7 85 08 f1 ff ff 01 	movl   $0x1,-0xef8(%rbp)
    c977:	00 00 00 
    c97a:	48 8d 05 17 eb 00 00 	lea    0xeb17(%rip),%rax        # 1b498 <g_343>
    c981:	48 89 85 60 f1 ff ff 	mov    %rax,-0xea0(%rbp)
    c988:	48 8d 05 d1 b6 00 00 	lea    0xb6d1(%rip),%rax        # 18060 <g_99>
    c98f:	48 89 85 68 f1 ff ff 	mov    %rax,-0xe98(%rbp)
    c996:	48 8d 05 c3 b6 00 00 	lea    0xb6c3(%rip),%rax        # 18060 <g_99>
    c99d:	48 89 85 20 f2 ff ff 	mov    %rax,-0xde0(%rbp)
    c9a4:	48 8d 05 ed ea 00 00 	lea    0xeaed(%rip),%rax        # 1b498 <g_343>
    c9ab:	48 89 85 28 f2 ff ff 	mov    %rax,-0xdd8(%rbp)
    c9b2:	48 c7 85 30 f2 ff ff 	movq   $0x0,-0xdd0(%rbp)
    c9b9:	00 00 00 00 
    c9bd:	48 c7 85 38 f2 ff ff 	movq   $0x0,-0xdc8(%rbp)
    c9c4:	00 00 00 00 
    c9c8:	48 8d 05 c9 ea 00 00 	lea    0xeac9(%rip),%rax        # 1b498 <g_343>
    c9cf:	48 89 85 40 f2 ff ff 	mov    %rax,-0xdc0(%rbp)
    c9d6:	48 8d 05 83 b6 00 00 	lea    0xb683(%rip),%rax        # 18060 <g_99>
    c9dd:	48 89 85 48 f2 ff ff 	mov    %rax,-0xdb8(%rbp)
    c9e4:	48 8d 05 75 b6 00 00 	lea    0xb675(%rip),%rax        # 18060 <g_99>
    c9eb:	48 89 85 50 f2 ff ff 	mov    %rax,-0xdb0(%rbp)
    c9f2:	48 8d 05 67 b6 00 00 	lea    0xb667(%rip),%rax        # 18060 <g_99>
    c9f9:	48 89 85 58 f2 ff ff 	mov    %rax,-0xda8(%rbp)
    ca00:	48 8d 05 a1 bd 00 00 	lea    0xbda1(%rip),%rax        # 187a8 <g_394>
    ca07:	48 89 85 60 f2 ff ff 	mov    %rax,-0xda0(%rbp)
    ca0e:	48 8d 05 0f b6 00 00 	lea    0xb60f(%rip),%rax        # 18024 <g_66>
    ca15:	48 89 85 68 f2 ff ff 	mov    %rax,-0xd98(%rbp)
    ca1c:	48 8d 05 85 bd 00 00 	lea    0xbd85(%rip),%rax        # 187a8 <g_394>
    ca23:	48 89 85 70 f2 ff ff 	mov    %rax,-0xd90(%rbp)
    ca2a:	48 8d 05 f3 b5 00 00 	lea    0xb5f3(%rip),%rax        # 18024 <g_66>
    ca31:	48 89 85 78 f2 ff ff 	mov    %rax,-0xd88(%rbp)
    ca38:	48 c7 85 80 f2 ff ff 	movq   $0x0,-0xd80(%rbp)
    ca3f:	00 00 00 00 
    ca43:	48 c7 85 88 f2 ff ff 	movq   $0x0,-0xd78(%rbp)
    ca4a:	00 00 00 00 
    ca4e:	48 8d 05 0b b6 00 00 	lea    0xb60b(%rip),%rax        # 18060 <g_99>
    ca55:	48 89 85 90 f2 ff ff 	mov    %rax,-0xd70(%rbp)
    ca5c:	48 c7 85 98 f2 ff ff 	movq   $0x0,-0xd68(%rbp)
    ca63:	00 00 00 00 
    ca67:	48 c7 85 a0 f2 ff ff 	movq   $0x0,-0xd60(%rbp)
    ca6e:	00 00 00 00 
    ca72:	48 8d 05 ab b5 00 00 	lea    0xb5ab(%rip),%rax        # 18024 <g_66>
    ca79:	48 89 85 a8 f2 ff ff 	mov    %rax,-0xd58(%rbp)
    ca80:	48 8d 05 21 bd 00 00 	lea    0xbd21(%rip),%rax        # 187a8 <g_394>
    ca87:	48 89 85 b0 f2 ff ff 	mov    %rax,-0xd50(%rbp)
    ca8e:	48 8d 05 cb b5 00 00 	lea    0xb5cb(%rip),%rax        # 18060 <g_99>
    ca95:	48 89 85 b8 f2 ff ff 	mov    %rax,-0xd48(%rbp)
    ca9c:	48 8d 05 05 bd 00 00 	lea    0xbd05(%rip),%rax        # 187a8 <g_394>
    caa3:	48 89 85 c0 f2 ff ff 	mov    %rax,-0xd40(%rbp)
    caaa:	48 c7 85 c8 f2 ff ff 	movq   $0x0,-0xd38(%rbp)
    cab1:	00 00 00 00 
    cab5:	48 c7 85 d0 f2 ff ff 	movq   $0x0,-0xd30(%rbp)
    cabc:	00 00 00 00 
    cac0:	48 8d 05 99 b5 00 00 	lea    0xb599(%rip),%rax        # 18060 <g_99>
    cac7:	48 89 85 d8 f2 ff ff 	mov    %rax,-0xd28(%rbp)
    cace:	48 c7 85 e0 f2 ff ff 	movq   $0x0,-0xd20(%rbp)
    cad5:	00 00 00 00 
    cad9:	48 8d 05 80 b5 00 00 	lea    0xb580(%rip),%rax        # 18060 <g_99>
    cae0:	48 89 85 e8 f2 ff ff 	mov    %rax,-0xd18(%rbp)
    cae7:	48 8d 05 72 b5 00 00 	lea    0xb572(%rip),%rax        # 18060 <g_99>
    caee:	48 89 85 f0 f2 ff ff 	mov    %rax,-0xd10(%rbp)
    caf5:	48 c7 85 f8 f2 ff ff 	movq   $0x0,-0xd08(%rbp)
    cafc:	00 00 00 00 
    cb00:	48 8d 05 59 b5 00 00 	lea    0xb559(%rip),%rax        # 18060 <g_99>
    cb07:	48 89 85 00 f3 ff ff 	mov    %rax,-0xd00(%rbp)
    cb0e:	48 c7 85 08 f3 ff ff 	movq   $0x0,-0xcf8(%rbp)
    cb15:	00 00 00 00 
    cb19:	c7 85 0c f1 ff ff 01 	movl   $0x1,-0xef4(%rbp)
    cb20:	00 00 00 
    cb23:	48 8d 05 86 bc 00 00 	lea    0xbc86(%rip),%rax        # 187b0 <g_396>
    cb2a:	48 89 85 70 f1 ff ff 	mov    %rax,-0xe90(%rbp)
    cb31:	48 c7 85 28 f1 ff ff 	movq   $0x0,-0xed8(%rbp)
    cb38:	00 00 00 00 
    cb3c:	48 8d 85 28 f1 ff ff 	lea    -0xed8(%rbp),%rax
    cb43:	48 89 85 78 f1 ff ff 	mov    %rax,-0xe88(%rbp)
    cb4a:	48 8d 05 ff d7 00 00 	lea    0xd7ff(%rip),%rax        # 1a350 <g_612>
    cb51:	48 89 85 30 f1 ff ff 	mov    %rax,-0xed0(%rbp)
    cb58:	48 8d 85 30 f1 ff ff 	lea    -0xed0(%rbp),%rax
    cb5f:	48 89 85 38 f1 ff ff 	mov    %rax,-0xec8(%rbp)
    cb66:	48 8d 85 38 f1 ff ff 	lea    -0xec8(%rbp),%rax
    cb6d:	48 89 85 80 f1 ff ff 	mov    %rax,-0xe80(%rbp)
    cb74:	48 8d 05 0d bc 00 00 	lea    0xbc0d(%rip),%rax        # 18788 <g_218>
    cb7b:	48 89 85 40 f1 ff ff 	mov    %rax,-0xec0(%rbp)
    cb82:	c7 85 10 f1 ff ff 00 	movl   $0x0,-0xef0(%rbp)
    cb89:	00 00 00 
    cb8c:	48 8d 85 40 f1 ff ff 	lea    -0xec0(%rbp),%rax
    cb93:	48 89 85 f0 f8 ff ff 	mov    %rax,-0x710(%rbp)
    cb9a:	48 8d 85 40 f1 ff ff 	lea    -0xec0(%rbp),%rax
    cba1:	48 89 85 f8 f8 ff ff 	mov    %rax,-0x708(%rbp)
    cba8:	48 8d 85 40 f1 ff ff 	lea    -0xec0(%rbp),%rax
    cbaf:	48 89 85 00 f9 ff ff 	mov    %rax,-0x700(%rbp)
    cbb6:	48 8d 85 40 f1 ff ff 	lea    -0xec0(%rbp),%rax
    cbbd:	48 89 85 08 f9 ff ff 	mov    %rax,-0x6f8(%rbp)
    cbc4:	48 8d 85 40 f1 ff ff 	lea    -0xec0(%rbp),%rax
    cbcb:	48 89 85 10 f9 ff ff 	mov    %rax,-0x6f0(%rbp)
    cbd2:	48 c7 85 18 f9 ff ff 	movq   $0x0,-0x6e8(%rbp)
    cbd9:	00 00 00 00 
    cbdd:	48 c7 85 20 f9 ff ff 	movq   $0x0,-0x6e0(%rbp)
    cbe4:	00 00 00 00 
    cbe8:	48 8d 85 40 f1 ff ff 	lea    -0xec0(%rbp),%rax
    cbef:	48 89 85 28 f9 ff ff 	mov    %rax,-0x6d8(%rbp)
    cbf6:	48 c7 85 30 f9 ff ff 	movq   $0x0,-0x6d0(%rbp)
    cbfd:	00 00 00 00 
    cc01:	48 8d 85 40 f1 ff ff 	lea    -0xec0(%rbp),%rax
    cc08:	48 89 85 38 f9 ff ff 	mov    %rax,-0x6c8(%rbp)
    cc0f:	48 c7 85 40 f9 ff ff 	movq   $0x0,-0x6c0(%rbp)
    cc16:	00 00 00 00 
    cc1a:	48 8d 85 40 f1 ff ff 	lea    -0xec0(%rbp),%rax
    cc21:	48 89 85 48 f9 ff ff 	mov    %rax,-0x6b8(%rbp)
    cc28:	48 8d 85 40 f1 ff ff 	lea    -0xec0(%rbp),%rax
    cc2f:	48 89 85 50 f9 ff ff 	mov    %rax,-0x6b0(%rbp)
    cc36:	48 8d 85 40 f1 ff ff 	lea    -0xec0(%rbp),%rax
    cc3d:	48 89 85 58 f9 ff ff 	mov    %rax,-0x6a8(%rbp)
    cc44:	48 8d 85 40 f1 ff ff 	lea    -0xec0(%rbp),%rax
    cc4b:	48 89 85 60 f9 ff ff 	mov    %rax,-0x6a0(%rbp)
    cc52:	48 c7 85 68 f9 ff ff 	movq   $0x0,-0x698(%rbp)
    cc59:	00 00 00 00 
    cc5d:	48 c7 85 70 f9 ff ff 	movq   $0x0,-0x690(%rbp)
    cc64:	00 00 00 00 
    cc68:	48 c7 85 78 f9 ff ff 	movq   $0x0,-0x688(%rbp)
    cc6f:	00 00 00 00 
    cc73:	48 8d 85 40 f1 ff ff 	lea    -0xec0(%rbp),%rax
    cc7a:	48 89 85 80 f9 ff ff 	mov    %rax,-0x680(%rbp)
    cc81:	48 8d 85 40 f1 ff ff 	lea    -0xec0(%rbp),%rax
    cc88:	48 89 85 88 f9 ff ff 	mov    %rax,-0x678(%rbp)
    cc8f:	48 8d 85 40 f1 ff ff 	lea    -0xec0(%rbp),%rax
    cc96:	48 89 85 90 f9 ff ff 	mov    %rax,-0x670(%rbp)
    cc9d:	48 c7 85 98 f9 ff ff 	movq   $0x0,-0x668(%rbp)
    cca4:	00 00 00 00 
    cca8:	48 c7 85 a0 f9 ff ff 	movq   $0x0,-0x660(%rbp)
    ccaf:	00 00 00 00 
    ccb3:	48 8d 85 40 f1 ff ff 	lea    -0xec0(%rbp),%rax
    ccba:	48 89 85 a8 f9 ff ff 	mov    %rax,-0x658(%rbp)
    ccc1:	48 c7 85 b0 f9 ff ff 	movq   $0x0,-0x650(%rbp)
    ccc8:	00 00 00 00 
    cccc:	48 8d 85 40 f1 ff ff 	lea    -0xec0(%rbp),%rax
    ccd3:	48 89 85 b8 f9 ff ff 	mov    %rax,-0x648(%rbp)
    ccda:	48 8d 85 40 f1 ff ff 	lea    -0xec0(%rbp),%rax
    cce1:	48 89 85 c0 f9 ff ff 	mov    %rax,-0x640(%rbp)
    cce8:	48 8d 85 40 f1 ff ff 	lea    -0xec0(%rbp),%rax
    ccef:	48 89 85 c8 f9 ff ff 	mov    %rax,-0x638(%rbp)
    ccf6:	48 8d 85 40 f1 ff ff 	lea    -0xec0(%rbp),%rax
    ccfd:	48 89 85 d0 f9 ff ff 	mov    %rax,-0x630(%rbp)
    cd04:	48 8d 85 40 f1 ff ff 	lea    -0xec0(%rbp),%rax
    cd0b:	48 89 85 d8 f9 ff ff 	mov    %rax,-0x628(%rbp)
    cd12:	48 8d 85 40 f1 ff ff 	lea    -0xec0(%rbp),%rax
    cd19:	48 89 85 e0 f9 ff ff 	mov    %rax,-0x620(%rbp)
    cd20:	48 c7 85 e8 f9 ff ff 	movq   $0x0,-0x618(%rbp)
    cd27:	00 00 00 00 
    cd2b:	48 c7 85 f0 f9 ff ff 	movq   $0x0,-0x610(%rbp)
    cd32:	00 00 00 00 
    cd36:	48 8d 85 40 f1 ff ff 	lea    -0xec0(%rbp),%rax
    cd3d:	48 89 85 f8 f9 ff ff 	mov    %rax,-0x608(%rbp)
    cd44:	48 c7 85 00 fa ff ff 	movq   $0x0,-0x600(%rbp)
    cd4b:	00 00 00 00 
    cd4f:	48 8d 85 40 f1 ff ff 	lea    -0xec0(%rbp),%rax
    cd56:	48 89 85 08 fa ff ff 	mov    %rax,-0x5f8(%rbp)
    cd5d:	48 8d 85 40 f1 ff ff 	lea    -0xec0(%rbp),%rax
    cd64:	48 89 85 10 fa ff ff 	mov    %rax,-0x5f0(%rbp)
    cd6b:	48 c7 85 18 fa ff ff 	movq   $0x0,-0x5e8(%rbp)
    cd72:	00 00 00 00 
    cd76:	48 8d 85 40 f1 ff ff 	lea    -0xec0(%rbp),%rax
    cd7d:	48 89 85 20 fa ff ff 	mov    %rax,-0x5e0(%rbp)
    cd84:	48 8d 85 40 f1 ff ff 	lea    -0xec0(%rbp),%rax
    cd8b:	48 89 85 28 fa ff ff 	mov    %rax,-0x5d8(%rbp)
    cd92:	48 c7 85 30 fa ff ff 	movq   $0x0,-0x5d0(%rbp)
    cd99:	00 00 00 00 
    cd9d:	48 8d 85 40 f1 ff ff 	lea    -0xec0(%rbp),%rax
    cda4:	48 89 85 38 fa ff ff 	mov    %rax,-0x5c8(%rbp)
    cdab:	48 8d 85 40 f1 ff ff 	lea    -0xec0(%rbp),%rax
    cdb2:	48 89 85 40 fa ff ff 	mov    %rax,-0x5c0(%rbp)
    cdb9:	48 8d 85 40 f1 ff ff 	lea    -0xec0(%rbp),%rax
    cdc0:	48 89 85 48 fa ff ff 	mov    %rax,-0x5b8(%rbp)
    cdc7:	48 8d 85 40 f1 ff ff 	lea    -0xec0(%rbp),%rax
    cdce:	48 89 85 50 fa ff ff 	mov    %rax,-0x5b0(%rbp)
    cdd5:	48 8d 85 40 f1 ff ff 	lea    -0xec0(%rbp),%rax
    cddc:	48 89 85 58 fa ff ff 	mov    %rax,-0x5a8(%rbp)
    cde3:	48 8d 85 40 f1 ff ff 	lea    -0xec0(%rbp),%rax
    cdea:	48 89 85 60 fa ff ff 	mov    %rax,-0x5a0(%rbp)
    cdf1:	48 8d 85 40 f1 ff ff 	lea    -0xec0(%rbp),%rax
    cdf8:	48 89 85 68 fa ff ff 	mov    %rax,-0x598(%rbp)
    cdff:	48 8d 85 40 f1 ff ff 	lea    -0xec0(%rbp),%rax
    ce06:	48 89 85 70 fa ff ff 	mov    %rax,-0x590(%rbp)
    ce0d:	48 8d 85 40 f1 ff ff 	lea    -0xec0(%rbp),%rax
    ce14:	48 89 85 78 fa ff ff 	mov    %rax,-0x588(%rbp)
    ce1b:	48 8d 85 40 f1 ff ff 	lea    -0xec0(%rbp),%rax
    ce22:	48 89 85 80 fa ff ff 	mov    %rax,-0x580(%rbp)
    ce29:	48 8d 85 40 f1 ff ff 	lea    -0xec0(%rbp),%rax
    ce30:	48 89 85 88 fa ff ff 	mov    %rax,-0x578(%rbp)
    ce37:	48 8d 85 40 f1 ff ff 	lea    -0xec0(%rbp),%rax
    ce3e:	48 89 85 90 fa ff ff 	mov    %rax,-0x570(%rbp)
    ce45:	48 8d 85 40 f1 ff ff 	lea    -0xec0(%rbp),%rax
    ce4c:	48 89 85 98 fa ff ff 	mov    %rax,-0x568(%rbp)
    ce53:	48 c7 85 a0 fa ff ff 	movq   $0x0,-0x560(%rbp)
    ce5a:	00 00 00 00 
    ce5e:	48 8d 85 40 f1 ff ff 	lea    -0xec0(%rbp),%rax
    ce65:	48 89 85 a8 fa ff ff 	mov    %rax,-0x558(%rbp)
    ce6c:	48 8d 85 40 f1 ff ff 	lea    -0xec0(%rbp),%rax
    ce73:	48 89 85 b0 fa ff ff 	mov    %rax,-0x550(%rbp)
    ce7a:	48 8d 85 40 f1 ff ff 	lea    -0xec0(%rbp),%rax
    ce81:	48 89 85 b8 fa ff ff 	mov    %rax,-0x548(%rbp)
    ce88:	48 8d 85 40 f1 ff ff 	lea    -0xec0(%rbp),%rax
    ce8f:	48 89 85 c0 fa ff ff 	mov    %rax,-0x540(%rbp)
    ce96:	48 8d 85 40 f1 ff ff 	lea    -0xec0(%rbp),%rax
    ce9d:	48 89 85 c8 fa ff ff 	mov    %rax,-0x538(%rbp)
    cea4:	48 8d 85 40 f1 ff ff 	lea    -0xec0(%rbp),%rax
    ceab:	48 89 85 d0 fa ff ff 	mov    %rax,-0x530(%rbp)
    ceb2:	48 8d 85 40 f1 ff ff 	lea    -0xec0(%rbp),%rax
    ceb9:	48 89 85 d8 fa ff ff 	mov    %rax,-0x528(%rbp)
    cec0:	48 8d 85 40 f1 ff ff 	lea    -0xec0(%rbp),%rax
    cec7:	48 89 85 e0 fa ff ff 	mov    %rax,-0x520(%rbp)
    cece:	48 c7 85 e8 fa ff ff 	movq   $0x0,-0x518(%rbp)
    ced5:	00 00 00 00 
    ced9:	48 c7 85 f0 fa ff ff 	movq   $0x0,-0x510(%rbp)
    cee0:	00 00 00 00 
    cee4:	48 c7 85 f8 fa ff ff 	movq   $0x0,-0x508(%rbp)
    ceeb:	00 00 00 00 
    ceef:	48 8d 85 40 f1 ff ff 	lea    -0xec0(%rbp),%rax
    cef6:	48 89 85 00 fb ff ff 	mov    %rax,-0x500(%rbp)
    cefd:	48 8d 85 40 f1 ff ff 	lea    -0xec0(%rbp),%rax
    cf04:	48 89 85 08 fb ff ff 	mov    %rax,-0x4f8(%rbp)
    cf0b:	48 8d 85 40 f1 ff ff 	lea    -0xec0(%rbp),%rax
    cf12:	48 89 85 10 fb ff ff 	mov    %rax,-0x4f0(%rbp)
    cf19:	48 8d 85 40 f1 ff ff 	lea    -0xec0(%rbp),%rax
    cf20:	48 89 85 18 fb ff ff 	mov    %rax,-0x4e8(%rbp)
    cf27:	48 8d 85 40 f1 ff ff 	lea    -0xec0(%rbp),%rax
    cf2e:	48 89 85 20 fb ff ff 	mov    %rax,-0x4e0(%rbp)
    cf35:	48 8d 85 40 f1 ff ff 	lea    -0xec0(%rbp),%rax
    cf3c:	48 89 85 28 fb ff ff 	mov    %rax,-0x4d8(%rbp)
    cf43:	48 8d 85 40 f1 ff ff 	lea    -0xec0(%rbp),%rax
    cf4a:	48 89 85 30 fb ff ff 	mov    %rax,-0x4d0(%rbp)
    cf51:	48 8d 85 40 f1 ff ff 	lea    -0xec0(%rbp),%rax
    cf58:	48 89 85 38 fb ff ff 	mov    %rax,-0x4c8(%rbp)
    cf5f:	48 8d 85 40 f1 ff ff 	lea    -0xec0(%rbp),%rax
    cf66:	48 89 85 40 fb ff ff 	mov    %rax,-0x4c0(%rbp)
    cf6d:	48 8d 85 40 f1 ff ff 	lea    -0xec0(%rbp),%rax
    cf74:	48 89 85 48 fb ff ff 	mov    %rax,-0x4b8(%rbp)
    cf7b:	48 8d 85 40 f1 ff ff 	lea    -0xec0(%rbp),%rax
    cf82:	48 89 85 50 fb ff ff 	mov    %rax,-0x4b0(%rbp)
    cf89:	48 8d 85 40 f1 ff ff 	lea    -0xec0(%rbp),%rax
    cf90:	48 89 85 58 fb ff ff 	mov    %rax,-0x4a8(%rbp)
    cf97:	48 c7 85 60 fb ff ff 	movq   $0x0,-0x4a0(%rbp)
    cf9e:	00 00 00 00 
    cfa2:	48 8d 85 40 f1 ff ff 	lea    -0xec0(%rbp),%rax
    cfa9:	48 89 85 68 fb ff ff 	mov    %rax,-0x498(%rbp)
    cfb0:	48 8d 85 40 f1 ff ff 	lea    -0xec0(%rbp),%rax
    cfb7:	48 89 85 70 fb ff ff 	mov    %rax,-0x490(%rbp)
    cfbe:	48 8d 85 40 f1 ff ff 	lea    -0xec0(%rbp),%rax
    cfc5:	48 89 85 78 fb ff ff 	mov    %rax,-0x488(%rbp)
    cfcc:	48 8d 85 40 f1 ff ff 	lea    -0xec0(%rbp),%rax
    cfd3:	48 89 85 80 fb ff ff 	mov    %rax,-0x480(%rbp)
    cfda:	48 8d 85 40 f1 ff ff 	lea    -0xec0(%rbp),%rax
    cfe1:	48 89 85 88 fb ff ff 	mov    %rax,-0x478(%rbp)
    cfe8:	48 8d 85 40 f1 ff ff 	lea    -0xec0(%rbp),%rax
    cfef:	48 89 85 90 fb ff ff 	mov    %rax,-0x470(%rbp)
    cff6:	48 8d 85 40 f1 ff ff 	lea    -0xec0(%rbp),%rax
    cffd:	48 89 85 98 fb ff ff 	mov    %rax,-0x468(%rbp)
    d004:	48 8d 85 40 f1 ff ff 	lea    -0xec0(%rbp),%rax
    d00b:	48 89 85 a0 fb ff ff 	mov    %rax,-0x460(%rbp)
    d012:	48 8d 85 40 f1 ff ff 	lea    -0xec0(%rbp),%rax
    d019:	48 89 85 a8 fb ff ff 	mov    %rax,-0x458(%rbp)
    d020:	48 8d 85 40 f1 ff ff 	lea    -0xec0(%rbp),%rax
    d027:	48 89 85 b0 fb ff ff 	mov    %rax,-0x450(%rbp)
    d02e:	48 8d 85 40 f1 ff ff 	lea    -0xec0(%rbp),%rax
    d035:	48 89 85 b8 fb ff ff 	mov    %rax,-0x448(%rbp)
    d03c:	48 c7 85 c0 fb ff ff 	movq   $0x0,-0x440(%rbp)
    d043:	00 00 00 00 
    d047:	48 c7 85 c8 fb ff ff 	movq   $0x0,-0x438(%rbp)
    d04e:	00 00 00 00 
    d052:	48 8d 85 40 f1 ff ff 	lea    -0xec0(%rbp),%rax
    d059:	48 89 85 d0 fb ff ff 	mov    %rax,-0x430(%rbp)
    d060:	48 c7 85 d8 fb ff ff 	movq   $0x0,-0x428(%rbp)
    d067:	00 00 00 00 
    d06b:	48 8d 85 40 f1 ff ff 	lea    -0xec0(%rbp),%rax
    d072:	48 89 85 e0 fb ff ff 	mov    %rax,-0x420(%rbp)
    d079:	48 c7 85 e8 fb ff ff 	movq   $0x0,-0x418(%rbp)
    d080:	00 00 00 00 
    d084:	48 8d 85 40 f1 ff ff 	lea    -0xec0(%rbp),%rax
    d08b:	48 89 85 f0 fb ff ff 	mov    %rax,-0x410(%rbp)
    d092:	48 8d 85 40 f1 ff ff 	lea    -0xec0(%rbp),%rax
    d099:	48 89 85 f8 fb ff ff 	mov    %rax,-0x408(%rbp)
    d0a0:	48 8d 85 40 f1 ff ff 	lea    -0xec0(%rbp),%rax
    d0a7:	48 89 85 00 fc ff ff 	mov    %rax,-0x400(%rbp)
    d0ae:	48 8d 85 40 f1 ff ff 	lea    -0xec0(%rbp),%rax
    d0b5:	48 89 85 08 fc ff ff 	mov    %rax,-0x3f8(%rbp)
    d0bc:	48 c7 85 10 fc ff ff 	movq   $0x0,-0x3f0(%rbp)
    d0c3:	00 00 00 00 
    d0c7:	48 c7 85 18 fc ff ff 	movq   $0x0,-0x3e8(%rbp)
    d0ce:	00 00 00 00 
    d0d2:	48 c7 85 20 fc ff ff 	movq   $0x0,-0x3e0(%rbp)
    d0d9:	00 00 00 00 
    d0dd:	48 8d 85 40 f1 ff ff 	lea    -0xec0(%rbp),%rax
    d0e4:	48 89 85 28 fc ff ff 	mov    %rax,-0x3d8(%rbp)
    d0eb:	48 8d 85 40 f1 ff ff 	lea    -0xec0(%rbp),%rax
    d0f2:	48 89 85 30 fc ff ff 	mov    %rax,-0x3d0(%rbp)
    d0f9:	48 8d 85 40 f1 ff ff 	lea    -0xec0(%rbp),%rax
    d100:	48 89 85 38 fc ff ff 	mov    %rax,-0x3c8(%rbp)
    d107:	48 c7 85 40 fc ff ff 	movq   $0x0,-0x3c0(%rbp)
    d10e:	00 00 00 00 
    d112:	48 c7 85 48 fc ff ff 	movq   $0x0,-0x3b8(%rbp)
    d119:	00 00 00 00 
    d11d:	48 8d 85 40 f1 ff ff 	lea    -0xec0(%rbp),%rax
    d124:	48 89 85 50 fc ff ff 	mov    %rax,-0x3b0(%rbp)
    d12b:	48 c7 85 58 fc ff ff 	movq   $0x0,-0x3a8(%rbp)
    d132:	00 00 00 00 
    d136:	48 8d 85 40 f1 ff ff 	lea    -0xec0(%rbp),%rax
    d13d:	48 89 85 60 fc ff ff 	mov    %rax,-0x3a0(%rbp)
    d144:	48 8d 85 40 f1 ff ff 	lea    -0xec0(%rbp),%rax
    d14b:	48 89 85 68 fc ff ff 	mov    %rax,-0x398(%rbp)
    d152:	48 c7 85 70 fc ff ff 	movq   $0x0,-0x390(%rbp)
    d159:	00 00 00 00 
    d15d:	48 8d 85 40 f1 ff ff 	lea    -0xec0(%rbp),%rax
    d164:	48 89 85 78 fc ff ff 	mov    %rax,-0x388(%rbp)
    d16b:	48 8d 85 40 f1 ff ff 	lea    -0xec0(%rbp),%rax
    d172:	48 89 85 80 fc ff ff 	mov    %rax,-0x380(%rbp)
    d179:	48 8d 85 40 f1 ff ff 	lea    -0xec0(%rbp),%rax
    d180:	48 89 85 88 fc ff ff 	mov    %rax,-0x378(%rbp)
    d187:	48 8d 85 40 f1 ff ff 	lea    -0xec0(%rbp),%rax
    d18e:	48 89 85 90 fc ff ff 	mov    %rax,-0x370(%rbp)
    d195:	48 8d 85 40 f1 ff ff 	lea    -0xec0(%rbp),%rax
    d19c:	48 89 85 98 fc ff ff 	mov    %rax,-0x368(%rbp)
    d1a3:	48 8d 85 40 f1 ff ff 	lea    -0xec0(%rbp),%rax
    d1aa:	48 89 85 a0 fc ff ff 	mov    %rax,-0x360(%rbp)
    d1b1:	48 8d 85 40 f1 ff ff 	lea    -0xec0(%rbp),%rax
    d1b8:	48 89 85 a8 fc ff ff 	mov    %rax,-0x358(%rbp)
    d1bf:	48 8d 85 40 f1 ff ff 	lea    -0xec0(%rbp),%rax
    d1c6:	48 89 85 b0 fc ff ff 	mov    %rax,-0x350(%rbp)
    d1cd:	48 8d 85 40 f1 ff ff 	lea    -0xec0(%rbp),%rax
    d1d4:	48 89 85 b8 fc ff ff 	mov    %rax,-0x348(%rbp)
    d1db:	48 8d 85 40 f1 ff ff 	lea    -0xec0(%rbp),%rax
    d1e2:	48 89 85 c0 fc ff ff 	mov    %rax,-0x340(%rbp)
    d1e9:	48 8d 85 40 f1 ff ff 	lea    -0xec0(%rbp),%rax
    d1f0:	48 89 85 c8 fc ff ff 	mov    %rax,-0x338(%rbp)
    d1f7:	48 8d 85 40 f1 ff ff 	lea    -0xec0(%rbp),%rax
    d1fe:	48 89 85 d0 fc ff ff 	mov    %rax,-0x330(%rbp)
    d205:	48 8d 85 40 f1 ff ff 	lea    -0xec0(%rbp),%rax
    d20c:	48 89 85 d8 fc ff ff 	mov    %rax,-0x328(%rbp)
    d213:	48 8d 85 40 f1 ff ff 	lea    -0xec0(%rbp),%rax
    d21a:	48 89 85 e0 fc ff ff 	mov    %rax,-0x320(%rbp)
    d221:	48 8d 85 40 f1 ff ff 	lea    -0xec0(%rbp),%rax
    d228:	48 89 85 e8 fc ff ff 	mov    %rax,-0x318(%rbp)
    d22f:	48 8d 85 40 f1 ff ff 	lea    -0xec0(%rbp),%rax
    d236:	48 89 85 f0 fc ff ff 	mov    %rax,-0x310(%rbp)
    d23d:	48 8d 85 40 f1 ff ff 	lea    -0xec0(%rbp),%rax
    d244:	48 89 85 f8 fc ff ff 	mov    %rax,-0x308(%rbp)
    d24b:	48 c7 85 00 fd ff ff 	movq   $0x0,-0x300(%rbp)
    d252:	00 00 00 00 
    d256:	48 8d 85 40 f1 ff ff 	lea    -0xec0(%rbp),%rax
    d25d:	48 89 85 08 fd ff ff 	mov    %rax,-0x2f8(%rbp)
    d264:	48 8d 85 40 f1 ff ff 	lea    -0xec0(%rbp),%rax
    d26b:	48 89 85 10 fd ff ff 	mov    %rax,-0x2f0(%rbp)
    d272:	48 8d 85 40 f1 ff ff 	lea    -0xec0(%rbp),%rax
    d279:	48 89 85 18 fd ff ff 	mov    %rax,-0x2e8(%rbp)
    d280:	48 8d 85 40 f1 ff ff 	lea    -0xec0(%rbp),%rax
    d287:	48 89 85 20 fd ff ff 	mov    %rax,-0x2e0(%rbp)
    d28e:	48 8d 85 40 f1 ff ff 	lea    -0xec0(%rbp),%rax
    d295:	48 89 85 28 fd ff ff 	mov    %rax,-0x2d8(%rbp)
    d29c:	48 8d 85 40 f1 ff ff 	lea    -0xec0(%rbp),%rax
    d2a3:	48 89 85 30 fd ff ff 	mov    %rax,-0x2d0(%rbp)
    d2aa:	48 8d 85 40 f1 ff ff 	lea    -0xec0(%rbp),%rax
    d2b1:	48 89 85 38 fd ff ff 	mov    %rax,-0x2c8(%rbp)
    d2b8:	48 8d 85 40 f1 ff ff 	lea    -0xec0(%rbp),%rax
    d2bf:	48 89 85 40 fd ff ff 	mov    %rax,-0x2c0(%rbp)
    d2c6:	48 8d 85 40 f1 ff ff 	lea    -0xec0(%rbp),%rax
    d2cd:	48 89 85 48 fd ff ff 	mov    %rax,-0x2b8(%rbp)
    d2d4:	48 8d 85 40 f1 ff ff 	lea    -0xec0(%rbp),%rax
    d2db:	48 89 85 50 fd ff ff 	mov    %rax,-0x2b0(%rbp)
    d2e2:	48 8d 85 40 f1 ff ff 	lea    -0xec0(%rbp),%rax
    d2e9:	48 89 85 58 fd ff ff 	mov    %rax,-0x2a8(%rbp)
    d2f0:	48 8d 85 40 f1 ff ff 	lea    -0xec0(%rbp),%rax
    d2f7:	48 89 85 60 fd ff ff 	mov    %rax,-0x2a0(%rbp)
    d2fe:	48 c7 85 68 fd ff ff 	movq   $0x0,-0x298(%rbp)
    d305:	00 00 00 00 
    d309:	48 8d 85 40 f1 ff ff 	lea    -0xec0(%rbp),%rax
    d310:	48 89 85 70 fd ff ff 	mov    %rax,-0x290(%rbp)
    d317:	48 c7 85 78 fd ff ff 	movq   $0x0,-0x288(%rbp)
    d31e:	00 00 00 00 
    d322:	48 8d 85 40 f1 ff ff 	lea    -0xec0(%rbp),%rax
    d329:	48 89 85 80 fd ff ff 	mov    %rax,-0x280(%rbp)
    d330:	48 8d 85 40 f1 ff ff 	lea    -0xec0(%rbp),%rax
    d337:	48 89 85 88 fd ff ff 	mov    %rax,-0x278(%rbp)
    d33e:	48 8d 85 40 f1 ff ff 	lea    -0xec0(%rbp),%rax
    d345:	48 89 85 90 fd ff ff 	mov    %rax,-0x270(%rbp)
    d34c:	48 8d 85 40 f1 ff ff 	lea    -0xec0(%rbp),%rax
    d353:	48 89 85 98 fd ff ff 	mov    %rax,-0x268(%rbp)
    d35a:	48 8d 85 40 f1 ff ff 	lea    -0xec0(%rbp),%rax
    d361:	48 89 85 a0 fd ff ff 	mov    %rax,-0x260(%rbp)
    d368:	48 8d 85 40 f1 ff ff 	lea    -0xec0(%rbp),%rax
    d36f:	48 89 85 a8 fd ff ff 	mov    %rax,-0x258(%rbp)
    d376:	48 8d 85 40 f1 ff ff 	lea    -0xec0(%rbp),%rax
    d37d:	48 89 85 b0 fd ff ff 	mov    %rax,-0x250(%rbp)
    d384:	48 8d 85 40 f1 ff ff 	lea    -0xec0(%rbp),%rax
    d38b:	48 89 85 b8 fd ff ff 	mov    %rax,-0x248(%rbp)
    d392:	48 c7 85 c0 fd ff ff 	movq   $0x0,-0x240(%rbp)
    d399:	00 00 00 00 
    d39d:	48 8d 85 40 f1 ff ff 	lea    -0xec0(%rbp),%rax
    d3a4:	48 89 85 c8 fd ff ff 	mov    %rax,-0x238(%rbp)
    d3ab:	48 8d 85 40 f1 ff ff 	lea    -0xec0(%rbp),%rax
    d3b2:	48 89 85 d0 fd ff ff 	mov    %rax,-0x230(%rbp)
    d3b9:	48 8d 85 40 f1 ff ff 	lea    -0xec0(%rbp),%rax
    d3c0:	48 89 85 d8 fd ff ff 	mov    %rax,-0x228(%rbp)
    d3c7:	48 8d 85 40 f1 ff ff 	lea    -0xec0(%rbp),%rax
    d3ce:	48 89 85 e0 fd ff ff 	mov    %rax,-0x220(%rbp)
    d3d5:	48 8d 85 40 f1 ff ff 	lea    -0xec0(%rbp),%rax
    d3dc:	48 89 85 e8 fd ff ff 	mov    %rax,-0x218(%rbp)
    d3e3:	48 8d 85 40 f1 ff ff 	lea    -0xec0(%rbp),%rax
    d3ea:	48 89 85 f0 fd ff ff 	mov    %rax,-0x210(%rbp)
    d3f1:	48 8d 85 40 f1 ff ff 	lea    -0xec0(%rbp),%rax
    d3f8:	48 89 85 f8 fd ff ff 	mov    %rax,-0x208(%rbp)
    d3ff:	48 8d 85 40 f1 ff ff 	lea    -0xec0(%rbp),%rax
    d406:	48 89 85 00 fe ff ff 	mov    %rax,-0x200(%rbp)
    d40d:	48 8d 85 40 f1 ff ff 	lea    -0xec0(%rbp),%rax
    d414:	48 89 85 08 fe ff ff 	mov    %rax,-0x1f8(%rbp)
    d41b:	48 8d 85 40 f1 ff ff 	lea    -0xec0(%rbp),%rax
    d422:	48 89 85 10 fe ff ff 	mov    %rax,-0x1f0(%rbp)
    d429:	48 8d 85 40 f1 ff ff 	lea    -0xec0(%rbp),%rax
    d430:	48 89 85 18 fe ff ff 	mov    %rax,-0x1e8(%rbp)
    d437:	48 8d 85 40 f1 ff ff 	lea    -0xec0(%rbp),%rax
    d43e:	48 89 85 20 fe ff ff 	mov    %rax,-0x1e0(%rbp)
    d445:	48 8d 85 40 f1 ff ff 	lea    -0xec0(%rbp),%rax
    d44c:	48 89 85 28 fe ff ff 	mov    %rax,-0x1d8(%rbp)
    d453:	48 8d 85 40 f1 ff ff 	lea    -0xec0(%rbp),%rax
    d45a:	48 89 85 30 fe ff ff 	mov    %rax,-0x1d0(%rbp)
    d461:	48 8d 85 40 f1 ff ff 	lea    -0xec0(%rbp),%rax
    d468:	48 89 85 38 fe ff ff 	mov    %rax,-0x1c8(%rbp)
    d46f:	48 8d 85 40 f1 ff ff 	lea    -0xec0(%rbp),%rax
    d476:	48 89 85 40 fe ff ff 	mov    %rax,-0x1c0(%rbp)
    d47d:	48 8d 85 40 f1 ff ff 	lea    -0xec0(%rbp),%rax
    d484:	48 89 85 48 fe ff ff 	mov    %rax,-0x1b8(%rbp)
    d48b:	48 8d 85 40 f1 ff ff 	lea    -0xec0(%rbp),%rax
    d492:	48 89 85 50 fe ff ff 	mov    %rax,-0x1b0(%rbp)
    d499:	48 8d 85 40 f1 ff ff 	lea    -0xec0(%rbp),%rax
    d4a0:	48 89 85 58 fe ff ff 	mov    %rax,-0x1a8(%rbp)
    d4a7:	48 8d 85 40 f1 ff ff 	lea    -0xec0(%rbp),%rax
    d4ae:	48 89 85 60 fe ff ff 	mov    %rax,-0x1a0(%rbp)
    d4b5:	48 c7 85 68 fe ff ff 	movq   $0x0,-0x198(%rbp)
    d4bc:	00 00 00 00 
    d4c0:	48 8d 85 40 f1 ff ff 	lea    -0xec0(%rbp),%rax
    d4c7:	48 89 85 70 fe ff ff 	mov    %rax,-0x190(%rbp)
    d4ce:	48 8d 85 40 f1 ff ff 	lea    -0xec0(%rbp),%rax
    d4d5:	48 89 85 78 fe ff ff 	mov    %rax,-0x188(%rbp)
    d4dc:	48 8d 85 40 f1 ff ff 	lea    -0xec0(%rbp),%rax
    d4e3:	48 89 85 80 fe ff ff 	mov    %rax,-0x180(%rbp)
    d4ea:	48 8d 85 40 f1 ff ff 	lea    -0xec0(%rbp),%rax
    d4f1:	48 89 85 88 fe ff ff 	mov    %rax,-0x178(%rbp)
    d4f8:	48 8d 85 40 f1 ff ff 	lea    -0xec0(%rbp),%rax
    d4ff:	48 89 85 90 fe ff ff 	mov    %rax,-0x170(%rbp)
    d506:	48 8d 85 40 f1 ff ff 	lea    -0xec0(%rbp),%rax
    d50d:	48 89 85 98 fe ff ff 	mov    %rax,-0x168(%rbp)
    d514:	48 8d 85 40 f1 ff ff 	lea    -0xec0(%rbp),%rax
    d51b:	48 89 85 a0 fe ff ff 	mov    %rax,-0x160(%rbp)
    d522:	48 c7 85 a8 fe ff ff 	movq   $0x0,-0x158(%rbp)
    d529:	00 00 00 00 
    d52d:	48 8d 85 40 f1 ff ff 	lea    -0xec0(%rbp),%rax
    d534:	48 89 85 b0 fe ff ff 	mov    %rax,-0x150(%rbp)
    d53b:	48 c7 85 b8 fe ff ff 	movq   $0x0,-0x148(%rbp)
    d542:	00 00 00 00 
    d546:	48 8d 85 40 f1 ff ff 	lea    -0xec0(%rbp),%rax
    d54d:	48 89 85 c0 fe ff ff 	mov    %rax,-0x140(%rbp)
    d554:	48 8d 85 40 f1 ff ff 	lea    -0xec0(%rbp),%rax
    d55b:	48 89 85 c8 fe ff ff 	mov    %rax,-0x138(%rbp)
    d562:	48 8d 85 40 f1 ff ff 	lea    -0xec0(%rbp),%rax
    d569:	48 89 85 d0 fe ff ff 	mov    %rax,-0x130(%rbp)
    d570:	48 c7 85 d8 fe ff ff 	movq   $0x0,-0x128(%rbp)
    d577:	00 00 00 00 
    d57b:	48 8d 85 40 f1 ff ff 	lea    -0xec0(%rbp),%rax
    d582:	48 89 85 e0 fe ff ff 	mov    %rax,-0x120(%rbp)
    d589:	48 8d 85 40 f1 ff ff 	lea    -0xec0(%rbp),%rax
    d590:	48 89 85 e8 fe ff ff 	mov    %rax,-0x118(%rbp)
    d597:	48 8d 85 40 f1 ff ff 	lea    -0xec0(%rbp),%rax
    d59e:	48 89 85 f0 fe ff ff 	mov    %rax,-0x110(%rbp)
    d5a5:	48 8d 85 40 f1 ff ff 	lea    -0xec0(%rbp),%rax
    d5ac:	48 89 85 f8 fe ff ff 	mov    %rax,-0x108(%rbp)
    d5b3:	48 8d 85 40 f1 ff ff 	lea    -0xec0(%rbp),%rax
    d5ba:	48 89 85 00 ff ff ff 	mov    %rax,-0x100(%rbp)
    d5c1:	48 8d 85 40 f1 ff ff 	lea    -0xec0(%rbp),%rax
    d5c8:	48 89 85 08 ff ff ff 	mov    %rax,-0xf8(%rbp)
    d5cf:	48 8d 85 40 f1 ff ff 	lea    -0xec0(%rbp),%rax
    d5d6:	48 89 85 10 ff ff ff 	mov    %rax,-0xf0(%rbp)
    d5dd:	48 c7 85 18 ff ff ff 	movq   $0x0,-0xe8(%rbp)
    d5e4:	00 00 00 00 
    d5e8:	48 8d 85 40 f1 ff ff 	lea    -0xec0(%rbp),%rax
    d5ef:	48 89 85 20 ff ff ff 	mov    %rax,-0xe0(%rbp)
    d5f6:	48 8d 85 40 f1 ff ff 	lea    -0xec0(%rbp),%rax
    d5fd:	48 89 85 28 ff ff ff 	mov    %rax,-0xd8(%rbp)
    d604:	48 8d 85 40 f1 ff ff 	lea    -0xec0(%rbp),%rax
    d60b:	48 89 85 30 ff ff ff 	mov    %rax,-0xd0(%rbp)
    d612:	48 8d 85 40 f1 ff ff 	lea    -0xec0(%rbp),%rax
    d619:	48 89 85 38 ff ff ff 	mov    %rax,-0xc8(%rbp)
    d620:	48 8d 85 40 f1 ff ff 	lea    -0xec0(%rbp),%rax
    d627:	48 89 85 40 ff ff ff 	mov    %rax,-0xc0(%rbp)
    d62e:	48 8d 85 40 f1 ff ff 	lea    -0xec0(%rbp),%rax
    d635:	48 89 85 48 ff ff ff 	mov    %rax,-0xb8(%rbp)
    d63c:	48 8d 85 40 f1 ff ff 	lea    -0xec0(%rbp),%rax
    d643:	48 89 85 50 ff ff ff 	mov    %rax,-0xb0(%rbp)
    d64a:	48 8d 85 40 f1 ff ff 	lea    -0xec0(%rbp),%rax
    d651:	48 89 85 58 ff ff ff 	mov    %rax,-0xa8(%rbp)
    d658:	48 8d 85 40 f1 ff ff 	lea    -0xec0(%rbp),%rax
    d65f:	48 89 85 60 ff ff ff 	mov    %rax,-0xa0(%rbp)
    d666:	48 8d 85 40 f1 ff ff 	lea    -0xec0(%rbp),%rax
    d66d:	48 89 85 68 ff ff ff 	mov    %rax,-0x98(%rbp)
    d674:	48 8d 85 40 f1 ff ff 	lea    -0xec0(%rbp),%rax
    d67b:	48 89 85 70 ff ff ff 	mov    %rax,-0x90(%rbp)
    d682:	48 8d 85 40 f1 ff ff 	lea    -0xec0(%rbp),%rax
    d689:	48 89 85 78 ff ff ff 	mov    %rax,-0x88(%rbp)
    d690:	48 8d 85 40 f1 ff ff 	lea    -0xec0(%rbp),%rax
    d697:	48 89 45 80          	mov    %rax,-0x80(%rbp)
    d69b:	48 8d 85 40 f1 ff ff 	lea    -0xec0(%rbp),%rax
    d6a2:	48 89 45 88          	mov    %rax,-0x78(%rbp)
    d6a6:	48 8d 85 40 f1 ff ff 	lea    -0xec0(%rbp),%rax
    d6ad:	48 89 45 90          	mov    %rax,-0x70(%rbp)
    d6b1:	48 8d 85 40 f1 ff ff 	lea    -0xec0(%rbp),%rax
    d6b8:	48 89 45 98          	mov    %rax,-0x68(%rbp)
    d6bc:	48 8d 85 40 f1 ff ff 	lea    -0xec0(%rbp),%rax
    d6c3:	48 89 45 a0          	mov    %rax,-0x60(%rbp)
    d6c7:	48 c7 45 a8 00 00 00 	movq   $0x0,-0x58(%rbp)
    d6ce:	00 
    d6cf:	48 8d 85 40 f1 ff ff 	lea    -0xec0(%rbp),%rax
    d6d6:	48 89 45 b0          	mov    %rax,-0x50(%rbp)
    d6da:	48 8d 85 40 f1 ff ff 	lea    -0xec0(%rbp),%rax
    d6e1:	48 89 45 b8          	mov    %rax,-0x48(%rbp)
    d6e5:	48 8d 85 40 f1 ff ff 	lea    -0xec0(%rbp),%rax
    d6ec:	48 89 45 c0          	mov    %rax,-0x40(%rbp)
    d6f0:	48 8d 85 40 f1 ff ff 	lea    -0xec0(%rbp),%rax
    d6f7:	48 89 45 c8          	mov    %rax,-0x38(%rbp)
    d6fb:	48 8d 85 40 f1 ff ff 	lea    -0xec0(%rbp),%rax
    d702:	48 89 45 d0          	mov    %rax,-0x30(%rbp)
    d706:	48 8d 85 40 f1 ff ff 	lea    -0xec0(%rbp),%rax
    d70d:	48 89 45 d8          	mov    %rax,-0x28(%rbp)
    d711:	48 8d 85 40 f1 ff ff 	lea    -0xec0(%rbp),%rax
    d718:	48 89 45 e0          	mov    %rax,-0x20(%rbp)
    d71c:	48 8d 85 40 f1 ff ff 	lea    -0xec0(%rbp),%rax
    d723:	48 89 45 e8          	mov    %rax,-0x18(%rbp)
    d727:	48 8d 85 40 f1 ff ff 	lea    -0xec0(%rbp),%rax
    d72e:	48 89 45 f0          	mov    %rax,-0x10(%rbp)
    d732:	48 8d 85 f0 f8 ff ff 	lea    -0x710(%rbp),%rax
    d739:	48 05 d0 01 00 00    	add    $0x1d0,%rax
    d73f:	48 89 85 88 f1 ff ff 	mov    %rax,-0xe78(%rbp)
    d746:	66 c7 85 02 f1 ff ff 	movw   $0xd46e,-0xefe(%rbp)
    d74d:	6e d4 
    d74f:	c7 85 14 f1 ff ff a9 	movl   $0x6e7902a9,-0xeec(%rbp)
    d756:	02 79 6e 
    d759:	48 8d 05 90 c9 00 00 	lea    0xc990(%rip),%rax        # 1a0f0 <g_332>
    d760:	48 89 85 90 f1 ff ff 	mov    %rax,-0xe70(%rbp)
    d767:	48 8d 05 e2 ca 00 00 	lea    0xcae2(%rip),%rax        # 1a250 <g_375+0x30>
    d76e:	48 89 85 98 f1 ff ff 	mov    %rax,-0xe68(%rbp)
    d775:	c7 85 00 f2 ff ff f7 	movl   $0xfffffff7,-0xe00(%rbp)
    d77c:	ff ff ff 
    d77f:	c7 85 04 f2 ff ff f7 	movl   $0xfffffff7,-0xdfc(%rbp)
    d786:	ff ff ff 
    d789:	c7 85 08 f2 ff ff 00 	movl   $0x0,-0xdf8(%rbp)
    d790:	00 00 00 
    d793:	c7 85 0c f2 ff ff f7 	movl   $0xfffffff7,-0xdf4(%rbp)
    d79a:	ff ff ff 
    d79d:	c7 85 10 f2 ff ff f7 	movl   $0xfffffff7,-0xdf0(%rbp)
    d7a4:	ff ff ff 
    d7a7:	c7 85 14 f2 ff ff 00 	movl   $0x0,-0xdec(%rbp)
    d7ae:	00 00 00 
    d7b1:	66 c7 85 04 f1 ff ff 	movw   $0xf504,-0xefc(%rbp)
    d7b8:	04 f5 
    d7ba:	48 c7 85 a0 f1 ff ff 	movq   $0x0,-0xe60(%rbp)
    d7c1:	00 00 00 00 
    d7c5:	48 c7 85 48 f1 ff ff 	movq   $0x0,-0xeb8(%rbp)
    d7cc:	00 00 00 00 
    d7d0:	c7 85 48 f1 ff ff 1c 	movl   $0xba384d1c,-0xeb8(%rbp)
    d7d7:	4d 38 ba 
    d7da:	48 c7 85 f2 f1 ff ff 	movq   $0x0,-0xe0e(%rbp)
    d7e1:	00 00 00 00 
    d7e5:	c7 85 fa f1 ff ff 00 	movl   $0x0,-0xe06(%rbp)
    d7ec:	00 00 00 
    d7ef:	66 c7 85 fe f1 ff ff 	movw   $0x0,-0xe02(%rbp)
    d7f6:	00 00 
    d7f8:	48 c7 85 a8 f1 ff ff 	movq   $0x0,-0xe58(%rbp)
    d7ff:	00 00 00 00 
    d803:	c7 85 18 f1 ff ff fb 	movl   $0xf8b3bcfb,-0xee8(%rbp)
    d80a:	bc b3 f8 
    d80d:	48 8d 05 94 dc 00 00 	lea    0xdc94(%rip),%rax        # 1b4a8 <g_772>
    d814:	48 89 85 b0 f1 ff ff 	mov    %rax,-0xe50(%rbp)
    d81b:	c6 85 00 f1 ff ff e8 	movb   $0xe8,-0xf00(%rbp)
    d822:	c7 85 1c f1 ff ff 01 	movl   $0x1,-0xee4(%rbp)
    d829:	00 00 00 
    d82c:	48 8d 85 a0 f5 ff ff 	lea    -0xa60(%rbp),%rax
    d833:	48 8d 15 46 c5 00 00 	lea    0xc546(%rip),%rdx        # 19d80 <g_3189+0xce8>
    d83a:	b9 69 00 00 00       	mov    $0x69,%ecx
    d83f:	48 89 c7             	mov    %rax,%rdi
    d842:	48 89 d6             	mov    %rdx,%rsi
    d845:	f3 48 a5             	rep movsq %ds:(%rsi),%es:(%rdi)
    d848:	48 8d 85 a0 f5 ff ff 	lea    -0xa60(%rbp),%rax
    d84f:	48 05 20 01 00 00    	add    $0x120,%rax
    d855:	48 89 85 b8 f1 ff ff 	mov    %rax,-0xe48(%rbp)
    d85c:	48 8d 05 0d cb 00 00 	lea    0xcb0d(%rip),%rax        # 1a370 <g_822>
    d863:	48 89 85 50 f1 ff ff 	mov    %rax,-0xeb0(%rbp)
    d86a:	48 8d 85 50 f1 ff ff 	lea    -0xeb0(%rbp),%rax
    d871:	48 89 85 c0 f1 ff ff 	mov    %rax,-0xe40(%rbp)
    d878:	c7 85 20 f1 ff ff c8 	movl   $0xaa515ec8,-0xee0(%rbp)
    d87f:	5e 51 aa 
    d882:	c7 85 24 f1 ff ff 16 	movl   $0x5512d16,-0xedc(%rbp)
    d889:	2d 51 05 
    d88c:	48 8d 85 10 f3 ff ff 	lea    -0xcf0(%rbp),%rax
    d893:	48 8d 15 06 6d 00 00 	lea    0x6d06(%rip),%rdx        # 145a0 <g_2736+0x530>
    d89a:	b9 1f 00 00 00       	mov    $0x1f,%ecx
    d89f:	48 89 c7             	mov    %rax,%rdi
    d8a2:	48 89 d6             	mov    %rdx,%rsi
    d8a5:	f3 48 a5             	rep movsq %ds:(%rsi),%es:(%rdi)
    d8a8:	48 89 f2             	mov    %rsi,%rdx
    d8ab:	48 89 f8             	mov    %rdi,%rax
    d8ae:	0f b7 0a             	movzwl (%rdx),%ecx
    d8b1:	66 89 08             	mov    %cx,(%rax)
    d8b4:	48 8d 40 02          	lea    0x2(%rax),%rax
    d8b8:	48 8d 52 02          	lea    0x2(%rdx),%rdx
    d8bc:	66 c7 85 06 f1 ff ff 	movw   $0xfffe,-0xefa(%rbp)
    d8c3:	fe ff 
    d8c5:	48 c7 85 58 f1 ff ff 	movq   $0x0,-0xea8(%rbp)
    d8cc:	00 00 00 00 
    d8d0:	48 c7 85 c8 f1 ff ff 	movq   $0x0,-0xe38(%rbp)
    d8d7:	00 00 00 00 
    d8db:	48 c7 85 d0 f1 ff ff 	movq   $0x0,-0xe30(%rbp)
    d8e2:	00 00 00 00 
    d8e6:	48 8d 05 03 c8 00 00 	lea    0xc803(%rip),%rax        # 1a0f0 <g_332>
    d8ed:	48 89 85 d8 f1 ff ff 	mov    %rax,-0xe28(%rbp)
    d8f4:	c6 85 01 f1 ff ff fd 	movb   $0xfd,-0xeff(%rbp)
    d8fb:	48 8d 85 10 f4 ff ff 	lea    -0xbf0(%rbp),%rax
    d902:	48 8d 15 97 6d 00 00 	lea    0x6d97(%rip),%rdx        # 146a0 <g_2736+0x630>
    d909:	b9 32 00 00 00       	mov    $0x32,%ecx
    d90e:	48 89 c7             	mov    %rax,%rdi
    d911:	48 89 d6             	mov    %rdx,%rsi
    d914:	f3 48 a5             	rep movsq %ds:(%rsi),%es:(%rdi)
    d917:	48 8d 85 58 f1 ff ff 	lea    -0xea8(%rbp),%rax
    d91e:	48 89 85 e0 f1 ff ff 	mov    %rax,-0xe20(%rbp)
    d925:	48 8d 05 b4 cb 00 00 	lea    0xcbb4(%rip),%rax        # 1a4e0 <g_1576+0xc0>
    d92c:	48 89 85 e8 f1 ff ff 	mov    %rax,-0xe18(%rbp)
    d933:	83 ad 0c f1 ff ff 01 	subl   $0x1,-0xef4(%rbp)
    d93a:	66 0f be 85 fc f0 ff 	movsbw -0xf04(%rbp),%ax
    d941:	ff 
    d942:	48 8b 75 f8          	mov    -0x8(%rbp),%rsi
    d946:	64 48 33 34 25 28 00 	xor    %fs:0x28,%rsi
    d94d:	00 00 
    d94f:	74 05                	je     d956 <func_30+0x100c>
    d951:	e8 1a 87 ff ff       	callq  6070 <__stack_chk_fail@plt>
    d956:	c9                   	leaveq 
    d957:	c3                   	retq   

000000000000d958 <func_32>:
    d958:	f3 0f 1e fa          	endbr64 
    d95c:	55                   	push   %rbp
    d95d:	48 89 e5             	mov    %rsp,%rbp
    d960:	41 57                	push   %r15
    d962:	41 56                	push   %r14
    d964:	41 55                	push   %r13
    d966:	41 54                	push   %r12
    d968:	53                   	push   %rbx
    d969:	48 81 ec 00 10 00 00 	sub    $0x1000,%rsp
    d970:	48 83 0c 24 00       	orq    $0x0,(%rsp)
    d975:	48 83 ec 78          	sub    $0x78,%rsp
    d979:	48 89 bd 78 ef ff ff 	mov    %rdi,-0x1088(%rbp)
    d980:	48 89 b5 70 ef ff ff 	mov    %rsi,-0x1090(%rbp)
    d987:	64 48 8b 04 25 28 00 	mov    %fs:0x28,%rax
    d98e:	00 00 
    d990:	48 89 45 c8          	mov    %rax,-0x38(%rbp)
    d994:	31 c0                	xor    %eax,%eax
    d996:	48 8d 05 eb da 00 00 	lea    0xdaeb(%rip),%rax        # 1b488 <g_2>
    d99d:	48 89 85 58 f0 ff ff 	mov    %rax,-0xfa8(%rbp)
    d9a4:	c7 85 9c ef ff ff 00 	movl   $0x0,-0x1064(%rbp)
    d9ab:	00 00 00 
    d9ae:	48 b8 92 2f 30 0e f4 	movabs $0x9f7867f40e302f92,%rax
    d9b5:	67 78 9f 
    d9b8:	48 89 85 60 f0 ff ff 	mov    %rax,-0xfa0(%rbp)
    d9bf:	48 8d 85 9c ef ff ff 	lea    -0x1064(%rbp),%rax
    d9c6:	48 89 85 30 f3 ff ff 	mov    %rax,-0xcd0(%rbp)
    d9cd:	48 8d 85 9c ef ff ff 	lea    -0x1064(%rbp),%rax
    d9d4:	48 89 85 38 f3 ff ff 	mov    %rax,-0xcc8(%rbp)
    d9db:	48 8d 85 9c ef ff ff 	lea    -0x1064(%rbp),%rax
    d9e2:	48 89 85 40 f3 ff ff 	mov    %rax,-0xcc0(%rbp)
    d9e9:	48 8d 85 9c ef ff ff 	lea    -0x1064(%rbp),%rax
    d9f0:	48 89 85 48 f3 ff ff 	mov    %rax,-0xcb8(%rbp)
    d9f7:	48 8d 85 30 f3 ff ff 	lea    -0xcd0(%rbp),%rax
    d9fe:	48 83 c0 08          	add    $0x8,%rax
    da02:	48 89 85 68 f0 ff ff 	mov    %rax,-0xf98(%rbp)
    da09:	48 c7 85 f8 f0 ff ff 	movq   $0x0,-0xf08(%rbp)
    da10:	00 00 00 00 
    da14:	66 c7 85 92 ef ff ff 	movw   $0x106f,-0x106e(%rbp)
    da1b:	6f 10 
    da1d:	48 8d 05 5c ad 00 00 	lea    0xad5c(%rip),%rax        # 18780 <g_204>
    da24:	48 89 85 70 f0 ff ff 	mov    %rax,-0xf90(%rbp)
    da2b:	48 c7 85 e0 f2 ff ff 	movq   $0x0,-0xd20(%rbp)
    da32:	00 00 00 00 
    da36:	48 c7 85 e8 f2 ff ff 	movq   $0x0,-0xd18(%rbp)
    da3d:	00 00 00 00 
    da41:	c7 85 e0 f2 ff ff f9 	movl   $0xfffffff9,-0xd20(%rbp)
    da48:	ff ff ff 
    da4b:	c7 85 e8 f2 ff ff f9 	movl   $0xfffffff9,-0xd18(%rbp)
    da52:	ff ff ff 
    da55:	48 8d 05 2c ad 00 00 	lea    0xad2c(%rip),%rax        # 18788 <g_218>
    da5c:	48 89 85 78 f0 ff ff 	mov    %rax,-0xf88(%rbp)
    da63:	c7 85 60 f4 ff ff 01 	movl   $0x1,-0xba0(%rbp)
    da6a:	00 00 00 
    da6d:	c7 85 64 f4 ff ff 01 	movl   $0x1,-0xb9c(%rbp)
    da74:	00 00 00 
    da77:	c7 85 68 f4 ff ff 85 	movl   $0x61c28e85,-0xb98(%rbp)
    da7e:	8e c2 61 
    da81:	c7 85 6c f4 ff ff da 	movl   $0x4176eada,-0xb94(%rbp)
    da88:	ea 76 41 
    da8b:	c7 85 70 f4 ff ff 85 	movl   $0x61c28e85,-0xb90(%rbp)
    da92:	8e c2 61 
    da95:	c7 85 74 f4 ff ff 01 	movl   $0x1,-0xb8c(%rbp)
    da9c:	00 00 00 
    da9f:	c7 85 78 f4 ff ff 01 	movl   $0x1,-0xb88(%rbp)
    daa6:	00 00 00 
    daa9:	c7 85 7c f4 ff ff 85 	movl   $0x61c28e85,-0xb84(%rbp)
    dab0:	8e c2 61 
    dab3:	c7 85 80 f4 ff ff da 	movl   $0x4176eada,-0xb80(%rbp)
    daba:	ea 76 41 
    dabd:	c7 85 84 f4 ff ff 85 	movl   $0x61c28e85,-0xb7c(%rbp)
    dac4:	8e c2 61 
    dac7:	c7 85 88 f4 ff ff 01 	movl   $0x1,-0xb78(%rbp)
    dace:	00 00 00 
    dad1:	c7 85 8c f4 ff ff 01 	movl   $0x1,-0xb74(%rbp)
    dad8:	00 00 00 
    dadb:	c7 85 90 f4 ff ff 85 	movl   $0x61c28e85,-0xb70(%rbp)
    dae2:	8e c2 61 
    dae5:	c7 85 94 f4 ff ff da 	movl   $0x4176eada,-0xb6c(%rbp)
    daec:	ea 76 41 
    daef:	c7 85 98 f4 ff ff 85 	movl   $0x61c28e85,-0xb68(%rbp)
    daf6:	8e c2 61 
    daf9:	c7 85 9c f4 ff ff 01 	movl   $0x1,-0xb64(%rbp)
    db00:	00 00 00 
    db03:	c7 85 a0 f4 ff ff 01 	movl   $0x1,-0xb60(%rbp)
    db0a:	00 00 00 
    db0d:	c7 85 a4 f4 ff ff 85 	movl   $0x61c28e85,-0xb5c(%rbp)
    db14:	8e c2 61 
    db17:	c7 85 a8 f4 ff ff da 	movl   $0x4176eada,-0xb58(%rbp)
    db1e:	ea 76 41 
    db21:	c7 85 ac f4 ff ff 85 	movl   $0x61c28e85,-0xb54(%rbp)
    db28:	8e c2 61 
    db2b:	48 8d 05 2a a5 00 00 	lea    0xa52a(%rip),%rax        # 1805c <g_81+0x1c>
    db32:	48 89 85 00 f1 ff ff 	mov    %rax,-0xf00(%rbp)
    db39:	48 8d 05 28 65 00 00 	lea    0x6528(%rip),%rax        # 14068 <g_609>
    db40:	48 89 85 80 f0 ff ff 	mov    %rax,-0xf80(%rbp)
    db47:	c7 85 d0 ef ff ff 38 	movl   $0xf3c83c38,-0x1030(%rbp)
    db4e:	3c c8 f3 
    db51:	48 8d 05 3c ac 00 00 	lea    0xac3c(%rip),%rax        # 18794 <g_292>
    db58:	48 89 85 08 f1 ff ff 	mov    %rax,-0xef8(%rbp)
    db5f:	c7 85 d4 ef ff ff b9 	movl   $0xd101b9,-0x102c(%rbp)
    db66:	01 d1 00 
    db69:	48 8d 05 90 c5 00 00 	lea    0xc590(%rip),%rax        # 1a100 <g_359>
    db70:	48 89 85 10 f1 ff ff 	mov    %rax,-0xef0(%rbp)
    db77:	48 8d 85 60 f0 ff ff 	lea    -0xfa0(%rbp),%rax
    db7e:	48 89 85 88 f0 ff ff 	mov    %rax,-0xf78(%rbp)
    db85:	48 8d 85 88 f0 ff ff 	lea    -0xf78(%rbp),%rax
    db8c:	48 89 85 f0 f2 ff ff 	mov    %rax,-0xd10(%rbp)
    db93:	48 8d 85 88 f0 ff ff 	lea    -0xf78(%rbp),%rax
    db9a:	48 89 85 f8 f2 ff ff 	mov    %rax,-0xd08(%rbp)
    dba1:	48 8d 85 88 f0 ff ff 	lea    -0xf78(%rbp),%rax
    dba8:	48 89 85 00 f3 ff ff 	mov    %rax,-0xd00(%rbp)
    dbaf:	c7 85 d8 ef ff ff f7 	movl   $0xfffffff7,-0x1028(%rbp)
    dbb6:	ff ff ff 
    dbb9:	66 c7 85 94 ef ff ff 	movw   $0xfff9,-0x106c(%rbp)
    dbc0:	f9 ff 
    dbc2:	c7 85 a0 ef ff ff 46 	movl   $0x7554b146,-0x1060(%rbp)
    dbc9:	b1 54 75 
    dbcc:	66 c7 85 96 ef ff ff 	movw   $0xfff7,-0x106a(%rbp)
    dbd3:	f7 ff 
    dbd5:	48 8d 85 78 f0 ff ff 	lea    -0xf88(%rbp),%rax
    dbdc:	48 89 85 90 f0 ff ff 	mov    %rax,-0xf70(%rbp)
    dbe3:	48 8d 85 90 f0 ff ff 	lea    -0xf70(%rbp),%rax
    dbea:	48 89 85 18 f1 ff ff 	mov    %rax,-0xee8(%rbp)
    dbf1:	48 8d 05 a8 d8 00 00 	lea    0xd8a8(%rip),%rax        # 1b4a0 <g_599>
    dbf8:	48 89 85 20 f1 ff ff 	mov    %rax,-0xee0(%rbp)
    dbff:	48 c7 85 c0 f2 ff ff 	movq   $0x0,-0xd40(%rbp)
    dc06:	00 00 00 00 
    dc0a:	c7 85 c0 f2 ff ff 06 	movl   $0x6,-0xd40(%rbp)
    dc11:	00 00 00 
    dc14:	c7 85 dc ef ff ff bb 	movl   $0x4a4111bb,-0x1024(%rbp)
    dc1b:	11 41 4a 
    dc1e:	48 b8 5c 28 13 c7 19 	movabs $0x97bab919c713285c,%rax
    dc25:	b9 ba 97 
    dc28:	48 89 85 a0 f3 ff ff 	mov    %rax,-0xc60(%rbp)
    dc2f:	48 89 85 a8 f3 ff ff 	mov    %rax,-0xc58(%rbp)
    dc36:	48 89 85 b0 f3 ff ff 	mov    %rax,-0xc50(%rbp)
    dc3d:	48 89 85 b8 f3 ff ff 	mov    %rax,-0xc48(%rbp)
    dc44:	48 89 85 c0 f3 ff ff 	mov    %rax,-0xc40(%rbp)
    dc4b:	48 89 85 c8 f3 ff ff 	mov    %rax,-0xc38(%rbp)
    dc52:	0f b6 05 2f d8 00 00 	movzbl 0xd82f(%rip),%eax        # 1b488 <g_2>
    dc59:	66 98                	cbtw   
    dc5b:	0f b7 d0             	movzwl %ax,%edx
    dc5e:	8b 85 9c ef ff ff    	mov    -0x1064(%rbp),%eax
    dc64:	0f b7 c0             	movzwl %ax,%eax
    dc67:	89 d6                	mov    %edx,%esi
    dc69:	89 c7                	mov    %eax,%edi
    dc6b:	e8 8f 90 ff ff       	callq  6cff <safe_add_func_uint16_t_u_u>
    dc70:	0f b7 d8             	movzwl %ax,%ebx
    dc73:	48 8b 85 78 ef ff ff 	mov    -0x1088(%rbp),%rax
    dc7a:	0f b6 00             	movzbl (%rax),%eax
    dc7d:	44 0f be e0          	movsbl %al,%r12d
    dc81:	be fe ff ff ff       	mov    $0xfffffffe,%esi
    dc86:	bf 01 00 00 00       	mov    $0x1,%edi
    dc8b:	e8 95 92 ff ff       	callq  6f25 <safe_div_func_uint32_t_u_u>
    dc90:	44 09 e0             	or     %r12d,%eax
    dc93:	85 c0                	test   %eax,%eax
    dc95:	74 11                	je     dca8 <func_32+0x350>
    dc97:	8b 85 9c ef ff ff    	mov    -0x1064(%rbp),%eax
    dc9d:	85 c0                	test   %eax,%eax
    dc9f:	74 07                	je     dca8 <func_32+0x350>
    dca1:	b8 01 00 00 00       	mov    $0x1,%eax
    dca6:	eb 05                	jmp    dcad <func_32+0x355>
    dca8:	b8 00 00 00 00       	mov    $0x0,%eax
    dcad:	09 d8                	or     %ebx,%eax
    dcaf:	85 c0                	test   %eax,%eax
    dcb1:	74 07                	je     dcba <func_32+0x362>
    dcb3:	ba 01 00 00 00       	mov    $0x1,%edx
    dcb8:	eb 05                	jmp    dcbf <func_32+0x367>
    dcba:	ba 00 00 00 00       	mov    $0x0,%edx
    dcbf:	8b 85 9c ef ff ff    	mov    -0x1064(%rbp),%eax
    dcc5:	31 d0                	xor    %edx,%eax
    dcc7:	41 89 c4             	mov    %eax,%r12d
    dcca:	8b 85 9c ef ff ff    	mov    -0x1064(%rbp),%eax
    dcd0:	0f be d8             	movsbl %al,%ebx
    dcd3:	48 8b 95 78 ef ff ff 	mov    -0x1088(%rbp),%rdx
    dcda:	48 8b 85 58 f0 ff ff 	mov    -0xfa8(%rbp),%rax
    dce1:	48 39 c2             	cmp    %rax,%rdx
    dce4:	0f 95 c0             	setne  %al
    dce7:	0f b6 d0             	movzbl %al,%edx
    dcea:	8b 05 34 a3 00 00    	mov    0xa334(%rip),%eax        # 18024 <g_66>
    dcf0:	98                   	cwtl   
    dcf1:	89 d6                	mov    %edx,%esi
    dcf3:	89 c7                	mov    %eax,%edi
    dcf5:	e8 fb 86 ff ff       	callq  63f5 <safe_mul_func_int16_t_s_s>
    dcfa:	0f be c0             	movsbl %al,%eax
    dcfd:	89 de                	mov    %ebx,%esi
    dcff:	89 c7                	mov    %eax,%edi
    dd01:	e8 64 85 ff ff       	callq  626a <safe_div_func_int8_t_s_s>
    dd06:	0f be c0             	movsbl %al,%eax
    dd09:	44 89 e6             	mov    %r12d,%esi
    dd0c:	89 c7                	mov    %eax,%edi
    dd0e:	e8 12 92 ff ff       	callq  6f25 <safe_div_func_uint32_t_u_u>
    dd13:	85 c0                	test   %eax,%eax
    dd15:	0f 84 d7 04 00 00    	je     e1f2 <func_32+0x89a>
    dd1b:	48 8d 85 b0 f4 ff ff 	lea    -0xb50(%rbp),%rax
    dd22:	48 89 85 60 f2 ff ff 	mov    %rax,-0xda0(%rbp)
    dd29:	48 8d 05 59 d7 00 00 	lea    0xd759(%rip),%rax        # 1b489 <g_92>
    dd30:	48 89 85 68 f2 ff ff 	mov    %rax,-0xd98(%rbp)
    dd37:	48 c7 85 d8 f0 ff ff 	movq   $0x0,-0xf28(%rbp)
    dd3e:	00 00 00 00 
    dd42:	c7 85 d8 f0 ff ff fe 	movl   $0xfffffffe,-0xf28(%rbp)
    dd49:	ff ff ff 
    dd4c:	48 8d 05 35 d7 00 00 	lea    0xd735(%rip),%rax        # 1b488 <g_2>
    dd53:	48 89 85 e0 f0 ff ff 	mov    %rax,-0xf20(%rbp)
    dd5a:	48 8d 85 b0 f4 ff ff 	lea    -0xb50(%rbp),%rax
    dd61:	48 89 85 e0 f6 ff ff 	mov    %rax,-0x920(%rbp)
    dd68:	48 8d 85 b0 f4 ff ff 	lea    -0xb50(%rbp),%rax
    dd6f:	48 89 85 e8 f6 ff ff 	mov    %rax,-0x918(%rbp)
    dd76:	48 8d 85 b0 f4 ff ff 	lea    -0xb50(%rbp),%rax
    dd7d:	48 89 85 f0 f6 ff ff 	mov    %rax,-0x910(%rbp)
    dd84:	48 8d 85 b0 f4 ff ff 	lea    -0xb50(%rbp),%rax
    dd8b:	48 89 85 f8 f6 ff ff 	mov    %rax,-0x908(%rbp)
    dd92:	48 8d 85 b0 f4 ff ff 	lea    -0xb50(%rbp),%rax
    dd99:	48 89 85 00 f7 ff ff 	mov    %rax,-0x900(%rbp)
    dda0:	48 8d 85 b0 f4 ff ff 	lea    -0xb50(%rbp),%rax
    dda7:	48 89 85 08 f7 ff ff 	mov    %rax,-0x8f8(%rbp)
    ddae:	48 8d 85 b0 f4 ff ff 	lea    -0xb50(%rbp),%rax
    ddb5:	48 89 85 10 f7 ff ff 	mov    %rax,-0x8f0(%rbp)
    ddbc:	48 8d 85 b0 f4 ff ff 	lea    -0xb50(%rbp),%rax
    ddc3:	48 89 85 18 f7 ff ff 	mov    %rax,-0x8e8(%rbp)
    ddca:	48 8d 85 b0 f4 ff ff 	lea    -0xb50(%rbp),%rax
    ddd1:	48 89 85 20 f7 ff ff 	mov    %rax,-0x8e0(%rbp)
    ddd8:	48 8d 85 b0 f4 ff ff 	lea    -0xb50(%rbp),%rax
    dddf:	48 89 85 28 f7 ff ff 	mov    %rax,-0x8d8(%rbp)
    dde6:	c6 85 8d ef ff ff dd 	movb   $0xdd,-0x1073(%rbp)
    dded:	c7 85 cc ef ff ff 00 	movl   $0x0,-0x1034(%rbp)
    ddf4:	00 00 00 
    ddf7:	eb 1a                	jmp    de13 <func_32+0x4bb>
    ddf9:	8b 85 cc ef ff ff    	mov    -0x1034(%rbp),%eax
    ddff:	48 98                	cltq   
    de01:	c7 84 85 b0 f4 ff ff 	movl   $0xfffffff9,-0xb50(%rbp,%rax,4)
    de08:	f9 ff ff ff 
    de0c:	83 85 cc ef ff ff 01 	addl   $0x1,-0x1034(%rbp)
    de13:	83 bd cc ef ff ff 02 	cmpl   $0x2,-0x1034(%rbp)
    de1a:	7e dd                	jle    ddf9 <func_32+0x4a1>
    de1c:	c7 85 cc ef ff ff 00 	movl   $0x0,-0x1034(%rbp)
    de23:	00 00 00 
    de26:	eb 1e                	jmp    de46 <func_32+0x4ee>
    de28:	8b 85 cc ef ff ff    	mov    -0x1034(%rbp),%eax
    de2e:	48 98                	cltq   
    de30:	48 8d 15 3d a2 00 00 	lea    0xa23d(%rip),%rdx        # 18074 <g_145>
    de37:	48 89 94 c5 10 f4 ff 	mov    %rdx,-0xbf0(%rbp,%rax,8)
    de3e:	ff 
    de3f:	83 85 cc ef ff ff 01 	addl   $0x1,-0x1034(%rbp)
    de46:	83 bd cc ef ff ff 00 	cmpl   $0x0,-0x1034(%rbp)
    de4d:	7e d9                	jle    de28 <func_32+0x4d0>
    de4f:	48 c7 85 70 ef ff ff 	movq   $0x1,-0x1090(%rbp)
    de56:	01 00 00 00 
    de5a:	e9 8a 02 00 00       	jmpq   e0e9 <func_32+0x791>
    de5f:	48 8d 05 23 d6 00 00 	lea    0xd623(%rip),%rax        # 1b489 <g_92>
    de66:	48 89 85 70 f2 ff ff 	mov    %rax,-0xd90(%rbp)
    de6d:	c7 85 40 f0 ff ff ff 	movl   $0xffffffff,-0xfc0(%rbp)
    de74:	ff ff ff 
    de77:	c7 85 44 f0 ff ff ff 	movl   $0xffffffff,-0xfbc(%rbp)
    de7e:	ff ff ff 
    de81:	48 8d 85 30 f8 ff ff 	lea    -0x7d0(%rbp),%rax
    de88:	48 8d 15 b1 69 00 00 	lea    0x69b1(%rip),%rdx        # 14840 <g_2736+0x7d0>
    de8f:	b9 1f 00 00 00       	mov    $0x1f,%ecx
    de94:	48 89 c7             	mov    %rax,%rdi
    de97:	48 89 d6             	mov    %rdx,%rsi
    de9a:	f3 48 a5             	rep movsq %ds:(%rsi),%es:(%rdi)
    de9d:	48 89 f2             	mov    %rsi,%rdx
    dea0:	48 89 f8             	mov    %rdi,%rax
    dea3:	8b 0a                	mov    (%rdx),%ecx
    dea5:	89 08                	mov    %ecx,(%rax)
    dea7:	c6 85 8e ef ff ff 49 	movb   $0x49,-0x1072(%rbp)
    deae:	c7 85 f0 f5 ff ff 5c 	movl   $0xe95b575c,-0xa10(%rbp)
    deb5:	57 5b e9 
    deb8:	c7 85 f4 f5 ff ff 09 	movl   $0x9,-0xa0c(%rbp)
    debf:	00 00 00 
    dec2:	c7 85 f8 f5 ff ff 5c 	movl   $0xe95b575c,-0xa08(%rbp)
    dec9:	57 5b e9 
    decc:	c7 85 fc f5 ff ff 5c 	movl   $0xe95b575c,-0xa04(%rbp)
    ded3:	57 5b e9 
    ded6:	c7 85 00 f6 ff ff 09 	movl   $0x9,-0xa00(%rbp)
    dedd:	00 00 00 
    dee0:	c7 85 04 f6 ff ff 09 	movl   $0x9,-0x9fc(%rbp)
    dee7:	00 00 00 
    deea:	c7 85 08 f6 ff ff 5b 	movl   $0x87ba435b,-0x9f8(%rbp)
    def1:	43 ba 87 
    def4:	c7 85 0c f6 ff ff 09 	movl   $0x9,-0x9f4(%rbp)
    defb:	00 00 00 
    defe:	c7 85 10 f6 ff ff 09 	movl   $0x9,-0x9f0(%rbp)
    df05:	00 00 00 
    df08:	c7 85 14 f6 ff ff 5c 	movl   $0xe95b575c,-0x9ec(%rbp)
    df0f:	57 5b e9 
    df12:	c7 85 18 f6 ff ff 5c 	movl   $0xe95b575c,-0x9e8(%rbp)
    df19:	57 5b e9 
    df1c:	c7 85 1c f6 ff ff 09 	movl   $0x9,-0x9e4(%rbp)
    df23:	00 00 00 
    df26:	c7 85 20 f6 ff ff 5c 	movl   $0xe95b575c,-0x9e0(%rbp)
    df2d:	57 5b e9 
    df30:	c7 85 24 f6 ff ff 09 	movl   $0x9,-0x9dc(%rbp)
    df37:	00 00 00 
    df3a:	c7 85 28 f6 ff ff 5c 	movl   $0xe95b575c,-0x9d8(%rbp)
    df41:	57 5b e9 
    df44:	c7 85 2c f6 ff ff 5c 	movl   $0xe95b575c,-0x9d4(%rbp)
    df4b:	57 5b e9 
    df4e:	c7 85 c8 ef ff ff 00 	movl   $0x0,-0x1038(%rbp)
    df55:	00 00 00 
    df58:	eb 19                	jmp    df73 <func_32+0x61b>
    df5a:	8b 85 c8 ef ff ff    	mov    -0x1038(%rbp),%eax
    df60:	48 98                	cltq   
    df62:	66 c7 84 45 10 f5 ff 	movw   $0x489d,-0xaf0(%rbp,%rax,2)
    df69:	ff 9d 48 
    df6c:	83 85 c8 ef ff ff 01 	addl   $0x1,-0x1038(%rbp)
    df73:	83 bd c8 ef ff ff 08 	cmpl   $0x8,-0x1038(%rbp)
    df7a:	7e de                	jle    df5a <func_32+0x602>
    df7c:	c7 85 9c ef ff ff 01 	movl   $0x1,-0x1064(%rbp)
    df83:	00 00 00 
    df86:	e9 3d 01 00 00       	jmpq   e0c8 <func_32+0x770>
    df8b:	48 8d 05 f7 d4 00 00 	lea    0xd4f7(%rip),%rax        # 1b489 <g_92>
    df92:	48 89 85 78 f2 ff ff 	mov    %rax,-0xd88(%rbp)
    df99:	48 c7 85 e8 f0 ff ff 	movq   $0x0,-0xf18(%rbp)
    dfa0:	00 00 00 00 
    dfa4:	c7 85 e8 f0 ff ff 56 	movl   $0xd56ab656,-0xf18(%rbp)
    dfab:	b6 6a d5 
    dfae:	48 8d 05 6f a0 00 00 	lea    0xa06f(%rip),%rax        # 18024 <g_66>
    dfb5:	48 89 85 80 f2 ff ff 	mov    %rax,-0xd80(%rbp)
    dfbc:	c6 85 8f ef ff ff 04 	movb   $0x4,-0x1071(%rbp)
    dfc3:	c7 85 48 f0 ff ff 09 	movl   $0x7bf82209,-0xfb8(%rbp)
    dfca:	22 f8 7b 
    dfcd:	c6 85 90 ef ff ff 05 	movb   $0x5,-0x1070(%rbp)
    dfd4:	48 b8 d2 dc dd 3c ee 	movabs $0x9e77feee3cdddcd2,%rax
    dfdb:	fe 77 9e 
    dfde:	48 89 85 88 f2 ff ff 	mov    %rax,-0xd78(%rbp)
    dfe5:	48 8d 85 e0 f0 ff ff 	lea    -0xf20(%rbp),%rax
    dfec:	48 89 85 90 f2 ff ff 	mov    %rax,-0xd70(%rbp)
    dff3:	c6 85 91 ef ff ff 3d 	movb   $0x3d,-0x106f(%rbp)
    dffa:	0f b6 05 87 d4 00 00 	movzbl 0xd487(%rip),%eax        # 1b488 <g_2>
    e001:	66 98                	cbtw   
    e003:	0f b7 d8             	movzwl %ax,%ebx
    e006:	8b 85 9c ef ff ff    	mov    -0x1064(%rbp),%eax
    e00c:	89 c2                	mov    %eax,%edx
    e00e:	48 8b 85 78 f2 ff ff 	mov    -0xd88(%rbp),%rax
    e015:	c6 00 fc             	movb   $0xfc,(%rax)
    e018:	89 d6                	mov    %edx,%esi
    e01a:	bf 00 00 00 00       	mov    $0x0,%edi
    e01f:	e8 d9 8e ff ff       	callq  6efd <safe_mod_func_uint32_t_u_u>
    e024:	89 c2                	mov    %eax,%edx
    e026:	48 8b 85 70 ef ff ff 	mov    -0x1090(%rbp),%rax
    e02d:	48 39 c2             	cmp    %rax,%rdx
    e030:	0f 9e c0             	setle  %al
    e033:	0f b6 d0             	movzbl %al,%edx
    e036:	0f b7 85 20 f5 ff ff 	movzwl -0xae0(%rbp),%eax
    e03d:	98                   	cwtl   
    e03e:	39 c2                	cmp    %eax,%edx
    e040:	0f 9e c0             	setle  %al
    e043:	0f b6 c0             	movzbl %al,%eax
    e046:	89 de                	mov    %ebx,%esi
    e048:	89 c7                	mov    %eax,%edi
    e04a:	e8 d0 8c ff ff       	callq  6d1f <safe_sub_func_uint16_t_u_u>
    e04f:	0f be c0             	movsbl %al,%eax
    e052:	be 9a ff ff ff       	mov    $0xffffff9a,%esi
    e057:	89 c7                	mov    %eax,%edi
    e059:	e8 76 81 ff ff       	callq  61d4 <safe_add_func_int8_t_s_s>
    e05e:	0f b6 c0             	movzbl %al,%eax
    e061:	89 c6                	mov    %eax,%esi
    e063:	bf 42 00 00 00       	mov    $0x42,%edi
    e068:	e8 0b 8b ff ff       	callq  6b78 <safe_sub_func_uint8_t_u_u>
    e06d:	0f b6 d0             	movzbl %al,%edx
    e070:	48 8b 85 70 ef ff ff 	mov    -0x1090(%rbp),%rax
    e077:	48 8d 0c 85 00 00 00 	lea    0x0(,%rax,4),%rcx
    e07e:	00 
    e07f:	48 8d 05 ba 9f 00 00 	lea    0x9fba(%rip),%rax        # 18040 <g_81>
    e086:	8b 04 01             	mov    (%rcx,%rax,1),%eax
    e089:	39 c2                	cmp    %eax,%edx
    e08b:	7c 0a                	jl     e097 <func_32+0x73f>
    e08d:	48 8b 85 70 ef ff ff 	mov    -0x1090(%rbp),%rax
    e094:	48 85 c0             	test   %rax,%rax
    e097:	b9 00 00 00 00       	mov    $0x0,%ecx
    e09c:	48 8b 05 3d c0 00 00 	mov    0xc03d(%rip),%rax        # 1a0e0 <g_98>
    e0a3:	8b 10                	mov    (%rax),%edx
    e0a5:	31 ca                	xor    %ecx,%edx
    e0a7:	89 10                	mov    %edx,(%rax)
    e0a9:	48 8b 85 70 ef ff ff 	mov    -0x1090(%rbp),%rax
    e0b0:	48 85 c0             	test   %rax,%rax
    e0b3:	0f 85 7e 3b 00 00    	jne    11c37 <func_32+0x42df>
    e0b9:	8b 85 9c ef ff ff    	mov    -0x1064(%rbp),%eax
    e0bf:	83 c0 01             	add    $0x1,%eax
    e0c2:	89 85 9c ef ff ff    	mov    %eax,-0x1064(%rbp)
    e0c8:	8b 85 9c ef ff ff    	mov    -0x1064(%rbp),%eax
    e0ce:	83 f8 07             	cmp    $0x7,%eax
    e0d1:	0f 8e b4 fe ff ff    	jle    df8b <func_32+0x633>
    e0d7:	48 8b 85 70 ef ff ff 	mov    -0x1090(%rbp),%rax
    e0de:	48 83 c0 01          	add    $0x1,%rax
    e0e2:	48 89 85 70 ef ff ff 	mov    %rax,-0x1090(%rbp)
    e0e9:	48 8b 85 70 ef ff ff 	mov    -0x1090(%rbp),%rax
    e0f0:	48 83 f8 07          	cmp    $0x7,%rax
    e0f4:	0f 8e 65 fd ff ff    	jle    de5f <func_32+0x507>
    e0fa:	8b 05 24 9f 00 00    	mov    0x9f24(%rip),%eax        # 18024 <g_66>
    e100:	0f bf d8             	movswl %ax,%ebx
    e103:	8b 05 af a1 00 00    	mov    0xa1af(%rip),%eax        # 182b8 <g_176+0x238>
    e109:	48 8b 85 70 f0 ff ff 	mov    -0xf90(%rbp),%rax
    e110:	48 85 c0             	test   %rax,%rax
    e113:	0f 95 c0             	setne  %al
    e116:	0f b6 c0             	movzbl %al,%eax
    e119:	89 c6                	mov    %eax,%esi
    e11b:	bf 09 00 00 00       	mov    $0x9,%edi
    e120:	e8 18 8c ff ff       	callq  6d3d <safe_mul_func_uint16_t_u_u>
    e125:	98                   	cwtl   
    e126:	be 00 00 00 00       	mov    $0x0,%esi
    e12b:	89 c7                	mov    %eax,%edi
    e12d:	e8 31 84 ff ff       	callq  6563 <safe_rshift_func_int16_t_s_u>
    e132:	98                   	cwtl   
    e133:	48 8b 95 70 ef ff ff 	mov    -0x1090(%rbp),%rdx
    e13a:	09 c2                	or     %eax,%edx
    e13c:	48 8b 85 70 ef ff ff 	mov    -0x1090(%rbp),%rax
    e143:	09 c2                	or     %eax,%edx
    e145:	48 8b 85 60 f2 ff ff 	mov    -0xda0(%rbp),%rax
    e14c:	89 10                	mov    %edx,(%rax)
    e14e:	48 8b 85 60 f2 ff ff 	mov    -0xda0(%rbp),%rax
    e155:	8b 00                	mov    (%rax),%eax
    e157:	48 63 d0             	movslq %eax,%rdx
    e15a:	48 8b 85 70 ef ff ff 	mov    -0x1090(%rbp),%rax
    e161:	48 09 d0             	or     %rdx,%rax
    e164:	48 85 c0             	test   %rax,%rax
    e167:	0f 94 c0             	sete   %al
    e16a:	0f b6 c0             	movzbl %al,%eax
    e16d:	be 00 00 00 00       	mov    $0x0,%esi
    e172:	89 c7                	mov    %eax,%edi
    e174:	e8 84 8d ff ff       	callq  6efd <safe_mod_func_uint32_t_u_u>
    e179:	85 c0                	test   %eax,%eax
    e17b:	0f 94 c0             	sete   %al
    e17e:	0f b6 d0             	movzbl %al,%edx
    e181:	48 8b 05 60 bf 00 00 	mov    0xbf60(%rip),%rax        # 1a0e8 <g_238>
    e188:	0f b6 00             	movzbl (%rax),%eax
    e18b:	66 98                	cbtw   
    e18d:	31 d0                	xor    %edx,%eax
    e18f:	98                   	cwtl   
    e190:	89 de                	mov    %ebx,%esi
    e192:	89 c7                	mov    %eax,%edi
    e194:	e8 7d 82 ff ff       	callq  6416 <safe_mod_func_int16_t_s_s>
    e199:	89 c2                	mov    %eax,%edx
    e19b:	48 8b 85 70 f0 ff ff 	mov    -0xf90(%rbp),%rax
    e1a2:	48 0f bf d2          	movswq %dx,%rdx
    e1a6:	48 89 10             	mov    %rdx,(%rax)
    e1a9:	48 8b 00             	mov    (%rax),%rax
    e1ac:	48 85 c0             	test   %rax,%rax
    e1af:	0f 9f c0             	setg   %al
    e1b2:	0f b6 c0             	movzbl %al,%eax
    e1b5:	be 02 00 00 00       	mov    $0x2,%esi
    e1ba:	89 c7                	mov    %eax,%edi
    e1bc:	e8 e0 80 ff ff       	callq  62a1 <safe_lshift_func_int8_t_s_s>
    e1c1:	48 8b 05 20 bf 00 00 	mov    0xbf20(%rip),%rax        # 1a0e8 <g_238>
    e1c8:	0f b6 00             	movzbl (%rax),%eax
    e1cb:	3c 01                	cmp    $0x1,%al
    e1cd:	0f 9e c2             	setle  %dl
    e1d0:	48 8b 05 09 bf 00 00 	mov    0xbf09(%rip),%rax        # 1a0e0 <g_98>
    e1d7:	0f b6 d2             	movzbl %dl,%edx
    e1da:	89 10                	mov    %edx,(%rax)
    e1dc:	48 8b 85 68 f0 ff ff 	mov    -0xf98(%rbp),%rax
    e1e3:	48 8d 15 76 9e 00 00 	lea    0x9e76(%rip),%rdx        # 18060 <g_99>
    e1ea:	48 89 10             	mov    %rdx,(%rax)
    e1ed:	e9 32 39 00 00       	jmpq   11b24 <func_32+0x41cc>
    e1f2:	48 8d 05 67 9e 00 00 	lea    0x9e67(%rip),%rax        # 18060 <g_99>
    e1f9:	48 89 85 28 f1 ff ff 	mov    %rax,-0xed8(%rbp)
    e200:	48 8d 85 92 ef ff ff 	lea    -0x106e(%rbp),%rax
    e207:	48 89 85 98 f0 ff ff 	mov    %rax,-0xf68(%rbp)
    e20e:	66 c7 85 10 f4 ff ff 	movw   $0x0,-0xbf0(%rbp)
    e215:	00 00 
    e217:	66 c7 85 12 f4 ff ff 	movw   $0x0,-0xbee(%rbp)
    e21e:	00 00 
    e220:	66 c7 85 14 f4 ff ff 	movw   $0x49e6,-0xbec(%rbp)
    e227:	e6 49 
    e229:	66 c7 85 16 f4 ff ff 	movw   $0x0,-0xbea(%rbp)
    e230:	00 00 
    e232:	66 c7 85 18 f4 ff ff 	movw   $0x0,-0xbe8(%rbp)
    e239:	00 00 
    e23b:	66 c7 85 1a f4 ff ff 	movw   $0xffff,-0xbe6(%rbp)
    e242:	ff ff 
    e244:	66 c7 85 1c f4 ff ff 	movw   $0x0,-0xbe4(%rbp)
    e24b:	00 00 
    e24d:	66 c7 85 1e f4 ff ff 	movw   $0xffff,-0xbe2(%rbp)
    e254:	ff ff 
    e256:	66 c7 85 20 f4 ff ff 	movw   $0xffff,-0xbe0(%rbp)
    e25d:	ff ff 
    e25f:	66 c7 85 22 f4 ff ff 	movw   $0x0,-0xbde(%rbp)
    e266:	00 00 
    e268:	66 c7 85 24 f4 ff ff 	movw   $0x0,-0xbdc(%rbp)
    e26f:	00 00 
    e271:	66 c7 85 26 f4 ff ff 	movw   $0xffff,-0xbda(%rbp)
    e278:	ff ff 
    e27a:	66 c7 85 28 f4 ff ff 	movw   $0xffff,-0xbd8(%rbp)
    e281:	ff ff 
    e283:	66 c7 85 2a f4 ff ff 	movw   $0x0,-0xbd6(%rbp)
    e28a:	00 00 
    e28c:	66 c7 85 2c f4 ff ff 	movw   $0xffff,-0xbd4(%rbp)
    e293:	ff ff 
    e295:	66 c7 85 2e f4 ff ff 	movw   $0x0,-0xbd2(%rbp)
    e29c:	00 00 
    e29e:	66 c7 85 30 f4 ff ff 	movw   $0x0,-0xbd0(%rbp)
    e2a5:	00 00 
    e2a7:	66 c7 85 32 f4 ff ff 	movw   $0x49e6,-0xbce(%rbp)
    e2ae:	e6 49 
    e2b0:	66 c7 85 34 f4 ff ff 	movw   $0x0,-0xbcc(%rbp)
    e2b7:	00 00 
    e2b9:	66 c7 85 36 f4 ff ff 	movw   $0x0,-0xbca(%rbp)
    e2c0:	00 00 
    e2c2:	66 c7 85 38 f4 ff ff 	movw   $0xffff,-0xbc8(%rbp)
    e2c9:	ff ff 
    e2cb:	66 c7 85 3a f4 ff ff 	movw   $0x0,-0xbc6(%rbp)
    e2d2:	00 00 
    e2d4:	66 c7 85 3c f4 ff ff 	movw   $0xffff,-0xbc4(%rbp)
    e2db:	ff ff 
    e2dd:	66 c7 85 3e f4 ff ff 	movw   $0xffff,-0xbc2(%rbp)
    e2e4:	ff ff 
    e2e6:	66 c7 85 40 f4 ff ff 	movw   $0x0,-0xbc0(%rbp)
    e2ed:	00 00 
    e2ef:	66 c7 85 42 f4 ff ff 	movw   $0x0,-0xbbe(%rbp)
    e2f6:	00 00 
    e2f8:	66 c7 85 44 f4 ff ff 	movw   $0xffff,-0xbbc(%rbp)
    e2ff:	ff ff 
    e301:	66 c7 85 46 f4 ff ff 	movw   $0xffff,-0xbba(%rbp)
    e308:	ff ff 
    e30a:	66 c7 85 48 f4 ff ff 	movw   $0x0,-0xbb8(%rbp)
    e311:	00 00 
    e313:	66 c7 85 4a f4 ff ff 	movw   $0xffff,-0xbb6(%rbp)
    e31a:	ff ff 
    e31c:	66 c7 85 4c f4 ff ff 	movw   $0x0,-0xbb4(%rbp)
    e323:	00 00 
    e325:	66 c7 85 4e f4 ff ff 	movw   $0x0,-0xbb2(%rbp)
    e32c:	00 00 
    e32e:	66 c7 85 50 f4 ff ff 	movw   $0x49e6,-0xbb0(%rbp)
    e335:	e6 49 
    e337:	66 c7 85 52 f4 ff ff 	movw   $0x0,-0xbae(%rbp)
    e33e:	00 00 
    e340:	66 c7 85 54 f4 ff ff 	movw   $0x0,-0xbac(%rbp)
    e347:	00 00 
    e349:	48 8d 05 3a a4 00 00 	lea    0xa43a(%rip),%rax        # 1878a <g_269>
    e350:	48 89 85 a0 f0 ff ff 	mov    %rax,-0xf60(%rbp)
    e357:	c7 85 e0 ef ff ff d7 	movl   $0xfaf67cd7,-0x1020(%rbp)
    e35e:	7c f6 fa 
    e361:	c7 85 e4 ef ff ff f6 	movl   $0xfffffff6,-0x101c(%rbp)
    e368:	ff ff ff 
    e36b:	48 b8 01 51 ff ff 51 	movabs $0x51ff0151ffff5101,%rax
    e372:	01 ff 51 
    e375:	48 89 85 b0 f4 ff ff 	mov    %rax,-0xb50(%rbp)
    e37c:	c6 85 b8 f4 ff ff ff 	movb   $0xff,-0xb48(%rbp)
    e383:	48 bb 00 a2 fa fa a2 	movabs $0xa25000a2fafaa200,%rbx
    e38a:	00 50 a2 
    e38d:	48 89 9d b9 f4 ff ff 	mov    %rbx,-0xb47(%rbp)
    e394:	c6 85 c1 f4 ff ff 50 	movb   $0x50,-0xb3f(%rbp)
    e39b:	48 89 85 c2 f4 ff ff 	mov    %rax,-0xb3e(%rbp)
    e3a2:	c6 85 ca f4 ff ff ff 	movb   $0xff,-0xb36(%rbp)
    e3a9:	48 89 9d cb f4 ff ff 	mov    %rbx,-0xb35(%rbp)
    e3b0:	c6 85 d3 f4 ff ff 50 	movb   $0x50,-0xb2d(%rbp)
    e3b7:	48 89 85 d4 f4 ff ff 	mov    %rax,-0xb2c(%rbp)
    e3be:	c6 85 dc f4 ff ff ff 	movb   $0xff,-0xb24(%rbp)
    e3c5:	48 89 9d dd f4 ff ff 	mov    %rbx,-0xb23(%rbp)
    e3cc:	c6 85 e5 f4 ff ff 50 	movb   $0x50,-0xb1b(%rbp)
    e3d3:	48 89 85 e6 f4 ff ff 	mov    %rax,-0xb1a(%rbp)
    e3da:	c6 85 ee f4 ff ff ff 	movb   $0xff,-0xb12(%rbp)
    e3e1:	48 89 9d ef f4 ff ff 	mov    %rbx,-0xb11(%rbp)
    e3e8:	c6 85 f7 f4 ff ff 09 	movb   $0x9,-0xb09(%rbp)
    e3ef:	48 b8 7d ff 6a 6a ff 	movabs $0xff077dff6a6aff7d,%rax
    e3f6:	7d 07 ff 
    e3f9:	48 89 85 f8 f4 ff ff 	mov    %rax,-0xb08(%rbp)
    e400:	c6 85 00 f5 ff ff 07 	movb   $0x7,-0xb00(%rbp)
    e407:	c7 85 e8 ef ff ff 96 	movl   $0x32fbc196,-0x1018(%rbp)
    e40e:	c1 fb 32 
    e411:	c7 85 ec ef ff ff e0 	movl   $0xd76aebe0,-0x1014(%rbp)
    e418:	eb 6a d7 
    e41b:	c7 85 c4 ef ff ff f6 	movl   $0xfffffff6,-0x103c(%rbp)
    e422:	ff ff ff 
    e425:	c7 85 50 f3 ff ff 08 	movl   $0x852d1d08,-0xcb0(%rbp)
    e42c:	1d 2d 85 
    e42f:	c7 85 54 f3 ff ff fe 	movl   $0xfffffffe,-0xcac(%rbp)
    e436:	ff ff ff 
    e439:	c7 85 58 f3 ff ff 08 	movl   $0x852d1d08,-0xca8(%rbp)
    e440:	1d 2d 85 
    e443:	c7 85 5c f3 ff ff 08 	movl   $0x852d1d08,-0xca4(%rbp)
    e44a:	1d 2d 85 
    e44d:	c7 85 60 f3 ff ff fe 	movl   $0xfffffffe,-0xca0(%rbp)
    e454:	ff ff ff 
    e457:	c7 85 64 f3 ff ff 08 	movl   $0x852d1d08,-0xc9c(%rbp)
    e45e:	1d 2d 85 
    e461:	c7 85 68 f3 ff ff 08 	movl   $0x852d1d08,-0xc98(%rbp)
    e468:	1d 2d 85 
    e46b:	c7 85 6c f3 ff ff fe 	movl   $0xfffffffe,-0xc94(%rbp)
    e472:	ff ff ff 
    e475:	48 c7 85 f0 f0 ff ff 	movq   $0xfffffffffffffff9,-0xf10(%rbp)
    e47c:	f9 ff ff ff 
    e480:	48 8d 05 71 a3 00 00 	lea    0xa371(%rip),%rax        # 187f8 <g_415+0x38>
    e487:	48 89 85 30 f1 ff ff 	mov    %rax,-0xed0(%rbp)
    e48e:	48 8d 85 98 f0 ff ff 	lea    -0xf68(%rbp),%rax
    e495:	48 89 85 a8 f0 ff ff 	mov    %rax,-0xf58(%rbp)
    e49c:	48 8d 85 a8 f0 ff ff 	lea    -0xf58(%rbp),%rax
    e4a3:	48 89 85 38 f1 ff ff 	mov    %rax,-0xec8(%rbp)
    e4aa:	48 8d 05 37 bc 00 00 	lea    0xbc37(%rip),%rax        # 1a0e8 <g_238>
    e4b1:	48 89 85 40 f1 ff ff 	mov    %rax,-0xec0(%rbp)
    e4b8:	48 c7 85 48 f1 ff ff 	movq   $0xfffffffffffffffa,-0xeb8(%rbp)
    e4bf:	fa ff ff ff 
    e4c3:	c7 85 70 f3 ff ff c0 	movl   $0x47b8b4c0,-0xc90(%rbp)
    e4ca:	b4 b8 47 
    e4cd:	c7 85 74 f3 ff ff c0 	movl   $0x47b8b4c0,-0xc8c(%rbp)
    e4d4:	b4 b8 47 
    e4d7:	c7 85 78 f3 ff ff c0 	movl   $0x47b8b4c0,-0xc88(%rbp)
    e4de:	b4 b8 47 
    e4e1:	c7 85 7c f3 ff ff c0 	movl   $0x47b8b4c0,-0xc84(%rbp)
    e4e8:	b4 b8 47 
    e4eb:	c7 85 80 f3 ff ff c0 	movl   $0x47b8b4c0,-0xc80(%rbp)
    e4f2:	b4 b8 47 
    e4f5:	c7 85 84 f3 ff ff c0 	movl   $0x47b8b4c0,-0xc7c(%rbp)
    e4fc:	b4 b8 47 
    e4ff:	c7 85 88 f3 ff ff c0 	movl   $0x47b8b4c0,-0xc78(%rbp)
    e506:	b4 b8 47 
    e509:	c7 85 8c f3 ff ff c0 	movl   $0x47b8b4c0,-0xc74(%rbp)
    e510:	b4 b8 47 
    e513:	c7 85 90 f3 ff ff c0 	movl   $0x47b8b4c0,-0xc70(%rbp)
    e51a:	b4 b8 47 
    e51d:	c7 85 94 f3 ff ff c0 	movl   $0x47b8b4c0,-0xc6c(%rbp)
    e524:	b4 b8 47 
    e527:	48 8d 05 22 bd 00 00 	lea    0xbd22(%rip),%rax        # 1a250 <g_375+0x30>
    e52e:	48 89 85 f0 f5 ff ff 	mov    %rax,-0xa10(%rbp)
    e535:	48 8d 05 14 bd 00 00 	lea    0xbd14(%rip),%rax        # 1a250 <g_375+0x30>
    e53c:	48 89 85 f8 f5 ff ff 	mov    %rax,-0xa08(%rbp)
    e543:	48 8d 05 06 bd 00 00 	lea    0xbd06(%rip),%rax        # 1a250 <g_375+0x30>
    e54a:	48 89 85 00 f6 ff ff 	mov    %rax,-0xa00(%rbp)
    e551:	48 c7 85 08 f6 ff ff 	movq   $0x0,-0x9f8(%rbp)
    e558:	00 00 00 00 
    e55c:	48 8d 05 ed bc 00 00 	lea    0xbced(%rip),%rax        # 1a250 <g_375+0x30>
    e563:	48 89 85 10 f6 ff ff 	mov    %rax,-0x9f0(%rbp)
    e56a:	48 8d 05 df bc 00 00 	lea    0xbcdf(%rip),%rax        # 1a250 <g_375+0x30>
    e571:	48 89 85 18 f6 ff ff 	mov    %rax,-0x9e8(%rbp)
    e578:	48 8d 05 d1 bc 00 00 	lea    0xbcd1(%rip),%rax        # 1a250 <g_375+0x30>
    e57f:	48 89 85 20 f6 ff ff 	mov    %rax,-0x9e0(%rbp)
    e586:	48 8d 05 c3 bc 00 00 	lea    0xbcc3(%rip),%rax        # 1a250 <g_375+0x30>
    e58d:	48 89 85 28 f6 ff ff 	mov    %rax,-0x9d8(%rbp)
    e594:	48 8d 05 b5 bc 00 00 	lea    0xbcb5(%rip),%rax        # 1a250 <g_375+0x30>
    e59b:	48 89 85 30 f6 ff ff 	mov    %rax,-0x9d0(%rbp)
    e5a2:	48 c7 85 38 f6 ff ff 	movq   $0x0,-0x9c8(%rbp)
    e5a9:	00 00 00 00 
    e5ad:	48 8d 05 9c bc 00 00 	lea    0xbc9c(%rip),%rax        # 1a250 <g_375+0x30>
    e5b4:	48 89 85 40 f6 ff ff 	mov    %rax,-0x9c0(%rbp)
    e5bb:	48 8d 05 8e bc 00 00 	lea    0xbc8e(%rip),%rax        # 1a250 <g_375+0x30>
    e5c2:	48 89 85 48 f6 ff ff 	mov    %rax,-0x9b8(%rbp)
    e5c9:	48 8d 05 80 bc 00 00 	lea    0xbc80(%rip),%rax        # 1a250 <g_375+0x30>
    e5d0:	48 89 85 50 f6 ff ff 	mov    %rax,-0x9b0(%rbp)
    e5d7:	48 8d 05 72 bc 00 00 	lea    0xbc72(%rip),%rax        # 1a250 <g_375+0x30>
    e5de:	48 89 85 58 f6 ff ff 	mov    %rax,-0x9a8(%rbp)
    e5e5:	48 8d 05 64 bc 00 00 	lea    0xbc64(%rip),%rax        # 1a250 <g_375+0x30>
    e5ec:	48 89 85 60 f6 ff ff 	mov    %rax,-0x9a0(%rbp)
    e5f3:	48 c7 85 68 f6 ff ff 	movq   $0x0,-0x998(%rbp)
    e5fa:	00 00 00 00 
    e5fe:	48 8d 05 4b bc 00 00 	lea    0xbc4b(%rip),%rax        # 1a250 <g_375+0x30>
    e605:	48 89 85 70 f6 ff ff 	mov    %rax,-0x990(%rbp)
    e60c:	48 8d 05 3d bc 00 00 	lea    0xbc3d(%rip),%rax        # 1a250 <g_375+0x30>
    e613:	48 89 85 78 f6 ff ff 	mov    %rax,-0x988(%rbp)
    e61a:	48 8d 05 2f bc 00 00 	lea    0xbc2f(%rip),%rax        # 1a250 <g_375+0x30>
    e621:	48 89 85 80 f6 ff ff 	mov    %rax,-0x980(%rbp)
    e628:	48 8d 05 21 bc 00 00 	lea    0xbc21(%rip),%rax        # 1a250 <g_375+0x30>
    e62f:	48 89 85 88 f6 ff ff 	mov    %rax,-0x978(%rbp)
    e636:	48 8d 05 13 bc 00 00 	lea    0xbc13(%rip),%rax        # 1a250 <g_375+0x30>
    e63d:	48 89 85 90 f6 ff ff 	mov    %rax,-0x970(%rbp)
    e644:	48 c7 85 98 f6 ff ff 	movq   $0x0,-0x968(%rbp)
    e64b:	00 00 00 00 
    e64f:	48 8d 05 fa bb 00 00 	lea    0xbbfa(%rip),%rax        # 1a250 <g_375+0x30>
    e656:	48 89 85 a0 f6 ff ff 	mov    %rax,-0x960(%rbp)
    e65d:	48 8d 05 ec bb 00 00 	lea    0xbbec(%rip),%rax        # 1a250 <g_375+0x30>
    e664:	48 89 85 a8 f6 ff ff 	mov    %rax,-0x958(%rbp)
    e66b:	48 8d 05 de bb 00 00 	lea    0xbbde(%rip),%rax        # 1a250 <g_375+0x30>
    e672:	48 89 85 b0 f6 ff ff 	mov    %rax,-0x950(%rbp)
    e679:	48 8d 05 d0 bb 00 00 	lea    0xbbd0(%rip),%rax        # 1a250 <g_375+0x30>
    e680:	48 89 85 b8 f6 ff ff 	mov    %rax,-0x948(%rbp)
    e687:	48 8d 05 c2 bb 00 00 	lea    0xbbc2(%rip),%rax        # 1a250 <g_375+0x30>
    e68e:	48 89 85 c0 f6 ff ff 	mov    %rax,-0x940(%rbp)
    e695:	48 c7 85 c8 f6 ff ff 	movq   $0x0,-0x938(%rbp)
    e69c:	00 00 00 00 
    e6a0:	48 8d 05 a9 bb 00 00 	lea    0xbba9(%rip),%rax        # 1a250 <g_375+0x30>
    e6a7:	48 89 85 d0 f6 ff ff 	mov    %rax,-0x930(%rbp)
    e6ae:	48 8d 05 9b bb 00 00 	lea    0xbb9b(%rip),%rax        # 1a250 <g_375+0x30>
    e6b5:	48 89 85 d8 f6 ff ff 	mov    %rax,-0x928(%rbp)
    e6bc:	48 8d 85 a0 f0 ff ff 	lea    -0xf60(%rbp),%rax
    e6c3:	48 89 85 b0 f0 ff ff 	mov    %rax,-0xf50(%rbp)
    e6ca:	48 8d 85 b0 f0 ff ff 	lea    -0xf50(%rbp),%rax
    e6d1:	48 89 85 50 f1 ff ff 	mov    %rax,-0xeb0(%rbp)
    e6d8:	48 8d 05 8d 59 00 00 	lea    0x598d(%rip),%rax        # 1406c <g_611>
    e6df:	48 89 85 58 f1 ff ff 	mov    %rax,-0xea8(%rbp)
    e6e6:	48 b8 c8 20 78 45 ae 	movabs $0xa278b4ae457820c8,%rax
    e6ed:	b4 78 a2 
    e6f0:	48 89 85 e0 f6 ff ff 	mov    %rax,-0x920(%rbp)
    e6f7:	66 c7 85 e8 f6 ff ff 	movw   $0xc8,-0x918(%rbp)
    e6fe:	c8 00 
    e700:	48 bb ff a2 01 45 01 	movabs $0xa20145014501a2ff,%rbx
    e707:	45 01 a2 
    e70a:	48 89 9d ea f6 ff ff 	mov    %rbx,-0x916(%rbp)
    e711:	66 c7 85 f2 f6 ff ff 	movw   $0xffff,-0x90e(%rbp)
    e718:	ff ff 
    e71a:	48 b9 c8 a2 78 b4 ae 	movabs $0x207845aeb478a2c8,%rcx
    e721:	45 78 20 
    e724:	48 89 8d f4 f6 ff ff 	mov    %rcx,-0x90c(%rbp)
    e72b:	66 c7 85 fc f6 ff ff 	movw   $0xffc8,-0x904(%rbp)
    e732:	c8 ff 
    e734:	48 be ff 20 01 b4 01 	movabs $0x2001b401b40120ff,%rsi
    e73b:	b4 01 20 
    e73e:	48 89 b5 fe f6 ff ff 	mov    %rsi,-0x902(%rbp)
    e745:	66 c7 85 06 f7 ff ff 	movw   $0xff,-0x8fa(%rbp)
    e74c:	ff 00 
    e74e:	48 89 85 08 f7 ff ff 	mov    %rax,-0x8f8(%rbp)
    e755:	66 c7 85 10 f7 ff ff 	movw   $0xc8,-0x8f0(%rbp)
    e75c:	c8 00 
    e75e:	48 89 9d 12 f7 ff ff 	mov    %rbx,-0x8ee(%rbp)
    e765:	66 c7 85 1a f7 ff ff 	movw   $0xffff,-0x8e6(%rbp)
    e76c:	ff ff 
    e76e:	48 89 8d 1c f7 ff ff 	mov    %rcx,-0x8e4(%rbp)
    e775:	66 c7 85 24 f7 ff ff 	movw   $0xffc8,-0x8dc(%rbp)
    e77c:	c8 ff 
    e77e:	48 89 b5 26 f7 ff ff 	mov    %rsi,-0x8da(%rbp)
    e785:	66 c7 85 2e f7 ff ff 	movw   $0xff,-0x8d2(%rbp)
    e78c:	ff 00 
    e78e:	48 89 85 30 f7 ff ff 	mov    %rax,-0x8d0(%rbp)
    e795:	66 c7 85 38 f7 ff ff 	movw   $0xc8,-0x8c8(%rbp)
    e79c:	c8 00 
    e79e:	48 89 9d 3a f7 ff ff 	mov    %rbx,-0x8c6(%rbp)
    e7a5:	66 c7 85 42 f7 ff ff 	movw   $0xffff,-0x8be(%rbp)
    e7ac:	ff ff 
    e7ae:	48 89 8d 44 f7 ff ff 	mov    %rcx,-0x8bc(%rbp)
    e7b5:	66 c7 85 4c f7 ff ff 	movw   $0xffc8,-0x8b4(%rbp)
    e7bc:	c8 ff 
    e7be:	48 89 b5 4e f7 ff ff 	mov    %rsi,-0x8b2(%rbp)
    e7c5:	66 c7 85 56 f7 ff ff 	movw   $0xff,-0x8aa(%rbp)
    e7cc:	ff 00 
    e7ce:	48 89 85 58 f7 ff ff 	mov    %rax,-0x8a8(%rbp)
    e7d5:	66 c7 85 60 f7 ff ff 	movw   $0xc8,-0x8a0(%rbp)
    e7dc:	c8 00 
    e7de:	48 b8 ff a2 19 cf 80 	movabs $0x4519cf80cf19a2ff,%rax
    e7e5:	cf 19 45 
    e7e8:	48 89 85 62 f7 ff ff 	mov    %rax,-0x89e(%rbp)
    e7ef:	66 c7 85 6a f7 ff ff 	movw   $0x13,-0x896(%rbp)
    e7f6:	13 00 
    e7f8:	48 b8 40 45 c8 35 00 	movabs $0xb4c8cf0035c84540,%rax
    e7ff:	cf c8 b4 
    e802:	48 89 85 6c f7 ff ff 	mov    %rax,-0x894(%rbp)
    e809:	66 c7 85 74 f7 ff ff 	movw   $0x40,-0x88c(%rbp)
    e810:	40 00 
    e812:	48 bb 13 b4 19 35 80 	movabs $0xb41935803519b413,%rbx
    e819:	35 19 b4 
    e81c:	48 89 9d 76 f7 ff ff 	mov    %rbx,-0x88a(%rbp)
    e823:	66 c7 85 7e f7 ff ff 	movw   $0x7a13,-0x882(%rbp)
    e82a:	13 7a 
    e82c:	48 b9 40 b4 c8 cf 00 	movabs $0x45c83500cfc8b440,%rcx
    e833:	35 c8 45 
    e836:	48 89 8d 80 f7 ff ff 	mov    %rcx,-0x880(%rbp)
    e83d:	66 c7 85 88 f7 ff ff 	movw   $0x7a40,-0x878(%rbp)
    e844:	40 7a 
    e846:	48 bf 13 45 19 cf 80 	movabs $0x4519cf80cf194513,%rdi
    e84d:	cf 19 45 
    e850:	48 89 bd 8a f7 ff ff 	mov    %rdi,-0x876(%rbp)
    e857:	66 c7 85 92 f7 ff ff 	movw   $0x13,-0x86e(%rbp)
    e85e:	13 00 
    e860:	48 89 85 94 f7 ff ff 	mov    %rax,-0x86c(%rbp)
    e867:	66 c7 85 9c f7 ff ff 	movw   $0x40,-0x864(%rbp)
    e86e:	40 00 
    e870:	48 89 9d 9e f7 ff ff 	mov    %rbx,-0x862(%rbp)
    e877:	66 c7 85 a6 f7 ff ff 	movw   $0x7a13,-0x85a(%rbp)
    e87e:	13 7a 
    e880:	48 89 8d a8 f7 ff ff 	mov    %rcx,-0x858(%rbp)
    e887:	66 c7 85 b0 f7 ff ff 	movw   $0x7a40,-0x850(%rbp)
    e88e:	40 7a 
    e890:	48 89 bd b2 f7 ff ff 	mov    %rdi,-0x84e(%rbp)
    e897:	66 c7 85 ba f7 ff ff 	movw   $0x13,-0x846(%rbp)
    e89e:	13 00 
    e8a0:	48 89 85 bc f7 ff ff 	mov    %rax,-0x844(%rbp)
    e8a7:	66 c7 85 c4 f7 ff ff 	movw   $0x40,-0x83c(%rbp)
    e8ae:	40 00 
    e8b0:	48 89 9d c6 f7 ff ff 	mov    %rbx,-0x83a(%rbp)
    e8b7:	66 c7 85 ce f7 ff ff 	movw   $0x7a13,-0x832(%rbp)
    e8be:	13 7a 
    e8c0:	c6 85 89 ef ff ff 59 	movb   $0x59,-0x1077(%rbp)
    e8c7:	c6 05 bb cb 00 00 00 	movb   $0x0,0xcbbb(%rip)        # 1b489 <g_92>
    e8ce:	e9 b4 1d 00 00       	jmpq   10687 <func_32+0x2d2f>
    e8d3:	48 8d 05 4a 97 00 00 	lea    0x974a(%rip),%rax        # 18024 <g_66>
    e8da:	48 89 85 d8 f1 ff ff 	mov    %rax,-0xe28(%rbp)
    e8e1:	48 c7 85 b8 f0 ff ff 	movq   $0x0,-0xf48(%rbp)
    e8e8:	00 00 00 00 
    e8ec:	c7 85 1c f0 ff ff ff 	movl   $0xffffffff,-0xfe4(%rbp)
    e8f3:	ff ff ff 
    e8f6:	c7 85 20 f0 ff ff 9e 	movl   $0x5cce189e,-0xfe0(%rbp)
    e8fd:	18 ce 5c 
    e900:	48 8d 05 49 b9 00 00 	lea    0xb949(%rip),%rax        # 1a250 <g_375+0x30>
    e907:	48 89 85 e0 f1 ff ff 	mov    %rax,-0xe20(%rbp)
    e90e:	48 bb 2e fe 42 6c 0d 	movabs $0x91bd80d6c42fe2e,%rbx
    e915:	d8 1b 09 
    e918:	48 89 9d d0 f3 ff ff 	mov    %rbx,-0xc30(%rbp)
    e91f:	48 b8 52 6c bd b1 ce 	movabs $0x6e4552ceb1bd6c52,%rax
    e926:	52 45 6e 
    e929:	48 89 85 d8 f3 ff ff 	mov    %rax,-0xc28(%rbp)
    e930:	48 89 85 e0 f3 ff ff 	mov    %rax,-0xc20(%rbp)
    e937:	48 89 9d e8 f3 ff ff 	mov    %rbx,-0xc18(%rbp)
    e93e:	48 89 85 f0 f3 ff ff 	mov    %rax,-0xc10(%rbp)
    e945:	48 89 85 f8 f3 ff ff 	mov    %rax,-0xc08(%rbp)
    e94c:	66 c7 85 98 ef ff ff 	movw   $0x3892,-0x1068(%rbp)
    e953:	92 38 
    e955:	c7 85 a8 ef ff ff 00 	movl   $0x0,-0x1058(%rbp)
    e95c:	00 00 00 
    e95f:	eb 1b                	jmp    e97c <func_32+0x1024>
    e961:	8b 85 a8 ef ff ff    	mov    -0x1058(%rbp),%eax
    e967:	48 98                	cltq   
    e969:	48 c7 84 c5 10 f3 ff 	movq   $0x0,-0xcf0(%rbp,%rax,8)
    e970:	ff 00 00 00 00 
    e975:	83 85 a8 ef ff ff 01 	addl   $0x1,-0x1058(%rbp)
    e97c:	83 bd a8 ef ff ff 02 	cmpl   $0x2,-0x1058(%rbp)
    e983:	7e dc                	jle    e961 <func_32+0x1009>
    e985:	c7 85 a8 ef ff ff 00 	movl   $0x0,-0x1058(%rbp)
    e98c:	00 00 00 
    e98f:	eb 1a                	jmp    e9ab <func_32+0x1053>
    e991:	8b 85 a8 ef ff ff    	mov    -0x1058(%rbp),%eax
    e997:	48 98                	cltq   
    e999:	c7 84 85 bc f2 ff ff 	movl   $0xf2e6ac67,-0xd44(%rbp,%rax,4)
    e9a0:	67 ac e6 f2 
    e9a4:	83 85 a8 ef ff ff 01 	addl   $0x1,-0x1058(%rbp)
    e9ab:	83 bd a8 ef ff ff 00 	cmpl   $0x0,-0x1058(%rbp)
    e9b2:	7e dd                	jle    e991 <func_32+0x1039>
    e9b4:	48 c7 05 c1 9d 00 00 	movq   $0x0,0x9dc1(%rip)        # 18780 <g_204>
    e9bb:	00 00 00 00 
    e9bf:	e9 95 19 00 00       	jmpq   10359 <func_32+0x2a01>
    e9c4:	48 8d 05 bf 9d 00 00 	lea    0x9dbf(%rip),%rax        # 1878a <g_269>
    e9cb:	48 89 85 c0 f0 ff ff 	mov    %rax,-0xf40(%rbp)
    e9d2:	c7 85 24 f0 ff ff 26 	movl   $0x9d257126,-0xfdc(%rbp)
    e9d9:	71 25 9d 
    e9dc:	c7 85 ac ef ff ff 00 	movl   $0x0,-0x1054(%rbp)
    e9e3:	00 00 00 
    e9e6:	48 8d 05 73 96 00 00 	lea    0x9673(%rip),%rax        # 18060 <g_99>
    e9ed:	48 89 85 c8 f0 ff ff 	mov    %rax,-0xf38(%rbp)
    e9f4:	48 b8 e2 dd 87 31 83 	movabs $0x76ab28833187dde2,%rax
    e9fb:	28 ab 76 
    e9fe:	48 89 85 e8 f1 ff ff 	mov    %rax,-0xe18(%rbp)
    ea05:	48 8d 05 4c b7 00 00 	lea    0xb74c(%rip),%rax        # 1a158 <g_358+0x38>
    ea0c:	48 89 85 f0 f1 ff ff 	mov    %rax,-0xe10(%rbp)
    ea13:	48 8d 85 68 f0 ff ff 	lea    -0xf98(%rbp),%rax
    ea1a:	48 89 85 d0 f0 ff ff 	mov    %rax,-0xf30(%rbp)
    ea21:	48 8d 85 d0 f0 ff ff 	lea    -0xf30(%rbp),%rax
    ea28:	48 89 85 30 f8 ff ff 	mov    %rax,-0x7d0(%rbp)
    ea2f:	48 8d 85 d0 f0 ff ff 	lea    -0xf30(%rbp),%rax
    ea36:	48 89 85 38 f8 ff ff 	mov    %rax,-0x7c8(%rbp)
    ea3d:	48 8d 85 d0 f0 ff ff 	lea    -0xf30(%rbp),%rax
    ea44:	48 89 85 40 f8 ff ff 	mov    %rax,-0x7c0(%rbp)
    ea4b:	48 c7 85 48 f8 ff ff 	movq   $0x0,-0x7b8(%rbp)
    ea52:	00 00 00 00 
    ea56:	48 c7 85 50 f8 ff ff 	movq   $0x0,-0x7b0(%rbp)
    ea5d:	00 00 00 00 
    ea61:	48 8d 85 d0 f0 ff ff 	lea    -0xf30(%rbp),%rax
    ea68:	48 89 85 58 f8 ff ff 	mov    %rax,-0x7a8(%rbp)
    ea6f:	48 8d 85 d0 f0 ff ff 	lea    -0xf30(%rbp),%rax
    ea76:	48 89 85 60 f8 ff ff 	mov    %rax,-0x7a0(%rbp)
    ea7d:	48 8d 85 d0 f0 ff ff 	lea    -0xf30(%rbp),%rax
    ea84:	48 89 85 68 f8 ff ff 	mov    %rax,-0x798(%rbp)
    ea8b:	48 8d 85 d0 f0 ff ff 	lea    -0xf30(%rbp),%rax
    ea92:	48 89 85 70 f8 ff ff 	mov    %rax,-0x790(%rbp)
    ea99:	48 c7 85 78 f8 ff ff 	movq   $0x0,-0x788(%rbp)
    eaa0:	00 00 00 00 
    eaa4:	48 8d 85 d0 f0 ff ff 	lea    -0xf30(%rbp),%rax
    eaab:	48 89 85 80 f8 ff ff 	mov    %rax,-0x780(%rbp)
    eab2:	48 8d 85 d0 f0 ff ff 	lea    -0xf30(%rbp),%rax
    eab9:	48 89 85 88 f8 ff ff 	mov    %rax,-0x778(%rbp)
    eac0:	48 8d 85 d0 f0 ff ff 	lea    -0xf30(%rbp),%rax
    eac7:	48 89 85 90 f8 ff ff 	mov    %rax,-0x770(%rbp)
    eace:	48 8d 85 d0 f0 ff ff 	lea    -0xf30(%rbp),%rax
    ead5:	48 89 85 98 f8 ff ff 	mov    %rax,-0x768(%rbp)
    eadc:	48 8d 85 d0 f0 ff ff 	lea    -0xf30(%rbp),%rax
    eae3:	48 89 85 a0 f8 ff ff 	mov    %rax,-0x760(%rbp)
    eaea:	48 c7 85 a8 f8 ff ff 	movq   $0x0,-0x758(%rbp)
    eaf1:	00 00 00 00 
    eaf5:	48 c7 85 b0 f8 ff ff 	movq   $0x0,-0x750(%rbp)
    eafc:	00 00 00 00 
    eb00:	48 8d 85 d0 f0 ff ff 	lea    -0xf30(%rbp),%rax
    eb07:	48 89 85 b8 f8 ff ff 	mov    %rax,-0x748(%rbp)
    eb0e:	48 8d 85 d0 f0 ff ff 	lea    -0xf30(%rbp),%rax
    eb15:	48 89 85 c0 f8 ff ff 	mov    %rax,-0x740(%rbp)
    eb1c:	48 8d 85 d0 f0 ff ff 	lea    -0xf30(%rbp),%rax
    eb23:	48 89 85 c8 f8 ff ff 	mov    %rax,-0x738(%rbp)
    eb2a:	48 8d 85 d0 f0 ff ff 	lea    -0xf30(%rbp),%rax
    eb31:	48 89 85 d0 f8 ff ff 	mov    %rax,-0x730(%rbp)
    eb38:	48 c7 85 d8 f8 ff ff 	movq   $0x0,-0x728(%rbp)
    eb3f:	00 00 00 00 
    eb43:	48 8d 85 d0 f0 ff ff 	lea    -0xf30(%rbp),%rax
    eb4a:	48 89 85 e0 f8 ff ff 	mov    %rax,-0x720(%rbp)
    eb51:	48 8d 85 d0 f0 ff ff 	lea    -0xf30(%rbp),%rax
    eb58:	48 89 85 e8 f8 ff ff 	mov    %rax,-0x718(%rbp)
    eb5f:	48 8d 85 d0 f0 ff ff 	lea    -0xf30(%rbp),%rax
    eb66:	48 89 85 f0 f8 ff ff 	mov    %rax,-0x710(%rbp)
    eb6d:	48 8d 85 d0 f0 ff ff 	lea    -0xf30(%rbp),%rax
    eb74:	48 89 85 f8 f8 ff ff 	mov    %rax,-0x708(%rbp)
    eb7b:	48 8d 85 d0 f0 ff ff 	lea    -0xf30(%rbp),%rax
    eb82:	48 89 85 00 f9 ff ff 	mov    %rax,-0x700(%rbp)
    eb89:	48 c7 85 08 f9 ff ff 	movq   $0x0,-0x6f8(%rbp)
    eb90:	00 00 00 00 
    eb94:	48 c7 85 10 f9 ff ff 	movq   $0x0,-0x6f0(%rbp)
    eb9b:	00 00 00 00 
    eb9f:	48 8d 85 d0 f0 ff ff 	lea    -0xf30(%rbp),%rax
    eba6:	48 89 85 18 f9 ff ff 	mov    %rax,-0x6e8(%rbp)
    ebad:	48 8d 85 d0 f0 ff ff 	lea    -0xf30(%rbp),%rax
    ebb4:	48 89 85 20 f9 ff ff 	mov    %rax,-0x6e0(%rbp)
    ebbb:	48 8d 85 d0 f0 ff ff 	lea    -0xf30(%rbp),%rax
    ebc2:	48 89 85 28 f9 ff ff 	mov    %rax,-0x6d8(%rbp)
    ebc9:	48 8d 85 d0 f0 ff ff 	lea    -0xf30(%rbp),%rax
    ebd0:	48 89 85 30 f9 ff ff 	mov    %rax,-0x6d0(%rbp)
    ebd7:	48 c7 85 38 f9 ff ff 	movq   $0x0,-0x6c8(%rbp)
    ebde:	00 00 00 00 
    ebe2:	48 8d 85 d0 f0 ff ff 	lea    -0xf30(%rbp),%rax
    ebe9:	48 89 85 40 f9 ff ff 	mov    %rax,-0x6c0(%rbp)
    ebf0:	48 8d 85 d0 f0 ff ff 	lea    -0xf30(%rbp),%rax
    ebf7:	48 89 85 48 f9 ff ff 	mov    %rax,-0x6b8(%rbp)
    ebfe:	48 8d 85 d0 f0 ff ff 	lea    -0xf30(%rbp),%rax
    ec05:	48 89 85 50 f9 ff ff 	mov    %rax,-0x6b0(%rbp)
    ec0c:	48 8d 85 d0 f0 ff ff 	lea    -0xf30(%rbp),%rax
    ec13:	48 89 85 58 f9 ff ff 	mov    %rax,-0x6a8(%rbp)
    ec1a:	48 8d 85 d0 f0 ff ff 	lea    -0xf30(%rbp),%rax
    ec21:	48 89 85 60 f9 ff ff 	mov    %rax,-0x6a0(%rbp)
    ec28:	48 c7 85 68 f9 ff ff 	movq   $0x0,-0x698(%rbp)
    ec2f:	00 00 00 00 
    ec33:	48 c7 85 70 f9 ff ff 	movq   $0x0,-0x690(%rbp)
    ec3a:	00 00 00 00 
    ec3e:	48 8d 85 d0 f0 ff ff 	lea    -0xf30(%rbp),%rax
    ec45:	48 89 85 78 f9 ff ff 	mov    %rax,-0x688(%rbp)
    ec4c:	48 8d 85 d0 f0 ff ff 	lea    -0xf30(%rbp),%rax
    ec53:	48 89 85 80 f9 ff ff 	mov    %rax,-0x680(%rbp)
    ec5a:	48 8d 85 d0 f0 ff ff 	lea    -0xf30(%rbp),%rax
    ec61:	48 89 85 88 f9 ff ff 	mov    %rax,-0x678(%rbp)
    ec68:	48 8d 85 d0 f0 ff ff 	lea    -0xf30(%rbp),%rax
    ec6f:	48 89 85 90 f9 ff ff 	mov    %rax,-0x670(%rbp)
    ec76:	48 c7 85 98 f9 ff ff 	movq   $0x0,-0x668(%rbp)
    ec7d:	00 00 00 00 
    ec81:	48 8d 85 d0 f0 ff ff 	lea    -0xf30(%rbp),%rax
    ec88:	48 89 85 a0 f9 ff ff 	mov    %rax,-0x660(%rbp)
    ec8f:	48 8d 85 d0 f0 ff ff 	lea    -0xf30(%rbp),%rax
    ec96:	48 89 85 a8 f9 ff ff 	mov    %rax,-0x658(%rbp)
    ec9d:	48 8d 85 d0 f0 ff ff 	lea    -0xf30(%rbp),%rax
    eca4:	48 89 85 b0 f9 ff ff 	mov    %rax,-0x650(%rbp)
    ecab:	48 8d 85 d0 f0 ff ff 	lea    -0xf30(%rbp),%rax
    ecb2:	48 89 85 b8 f9 ff ff 	mov    %rax,-0x648(%rbp)
    ecb9:	48 8d 85 d0 f0 ff ff 	lea    -0xf30(%rbp),%rax
    ecc0:	48 89 85 c0 f9 ff ff 	mov    %rax,-0x640(%rbp)
    ecc7:	48 c7 85 c8 f9 ff ff 	movq   $0x0,-0x638(%rbp)
    ecce:	00 00 00 00 
    ecd2:	48 c7 85 d0 f9 ff ff 	movq   $0x0,-0x630(%rbp)
    ecd9:	00 00 00 00 
    ecdd:	48 8d 85 d0 f0 ff ff 	lea    -0xf30(%rbp),%rax
    ece4:	48 89 85 d8 f9 ff ff 	mov    %rax,-0x628(%rbp)
    eceb:	48 8d 85 d0 f0 ff ff 	lea    -0xf30(%rbp),%rax
    ecf2:	48 89 85 e0 f9 ff ff 	mov    %rax,-0x620(%rbp)
    ecf9:	48 8d 85 d0 f0 ff ff 	lea    -0xf30(%rbp),%rax
    ed00:	48 89 85 e8 f9 ff ff 	mov    %rax,-0x618(%rbp)
    ed07:	48 8d 85 d0 f0 ff ff 	lea    -0xf30(%rbp),%rax
    ed0e:	48 89 85 f0 f9 ff ff 	mov    %rax,-0x610(%rbp)
    ed15:	48 c7 85 f8 f9 ff ff 	movq   $0x0,-0x608(%rbp)
    ed1c:	00 00 00 00 
    ed20:	48 8d 85 d0 f0 ff ff 	lea    -0xf30(%rbp),%rax
    ed27:	48 89 85 00 fa ff ff 	mov    %rax,-0x600(%rbp)
    ed2e:	48 8d 85 d0 f0 ff ff 	lea    -0xf30(%rbp),%rax
    ed35:	48 89 85 08 fa ff ff 	mov    %rax,-0x5f8(%rbp)
    ed3c:	48 8d 85 d0 f0 ff ff 	lea    -0xf30(%rbp),%rax
    ed43:	48 89 85 10 fa ff ff 	mov    %rax,-0x5f0(%rbp)
    ed4a:	48 8d 85 d0 f0 ff ff 	lea    -0xf30(%rbp),%rax
    ed51:	48 89 85 18 fa ff ff 	mov    %rax,-0x5e8(%rbp)
    ed58:	48 8d 85 d0 f0 ff ff 	lea    -0xf30(%rbp),%rax
    ed5f:	48 89 85 20 fa ff ff 	mov    %rax,-0x5e0(%rbp)
    ed66:	48 c7 85 28 fa ff ff 	movq   $0x0,-0x5d8(%rbp)
    ed6d:	00 00 00 00 
    ed71:	48 c7 85 30 fa ff ff 	movq   $0x0,-0x5d0(%rbp)
    ed78:	00 00 00 00 
    ed7c:	48 8d 85 d0 f0 ff ff 	lea    -0xf30(%rbp),%rax
    ed83:	48 89 85 38 fa ff ff 	mov    %rax,-0x5c8(%rbp)
    ed8a:	48 8d 85 d0 f0 ff ff 	lea    -0xf30(%rbp),%rax
    ed91:	48 89 85 40 fa ff ff 	mov    %rax,-0x5c0(%rbp)
    ed98:	48 8d 85 d0 f0 ff ff 	lea    -0xf30(%rbp),%rax
    ed9f:	48 89 85 48 fa ff ff 	mov    %rax,-0x5b8(%rbp)
    eda6:	48 8d 85 d0 f0 ff ff 	lea    -0xf30(%rbp),%rax
    edad:	48 89 85 50 fa ff ff 	mov    %rax,-0x5b0(%rbp)
    edb4:	48 c7 85 58 fa ff ff 	movq   $0x0,-0x5a8(%rbp)
    edbb:	00 00 00 00 
    edbf:	48 8d 85 d0 f0 ff ff 	lea    -0xf30(%rbp),%rax
    edc6:	48 89 85 60 fa ff ff 	mov    %rax,-0x5a0(%rbp)
    edcd:	48 8d 85 d0 f0 ff ff 	lea    -0xf30(%rbp),%rax
    edd4:	48 89 85 68 fa ff ff 	mov    %rax,-0x598(%rbp)
    eddb:	48 8d 85 d0 f0 ff ff 	lea    -0xf30(%rbp),%rax
    ede2:	48 89 85 70 fa ff ff 	mov    %rax,-0x590(%rbp)
    ede9:	48 8d 85 d0 f0 ff ff 	lea    -0xf30(%rbp),%rax
    edf0:	48 89 85 78 fa ff ff 	mov    %rax,-0x588(%rbp)
    edf7:	48 8d 85 d0 f0 ff ff 	lea    -0xf30(%rbp),%rax
    edfe:	48 89 85 80 fa ff ff 	mov    %rax,-0x580(%rbp)
    ee05:	48 c7 85 88 fa ff ff 	movq   $0x0,-0x578(%rbp)
    ee0c:	00 00 00 00 
    ee10:	48 c7 85 90 fa ff ff 	movq   $0x0,-0x570(%rbp)
    ee17:	00 00 00 00 
    ee1b:	48 8d 85 d0 f0 ff ff 	lea    -0xf30(%rbp),%rax
    ee22:	48 89 85 98 fa ff ff 	mov    %rax,-0x568(%rbp)
    ee29:	48 8d 85 d0 f0 ff ff 	lea    -0xf30(%rbp),%rax
    ee30:	48 89 85 a0 fa ff ff 	mov    %rax,-0x560(%rbp)
    ee37:	48 8d 85 d0 f0 ff ff 	lea    -0xf30(%rbp),%rax
    ee3e:	48 89 85 a8 fa ff ff 	mov    %rax,-0x558(%rbp)
    ee45:	48 8d 85 d0 f0 ff ff 	lea    -0xf30(%rbp),%rax
    ee4c:	48 89 85 b0 fa ff ff 	mov    %rax,-0x550(%rbp)
    ee53:	48 c7 85 b8 fa ff ff 	movq   $0x0,-0x548(%rbp)
    ee5a:	00 00 00 00 
    ee5e:	48 8d 85 d0 f0 ff ff 	lea    -0xf30(%rbp),%rax
    ee65:	48 89 85 c0 fa ff ff 	mov    %rax,-0x540(%rbp)
    ee6c:	48 8d 85 d0 f0 ff ff 	lea    -0xf30(%rbp),%rax
    ee73:	48 89 85 c8 fa ff ff 	mov    %rax,-0x538(%rbp)
    ee7a:	48 8d 85 d0 f0 ff ff 	lea    -0xf30(%rbp),%rax
    ee81:	48 89 85 d0 fa ff ff 	mov    %rax,-0x530(%rbp)
    ee88:	48 8d 85 d0 f0 ff ff 	lea    -0xf30(%rbp),%rax
    ee8f:	48 89 85 d8 fa ff ff 	mov    %rax,-0x528(%rbp)
    ee96:	48 8d 85 d0 f0 ff ff 	lea    -0xf30(%rbp),%rax
    ee9d:	48 89 85 e0 fa ff ff 	mov    %rax,-0x520(%rbp)
    eea4:	48 c7 85 e8 fa ff ff 	movq   $0x0,-0x518(%rbp)
    eeab:	00 00 00 00 
    eeaf:	48 c7 85 f0 fa ff ff 	movq   $0x0,-0x510(%rbp)
    eeb6:	00 00 00 00 
    eeba:	48 8d 85 d0 f0 ff ff 	lea    -0xf30(%rbp),%rax
    eec1:	48 89 85 f8 fa ff ff 	mov    %rax,-0x508(%rbp)
    eec8:	48 8d 85 d0 f0 ff ff 	lea    -0xf30(%rbp),%rax
    eecf:	48 89 85 00 fb ff ff 	mov    %rax,-0x500(%rbp)
    eed6:	48 8d 85 d0 f0 ff ff 	lea    -0xf30(%rbp),%rax
    eedd:	48 89 85 08 fb ff ff 	mov    %rax,-0x4f8(%rbp)
    eee4:	48 8d 85 d0 f0 ff ff 	lea    -0xf30(%rbp),%rax
    eeeb:	48 89 85 10 fb ff ff 	mov    %rax,-0x4f0(%rbp)
    eef2:	48 c7 85 18 fb ff ff 	movq   $0x0,-0x4e8(%rbp)
    eef9:	00 00 00 00 
    eefd:	48 8d 85 d0 f0 ff ff 	lea    -0xf30(%rbp),%rax
    ef04:	48 89 85 20 fb ff ff 	mov    %rax,-0x4e0(%rbp)
    ef0b:	48 8d 85 d0 f0 ff ff 	lea    -0xf30(%rbp),%rax
    ef12:	48 89 85 28 fb ff ff 	mov    %rax,-0x4d8(%rbp)
    ef19:	48 8d 85 d0 f0 ff ff 	lea    -0xf30(%rbp),%rax
    ef20:	48 89 85 30 fb ff ff 	mov    %rax,-0x4d0(%rbp)
    ef27:	48 8d 85 d0 f0 ff ff 	lea    -0xf30(%rbp),%rax
    ef2e:	48 89 85 38 fb ff ff 	mov    %rax,-0x4c8(%rbp)
    ef35:	48 8d 85 d0 f0 ff ff 	lea    -0xf30(%rbp),%rax
    ef3c:	48 89 85 40 fb ff ff 	mov    %rax,-0x4c0(%rbp)
    ef43:	48 c7 85 48 fb ff ff 	movq   $0x0,-0x4b8(%rbp)
    ef4a:	00 00 00 00 
    ef4e:	48 c7 85 50 fb ff ff 	movq   $0x0,-0x4b0(%rbp)
    ef55:	00 00 00 00 
    ef59:	48 8d 85 d0 f0 ff ff 	lea    -0xf30(%rbp),%rax
    ef60:	48 89 85 58 fb ff ff 	mov    %rax,-0x4a8(%rbp)
    ef67:	48 8d 85 d0 f0 ff ff 	lea    -0xf30(%rbp),%rax
    ef6e:	48 89 85 60 fb ff ff 	mov    %rax,-0x4a0(%rbp)
    ef75:	48 8d 85 d0 f0 ff ff 	lea    -0xf30(%rbp),%rax
    ef7c:	48 89 85 68 fb ff ff 	mov    %rax,-0x498(%rbp)
    ef83:	48 8d 85 d0 f0 ff ff 	lea    -0xf30(%rbp),%rax
    ef8a:	48 89 85 70 fb ff ff 	mov    %rax,-0x490(%rbp)
    ef91:	48 c7 85 78 fb ff ff 	movq   $0x0,-0x488(%rbp)
    ef98:	00 00 00 00 
    ef9c:	48 8d 85 d0 f0 ff ff 	lea    -0xf30(%rbp),%rax
    efa3:	48 89 85 80 fb ff ff 	mov    %rax,-0x480(%rbp)
    efaa:	48 8d 85 d0 f0 ff ff 	lea    -0xf30(%rbp),%rax
    efb1:	48 89 85 88 fb ff ff 	mov    %rax,-0x478(%rbp)
    efb8:	48 8d 85 d0 f0 ff ff 	lea    -0xf30(%rbp),%rax
    efbf:	48 89 85 90 fb ff ff 	mov    %rax,-0x470(%rbp)
    efc6:	48 8d 85 d0 f0 ff ff 	lea    -0xf30(%rbp),%rax
    efcd:	48 89 85 98 fb ff ff 	mov    %rax,-0x468(%rbp)
    efd4:	48 8d 85 d0 f0 ff ff 	lea    -0xf30(%rbp),%rax
    efdb:	48 89 85 a0 fb ff ff 	mov    %rax,-0x460(%rbp)
    efe2:	48 c7 85 a8 fb ff ff 	movq   $0x0,-0x458(%rbp)
    efe9:	00 00 00 00 
    efed:	48 c7 85 b0 fb ff ff 	movq   $0x0,-0x450(%rbp)
    eff4:	00 00 00 00 
    eff8:	48 8d 85 d0 f0 ff ff 	lea    -0xf30(%rbp),%rax
    efff:	48 89 85 b8 fb ff ff 	mov    %rax,-0x448(%rbp)
    f006:	48 8d 85 d0 f0 ff ff 	lea    -0xf30(%rbp),%rax
    f00d:	48 89 85 c0 fb ff ff 	mov    %rax,-0x440(%rbp)
    f014:	48 8d 85 d0 f0 ff ff 	lea    -0xf30(%rbp),%rax
    f01b:	48 89 85 c8 fb ff ff 	mov    %rax,-0x438(%rbp)
    f022:	48 8d 85 d0 f0 ff ff 	lea    -0xf30(%rbp),%rax
    f029:	48 89 85 d0 fb ff ff 	mov    %rax,-0x430(%rbp)
    f030:	48 c7 85 d8 fb ff ff 	movq   $0x0,-0x428(%rbp)
    f037:	00 00 00 00 
    f03b:	48 8d 85 d0 f0 ff ff 	lea    -0xf30(%rbp),%rax
    f042:	48 89 85 e0 fb ff ff 	mov    %rax,-0x420(%rbp)
    f049:	48 8d 85 d0 f0 ff ff 	lea    -0xf30(%rbp),%rax
    f050:	48 89 85 e8 fb ff ff 	mov    %rax,-0x418(%rbp)
    f057:	48 8d 85 d0 f0 ff ff 	lea    -0xf30(%rbp),%rax
    f05e:	48 89 85 f0 fb ff ff 	mov    %rax,-0x410(%rbp)
    f065:	48 8d 85 d0 f0 ff ff 	lea    -0xf30(%rbp),%rax
    f06c:	48 89 85 f8 fb ff ff 	mov    %rax,-0x408(%rbp)
    f073:	48 8d 85 d0 f0 ff ff 	lea    -0xf30(%rbp),%rax
    f07a:	48 89 85 00 fc ff ff 	mov    %rax,-0x400(%rbp)
    f081:	48 c7 85 08 fc ff ff 	movq   $0x0,-0x3f8(%rbp)
    f088:	00 00 00 00 
    f08c:	48 c7 85 10 fc ff ff 	movq   $0x0,-0x3f0(%rbp)
    f093:	00 00 00 00 
    f097:	48 8d 85 d0 f0 ff ff 	lea    -0xf30(%rbp),%rax
    f09e:	48 89 85 18 fc ff ff 	mov    %rax,-0x3e8(%rbp)
    f0a5:	48 8d 85 d0 f0 ff ff 	lea    -0xf30(%rbp),%rax
    f0ac:	48 89 85 20 fc ff ff 	mov    %rax,-0x3e0(%rbp)
    f0b3:	48 8d 85 d0 f0 ff ff 	lea    -0xf30(%rbp),%rax
    f0ba:	48 89 85 28 fc ff ff 	mov    %rax,-0x3d8(%rbp)
    f0c1:	48 8d 85 d0 f0 ff ff 	lea    -0xf30(%rbp),%rax
    f0c8:	48 89 85 30 fc ff ff 	mov    %rax,-0x3d0(%rbp)
    f0cf:	48 c7 85 38 fc ff ff 	movq   $0x0,-0x3c8(%rbp)
    f0d6:	00 00 00 00 
    f0da:	48 8d 85 d0 f0 ff ff 	lea    -0xf30(%rbp),%rax
    f0e1:	48 89 85 40 fc ff ff 	mov    %rax,-0x3c0(%rbp)
    f0e8:	48 8d 85 d0 f0 ff ff 	lea    -0xf30(%rbp),%rax
    f0ef:	48 89 85 48 fc ff ff 	mov    %rax,-0x3b8(%rbp)
    f0f6:	48 8d 85 d0 f0 ff ff 	lea    -0xf30(%rbp),%rax
    f0fd:	48 89 85 50 fc ff ff 	mov    %rax,-0x3b0(%rbp)
    f104:	48 8d 85 d0 f0 ff ff 	lea    -0xf30(%rbp),%rax
    f10b:	48 89 85 58 fc ff ff 	mov    %rax,-0x3a8(%rbp)
    f112:	48 8d 85 d0 f0 ff ff 	lea    -0xf30(%rbp),%rax
    f119:	48 89 85 60 fc ff ff 	mov    %rax,-0x3a0(%rbp)
    f120:	48 c7 85 68 fc ff ff 	movq   $0x0,-0x398(%rbp)
    f127:	00 00 00 00 
    f12b:	48 c7 85 70 fc ff ff 	movq   $0x0,-0x390(%rbp)
    f132:	00 00 00 00 
    f136:	48 8d 85 d0 f0 ff ff 	lea    -0xf30(%rbp),%rax
    f13d:	48 89 85 78 fc ff ff 	mov    %rax,-0x388(%rbp)
    f144:	48 8d 85 d0 f0 ff ff 	lea    -0xf30(%rbp),%rax
    f14b:	48 89 85 80 fc ff ff 	mov    %rax,-0x380(%rbp)
    f152:	48 8d 85 d0 f0 ff ff 	lea    -0xf30(%rbp),%rax
    f159:	48 89 85 88 fc ff ff 	mov    %rax,-0x378(%rbp)
    f160:	48 8d 85 d0 f0 ff ff 	lea    -0xf30(%rbp),%rax
    f167:	48 89 85 90 fc ff ff 	mov    %rax,-0x370(%rbp)
    f16e:	48 c7 85 98 fc ff ff 	movq   $0x0,-0x368(%rbp)
    f175:	00 00 00 00 
    f179:	48 8d 85 d0 f0 ff ff 	lea    -0xf30(%rbp),%rax
    f180:	48 89 85 a0 fc ff ff 	mov    %rax,-0x360(%rbp)
    f187:	48 8d 85 d0 f0 ff ff 	lea    -0xf30(%rbp),%rax
    f18e:	48 89 85 a8 fc ff ff 	mov    %rax,-0x358(%rbp)
    f195:	48 8d 85 d0 f0 ff ff 	lea    -0xf30(%rbp),%rax
    f19c:	48 89 85 b0 fc ff ff 	mov    %rax,-0x350(%rbp)
    f1a3:	48 8d 85 d0 f0 ff ff 	lea    -0xf30(%rbp),%rax
    f1aa:	48 89 85 b8 fc ff ff 	mov    %rax,-0x348(%rbp)
    f1b1:	48 8d 85 d0 f0 ff ff 	lea    -0xf30(%rbp),%rax
    f1b8:	48 89 85 c0 fc ff ff 	mov    %rax,-0x340(%rbp)
    f1bf:	48 c7 85 c8 fc ff ff 	movq   $0x0,-0x338(%rbp)
    f1c6:	00 00 00 00 
    f1ca:	48 c7 85 d0 fc ff ff 	movq   $0x0,-0x330(%rbp)
    f1d1:	00 00 00 00 
    f1d5:	48 8d 85 d0 f0 ff ff 	lea    -0xf30(%rbp),%rax
    f1dc:	48 89 85 d8 fc ff ff 	mov    %rax,-0x328(%rbp)
    f1e3:	48 8d 85 d0 f0 ff ff 	lea    -0xf30(%rbp),%rax
    f1ea:	48 89 85 e0 fc ff ff 	mov    %rax,-0x320(%rbp)
    f1f1:	48 8d 85 d0 f0 ff ff 	lea    -0xf30(%rbp),%rax
    f1f8:	48 89 85 e8 fc ff ff 	mov    %rax,-0x318(%rbp)
    f1ff:	48 8d 85 d0 f0 ff ff 	lea    -0xf30(%rbp),%rax
    f206:	48 89 85 f0 fc ff ff 	mov    %rax,-0x310(%rbp)
    f20d:	48 c7 85 f8 fc ff ff 	movq   $0x0,-0x308(%rbp)
    f214:	00 00 00 00 
    f218:	48 8d 85 d0 f0 ff ff 	lea    -0xf30(%rbp),%rax
    f21f:	48 89 85 00 fd ff ff 	mov    %rax,-0x300(%rbp)
    f226:	48 8d 85 d0 f0 ff ff 	lea    -0xf30(%rbp),%rax
    f22d:	48 89 85 08 fd ff ff 	mov    %rax,-0x2f8(%rbp)
    f234:	48 8d 85 d0 f0 ff ff 	lea    -0xf30(%rbp),%rax
    f23b:	48 89 85 10 fd ff ff 	mov    %rax,-0x2f0(%rbp)
    f242:	48 8d 85 d0 f0 ff ff 	lea    -0xf30(%rbp),%rax
    f249:	48 89 85 18 fd ff ff 	mov    %rax,-0x2e8(%rbp)
    f250:	48 8d 85 d0 f0 ff ff 	lea    -0xf30(%rbp),%rax
    f257:	48 89 85 20 fd ff ff 	mov    %rax,-0x2e0(%rbp)
    f25e:	48 c7 85 28 fd ff ff 	movq   $0x0,-0x2d8(%rbp)
    f265:	00 00 00 00 
    f269:	48 c7 85 30 fd ff ff 	movq   $0x0,-0x2d0(%rbp)
    f270:	00 00 00 00 
    f274:	48 8d 85 d0 f0 ff ff 	lea    -0xf30(%rbp),%rax
    f27b:	48 89 85 38 fd ff ff 	mov    %rax,-0x2c8(%rbp)
    f282:	48 8d 85 d0 f0 ff ff 	lea    -0xf30(%rbp),%rax
    f289:	48 89 85 40 fd ff ff 	mov    %rax,-0x2c0(%rbp)
    f290:	48 8d 85 d0 f0 ff ff 	lea    -0xf30(%rbp),%rax
    f297:	48 89 85 48 fd ff ff 	mov    %rax,-0x2b8(%rbp)
    f29e:	48 8d 85 d0 f0 ff ff 	lea    -0xf30(%rbp),%rax
    f2a5:	48 89 85 50 fd ff ff 	mov    %rax,-0x2b0(%rbp)
    f2ac:	48 c7 85 58 fd ff ff 	movq   $0x0,-0x2a8(%rbp)
    f2b3:	00 00 00 00 
    f2b7:	48 8d 85 d0 f0 ff ff 	lea    -0xf30(%rbp),%rax
    f2be:	48 89 85 60 fd ff ff 	mov    %rax,-0x2a0(%rbp)
    f2c5:	48 8d 85 d0 f0 ff ff 	lea    -0xf30(%rbp),%rax
    f2cc:	48 89 85 68 fd ff ff 	mov    %rax,-0x298(%rbp)
    f2d3:	48 8d 85 d0 f0 ff ff 	lea    -0xf30(%rbp),%rax
    f2da:	48 89 85 70 fd ff ff 	mov    %rax,-0x290(%rbp)
    f2e1:	48 8d 85 d0 f0 ff ff 	lea    -0xf30(%rbp),%rax
    f2e8:	48 89 85 78 fd ff ff 	mov    %rax,-0x288(%rbp)
    f2ef:	48 8d 85 d0 f0 ff ff 	lea    -0xf30(%rbp),%rax
    f2f6:	48 89 85 80 fd ff ff 	mov    %rax,-0x280(%rbp)
    f2fd:	48 c7 85 88 fd ff ff 	movq   $0x0,-0x278(%rbp)
    f304:	00 00 00 00 
    f308:	48 c7 85 90 fd ff ff 	movq   $0x0,-0x270(%rbp)
    f30f:	00 00 00 00 
    f313:	48 8d 85 d0 f0 ff ff 	lea    -0xf30(%rbp),%rax
    f31a:	48 89 85 98 fd ff ff 	mov    %rax,-0x268(%rbp)
    f321:	48 8d 85 d0 f0 ff ff 	lea    -0xf30(%rbp),%rax
    f328:	48 89 85 a0 fd ff ff 	mov    %rax,-0x260(%rbp)
    f32f:	48 8d 85 d0 f0 ff ff 	lea    -0xf30(%rbp),%rax
    f336:	48 89 85 a8 fd ff ff 	mov    %rax,-0x258(%rbp)
    f33d:	48 8d 85 d0 f0 ff ff 	lea    -0xf30(%rbp),%rax
    f344:	48 89 85 b0 fd ff ff 	mov    %rax,-0x250(%rbp)
    f34b:	48 c7 85 b8 fd ff ff 	movq   $0x0,-0x248(%rbp)
    f352:	00 00 00 00 
    f356:	48 8d 85 d0 f0 ff ff 	lea    -0xf30(%rbp),%rax
    f35d:	48 89 85 c0 fd ff ff 	mov    %rax,-0x240(%rbp)
    f364:	48 8d 85 d0 f0 ff ff 	lea    -0xf30(%rbp),%rax
    f36b:	48 89 85 c8 fd ff ff 	mov    %rax,-0x238(%rbp)
    f372:	48 8d 85 d0 f0 ff ff 	lea    -0xf30(%rbp),%rax
    f379:	48 89 85 d0 fd ff ff 	mov    %rax,-0x230(%rbp)
    f380:	48 8d 85 d0 f0 ff ff 	lea    -0xf30(%rbp),%rax
    f387:	48 89 85 d8 fd ff ff 	mov    %rax,-0x228(%rbp)
    f38e:	48 8d 85 d0 f0 ff ff 	lea    -0xf30(%rbp),%rax
    f395:	48 89 85 e0 fd ff ff 	mov    %rax,-0x220(%rbp)
    f39c:	48 c7 85 e8 fd ff ff 	movq   $0x0,-0x218(%rbp)
    f3a3:	00 00 00 00 
    f3a7:	48 c7 85 f0 fd ff ff 	movq   $0x0,-0x210(%rbp)
    f3ae:	00 00 00 00 
    f3b2:	48 8d 85 d0 f0 ff ff 	lea    -0xf30(%rbp),%rax
    f3b9:	48 89 85 f8 fd ff ff 	mov    %rax,-0x208(%rbp)
    f3c0:	48 8d 85 d0 f0 ff ff 	lea    -0xf30(%rbp),%rax
    f3c7:	48 89 85 00 fe ff ff 	mov    %rax,-0x200(%rbp)
    f3ce:	48 8d 85 d0 f0 ff ff 	lea    -0xf30(%rbp),%rax
    f3d5:	48 89 85 08 fe ff ff 	mov    %rax,-0x1f8(%rbp)
    f3dc:	48 8d 85 d0 f0 ff ff 	lea    -0xf30(%rbp),%rax
    f3e3:	48 89 85 10 fe ff ff 	mov    %rax,-0x1f0(%rbp)
    f3ea:	48 c7 85 18 fe ff ff 	movq   $0x0,-0x1e8(%rbp)
    f3f1:	00 00 00 00 
    f3f5:	48 8d 85 d0 f0 ff ff 	lea    -0xf30(%rbp),%rax
    f3fc:	48 89 85 20 fe ff ff 	mov    %rax,-0x1e0(%rbp)
    f403:	48 8d 85 d0 f0 ff ff 	lea    -0xf30(%rbp),%rax
    f40a:	48 89 85 28 fe ff ff 	mov    %rax,-0x1d8(%rbp)
    f411:	48 8d 85 d0 f0 ff ff 	lea    -0xf30(%rbp),%rax
    f418:	48 89 85 30 fe ff ff 	mov    %rax,-0x1d0(%rbp)
    f41f:	48 8d 85 d0 f0 ff ff 	lea    -0xf30(%rbp),%rax
    f426:	48 89 85 38 fe ff ff 	mov    %rax,-0x1c8(%rbp)
    f42d:	48 8d 85 d0 f0 ff ff 	lea    -0xf30(%rbp),%rax
    f434:	48 89 85 40 fe ff ff 	mov    %rax,-0x1c0(%rbp)
    f43b:	48 c7 85 48 fe ff ff 	movq   $0x0,-0x1b8(%rbp)
    f442:	00 00 00 00 
    f446:	48 c7 85 50 fe ff ff 	movq   $0x0,-0x1b0(%rbp)
    f44d:	00 00 00 00 
    f451:	48 8d 85 d0 f0 ff ff 	lea    -0xf30(%rbp),%rax
    f458:	48 89 85 58 fe ff ff 	mov    %rax,-0x1a8(%rbp)
    f45f:	48 8d 85 d0 f0 ff ff 	lea    -0xf30(%rbp),%rax
    f466:	48 89 85 60 fe ff ff 	mov    %rax,-0x1a0(%rbp)
    f46d:	48 8d 85 d0 f0 ff ff 	lea    -0xf30(%rbp),%rax
    f474:	48 89 85 68 fe ff ff 	mov    %rax,-0x198(%rbp)
    f47b:	48 8d 85 d0 f0 ff ff 	lea    -0xf30(%rbp),%rax
    f482:	48 89 85 70 fe ff ff 	mov    %rax,-0x190(%rbp)
    f489:	48 c7 85 78 fe ff ff 	movq   $0x0,-0x188(%rbp)
    f490:	00 00 00 00 
    f494:	48 8d 85 d0 f0 ff ff 	lea    -0xf30(%rbp),%rax
    f49b:	48 89 85 80 fe ff ff 	mov    %rax,-0x180(%rbp)
    f4a2:	48 8d 85 d0 f0 ff ff 	lea    -0xf30(%rbp),%rax
    f4a9:	48 89 85 88 fe ff ff 	mov    %rax,-0x178(%rbp)
    f4b0:	48 8d 85 d0 f0 ff ff 	lea    -0xf30(%rbp),%rax
    f4b7:	48 89 85 90 fe ff ff 	mov    %rax,-0x170(%rbp)
    f4be:	48 8d 85 d0 f0 ff ff 	lea    -0xf30(%rbp),%rax
    f4c5:	48 89 85 98 fe ff ff 	mov    %rax,-0x168(%rbp)
    f4cc:	48 8d 85 d0 f0 ff ff 	lea    -0xf30(%rbp),%rax
    f4d3:	48 89 85 a0 fe ff ff 	mov    %rax,-0x160(%rbp)
    f4da:	48 c7 85 a8 fe ff ff 	movq   $0x0,-0x158(%rbp)
    f4e1:	00 00 00 00 
    f4e5:	48 c7 85 b0 fe ff ff 	movq   $0x0,-0x150(%rbp)
    f4ec:	00 00 00 00 
    f4f0:	48 8d 85 d0 f0 ff ff 	lea    -0xf30(%rbp),%rax
    f4f7:	48 89 85 b8 fe ff ff 	mov    %rax,-0x148(%rbp)
    f4fe:	48 8d 85 d0 f0 ff ff 	lea    -0xf30(%rbp),%rax
    f505:	48 89 85 c0 fe ff ff 	mov    %rax,-0x140(%rbp)
    f50c:	48 8d 85 d0 f0 ff ff 	lea    -0xf30(%rbp),%rax
    f513:	48 89 85 c8 fe ff ff 	mov    %rax,-0x138(%rbp)
    f51a:	48 8d 85 d0 f0 ff ff 	lea    -0xf30(%rbp),%rax
    f521:	48 89 85 d0 fe ff ff 	mov    %rax,-0x130(%rbp)
    f528:	48 c7 85 d8 fe ff ff 	movq   $0x0,-0x128(%rbp)
    f52f:	00 00 00 00 
    f533:	48 8d 85 d0 f0 ff ff 	lea    -0xf30(%rbp),%rax
    f53a:	48 89 85 e0 fe ff ff 	mov    %rax,-0x120(%rbp)
    f541:	48 8d 85 d0 f0 ff ff 	lea    -0xf30(%rbp),%rax
    f548:	48 89 85 e8 fe ff ff 	mov    %rax,-0x118(%rbp)
    f54f:	48 8d 85 d0 f0 ff ff 	lea    -0xf30(%rbp),%rax
    f556:	48 89 85 f0 fe ff ff 	mov    %rax,-0x110(%rbp)
    f55d:	48 8d 85 d0 f0 ff ff 	lea    -0xf30(%rbp),%rax
    f564:	48 89 85 f8 fe ff ff 	mov    %rax,-0x108(%rbp)
    f56b:	48 8d 85 d0 f0 ff ff 	lea    -0xf30(%rbp),%rax
    f572:	48 89 85 00 ff ff ff 	mov    %rax,-0x100(%rbp)
    f579:	48 c7 85 08 ff ff ff 	movq   $0x0,-0xf8(%rbp)
    f580:	00 00 00 00 
    f584:	48 c7 85 10 ff ff ff 	movq   $0x0,-0xf0(%rbp)
    f58b:	00 00 00 00 
    f58f:	48 8d 85 d0 f0 ff ff 	lea    -0xf30(%rbp),%rax
    f596:	48 89 85 18 ff ff ff 	mov    %rax,-0xe8(%rbp)
    f59d:	48 8d 85 d0 f0 ff ff 	lea    -0xf30(%rbp),%rax
    f5a4:	48 89 85 20 ff ff ff 	mov    %rax,-0xe0(%rbp)
    f5ab:	48 8d 85 d0 f0 ff ff 	lea    -0xf30(%rbp),%rax
    f5b2:	48 89 85 28 ff ff ff 	mov    %rax,-0xd8(%rbp)
    f5b9:	48 8d 85 d0 f0 ff ff 	lea    -0xf30(%rbp),%rax
    f5c0:	48 89 85 30 ff ff ff 	mov    %rax,-0xd0(%rbp)
    f5c7:	48 c7 85 38 ff ff ff 	movq   $0x0,-0xc8(%rbp)
    f5ce:	00 00 00 00 
    f5d2:	48 8d 85 d0 f0 ff ff 	lea    -0xf30(%rbp),%rax
    f5d9:	48 89 85 40 ff ff ff 	mov    %rax,-0xc0(%rbp)
    f5e0:	48 8d 85 d0 f0 ff ff 	lea    -0xf30(%rbp),%rax
    f5e7:	48 89 85 48 ff ff ff 	mov    %rax,-0xb8(%rbp)
    f5ee:	48 8d 85 d0 f0 ff ff 	lea    -0xf30(%rbp),%rax
    f5f5:	48 89 85 50 ff ff ff 	mov    %rax,-0xb0(%rbp)
    f5fc:	48 8d 85 d0 f0 ff ff 	lea    -0xf30(%rbp),%rax
    f603:	48 89 85 58 ff ff ff 	mov    %rax,-0xa8(%rbp)
    f60a:	48 8d 85 d0 f0 ff ff 	lea    -0xf30(%rbp),%rax
    f611:	48 89 85 60 ff ff ff 	mov    %rax,-0xa0(%rbp)
    f618:	48 c7 85 68 ff ff ff 	movq   $0x0,-0x98(%rbp)
    f61f:	00 00 00 00 
    f623:	48 c7 85 70 ff ff ff 	movq   $0x0,-0x90(%rbp)
    f62a:	00 00 00 00 
    f62e:	48 8d 85 d0 f0 ff ff 	lea    -0xf30(%rbp),%rax
    f635:	48 89 85 78 ff ff ff 	mov    %rax,-0x88(%rbp)
    f63c:	48 8d 85 d0 f0 ff ff 	lea    -0xf30(%rbp),%rax
    f643:	48 89 45 80          	mov    %rax,-0x80(%rbp)
    f647:	48 8d 85 d0 f0 ff ff 	lea    -0xf30(%rbp),%rax
    f64e:	48 89 45 88          	mov    %rax,-0x78(%rbp)
    f652:	48 8d 85 d0 f0 ff ff 	lea    -0xf30(%rbp),%rax
    f659:	48 89 45 90          	mov    %rax,-0x70(%rbp)
    f65d:	48 c7 45 98 00 00 00 	movq   $0x0,-0x68(%rbp)
    f664:	00 
    f665:	48 8d 85 d0 f0 ff ff 	lea    -0xf30(%rbp),%rax
    f66c:	48 89 45 a0          	mov    %rax,-0x60(%rbp)
    f670:	48 8d 85 d0 f0 ff ff 	lea    -0xf30(%rbp),%rax
    f677:	48 89 45 a8          	mov    %rax,-0x58(%rbp)
    f67b:	48 8b 85 68 f0 ff ff 	mov    -0xf98(%rbp),%rax
    f682:	48 8b 10             	mov    (%rax),%rdx
    f685:	48 8b 85 68 f0 ff ff 	mov    -0xf98(%rbp),%rax
    f68c:	48 8b 00             	mov    (%rax),%rax
    f68f:	8b 12                	mov    (%rdx),%edx
    f691:	89 10                	mov    %edx,(%rax)
    f693:	c7 05 d7 89 00 00 00 	movl   $0x0,0x89d7(%rip)        # 18074 <g_145>
    f69a:	00 00 00 
    f69d:	e9 f6 04 00 00       	jmpq   fb98 <func_32+0x2240>
    f6a2:	48 c7 85 d8 f0 ff ff 	movq   $0x0,-0xf28(%rbp)
    f6a9:	00 00 00 00 
    f6ad:	c7 85 d8 f0 ff ff 94 	movl   $0x1c045594,-0xf28(%rbp)
    f6b4:	55 04 1c 
    f6b7:	c7 85 2c f0 ff ff 16 	movl   $0x1ff79d16,-0xfd4(%rbp)
    f6be:	9d f7 1f 
    f6c1:	48 8d 05 c2 90 00 00 	lea    0x90c2(%rip),%rax        # 1878a <g_269>
    f6c8:	48 89 85 10 f2 ff ff 	mov    %rax,-0xdf0(%rbp)
    f6cf:	c7 85 30 f0 ff ff 13 	movl   $0xc1286713,-0xfd0(%rbp)
    f6d6:	67 28 c1 
    f6d9:	66 c7 05 a8 bd 00 00 	movw   $0x0,0xbda8(%rip)        # 1b48a <g_161>
    f6e0:	00 00 
    f6e2:	e9 e7 01 00 00       	jmpq   f8ce <func_32+0x1f76>
    f6e7:	48 8d 05 9a 90 00 00 	lea    0x909a(%rip),%rax        # 18788 <g_218>
    f6ee:	48 89 85 20 f2 ff ff 	mov    %rax,-0xde0(%rbp)
    f6f5:	48 8d 05 5c 49 00 00 	lea    0x495c(%rip),%rax        # 14058 <g_284>
    f6fc:	48 89 85 e0 f0 ff ff 	mov    %rax,-0xf20(%rbp)
    f703:	48 8d 85 e0 f0 ff ff 	lea    -0xf20(%rbp),%rax
    f70a:	48 89 85 28 f2 ff ff 	mov    %rax,-0xdd8(%rbp)
    f711:	48 8d 05 74 90 00 00 	lea    0x9074(%rip),%rax        # 1878c <g_286>
    f718:	48 89 85 30 f2 ff ff 	mov    %rax,-0xdd0(%rbp)
    f71f:	48 8d 05 6a 90 00 00 	lea    0x906a(%rip),%rax        # 18790 <g_291>
    f726:	48 89 85 38 f2 ff ff 	mov    %rax,-0xdc8(%rbp)
    f72d:	48 c7 85 e8 f0 ff ff 	movq   $0x0,-0xf18(%rbp)
    f734:	00 00 00 00 
    f738:	48 8d 85 e8 f0 ff ff 	lea    -0xf18(%rbp),%rax
    f73f:	48 89 85 40 f2 ff ff 	mov    %rax,-0xdc0(%rbp)
    f746:	48 8d 85 c0 f0 ff ff 	lea    -0xf40(%rbp),%rax
    f74d:	48 89 85 48 f2 ff ff 	mov    %rax,-0xdb8(%rbp)
    f754:	48 8b 05 25 90 00 00 	mov    0x9025(%rip),%rax        # 18780 <g_204>
    f75b:	48 8d 14 85 00 00 00 	lea    0x0(,%rax,4),%rdx
    f762:	00 
    f763:	48 8d 05 d6 88 00 00 	lea    0x88d6(%rip),%rax        # 18040 <g_81>
    f76a:	8b 04 02             	mov    (%rdx,%rax,1),%eax
    f76d:	41 89 c4             	mov    %eax,%r12d
    f770:	48 8b 85 70 ef ff ff 	mov    -0x1090(%rbp),%rax
    f777:	0f be d8             	movsbl %al,%ebx
    f77a:	48 8d 05 07 90 00 00 	lea    0x9007(%rip),%rax        # 18788 <g_218>
    f781:	48 39 85 20 f2 ff ff 	cmp    %rax,-0xde0(%rbp)
    f788:	0f 95 c0             	setne  %al
    f78b:	0f b6 c0             	movzbl %al,%eax
    f78e:	be 06 00 00 00       	mov    $0x6,%esi
    f793:	89 c7                	mov    %eax,%edi
    f795:	e8 d2 6b ff ff       	callq  636c <safe_rshift_func_int8_t_s_u>
    f79a:	0f be c0             	movsbl %al,%eax
    f79d:	48 8b 95 28 f2 ff ff 	mov    -0xdd8(%rbp),%rdx
    f7a4:	48 8d 0d d5 8f 00 00 	lea    0x8fd5(%rip),%rcx        # 18780 <g_204>
    f7ab:	48 89 0a             	mov    %rcx,(%rdx)
    f7ae:	48 8b 95 30 f2 ff ff 	mov    -0xdd0(%rbp),%rdx
    f7b5:	c7 02 01 00 00 00    	movl   $0x1,(%rdx)
    f7bb:	48 8b 95 30 f2 ff ff 	mov    -0xdd0(%rbp),%rdx
    f7c2:	8b 12                	mov    (%rdx),%edx
    f7c4:	89 95 24 f0 ff ff    	mov    %edx,-0xfdc(%rbp)
    f7ca:	39 85 24 f0 ff ff    	cmp    %eax,-0xfdc(%rbp)
    f7d0:	0f 95 c0             	setne  %al
    f7d3:	0f b6 d0             	movzbl %al,%edx
    f7d6:	48 8b 05 cb 8b 00 00 	mov    0x8bcb(%rip),%rax        # 183a8 <g_176+0x328>
    f7dd:	8b 05 91 88 00 00    	mov    0x8891(%rip),%eax        # 18074 <g_145>
    f7e3:	89 c0                	mov    %eax,%eax
    f7e5:	48 8b 84 c5 30 f3 ff 	mov    -0xcd0(%rbp,%rax,8),%rax
    f7ec:	ff 
    f7ed:	48 8d 0d 6c 88 00 00 	lea    0x886c(%rip),%rcx        # 18060 <g_99>
    f7f4:	48 39 c8             	cmp    %rcx,%rax
    f7f7:	0f 95 c0             	setne  %al
    f7fa:	0f b6 c8             	movzbl %al,%ecx
    f7fd:	0f b7 05 6c 88 00 00 	movzwl 0x886c(%rip),%eax        # 18070 <g_141+0x8>
    f804:	31 c8                	xor    %ecx,%eax
    f806:	66 89 05 63 88 00 00 	mov    %ax,0x8863(%rip)        # 18070 <g_141+0x8>
    f80d:	0f b7 05 5c 88 00 00 	movzwl 0x885c(%rip),%eax        # 18070 <g_141+0x8>
    f814:	98                   	cwtl   
    f815:	89 d6                	mov    %edx,%esi
    f817:	89 c7                	mov    %eax,%edi
    f819:	e8 74 6c ff ff       	callq  6492 <safe_lshift_func_int16_t_s_s>
    f81e:	48 0f bf d0          	movswq %ax,%rdx
    f822:	48 8b 85 70 ef ff ff 	mov    -0x1090(%rbp),%rax
    f829:	48 39 c2             	cmp    %rax,%rdx
    f82c:	0f 9c c0             	setl   %al
    f82f:	0f b6 c0             	movzbl %al,%eax
    f832:	48 89 05 57 bc 00 00 	mov    %rax,0xbc57(%rip)        # 1b490 <g_288>
    f839:	48 8b 05 50 bc 00 00 	mov    0xbc50(%rip),%rax        # 1b490 <g_288>
    f840:	89 c2                	mov    %eax,%edx
    f842:	48 8b 85 d8 f1 ff ff 	mov    -0xe28(%rbp),%rax
    f849:	8b 00                	mov    (%rax),%eax
    f84b:	21 d0                	and    %edx,%eax
    f84d:	83 c8 06             	or     $0x6,%eax
    f850:	0f be c0             	movsbl %al,%eax
    f853:	89 de                	mov    %ebx,%esi
    f855:	89 c7                	mov    %eax,%edi
    f857:	e8 b6 69 ff ff       	callq  6212 <safe_mul_func_int8_t_s_s>
    f85c:	0f be c0             	movsbl %al,%eax
    f85f:	39 85 ac ef ff ff    	cmp    %eax,-0x1054(%rbp)
    f865:	0f 9e c0             	setle  %al
    f868:	0f b6 d0             	movzbl %al,%edx
    f86b:	0f b7 05 18 bc 00 00 	movzwl 0xbc18(%rip),%eax        # 1b48a <g_161>
    f872:	98                   	cwtl   
    f873:	89 d6                	mov    %edx,%esi
    f875:	89 c7                	mov    %eax,%edi
    f877:	e8 79 6b ff ff       	callq  63f5 <safe_mul_func_int16_t_s_s>
    f87c:	48 8b 95 38 f2 ff ff 	mov    -0xdc8(%rbp),%rdx
    f883:	66 89 02             	mov    %ax,(%rdx)
    f886:	48 8b 85 38 f2 ff ff 	mov    -0xdc8(%rbp),%rax
    f88d:	0f b7 00             	movzwl (%rax),%eax
    f890:	98                   	cwtl   
    f891:	89 05 fd 8e 00 00    	mov    %eax,0x8efd(%rip)        # 18794 <g_292>
    f897:	8b 05 f7 8e 00 00    	mov    0x8ef7(%rip),%eax        # 18794 <g_292>
    f89d:	41 39 c4             	cmp    %eax,%r12d
    f8a0:	0f 97 c0             	seta   %al
    f8a3:	0f b6 d0             	movzbl %al,%edx
    f8a6:	8b 05 c8 87 00 00    	mov    0x87c8(%rip),%eax        # 18074 <g_145>
    f8ac:	39 c2                	cmp    %eax,%edx
    f8ae:	0f 93 c0             	setae  %al
    f8b1:	0f b6 d0             	movzbl %al,%edx
    f8b4:	48 8b 85 d8 f1 ff ff 	mov    -0xe28(%rbp),%rax
    f8bb:	89 10                	mov    %edx,(%rax)
    f8bd:	0f b7 05 c6 bb 00 00 	movzwl 0xbbc6(%rip),%eax        # 1b48a <g_161>
    f8c4:	83 c0 01             	add    $0x1,%eax
    f8c7:	66 89 05 bc bb 00 00 	mov    %ax,0xbbbc(%rip)        # 1b48a <g_161>
    f8ce:	0f b7 05 b5 bb 00 00 	movzwl 0xbbb5(%rip),%eax        # 1b48a <g_161>
    f8d5:	66 83 f8 07          	cmp    $0x7,%ax
    f8d9:	0f 8e 08 fe ff ff    	jle    f6e7 <func_32+0x1d8f>
    f8df:	8b 05 8f 87 00 00    	mov    0x878f(%rip),%eax        # 18074 <g_145>
    f8e5:	8b 15 89 87 00 00    	mov    0x8789(%rip),%edx        # 18074 <g_145>
    f8eb:	89 c0                	mov    %eax,%eax
    f8ed:	48 8b 84 c5 30 f3 ff 	mov    -0xcd0(%rbp,%rax,8),%rax
    f8f4:	ff 
    f8f5:	89 d2                	mov    %edx,%edx
    f8f7:	48 89 84 d5 30 f3 ff 	mov    %rax,-0xcd0(%rbp,%rdx,8)
    f8fe:	ff 
    f8ff:	66 c7 85 92 ef ff ff 	movw   $0x0,-0x106e(%rbp)
    f906:	00 00 
    f908:	e9 6b 02 00 00       	jmpq   fb78 <func_32+0x2220>
    f90d:	48 8d 85 68 f0 ff ff 	lea    -0xf98(%rbp),%rax
    f914:	48 89 85 18 f2 ff ff 	mov    %rax,-0xde8(%rbp)
    f91b:	48 8d 85 b8 f0 ff ff 	lea    -0xf48(%rbp),%rax
    f922:	48 89 85 10 f5 ff ff 	mov    %rax,-0xaf0(%rbp)
    f929:	48 8d 85 b8 f0 ff ff 	lea    -0xf48(%rbp),%rax
    f930:	48 89 85 18 f5 ff ff 	mov    %rax,-0xae8(%rbp)
    f937:	48 8d 85 b8 f0 ff ff 	lea    -0xf48(%rbp),%rax
    f93e:	48 89 85 20 f5 ff ff 	mov    %rax,-0xae0(%rbp)
    f945:	48 8d 85 b8 f0 ff ff 	lea    -0xf48(%rbp),%rax
    f94c:	48 89 85 28 f5 ff ff 	mov    %rax,-0xad8(%rbp)
    f953:	8b 15 1b 87 00 00    	mov    0x871b(%rip),%edx        # 18074 <g_145>
    f959:	48 8d 85 30 f3 ff ff 	lea    -0xcd0(%rbp),%rax
    f960:	89 d2                	mov    %edx,%edx
    f962:	48 c1 e2 03          	shl    $0x3,%rdx
    f966:	48 8d 0c 10          	lea    (%rax,%rdx,1),%rcx
    f96a:	48 8b 85 18 f2 ff ff 	mov    -0xde8(%rbp),%rax
    f971:	48 8d 95 30 f3 ff ff 	lea    -0xcd0(%rbp),%rdx
    f978:	48 83 c2 08          	add    $0x8,%rdx
    f97c:	48 89 10             	mov    %rdx,(%rax)
    f97f:	48 8b 85 18 f2 ff ff 	mov    -0xde8(%rbp),%rax
    f986:	48 8b 00             	mov    (%rax),%rax
    f989:	48 39 c1             	cmp    %rax,%rcx
    f98c:	0f 95 c0             	setne  %al
    f98f:	0f b6 d8             	movzbl %al,%ebx
    f992:	48 8b 85 d8 f1 ff ff 	mov    -0xe28(%rbp),%rax
    f999:	8b 00                	mov    (%rax),%eax
    f99b:	85 c0                	test   %eax,%eax
    f99d:	74 13                	je     f9b2 <func_32+0x205a>
    f99f:	48 8b 85 70 ef ff ff 	mov    -0x1090(%rbp),%rax
    f9a6:	48 85 c0             	test   %rax,%rax
    f9a9:	74 07                	je     f9b2 <func_32+0x205a>
    f9ab:	b8 01 00 00 00       	mov    $0x1,%eax
    f9b0:	eb 05                	jmp    f9b7 <func_32+0x205f>
    f9b2:	b8 00 00 00 00       	mov    $0x0,%eax
    f9b7:	0f b6 d0             	movzbl %al,%edx
    f9ba:	0f b7 05 c9 ba 00 00 	movzwl 0xbac9(%rip),%eax        # 1b48a <g_161>
    f9c1:	0f b6 c0             	movzbl %al,%eax
    f9c4:	89 d6                	mov    %edx,%esi
    f9c6:	89 c7                	mov    %eax,%edi
    f9c8:	e8 c6 71 ff ff       	callq  6b93 <safe_mul_func_uint8_t_u_u>
    f9cd:	0f b6 d0             	movzbl %al,%edx
    f9d0:	48 8b 85 70 ef ff ff 	mov    -0x1090(%rbp),%rax
    f9d7:	48 21 d0             	and    %rdx,%rax
    f9da:	48 85 c0             	test   %rax,%rax
    f9dd:	48 8b 85 b8 f0 ff ff 	mov    -0xf48(%rbp),%rax
    f9e4:	48 89 85 78 f0 ff ff 	mov    %rax,-0xf88(%rbp)
    f9eb:	48 8b 95 78 f0 ff ff 	mov    -0xf88(%rbp),%rdx
    f9f2:	48 8b 85 98 f0 ff ff 	mov    -0xf68(%rbp),%rax
    f9f9:	48 39 c2             	cmp    %rax,%rdx
    f9fc:	0f 95 c0             	setne  %al
    f9ff:	0f b6 c0             	movzbl %al,%eax
    fa02:	be 9f c8 00 00       	mov    $0xc89f,%esi
    fa07:	89 c7                	mov    %eax,%edi
    fa09:	e8 2f 73 ff ff       	callq  6d3d <safe_mul_func_uint16_t_u_u>
    fa0e:	0f b7 c0             	movzwl %ax,%eax
    fa11:	48 89 c7             	mov    %rax,%rdi
    fa14:	e8 fd 6d ff ff       	callq  6816 <safe_unary_minus_func_int64_t_s>
    fa19:	98                   	cwtl   
    fa1a:	be 0f 00 00 00       	mov    $0xf,%esi
    fa1f:	89 c7                	mov    %eax,%edi
    fa21:	e8 bb 6a ff ff       	callq  64e1 <safe_lshift_func_int16_t_s_u>
    fa26:	0f bf d0             	movswl %ax,%edx
    fa29:	8b 05 31 86 00 00    	mov    0x8631(%rip),%eax        # 18060 <g_99>
    fa2f:	39 c2                	cmp    %eax,%edx
    fa31:	0f 95 c0             	setne  %al
    fa34:	0f b6 c0             	movzbl %al,%eax
    fa37:	89 c6                	mov    %eax,%esi
    fa39:	bf 01 00 00 00       	mov    $0x1,%edi
    fa3e:	e8 fa 72 ff ff       	callq  6d3d <safe_mul_func_uint16_t_u_u>
    fa43:	0f b7 c0             	movzwl %ax,%eax
    fa46:	48 89 c7             	mov    %rax,%rdi
    fa49:	e8 cb 75 ff ff       	callq  7019 <safe_unary_minus_func_uint64_t_u>
    fa4e:	48 39 c3             	cmp    %rax,%rbx
    fa51:	0f 96 c0             	setbe  %al
    fa54:	0f b6 c0             	movzbl %al,%eax
    fa57:	89 c2                	mov    %eax,%edx
    fa59:	8b 05 39 8d 00 00    	mov    0x8d39(%rip),%eax        # 18798 <g_318>
    fa5f:	21 d0                	and    %edx,%eax
    fa61:	89 05 31 8d 00 00    	mov    %eax,0x8d31(%rip)        # 18798 <g_318>
    fa67:	8b 1d 1f 8d 00 00    	mov    0x8d1f(%rip),%ebx        # 1878c <g_286>
    fa6d:	0f b7 05 fc 85 00 00 	movzwl 0x85fc(%rip),%eax        # 18070 <g_141+0x8>
    fa74:	44 0f bf e0          	movswl %ax,%r12d
    fa78:	48 8b 05 11 ba 00 00 	mov    0xba11(%rip),%rax        # 1b490 <g_288>
    fa7f:	66 89 05 02 8d 00 00 	mov    %ax,0x8d02(%rip)        # 18788 <g_218>
    fa86:	0f b7 85 32 f4 ff ff 	movzwl -0xbce(%rbp),%eax
    fa8d:	66 85 c0             	test   %ax,%ax
    fa90:	75 4d                	jne    fadf <func_32+0x2187>
    fa92:	48 c7 05 53 a6 00 00 	movq   $0x0,0xa653(%rip)        # 1a0f0 <g_332>
    fa99:	00 00 00 00 
    fa9d:	48 8b 15 4c a6 00 00 	mov    0xa64c(%rip),%rdx        # 1a0f0 <g_332>
    faa4:	48 8b 85 a0 f0 ff ff 	mov    -0xf60(%rbp),%rax
    faab:	48 39 c2             	cmp    %rax,%rdx
    faae:	74 07                	je     fab7 <func_32+0x215f>
    fab0:	83 bd 1c f0 ff ff 00 	cmpl   $0x0,-0xfe4(%rbp)
    fab7:	be ff ff 00 00       	mov    $0xffff,%esi
    fabc:	bf ff ff 00 00       	mov    $0xffff,%edi
    fac1:	e8 77 72 ff ff       	callq  6d3d <safe_mul_func_uint16_t_u_u>
    fac6:	0f b7 c0             	movzwl %ax,%eax
    fac9:	be 06 00 00 00       	mov    $0x6,%esi
    face:	89 c7                	mov    %eax,%edi
    fad0:	e8 73 73 ff ff       	callq  6e48 <safe_rshift_func_uint16_t_u_s>
    fad5:	8b 05 dd 87 00 00    	mov    0x87dd(%rip),%eax        # 182b8 <g_176+0x238>
    fadb:	85 c0                	test   %eax,%eax
    fadd:	74 07                	je     fae6 <func_32+0x218e>
    fadf:	b9 01 00 00 00       	mov    $0x1,%ecx
    fae4:	eb 05                	jmp    faeb <func_32+0x2193>
    fae6:	b9 00 00 00 00       	mov    $0x0,%ecx
    faeb:	48 8b 85 28 f1 ff ff 	mov    -0xed8(%rbp),%rax
    faf2:	8b 10                	mov    (%rax),%edx
    faf4:	48 8b 85 28 f1 ff ff 	mov    -0xed8(%rbp),%rax
    fafb:	89 10                	mov    %edx,(%rax)
    fafd:	48 8b 85 28 f1 ff ff 	mov    -0xed8(%rbp),%rax
    fb04:	8b 00                	mov    (%rax),%eax
    fb06:	89 ce                	mov    %ecx,%esi
    fb08:	89 c7                	mov    %eax,%edi
    fb0a:	e8 f0 6b ff ff       	callq  66ff <safe_div_func_int32_t_s_s>
    fb0f:	48 8b 85 70 ef ff ff 	mov    -0x1090(%rbp),%rax
    fb16:	48 89 c2             	mov    %rax,%rdx
    fb19:	48 8b 85 e8 f1 ff ff 	mov    -0xe18(%rbp),%rax
    fb20:	48 89 c6             	mov    %rax,%rsi
    fb23:	48 89 d7             	mov    %rdx,%rdi
    fb26:	e8 84 75 ff ff       	callq  70af <safe_div_func_uint64_t_u_u>
    fb2b:	0f b7 c0             	movzwl %ax,%eax
    fb2e:	44 89 e6             	mov    %r12d,%esi
    fb31:	89 c7                	mov    %eax,%edi
    fb33:	e8 ce 72 ff ff       	callq  6e06 <safe_lshift_func_uint16_t_u_u>
    fb38:	66 3d 9e 00          	cmp    $0x9e,%ax
    fb3c:	0f 95 c0             	setne  %al
    fb3f:	0f b6 c0             	movzbl %al,%eax
    fb42:	be 01 00 00 00       	mov    $0x1,%esi
    fb47:	48 89 c7             	mov    %rax,%rdi
    fb4a:	e8 59 6d ff ff       	callq  68a8 <safe_sub_func_int64_t_s_s>
    fb4f:	34 c5                	xor    $0xc5,%al
    fb51:	98                   	cwtl   
    fb52:	89 de                	mov    %ebx,%esi
    fb54:	89 c7                	mov    %eax,%edi
    fb56:	e8 86 69 ff ff       	callq  64e1 <safe_lshift_func_int16_t_s_u>
    fb5b:	0f bf d0             	movswl %ax,%edx
    fb5e:	48 8b 85 d8 f1 ff ff 	mov    -0xe28(%rbp),%rax
    fb65:	89 10                	mov    %edx,(%rax)
    fb67:	0f b7 85 92 ef ff ff 	movzwl -0x106e(%rbp),%eax
    fb6e:	83 c0 01             	add    $0x1,%eax
    fb71:	66 89 85 92 ef ff ff 	mov    %ax,-0x106e(%rbp)
    fb78:	0f b7 85 92 ef ff ff 	movzwl -0x106e(%rbp),%eax
    fb7f:	66 83 f8 04          	cmp    $0x4,%ax
    fb83:	0f 86 84 fd ff ff    	jbe    f90d <func_32+0x1fb5>
    fb89:	8b 05 e5 84 00 00    	mov    0x84e5(%rip),%eax        # 18074 <g_145>
    fb8f:	83 c0 01             	add    $0x1,%eax
    fb92:	89 05 dc 84 00 00    	mov    %eax,0x84dc(%rip)        # 18074 <g_145>
    fb98:	8b 05 d6 84 00 00    	mov    0x84d6(%rip),%eax        # 18074 <g_145>
    fb9e:	83 f8 03             	cmp    $0x3,%eax
    fba1:	0f 86 fb fa ff ff    	jbe    f6a2 <func_32+0x1d4a>
    fba7:	48 8b 05 f2 8b 00 00 	mov    0x8bf2(%rip),%rax        # 187a0 <g_346>
    fbae:	48 83 c0 01          	add    $0x1,%rax
    fbb2:	48 89 05 e7 8b 00 00 	mov    %rax,0x8be7(%rip)        # 187a0 <g_346>
    fbb9:	48 8b 9d 70 ef ff ff 	mov    -0x1090(%rbp),%rbx
    fbc0:	48 8b 85 70 ef ff ff 	mov    -0x1090(%rbp),%rax
    fbc7:	41 89 c5             	mov    %eax,%r13d
    fbca:	48 8b 15 87 a5 00 00 	mov    0xa587(%rip),%rdx        # 1a158 <g_358+0x38>
    fbd1:	48 8b 85 f0 f1 ff ff 	mov    -0xe10(%rbp),%rax
    fbd8:	48 89 10             	mov    %rdx,(%rax)
    fbdb:	48 8d 05 1e a5 00 00 	lea    0xa51e(%rip),%rax        # 1a100 <g_359>
    fbe2:	48 89 05 27 a6 00 00 	mov    %rax,0xa627(%rip)        # 1a210 <g_364>
    fbe9:	48 8b 95 70 ef ff ff 	mov    -0x1090(%rbp),%rdx
    fbf0:	48 8b 85 98 f0 ff ff 	mov    -0xf68(%rbp),%rax
    fbf7:	66 89 10             	mov    %dx,(%rax)
    fbfa:	0f b7 00             	movzwl (%rax),%eax
    fbfd:	44 0f b7 e0          	movzwl %ax,%r12d
    fc01:	be fd ff ff ff       	mov    $0xfffffffd,%esi
    fc06:	bf f6 ff ff ff       	mov    $0xfffffff6,%edi
    fc0b:	e8 c4 65 ff ff       	callq  61d4 <safe_add_func_int8_t_s_s>
    fc10:	48 0f be d0          	movsbq %al,%rdx
    fc14:	48 8b 85 70 ef ff ff 	mov    -0x1090(%rbp),%rax
    fc1b:	48 31 c2             	xor    %rax,%rdx
    fc1e:	48 8b 85 d0 f0 ff ff 	mov    -0xf30(%rbp),%rax
    fc25:	48 8b 00             	mov    (%rax),%rax
    fc28:	48 8b 00             	mov    (%rax),%rax
    fc2b:	8b 00                	mov    (%rax),%eax
    fc2d:	48 98                	cltq   
    fc2f:	48 39 c2             	cmp    %rax,%rdx
    fc32:	8b 05 80 86 00 00    	mov    0x8680(%rip),%eax        # 182b8 <g_176+0x238>
    fc38:	98                   	cwtl   
    fc39:	be 09 00 00 00       	mov    $0x9,%esi
    fc3e:	89 c7                	mov    %eax,%edi
    fc40:	e8 b0 67 ff ff       	callq  63f5 <safe_mul_func_int16_t_s_s>
    fc45:	98                   	cwtl   
    fc46:	41 39 c4             	cmp    %eax,%r12d
    fc49:	0f 9e c0             	setle  %al
    fc4c:	0f b6 c0             	movzbl %al,%eax
    fc4f:	44 89 ee             	mov    %r13d,%esi
    fc52:	89 c7                	mov    %eax,%edi
    fc54:	e8 95 66 ff ff       	callq  62ee <safe_lshift_func_int8_t_s_u>
    fc59:	3c 06                	cmp    $0x6,%al
    fc5b:	0f 9f c0             	setg   %al
    fc5e:	0f b6 c0             	movzbl %al,%eax
    fc61:	48 89 de             	mov    %rbx,%rsi
    fc64:	48 89 c7             	mov    %rax,%rdi
    fc67:	e8 d5 6b ff ff       	callq  6841 <safe_add_func_int64_t_s_s>
    fc6c:	48 8b 95 70 ef ff ff 	mov    -0x1090(%rbp),%rdx
    fc73:	48 39 d0             	cmp    %rdx,%rax
    fc76:	0f 95 c0             	setne  %al
    fc79:	0f b6 d0             	movzbl %al,%edx
    fc7c:	48 8b 85 70 ef ff ff 	mov    -0x1090(%rbp),%rax
    fc83:	48 09 d0             	or     %rdx,%rax
    fc86:	8b 15 e8 83 00 00    	mov    0x83e8(%rip),%edx        # 18074 <g_145>
    fc8c:	89 d2                	mov    %edx,%edx
    fc8e:	48 39 d0             	cmp    %rdx,%rax
    fc91:	7d 0a                	jge    fc9d <func_32+0x2345>
    fc93:	48 8b 85 70 ef ff ff 	mov    -0x1090(%rbp),%rax
    fc9a:	48 85 c0             	test   %rax,%rax
    fc9d:	48 8b 85 78 ef ff ff 	mov    -0x1088(%rbp),%rax
    fca4:	0f b6 00             	movzbl (%rax),%eax
    fca7:	0f be d8             	movsbl %al,%ebx
    fcaa:	be 09 00 00 00       	mov    $0x9,%esi
    fcaf:	bf 00 00 00 00       	mov    $0x0,%edi
    fcb4:	e8 8f 71 ff ff       	callq  6e48 <safe_rshift_func_uint16_t_u_s>
    fcb9:	66 85 c0             	test   %ax,%ax
    fcbc:	0f 95 c0             	setne  %al
    fcbf:	0f b6 c0             	movzbl %al,%eax
    fcc2:	89 de                	mov    %ebx,%esi
    fcc4:	89 c7                	mov    %eax,%edi
    fcc6:	e8 d6 65 ff ff       	callq  62a1 <safe_lshift_func_int8_t_s_s>
    fccb:	84 c0                	test   %al,%al
    fccd:	74 22                	je     fcf1 <func_32+0x2399>
    fccf:	48 8b 85 c8 f0 ff ff 	mov    -0xf38(%rbp),%rax
    fcd6:	8b 10                	mov    (%rax),%edx
    fcd8:	48 8b 85 70 ef ff ff 	mov    -0x1090(%rbp),%rax
    fcdf:	89 c1                	mov    %eax,%ecx
    fce1:	48 8b 85 c8 f0 ff ff 	mov    -0xf38(%rbp),%rax
    fce8:	31 ca                	xor    %ecx,%edx
    fcea:	89 10                	mov    %edx,(%rax)
    fcec:	e9 56 06 00 00       	jmpq   10347 <func_32+0x29ef>
    fcf1:	48 8d 85 92 ef ff ff 	lea    -0x106e(%rbp),%rax
    fcf8:	48 89 85 f8 f1 ff ff 	mov    %rax,-0xe08(%rbp)
    fcff:	c7 85 28 f0 ff ff 97 	movl   $0xfdb93b97,-0xfd8(%rbp)
    fd06:	3b b9 fd 
    fd09:	66 c7 85 10 f5 ff ff 	movw   $0x9201,-0xaf0(%rbp)
    fd10:	01 92 
    fd12:	66 c7 85 12 f5 ff ff 	movw   $0xf8,-0xaee(%rbp)
    fd19:	f8 00 
    fd1b:	66 c7 85 14 f5 ff ff 	movw   $0x4801,-0xaec(%rbp)
    fd22:	01 48 
    fd24:	66 c7 85 16 f5 ff ff 	movw   $0xffff,-0xaea(%rbp)
    fd2b:	ff ff 
    fd2d:	66 c7 85 18 f5 ff ff 	movw   $0xaa42,-0xae8(%rbp)
    fd34:	42 aa 
    fd36:	66 c7 85 1a f5 ff ff 	movw   $0xfb01,-0xae6(%rbp)
    fd3d:	01 fb 
    fd3f:	66 c7 85 1c f5 ff ff 	movw   $0x101,-0xae4(%rbp)
    fd46:	01 01 
    fd48:	66 c7 85 1e f5 ff ff 	movw   $0xf6f7,-0xae2(%rbp)
    fd4f:	f7 f6 
    fd51:	66 c7 85 20 f5 ff ff 	movw   $0x1d03,-0xae0(%rbp)
    fd58:	03 1d 
    fd5a:	66 c7 85 22 f5 ff ff 	movw   $0x1de,-0xade(%rbp)
    fd61:	de 01 
    fd63:	66 c7 85 24 f5 ff ff 	movw   $0xaa,-0xadc(%rbp)
    fd6a:	aa 00 
    fd6c:	66 c7 85 26 f5 ff ff 	movw   $0x428a,-0xada(%rbp)
    fd73:	8a 42 
    fd75:	66 c7 85 28 f5 ff ff 	movw   $0xfc01,-0xad8(%rbp)
    fd7c:	01 fc 
    fd7e:	66 c7 85 2a f5 ff ff 	movw   $0xffff,-0xad6(%rbp)
    fd85:	ff ff 
    fd87:	66 c7 85 2c f5 ff ff 	movw   $0xa3ff,-0xad4(%rbp)
    fd8e:	ff a3 
    fd90:	66 c7 85 2e f5 ff ff 	movw   $0x6482,-0xad2(%rbp)
    fd97:	82 64 
    fd99:	66 c7 85 30 f5 ff ff 	movw   $0x5103,-0xad0(%rbp)
    fda0:	03 51 
    fda2:	66 c7 85 32 f5 ff ff 	movw   $0x9f02,-0xace(%rbp)
    fda9:	02 9f 
    fdab:	66 c7 85 34 f5 ff ff 	movw   $0x4f04,-0xacc(%rbp)
    fdb2:	04 4f 
    fdb4:	66 c7 85 36 f5 ff ff 	movw   $0x82fd,-0xaca(%rbp)
    fdbb:	fd 82 
    fdbd:	66 c7 85 38 f5 ff ff 	movw   $0x42,-0xac8(%rbp)
    fdc4:	42 00 
    fdc6:	66 c7 85 3a f5 ff ff 	movw   $0x7507,-0xac6(%rbp)
    fdcd:	07 75 
    fdcf:	66 c7 85 3c f5 ff ff 	movw   $0xf681,-0xac4(%rbp)
    fdd6:	81 f6 
    fdd8:	66 c7 85 3e f5 ff ff 	movw   $0xde01,-0xac2(%rbp)
    fddf:	01 de 
    fde1:	66 c7 85 40 f5 ff ff 	movw   $0xf636,-0xac0(%rbp)
    fde8:	36 f6 
    fdea:	66 c7 85 42 f5 ff ff 	movw   $0x1f6,-0xabe(%rbp)
    fdf1:	f6 01 
    fdf3:	66 c7 85 44 f5 ff ff 	movw   $0x301,-0xabc(%rbp)
    fdfa:	01 03 
    fdfc:	66 c7 85 46 f5 ff ff 	movw   $0xfd1e,-0xaba(%rbp)
    fe03:	1e fd 
    fe05:	66 c7 85 48 f5 ff ff 	movw   $0x928a,-0xab8(%rbp)
    fe0c:	8a 92 
    fe0e:	66 c7 85 4a f5 ff ff 	movw   $0x1c1d,-0xab6(%rbp)
    fe15:	1d 1c 
    fe17:	66 c7 85 4c f5 ff ff 	movw   $0x1c01,-0xab4(%rbp)
    fe1e:	01 1c 
    fe20:	66 c7 85 4e f5 ff ff 	movw   $0x921d,-0xab2(%rbp)
    fe27:	1d 92 
    fe29:	66 c7 85 50 f5 ff ff 	movw   $0xfd8a,-0xab0(%rbp)
    fe30:	8a fd 
    fe32:	66 c7 85 52 f5 ff ff 	movw   $0x31e,-0xaae(%rbp)
    fe39:	1e 03 
    fe3b:	66 c7 85 54 f5 ff ff 	movw   $0x101,-0xaac(%rbp)
    fe42:	01 01 
    fe44:	66 c7 85 56 f5 ff ff 	movw   $0xf6f6,-0xaaa(%rbp)
    fe4b:	f6 f6 
    fe4d:	66 c7 85 58 f5 ff ff 	movw   $0xde36,-0xaa8(%rbp)
    fe54:	36 de 
    fe56:	66 c7 85 5a f5 ff ff 	movw   $0xf601,-0xaa6(%rbp)
    fe5d:	01 f6 
    fe5f:	66 c7 85 5c f5 ff ff 	movw   $0x7581,-0xaa4(%rbp)
    fe66:	81 75 
    fe68:	66 c7 85 5e f5 ff ff 	movw   $0x7,-0xaa2(%rbp)
    fe6f:	07 00 
    fe71:	66 c7 85 60 f5 ff ff 	movw   $0x8242,-0xaa0(%rbp)
    fe78:	42 82 
    fe7a:	66 c7 85 62 f5 ff ff 	movw   $0x4ffd,-0xa9e(%rbp)
    fe81:	fd 4f 
    fe83:	66 c7 85 64 f5 ff ff 	movw   $0x9f04,-0xa9c(%rbp)
    fe8a:	04 9f 
    fe8c:	66 c7 85 66 f5 ff ff 	movw   $0x5102,-0xa9a(%rbp)
    fe93:	02 51 
    fe95:	66 c7 85 68 f5 ff ff 	movw   $0x6403,-0xa98(%rbp)
    fe9c:	03 64 
    fe9e:	66 c7 85 6a f5 ff ff 	movw   $0xa382,-0xa96(%rbp)
    fea5:	82 a3 
    fea7:	66 c7 85 6c f5 ff ff 	movw   $0xffff,-0xa94(%rbp)
    feae:	ff ff 
    feb0:	66 c7 85 6e f5 ff ff 	movw   $0xfcff,-0xa92(%rbp)
    feb7:	ff fc 
    feb9:	66 c7 85 70 f5 ff ff 	movw   $0x1,-0xa90(%rbp)
    fec0:	01 00 
    fec2:	66 c7 85 72 f5 ff ff 	movw   $0xf1ff,-0xa8e(%rbp)
    fec9:	ff f1 
    fecb:	66 c7 85 74 f5 ff ff 	movw   $0xfd00,-0xa8c(%rbp)
    fed2:	00 fd 
    fed4:	66 c7 85 76 f5 ff ff 	movw   $0xfb48,-0xa8a(%rbp)
    fedb:	48 fb 
    fedd:	66 c7 85 78 f5 ff ff 	movw   $0xfff8,-0xa88(%rbp)
    fee4:	f8 ff 
    fee6:	66 c7 85 7a f5 ff ff 	movw   $0x6601,-0xa86(%rbp)
    feed:	01 66 
    feef:	66 c7 85 7c f5 ff ff 	movw   $0x0,-0xa84(%rbp)
    fef6:	00 00 
    fef8:	66 c7 85 7e f5 ff ff 	movw   $0x75,-0xa82(%rbp)
    feff:	75 00 
    ff01:	66 c7 85 80 f5 ff ff 	movw   $0x500,-0xa80(%rbp)
    ff08:	00 05 
    ff0a:	66 c7 85 82 f5 ff ff 	movw   $0x29f6,-0xa7e(%rbp)
    ff11:	f6 29 
    ff13:	66 c7 85 84 f5 ff ff 	movw   $0x103,-0xa7c(%rbp)
    ff1a:	03 01 
    ff1c:	66 c7 85 86 f5 ff ff 	movw   $0x3600,-0xa7a(%rbp)
    ff23:	00 36 
    ff25:	66 c7 85 88 f5 ff ff 	movw   $0x2fd,-0xa78(%rbp)
    ff2c:	fd 02 
    ff2e:	66 c7 85 8a f5 ff ff 	movw   $0xfdfd,-0xa76(%rbp)
    ff35:	fd fd 
    ff37:	66 c7 85 8c f5 ff ff 	movw   $0x48fe,-0xa74(%rbp)
    ff3e:	fe 48 
    ff40:	66 c7 85 8e f5 ff ff 	movw   $0xff98,-0xa72(%rbp)
    ff47:	98 ff 
    ff49:	66 c7 85 90 f5 ff ff 	movw   $0x810c,-0xa70(%rbp)
    ff50:	0c 81 
    ff52:	66 c7 85 92 f5 ff ff 	movw   $0xcf1,-0xa6e(%rbp)
    ff59:	f1 0c 
    ff5b:	66 c7 85 94 f5 ff ff 	movw   $0x301,-0xa6c(%rbp)
    ff62:	01 03 
    ff64:	66 c7 85 96 f5 ff ff 	movw   $0xc01,-0xa6a(%rbp)
    ff6b:	01 0c 
    ff6d:	66 c7 85 98 f5 ff ff 	movw   $0x81f1,-0xa68(%rbp)
    ff74:	f1 81 
    ff76:	66 c7 85 9a f5 ff ff 	movw   $0xff0c,-0xa66(%rbp)
    ff7d:	0c ff 
    ff7f:	66 c7 85 9c f5 ff ff 	movw   $0x4898,-0xa64(%rbp)
    ff86:	98 48 
    ff88:	66 c7 85 9e f5 ff ff 	movw   $0xfdfe,-0xa62(%rbp)
    ff8f:	fe fd 
    ff91:	66 c7 85 a0 f5 ff ff 	movw   $0x2fd,-0xa60(%rbp)
    ff98:	fd 02 
    ff9a:	66 c7 85 a2 f5 ff ff 	movw   $0x36fd,-0xa5e(%rbp)
    ffa1:	fd 36 
    ffa3:	66 c7 85 a4 f5 ff ff 	movw   $0x100,-0xa5c(%rbp)
    ffaa:	00 01 
    ffac:	66 c7 85 a6 f5 ff ff 	movw   $0x2903,-0xa5a(%rbp)
    ffb3:	03 29 
    ffb5:	66 c7 85 a8 f5 ff ff 	movw   $0x5f6,-0xa58(%rbp)
    ffbc:	f6 05 
    ffbe:	66 c7 85 aa f5 ff ff 	movw   $0x0,-0xa56(%rbp)
    ffc5:	00 00 
    ffc7:	66 c7 85 ac f5 ff ff 	movw   $0x75,-0xa54(%rbp)
    ffce:	75 00 
    ffd0:	66 c7 85 ae f5 ff ff 	movw   $0x6600,-0xa52(%rbp)
    ffd7:	00 66 
    ffd9:	66 c7 85 b0 f5 ff ff 	movw   $0xff01,-0xa50(%rbp)
    ffe0:	01 ff 
    ffe2:	66 c7 85 b2 f5 ff ff 	movw   $0xfbf8,-0xa4e(%rbp)
    ffe9:	f8 fb 
    ffeb:	66 c7 85 b4 f5 ff ff 	movw   $0xfd48,-0xa4c(%rbp)
    fff2:	48 fd 
    fff4:	66 c7 85 b6 f5 ff ff 	movw   $0xf100,-0xa4a(%rbp)
    fffb:	00 f1 
    fffd:	66 c7 85 b8 f5 ff ff 	movw   $0xff,-0xa48(%rbp)
   10004:	ff 00 
   10006:	66 c7 85 ba f5 ff ff 	movw   $0xfc01,-0xa46(%rbp)
   1000d:	01 fc 
   1000f:	66 c7 85 bc f5 ff ff 	movw   $0xffff,-0xa44(%rbp)
   10016:	ff ff 
   10018:	66 c7 85 be f5 ff ff 	movw   $0xa3ff,-0xa42(%rbp)
   1001f:	ff a3 
   10021:	66 c7 85 c0 f5 ff ff 	movw   $0x6482,-0xa40(%rbp)
   10028:	82 64 
   1002a:	66 c7 85 c2 f5 ff ff 	movw   $0x5103,-0xa3e(%rbp)
   10031:	03 51 
   10033:	c7 85 b0 ef ff ff 00 	movl   $0x0,-0x1050(%rbp)
   1003a:	00 00 00 
   1003d:	eb 42                	jmp    10081 <func_32+0x2729>
   1003f:	c7 85 b4 ef ff ff 00 	movl   $0x0,-0x104c(%rbp)
   10046:	00 00 00 
   10049:	eb 26                	jmp    10071 <func_32+0x2719>
   1004b:	8b 85 b4 ef ff ff    	mov    -0x104c(%rbp),%eax
   10051:	48 63 d0             	movslq %eax,%rdx
   10054:	8b 85 b0 ef ff ff    	mov    -0x1050(%rbp),%eax
   1005a:	48 98                	cltq   
   1005c:	48 01 d0             	add    %rdx,%rax
   1005f:	c7 84 85 c8 f2 ff ff 	movl   $0x85b4344e,-0xd38(%rbp,%rax,4)
   10066:	4e 34 b4 85 
   1006a:	83 85 b4 ef ff ff 01 	addl   $0x1,-0x104c(%rbp)
   10071:	83 bd b4 ef ff ff 00 	cmpl   $0x0,-0x104c(%rbp)
   10078:	7e d1                	jle    1004b <func_32+0x26f3>
   1007a:	83 85 b0 ef ff ff 01 	addl   $0x1,-0x1050(%rbp)
   10081:	83 bd b0 ef ff ff 02 	cmpl   $0x2,-0x1050(%rbp)
   10088:	7e b5                	jle    1003f <func_32+0x26e7>
   1008a:	c7 85 b0 ef ff ff 00 	movl   $0x0,-0x1050(%rbp)
   10091:	00 00 00 
   10094:	eb 42                	jmp    100d8 <func_32+0x2780>
   10096:	c7 85 b4 ef ff ff 00 	movl   $0x0,-0x104c(%rbp)
   1009d:	00 00 00 
   100a0:	eb 26                	jmp    100c8 <func_32+0x2770>
   100a2:	8b 85 b4 ef ff ff    	mov    -0x104c(%rbp),%eax
   100a8:	48 63 d0             	movslq %eax,%rdx
   100ab:	8b 85 b0 ef ff ff    	mov    -0x1050(%rbp),%eax
   100b1:	48 98                	cltq   
   100b3:	48 01 d0             	add    %rdx,%rax
   100b6:	c7 84 85 d4 f2 ff ff 	movl   $0x6,-0xd2c(%rbp,%rax,4)
   100bd:	06 00 00 00 
   100c1:	83 85 b4 ef ff ff 01 	addl   $0x1,-0x104c(%rbp)
   100c8:	83 bd b4 ef ff ff 00 	cmpl   $0x0,-0x104c(%rbp)
   100cf:	7e d1                	jle    100a2 <func_32+0x274a>
   100d1:	83 85 b0 ef ff ff 01 	addl   $0x1,-0x1050(%rbp)
   100d8:	83 bd b0 ef ff ff 02 	cmpl   $0x2,-0x1050(%rbp)
   100df:	7e b5                	jle    10096 <func_32+0x273e>
   100e1:	c7 85 ac ef ff ff 03 	movl   $0x3,-0x1054(%rbp)
   100e8:	00 00 00 
   100eb:	e9 29 02 00 00       	jmpq   10319 <func_32+0x29c1>
   100f0:	48 8d 05 b9 86 00 00 	lea    0x86b9(%rip),%rax        # 187b0 <g_396>
   100f7:	48 89 85 00 f2 ff ff 	mov    %rax,-0xe00(%rbp)
   100fe:	48 8d 85 58 f0 ff ff 	lea    -0xfa8(%rbp),%rax
   10105:	48 89 85 08 f2 ff ff 	mov    %rax,-0xdf8(%rbp)
   1010c:	48 8b 85 28 f1 ff ff 	mov    -0xed8(%rbp),%rax
   10113:	c7 00 00 00 00 00    	movl   $0x0,(%rax)
   10119:	48 8b 05 e0 9f 00 00 	mov    0x9fe0(%rip),%rax        # 1a100 <g_359>
   10120:	48 8b 00             	mov    (%rax),%rax
   10123:	8b 10                	mov    (%rax),%edx
   10125:	48 8b 85 70 ef ff ff 	mov    -0x1090(%rbp),%rax
   1012c:	89 c1                	mov    %eax,%ecx
   1012e:	48 8b 05 cb 9f 00 00 	mov    0x9fcb(%rip),%rax        # 1a100 <g_359>
   10135:	48 8b 00             	mov    (%rax),%rax
   10138:	21 ca                	and    %ecx,%edx
   1013a:	89 10                	mov    %edx,(%rax)
   1013c:	48 8b 05 b5 a1 00 00 	mov    0xa1b5(%rip),%rax        # 1a2f8 <g_374>
   10143:	48 8b 85 c8 f0 ff ff 	mov    -0xf38(%rbp),%rax
   1014a:	8b 00                	mov    (%rax),%eax
   1014c:	85 c0                	test   %eax,%eax
   1014e:	0f 95 c0             	setne  %al
   10151:	0f b6 c0             	movzbl %al,%eax
   10154:	89 c6                	mov    %eax,%esi
   10156:	bf 01 00 00 00       	mov    $0x1,%edi
   1015b:	e8 18 6a ff ff       	callq  6b78 <safe_sub_func_uint8_t_u_u>
   10160:	0f b6 c0             	movzbl %al,%eax
   10163:	be 0c 00 00 00       	mov    $0xc,%esi
   10168:	89 c7                	mov    %eax,%edi
   1016a:	e8 bb 63 ff ff       	callq  652a <safe_rshift_func_int16_t_s_s>
   1016f:	89 c2                	mov    %eax,%edx
   10171:	48 8b 05 80 9f 00 00 	mov    0x9f80(%rip),%rax        # 1a0f8 <g_360>
   10178:	0f bf d2             	movswl %dx,%edx
   1017b:	89 10                	mov    %edx,(%rax)
   1017d:	48 8b 05 7c 9f 00 00 	mov    0x9f7c(%rip),%rax        # 1a100 <g_359>
   10184:	48 8b 00             	mov    (%rax),%rax
   10187:	44 8b 28             	mov    (%rax),%r13d
   1018a:	4c 8b a5 20 f3 ff ff 	mov    -0xce0(%rbp),%r12
   10191:	48 8b 85 70 ef ff ff 	mov    -0x1090(%rbp),%rax
   10198:	0f bf d8             	movswl %ax,%ebx
   1019b:	48 8b 85 70 ef ff ff 	mov    -0x1090(%rbp),%rax
   101a2:	89 85 6c ef ff ff    	mov    %eax,-0x1094(%rbp)
   101a8:	0f b7 05 d9 85 00 00 	movzwl 0x85d9(%rip),%eax        # 18788 <g_218>
   101af:	44 0f b7 f0          	movzwl %ax,%r14d
   101b3:	48 8b 85 a0 f0 ff ff 	mov    -0xf60(%rbp),%rax
   101ba:	0f b6 10             	movzbl (%rax),%edx
   101bd:	83 c2 01             	add    $0x1,%edx
   101c0:	88 10                	mov    %dl,(%rax)
   101c2:	0f b6 00             	movzbl (%rax),%eax
   101c5:	0f b6 d0             	movzbl %al,%edx
   101c8:	48 8b 85 68 f0 ff ff 	mov    -0xf98(%rbp),%rax
   101cf:	48 8b 00             	mov    (%rax),%rax
   101d2:	8b 00                	mov    (%rax),%eax
   101d4:	09 d0                	or     %edx,%eax
   101d6:	85 c0                	test   %eax,%eax
   101d8:	75 69                	jne    10243 <func_32+0x28eb>
   101da:	48 8b 85 e0 f1 ff ff 	mov    -0xe20(%rbp),%rax
   101e1:	48 8b 00             	mov    (%rax),%rax
   101e4:	48 85 c0             	test   %rax,%rax
   101e7:	0f 95 c0             	setne  %al
   101ea:	44 0f b6 f8          	movzbl %al,%r15d
   101ee:	be 08 00 00 00       	mov    $0x8,%esi
   101f3:	bf 01 00 00 00       	mov    $0x1,%edi
   101f8:	e8 4b 6c ff ff       	callq  6e48 <safe_rshift_func_uint16_t_u_s>
   101fd:	0f b7 d0             	movzwl %ax,%edx
   10200:	48 8b 05 e1 9e 00 00 	mov    0x9ee1(%rip),%rax        # 1a0e8 <g_238>
   10207:	0f b6 00             	movzbl (%rax),%eax
   1020a:	0f be c0             	movsbl %al,%eax
   1020d:	39 c2                	cmp    %eax,%edx
   1020f:	0f 9f c0             	setg   %al
   10212:	0f b6 c0             	movzbl %al,%eax
   10215:	48 be d7 92 e1 17 6a 	movabs $0x66dd006a17e192d7,%rsi
   1021c:	00 dd 66 
   1021f:	48 89 c7             	mov    %rax,%rdi
   10222:	e8 81 66 ff ff       	callq  68a8 <safe_sub_func_int64_t_s_s>
   10227:	49 39 c7             	cmp    %rax,%r15
   1022a:	48 8b 85 70 ef ff ff 	mov    -0x1090(%rbp),%rax
   10231:	48 3d d7 73 62 3f    	cmp    $0x3f6273d7,%rax
   10237:	7e 0a                	jle    10243 <func_32+0x28eb>
   10239:	8b 05 79 80 00 00    	mov    0x8079(%rip),%eax        # 182b8 <g_176+0x238>
   1023f:	85 c0                	test   %eax,%eax
   10241:	74 07                	je     1024a <func_32+0x28f2>
   10243:	b8 01 00 00 00       	mov    $0x1,%eax
   10248:	eb 05                	jmp    1024f <func_32+0x28f7>
   1024a:	b8 00 00 00 00       	mov    $0x0,%eax
   1024f:	0f b7 c0             	movzwl %ax,%eax
   10252:	be 0f 00 00 00       	mov    $0xf,%esi
   10257:	89 c7                	mov    %eax,%edi
   10259:	e8 60 6b ff ff       	callq  6dbe <safe_lshift_func_uint16_t_u_s>
   1025e:	0f b7 c0             	movzwl %ax,%eax
   10261:	89 05 41 85 00 00    	mov    %eax,0x8541(%rip)        # 187a8 <g_394>
   10267:	8b 05 3b 85 00 00    	mov    0x853b(%rip),%eax        # 187a8 <g_394>
   1026d:	48 63 d0             	movslq %eax,%rdx
   10270:	48 8b 85 00 f2 ff ff 	mov    -0xe00(%rbp),%rax
   10277:	48 89 10             	mov    %rdx,(%rax)
   1027a:	48 8b 85 00 f2 ff ff 	mov    -0xe00(%rbp),%rax
   10281:	48 8b 00             	mov    (%rax),%rax
   10284:	4c 89 f6             	mov    %r14,%rsi
   10287:	48 89 c7             	mov    %rax,%rdi
   1028a:	e8 19 66 ff ff       	callq  68a8 <safe_sub_func_int64_t_s_s>
   1028f:	48 8b 85 70 ef ff ff 	mov    -0x1090(%rbp),%rax
   10296:	0f bf f0             	movswl %ax,%esi
   10299:	48 8b 85 20 f3 ff ff 	mov    -0xce0(%rbp),%rax
   102a0:	8b 8d 6c ef ff ff    	mov    -0x1094(%rbp),%ecx
   102a6:	ba 00 00 00 00       	mov    $0x0,%edx
   102ab:	48 89 c7             	mov    %rax,%rdi
   102ae:	e8 61 1d 00 00       	callq  12014 <func_35>
   102b3:	48 8b 95 08 f2 ff ff 	mov    -0xdf8(%rbp),%rdx
   102ba:	48 89 02             	mov    %rax,(%rdx)
   102bd:	48 8b 85 08 f2 ff ff 	mov    -0xdf8(%rbp),%rax
   102c4:	48 8b 00             	mov    (%rax),%rax
   102c7:	44 89 e9             	mov    %r13d,%ecx
   102ca:	4c 89 e2             	mov    %r12,%rdx
   102cd:	89 de                	mov    %ebx,%esi
   102cf:	48 89 c7             	mov    %rax,%rdi
   102d2:	e8 3d 1d 00 00       	callq  12014 <func_35>
   102d7:	48 8b 95 08 f2 ff ff 	mov    -0xdf8(%rbp),%rdx
   102de:	48 89 02             	mov    %rax,(%rdx)
   102e1:	48 8b 85 08 f2 ff ff 	mov    -0xdf8(%rbp),%rax
   102e8:	48 8b 10             	mov    (%rax),%rdx
   102eb:	48 8b 85 78 ef ff ff 	mov    -0x1088(%rbp),%rax
   102f2:	48 39 c2             	cmp    %rax,%rdx
   102f5:	0f 95 c2             	setne  %dl
   102f8:	48 8b 05 01 9e 00 00 	mov    0x9e01(%rip),%rax        # 1a100 <g_359>
   102ff:	48 8b 00             	mov    (%rax),%rax
   10302:	0f b6 d2             	movzbl %dl,%edx
   10305:	89 10                	mov    %edx,(%rax)
   10307:	8b 10                	mov    (%rax),%edx
   10309:	48 8b 85 d8 f1 ff ff 	mov    -0xe28(%rbp),%rax
   10310:	89 10                	mov    %edx,(%rax)
   10312:	83 ad ac ef ff ff 01 	subl   $0x1,-0x1054(%rbp)
   10319:	83 bd ac ef ff ff 00 	cmpl   $0x0,-0x1054(%rbp)
   10320:	0f 89 ca fd ff ff    	jns    100f0 <func_32+0x2798>
   10326:	48 8b 85 d8 f1 ff ff 	mov    -0xe28(%rbp),%rax
   1032d:	8b 00                	mov    (%rax),%eax
   1032f:	85 c0                	test   %eax,%eax
   10331:	75 37                	jne    1036a <func_32+0x2a12>
   10333:	48 8b 85 70 ef ff ff 	mov    -0x1090(%rbp),%rax
   1033a:	48 85 c0             	test   %rax,%rax
   1033d:	75 08                	jne    10347 <func_32+0x29ef>
   1033f:	48 83 85 f0 f0 ff ff 	addq   $0x1,-0xf10(%rbp)
   10346:	01 
   10347:	48 8b 05 32 84 00 00 	mov    0x8432(%rip),%rax        # 18780 <g_204>
   1034e:	48 83 c0 01          	add    $0x1,%rax
   10352:	48 89 05 27 84 00 00 	mov    %rax,0x8427(%rip)        # 18780 <g_204>
   10359:	48 8b 05 20 84 00 00 	mov    0x8420(%rip),%rax        # 18780 <g_204>
   10360:	48 83 f8 04          	cmp    $0x4,%rax
   10364:	0f 8e 5a e6 ff ff    	jle    e9c4 <func_32+0x106c>
   1036a:	be 01 00 00 00       	mov    $0x1,%esi
   1036f:	bf 08 00 00 00       	mov    $0x8,%edi
   10374:	e8 e1 67 ff ff       	callq  6b5a <safe_add_func_uint8_t_u_u>
   10379:	48 8b 95 28 f1 ff ff 	mov    -0xed8(%rbp),%rdx
   10380:	8b 12                	mov    (%rdx),%edx
   10382:	0f b6 c0             	movzbl %al,%eax
   10385:	09 c2                	or     %eax,%edx
   10387:	48 8b 85 28 f1 ff ff 	mov    -0xed8(%rbp),%rax
   1038e:	89 10                	mov    %edx,(%rax)
   10390:	c7 05 da 7c 00 00 00 	movl   $0x0,0x7cda(%rip)        # 18074 <g_145>
   10397:	00 00 00 
   1039a:	e9 c9 02 00 00       	jmpq   10668 <func_32+0x2d10>
   1039f:	c7 85 34 f0 ff ff 06 	movl   $0x6,-0xfcc(%rbp)
   103a6:	00 00 00 
   103a9:	c6 85 8c ef ff ff df 	movb   $0xdf,-0x1074(%rbp)
   103b0:	66 c7 85 92 ef ff ff 	movw   $0x0,-0x106e(%rbp)
   103b7:	00 00 
   103b9:	eb 4d                	jmp    10408 <func_32+0x2ab0>
   103bb:	48 8b 05 4e 9e 00 00 	mov    0x9e4e(%rip),%rax        # 1a210 <g_364>
   103c2:	48 8b 00             	mov    (%rax),%rax
   103c5:	48 8b 00             	mov    (%rax),%rax
   103c8:	c7 00 00 00 00 00    	movl   $0x0,(%rax)
   103ce:	48 8b 05 3b 9e 00 00 	mov    0x9e3b(%rip),%rax        # 1a210 <g_364>
   103d5:	48 8b 00             	mov    (%rax),%rax
   103d8:	48 8b 00             	mov    (%rax),%rax
   103db:	8b 10                	mov    (%rax),%edx
   103dd:	48 8b 85 70 ef ff ff 	mov    -0x1090(%rbp),%rax
   103e4:	89 c1                	mov    %eax,%ecx
   103e6:	48 8b 05 23 9e 00 00 	mov    0x9e23(%rip),%rax        # 1a210 <g_364>
   103ed:	48 8b 00             	mov    (%rax),%rax
   103f0:	48 8b 00             	mov    (%rax),%rax
   103f3:	21 ca                	and    %ecx,%edx
   103f5:	89 10                	mov    %edx,(%rax)
   103f7:	0f b7 85 92 ef ff ff 	movzwl -0x106e(%rbp),%eax
   103fe:	83 c0 01             	add    $0x1,%eax
   10401:	66 89 85 92 ef ff ff 	mov    %ax,-0x106e(%rbp)
   10408:	0f b7 85 92 ef ff ff 	movzwl -0x106e(%rbp),%eax
   1040f:	66 83 f8 04          	cmp    $0x4,%ax
   10413:	76 a6                	jbe    103bb <func_32+0x2a63>
   10415:	66 0f be 85 8c ef ff 	movsbw -0x1074(%rbp),%ax
   1041c:	ff 
   1041d:	0f b7 c0             	movzwl %ax,%eax
   10420:	be 0c 00 00 00       	mov    $0xc,%esi
   10425:	89 c7                	mov    %eax,%edi
   10427:	e8 92 69 ff ff       	callq  6dbe <safe_lshift_func_uint16_t_u_s>
   1042c:	66 83 f8 03          	cmp    $0x3,%ax
   10430:	76 55                	jbe    10487 <func_32+0x2b2f>
   10432:	48 8b 95 98 f0 ff ff 	mov    -0xf68(%rbp),%rdx
   10439:	48 8b 85 98 f0 ff ff 	mov    -0xf68(%rbp),%rax
   10440:	0f b7 12             	movzwl (%rdx),%edx
   10443:	66 89 10             	mov    %dx,(%rax)
   10446:	0f b7 00             	movzwl (%rax),%eax
   10449:	0f b7 d0             	movzwl %ax,%edx
   1044c:	48 8b 85 70 ef ff ff 	mov    -0x1090(%rbp),%rax
   10453:	0f b7 c0             	movzwl %ax,%eax
   10456:	89 d6                	mov    %edx,%esi
   10458:	89 c7                	mov    %eax,%edi
   1045a:	e8 a7 69 ff ff       	callq  6e06 <safe_lshift_func_uint16_t_u_u>
   1045f:	89 c1                	mov    %eax,%ecx
   10461:	48 8b 85 a0 f0 ff ff 	mov    -0xf60(%rbp),%rax
   10468:	0f b6 10             	movzbl (%rax),%edx
   1046b:	48 8b 85 a0 f0 ff ff 	mov    -0xf60(%rbp),%rax
   10472:	21 ca                	and    %ecx,%edx
   10474:	88 10                	mov    %dl,(%rax)
   10476:	be 01 00 00 00       	mov    $0x1,%esi
   1047b:	bf 01 00 00 00       	mov    $0x1,%edi
   10480:	e8 08 68 ff ff       	callq  6c8d <safe_rshift_func_uint8_t_u_s>
   10485:	84 c0                	test   %al,%al
   10487:	48 8b 05 72 9c 00 00 	mov    0x9c72(%rip),%rax        # 1a100 <g_359>
   1048e:	48 8b 00             	mov    (%rax),%rax
   10491:	8b 08                	mov    (%rax),%ecx
   10493:	48 8b 85 68 f0 ff ff 	mov    -0xf98(%rbp),%rax
   1049a:	48 8b 00             	mov    (%rax),%rax
   1049d:	8b 10                	mov    (%rax),%edx
   1049f:	48 8b 85 68 f0 ff ff 	mov    -0xf98(%rbp),%rax
   104a6:	48 8b 00             	mov    (%rax),%rax
   104a9:	09 ca                	or     %ecx,%edx
   104ab:	89 10                	mov    %edx,(%rax)
   104ad:	c7 85 c4 ef ff ff 00 	movl   $0x0,-0x103c(%rbp)
   104b4:	00 00 00 
   104b7:	e9 90 01 00 00       	jmpq   1064c <func_32+0x2cf4>
   104bc:	c7 85 38 f0 ff ff ff 	movl   $0xffffffff,-0xfc8(%rbp)
   104c3:	ff ff ff 
   104c6:	48 8d 85 b8 f0 ff ff 	lea    -0xf48(%rbp),%rax
   104cd:	48 89 85 50 f2 ff ff 	mov    %rax,-0xdb0(%rbp)
   104d4:	be 06 00 00 00       	mov    $0x6,%esi
   104d9:	bf 00 00 00 00       	mov    $0x0,%edi
   104de:	e8 65 69 ff ff       	callq  6e48 <safe_rshift_func_uint16_t_u_s>
   104e3:	0f b7 d0             	movzwl %ax,%edx
   104e6:	48 8b 85 d8 f1 ff ff 	mov    -0xe28(%rbp),%rax
   104ed:	8b 00                	mov    (%rax),%eax
   104ef:	39 c2                	cmp    %eax,%edx
   104f1:	74 0b                	je     104fe <func_32+0x2ba6>
   104f3:	8b 85 38 f0 ff ff    	mov    -0xfc8(%rbp),%eax
   104f9:	e9 f0 1a 00 00       	jmpq   11fee <func_32+0x4696>
   104fe:	c7 85 3c f0 ff ff 13 	movl   $0xa7735c13,-0xfc4(%rbp)
   10505:	5c 73 a7 
   10508:	48 8d 05 35 7b 00 00 	lea    0x7b35(%rip),%rax        # 18044 <g_81+0x4>
   1050f:	48 89 85 58 f2 ff ff 	mov    %rax,-0xda8(%rbp)
   10516:	48 c7 c0 f9 ff ff ff 	mov    $0xfffffffffffffff9,%rax
   1051d:	48 89 c7             	mov    %rax,%rdi
   10520:	e8 f1 62 ff ff       	callq  6816 <safe_unary_minus_func_int64_t_s>
   10525:	89 85 3c f0 ff ff    	mov    %eax,-0xfc4(%rbp)
   1052b:	48 8b 85 78 ef ff ff 	mov    -0x1088(%rbp),%rax
   10532:	0f b6 00             	movzbl (%rax),%eax
   10535:	0f be d8             	movsbl %al,%ebx
   10538:	48 8b 85 70 ef ff ff 	mov    -0x1090(%rbp),%rax
   1053f:	41 89 c6             	mov    %eax,%r14d
   10542:	48 8b 85 58 f2 ff ff 	mov    -0xda8(%rbp),%rax
   10549:	c7 00 71 ff 73 33    	movl   $0x3373ff71,(%rax)
   1054f:	48 8b 05 ba 9c 00 00 	mov    0x9cba(%rip),%rax        # 1a210 <g_364>
   10556:	48 8b 00             	mov    (%rax),%rax
   10559:	48 8b 00             	mov    (%rax),%rax
   1055c:	8b 10                	mov    (%rax),%edx
   1055e:	48 8b 05 ab 9c 00 00 	mov    0x9cab(%rip),%rax        # 1a210 <g_364>
   10565:	48 8b 00             	mov    (%rax),%rax
   10568:	48 8b 00             	mov    (%rax),%rax
   1056b:	83 f2 01             	xor    $0x1,%edx
   1056e:	89 10                	mov    %edx,(%rax)
   10570:	48 8b 05 89 9d 00 00 	mov    0x9d89(%rip),%rax        # 1a300 <g_425>
   10577:	44 8b 20             	mov    (%rax),%r12d
   1057a:	48 8b 85 78 ef ff ff 	mov    -0x1088(%rbp),%rax
   10581:	0f b6 00             	movzbl (%rax),%eax
   10584:	44 0f be e8          	movsbl %al,%r13d
   10588:	be 0d 00 00 00       	mov    $0xd,%esi
   1058d:	bf 00 00 00 00       	mov    $0x0,%edi
   10592:	e8 e3 68 ff ff       	callq  6e7a <safe_rshift_func_uint16_t_u_u>
   10597:	0f b6 c0             	movzbl %al,%eax
   1059a:	44 89 ee             	mov    %r13d,%esi
   1059d:	89 c7                	mov    %eax,%edi
   1059f:	e8 61 66 ff ff       	callq  6c05 <safe_lshift_func_uint8_t_u_s>
   105a4:	0f b6 c0             	movzbl %al,%eax
   105a7:	44 89 e6             	mov    %r12d,%esi
   105aa:	89 c7                	mov    %eax,%edi
   105ac:	e8 1f 69 ff ff       	callq  6ed0 <safe_sub_func_uint32_t_u_u>
   105b1:	0f be c0             	movsbl %al,%eax
   105b4:	89 c7                	mov    %eax,%edi
   105b6:	e8 04 5c ff ff       	callq  61bf <safe_unary_minus_func_int8_t_s>
   105bb:	44 89 f6             	mov    %r14d,%esi
   105be:	bf ae 12 00 00       	mov    $0x12ae,%edi
   105c3:	e8 19 5f ff ff       	callq  64e1 <safe_lshift_func_int16_t_s_u>
   105c8:	48 0f bf c0          	movswq %ax,%rax
   105cc:	48 8b 95 70 ef ff ff 	mov    -0x1090(%rbp),%rdx
   105d3:	48 89 c6             	mov    %rax,%rsi
   105d6:	48 89 d7             	mov    %rdx,%rdi
   105d9:	e8 6d 6a ff ff       	callq  704b <safe_sub_func_uint64_t_u_u>
   105de:	89 c2                	mov    %eax,%edx
   105e0:	48 8d 85 b8 f0 ff ff 	lea    -0xf48(%rbp),%rax
   105e7:	48 39 85 50 f2 ff ff 	cmp    %rax,-0xdb0(%rbp)
   105ee:	0f 95 c0             	setne  %al
   105f1:	0f b6 c0             	movzbl %al,%eax
   105f4:	89 d6                	mov    %edx,%esi
   105f6:	89 c7                	mov    %eax,%edi
   105f8:	e8 00 69 ff ff       	callq  6efd <safe_mod_func_uint32_t_u_u>
   105fd:	8b 15 89 81 00 00    	mov    0x8189(%rip),%edx        # 1878c <g_286>
   10603:	39 d0                	cmp    %edx,%eax
   10605:	0f 96 c0             	setbe  %al
   10608:	0f b6 c0             	movzbl %al,%eax
   1060b:	89 de                	mov    %ebx,%esi
   1060d:	89 c7                	mov    %eax,%edi
   1060f:	e8 1d 5c ff ff       	callq  6231 <safe_mod_func_int8_t_s_s>
   10614:	48 8b 85 70 ef ff ff 	mov    -0x1090(%rbp),%rax
   1061b:	48 85 c0             	test   %rax,%rax
   1061e:	75 08                	jne    10628 <func_32+0x2cd0>
   10620:	8b 05 72 81 00 00    	mov    0x8172(%rip),%eax        # 18798 <g_318>
   10626:	85 c0                	test   %eax,%eax
   10628:	48 8b 85 70 ef ff ff 	mov    -0x1090(%rbp),%rax
   1062f:	48 83 f8 01          	cmp    $0x1,%rax
   10633:	0f 9e c2             	setle  %dl
   10636:	48 8b 85 68 f0 ff ff 	mov    -0xf98(%rbp),%rax
   1063d:	48 8b 00             	mov    (%rax),%rax
   10640:	0f b6 d2             	movzbl %dl,%edx
   10643:	89 10                	mov    %edx,(%rax)
   10645:	83 85 c4 ef ff ff 01 	addl   $0x1,-0x103c(%rbp)
   1064c:	83 bd c4 ef ff ff 03 	cmpl   $0x3,-0x103c(%rbp)
   10653:	0f 8e 63 fe ff ff    	jle    104bc <func_32+0x2b64>
   10659:	8b 05 15 7a 00 00    	mov    0x7a15(%rip),%eax        # 18074 <g_145>
   1065f:	83 c0 01             	add    $0x1,%eax
   10662:	89 05 0c 7a 00 00    	mov    %eax,0x7a0c(%rip)        # 18074 <g_145>
   10668:	8b 05 06 7a 00 00    	mov    0x7a06(%rip),%eax        # 18074 <g_145>
   1066e:	83 f8 04             	cmp    $0x4,%eax
   10671:	0f 86 28 fd ff ff    	jbe    1039f <func_32+0x2a47>
   10677:	0f b6 05 0b ae 00 00 	movzbl 0xae0b(%rip),%eax        # 1b489 <g_92>
   1067e:	83 c0 01             	add    $0x1,%eax
   10681:	88 05 02 ae 00 00    	mov    %al,0xae02(%rip)        # 1b489 <g_92>
   10687:	0f b6 05 fb ad 00 00 	movzbl 0xadfb(%rip),%eax        # 1b489 <g_92>
   1068e:	3c 04                	cmp    $0x4,%al
   10690:	0f 8e 3d e2 ff ff    	jle    e8d3 <func_32+0xf7b>
   10696:	48 8b 85 70 f0 ff ff 	mov    -0xf90(%rbp),%rax
   1069d:	48 8b 95 70 ef ff ff 	mov    -0x1090(%rbp),%rdx
   106a4:	48 89 10             	mov    %rdx,(%rax)
   106a7:	48 8b 10             	mov    (%rax),%rdx
   106aa:	8b 05 08 7c 00 00    	mov    0x7c08(%rip),%eax        # 182b8 <g_176+0x238>
   106b0:	48 98                	cltq   
   106b2:	48 39 c2             	cmp    %rax,%rdx
   106b5:	0f 9e c0             	setle  %al
   106b8:	0f b6 c8             	movzbl %al,%ecx
   106bb:	48 8b 05 3e 9a 00 00 	mov    0x9a3e(%rip),%rax        # 1a100 <g_359>
   106c2:	48 8b 00             	mov    (%rax),%rax
   106c5:	8b 10                	mov    (%rax),%edx
   106c7:	48 8b 05 32 9a 00 00 	mov    0x9a32(%rip),%rax        # 1a100 <g_359>
   106ce:	48 8b 00             	mov    (%rax),%rax
   106d1:	09 ca                	or     %ecx,%edx
   106d3:	89 10                	mov    %edx,(%rax)
   106d5:	8b 85 60 f4 ff ff    	mov    -0xba0(%rbp),%eax
   106db:	4c 63 e8             	movslq %eax,%r13
   106de:	48 8b 85 70 ef ff ff 	mov    -0x1090(%rbp),%rax
   106e5:	49 89 c7             	mov    %rax,%r15
   106e8:	48 8b 85 70 ef ff ff 	mov    -0x1090(%rbp),%rax
   106ef:	89 85 6c ef ff ff    	mov    %eax,-0x1094(%rbp)
   106f5:	0f b6 05 8d ad 00 00 	movzbl 0xad8d(%rip),%eax        # 1b489 <g_92>
   106fc:	48 0f be d8          	movsbq %al,%rbx
   10700:	48 8b 85 38 f1 ff ff 	mov    -0xec8(%rbp),%rax
   10707:	48 8d 95 98 f0 ff ff 	lea    -0xf68(%rbp),%rdx
   1070e:	48 89 10             	mov    %rdx,(%rax)
   10711:	48 8b 85 38 f1 ff ff 	mov    -0xec8(%rbp),%rax
   10718:	48 8b 10             	mov    (%rax),%rdx
   1071b:	48 8d 85 78 f0 ff ff 	lea    -0xf88(%rbp),%rax
   10722:	48 39 c2             	cmp    %rax,%rdx
   10725:	0f 95 c0             	setne  %al
   10728:	44 0f b6 f0          	movzbl %al,%r14d
   1072c:	8b 05 62 80 00 00    	mov    0x8062(%rip),%eax        # 18794 <g_292>
   10732:	44 0f b7 e0          	movzwl %ax,%r12d
   10736:	48 8b 85 70 ef ff ff 	mov    -0x1090(%rbp),%rax
   1073d:	0f b6 c0             	movzbl %al,%eax
   10740:	89 c6                	mov    %eax,%esi
   10742:	bf 01 00 00 00       	mov    $0x1,%edi
   10747:	e8 8f 64 ff ff       	callq  6bdb <safe_div_func_uint8_t_u_u>
   1074c:	8b 05 a6 80 00 00    	mov    0x80a6(%rip),%eax        # 187f8 <g_415+0x38>
   10752:	0f b7 c0             	movzwl %ax,%eax
   10755:	44 89 e6             	mov    %r12d,%esi
   10758:	89 c7                	mov    %eax,%edi
   1075a:	e8 fd 65 ff ff       	callq  6d5c <safe_mod_func_uint16_t_u_u>
   1075f:	89 c2                	mov    %eax,%edx
   10761:	48 8b 85 70 f0 ff ff 	mov    -0xf90(%rbp),%rax
   10768:	0f b7 d2             	movzwl %dx,%edx
   1076b:	48 89 10             	mov    %rdx,(%rax)
   1076e:	48 8b 00             	mov    (%rax),%rax
   10771:	be 03 00 00 00       	mov    $0x3,%esi
   10776:	48 89 c7             	mov    %rax,%rdi
   10779:	e8 2a 61 ff ff       	callq  68a8 <safe_sub_func_int64_t_s_s>
   1077e:	48 8b 95 70 ef ff ff 	mov    -0x1090(%rbp),%rdx
   10785:	48 39 d0             	cmp    %rdx,%rax
   10788:	0f 9f c0             	setg   %al
   1078b:	0f b6 c0             	movzbl %al,%eax
   1078e:	41 39 c6             	cmp    %eax,%r14d
   10791:	0f 9c c0             	setl   %al
   10794:	0f b6 d0             	movzbl %al,%edx
   10797:	48 8b 85 70 ef ff ff 	mov    -0x1090(%rbp),%rax
   1079e:	48 39 c2             	cmp    %rax,%rdx
   107a1:	48 8b 85 28 f1 ff ff 	mov    -0xed8(%rbp),%rax
   107a8:	8b 10                	mov    (%rax),%edx
   107aa:	0f b7 05 d7 7f 00 00 	movzwl 0x7fd7(%rip),%eax        # 18788 <g_218>
   107b1:	0f b7 c0             	movzwl %ax,%eax
   107b4:	39 c2                	cmp    %eax,%edx
   107b6:	7f 07                	jg     107bf <func_32+0x2e67>
   107b8:	b8 01 00 00 00       	mov    $0x1,%eax
   107bd:	eb 05                	jmp    107c4 <func_32+0x2e6c>
   107bf:	b8 00 00 00 00       	mov    $0x0,%eax
   107c4:	84 c0                	test   %al,%al
   107c6:	74 13                	je     107db <func_32+0x2e83>
   107c8:	48 8b 85 70 ef ff ff 	mov    -0x1090(%rbp),%rax
   107cf:	48 85 c0             	test   %rax,%rax
   107d2:	74 07                	je     107db <func_32+0x2e83>
   107d4:	b8 01 00 00 00       	mov    $0x1,%eax
   107d9:	eb 05                	jmp    107e0 <func_32+0x2e88>
   107db:	b8 00 00 00 00       	mov    $0x0,%eax
   107e0:	48 63 d0             	movslq %eax,%rdx
   107e3:	48 8b 85 70 ef ff ff 	mov    -0x1090(%rbp),%rax
   107ea:	48 39 c2             	cmp    %rax,%rdx
   107ed:	0f 9e c0             	setle  %al
   107f0:	0f b6 c0             	movzbl %al,%eax
   107f3:	48 89 de             	mov    %rbx,%rsi
   107f6:	48 89 c7             	mov    %rax,%rdi
   107f9:	e8 b1 68 ff ff       	callq  70af <safe_div_func_uint64_t_u_u>
   107fe:	48 8b 85 28 f1 ff ff 	mov    -0xed8(%rbp),%rax
   10805:	8b 00                	mov    (%rax),%eax
   10807:	85 c0                	test   %eax,%eax
   10809:	74 07                	je     10812 <func_32+0x2eba>
   1080b:	b8 01 00 00 00       	mov    $0x1,%eax
   10810:	eb 05                	jmp    10817 <func_32+0x2ebf>
   10812:	b8 00 00 00 00       	mov    $0x0,%eax
   10817:	8b b5 6c ef ff ff    	mov    -0x1094(%rbp),%esi
   1081d:	89 c7                	mov    %eax,%edi
   1081f:	e8 d9 66 ff ff       	callq  6efd <safe_mod_func_uint32_t_u_u>
   10824:	98                   	cwtl   
   10825:	be d2 43 00 00       	mov    $0x43d2,%esi
   1082a:	89 c7                	mov    %eax,%edi
   1082c:	e8 a2 5b ff ff       	callq  63d3 <safe_sub_func_int16_t_s_s>
   10831:	48 8b 95 70 ef ff ff 	mov    -0x1090(%rbp),%rdx
   10838:	31 d0                	xor    %edx,%eax
   1083a:	0f b7 c0             	movzwl %ax,%eax
   1083d:	be 61 47 00 00       	mov    $0x4761,%esi
   10842:	89 c7                	mov    %eax,%edi
   10844:	e8 13 65 ff ff       	callq  6d5c <safe_mod_func_uint16_t_u_u>
   10849:	89 c2                	mov    %eax,%edx
   1084b:	48 8b 85 70 ef ff ff 	mov    -0x1090(%rbp),%rax
   10852:	09 d0                	or     %edx,%eax
   10854:	0f b7 d8             	movzwl %ax,%ebx
   10857:	48 8b 85 28 f1 ff ff 	mov    -0xed8(%rbp),%rax
   1085e:	8b 00                	mov    (%rax),%eax
   10860:	0f b6 c0             	movzbl %al,%eax
   10863:	be 01 00 00 00       	mov    $0x1,%esi
   10868:	89 c7                	mov    %eax,%edi
   1086a:	e8 dd 63 ff ff       	callq  6c4c <safe_lshift_func_uint8_t_u_u>
   1086f:	89 c2                	mov    %eax,%edx
   10871:	48 8b 85 98 f0 ff ff 	mov    -0xf68(%rbp),%rax
   10878:	0f b6 d2             	movzbl %dl,%edx
   1087b:	66 89 10             	mov    %dx,(%rax)
   1087e:	0f b7 00             	movzwl (%rax),%eax
   10881:	0f b7 c0             	movzwl %ax,%eax
   10884:	89 de                	mov    %ebx,%esi
   10886:	89 c7                	mov    %eax,%edi
   10888:	e8 b0 64 ff ff       	callq  6d3d <safe_mul_func_uint16_t_u_u>
   1088d:	0f b7 c0             	movzwl %ax,%eax
   10890:	4c 89 fe             	mov    %r15,%rsi
   10893:	48 89 c7             	mov    %rax,%rdi
   10896:	e8 e5 67 ff ff       	callq  7080 <safe_mod_func_uint64_t_u_u>
   1089b:	48 be 64 68 40 b7 35 	movabs $0x3dda6935b7406864,%rsi
   108a2:	69 da 3d 
   108a5:	48 c7 c7 ff ff ff ff 	mov    $0xffffffffffffffff,%rdi
   108ac:	e8 cf 67 ff ff       	callq  7080 <safe_mod_func_uint64_t_u_u>
   108b1:	49 39 c5             	cmp    %rax,%r13
   108b4:	0f 82 8f 0c 00 00    	jb     11549 <func_32+0x3bf1>
   108ba:	c7 85 fc ef ff ff fe 	movl   $0xfffffffe,-0x1004(%rbp)
   108c1:	ff ff ff 
   108c4:	48 c7 85 70 f1 ff ff 	movq   $0x0,-0xe90(%rbp)
   108cb:	00 00 00 00 
   108cf:	48 8d 05 b6 7e 00 00 	lea    0x7eb6(%rip),%rax        # 1878c <g_286>
   108d6:	48 89 85 78 f1 ff ff 	mov    %rax,-0xe88(%rbp)
   108dd:	66 c7 85 c0 f0 ff ff 	movw   $0x5,-0xf40(%rbp)
   108e4:	05 00 
   108e6:	c7 85 00 f0 ff ff 00 	movl   $0x0,-0x1000(%rbp)
   108ed:	00 00 00 
   108f0:	48 8d 05 f9 97 00 00 	lea    0x97f9(%rip),%rax        # 1a0f0 <g_332>
   108f7:	48 89 85 c8 f0 ff ff 	mov    %rax,-0xf38(%rbp)
   108fe:	48 c7 85 d0 f0 ff ff 	movq   $0x0,-0xf30(%rbp)
   10905:	00 00 00 00 
   10909:	c7 85 d0 f0 ff ff fb 	movl   $0xfffffffb,-0xf30(%rbp)
   10910:	ff ff ff 
   10913:	c7 85 04 f0 ff ff 00 	movl   $0x0,-0xffc(%rbp)
   1091a:	00 00 00 
   1091d:	48 8d 85 70 f0 ff ff 	lea    -0xf90(%rbp),%rax
   10924:	48 89 85 80 f1 ff ff 	mov    %rax,-0xe80(%rbp)
   1092b:	c7 85 10 f3 ff ff fe 	movl   $0xfffffffe,-0xcf0(%rbp)
   10932:	ff ff ff 
   10935:	c7 85 14 f3 ff ff fe 	movl   $0xfffffffe,-0xcec(%rbp)
   1093c:	ff ff ff 
   1093f:	c7 85 18 f3 ff ff fe 	movl   $0xfffffffe,-0xce8(%rbp)
   10946:	ff ff ff 
   10949:	c7 85 1c f3 ff ff fe 	movl   $0xfffffffe,-0xce4(%rbp)
   10950:	ff ff ff 
   10953:	48 8d 85 60 f4 ff ff 	lea    -0xba0(%rbp),%rax
   1095a:	48 89 85 d8 f0 ff ff 	mov    %rax,-0xf28(%rbp)
   10961:	48 8d 85 d8 f0 ff ff 	lea    -0xf28(%rbp),%rax
   10968:	48 89 85 30 f8 ff ff 	mov    %rax,-0x7d0(%rbp)
   1096f:	48 8d 85 d8 f0 ff ff 	lea    -0xf28(%rbp),%rax
   10976:	48 89 85 38 f8 ff ff 	mov    %rax,-0x7c8(%rbp)
   1097d:	48 8d 85 d8 f0 ff ff 	lea    -0xf28(%rbp),%rax
   10984:	48 89 85 40 f8 ff ff 	mov    %rax,-0x7c0(%rbp)
   1098b:	48 8d 85 d8 f0 ff ff 	lea    -0xf28(%rbp),%rax
   10992:	48 89 85 48 f8 ff ff 	mov    %rax,-0x7b8(%rbp)
   10999:	48 8d 85 d8 f0 ff ff 	lea    -0xf28(%rbp),%rax
   109a0:	48 89 85 50 f8 ff ff 	mov    %rax,-0x7b0(%rbp)
   109a7:	48 8d 85 d8 f0 ff ff 	lea    -0xf28(%rbp),%rax
   109ae:	48 89 85 58 f8 ff ff 	mov    %rax,-0x7a8(%rbp)
   109b5:	48 8d 85 d8 f0 ff ff 	lea    -0xf28(%rbp),%rax
   109bc:	48 89 85 60 f8 ff ff 	mov    %rax,-0x7a0(%rbp)
   109c3:	48 8d 85 d8 f0 ff ff 	lea    -0xf28(%rbp),%rax
   109ca:	48 89 85 68 f8 ff ff 	mov    %rax,-0x798(%rbp)
   109d1:	48 8d 85 d8 f0 ff ff 	lea    -0xf28(%rbp),%rax
   109d8:	48 89 85 70 f8 ff ff 	mov    %rax,-0x790(%rbp)
   109df:	48 8d 85 d8 f0 ff ff 	lea    -0xf28(%rbp),%rax
   109e6:	48 89 85 78 f8 ff ff 	mov    %rax,-0x788(%rbp)
   109ed:	48 8d 85 d8 f0 ff ff 	lea    -0xf28(%rbp),%rax
   109f4:	48 89 85 80 f8 ff ff 	mov    %rax,-0x780(%rbp)
   109fb:	48 8d 85 d8 f0 ff ff 	lea    -0xf28(%rbp),%rax
   10a02:	48 89 85 88 f8 ff ff 	mov    %rax,-0x778(%rbp)
   10a09:	48 8d 85 d8 f0 ff ff 	lea    -0xf28(%rbp),%rax
   10a10:	48 89 85 90 f8 ff ff 	mov    %rax,-0x770(%rbp)
   10a17:	48 8d 85 d8 f0 ff ff 	lea    -0xf28(%rbp),%rax
   10a1e:	48 89 85 98 f8 ff ff 	mov    %rax,-0x768(%rbp)
   10a25:	48 8d 85 d8 f0 ff ff 	lea    -0xf28(%rbp),%rax
   10a2c:	48 89 85 a0 f8 ff ff 	mov    %rax,-0x760(%rbp)
   10a33:	48 8d 85 d8 f0 ff ff 	lea    -0xf28(%rbp),%rax
   10a3a:	48 89 85 a8 f8 ff ff 	mov    %rax,-0x758(%rbp)
   10a41:	48 8d 85 d8 f0 ff ff 	lea    -0xf28(%rbp),%rax
   10a48:	48 89 85 b0 f8 ff ff 	mov    %rax,-0x750(%rbp)
   10a4f:	48 8d 85 d8 f0 ff ff 	lea    -0xf28(%rbp),%rax
   10a56:	48 89 85 b8 f8 ff ff 	mov    %rax,-0x748(%rbp)
   10a5d:	48 8d 85 d8 f0 ff ff 	lea    -0xf28(%rbp),%rax
   10a64:	48 89 85 c0 f8 ff ff 	mov    %rax,-0x740(%rbp)
   10a6b:	48 8d 85 d8 f0 ff ff 	lea    -0xf28(%rbp),%rax
   10a72:	48 89 85 c8 f8 ff ff 	mov    %rax,-0x738(%rbp)
   10a79:	48 8d 85 d8 f0 ff ff 	lea    -0xf28(%rbp),%rax
   10a80:	48 89 85 d0 f8 ff ff 	mov    %rax,-0x730(%rbp)
   10a87:	48 8d 85 d8 f0 ff ff 	lea    -0xf28(%rbp),%rax
   10a8e:	48 89 85 d8 f8 ff ff 	mov    %rax,-0x728(%rbp)
   10a95:	48 8d 85 d8 f0 ff ff 	lea    -0xf28(%rbp),%rax
   10a9c:	48 89 85 e0 f8 ff ff 	mov    %rax,-0x720(%rbp)
   10aa3:	48 8d 85 d8 f0 ff ff 	lea    -0xf28(%rbp),%rax
   10aaa:	48 89 85 e8 f8 ff ff 	mov    %rax,-0x718(%rbp)
   10ab1:	48 8d 85 d8 f0 ff ff 	lea    -0xf28(%rbp),%rax
   10ab8:	48 89 85 f0 f8 ff ff 	mov    %rax,-0x710(%rbp)
   10abf:	48 8d 85 d8 f0 ff ff 	lea    -0xf28(%rbp),%rax
   10ac6:	48 89 85 f8 f8 ff ff 	mov    %rax,-0x708(%rbp)
   10acd:	48 8d 85 d8 f0 ff ff 	lea    -0xf28(%rbp),%rax
   10ad4:	48 89 85 00 f9 ff ff 	mov    %rax,-0x700(%rbp)
   10adb:	48 8d 85 d8 f0 ff ff 	lea    -0xf28(%rbp),%rax
   10ae2:	48 89 85 08 f9 ff ff 	mov    %rax,-0x6f8(%rbp)
   10ae9:	48 8d 85 d8 f0 ff ff 	lea    -0xf28(%rbp),%rax
   10af0:	48 89 85 10 f9 ff ff 	mov    %rax,-0x6f0(%rbp)
   10af7:	48 8d 85 d8 f0 ff ff 	lea    -0xf28(%rbp),%rax
   10afe:	48 89 85 18 f9 ff ff 	mov    %rax,-0x6e8(%rbp)
   10b05:	48 8d 85 d8 f0 ff ff 	lea    -0xf28(%rbp),%rax
   10b0c:	48 89 85 20 f9 ff ff 	mov    %rax,-0x6e0(%rbp)
   10b13:	48 8d 85 d8 f0 ff ff 	lea    -0xf28(%rbp),%rax
   10b1a:	48 89 85 28 f9 ff ff 	mov    %rax,-0x6d8(%rbp)
   10b21:	48 8d 85 d8 f0 ff ff 	lea    -0xf28(%rbp),%rax
   10b28:	48 89 85 30 f9 ff ff 	mov    %rax,-0x6d0(%rbp)
   10b2f:	48 8d 85 d8 f0 ff ff 	lea    -0xf28(%rbp),%rax
   10b36:	48 89 85 38 f9 ff ff 	mov    %rax,-0x6c8(%rbp)
   10b3d:	48 8d 85 d8 f0 ff ff 	lea    -0xf28(%rbp),%rax
   10b44:	48 89 85 40 f9 ff ff 	mov    %rax,-0x6c0(%rbp)
   10b4b:	48 8d 85 d8 f0 ff ff 	lea    -0xf28(%rbp),%rax
   10b52:	48 89 85 48 f9 ff ff 	mov    %rax,-0x6b8(%rbp)
   10b59:	c7 85 b8 ef ff ff 00 	movl   $0x0,-0x1048(%rbp)
   10b60:	00 00 00 
   10b63:	eb 14                	jmp    10b79 <func_32+0x3221>
   10b65:	8b 85 b8 ef ff ff    	mov    -0x1048(%rbp),%eax
   10b6b:	48 98                	cltq   
   10b6d:	c6 44 05 be ff       	movb   $0xff,-0x42(%rbp,%rax,1)
   10b72:	83 85 b8 ef ff ff 01 	addl   $0x1,-0x1048(%rbp)
   10b79:	83 bd b8 ef ff ff 09 	cmpl   $0x9,-0x1048(%rbp)
   10b80:	7e e3                	jle    10b65 <func_32+0x320d>
   10b82:	c7 85 fc ef ff ff 01 	movl   $0x1,-0x1004(%rbp)
   10b89:	00 00 00 
   10b8c:	48 8b 85 70 ef ff ff 	mov    -0x1090(%rbp),%rax
   10b93:	49 89 c6             	mov    %rax,%r14
   10b96:	48 8b 85 78 ef ff ff 	mov    -0x1088(%rbp),%rax
   10b9d:	0f b6 00             	movzbl (%rax),%eax
   10ba0:	0f b6 d8             	movzbl %al,%ebx
   10ba3:	0f b7 85 c0 f0 ff ff 	movzwl -0xf40(%rbp),%eax
   10baa:	44 0f bf e0          	movswl %ax,%r12d
   10bae:	48 8b 85 70 ef ff ff 	mov    -0x1090(%rbp),%rax
   10bb5:	41 89 c7             	mov    %eax,%r15d
   10bb8:	48 8b 85 68 f0 ff ff 	mov    -0xf98(%rbp),%rax
   10bbf:	48 8b 00             	mov    (%rax),%rax
   10bc2:	8b 00                	mov    (%rax),%eax
   10bc4:	89 c2                	mov    %eax,%edx
   10bc6:	48 8b 85 78 f1 ff ff 	mov    -0xe88(%rbp),%rax
   10bcd:	89 10                	mov    %edx,(%rax)
   10bcf:	48 8b 85 78 f1 ff ff 	mov    -0xe88(%rbp),%rax
   10bd6:	44 8b 28             	mov    (%rax),%r13d
   10bd9:	0f b7 05 a8 7b 00 00 	movzwl 0x7ba8(%rip),%eax        # 18788 <g_218>
   10be0:	0f b7 d0             	movzwl %ax,%edx
   10be3:	48 83 bd 40 f1 ff ff 	cmpq   $0x0,-0xec0(%rbp)
   10bea:	00 
   10beb:	0f 95 c0             	setne  %al
   10bee:	0f b6 c0             	movzbl %al,%eax
   10bf1:	48 39 85 48 f1 ff ff 	cmp    %rax,-0xeb8(%rbp)
   10bf8:	0f 95 c0             	setne  %al
   10bfb:	0f b6 c8             	movzbl %al,%ecx
   10bfe:	48 8b 85 28 f1 ff ff 	mov    -0xed8(%rbp),%rax
   10c05:	8b 00                	mov    (%rax),%eax
   10c07:	39 c1                	cmp    %eax,%ecx
   10c09:	0f 95 c0             	setne  %al
   10c0c:	0f b6 c0             	movzbl %al,%eax
   10c0f:	89 d6                	mov    %edx,%esi
   10c11:	89 c7                	mov    %eax,%edi
   10c13:	e8 07 61 ff ff       	callq  6d1f <safe_sub_func_uint16_t_u_u>
   10c18:	0f b7 c0             	movzwl %ax,%eax
   10c1b:	41 39 c5             	cmp    %eax,%r13d
   10c1e:	0f 93 c2             	setae  %dl
   10c21:	48 8b 05 c0 94 00 00 	mov    0x94c0(%rip),%rax        # 1a0e8 <g_238>
   10c28:	88 10                	mov    %dl,(%rax)
   10c2a:	0f b6 00             	movzbl (%rax),%eax
   10c2d:	0f be c0             	movsbl %al,%eax
   10c30:	44 89 fe             	mov    %r15d,%esi
   10c33:	89 c7                	mov    %eax,%edi
   10c35:	e8 b4 56 ff ff       	callq  62ee <safe_lshift_func_int8_t_s_u>
   10c3a:	84 c0                	test   %al,%al
   10c3c:	74 07                	je     10c45 <func_32+0x32ed>
   10c3e:	83 bd fc ef ff ff 00 	cmpl   $0x0,-0x1004(%rbp)
   10c45:	48 8d 05 f8 73 00 00 	lea    0x73f8(%rip),%rax        # 18044 <g_81+0x4>
   10c4c:	48 39 85 00 f1 ff ff 	cmp    %rax,-0xf00(%rbp)
   10c53:	0f 95 c0             	setne  %al
   10c56:	0f b6 d0             	movzbl %al,%edx
   10c59:	0f b6 45 c5          	movzbl -0x3b(%rbp),%eax
   10c5d:	0f be c0             	movsbl %al,%eax
   10c60:	39 c2                	cmp    %eax,%edx
   10c62:	0f 9e c0             	setle  %al
   10c65:	0f b6 c0             	movzbl %al,%eax
   10c68:	48 8b 15 71 94 00 00 	mov    0x9471(%rip),%rdx        # 1a0e0 <g_98>
   10c6f:	89 c6                	mov    %eax,%esi
   10c71:	bf 01 00 00 00       	mov    $0x1,%edi
   10c76:	e8 3b 59 ff ff       	callq  65b6 <safe_add_func_int32_t_s_s>
   10c7b:	c1 e8 1f             	shr    $0x1f,%eax
   10c7e:	0f b6 d0             	movzbl %al,%edx
   10c81:	8b 05 9d 73 00 00    	mov    0x739d(%rip),%eax        # 18024 <g_66>
   10c87:	39 c2                	cmp    %eax,%edx
   10c89:	0f 9f c0             	setg   %al
   10c8c:	0f b6 c0             	movzbl %al,%eax
   10c8f:	44 89 e6             	mov    %r12d,%esi
   10c92:	89 c7                	mov    %eax,%edi
   10c94:	e8 af 61 ff ff       	callq  6e48 <safe_rshift_func_uint16_t_u_s>
   10c99:	0f b7 d0             	movzwl %ax,%edx
   10c9c:	48 8b 85 70 ef ff ff 	mov    -0x1090(%rbp),%rax
   10ca3:	48 31 c2             	xor    %rax,%rdx
   10ca6:	48 8b 85 78 ef ff ff 	mov    -0x1088(%rbp),%rax
   10cad:	0f b6 00             	movzbl (%rax),%eax
   10cb0:	48 0f be c0          	movsbq %al,%rax
   10cb4:	48 39 c2             	cmp    %rax,%rdx
   10cb7:	0f 9d c0             	setge  %al
   10cba:	0f b6 d0             	movzbl %al,%edx
   10cbd:	8b 05 e5 7a 00 00    	mov    0x7ae5(%rip),%eax        # 187a8 <g_394>
   10cc3:	21 d0                	and    %edx,%eax
   10cc5:	85 c0                	test   %eax,%eax
   10cc7:	74 0a                	je     10cd3 <func_32+0x337b>
   10cc9:	48 8b 85 70 ef ff ff 	mov    -0x1090(%rbp),%rax
   10cd0:	48 85 c0             	test   %rax,%rax
   10cd3:	48 8b 85 78 ef ff ff 	mov    -0x1088(%rbp),%rax
   10cda:	0f b6 00             	movzbl (%rax),%eax
   10cdd:	0f be c0             	movsbl %al,%eax
   10ce0:	be 01 00 00 00       	mov    $0x1,%esi
   10ce5:	89 c7                	mov    %eax,%edi
   10ce7:	e8 49 56 ff ff       	callq  6335 <safe_rshift_func_int8_t_s_s>
   10cec:	0f b6 c0             	movzbl %al,%eax
   10cef:	89 de                	mov    %ebx,%esi
   10cf1:	89 c7                	mov    %eax,%edi
   10cf3:	e8 9b 5e ff ff       	callq  6b93 <safe_mul_func_uint8_t_u_u>
   10cf8:	b8 01 00 00 00       	mov    $0x1,%eax
   10cfd:	48 98                	cltq   
   10cff:	4c 89 f6             	mov    %r14,%rsi
   10d02:	48 89 c7             	mov    %rax,%rdi
   10d05:	e8 76 63 ff ff       	callq  7080 <safe_mod_func_uint64_t_u_u>
   10d0a:	8b 95 88 f3 ff ff    	mov    -0xc78(%rbp),%edx
   10d10:	48 63 d2             	movslq %edx,%rdx
   10d13:	48 39 d0             	cmp    %rdx,%rax
   10d16:	0f 83 72 03 00 00    	jae    1108e <func_32+0x3736>
   10d1c:	48 8d 85 60 f0 ff ff 	lea    -0xfa0(%rbp),%rax
   10d23:	48 89 85 e0 f0 ff ff 	mov    %rax,-0xf20(%rbp)
   10d2a:	48 8d 85 e0 f0 ff ff 	lea    -0xf20(%rbp),%rax
   10d31:	48 89 85 98 f1 ff ff 	mov    %rax,-0xe68(%rbp)
   10d38:	48 8d 05 29 73 00 00 	lea    0x7329(%rip),%rax        # 18068 <g_141>
   10d3f:	48 89 85 a0 f1 ff ff 	mov    %rax,-0xe60(%rbp)
   10d46:	c7 85 18 f0 ff ff af 	movl   $0xb06666af,-0xfe8(%rbp)
   10d4d:	66 66 b0 
   10d50:	48 8b 85 28 f1 ff ff 	mov    -0xed8(%rbp),%rax
   10d57:	8b 00                	mov    (%rax),%eax
   10d59:	85 c0                	test   %eax,%eax
   10d5b:	0f 84 1e 03 00 00    	je     1107f <func_32+0x3727>
   10d61:	c7 85 bc ef ff ff 00 	movl   $0x0,-0x1044(%rbp)
   10d68:	00 00 00 
   10d6b:	eb 1a                	jmp    10d87 <func_32+0x342f>
   10d6d:	8b 85 bc ef ff ff    	mov    -0x1044(%rbp),%eax
   10d73:	48 98                	cltq   
   10d75:	c7 84 85 10 f5 ff ff 	movl   $0x9196ccb7,-0xaf0(%rbp,%rax,4)
   10d7c:	b7 cc 96 91 
   10d80:	83 85 bc ef ff ff 01 	addl   $0x1,-0x1044(%rbp)
   10d87:	83 bd bc ef ff ff 00 	cmpl   $0x0,-0x1044(%rbp)
   10d8e:	7e dd                	jle    10d6d <func_32+0x3415>
   10d90:	48 8b 85 68 f0 ff ff 	mov    -0xf98(%rbp),%rax
   10d97:	48 8b 00             	mov    (%rax),%rax
   10d9a:	8b 95 00 f0 ff ff    	mov    -0x1000(%rbp),%edx
   10da0:	89 10                	mov    %edx,(%rax)
   10da2:	48 8b 15 4f 93 00 00 	mov    0x934f(%rip),%rdx        # 1a0f8 <g_360>
   10da9:	8b 00                	mov    (%rax),%eax
   10dab:	89 02                	mov    %eax,(%rdx)
   10dad:	48 8b 85 70 ef ff ff 	mov    -0x1090(%rbp),%rax
   10db4:	48 85 c0             	test   %rax,%rax
   10db7:	74 49                	je     10e02 <func_32+0x34aa>
   10db9:	48 8d 85 e0 f0 ff ff 	lea    -0xf20(%rbp),%rax
   10dc0:	48 89 85 e8 f0 ff ff 	mov    %rax,-0xf18(%rbp)
   10dc7:	48 8d 85 e8 f0 ff ff 	lea    -0xf18(%rbp),%rax
   10dce:	48 89 85 d0 f1 ff ff 	mov    %rax,-0xe30(%rbp)
   10dd5:	48 8b 85 d0 f1 ff ff 	mov    -0xe30(%rbp),%rax
   10ddc:	48 8b 95 98 f1 ff ff 	mov    -0xe68(%rbp),%rdx
   10de3:	48 89 10             	mov    %rdx,(%rax)
   10de6:	48 8b 05 23 94 00 00 	mov    0x9423(%rip),%rax        # 1a210 <g_364>
   10ded:	48 8b 10             	mov    (%rax),%rdx
   10df0:	48 8b 05 09 93 00 00 	mov    0x9309(%rip),%rax        # 1a100 <g_359>
   10df7:	48 8b 12             	mov    (%rdx),%rdx
   10dfa:	48 89 10             	mov    %rdx,(%rax)
   10dfd:	e9 5b 02 00 00       	jmpq   1105d <func_32+0x3705>
   10e02:	c6 85 8b ef ff ff 01 	movb   $0x1,-0x1075(%rbp)
   10e09:	48 8d 05 e0 92 00 00 	lea    0x92e0(%rip),%rax        # 1a0f0 <g_332>
   10e10:	48 89 85 a8 f1 ff ff 	mov    %rax,-0xe58(%rbp)
   10e17:	48 c7 85 b0 f1 ff ff 	movq   $0x0,-0xe50(%rbp)
   10e1e:	00 00 00 00 
   10e22:	48 c7 85 b8 f1 ff ff 	movq   $0x0,-0xe48(%rbp)
   10e29:	00 00 00 00 
   10e2d:	48 8d 05 5c 79 00 00 	lea    0x795c(%rip),%rax        # 18790 <g_291>
   10e34:	48 89 85 c0 f1 ff ff 	mov    %rax,-0xe40(%rbp)
   10e3b:	48 8d 05 32 72 00 00 	lea    0x7232(%rip),%rax        # 18074 <g_145>
   10e42:	48 89 85 c8 f1 ff ff 	mov    %rax,-0xe38(%rbp)
   10e49:	48 8b 85 78 f1 ff ff 	mov    -0xe88(%rbp),%rax
   10e50:	8b 10                	mov    (%rax),%edx
   10e52:	48 8b 85 98 f0 ff ff 	mov    -0xf68(%rbp),%rax
   10e59:	48 39 85 a0 f1 ff ff 	cmp    %rax,-0xe60(%rbp)
   10e60:	0f 95 c0             	setne  %al
   10e63:	0f b6 c8             	movzbl %al,%ecx
   10e66:	48 8b 85 70 ef ff ff 	mov    -0x1090(%rbp),%rax
   10e6d:	48 31 c1             	xor    %rax,%rcx
   10e70:	0f b6 85 8b ef ff ff 	movzbl -0x1075(%rbp),%eax
   10e77:	48 39 c1             	cmp    %rax,%rcx
   10e7a:	0f 9f c0             	setg   %al
   10e7d:	0f b6 c0             	movzbl %al,%eax
   10e80:	09 c2                	or     %eax,%edx
   10e82:	48 8b 85 78 f1 ff ff 	mov    -0xe88(%rbp),%rax
   10e89:	89 10                	mov    %edx,(%rax)
   10e8b:	48 8b 85 78 f1 ff ff 	mov    -0xe88(%rbp),%rax
   10e92:	8b 00                	mov    (%rax),%eax
   10e94:	89 c2                	mov    %eax,%edx
   10e96:	48 8b 85 70 ef ff ff 	mov    -0x1090(%rbp),%rax
   10e9d:	48 39 c2             	cmp    %rax,%rdx
   10ea0:	0f 9f c0             	setg   %al
   10ea3:	0f b6 d8             	movzbl %al,%ebx
   10ea6:	8b 05 0c 74 00 00    	mov    0x740c(%rip),%eax        # 182b8 <g_176+0x238>
   10eac:	48 98                	cltq   
   10eae:	48 89 c7             	mov    %rax,%rdi
   10eb1:	e8 63 61 ff ff       	callq  7019 <safe_unary_minus_func_uint64_t_u>
   10eb6:	0f b7 c0             	movzwl %ax,%eax
   10eb9:	89 de                	mov    %ebx,%esi
   10ebb:	89 c7                	mov    %eax,%edi
   10ebd:	e8 fc 5e ff ff       	callq  6dbe <safe_lshift_func_uint16_t_u_s>
   10ec2:	66 85 c0             	test   %ax,%ax
   10ec5:	75 3b                	jne    10f02 <func_32+0x35aa>
   10ec7:	66 c7 05 b8 78 00 00 	movw   $0xfffb,0x78b8(%rip)        # 18788 <g_218>
   10ece:	fb ff 
   10ed0:	be 0a 00 00 00       	mov    $0xa,%esi
   10ed5:	bf fb ff 00 00       	mov    $0xfffb,%edi
   10eda:	e8 69 5f ff ff       	callq  6e48 <safe_rshift_func_uint16_t_u_s>
   10edf:	0f b7 c0             	movzwl %ax,%eax
   10ee2:	f7 d0                	not    %eax
   10ee4:	89 c2                	mov    %eax,%edx
   10ee6:	8b 05 0c 79 00 00    	mov    0x790c(%rip),%eax        # 187f8 <g_415+0x38>
   10eec:	33 85 18 f0 ff ff    	xor    -0xfe8(%rbp),%eax
   10ef2:	39 c2                	cmp    %eax,%edx
   10ef4:	75 0c                	jne    10f02 <func_32+0x35aa>
   10ef6:	48 8b 85 78 ef ff ff 	mov    -0x1088(%rbp),%rax
   10efd:	0f b6 00             	movzbl (%rax),%eax
   10f00:	84 c0                	test   %al,%al
   10f02:	0f b7 05 7f 78 00 00 	movzwl 0x787f(%rip),%eax        # 18788 <g_218>
   10f09:	0f b7 d0             	movzwl %ax,%edx
   10f0c:	8b 85 10 f5 ff ff    	mov    -0xaf0(%rbp),%eax
   10f12:	39 c2                	cmp    %eax,%edx
   10f14:	0f 95 c2             	setne  %dl
   10f17:	48 8b 05 f2 92 00 00 	mov    0x92f2(%rip),%rax        # 1a210 <g_364>
   10f1e:	48 8b 00             	mov    (%rax),%rax
   10f21:	48 8b 00             	mov    (%rax),%rax
   10f24:	0f b6 d2             	movzbl %dl,%edx
   10f27:	89 10                	mov    %edx,(%rax)
   10f29:	8b 08                	mov    (%rax),%ecx
   10f2b:	48 8b 85 68 f0 ff ff 	mov    -0xf98(%rbp),%rax
   10f32:	48 8b 00             	mov    (%rax),%rax
   10f35:	8b 10                	mov    (%rax),%edx
   10f37:	48 8b 85 68 f0 ff ff 	mov    -0xf98(%rbp),%rax
   10f3e:	48 8b 00             	mov    (%rax),%rax
   10f41:	21 ca                	and    %ecx,%edx
   10f43:	89 10                	mov    %edx,(%rax)
   10f45:	48 8b 85 70 ef ff ff 	mov    -0x1090(%rbp),%rax
   10f4c:	0f bf d0             	movswl %ax,%edx
   10f4f:	48 8b 05 a2 78 00 00 	mov    0x78a2(%rip),%rax        # 187f8 <g_415+0x38>
   10f56:	48 8b 85 98 f1 ff ff 	mov    -0xe68(%rbp),%rax
   10f5d:	48 8b 00             	mov    (%rax),%rax
   10f60:	48 8b 08             	mov    (%rax),%rcx
   10f63:	48 83 c1 01          	add    $0x1,%rcx
   10f67:	48 89 08             	mov    %rcx,(%rax)
   10f6a:	48 8d 85 c0 f0 ff ff 	lea    -0xf40(%rbp),%rax
   10f71:	48 39 85 a0 f1 ff ff 	cmp    %rax,-0xe60(%rbp)
   10f78:	48 8b 85 70 ef ff ff 	mov    -0x1090(%rbp),%rax
   10f7f:	48 83 f8 01          	cmp    $0x1,%rax
   10f83:	b9 00 00 00 00       	mov    $0x0,%ecx
   10f88:	48 8b 85 c0 f1 ff ff 	mov    -0xe40(%rbp),%rax
   10f8f:	0f b7 00             	movzwl (%rax),%eax
   10f92:	31 c1                	xor    %eax,%ecx
   10f94:	48 8b 85 c0 f1 ff ff 	mov    -0xe40(%rbp),%rax
   10f9b:	66 89 08             	mov    %cx,(%rax)
   10f9e:	48 8b 85 c0 f1 ff ff 	mov    -0xe40(%rbp),%rax
   10fa5:	0f b7 00             	movzwl (%rax),%eax
   10fa8:	98                   	cwtl   
   10fa9:	89 d6                	mov    %edx,%esi
   10fab:	89 c7                	mov    %eax,%edi
   10fad:	e8 a3 54 ff ff       	callq  6455 <safe_div_func_int16_t_s_s>
   10fb2:	48 ba 6e ef 7e df 8f 	movabs $0x4f673e8fdf7eef6e,%rdx
   10fb9:	3e 67 4f 
   10fbc:	48 8b 85 78 f1 ff ff 	mov    -0xe88(%rbp),%rax
   10fc3:	8b 00                	mov    (%rax),%eax
   10fc5:	89 c1                	mov    %eax,%ecx
   10fc7:	89 d0                	mov    %edx,%eax
   10fc9:	21 c8                	and    %ecx,%eax
   10fcb:	89 c2                	mov    %eax,%edx
   10fcd:	48 8b 85 78 f1 ff ff 	mov    -0xe88(%rbp),%rax
   10fd4:	89 10                	mov    %edx,(%rax)
   10fd6:	48 8b 85 78 f1 ff ff 	mov    -0xe88(%rbp),%rax
   10fdd:	8b 10                	mov    (%rax),%edx
   10fdf:	48 8b 85 c8 f1 ff ff 	mov    -0xe38(%rbp),%rax
   10fe6:	89 10                	mov    %edx,(%rax)
   10fe8:	48 8b 85 c8 f1 ff ff 	mov    -0xe38(%rbp),%rax
   10fef:	8b 10                	mov    (%rax),%edx
   10ff1:	8b 85 18 f0 ff ff    	mov    -0xfe8(%rbp),%eax
   10ff7:	39 c2                	cmp    %eax,%edx
   10ff9:	0f 92 c0             	setb   %al
   10ffc:	0f b6 d0             	movzbl %al,%edx
   10fff:	48 8b 85 70 ef ff ff 	mov    -0x1090(%rbp),%rax
   11006:	48 39 c2             	cmp    %rax,%rdx
   11009:	0f 95 c0             	setne  %al
   1100c:	0f b6 c0             	movzbl %al,%eax
   1100f:	48 89 c6             	mov    %rax,%rsi
   11012:	bf 02 00 00 00       	mov    $0x2,%edi
   11017:	e8 12 60 ff ff       	callq  702e <safe_add_func_uint64_t_u_u>
   1101c:	48 8b 85 28 f1 ff ff 	mov    -0xed8(%rbp),%rax
   11023:	8b 00                	mov    (%rax),%eax
   11025:	85 c0                	test   %eax,%eax
   11027:	74 13                	je     1103c <func_32+0x36e4>
   11029:	0f b7 85 c0 f0 ff ff 	movzwl -0xf40(%rbp),%eax
   11030:	66 85 c0             	test   %ax,%ax
   11033:	74 07                	je     1103c <func_32+0x36e4>
   11035:	b8 01 00 00 00       	mov    $0x1,%eax
   1103a:	eb 05                	jmp    11041 <func_32+0x36e9>
   1103c:	b8 00 00 00 00       	mov    $0x0,%eax
   11041:	89 c2                	mov    %eax,%edx
   11043:	8b 05 4b 77 00 00    	mov    0x774b(%rip),%eax        # 18794 <g_292>
   11049:	39 c2                	cmp    %eax,%edx
   1104b:	0f 97 c2             	seta   %dl
   1104e:	48 8b 05 ab 90 00 00 	mov    0x90ab(%rip),%rax        # 1a100 <g_359>
   11055:	48 8b 00             	mov    (%rax),%rax
   11058:	0f b6 d2             	movzbl %dl,%edx
   1105b:	89 10                	mov    %edx,(%rax)
   1105d:	48 8b 05 94 90 00 00 	mov    0x9094(%rip),%rax        # 1a0f8 <g_360>
   11064:	8b 10                	mov    (%rax),%edx
   11066:	48 8b 85 70 ef ff ff 	mov    -0x1090(%rbp),%rax
   1106d:	89 c1                	mov    %eax,%ecx
   1106f:	48 8b 05 82 90 00 00 	mov    0x9082(%rip),%rax        # 1a0f8 <g_360>
   11076:	21 ca                	and    %ecx,%edx
   11078:	89 10                	mov    %edx,(%rax)
   1107a:	e9 74 04 00 00       	jmpq   114f3 <func_32+0x3b9b>
   1107f:	48 8b 85 78 ef ff ff 	mov    -0x1088(%rbp),%rax
   11086:	0f b6 00             	movzbl (%rax),%eax
   11089:	e9 60 0f 00 00       	jmpq   11fee <func_32+0x4696>
   1108e:	48 b8 ee 01 9e 6d 44 	movabs $0x3de011446d9e01ee,%rax
   11095:	11 e0 3d 
   11098:	48 89 85 88 f1 ff ff 	mov    %rax,-0xe78(%rbp)
   1109f:	c7 85 08 f0 ff ff 35 	movl   $0x40c3bf35,-0xff8(%rbp)
   110a6:	bf c3 40 
   110a9:	c7 85 0c f0 ff ff fe 	movl   $0xfffffffe,-0xff4(%rbp)
   110b0:	ff ff ff 
   110b3:	c7 85 10 f0 ff ff 05 	movl   $0x5,-0xff0(%rbp)
   110ba:	00 00 00 
   110bd:	48 c7 85 e8 f0 ff ff 	movq   $0x0,-0xf18(%rbp)
   110c4:	00 00 00 00 
   110c8:	48 8d 85 e8 f0 ff ff 	lea    -0xf18(%rbp),%rax
   110cf:	48 89 85 90 f1 ff ff 	mov    %rax,-0xe70(%rbp)
   110d6:	c7 85 14 f0 ff ff fa 	movl   $0xfffffffa,-0xfec(%rbp)
   110dd:	ff ff ff 
   110e0:	48 8d 85 c8 f0 ff ff 	lea    -0xf38(%rbp),%rax
   110e7:	48 89 85 10 f5 ff ff 	mov    %rax,-0xaf0(%rbp)
   110ee:	48 8d 85 c8 f0 ff ff 	lea    -0xf38(%rbp),%rax
   110f5:	48 89 85 18 f5 ff ff 	mov    %rax,-0xae8(%rbp)
   110fc:	48 8d 85 c8 f0 ff ff 	lea    -0xf38(%rbp),%rax
   11103:	48 89 85 20 f5 ff ff 	mov    %rax,-0xae0(%rbp)
   1110a:	48 8d 85 c8 f0 ff ff 	lea    -0xf38(%rbp),%rax
   11111:	48 89 85 28 f5 ff ff 	mov    %rax,-0xad8(%rbp)
   11118:	48 8d 85 c8 f0 ff ff 	lea    -0xf38(%rbp),%rax
   1111f:	48 89 85 30 f5 ff ff 	mov    %rax,-0xad0(%rbp)
   11126:	48 8d 85 c8 f0 ff ff 	lea    -0xf38(%rbp),%rax
   1112d:	48 89 85 38 f5 ff ff 	mov    %rax,-0xac8(%rbp)
   11134:	48 8d 85 c8 f0 ff ff 	lea    -0xf38(%rbp),%rax
   1113b:	48 89 85 40 f5 ff ff 	mov    %rax,-0xac0(%rbp)
   11142:	48 8d 85 c8 f0 ff ff 	lea    -0xf38(%rbp),%rax
   11149:	48 89 85 48 f5 ff ff 	mov    %rax,-0xab8(%rbp)
   11150:	48 8d 85 10 f5 ff ff 	lea    -0xaf0(%rbp),%rax
   11157:	48 83 c0 18          	add    $0x18,%rax
   1115b:	48 89 85 d0 f3 ff ff 	mov    %rax,-0xc30(%rbp)
   11162:	48 8d 85 10 f5 ff ff 	lea    -0xaf0(%rbp),%rax
   11169:	48 83 c0 18          	add    $0x18,%rax
   1116d:	48 89 85 d8 f3 ff ff 	mov    %rax,-0xc28(%rbp)
   11174:	48 8d 85 10 f5 ff ff 	lea    -0xaf0(%rbp),%rax
   1117b:	48 83 c0 18          	add    $0x18,%rax
   1117f:	48 89 85 e0 f3 ff ff 	mov    %rax,-0xc20(%rbp)
   11186:	48 8d 85 10 f5 ff ff 	lea    -0xaf0(%rbp),%rax
   1118d:	48 83 c0 18          	add    $0x18,%rax
   11191:	48 89 85 e8 f3 ff ff 	mov    %rax,-0xc18(%rbp)
   11198:	48 8d 85 10 f5 ff ff 	lea    -0xaf0(%rbp),%rax
   1119f:	48 83 c0 18          	add    $0x18,%rax
   111a3:	48 89 85 f0 f3 ff ff 	mov    %rax,-0xc10(%rbp)
   111aa:	48 8d 85 10 f5 ff ff 	lea    -0xaf0(%rbp),%rax
   111b1:	48 83 c0 18          	add    $0x18,%rax
   111b5:	48 89 85 f8 f3 ff ff 	mov    %rax,-0xc08(%rbp)
   111bc:	48 8d 85 10 f5 ff ff 	lea    -0xaf0(%rbp),%rax
   111c3:	48 83 c0 18          	add    $0x18,%rax
   111c7:	48 89 85 00 f4 ff ff 	mov    %rax,-0xc00(%rbp)
   111ce:	48 8b 85 70 ef ff ff 	mov    -0x1090(%rbp),%rax
   111d5:	41 89 c6             	mov    %eax,%r14d
   111d8:	48 8b 05 09 8f 00 00 	mov    0x8f09(%rip),%rax        # 1a0e8 <g_238>
   111df:	0f b6 00             	movzbl (%rax),%eax
   111e2:	0f be d8             	movsbl %al,%ebx
   111e5:	48 8b 05 fc 8e 00 00 	mov    0x8efc(%rip),%rax        # 1a0e8 <g_238>
   111ec:	0f b6 00             	movzbl (%rax),%eax
   111ef:	44 0f be e0          	movsbl %al,%r12d
   111f3:	48 8b 05 b6 75 00 00 	mov    0x75b6(%rip),%rax        # 187b0 <g_396>
   111fa:	44 0f be e8          	movsbl %al,%r13d
   111fe:	48 8b 85 70 ef ff ff 	mov    -0x1090(%rbp),%rax
   11205:	41 89 c7             	mov    %eax,%r15d
   11208:	48 8b 85 70 ef ff ff 	mov    -0x1090(%rbp),%rax
   1120f:	89 85 6c ef ff ff    	mov    %eax,-0x1094(%rbp)
   11215:	48 8b 85 70 ef ff ff 	mov    -0x1090(%rbp),%rax
   1121c:	89 85 68 ef ff ff    	mov    %eax,-0x1098(%rbp)
   11222:	8b 95 0c f0 ff ff    	mov    -0xff4(%rbp),%edx
   11228:	48 8b 8d a0 f0 ff ff 	mov    -0xf60(%rbp),%rcx
   1122f:	48 8b 85 78 ef ff ff 	mov    -0x1088(%rbp),%rax
   11236:	48 39 c1             	cmp    %rax,%rcx
   11239:	0f 95 c0             	setne  %al
   1123c:	0f b6 c0             	movzbl %al,%eax
   1123f:	21 85 08 f0 ff ff    	and    %eax,-0xff8(%rbp)
   11245:	8b 85 08 f0 ff ff    	mov    -0xff8(%rbp),%eax
   1124b:	89 d6                	mov    %edx,%esi
   1124d:	89 c7                	mov    %eax,%edi
   1124f:	e8 d1 5c ff ff       	callq  6f25 <safe_div_func_uint32_t_u_u>
   11254:	89 c1                	mov    %eax,%ecx
   11256:	48 8b 85 70 f0 ff ff 	mov    -0xf90(%rbp),%rax
   1125d:	48 8b 10             	mov    (%rax),%rdx
   11260:	89 c9                	mov    %ecx,%ecx
   11262:	48 8b 85 70 f0 ff ff 	mov    -0xf90(%rbp),%rax
   11269:	48 09 ca             	or     %rcx,%rdx
   1126c:	48 89 10             	mov    %rdx,(%rax)
   1126f:	48 8b 00             	mov    (%rax),%rax
   11272:	48 85 c0             	test   %rax,%rax
   11275:	0f 94 c0             	sete   %al
   11278:	0f b6 c0             	movzbl %al,%eax
   1127b:	8b b5 68 ef ff ff    	mov    -0x1098(%rbp),%esi
   11281:	89 c7                	mov    %eax,%edi
   11283:	e8 7e 5b ff ff       	callq  6e06 <safe_lshift_func_uint16_t_u_u>
   11288:	48 8b 95 88 f1 ff ff 	mov    -0xe78(%rbp),%rdx
   1128f:	48 83 ea 01          	sub    $0x1,%rdx
   11293:	48 89 95 88 f1 ff ff 	mov    %rdx,-0xe78(%rbp)
   1129a:	48 8b 15 5f 8e 00 00 	mov    0x8e5f(%rip),%rdx        # 1a100 <g_359>
   112a1:	48 8b 12             	mov    (%rdx),%rdx
   112a4:	8b 0a                	mov    (%rdx),%ecx
   112a6:	0f b7 d0             	movzwl %ax,%edx
   112a9:	48 8b 05 50 8e 00 00 	mov    0x8e50(%rip),%rax        # 1a100 <g_359>
   112b0:	48 8b 00             	mov    (%rax),%rax
   112b3:	31 ca                	xor    %ecx,%edx
   112b5:	89 10                	mov    %edx,(%rax)
   112b7:	48 8b 05 7a 90 00 00 	mov    0x907a(%rip),%rax        # 1a338 <g_583+0x18>
   112be:	48 39 85 80 f1 ff ff 	cmp    %rax,-0xe80(%rbp)
   112c5:	74 07                	je     112ce <func_32+0x3976>
   112c7:	b8 01 00 00 00       	mov    $0x1,%eax
   112cc:	eb 05                	jmp    112d3 <func_32+0x397b>
   112ce:	b8 00 00 00 00       	mov    $0x0,%eax
   112d3:	8b b5 6c ef ff ff    	mov    -0x1094(%rbp),%esi
   112d9:	89 c7                	mov    %eax,%edi
   112db:	e8 ec 53 ff ff       	callq  66cc <safe_mod_func_int32_t_s_s>
   112e0:	39 85 10 f0 ff ff    	cmp    %eax,-0xff0(%rbp)
   112e6:	0f 95 c2             	setne  %dl
   112e9:	48 8b 85 38 f1 ff ff 	mov    -0xec8(%rbp),%rax
   112f0:	48 8b 00             	mov    (%rax),%rax
   112f3:	48 8b 00             	mov    (%rax),%rax
   112f6:	0f b6 d2             	movzbl %dl,%edx
   112f9:	66 89 10             	mov    %dx,(%rax)
   112fc:	be 09 00 00 00       	mov    $0x9,%esi
   11301:	bf fd ff 00 00       	mov    $0xfffd,%edi
   11306:	e8 b3 5a ff ff       	callq  6dbe <safe_lshift_func_uint16_t_u_s>
   1130b:	0f b7 c0             	movzwl %ax,%eax
   1130e:	44 89 fe             	mov    %r15d,%esi
   11311:	89 c7                	mov    %eax,%edi
   11313:	e8 b4 53 ff ff       	callq  66cc <safe_mod_func_int32_t_s_s>
   11318:	85 c0                	test   %eax,%eax
   1131a:	75 0c                	jne    11328 <func_32+0x39d0>
   1131c:	48 8b 85 70 ef ff ff 	mov    -0x1090(%rbp),%rax
   11323:	48 85 c0             	test   %rax,%rax
   11326:	74 07                	je     1132f <func_32+0x39d7>
   11328:	b8 01 00 00 00       	mov    $0x1,%eax
   1132d:	eb 05                	jmp    11334 <func_32+0x39dc>
   1132f:	b8 00 00 00 00       	mov    $0x0,%eax
   11334:	89 85 04 f0 ff ff    	mov    %eax,-0xffc(%rbp)
   1133a:	48 8b 85 90 f1 ff ff 	mov    -0xe70(%rbp),%rax
   11341:	48 c7 00 00 00 00 00 	movq   $0x0,(%rax)
   11348:	0f b6 45 be          	movzbl -0x42(%rbp),%eax
   1134c:	83 f0 27             	xor    $0x27,%eax
   1134f:	0f be c0             	movsbl %al,%eax
   11352:	be f7 ff ff ff       	mov    $0xfffffff7,%esi
   11357:	89 c7                	mov    %eax,%edi
   11359:	e8 b4 4e ff ff       	callq  6212 <safe_mul_func_int8_t_s_s>
   1135e:	48 8b 05 9b 8f 00 00 	mov    0x8f9b(%rip),%rax        # 1a300 <g_425>
   11365:	8b 00                	mov    (%rax),%eax
   11367:	89 c1                	mov    %eax,%ecx
   11369:	48 8b 85 60 f6 ff ff 	mov    -0x9a0(%rbp),%rax
   11370:	48 8d 15 e1 8e 00 00 	lea    0x8ee1(%rip),%rdx        # 1a258 <g_375+0x38>
   11377:	48 39 d0             	cmp    %rdx,%rax
   1137a:	0f 95 c2             	setne  %dl
   1137d:	48 8b 85 68 f0 ff ff 	mov    -0xf98(%rbp),%rax
   11384:	48 8b 00             	mov    (%rax),%rax
   11387:	0f b6 d2             	movzbl %dl,%edx
   1138a:	89 10                	mov    %edx,(%rax)
   1138c:	8b 00                	mov    (%rax),%eax
   1138e:	89 ce                	mov    %ecx,%esi
   11390:	89 c7                	mov    %eax,%edi
   11392:	e8 1f 52 ff ff       	callq  65b6 <safe_add_func_int32_t_s_s>
   11397:	be fc ff ff ff       	mov    $0xfffffffc,%esi
   1139c:	89 c7                	mov    %eax,%edi
   1139e:	e8 2d 5b ff ff       	callq  6ed0 <safe_sub_func_uint32_t_u_u>
   113a3:	0f be c0             	movsbl %al,%eax
   113a6:	44 89 ee             	mov    %r13d,%esi
   113a9:	89 c7                	mov    %eax,%edi
   113ab:	e8 24 4e ff ff       	callq  61d4 <safe_add_func_int8_t_s_s>
   113b0:	0f be c0             	movsbl %al,%eax
   113b3:	44 89 e6             	mov    %r12d,%esi
   113b6:	89 c7                	mov    %eax,%edi
   113b8:	e8 78 4f ff ff       	callq  6335 <safe_rshift_func_int8_t_s_s>
   113bd:	0f be c0             	movsbl %al,%eax
   113c0:	be 0e 00 00 00       	mov    $0xe,%esi
   113c5:	89 c7                	mov    %eax,%edi
   113c7:	e8 97 51 ff ff       	callq  6563 <safe_rshift_func_int16_t_s_u>
   113cc:	0f b6 c0             	movzbl %al,%eax
   113cf:	89 de                	mov    %ebx,%esi
   113d1:	89 c7                	mov    %eax,%edi
   113d3:	e8 b5 58 ff ff       	callq  6c8d <safe_rshift_func_uint8_t_u_s>
   113d8:	0f b6 c0             	movzbl %al,%eax
   113db:	48 0d ff ff 00 00    	or     $0xffff,%rax
   113e1:	8b 15 a5 73 00 00    	mov    0x73a5(%rip),%edx        # 1878c <g_286>
   113e7:	89 d2                	mov    %edx,%edx
   113e9:	48 89 c6             	mov    %rax,%rsi
   113ec:	48 89 d7             	mov    %rdx,%rdi
   113ef:	e8 3a 5c ff ff       	callq  702e <safe_add_func_uint64_t_u_u>
   113f4:	0f b6 c0             	movzbl %al,%eax
   113f7:	8b 95 14 f0 ff ff    	mov    -0xfec(%rbp),%edx
   113fd:	89 d6                	mov    %edx,%esi
   113ff:	89 c7                	mov    %eax,%edi
   11401:	e8 ff 57 ff ff       	callq  6c05 <safe_lshift_func_uint8_t_u_s>
   11406:	0f b6 c0             	movzbl %al,%eax
   11409:	44 89 f6             	mov    %r14d,%esi
   1140c:	89 c7                	mov    %eax,%edi
   1140e:	e8 ea 5a ff ff       	callq  6efd <safe_mod_func_uint32_t_u_u>
   11413:	89 85 e8 ef ff ff    	mov    %eax,-0x1018(%rbp)
   11419:	0f b6 05 6a 73 00 00 	movzbl 0x736a(%rip),%eax        # 1878a <g_269>
   11420:	84 c0                	test   %al,%al
   11422:	74 05                	je     11429 <func_32+0x3ad1>
   11424:	e9 9e d4 ff ff       	jmpq   e8c7 <func_32+0xf6f>
   11429:	0f b6 45 be          	movzbl -0x42(%rbp),%eax
   1142d:	0f be d0             	movsbl %al,%edx
   11430:	8b 85 d0 f0 ff ff    	mov    -0xf30(%rbp),%eax
   11436:	0f b6 c0             	movzbl %al,%eax
   11439:	89 d6                	mov    %edx,%esi
   1143b:	89 c7                	mov    %eax,%edi
   1143d:	e8 4b 58 ff ff       	callq  6c8d <safe_rshift_func_uint8_t_u_s>
   11442:	84 c0                	test   %al,%al
   11444:	74 08                	je     1144e <func_32+0x3af6>
   11446:	8b 05 48 73 00 00    	mov    0x7348(%rip),%eax        # 18794 <g_292>
   1144c:	85 c0                	test   %eax,%eax
   1144e:	48 8b 85 70 ef ff ff 	mov    -0x1090(%rbp),%rax
   11455:	89 c3                	mov    %eax,%ebx
   11457:	48 8b 85 78 ef ff ff 	mov    -0x1088(%rbp),%rax
   1145e:	0f b6 00             	movzbl (%rax),%eax
   11461:	0f b6 d0             	movzbl %al,%edx
   11464:	48 8b 85 70 ef ff ff 	mov    -0x1090(%rbp),%rax
   1146b:	83 f0 01             	xor    $0x1,%eax
   1146e:	0f b6 c0             	movzbl %al,%eax
   11471:	89 d6                	mov    %edx,%esi
   11473:	89 c7                	mov    %eax,%edi
   11475:	e8 61 57 ff ff       	callq  6bdb <safe_div_func_uint8_t_u_u>
   1147a:	0f b6 d0             	movzbl %al,%edx
   1147d:	48 8b 85 10 f5 ff ff 	mov    -0xaf0(%rbp),%rax
   11484:	48 89 05 15 a0 00 00 	mov    %rax,0xa015(%rip)        # 1b4a0 <g_599>
   1148b:	48 8b 05 0e a0 00 00 	mov    0xa00e(%rip),%rax        # 1b4a0 <g_599>
   11492:	48 39 85 50 f1 ff ff 	cmp    %rax,-0xeb0(%rbp)
   11499:	0f 95 c0             	setne  %al
   1149c:	0f b6 c0             	movzbl %al,%eax
   1149f:	39 c2                	cmp    %eax,%edx
   114a1:	0f 95 c0             	setne  %al
   114a4:	0f b6 c0             	movzbl %al,%eax
   114a7:	89 de                	mov    %ebx,%esi
   114a9:	89 c7                	mov    %eax,%edi
   114ab:	e8 9c 57 ff ff       	callq  6c4c <safe_lshift_func_uint8_t_u_u>
   114b0:	0f b6 c0             	movzbl %al,%eax
   114b3:	89 c6                	mov    %eax,%esi
   114b5:	bf 9a ff ff ff       	mov    $0xffffff9a,%edi
   114ba:	e8 76 4e ff ff       	callq  6335 <safe_rshift_func_int8_t_s_s>
   114bf:	89 c2                	mov    %eax,%edx
   114c1:	48 8b 05 18 8c 00 00 	mov    0x8c18(%rip),%rax        # 1a0e0 <g_98>
   114c8:	0f be d2             	movsbl %dl,%edx
   114cb:	89 10                	mov    %edx,(%rax)
   114cd:	48 8b 05 cc 9f 00 00 	mov    0x9fcc(%rip),%rax        # 1b4a0 <g_599>
   114d4:	48 8b 00             	mov    (%rax),%rax
   114d7:	48 8b 10             	mov    (%rax),%rdx
   114da:	48 8b 85 78 ef ff ff 	mov    -0x1088(%rbp),%rax
   114e1:	48 39 c2             	cmp    %rax,%rdx
   114e4:	0f 95 c0             	setne  %al
   114e7:	0f b6 d0             	movzbl %al,%edx
   114ea:	48 8b 85 28 f1 ff ff 	mov    -0xed8(%rbp),%rax
   114f1:	89 10                	mov    %edx,(%rax)
   114f3:	48 8b 85 b0 f0 ff ff 	mov    -0xf50(%rbp),%rax
   114fa:	48 8b 00             	mov    (%rax),%rax
   114fd:	0f b6 10             	movzbl (%rax),%edx
   11500:	83 c2 01             	add    $0x1,%edx
   11503:	88 10                	mov    %dl,(%rax)
   11505:	0f b6 10             	movzbl (%rax),%edx
   11508:	48 8b 05 f1 8b 00 00 	mov    0x8bf1(%rip),%rax        # 1a100 <g_359>
   1150f:	48 8b 00             	mov    (%rax),%rax
   11512:	0f b6 d2             	movzbl %dl,%edx
   11515:	89 10                	mov    %edx,(%rax)
   11517:	48 8b 85 68 f0 ff ff 	mov    -0xf98(%rbp),%rax
   1151e:	48 8b 00             	mov    (%rax),%rax
   11521:	48 89 85 80 f0 ff ff 	mov    %rax,-0xf80(%rbp)
   11528:	48 8b 85 80 f0 ff ff 	mov    -0xf80(%rbp),%rax
   1152f:	48 89 85 58 f1 ff ff 	mov    %rax,-0xea8(%rbp)
   11536:	48 8b 85 58 f1 ff ff 	mov    -0xea8(%rbp),%rax
   1153d:	48 89 05 0c 8e 00 00 	mov    %rax,0x8e0c(%rip)        # 1a350 <g_612>
   11544:	e9 db 05 00 00       	jmpq   11b24 <func_32+0x41cc>
   11549:	c7 85 c0 ef ff ff 07 	movl   $0x7,-0x1040(%rbp)
   11550:	00 00 00 
   11553:	c7 85 f0 ef ff ff f7 	movl   $0xfffffff7,-0x1010(%rbp)
   1155a:	ff ff ff 
   1155d:	c7 85 f4 ef ff ff 03 	movl   $0x3,-0x100c(%rbp)
   11564:	00 00 00 
   11567:	c7 85 10 f5 ff ff ff 	movl   $0xffffffff,-0xaf0(%rbp)
   1156e:	ff ff ff 
   11571:	c7 85 14 f5 ff ff 05 	movl   $0x5,-0xaec(%rbp)
   11578:	00 00 00 
   1157b:	c7 85 18 f5 ff ff fa 	movl   $0xfffffffa,-0xae8(%rbp)
   11582:	ff ff ff 
   11585:	c7 85 1c f5 ff ff 05 	movl   $0x5,-0xae4(%rbp)
   1158c:	00 00 00 
   1158f:	c7 85 20 f5 ff ff 05 	movl   $0x5,-0xae0(%rbp)
   11596:	00 00 00 
   11599:	c7 85 24 f5 ff ff fa 	movl   $0xfffffffa,-0xadc(%rbp)
   115a0:	ff ff ff 
   115a3:	c7 85 28 f5 ff ff 05 	movl   $0x5,-0xad8(%rbp)
   115aa:	00 00 00 
   115ad:	c7 85 2c f5 ff ff ff 	movl   $0xffffffff,-0xad4(%rbp)
   115b4:	ff ff ff 
   115b7:	c7 85 30 f5 ff ff ff 	movl   $0xffffffff,-0xad0(%rbp)
   115be:	ff ff ff 
   115c1:	c7 85 34 f5 ff ff 4a 	movl   $0xa4cbf84a,-0xacc(%rbp)
   115c8:	f8 cb a4 
   115cb:	c7 85 38 f5 ff ff 82 	movl   $0x8e46e982,-0xac8(%rbp)
   115d2:	e9 46 8e 
   115d5:	c7 85 3c f5 ff ff 01 	movl   $0x1,-0xac4(%rbp)
   115dc:	00 00 00 
   115df:	c7 85 40 f5 ff ff 2f 	movl   $0xecbc252f,-0xac0(%rbp)
   115e6:	25 bc ec 
   115e9:	c7 85 44 f5 ff ff fa 	movl   $0xfffffffa,-0xabc(%rbp)
   115f0:	ff ff ff 
   115f3:	c7 85 48 f5 ff ff fa 	movl   $0xfffffffa,-0xab8(%rbp)
   115fa:	ff ff ff 
   115fd:	c7 85 4c f5 ff ff 2f 	movl   $0xecbc252f,-0xab4(%rbp)
   11604:	25 bc ec 
   11607:	c7 85 50 f5 ff ff 01 	movl   $0x1,-0xab0(%rbp)
   1160e:	00 00 00 
   11611:	c7 85 54 f5 ff ff 82 	movl   $0x8e46e982,-0xaac(%rbp)
   11618:	e9 46 8e 
   1161b:	c7 85 58 f5 ff ff 05 	movl   $0x5,-0xaa8(%rbp)
   11622:	00 00 00 
   11625:	c7 85 5c f5 ff ff ff 	movl   $0xffffffff,-0xaa4(%rbp)
   1162c:	ff ff ff 
   1162f:	c7 85 60 f5 ff ff f7 	movl   $0xfffffff7,-0xaa0(%rbp)
   11636:	ff ff ff 
   11639:	c7 85 64 f5 ff ff ff 	movl   $0xffffffff,-0xa9c(%rbp)
   11640:	ff ff ff 
   11643:	c7 85 68 f5 ff ff 38 	movl   $0xa1867538,-0xa98(%rbp)
   1164a:	75 86 a1 
   1164d:	c7 85 6c f5 ff ff 34 	movl   $0x8e78c534,-0xa94(%rbp)
   11654:	c5 78 8e 
   11657:	c7 85 70 f5 ff ff 34 	movl   $0x8e78c534,-0xa90(%rbp)
   1165e:	c5 78 8e 
   11661:	c7 85 74 f5 ff ff 38 	movl   $0xa1867538,-0xa8c(%rbp)
   11668:	75 86 a1 
   1166b:	c7 85 78 f5 ff ff ff 	movl   $0xffffffff,-0xa88(%rbp)
   11672:	ff ff ff 
   11675:	c7 85 7c f5 ff ff 09 	movl   $0x9,-0xa84(%rbp)
   1167c:	00 00 00 
   1167f:	c7 85 80 f5 ff ff 7f 	movl   $0x9ab6927f,-0xa80(%rbp)
   11686:	92 b6 9a 
   11689:	c7 85 84 f5 ff ff 09 	movl   $0x9,-0xa7c(%rbp)
   11690:	00 00 00 
   11693:	c7 85 88 f5 ff ff 06 	movl   $0x6,-0xa78(%rbp)
   1169a:	00 00 00 
   1169d:	c7 85 8c f5 ff ff 2f 	movl   $0xecbc252f,-0xa74(%rbp)
   116a4:	25 bc ec 
   116a7:	c7 85 90 f5 ff ff 4a 	movl   $0xa4cbf84a,-0xa70(%rbp)
   116ae:	f8 cb a4 
   116b1:	c7 85 94 f5 ff ff 00 	movl   $0x0,-0xa6c(%rbp)
   116b8:	00 00 00 
   116bb:	c7 85 98 f5 ff ff 00 	movl   $0x0,-0xa68(%rbp)
   116c2:	00 00 00 
   116c5:	c7 85 9c f5 ff ff 4a 	movl   $0xa4cbf84a,-0xa64(%rbp)
   116cc:	f8 cb a4 
   116cf:	c7 85 a0 f5 ff ff f7 	movl   $0xfffffff7,-0xa60(%rbp)
   116d6:	ff ff ff 
   116d9:	c7 85 a4 f5 ff ff ff 	movl   $0xffffffff,-0xa5c(%rbp)
   116e0:	ff ff ff 
   116e3:	c7 85 a8 f5 ff ff 05 	movl   $0x5,-0xa58(%rbp)
   116ea:	00 00 00 
   116ed:	c7 85 ac f5 ff ff ff 	movl   $0xffffffff,-0xa54(%rbp)
   116f4:	ff ff ff 
   116f7:	c7 85 b0 f5 ff ff f7 	movl   $0xfffffff7,-0xa50(%rbp)
   116fe:	ff ff ff 
   11701:	c7 85 b4 f5 ff ff ff 	movl   $0xffffffff,-0xa4c(%rbp)
   11708:	ff ff ff 
   1170b:	c7 85 b8 f5 ff ff 38 	movl   $0xa1867538,-0xa48(%rbp)
   11712:	75 86 a1 
   11715:	c7 85 bc f5 ff ff 34 	movl   $0x8e78c534,-0xa44(%rbp)
   1171c:	c5 78 8e 
   1171f:	c7 85 c0 f5 ff ff 34 	movl   $0x8e78c534,-0xa40(%rbp)
   11726:	c5 78 8e 
   11729:	c7 85 c4 f5 ff ff 01 	movl   $0x1,-0xa3c(%rbp)
   11730:	00 00 00 
   11733:	c7 85 c8 f5 ff ff 82 	movl   $0x8e46e982,-0xa38(%rbp)
   1173a:	e9 46 8e 
   1173d:	c7 85 cc f5 ff ff 4a 	movl   $0xa4cbf84a,-0xa34(%rbp)
   11744:	f8 cb a4 
   11747:	c7 85 d0 f5 ff ff 06 	movl   $0x6,-0xa30(%rbp)
   1174e:	00 00 00 
   11751:	c7 85 d4 f5 ff ff 4a 	movl   $0xa4cbf84a,-0xa2c(%rbp)
   11758:	f8 cb a4 
   1175b:	c7 85 d8 f5 ff ff 82 	movl   $0x8e46e982,-0xa28(%rbp)
   11762:	e9 46 8e 
   11765:	c7 85 dc f5 ff ff 01 	movl   $0x1,-0xa24(%rbp)
   1176c:	00 00 00 
   1176f:	c7 85 e0 f5 ff ff 2f 	movl   $0xecbc252f,-0xa20(%rbp)
   11776:	25 bc ec 
   11779:	c7 85 e4 f5 ff ff fa 	movl   $0xfffffffa,-0xa1c(%rbp)
   11780:	ff ff ff 
   11783:	48 c7 85 60 f1 ff ff 	movq   $0x8,-0xea0(%rbp)
   1178a:	08 00 00 00 
   1178e:	48 8b 05 7b 8a 00 00 	mov    0x8a7b(%rip),%rax        # 1a210 <g_364>
   11795:	48 8b 10             	mov    (%rax),%rdx
   11798:	48 8b 85 68 f0 ff ff 	mov    -0xf98(%rbp),%rax
   1179f:	48 8b 12             	mov    (%rdx),%rdx
   117a2:	48 89 10             	mov    %rdx,(%rax)
   117a5:	0f b6 85 7c f7 ff ff 	movzbl -0x884(%rbp),%eax
   117ac:	83 e8 01             	sub    $0x1,%eax
   117af:	88 85 7c f7 ff ff    	mov    %al,-0x884(%rbp)
   117b5:	48 8b 05 2c 89 00 00 	mov    0x892c(%rip),%rax        # 1a0e8 <g_238>
   117bc:	0f b6 00             	movzbl (%rax),%eax
   117bf:	84 c0                	test   %al,%al
   117c1:	0f 94 c0             	sete   %al
   117c4:	0f b6 d0             	movzbl %al,%edx
   117c7:	48 8b 85 58 f1 ff ff 	mov    -0xea8(%rbp),%rax
   117ce:	8b 00                	mov    (%rax),%eax
   117d0:	39 c2                	cmp    %eax,%edx
   117d2:	0f 9c c2             	setl   %dl
   117d5:	48 8b 85 68 f0 ff ff 	mov    -0xf98(%rbp),%rax
   117dc:	48 8b 00             	mov    (%rax),%rax
   117df:	0f b6 d2             	movzbl %dl,%edx
   117e2:	89 10                	mov    %edx,(%rax)
   117e4:	c7 85 c0 ef ff ff 05 	movl   $0x5,-0x1040(%rbp)
   117eb:	00 00 00 
   117ee:	e9 24 03 00 00       	jmpq   11b17 <func_32+0x41bf>
   117f3:	c6 85 8a ef ff ff 01 	movb   $0x1,-0x1076(%rbp)
   117fa:	c7 85 f8 ef ff ff 03 	movl   $0x3,-0x1008(%rbp)
   11801:	00 00 00 
   11804:	c7 85 30 f8 ff ff fe 	movl   $0xfffffffe,-0x7d0(%rbp)
   1180b:	ff ff ff 
   1180e:	c7 85 34 f8 ff ff 04 	movl   $0x4,-0x7cc(%rbp)
   11815:	00 00 00 
   11818:	c7 85 38 f8 ff ff 04 	movl   $0x4,-0x7c8(%rbp)
   1181f:	00 00 00 
   11822:	c7 85 3c f8 ff ff fe 	movl   $0xfffffffe,-0x7c4(%rbp)
   11829:	ff ff ff 
   1182c:	c7 85 40 f8 ff ff 00 	movl   $0x0,-0x7c0(%rbp)
   11833:	00 00 00 
   11836:	c7 85 44 f8 ff ff ff 	movl   $0xffffffff,-0x7bc(%rbp)
   1183d:	ff ff ff 
   11840:	c7 85 48 f8 ff ff 94 	movl   $0x5f4b9094,-0x7b8(%rbp)
   11847:	90 4b 5f 
   1184a:	c7 85 4c f8 ff ff 54 	movl   $0x6126a054,-0x7b4(%rbp)
   11851:	a0 26 61 
   11854:	c7 85 50 f8 ff ff f6 	movl   $0xfffffff6,-0x7b0(%rbp)
   1185b:	ff ff ff 
   1185e:	c7 85 54 f8 ff ff ff 	movl   $0xffffffff,-0x7ac(%rbp)
   11865:	ff ff ff 
   11868:	c7 85 58 f8 ff ff ff 	movl   $0xffffffff,-0x7a8(%rbp)
   1186f:	ff ff ff 
   11872:	c7 85 5c f8 ff ff 6b 	movl   $0xb86bfe6b,-0x7a4(%rbp)
   11879:	fe 6b b8 
   1187c:	c7 85 60 f8 ff ff ff 	movl   $0xffffffff,-0x7a0(%rbp)
   11883:	ff ff ff 
   11886:	c7 85 64 f8 ff ff 00 	movl   $0x0,-0x79c(%rbp)
   1188d:	00 00 00 
   11890:	c7 85 68 f8 ff ff fa 	movl   $0xaf4d58fa,-0x798(%rbp)
   11897:	58 4d af 
   1189a:	c7 85 6c f8 ff ff 00 	movl   $0x0,-0x794(%rbp)
   118a1:	00 00 00 
   118a4:	c7 85 70 f8 ff ff ff 	movl   $0xffffffff,-0x790(%rbp)
   118ab:	ff ff ff 
   118ae:	c7 85 74 f8 ff ff 01 	movl   $0x1,-0x78c(%rbp)
   118b5:	00 00 00 
   118b8:	c7 85 78 f8 ff ff 6b 	movl   $0xb86bfe6b,-0x788(%rbp)
   118bf:	fe 6b b8 
   118c2:	c7 85 7c f8 ff ff 54 	movl   $0x6126a054,-0x784(%rbp)
   118c9:	a0 26 61 
   118cc:	c7 85 80 f8 ff ff a2 	movl   $0xd4600aa2,-0x780(%rbp)
   118d3:	0a 60 d4 
   118d6:	c7 85 84 f8 ff ff e0 	movl   $0x6b0921e0,-0x77c(%rbp)
   118dd:	21 09 6b 
   118e0:	c7 85 88 f8 ff ff 00 	movl   $0x0,-0x778(%rbp)
   118e7:	00 00 00 
   118ea:	c7 85 8c f8 ff ff f6 	movl   $0xfffffff6,-0x774(%rbp)
   118f1:	ff ff ff 
   118f4:	c7 85 90 f8 ff ff f6 	movl   $0xfffffff6,-0x770(%rbp)
   118fb:	ff ff ff 
   118fe:	c7 85 94 f8 ff ff 04 	movl   $0x4,-0x76c(%rbp)
   11905:	00 00 00 
   11908:	c7 85 98 f8 ff ff 54 	movl   $0x6126a054,-0x768(%rbp)
   1190f:	a0 26 61 
   11912:	c7 85 9c f8 ff ff 54 	movl   $0x6126a054,-0x764(%rbp)
   11919:	a0 26 61 
   1191c:	c7 85 a0 f8 ff ff 04 	movl   $0x4,-0x760(%rbp)
   11923:	00 00 00 
   11926:	c7 85 a4 f8 ff ff f6 	movl   $0xfffffff6,-0x75c(%rbp)
   1192d:	ff ff ff 
   11930:	c7 85 a8 f8 ff ff e0 	movl   $0x6b0921e0,-0x758(%rbp)
   11937:	21 09 6b 
   1193a:	c7 85 ac f8 ff ff ff 	movl   $0xffffffff,-0x754(%rbp)
   11941:	ff ff ff 
   11944:	c7 85 b0 f8 ff ff a2 	movl   $0xd4600aa2,-0x750(%rbp)
   1194b:	0a 60 d4 
   1194e:	c7 85 b4 f8 ff ff ff 	movl   $0xffffffff,-0x74c(%rbp)
   11955:	ff ff ff 
   11958:	c7 85 b8 f8 ff ff f6 	movl   $0xfffffff6,-0x748(%rbp)
   1195f:	ff ff ff 
   11962:	c7 85 bc f8 ff ff 01 	movl   $0x1,-0x744(%rbp)
   11969:	00 00 00 
   1196c:	c7 85 c0 f8 ff ff 04 	movl   $0x4,-0x740(%rbp)
   11973:	00 00 00 
   11976:	c7 85 c4 f8 ff ff 6b 	movl   $0xb86bfe6b,-0x73c(%rbp)
   1197d:	fe 6b b8 
   11980:	c7 85 c8 f8 ff ff fa 	movl   $0xaf4d58fa,-0x738(%rbp)
   11987:	58 4d af 
   1198a:	c7 85 cc f8 ff ff f6 	movl   $0xfffffff6,-0x734(%rbp)
   11991:	ff ff ff 
   11994:	c7 85 d0 f8 ff ff fa 	movl   $0xaf4d58fa,-0x730(%rbp)
   1199b:	58 4d af 
   1199e:	c7 85 d4 f8 ff ff 6b 	movl   $0xb86bfe6b,-0x72c(%rbp)
   119a5:	fe 6b b8 
   119a8:	c7 85 d8 f8 ff ff 04 	movl   $0x4,-0x728(%rbp)
   119af:	00 00 00 
   119b2:	c7 85 dc f8 ff ff 01 	movl   $0x1,-0x724(%rbp)
   119b9:	00 00 00 
   119bc:	c7 85 e0 f8 ff ff f6 	movl   $0xfffffff6,-0x720(%rbp)
   119c3:	ff ff ff 
   119c6:	c7 85 e4 f8 ff ff ff 	movl   $0xffffffff,-0x71c(%rbp)
   119cd:	ff ff ff 
   119d0:	c7 85 e8 f8 ff ff a2 	movl   $0xd4600aa2,-0x718(%rbp)
   119d7:	0a 60 d4 
   119da:	c7 85 ec f8 ff ff ff 	movl   $0xffffffff,-0x714(%rbp)
   119e1:	ff ff ff 
   119e4:	c7 85 f0 f8 ff ff e0 	movl   $0x6b0921e0,-0x710(%rbp)
   119eb:	21 09 6b 
   119ee:	c7 85 f4 f8 ff ff f6 	movl   $0xfffffff6,-0x70c(%rbp)
   119f5:	ff ff ff 
   119f8:	c7 85 f8 f8 ff ff 04 	movl   $0x4,-0x708(%rbp)
   119ff:	00 00 00 
   11a02:	c7 85 fc f8 ff ff 54 	movl   $0x6126a054,-0x704(%rbp)
   11a09:	a0 26 61 
   11a0c:	c7 85 00 f9 ff ff 54 	movl   $0x6126a054,-0x700(%rbp)
   11a13:	a0 26 61 
   11a16:	c7 85 04 f9 ff ff 04 	movl   $0x4,-0x6fc(%rbp)
   11a1d:	00 00 00 
   11a20:	48 8d 85 80 f0 ff ff 	lea    -0xf80(%rbp),%rax
   11a27:	48 89 85 e0 f0 ff ff 	mov    %rax,-0xf20(%rbp)
   11a2e:	48 8d 85 e0 f0 ff ff 	lea    -0xf20(%rbp),%rax
   11a35:	48 89 85 e8 f0 ff ff 	mov    %rax,-0xf18(%rbp)
   11a3c:	48 8d 85 e8 f0 ff ff 	lea    -0xf18(%rbp),%rax
   11a43:	48 89 85 68 f1 ff ff 	mov    %rax,-0xe98(%rbp)
   11a4a:	80 85 89 ef ff ff 01 	addb   $0x1,-0x1077(%rbp)
   11a51:	be fd ff ff ff       	mov    $0xfffffffd,%esi
   11a56:	bf e6 39 00 00       	mov    $0x39e6,%edi
   11a5b:	e8 b6 49 ff ff       	callq  6416 <safe_mod_func_int16_t_s_s>
   11a60:	48 8b 85 78 ef ff ff 	mov    -0x1088(%rbp),%rax
   11a67:	0f b6 00             	movzbl (%rax),%eax
   11a6a:	0f be d0             	movsbl %al,%edx
   11a6d:	48 8b 85 70 ef ff ff 	mov    -0x1090(%rbp),%rax
   11a74:	98                   	cwtl   
   11a75:	89 d6                	mov    %edx,%esi
   11a77:	89 c7                	mov    %eax,%edi
   11a79:	e8 77 49 ff ff       	callq  63f5 <safe_mul_func_int16_t_s_s>
   11a7e:	0f bf d0             	movswl %ax,%edx
   11a81:	48 8b 85 70 ef ff ff 	mov    -0x1090(%rbp),%rax
   11a88:	48 3d af 45 fe 4c    	cmp    $0x4cfe45af,%rax
   11a8e:	0f 9e c0             	setle  %al
   11a91:	0f b6 c0             	movzbl %al,%eax
   11a94:	39 c2                	cmp    %eax,%edx
   11a96:	0f 94 c0             	sete   %al
   11a99:	0f b6 c0             	movzbl %al,%eax
   11a9c:	89 85 e0 f5 ff ff    	mov    %eax,-0xa20(%rbp)
   11aa2:	8b 95 e0 f5 ff ff    	mov    -0xa20(%rbp),%edx
   11aa8:	48 8b 05 49 88 00 00 	mov    0x8849(%rip),%rax        # 1a2f8 <g_374>
   11aaf:	48 8b 00             	mov    (%rax),%rax
   11ab2:	89 10                	mov    %edx,(%rax)
   11ab4:	8b 00                	mov    (%rax),%eax
   11ab6:	89 c2                	mov    %eax,%edx
   11ab8:	48 8b 85 70 ef ff ff 	mov    -0x1090(%rbp),%rax
   11abf:	48 39 c2             	cmp    %rax,%rdx
   11ac2:	48 8b 05 37 86 00 00 	mov    0x8637(%rip),%rax        # 1a100 <g_359>
   11ac9:	48 8b 00             	mov    (%rax),%rax
   11acc:	c7 00 ab 6a 2c 73    	movl   $0x732c6aab,(%rax)
   11ad2:	c6 85 8a ef ff ff 04 	movb   $0x4,-0x1076(%rbp)
   11ad9:	80 bd 8a ef ff ff 00 	cmpb   $0x0,-0x1076(%rbp)
   11ae0:	7e 2e                	jle    11b10 <func_32+0x41b8>
   11ae2:	8b 85 c0 ef ff ff    	mov    -0x1040(%rbp),%eax
   11ae8:	83 c0 01             	add    $0x1,%eax
   11aeb:	48 63 c8             	movslq %eax,%rcx
   11aee:	8b 85 c0 ef ff ff    	mov    -0x1040(%rbp),%eax
   11af4:	48 63 d0             	movslq %eax,%rdx
   11af7:	48 89 d0             	mov    %rdx,%rax
   11afa:	48 c1 e0 03          	shl    $0x3,%rax
   11afe:	48 01 d0             	add    %rdx,%rax
   11b01:	48 01 c8             	add    %rcx,%rax
   11b04:	8b 84 85 10 f5 ff ff 	mov    -0xaf0(%rbp,%rax,4),%eax
   11b0b:	e9 de 04 00 00       	jmpq   11fee <func_32+0x4696>
   11b10:	83 ad c0 ef ff ff 01 	subl   $0x1,-0x1040(%rbp)
   11b17:	83 bd c0 ef ff ff 00 	cmpl   $0x0,-0x1040(%rbp)
   11b1e:	0f 8f cf fc ff ff    	jg     117f3 <func_32+0x3e9b>
   11b24:	48 8b 85 70 ef ff ff 	mov    -0x1090(%rbp),%rax
   11b2b:	0f b7 d8             	movzwl %ax,%ebx
   11b2e:	be 09 00 00 00       	mov    $0x9,%esi
   11b33:	bf f7 ff ff ff       	mov    $0xfffffff7,%edi
   11b38:	e8 96 48 ff ff       	callq  63d3 <safe_sub_func_int16_t_s_s>
   11b3d:	0f b6 05 44 99 00 00 	movzbl 0x9944(%rip),%eax        # 1b488 <g_2>
   11b44:	4c 0f be e0          	movsbq %al,%r12
   11b48:	48 8b 85 70 ef ff ff 	mov    -0x1090(%rbp),%rax
   11b4f:	41 89 c5             	mov    %eax,%r13d
   11b52:	48 8b 95 70 ef ff ff 	mov    -0x1090(%rbp),%rdx
   11b59:	48 8b 85 70 ef ff ff 	mov    -0x1090(%rbp),%rax
   11b60:	48 89 d6             	mov    %rdx,%rsi
   11b63:	48 89 c7             	mov    %rax,%rdi
   11b66:	e8 49 4e ff ff       	callq  69b4 <safe_mod_func_int64_t_s_s>
   11b6b:	8b 05 47 67 00 00    	mov    0x6747(%rip),%eax        # 182b8 <g_176+0x238>
   11b71:	0f b7 c0             	movzwl %ax,%eax
   11b74:	be e8 fc 00 00       	mov    $0xfce8,%esi
   11b79:	89 c7                	mov    %eax,%edi
   11b7b:	e8 bd 51 ff ff       	callq  6d3d <safe_mul_func_uint16_t_u_u>
   11b80:	0f b7 c0             	movzwl %ax,%eax
   11b83:	48 be fe 81 a4 a9 09 	movabs $0x35ee0809a9a481fe,%rsi
   11b8a:	08 ee 35 
   11b8d:	48 89 c7             	mov    %rax,%rdi
   11b90:	e8 13 4d ff ff       	callq  68a8 <safe_sub_func_int64_t_s_s>
   11b95:	98                   	cwtl   
   11b96:	be 05 00 00 00       	mov    $0x5,%esi
   11b9b:	89 c7                	mov    %eax,%edi
   11b9d:	e8 b3 48 ff ff       	callq  6455 <safe_div_func_int16_t_s_s>
   11ba2:	b8 09 00 00 00       	mov    $0x9,%eax
   11ba7:	0f b7 c0             	movzwl %ax,%eax
   11baa:	be 03 00 00 00       	mov    $0x3,%esi
   11baf:	89 c7                	mov    %eax,%edi
   11bb1:	e8 c4 52 ff ff       	callq  6e7a <safe_rshift_func_uint16_t_u_u>
   11bb6:	44 89 ee             	mov    %r13d,%esi
   11bb9:	bf 01 00 00 00       	mov    $0x1,%edi
   11bbe:	e8 f5 52 ff ff       	callq  6eb8 <safe_add_func_uint32_t_u_u>
   11bc3:	89 c0                	mov    %eax,%eax
   11bc5:	4c 89 e6             	mov    %r12,%rsi
   11bc8:	48 89 c7             	mov    %rax,%rdi
   11bcb:	e8 27 4e ff ff       	callq  69f7 <safe_div_func_int64_t_s_s>
   11bd0:	48 c7 c6 fa ff ff ff 	mov    $0xfffffffffffffffa,%rsi
   11bd7:	bf 01 00 00 00       	mov    $0x1,%edi
   11bdc:	e8 ce 54 ff ff       	callq  70af <safe_div_func_uint64_t_u_u>
   11be1:	0f be c0             	movsbl %al,%eax
   11be4:	89 c6                	mov    %eax,%esi
   11be6:	bf 23 00 00 00       	mov    $0x23,%edi
   11beb:	e8 7a 46 ff ff       	callq  626a <safe_div_func_int8_t_s_s>
   11bf0:	66 98                	cbtw   
   11bf2:	0f b7 c0             	movzwl %ax,%eax
   11bf5:	89 de                	mov    %ebx,%esi
   11bf7:	89 c7                	mov    %eax,%edi
   11bf9:	e8 01 51 ff ff       	callq  6cff <safe_add_func_uint16_t_u_u>
   11bfe:	0f b7 d0             	movzwl %ax,%edx
   11c01:	48 8b 85 08 f1 ff ff 	mov    -0xef8(%rbp),%rax
   11c08:	89 10                	mov    %edx,(%rax)
   11c0a:	48 8b 85 08 f1 ff ff 	mov    -0xef8(%rbp),%rax
   11c11:	8b 00                	mov    (%rax),%eax
   11c13:	89 c2                	mov    %eax,%edx
   11c15:	48 8b 85 70 ef ff ff 	mov    -0x1090(%rbp),%rax
   11c1c:	48 39 c2             	cmp    %rax,%rdx
   11c1f:	48 8b 85 68 f0 ff ff 	mov    -0xf98(%rbp),%rax
   11c26:	48 8b 00             	mov    (%rax),%rax
   11c29:	c7 00 31 b0 94 51    	movl   $0x5194b031,(%rax)
   11c2f:	8b 00                	mov    (%rax),%eax
   11c31:	09 85 d4 ef ff ff    	or     %eax,-0x102c(%rbp)
   11c37:	c7 05 4b 6b 00 00 ee 	movl   $0xffffffee,0x6b4b(%rip)        # 1878c <g_286>
   11c3e:	ff ff ff 
   11c41:	e9 ab 00 00 00       	jmpq   11cf1 <func_32+0x4399>
   11c46:	48 8d 85 30 f8 ff ff 	lea    -0x7d0(%rbp),%rax
   11c4d:	48 8d 15 ec 2c 00 00 	lea    0x2cec(%rip),%rdx        # 14940 <g_2736+0x8d0>
   11c54:	b9 5a 00 00 00       	mov    $0x5a,%ecx
   11c59:	48 89 c7             	mov    %rax,%rdi
   11c5c:	48 89 d6             	mov    %rdx,%rsi
   11c5f:	f3 48 a5             	rep movsq %ds:(%rsi),%es:(%rdi)
   11c62:	48 8d 85 e0 f6 ff ff 	lea    -0x920(%rbp),%rax
   11c69:	48 8d 15 b0 2f 00 00 	lea    0x2fb0(%rip),%rdx        # 14c20 <g_2736+0xbb0>
   11c70:	b9 2a 00 00 00       	mov    $0x2a,%ecx
   11c75:	48 89 c7             	mov    %rax,%rdi
   11c78:	48 89 d6             	mov    %rdx,%rsi
   11c7b:	f3 48 a5             	rep movsq %ds:(%rsi),%es:(%rdi)
   11c7e:	c7 85 54 f0 ff ff ee 	movl   $0xf49c96ee,-0xfac(%rbp)
   11c85:	96 9c f4 
   11c88:	48 8d 85 90 f0 ff ff 	lea    -0xf70(%rbp),%rax
   11c8f:	48 89 85 a0 f2 ff ff 	mov    %rax,-0xd60(%rbp)
   11c96:	66 c7 85 9a ef ff ff 	movw   $0x1,-0x1066(%rbp)
   11c9d:	01 00 
   11c9f:	48 8d 05 4a 84 00 00 	lea    0x844a(%rip),%rax        # 1a0f0 <g_332>
   11ca6:	48 89 85 e0 f0 ff ff 	mov    %rax,-0xf20(%rbp)
   11cad:	48 8d 85 e0 f0 ff ff 	lea    -0xf20(%rbp),%rax
   11cb4:	48 89 85 e8 f0 ff ff 	mov    %rax,-0xf18(%rbp)
   11cbb:	48 8d 85 e8 f0 ff ff 	lea    -0xf18(%rbp),%rax
   11cc2:	48 89 85 a8 f2 ff ff 	mov    %rax,-0xd58(%rbp)
   11cc9:	48 8d 85 a0 ef ff ff 	lea    -0x1060(%rbp),%rax
   11cd0:	48 89 85 b0 f2 ff ff 	mov    %rax,-0xd50(%rbp)
   11cd7:	8b 05 af 6a 00 00    	mov    0x6aaf(%rip),%eax        # 1878c <g_286>
   11cdd:	98                   	cwtl   
   11cde:	be 07 00 00 00       	mov    $0x7,%esi
   11ce3:	89 c7                	mov    %eax,%edi
   11ce5:	e8 c9 46 ff ff       	callq  63b3 <safe_add_func_int16_t_s_s>
   11cea:	98                   	cwtl   
   11ceb:	89 05 9b 6a 00 00    	mov    %eax,0x6a9b(%rip)        # 1878c <g_286>
   11cf1:	8b 05 95 6a 00 00    	mov    0x6a95(%rip),%eax        # 1878c <g_286>
   11cf7:	83 f8 30             	cmp    $0x30,%eax
   11cfa:	0f 86 46 ff ff ff    	jbe    11c46 <func_32+0x42ee>
   11d00:	66 c7 05 87 6a 00 00 	movw   $0x0,0x6a87(%rip)        # 18790 <g_291>
   11d07:	00 00 
   11d09:	e9 c5 02 00 00       	jmpq   11fd3 <func_32+0x467b>
   11d0e:	c7 85 4c f0 ff ff 06 	movl   $0xf2c6de06,-0xfb4(%rbp)
   11d15:	de c6 f2 
   11d18:	48 8d 05 6b 6a 00 00 	lea    0x6a6b(%rip),%rax        # 1878a <g_269>
   11d1f:	48 89 85 e8 f0 ff ff 	mov    %rax,-0xf18(%rbp)
   11d26:	48 8d 85 e8 f0 ff ff 	lea    -0xf18(%rbp),%rax
   11d2d:	48 89 85 98 f2 ff ff 	mov    %rax,-0xd68(%rbp)
   11d34:	66 c7 05 4b 6a 00 00 	movw   $0x1,0x6a4b(%rip)        # 18788 <g_218>
   11d3b:	01 00 
   11d3d:	e9 5c 02 00 00       	jmpq   11f9e <func_32+0x4646>
   11d42:	c7 85 e0 f6 ff ff 01 	movl   $0x1,-0x920(%rbp)
   11d49:	00 00 00 
   11d4c:	c7 85 e4 f6 ff ff 01 	movl   $0x1,-0x91c(%rbp)
   11d53:	00 00 00 
   11d56:	c7 85 e8 f6 ff ff 01 	movl   $0x1,-0x918(%rbp)
   11d5d:	00 00 00 
   11d60:	c7 85 ec f6 ff ff 01 	movl   $0x1,-0x914(%rbp)
   11d67:	00 00 00 
   11d6a:	c7 85 f0 f6 ff ff 01 	movl   $0x1,-0x910(%rbp)
   11d71:	00 00 00 
   11d74:	c7 85 f4 f6 ff ff 01 	movl   $0x1,-0x90c(%rbp)
   11d7b:	00 00 00 
   11d7e:	c7 85 f8 f6 ff ff 01 	movl   $0x1,-0x908(%rbp)
   11d85:	00 00 00 
   11d88:	c7 85 fc f6 ff ff 01 	movl   $0x1,-0x904(%rbp)
   11d8f:	00 00 00 
   11d92:	c7 85 50 f0 ff ff b7 	movl   $0x1944a7b7,-0xfb0(%rbp)
   11d99:	a7 44 19 
   11d9c:	c7 85 a4 ef ff ff 00 	movl   $0x0,-0x105c(%rbp)
   11da3:	00 00 00 
   11da6:	eb 1b                	jmp    11dc3 <func_32+0x446b>
   11da8:	8b 85 a4 ef ff ff    	mov    -0x105c(%rbp),%eax
   11dae:	48 98                	cltq   
   11db0:	48 c7 84 c5 30 f8 ff 	movq   $0x0,-0x7d0(%rbp,%rax,8)
   11db7:	ff 00 00 00 00 
   11dbc:	83 85 a4 ef ff ff 01 	addl   $0x1,-0x105c(%rbp)
   11dc3:	83 bd a4 ef ff ff 07 	cmpl   $0x7,-0x105c(%rbp)
   11dca:	7e dc                	jle    11da8 <func_32+0x4450>
   11dcc:	48 8b 05 25 83 00 00 	mov    0x8325(%rip),%rax        # 1a0f8 <g_360>
   11dd3:	c7 00 ff ff ff ff    	movl   $0xffffffff,(%rax)
   11dd9:	8b 85 4c f0 ff ff    	mov    -0xfb4(%rbp),%eax
   11ddf:	0f be d8             	movsbl %al,%ebx
   11de2:	0f b7 05 9f 69 00 00 	movzwl 0x699f(%rip),%eax        # 18788 <g_218>
   11de9:	0f b7 c0             	movzwl %ax,%eax
   11dec:	48 98                	cltq   
   11dee:	48 8d 14 85 00 00 00 	lea    0x0(,%rax,4),%rdx
   11df5:	00 
   11df6:	48 8d 05 43 62 00 00 	lea    0x6243(%rip),%rax        # 18040 <g_81>
   11dfd:	8b 14 02             	mov    (%rdx,%rax,1),%edx
   11e00:	48 8b 05 f9 82 00 00 	mov    0x82f9(%rip),%rax        # 1a100 <g_359>
   11e07:	48 8b 00             	mov    (%rax),%rax
   11e0a:	c7 00 fb 26 3f 8d    	movl   $0x8d3f26fb,(%rax)
   11e10:	8b 00                	mov    (%rax),%eax
   11e12:	09 d0                	or     %edx,%eax
   11e14:	35 54 b4 eb 2e       	xor    $0x2eebb454,%eax
   11e19:	4c 63 e8             	movslq %eax,%r13
   11e1c:	48 8b 85 70 ef ff ff 	mov    -0x1090(%rbp),%rax
   11e23:	41 89 c6             	mov    %eax,%r14d
   11e26:	44 8b a5 dc ef ff ff 	mov    -0x1024(%rbp),%r12d
   11e2d:	0f b7 05 54 69 00 00 	movzwl 0x6954(%rip),%eax        # 18788 <g_218>
   11e34:	0f b7 c0             	movzwl %ax,%eax
   11e37:	48 98                	cltq   
   11e39:	48 8d 14 85 00 00 00 	lea    0x0(,%rax,4),%rdx
   11e40:	00 
   11e41:	48 8d 05 f8 61 00 00 	lea    0x61f8(%rip),%rax        # 18040 <g_81>
   11e48:	8b 04 02             	mov    (%rdx,%rax,1),%eax
   11e4b:	0f b6 d0             	movzbl %al,%edx
   11e4e:	48 8b 85 70 ef ff ff 	mov    -0x1090(%rbp),%rax
   11e55:	0f b6 c0             	movzbl %al,%eax
   11e58:	89 d6                	mov    %edx,%esi
   11e5a:	89 c7                	mov    %eax,%edi
   11e5c:	e8 7a 4d ff ff       	callq  6bdb <safe_div_func_uint8_t_u_u>
   11e61:	0f b6 d0             	movzbl %al,%edx
   11e64:	0f b7 05 1d 69 00 00 	movzwl 0x691d(%rip),%eax        # 18788 <g_218>
   11e6b:	0f b7 c0             	movzwl %ax,%eax
   11e6e:	48 98                	cltq   
   11e70:	48 8d 0c 85 00 00 00 	lea    0x0(,%rax,4),%rcx
   11e77:	00 
   11e78:	48 8d 05 c1 61 00 00 	lea    0x61c1(%rip),%rax        # 18040 <g_81>
   11e7f:	8b 04 01             	mov    (%rcx,%rax,1),%eax
   11e82:	39 c2                	cmp    %eax,%edx
   11e84:	0f 95 c0             	setne  %al
   11e87:	0f b6 c0             	movzbl %al,%eax
   11e8a:	89 85 f8 f6 ff ff    	mov    %eax,-0x908(%rbp)
   11e90:	8b 85 f8 f6 ff ff    	mov    -0x908(%rbp),%eax
   11e96:	3d 8f c2 5e 1e       	cmp    $0x1e5ec28f,%eax
   11e9b:	0f 95 c0             	setne  %al
   11e9e:	0f b6 c0             	movzbl %al,%eax
   11ea1:	4c 89 e6             	mov    %r12,%rsi
   11ea4:	48 89 c7             	mov    %rax,%rdi
   11ea7:	e8 fc 49 ff ff       	callq  68a8 <safe_sub_func_int64_t_s_s>
   11eac:	48 3d 3e 0b 5a 2f    	cmp    $0x2f5a0b3e,%rax
   11eb2:	0f 9e c0             	setle  %al
   11eb5:	0f b6 c0             	movzbl %al,%eax
   11eb8:	be 00 00 00 00       	mov    $0x0,%esi
   11ebd:	48 89 c7             	mov    %rax,%rdi
   11ec0:	e8 86 51 ff ff       	callq  704b <safe_sub_func_uint64_t_u_u>
   11ec5:	48 8b 85 70 ef ff ff 	mov    -0x1090(%rbp),%rax
   11ecc:	ba df 3c fa 8c       	mov    $0x8cfa3cdf,%edx
   11ed1:	48 39 d0             	cmp    %rdx,%rax
   11ed4:	0f 95 c0             	setne  %al
   11ed7:	0f b6 c0             	movzbl %al,%eax
   11eda:	be 06 00 00 00       	mov    $0x6,%esi
   11edf:	89 c7                	mov    %eax,%edi
   11ee1:	e8 44 46 ff ff       	callq  652a <safe_rshift_func_int16_t_s_s>
   11ee6:	66 85 c0             	test   %ax,%ax
   11ee9:	0f 94 c0             	sete   %al
   11eec:	0f b6 d0             	movzbl %al,%edx
   11eef:	48 8b 85 70 ef ff ff 	mov    -0x1090(%rbp),%rax
   11ef6:	48 21 d0             	and    %rdx,%rax
   11ef9:	48 85 c0             	test   %rax,%rax
   11efc:	74 13                	je     11f11 <func_32+0x45b9>
   11efe:	48 8b 85 c0 f3 ff ff 	mov    -0xc40(%rbp),%rax
   11f05:	48 85 c0             	test   %rax,%rax
   11f08:	74 07                	je     11f11 <func_32+0x45b9>
   11f0a:	b8 01 00 00 00       	mov    $0x1,%eax
   11f0f:	eb 05                	jmp    11f16 <func_32+0x45be>
   11f11:	b8 00 00 00 00       	mov    $0x0,%eax
   11f16:	0f b7 c0             	movzwl %ax,%eax
   11f19:	44 89 f6             	mov    %r14d,%esi
   11f1c:	89 c7                	mov    %eax,%edi
   11f1e:	e8 9b 4e ff ff       	callq  6dbe <safe_lshift_func_uint16_t_u_s>
   11f23:	66 85 c0             	test   %ax,%ax
   11f26:	0f 94 c0             	sete   %al
   11f29:	0f b6 c0             	movzbl %al,%eax
   11f2c:	49 39 c5             	cmp    %rax,%r13
   11f2f:	0f 9d c0             	setge  %al
   11f32:	0f b6 c0             	movzbl %al,%eax
   11f35:	8b 95 4c f0 ff ff    	mov    -0xfb4(%rbp),%edx
   11f3b:	89 d6                	mov    %edx,%esi
   11f3d:	89 c7                	mov    %eax,%edi
   11f3f:	e8 7a 4e ff ff       	callq  6dbe <safe_lshift_func_uint16_t_u_s>
   11f44:	0f b7 05 3d 68 00 00 	movzwl 0x683d(%rip),%eax        # 18788 <g_218>
   11f4b:	0f b7 c0             	movzwl %ax,%eax
   11f4e:	48 98                	cltq   
   11f50:	48 8d 14 85 00 00 00 	lea    0x0(,%rax,4),%rdx
   11f57:	00 
   11f58:	48 8d 05 e1 60 00 00 	lea    0x60e1(%rip),%rax        # 18040 <g_81>
   11f5f:	8b 14 02             	mov    (%rdx,%rax,1),%edx
   11f62:	48 8b 85 48 f8 ff ff 	mov    -0x7b8(%rbp),%rax
   11f69:	48 39 85 98 f2 ff ff 	cmp    %rax,-0xd68(%rbp)
   11f70:	0f 95 c0             	setne  %al
   11f73:	0f b6 c0             	movzbl %al,%eax
   11f76:	39 c2                	cmp    %eax,%edx
   11f78:	89 de                	mov    %ebx,%esi
   11f7a:	bf 01 00 00 00       	mov    $0x1,%edi
   11f7f:	e8 8e 42 ff ff       	callq  6212 <safe_mul_func_int8_t_s_s>
   11f84:	0f be c0             	movsbl %al,%eax
   11f87:	89 85 50 f0 ff ff    	mov    %eax,-0xfb0(%rbp)
   11f8d:	0f b7 05 f4 67 00 00 	movzwl 0x67f4(%rip),%eax        # 18788 <g_218>
   11f94:	83 c0 01             	add    $0x1,%eax
   11f97:	66 89 05 ea 67 00 00 	mov    %ax,0x67ea(%rip)        # 18788 <g_218>
   11f9e:	0f b7 05 e3 67 00 00 	movzwl 0x67e3(%rip),%eax        # 18788 <g_218>
   11fa5:	66 83 f8 07          	cmp    $0x7,%ax
   11fa9:	0f 86 93 fd ff ff    	jbe    11d42 <func_32+0x43ea>
   11faf:	48 8b 05 5a 82 00 00 	mov    0x825a(%rip),%rax        # 1a210 <g_364>
   11fb6:	48 8b 00             	mov    (%rax),%rax
   11fb9:	48 8b 00             	mov    (%rax),%rax
   11fbc:	c7 00 ff ff ff ff    	movl   $0xffffffff,(%rax)
   11fc2:	0f b7 05 c7 67 00 00 	movzwl 0x67c7(%rip),%eax        # 18790 <g_291>
   11fc9:	83 c0 01             	add    $0x1,%eax
   11fcc:	66 89 05 bd 67 00 00 	mov    %ax,0x67bd(%rip)        # 18790 <g_291>
   11fd3:	0f b7 05 b6 67 00 00 	movzwl 0x67b6(%rip),%eax        # 18790 <g_291>
   11fda:	66 83 f8 09          	cmp    $0x9,%ax
   11fde:	0f 8e 2a fd ff ff    	jle    11d0e <func_32+0x43b6>
   11fe4:	48 8b 85 78 ef ff ff 	mov    -0x1088(%rbp),%rax
   11feb:	0f b6 00             	movzbl (%rax),%eax
   11fee:	48 8b 5d c8          	mov    -0x38(%rbp),%rbx
   11ff2:	64 48 33 1c 25 28 00 	xor    %fs:0x28,%rbx
   11ff9:	00 00 
   11ffb:	74 05                	je     12002 <func_32+0x46aa>
   11ffd:	e8 6e 40 ff ff       	callq  6070 <__stack_chk_fail@plt>
   12002:	48 81 c4 78 10 00 00 	add    $0x1078,%rsp
   12009:	5b                   	pop    %rbx
   1200a:	41 5c                	pop    %r12
   1200c:	41 5d                	pop    %r13
   1200e:	41 5e                	pop    %r14
   12010:	41 5f                	pop    %r15
   12012:	5d                   	pop    %rbp
   12013:	c3                   	retq   

0000000000012014 <func_35>:
   12014:	f3 0f 1e fa          	endbr64 
   12018:	55                   	push   %rbp
   12019:	48 89 e5             	mov    %rsp,%rbp
   1201c:	41 54                	push   %r12
   1201e:	53                   	push   %rbx
   1201f:	48 83 ec 70          	sub    $0x70,%rsp
   12023:	48 89 7d 98          	mov    %rdi,-0x68(%rbp)
   12027:	89 f0                	mov    %esi,%eax
   12029:	48 89 55 88          	mov    %rdx,-0x78(%rbp)
   1202d:	89 4d 90             	mov    %ecx,-0x70(%rbp)
   12030:	66 89 45 94          	mov    %ax,-0x6c(%rbp)
   12034:	64 48 8b 04 25 28 00 	mov    %fs:0x28,%rax
   1203b:	00 00 
   1203d:	48 89 45 e8          	mov    %rax,-0x18(%rbp)
   12041:	31 c0                	xor    %eax,%eax
   12043:	48 c7 45 a8 00 00 00 	movq   $0x0,-0x58(%rbp)
   1204a:	00 
   1204b:	c7 45 a8 58 66 e1 e2 	movl   $0xe2e16658,-0x58(%rbp)
   12052:	48 b8 ff ff 85 f0 eb 	movabs $0x2bb650ebf085ffff,%rax
   12059:	50 b6 2b 
   1205c:	48 89 45 b0          	mov    %rax,-0x50(%rbp)
   12060:	48 8d 05 bd 5f 00 00 	lea    0x5fbd(%rip),%rax        # 18024 <g_66>
   12067:	48 89 45 c0          	mov    %rax,-0x40(%rbp)
   1206b:	48 8d 05 b2 5f 00 00 	lea    0x5fb2(%rip),%rax        # 18024 <g_66>
   12072:	48 89 45 c8          	mov    %rax,-0x38(%rbp)
   12076:	48 8d 05 a7 5f 00 00 	lea    0x5fa7(%rip),%rax        # 18024 <g_66>
   1207d:	48 89 45 d0          	mov    %rax,-0x30(%rbp)
   12081:	48 8d 05 9c 5f 00 00 	lea    0x5f9c(%rip),%rax        # 18024 <g_66>
   12088:	48 89 45 d8          	mov    %rax,-0x28(%rbp)
   1208c:	48 8d 05 f5 93 00 00 	lea    0x93f5(%rip),%rax        # 1b488 <g_2>
   12093:	48 89 45 b8          	mov    %rax,-0x48(%rbp)
   12097:	0f b6 05 ea 93 00 00 	movzbl 0x93ea(%rip),%eax        # 1b488 <g_2>
   1209e:	48 0f be d8          	movsbq %al,%rbx
   120a2:	be 02 00 00 00       	mov    $0x2,%esi
   120a7:	bf ca 32 00 00       	mov    $0x32ca,%edi
   120ac:	e8 e1 43 ff ff       	callq  6492 <safe_lshift_func_int16_t_s_s>
   120b1:	0f b6 c0             	movzbl %al,%eax
   120b4:	be 77 00 00 00       	mov    $0x77,%esi
   120b9:	89 c7                	mov    %eax,%edi
   120bb:	e8 d3 4a ff ff       	callq  6b93 <safe_mul_func_uint8_t_u_u>
   120c0:	0f b6 c0             	movzbl %al,%eax
   120c3:	39 45 90             	cmp    %eax,-0x70(%rbp)
   120c6:	0f b6 05 bb 93 00 00 	movzbl 0x93bb(%rip),%eax        # 1b488 <g_2>
   120cd:	44 0f be e0          	movsbl %al,%r12d
   120d1:	48 8b 45 b0          	mov    -0x50(%rbp),%rax
   120d5:	89 c2                	mov    %eax,%edx
   120d7:	48 81 7d b0 a7 00 00 	cmpq   $0xa7,-0x50(%rbp)
   120de:	00 
   120df:	0f 97 c0             	seta   %al
   120e2:	0f b6 c0             	movzbl %al,%eax
   120e5:	89 d6                	mov    %edx,%esi
   120e7:	89 c7                	mov    %eax,%edi
   120e9:	e8 0f 4e ff ff       	callq  6efd <safe_mod_func_uint32_t_u_u>
   120ee:	8b 45 a8             	mov    -0x58(%rbp),%eax
   120f1:	0f be c0             	movsbl %al,%eax
   120f4:	44 89 e6             	mov    %r12d,%esi
   120f7:	89 c7                	mov    %eax,%edi
   120f9:	e8 d6 40 ff ff       	callq  61d4 <safe_add_func_int8_t_s_s>
   120fe:	84 c0                	test   %al,%al
   12100:	74 07                	je     12109 <func_35+0xf5>
   12102:	b8 01 00 00 00       	mov    $0x1,%eax
   12107:	eb 05                	jmp    1210e <func_35+0xfa>
   12109:	b8 00 00 00 00       	mov    $0x0,%eax
   1210e:	0f b6 c0             	movzbl %al,%eax
   12111:	89 c6                	mov    %eax,%esi
   12113:	bf 77 00 00 00       	mov    $0x77,%edi
   12118:	e8 76 4a ff ff       	callq  6b93 <safe_mul_func_uint8_t_u_u>
   1211d:	8b 45 a8             	mov    -0x58(%rbp),%eax
   12120:	0f b7 c0             	movzwl %ax,%eax
   12123:	be ff ff 00 00       	mov    $0xffff,%esi
   12128:	89 c7                	mov    %eax,%edi
   1212a:	e8 f0 4b ff ff       	callq  6d1f <safe_sub_func_uint16_t_u_u>
   1212f:	83 c8 08             	or     $0x8,%eax
   12132:	0f b7 d0             	movzwl %ax,%edx
   12135:	0f b6 05 4c 93 00 00 	movzbl 0x934c(%rip),%eax        # 1b488 <g_2>
   1213c:	48 0f be c0          	movsbq %al,%rax
   12140:	48 39 c2             	cmp    %rax,%rdx
   12143:	0f 95 c0             	setne  %al
   12146:	0f b6 c0             	movzbl %al,%eax
   12149:	48 89 de             	mov    %rbx,%rsi
   1214c:	48 89 c7             	mov    %rax,%rdi
   1214f:	e8 54 47 ff ff       	callq  68a8 <safe_sub_func_int64_t_s_s>
   12154:	c7 45 90 fd ff ff ff 	movl   $0xfffffffd,-0x70(%rbp)
   1215b:	48 8b 45 b8          	mov    -0x48(%rbp),%rax
   1215f:	48 8b 4d e8          	mov    -0x18(%rbp),%rcx
   12163:	64 48 33 0c 25 28 00 	xor    %fs:0x28,%rcx
   1216a:	00 00 
   1216c:	74 05                	je     12173 <func_35+0x15f>
   1216e:	e8 fd 3e ff ff       	callq  6070 <__stack_chk_fail@plt>
   12173:	48 83 c4 70          	add    $0x70,%rsp
   12177:	5b                   	pop    %rbx
   12178:	41 5c                	pop    %r12
   1217a:	5d                   	pop    %rbp
   1217b:	c3                   	retq   

000000000001217c <main>:
   1217c:	f3 0f 1e fa          	endbr64 
   12180:	55                   	push   %rbp
   12181:	48 89 e5             	mov    %rsp,%rbp
   12184:	48 83 ec 20          	sub    $0x20,%rsp
   12188:	89 7d ec             	mov    %edi,-0x14(%rbp)
   1218b:	48 89 75 e0          	mov    %rsi,-0x20(%rbp)
   1218f:	c7 45 fc 00 00 00 00 	movl   $0x0,-0x4(%rbp)
   12196:	83 7d ec 02          	cmpl   $0x2,-0x14(%rbp)
   1219a:	74 25                	je     121c1 <main+0x45>
   1219c:	48 8b 45 e0          	mov    -0x20(%rbp),%rax
   121a0:	48 83 c0 08          	add    $0x8,%rax
   121a4:	48 8b 00             	mov    (%rax),%rax
   121a7:	48 8d 35 c2 2b 00 00 	lea    0x2bc2(%rip),%rsi        # 14d70 <g_2736+0xd00>
   121ae:	48 89 c7             	mov    %rax,%rdi
   121b1:	e8 da 3e ff ff       	callq  6090 <strcmp@plt>
   121b6:	85 c0                	test   %eax,%eax
   121b8:	74 07                	je     121c1 <main+0x45>
   121ba:	c7 45 fc 01 00 00 00 	movl   $0x1,-0x4(%rbp)
   121c1:	e8 c3 3f ff ff       	callq  6189 <platform_main_begin>
   121c6:	e8 cd 53 ff ff       	callq  7598 <crc32_gentab>
   121cb:	e8 e5 55 ff ff       	callq  77b5 <func_1>
   121d0:	0f b6 05 b1 92 00 00 	movzbl 0x92b1(%rip),%eax        # 1b488 <g_2>
   121d7:	48 0f be c0          	movsbq %al,%rax
   121db:	8b 55 fc             	mov    -0x4(%rbp),%edx
   121de:	48 8d 35 8d 2b 00 00 	lea    0x2b8d(%rip),%rsi        # 14d72 <g_2736+0xd02>
   121e5:	48 89 c7             	mov    %rax,%rdi
   121e8:	e8 06 55 ff ff       	callq  76f3 <transparent_crc>
   121ed:	8b 05 31 5e 00 00    	mov    0x5e31(%rip),%eax        # 18024 <g_66>
   121f3:	48 98                	cltq   
   121f5:	8b 55 fc             	mov    -0x4(%rbp),%edx
   121f8:	48 8d 35 77 2b 00 00 	lea    0x2b77(%rip),%rsi        # 14d76 <g_2736+0xd06>
   121ff:	48 89 c7             	mov    %rax,%rdi
   12202:	e8 ec 54 ff ff       	callq  76f3 <transparent_crc>
   12207:	c7 45 f0 00 00 00 00 	movl   $0x0,-0x10(%rbp)
   1220e:	eb 4b                	jmp    1225b <main+0xdf>
   12210:	8b 45 f0             	mov    -0x10(%rbp),%eax
   12213:	48 98                	cltq   
   12215:	48 8d 14 85 00 00 00 	lea    0x0(,%rax,4),%rdx
   1221c:	00 
   1221d:	48 8d 05 1c 5e 00 00 	lea    0x5e1c(%rip),%rax        # 18040 <g_81>
   12224:	8b 04 02             	mov    (%rdx,%rax,1),%eax
   12227:	48 98                	cltq   
   12229:	8b 55 fc             	mov    -0x4(%rbp),%edx
   1222c:	48 8d 35 48 2b 00 00 	lea    0x2b48(%rip),%rsi        # 14d7b <g_2736+0xd0b>
   12233:	48 89 c7             	mov    %rax,%rdi
   12236:	e8 b8 54 ff ff       	callq  76f3 <transparent_crc>
   1223b:	83 7d fc 00          	cmpl   $0x0,-0x4(%rbp)
   1223f:	74 16                	je     12257 <main+0xdb>
   12241:	8b 45 f0             	mov    -0x10(%rbp),%eax
   12244:	89 c6                	mov    %eax,%esi
   12246:	48 8d 3d 36 2b 00 00 	lea    0x2b36(%rip),%rdi        # 14d83 <g_2736+0xd13>
   1224d:	b8 00 00 00 00       	mov    $0x0,%eax
   12252:	e8 29 3e ff ff       	callq  6080 <printf@plt>
   12257:	83 45 f0 01          	addl   $0x1,-0x10(%rbp)
   1225b:	83 7d f0 07          	cmpl   $0x7,-0x10(%rbp)
   1225f:	7e af                	jle    12210 <main+0x94>
   12261:	0f b6 05 21 92 00 00 	movzbl 0x9221(%rip),%eax        # 1b489 <g_92>
   12268:	48 0f be c0          	movsbq %al,%rax
   1226c:	8b 55 fc             	mov    -0x4(%rbp),%edx
   1226f:	48 8d 35 1b 2b 00 00 	lea    0x2b1b(%rip),%rsi        # 14d91 <g_2736+0xd21>
   12276:	48 89 c7             	mov    %rax,%rdi
   12279:	e8 75 54 ff ff       	callq  76f3 <transparent_crc>
   1227e:	8b 05 dc 5d 00 00    	mov    0x5ddc(%rip),%eax        # 18060 <g_99>
   12284:	48 98                	cltq   
   12286:	8b 55 fc             	mov    -0x4(%rbp),%edx
   12289:	48 8d 35 06 2b 00 00 	lea    0x2b06(%rip),%rsi        # 14d96 <g_2736+0xd26>
   12290:	48 89 c7             	mov    %rax,%rdi
   12293:	e8 5b 54 ff ff       	callq  76f3 <transparent_crc>
   12298:	c7 45 f0 00 00 00 00 	movl   $0x0,-0x10(%rbp)
   1229f:	eb 4a                	jmp    122eb <main+0x16f>
   122a1:	8b 45 f0             	mov    -0x10(%rbp),%eax
   122a4:	48 98                	cltq   
   122a6:	48 8d 14 00          	lea    (%rax,%rax,1),%rdx
   122aa:	48 8d 05 b7 5d 00 00 	lea    0x5db7(%rip),%rax        # 18068 <g_141>
   122b1:	0f b7 04 02          	movzwl (%rdx,%rax,1),%eax
   122b5:	48 0f bf c0          	movswq %ax,%rax
   122b9:	8b 55 fc             	mov    -0x4(%rbp),%edx
   122bc:	48 8d 35 d8 2a 00 00 	lea    0x2ad8(%rip),%rsi        # 14d9b <g_2736+0xd2b>
   122c3:	48 89 c7             	mov    %rax,%rdi
   122c6:	e8 28 54 ff ff       	callq  76f3 <transparent_crc>
   122cb:	83 7d fc 00          	cmpl   $0x0,-0x4(%rbp)
   122cf:	74 16                	je     122e7 <main+0x16b>
   122d1:	8b 45 f0             	mov    -0x10(%rbp),%eax
   122d4:	89 c6                	mov    %eax,%esi
   122d6:	48 8d 3d a6 2a 00 00 	lea    0x2aa6(%rip),%rdi        # 14d83 <g_2736+0xd13>
   122dd:	b8 00 00 00 00       	mov    $0x0,%eax
   122e2:	e8 99 3d ff ff       	callq  6080 <printf@plt>
   122e7:	83 45 f0 01          	addl   $0x1,-0x10(%rbp)
   122eb:	83 7d f0 04          	cmpl   $0x4,-0x10(%rbp)
   122ef:	7e b0                	jle    122a1 <main+0x125>
   122f1:	8b 05 7d 5d 00 00    	mov    0x5d7d(%rip),%eax        # 18074 <g_145>
   122f7:	89 c1                	mov    %eax,%ecx
   122f9:	8b 45 fc             	mov    -0x4(%rbp),%eax
   122fc:	89 c2                	mov    %eax,%edx
   122fe:	48 8d 35 9f 2a 00 00 	lea    0x2a9f(%rip),%rsi        # 14da4 <g_2736+0xd34>
   12305:	48 89 cf             	mov    %rcx,%rdi
   12308:	e8 e6 53 ff ff       	callq  76f3 <transparent_crc>
   1230d:	0f b7 05 76 91 00 00 	movzwl 0x9176(%rip),%eax        # 1b48a <g_161>
   12314:	48 0f bf c0          	movswq %ax,%rax
   12318:	8b 55 fc             	mov    -0x4(%rbp),%edx
   1231b:	48 8d 35 88 2a 00 00 	lea    0x2a88(%rip),%rsi        # 14daa <g_2736+0xd3a>
   12322:	48 89 c7             	mov    %rax,%rdi
   12325:	e8 c9 53 ff ff       	callq  76f3 <transparent_crc>
   1232a:	c7 45 f0 00 00 00 00 	movl   $0x0,-0x10(%rbp)
   12331:	e9 f4 00 00 00       	jmpq   1242a <main+0x2ae>
   12336:	c7 45 f4 00 00 00 00 	movl   $0x0,-0xc(%rbp)
   1233d:	e9 da 00 00 00       	jmpq   1241c <main+0x2a0>
   12342:	c7 45 f8 00 00 00 00 	movl   $0x0,-0x8(%rbp)
   12349:	e9 c0 00 00 00       	jmpq   1240e <main+0x292>
   1234e:	8b 45 f8             	mov    -0x8(%rbp),%eax
   12351:	48 63 c8             	movslq %eax,%rcx
   12354:	8b 45 f0             	mov    -0x10(%rbp),%eax
   12357:	48 63 d0             	movslq %eax,%rdx
   1235a:	8b 45 f4             	mov    -0xc(%rbp),%eax
   1235d:	48 63 f0             	movslq %eax,%rsi
   12360:	48 89 d0             	mov    %rdx,%rax
   12363:	48 c1 e0 03          	shl    $0x3,%rax
   12367:	48 29 d0             	sub    %rdx,%rax
   1236a:	48 01 f0             	add    %rsi,%rax
   1236d:	48 c1 e0 02          	shl    $0x2,%rax
   12371:	48 01 c8             	add    %rcx,%rax
   12374:	48 8d 14 c5 00 00 00 	lea    0x0(,%rax,8),%rdx
   1237b:	00 
   1237c:	48 8d 05 fd 5c 00 00 	lea    0x5cfd(%rip),%rax        # 18080 <g_176>
   12383:	8b 04 02             	mov    (%rdx,%rax,1),%eax
   12386:	89 c1                	mov    %eax,%ecx
   12388:	8b 45 fc             	mov    -0x4(%rbp),%eax
   1238b:	89 c2                	mov    %eax,%edx
   1238d:	48 8d 35 1c 2a 00 00 	lea    0x2a1c(%rip),%rsi        # 14db0 <g_2736+0xd40>
   12394:	48 89 cf             	mov    %rcx,%rdi
   12397:	e8 57 53 ff ff       	callq  76f3 <transparent_crc>
   1239c:	8b 45 f8             	mov    -0x8(%rbp),%eax
   1239f:	48 63 c8             	movslq %eax,%rcx
   123a2:	8b 45 f0             	mov    -0x10(%rbp),%eax
   123a5:	48 63 d0             	movslq %eax,%rdx
   123a8:	8b 45 f4             	mov    -0xc(%rbp),%eax
   123ab:	48 63 f0             	movslq %eax,%rsi
   123ae:	48 89 d0             	mov    %rdx,%rax
   123b1:	48 c1 e0 03          	shl    $0x3,%rax
   123b5:	48 29 d0             	sub    %rdx,%rax
   123b8:	48 01 f0             	add    %rsi,%rax
   123bb:	48 c1 e0 02          	shl    $0x2,%rax
   123bf:	48 01 c8             	add    %rcx,%rax
   123c2:	48 8d 14 c5 00 00 00 	lea    0x0(,%rax,8),%rdx
   123c9:	00 
   123ca:	48 8d 05 af 5c 00 00 	lea    0x5caf(%rip),%rax        # 18080 <g_176>
   123d1:	8b 04 02             	mov    (%rdx,%rax,1),%eax
   123d4:	48 98                	cltq   
   123d6:	8b 55 fc             	mov    -0x4(%rbp),%edx
   123d9:	48 8d 35 e2 29 00 00 	lea    0x29e2(%rip),%rsi        # 14dc2 <g_2736+0xd52>
   123e0:	48 89 c7             	mov    %rax,%rdi
   123e3:	e8 0b 53 ff ff       	callq  76f3 <transparent_crc>
   123e8:	83 7d fc 00          	cmpl   $0x0,-0x4(%rbp)
   123ec:	74 1c                	je     1240a <main+0x28e>
   123ee:	8b 4d f8             	mov    -0x8(%rbp),%ecx
   123f1:	8b 55 f4             	mov    -0xc(%rbp),%edx
   123f4:	8b 45 f0             	mov    -0x10(%rbp),%eax
   123f7:	89 c6                	mov    %eax,%esi
   123f9:	48 8d 3d d4 29 00 00 	lea    0x29d4(%rip),%rdi        # 14dd4 <g_2736+0xd64>
   12400:	b8 00 00 00 00       	mov    $0x0,%eax
   12405:	e8 76 3c ff ff       	callq  6080 <printf@plt>
   1240a:	83 45 f8 01          	addl   $0x1,-0x8(%rbp)
   1240e:	83 7d f8 03          	cmpl   $0x3,-0x8(%rbp)
   12412:	0f 8e 36 ff ff ff    	jle    1234e <main+0x1d2>
   12418:	83 45 f4 01          	addl   $0x1,-0xc(%rbp)
   1241c:	83 7d f4 06          	cmpl   $0x6,-0xc(%rbp)
   12420:	0f 8e 1c ff ff ff    	jle    12342 <main+0x1c6>
   12426:	83 45 f0 01          	addl   $0x1,-0x10(%rbp)
   1242a:	83 7d f0 07          	cmpl   $0x7,-0x10(%rbp)
   1242e:	0f 8e 02 ff ff ff    	jle    12336 <main+0x1ba>
   12434:	48 8b 05 45 63 00 00 	mov    0x6345(%rip),%rax        # 18780 <g_204>
   1243b:	48 89 c1             	mov    %rax,%rcx
   1243e:	8b 45 fc             	mov    -0x4(%rbp),%eax
   12441:	89 c2                	mov    %eax,%edx
   12443:	48 8d 35 a0 29 00 00 	lea    0x29a0(%rip),%rsi        # 14dea <g_2736+0xd7a>
   1244a:	48 89 cf             	mov    %rcx,%rdi
   1244d:	e8 a1 52 ff ff       	callq  76f3 <transparent_crc>
   12452:	0f b7 05 2f 63 00 00 	movzwl 0x632f(%rip),%eax        # 18788 <g_218>
   12459:	0f b7 c0             	movzwl %ax,%eax
   1245c:	8b 55 fc             	mov    -0x4(%rbp),%edx
   1245f:	48 8d 35 8a 29 00 00 	lea    0x298a(%rip),%rsi        # 14df0 <g_2736+0xd80>
   12466:	48 89 c7             	mov    %rax,%rdi
   12469:	e8 85 52 ff ff       	callq  76f3 <transparent_crc>
   1246e:	0f b6 05 15 63 00 00 	movzbl 0x6315(%rip),%eax        # 1878a <g_269>
   12475:	0f b6 c0             	movzbl %al,%eax
   12478:	8b 55 fc             	mov    -0x4(%rbp),%edx
   1247b:	48 8d 35 74 29 00 00 	lea    0x2974(%rip),%rsi        # 14df6 <g_2736+0xd86>
   12482:	48 89 c7             	mov    %rax,%rdi
   12485:	e8 69 52 ff ff       	callq  76f3 <transparent_crc>
   1248a:	48 c7 c0 f9 ff ff ff 	mov    $0xfffffffffffffff9,%rax
   12491:	48 89 c1             	mov    %rax,%rcx
   12494:	8b 45 fc             	mov    -0x4(%rbp),%eax
   12497:	89 c2                	mov    %eax,%edx
   12499:	48 8d 35 5c 29 00 00 	lea    0x295c(%rip),%rsi        # 14dfc <g_2736+0xd8c>
   124a0:	48 89 cf             	mov    %rcx,%rdi
   124a3:	e8 4b 52 ff ff       	callq  76f3 <transparent_crc>
   124a8:	8b 05 de 62 00 00    	mov    0x62de(%rip),%eax        # 1878c <g_286>
   124ae:	89 c1                	mov    %eax,%ecx
   124b0:	8b 45 fc             	mov    -0x4(%rbp),%eax
   124b3:	89 c2                	mov    %eax,%edx
   124b5:	48 8d 35 46 29 00 00 	lea    0x2946(%rip),%rsi        # 14e02 <g_2736+0xd92>
   124bc:	48 89 cf             	mov    %rcx,%rdi
   124bf:	e8 2f 52 ff ff       	callq  76f3 <transparent_crc>
   124c4:	48 8b 05 c5 8f 00 00 	mov    0x8fc5(%rip),%rax        # 1b490 <g_288>
   124cb:	8b 55 fc             	mov    -0x4(%rbp),%edx
   124ce:	48 8d 35 33 29 00 00 	lea    0x2933(%rip),%rsi        # 14e08 <g_2736+0xd98>
   124d5:	48 89 c7             	mov    %rax,%rdi
   124d8:	e8 16 52 ff ff       	callq  76f3 <transparent_crc>
   124dd:	0f b7 05 ac 62 00 00 	movzwl 0x62ac(%rip),%eax        # 18790 <g_291>
   124e4:	48 0f bf c0          	movswq %ax,%rax
   124e8:	8b 55 fc             	mov    -0x4(%rbp),%edx
   124eb:	48 8d 35 1c 29 00 00 	lea    0x291c(%rip),%rsi        # 14e0e <g_2736+0xd9e>
   124f2:	48 89 c7             	mov    %rax,%rdi
   124f5:	e8 f9 51 ff ff       	callq  76f3 <transparent_crc>
   124fa:	8b 05 94 62 00 00    	mov    0x6294(%rip),%eax        # 18794 <g_292>
   12500:	89 c1                	mov    %eax,%ecx
   12502:	8b 45 fc             	mov    -0x4(%rbp),%eax
   12505:	89 c2                	mov    %eax,%edx
   12507:	48 8d 35 06 29 00 00 	lea    0x2906(%rip),%rsi        # 14e14 <g_2736+0xda4>
   1250e:	48 89 cf             	mov    %rcx,%rdi
   12511:	e8 dd 51 ff ff       	callq  76f3 <transparent_crc>
   12516:	8b 05 7c 62 00 00    	mov    0x627c(%rip),%eax        # 18798 <g_318>
   1251c:	89 c1                	mov    %eax,%ecx
   1251e:	8b 45 fc             	mov    -0x4(%rbp),%eax
   12521:	89 c2                	mov    %eax,%edx
   12523:	48 8d 35 f0 28 00 00 	lea    0x28f0(%rip),%rsi        # 14e1a <g_2736+0xdaa>
   1252a:	48 89 cf             	mov    %rcx,%rdi
   1252d:	e8 c1 51 ff ff       	callq  76f3 <transparent_crc>
   12532:	8b 05 60 8f 00 00    	mov    0x8f60(%rip),%eax        # 1b498 <g_343>
   12538:	48 98                	cltq   
   1253a:	8b 55 fc             	mov    -0x4(%rbp),%edx
   1253d:	48 8d 35 dc 28 00 00 	lea    0x28dc(%rip),%rsi        # 14e20 <g_2736+0xdb0>
   12544:	48 89 c7             	mov    %rax,%rdi
   12547:	e8 a7 51 ff ff       	callq  76f3 <transparent_crc>
   1254c:	48 8b 05 4d 62 00 00 	mov    0x624d(%rip),%rax        # 187a0 <g_346>
   12553:	8b 55 fc             	mov    -0x4(%rbp),%edx
   12556:	48 8d 35 c9 28 00 00 	lea    0x28c9(%rip),%rsi        # 14e26 <g_2736+0xdb6>
   1255d:	48 89 c7             	mov    %rax,%rdi
   12560:	e8 8e 51 ff ff       	callq  76f3 <transparent_crc>
   12565:	8b 05 3d 62 00 00    	mov    0x623d(%rip),%eax        # 187a8 <g_394>
   1256b:	48 98                	cltq   
   1256d:	8b 55 fc             	mov    -0x4(%rbp),%edx
   12570:	48 8d 35 b5 28 00 00 	lea    0x28b5(%rip),%rsi        # 14e2c <g_2736+0xdbc>
   12577:	48 89 c7             	mov    %rax,%rdi
   1257a:	e8 74 51 ff ff       	callq  76f3 <transparent_crc>
   1257f:	48 8b 05 2a 62 00 00 	mov    0x622a(%rip),%rax        # 187b0 <g_396>
   12586:	48 89 c1             	mov    %rax,%rcx
   12589:	8b 45 fc             	mov    -0x4(%rbp),%eax
   1258c:	89 c2                	mov    %eax,%edx
   1258e:	48 8d 35 9d 28 00 00 	lea    0x289d(%rip),%rsi        # 14e32 <g_2736+0xdc2>
   12595:	48 89 cf             	mov    %rcx,%rdi
   12598:	e8 56 51 ff ff       	callq  76f3 <transparent_crc>
   1259d:	c7 45 f0 00 00 00 00 	movl   $0x0,-0x10(%rbp)
   125a4:	e9 bd 00 00 00       	jmpq   12666 <main+0x4ea>
   125a9:	c7 45 f4 00 00 00 00 	movl   $0x0,-0xc(%rbp)
   125b0:	e9 a3 00 00 00       	jmpq   12658 <main+0x4dc>
   125b5:	8b 45 f4             	mov    -0xc(%rbp),%eax
   125b8:	48 63 c8             	movslq %eax,%rcx
   125bb:	8b 45 f0             	mov    -0x10(%rbp),%eax
   125be:	48 63 d0             	movslq %eax,%rdx
   125c1:	48 89 d0             	mov    %rdx,%rax
   125c4:	48 c1 e0 03          	shl    $0x3,%rax
   125c8:	48 29 d0             	sub    %rdx,%rax
   125cb:	48 01 c8             	add    %rcx,%rax
   125ce:	48 8d 14 c5 00 00 00 	lea    0x0(,%rax,8),%rdx
   125d5:	00 
   125d6:	48 8d 05 e3 61 00 00 	lea    0x61e3(%rip),%rax        # 187c0 <g_415>
   125dd:	8b 04 02             	mov    (%rdx,%rax,1),%eax
   125e0:	89 c1                	mov    %eax,%ecx
   125e2:	8b 45 fc             	mov    -0x4(%rbp),%eax
   125e5:	89 c2                	mov    %eax,%edx
   125e7:	48 8d 35 4a 28 00 00 	lea    0x284a(%rip),%rsi        # 14e38 <g_2736+0xdc8>
   125ee:	48 89 cf             	mov    %rcx,%rdi
   125f1:	e8 fd 50 ff ff       	callq  76f3 <transparent_crc>
   125f6:	8b 45 f4             	mov    -0xc(%rbp),%eax
   125f9:	48 63 c8             	movslq %eax,%rcx
   125fc:	8b 45 f0             	mov    -0x10(%rbp),%eax
   125ff:	48 63 d0             	movslq %eax,%rdx
   12602:	48 89 d0             	mov    %rdx,%rax
   12605:	48 c1 e0 03          	shl    $0x3,%rax
   12609:	48 29 d0             	sub    %rdx,%rax
   1260c:	48 01 c8             	add    %rcx,%rax
   1260f:	48 8d 14 c5 00 00 00 	lea    0x0(,%rax,8),%rdx
   12616:	00 
   12617:	48 8d 05 a2 61 00 00 	lea    0x61a2(%rip),%rax        # 187c0 <g_415>
   1261e:	8b 04 02             	mov    (%rdx,%rax,1),%eax
   12621:	48 98                	cltq   
   12623:	8b 55 fc             	mov    -0x4(%rbp),%edx
   12626:	48 8d 35 1a 28 00 00 	lea    0x281a(%rip),%rsi        # 14e47 <g_2736+0xdd7>
   1262d:	48 89 c7             	mov    %rax,%rdi
   12630:	e8 be 50 ff ff       	callq  76f3 <transparent_crc>
   12635:	83 7d fc 00          	cmpl   $0x0,-0x4(%rbp)
   12639:	74 19                	je     12654 <main+0x4d8>
   1263b:	8b 55 f4             	mov    -0xc(%rbp),%edx
   1263e:	8b 45 f0             	mov    -0x10(%rbp),%eax
   12641:	89 c6                	mov    %eax,%esi
   12643:	48 8d 3d 0c 28 00 00 	lea    0x280c(%rip),%rdi        # 14e56 <g_2736+0xde6>
   1264a:	b8 00 00 00 00       	mov    $0x0,%eax
   1264f:	e8 2c 3a ff ff       	callq  6080 <printf@plt>
   12654:	83 45 f4 01          	addl   $0x1,-0xc(%rbp)
   12658:	83 7d f4 06          	cmpl   $0x6,-0xc(%rbp)
   1265c:	0f 8e 53 ff ff ff    	jle    125b5 <main+0x439>
   12662:	83 45 f0 01          	addl   $0x1,-0x10(%rbp)
   12666:	83 7d f0 03          	cmpl   $0x3,-0x10(%rbp)
   1266a:	0f 8e 39 ff ff ff    	jle    125a9 <main+0x42d>
   12670:	b8 13 7f 42 d0       	mov    $0xd0427f13,%eax
   12675:	89 c1                	mov    %eax,%ecx
   12677:	8b 45 fc             	mov    -0x4(%rbp),%eax
   1267a:	89 c2                	mov    %eax,%edx
   1267c:	48 8d 35 e5 27 00 00 	lea    0x27e5(%rip),%rsi        # 14e68 <g_2736+0xdf8>
   12683:	48 89 cf             	mov    %rcx,%rdi
   12686:	e8 68 50 ff ff       	callq  76f3 <transparent_crc>
   1268b:	b8 79 fb cf cf       	mov    $0xcfcffb79,%eax
   12690:	89 c1                	mov    %eax,%ecx
   12692:	8b 45 fc             	mov    -0x4(%rbp),%eax
   12695:	89 c2                	mov    %eax,%edx
   12697:	48 8d 35 d0 27 00 00 	lea    0x27d0(%rip),%rsi        # 14e6e <g_2736+0xdfe>
   1269e:	48 89 cf             	mov    %rcx,%rdi
   126a1:	e8 4d 50 ff ff       	callq  76f3 <transparent_crc>
   126a6:	b8 03 00 00 00       	mov    $0x3,%eax
   126ab:	48 98                	cltq   
   126ad:	8b 55 fc             	mov    -0x4(%rbp),%edx
   126b0:	48 8d 35 bd 27 00 00 	lea    0x27bd(%rip),%rsi        # 14e74 <g_2736+0xe04>
   126b7:	48 89 c7             	mov    %rax,%rdi
   126ba:	e8 34 50 ff ff       	callq  76f3 <transparent_crc>
   126bf:	b8 09 00 00 00       	mov    $0x9,%eax
   126c4:	48 98                	cltq   
   126c6:	8b 55 fc             	mov    -0x4(%rbp),%edx
   126c9:	48 8d 35 aa 27 00 00 	lea    0x27aa(%rip),%rsi        # 14e7a <g_2736+0xe0a>
   126d0:	48 89 c7             	mov    %rax,%rdi
   126d3:	e8 1b 50 ff ff       	callq  76f3 <transparent_crc>
   126d8:	8b 05 c2 61 00 00    	mov    0x61c2(%rip),%eax        # 188a0 <g_706>
   126de:	89 c1                	mov    %eax,%ecx
   126e0:	8b 45 fc             	mov    -0x4(%rbp),%eax
   126e3:	89 c2                	mov    %eax,%edx
   126e5:	48 8d 35 94 27 00 00 	lea    0x2794(%rip),%rsi        # 14e80 <g_2736+0xe10>
   126ec:	48 89 cf             	mov    %rcx,%rdi
   126ef:	e8 ff 4f ff ff       	callq  76f3 <transparent_crc>
   126f4:	8b 05 ae 61 00 00    	mov    0x61ae(%rip),%eax        # 188a8 <g_709>
   126fa:	89 c1                	mov    %eax,%ecx
   126fc:	8b 45 fc             	mov    -0x4(%rbp),%eax
   126ff:	89 c2                	mov    %eax,%edx
   12701:	48 8d 35 7e 27 00 00 	lea    0x277e(%rip),%rsi        # 14e86 <g_2736+0xe16>
   12708:	48 89 cf             	mov    %rcx,%rdi
   1270b:	e8 e3 4f ff ff       	callq  76f3 <transparent_crc>
   12710:	8b 05 92 61 00 00    	mov    0x6192(%rip),%eax        # 188a8 <g_709>
   12716:	48 98                	cltq   
   12718:	8b 55 fc             	mov    -0x4(%rbp),%edx
   1271b:	48 8d 35 6d 27 00 00 	lea    0x276d(%rip),%rsi        # 14e8f <g_2736+0xe1f>
   12722:	48 89 c7             	mov    %rax,%rdi
   12725:	e8 c9 4f ff ff       	callq  76f3 <transparent_crc>
   1272a:	48 8b 05 7f 61 00 00 	mov    0x617f(%rip),%rax        # 188b0 <g_923>
   12731:	8b 55 fc             	mov    -0x4(%rbp),%edx
   12734:	48 8d 35 5d 27 00 00 	lea    0x275d(%rip),%rsi        # 14e98 <g_2736+0xe28>
   1273b:	48 89 c7             	mov    %rax,%rdi
   1273e:	e8 b0 4f ff ff       	callq  76f3 <transparent_crc>
   12743:	0f b6 05 6e 61 00 00 	movzbl 0x616e(%rip),%eax        # 188b8 <g_1024>
   1274a:	48 0f be c0          	movsbq %al,%rax
   1274e:	8b 55 fc             	mov    -0x4(%rbp),%edx
   12751:	48 8d 35 46 27 00 00 	lea    0x2746(%rip),%rsi        # 14e9e <g_2736+0xe2e>
   12758:	48 89 c7             	mov    %rax,%rdi
   1275b:	e8 93 4f ff ff       	callq  76f3 <transparent_crc>
   12760:	0f b6 05 52 61 00 00 	movzbl 0x6152(%rip),%eax        # 188b9 <g_1074>
   12767:	48 0f be c0          	movsbq %al,%rax
   1276b:	8b 55 fc             	mov    -0x4(%rbp),%edx
   1276e:	48 8d 35 30 27 00 00 	lea    0x2730(%rip),%rsi        # 14ea5 <g_2736+0xe35>
   12775:	48 89 c7             	mov    %rax,%rdi
   12778:	e8 76 4f ff ff       	callq  76f3 <transparent_crc>
   1277d:	8b 05 3d 61 00 00    	mov    0x613d(%rip),%eax        # 188c0 <g_1102>
   12783:	89 c1                	mov    %eax,%ecx
   12785:	8b 45 fc             	mov    -0x4(%rbp),%eax
   12788:	89 c2                	mov    %eax,%edx
   1278a:	48 8d 35 1b 27 00 00 	lea    0x271b(%rip),%rsi        # 14eac <g_2736+0xe3c>
   12791:	48 89 cf             	mov    %rcx,%rdi
   12794:	e8 5a 4f ff ff       	callq  76f3 <transparent_crc>
   12799:	8b 05 21 61 00 00    	mov    0x6121(%rip),%eax        # 188c0 <g_1102>
   1279f:	48 98                	cltq   
   127a1:	8b 55 fc             	mov    -0x4(%rbp),%edx
   127a4:	48 8d 35 0b 27 00 00 	lea    0x270b(%rip),%rsi        # 14eb6 <g_2736+0xe46>
   127ab:	48 89 c7             	mov    %rax,%rdi
   127ae:	e8 40 4f ff ff       	callq  76f3 <transparent_crc>
   127b3:	0f b6 05 0e 61 00 00 	movzbl 0x610e(%rip),%eax        # 188c8 <g_1130>
   127ba:	48 0f be c0          	movsbq %al,%rax
   127be:	8b 55 fc             	mov    -0x4(%rbp),%edx
   127c1:	48 8d 35 f8 26 00 00 	lea    0x26f8(%rip),%rsi        # 14ec0 <g_2736+0xe50>
   127c8:	48 89 c7             	mov    %rax,%rdi
   127cb:	e8 23 4f ff ff       	callq  76f3 <transparent_crc>
   127d0:	48 8b 05 f9 60 00 00 	mov    0x60f9(%rip),%rax        # 188d0 <g_1275>
   127d7:	8b 55 fc             	mov    -0x4(%rbp),%edx
   127da:	48 8d 35 e6 26 00 00 	lea    0x26e6(%rip),%rsi        # 14ec7 <g_2736+0xe57>
   127e1:	48 89 c7             	mov    %rax,%rdi
   127e4:	e8 0a 4f ff ff       	callq  76f3 <transparent_crc>
   127e9:	48 8b 05 e8 60 00 00 	mov    0x60e8(%rip),%rax        # 188d8 <g_1295>
   127f0:	48 89 c1             	mov    %rax,%rcx
   127f3:	8b 45 fc             	mov    -0x4(%rbp),%eax
   127f6:	89 c2                	mov    %eax,%edx
   127f8:	48 8d 35 cf 26 00 00 	lea    0x26cf(%rip),%rsi        # 14ece <g_2736+0xe5e>
   127ff:	48 89 cf             	mov    %rcx,%rdi
   12802:	e8 ec 4e ff ff       	callq  76f3 <transparent_crc>
   12807:	48 8b 05 d2 60 00 00 	mov    0x60d2(%rip),%rax        # 188e0 <g_1296>
   1280e:	48 89 c1             	mov    %rax,%rcx
   12811:	8b 45 fc             	mov    -0x4(%rbp),%eax
   12814:	89 c2                	mov    %eax,%edx
   12816:	48 8d 35 b8 26 00 00 	lea    0x26b8(%rip),%rsi        # 14ed5 <g_2736+0xe65>
   1281d:	48 89 cf             	mov    %rcx,%rdi
   12820:	e8 ce 4e ff ff       	callq  76f3 <transparent_crc>
   12825:	48 8b 05 bc 60 00 00 	mov    0x60bc(%rip),%rax        # 188e8 <g_1297>
   1282c:	48 89 c1             	mov    %rax,%rcx
   1282f:	8b 45 fc             	mov    -0x4(%rbp),%eax
   12832:	89 c2                	mov    %eax,%edx
   12834:	48 8d 35 a1 26 00 00 	lea    0x26a1(%rip),%rsi        # 14edc <g_2736+0xe6c>
   1283b:	48 89 cf             	mov    %rcx,%rdi
   1283e:	e8 b0 4e ff ff       	callq  76f3 <transparent_crc>
   12843:	48 8b 05 a6 60 00 00 	mov    0x60a6(%rip),%rax        # 188f0 <g_1298>
   1284a:	48 89 c1             	mov    %rax,%rcx
   1284d:	8b 45 fc             	mov    -0x4(%rbp),%eax
   12850:	89 c2                	mov    %eax,%edx
   12852:	48 8d 35 8a 26 00 00 	lea    0x268a(%rip),%rsi        # 14ee3 <g_2736+0xe73>
   12859:	48 89 cf             	mov    %rcx,%rdi
   1285c:	e8 92 4e ff ff       	callq  76f3 <transparent_crc>
   12861:	48 8b 05 90 60 00 00 	mov    0x6090(%rip),%rax        # 188f8 <g_1299>
   12868:	48 89 c1             	mov    %rax,%rcx
   1286b:	8b 45 fc             	mov    -0x4(%rbp),%eax
   1286e:	89 c2                	mov    %eax,%edx
   12870:	48 8d 35 73 26 00 00 	lea    0x2673(%rip),%rsi        # 14eea <g_2736+0xe7a>
   12877:	48 89 cf             	mov    %rcx,%rdi
   1287a:	e8 74 4e ff ff       	callq  76f3 <transparent_crc>
   1287f:	c7 45 f0 00 00 00 00 	movl   $0x0,-0x10(%rbp)
   12886:	e9 bd 00 00 00       	jmpq   12948 <main+0x7cc>
   1288b:	c7 45 f4 00 00 00 00 	movl   $0x0,-0xc(%rbp)
   12892:	e9 a3 00 00 00       	jmpq   1293a <main+0x7be>
   12897:	c7 45 f8 00 00 00 00 	movl   $0x0,-0x8(%rbp)
   1289e:	e9 89 00 00 00       	jmpq   1292c <main+0x7b0>
   128a3:	8b 45 f8             	mov    -0x8(%rbp),%eax
   128a6:	48 63 f0             	movslq %eax,%rsi
   128a9:	8b 45 f0             	mov    -0x10(%rbp),%eax
   128ac:	48 98                	cltq   
   128ae:	8b 55 f4             	mov    -0xc(%rbp),%edx
   128b1:	48 63 ca             	movslq %edx,%rcx
   128b4:	48 89 c2             	mov    %rax,%rdx
   128b7:	48 c1 e2 02          	shl    $0x2,%rdx
   128bb:	48 01 c2             	add    %rax,%rdx
   128be:	48 8d 04 d5 00 00 00 	lea    0x0(,%rdx,8),%rax
   128c5:	00 
   128c6:	48 89 c2             	mov    %rax,%rdx
   128c9:	48 89 c8             	mov    %rcx,%rax
   128cc:	48 c1 e0 02          	shl    $0x2,%rax
   128d0:	48 01 c8             	add    %rcx,%rax
   128d3:	48 01 c0             	add    %rax,%rax
   128d6:	48 01 d0             	add    %rdx,%rax
   128d9:	48 01 f0             	add    %rsi,%rax
   128dc:	48 8d 14 c5 00 00 00 	lea    0x0(,%rax,8),%rdx
   128e3:	00 
   128e4:	48 8d 05 15 60 00 00 	lea    0x6015(%rip),%rax        # 18900 <g_1300>
   128eb:	48 8b 04 02          	mov    (%rdx,%rax,1),%rax
   128ef:	48 89 c1             	mov    %rax,%rcx
   128f2:	8b 45 fc             	mov    -0x4(%rbp),%eax
   128f5:	89 c2                	mov    %eax,%edx
   128f7:	48 8d 35 f3 25 00 00 	lea    0x25f3(%rip),%rsi        # 14ef1 <g_2736+0xe81>
   128fe:	48 89 cf             	mov    %rcx,%rdi
   12901:	e8 ed 4d ff ff       	callq  76f3 <transparent_crc>
   12906:	83 7d fc 00          	cmpl   $0x0,-0x4(%rbp)
   1290a:	74 1c                	je     12928 <main+0x7ac>
   1290c:	8b 4d f8             	mov    -0x8(%rbp),%ecx
   1290f:	8b 55 f4             	mov    -0xc(%rbp),%edx
   12912:	8b 45 f0             	mov    -0x10(%rbp),%eax
   12915:	89 c6                	mov    %eax,%esi
   12917:	48 8d 3d b6 24 00 00 	lea    0x24b6(%rip),%rdi        # 14dd4 <g_2736+0xd64>
   1291e:	b8 00 00 00 00       	mov    $0x0,%eax
   12923:	e8 58 37 ff ff       	callq  6080 <printf@plt>
   12928:	83 45 f8 01          	addl   $0x1,-0x8(%rbp)
   1292c:	83 7d f8 09          	cmpl   $0x9,-0x8(%rbp)
   12930:	0f 8e 6d ff ff ff    	jle    128a3 <main+0x727>
   12936:	83 45 f4 01          	addl   $0x1,-0xc(%rbp)
   1293a:	83 7d f4 03          	cmpl   $0x3,-0xc(%rbp)
   1293e:	0f 8e 53 ff ff ff    	jle    12897 <main+0x71b>
   12944:	83 45 f0 01          	addl   $0x1,-0x10(%rbp)
   12948:	83 7d f0 02          	cmpl   $0x2,-0x10(%rbp)
   1294c:	0f 8e 39 ff ff ff    	jle    1288b <main+0x70f>
   12952:	48 8b 05 67 63 00 00 	mov    0x6367(%rip),%rax        # 18cc0 <g_1301>
   12959:	48 89 c1             	mov    %rax,%rcx
   1295c:	8b 45 fc             	mov    -0x4(%rbp),%eax
   1295f:	89 c2                	mov    %eax,%edx
   12961:	48 8d 35 99 25 00 00 	lea    0x2599(%rip),%rsi        # 14f01 <g_2736+0xe91>
   12968:	48 89 cf             	mov    %rcx,%rdi
   1296b:	e8 83 4d ff ff       	callq  76f3 <transparent_crc>
   12970:	48 8b 05 51 63 00 00 	mov    0x6351(%rip),%rax        # 18cc8 <g_1302>
   12977:	48 89 c1             	mov    %rax,%rcx
   1297a:	8b 45 fc             	mov    -0x4(%rbp),%eax
   1297d:	89 c2                	mov    %eax,%edx
   1297f:	48 8d 35 82 25 00 00 	lea    0x2582(%rip),%rsi        # 14f08 <g_2736+0xe98>
   12986:	48 89 cf             	mov    %rcx,%rdi
   12989:	e8 65 4d ff ff       	callq  76f3 <transparent_crc>
   1298e:	48 8b 05 3b 63 00 00 	mov    0x633b(%rip),%rax        # 18cd0 <g_1303>
   12995:	48 89 c1             	mov    %rax,%rcx
   12998:	8b 45 fc             	mov    -0x4(%rbp),%eax
   1299b:	89 c2                	mov    %eax,%edx
   1299d:	48 8d 35 6b 25 00 00 	lea    0x256b(%rip),%rsi        # 14f0f <g_2736+0xe9f>
   129a4:	48 89 cf             	mov    %rcx,%rdi
   129a7:	e8 47 4d ff ff       	callq  76f3 <transparent_crc>
   129ac:	48 8b 05 25 63 00 00 	mov    0x6325(%rip),%rax        # 18cd8 <g_1304>
   129b3:	48 89 c1             	mov    %rax,%rcx
   129b6:	8b 45 fc             	mov    -0x4(%rbp),%eax
   129b9:	89 c2                	mov    %eax,%edx
   129bb:	48 8d 35 54 25 00 00 	lea    0x2554(%rip),%rsi        # 14f16 <g_2736+0xea6>
   129c2:	48 89 cf             	mov    %rcx,%rdi
   129c5:	e8 29 4d ff ff       	callq  76f3 <transparent_crc>
   129ca:	48 8b 05 0f 63 00 00 	mov    0x630f(%rip),%rax        # 18ce0 <g_1305>
   129d1:	48 89 c1             	mov    %rax,%rcx
   129d4:	8b 45 fc             	mov    -0x4(%rbp),%eax
   129d7:	89 c2                	mov    %eax,%edx
   129d9:	48 8d 35 3d 25 00 00 	lea    0x253d(%rip),%rsi        # 14f1d <g_2736+0xead>
   129e0:	48 89 cf             	mov    %rcx,%rdi
   129e3:	e8 0b 4d ff ff       	callq  76f3 <transparent_crc>
   129e8:	48 8b 05 f9 62 00 00 	mov    0x62f9(%rip),%rax        # 18ce8 <g_1306>
   129ef:	48 89 c1             	mov    %rax,%rcx
   129f2:	8b 45 fc             	mov    -0x4(%rbp),%eax
   129f5:	89 c2                	mov    %eax,%edx
   129f7:	48 8d 35 26 25 00 00 	lea    0x2526(%rip),%rsi        # 14f24 <g_2736+0xeb4>
   129fe:	48 89 cf             	mov    %rcx,%rdi
   12a01:	e8 ed 4c ff ff       	callq  76f3 <transparent_crc>
   12a06:	c7 45 f0 00 00 00 00 	movl   $0x0,-0x10(%rbp)
   12a0d:	eb 4f                	jmp    12a5e <main+0x8e2>
   12a0f:	8b 45 f0             	mov    -0x10(%rbp),%eax
   12a12:	48 98                	cltq   
   12a14:	48 8d 14 c5 00 00 00 	lea    0x0(,%rax,8),%rdx
   12a1b:	00 
   12a1c:	48 8d 05 dd 62 00 00 	lea    0x62dd(%rip),%rax        # 18d00 <g_1307>
   12a23:	48 8b 04 02          	mov    (%rdx,%rax,1),%rax
   12a27:	48 89 c1             	mov    %rax,%rcx
   12a2a:	8b 45 fc             	mov    -0x4(%rbp),%eax
   12a2d:	89 c2                	mov    %eax,%edx
   12a2f:	48 8d 35 f5 24 00 00 	lea    0x24f5(%rip),%rsi        # 14f2b <g_2736+0xebb>
   12a36:	48 89 cf             	mov    %rcx,%rdi
   12a39:	e8 b5 4c ff ff       	callq  76f3 <transparent_crc>
   12a3e:	83 7d fc 00          	cmpl   $0x0,-0x4(%rbp)
   12a42:	74 16                	je     12a5a <main+0x8de>
   12a44:	8b 45 f0             	mov    -0x10(%rbp),%eax
   12a47:	89 c6                	mov    %eax,%esi
   12a49:	48 8d 3d 33 23 00 00 	lea    0x2333(%rip),%rdi        # 14d83 <g_2736+0xd13>
   12a50:	b8 00 00 00 00       	mov    $0x0,%eax
   12a55:	e8 26 36 ff ff       	callq  6080 <printf@plt>
   12a5a:	83 45 f0 01          	addl   $0x1,-0x10(%rbp)
   12a5e:	83 7d f0 03          	cmpl   $0x3,-0x10(%rbp)
   12a62:	7e ab                	jle    12a0f <main+0x893>
   12a64:	48 8b 05 b5 62 00 00 	mov    0x62b5(%rip),%rax        # 18d20 <g_1308>
   12a6b:	48 89 c1             	mov    %rax,%rcx
   12a6e:	8b 45 fc             	mov    -0x4(%rbp),%eax
   12a71:	89 c2                	mov    %eax,%edx
   12a73:	48 8d 35 bb 24 00 00 	lea    0x24bb(%rip),%rsi        # 14f35 <g_2736+0xec5>
   12a7a:	48 89 cf             	mov    %rcx,%rdi
   12a7d:	e8 71 4c ff ff       	callq  76f3 <transparent_crc>
   12a82:	48 8b 05 9f 62 00 00 	mov    0x629f(%rip),%rax        # 18d28 <g_1309>
   12a89:	48 89 c1             	mov    %rax,%rcx
   12a8c:	8b 45 fc             	mov    -0x4(%rbp),%eax
   12a8f:	89 c2                	mov    %eax,%edx
   12a91:	48 8d 35 a4 24 00 00 	lea    0x24a4(%rip),%rsi        # 14f3c <g_2736+0xecc>
   12a98:	48 89 cf             	mov    %rcx,%rdi
   12a9b:	e8 53 4c ff ff       	callq  76f3 <transparent_crc>
   12aa0:	48 8b 05 89 62 00 00 	mov    0x6289(%rip),%rax        # 18d30 <g_1310>
   12aa7:	48 89 c1             	mov    %rax,%rcx
   12aaa:	8b 45 fc             	mov    -0x4(%rbp),%eax
   12aad:	89 c2                	mov    %eax,%edx
   12aaf:	48 8d 35 8d 24 00 00 	lea    0x248d(%rip),%rsi        # 14f43 <g_2736+0xed3>
   12ab6:	48 89 cf             	mov    %rcx,%rdi
   12ab9:	e8 35 4c ff ff       	callq  76f3 <transparent_crc>
   12abe:	c7 45 f0 00 00 00 00 	movl   $0x0,-0x10(%rbp)
   12ac5:	eb 4f                	jmp    12b16 <main+0x99a>
   12ac7:	8b 45 f0             	mov    -0x10(%rbp),%eax
   12aca:	48 98                	cltq   
   12acc:	48 8d 14 c5 00 00 00 	lea    0x0(,%rax,8),%rdx
   12ad3:	00 
   12ad4:	48 8d 05 65 62 00 00 	lea    0x6265(%rip),%rax        # 18d40 <g_1311>
   12adb:	48 8b 04 02          	mov    (%rdx,%rax,1),%rax
   12adf:	48 89 c1             	mov    %rax,%rcx
   12ae2:	8b 45 fc             	mov    -0x4(%rbp),%eax
   12ae5:	89 c2                	mov    %eax,%edx
   12ae7:	48 8d 35 5c 24 00 00 	lea    0x245c(%rip),%rsi        # 14f4a <g_2736+0xeda>
   12aee:	48 89 cf             	mov    %rcx,%rdi
   12af1:	e8 fd 4b ff ff       	callq  76f3 <transparent_crc>
   12af6:	83 7d fc 00          	cmpl   $0x0,-0x4(%rbp)
   12afa:	74 16                	je     12b12 <main+0x996>
   12afc:	8b 45 f0             	mov    -0x10(%rbp),%eax
   12aff:	89 c6                	mov    %eax,%esi
   12b01:	48 8d 3d 7b 22 00 00 	lea    0x227b(%rip),%rdi        # 14d83 <g_2736+0xd13>
   12b08:	b8 00 00 00 00       	mov    $0x0,%eax
   12b0d:	e8 6e 35 ff ff       	callq  6080 <printf@plt>
   12b12:	83 45 f0 01          	addl   $0x1,-0x10(%rbp)
   12b16:	83 7d f0 04          	cmpl   $0x4,-0x10(%rbp)
   12b1a:	7e ab                	jle    12ac7 <main+0x94b>
   12b1c:	48 8b 05 45 62 00 00 	mov    0x6245(%rip),%rax        # 18d68 <g_1312>
   12b23:	48 89 c1             	mov    %rax,%rcx
   12b26:	8b 45 fc             	mov    -0x4(%rbp),%eax
   12b29:	89 c2                	mov    %eax,%edx
   12b2b:	48 8d 35 22 24 00 00 	lea    0x2422(%rip),%rsi        # 14f54 <g_2736+0xee4>
   12b32:	48 89 cf             	mov    %rcx,%rdi
   12b35:	e8 b9 4b ff ff       	callq  76f3 <transparent_crc>
   12b3a:	48 8b 05 2f 62 00 00 	mov    0x622f(%rip),%rax        # 18d70 <g_1313>
   12b41:	48 89 c1             	mov    %rax,%rcx
   12b44:	8b 45 fc             	mov    -0x4(%rbp),%eax
   12b47:	89 c2                	mov    %eax,%edx
   12b49:	48 8d 35 0b 24 00 00 	lea    0x240b(%rip),%rsi        # 14f5b <g_2736+0xeeb>
   12b50:	48 89 cf             	mov    %rcx,%rdi
   12b53:	e8 9b 4b ff ff       	callq  76f3 <transparent_crc>
   12b58:	48 8b 05 19 62 00 00 	mov    0x6219(%rip),%rax        # 18d78 <g_1314>
   12b5f:	48 89 c1             	mov    %rax,%rcx
   12b62:	8b 45 fc             	mov    -0x4(%rbp),%eax
   12b65:	89 c2                	mov    %eax,%edx
   12b67:	48 8d 35 f4 23 00 00 	lea    0x23f4(%rip),%rsi        # 14f62 <g_2736+0xef2>
   12b6e:	48 89 cf             	mov    %rcx,%rdi
   12b71:	e8 7d 4b ff ff       	callq  76f3 <transparent_crc>
   12b76:	8b 05 04 62 00 00    	mov    0x6204(%rip),%eax        # 18d80 <g_1326>
   12b7c:	48 98                	cltq   
   12b7e:	8b 55 fc             	mov    -0x4(%rbp),%edx
   12b81:	48 8d 35 e1 23 00 00 	lea    0x23e1(%rip),%rsi        # 14f69 <g_2736+0xef9>
   12b88:	48 89 c7             	mov    %rax,%rdi
   12b8b:	e8 63 4b ff ff       	callq  76f3 <transparent_crc>
   12b90:	c7 45 f0 00 00 00 00 	movl   $0x0,-0x10(%rbp)
   12b97:	eb 4a                	jmp    12be3 <main+0xa67>
   12b99:	8b 45 f0             	mov    -0x10(%rbp),%eax
   12b9c:	48 98                	cltq   
   12b9e:	48 8d 14 00          	lea    (%rax,%rax,1),%rdx
   12ba2:	48 8d 05 db 61 00 00 	lea    0x61db(%rip),%rax        # 18d84 <g_1708>
   12ba9:	0f b7 04 02          	movzwl (%rdx,%rax,1),%eax
   12bad:	48 0f bf c0          	movswq %ax,%rax
   12bb1:	8b 55 fc             	mov    -0x4(%rbp),%edx
   12bb4:	48 8d 35 b5 23 00 00 	lea    0x23b5(%rip),%rsi        # 14f70 <g_2736+0xf00>
   12bbb:	48 89 c7             	mov    %rax,%rdi
   12bbe:	e8 30 4b ff ff       	callq  76f3 <transparent_crc>
   12bc3:	83 7d fc 00          	cmpl   $0x0,-0x4(%rbp)
   12bc7:	74 16                	je     12bdf <main+0xa63>
   12bc9:	8b 45 f0             	mov    -0x10(%rbp),%eax
   12bcc:	89 c6                	mov    %eax,%esi
   12bce:	48 8d 3d ae 21 00 00 	lea    0x21ae(%rip),%rdi        # 14d83 <g_2736+0xd13>
   12bd5:	b8 00 00 00 00       	mov    $0x0,%eax
   12bda:	e8 a1 34 ff ff       	callq  6080 <printf@plt>
   12bdf:	83 45 f0 01          	addl   $0x1,-0x10(%rbp)
   12be3:	83 7d f0 02          	cmpl   $0x2,-0x10(%rbp)
   12be7:	7e b0                	jle    12b99 <main+0xa1d>
   12be9:	0f b6 05 9a 61 00 00 	movzbl 0x619a(%rip),%eax        # 18d8a <g_1741>
   12bf0:	0f b6 c0             	movzbl %al,%eax
   12bf3:	8b 55 fc             	mov    -0x4(%rbp),%edx
   12bf6:	48 8d 35 7d 23 00 00 	lea    0x237d(%rip),%rsi        # 14f7a <g_2736+0xf0a>
   12bfd:	48 89 c7             	mov    %rax,%rdi
   12c00:	e8 ee 4a ff ff       	callq  76f3 <transparent_crc>
   12c05:	c7 45 f0 00 00 00 00 	movl   $0x0,-0x10(%rbp)
   12c0c:	eb 77                	jmp    12c85 <main+0xb09>
   12c0e:	c7 45 f4 00 00 00 00 	movl   $0x0,-0xc(%rbp)
   12c15:	eb 64                	jmp    12c7b <main+0xaff>
   12c17:	8b 45 f4             	mov    -0xc(%rbp),%eax
   12c1a:	48 63 c8             	movslq %eax,%rcx
   12c1d:	8b 45 f0             	mov    -0x10(%rbp),%eax
   12c20:	48 63 d0             	movslq %eax,%rdx
   12c23:	48 89 d0             	mov    %rdx,%rax
   12c26:	48 c1 e0 02          	shl    $0x2,%rax
   12c2a:	48 01 d0             	add    %rdx,%rax
   12c2d:	48 01 c8             	add    %rcx,%rax
   12c30:	48 8d 14 85 00 00 00 	lea    0x0(,%rax,4),%rdx
   12c37:	00 
   12c38:	48 8d 05 61 61 00 00 	lea    0x6161(%rip),%rax        # 18da0 <g_1817>
   12c3f:	8b 04 02             	mov    (%rdx,%rax,1),%eax
   12c42:	89 c1                	mov    %eax,%ecx
   12c44:	8b 45 fc             	mov    -0x4(%rbp),%eax
   12c47:	89 c2                	mov    %eax,%edx
   12c49:	48 8d 35 31 23 00 00 	lea    0x2331(%rip),%rsi        # 14f81 <g_2736+0xf11>
   12c50:	48 89 cf             	mov    %rcx,%rdi
   12c53:	e8 9b 4a ff ff       	callq  76f3 <transparent_crc>
   12c58:	83 7d fc 00          	cmpl   $0x0,-0x4(%rbp)
   12c5c:	74 19                	je     12c77 <main+0xafb>
   12c5e:	8b 55 f4             	mov    -0xc(%rbp),%edx
   12c61:	8b 45 f0             	mov    -0x10(%rbp),%eax
   12c64:	89 c6                	mov    %eax,%esi
   12c66:	48 8d 3d e9 21 00 00 	lea    0x21e9(%rip),%rdi        # 14e56 <g_2736+0xde6>
   12c6d:	b8 00 00 00 00       	mov    $0x0,%eax
   12c72:	e8 09 34 ff ff       	callq  6080 <printf@plt>
   12c77:	83 45 f4 01          	addl   $0x1,-0xc(%rbp)
   12c7b:	83 7d f4 04          	cmpl   $0x4,-0xc(%rbp)
   12c7f:	7e 96                	jle    12c17 <main+0xa9b>
   12c81:	83 45 f0 01          	addl   $0x1,-0x10(%rbp)
   12c85:	83 7d f0 01          	cmpl   $0x1,-0x10(%rbp)
   12c89:	7e 83                	jle    12c0e <main+0xa92>
   12c8b:	c7 45 f0 00 00 00 00 	movl   $0x0,-0x10(%rbp)
   12c92:	e9 ae 00 00 00       	jmpq   12d45 <main+0xbc9>
   12c97:	c7 45 f4 00 00 00 00 	movl   $0x0,-0xc(%rbp)
   12c9e:	e9 94 00 00 00       	jmpq   12d37 <main+0xbbb>
   12ca3:	c7 45 f8 00 00 00 00 	movl   $0x0,-0x8(%rbp)
   12caa:	eb 7d                	jmp    12d29 <main+0xbad>
   12cac:	8b 45 f8             	mov    -0x8(%rbp),%eax
   12caf:	48 63 f0             	movslq %eax,%rsi
   12cb2:	8b 45 f0             	mov    -0x10(%rbp),%eax
   12cb5:	48 63 d0             	movslq %eax,%rdx
   12cb8:	8b 45 f4             	mov    -0xc(%rbp),%eax
   12cbb:	48 63 c8             	movslq %eax,%rcx
   12cbe:	48 89 d0             	mov    %rdx,%rax
   12cc1:	48 c1 e0 02          	shl    $0x2,%rax
   12cc5:	48 01 d0             	add    %rdx,%rax
   12cc8:	48 01 c0             	add    %rax,%rax
   12ccb:	48 89 ca             	mov    %rcx,%rdx
   12cce:	48 c1 e2 02          	shl    $0x2,%rdx
   12cd2:	48 01 ca             	add    %rcx,%rdx
   12cd5:	48 01 d0             	add    %rdx,%rax
   12cd8:	48 01 f0             	add    %rsi,%rax
   12cdb:	48 8d 14 85 00 00 00 	lea    0x0(,%rax,4),%rdx
   12ce2:	00 
   12ce3:	48 8d 05 f6 60 00 00 	lea    0x60f6(%rip),%rax        # 18de0 <g_1960>
   12cea:	8b 04 02             	mov    (%rdx,%rax,1),%eax
   12ced:	89 c1                	mov    %eax,%ecx
   12cef:	8b 45 fc             	mov    -0x4(%rbp),%eax
   12cf2:	89 c2                	mov    %eax,%edx
   12cf4:	48 8d 35 93 22 00 00 	lea    0x2293(%rip),%rsi        # 14f8e <g_2736+0xf1e>
   12cfb:	48 89 cf             	mov    %rcx,%rdi
   12cfe:	e8 f0 49 ff ff       	callq  76f3 <transparent_crc>
   12d03:	83 7d fc 00          	cmpl   $0x0,-0x4(%rbp)
   12d07:	74 1c                	je     12d25 <main+0xba9>
   12d09:	8b 4d f8             	mov    -0x8(%rbp),%ecx
   12d0c:	8b 55 f4             	mov    -0xc(%rbp),%edx
   12d0f:	8b 45 f0             	mov    -0x10(%rbp),%eax
   12d12:	89 c6                	mov    %eax,%esi
   12d14:	48 8d 3d b9 20 00 00 	lea    0x20b9(%rip),%rdi        # 14dd4 <g_2736+0xd64>
   12d1b:	b8 00 00 00 00       	mov    $0x0,%eax
   12d20:	e8 5b 33 ff ff       	callq  6080 <printf@plt>
   12d25:	83 45 f8 01          	addl   $0x1,-0x8(%rbp)
   12d29:	83 7d f8 04          	cmpl   $0x4,-0x8(%rbp)
   12d2d:	0f 8e 79 ff ff ff    	jle    12cac <main+0xb30>
   12d33:	83 45 f4 01          	addl   $0x1,-0xc(%rbp)
   12d37:	83 7d f4 01          	cmpl   $0x1,-0xc(%rbp)
   12d3b:	0f 8e 62 ff ff ff    	jle    12ca3 <main+0xb27>
   12d41:	83 45 f0 01          	addl   $0x1,-0x10(%rbp)
   12d45:	83 7d f0 09          	cmpl   $0x9,-0x10(%rbp)
   12d49:	0f 8e 48 ff ff ff    	jle    12c97 <main+0xb1b>
   12d4f:	8b 05 1b 62 00 00    	mov    0x621b(%rip),%eax        # 18f70 <g_1999>
   12d55:	48 98                	cltq   
   12d57:	8b 55 fc             	mov    -0x4(%rbp),%edx
   12d5a:	48 8d 35 3d 22 00 00 	lea    0x223d(%rip),%rsi        # 14f9e <g_2736+0xf2e>
   12d61:	48 89 c7             	mov    %rax,%rdi
   12d64:	e8 8a 49 ff ff       	callq  76f3 <transparent_crc>
   12d69:	8b 05 09 62 00 00    	mov    0x6209(%rip),%eax        # 18f78 <g_2074>
   12d6f:	89 c1                	mov    %eax,%ecx
   12d71:	8b 45 fc             	mov    -0x4(%rbp),%eax
   12d74:	89 c2                	mov    %eax,%edx
   12d76:	48 8d 35 28 22 00 00 	lea    0x2228(%rip),%rsi        # 14fa5 <g_2736+0xf35>
   12d7d:	48 89 cf             	mov    %rcx,%rdi
   12d80:	e8 6e 49 ff ff       	callq  76f3 <transparent_crc>
   12d85:	8b 05 ed 61 00 00    	mov    0x61ed(%rip),%eax        # 18f78 <g_2074>
   12d8b:	48 98                	cltq   
   12d8d:	8b 55 fc             	mov    -0x4(%rbp),%edx
   12d90:	48 8d 35 18 22 00 00 	lea    0x2218(%rip),%rsi        # 14faf <g_2736+0xf3f>
   12d97:	48 89 c7             	mov    %rax,%rdi
   12d9a:	e8 54 49 ff ff       	callq  76f3 <transparent_crc>
   12d9f:	c7 45 f0 00 00 00 00 	movl   $0x0,-0x10(%rbp)
   12da6:	eb 78                	jmp    12e20 <main+0xca4>
   12da8:	8b 45 f0             	mov    -0x10(%rbp),%eax
   12dab:	48 98                	cltq   
   12dad:	48 8d 14 c5 00 00 00 	lea    0x0(,%rax,8),%rdx
   12db4:	00 
   12db5:	48 8d 05 c4 61 00 00 	lea    0x61c4(%rip),%rax        # 18f80 <g_2075>
   12dbc:	8b 04 02             	mov    (%rdx,%rax,1),%eax
   12dbf:	89 c1                	mov    %eax,%ecx
   12dc1:	8b 45 fc             	mov    -0x4(%rbp),%eax
   12dc4:	89 c2                	mov    %eax,%edx
   12dc6:	48 8d 35 ec 21 00 00 	lea    0x21ec(%rip),%rsi        # 14fb9 <g_2736+0xf49>
   12dcd:	48 89 cf             	mov    %rcx,%rdi
   12dd0:	e8 1e 49 ff ff       	callq  76f3 <transparent_crc>
   12dd5:	8b 45 f0             	mov    -0x10(%rbp),%eax
   12dd8:	48 98                	cltq   
   12dda:	48 8d 14 c5 00 00 00 	lea    0x0(,%rax,8),%rdx
   12de1:	00 
   12de2:	48 8d 05 97 61 00 00 	lea    0x6197(%rip),%rax        # 18f80 <g_2075>
   12de9:	8b 04 02             	mov    (%rdx,%rax,1),%eax
   12dec:	48 98                	cltq   
   12dee:	8b 55 fc             	mov    -0x4(%rbp),%edx
   12df1:	48 8d 35 ce 21 00 00 	lea    0x21ce(%rip),%rsi        # 14fc6 <g_2736+0xf56>
   12df8:	48 89 c7             	mov    %rax,%rdi
   12dfb:	e8 f3 48 ff ff       	callq  76f3 <transparent_crc>
   12e00:	83 7d fc 00          	cmpl   $0x0,-0x4(%rbp)
   12e04:	74 16                	je     12e1c <main+0xca0>
   12e06:	8b 45 f0             	mov    -0x10(%rbp),%eax
   12e09:	89 c6                	mov    %eax,%esi
   12e0b:	48 8d 3d 71 1f 00 00 	lea    0x1f71(%rip),%rdi        # 14d83 <g_2736+0xd13>
   12e12:	b8 00 00 00 00       	mov    $0x0,%eax
   12e17:	e8 64 32 ff ff       	callq  6080 <printf@plt>
   12e1c:	83 45 f0 01          	addl   $0x1,-0x10(%rbp)
   12e20:	83 7d f0 07          	cmpl   $0x7,-0x10(%rbp)
   12e24:	7e 82                	jle    12da8 <main+0xc2c>
   12e26:	8b 05 94 61 00 00    	mov    0x6194(%rip),%eax        # 18fc0 <g_2076>
   12e2c:	89 c1                	mov    %eax,%ecx
   12e2e:	8b 45 fc             	mov    -0x4(%rbp),%eax
   12e31:	89 c2                	mov    %eax,%edx
   12e33:	48 8d 35 99 21 00 00 	lea    0x2199(%rip),%rsi        # 14fd3 <g_2736+0xf63>
   12e3a:	48 89 cf             	mov    %rcx,%rdi
   12e3d:	e8 b1 48 ff ff       	callq  76f3 <transparent_crc>
   12e42:	8b 05 78 61 00 00    	mov    0x6178(%rip),%eax        # 18fc0 <g_2076>
   12e48:	48 98                	cltq   
   12e4a:	8b 55 fc             	mov    -0x4(%rbp),%edx
   12e4d:	48 8d 35 89 21 00 00 	lea    0x2189(%rip),%rsi        # 14fdd <g_2736+0xf6d>
   12e54:	48 89 c7             	mov    %rax,%rdi
   12e57:	e8 97 48 ff ff       	callq  76f3 <transparent_crc>
   12e5c:	0f b6 05 65 61 00 00 	movzbl 0x6165(%rip),%eax        # 18fc8 <g_2442>
   12e63:	48 0f be c0          	movsbq %al,%rax
   12e67:	8b 55 fc             	mov    -0x4(%rbp),%edx
   12e6a:	48 8d 35 76 21 00 00 	lea    0x2176(%rip),%rsi        # 14fe7 <g_2736+0xf77>
   12e71:	48 89 c7             	mov    %rax,%rdi
   12e74:	e8 7a 48 ff ff       	callq  76f3 <transparent_crc>
   12e79:	c7 45 f0 00 00 00 00 	movl   $0x0,-0x10(%rbp)
   12e80:	eb 70                	jmp    12ef2 <main+0xd76>
   12e82:	c7 45 f4 00 00 00 00 	movl   $0x0,-0xc(%rbp)
   12e89:	eb 5d                	jmp    12ee8 <main+0xd6c>
   12e8b:	8b 45 f4             	mov    -0xc(%rbp),%eax
   12e8e:	48 98                	cltq   
   12e90:	8b 55 f0             	mov    -0x10(%rbp),%edx
   12e93:	48 63 d2             	movslq %edx,%rdx
   12e96:	48 c1 e2 02          	shl    $0x2,%rdx
   12e9a:	48 01 d0             	add    %rdx,%rax
   12e9d:	48 8d 14 85 00 00 00 	lea    0x0(,%rax,4),%rdx
   12ea4:	00 
   12ea5:	48 8d 05 34 61 00 00 	lea    0x6134(%rip),%rax        # 18fe0 <g_2692>
   12eac:	8b 04 02             	mov    (%rdx,%rax,1),%eax
   12eaf:	89 c1                	mov    %eax,%ecx
   12eb1:	8b 45 fc             	mov    -0x4(%rbp),%eax
   12eb4:	89 c2                	mov    %eax,%edx
   12eb6:	48 8d 35 31 21 00 00 	lea    0x2131(%rip),%rsi        # 14fee <g_2736+0xf7e>
   12ebd:	48 89 cf             	mov    %rcx,%rdi
   12ec0:	e8 2e 48 ff ff       	callq  76f3 <transparent_crc>
   12ec5:	83 7d fc 00          	cmpl   $0x0,-0x4(%rbp)
   12ec9:	74 19                	je     12ee4 <main+0xd68>
   12ecb:	8b 55 f4             	mov    -0xc(%rbp),%edx
   12ece:	8b 45 f0             	mov    -0x10(%rbp),%eax
   12ed1:	89 c6                	mov    %eax,%esi
   12ed3:	48 8d 3d 7c 1f 00 00 	lea    0x1f7c(%rip),%rdi        # 14e56 <g_2736+0xde6>
   12eda:	b8 00 00 00 00       	mov    $0x0,%eax
   12edf:	e8 9c 31 ff ff       	callq  6080 <printf@plt>
   12ee4:	83 45 f4 01          	addl   $0x1,-0xc(%rbp)
   12ee8:	83 7d f4 03          	cmpl   $0x3,-0xc(%rbp)
   12eec:	7e 9d                	jle    12e8b <main+0xd0f>
   12eee:	83 45 f0 01          	addl   $0x1,-0x10(%rbp)
   12ef2:	83 7d f0 07          	cmpl   $0x7,-0x10(%rbp)
   12ef6:	7e 8a                	jle    12e82 <main+0xd06>
   12ef8:	c7 45 f0 00 00 00 00 	movl   $0x0,-0x10(%rbp)
   12eff:	eb 75                	jmp    12f76 <main+0xdfa>
   12f01:	c7 45 f4 00 00 00 00 	movl   $0x0,-0xc(%rbp)
   12f08:	eb 62                	jmp    12f6c <main+0xdf0>
   12f0a:	8b 45 f4             	mov    -0xc(%rbp),%eax
   12f0d:	48 63 c8             	movslq %eax,%rcx
   12f10:	8b 45 f0             	mov    -0x10(%rbp),%eax
   12f13:	48 63 d0             	movslq %eax,%rdx
   12f16:	48 89 d0             	mov    %rdx,%rax
   12f19:	48 c1 e0 02          	shl    $0x2,%rax
   12f1d:	48 01 d0             	add    %rdx,%rax
   12f20:	48 01 c0             	add    %rax,%rax
   12f23:	48 8d 14 08          	lea    (%rax,%rcx,1),%rdx
   12f27:	48 8d 05 32 61 00 00 	lea    0x6132(%rip),%rax        # 19060 <g_2794>
   12f2e:	48 01 d0             	add    %rdx,%rax
   12f31:	0f b6 00             	movzbl (%rax),%eax
   12f34:	0f b6 c0             	movzbl %al,%eax
   12f37:	8b 55 fc             	mov    -0x4(%rbp),%edx
   12f3a:	48 8d 35 ba 20 00 00 	lea    0x20ba(%rip),%rsi        # 14ffb <g_2736+0xf8b>
   12f41:	48 89 c7             	mov    %rax,%rdi
   12f44:	e8 aa 47 ff ff       	callq  76f3 <transparent_crc>
   12f49:	83 7d fc 00          	cmpl   $0x0,-0x4(%rbp)
   12f4d:	74 19                	je     12f68 <main+0xdec>
   12f4f:	8b 55 f4             	mov    -0xc(%rbp),%edx
   12f52:	8b 45 f0             	mov    -0x10(%rbp),%eax
   12f55:	89 c6                	mov    %eax,%esi
   12f57:	48 8d 3d f8 1e 00 00 	lea    0x1ef8(%rip),%rdi        # 14e56 <g_2736+0xde6>
   12f5e:	b8 00 00 00 00       	mov    $0x0,%eax
   12f63:	e8 18 31 ff ff       	callq  6080 <printf@plt>
   12f68:	83 45 f4 01          	addl   $0x1,-0xc(%rbp)
   12f6c:	83 7d f4 09          	cmpl   $0x9,-0xc(%rbp)
   12f70:	7e 98                	jle    12f0a <main+0xd8e>
   12f72:	83 45 f0 01          	addl   $0x1,-0x10(%rbp)
   12f76:	83 7d f0 03          	cmpl   $0x3,-0x10(%rbp)
   12f7a:	7e 85                	jle    12f01 <main+0xd85>
   12f7c:	8b 05 06 61 00 00    	mov    0x6106(%rip),%eax        # 19088 <g_2878>
   12f82:	89 c1                	mov    %eax,%ecx
   12f84:	8b 45 fc             	mov    -0x4(%rbp),%eax
   12f87:	89 c2                	mov    %eax,%edx
   12f89:	48 8d 35 78 20 00 00 	lea    0x2078(%rip),%rsi        # 15008 <g_2736+0xf98>
   12f90:	48 89 cf             	mov    %rcx,%rdi
   12f93:	e8 5b 47 ff ff       	callq  76f3 <transparent_crc>
   12f98:	0f b7 05 ed 60 00 00 	movzwl 0x60ed(%rip),%eax        # 1908c <g_3130>
   12f9f:	0f b7 c0             	movzwl %ax,%eax
   12fa2:	8b 55 fc             	mov    -0x4(%rbp),%edx
   12fa5:	48 8d 35 63 20 00 00 	lea    0x2063(%rip),%rsi        # 1500f <g_2736+0xf9f>
   12fac:	48 89 c7             	mov    %rax,%rdi
   12faf:	e8 3f 47 ff ff       	callq  76f3 <transparent_crc>
   12fb4:	48 8b 05 d5 60 00 00 	mov    0x60d5(%rip),%rax        # 19090 <g_3148>
   12fbb:	8b 55 fc             	mov    -0x4(%rbp),%edx
   12fbe:	48 8d 35 51 20 00 00 	lea    0x2051(%rip),%rsi        # 15016 <g_2736+0xfa6>
   12fc5:	48 89 c7             	mov    %rax,%rdi
   12fc8:	e8 26 47 ff ff       	callq  76f3 <transparent_crc>
   12fcd:	48 8b 05 c4 60 00 00 	mov    0x60c4(%rip),%rax        # 19098 <g_3189>
   12fd4:	48 89 c1             	mov    %rax,%rcx
   12fd7:	8b 45 fc             	mov    -0x4(%rbp),%eax
   12fda:	89 c2                	mov    %eax,%edx
   12fdc:	48 8d 35 3a 20 00 00 	lea    0x203a(%rip),%rsi        # 1501d <g_2736+0xfad>
   12fe3:	48 89 cf             	mov    %rcx,%rdi
   12fe6:	e8 08 47 ff ff       	callq  76f3 <transparent_crc>
   12feb:	8b 05 2f 50 00 00    	mov    0x502f(%rip),%eax        # 18020 <crc32_context>
   12ff1:	f7 d0                	not    %eax
   12ff3:	89 c2                	mov    %eax,%edx
   12ff5:	8b 45 fc             	mov    -0x4(%rbp),%eax
   12ff8:	89 c6                	mov    %eax,%esi
   12ffa:	89 d7                	mov    %edx,%edi
   12ffc:	e8 93 31 ff ff       	callq  6194 <platform_main_end>
   13001:	b8 00 00 00 00       	mov    $0x0,%eax
   13006:	c9                   	leaveq 
   13007:	c3                   	retq   
   13008:	0f 1f 84 00 00 00 00 	nopl   0x0(%rax,%rax,1)
   1300f:	00 

0000000000013010 <__libc_csu_init>:
   13010:	f3 0f 1e fa          	endbr64 
   13014:	41 57                	push   %r15
   13016:	4c 8d 3d d3 4c 00 00 	lea    0x4cd3(%rip),%r15        # 17cf0 <__frame_dummy_init_array_entry>
   1301d:	41 56                	push   %r14
   1301f:	49 89 d6             	mov    %rdx,%r14
   13022:	41 55                	push   %r13
   13024:	49 89 f5             	mov    %rsi,%r13
   13027:	41 54                	push   %r12
   13029:	41 89 fc             	mov    %edi,%r12d
   1302c:	55                   	push   %rbp
   1302d:	48 8d 2d c4 4c 00 00 	lea    0x4cc4(%rip),%rbp        # 17cf8 <__do_global_dtors_aux_fini_array_entry>
   13034:	53                   	push   %rbx
   13035:	4c 29 fd             	sub    %r15,%rbp
   13038:	48 83 ec 08          	sub    $0x8,%rsp
   1303c:	e8 bf 2f ff ff       	callq  6000 <_init>
   13041:	48 c1 fd 03          	sar    $0x3,%rbp
   13045:	74 1f                	je     13066 <__libc_csu_init+0x56>
   13047:	31 db                	xor    %ebx,%ebx
   13049:	0f 1f 80 00 00 00 00 	nopl   0x0(%rax)
   13050:	4c 89 f2             	mov    %r14,%rdx
   13053:	4c 89 ee             	mov    %r13,%rsi
   13056:	44 89 e7             	mov    %r12d,%edi
   13059:	41 ff 14 df          	callq  *(%r15,%rbx,8)
   1305d:	48 83 c3 01          	add    $0x1,%rbx
   13061:	48 39 dd             	cmp    %rbx,%rbp
   13064:	75 ea                	jne    13050 <__libc_csu_init+0x40>
   13066:	48 83 c4 08          	add    $0x8,%rsp
   1306a:	5b                   	pop    %rbx
   1306b:	5d                   	pop    %rbp
   1306c:	41 5c                	pop    %r12
   1306e:	41 5d                	pop    %r13
   13070:	41 5e                	pop    %r14
   13072:	41 5f                	pop    %r15
   13074:	c3                   	retq   
   13075:	66 66 2e 0f 1f 84 00 	data16 nopw %cs:0x0(%rax,%rax,1)
   1307c:	00 00 00 00 

0000000000013080 <__libc_csu_fini>:
   13080:	f3 0f 1e fa          	endbr64 
   13084:	c3                   	retq   
