


Disassembly of section .text:

000000000000a0a0 <_start>:
    a0a0:	f3 0f 1e fa          	endbr64 
    a0a4:	31 ed                	xor    %ebp,%ebp
    a0a6:	49 89 d1             	mov    %rdx,%r9
    a0a9:	5e                   	pop    %rsi
    a0aa:	48 89 e2             	mov    %rsp,%rdx
    a0ad:	48 83 e4 f0          	and    $0xfffffffffffffff0,%rsp
    a0b1:	50                   	push   %rax
    a0b2:	54                   	push   %rsp
    a0b3:	4c 8d 05 d6 ec 00 00 	lea    0xecd6(%rip),%r8        # 18d90 <__libc_csu_fini>
    a0ba:	48 8d 0d 5f ec 00 00 	lea    0xec5f(%rip),%rcx        # 18d20 <__libc_csu_init>
    a0c1:	48 8d 3d 29 d9 00 00 	lea    0xd929(%rip),%rdi        # 179f1 <main>
    a0c8:	ff 15 12 2f 01 00    	callq  *0x12f12(%rip)        # 1cfe0 <__libc_start_main@GLIBC_2.2.5>
    a0ce:	f4                   	hlt    
    a0cf:	90                   	nop

000000000000a0d0 <deregister_tm_clones>:
    a0d0:	48 8d 3d a1 7f 01 00 	lea    0x17fa1(%rip),%rdi        # 22078 <__TMC_END__>
    a0d7:	48 8d 05 9a 7f 01 00 	lea    0x17f9a(%rip),%rax        # 22078 <__TMC_END__>
    a0de:	48 39 f8             	cmp    %rdi,%rax
    a0e1:	74 15                	je     a0f8 <deregister_tm_clones+0x28>
    a0e3:	48 8b 05 ee 2e 01 00 	mov    0x12eee(%rip),%rax        # 1cfd8 <_ITM_deregisterTMCloneTable>
    a0ea:	48 85 c0             	test   %rax,%rax
    a0ed:	74 09                	je     a0f8 <deregister_tm_clones+0x28>
    a0ef:	ff e0                	jmpq   *%rax
    a0f1:	0f 1f 80 00 00 00 00 	nopl   0x0(%rax)
    a0f8:	c3                   	retq   
    a0f9:	0f 1f 80 00 00 00 00 	nopl   0x0(%rax)

000000000000a100 <register_tm_clones>:
    a100:	48 8d 3d 71 7f 01 00 	lea    0x17f71(%rip),%rdi        # 22078 <__TMC_END__>
    a107:	48 8d 35 6a 7f 01 00 	lea    0x17f6a(%rip),%rsi        # 22078 <__TMC_END__>
    a10e:	48 29 fe             	sub    %rdi,%rsi
    a111:	48 89 f0             	mov    %rsi,%rax
    a114:	48 c1 ee 3f          	shr    $0x3f,%rsi
    a118:	48 c1 f8 03          	sar    $0x3,%rax
    a11c:	48 01 c6             	add    %rax,%rsi
    a11f:	48 d1 fe             	sar    %rsi
    a122:	74 14                	je     a138 <register_tm_clones+0x38>
    a124:	48 8b 05 c5 2e 01 00 	mov    0x12ec5(%rip),%rax        # 1cff0 <_ITM_registerTMCloneTable>
    a12b:	48 85 c0             	test   %rax,%rax
    a12e:	74 08                	je     a138 <register_tm_clones+0x38>
    a130:	ff e0                	jmpq   *%rax
    a132:	66 0f 1f 44 00 00    	nopw   0x0(%rax,%rax,1)
    a138:	c3                   	retq   
    a139:	0f 1f 80 00 00 00 00 	nopl   0x0(%rax)

000000000000a140 <__do_global_dtors_aux>:
    a140:	f3 0f 1e fa          	endbr64 
    a144:	80 3d 35 7f 01 00 00 	cmpb   $0x0,0x17f35(%rip)        # 22080 <completed.8061>
    a14b:	75 2b                	jne    a178 <__do_global_dtors_aux+0x38>
    a14d:	55                   	push   %rbp
    a14e:	48 83 3d a2 2e 01 00 	cmpq   $0x0,0x12ea2(%rip)        # 1cff8 <__cxa_finalize@GLIBC_2.2.5>
    a155:	00 
    a156:	48 89 e5             	mov    %rsp,%rbp
    a159:	74 0c                	je     a167 <__do_global_dtors_aux+0x27>
    a15b:	48 8b 3d a6 2e 01 00 	mov    0x12ea6(%rip),%rdi        # 1d008 <__dso_handle>
    a162:	e8 f9 fe ff ff       	callq  a060 <__cxa_finalize@plt>
    a167:	e8 64 ff ff ff       	callq  a0d0 <deregister_tm_clones>
    a16c:	c6 05 0d 7f 01 00 01 	movb   $0x1,0x17f0d(%rip)        # 22080 <completed.8061>
    a173:	5d                   	pop    %rbp
    a174:	c3                   	retq   
    a175:	0f 1f 00             	nopl   (%rax)
    a178:	c3                   	retq   
    a179:	0f 1f 80 00 00 00 00 	nopl   0x0(%rax)

000000000000a180 <frame_dummy>:
    a180:	f3 0f 1e fa          	endbr64 
    a184:	e9 77 ff ff ff       	jmpq   a100 <register_tm_clones>

000000000000a189 <platform_main_begin>:
    a189:	f3 0f 1e fa          	endbr64 
    a18d:	55                   	push   %rbp
    a18e:	48 89 e5             	mov    %rsp,%rbp
    a191:	90                   	nop
    a192:	5d                   	pop    %rbp
    a193:	c3                   	retq   

000000000000a194 <platform_main_end>:
    a194:	f3 0f 1e fa          	endbr64 
    a198:	55                   	push   %rbp
    a199:	48 89 e5             	mov    %rsp,%rbp
    a19c:	48 83 ec 10          	sub    $0x10,%rsp
    a1a0:	89 7d fc             	mov    %edi,-0x4(%rbp)
    a1a3:	89 75 f8             	mov    %esi,-0x8(%rbp)
    a1a6:	8b 45 fc             	mov    -0x4(%rbp),%eax
    a1a9:	89 c6                	mov    %eax,%esi
    a1ab:	48 8d 3d 6e ee 00 00 	lea    0xee6e(%rip),%rdi        # 19020 <_IO_stdin_used+0x20>
    a1b2:	b8 00 00 00 00       	mov    $0x0,%eax
    a1b7:	e8 c4 fe ff ff       	callq  a080 <printf@plt>
    a1bc:	90                   	nop
    a1bd:	c9                   	leaveq 
    a1be:	c3                   	retq   

000000000000a1bf <safe_unary_minus_func_int8_t_s>:
    a1bf:	f3 0f 1e fa          	endbr64 
    a1c3:	55                   	push   %rbp
    a1c4:	48 89 e5             	mov    %rsp,%rbp
    a1c7:	89 f8                	mov    %edi,%eax
    a1c9:	88 45 fc             	mov    %al,-0x4(%rbp)
    a1cc:	0f b6 45 fc          	movzbl -0x4(%rbp),%eax
    a1d0:	f7 d8                	neg    %eax
    a1d2:	5d                   	pop    %rbp
    a1d3:	c3                   	retq   

000000000000a1d4 <safe_add_func_int8_t_s_s>:
    a1d4:	f3 0f 1e fa          	endbr64 
    a1d8:	55                   	push   %rbp
    a1d9:	48 89 e5             	mov    %rsp,%rbp
    a1dc:	89 fa                	mov    %edi,%edx
    a1de:	89 f0                	mov    %esi,%eax
    a1e0:	88 55 fc             	mov    %dl,-0x4(%rbp)
    a1e3:	88 45 f8             	mov    %al,-0x8(%rbp)
    a1e6:	0f b6 55 fc          	movzbl -0x4(%rbp),%edx
    a1ea:	0f b6 45 f8          	movzbl -0x8(%rbp),%eax
    a1ee:	01 d0                	add    %edx,%eax
    a1f0:	5d                   	pop    %rbp
    a1f1:	c3                   	retq   

000000000000a1f2 <safe_sub_func_int8_t_s_s>:
    a1f2:	f3 0f 1e fa          	endbr64 
    a1f6:	55                   	push   %rbp
    a1f7:	48 89 e5             	mov    %rsp,%rbp
    a1fa:	89 fa                	mov    %edi,%edx
    a1fc:	89 f0                	mov    %esi,%eax
    a1fe:	88 55 fc             	mov    %dl,-0x4(%rbp)
    a201:	88 45 f8             	mov    %al,-0x8(%rbp)
    a204:	0f b6 55 fc          	movzbl -0x4(%rbp),%edx
    a208:	0f b6 45 f8          	movzbl -0x8(%rbp),%eax
    a20c:	29 c2                	sub    %eax,%edx
    a20e:	89 d0                	mov    %edx,%eax
    a210:	5d                   	pop    %rbp
    a211:	c3                   	retq   

000000000000a212 <safe_mul_func_int8_t_s_s>:
    a212:	f3 0f 1e fa          	endbr64 
    a216:	55                   	push   %rbp
    a217:	48 89 e5             	mov    %rsp,%rbp
    a21a:	89 fa                	mov    %edi,%edx
    a21c:	89 f0                	mov    %esi,%eax
    a21e:	88 55 fc             	mov    %dl,-0x4(%rbp)
    a221:	88 45 f8             	mov    %al,-0x8(%rbp)
    a224:	0f b6 45 fc          	movzbl -0x4(%rbp),%eax
    a228:	0f b6 55 f8          	movzbl -0x8(%rbp),%edx
    a22c:	0f af c2             	imul   %edx,%eax
    a22f:	5d                   	pop    %rbp
    a230:	c3                   	retq   

000000000000a231 <safe_mod_func_int8_t_s_s>:
    a231:	f3 0f 1e fa          	endbr64 
    a235:	55                   	push   %rbp
    a236:	48 89 e5             	mov    %rsp,%rbp
    a239:	89 fa                	mov    %edi,%edx
    a23b:	89 f0                	mov    %esi,%eax
    a23d:	88 55 fc             	mov    %dl,-0x4(%rbp)
    a240:	88 45 f8             	mov    %al,-0x8(%rbp)
    a243:	80 7d f8 00          	cmpb   $0x0,-0x8(%rbp)
    a247:	74 1b                	je     a264 <safe_mod_func_int8_t_s_s+0x33>
    a249:	80 7d fc 80          	cmpb   $0x80,-0x4(%rbp)
    a24d:	75 06                	jne    a255 <safe_mod_func_int8_t_s_s+0x24>
    a24f:	80 7d f8 ff          	cmpb   $0xff,-0x8(%rbp)
    a253:	74 0f                	je     a264 <safe_mod_func_int8_t_s_s+0x33>
    a255:	0f be 45 fc          	movsbl -0x4(%rbp),%eax
    a259:	0f be 4d f8          	movsbl -0x8(%rbp),%ecx
    a25d:	99                   	cltd   
    a25e:	f7 f9                	idiv   %ecx
    a260:	89 d0                	mov    %edx,%eax
    a262:	eb 04                	jmp    a268 <safe_mod_func_int8_t_s_s+0x37>
    a264:	0f b6 45 fc          	movzbl -0x4(%rbp),%eax
    a268:	5d                   	pop    %rbp
    a269:	c3                   	retq   

000000000000a26a <safe_div_func_int8_t_s_s>:
    a26a:	f3 0f 1e fa          	endbr64 
    a26e:	55                   	push   %rbp
    a26f:	48 89 e5             	mov    %rsp,%rbp
    a272:	89 fa                	mov    %edi,%edx
    a274:	89 f0                	mov    %esi,%eax
    a276:	88 55 fc             	mov    %dl,-0x4(%rbp)
    a279:	88 45 f8             	mov    %al,-0x8(%rbp)
    a27c:	80 7d f8 00          	cmpb   $0x0,-0x8(%rbp)
    a280:	74 19                	je     a29b <safe_div_func_int8_t_s_s+0x31>
    a282:	80 7d fc 80          	cmpb   $0x80,-0x4(%rbp)
    a286:	75 06                	jne    a28e <safe_div_func_int8_t_s_s+0x24>
    a288:	80 7d f8 ff          	cmpb   $0xff,-0x8(%rbp)
    a28c:	74 0d                	je     a29b <safe_div_func_int8_t_s_s+0x31>
    a28e:	0f be 45 fc          	movsbl -0x4(%rbp),%eax
    a292:	0f be 4d f8          	movsbl -0x8(%rbp),%ecx
    a296:	99                   	cltd   
    a297:	f7 f9                	idiv   %ecx
    a299:	eb 04                	jmp    a29f <safe_div_func_int8_t_s_s+0x35>
    a29b:	0f b6 45 fc          	movzbl -0x4(%rbp),%eax
    a29f:	5d                   	pop    %rbp
    a2a0:	c3                   	retq   

000000000000a2a1 <safe_lshift_func_int8_t_s_s>:
    a2a1:	f3 0f 1e fa          	endbr64 
    a2a5:	55                   	push   %rbp
    a2a6:	48 89 e5             	mov    %rsp,%rbp
    a2a9:	89 f8                	mov    %edi,%eax
    a2ab:	89 75 f8             	mov    %esi,-0x8(%rbp)
    a2ae:	88 45 fc             	mov    %al,-0x4(%rbp)
    a2b1:	80 7d fc 00          	cmpb   $0x0,-0x4(%rbp)
    a2b5:	78 31                	js     a2e8 <safe_lshift_func_int8_t_s_s+0x47>
    a2b7:	83 7d f8 00          	cmpl   $0x0,-0x8(%rbp)
    a2bb:	78 2b                	js     a2e8 <safe_lshift_func_int8_t_s_s+0x47>
    a2bd:	83 7d f8 1f          	cmpl   $0x1f,-0x8(%rbp)
    a2c1:	7f 25                	jg     a2e8 <safe_lshift_func_int8_t_s_s+0x47>
    a2c3:	0f be 55 fc          	movsbl -0x4(%rbp),%edx
    a2c7:	8b 45 f8             	mov    -0x8(%rbp),%eax
    a2ca:	be 7f 00 00 00       	mov    $0x7f,%esi
    a2cf:	89 c1                	mov    %eax,%ecx
    a2d1:	d3 fe                	sar    %cl,%esi
    a2d3:	89 f0                	mov    %esi,%eax
    a2d5:	39 c2                	cmp    %eax,%edx
    a2d7:	7f 0f                	jg     a2e8 <safe_lshift_func_int8_t_s_s+0x47>
    a2d9:	0f be 55 fc          	movsbl -0x4(%rbp),%edx
    a2dd:	8b 45 f8             	mov    -0x8(%rbp),%eax
    a2e0:	89 c1                	mov    %eax,%ecx
    a2e2:	d3 e2                	shl    %cl,%edx
    a2e4:	89 d0                	mov    %edx,%eax
    a2e6:	eb 04                	jmp    a2ec <safe_lshift_func_int8_t_s_s+0x4b>
    a2e8:	0f b6 45 fc          	movzbl -0x4(%rbp),%eax
    a2ec:	5d                   	pop    %rbp
    a2ed:	c3                   	retq   

000000000000a2ee <safe_lshift_func_int8_t_s_u>:
    a2ee:	f3 0f 1e fa          	endbr64 
    a2f2:	55                   	push   %rbp
    a2f3:	48 89 e5             	mov    %rsp,%rbp
    a2f6:	89 f8                	mov    %edi,%eax
    a2f8:	89 75 f8             	mov    %esi,-0x8(%rbp)
    a2fb:	88 45 fc             	mov    %al,-0x4(%rbp)
    a2fe:	80 7d fc 00          	cmpb   $0x0,-0x4(%rbp)
    a302:	78 2b                	js     a32f <safe_lshift_func_int8_t_s_u+0x41>
    a304:	83 7d f8 1f          	cmpl   $0x1f,-0x8(%rbp)
    a308:	77 25                	ja     a32f <safe_lshift_func_int8_t_s_u+0x41>
    a30a:	0f be 55 fc          	movsbl -0x4(%rbp),%edx
    a30e:	8b 45 f8             	mov    -0x8(%rbp),%eax
    a311:	be 7f 00 00 00       	mov    $0x7f,%esi
    a316:	89 c1                	mov    %eax,%ecx
    a318:	d3 fe                	sar    %cl,%esi
    a31a:	89 f0                	mov    %esi,%eax
    a31c:	39 c2                	cmp    %eax,%edx
    a31e:	7f 0f                	jg     a32f <safe_lshift_func_int8_t_s_u+0x41>
    a320:	0f be 55 fc          	movsbl -0x4(%rbp),%edx
    a324:	8b 45 f8             	mov    -0x8(%rbp),%eax
    a327:	89 c1                	mov    %eax,%ecx
    a329:	d3 e2                	shl    %cl,%edx
    a32b:	89 d0                	mov    %edx,%eax
    a32d:	eb 04                	jmp    a333 <safe_lshift_func_int8_t_s_u+0x45>
    a32f:	0f b6 45 fc          	movzbl -0x4(%rbp),%eax
    a333:	5d                   	pop    %rbp
    a334:	c3                   	retq   

000000000000a335 <safe_rshift_func_int8_t_s_s>:
    a335:	f3 0f 1e fa          	endbr64 
    a339:	55                   	push   %rbp
    a33a:	48 89 e5             	mov    %rsp,%rbp
    a33d:	89 f8                	mov    %edi,%eax
    a33f:	89 75 f8             	mov    %esi,-0x8(%rbp)
    a342:	88 45 fc             	mov    %al,-0x4(%rbp)
    a345:	80 7d fc 00          	cmpb   $0x0,-0x4(%rbp)
    a349:	78 1b                	js     a366 <safe_rshift_func_int8_t_s_s+0x31>
    a34b:	83 7d f8 00          	cmpl   $0x0,-0x8(%rbp)
    a34f:	78 15                	js     a366 <safe_rshift_func_int8_t_s_s+0x31>
    a351:	83 7d f8 1f          	cmpl   $0x1f,-0x8(%rbp)
    a355:	7f 0f                	jg     a366 <safe_rshift_func_int8_t_s_s+0x31>
    a357:	0f be 55 fc          	movsbl -0x4(%rbp),%edx
    a35b:	8b 45 f8             	mov    -0x8(%rbp),%eax
    a35e:	89 c1                	mov    %eax,%ecx
    a360:	d3 fa                	sar    %cl,%edx
    a362:	89 d0                	mov    %edx,%eax
    a364:	eb 04                	jmp    a36a <safe_rshift_func_int8_t_s_s+0x35>
    a366:	0f b6 45 fc          	movzbl -0x4(%rbp),%eax
    a36a:	5d                   	pop    %rbp
    a36b:	c3                   	retq   

000000000000a36c <safe_rshift_func_int8_t_s_u>:
    a36c:	f3 0f 1e fa          	endbr64 
    a370:	55                   	push   %rbp
    a371:	48 89 e5             	mov    %rsp,%rbp
    a374:	89 f8                	mov    %edi,%eax
    a376:	89 75 f8             	mov    %esi,-0x8(%rbp)
    a379:	88 45 fc             	mov    %al,-0x4(%rbp)
    a37c:	80 7d fc 00          	cmpb   $0x0,-0x4(%rbp)
    a380:	78 15                	js     a397 <safe_rshift_func_int8_t_s_u+0x2b>
    a382:	83 7d f8 1f          	cmpl   $0x1f,-0x8(%rbp)
    a386:	77 0f                	ja     a397 <safe_rshift_func_int8_t_s_u+0x2b>
    a388:	0f be 55 fc          	movsbl -0x4(%rbp),%edx
    a38c:	8b 45 f8             	mov    -0x8(%rbp),%eax
    a38f:	89 c1                	mov    %eax,%ecx
    a391:	d3 fa                	sar    %cl,%edx
    a393:	89 d0                	mov    %edx,%eax
    a395:	eb 04                	jmp    a39b <safe_rshift_func_int8_t_s_u+0x2f>
    a397:	0f b6 45 fc          	movzbl -0x4(%rbp),%eax
    a39b:	5d                   	pop    %rbp
    a39c:	c3                   	retq   

000000000000a39d <safe_unary_minus_func_int16_t_s>:
    a39d:	f3 0f 1e fa          	endbr64 
    a3a1:	55                   	push   %rbp
    a3a2:	48 89 e5             	mov    %rsp,%rbp
    a3a5:	89 f8                	mov    %edi,%eax
    a3a7:	66 89 45 fc          	mov    %ax,-0x4(%rbp)
    a3ab:	0f b7 45 fc          	movzwl -0x4(%rbp),%eax
    a3af:	f7 d8                	neg    %eax
    a3b1:	5d                   	pop    %rbp
    a3b2:	c3                   	retq   

000000000000a3b3 <safe_add_func_int16_t_s_s>:
    a3b3:	f3 0f 1e fa          	endbr64 
    a3b7:	55                   	push   %rbp
    a3b8:	48 89 e5             	mov    %rsp,%rbp
    a3bb:	89 fa                	mov    %edi,%edx
    a3bd:	89 f0                	mov    %esi,%eax
    a3bf:	66 89 55 fc          	mov    %dx,-0x4(%rbp)
    a3c3:	66 89 45 f8          	mov    %ax,-0x8(%rbp)
    a3c7:	0f b7 55 fc          	movzwl -0x4(%rbp),%edx
    a3cb:	0f b7 45 f8          	movzwl -0x8(%rbp),%eax
    a3cf:	01 d0                	add    %edx,%eax
    a3d1:	5d                   	pop    %rbp
    a3d2:	c3                   	retq   

000000000000a3d3 <safe_sub_func_int16_t_s_s>:
    a3d3:	f3 0f 1e fa          	endbr64 
    a3d7:	55                   	push   %rbp
    a3d8:	48 89 e5             	mov    %rsp,%rbp
    a3db:	89 fa                	mov    %edi,%edx
    a3dd:	89 f0                	mov    %esi,%eax
    a3df:	66 89 55 fc          	mov    %dx,-0x4(%rbp)
    a3e3:	66 89 45 f8          	mov    %ax,-0x8(%rbp)
    a3e7:	0f b7 55 fc          	movzwl -0x4(%rbp),%edx
    a3eb:	0f b7 45 f8          	movzwl -0x8(%rbp),%eax
    a3ef:	29 c2                	sub    %eax,%edx
    a3f1:	89 d0                	mov    %edx,%eax
    a3f3:	5d                   	pop    %rbp
    a3f4:	c3                   	retq   

000000000000a3f5 <safe_mul_func_int16_t_s_s>:
    a3f5:	f3 0f 1e fa          	endbr64 
    a3f9:	55                   	push   %rbp
    a3fa:	48 89 e5             	mov    %rsp,%rbp
    a3fd:	89 fa                	mov    %edi,%edx
    a3ff:	89 f0                	mov    %esi,%eax
    a401:	66 89 55 fc          	mov    %dx,-0x4(%rbp)
    a405:	66 89 45 f8          	mov    %ax,-0x8(%rbp)
    a409:	0f b7 55 fc          	movzwl -0x4(%rbp),%edx
    a40d:	0f b7 45 f8          	movzwl -0x8(%rbp),%eax
    a411:	0f af c2             	imul   %edx,%eax
    a414:	5d                   	pop    %rbp
    a415:	c3                   	retq   

000000000000a416 <safe_mod_func_int16_t_s_s>:
    a416:	f3 0f 1e fa          	endbr64 
    a41a:	55                   	push   %rbp
    a41b:	48 89 e5             	mov    %rsp,%rbp
    a41e:	89 fa                	mov    %edi,%edx
    a420:	89 f0                	mov    %esi,%eax
    a422:	66 89 55 fc          	mov    %dx,-0x4(%rbp)
    a426:	66 89 45 f8          	mov    %ax,-0x8(%rbp)
    a42a:	66 83 7d f8 00       	cmpw   $0x0,-0x8(%rbp)
    a42f:	74 1e                	je     a44f <safe_mod_func_int16_t_s_s+0x39>
    a431:	66 81 7d fc 00 80    	cmpw   $0x8000,-0x4(%rbp)
    a437:	75 07                	jne    a440 <safe_mod_func_int16_t_s_s+0x2a>
    a439:	66 83 7d f8 ff       	cmpw   $0xffff,-0x8(%rbp)
    a43e:	74 0f                	je     a44f <safe_mod_func_int16_t_s_s+0x39>
    a440:	0f bf 45 fc          	movswl -0x4(%rbp),%eax
    a444:	0f bf 4d f8          	movswl -0x8(%rbp),%ecx
    a448:	99                   	cltd   
    a449:	f7 f9                	idiv   %ecx
    a44b:	89 d0                	mov    %edx,%eax
    a44d:	eb 04                	jmp    a453 <safe_mod_func_int16_t_s_s+0x3d>
    a44f:	0f b7 45 fc          	movzwl -0x4(%rbp),%eax
    a453:	5d                   	pop    %rbp
    a454:	c3                   	retq   

000000000000a455 <safe_div_func_int16_t_s_s>:
    a455:	f3 0f 1e fa          	endbr64 
    a459:	55                   	push   %rbp
    a45a:	48 89 e5             	mov    %rsp,%rbp
    a45d:	89 fa                	mov    %edi,%edx
    a45f:	89 f0                	mov    %esi,%eax
    a461:	66 89 55 fc          	mov    %dx,-0x4(%rbp)
    a465:	66 89 45 f8          	mov    %ax,-0x8(%rbp)
    a469:	66 83 7d f8 00       	cmpw   $0x0,-0x8(%rbp)
    a46e:	74 1c                	je     a48c <safe_div_func_int16_t_s_s+0x37>
    a470:	66 81 7d fc 00 80    	cmpw   $0x8000,-0x4(%rbp)
    a476:	75 07                	jne    a47f <safe_div_func_int16_t_s_s+0x2a>
    a478:	66 83 7d f8 ff       	cmpw   $0xffff,-0x8(%rbp)
    a47d:	74 0d                	je     a48c <safe_div_func_int16_t_s_s+0x37>
    a47f:	0f bf 45 fc          	movswl -0x4(%rbp),%eax
    a483:	0f bf 4d f8          	movswl -0x8(%rbp),%ecx
    a487:	99                   	cltd   
    a488:	f7 f9                	idiv   %ecx
    a48a:	eb 04                	jmp    a490 <safe_div_func_int16_t_s_s+0x3b>
    a48c:	0f b7 45 fc          	movzwl -0x4(%rbp),%eax
    a490:	5d                   	pop    %rbp
    a491:	c3                   	retq   

000000000000a492 <safe_lshift_func_int16_t_s_s>:
    a492:	f3 0f 1e fa          	endbr64 
    a496:	55                   	push   %rbp
    a497:	48 89 e5             	mov    %rsp,%rbp
    a49a:	89 f8                	mov    %edi,%eax
    a49c:	89 75 f8             	mov    %esi,-0x8(%rbp)
    a49f:	66 89 45 fc          	mov    %ax,-0x4(%rbp)
    a4a3:	66 83 7d fc 00       	cmpw   $0x0,-0x4(%rbp)
    a4a8:	78 31                	js     a4db <safe_lshift_func_int16_t_s_s+0x49>
    a4aa:	83 7d f8 00          	cmpl   $0x0,-0x8(%rbp)
    a4ae:	78 2b                	js     a4db <safe_lshift_func_int16_t_s_s+0x49>
    a4b0:	83 7d f8 1f          	cmpl   $0x1f,-0x8(%rbp)
    a4b4:	7f 25                	jg     a4db <safe_lshift_func_int16_t_s_s+0x49>
    a4b6:	0f bf 55 fc          	movswl -0x4(%rbp),%edx
    a4ba:	8b 45 f8             	mov    -0x8(%rbp),%eax
    a4bd:	be ff 7f 00 00       	mov    $0x7fff,%esi
    a4c2:	89 c1                	mov    %eax,%ecx
    a4c4:	d3 fe                	sar    %cl,%esi
    a4c6:	89 f0                	mov    %esi,%eax
    a4c8:	39 c2                	cmp    %eax,%edx
    a4ca:	7f 0f                	jg     a4db <safe_lshift_func_int16_t_s_s+0x49>
    a4cc:	0f bf 55 fc          	movswl -0x4(%rbp),%edx
    a4d0:	8b 45 f8             	mov    -0x8(%rbp),%eax
    a4d3:	89 c1                	mov    %eax,%ecx
    a4d5:	d3 e2                	shl    %cl,%edx
    a4d7:	89 d0                	mov    %edx,%eax
    a4d9:	eb 04                	jmp    a4df <safe_lshift_func_int16_t_s_s+0x4d>
    a4db:	0f b7 45 fc          	movzwl -0x4(%rbp),%eax
    a4df:	5d                   	pop    %rbp
    a4e0:	c3                   	retq   

000000000000a4e1 <safe_lshift_func_int16_t_s_u>:
    a4e1:	f3 0f 1e fa          	endbr64 
    a4e5:	55                   	push   %rbp
    a4e6:	48 89 e5             	mov    %rsp,%rbp
    a4e9:	89 f8                	mov    %edi,%eax
    a4eb:	89 75 f8             	mov    %esi,-0x8(%rbp)
    a4ee:	66 89 45 fc          	mov    %ax,-0x4(%rbp)
    a4f2:	66 83 7d fc 00       	cmpw   $0x0,-0x4(%rbp)
    a4f7:	78 2b                	js     a524 <safe_lshift_func_int16_t_s_u+0x43>
    a4f9:	83 7d f8 1f          	cmpl   $0x1f,-0x8(%rbp)
    a4fd:	77 25                	ja     a524 <safe_lshift_func_int16_t_s_u+0x43>
    a4ff:	0f bf 55 fc          	movswl -0x4(%rbp),%edx
    a503:	8b 45 f8             	mov    -0x8(%rbp),%eax
    a506:	be ff 7f 00 00       	mov    $0x7fff,%esi
    a50b:	89 c1                	mov    %eax,%ecx
    a50d:	d3 fe                	sar    %cl,%esi
    a50f:	89 f0                	mov    %esi,%eax
    a511:	39 c2                	cmp    %eax,%edx
    a513:	7f 0f                	jg     a524 <safe_lshift_func_int16_t_s_u+0x43>
    a515:	0f bf 55 fc          	movswl -0x4(%rbp),%edx
    a519:	8b 45 f8             	mov    -0x8(%rbp),%eax
    a51c:	89 c1                	mov    %eax,%ecx
    a51e:	d3 e2                	shl    %cl,%edx
    a520:	89 d0                	mov    %edx,%eax
    a522:	eb 04                	jmp    a528 <safe_lshift_func_int16_t_s_u+0x47>
    a524:	0f b7 45 fc          	movzwl -0x4(%rbp),%eax
    a528:	5d                   	pop    %rbp
    a529:	c3                   	retq   

000000000000a52a <safe_rshift_func_int16_t_s_s>:
    a52a:	f3 0f 1e fa          	endbr64 
    a52e:	55                   	push   %rbp
    a52f:	48 89 e5             	mov    %rsp,%rbp
    a532:	89 f8                	mov    %edi,%eax
    a534:	89 75 f8             	mov    %esi,-0x8(%rbp)
    a537:	66 89 45 fc          	mov    %ax,-0x4(%rbp)
    a53b:	66 83 7d fc 00       	cmpw   $0x0,-0x4(%rbp)
    a540:	78 1b                	js     a55d <safe_rshift_func_int16_t_s_s+0x33>
    a542:	83 7d f8 00          	cmpl   $0x0,-0x8(%rbp)
    a546:	78 15                	js     a55d <safe_rshift_func_int16_t_s_s+0x33>
    a548:	83 7d f8 1f          	cmpl   $0x1f,-0x8(%rbp)
    a54c:	7f 0f                	jg     a55d <safe_rshift_func_int16_t_s_s+0x33>
    a54e:	0f bf 55 fc          	movswl -0x4(%rbp),%edx
    a552:	8b 45 f8             	mov    -0x8(%rbp),%eax
    a555:	89 c1                	mov    %eax,%ecx
    a557:	d3 fa                	sar    %cl,%edx
    a559:	89 d0                	mov    %edx,%eax
    a55b:	eb 04                	jmp    a561 <safe_rshift_func_int16_t_s_s+0x37>
    a55d:	0f b7 45 fc          	movzwl -0x4(%rbp),%eax
    a561:	5d                   	pop    %rbp
    a562:	c3                   	retq   

000000000000a563 <safe_rshift_func_int16_t_s_u>:
    a563:	f3 0f 1e fa          	endbr64 
    a567:	55                   	push   %rbp
    a568:	48 89 e5             	mov    %rsp,%rbp
    a56b:	89 f8                	mov    %edi,%eax
    a56d:	89 75 f8             	mov    %esi,-0x8(%rbp)
    a570:	66 89 45 fc          	mov    %ax,-0x4(%rbp)
    a574:	66 83 7d fc 00       	cmpw   $0x0,-0x4(%rbp)
    a579:	78 15                	js     a590 <safe_rshift_func_int16_t_s_u+0x2d>
    a57b:	83 7d f8 1f          	cmpl   $0x1f,-0x8(%rbp)
    a57f:	77 0f                	ja     a590 <safe_rshift_func_int16_t_s_u+0x2d>
    a581:	0f bf 55 fc          	movswl -0x4(%rbp),%edx
    a585:	8b 45 f8             	mov    -0x8(%rbp),%eax
    a588:	89 c1                	mov    %eax,%ecx
    a58a:	d3 fa                	sar    %cl,%edx
    a58c:	89 d0                	mov    %edx,%eax
    a58e:	eb 04                	jmp    a594 <safe_rshift_func_int16_t_s_u+0x31>
    a590:	0f b7 45 fc          	movzwl -0x4(%rbp),%eax
    a594:	5d                   	pop    %rbp
    a595:	c3                   	retq   

000000000000a596 <safe_unary_minus_func_int32_t_s>:
    a596:	f3 0f 1e fa          	endbr64 
    a59a:	55                   	push   %rbp
    a59b:	48 89 e5             	mov    %rsp,%rbp
    a59e:	89 7d fc             	mov    %edi,-0x4(%rbp)
    a5a1:	81 7d fc 00 00 00 80 	cmpl   $0x80000000,-0x4(%rbp)
    a5a8:	74 07                	je     a5b1 <safe_unary_minus_func_int32_t_s+0x1b>
    a5aa:	8b 45 fc             	mov    -0x4(%rbp),%eax
    a5ad:	f7 d8                	neg    %eax
    a5af:	eb 03                	jmp    a5b4 <safe_unary_minus_func_int32_t_s+0x1e>
    a5b1:	8b 45 fc             	mov    -0x4(%rbp),%eax
    a5b4:	5d                   	pop    %rbp
    a5b5:	c3                   	retq   

000000000000a5b6 <safe_add_func_int32_t_s_s>:
    a5b6:	f3 0f 1e fa          	endbr64 
    a5ba:	55                   	push   %rbp
    a5bb:	48 89 e5             	mov    %rsp,%rbp
    a5be:	89 7d fc             	mov    %edi,-0x4(%rbp)
    a5c1:	89 75 f8             	mov    %esi,-0x8(%rbp)
    a5c4:	83 7d fc 00          	cmpl   $0x0,-0x4(%rbp)
    a5c8:	7e 13                	jle    a5dd <safe_add_func_int32_t_s_s+0x27>
    a5ca:	83 7d f8 00          	cmpl   $0x0,-0x8(%rbp)
    a5ce:	7e 0d                	jle    a5dd <safe_add_func_int32_t_s_s+0x27>
    a5d0:	b8 ff ff ff 7f       	mov    $0x7fffffff,%eax
    a5d5:	2b 45 f8             	sub    -0x8(%rbp),%eax
    a5d8:	39 45 fc             	cmp    %eax,-0x4(%rbp)
    a5db:	7f 23                	jg     a600 <safe_add_func_int32_t_s_s+0x4a>
    a5dd:	83 7d fc 00          	cmpl   $0x0,-0x4(%rbp)
    a5e1:	79 13                	jns    a5f6 <safe_add_func_int32_t_s_s+0x40>
    a5e3:	83 7d f8 00          	cmpl   $0x0,-0x8(%rbp)
    a5e7:	79 0d                	jns    a5f6 <safe_add_func_int32_t_s_s+0x40>
    a5e9:	b8 00 00 00 80       	mov    $0x80000000,%eax
    a5ee:	2b 45 f8             	sub    -0x8(%rbp),%eax
    a5f1:	39 45 fc             	cmp    %eax,-0x4(%rbp)
    a5f4:	7c 0a                	jl     a600 <safe_add_func_int32_t_s_s+0x4a>
    a5f6:	8b 55 fc             	mov    -0x4(%rbp),%edx
    a5f9:	8b 45 f8             	mov    -0x8(%rbp),%eax
    a5fc:	01 d0                	add    %edx,%eax
    a5fe:	eb 03                	jmp    a603 <safe_add_func_int32_t_s_s+0x4d>
    a600:	8b 45 fc             	mov    -0x4(%rbp),%eax
    a603:	5d                   	pop    %rbp
    a604:	c3                   	retq   

000000000000a605 <safe_sub_func_int32_t_s_s>:
    a605:	f3 0f 1e fa          	endbr64 
    a609:	55                   	push   %rbp
    a60a:	48 89 e5             	mov    %rsp,%rbp
    a60d:	89 7d fc             	mov    %edi,-0x4(%rbp)
    a610:	89 75 f8             	mov    %esi,-0x8(%rbp)
    a613:	8b 45 fc             	mov    -0x4(%rbp),%eax
    a616:	33 45 f8             	xor    -0x8(%rbp),%eax
    a619:	89 c2                	mov    %eax,%edx
    a61b:	8b 45 fc             	mov    -0x4(%rbp),%eax
    a61e:	33 45 f8             	xor    -0x8(%rbp),%eax
    a621:	25 00 00 00 80       	and    $0x80000000,%eax
    a626:	33 45 fc             	xor    -0x4(%rbp),%eax
    a629:	2b 45 f8             	sub    -0x8(%rbp),%eax
    a62c:	33 45 f8             	xor    -0x8(%rbp),%eax
    a62f:	21 d0                	and    %edx,%eax
    a631:	85 c0                	test   %eax,%eax
    a633:	78 08                	js     a63d <safe_sub_func_int32_t_s_s+0x38>
    a635:	8b 45 fc             	mov    -0x4(%rbp),%eax
    a638:	2b 45 f8             	sub    -0x8(%rbp),%eax
    a63b:	eb 03                	jmp    a640 <safe_sub_func_int32_t_s_s+0x3b>
    a63d:	8b 45 fc             	mov    -0x4(%rbp),%eax
    a640:	5d                   	pop    %rbp
    a641:	c3                   	retq   

000000000000a642 <safe_mul_func_int32_t_s_s>:
    a642:	f3 0f 1e fa          	endbr64 
    a646:	55                   	push   %rbp
    a647:	48 89 e5             	mov    %rsp,%rbp
    a64a:	89 7d fc             	mov    %edi,-0x4(%rbp)
    a64d:	89 75 f8             	mov    %esi,-0x8(%rbp)
    a650:	83 7d fc 00          	cmpl   $0x0,-0x4(%rbp)
    a654:	7e 14                	jle    a66a <safe_mul_func_int32_t_s_s+0x28>
    a656:	83 7d f8 00          	cmpl   $0x0,-0x8(%rbp)
    a65a:	7e 0e                	jle    a66a <safe_mul_func_int32_t_s_s+0x28>
    a65c:	b8 ff ff ff 7f       	mov    $0x7fffffff,%eax
    a661:	99                   	cltd   
    a662:	f7 7d f8             	idivl  -0x8(%rbp)
    a665:	39 45 fc             	cmp    %eax,-0x4(%rbp)
    a668:	7f 5d                	jg     a6c7 <safe_mul_func_int32_t_s_s+0x85>
    a66a:	83 7d fc 00          	cmpl   $0x0,-0x4(%rbp)
    a66e:	7e 14                	jle    a684 <safe_mul_func_int32_t_s_s+0x42>
    a670:	83 7d f8 00          	cmpl   $0x0,-0x8(%rbp)
    a674:	7f 0e                	jg     a684 <safe_mul_func_int32_t_s_s+0x42>
    a676:	b8 00 00 00 80       	mov    $0x80000000,%eax
    a67b:	99                   	cltd   
    a67c:	f7 7d fc             	idivl  -0x4(%rbp)
    a67f:	39 45 f8             	cmp    %eax,-0x8(%rbp)
    a682:	7c 43                	jl     a6c7 <safe_mul_func_int32_t_s_s+0x85>
    a684:	83 7d fc 00          	cmpl   $0x0,-0x4(%rbp)
    a688:	7f 14                	jg     a69e <safe_mul_func_int32_t_s_s+0x5c>
    a68a:	83 7d f8 00          	cmpl   $0x0,-0x8(%rbp)
    a68e:	7e 0e                	jle    a69e <safe_mul_func_int32_t_s_s+0x5c>
    a690:	b8 00 00 00 80       	mov    $0x80000000,%eax
    a695:	99                   	cltd   
    a696:	f7 7d f8             	idivl  -0x8(%rbp)
    a699:	39 45 fc             	cmp    %eax,-0x4(%rbp)
    a69c:	7c 29                	jl     a6c7 <safe_mul_func_int32_t_s_s+0x85>
    a69e:	83 7d fc 00          	cmpl   $0x0,-0x4(%rbp)
    a6a2:	7f 1a                	jg     a6be <safe_mul_func_int32_t_s_s+0x7c>
    a6a4:	83 7d f8 00          	cmpl   $0x0,-0x8(%rbp)
    a6a8:	7f 14                	jg     a6be <safe_mul_func_int32_t_s_s+0x7c>
    a6aa:	83 7d fc 00          	cmpl   $0x0,-0x4(%rbp)
    a6ae:	74 0e                	je     a6be <safe_mul_func_int32_t_s_s+0x7c>
    a6b0:	b8 ff ff ff 7f       	mov    $0x7fffffff,%eax
    a6b5:	99                   	cltd   
    a6b6:	f7 7d fc             	idivl  -0x4(%rbp)
    a6b9:	39 45 f8             	cmp    %eax,-0x8(%rbp)
    a6bc:	7c 09                	jl     a6c7 <safe_mul_func_int32_t_s_s+0x85>
    a6be:	8b 45 fc             	mov    -0x4(%rbp),%eax
    a6c1:	0f af 45 f8          	imul   -0x8(%rbp),%eax
    a6c5:	eb 03                	jmp    a6ca <safe_mul_func_int32_t_s_s+0x88>
    a6c7:	8b 45 fc             	mov    -0x4(%rbp),%eax
    a6ca:	5d                   	pop    %rbp
    a6cb:	c3                   	retq   

000000000000a6cc <safe_mod_func_int32_t_s_s>:
    a6cc:	f3 0f 1e fa          	endbr64 
    a6d0:	55                   	push   %rbp
    a6d1:	48 89 e5             	mov    %rsp,%rbp
    a6d4:	89 7d fc             	mov    %edi,-0x4(%rbp)
    a6d7:	89 75 f8             	mov    %esi,-0x8(%rbp)
    a6da:	83 7d f8 00          	cmpl   $0x0,-0x8(%rbp)
    a6de:	74 1a                	je     a6fa <safe_mod_func_int32_t_s_s+0x2e>
    a6e0:	81 7d fc 00 00 00 80 	cmpl   $0x80000000,-0x4(%rbp)
    a6e7:	75 06                	jne    a6ef <safe_mod_func_int32_t_s_s+0x23>
    a6e9:	83 7d f8 ff          	cmpl   $0xffffffff,-0x8(%rbp)
    a6ed:	74 0b                	je     a6fa <safe_mod_func_int32_t_s_s+0x2e>
    a6ef:	8b 45 fc             	mov    -0x4(%rbp),%eax
    a6f2:	99                   	cltd   
    a6f3:	f7 7d f8             	idivl  -0x8(%rbp)
    a6f6:	89 d0                	mov    %edx,%eax
    a6f8:	eb 03                	jmp    a6fd <safe_mod_func_int32_t_s_s+0x31>
    a6fa:	8b 45 fc             	mov    -0x4(%rbp),%eax
    a6fd:	5d                   	pop    %rbp
    a6fe:	c3                   	retq   

000000000000a6ff <safe_div_func_int32_t_s_s>:
    a6ff:	f3 0f 1e fa          	endbr64 
    a703:	55                   	push   %rbp
    a704:	48 89 e5             	mov    %rsp,%rbp
    a707:	89 7d fc             	mov    %edi,-0x4(%rbp)
    a70a:	89 75 f8             	mov    %esi,-0x8(%rbp)
    a70d:	83 7d f8 00          	cmpl   $0x0,-0x8(%rbp)
    a711:	74 18                	je     a72b <safe_div_func_int32_t_s_s+0x2c>
    a713:	81 7d fc 00 00 00 80 	cmpl   $0x80000000,-0x4(%rbp)
    a71a:	75 06                	jne    a722 <safe_div_func_int32_t_s_s+0x23>
    a71c:	83 7d f8 ff          	cmpl   $0xffffffff,-0x8(%rbp)
    a720:	74 09                	je     a72b <safe_div_func_int32_t_s_s+0x2c>
    a722:	8b 45 fc             	mov    -0x4(%rbp),%eax
    a725:	99                   	cltd   
    a726:	f7 7d f8             	idivl  -0x8(%rbp)
    a729:	eb 03                	jmp    a72e <safe_div_func_int32_t_s_s+0x2f>
    a72b:	8b 45 fc             	mov    -0x4(%rbp),%eax
    a72e:	5d                   	pop    %rbp
    a72f:	c3                   	retq   

000000000000a730 <safe_lshift_func_int32_t_s_s>:
    a730:	f3 0f 1e fa          	endbr64 
    a734:	55                   	push   %rbp
    a735:	48 89 e5             	mov    %rsp,%rbp
    a738:	89 7d fc             	mov    %edi,-0x4(%rbp)
    a73b:	89 75 f8             	mov    %esi,-0x8(%rbp)
    a73e:	83 7d fc 00          	cmpl   $0x0,-0x4(%rbp)
    a742:	78 2d                	js     a771 <safe_lshift_func_int32_t_s_s+0x41>
    a744:	83 7d f8 00          	cmpl   $0x0,-0x8(%rbp)
    a748:	78 27                	js     a771 <safe_lshift_func_int32_t_s_s+0x41>
    a74a:	83 7d f8 1f          	cmpl   $0x1f,-0x8(%rbp)
    a74e:	7f 21                	jg     a771 <safe_lshift_func_int32_t_s_s+0x41>
    a750:	8b 45 f8             	mov    -0x8(%rbp),%eax
    a753:	ba ff ff ff 7f       	mov    $0x7fffffff,%edx
    a758:	89 c1                	mov    %eax,%ecx
    a75a:	d3 fa                	sar    %cl,%edx
    a75c:	89 d0                	mov    %edx,%eax
    a75e:	39 45 fc             	cmp    %eax,-0x4(%rbp)
    a761:	7f 0e                	jg     a771 <safe_lshift_func_int32_t_s_s+0x41>
    a763:	8b 45 f8             	mov    -0x8(%rbp),%eax
    a766:	8b 55 fc             	mov    -0x4(%rbp),%edx
    a769:	89 c1                	mov    %eax,%ecx
    a76b:	d3 e2                	shl    %cl,%edx
    a76d:	89 d0                	mov    %edx,%eax
    a76f:	eb 03                	jmp    a774 <safe_lshift_func_int32_t_s_s+0x44>
    a771:	8b 45 fc             	mov    -0x4(%rbp),%eax
    a774:	5d                   	pop    %rbp
    a775:	c3                   	retq   

000000000000a776 <safe_lshift_func_int32_t_s_u>:
    a776:	f3 0f 1e fa          	endbr64 
    a77a:	55                   	push   %rbp
    a77b:	48 89 e5             	mov    %rsp,%rbp
    a77e:	89 7d fc             	mov    %edi,-0x4(%rbp)
    a781:	89 75 f8             	mov    %esi,-0x8(%rbp)
    a784:	83 7d fc 00          	cmpl   $0x0,-0x4(%rbp)
    a788:	78 27                	js     a7b1 <safe_lshift_func_int32_t_s_u+0x3b>
    a78a:	83 7d f8 1f          	cmpl   $0x1f,-0x8(%rbp)
    a78e:	77 21                	ja     a7b1 <safe_lshift_func_int32_t_s_u+0x3b>
    a790:	8b 45 f8             	mov    -0x8(%rbp),%eax
    a793:	ba ff ff ff 7f       	mov    $0x7fffffff,%edx
    a798:	89 c1                	mov    %eax,%ecx
    a79a:	d3 fa                	sar    %cl,%edx
    a79c:	89 d0                	mov    %edx,%eax
    a79e:	39 45 fc             	cmp    %eax,-0x4(%rbp)
    a7a1:	7f 0e                	jg     a7b1 <safe_lshift_func_int32_t_s_u+0x3b>
    a7a3:	8b 45 f8             	mov    -0x8(%rbp),%eax
    a7a6:	8b 55 fc             	mov    -0x4(%rbp),%edx
    a7a9:	89 c1                	mov    %eax,%ecx
    a7ab:	d3 e2                	shl    %cl,%edx
    a7ad:	89 d0                	mov    %edx,%eax
    a7af:	eb 03                	jmp    a7b4 <safe_lshift_func_int32_t_s_u+0x3e>
    a7b1:	8b 45 fc             	mov    -0x4(%rbp),%eax
    a7b4:	5d                   	pop    %rbp
    a7b5:	c3                   	retq   

000000000000a7b6 <safe_rshift_func_int32_t_s_s>:
    a7b6:	f3 0f 1e fa          	endbr64 
    a7ba:	55                   	push   %rbp
    a7bb:	48 89 e5             	mov    %rsp,%rbp
    a7be:	89 7d fc             	mov    %edi,-0x4(%rbp)
    a7c1:	89 75 f8             	mov    %esi,-0x8(%rbp)
    a7c4:	83 7d fc 00          	cmpl   $0x0,-0x4(%rbp)
    a7c8:	78 1a                	js     a7e4 <safe_rshift_func_int32_t_s_s+0x2e>
    a7ca:	83 7d f8 00          	cmpl   $0x0,-0x8(%rbp)
    a7ce:	78 14                	js     a7e4 <safe_rshift_func_int32_t_s_s+0x2e>
    a7d0:	83 7d f8 1f          	cmpl   $0x1f,-0x8(%rbp)
    a7d4:	7f 0e                	jg     a7e4 <safe_rshift_func_int32_t_s_s+0x2e>
    a7d6:	8b 45 f8             	mov    -0x8(%rbp),%eax
    a7d9:	8b 55 fc             	mov    -0x4(%rbp),%edx
    a7dc:	89 c1                	mov    %eax,%ecx
    a7de:	d3 fa                	sar    %cl,%edx
    a7e0:	89 d0                	mov    %edx,%eax
    a7e2:	eb 03                	jmp    a7e7 <safe_rshift_func_int32_t_s_s+0x31>
    a7e4:	8b 45 fc             	mov    -0x4(%rbp),%eax
    a7e7:	5d                   	pop    %rbp
    a7e8:	c3                   	retq   

000000000000a7e9 <safe_rshift_func_int32_t_s_u>:
    a7e9:	f3 0f 1e fa          	endbr64 
    a7ed:	55                   	push   %rbp
    a7ee:	48 89 e5             	mov    %rsp,%rbp
    a7f1:	89 7d fc             	mov    %edi,-0x4(%rbp)
    a7f4:	89 75 f8             	mov    %esi,-0x8(%rbp)
    a7f7:	83 7d fc 00          	cmpl   $0x0,-0x4(%rbp)
    a7fb:	78 14                	js     a811 <safe_rshift_func_int32_t_s_u+0x28>
    a7fd:	83 7d f8 1f          	cmpl   $0x1f,-0x8(%rbp)
    a801:	77 0e                	ja     a811 <safe_rshift_func_int32_t_s_u+0x28>
    a803:	8b 45 f8             	mov    -0x8(%rbp),%eax
    a806:	8b 55 fc             	mov    -0x4(%rbp),%edx
    a809:	89 c1                	mov    %eax,%ecx
    a80b:	d3 fa                	sar    %cl,%edx
    a80d:	89 d0                	mov    %edx,%eax
    a80f:	eb 03                	jmp    a814 <safe_rshift_func_int32_t_s_u+0x2b>
    a811:	8b 45 fc             	mov    -0x4(%rbp),%eax
    a814:	5d                   	pop    %rbp
    a815:	c3                   	retq   

000000000000a816 <safe_unary_minus_func_int64_t_s>:
    a816:	f3 0f 1e fa          	endbr64 
    a81a:	55                   	push   %rbp
    a81b:	48 89 e5             	mov    %rsp,%rbp
    a81e:	48 89 7d f8          	mov    %rdi,-0x8(%rbp)
    a822:	48 b8 00 00 00 00 00 	movabs $0x8000000000000000,%rax
    a829:	00 00 80 
    a82c:	48 39 45 f8          	cmp    %rax,-0x8(%rbp)
    a830:	74 09                	je     a83b <safe_unary_minus_func_int64_t_s+0x25>
    a832:	48 8b 45 f8          	mov    -0x8(%rbp),%rax
    a836:	48 f7 d8             	neg    %rax
    a839:	eb 04                	jmp    a83f <safe_unary_minus_func_int64_t_s+0x29>
    a83b:	48 8b 45 f8          	mov    -0x8(%rbp),%rax
    a83f:	5d                   	pop    %rbp
    a840:	c3                   	retq   

000000000000a841 <safe_add_func_int64_t_s_s>:
    a841:	f3 0f 1e fa          	endbr64 
    a845:	55                   	push   %rbp
    a846:	48 89 e5             	mov    %rsp,%rbp
    a849:	48 89 7d f8          	mov    %rdi,-0x8(%rbp)
    a84d:	48 89 75 f0          	mov    %rsi,-0x10(%rbp)
    a851:	48 83 7d f8 00       	cmpq   $0x0,-0x8(%rbp)
    a856:	7e 1b                	jle    a873 <safe_add_func_int64_t_s_s+0x32>
    a858:	48 83 7d f0 00       	cmpq   $0x0,-0x10(%rbp)
    a85d:	7e 14                	jle    a873 <safe_add_func_int64_t_s_s+0x32>
    a85f:	48 b8 ff ff ff ff ff 	movabs $0x7fffffffffffffff,%rax
    a866:	ff ff 7f 
    a869:	48 2b 45 f0          	sub    -0x10(%rbp),%rax
    a86d:	48 39 45 f8          	cmp    %rax,-0x8(%rbp)
    a871:	7f 2f                	jg     a8a2 <safe_add_func_int64_t_s_s+0x61>
    a873:	48 83 7d f8 00       	cmpq   $0x0,-0x8(%rbp)
    a878:	79 1b                	jns    a895 <safe_add_func_int64_t_s_s+0x54>
    a87a:	48 83 7d f0 00       	cmpq   $0x0,-0x10(%rbp)
    a87f:	79 14                	jns    a895 <safe_add_func_int64_t_s_s+0x54>
    a881:	48 b8 00 00 00 00 00 	movabs $0x8000000000000000,%rax
    a888:	00 00 80 
    a88b:	48 2b 45 f0          	sub    -0x10(%rbp),%rax
    a88f:	48 39 45 f8          	cmp    %rax,-0x8(%rbp)
    a893:	7c 0d                	jl     a8a2 <safe_add_func_int64_t_s_s+0x61>
    a895:	48 8b 55 f8          	mov    -0x8(%rbp),%rdx
    a899:	48 8b 45 f0          	mov    -0x10(%rbp),%rax
    a89d:	48 01 d0             	add    %rdx,%rax
    a8a0:	eb 04                	jmp    a8a6 <safe_add_func_int64_t_s_s+0x65>
    a8a2:	48 8b 45 f8          	mov    -0x8(%rbp),%rax
    a8a6:	5d                   	pop    %rbp
    a8a7:	c3                   	retq   

000000000000a8a8 <safe_sub_func_int64_t_s_s>:
    a8a8:	f3 0f 1e fa          	endbr64 
    a8ac:	55                   	push   %rbp
    a8ad:	48 89 e5             	mov    %rsp,%rbp
    a8b0:	48 89 7d f8          	mov    %rdi,-0x8(%rbp)
    a8b4:	48 89 75 f0          	mov    %rsi,-0x10(%rbp)
    a8b8:	48 8b 45 f8          	mov    -0x8(%rbp),%rax
    a8bc:	48 33 45 f0          	xor    -0x10(%rbp),%rax
    a8c0:	48 89 c2             	mov    %rax,%rdx
    a8c3:	48 8b 45 f8          	mov    -0x8(%rbp),%rax
    a8c7:	48 33 45 f0          	xor    -0x10(%rbp),%rax
    a8cb:	48 b9 00 00 00 00 00 	movabs $0x8000000000000000,%rcx
    a8d2:	00 00 80 
    a8d5:	48 21 c8             	and    %rcx,%rax
    a8d8:	48 33 45 f8          	xor    -0x8(%rbp),%rax
    a8dc:	48 2b 45 f0          	sub    -0x10(%rbp),%rax
    a8e0:	48 33 45 f0          	xor    -0x10(%rbp),%rax
    a8e4:	48 21 d0             	and    %rdx,%rax
    a8e7:	48 85 c0             	test   %rax,%rax
    a8ea:	78 0a                	js     a8f6 <safe_sub_func_int64_t_s_s+0x4e>
    a8ec:	48 8b 45 f8          	mov    -0x8(%rbp),%rax
    a8f0:	48 2b 45 f0          	sub    -0x10(%rbp),%rax
    a8f4:	eb 04                	jmp    a8fa <safe_sub_func_int64_t_s_s+0x52>
    a8f6:	48 8b 45 f8          	mov    -0x8(%rbp),%rax
    a8fa:	5d                   	pop    %rbp
    a8fb:	c3                   	retq   

000000000000a8fc <safe_mul_func_int64_t_s_s>:
    a8fc:	f3 0f 1e fa          	endbr64 
    a900:	55                   	push   %rbp
    a901:	48 89 e5             	mov    %rsp,%rbp
    a904:	48 89 7d f8          	mov    %rdi,-0x8(%rbp)
    a908:	48 89 75 f0          	mov    %rsi,-0x10(%rbp)
    a90c:	48 83 7d f8 00       	cmpq   $0x0,-0x8(%rbp)
    a911:	7e 1d                	jle    a930 <safe_mul_func_int64_t_s_s+0x34>
    a913:	48 83 7d f0 00       	cmpq   $0x0,-0x10(%rbp)
    a918:	7e 16                	jle    a930 <safe_mul_func_int64_t_s_s+0x34>
    a91a:	48 b8 ff ff ff ff ff 	movabs $0x7fffffffffffffff,%rax
    a921:	ff ff 7f 
    a924:	48 99                	cqto   
    a926:	48 f7 7d f0          	idivq  -0x10(%rbp)
    a92a:	48 39 45 f8          	cmp    %rax,-0x8(%rbp)
    a92e:	7f 7e                	jg     a9ae <safe_mul_func_int64_t_s_s+0xb2>
    a930:	48 83 7d f8 00       	cmpq   $0x0,-0x8(%rbp)
    a935:	7e 1d                	jle    a954 <safe_mul_func_int64_t_s_s+0x58>
    a937:	48 83 7d f0 00       	cmpq   $0x0,-0x10(%rbp)
    a93c:	7f 16                	jg     a954 <safe_mul_func_int64_t_s_s+0x58>
    a93e:	48 b8 00 00 00 00 00 	movabs $0x8000000000000000,%rax
    a945:	00 00 80 
    a948:	48 99                	cqto   
    a94a:	48 f7 7d f8          	idivq  -0x8(%rbp)
    a94e:	48 39 45 f0          	cmp    %rax,-0x10(%rbp)
    a952:	7c 5a                	jl     a9ae <safe_mul_func_int64_t_s_s+0xb2>
    a954:	48 83 7d f8 00       	cmpq   $0x0,-0x8(%rbp)
    a959:	7f 1d                	jg     a978 <safe_mul_func_int64_t_s_s+0x7c>
    a95b:	48 83 7d f0 00       	cmpq   $0x0,-0x10(%rbp)
    a960:	7e 16                	jle    a978 <safe_mul_func_int64_t_s_s+0x7c>
    a962:	48 b8 00 00 00 00 00 	movabs $0x8000000000000000,%rax
    a969:	00 00 80 
    a96c:	48 99                	cqto   
    a96e:	48 f7 7d f0          	idivq  -0x10(%rbp)
    a972:	48 39 45 f8          	cmp    %rax,-0x8(%rbp)
    a976:	7c 36                	jl     a9ae <safe_mul_func_int64_t_s_s+0xb2>
    a978:	48 83 7d f8 00       	cmpq   $0x0,-0x8(%rbp)
    a97d:	7f 24                	jg     a9a3 <safe_mul_func_int64_t_s_s+0xa7>
    a97f:	48 83 7d f0 00       	cmpq   $0x0,-0x10(%rbp)
    a984:	7f 1d                	jg     a9a3 <safe_mul_func_int64_t_s_s+0xa7>
    a986:	48 83 7d f8 00       	cmpq   $0x0,-0x8(%rbp)
    a98b:	74 16                	je     a9a3 <safe_mul_func_int64_t_s_s+0xa7>
    a98d:	48 b8 ff ff ff ff ff 	movabs $0x7fffffffffffffff,%rax
    a994:	ff ff 7f 
    a997:	48 99                	cqto   
    a999:	48 f7 7d f8          	idivq  -0x8(%rbp)
    a99d:	48 39 45 f0          	cmp    %rax,-0x10(%rbp)
    a9a1:	7c 0b                	jl     a9ae <safe_mul_func_int64_t_s_s+0xb2>
    a9a3:	48 8b 45 f8          	mov    -0x8(%rbp),%rax
    a9a7:	48 0f af 45 f0       	imul   -0x10(%rbp),%rax
    a9ac:	eb 04                	jmp    a9b2 <safe_mul_func_int64_t_s_s+0xb6>
    a9ae:	48 8b 45 f8          	mov    -0x8(%rbp),%rax
    a9b2:	5d                   	pop    %rbp
    a9b3:	c3                   	retq   

000000000000a9b4 <safe_mod_func_int64_t_s_s>:
    a9b4:	f3 0f 1e fa          	endbr64 
    a9b8:	55                   	push   %rbp
    a9b9:	48 89 e5             	mov    %rsp,%rbp
    a9bc:	48 89 7d f8          	mov    %rdi,-0x8(%rbp)
    a9c0:	48 89 75 f0          	mov    %rsi,-0x10(%rbp)
    a9c4:	48 83 7d f0 00       	cmpq   $0x0,-0x10(%rbp)
    a9c9:	74 26                	je     a9f1 <safe_mod_func_int64_t_s_s+0x3d>
    a9cb:	48 b8 00 00 00 00 00 	movabs $0x8000000000000000,%rax
    a9d2:	00 00 80 
    a9d5:	48 39 45 f8          	cmp    %rax,-0x8(%rbp)
    a9d9:	75 07                	jne    a9e2 <safe_mod_func_int64_t_s_s+0x2e>
    a9db:	48 83 7d f0 ff       	cmpq   $0xffffffffffffffff,-0x10(%rbp)
    a9e0:	74 0f                	je     a9f1 <safe_mod_func_int64_t_s_s+0x3d>
    a9e2:	48 8b 45 f8          	mov    -0x8(%rbp),%rax
    a9e6:	48 99                	cqto   
    a9e8:	48 f7 7d f0          	idivq  -0x10(%rbp)
    a9ec:	48 89 d0             	mov    %rdx,%rax
    a9ef:	eb 04                	jmp    a9f5 <safe_mod_func_int64_t_s_s+0x41>
    a9f1:	48 8b 45 f8          	mov    -0x8(%rbp),%rax
    a9f5:	5d                   	pop    %rbp
    a9f6:	c3                   	retq   

000000000000a9f7 <safe_div_func_int64_t_s_s>:
    a9f7:	f3 0f 1e fa          	endbr64 
    a9fb:	55                   	push   %rbp
    a9fc:	48 89 e5             	mov    %rsp,%rbp
    a9ff:	48 89 7d f8          	mov    %rdi,-0x8(%rbp)
    aa03:	48 89 75 f0          	mov    %rsi,-0x10(%rbp)
    aa07:	48 83 7d f0 00       	cmpq   $0x0,-0x10(%rbp)
    aa0c:	74 23                	je     aa31 <safe_div_func_int64_t_s_s+0x3a>
    aa0e:	48 b8 00 00 00 00 00 	movabs $0x8000000000000000,%rax
    aa15:	00 00 80 
    aa18:	48 39 45 f8          	cmp    %rax,-0x8(%rbp)
    aa1c:	75 07                	jne    aa25 <safe_div_func_int64_t_s_s+0x2e>
    aa1e:	48 83 7d f0 ff       	cmpq   $0xffffffffffffffff,-0x10(%rbp)
    aa23:	74 0c                	je     aa31 <safe_div_func_int64_t_s_s+0x3a>
    aa25:	48 8b 45 f8          	mov    -0x8(%rbp),%rax
    aa29:	48 99                	cqto   
    aa2b:	48 f7 7d f0          	idivq  -0x10(%rbp)
    aa2f:	eb 04                	jmp    aa35 <safe_div_func_int64_t_s_s+0x3e>
    aa31:	48 8b 45 f8          	mov    -0x8(%rbp),%rax
    aa35:	5d                   	pop    %rbp
    aa36:	c3                   	retq   

000000000000aa37 <safe_lshift_func_int64_t_s_s>:
    aa37:	f3 0f 1e fa          	endbr64 
    aa3b:	55                   	push   %rbp
    aa3c:	48 89 e5             	mov    %rsp,%rbp
    aa3f:	48 89 7d f8          	mov    %rdi,-0x8(%rbp)
    aa43:	89 75 f4             	mov    %esi,-0xc(%rbp)
    aa46:	48 83 7d f8 00       	cmpq   $0x0,-0x8(%rbp)
    aa4b:	78 38                	js     aa85 <safe_lshift_func_int64_t_s_s+0x4e>
    aa4d:	83 7d f4 00          	cmpl   $0x0,-0xc(%rbp)
    aa51:	78 32                	js     aa85 <safe_lshift_func_int64_t_s_s+0x4e>
    aa53:	83 7d f4 1f          	cmpl   $0x1f,-0xc(%rbp)
    aa57:	7f 2c                	jg     aa85 <safe_lshift_func_int64_t_s_s+0x4e>
    aa59:	8b 45 f4             	mov    -0xc(%rbp),%eax
    aa5c:	48 ba ff ff ff ff ff 	movabs $0x7fffffffffffffff,%rdx
    aa63:	ff ff 7f 
    aa66:	89 c1                	mov    %eax,%ecx
    aa68:	48 d3 fa             	sar    %cl,%rdx
    aa6b:	48 89 d0             	mov    %rdx,%rax
    aa6e:	48 39 45 f8          	cmp    %rax,-0x8(%rbp)
    aa72:	7f 11                	jg     aa85 <safe_lshift_func_int64_t_s_s+0x4e>
    aa74:	8b 45 f4             	mov    -0xc(%rbp),%eax
    aa77:	48 8b 55 f8          	mov    -0x8(%rbp),%rdx
    aa7b:	89 c1                	mov    %eax,%ecx
    aa7d:	48 d3 e2             	shl    %cl,%rdx
    aa80:	48 89 d0             	mov    %rdx,%rax
    aa83:	eb 04                	jmp    aa89 <safe_lshift_func_int64_t_s_s+0x52>
    aa85:	48 8b 45 f8          	mov    -0x8(%rbp),%rax
    aa89:	5d                   	pop    %rbp
    aa8a:	c3                   	retq   

000000000000aa8b <safe_lshift_func_int64_t_s_u>:
    aa8b:	f3 0f 1e fa          	endbr64 
    aa8f:	55                   	push   %rbp
    aa90:	48 89 e5             	mov    %rsp,%rbp
    aa93:	48 89 7d f8          	mov    %rdi,-0x8(%rbp)
    aa97:	89 75 f4             	mov    %esi,-0xc(%rbp)
    aa9a:	48 83 7d f8 00       	cmpq   $0x0,-0x8(%rbp)
    aa9f:	78 32                	js     aad3 <safe_lshift_func_int64_t_s_u+0x48>
    aaa1:	83 7d f4 1f          	cmpl   $0x1f,-0xc(%rbp)
    aaa5:	77 2c                	ja     aad3 <safe_lshift_func_int64_t_s_u+0x48>
    aaa7:	8b 45 f4             	mov    -0xc(%rbp),%eax
    aaaa:	48 ba ff ff ff ff ff 	movabs $0x7fffffffffffffff,%rdx
    aab1:	ff ff 7f 
    aab4:	89 c1                	mov    %eax,%ecx
    aab6:	48 d3 fa             	sar    %cl,%rdx
    aab9:	48 89 d0             	mov    %rdx,%rax
    aabc:	48 39 45 f8          	cmp    %rax,-0x8(%rbp)
    aac0:	7f 11                	jg     aad3 <safe_lshift_func_int64_t_s_u+0x48>
    aac2:	8b 45 f4             	mov    -0xc(%rbp),%eax
    aac5:	48 8b 55 f8          	mov    -0x8(%rbp),%rdx
    aac9:	89 c1                	mov    %eax,%ecx
    aacb:	48 d3 e2             	shl    %cl,%rdx
    aace:	48 89 d0             	mov    %rdx,%rax
    aad1:	eb 04                	jmp    aad7 <safe_lshift_func_int64_t_s_u+0x4c>
    aad3:	48 8b 45 f8          	mov    -0x8(%rbp),%rax
    aad7:	5d                   	pop    %rbp
    aad8:	c3                   	retq   

000000000000aad9 <safe_rshift_func_int64_t_s_s>:
    aad9:	f3 0f 1e fa          	endbr64 
    aadd:	55                   	push   %rbp
    aade:	48 89 e5             	mov    %rsp,%rbp
    aae1:	48 89 7d f8          	mov    %rdi,-0x8(%rbp)
    aae5:	89 75 f4             	mov    %esi,-0xc(%rbp)
    aae8:	48 83 7d f8 00       	cmpq   $0x0,-0x8(%rbp)
    aaed:	78 1d                	js     ab0c <safe_rshift_func_int64_t_s_s+0x33>
    aaef:	83 7d f4 00          	cmpl   $0x0,-0xc(%rbp)
    aaf3:	78 17                	js     ab0c <safe_rshift_func_int64_t_s_s+0x33>
    aaf5:	83 7d f4 1f          	cmpl   $0x1f,-0xc(%rbp)
    aaf9:	7f 11                	jg     ab0c <safe_rshift_func_int64_t_s_s+0x33>
    aafb:	8b 45 f4             	mov    -0xc(%rbp),%eax
    aafe:	48 8b 55 f8          	mov    -0x8(%rbp),%rdx
    ab02:	89 c1                	mov    %eax,%ecx
    ab04:	48 d3 fa             	sar    %cl,%rdx
    ab07:	48 89 d0             	mov    %rdx,%rax
    ab0a:	eb 04                	jmp    ab10 <safe_rshift_func_int64_t_s_s+0x37>
    ab0c:	48 8b 45 f8          	mov    -0x8(%rbp),%rax
    ab10:	5d                   	pop    %rbp
    ab11:	c3                   	retq   

000000000000ab12 <safe_rshift_func_int64_t_s_u>:
    ab12:	f3 0f 1e fa          	endbr64 
    ab16:	55                   	push   %rbp
    ab17:	48 89 e5             	mov    %rsp,%rbp
    ab1a:	48 89 7d f8          	mov    %rdi,-0x8(%rbp)
    ab1e:	89 75 f4             	mov    %esi,-0xc(%rbp)
    ab21:	48 83 7d f8 00       	cmpq   $0x0,-0x8(%rbp)
    ab26:	78 17                	js     ab3f <safe_rshift_func_int64_t_s_u+0x2d>
    ab28:	83 7d f4 1f          	cmpl   $0x1f,-0xc(%rbp)
    ab2c:	77 11                	ja     ab3f <safe_rshift_func_int64_t_s_u+0x2d>
    ab2e:	8b 45 f4             	mov    -0xc(%rbp),%eax
    ab31:	48 8b 55 f8          	mov    -0x8(%rbp),%rdx
    ab35:	89 c1                	mov    %eax,%ecx
    ab37:	48 d3 fa             	sar    %cl,%rdx
    ab3a:	48 89 d0             	mov    %rdx,%rax
    ab3d:	eb 04                	jmp    ab43 <safe_rshift_func_int64_t_s_u+0x31>
    ab3f:	48 8b 45 f8          	mov    -0x8(%rbp),%rax
    ab43:	5d                   	pop    %rbp
    ab44:	c3                   	retq   

000000000000ab45 <safe_unary_minus_func_uint8_t_u>:
    ab45:	f3 0f 1e fa          	endbr64 
    ab49:	55                   	push   %rbp
    ab4a:	48 89 e5             	mov    %rsp,%rbp
    ab4d:	89 f8                	mov    %edi,%eax
    ab4f:	88 45 fc             	mov    %al,-0x4(%rbp)
    ab52:	0f b6 45 fc          	movzbl -0x4(%rbp),%eax
    ab56:	f7 d8                	neg    %eax
    ab58:	5d                   	pop    %rbp
    ab59:	c3                   	retq   

000000000000ab5a <safe_add_func_uint8_t_u_u>:
    ab5a:	f3 0f 1e fa          	endbr64 
    ab5e:	55                   	push   %rbp
    ab5f:	48 89 e5             	mov    %rsp,%rbp
    ab62:	89 fa                	mov    %edi,%edx
    ab64:	89 f0                	mov    %esi,%eax
    ab66:	88 55 fc             	mov    %dl,-0x4(%rbp)
    ab69:	88 45 f8             	mov    %al,-0x8(%rbp)
    ab6c:	0f b6 55 fc          	movzbl -0x4(%rbp),%edx
    ab70:	0f b6 45 f8          	movzbl -0x8(%rbp),%eax
    ab74:	01 d0                	add    %edx,%eax
    ab76:	5d                   	pop    %rbp
    ab77:	c3                   	retq   

000000000000ab78 <safe_sub_func_uint8_t_u_u>:
    ab78:	f3 0f 1e fa          	endbr64 
    ab7c:	55                   	push   %rbp
    ab7d:	48 89 e5             	mov    %rsp,%rbp
    ab80:	89 fa                	mov    %edi,%edx
    ab82:	89 f0                	mov    %esi,%eax
    ab84:	88 55 fc             	mov    %dl,-0x4(%rbp)
    ab87:	88 45 f8             	mov    %al,-0x8(%rbp)
    ab8a:	0f b6 45 fc          	movzbl -0x4(%rbp),%eax
    ab8e:	2a 45 f8             	sub    -0x8(%rbp),%al
    ab91:	5d                   	pop    %rbp
    ab92:	c3                   	retq   

000000000000ab93 <safe_mul_func_uint8_t_u_u>:
    ab93:	f3 0f 1e fa          	endbr64 
    ab97:	55                   	push   %rbp
    ab98:	48 89 e5             	mov    %rsp,%rbp
    ab9b:	89 fa                	mov    %edi,%edx
    ab9d:	89 f0                	mov    %esi,%eax
    ab9f:	88 55 fc             	mov    %dl,-0x4(%rbp)
    aba2:	88 45 f8             	mov    %al,-0x8(%rbp)
    aba5:	0f b6 45 fc          	movzbl -0x4(%rbp),%eax
    aba9:	f6 65 f8             	mulb   -0x8(%rbp)
    abac:	5d                   	pop    %rbp
    abad:	c3                   	retq   

000000000000abae <safe_mod_func_uint8_t_u_u>:
    abae:	f3 0f 1e fa          	endbr64 
    abb2:	55                   	push   %rbp
    abb3:	48 89 e5             	mov    %rsp,%rbp
    abb6:	89 fa                	mov    %edi,%edx
    abb8:	89 f0                	mov    %esi,%eax
    abba:	88 55 fc             	mov    %dl,-0x4(%rbp)
    abbd:	88 45 f8             	mov    %al,-0x8(%rbp)
    abc0:	80 7d f8 00          	cmpb   $0x0,-0x8(%rbp)
    abc4:	74 0f                	je     abd5 <safe_mod_func_uint8_t_u_u+0x27>
    abc6:	0f b6 45 fc          	movzbl -0x4(%rbp),%eax
    abca:	0f b6 c0             	movzbl %al,%eax
    abcd:	f6 75 f8             	divb   -0x8(%rbp)
    abd0:	0f b6 c4             	movzbl %ah,%eax
    abd3:	eb 04                	jmp    abd9 <safe_mod_func_uint8_t_u_u+0x2b>
    abd5:	0f b6 45 fc          	movzbl -0x4(%rbp),%eax
    abd9:	5d                   	pop    %rbp
    abda:	c3                   	retq   

000000000000abdb <safe_div_func_uint8_t_u_u>:
    abdb:	f3 0f 1e fa          	endbr64 
    abdf:	55                   	push   %rbp
    abe0:	48 89 e5             	mov    %rsp,%rbp
    abe3:	89 fa                	mov    %edi,%edx
    abe5:	89 f0                	mov    %esi,%eax
    abe7:	88 55 fc             	mov    %dl,-0x4(%rbp)
    abea:	88 45 f8             	mov    %al,-0x8(%rbp)
    abed:	80 7d f8 00          	cmpb   $0x0,-0x8(%rbp)
    abf1:	74 0c                	je     abff <safe_div_func_uint8_t_u_u+0x24>
    abf3:	0f b6 45 fc          	movzbl -0x4(%rbp),%eax
    abf7:	0f b6 c0             	movzbl %al,%eax
    abfa:	f6 75 f8             	divb   -0x8(%rbp)
    abfd:	eb 04                	jmp    ac03 <safe_div_func_uint8_t_u_u+0x28>
    abff:	0f b6 45 fc          	movzbl -0x4(%rbp),%eax
    ac03:	5d                   	pop    %rbp
    ac04:	c3                   	retq   

000000000000ac05 <safe_lshift_func_uint8_t_u_s>:
    ac05:	f3 0f 1e fa          	endbr64 
    ac09:	55                   	push   %rbp
    ac0a:	48 89 e5             	mov    %rsp,%rbp
    ac0d:	89 f8                	mov    %edi,%eax
    ac0f:	89 75 f8             	mov    %esi,-0x8(%rbp)
    ac12:	88 45 fc             	mov    %al,-0x4(%rbp)
    ac15:	83 7d f8 00          	cmpl   $0x0,-0x8(%rbp)
    ac19:	78 2b                	js     ac46 <safe_lshift_func_uint8_t_u_s+0x41>
    ac1b:	83 7d f8 1f          	cmpl   $0x1f,-0x8(%rbp)
    ac1f:	7f 25                	jg     ac46 <safe_lshift_func_uint8_t_u_s+0x41>
    ac21:	0f b6 55 fc          	movzbl -0x4(%rbp),%edx
    ac25:	8b 45 f8             	mov    -0x8(%rbp),%eax
    ac28:	be ff 00 00 00       	mov    $0xff,%esi
    ac2d:	89 c1                	mov    %eax,%ecx
    ac2f:	d3 fe                	sar    %cl,%esi
    ac31:	89 f0                	mov    %esi,%eax
    ac33:	39 c2                	cmp    %eax,%edx
    ac35:	7f 0f                	jg     ac46 <safe_lshift_func_uint8_t_u_s+0x41>
    ac37:	0f b6 55 fc          	movzbl -0x4(%rbp),%edx
    ac3b:	8b 45 f8             	mov    -0x8(%rbp),%eax
    ac3e:	89 c1                	mov    %eax,%ecx
    ac40:	d3 e2                	shl    %cl,%edx
    ac42:	89 d0                	mov    %edx,%eax
    ac44:	eb 04                	jmp    ac4a <safe_lshift_func_uint8_t_u_s+0x45>
    ac46:	0f b6 45 fc          	movzbl -0x4(%rbp),%eax
    ac4a:	5d                   	pop    %rbp
    ac4b:	c3                   	retq   

000000000000ac4c <safe_lshift_func_uint8_t_u_u>:
    ac4c:	f3 0f 1e fa          	endbr64 
    ac50:	55                   	push   %rbp
    ac51:	48 89 e5             	mov    %rsp,%rbp
    ac54:	89 f8                	mov    %edi,%eax
    ac56:	89 75 f8             	mov    %esi,-0x8(%rbp)
    ac59:	88 45 fc             	mov    %al,-0x4(%rbp)
    ac5c:	83 7d f8 1f          	cmpl   $0x1f,-0x8(%rbp)
    ac60:	77 25                	ja     ac87 <safe_lshift_func_uint8_t_u_u+0x3b>
    ac62:	0f b6 55 fc          	movzbl -0x4(%rbp),%edx
    ac66:	8b 45 f8             	mov    -0x8(%rbp),%eax
    ac69:	be ff 00 00 00       	mov    $0xff,%esi
    ac6e:	89 c1                	mov    %eax,%ecx
    ac70:	d3 fe                	sar    %cl,%esi
    ac72:	89 f0                	mov    %esi,%eax
    ac74:	39 c2                	cmp    %eax,%edx
    ac76:	7f 0f                	jg     ac87 <safe_lshift_func_uint8_t_u_u+0x3b>
    ac78:	0f b6 55 fc          	movzbl -0x4(%rbp),%edx
    ac7c:	8b 45 f8             	mov    -0x8(%rbp),%eax
    ac7f:	89 c1                	mov    %eax,%ecx
    ac81:	d3 e2                	shl    %cl,%edx
    ac83:	89 d0                	mov    %edx,%eax
    ac85:	eb 04                	jmp    ac8b <safe_lshift_func_uint8_t_u_u+0x3f>
    ac87:	0f b6 45 fc          	movzbl -0x4(%rbp),%eax
    ac8b:	5d                   	pop    %rbp
    ac8c:	c3                   	retq   

000000000000ac8d <safe_rshift_func_uint8_t_u_s>:
    ac8d:	f3 0f 1e fa          	endbr64 
    ac91:	55                   	push   %rbp
    ac92:	48 89 e5             	mov    %rsp,%rbp
    ac95:	89 f8                	mov    %edi,%eax
    ac97:	89 75 f8             	mov    %esi,-0x8(%rbp)
    ac9a:	88 45 fc             	mov    %al,-0x4(%rbp)
    ac9d:	83 7d f8 00          	cmpl   $0x0,-0x8(%rbp)
    aca1:	78 15                	js     acb8 <safe_rshift_func_uint8_t_u_s+0x2b>
    aca3:	83 7d f8 1f          	cmpl   $0x1f,-0x8(%rbp)
    aca7:	7f 0f                	jg     acb8 <safe_rshift_func_uint8_t_u_s+0x2b>
    aca9:	0f b6 55 fc          	movzbl -0x4(%rbp),%edx
    acad:	8b 45 f8             	mov    -0x8(%rbp),%eax
    acb0:	89 c1                	mov    %eax,%ecx
    acb2:	d3 fa                	sar    %cl,%edx
    acb4:	89 d0                	mov    %edx,%eax
    acb6:	eb 04                	jmp    acbc <safe_rshift_func_uint8_t_u_s+0x2f>
    acb8:	0f b6 45 fc          	movzbl -0x4(%rbp),%eax
    acbc:	5d                   	pop    %rbp
    acbd:	c3                   	retq   

000000000000acbe <safe_rshift_func_uint8_t_u_u>:
    acbe:	f3 0f 1e fa          	endbr64 
    acc2:	55                   	push   %rbp
    acc3:	48 89 e5             	mov    %rsp,%rbp
    acc6:	89 f8                	mov    %edi,%eax
    acc8:	89 75 f8             	mov    %esi,-0x8(%rbp)
    accb:	88 45 fc             	mov    %al,-0x4(%rbp)
    acce:	83 7d f8 1f          	cmpl   $0x1f,-0x8(%rbp)
    acd2:	77 0f                	ja     ace3 <safe_rshift_func_uint8_t_u_u+0x25>
    acd4:	0f b6 55 fc          	movzbl -0x4(%rbp),%edx
    acd8:	8b 45 f8             	mov    -0x8(%rbp),%eax
    acdb:	89 c1                	mov    %eax,%ecx
    acdd:	d3 fa                	sar    %cl,%edx
    acdf:	89 d0                	mov    %edx,%eax
    ace1:	eb 04                	jmp    ace7 <safe_rshift_func_uint8_t_u_u+0x29>
    ace3:	0f b6 45 fc          	movzbl -0x4(%rbp),%eax
    ace7:	5d                   	pop    %rbp
    ace8:	c3                   	retq   

000000000000ace9 <safe_unary_minus_func_uint16_t_u>:
    ace9:	f3 0f 1e fa          	endbr64 
    aced:	55                   	push   %rbp
    acee:	48 89 e5             	mov    %rsp,%rbp
    acf1:	89 f8                	mov    %edi,%eax
    acf3:	66 89 45 fc          	mov    %ax,-0x4(%rbp)
    acf7:	0f b7 45 fc          	movzwl -0x4(%rbp),%eax
    acfb:	f7 d8                	neg    %eax
    acfd:	5d                   	pop    %rbp
    acfe:	c3                   	retq   

000000000000acff <safe_add_func_uint16_t_u_u>:
    acff:	f3 0f 1e fa          	endbr64 
    ad03:	55                   	push   %rbp
    ad04:	48 89 e5             	mov    %rsp,%rbp
    ad07:	89 fa                	mov    %edi,%edx
    ad09:	89 f0                	mov    %esi,%eax
    ad0b:	66 89 55 fc          	mov    %dx,-0x4(%rbp)
    ad0f:	66 89 45 f8          	mov    %ax,-0x8(%rbp)
    ad13:	0f b7 55 fc          	movzwl -0x4(%rbp),%edx
    ad17:	0f b7 45 f8          	movzwl -0x8(%rbp),%eax
    ad1b:	01 d0                	add    %edx,%eax
    ad1d:	5d                   	pop    %rbp
    ad1e:	c3                   	retq   

000000000000ad1f <safe_sub_func_uint16_t_u_u>:
    ad1f:	f3 0f 1e fa          	endbr64 
    ad23:	55                   	push   %rbp
    ad24:	48 89 e5             	mov    %rsp,%rbp
    ad27:	89 fa                	mov    %edi,%edx
    ad29:	89 f0                	mov    %esi,%eax
    ad2b:	66 89 55 fc          	mov    %dx,-0x4(%rbp)
    ad2f:	66 89 45 f8          	mov    %ax,-0x8(%rbp)
    ad33:	0f b7 45 fc          	movzwl -0x4(%rbp),%eax
    ad37:	66 2b 45 f8          	sub    -0x8(%rbp),%ax
    ad3b:	5d                   	pop    %rbp
    ad3c:	c3                   	retq   

000000000000ad3d <safe_mul_func_uint16_t_u_u>:
    ad3d:	f3 0f 1e fa          	endbr64 
    ad41:	55                   	push   %rbp
    ad42:	48 89 e5             	mov    %rsp,%rbp
    ad45:	89 fa                	mov    %edi,%edx
    ad47:	89 f0                	mov    %esi,%eax
    ad49:	66 89 55 fc          	mov    %dx,-0x4(%rbp)
    ad4d:	66 89 45 f8          	mov    %ax,-0x8(%rbp)
    ad51:	0f b7 45 fc          	movzwl -0x4(%rbp),%eax
    ad55:	66 0f af 45 f8       	imul   -0x8(%rbp),%ax
    ad5a:	5d                   	pop    %rbp
    ad5b:	c3                   	retq   

000000000000ad5c <safe_mod_func_uint16_t_u_u>:
    ad5c:	f3 0f 1e fa          	endbr64 
    ad60:	55                   	push   %rbp
    ad61:	48 89 e5             	mov    %rsp,%rbp
    ad64:	89 fa                	mov    %edi,%edx
    ad66:	89 f0                	mov    %esi,%eax
    ad68:	66 89 55 fc          	mov    %dx,-0x4(%rbp)
    ad6c:	66 89 45 f8          	mov    %ax,-0x8(%rbp)
    ad70:	66 83 7d f8 00       	cmpw   $0x0,-0x8(%rbp)
    ad75:	74 11                	je     ad88 <safe_mod_func_uint16_t_u_u+0x2c>
    ad77:	0f b7 45 fc          	movzwl -0x4(%rbp),%eax
    ad7b:	ba 00 00 00 00       	mov    $0x0,%edx
    ad80:	66 f7 75 f8          	divw   -0x8(%rbp)
    ad84:	89 d0                	mov    %edx,%eax
    ad86:	eb 04                	jmp    ad8c <safe_mod_func_uint16_t_u_u+0x30>
    ad88:	0f b7 45 fc          	movzwl -0x4(%rbp),%eax
    ad8c:	5d                   	pop    %rbp
    ad8d:	c3                   	retq   

000000000000ad8e <safe_div_func_uint16_t_u_u>:
    ad8e:	f3 0f 1e fa          	endbr64 
    ad92:	55                   	push   %rbp
    ad93:	48 89 e5             	mov    %rsp,%rbp
    ad96:	89 fa                	mov    %edi,%edx
    ad98:	89 f0                	mov    %esi,%eax
    ad9a:	66 89 55 fc          	mov    %dx,-0x4(%rbp)
    ad9e:	66 89 45 f8          	mov    %ax,-0x8(%rbp)
    ada2:	66 83 7d f8 00       	cmpw   $0x0,-0x8(%rbp)
    ada7:	74 0f                	je     adb8 <safe_div_func_uint16_t_u_u+0x2a>
    ada9:	0f b7 45 fc          	movzwl -0x4(%rbp),%eax
    adad:	ba 00 00 00 00       	mov    $0x0,%edx
    adb2:	66 f7 75 f8          	divw   -0x8(%rbp)
    adb6:	eb 04                	jmp    adbc <safe_div_func_uint16_t_u_u+0x2e>
    adb8:	0f b7 45 fc          	movzwl -0x4(%rbp),%eax
    adbc:	5d                   	pop    %rbp
    adbd:	c3                   	retq   

000000000000adbe <safe_lshift_func_uint16_t_u_s>:
    adbe:	f3 0f 1e fa          	endbr64 
    adc2:	55                   	push   %rbp
    adc3:	48 89 e5             	mov    %rsp,%rbp
    adc6:	89 f8                	mov    %edi,%eax
    adc8:	89 75 f8             	mov    %esi,-0x8(%rbp)
    adcb:	66 89 45 fc          	mov    %ax,-0x4(%rbp)
    adcf:	83 7d f8 00          	cmpl   $0x0,-0x8(%rbp)
    add3:	78 2b                	js     ae00 <safe_lshift_func_uint16_t_u_s+0x42>
    add5:	83 7d f8 1f          	cmpl   $0x1f,-0x8(%rbp)
    add9:	7f 25                	jg     ae00 <safe_lshift_func_uint16_t_u_s+0x42>
    addb:	0f b7 55 fc          	movzwl -0x4(%rbp),%edx
    addf:	8b 45 f8             	mov    -0x8(%rbp),%eax
    ade2:	be ff ff 00 00       	mov    $0xffff,%esi
    ade7:	89 c1                	mov    %eax,%ecx
    ade9:	d3 fe                	sar    %cl,%esi
    adeb:	89 f0                	mov    %esi,%eax
    aded:	39 c2                	cmp    %eax,%edx
    adef:	7f 0f                	jg     ae00 <safe_lshift_func_uint16_t_u_s+0x42>
    adf1:	0f b7 55 fc          	movzwl -0x4(%rbp),%edx
    adf5:	8b 45 f8             	mov    -0x8(%rbp),%eax
    adf8:	89 c1                	mov    %eax,%ecx
    adfa:	d3 e2                	shl    %cl,%edx
    adfc:	89 d0                	mov    %edx,%eax
    adfe:	eb 04                	jmp    ae04 <safe_lshift_func_uint16_t_u_s+0x46>
    ae00:	0f b7 45 fc          	movzwl -0x4(%rbp),%eax
    ae04:	5d                   	pop    %rbp
    ae05:	c3                   	retq   

000000000000ae06 <safe_lshift_func_uint16_t_u_u>:
    ae06:	f3 0f 1e fa          	endbr64 
    ae0a:	55                   	push   %rbp
    ae0b:	48 89 e5             	mov    %rsp,%rbp
    ae0e:	89 f8                	mov    %edi,%eax
    ae10:	89 75 f8             	mov    %esi,-0x8(%rbp)
    ae13:	66 89 45 fc          	mov    %ax,-0x4(%rbp)
    ae17:	83 7d f8 1f          	cmpl   $0x1f,-0x8(%rbp)
    ae1b:	77 25                	ja     ae42 <safe_lshift_func_uint16_t_u_u+0x3c>
    ae1d:	0f b7 55 fc          	movzwl -0x4(%rbp),%edx
    ae21:	8b 45 f8             	mov    -0x8(%rbp),%eax
    ae24:	be ff ff 00 00       	mov    $0xffff,%esi
    ae29:	89 c1                	mov    %eax,%ecx
    ae2b:	d3 fe                	sar    %cl,%esi
    ae2d:	89 f0                	mov    %esi,%eax
    ae2f:	39 c2                	cmp    %eax,%edx
    ae31:	7f 0f                	jg     ae42 <safe_lshift_func_uint16_t_u_u+0x3c>
    ae33:	0f b7 55 fc          	movzwl -0x4(%rbp),%edx
    ae37:	8b 45 f8             	mov    -0x8(%rbp),%eax
    ae3a:	89 c1                	mov    %eax,%ecx
    ae3c:	d3 e2                	shl    %cl,%edx
    ae3e:	89 d0                	mov    %edx,%eax
    ae40:	eb 04                	jmp    ae46 <safe_lshift_func_uint16_t_u_u+0x40>
    ae42:	0f b7 45 fc          	movzwl -0x4(%rbp),%eax
    ae46:	5d                   	pop    %rbp
    ae47:	c3                   	retq   

000000000000ae48 <safe_rshift_func_uint16_t_u_s>:
    ae48:	f3 0f 1e fa          	endbr64 
    ae4c:	55                   	push   %rbp
    ae4d:	48 89 e5             	mov    %rsp,%rbp
    ae50:	89 f8                	mov    %edi,%eax
    ae52:	89 75 f8             	mov    %esi,-0x8(%rbp)
    ae55:	66 89 45 fc          	mov    %ax,-0x4(%rbp)
    ae59:	83 7d f8 00          	cmpl   $0x0,-0x8(%rbp)
    ae5d:	78 15                	js     ae74 <safe_rshift_func_uint16_t_u_s+0x2c>
    ae5f:	83 7d f8 1f          	cmpl   $0x1f,-0x8(%rbp)
    ae63:	7f 0f                	jg     ae74 <safe_rshift_func_uint16_t_u_s+0x2c>
    ae65:	0f b7 55 fc          	movzwl -0x4(%rbp),%edx
    ae69:	8b 45 f8             	mov    -0x8(%rbp),%eax
    ae6c:	89 c1                	mov    %eax,%ecx
    ae6e:	d3 fa                	sar    %cl,%edx
    ae70:	89 d0                	mov    %edx,%eax
    ae72:	eb 04                	jmp    ae78 <safe_rshift_func_uint16_t_u_s+0x30>
    ae74:	0f b7 45 fc          	movzwl -0x4(%rbp),%eax
    ae78:	5d                   	pop    %rbp
    ae79:	c3                   	retq   

000000000000ae7a <safe_rshift_func_uint16_t_u_u>:
    ae7a:	f3 0f 1e fa          	endbr64 
    ae7e:	55                   	push   %rbp
    ae7f:	48 89 e5             	mov    %rsp,%rbp
    ae82:	89 f8                	mov    %edi,%eax
    ae84:	89 75 f8             	mov    %esi,-0x8(%rbp)
    ae87:	66 89 45 fc          	mov    %ax,-0x4(%rbp)
    ae8b:	83 7d f8 1f          	cmpl   $0x1f,-0x8(%rbp)
    ae8f:	77 0f                	ja     aea0 <safe_rshift_func_uint16_t_u_u+0x26>
    ae91:	0f b7 55 fc          	movzwl -0x4(%rbp),%edx
    ae95:	8b 45 f8             	mov    -0x8(%rbp),%eax
    ae98:	89 c1                	mov    %eax,%ecx
    ae9a:	d3 fa                	sar    %cl,%edx
    ae9c:	89 d0                	mov    %edx,%eax
    ae9e:	eb 04                	jmp    aea4 <safe_rshift_func_uint16_t_u_u+0x2a>
    aea0:	0f b7 45 fc          	movzwl -0x4(%rbp),%eax
    aea4:	5d                   	pop    %rbp
    aea5:	c3                   	retq   

000000000000aea6 <safe_unary_minus_func_uint32_t_u>:
    aea6:	f3 0f 1e fa          	endbr64 
    aeaa:	55                   	push   %rbp
    aeab:	48 89 e5             	mov    %rsp,%rbp
    aeae:	89 7d fc             	mov    %edi,-0x4(%rbp)
    aeb1:	8b 45 fc             	mov    -0x4(%rbp),%eax
    aeb4:	f7 d8                	neg    %eax
    aeb6:	5d                   	pop    %rbp
    aeb7:	c3                   	retq   

000000000000aeb8 <safe_add_func_uint32_t_u_u>:
    aeb8:	f3 0f 1e fa          	endbr64 
    aebc:	55                   	push   %rbp
    aebd:	48 89 e5             	mov    %rsp,%rbp
    aec0:	89 7d fc             	mov    %edi,-0x4(%rbp)
    aec3:	89 75 f8             	mov    %esi,-0x8(%rbp)
    aec6:	8b 55 fc             	mov    -0x4(%rbp),%edx
    aec9:	8b 45 f8             	mov    -0x8(%rbp),%eax
    aecc:	01 d0                	add    %edx,%eax
    aece:	5d                   	pop    %rbp
    aecf:	c3                   	retq   

000000000000aed0 <safe_sub_func_uint32_t_u_u>:
    aed0:	f3 0f 1e fa          	endbr64 
    aed4:	55                   	push   %rbp
    aed5:	48 89 e5             	mov    %rsp,%rbp
    aed8:	89 7d fc             	mov    %edi,-0x4(%rbp)
    aedb:	89 75 f8             	mov    %esi,-0x8(%rbp)
    aede:	8b 45 fc             	mov    -0x4(%rbp),%eax
    aee1:	2b 45 f8             	sub    -0x8(%rbp),%eax
    aee4:	5d                   	pop    %rbp
    aee5:	c3                   	retq   

000000000000aee6 <safe_mul_func_uint32_t_u_u>:
    aee6:	f3 0f 1e fa          	endbr64 
    aeea:	55                   	push   %rbp
    aeeb:	48 89 e5             	mov    %rsp,%rbp
    aeee:	89 7d fc             	mov    %edi,-0x4(%rbp)
    aef1:	89 75 f8             	mov    %esi,-0x8(%rbp)
    aef4:	8b 45 fc             	mov    -0x4(%rbp),%eax
    aef7:	0f af 45 f8          	imul   -0x8(%rbp),%eax
    aefb:	5d                   	pop    %rbp
    aefc:	c3                   	retq   

000000000000aefd <safe_mod_func_uint32_t_u_u>:
    aefd:	f3 0f 1e fa          	endbr64 
    af01:	55                   	push   %rbp
    af02:	48 89 e5             	mov    %rsp,%rbp
    af05:	89 7d fc             	mov    %edi,-0x4(%rbp)
    af08:	89 75 f8             	mov    %esi,-0x8(%rbp)
    af0b:	83 7d f8 00          	cmpl   $0x0,-0x8(%rbp)
    af0f:	74 0f                	je     af20 <safe_mod_func_uint32_t_u_u+0x23>
    af11:	8b 45 fc             	mov    -0x4(%rbp),%eax
    af14:	ba 00 00 00 00       	mov    $0x0,%edx
    af19:	f7 75 f8             	divl   -0x8(%rbp)
    af1c:	89 d0                	mov    %edx,%eax
    af1e:	eb 03                	jmp    af23 <safe_mod_func_uint32_t_u_u+0x26>
    af20:	8b 45 fc             	mov    -0x4(%rbp),%eax
    af23:	5d                   	pop    %rbp
    af24:	c3                   	retq   

000000000000af25 <safe_div_func_uint32_t_u_u>:
    af25:	f3 0f 1e fa          	endbr64 
    af29:	55                   	push   %rbp
    af2a:	48 89 e5             	mov    %rsp,%rbp
    af2d:	89 7d fc             	mov    %edi,-0x4(%rbp)
    af30:	89 75 f8             	mov    %esi,-0x8(%rbp)
    af33:	83 7d f8 00          	cmpl   $0x0,-0x8(%rbp)
    af37:	74 0d                	je     af46 <safe_div_func_uint32_t_u_u+0x21>
    af39:	8b 45 fc             	mov    -0x4(%rbp),%eax
    af3c:	ba 00 00 00 00       	mov    $0x0,%edx
    af41:	f7 75 f8             	divl   -0x8(%rbp)
    af44:	eb 03                	jmp    af49 <safe_div_func_uint32_t_u_u+0x24>
    af46:	8b 45 fc             	mov    -0x4(%rbp),%eax
    af49:	5d                   	pop    %rbp
    af4a:	c3                   	retq   

000000000000af4b <safe_lshift_func_uint32_t_u_s>:
    af4b:	f3 0f 1e fa          	endbr64 
    af4f:	55                   	push   %rbp
    af50:	48 89 e5             	mov    %rsp,%rbp
    af53:	89 7d fc             	mov    %edi,-0x4(%rbp)
    af56:	89 75 f8             	mov    %esi,-0x8(%rbp)
    af59:	83 7d f8 00          	cmpl   $0x0,-0x8(%rbp)
    af5d:	78 27                	js     af86 <safe_lshift_func_uint32_t_u_s+0x3b>
    af5f:	83 7d f8 1f          	cmpl   $0x1f,-0x8(%rbp)
    af63:	7f 21                	jg     af86 <safe_lshift_func_uint32_t_u_s+0x3b>
    af65:	8b 45 f8             	mov    -0x8(%rbp),%eax
    af68:	ba ff ff ff ff       	mov    $0xffffffff,%edx
    af6d:	89 c1                	mov    %eax,%ecx
    af6f:	d3 ea                	shr    %cl,%edx
    af71:	89 d0                	mov    %edx,%eax
    af73:	39 45 fc             	cmp    %eax,-0x4(%rbp)
    af76:	77 0e                	ja     af86 <safe_lshift_func_uint32_t_u_s+0x3b>
    af78:	8b 45 f8             	mov    -0x8(%rbp),%eax
    af7b:	8b 55 fc             	mov    -0x4(%rbp),%edx
    af7e:	89 c1                	mov    %eax,%ecx
    af80:	d3 e2                	shl    %cl,%edx
    af82:	89 d0                	mov    %edx,%eax
    af84:	eb 03                	jmp    af89 <safe_lshift_func_uint32_t_u_s+0x3e>
    af86:	8b 45 fc             	mov    -0x4(%rbp),%eax
    af89:	5d                   	pop    %rbp
    af8a:	c3                   	retq   

000000000000af8b <safe_lshift_func_uint32_t_u_u>:
    af8b:	f3 0f 1e fa          	endbr64 
    af8f:	55                   	push   %rbp
    af90:	48 89 e5             	mov    %rsp,%rbp
    af93:	89 7d fc             	mov    %edi,-0x4(%rbp)
    af96:	89 75 f8             	mov    %esi,-0x8(%rbp)
    af99:	83 7d f8 1f          	cmpl   $0x1f,-0x8(%rbp)
    af9d:	77 21                	ja     afc0 <safe_lshift_func_uint32_t_u_u+0x35>
    af9f:	8b 45 f8             	mov    -0x8(%rbp),%eax
    afa2:	ba ff ff ff ff       	mov    $0xffffffff,%edx
    afa7:	89 c1                	mov    %eax,%ecx
    afa9:	d3 ea                	shr    %cl,%edx
    afab:	89 d0                	mov    %edx,%eax
    afad:	39 45 fc             	cmp    %eax,-0x4(%rbp)
    afb0:	77 0e                	ja     afc0 <safe_lshift_func_uint32_t_u_u+0x35>
    afb2:	8b 45 f8             	mov    -0x8(%rbp),%eax
    afb5:	8b 55 fc             	mov    -0x4(%rbp),%edx
    afb8:	89 c1                	mov    %eax,%ecx
    afba:	d3 e2                	shl    %cl,%edx
    afbc:	89 d0                	mov    %edx,%eax
    afbe:	eb 03                	jmp    afc3 <safe_lshift_func_uint32_t_u_u+0x38>
    afc0:	8b 45 fc             	mov    -0x4(%rbp),%eax
    afc3:	5d                   	pop    %rbp
    afc4:	c3                   	retq   

000000000000afc5 <safe_rshift_func_uint32_t_u_s>:
    afc5:	f3 0f 1e fa          	endbr64 
    afc9:	55                   	push   %rbp
    afca:	48 89 e5             	mov    %rsp,%rbp
    afcd:	89 7d fc             	mov    %edi,-0x4(%rbp)
    afd0:	89 75 f8             	mov    %esi,-0x8(%rbp)
    afd3:	83 7d f8 00          	cmpl   $0x0,-0x8(%rbp)
    afd7:	78 14                	js     afed <safe_rshift_func_uint32_t_u_s+0x28>
    afd9:	83 7d f8 1f          	cmpl   $0x1f,-0x8(%rbp)
    afdd:	7f 0e                	jg     afed <safe_rshift_func_uint32_t_u_s+0x28>
    afdf:	8b 45 f8             	mov    -0x8(%rbp),%eax
    afe2:	8b 55 fc             	mov    -0x4(%rbp),%edx
    afe5:	89 c1                	mov    %eax,%ecx
    afe7:	d3 ea                	shr    %cl,%edx
    afe9:	89 d0                	mov    %edx,%eax
    afeb:	eb 03                	jmp    aff0 <safe_rshift_func_uint32_t_u_s+0x2b>
    afed:	8b 45 fc             	mov    -0x4(%rbp),%eax
    aff0:	5d                   	pop    %rbp
    aff1:	c3                   	retq   

000000000000aff2 <safe_rshift_func_uint32_t_u_u>:
    aff2:	f3 0f 1e fa          	endbr64 
    aff6:	55                   	push   %rbp
    aff7:	48 89 e5             	mov    %rsp,%rbp
    affa:	89 7d fc             	mov    %edi,-0x4(%rbp)
    affd:	89 75 f8             	mov    %esi,-0x8(%rbp)
    b000:	83 7d f8 1f          	cmpl   $0x1f,-0x8(%rbp)
    b004:	77 0e                	ja     b014 <safe_rshift_func_uint32_t_u_u+0x22>
    b006:	8b 45 f8             	mov    -0x8(%rbp),%eax
    b009:	8b 55 fc             	mov    -0x4(%rbp),%edx
    b00c:	89 c1                	mov    %eax,%ecx
    b00e:	d3 ea                	shr    %cl,%edx
    b010:	89 d0                	mov    %edx,%eax
    b012:	eb 03                	jmp    b017 <safe_rshift_func_uint32_t_u_u+0x25>
    b014:	8b 45 fc             	mov    -0x4(%rbp),%eax
    b017:	5d                   	pop    %rbp
    b018:	c3                   	retq   

000000000000b019 <safe_unary_minus_func_uint64_t_u>:
    b019:	f3 0f 1e fa          	endbr64 
    b01d:	55                   	push   %rbp
    b01e:	48 89 e5             	mov    %rsp,%rbp
    b021:	48 89 7d f8          	mov    %rdi,-0x8(%rbp)
    b025:	48 8b 45 f8          	mov    -0x8(%rbp),%rax
    b029:	48 f7 d8             	neg    %rax
    b02c:	5d                   	pop    %rbp
    b02d:	c3                   	retq   

000000000000b02e <safe_add_func_uint64_t_u_u>:
    b02e:	f3 0f 1e fa          	endbr64 
    b032:	55                   	push   %rbp
    b033:	48 89 e5             	mov    %rsp,%rbp
    b036:	48 89 7d f8          	mov    %rdi,-0x8(%rbp)
    b03a:	48 89 75 f0          	mov    %rsi,-0x10(%rbp)
    b03e:	48 8b 55 f8          	mov    -0x8(%rbp),%rdx
    b042:	48 8b 45 f0          	mov    -0x10(%rbp),%rax
    b046:	48 01 d0             	add    %rdx,%rax
    b049:	5d                   	pop    %rbp
    b04a:	c3                   	retq   

000000000000b04b <safe_sub_func_uint64_t_u_u>:
    b04b:	f3 0f 1e fa          	endbr64 
    b04f:	55                   	push   %rbp
    b050:	48 89 e5             	mov    %rsp,%rbp
    b053:	48 89 7d f8          	mov    %rdi,-0x8(%rbp)
    b057:	48 89 75 f0          	mov    %rsi,-0x10(%rbp)
    b05b:	48 8b 45 f8          	mov    -0x8(%rbp),%rax
    b05f:	48 2b 45 f0          	sub    -0x10(%rbp),%rax
    b063:	5d                   	pop    %rbp
    b064:	c3                   	retq   

000000000000b065 <safe_mul_func_uint64_t_u_u>:
    b065:	f3 0f 1e fa          	endbr64 
    b069:	55                   	push   %rbp
    b06a:	48 89 e5             	mov    %rsp,%rbp
    b06d:	48 89 7d f8          	mov    %rdi,-0x8(%rbp)
    b071:	48 89 75 f0          	mov    %rsi,-0x10(%rbp)
    b075:	48 8b 45 f8          	mov    -0x8(%rbp),%rax
    b079:	48 0f af 45 f0       	imul   -0x10(%rbp),%rax
    b07e:	5d                   	pop    %rbp
    b07f:	c3                   	retq   

000000000000b080 <safe_mod_func_uint64_t_u_u>:
    b080:	f3 0f 1e fa          	endbr64 
    b084:	55                   	push   %rbp
    b085:	48 89 e5             	mov    %rsp,%rbp
    b088:	48 89 7d f8          	mov    %rdi,-0x8(%rbp)
    b08c:	48 89 75 f0          	mov    %rsi,-0x10(%rbp)
    b090:	48 83 7d f0 00       	cmpq   $0x0,-0x10(%rbp)
    b095:	74 12                	je     b0a9 <safe_mod_func_uint64_t_u_u+0x29>
    b097:	48 8b 45 f8          	mov    -0x8(%rbp),%rax
    b09b:	ba 00 00 00 00       	mov    $0x0,%edx
    b0a0:	48 f7 75 f0          	divq   -0x10(%rbp)
    b0a4:	48 89 d0             	mov    %rdx,%rax
    b0a7:	eb 04                	jmp    b0ad <safe_mod_func_uint64_t_u_u+0x2d>
    b0a9:	48 8b 45 f8          	mov    -0x8(%rbp),%rax
    b0ad:	5d                   	pop    %rbp
    b0ae:	c3                   	retq   

000000000000b0af <safe_div_func_uint64_t_u_u>:
    b0af:	f3 0f 1e fa          	endbr64 
    b0b3:	55                   	push   %rbp
    b0b4:	48 89 e5             	mov    %rsp,%rbp
    b0b7:	48 89 7d f8          	mov    %rdi,-0x8(%rbp)
    b0bb:	48 89 75 f0          	mov    %rsi,-0x10(%rbp)
    b0bf:	48 83 7d f0 00       	cmpq   $0x0,-0x10(%rbp)
    b0c4:	74 0f                	je     b0d5 <safe_div_func_uint64_t_u_u+0x26>
    b0c6:	48 8b 45 f8          	mov    -0x8(%rbp),%rax
    b0ca:	ba 00 00 00 00       	mov    $0x0,%edx
    b0cf:	48 f7 75 f0          	divq   -0x10(%rbp)
    b0d3:	eb 04                	jmp    b0d9 <safe_div_func_uint64_t_u_u+0x2a>
    b0d5:	48 8b 45 f8          	mov    -0x8(%rbp),%rax
    b0d9:	5d                   	pop    %rbp
    b0da:	c3                   	retq   

000000000000b0db <safe_lshift_func_uint64_t_u_s>:
    b0db:	f3 0f 1e fa          	endbr64 
    b0df:	55                   	push   %rbp
    b0e0:	48 89 e5             	mov    %rsp,%rbp
    b0e3:	48 89 7d f8          	mov    %rdi,-0x8(%rbp)
    b0e7:	89 75 f4             	mov    %esi,-0xc(%rbp)
    b0ea:	83 7d f4 00          	cmpl   $0x0,-0xc(%rbp)
    b0ee:	78 2f                	js     b11f <safe_lshift_func_uint64_t_u_s+0x44>
    b0f0:	83 7d f4 1f          	cmpl   $0x1f,-0xc(%rbp)
    b0f4:	7f 29                	jg     b11f <safe_lshift_func_uint64_t_u_s+0x44>
    b0f6:	8b 45 f4             	mov    -0xc(%rbp),%eax
    b0f9:	48 c7 c2 ff ff ff ff 	mov    $0xffffffffffffffff,%rdx
    b100:	89 c1                	mov    %eax,%ecx
    b102:	48 d3 ea             	shr    %cl,%rdx
    b105:	48 89 d0             	mov    %rdx,%rax
    b108:	48 39 45 f8          	cmp    %rax,-0x8(%rbp)
    b10c:	77 11                	ja     b11f <safe_lshift_func_uint64_t_u_s+0x44>
    b10e:	8b 45 f4             	mov    -0xc(%rbp),%eax
    b111:	48 8b 55 f8          	mov    -0x8(%rbp),%rdx
    b115:	89 c1                	mov    %eax,%ecx
    b117:	48 d3 e2             	shl    %cl,%rdx
    b11a:	48 89 d0             	mov    %rdx,%rax
    b11d:	eb 04                	jmp    b123 <safe_lshift_func_uint64_t_u_s+0x48>
    b11f:	48 8b 45 f8          	mov    -0x8(%rbp),%rax
    b123:	5d                   	pop    %rbp
    b124:	c3                   	retq   

000000000000b125 <safe_lshift_func_uint64_t_u_u>:
    b125:	f3 0f 1e fa          	endbr64 
    b129:	55                   	push   %rbp
    b12a:	48 89 e5             	mov    %rsp,%rbp
    b12d:	48 89 7d f8          	mov    %rdi,-0x8(%rbp)
    b131:	89 75 f4             	mov    %esi,-0xc(%rbp)
    b134:	83 7d f4 1f          	cmpl   $0x1f,-0xc(%rbp)
    b138:	77 29                	ja     b163 <safe_lshift_func_uint64_t_u_u+0x3e>
    b13a:	8b 45 f4             	mov    -0xc(%rbp),%eax
    b13d:	48 c7 c2 ff ff ff ff 	mov    $0xffffffffffffffff,%rdx
    b144:	89 c1                	mov    %eax,%ecx
    b146:	48 d3 ea             	shr    %cl,%rdx
    b149:	48 89 d0             	mov    %rdx,%rax
    b14c:	48 39 45 f8          	cmp    %rax,-0x8(%rbp)
    b150:	77 11                	ja     b163 <safe_lshift_func_uint64_t_u_u+0x3e>
    b152:	8b 45 f4             	mov    -0xc(%rbp),%eax
    b155:	48 8b 55 f8          	mov    -0x8(%rbp),%rdx
    b159:	89 c1                	mov    %eax,%ecx
    b15b:	48 d3 e2             	shl    %cl,%rdx
    b15e:	48 89 d0             	mov    %rdx,%rax
    b161:	eb 04                	jmp    b167 <safe_lshift_func_uint64_t_u_u+0x42>
    b163:	48 8b 45 f8          	mov    -0x8(%rbp),%rax
    b167:	5d                   	pop    %rbp
    b168:	c3                   	retq   

000000000000b169 <safe_rshift_func_uint64_t_u_s>:
    b169:	f3 0f 1e fa          	endbr64 
    b16d:	55                   	push   %rbp
    b16e:	48 89 e5             	mov    %rsp,%rbp
    b171:	48 89 7d f8          	mov    %rdi,-0x8(%rbp)
    b175:	89 75 f4             	mov    %esi,-0xc(%rbp)
    b178:	83 7d f4 00          	cmpl   $0x0,-0xc(%rbp)
    b17c:	78 17                	js     b195 <safe_rshift_func_uint64_t_u_s+0x2c>
    b17e:	83 7d f4 1f          	cmpl   $0x1f,-0xc(%rbp)
    b182:	7f 11                	jg     b195 <safe_rshift_func_uint64_t_u_s+0x2c>
    b184:	8b 45 f4             	mov    -0xc(%rbp),%eax
    b187:	48 8b 55 f8          	mov    -0x8(%rbp),%rdx
    b18b:	89 c1                	mov    %eax,%ecx
    b18d:	48 d3 ea             	shr    %cl,%rdx
    b190:	48 89 d0             	mov    %rdx,%rax
    b193:	eb 04                	jmp    b199 <safe_rshift_func_uint64_t_u_s+0x30>
    b195:	48 8b 45 f8          	mov    -0x8(%rbp),%rax
    b199:	5d                   	pop    %rbp
    b19a:	c3                   	retq   

000000000000b19b <safe_rshift_func_uint64_t_u_u>:
    b19b:	f3 0f 1e fa          	endbr64 
    b19f:	55                   	push   %rbp
    b1a0:	48 89 e5             	mov    %rsp,%rbp
    b1a3:	48 89 7d f8          	mov    %rdi,-0x8(%rbp)
    b1a7:	89 75 f4             	mov    %esi,-0xc(%rbp)
    b1aa:	83 7d f4 1f          	cmpl   $0x1f,-0xc(%rbp)
    b1ae:	77 11                	ja     b1c1 <safe_rshift_func_uint64_t_u_u+0x26>
    b1b0:	8b 45 f4             	mov    -0xc(%rbp),%eax
    b1b3:	48 8b 55 f8          	mov    -0x8(%rbp),%rdx
    b1b7:	89 c1                	mov    %eax,%ecx
    b1b9:	48 d3 ea             	shr    %cl,%rdx
    b1bc:	48 89 d0             	mov    %rdx,%rax
    b1bf:	eb 04                	jmp    b1c5 <safe_rshift_func_uint64_t_u_u+0x2a>
    b1c1:	48 8b 45 f8          	mov    -0x8(%rbp),%rax
    b1c5:	5d                   	pop    %rbp
    b1c6:	c3                   	retq   

000000000000b1c7 <safe_add_func_float_f_f>:
    b1c7:	f3 0f 1e fa          	endbr64 
    b1cb:	55                   	push   %rbp
    b1cc:	48 89 e5             	mov    %rsp,%rbp
    b1cf:	f3 0f 11 45 fc       	movss  %xmm0,-0x4(%rbp)
    b1d4:	f3 0f 11 4d f8       	movss  %xmm1,-0x8(%rbp)
    b1d9:	f3 0f 10 4d fc       	movss  -0x4(%rbp),%xmm1
    b1de:	f3 0f 10 05 0a f2 00 	movss  0xf20a(%rip),%xmm0        # 1a3f0 <g_2536+0x136c>
    b1e5:	00 
    b1e6:	f3 0f 59 c8          	mulss  %xmm0,%xmm1
    b1ea:	f3 0f 10 55 f8       	movss  -0x8(%rbp),%xmm2
    b1ef:	f3 0f 10 05 f9 f1 00 	movss  0xf1f9(%rip),%xmm0        # 1a3f0 <g_2536+0x136c>
    b1f6:	00 
    b1f7:	f3 0f 59 c2          	mulss  %xmm2,%xmm0
    b1fb:	f3 0f 58 c1          	addss  %xmm1,%xmm0
    b1ff:	f3 0f 10 0d f9 f1 00 	movss  0xf1f9(%rip),%xmm1        # 1a400 <g_2536+0x137c>
    b206:	00 
    b207:	0f 54 c1             	andps  %xmm1,%xmm0
    b20a:	0f 2f 05 ff f1 00 00 	comiss 0xf1ff(%rip),%xmm0        # 1a410 <g_2536+0x138c>
    b211:	76 07                	jbe    b21a <safe_add_func_float_f_f+0x53>
    b213:	f3 0f 10 45 fc       	movss  -0x4(%rbp),%xmm0
    b218:	eb 0a                	jmp    b224 <safe_add_func_float_f_f+0x5d>
    b21a:	f3 0f 10 45 fc       	movss  -0x4(%rbp),%xmm0
    b21f:	f3 0f 58 45 f8       	addss  -0x8(%rbp),%xmm0
    b224:	5d                   	pop    %rbp
    b225:	c3                   	retq   

000000000000b226 <safe_sub_func_float_f_f>:
    b226:	f3 0f 1e fa          	endbr64 
    b22a:	55                   	push   %rbp
    b22b:	48 89 e5             	mov    %rsp,%rbp
    b22e:	f3 0f 11 45 fc       	movss  %xmm0,-0x4(%rbp)
    b233:	f3 0f 11 4d f8       	movss  %xmm1,-0x8(%rbp)
    b238:	f3 0f 10 4d fc       	movss  -0x4(%rbp),%xmm1
    b23d:	f3 0f 10 05 ab f1 00 	movss  0xf1ab(%rip),%xmm0        # 1a3f0 <g_2536+0x136c>
    b244:	00 
    b245:	f3 0f 59 c1          	mulss  %xmm1,%xmm0
    b249:	f3 0f 10 55 f8       	movss  -0x8(%rbp),%xmm2
    b24e:	f3 0f 10 0d 9a f1 00 	movss  0xf19a(%rip),%xmm1        # 1a3f0 <g_2536+0x136c>
    b255:	00 
    b256:	f3 0f 59 ca          	mulss  %xmm2,%xmm1
    b25a:	f3 0f 5c c1          	subss  %xmm1,%xmm0
    b25e:	f3 0f 10 0d 9a f1 00 	movss  0xf19a(%rip),%xmm1        # 1a400 <g_2536+0x137c>
    b265:	00 
    b266:	0f 54 c1             	andps  %xmm1,%xmm0
    b269:	0f 2f 05 a0 f1 00 00 	comiss 0xf1a0(%rip),%xmm0        # 1a410 <g_2536+0x138c>
    b270:	76 07                	jbe    b279 <safe_sub_func_float_f_f+0x53>
    b272:	f3 0f 10 45 fc       	movss  -0x4(%rbp),%xmm0
    b277:	eb 0a                	jmp    b283 <safe_sub_func_float_f_f+0x5d>
    b279:	f3 0f 10 45 fc       	movss  -0x4(%rbp),%xmm0
    b27e:	f3 0f 5c 45 f8       	subss  -0x8(%rbp),%xmm0
    b283:	5d                   	pop    %rbp
    b284:	c3                   	retq   

000000000000b285 <safe_mul_func_float_f_f>:
    b285:	f3 0f 1e fa          	endbr64 
    b289:	55                   	push   %rbp
    b28a:	48 89 e5             	mov    %rsp,%rbp
    b28d:	f3 0f 11 45 fc       	movss  %xmm0,-0x4(%rbp)
    b292:	f3 0f 11 4d f8       	movss  %xmm1,-0x8(%rbp)
    b297:	f3 0f 10 4d fc       	movss  -0x4(%rbp),%xmm1
    b29c:	f3 0f 10 05 70 f1 00 	movss  0xf170(%rip),%xmm0        # 1a414 <g_2536+0x1390>
    b2a3:	00 
    b2a4:	f3 0f 59 c8          	mulss  %xmm0,%xmm1
    b2a8:	f3 0f 10 55 f8       	movss  -0x8(%rbp),%xmm2
    b2ad:	f3 0f 10 05 63 f1 00 	movss  0xf163(%rip),%xmm0        # 1a418 <g_2536+0x1394>
    b2b4:	00 
    b2b5:	f3 0f 59 c2          	mulss  %xmm2,%xmm0
    b2b9:	f3 0f 59 c1          	mulss  %xmm1,%xmm0
    b2bd:	f3 0f 10 0d 3b f1 00 	movss  0xf13b(%rip),%xmm1        # 1a400 <g_2536+0x137c>
    b2c4:	00 
    b2c5:	0f 54 c1             	andps  %xmm1,%xmm0
    b2c8:	0f 2f 05 4d f1 00 00 	comiss 0xf14d(%rip),%xmm0        # 1a41c <g_2536+0x1398>
    b2cf:	76 07                	jbe    b2d8 <safe_mul_func_float_f_f+0x53>
    b2d1:	f3 0f 10 45 fc       	movss  -0x4(%rbp),%xmm0
    b2d6:	eb 0a                	jmp    b2e2 <safe_mul_func_float_f_f+0x5d>
    b2d8:	f3 0f 10 45 fc       	movss  -0x4(%rbp),%xmm0
    b2dd:	f3 0f 59 45 f8       	mulss  -0x8(%rbp),%xmm0
    b2e2:	5d                   	pop    %rbp
    b2e3:	c3                   	retq   

000000000000b2e4 <safe_div_func_float_f_f>:
    b2e4:	f3 0f 1e fa          	endbr64 
    b2e8:	55                   	push   %rbp
    b2e9:	48 89 e5             	mov    %rsp,%rbp
    b2ec:	f3 0f 11 45 fc       	movss  %xmm0,-0x4(%rbp)
    b2f1:	f3 0f 11 4d f8       	movss  %xmm1,-0x8(%rbp)
    b2f6:	f3 0f 10 45 f8       	movss  -0x8(%rbp),%xmm0
    b2fb:	f3 0f 10 0d fd f0 00 	movss  0xf0fd(%rip),%xmm1        # 1a400 <g_2536+0x137c>
    b302:	00 
    b303:	0f 54 c8             	andps  %xmm0,%xmm1
    b306:	f3 0f 10 05 12 f1 00 	movss  0xf112(%rip),%xmm0        # 1a420 <g_2536+0x139c>
    b30d:	00 
    b30e:	0f 2f c1             	comiss %xmm1,%xmm0
    b311:	0f 97 c0             	seta   %al
    b314:	83 f0 01             	xor    $0x1,%eax
    b317:	84 c0                	test   %al,%al
    b319:	75 56                	jne    b371 <safe_div_func_float_f_f+0x8d>
    b31b:	66 0f ef c0          	pxor   %xmm0,%xmm0
    b31f:	0f 2e 45 f8          	ucomiss -0x8(%rbp),%xmm0
    b323:	7a 0a                	jp     b32f <safe_div_func_float_f_f+0x4b>
    b325:	66 0f ef c0          	pxor   %xmm0,%xmm0
    b329:	0f 2e 45 f8          	ucomiss -0x8(%rbp),%xmm0
    b32d:	74 4e                	je     b37d <safe_div_func_float_f_f+0x99>
    b32f:	f3 0f 10 4d fc       	movss  -0x4(%rbp),%xmm1
    b334:	f3 0f 10 05 e8 f0 00 	movss  0xf0e8(%rip),%xmm0        # 1a424 <g_2536+0x13a0>
    b33b:	00 
    b33c:	f3 0f 59 c1          	mulss  %xmm1,%xmm0
    b340:	f3 0f 10 55 f8       	movss  -0x8(%rbp),%xmm2
    b345:	f3 0f 10 0d db f0 00 	movss  0xf0db(%rip),%xmm1        # 1a428 <g_2536+0x13a4>
    b34c:	00 
    b34d:	f3 0f 59 ca          	mulss  %xmm2,%xmm1
    b351:	f3 0f 5e c1          	divss  %xmm1,%xmm0
    b355:	f3 0f 10 0d a3 f0 00 	movss  0xf0a3(%rip),%xmm1        # 1a400 <g_2536+0x137c>
    b35c:	00 
    b35d:	0f 54 c1             	andps  %xmm1,%xmm0
    b360:	0f 2f 05 c5 f0 00 00 	comiss 0xf0c5(%rip),%xmm0        # 1a42c <g_2536+0x13a8>
    b367:	0f 97 c0             	seta   %al
    b36a:	83 f0 01             	xor    $0x1,%eax
    b36d:	84 c0                	test   %al,%al
    b36f:	74 0c                	je     b37d <safe_div_func_float_f_f+0x99>
    b371:	f3 0f 10 45 fc       	movss  -0x4(%rbp),%xmm0
    b376:	f3 0f 5e 45 f8       	divss  -0x8(%rbp),%xmm0
    b37b:	eb 05                	jmp    b382 <safe_div_func_float_f_f+0x9e>
    b37d:	f3 0f 10 45 fc       	movss  -0x4(%rbp),%xmm0
    b382:	5d                   	pop    %rbp
    b383:	c3                   	retq   

000000000000b384 <safe_add_func_double_f_f>:
    b384:	f3 0f 1e fa          	endbr64 
    b388:	55                   	push   %rbp
    b389:	48 89 e5             	mov    %rsp,%rbp
    b38c:	f2 0f 11 45 f8       	movsd  %xmm0,-0x8(%rbp)
    b391:	f2 0f 11 4d f0       	movsd  %xmm1,-0x10(%rbp)
    b396:	f2 0f 10 4d f8       	movsd  -0x8(%rbp),%xmm1
    b39b:	f2 0f 10 05 8d f0 00 	movsd  0xf08d(%rip),%xmm0        # 1a430 <g_2536+0x13ac>
    b3a2:	00 
    b3a3:	f2 0f 59 c8          	mulsd  %xmm0,%xmm1
    b3a7:	f2 0f 10 55 f0       	movsd  -0x10(%rbp),%xmm2
    b3ac:	f2 0f 10 05 7c f0 00 	movsd  0xf07c(%rip),%xmm0        # 1a430 <g_2536+0x13ac>
    b3b3:	00 
    b3b4:	f2 0f 59 c2          	mulsd  %xmm2,%xmm0
    b3b8:	f2 0f 58 c1          	addsd  %xmm1,%xmm0
    b3bc:	f3 0f 7e 0d 7c f0 00 	movq   0xf07c(%rip),%xmm1        # 1a440 <g_2536+0x13bc>
    b3c3:	00 
    b3c4:	66 0f 54 c1          	andpd  %xmm1,%xmm0
    b3c8:	66 0f 2f 05 80 f0 00 	comisd 0xf080(%rip),%xmm0        # 1a450 <g_2536+0x13cc>
    b3cf:	00 
    b3d0:	76 07                	jbe    b3d9 <safe_add_func_double_f_f+0x55>
    b3d2:	f2 0f 10 45 f8       	movsd  -0x8(%rbp),%xmm0
    b3d7:	eb 0a                	jmp    b3e3 <safe_add_func_double_f_f+0x5f>
    b3d9:	f2 0f 10 45 f8       	movsd  -0x8(%rbp),%xmm0
    b3de:	f2 0f 58 45 f0       	addsd  -0x10(%rbp),%xmm0
    b3e3:	5d                   	pop    %rbp
    b3e4:	c3                   	retq   

000000000000b3e5 <safe_sub_func_double_f_f>:
    b3e5:	f3 0f 1e fa          	endbr64 
    b3e9:	55                   	push   %rbp
    b3ea:	48 89 e5             	mov    %rsp,%rbp
    b3ed:	f2 0f 11 45 f8       	movsd  %xmm0,-0x8(%rbp)
    b3f2:	f2 0f 11 4d f0       	movsd  %xmm1,-0x10(%rbp)
    b3f7:	f2 0f 10 4d f8       	movsd  -0x8(%rbp),%xmm1
    b3fc:	f2 0f 10 05 2c f0 00 	movsd  0xf02c(%rip),%xmm0        # 1a430 <g_2536+0x13ac>
    b403:	00 
    b404:	f2 0f 59 c1          	mulsd  %xmm1,%xmm0
    b408:	f2 0f 10 55 f0       	movsd  -0x10(%rbp),%xmm2
    b40d:	f2 0f 10 0d 1b f0 00 	movsd  0xf01b(%rip),%xmm1        # 1a430 <g_2536+0x13ac>
    b414:	00 
    b415:	f2 0f 59 ca          	mulsd  %xmm2,%xmm1
    b419:	f2 0f 5c c1          	subsd  %xmm1,%xmm0
    b41d:	f3 0f 7e 0d 1b f0 00 	movq   0xf01b(%rip),%xmm1        # 1a440 <g_2536+0x13bc>
    b424:	00 
    b425:	66 0f 54 c1          	andpd  %xmm1,%xmm0
    b429:	66 0f 2f 05 1f f0 00 	comisd 0xf01f(%rip),%xmm0        # 1a450 <g_2536+0x13cc>
    b430:	00 
    b431:	76 07                	jbe    b43a <safe_sub_func_double_f_f+0x55>
    b433:	f2 0f 10 45 f8       	movsd  -0x8(%rbp),%xmm0
    b438:	eb 0a                	jmp    b444 <safe_sub_func_double_f_f+0x5f>
    b43a:	f2 0f 10 45 f8       	movsd  -0x8(%rbp),%xmm0
    b43f:	f2 0f 5c 45 f0       	subsd  -0x10(%rbp),%xmm0
    b444:	5d                   	pop    %rbp
    b445:	c3                   	retq   

000000000000b446 <safe_mul_func_double_f_f>:
    b446:	f3 0f 1e fa          	endbr64 
    b44a:	55                   	push   %rbp
    b44b:	48 89 e5             	mov    %rsp,%rbp
    b44e:	f2 0f 11 45 f8       	movsd  %xmm0,-0x8(%rbp)
    b453:	f2 0f 11 4d f0       	movsd  %xmm1,-0x10(%rbp)
    b458:	f2 0f 10 4d f8       	movsd  -0x8(%rbp),%xmm1
    b45d:	f2 0f 10 05 f3 ef 00 	movsd  0xeff3(%rip),%xmm0        # 1a458 <g_2536+0x13d4>
    b464:	00 
    b465:	f2 0f 59 c8          	mulsd  %xmm0,%xmm1
    b469:	f2 0f 10 55 f0       	movsd  -0x10(%rbp),%xmm2
    b46e:	f2 0f 10 05 ea ef 00 	movsd  0xefea(%rip),%xmm0        # 1a460 <g_2536+0x13dc>
    b475:	00 
    b476:	f2 0f 59 c2          	mulsd  %xmm2,%xmm0
    b47a:	f2 0f 59 c1          	mulsd  %xmm1,%xmm0
    b47e:	f3 0f 7e 0d ba ef 00 	movq   0xefba(%rip),%xmm1        # 1a440 <g_2536+0x13bc>
    b485:	00 
    b486:	66 0f 54 c1          	andpd  %xmm1,%xmm0
    b48a:	66 0f 2f 05 d6 ef 00 	comisd 0xefd6(%rip),%xmm0        # 1a468 <g_2536+0x13e4>
    b491:	00 
    b492:	76 07                	jbe    b49b <safe_mul_func_double_f_f+0x55>
    b494:	f2 0f 10 45 f8       	movsd  -0x8(%rbp),%xmm0
    b499:	eb 0a                	jmp    b4a5 <safe_mul_func_double_f_f+0x5f>
    b49b:	f2 0f 10 45 f8       	movsd  -0x8(%rbp),%xmm0
    b4a0:	f2 0f 59 45 f0       	mulsd  -0x10(%rbp),%xmm0
    b4a5:	5d                   	pop    %rbp
    b4a6:	c3                   	retq   

000000000000b4a7 <safe_div_func_double_f_f>:
    b4a7:	f3 0f 1e fa          	endbr64 
    b4ab:	55                   	push   %rbp
    b4ac:	48 89 e5             	mov    %rsp,%rbp
    b4af:	f2 0f 11 45 f8       	movsd  %xmm0,-0x8(%rbp)
    b4b4:	f2 0f 11 4d f0       	movsd  %xmm1,-0x10(%rbp)
    b4b9:	f2 0f 10 45 f0       	movsd  -0x10(%rbp),%xmm0
    b4be:	f3 0f 7e 0d 7a ef 00 	movq   0xef7a(%rip),%xmm1        # 1a440 <g_2536+0x13bc>
    b4c5:	00 
    b4c6:	66 0f 54 c8          	andpd  %xmm0,%xmm1
    b4ca:	f2 0f 10 05 9e ef 00 	movsd  0xef9e(%rip),%xmm0        # 1a470 <g_2536+0x13ec>
    b4d1:	00 
    b4d2:	66 0f 2f c1          	comisd %xmm1,%xmm0
    b4d6:	0f 97 c0             	seta   %al
    b4d9:	83 f0 01             	xor    $0x1,%eax
    b4dc:	84 c0                	test   %al,%al
    b4de:	75 5a                	jne    b53a <safe_div_func_double_f_f+0x93>
    b4e0:	66 0f ef c0          	pxor   %xmm0,%xmm0
    b4e4:	66 0f 2e 45 f0       	ucomisd -0x10(%rbp),%xmm0
    b4e9:	7a 0b                	jp     b4f6 <safe_div_func_double_f_f+0x4f>
    b4eb:	66 0f ef c0          	pxor   %xmm0,%xmm0
    b4ef:	66 0f 2e 45 f0       	ucomisd -0x10(%rbp),%xmm0
    b4f4:	74 50                	je     b546 <safe_div_func_double_f_f+0x9f>
    b4f6:	f2 0f 10 4d f8       	movsd  -0x8(%rbp),%xmm1
    b4fb:	f2 0f 10 05 75 ef 00 	movsd  0xef75(%rip),%xmm0        # 1a478 <g_2536+0x13f4>
    b502:	00 
    b503:	f2 0f 59 c1          	mulsd  %xmm1,%xmm0
    b507:	f2 0f 10 55 f0       	movsd  -0x10(%rbp),%xmm2
    b50c:	f2 0f 10 0d 6c ef 00 	movsd  0xef6c(%rip),%xmm1        # 1a480 <g_2536+0x13fc>
    b513:	00 
    b514:	f2 0f 59 ca          	mulsd  %xmm2,%xmm1
    b518:	f2 0f 5e c1          	divsd  %xmm1,%xmm0
    b51c:	f3 0f 7e 0d 1c ef 00 	movq   0xef1c(%rip),%xmm1        # 1a440 <g_2536+0x13bc>
    b523:	00 
    b524:	66 0f 54 c1          	andpd  %xmm1,%xmm0
    b528:	66 0f 2f 05 58 ef 00 	comisd 0xef58(%rip),%xmm0        # 1a488 <g_2536+0x1404>
    b52f:	00 
    b530:	0f 97 c0             	seta   %al
    b533:	83 f0 01             	xor    $0x1,%eax
    b536:	84 c0                	test   %al,%al
    b538:	74 0c                	je     b546 <safe_div_func_double_f_f+0x9f>
    b53a:	f2 0f 10 45 f8       	movsd  -0x8(%rbp),%xmm0
    b53f:	f2 0f 5e 45 f0       	divsd  -0x10(%rbp),%xmm0
    b544:	eb 05                	jmp    b54b <safe_div_func_double_f_f+0xa4>
    b546:	f2 0f 10 45 f8       	movsd  -0x8(%rbp),%xmm0
    b54b:	5d                   	pop    %rbp
    b54c:	c3                   	retq   

000000000000b54d <safe_convert_func_float_to_int32_t>:
    b54d:	f3 0f 1e fa          	endbr64 
    b551:	55                   	push   %rbp
    b552:	48 89 e5             	mov    %rsp,%rbp
    b555:	f3 0f 11 45 fc       	movss  %xmm0,-0x4(%rbp)
    b55a:	f3 0f 10 05 2e ef 00 	movss  0xef2e(%rip),%xmm0        # 1a490 <g_2536+0x140c>
    b561:	00 
    b562:	0f 2f 45 fc          	comiss -0x4(%rbp),%xmm0
    b566:	0f 93 c0             	setae  %al
    b569:	83 f0 01             	xor    $0x1,%eax
    b56c:	84 c0                	test   %al,%al
    b56e:	74 21                	je     b591 <safe_convert_func_float_to_int32_t+0x44>
    b570:	f3 0f 10 45 fc       	movss  -0x4(%rbp),%xmm0
    b575:	0f 2f 05 18 ef 00 00 	comiss 0xef18(%rip),%xmm0        # 1a494 <g_2536+0x1410>
    b57c:	0f 93 c0             	setae  %al
    b57f:	83 f0 01             	xor    $0x1,%eax
    b582:	84 c0                	test   %al,%al
    b584:	74 0b                	je     b591 <safe_convert_func_float_to_int32_t+0x44>
    b586:	f3 0f 10 45 fc       	movss  -0x4(%rbp),%xmm0
    b58b:	f3 0f 2c c0          	cvttss2si %xmm0,%eax
    b58f:	eb 05                	jmp    b596 <safe_convert_func_float_to_int32_t+0x49>
    b591:	b8 ff ff ff 7f       	mov    $0x7fffffff,%eax
    b596:	5d                   	pop    %rbp
    b597:	c3                   	retq   

000000000000b598 <crc32_gentab>:
    b598:	f3 0f 1e fa          	endbr64 
    b59c:	55                   	push   %rbp
    b59d:	48 89 e5             	mov    %rsp,%rbp
    b5a0:	c7 45 fc 20 83 b8 ed 	movl   $0xedb88320,-0x4(%rbp)
    b5a7:	c7 45 f4 00 00 00 00 	movl   $0x0,-0xc(%rbp)
    b5ae:	eb 51                	jmp    b601 <crc32_gentab+0x69>
    b5b0:	8b 45 f4             	mov    -0xc(%rbp),%eax
    b5b3:	89 45 f0             	mov    %eax,-0x10(%rbp)
    b5b6:	c7 45 f8 08 00 00 00 	movl   $0x8,-0x8(%rbp)
    b5bd:	eb 1e                	jmp    b5dd <crc32_gentab+0x45>
    b5bf:	8b 45 f0             	mov    -0x10(%rbp),%eax
    b5c2:	83 e0 01             	and    $0x1,%eax
    b5c5:	85 c0                	test   %eax,%eax
    b5c7:	74 0d                	je     b5d6 <crc32_gentab+0x3e>
    b5c9:	8b 45 f0             	mov    -0x10(%rbp),%eax
    b5cc:	d1 e8                	shr    %eax
    b5ce:	33 45 fc             	xor    -0x4(%rbp),%eax
    b5d1:	89 45 f0             	mov    %eax,-0x10(%rbp)
    b5d4:	eb 03                	jmp    b5d9 <crc32_gentab+0x41>
    b5d6:	d1 6d f0             	shrl   -0x10(%rbp)
    b5d9:	83 6d f8 01          	subl   $0x1,-0x8(%rbp)
    b5dd:	83 7d f8 00          	cmpl   $0x0,-0x8(%rbp)
    b5e1:	7f dc                	jg     b5bf <crc32_gentab+0x27>
    b5e3:	8b 45 f4             	mov    -0xc(%rbp),%eax
    b5e6:	48 98                	cltq   
    b5e8:	48 8d 0c 85 00 00 00 	lea    0x0(,%rax,4),%rcx
    b5ef:	00 
    b5f0:	48 8d 15 a9 6a 01 00 	lea    0x16aa9(%rip),%rdx        # 220a0 <crc32_tab>
    b5f7:	8b 45 f0             	mov    -0x10(%rbp),%eax
    b5fa:	89 04 11             	mov    %eax,(%rcx,%rdx,1)
    b5fd:	83 45 f4 01          	addl   $0x1,-0xc(%rbp)
    b601:	81 7d f4 ff 00 00 00 	cmpl   $0xff,-0xc(%rbp)
    b608:	7e a6                	jle    b5b0 <crc32_gentab+0x18>
    b60a:	90                   	nop
    b60b:	90                   	nop
    b60c:	5d                   	pop    %rbp
    b60d:	c3                   	retq   

000000000000b60e <crc32_byte>:
    b60e:	f3 0f 1e fa          	endbr64 
    b612:	55                   	push   %rbp
    b613:	48 89 e5             	mov    %rsp,%rbp
    b616:	89 f8                	mov    %edi,%eax
    b618:	88 45 fc             	mov    %al,-0x4(%rbp)
    b61b:	8b 05 ff 19 01 00    	mov    0x119ff(%rip),%eax        # 1d020 <crc32_context>
    b621:	c1 e8 08             	shr    $0x8,%eax
    b624:	89 c1                	mov    %eax,%ecx
    b626:	0f b6 55 fc          	movzbl -0x4(%rbp),%edx
    b62a:	8b 05 f0 19 01 00    	mov    0x119f0(%rip),%eax        # 1d020 <crc32_context>
    b630:	31 d0                	xor    %edx,%eax
    b632:	0f b6 c0             	movzbl %al,%eax
    b635:	89 c0                	mov    %eax,%eax
    b637:	48 8d 14 85 00 00 00 	lea    0x0(,%rax,4),%rdx
    b63e:	00 
    b63f:	48 8d 05 5a 6a 01 00 	lea    0x16a5a(%rip),%rax        # 220a0 <crc32_tab>
    b646:	8b 04 02             	mov    (%rdx,%rax,1),%eax
    b649:	31 c8                	xor    %ecx,%eax
    b64b:	89 05 cf 19 01 00    	mov    %eax,0x119cf(%rip)        # 1d020 <crc32_context>
    b651:	90                   	nop
    b652:	5d                   	pop    %rbp
    b653:	c3                   	retq   

000000000000b654 <crc32_8bytes>:
    b654:	f3 0f 1e fa          	endbr64 
    b658:	55                   	push   %rbp
    b659:	48 89 e5             	mov    %rsp,%rbp
    b65c:	48 83 ec 08          	sub    $0x8,%rsp
    b660:	48 89 7d f8          	mov    %rdi,-0x8(%rbp)
    b664:	48 8b 45 f8          	mov    -0x8(%rbp),%rax
    b668:	0f b6 c0             	movzbl %al,%eax
    b66b:	89 c7                	mov    %eax,%edi
    b66d:	e8 9c ff ff ff       	callq  b60e <crc32_byte>
    b672:	48 8b 45 f8          	mov    -0x8(%rbp),%rax
    b676:	48 c1 e8 08          	shr    $0x8,%rax
    b67a:	0f b6 c0             	movzbl %al,%eax
    b67d:	89 c7                	mov    %eax,%edi
    b67f:	e8 8a ff ff ff       	callq  b60e <crc32_byte>
    b684:	48 8b 45 f8          	mov    -0x8(%rbp),%rax
    b688:	48 c1 e8 10          	shr    $0x10,%rax
    b68c:	0f b6 c0             	movzbl %al,%eax
    b68f:	89 c7                	mov    %eax,%edi
    b691:	e8 78 ff ff ff       	callq  b60e <crc32_byte>
    b696:	48 8b 45 f8          	mov    -0x8(%rbp),%rax
    b69a:	48 c1 e8 18          	shr    $0x18,%rax
    b69e:	0f b6 c0             	movzbl %al,%eax
    b6a1:	89 c7                	mov    %eax,%edi
    b6a3:	e8 66 ff ff ff       	callq  b60e <crc32_byte>
    b6a8:	48 8b 45 f8          	mov    -0x8(%rbp),%rax
    b6ac:	48 c1 e8 20          	shr    $0x20,%rax
    b6b0:	0f b6 c0             	movzbl %al,%eax
    b6b3:	89 c7                	mov    %eax,%edi
    b6b5:	e8 54 ff ff ff       	callq  b60e <crc32_byte>
    b6ba:	48 8b 45 f8          	mov    -0x8(%rbp),%rax
    b6be:	48 c1 e8 28          	shr    $0x28,%rax
    b6c2:	0f b6 c0             	movzbl %al,%eax
    b6c5:	89 c7                	mov    %eax,%edi
    b6c7:	e8 42 ff ff ff       	callq  b60e <crc32_byte>
    b6cc:	48 8b 45 f8          	mov    -0x8(%rbp),%rax
    b6d0:	48 c1 e8 30          	shr    $0x30,%rax
    b6d4:	0f b6 c0             	movzbl %al,%eax
    b6d7:	89 c7                	mov    %eax,%edi
    b6d9:	e8 30 ff ff ff       	callq  b60e <crc32_byte>
    b6de:	48 8b 45 f8          	mov    -0x8(%rbp),%rax
    b6e2:	48 c1 e8 38          	shr    $0x38,%rax
    b6e6:	0f b6 c0             	movzbl %al,%eax
    b6e9:	89 c7                	mov    %eax,%edi
    b6eb:	e8 1e ff ff ff       	callq  b60e <crc32_byte>
    b6f0:	90                   	nop
    b6f1:	c9                   	leaveq 
    b6f2:	c3                   	retq   

000000000000b6f3 <transparent_crc>:
    b6f3:	f3 0f 1e fa          	endbr64 
    b6f7:	55                   	push   %rbp
    b6f8:	48 89 e5             	mov    %rsp,%rbp
    b6fb:	48 83 ec 20          	sub    $0x20,%rsp
    b6ff:	48 89 7d f8          	mov    %rdi,-0x8(%rbp)
    b703:	48 89 75 f0          	mov    %rsi,-0x10(%rbp)
    b707:	89 55 ec             	mov    %edx,-0x14(%rbp)
    b70a:	48 8b 45 f8          	mov    -0x8(%rbp),%rax
    b70e:	48 89 c7             	mov    %rax,%rdi
    b711:	e8 3e ff ff ff       	callq  b654 <crc32_8bytes>
    b716:	83 7d ec 00          	cmpl   $0x0,-0x14(%rbp)
    b71a:	74 22                	je     b73e <transparent_crc+0x4b>
    b71c:	8b 05 fe 18 01 00    	mov    0x118fe(%rip),%eax        # 1d020 <crc32_context>
    b722:	f7 d0                	not    %eax
    b724:	89 c2                	mov    %eax,%edx
    b726:	48 8b 45 f0          	mov    -0x10(%rbp),%rax
    b72a:	48 89 c6             	mov    %rax,%rsi
    b72d:	48 8d 3d fc d8 00 00 	lea    0xd8fc(%rip),%rdi        # 19030 <_IO_stdin_used+0x30>
    b734:	b8 00 00 00 00       	mov    $0x0,%eax
    b739:	e8 42 e9 ff ff       	callq  a080 <printf@plt>
    b73e:	90                   	nop
    b73f:	c9                   	leaveq 
    b740:	c3                   	retq   

000000000000b741 <transparent_crc_bytes>:
    b741:	f3 0f 1e fa          	endbr64 
    b745:	55                   	push   %rbp
    b746:	48 89 e5             	mov    %rsp,%rbp
    b749:	48 83 ec 30          	sub    $0x30,%rsp
    b74d:	48 89 7d e8          	mov    %rdi,-0x18(%rbp)
    b751:	89 75 e4             	mov    %esi,-0x1c(%rbp)
    b754:	48 89 55 d8          	mov    %rdx,-0x28(%rbp)
    b758:	89 4d e0             	mov    %ecx,-0x20(%rbp)
    b75b:	c7 45 fc 00 00 00 00 	movl   $0x0,-0x4(%rbp)
    b762:	eb 1e                	jmp    b782 <transparent_crc_bytes+0x41>
    b764:	8b 45 fc             	mov    -0x4(%rbp),%eax
    b767:	48 63 d0             	movslq %eax,%rdx
    b76a:	48 8b 45 e8          	mov    -0x18(%rbp),%rax
    b76e:	48 01 d0             	add    %rdx,%rax
    b771:	0f b6 00             	movzbl (%rax),%eax
    b774:	0f b6 c0             	movzbl %al,%eax
    b777:	89 c7                	mov    %eax,%edi
    b779:	e8 90 fe ff ff       	callq  b60e <crc32_byte>
    b77e:	83 45 fc 01          	addl   $0x1,-0x4(%rbp)
    b782:	8b 45 fc             	mov    -0x4(%rbp),%eax
    b785:	3b 45 e4             	cmp    -0x1c(%rbp),%eax
    b788:	7c da                	jl     b764 <transparent_crc_bytes+0x23>
    b78a:	83 7d e0 00          	cmpl   $0x0,-0x20(%rbp)
    b78e:	74 22                	je     b7b2 <transparent_crc_bytes+0x71>
    b790:	8b 05 8a 18 01 00    	mov    0x1188a(%rip),%eax        # 1d020 <crc32_context>
    b796:	f7 d0                	not    %eax
    b798:	89 c2                	mov    %eax,%edx
    b79a:	48 8b 45 d8          	mov    -0x28(%rbp),%rax
    b79e:	48 89 c6             	mov    %rax,%rsi
    b7a1:	48 8d 3d 88 d8 00 00 	lea    0xd888(%rip),%rdi        # 19030 <_IO_stdin_used+0x30>
    b7a8:	b8 00 00 00 00       	mov    $0x0,%eax
    b7ad:	e8 ce e8 ff ff       	callq  a080 <printf@plt>
    b7b2:	90                   	nop
    b7b3:	c9                   	leaveq 
    b7b4:	c3                   	retq   

000000000000b7b5 <func_1>:
    b7b5:	f3 0f 1e fa          	endbr64 
    b7b9:	55                   	push   %rbp
    b7ba:	48 89 e5             	mov    %rsp,%rbp
    b7bd:	41 57                	push   %r15
    b7bf:	41 56                	push   %r14
    b7c1:	41 55                	push   %r13
    b7c3:	41 54                	push   %r12
    b7c5:	53                   	push   %rbx
    b7c6:	48 81 ec 08 06 00 00 	sub    $0x608,%rsp
    b7cd:	64 48 8b 04 25 28 00 	mov    %fs:0x28,%rax
    b7d4:	00 00 
    b7d6:	48 89 45 c8          	mov    %rax,-0x38(%rbp)
    b7da:	31 c0                	xor    %eax,%eax
    b7dc:	48 b8 fa 67 21 de 0a 	movabs $0x398070ade2167fa,%rax
    b7e3:	07 98 03 
    b7e6:	48 89 85 40 fa ff ff 	mov    %rax,-0x5c0(%rbp)
    b7ed:	48 c7 85 60 fa ff ff 	movq   $0x0,-0x5a0(%rbp)
    b7f4:	00 00 00 00 
    b7f8:	48 c7 85 48 fa ff ff 	movq   $0x1,-0x5b8(%rbp)
    b7ff:	01 00 00 00 
    b803:	c7 85 18 fa ff ff 01 	movl   $0x1,-0x5e8(%rbp)
    b80a:	00 00 00 
    b80d:	c7 85 10 fa ff ff 85 	movl   $0x5932b285,-0x5f0(%rbp)
    b814:	b2 32 59 
    b817:	c6 85 e0 f9 ff ff f6 	movb   $0xf6,-0x620(%rbp)
    b81e:	48 8d 05 d5 20 01 00 	lea    0x120d5(%rip),%rax        # 1d8fa <g_159>
    b825:	48 89 85 68 fa ff ff 	mov    %rax,-0x598(%rbp)
    b82c:	c6 85 e1 f9 ff ff db 	movb   $0xdb,-0x61f(%rbp)
    b833:	c7 85 10 fc ff ff f8 	movl   $0xfffffff8,-0x3f0(%rbp)
    b83a:	ff ff ff 
    b83d:	c7 85 14 fc ff ff ca 	movl   $0x33a3b1ca,-0x3ec(%rbp)
    b844:	b1 a3 33 
    b847:	c7 85 18 fc ff ff ff 	movl   $0xffffffff,-0x3e8(%rbp)
    b84e:	ff ff ff 
    b851:	c7 85 1c fc ff ff ff 	movl   $0xffffffff,-0x3e4(%rbp)
    b858:	ff ff ff 
    b85b:	c7 85 20 fc ff ff ca 	movl   $0x33a3b1ca,-0x3e0(%rbp)
    b862:	b1 a3 33 
    b865:	c7 85 24 fc ff ff f8 	movl   $0xfffffff8,-0x3dc(%rbp)
    b86c:	ff ff ff 
    b86f:	c7 85 28 fc ff ff f7 	movl   $0xfffffff7,-0x3d8(%rbp)
    b876:	ff ff ff 
    b879:	c7 85 2c fc ff ff fe 	movl   $0xfffffffe,-0x3d4(%rbp)
    b880:	ff ff ff 
    b883:	c7 85 30 fc ff ff 00 	movl   $0x0,-0x3d0(%rbp)
    b88a:	00 00 00 
    b88d:	c7 85 34 fc ff ff f7 	movl   $0xfffffff7,-0x3cc(%rbp)
    b894:	ff ff ff 
    b897:	c7 85 38 fc ff ff e6 	movl   $0x950eeae6,-0x3c8(%rbp)
    b89e:	ea 0e 95 
    b8a1:	c7 85 3c fc ff ff 01 	movl   $0x1,-0x3c4(%rbp)
    b8a8:	00 00 00 
    b8ab:	c7 85 40 fc ff ff f8 	movl   $0xfffffff8,-0x3c0(%rbp)
    b8b2:	ff ff ff 
    b8b5:	c7 85 44 fc ff ff e6 	movl   $0x950eeae6,-0x3bc(%rbp)
    b8bc:	ea 0e 95 
    b8bf:	c7 85 48 fc ff ff ca 	movl   $0x33a3b1ca,-0x3b8(%rbp)
    b8c6:	b1 a3 33 
    b8c9:	c7 85 4c fc ff ff e6 	movl   $0x950eeae6,-0x3b4(%rbp)
    b8d0:	ea 0e 95 
    b8d3:	c7 85 50 fc ff ff e6 	movl   $0x8d7614e6,-0x3b0(%rbp)
    b8da:	14 76 8d 
    b8dd:	c7 85 54 fc ff ff 01 	movl   $0x1,-0x3ac(%rbp)
    b8e4:	00 00 00 
    b8e7:	c7 85 58 fc ff ff 79 	movl   $0x21421379,-0x3a8(%rbp)
    b8ee:	13 42 21 
    b8f1:	c7 85 5c fc ff ff 01 	movl   $0x1,-0x3a4(%rbp)
    b8f8:	00 00 00 
    b8fb:	c7 85 60 fc ff ff e6 	movl   $0x8d7614e6,-0x3a0(%rbp)
    b902:	14 76 8d 
    b905:	c7 85 64 fc ff ff f7 	movl   $0xfffffff7,-0x39c(%rbp)
    b90c:	ff ff ff 
    b90f:	c7 85 68 fc ff ff 01 	movl   $0x1,-0x398(%rbp)
    b916:	00 00 00 
    b919:	c7 85 6c fc ff ff fe 	movl   $0xfffffffe,-0x394(%rbp)
    b920:	ff ff ff 
    b923:	c7 85 70 fc ff ff fb 	movl   $0xfffffffb,-0x390(%rbp)
    b92a:	ff ff ff 
    b92d:	c7 85 74 fc ff ff e6 	movl   $0x8d7614e6,-0x38c(%rbp)
    b934:	14 76 8d 
    b937:	c7 85 78 fc ff ff f8 	movl   $0xfffffff8,-0x388(%rbp)
    b93e:	ff ff ff 
    b941:	c7 85 7c fc ff ff ff 	movl   $0xffffffff,-0x384(%rbp)
    b948:	ff ff ff 
    b94b:	c7 85 80 fc ff ff 01 	movl   $0x1,-0x380(%rbp)
    b952:	00 00 00 
    b955:	c7 85 84 fc ff ff fb 	movl   $0xfffffffb,-0x37c(%rbp)
    b95c:	ff ff ff 
    b95f:	c7 85 88 fc ff ff fb 	movl   $0xfffffffb,-0x378(%rbp)
    b966:	ff ff ff 
    b969:	c7 85 8c fc ff ff 01 	movl   $0x1,-0x374(%rbp)
    b970:	00 00 00 
    b973:	66 c7 85 e4 f9 ff ff 	movw   $0x0,-0x61c(%rbp)
    b97a:	00 00 
    b97c:	48 8d 05 dd 64 01 00 	lea    0x164dd(%rip),%rax        # 21e60 <g_2156+0x40>
    b983:	48 89 85 70 fa ff ff 	mov    %rax,-0x590(%rbp)
    b98a:	c7 85 1c fa ff ff 64 	movl   $0xb329a864,-0x5e4(%rbp)
    b991:	a8 29 b3 
    b994:	48 c7 85 50 fa ff ff 	movq   $0x0,-0x5b0(%rbp)
    b99b:	00 00 00 00 
    b99f:	48 8d 85 50 fa ff ff 	lea    -0x5b0(%rbp),%rax
    b9a6:	48 89 85 78 fa ff ff 	mov    %rax,-0x588(%rbp)
    b9ad:	c7 85 14 fa ff ff 00 	movl   $0x0,-0x5ec(%rbp)
    b9b4:	00 00 00 
    b9b7:	eb 1a                	jmp    b9d3 <func_1+0x21e>
    b9b9:	8b 85 14 fa ff ff    	mov    -0x5ec(%rbp),%eax
    b9bf:	48 98                	cltq   
    b9c1:	c7 84 85 54 fb ff ff 	movl   $0xe01ecee9,-0x4ac(%rbp,%rax,4)
    b9c8:	e9 ce 1e e0 
    b9cc:	83 85 14 fa ff ff 01 	addl   $0x1,-0x5ec(%rbp)
    b9d3:	83 bd 14 fa ff ff 02 	cmpl   $0x2,-0x5ec(%rbp)
    b9da:	7e dd                	jle    b9b9 <func_1+0x204>
    b9dc:	0f b6 05 41 16 01 00 	movzbl 0x11641(%rip),%eax        # 1d024 <g_6>
    b9e3:	0f b6 c0             	movzbl %al,%eax
    b9e6:	48 8b 95 40 fa ff ff 	mov    -0x5c0(%rbp),%rdx
    b9ed:	89 c6                	mov    %eax,%esi
    b9ef:	89 d7                	mov    %edx,%edi
    b9f1:	e8 94 14 00 00       	callq  ce8a <func_2>
    b9f6:	85 c0                	test   %eax,%eax
    b9f8:	0f 84 34 01 00 00    	je     bb32 <func_1+0x37d>
    b9fe:	48 8d 05 9f 20 01 00 	lea    0x1209f(%rip),%rax        # 1daa4 <g_1149>
    ba05:	48 89 85 28 fb ff ff 	mov    %rax,-0x4d8(%rbp)
    ba0c:	c7 85 2c fa ff ff 75 	movl   $0x1bc74f75,-0x5d4(%rbp)
    ba13:	4f c7 1b 
    ba16:	48 8b 05 e3 65 01 00 	mov    0x165e3(%rip),%rax        # 22000 <g_2809>
    ba1d:	48 8b 15 44 6b 01 00 	mov    0x16b44(%rip),%rdx        # 22568 <g_2808>
    ba24:	48 89 10             	mov    %rdx,(%rax)
    ba27:	48 83 bd 60 fa ff ff 	cmpq   $0x0,-0x5a0(%rbp)
    ba2e:	00 
    ba2f:	0f 95 c0             	setne  %al
    ba32:	0f b6 d0             	movzbl %al,%edx
    ba35:	48 8b 85 40 fa ff ff 	mov    -0x5c0(%rbp),%rax
    ba3c:	48 39 c2             	cmp    %rax,%rdx
    ba3f:	0f 95 c0             	setne  %al
    ba42:	0f b6 d0             	movzbl %al,%edx
    ba45:	48 8b 05 94 65 01 00 	mov    0x16594(%rip),%rax        # 21fe0 <g_2676>
    ba4c:	0f b7 00             	movzwl (%rax),%eax
    ba4f:	0f b7 c0             	movzwl %ax,%eax
    ba52:	89 d6                	mov    %edx,%esi
    ba54:	89 c7                	mov    %eax,%edi
    ba56:	e8 ab f3 ff ff       	callq  ae06 <safe_lshift_func_uint16_t_u_u>
    ba5b:	41 89 c5             	mov    %eax,%r13d
    ba5e:	48 8b 05 eb 47 01 00 	mov    0x147eb(%rip),%rax        # 20250 <g_954>
    ba65:	48 8b 00             	mov    (%rax),%rax
    ba68:	48 8b 00             	mov    (%rax),%rax
    ba6b:	8b 95 18 fa ff ff    	mov    -0x5e8(%rbp),%edx
    ba71:	88 10                	mov    %dl,(%rax)
    ba73:	0f b6 00             	movzbl (%rax),%eax
    ba76:	0f b6 c0             	movzbl %al,%eax
    ba79:	be 00 00 00 00       	mov    $0x0,%esi
    ba7e:	89 c7                	mov    %eax,%edi
    ba80:	e8 d5 f0 ff ff       	callq  ab5a <safe_add_func_uint8_t_u_u>
    ba85:	0f b6 d8             	movzbl %al,%ebx
    ba88:	8b 85 2c fa ff ff    	mov    -0x5d4(%rbp),%eax
    ba8e:	44 0f b7 e0          	movzwl %ax,%r12d
    ba92:	48 8b 85 28 fb ff ff 	mov    -0x4d8(%rbp),%rax
    ba99:	8b 00                	mov    (%rax),%eax
    ba9b:	83 c8 fd             	or     $0xfffffffd,%eax
    ba9e:	89 c2                	mov    %eax,%edx
    baa0:	48 8b 85 28 fb ff ff 	mov    -0x4d8(%rbp),%rax
    baa7:	89 10                	mov    %edx,(%rax)
    baa9:	48 8b 85 28 fb ff ff 	mov    -0x4d8(%rbp),%rax
    bab0:	8b 00                	mov    (%rax),%eax
    bab2:	89 c0                	mov    %eax,%eax
    bab4:	48 89 85 48 fa ff ff 	mov    %rax,-0x5b8(%rbp)
    babb:	48 8b 85 48 fa ff ff 	mov    -0x5b8(%rbp),%rax
    bac2:	0f b7 c0             	movzwl %ax,%eax
    bac5:	be 20 a3 00 00       	mov    $0xa320,%esi
    baca:	89 c7                	mov    %eax,%edi
    bacc:	e8 2e f2 ff ff       	callq  acff <safe_add_func_uint16_t_u_u>
    bad1:	0f b7 c0             	movzwl %ax,%eax
    bad4:	44 89 e6             	mov    %r12d,%esi
    bad7:	89 c7                	mov    %eax,%edi
    bad9:	e8 41 f2 ff ff       	callq  ad1f <safe_sub_func_uint16_t_u_u>
    bade:	66 85 c0             	test   %ax,%ax
    bae1:	75 0c                	jne    baef <func_1+0x33a>
    bae3:	48 8b 85 40 fa ff ff 	mov    -0x5c0(%rbp),%rax
    baea:	48 85 c0             	test   %rax,%rax
    baed:	74 07                	je     baf6 <func_1+0x341>
    baef:	b8 01 00 00 00       	mov    $0x1,%eax
    baf4:	eb 05                	jmp    bafb <func_1+0x346>
    baf6:	b8 00 00 00 00       	mov    $0x0,%eax
    bafb:	98                   	cwtl   
    bafc:	89 de                	mov    %ebx,%esi
    bafe:	89 c7                	mov    %eax,%edi
    bb00:	e8 ae e8 ff ff       	callq  a3b3 <safe_add_func_int16_t_s_s>
    bb05:	98                   	cwtl   
    bb06:	39 85 18 fa ff ff    	cmp    %eax,-0x5e8(%rbp)
    bb0c:	0f 95 c0             	setne  %al
    bb0f:	0f b6 c0             	movzbl %al,%eax
    bb12:	44 21 e8             	and    %r13d,%eax
    bb15:	0f b7 c0             	movzwl %ax,%eax
    bb18:	be 0d 00 00 00       	mov    $0xd,%esi
    bb1d:	89 c7                	mov    %eax,%edi
    bb1f:	e8 e2 f2 ff ff       	callq  ae06 <safe_lshift_func_uint16_t_u_u>
    bb24:	0f b7 c0             	movzwl %ax,%eax
    bb27:	21 85 10 fa ff ff    	and    %eax,-0x5f0(%rbp)
    bb2d:	e9 90 0f 00 00       	jmpq   cac2 <func_1+0x130d>
    bb32:	c7 85 04 fa ff ff 46 	movl   $0x69b99346,-0x5fc(%rbp)
    bb39:	93 b9 69 
    bb3c:	48 8d 05 dd 18 01 00 	lea    0x118dd(%rip),%rax        # 1d420 <g_110+0x3c0>
    bb43:	48 89 85 80 fa ff ff 	mov    %rax,-0x580(%rbp)
    bb4a:	48 8d 05 af 1d 01 00 	lea    0x11daf(%rip),%rax        # 1d900 <g_267>
    bb51:	48 89 85 88 fa ff ff 	mov    %rax,-0x578(%rbp)
    bb58:	48 8d 05 61 26 01 00 	lea    0x12661(%rip),%rax        # 1e1c0 <g_2805>
    bb5f:	48 89 85 90 fa ff ff 	mov    %rax,-0x570(%rbp)
    bb66:	48 c7 85 98 fa ff ff 	movq   $0xfffffffffffffff7,-0x568(%rbp)
    bb6d:	f7 ff ff ff 
    bb71:	48 8d 05 c8 46 01 00 	lea    0x146c8(%rip),%rax        # 20240 <g_936>
    bb78:	48 89 85 a0 fa ff ff 	mov    %rax,-0x560(%rbp)
    bb7f:	48 8b 05 0a 4e 01 00 	mov    0x14e0a(%rip),%rax        # 20990 <g_1169>
    bb86:	8b 10                	mov    (%rax),%edx
    bb88:	48 8b 05 01 4e 01 00 	mov    0x14e01(%rip),%rax        # 20990 <g_1169>
    bb8f:	33 95 04 fa ff ff    	xor    -0x5fc(%rbp),%edx
    bb95:	89 10                	mov    %edx,(%rax)
    bb97:	48 8b 05 aa 46 01 00 	mov    0x146aa(%rip),%rax        # 20248 <g_955>
    bb9e:	48 8b 00             	mov    (%rax),%rax
    bba1:	0f b6 00             	movzbl (%rax),%eax
    bba4:	0f b6 d8             	movzbl %al,%ebx
    bba7:	48 8b 05 ca 63 01 00 	mov    0x163ca(%rip),%rax        # 21f78 <g_2195>
    bbae:	48 8b 00             	mov    (%rax),%rax
    bbb1:	48 8b 00             	mov    (%rax),%rax
    bbb4:	48 8b 10             	mov    (%rax),%rdx
    bbb7:	48 8b 85 80 fa ff ff 	mov    -0x580(%rbp),%rax
    bbbe:	48 89 10             	mov    %rdx,(%rax)
    bbc1:	48 8b 85 48 fa ff ff 	mov    -0x5b8(%rbp),%rax
    bbc8:	41 89 c5             	mov    %eax,%r13d
    bbcb:	0f b6 05 76 1f 01 00 	movzbl 0x11f76(%rip),%eax        # 1db48 <g_1773>
    bbd2:	44 0f b6 e0          	movzbl %al,%r12d
    bbd6:	8b 85 10 fa ff ff    	mov    -0x5f0(%rbp),%eax
    bbdc:	0f b6 c0             	movzbl %al,%eax
    bbdf:	be 03 00 00 00       	mov    $0x3,%esi
    bbe4:	89 c7                	mov    %eax,%edi
    bbe6:	e8 d3 f0 ff ff       	callq  acbe <safe_rshift_func_uint8_t_u_u>
    bbeb:	84 c0                	test   %al,%al
    bbed:	74 59                	je     bc48 <func_1+0x493>
    bbef:	48 8b 85 88 fa ff ff 	mov    -0x578(%rbp),%rax
    bbf6:	8b 95 18 fa ff ff    	mov    -0x5e8(%rbp),%edx
    bbfc:	89 10                	mov    %edx,(%rax)
    bbfe:	48 8b 85 88 fa ff ff 	mov    -0x578(%rbp),%rax
    bc05:	8b 00                	mov    (%rax),%eax
    bc07:	41 89 c6             	mov    %eax,%r14d
    bc0a:	8b 95 04 fa ff ff    	mov    -0x5fc(%rbp),%edx
    bc10:	48 8b 85 90 fa ff ff 	mov    -0x570(%rbp),%rax
    bc17:	c7 00 fa ff ff ff    	movl   $0xfffffffa,(%rax)
    bc1d:	48 8b 85 90 fa ff ff 	mov    -0x570(%rbp),%rax
    bc24:	8b 00                	mov    (%rax),%eax
    bc26:	89 d6                	mov    %edx,%esi
    bc28:	89 c7                	mov    %eax,%edi
    bc2a:	e8 ce f2 ff ff       	callq  aefd <safe_mod_func_uint32_t_u_u>
    bc2f:	41 39 c6             	cmp    %eax,%r14d
    bc32:	74 14                	je     bc48 <func_1+0x493>
    bc34:	48 8b 85 88 fa ff ff 	mov    -0x578(%rbp),%rax
    bc3b:	8b 00                	mov    (%rax),%eax
    bc3d:	85 c0                	test   %eax,%eax
    bc3f:	74 07                	je     bc48 <func_1+0x493>
    bc41:	ba 01 00 00 00       	mov    $0x1,%edx
    bc46:	eb 05                	jmp    bc4d <func_1+0x498>
    bc48:	ba 00 00 00 00       	mov    $0x0,%edx
    bc4d:	48 8b 05 94 60 01 00 	mov    0x16094(%rip),%rax        # 21ce8 <g_1994>
    bc54:	48 8b 00             	mov    (%rax),%rax
    bc57:	48 8b 00             	mov    (%rax),%rax
    bc5a:	66 89 10             	mov    %dx,(%rax)
    bc5d:	0f b7 00             	movzwl (%rax),%eax
    bc60:	98                   	cwtl   
    bc61:	be 05 00 00 00       	mov    $0x5,%esi
    bc66:	89 c7                	mov    %eax,%edi
    bc68:	e8 f6 e8 ff ff       	callq  a563 <safe_rshift_func_int16_t_s_u>
    bc6d:	0f b7 c0             	movzwl %ax,%eax
    bc70:	44 89 e6             	mov    %r12d,%esi
    bc73:	89 c7                	mov    %eax,%edi
    bc75:	e8 a5 f0 ff ff       	callq  ad1f <safe_sub_func_uint16_t_u_u>
    bc7a:	66 85 c0             	test   %ax,%ax
    bc7d:	75 0d                	jne    bc8c <func_1+0x4d7>
    bc7f:	48 8b 85 88 fa ff ff 	mov    -0x578(%rbp),%rax
    bc86:	8b 00                	mov    (%rax),%eax
    bc88:	85 c0                	test   %eax,%eax
    bc8a:	74 07                	je     bc93 <func_1+0x4de>
    bc8c:	b8 01 00 00 00       	mov    $0x1,%eax
    bc91:	eb 05                	jmp    bc98 <func_1+0x4e3>
    bc93:	b8 00 00 00 00       	mov    $0x0,%eax
    bc98:	3b 85 18 fa ff ff    	cmp    -0x5e8(%rbp),%eax
    bc9e:	0f 95 c0             	setne  %al
    bca1:	89 c2                	mov    %eax,%edx
    bca3:	0f b6 85 e0 f9 ff ff 	movzbl -0x620(%rbp),%eax
    bcaa:	31 d0                	xor    %edx,%eax
    bcac:	0f b6 c0             	movzbl %al,%eax
    bcaf:	44 89 ee             	mov    %r13d,%esi
    bcb2:	89 c7                	mov    %eax,%edi
    bcb4:	e8 d4 ef ff ff       	callq  ac8d <safe_rshift_func_uint8_t_u_s>
    bcb9:	0f be c0             	movsbl %al,%eax
    bcbc:	be 01 00 00 00       	mov    $0x1,%esi
    bcc1:	89 c7                	mov    %eax,%edi
    bcc3:	e8 26 e6 ff ff       	callq  a2ee <safe_lshift_func_int8_t_s_u>
    bcc8:	83 bd 10 fa ff ff 00 	cmpl   $0x0,-0x5f0(%rbp)
    bccf:	75 0a                	jne    bcdb <func_1+0x526>
    bcd1:	48 8b 85 40 fa ff ff 	mov    -0x5c0(%rbp),%rax
    bcd8:	48 85 c0             	test   %rax,%rax
    bcdb:	be 00 00 00 00       	mov    $0x0,%esi
    bce0:	bf 00 00 00 00       	mov    $0x0,%edi
    bce5:	e8 1b e9 ff ff       	callq  a605 <safe_sub_func_int32_t_s_s>
    bcea:	0f b6 95 e0 f9 ff ff 	movzbl -0x620(%rbp),%edx
    bcf1:	39 d0                	cmp    %edx,%eax
    bcf3:	0f 9d c0             	setge  %al
    bcf6:	0f b6 c0             	movzbl %al,%eax
    bcf9:	be 0d 00 00 00       	mov    $0xd,%esi
    bcfe:	89 c7                	mov    %eax,%edi
    bd00:	e8 75 f1 ff ff       	callq  ae7a <safe_rshift_func_uint16_t_u_u>
    bd05:	89 de                	mov    %ebx,%esi
    bd07:	bf 05 00 00 00       	mov    $0x5,%edi
    bd0c:	e8 3b ef ff ff       	callq  ac4c <safe_lshift_func_uint8_t_u_u>
    bd11:	c7 85 70 fb ff ff 73 	movl   $0x65b5c373,-0x490(%rbp)
    bd18:	c3 b5 65 
    bd1b:	c7 85 74 fb ff ff 73 	movl   $0x65b5c373,-0x48c(%rbp)
    bd22:	c3 b5 65 
    bd25:	c7 85 78 fb ff ff 73 	movl   $0x65b5c373,-0x488(%rbp)
    bd2c:	c3 b5 65 
    bd2f:	c7 85 7c fb ff ff 73 	movl   $0x65b5c373,-0x484(%rbp)
    bd36:	c3 b5 65 
    bd39:	c7 85 80 fb ff ff 73 	movl   $0x65b5c373,-0x480(%rbp)
    bd40:	c3 b5 65 
    bd43:	c7 85 84 fb ff ff 73 	movl   $0x65b5c373,-0x47c(%rbp)
    bd4a:	c3 b5 65 
    bd4d:	c7 85 88 fb ff ff 73 	movl   $0x65b5c373,-0x478(%rbp)
    bd54:	c3 b5 65 
    bd57:	c7 85 8c fb ff ff 73 	movl   $0x65b5c373,-0x474(%rbp)
    bd5e:	c3 b5 65 
    bd61:	c7 85 90 fb ff ff 73 	movl   $0x65b5c373,-0x470(%rbp)
    bd68:	c3 b5 65 
    bd6b:	c7 85 94 fb ff ff 73 	movl   $0x65b5c373,-0x46c(%rbp)
    bd72:	c3 b5 65 
    bd75:	48 8d 05 14 41 01 00 	lea    0x14114(%rip),%rax        # 1fe90 <g_496>
    bd7c:	48 89 85 a8 fa ff ff 	mov    %rax,-0x558(%rbp)
    bd83:	c7 85 20 fa ff ff 00 	movl   $0x0,-0x5e0(%rbp)
    bd8a:	00 00 00 
    bd8d:	48 8d 05 0c 4a 01 00 	lea    0x14a0c(%rip),%rax        # 207a0 <g_974+0x540>
    bd94:	48 89 85 58 fa ff ff 	mov    %rax,-0x5a8(%rbp)
    bd9b:	48 8d 05 be 1c 01 00 	lea    0x11cbe(%rip),%rax        # 1da60 <g_637+0x10>
    bda2:	48 89 85 b0 fa ff ff 	mov    %rax,-0x550(%rbp)
    bda9:	48 8d 05 88 44 01 00 	lea    0x14488(%rip),%rax        # 20238 <g_937>
    bdb0:	48 89 85 b8 fa ff ff 	mov    %rax,-0x548(%rbp)
    bdb7:	c7 85 08 fa ff ff 85 	movl   $0xac9fd785,-0x5f8(%rbp)
    bdbe:	d7 9f ac 
    bdc1:	c7 85 0c fa ff ff 1d 	movl   $0xdbc37e1d,-0x5f4(%rbp)
    bdc8:	7e c3 db 
    bdcb:	48 8d 05 c2 1c 01 00 	lea    0x11cc2(%rip),%rax        # 1da94 <g_978>
    bdd2:	48 89 85 c0 fa ff ff 	mov    %rax,-0x540(%rbp)
    bdd9:	48 c7 85 c8 fa ff ff 	movq   $0x0,-0x538(%rbp)
    bde0:	00 00 00 00 
    bde4:	48 8d 05 a5 4b 01 00 	lea    0x14ba5(%rip),%rax        # 20990 <g_1169>
    bdeb:	48 89 85 d0 fa ff ff 	mov    %rax,-0x530(%rbp)
    bdf2:	66 c7 05 ff 1a 01 00 	movw   $0x14,0x11aff(%rip)        # 1d8fa <g_159>
    bdf9:	14 00 
    bdfb:	e9 8d 0c 00 00       	jmpq   ca8d <func_1+0x12d8>
    be00:	c7 85 62 fb ff ff 16 	movl   $0x16161616,-0x49e(%rbp)
    be07:	16 16 16 
    be0a:	66 c7 85 66 fb ff ff 	movw   $0x1616,-0x49a(%rbp)
    be11:	16 16 
    be13:	c6 85 68 fb ff ff 16 	movb   $0x16,-0x498(%rbp)
    be1a:	c7 85 69 fb ff ff 34 	movl   $0xf734f734,-0x497(%rbp)
    be21:	f7 34 f7 
    be24:	66 c7 85 6d fb ff ff 	movw   $0xf734,-0x493(%rbp)
    be2b:	34 f7 
    be2d:	c6 85 6f fb ff ff 34 	movb   $0x34,-0x491(%rbp)
    be34:	c7 85 e8 f9 ff ff c1 	movl   $0x9a490dc1,-0x618(%rbp)
    be3b:	0d 49 9a 
    be3e:	48 8d 85 40 fd ff ff 	lea    -0x2c0(%rbp),%rax
    be45:	48 8d 15 f4 24 01 00 	lea    0x124f4(%rip),%rdx        # 1e340 <g_3068+0x18>
    be4c:	b9 50 00 00 00       	mov    $0x50,%ecx
    be51:	48 89 c7             	mov    %rax,%rdi
    be54:	48 89 d6             	mov    %rdx,%rsi
    be57:	f3 48 a5             	rep movsq %ds:(%rsi),%es:(%rdi)
    be5a:	c7 85 90 fc ff ff ff 	movl   $0xffffffff,-0x370(%rbp)
    be61:	ff ff ff 
    be64:	c7 85 94 fc ff ff 11 	movl   $0xfde91e11,-0x36c(%rbp)
    be6b:	1e e9 fd 
    be6e:	c7 85 98 fc ff ff ff 	movl   $0xffffffff,-0x368(%rbp)
    be75:	ff ff ff 
    be78:	c7 85 9c fc ff ff a4 	movl   $0x433141a4,-0x364(%rbp)
    be7f:	41 31 43 
    be82:	c7 85 a0 fc ff ff 07 	movl   $0x7,-0x360(%rbp)
    be89:	00 00 00 
    be8c:	c7 85 a4 fc ff ff 09 	movl   $0x9,-0x35c(%rbp)
    be93:	00 00 00 
    be96:	c7 85 a8 fc ff ff d6 	movl   $0x9fed3ed6,-0x358(%rbp)
    be9d:	3e ed 9f 
    bea0:	c7 85 ac fc ff ff ff 	movl   $0xffffffff,-0x354(%rbp)
    bea7:	ff ff ff 
    beaa:	c7 85 b0 fc ff ff 00 	movl   $0x0,-0x350(%rbp)
    beb1:	00 00 00 
    beb4:	c7 85 b4 fc ff ff a2 	movl   $0xd54a54a2,-0x34c(%rbp)
    bebb:	54 4a d5 
    bebe:	c7 85 b8 fc ff ff ff 	movl   $0xffffffff,-0x348(%rbp)
    bec5:	ff ff ff 
    bec8:	c7 85 bc fc ff ff a2 	movl   $0xd54a54a2,-0x344(%rbp)
    becf:	54 4a d5 
    bed2:	c7 85 c0 fc ff ff 00 	movl   $0x0,-0x340(%rbp)
    bed9:	00 00 00 
    bedc:	c7 85 c4 fc ff ff ff 	movl   $0xffffffff,-0x33c(%rbp)
    bee3:	ff ff ff 
    bee6:	c7 85 c8 fc ff ff d6 	movl   $0x9fed3ed6,-0x338(%rbp)
    beed:	3e ed 9f 
    bef0:	c7 85 cc fc ff ff 09 	movl   $0x9,-0x334(%rbp)
    bef7:	00 00 00 
    befa:	c7 85 d0 fc ff ff 07 	movl   $0x7,-0x330(%rbp)
    bf01:	00 00 00 
    bf04:	c7 85 d4 fc ff ff a4 	movl   $0x433141a4,-0x32c(%rbp)
    bf0b:	41 31 43 
    bf0e:	c7 85 d8 fc ff ff ff 	movl   $0xffffffff,-0x328(%rbp)
    bf15:	ff ff ff 
    bf18:	c7 85 dc fc ff ff 11 	movl   $0xfde91e11,-0x324(%rbp)
    bf1f:	1e e9 fd 
    bf22:	c7 85 e0 fc ff ff ff 	movl   $0xffffffff,-0x320(%rbp)
    bf29:	ff ff ff 
    bf2c:	c7 85 e4 fc ff ff ff 	movl   $0xffffffff,-0x31c(%rbp)
    bf33:	ff ff ff 
    bf36:	c7 85 e8 fc ff ff ff 	movl   $0xffffffff,-0x318(%rbp)
    bf3d:	ff ff ff 
    bf40:	c7 85 ec fc ff ff ff 	movl   $0xffffffff,-0x314(%rbp)
    bf47:	ff ff ff 
    bf4a:	c7 85 f0 fc ff ff ff 	movl   $0xffffffff,-0x310(%rbp)
    bf51:	ff ff ff 
    bf54:	c7 85 f4 fc ff ff ff 	movl   $0xffffffff,-0x30c(%rbp)
    bf5b:	ff ff ff 
    bf5e:	c7 85 f8 fc ff ff ff 	movl   $0xffffffff,-0x308(%rbp)
    bf65:	ff ff ff 
    bf68:	c7 85 fc fc ff ff d6 	movl   $0x9fed3ed6,-0x304(%rbp)
    bf6f:	3e ed 9f 
    bf72:	c7 85 00 fd ff ff 00 	movl   $0x0,-0x300(%rbp)
    bf79:	00 00 00 
    bf7c:	c7 85 04 fd ff ff ff 	movl   $0xffffffff,-0x2fc(%rbp)
    bf83:	ff ff ff 
    bf86:	c7 85 08 fd ff ff 07 	movl   $0x7,-0x2f8(%rbp)
    bf8d:	00 00 00 
    bf90:	c7 85 0c fd ff ff d6 	movl   $0x9fed3ed6,-0x2f4(%rbp)
    bf97:	3e ed 9f 
    bf9a:	c7 85 10 fd ff ff 00 	movl   $0x0,-0x2f0(%rbp)
    bfa1:	00 00 00 
    bfa4:	c7 85 14 fd ff ff ff 	movl   $0xffffffff,-0x2ec(%rbp)
    bfab:	ff ff ff 
    bfae:	c7 85 18 fd ff ff ff 	movl   $0xffffffff,-0x2e8(%rbp)
    bfb5:	ff ff ff 
    bfb8:	c7 85 1c fd ff ff a4 	movl   $0x433141a4,-0x2e4(%rbp)
    bfbf:	41 31 43 
    bfc2:	c7 85 20 fd ff ff 00 	movl   $0x0,-0x2e0(%rbp)
    bfc9:	00 00 00 
    bfcc:	c7 85 24 fd ff ff a2 	movl   $0xd54a54a2,-0x2dc(%rbp)
    bfd3:	54 4a d5 
    bfd6:	c7 85 28 fd ff ff 00 	movl   $0x0,-0x2d8(%rbp)
    bfdd:	00 00 00 
    bfe0:	c7 85 2c fd ff ff a4 	movl   $0x433141a4,-0x2d4(%rbp)
    bfe7:	41 31 43 
    bfea:	c7 85 30 fd ff ff 11 	movl   $0xfde91e11,-0x2d0(%rbp)
    bff1:	1e e9 fd 
    bff4:	c7 85 34 fd ff ff 00 	movl   $0x0,-0x2cc(%rbp)
    bffb:	00 00 00 
    bffe:	66 c7 85 e6 f9 ff ff 	movw   $0x4d78,-0x61a(%rbp)
    c005:	78 4d 
    c007:	48 8d 05 ea 18 01 00 	lea    0x118ea(%rip),%rax        # 1d8f8 <g_153>
    c00e:	48 89 85 d8 fa ff ff 	mov    %rax,-0x528(%rbp)
    c015:	c7 85 00 fa ff ff 6d 	movl   $0x4e33b46d,-0x600(%rbp)
    c01c:	b4 33 4e 
    c01f:	0f b6 85 69 fb ff ff 	movzbl -0x497(%rbp),%eax
    c026:	0f b6 d8             	movzbl %al,%ebx
    c029:	48 83 bd 68 fa ff ff 	cmpq   $0x0,-0x598(%rbp)
    c030:	00 
    c031:	48 8b 85 90 fa ff ff 	mov    -0x570(%rbp),%rax
    c038:	c7 00 01 00 00 00    	movl   $0x1,(%rax)
    c03e:	48 8b 85 90 fa ff ff 	mov    -0x570(%rbp),%rax
    c045:	8b 10                	mov    (%rax),%edx
    c047:	0f b6 85 6f fb ff ff 	movzbl -0x491(%rbp),%eax
    c04e:	0f b6 c0             	movzbl %al,%eax
    c051:	39 c2                	cmp    %eax,%edx
    c053:	8b 85 88 fb ff ff    	mov    -0x478(%rbp),%eax
    c059:	44 0f b6 e0          	movzbl %al,%r12d
    c05d:	8b 85 94 fb ff ff    	mov    -0x46c(%rbp),%eax
    c063:	89 c2                	mov    %eax,%edx
    c065:	48 8b 85 88 fa ff ff 	mov    -0x578(%rbp),%rax
    c06c:	8b 00                	mov    (%rax),%eax
    c06e:	0f b6 c0             	movzbl %al,%eax
    c071:	89 d6                	mov    %edx,%esi
    c073:	89 c7                	mov    %eax,%edi
    c075:	e8 d2 eb ff ff       	callq  ac4c <safe_lshift_func_uint8_t_u_u>
    c07a:	0f b6 c0             	movzbl %al,%eax
    c07d:	89 85 e8 f9 ff ff    	mov    %eax,-0x618(%rbp)
    c083:	48 83 bd a8 fa ff ff 	cmpq   $0x0,-0x558(%rbp)
    c08a:	00 
    c08b:	74 09                	je     c096 <func_1+0x8e1>
    c08d:	48 c7 c2 fa ff ff ff 	mov    $0xfffffffffffffffa,%rdx
    c094:	eb 07                	jmp    c09d <func_1+0x8e8>
    c096:	48 c7 c2 fb ff ff ff 	mov    $0xfffffffffffffffb,%rdx
    c09d:	8b 85 88 fb ff ff    	mov    -0x478(%rbp),%eax
    c0a3:	48 98                	cltq   
    c0a5:	48 39 c2             	cmp    %rax,%rdx
    c0a8:	0f 9f c0             	setg   %al
    c0ab:	0f b6 c0             	movzbl %al,%eax
    c0ae:	44 89 e6             	mov    %r12d,%esi
    c0b1:	89 c7                	mov    %eax,%edi
    c0b3:	e8 a2 ea ff ff       	callq  ab5a <safe_add_func_uint8_t_u_u>
    c0b8:	8b 95 20 fd ff ff    	mov    -0x2e0(%rbp),%edx
    c0be:	0f b6 c0             	movzbl %al,%eax
    c0c1:	21 d0                	and    %edx,%eax
    c0c3:	89 85 20 fd ff ff    	mov    %eax,-0x2e0(%rbp)
    c0c9:	8b 85 20 fd ff ff    	mov    -0x2e0(%rbp),%eax
    c0cf:	0f b7 c0             	movzwl %ax,%eax
    c0d2:	83 e0 06             	and    $0x6,%eax
    c0d5:	be 0f 00 00 00       	mov    $0xf,%esi
    c0da:	89 c7                	mov    %eax,%edi
    c0dc:	e8 67 ed ff ff       	callq  ae48 <safe_rshift_func_uint16_t_u_s>
    c0e1:	8b 85 20 fa ff ff    	mov    -0x5e0(%rbp),%eax
    c0e7:	0f be c0             	movsbl %al,%eax
    c0ea:	89 c7                	mov    %eax,%edi
    c0ec:	e8 ce e0 ff ff       	callq  a1bf <safe_unary_minus_func_int8_t_s>
    c0f1:	48 8b 05 60 3d 01 00 	mov    0x13d60(%rip),%rax        # 1fe58 <g_420>
    c0f8:	0f b6 00             	movzbl (%rax),%eax
    c0fb:	0f b6 c0             	movzbl %al,%eax
    c0fe:	89 de                	mov    %ebx,%esi
    c100:	89 c7                	mov    %eax,%edi
    c102:	e8 fe ea ff ff       	callq  ac05 <safe_lshift_func_uint8_t_u_s>
    c107:	0f be c0             	movsbl %al,%eax
    c10a:	be 06 00 00 00       	mov    $0x6,%esi
    c10f:	89 c7                	mov    %eax,%edi
    c111:	e8 56 e2 ff ff       	callq  a36c <safe_rshift_func_int8_t_s_u>
    c116:	84 c0                	test   %al,%al
    c118:	74 07                	je     c121 <func_1+0x96c>
    c11a:	b8 01 00 00 00       	mov    $0x1,%eax
    c11f:	eb 05                	jmp    c126 <func_1+0x971>
    c121:	b8 00 00 00 00       	mov    $0x0,%eax
    c126:	0f b7 d0             	movzwl %ax,%edx
    c129:	48 8b 05 b0 5e 01 00 	mov    0x15eb0(%rip),%rax        # 21fe0 <g_2676>
    c130:	0f b7 00             	movzwl (%rax),%eax
    c133:	0f b7 c0             	movzwl %ax,%eax
    c136:	89 d6                	mov    %edx,%esi
    c138:	89 c7                	mov    %eax,%edi
    c13a:	e8 c0 eb ff ff       	callq  acff <safe_add_func_uint16_t_u_u>
    c13f:	0f b7 c0             	movzwl %ax,%eax
    c142:	be 04 00 00 00       	mov    $0x4,%esi
    c147:	89 c7                	mov    %eax,%edi
    c149:	e8 2c ed ff ff       	callq  ae7a <safe_rshift_func_uint16_t_u_u>
    c14e:	48 c7 85 e0 fa ff ff 	movq   $0x0,-0x520(%rbp)
    c155:	00 00 00 00 
    c159:	c7 85 24 fa ff ff fb 	movl   $0xfffffffb,-0x5dc(%rbp)
    c160:	ff ff ff 
    c163:	48 8d 85 90 fc ff ff 	lea    -0x370(%rbp),%rax
    c16a:	48 83 c0 44          	add    $0x44,%rax
    c16e:	48 89 85 e8 fa ff ff 	mov    %rax,-0x518(%rbp)
    c175:	48 c7 85 f0 fa ff ff 	movq   $0x0,-0x510(%rbp)
    c17c:	00 00 00 00 
    c180:	48 8d 05 b5 0e 01 00 	lea    0x10eb5(%rip),%rax        # 1d03c <g_99>
    c187:	48 89 85 f8 fa ff ff 	mov    %rax,-0x508(%rbp)
    c18e:	c7 85 ec f9 ff ff 00 	movl   $0x0,-0x614(%rbp)
    c195:	00 00 00 
    c198:	eb 1e                	jmp    c1b8 <func_1+0xa03>
    c19a:	8b 85 ec f9 ff ff    	mov    -0x614(%rbp),%eax
    c1a0:	48 98                	cltq   
    c1a2:	48 8d 95 e8 f9 ff ff 	lea    -0x618(%rbp),%rdx
    c1a9:	48 89 94 c5 a0 fb ff 	mov    %rdx,-0x460(%rbp,%rax,8)
    c1b0:	ff 
    c1b1:	83 85 ec f9 ff ff 01 	addl   $0x1,-0x614(%rbp)
    c1b8:	83 bd ec f9 ff ff 04 	cmpl   $0x4,-0x614(%rbp)
    c1bf:	7e d9                	jle    c19a <func_1+0x9e5>
    c1c1:	48 8b 05 e8 47 01 00 	mov    0x147e8(%rip),%rax        # 209b0 <g_1538>
    c1c8:	48 8b 00             	mov    (%rax),%rax
    c1cb:	48 8b 05 46 57 01 00 	mov    0x15746(%rip),%rax        # 21918 <g_1749>
    c1d2:	48 8b 95 e0 fa ff ff 	mov    -0x520(%rbp),%rdx
    c1d9:	48 89 10             	mov    %rdx,(%rax)
    c1dc:	48 8b 10             	mov    (%rax),%rdx
    c1df:	48 8b 85 58 fa ff ff 	mov    -0x5a8(%rbp),%rax
    c1e6:	48 39 c2             	cmp    %rax,%rdx
    c1e9:	0f 84 4e 01 00 00    	je     c33d <func_1+0xb88>
    c1ef:	48 c7 85 00 fb ff ff 	movq   $0xffffffffffffffff,-0x500(%rbp)
    c1f6:	ff ff ff ff 
    c1fa:	48 8d 05 e7 3f 01 00 	lea    0x13fe7(%rip),%rax        # 201e8 <g_790+0x108>
    c201:	48 89 85 08 fb ff ff 	mov    %rax,-0x4f8(%rbp)
    c208:	48 8b 05 41 3c 01 00 	mov    0x13c41(%rip),%rax        # 1fe50 <g_56>
    c20f:	0f b6 95 e1 f9 ff ff 	movzbl -0x61f(%rbp),%edx
    c216:	66 89 10             	mov    %dx,(%rax)
    c219:	0f b7 00             	movzwl (%rax),%eax
    c21c:	0f bf d8             	movswl %ax,%ebx
    c21f:	48 8d 05 36 18 01 00 	lea    0x11836(%rip),%rax        # 1da5c <g_637+0xc>
    c226:	48 39 85 b0 fa ff ff 	cmp    %rax,-0x550(%rbp)
    c22d:	0f 95 c0             	setne  %al
    c230:	44 0f b6 e0          	movzbl %al,%r12d
    c234:	48 8b 85 00 fb ff ff 	mov    -0x500(%rbp),%rax
    c23b:	48 be 44 11 b9 47 89 	movabs $0x5bd23b8947b91144,%rsi
    c242:	3b d2 5b 
    c245:	48 89 c7             	mov    %rax,%rdi
    c248:	e8 62 ee ff ff       	callq  b0af <safe_div_func_uint64_t_u_u>
    c24d:	25 81 b0 5c c0       	and    $0xc05cb081,%eax
    c252:	89 c2                	mov    %eax,%edx
    c254:	48 8b 85 88 fa ff ff 	mov    -0x578(%rbp),%rax
    c25b:	89 10                	mov    %edx,(%rax)
    c25d:	48 8b 85 88 fa ff ff 	mov    -0x578(%rbp),%rax
    c264:	8b 00                	mov    (%rax),%eax
    c266:	41 39 c4             	cmp    %eax,%r12d
    c269:	75 0c                	jne    c277 <func_1+0xac2>
    c26b:	48 8b 85 40 fa ff ff 	mov    -0x5c0(%rbp),%rax
    c272:	48 85 c0             	test   %rax,%rax
    c275:	74 07                	je     c27e <func_1+0xac9>
    c277:	b8 01 00 00 00       	mov    $0x1,%eax
    c27c:	eb 05                	jmp    c283 <func_1+0xace>
    c27e:	b8 00 00 00 00       	mov    $0x0,%eax
    c283:	09 d8                	or     %ebx,%eax
    c285:	39 85 10 fa ff ff    	cmp    %eax,-0x5f0(%rbp)
    c28b:	0f 95 c0             	setne  %al
    c28e:	0f b6 c0             	movzbl %al,%eax
    c291:	39 85 24 fa ff ff    	cmp    %eax,-0x5dc(%rbp)
    c297:	75 07                	jne    c2a0 <func_1+0xaeb>
    c299:	b8 6f e8 04 0d       	mov    $0xd04e86f,%eax
    c29e:	eb 05                	jmp    c2a5 <func_1+0xaf0>
    c2a0:	b8 6e e8 04 0d       	mov    $0xd04e86e,%eax
    c2a5:	48 89 c6             	mov    %rax,%rsi
    c2a8:	48 bf 11 be f1 22 90 	movabs $0xd67b8b9022f1be11,%rdi
    c2af:	8b 7b d6 
    c2b2:	e8 fd e6 ff ff       	callq  a9b4 <safe_mod_func_int64_t_s_s>
    c2b7:	ba cc 3d c9 a4       	mov    $0xa4c93dcc,%edx
    c2bc:	8b 85 54 fb ff ff    	mov    -0x4ac(%rbp),%eax
    c2c2:	21 d0                	and    %edx,%eax
    c2c4:	89 85 54 fb ff ff    	mov    %eax,-0x4ac(%rbp)
    c2ca:	80 bd e1 f9 ff ff 00 	cmpb   $0x0,-0x61f(%rbp)
    c2d1:	74 05                	je     c2d8 <func_1+0xb23>
    c2d3:	e9 1a fb ff ff       	jmpq   bdf2 <func_1+0x63d>
    c2d8:	48 83 bd b8 fa ff ff 	cmpq   $0x0,-0x548(%rbp)
    c2df:	00 
    c2e0:	74 07                	je     c2e9 <func_1+0xb34>
    c2e2:	ba cd 00 00 00       	mov    $0xcd,%edx
    c2e7:	eb 05                	jmp    c2ee <func_1+0xb39>
    c2e9:	ba cc 00 00 00       	mov    $0xcc,%edx
    c2ee:	48 83 bd 60 fa ff ff 	cmpq   $0x0,-0x5a0(%rbp)
    c2f5:	00 
    c2f6:	0f 95 c0             	setne  %al
    c2f9:	0f b6 c0             	movzbl %al,%eax
    c2fc:	48 39 c2             	cmp    %rax,%rdx
    c2ff:	0f 9c c0             	setl   %al
    c302:	0f b6 c0             	movzbl %al,%eax
    c305:	be 9d 31 ff ff       	mov    $0xffff319d,%esi
    c30a:	89 c7                	mov    %eax,%edi
    c30c:	e8 a7 eb ff ff       	callq  aeb8 <safe_add_func_uint32_t_u_u>
    c311:	66 83 bd e6 f9 ff ff 	cmpw   $0xfff8,-0x61a(%rbp)
    c318:	f8 
    c319:	0f 9d c0             	setge  %al
    c31c:	0f b6 d0             	movzbl %al,%edx
    c31f:	48 83 bd 08 fb ff ff 	cmpq   $0x0,-0x4f8(%rbp)
    c326:	00 
    c327:	0f 95 c0             	setne  %al
    c32a:	0f b6 c0             	movzbl %al,%eax
    c32d:	31 c2                	xor    %eax,%edx
    c32f:	48 8b 85 88 fa ff ff 	mov    -0x578(%rbp),%rax
    c336:	89 10                	mov    %edx,(%rax)
    c338:	e9 f1 01 00 00       	jmpq   c52e <func_1+0xd79>
    c33d:	48 8d 85 58 fa ff ff 	lea    -0x5a8(%rbp),%rax
    c344:	48 89 85 d0 fb ff ff 	mov    %rax,-0x430(%rbp)
    c34b:	48 8d 85 58 fa ff ff 	lea    -0x5a8(%rbp),%rax
    c352:	48 89 85 d8 fb ff ff 	mov    %rax,-0x428(%rbp)
    c359:	48 8d 85 58 fa ff ff 	lea    -0x5a8(%rbp),%rax
    c360:	48 89 85 e0 fb ff ff 	mov    %rax,-0x420(%rbp)
    c367:	48 8d 85 58 fa ff ff 	lea    -0x5a8(%rbp),%rax
    c36e:	48 89 85 e8 fb ff ff 	mov    %rax,-0x418(%rbp)
    c375:	48 8d 85 58 fa ff ff 	lea    -0x5a8(%rbp),%rax
    c37c:	48 89 85 f0 fb ff ff 	mov    %rax,-0x410(%rbp)
    c383:	48 8d 85 58 fa ff ff 	lea    -0x5a8(%rbp),%rax
    c38a:	48 89 85 f8 fb ff ff 	mov    %rax,-0x408(%rbp)
    c391:	48 8d 85 58 fa ff ff 	lea    -0x5a8(%rbp),%rax
    c398:	48 89 85 00 fc ff ff 	mov    %rax,-0x400(%rbp)
    c39f:	48 8b 05 aa 3e 01 00 	mov    0x13eaa(%rip),%rax        # 20250 <g_954>
    c3a6:	48 8b 00             	mov    (%rax),%rax
    c3a9:	48 8b 00             	mov    (%rax),%rax
    c3ac:	0f b6 00             	movzbl (%rax),%eax
    c3af:	0f b6 d8             	movzbl %al,%ebx
    c3b2:	48 8b 85 88 fa ff ff 	mov    -0x578(%rbp),%rax
    c3b9:	8b 00                	mov    (%rax),%eax
    c3bb:	44 0f be e0          	movsbl %al,%r12d
    c3bf:	8b 85 50 fc ff ff    	mov    -0x3b0(%rbp),%eax
    c3c5:	83 e8 01             	sub    $0x1,%eax
    c3c8:	89 85 50 fc ff ff    	mov    %eax,-0x3b0(%rbp)
    c3ce:	48 8b 05 db 45 01 00 	mov    0x145db(%rip),%rax        # 209b0 <g_1538>
    c3d5:	48 8b 00             	mov    (%rax),%rax
    c3d8:	0f b6 00             	movzbl (%rax),%eax
    c3db:	44 0f b6 f0          	movzbl %al,%r14d
    c3df:	48 8b 85 88 fa ff ff 	mov    -0x578(%rbp),%rax
    c3e6:	8b 00                	mov    (%rax),%eax
    c3e8:	41 89 c7             	mov    %eax,%r15d
    c3eb:	48 8b 05 66 3a 01 00 	mov    0x13a66(%rip),%rax        # 1fe58 <g_420>
    c3f2:	0f b6 00             	movzbl (%rax),%eax
    c3f5:	88 85 df f9 ff ff    	mov    %al,-0x621(%rbp)
    c3fb:	48 8b 05 56 3a 01 00 	mov    0x13a56(%rip),%rax        # 1fe58 <g_420>
    c402:	0f b6 00             	movzbl (%rax),%eax
    c405:	44 0f b6 e8          	movzbl %al,%r13d
    c409:	48 8b 85 e8 fb ff ff 	mov    -0x418(%rbp),%rax
    c410:	48 8d 15 09 45 01 00 	lea    0x14509(%rip),%rdx        # 20920 <g_973>
    c417:	48 39 d0             	cmp    %rdx,%rax
    c41a:	c7 85 d8 fc ff ff 00 	movl   $0x0,-0x328(%rbp)
    c421:	00 00 00 
    c424:	8b 85 d8 fc ff ff    	mov    -0x328(%rbp),%eax
    c42a:	0f b6 c0             	movzbl %al,%eax
    c42d:	be 01 00 00 00       	mov    $0x1,%esi
    c432:	89 c7                	mov    %eax,%edi
    c434:	e8 85 e8 ff ff       	callq  acbe <safe_rshift_func_uint8_t_u_u>
    c439:	ba 01 00 00 00       	mov    $0x1,%edx
    c43e:	8b 85 5c fb ff ff    	mov    -0x4a4(%rbp),%eax
    c444:	21 d0                	and    %edx,%eax
    c446:	89 85 5c fb ff ff    	mov    %eax,-0x4a4(%rbp)
    c44c:	8b 85 5c fb ff ff    	mov    -0x4a4(%rbp),%eax
    c452:	0f b6 c0             	movzbl %al,%eax
    c455:	44 89 ee             	mov    %r13d,%esi
    c458:	89 c7                	mov    %eax,%edi
    c45a:	e8 19 e7 ff ff       	callq  ab78 <safe_sub_func_uint8_t_u_u>
    c45f:	32 85 df f9 ff ff    	xor    -0x621(%rbp),%al
    c465:	0f b6 c0             	movzbl %al,%eax
    c468:	44 89 fe             	mov    %r15d,%esi
    c46b:	89 c7                	mov    %eax,%edi
    c46d:	e8 4c e8 ff ff       	callq  acbe <safe_rshift_func_uint8_t_u_u>
    c472:	0f b6 c0             	movzbl %al,%eax
    c475:	be e4 e9 f6 26       	mov    $0x26f6e9e4,%esi
    c47a:	89 c7                	mov    %eax,%edi
    c47c:	e8 37 ea ff ff       	callq  aeb8 <safe_add_func_uint32_t_u_u>
    c481:	39 85 20 fa ff ff    	cmp    %eax,-0x5e0(%rbp)
    c487:	0f 97 c0             	seta   %al
    c48a:	0f b6 c0             	movzbl %al,%eax
    c48d:	41 39 c6             	cmp    %eax,%r14d
    c490:	0f 9e c0             	setle  %al
    c493:	0f b6 c0             	movzbl %al,%eax
    c496:	89 c6                	mov    %eax,%esi
    c498:	bf 00 00 00 00       	mov    $0x0,%edi
    c49d:	e8 7d e8 ff ff       	callq  ad1f <safe_sub_func_uint16_t_u_u>
    c4a2:	0f bf d0             	movswl %ax,%edx
    c4a5:	48 8b 05 dc 5a 01 00 	mov    0x15adc(%rip),%rax        # 21f88 <g_2304>
    c4ac:	48 8b 00             	mov    (%rax),%rax
    c4af:	48 85 c0             	test   %rax,%rax
    c4b2:	0f 95 c0             	setne  %al
    c4b5:	0f b6 c0             	movzbl %al,%eax
    c4b8:	89 d6                	mov    %edx,%esi
    c4ba:	89 c7                	mov    %eax,%edi
    c4bc:	e8 55 df ff ff       	callq  a416 <safe_mod_func_int16_t_s_s>
    c4c1:	44 89 e6             	mov    %r12d,%esi
    c4c4:	bf 08 00 00 00       	mov    $0x8,%edi
    c4c9:	e8 63 dd ff ff       	callq  a231 <safe_mod_func_int8_t_s_s>
    c4ce:	0f be c0             	movsbl %al,%eax
    c4d1:	89 85 10 fa ff ff    	mov    %eax,-0x5f0(%rbp)
    c4d7:	81 bd 10 fa ff ff ee 	cmpl   $0x67ee,-0x5f0(%rbp)
    c4de:	67 00 00 
    c4e1:	48 8b 85 88 fa ff ff 	mov    -0x578(%rbp),%rax
    c4e8:	8b 00                	mov    (%rax),%eax
    c4ea:	83 f8 01             	cmp    $0x1,%eax
    c4ed:	0f 9e c0             	setle  %al
    c4f0:	0f b6 d0             	movzbl %al,%edx
    c4f3:	48 8b 05 5e 39 01 00 	mov    0x1395e(%rip),%rax        # 1fe58 <g_420>
    c4fa:	0f b6 00             	movzbl (%rax),%eax
    c4fd:	0f b6 c0             	movzbl %al,%eax
    c500:	39 c2                	cmp    %eax,%edx
    c502:	0f 95 c0             	setne  %al
    c505:	0f b6 c0             	movzbl %al,%eax
    c508:	89 de                	mov    %ebx,%esi
    c50a:	89 c7                	mov    %eax,%edi
    c50c:	e8 dd dd ff ff       	callq  a2ee <safe_lshift_func_int8_t_s_u>
    c511:	66 98                	cbtw   
    c513:	66 39 85 e6 f9 ff ff 	cmp    %ax,-0x61a(%rbp)
    c51a:	0f 9c c0             	setl   %al
    c51d:	0f b6 d0             	movzbl %al,%edx
    c520:	8b 85 e8 f9 ff ff    	mov    -0x618(%rbp),%eax
    c526:	31 d0                	xor    %edx,%eax
    c528:	89 85 e8 f9 ff ff    	mov    %eax,-0x618(%rbp)
    c52e:	48 8b 85 88 fa ff ff 	mov    -0x578(%rbp),%rax
    c535:	8b 00                	mov    (%rax),%eax
    c537:	85 c0                	test   %eax,%eax
    c539:	0f 85 3d 05 00 00    	jne    ca7c <func_1+0x12c7>
    c53f:	83 85 08 fa ff ff 01 	addl   $0x1,-0x5f8(%rbp)
    c546:	c7 05 ec 0a 01 00 00 	movl   $0x0,0x10aec(%rip)        # 1d03c <g_99>
    c54d:	00 00 00 
    c550:	e9 b2 04 00 00       	jmpq   ca07 <func_1+0x1252>
    c555:	c7 85 28 fa ff ff 01 	movl   $0x1,-0x5d8(%rbp)
    c55c:	00 00 00 
    c55f:	48 8d 05 40 14 01 00 	lea    0x11440(%rip),%rax        # 1d9a6 <g_503>
    c566:	48 89 85 10 fb ff ff 	mov    %rax,-0x4f0(%rbp)
    c56d:	48 8d 05 34 1c 01 00 	lea    0x11c34(%rip),%rax        # 1e1a8 <g_2498>
    c574:	48 89 85 18 fb ff ff 	mov    %rax,-0x4e8(%rbp)
    c57b:	48 c7 05 22 1c 01 00 	movq   $0x1,0x11c22(%rip)        # 1e1a8 <g_2498>
    c582:	01 00 00 00 
    c586:	e9 1c 02 00 00       	jmpq   c7a7 <func_1+0xff2>
    c58b:	48 8d 05 5e 15 01 00 	lea    0x1155e(%rip),%rax        # 1daf0 <g_1488>
    c592:	48 89 85 20 fb ff ff 	mov    %rax,-0x4e0(%rbp)
    c599:	c7 85 f0 f9 ff ff 00 	movl   $0x0,-0x610(%rbp)
    c5a0:	00 00 00 
    c5a3:	eb 14                	jmp    c5b9 <func_1+0xe04>
    c5a5:	8b 85 f0 f9 ff ff    	mov    -0x610(%rbp),%eax
    c5ab:	48 98                	cltq   
    c5ad:	c6 44 05 c4 09       	movb   $0x9,-0x3c(%rbp,%rax,1)
    c5b2:	83 85 f0 f9 ff ff 01 	addl   $0x1,-0x610(%rbp)
    c5b9:	83 bd f0 f9 ff ff 03 	cmpl   $0x3,-0x610(%rbp)
    c5c0:	7e e3                	jle    c5a5 <func_1+0xdf0>
    c5c2:	48 8b 85 88 fa ff ff 	mov    -0x578(%rbp),%rax
    c5c9:	8b 00                	mov    (%rax),%eax
    c5cb:	31 85 0c fa ff ff    	xor    %eax,-0x5f4(%rbp)
    c5d1:	8b 85 0c fa ff ff    	mov    -0x5f4(%rbp),%eax
    c5d7:	0f be d0             	movsbl %al,%edx
    c5da:	0f b6 85 e0 f9 ff ff 	movzbl -0x620(%rbp),%eax
    c5e1:	0f be c0             	movsbl %al,%eax
    c5e4:	89 d6                	mov    %edx,%esi
    c5e6:	89 c7                	mov    %eax,%edi
    c5e8:	e8 7d dc ff ff       	callq  a26a <safe_div_func_int8_t_s_s>
    c5ed:	48 8b 05 c4 43 01 00 	mov    0x143c4(%rip),%rax        # 209b8 <g_1537>
    c5f4:	48 8b 00             	mov    (%rax),%rax
    c5f7:	48 8b 00             	mov    (%rax),%rax
    c5fa:	0f b6 00             	movzbl (%rax),%eax
    c5fd:	0f b6 d8             	movzbl %al,%ebx
    c600:	0f b6 85 6f fb ff ff 	movzbl -0x491(%rbp),%eax
    c607:	44 0f b6 e0          	movzbl %al,%r12d
    c60b:	8b 05 2b 0a 01 00    	mov    0x10a2b(%rip),%eax        # 1d03c <g_99>
    c611:	48 8b 15 90 1b 01 00 	mov    0x11b90(%rip),%rdx        # 1e1a8 <g_2498>
    c618:	48 83 c2 04          	add    $0x4,%rdx
    c61c:	48 98                	cltq   
    c61e:	48 c1 e0 03          	shl    $0x3,%rax
    c622:	48 01 d0             	add    %rdx,%rax
    c625:	8b 84 85 10 fc ff ff 	mov    -0x3f0(%rbp,%rax,4),%eax
    c62c:	41 89 c5             	mov    %eax,%r13d
    c62f:	48 8b 05 b2 56 01 00 	mov    0x156b2(%rip),%rax        # 21ce8 <g_1994>
    c636:	48 8b 00             	mov    (%rax),%rax
    c639:	48 8b 00             	mov    (%rax),%rax
    c63c:	0f b7 00             	movzwl (%rax),%eax
    c63f:	0f bf d0             	movswl %ax,%edx
    c642:	48 8b 85 88 fa ff ff 	mov    -0x578(%rbp),%rax
    c649:	8b 00                	mov    (%rax),%eax
    c64b:	98                   	cwtl   
    c64c:	89 d6                	mov    %edx,%esi
    c64e:	89 c7                	mov    %eax,%edi
    c650:	e8 d5 de ff ff       	callq  a52a <safe_rshift_func_int16_t_s_s>
    c655:	48 0f bf c0          	movswq %ax,%rax
    c659:	4c 89 ee             	mov    %r13,%rsi
    c65c:	48 89 c7             	mov    %rax,%rdi
    c65f:	e8 e7 e9 ff ff       	callq  b04b <safe_sub_func_uint64_t_u_u>
    c664:	0f b6 c0             	movzbl %al,%eax
    c667:	44 89 e6             	mov    %r12d,%esi
    c66a:	89 c7                	mov    %eax,%edi
    c66c:	e8 07 e5 ff ff       	callq  ab78 <safe_sub_func_uint8_t_u_u>
    c671:	0f b6 c0             	movzbl %al,%eax
    c674:	89 de                	mov    %ebx,%esi
    c676:	89 c7                	mov    %eax,%edi
    c678:	e8 fb e4 ff ff       	callq  ab78 <safe_sub_func_uint8_t_u_u>
    c67d:	8b 85 28 fa ff ff    	mov    -0x5d8(%rbp),%eax
    c683:	0f b6 c0             	movzbl %al,%eax
    c686:	89 c6                	mov    %eax,%esi
    c688:	bf 01 00 00 00       	mov    $0x1,%edi
    c68d:	e8 01 e5 ff ff       	callq  ab93 <safe_mul_func_uint8_t_u_u>
    c692:	0f b6 c0             	movzbl %al,%eax
    c695:	39 85 28 fa ff ff    	cmp    %eax,-0x5d8(%rbp)
    c69b:	73 07                	jae    c6a4 <func_1+0xeef>
    c69d:	b8 01 00 00 00       	mov    $0x1,%eax
    c6a2:	eb 05                	jmp    c6a9 <func_1+0xef4>
    c6a4:	b8 00 00 00 00       	mov    $0x0,%eax
    c6a9:	0f b6 d8             	movzbl %al,%ebx
    c6ac:	48 8b 85 80 fa ff ff 	mov    -0x580(%rbp),%rax
    c6b3:	48 8b 00             	mov    (%rax),%rax
    c6b6:	48 8d 48 01          	lea    0x1(%rax),%rcx
    c6ba:	48 8b 95 80 fa ff ff 	mov    -0x580(%rbp),%rdx
    c6c1:	48 89 0a             	mov    %rcx,(%rdx)
    c6c4:	48 8b 95 20 fb ff ff 	mov    -0x4e0(%rbp),%rdx
    c6cb:	48 89 02             	mov    %rax,(%rdx)
    c6ce:	48 8b 85 20 fb ff ff 	mov    -0x4e0(%rbp),%rax
    c6d5:	4c 8b 20             	mov    (%rax),%r12
    c6d8:	8b 85 94 fb ff ff    	mov    -0x46c(%rbp),%eax
    c6de:	89 c6                	mov    %eax,%esi
    c6e0:	bf 01 00 00 00       	mov    $0x1,%edi
    c6e5:	e8 40 de ff ff       	callq  a52a <safe_rshift_func_int16_t_s_s>
    c6ea:	48 0f bf c0          	movswq %ax,%rax
    c6ee:	49 39 c4             	cmp    %rax,%r12
    c6f1:	0f 95 c0             	setne  %al
    c6f4:	0f b6 c0             	movzbl %al,%eax
    c6f7:	89 de                	mov    %ebx,%esi
    c6f9:	89 c7                	mov    %eax,%edi
    c6fb:	e8 93 e4 ff ff       	callq  ab93 <safe_mul_func_uint8_t_u_u>
    c700:	0f b6 45 c6          	movzbl -0x3a(%rbp),%eax
    c704:	3c 01                	cmp    $0x1,%al
    c706:	76 07                	jbe    c70f <func_1+0xf5a>
    c708:	ba 01 00 00 00       	mov    $0x1,%edx
    c70d:	eb 05                	jmp    c714 <func_1+0xf5f>
    c70f:	ba 00 00 00 00       	mov    $0x0,%edx
    c714:	0f b6 45 c6          	movzbl -0x3a(%rbp),%eax
    c718:	0f b6 c0             	movzbl %al,%eax
    c71b:	39 c2                	cmp    %eax,%edx
    c71d:	0f 9f c0             	setg   %al
    c720:	0f b6 c0             	movzbl %al,%eax
    c723:	be b9 ff ff ff       	mov    $0xffffffb9,%esi
    c728:	89 c7                	mov    %eax,%edi
    c72a:	e8 e3 da ff ff       	callq  a212 <safe_mul_func_int8_t_s_s>
    c72f:	0f b6 45 c6          	movzbl -0x3a(%rbp),%eax
    c733:	0f b6 d0             	movzbl %al,%edx
    c736:	48 8b 85 88 fa ff ff 	mov    -0x578(%rbp),%rax
    c73d:	8b 00                	mov    (%rax),%eax
    c73f:	39 c2                	cmp    %eax,%edx
    c741:	0f 95 c0             	setne  %al
    c744:	0f b6 c0             	movzbl %al,%eax
    c747:	89 05 d3 1b 01 00    	mov    %eax,0x11bd3(%rip)        # 1e320 <g_2992>
    c74d:	8b 15 cd 1b 01 00    	mov    0x11bcd(%rip),%edx        # 1e320 <g_2992>
    c753:	48 8b 05 f6 36 01 00 	mov    0x136f6(%rip),%rax        # 1fe50 <g_56>
    c75a:	66 89 10             	mov    %dx,(%rax)
    c75d:	0f b7 00             	movzwl (%rax),%eax
    c760:	66 23 85 e6 f9 ff ff 	and    -0x61a(%rbp),%ax
    c767:	0f bf d0             	movswl %ax,%edx
    c76a:	48 8b 05 e7 36 01 00 	mov    0x136e7(%rip),%rax        # 1fe58 <g_420>
    c771:	0f b6 00             	movzbl (%rax),%eax
    c774:	0f b6 c0             	movzbl %al,%eax
    c777:	31 c2                	xor    %eax,%edx
    c779:	48 8b 85 88 fa ff ff 	mov    -0x578(%rbp),%rax
    c780:	89 10                	mov    %edx,(%rax)
    c782:	83 bd 28 fa ff ff 01 	cmpl   $0x1,-0x5d8(%rbp)
    c789:	0f 96 c0             	setbe  %al
    c78c:	0f b6 c0             	movzbl %al,%eax
    c78f:	89 85 00 fa ff ff    	mov    %eax,-0x600(%rbp)
    c795:	48 8b 05 0c 1a 01 00 	mov    0x11a0c(%rip),%rax        # 1e1a8 <g_2498>
    c79c:	48 83 e8 01          	sub    $0x1,%rax
    c7a0:	48 89 05 01 1a 01 00 	mov    %rax,0x11a01(%rip)        # 1e1a8 <g_2498>
    c7a7:	48 8b 05 fa 19 01 00 	mov    0x119fa(%rip),%rax        # 1e1a8 <g_2498>
    c7ae:	48 85 c0             	test   %rax,%rax
    c7b1:	0f 89 d4 fd ff ff    	jns    c58b <func_1+0xdd6>
    c7b7:	8b 15 7f 08 01 00    	mov    0x1087f(%rip),%edx        # 1d03c <g_99>
    c7bd:	8b 05 79 08 01 00    	mov    0x10879(%rip),%eax        # 1d03c <g_99>
    c7c3:	83 c0 01             	add    $0x1,%eax
    c7c6:	48 98                	cltq   
    c7c8:	48 63 d2             	movslq %edx,%rdx
    c7cb:	48 c1 e2 03          	shl    $0x3,%rdx
    c7cf:	48 01 d0             	add    %rdx,%rax
    c7d2:	8b 84 85 10 fc ff ff 	mov    -0x3f0(%rbp,%rax,4),%eax
    c7d9:	85 c0                	test   %eax,%eax
    c7db:	0f 85 37 02 00 00    	jne    ca18 <func_1+0x1263>
    c7e1:	8b 15 55 08 01 00    	mov    0x10855(%rip),%edx        # 1d03c <g_99>
    c7e7:	8b 05 4f 08 01 00    	mov    0x1084f(%rip),%eax        # 1d03c <g_99>
    c7ed:	83 c0 01             	add    $0x1,%eax
    c7f0:	48 98                	cltq   
    c7f2:	48 63 d2             	movslq %edx,%rdx
    c7f5:	48 c1 e2 03          	shl    $0x3,%rdx
    c7f9:	48 01 d0             	add    %rdx,%rax
    c7fc:	8b 84 85 10 fc ff ff 	mov    -0x3f0(%rbp,%rax,4),%eax
    c803:	0f b7 d8             	movzwl %ax,%ebx
    c806:	48 8b 05 53 05 01 00 	mov    0x10553(%rip),%rax        # 1cd60 <l_3003.4217+0x20>
    c80d:	48 39 85 70 fa ff ff 	cmp    %rax,-0x590(%rbp)
    c814:	0f 95 c0             	setne  %al
    c817:	0f b6 d0             	movzbl %al,%edx
    c81a:	8b 0d 1c 08 01 00    	mov    0x1081c(%rip),%ecx        # 1d03c <g_99>
    c820:	8b 05 16 08 01 00    	mov    0x10816(%rip),%eax        # 1d03c <g_99>
    c826:	83 c0 01             	add    $0x1,%eax
    c829:	48 98                	cltq   
    c82b:	48 63 c9             	movslq %ecx,%rcx
    c82e:	48 c1 e1 03          	shl    $0x3,%rcx
    c832:	48 01 c8             	add    %rcx,%rax
    c835:	8b 84 85 10 fc ff ff 	mov    -0x3f0(%rbp,%rax,4),%eax
    c83c:	98                   	cwtl   
    c83d:	89 d6                	mov    %edx,%esi
    c83f:	89 c7                	mov    %eax,%edi
    c841:	e8 8d db ff ff       	callq  a3d3 <safe_sub_func_int16_t_s_s>
    c846:	66 85 c0             	test   %ax,%ax
    c849:	0f 84 b1 00 00 00    	je     c900 <func_1+0x114b>
    c84f:	8b 85 00 fa ff ff    	mov    -0x600(%rbp),%eax
    c855:	44 0f b7 e0          	movzwl %ax,%r12d
    c859:	48 8b 05 88 57 01 00 	mov    0x15788(%rip),%rax        # 21fe8 <g_2675>
    c860:	48 8b 00             	mov    (%rax),%rax
    c863:	0f b7 00             	movzwl (%rax),%eax
    c866:	0f b7 d0             	movzwl %ax,%edx
    c869:	8b 85 18 fa ff ff    	mov    -0x5e8(%rbp),%eax
    c86f:	98                   	cwtl   
    c870:	89 d6                	mov    %edx,%esi
    c872:	89 c7                	mov    %eax,%edi
    c874:	e8 ea dc ff ff       	callq  a563 <safe_rshift_func_int16_t_s_u>
    c879:	66 85 c0             	test   %ax,%ax
    c87c:	74 0d                	je     c88b <func_1+0x10d6>
    c87e:	48 8b 05 e3 56 01 00 	mov    0x156e3(%rip),%rax        # 21f68 <g_2197>
    c885:	48 8b 00             	mov    (%rax),%rax
    c888:	48 85 c0             	test   %rax,%rax
    c88b:	48 83 bd 10 fb ff ff 	cmpq   $0x0,-0x4f0(%rbp)
    c892:	00 
    c893:	0f 95 c0             	setne  %al
    c896:	0f b6 d0             	movzbl %al,%edx
    c899:	8b 0d 9d 07 01 00    	mov    0x1079d(%rip),%ecx        # 1d03c <g_99>
    c89f:	8b 05 97 07 01 00    	mov    0x10797(%rip),%eax        # 1d03c <g_99>
    c8a5:	83 c0 01             	add    $0x1,%eax
    c8a8:	48 98                	cltq   
    c8aa:	48 63 c9             	movslq %ecx,%rcx
    c8ad:	48 c1 e1 03          	shl    $0x3,%rcx
    c8b1:	48 01 c8             	add    %rcx,%rax
    c8b4:	8b 84 85 10 fc ff ff 	mov    -0x3f0(%rbp,%rax,4),%eax
    c8bb:	39 c2                	cmp    %eax,%edx
    c8bd:	0f 95 c0             	setne  %al
    c8c0:	0f b6 d0             	movzbl %al,%edx
    c8c3:	8b 85 10 fc ff ff    	mov    -0x3f0(%rbp),%eax
    c8c9:	39 c2                	cmp    %eax,%edx
    c8cb:	0f 95 c2             	setne  %dl
    c8ce:	48 8b 85 a8 fa ff ff 	mov    -0x558(%rbp),%rax
    c8d5:	48 8b 00             	mov    (%rax),%rax
    c8d8:	0f b6 d2             	movzbl %dl,%edx
    c8db:	48 89 10             	mov    %rdx,(%rax)
    c8de:	48 8b 00             	mov    (%rax),%rax
    c8e1:	89 c2                	mov    %eax,%edx
    c8e3:	8b 85 20 fd ff ff    	mov    -0x2e0(%rbp),%eax
    c8e9:	09 d0                	or     %edx,%eax
    c8eb:	0f b7 c0             	movzwl %ax,%eax
    c8ee:	44 89 e6             	mov    %r12d,%esi
    c8f1:	89 c7                	mov    %eax,%edi
    c8f3:	e8 45 e4 ff ff       	callq  ad3d <safe_mul_func_uint16_t_u_u>
    c8f8:	8b 85 4c fc ff ff    	mov    -0x3b4(%rbp),%eax
    c8fe:	85 c0                	test   %eax,%eax
    c900:	48 8b 85 88 fa ff ff 	mov    -0x578(%rbp),%rax
    c907:	8b 00                	mov    (%rax),%eax
    c909:	66 89 05 8a 10 01 00 	mov    %ax,0x1108a(%rip)        # 1d99a <g_412>
    c910:	0f b7 05 83 10 01 00 	movzwl 0x11083(%rip),%eax        # 1d99a <g_412>
    c917:	0f b7 c0             	movzwl %ax,%eax
    c91a:	89 de                	mov    %ebx,%esi
    c91c:	89 c7                	mov    %eax,%edi
    c91e:	e8 39 e4 ff ff       	callq  ad5c <safe_mod_func_uint16_t_u_u>
    c923:	89 c2                	mov    %eax,%edx
    c925:	48 8b 05 24 39 01 00 	mov    0x13924(%rip),%rax        # 20250 <g_954>
    c92c:	48 8b 00             	mov    (%rax),%rax
    c92f:	48 8b 00             	mov    (%rax),%rax
    c932:	0f b6 08             	movzbl (%rax),%ecx
    c935:	48 8b 05 14 39 01 00 	mov    0x13914(%rip),%rax        # 20250 <g_954>
    c93c:	48 8b 00             	mov    (%rax),%rax
    c93f:	48 8b 00             	mov    (%rax),%rax
    c942:	31 ca                	xor    %ecx,%edx
    c944:	88 10                	mov    %dl,(%rax)
    c946:	0f b6 00             	movzbl (%rax),%eax
    c949:	0f be d8             	movsbl %al,%ebx
    c94c:	8b 15 ea 06 01 00    	mov    0x106ea(%rip),%edx        # 1d03c <g_99>
    c952:	8b 05 e4 06 01 00    	mov    0x106e4(%rip),%eax        # 1d03c <g_99>
    c958:	83 c0 01             	add    $0x1,%eax
    c95b:	48 98                	cltq   
    c95d:	48 63 d2             	movslq %edx,%rdx
    c960:	48 c1 e2 03          	shl    $0x3,%rdx
    c964:	48 01 d0             	add    %rdx,%rax
    c967:	8b 84 85 10 fc ff ff 	mov    -0x3f0(%rbp,%rax,4),%eax
    c96e:	98                   	cwtl   
    c96f:	be eb 7f 00 00       	mov    $0x7feb,%esi
    c974:	89 c7                	mov    %eax,%edi
    c976:	e8 7a da ff ff       	callq  a3f5 <safe_mul_func_int16_t_s_s>
    c97b:	0f be c0             	movsbl %al,%eax
    c97e:	89 de                	mov    %ebx,%esi
    c980:	89 c7                	mov    %eax,%edi
    c982:	e8 e3 d8 ff ff       	callq  a26a <safe_div_func_int8_t_s_s>
    c987:	8b 0d af 06 01 00    	mov    0x106af(%rip),%ecx        # 1d03c <g_99>
    c98d:	8b 15 a9 06 01 00    	mov    0x106a9(%rip),%edx        # 1d03c <g_99>
    c993:	83 c2 01             	add    $0x1,%edx
    c996:	48 63 d2             	movslq %edx,%rdx
    c999:	48 63 c9             	movslq %ecx,%rcx
    c99c:	48 c1 e1 03          	shl    $0x3,%rcx
    c9a0:	48 01 ca             	add    %rcx,%rdx
    c9a3:	8b 94 95 10 fc ff ff 	mov    -0x3f0(%rbp,%rdx,4),%edx
    c9aa:	89 d1                	mov    %edx,%ecx
    c9ac:	48 8b 95 18 fb ff ff 	mov    -0x4e8(%rbp),%rdx
    c9b3:	48 8b 12             	mov    (%rdx),%rdx
    c9b6:	48 0f be c0          	movsbq %al,%rax
    c9ba:	48 09 c2             	or     %rax,%rdx
    c9bd:	48 8b 85 18 fb ff ff 	mov    -0x4e8(%rbp),%rax
    c9c4:	48 89 10             	mov    %rdx,(%rax)
    c9c7:	48 8b 85 18 fb ff ff 	mov    -0x4e8(%rbp),%rax
    c9ce:	48 8b 00             	mov    (%rax),%rax
    c9d1:	09 c1                	or     %eax,%ecx
    c9d3:	89 ca                	mov    %ecx,%edx
    c9d5:	48 8b 85 88 fa ff ff 	mov    -0x578(%rbp),%rax
    c9dc:	89 10                	mov    %edx,(%rax)
    c9de:	48 8b 85 88 fa ff ff 	mov    -0x578(%rbp),%rax
    c9e5:	8b 00                	mov    (%rax),%eax
    c9e7:	33 85 1c fa ff ff    	xor    -0x5e4(%rbp),%eax
    c9ed:	89 c2                	mov    %eax,%edx
    c9ef:	48 8b 85 88 fa ff ff 	mov    -0x578(%rbp),%rax
    c9f6:	89 10                	mov    %edx,(%rax)
    c9f8:	8b 05 3e 06 01 00    	mov    0x1063e(%rip),%eax        # 1d03c <g_99>
    c9fe:	83 c0 01             	add    $0x1,%eax
    ca01:	89 05 35 06 01 00    	mov    %eax,0x10635(%rip)        # 1d03c <g_99>
    ca07:	8b 05 2f 06 01 00    	mov    0x1062f(%rip),%eax        # 1d03c <g_99>
    ca0d:	83 f8 03             	cmp    $0x3,%eax
    ca10:	0f 8e 3f fb ff ff    	jle    c555 <func_1+0xda0>
    ca16:	eb 01                	jmp    ca19 <func_1+0x1264>
    ca18:	90                   	nop
    ca19:	8b 85 e8 f9 ff ff    	mov    -0x618(%rbp),%eax
    ca1f:	48 63 d0             	movslq %eax,%rdx
    ca22:	48 8d 05 77 3f 01 00 	lea    0x13f77(%rip),%rax        # 209a0 <g_1299>
    ca29:	48 8b 00             	mov    (%rax),%rax
    ca2c:	48 8b 00             	mov    (%rax),%rax
    ca2f:	48 89 d6             	mov    %rdx,%rsi
    ca32:	48 89 c7             	mov    %rax,%rdi
    ca35:	e8 bd df ff ff       	callq  a9f7 <safe_div_func_int64_t_s_s>
    ca3a:	48 89 c3             	mov    %rax,%rbx
    ca3d:	8b 85 5c fb ff ff    	mov    -0x4a4(%rbp),%eax
    ca43:	0f b6 c0             	movzbl %al,%eax
    ca46:	be 01 00 00 00       	mov    $0x1,%esi
    ca4b:	89 c7                	mov    %eax,%edi
    ca4d:	e8 6c e2 ff ff       	callq  acbe <safe_rshift_func_uint8_t_u_u>
    ca52:	48 8b 85 88 fa ff ff 	mov    -0x578(%rbp),%rax
    ca59:	8b 00                	mov    (%rax),%eax
    ca5b:	85 c0                	test   %eax,%eax
    ca5d:	74 07                	je     ca66 <func_1+0x12b1>
    ca5f:	b8 01 00 00 00       	mov    $0x1,%eax
    ca64:	eb 05                	jmp    ca6b <func_1+0x12b6>
    ca66:	b8 00 00 00 00       	mov    $0x0,%eax
    ca6b:	48 98                	cltq   
    ca6d:	48 39 c3             	cmp    %rax,%rbx
    ca70:	0f 9c c0             	setl   %al
    ca73:	0f b6 c0             	movzbl %al,%eax
    ca76:	09 85 04 fa ff ff    	or     %eax,-0x5fc(%rbp)
    ca7c:	0f b7 05 77 0e 01 00 	movzwl 0x10e77(%rip),%eax        # 1d8fa <g_159>
    ca83:	83 e8 01             	sub    $0x1,%eax
    ca86:	66 89 05 6d 0e 01 00 	mov    %ax,0x10e6d(%rip)        # 1d8fa <g_159>
    ca8d:	0f b7 05 66 0e 01 00 	movzwl 0x10e66(%rip),%eax        # 1d8fa <g_159>
    ca94:	66 83 f8 f3          	cmp    $0xfff3,%ax
    ca98:	0f 8c 62 f3 ff ff    	jl     be00 <func_1+0x64b>
    ca9e:	48 8b 05 f3 3e 01 00 	mov    0x13ef3(%rip),%rax        # 20998 <g_1170>
    caa5:	48 8b 10             	mov    (%rax),%rdx
    caa8:	48 8b 85 d0 fa ff ff 	mov    -0x530(%rbp),%rax
    caaf:	48 89 10             	mov    %rdx,(%rax)
    cab2:	0f b6 95 e1 f9 ff ff 	movzbl -0x61f(%rbp),%edx
    cab9:	48 8b 85 88 fa ff ff 	mov    -0x578(%rbp),%rax
    cac0:	89 10                	mov    %edx,(%rax)
    cac2:	c7 05 b4 0e 01 00 00 	movl   $0x0,0x10eb4(%rip)        # 1d980 <g_379>
    cac9:	00 00 00 
    cacc:	e9 38 01 00 00       	jmpq   cc09 <func_1+0x1454>
    cad1:	c7 85 30 fa ff ff 00 	movl   $0x0,-0x5d0(%rbp)
    cad8:	00 00 00 
    cadb:	48 8d 85 54 fb ff ff 	lea    -0x4ac(%rbp),%rax
    cae2:	48 89 85 30 fb ff ff 	mov    %rax,-0x4d0(%rbp)
    cae9:	be 04 00 00 00       	mov    $0x4,%esi
    caee:	bf 08 00 00 00       	mov    $0x8,%edi
    caf3:	e8 74 d8 ff ff       	callq  a36c <safe_rshift_func_int8_t_s_u>
    caf8:	0f be d0             	movsbl %al,%edx
    cafb:	8b 85 10 fa ff ff    	mov    -0x5f0(%rbp),%eax
    cb01:	89 85 30 fa ff ff    	mov    %eax,-0x5d0(%rbp)
    cb07:	8b 85 30 fa ff ff    	mov    -0x5d0(%rbp),%eax
    cb0d:	89 d6                	mov    %edx,%esi
    cb0f:	89 c7                	mov    %eax,%edi
    cb11:	e8 ef da ff ff       	callq  a605 <safe_sub_func_int32_t_s_s>
    cb16:	48 8b 95 30 fb ff ff 	mov    -0x4d0(%rbp),%rdx
    cb1d:	89 02                	mov    %eax,(%rdx)
    cb1f:	48 8b 85 30 fb ff ff 	mov    -0x4d0(%rbp),%rax
    cb26:	8b 00                	mov    (%rax),%eax
    cb28:	85 c0                	test   %eax,%eax
    cb2a:	0f 84 90 00 00 00    	je     cbc0 <func_1+0x140b>
    cb30:	c6 85 e2 f9 ff ff fe 	movb   $0xfe,-0x61e(%rbp)
    cb37:	8b 9d 58 fb ff ff    	mov    -0x4a8(%rbp),%ebx
    cb3d:	48 8b 85 30 fb ff ff 	mov    -0x4d0(%rbp),%rax
    cb44:	44 8b 20             	mov    (%rax),%r12d
    cb47:	48 8b 85 30 fb ff ff 	mov    -0x4d0(%rbp),%rax
    cb4e:	8b 00                	mov    (%rax),%eax
    cb50:	48 63 d0             	movslq %eax,%rdx
    cb53:	48 0f be 85 e2 f9 ff 	movsbq -0x61e(%rbp),%rax
    cb5a:	ff 
    cb5b:	48 89 d6             	mov    %rdx,%rsi
    cb5e:	48 89 c7             	mov    %rax,%rdi
    cb61:	e8 db dc ff ff       	callq  a841 <safe_add_func_int64_t_s_s>
    cb66:	48 8b 95 30 fb ff ff 	mov    -0x4d0(%rbp),%rdx
    cb6d:	8b 12                	mov    (%rdx),%edx
    cb6f:	48 63 d2             	movslq %edx,%rdx
    cb72:	48 09 d0             	or     %rdx,%rax
    cb75:	48 3d b6 00 00 00    	cmp    $0xb6,%rax
    cb7b:	0f 95 c0             	setne  %al
    cb7e:	0f b6 c0             	movzbl %al,%eax
    cb81:	41 39 c4             	cmp    %eax,%r12d
    cb84:	0f 9c c0             	setl   %al
    cb87:	0f b6 c0             	movzbl %al,%eax
    cb8a:	f7 d0                	not    %eax
    cb8c:	89 c2                	mov    %eax,%edx
    cb8e:	48 8b 05 fb 3d 01 00 	mov    0x13dfb(%rip),%rax        # 20990 <g_1169>
    cb95:	8b 00                	mov    (%rax),%eax
    cb97:	09 c2                	or     %eax,%edx
    cb99:	48 8b 05 d8 53 01 00 	mov    0x153d8(%rip),%rax        # 21f78 <g_2195>
    cba0:	48 8b 00             	mov    (%rax),%rax
    cba3:	48 8b 00             	mov    (%rax),%rax
    cba6:	48 85 c0             	test   %rax,%rax
    cba9:	0f 95 c0             	setne  %al
    cbac:	0f b6 c0             	movzbl %al,%eax
    cbaf:	21 d0                	and    %edx,%eax
    cbb1:	31 c3                	xor    %eax,%ebx
    cbb3:	89 da                	mov    %ebx,%edx
    cbb5:	48 8b 85 30 fb ff ff 	mov    -0x4d0(%rbp),%rax
    cbbc:	89 10                	mov    %edx,(%rax)
    cbbe:	eb 19                	jmp    cbd9 <func_1+0x1424>
    cbc0:	48 b8 6f 33 7b 13 35 	movabs $0x7a0d1c35137b336f,%rax
    cbc7:	1c 0d 7a 
    cbca:	48 89 85 38 fb ff ff 	mov    %rax,-0x4c8(%rbp)
    cbd1:	48 83 85 38 fb ff ff 	addq   $0x1,-0x4c8(%rbp)
    cbd8:	01 
    cbd9:	80 bd e0 f9 ff ff 00 	cmpb   $0x0,-0x620(%rbp)
    cbe0:	75 0b                	jne    cbed <func_1+0x1438>
    cbe2:	80 bd e0 f9 ff ff 00 	cmpb   $0x0,-0x620(%rbp)
    cbe9:	75 2f                	jne    cc1a <func_1+0x1465>
    cbeb:	eb 01                	jmp    cbee <func_1+0x1439>
    cbed:	90                   	nop
    cbee:	8b 05 8c 0d 01 00    	mov    0x10d8c(%rip),%eax        # 1d980 <g_379>
    cbf4:	48 98                	cltq   
    cbf6:	be 01 00 00 00       	mov    $0x1,%esi
    cbfb:	48 89 c7             	mov    %rax,%rdi
    cbfe:	e8 a5 dc ff ff       	callq  a8a8 <safe_sub_func_int64_t_s_s>
    cc03:	89 05 77 0d 01 00    	mov    %eax,0x10d77(%rip)        # 1d980 <g_379>
    cc09:	8b 05 71 0d 01 00    	mov    0x10d71(%rip),%eax        # 1d980 <g_379>
    cc0f:	83 f8 fd             	cmp    $0xfffffffd,%eax
    cc12:	0f 85 b9 fe ff ff    	jne    cad1 <func_1+0x131c>
    cc18:	eb 01                	jmp    cc1b <func_1+0x1466>
    cc1a:	90                   	nop
    cc1b:	48 8b 05 3e 54 01 00 	mov    0x1543e(%rip),%rax        # 22060 <g_3045>
    cc22:	48 85 c0             	test   %rax,%rax
    cc25:	0f 95 c0             	setne  %al
    cc28:	0f b6 d0             	movzbl %al,%edx
    cc2b:	0f b6 85 e1 f9 ff ff 	movzbl -0x61f(%rbp),%eax
    cc32:	39 c2                	cmp    %eax,%edx
    cc34:	0f 9f c2             	setg   %dl
    cc37:	48 8b 05 52 3d 01 00 	mov    0x13d52(%rip),%rax        # 20990 <g_1169>
    cc3e:	0f b6 d2             	movzbl %dl,%edx
    cc41:	89 10                	mov    %edx,(%rax)
    cc43:	c7 05 47 0e 01 00 00 	movl   $0x0,0x10e47(%rip)        # 1da94 <g_978>
    cc4a:	00 00 00 
    cc4d:	e9 f6 01 00 00       	jmpq   ce48 <func_1+0x1693>
    cc52:	48 8d 05 bf 49 01 00 	lea    0x149bf(%rip),%rax        # 21618 <g_1632+0x3d8>
    cc59:	48 89 85 40 fb ff ff 	mov    %rax,-0x4c0(%rbp)
    cc60:	c7 85 34 fa ff ff 04 	movl   $0x5b4ca04,-0x5cc(%rbp)
    cc67:	ca b4 05 
    cc6a:	c7 85 38 fa ff ff 07 	movl   $0x7,-0x5c8(%rbp)
    cc71:	00 00 00 
    cc74:	c7 85 3c fa ff ff 93 	movl   $0xcbfa6b93,-0x5c4(%rbp)
    cc7b:	6b fa cb 
    cc7e:	48 c7 85 48 fb ff ff 	movq   $0xffffffffffffffff,-0x4b8(%rbp)
    cc85:	ff ff ff ff 
    cc89:	c7 85 f4 f9 ff ff c0 	movl   $0x5db52ec0,-0x60c(%rbp)
    cc90:	2e b5 5d 
    cc93:	c7 85 f8 f9 ff ff 00 	movl   $0x0,-0x608(%rbp)
    cc9a:	00 00 00 
    cc9d:	eb 1a                	jmp    ccb9 <func_1+0x1504>
    cc9f:	8b 85 f8 f9 ff ff    	mov    -0x608(%rbp),%eax
    cca5:	48 98                	cltq   
    cca7:	c7 84 85 40 fd ff ff 	movl   $0xfffffffa,-0x2c0(%rbp,%rax,4)
    ccae:	fa ff ff ff 
    ccb2:	83 85 f8 f9 ff ff 01 	addl   $0x1,-0x608(%rbp)
    ccb9:	83 bd f8 f9 ff ff 08 	cmpl   $0x8,-0x608(%rbp)
    ccc0:	7e dd                	jle    cc9f <func_1+0x14ea>
    ccc2:	c7 85 18 fa ff ff 1b 	movl   $0x1b,-0x5e8(%rbp)
    ccc9:	00 00 00 
    cccc:	e9 b0 00 00 00       	jmpq   cd81 <func_1+0x15cc>
    ccd1:	c6 85 e3 f9 ff ff b7 	movb   $0xb7,-0x61d(%rbp)
    ccd8:	48 8b 85 40 fa ff ff 	mov    -0x5c0(%rbp),%rax
    ccdf:	89 c2                	mov    %eax,%edx
    cce1:	48 8b 85 68 fa ff ff 	mov    -0x598(%rbp),%rax
    cce8:	66 89 10             	mov    %dx,(%rax)
    cceb:	80 bd e3 f9 ff ff 00 	cmpb   $0x0,-0x61d(%rbp)
    ccf2:	75 1c                	jne    cd10 <func_1+0x155b>
    ccf4:	48 8b 05 c5 3c 01 00 	mov    0x13cc5(%rip),%rax        # 209c0 <g_1536>
    ccfb:	48 8b 00             	mov    (%rax),%rax
    ccfe:	48 8b 00             	mov    (%rax),%rax
    cd01:	48 8b 10             	mov    (%rax),%rdx
    cd04:	0f b6 02             	movzbl (%rdx),%eax
    cd07:	8d 48 ff             	lea    -0x1(%rax),%ecx
    cd0a:	88 0a                	mov    %cl,(%rdx)
    cd0c:	84 c0                	test   %al,%al
    cd0e:	74 07                	je     cd17 <func_1+0x1562>
    cd10:	b8 01 00 00 00       	mov    $0x1,%eax
    cd15:	eb 05                	jmp    cd1c <func_1+0x1567>
    cd17:	b8 00 00 00 00       	mov    $0x0,%eax
    cd1c:	83 f8 02             	cmp    $0x2,%eax
    cd1f:	0f 95 c0             	setne  %al
    cd22:	0f b6 d0             	movzbl %al,%edx
    cd25:	8b 85 50 fc ff ff    	mov    -0x3b0(%rbp),%eax
    cd2b:	39 c2                	cmp    %eax,%edx
    cd2d:	74 15                	je     cd44 <func_1+0x158f>
    cd2f:	48 8b 05 72 3c 01 00 	mov    0x13c72(%rip),%rax        # 209a8 <g_1297>
    cd36:	48 8b 00             	mov    (%rax),%rax
    cd39:	48 8b 00             	mov    (%rax),%rax
    cd3c:	48 8b 00             	mov    (%rax),%rax
    cd3f:	e9 20 01 00 00       	jmpq   ce64 <func_1+0x16af>
    cd44:	48 8b 85 48 fa ff ff 	mov    -0x5b8(%rbp),%rax
    cd4b:	48 85 c0             	test   %rax,%rax
    cd4e:	74 05                	je     cd55 <func_1+0x15a0>
    cd50:	e9 c6 fe ff ff       	jmpq   cc1b <func_1+0x1466>
    cd55:	48 8b 05 14 53 01 00 	mov    0x15314(%rip),%rax        # 22070 <g_3059>
    cd5c:	48 8d 15 25 52 01 00 	lea    0x15225(%rip),%rdx        # 21f88 <g_2304>
    cd63:	48 89 10             	mov    %rdx,(%rax)
    cd66:	8b 85 18 fa ff ff    	mov    -0x5e8(%rbp),%eax
    cd6c:	48 98                	cltq   
    cd6e:	be 09 00 00 00       	mov    $0x9,%esi
    cd73:	48 89 c7             	mov    %rax,%rdi
    cd76:	e8 d0 e2 ff ff       	callq  b04b <safe_sub_func_uint64_t_u_u>
    cd7b:	89 85 18 fa ff ff    	mov    %eax,-0x5e8(%rbp)
    cd81:	83 bd 18 fa ff ff 12 	cmpl   $0x12,-0x5e8(%rbp)
    cd88:	0f 85 43 ff ff ff    	jne    ccd1 <func_1+0x151c>
    cd8e:	8b 05 90 15 01 00    	mov    0x11590(%rip),%eax        # 1e324 <g_3061>
    cd94:	8b 85 34 fa ff ff    	mov    -0x5cc(%rbp),%eax
    cd9a:	48 98                	cltq   
    cd9c:	48 89 c7             	mov    %rax,%rdi
    cd9f:	e8 75 e2 ff ff       	callq  b019 <safe_unary_minus_func_uint64_t_u>
    cda4:	48 89 c2             	mov    %rax,%rdx
    cda7:	48 8b 05 3a 4f 01 00 	mov    0x14f3a(%rip),%rax        # 21ce8 <g_1994>
    cdae:	48 8b 00             	mov    (%rax),%rax
    cdb1:	48 8b 00             	mov    (%rax),%rax
    cdb4:	66 89 10             	mov    %dx,(%rax)
    cdb7:	0f b7 00             	movzwl (%rax),%eax
    cdba:	83 f0 f9             	xor    $0xfffffff9,%eax
    cdbd:	98                   	cwtl   
    cdbe:	89 85 34 fa ff ff    	mov    %eax,-0x5cc(%rbp)
    cdc4:	c6 05 2e 0b 01 00 00 	movb   $0x0,0x10b2e(%rip)        # 1d8f9 <g_157>
    cdcb:	eb 55                	jmp    ce22 <func_1+0x166d>
    cdcd:	c7 85 fc f9 ff ff 00 	movl   $0x0,-0x604(%rbp)
    cdd4:	00 00 00 
    cdd7:	eb 1b                	jmp    cdf4 <func_1+0x163f>
    cdd9:	8b 85 fc f9 ff ff    	mov    -0x604(%rbp),%eax
    cddf:	48 98                	cltq   
    cde1:	48 c7 84 c5 90 fc ff 	movq   $0x0,-0x370(%rbp,%rax,8)
    cde8:	ff 00 00 00 00 
    cded:	83 85 fc f9 ff ff 01 	addl   $0x1,-0x604(%rbp)
    cdf4:	83 bd fc f9 ff ff 01 	cmpl   $0x1,-0x604(%rbp)
    cdfb:	7e dc                	jle    cdd9 <func_1+0x1624>
    cdfd:	83 85 f4 f9 ff ff 01 	addl   $0x1,-0x60c(%rbp)
    ce04:	0f b6 05 ee 0a 01 00 	movzbl 0x10aee(%rip),%eax        # 1d8f9 <g_157>
    ce0b:	48 0f be c0          	movsbq %al,%rax
    ce0f:	be 04 00 00 00       	mov    $0x4,%esi
    ce14:	48 89 c7             	mov    %rax,%rdi
    ce17:	e8 2f e2 ff ff       	callq  b04b <safe_sub_func_uint64_t_u_u>
    ce1c:	88 05 d7 0a 01 00    	mov    %al,0x10ad7(%rip)        # 1d8f9 <g_157>
    ce22:	0f b6 05 d0 0a 01 00 	movzbl 0x10ad0(%rip),%eax        # 1d8f9 <g_157>
    ce29:	3c e8                	cmp    $0xe8,%al
    ce2b:	7c a0                	jl     cdcd <func_1+0x1618>
    ce2d:	8b 05 61 0c 01 00    	mov    0x10c61(%rip),%eax        # 1da94 <g_978>
    ce33:	48 98                	cltq   
    ce35:	be 05 00 00 00       	mov    $0x5,%esi
    ce3a:	48 89 c7             	mov    %rax,%rdi
    ce3d:	e8 66 da ff ff       	callq  a8a8 <safe_sub_func_int64_t_s_s>
    ce42:	89 05 4c 0c 01 00    	mov    %eax,0x10c4c(%rip)        # 1da94 <g_978>
    ce48:	8b 05 46 0c 01 00    	mov    0x10c46(%rip),%eax        # 1da94 <g_978>
    ce4e:	83 f8 f0             	cmp    $0xfffffff0,%eax
    ce51:	0f 8c fb fd ff ff    	jl     cc52 <func_1+0x149d>
    ce57:	48 8d 05 42 3b 01 00 	lea    0x13b42(%rip),%rax        # 209a0 <g_1299>
    ce5e:	48 8b 00             	mov    (%rax),%rax
    ce61:	48 8b 00             	mov    (%rax),%rax
    ce64:	48 8b 5d c8          	mov    -0x38(%rbp),%rbx
    ce68:	64 48 33 1c 25 28 00 	xor    %fs:0x28,%rbx
    ce6f:	00 00 
    ce71:	74 05                	je     ce78 <func_1+0x16c3>
    ce73:	e8 f8 d1 ff ff       	callq  a070 <__stack_chk_fail@plt>
    ce78:	48 81 c4 08 06 00 00 	add    $0x608,%rsp
    ce7f:	5b                   	pop    %rbx
    ce80:	41 5c                	pop    %r12
    ce82:	41 5d                	pop    %r13
    ce84:	41 5e                	pop    %r14
    ce86:	41 5f                	pop    %r15
    ce88:	5d                   	pop    %rbp
    ce89:	c3                   	retq   

000000000000ce8a <func_2>:
    ce8a:	f3 0f 1e fa          	endbr64 
    ce8e:	55                   	push   %rbp
    ce8f:	48 89 e5             	mov    %rsp,%rbp
    ce92:	41 57                	push   %r15
    ce94:	41 56                	push   %r14
    ce96:	41 55                	push   %r13
    ce98:	41 54                	push   %r12
    ce9a:	53                   	push   %rbx
    ce9b:	48 81 ec 00 10 00 00 	sub    $0x1000,%rsp
    cea2:	48 83 0c 24 00       	orq    $0x0,(%rsp)
    cea7:	48 81 ec e8 02 00 00 	sub    $0x2e8,%rsp
    ceae:	89 bd fc ec ff ff    	mov    %edi,-0x1304(%rbp)
    ceb4:	89 f0                	mov    %esi,%eax
    ceb6:	88 85 f8 ec ff ff    	mov    %al,-0x1308(%rbp)
    cebc:	64 48 8b 04 25 28 00 	mov    %fs:0x28,%rax
    cec3:	00 00 
    cec5:	48 89 45 c8          	mov    %rax,-0x38(%rbp)
    cec9:	31 c0                	xor    %eax,%eax
    cecb:	c7 85 18 ed ff ff c2 	movl   $0xa60813c2,-0x12e8(%rbp)
    ced2:	13 08 a6 
    ced5:	48 8d 05 dc 4d 01 00 	lea    0x14ddc(%rip),%rax        # 21cb8 <g_1824+0x398>
    cedc:	48 89 85 b0 ed ff ff 	mov    %rax,-0x1250(%rbp)
    cee3:	48 8d 05 00 0c 01 00 	lea    0x10c00(%rip),%rax        # 1daea <g_1466+0x2a>
    ceea:	48 89 85 b8 ed ff ff 	mov    %rax,-0x1248(%rbp)
    cef1:	48 8d 05 a8 3a 01 00 	lea    0x13aa8(%rip),%rax        # 209a0 <g_1299>
    cef8:	48 89 85 70 ef ff ff 	mov    %rax,-0x1090(%rbp)
    ceff:	48 8d 05 9a 3a 01 00 	lea    0x13a9a(%rip),%rax        # 209a0 <g_1299>
    cf06:	48 89 85 78 ef ff ff 	mov    %rax,-0x1088(%rbp)
    cf0d:	48 8d 05 8c 3a 01 00 	lea    0x13a8c(%rip),%rax        # 209a0 <g_1299>
    cf14:	48 89 85 80 ef ff ff 	mov    %rax,-0x1080(%rbp)
    cf1b:	48 8d 05 7e 3a 01 00 	lea    0x13a7e(%rip),%rax        # 209a0 <g_1299>
    cf22:	48 89 85 88 ef ff ff 	mov    %rax,-0x1078(%rbp)
    cf29:	48 8d 05 70 3a 01 00 	lea    0x13a70(%rip),%rax        # 209a0 <g_1299>
    cf30:	48 89 85 90 ef ff ff 	mov    %rax,-0x1070(%rbp)
    cf37:	48 8d 05 62 3a 01 00 	lea    0x13a62(%rip),%rax        # 209a0 <g_1299>
    cf3e:	48 89 85 98 ef ff ff 	mov    %rax,-0x1068(%rbp)
    cf45:	48 8d 05 54 3a 01 00 	lea    0x13a54(%rip),%rax        # 209a0 <g_1299>
    cf4c:	48 89 85 a0 ef ff ff 	mov    %rax,-0x1060(%rbp)
    cf53:	48 8d 05 f6 2e 01 00 	lea    0x12ef6(%rip),%rax        # 1fe50 <g_56>
    cf5a:	48 89 85 30 ee ff ff 	mov    %rax,-0x11d0(%rbp)
    cf61:	c6 85 0b ed ff ff 00 	movb   $0x0,-0x12f5(%rbp)
    cf68:	48 8d 05 c9 32 01 00 	lea    0x132c9(%rip),%rax        # 20238 <g_937>
    cf6f:	48 89 85 c0 ed ff ff 	mov    %rax,-0x1240(%rbp)
    cf76:	c7 85 60 ed ff ff f6 	movl   $0xfffffff6,-0x12a0(%rbp)
    cf7d:	ff ff ff 
    cf80:	c7 85 1c ed ff ff ed 	movl   $0xcbfcbbed,-0x12e4(%rbp)
    cf87:	bb fc cb 
    cf8a:	c7 85 20 ed ff ff 9b 	movl   $0x4c669a9b,-0x12e0(%rbp)
    cf91:	9a 66 4c 
    cf94:	48 8d 05 4d 2f 01 00 	lea    0x12f4d(%rip),%rax        # 1fee8 <g_725+0x28>
    cf9b:	48 89 85 28 ee ff ff 	mov    %rax,-0x11d8(%rbp)
    cfa2:	48 8d 85 08 ef ff ff 	lea    -0x10f8(%rbp),%rax
    cfa9:	48 89 85 c8 ed ff ff 	mov    %rax,-0x1238(%rbp)
    cfb0:	48 8d 85 c8 ed ff ff 	lea    -0x1238(%rbp),%rax
    cfb7:	48 89 85 d0 ed ff ff 	mov    %rax,-0x1230(%rbp)
    cfbe:	48 8d 85 d0 ed ff ff 	lea    -0x1230(%rbp),%rax
    cfc5:	48 89 85 e0 f7 ff ff 	mov    %rax,-0x820(%rbp)
    cfcc:	48 c7 85 e8 f7 ff ff 	movq   $0x0,-0x818(%rbp)
    cfd3:	00 00 00 00 
    cfd7:	48 8d 85 d0 ed ff ff 	lea    -0x1230(%rbp),%rax
    cfde:	48 89 85 f0 f7 ff ff 	mov    %rax,-0x810(%rbp)
    cfe5:	48 8d 85 d0 ed ff ff 	lea    -0x1230(%rbp),%rax
    cfec:	48 89 85 f8 f7 ff ff 	mov    %rax,-0x808(%rbp)
    cff3:	48 8d 85 d0 ed ff ff 	lea    -0x1230(%rbp),%rax
    cffa:	48 89 85 00 f8 ff ff 	mov    %rax,-0x800(%rbp)
    d001:	48 8d 85 d0 ed ff ff 	lea    -0x1230(%rbp),%rax
    d008:	48 89 85 08 f8 ff ff 	mov    %rax,-0x7f8(%rbp)
    d00f:	48 8d 85 d0 ed ff ff 	lea    -0x1230(%rbp),%rax
    d016:	48 89 85 10 f8 ff ff 	mov    %rax,-0x7f0(%rbp)
    d01d:	48 c7 85 18 f8 ff ff 	movq   $0x0,-0x7e8(%rbp)
    d024:	00 00 00 00 
    d028:	48 8d 85 d0 ed ff ff 	lea    -0x1230(%rbp),%rax
    d02f:	48 89 85 20 f8 ff ff 	mov    %rax,-0x7e0(%rbp)
    d036:	48 c7 85 28 f8 ff ff 	movq   $0x0,-0x7d8(%rbp)
    d03d:	00 00 00 00 
    d041:	48 8d 85 d0 ed ff ff 	lea    -0x1230(%rbp),%rax
    d048:	48 89 85 30 f8 ff ff 	mov    %rax,-0x7d0(%rbp)
    d04f:	48 c7 85 38 f8 ff ff 	movq   $0x0,-0x7c8(%rbp)
    d056:	00 00 00 00 
    d05a:	48 c7 85 40 f8 ff ff 	movq   $0x0,-0x7c0(%rbp)
    d061:	00 00 00 00 
    d065:	48 c7 85 48 f8 ff ff 	movq   $0x0,-0x7b8(%rbp)
    d06c:	00 00 00 00 
    d070:	48 8d 85 d0 ed ff ff 	lea    -0x1230(%rbp),%rax
    d077:	48 89 85 50 f8 ff ff 	mov    %rax,-0x7b0(%rbp)
    d07e:	48 c7 85 58 f8 ff ff 	movq   $0x0,-0x7a8(%rbp)
    d085:	00 00 00 00 
    d089:	48 8d 85 d0 ed ff ff 	lea    -0x1230(%rbp),%rax
    d090:	48 89 85 60 f8 ff ff 	mov    %rax,-0x7a0(%rbp)
    d097:	48 8d 85 d0 ed ff ff 	lea    -0x1230(%rbp),%rax
    d09e:	48 89 85 68 f8 ff ff 	mov    %rax,-0x798(%rbp)
    d0a5:	48 8d 85 d0 ed ff ff 	lea    -0x1230(%rbp),%rax
    d0ac:	48 89 85 70 f8 ff ff 	mov    %rax,-0x790(%rbp)
    d0b3:	48 8d 85 d0 ed ff ff 	lea    -0x1230(%rbp),%rax
    d0ba:	48 89 85 78 f8 ff ff 	mov    %rax,-0x788(%rbp)
    d0c1:	48 8d 85 d0 ed ff ff 	lea    -0x1230(%rbp),%rax
    d0c8:	48 89 85 80 f8 ff ff 	mov    %rax,-0x780(%rbp)
    d0cf:	48 c7 85 88 f8 ff ff 	movq   $0x0,-0x778(%rbp)
    d0d6:	00 00 00 00 
    d0da:	48 8d 85 d0 ed ff ff 	lea    -0x1230(%rbp),%rax
    d0e1:	48 89 85 90 f8 ff ff 	mov    %rax,-0x770(%rbp)
    d0e8:	48 8d 85 d0 ed ff ff 	lea    -0x1230(%rbp),%rax
    d0ef:	48 89 85 98 f8 ff ff 	mov    %rax,-0x768(%rbp)
    d0f6:	48 8d 85 d0 ed ff ff 	lea    -0x1230(%rbp),%rax
    d0fd:	48 89 85 a0 f8 ff ff 	mov    %rax,-0x760(%rbp)
    d104:	48 c7 85 a8 f8 ff ff 	movq   $0x0,-0x758(%rbp)
    d10b:	00 00 00 00 
    d10f:	48 8d 85 d0 ed ff ff 	lea    -0x1230(%rbp),%rax
    d116:	48 89 85 b0 f8 ff ff 	mov    %rax,-0x750(%rbp)
    d11d:	48 8d 85 d0 ed ff ff 	lea    -0x1230(%rbp),%rax
    d124:	48 89 85 b8 f8 ff ff 	mov    %rax,-0x748(%rbp)
    d12b:	48 8d 85 d0 ed ff ff 	lea    -0x1230(%rbp),%rax
    d132:	48 89 85 c0 f8 ff ff 	mov    %rax,-0x740(%rbp)
    d139:	48 8d 85 d0 ed ff ff 	lea    -0x1230(%rbp),%rax
    d140:	48 89 85 c8 f8 ff ff 	mov    %rax,-0x738(%rbp)
    d147:	48 8d 85 d0 ed ff ff 	lea    -0x1230(%rbp),%rax
    d14e:	48 89 85 d0 f8 ff ff 	mov    %rax,-0x730(%rbp)
    d155:	48 8d 85 d0 ed ff ff 	lea    -0x1230(%rbp),%rax
    d15c:	48 89 85 d8 f8 ff ff 	mov    %rax,-0x728(%rbp)
    d163:	48 8d 85 d0 ed ff ff 	lea    -0x1230(%rbp),%rax
    d16a:	48 89 85 e0 f8 ff ff 	mov    %rax,-0x720(%rbp)
    d171:	48 8d 85 d0 ed ff ff 	lea    -0x1230(%rbp),%rax
    d178:	48 89 85 e8 f8 ff ff 	mov    %rax,-0x718(%rbp)
    d17f:	48 8d 85 d0 ed ff ff 	lea    -0x1230(%rbp),%rax
    d186:	48 89 85 f0 f8 ff ff 	mov    %rax,-0x710(%rbp)
    d18d:	48 8d 85 d0 ed ff ff 	lea    -0x1230(%rbp),%rax
    d194:	48 89 85 f8 f8 ff ff 	mov    %rax,-0x708(%rbp)
    d19b:	48 8d 85 d0 ed ff ff 	lea    -0x1230(%rbp),%rax
    d1a2:	48 89 85 00 f9 ff ff 	mov    %rax,-0x700(%rbp)
    d1a9:	48 8d 85 d0 ed ff ff 	lea    -0x1230(%rbp),%rax
    d1b0:	48 89 85 08 f9 ff ff 	mov    %rax,-0x6f8(%rbp)
    d1b7:	48 8d 85 d0 ed ff ff 	lea    -0x1230(%rbp),%rax
    d1be:	48 89 85 10 f9 ff ff 	mov    %rax,-0x6f0(%rbp)
    d1c5:	48 8d 85 d0 ed ff ff 	lea    -0x1230(%rbp),%rax
    d1cc:	48 89 85 18 f9 ff ff 	mov    %rax,-0x6e8(%rbp)
    d1d3:	48 8d 85 d0 ed ff ff 	lea    -0x1230(%rbp),%rax
    d1da:	48 89 85 20 f9 ff ff 	mov    %rax,-0x6e0(%rbp)
    d1e1:	48 8d 85 d0 ed ff ff 	lea    -0x1230(%rbp),%rax
    d1e8:	48 89 85 28 f9 ff ff 	mov    %rax,-0x6d8(%rbp)
    d1ef:	48 8d 85 d0 ed ff ff 	lea    -0x1230(%rbp),%rax
    d1f6:	48 89 85 30 f9 ff ff 	mov    %rax,-0x6d0(%rbp)
    d1fd:	48 8d 85 d0 ed ff ff 	lea    -0x1230(%rbp),%rax
    d204:	48 89 85 38 f9 ff ff 	mov    %rax,-0x6c8(%rbp)
    d20b:	48 8d 85 d0 ed ff ff 	lea    -0x1230(%rbp),%rax
    d212:	48 89 85 40 f9 ff ff 	mov    %rax,-0x6c0(%rbp)
    d219:	48 8d 85 d0 ed ff ff 	lea    -0x1230(%rbp),%rax
    d220:	48 89 85 48 f9 ff ff 	mov    %rax,-0x6b8(%rbp)
    d227:	48 8d 85 d0 ed ff ff 	lea    -0x1230(%rbp),%rax
    d22e:	48 89 85 50 f9 ff ff 	mov    %rax,-0x6b0(%rbp)
    d235:	48 c7 85 58 f9 ff ff 	movq   $0x0,-0x6a8(%rbp)
    d23c:	00 00 00 00 
    d240:	48 8d 85 d0 ed ff ff 	lea    -0x1230(%rbp),%rax
    d247:	48 89 85 60 f9 ff ff 	mov    %rax,-0x6a0(%rbp)
    d24e:	48 8d 85 d0 ed ff ff 	lea    -0x1230(%rbp),%rax
    d255:	48 89 85 68 f9 ff ff 	mov    %rax,-0x698(%rbp)
    d25c:	48 c7 85 70 f9 ff ff 	movq   $0x0,-0x690(%rbp)
    d263:	00 00 00 00 
    d267:	48 c7 85 78 f9 ff ff 	movq   $0x0,-0x688(%rbp)
    d26e:	00 00 00 00 
    d272:	48 8d 85 d0 ed ff ff 	lea    -0x1230(%rbp),%rax
    d279:	48 89 85 80 f9 ff ff 	mov    %rax,-0x680(%rbp)
    d280:	48 8d 85 d0 ed ff ff 	lea    -0x1230(%rbp),%rax
    d287:	48 89 85 88 f9 ff ff 	mov    %rax,-0x678(%rbp)
    d28e:	48 8d 85 d0 ed ff ff 	lea    -0x1230(%rbp),%rax
    d295:	48 89 85 90 f9 ff ff 	mov    %rax,-0x670(%rbp)
    d29c:	48 8d 85 d0 ed ff ff 	lea    -0x1230(%rbp),%rax
    d2a3:	48 89 85 98 f9 ff ff 	mov    %rax,-0x668(%rbp)
    d2aa:	48 8d 85 d0 ed ff ff 	lea    -0x1230(%rbp),%rax
    d2b1:	48 89 85 a0 f9 ff ff 	mov    %rax,-0x660(%rbp)
    d2b8:	48 8d 85 d0 ed ff ff 	lea    -0x1230(%rbp),%rax
    d2bf:	48 89 85 a8 f9 ff ff 	mov    %rax,-0x658(%rbp)
    d2c6:	48 8d 85 d0 ed ff ff 	lea    -0x1230(%rbp),%rax
    d2cd:	48 89 85 b0 f9 ff ff 	mov    %rax,-0x650(%rbp)
    d2d4:	48 8d 85 d0 ed ff ff 	lea    -0x1230(%rbp),%rax
    d2db:	48 89 85 b8 f9 ff ff 	mov    %rax,-0x648(%rbp)
    d2e2:	48 8d 85 d0 ed ff ff 	lea    -0x1230(%rbp),%rax
    d2e9:	48 89 85 c0 f9 ff ff 	mov    %rax,-0x640(%rbp)
    d2f0:	48 c7 85 c8 f9 ff ff 	movq   $0x0,-0x638(%rbp)
    d2f7:	00 00 00 00 
    d2fb:	48 8d 85 d0 ed ff ff 	lea    -0x1230(%rbp),%rax
    d302:	48 89 85 d0 f9 ff ff 	mov    %rax,-0x630(%rbp)
    d309:	48 8d 85 d0 ed ff ff 	lea    -0x1230(%rbp),%rax
    d310:	48 89 85 d8 f9 ff ff 	mov    %rax,-0x628(%rbp)
    d317:	48 c7 85 e0 f9 ff ff 	movq   $0x0,-0x620(%rbp)
    d31e:	00 00 00 00 
    d322:	48 8d 85 d0 ed ff ff 	lea    -0x1230(%rbp),%rax
    d329:	48 89 85 e8 f9 ff ff 	mov    %rax,-0x618(%rbp)
    d330:	48 8d 85 d0 ed ff ff 	lea    -0x1230(%rbp),%rax
    d337:	48 89 85 f0 f9 ff ff 	mov    %rax,-0x610(%rbp)
    d33e:	48 8d 85 d0 ed ff ff 	lea    -0x1230(%rbp),%rax
    d345:	48 89 85 f8 f9 ff ff 	mov    %rax,-0x608(%rbp)
    d34c:	48 8d 85 d0 ed ff ff 	lea    -0x1230(%rbp),%rax
    d353:	48 89 85 00 fa ff ff 	mov    %rax,-0x600(%rbp)
    d35a:	48 8d 85 d0 ed ff ff 	lea    -0x1230(%rbp),%rax
    d361:	48 89 85 08 fa ff ff 	mov    %rax,-0x5f8(%rbp)
    d368:	48 8d 85 d0 ed ff ff 	lea    -0x1230(%rbp),%rax
    d36f:	48 89 85 10 fa ff ff 	mov    %rax,-0x5f0(%rbp)
    d376:	48 8d 85 d0 ed ff ff 	lea    -0x1230(%rbp),%rax
    d37d:	48 89 85 18 fa ff ff 	mov    %rax,-0x5e8(%rbp)
    d384:	48 8d 85 d0 ed ff ff 	lea    -0x1230(%rbp),%rax
    d38b:	48 89 85 20 fa ff ff 	mov    %rax,-0x5e0(%rbp)
    d392:	48 8d 85 d0 ed ff ff 	lea    -0x1230(%rbp),%rax
    d399:	48 89 85 28 fa ff ff 	mov    %rax,-0x5d8(%rbp)
    d3a0:	48 8d 85 d0 ed ff ff 	lea    -0x1230(%rbp),%rax
    d3a7:	48 89 85 30 fa ff ff 	mov    %rax,-0x5d0(%rbp)
    d3ae:	48 8d 85 d0 ed ff ff 	lea    -0x1230(%rbp),%rax
    d3b5:	48 89 85 38 fa ff ff 	mov    %rax,-0x5c8(%rbp)
    d3bc:	48 8d 85 d0 ed ff ff 	lea    -0x1230(%rbp),%rax
    d3c3:	48 89 85 40 fa ff ff 	mov    %rax,-0x5c0(%rbp)
    d3ca:	48 c7 85 48 fa ff ff 	movq   $0x0,-0x5b8(%rbp)
    d3d1:	00 00 00 00 
    d3d5:	48 8d 85 d0 ed ff ff 	lea    -0x1230(%rbp),%rax
    d3dc:	48 89 85 50 fa ff ff 	mov    %rax,-0x5b0(%rbp)
    d3e3:	48 8d 85 d0 ed ff ff 	lea    -0x1230(%rbp),%rax
    d3ea:	48 89 85 58 fa ff ff 	mov    %rax,-0x5a8(%rbp)
    d3f1:	48 8d 85 d0 ed ff ff 	lea    -0x1230(%rbp),%rax
    d3f8:	48 89 85 60 fa ff ff 	mov    %rax,-0x5a0(%rbp)
    d3ff:	48 8d 85 d0 ed ff ff 	lea    -0x1230(%rbp),%rax
    d406:	48 89 85 68 fa ff ff 	mov    %rax,-0x598(%rbp)
    d40d:	48 8d 85 d0 ed ff ff 	lea    -0x1230(%rbp),%rax
    d414:	48 89 85 70 fa ff ff 	mov    %rax,-0x590(%rbp)
    d41b:	48 8d 85 d0 ed ff ff 	lea    -0x1230(%rbp),%rax
    d422:	48 89 85 78 fa ff ff 	mov    %rax,-0x588(%rbp)
    d429:	48 8d 85 d0 ed ff ff 	lea    -0x1230(%rbp),%rax
    d430:	48 89 85 80 fa ff ff 	mov    %rax,-0x580(%rbp)
    d437:	48 8d 85 d0 ed ff ff 	lea    -0x1230(%rbp),%rax
    d43e:	48 89 85 88 fa ff ff 	mov    %rax,-0x578(%rbp)
    d445:	48 8d 85 d0 ed ff ff 	lea    -0x1230(%rbp),%rax
    d44c:	48 89 85 90 fa ff ff 	mov    %rax,-0x570(%rbp)
    d453:	48 8d 85 d0 ed ff ff 	lea    -0x1230(%rbp),%rax
    d45a:	48 89 85 98 fa ff ff 	mov    %rax,-0x568(%rbp)
    d461:	48 8d 85 d0 ed ff ff 	lea    -0x1230(%rbp),%rax
    d468:	48 89 85 a0 fa ff ff 	mov    %rax,-0x560(%rbp)
    d46f:	48 8d 85 d0 ed ff ff 	lea    -0x1230(%rbp),%rax
    d476:	48 89 85 a8 fa ff ff 	mov    %rax,-0x558(%rbp)
    d47d:	48 8d 85 d0 ed ff ff 	lea    -0x1230(%rbp),%rax
    d484:	48 89 85 b0 fa ff ff 	mov    %rax,-0x550(%rbp)
    d48b:	48 8d 85 d0 ed ff ff 	lea    -0x1230(%rbp),%rax
    d492:	48 89 85 b8 fa ff ff 	mov    %rax,-0x548(%rbp)
    d499:	48 8d 85 d0 ed ff ff 	lea    -0x1230(%rbp),%rax
    d4a0:	48 89 85 c0 fa ff ff 	mov    %rax,-0x540(%rbp)
    d4a7:	48 8d 85 d0 ed ff ff 	lea    -0x1230(%rbp),%rax
    d4ae:	48 89 85 c8 fa ff ff 	mov    %rax,-0x538(%rbp)
    d4b5:	48 8d 85 d0 ed ff ff 	lea    -0x1230(%rbp),%rax
    d4bc:	48 89 85 d0 fa ff ff 	mov    %rax,-0x530(%rbp)
    d4c3:	48 8d 85 d0 ed ff ff 	lea    -0x1230(%rbp),%rax
    d4ca:	48 89 85 d8 fa ff ff 	mov    %rax,-0x528(%rbp)
    d4d1:	48 8d 85 d0 ed ff ff 	lea    -0x1230(%rbp),%rax
    d4d8:	48 89 85 e0 fa ff ff 	mov    %rax,-0x520(%rbp)
    d4df:	48 8d 85 d0 ed ff ff 	lea    -0x1230(%rbp),%rax
    d4e6:	48 89 85 e8 fa ff ff 	mov    %rax,-0x518(%rbp)
    d4ed:	48 8d 85 d0 ed ff ff 	lea    -0x1230(%rbp),%rax
    d4f4:	48 89 85 f0 fa ff ff 	mov    %rax,-0x510(%rbp)
    d4fb:	48 8d 85 d0 ed ff ff 	lea    -0x1230(%rbp),%rax
    d502:	48 89 85 f8 fa ff ff 	mov    %rax,-0x508(%rbp)
    d509:	48 c7 85 00 fb ff ff 	movq   $0x0,-0x500(%rbp)
    d510:	00 00 00 00 
    d514:	48 8d 85 d0 ed ff ff 	lea    -0x1230(%rbp),%rax
    d51b:	48 89 85 08 fb ff ff 	mov    %rax,-0x4f8(%rbp)
    d522:	48 8d 85 d0 ed ff ff 	lea    -0x1230(%rbp),%rax
    d529:	48 89 85 10 fb ff ff 	mov    %rax,-0x4f0(%rbp)
    d530:	48 8d 85 d0 ed ff ff 	lea    -0x1230(%rbp),%rax
    d537:	48 89 85 18 fb ff ff 	mov    %rax,-0x4e8(%rbp)
    d53e:	48 8d 85 d0 ed ff ff 	lea    -0x1230(%rbp),%rax
    d545:	48 89 85 20 fb ff ff 	mov    %rax,-0x4e0(%rbp)
    d54c:	48 8d 85 d0 ed ff ff 	lea    -0x1230(%rbp),%rax
    d553:	48 89 85 28 fb ff ff 	mov    %rax,-0x4d8(%rbp)
    d55a:	48 c7 85 30 fb ff ff 	movq   $0x0,-0x4d0(%rbp)
    d561:	00 00 00 00 
    d565:	48 8d 85 d0 ed ff ff 	lea    -0x1230(%rbp),%rax
    d56c:	48 89 85 38 fb ff ff 	mov    %rax,-0x4c8(%rbp)
    d573:	48 8d 85 d0 ed ff ff 	lea    -0x1230(%rbp),%rax
    d57a:	48 89 85 40 fb ff ff 	mov    %rax,-0x4c0(%rbp)
    d581:	48 8d 85 d0 ed ff ff 	lea    -0x1230(%rbp),%rax
    d588:	48 89 85 48 fb ff ff 	mov    %rax,-0x4b8(%rbp)
    d58f:	48 8d 85 d0 ed ff ff 	lea    -0x1230(%rbp),%rax
    d596:	48 89 85 50 fb ff ff 	mov    %rax,-0x4b0(%rbp)
    d59d:	48 8d 85 d0 ed ff ff 	lea    -0x1230(%rbp),%rax
    d5a4:	48 89 85 58 fb ff ff 	mov    %rax,-0x4a8(%rbp)
    d5ab:	48 8d 85 d0 ed ff ff 	lea    -0x1230(%rbp),%rax
    d5b2:	48 89 85 60 fb ff ff 	mov    %rax,-0x4a0(%rbp)
    d5b9:	48 8d 85 d0 ed ff ff 	lea    -0x1230(%rbp),%rax
    d5c0:	48 89 85 68 fb ff ff 	mov    %rax,-0x498(%rbp)
    d5c7:	48 8d 85 d0 ed ff ff 	lea    -0x1230(%rbp),%rax
    d5ce:	48 89 85 70 fb ff ff 	mov    %rax,-0x490(%rbp)
    d5d5:	48 8d 85 d0 ed ff ff 	lea    -0x1230(%rbp),%rax
    d5dc:	48 89 85 78 fb ff ff 	mov    %rax,-0x488(%rbp)
    d5e3:	48 8d 85 d0 ed ff ff 	lea    -0x1230(%rbp),%rax
    d5ea:	48 89 85 80 fb ff ff 	mov    %rax,-0x480(%rbp)
    d5f1:	48 8d 85 d0 ed ff ff 	lea    -0x1230(%rbp),%rax
    d5f8:	48 89 85 88 fb ff ff 	mov    %rax,-0x478(%rbp)
    d5ff:	48 8d 85 d0 ed ff ff 	lea    -0x1230(%rbp),%rax
    d606:	48 89 85 90 fb ff ff 	mov    %rax,-0x470(%rbp)
    d60d:	48 8d 85 d0 ed ff ff 	lea    -0x1230(%rbp),%rax
    d614:	48 89 85 98 fb ff ff 	mov    %rax,-0x468(%rbp)
    d61b:	48 8d 85 d0 ed ff ff 	lea    -0x1230(%rbp),%rax
    d622:	48 89 85 a0 fb ff ff 	mov    %rax,-0x460(%rbp)
    d629:	48 8d 85 d0 ed ff ff 	lea    -0x1230(%rbp),%rax
    d630:	48 89 85 a8 fb ff ff 	mov    %rax,-0x458(%rbp)
    d637:	48 8d 85 d0 ed ff ff 	lea    -0x1230(%rbp),%rax
    d63e:	48 89 85 b0 fb ff ff 	mov    %rax,-0x450(%rbp)
    d645:	48 8d 85 d0 ed ff ff 	lea    -0x1230(%rbp),%rax
    d64c:	48 89 85 b8 fb ff ff 	mov    %rax,-0x448(%rbp)
    d653:	48 8d 85 d0 ed ff ff 	lea    -0x1230(%rbp),%rax
    d65a:	48 89 85 c0 fb ff ff 	mov    %rax,-0x440(%rbp)
    d661:	48 8d 85 d0 ed ff ff 	lea    -0x1230(%rbp),%rax
    d668:	48 89 85 c8 fb ff ff 	mov    %rax,-0x438(%rbp)
    d66f:	48 8d 85 d0 ed ff ff 	lea    -0x1230(%rbp),%rax
    d676:	48 89 85 d0 fb ff ff 	mov    %rax,-0x430(%rbp)
    d67d:	48 8d 85 d0 ed ff ff 	lea    -0x1230(%rbp),%rax
    d684:	48 89 85 d8 fb ff ff 	mov    %rax,-0x428(%rbp)
    d68b:	48 8d 85 d0 ed ff ff 	lea    -0x1230(%rbp),%rax
    d692:	48 89 85 e0 fb ff ff 	mov    %rax,-0x420(%rbp)
    d699:	48 8d 85 d0 ed ff ff 	lea    -0x1230(%rbp),%rax
    d6a0:	48 89 85 e8 fb ff ff 	mov    %rax,-0x418(%rbp)
    d6a7:	48 c7 85 f0 fb ff ff 	movq   $0x0,-0x410(%rbp)
    d6ae:	00 00 00 00 
    d6b2:	48 8d 85 d0 ed ff ff 	lea    -0x1230(%rbp),%rax
    d6b9:	48 89 85 f8 fb ff ff 	mov    %rax,-0x408(%rbp)
    d6c0:	48 8d 85 d0 ed ff ff 	lea    -0x1230(%rbp),%rax
    d6c7:	48 89 85 00 fc ff ff 	mov    %rax,-0x400(%rbp)
    d6ce:	48 8d 85 d0 ed ff ff 	lea    -0x1230(%rbp),%rax
    d6d5:	48 89 85 08 fc ff ff 	mov    %rax,-0x3f8(%rbp)
    d6dc:	48 8d 85 d0 ed ff ff 	lea    -0x1230(%rbp),%rax
    d6e3:	48 89 85 10 fc ff ff 	mov    %rax,-0x3f0(%rbp)
    d6ea:	48 8d 85 d0 ed ff ff 	lea    -0x1230(%rbp),%rax
    d6f1:	48 89 85 18 fc ff ff 	mov    %rax,-0x3e8(%rbp)
    d6f8:	48 c7 85 20 fc ff ff 	movq   $0x0,-0x3e0(%rbp)
    d6ff:	00 00 00 00 
    d703:	48 8d 85 d0 ed ff ff 	lea    -0x1230(%rbp),%rax
    d70a:	48 89 85 28 fc ff ff 	mov    %rax,-0x3d8(%rbp)
    d711:	48 c7 85 30 fc ff ff 	movq   $0x0,-0x3d0(%rbp)
    d718:	00 00 00 00 
    d71c:	48 c7 85 38 fc ff ff 	movq   $0x0,-0x3c8(%rbp)
    d723:	00 00 00 00 
    d727:	48 c7 85 40 fc ff ff 	movq   $0x0,-0x3c0(%rbp)
    d72e:	00 00 00 00 
    d732:	48 8d 85 d0 ed ff ff 	lea    -0x1230(%rbp),%rax
    d739:	48 89 85 48 fc ff ff 	mov    %rax,-0x3b8(%rbp)
    d740:	48 c7 85 50 fc ff ff 	movq   $0x0,-0x3b0(%rbp)
    d747:	00 00 00 00 
    d74b:	48 8d 85 d0 ed ff ff 	lea    -0x1230(%rbp),%rax
    d752:	48 89 85 58 fc ff ff 	mov    %rax,-0x3a8(%rbp)
    d759:	48 8d 85 d0 ed ff ff 	lea    -0x1230(%rbp),%rax
    d760:	48 89 85 60 fc ff ff 	mov    %rax,-0x3a0(%rbp)
    d767:	48 8d 85 d0 ed ff ff 	lea    -0x1230(%rbp),%rax
    d76e:	48 89 85 68 fc ff ff 	mov    %rax,-0x398(%rbp)
    d775:	48 8d 85 d0 ed ff ff 	lea    -0x1230(%rbp),%rax
    d77c:	48 89 85 70 fc ff ff 	mov    %rax,-0x390(%rbp)
    d783:	48 8d 85 d0 ed ff ff 	lea    -0x1230(%rbp),%rax
    d78a:	48 89 85 78 fc ff ff 	mov    %rax,-0x388(%rbp)
    d791:	48 8d 85 d0 ed ff ff 	lea    -0x1230(%rbp),%rax
    d798:	48 89 85 80 fc ff ff 	mov    %rax,-0x380(%rbp)
    d79f:	48 8d 85 d0 ed ff ff 	lea    -0x1230(%rbp),%rax
    d7a6:	48 89 85 88 fc ff ff 	mov    %rax,-0x378(%rbp)
    d7ad:	48 8d 85 d0 ed ff ff 	lea    -0x1230(%rbp),%rax
    d7b4:	48 89 85 90 fc ff ff 	mov    %rax,-0x370(%rbp)
    d7bb:	48 c7 85 98 fc ff ff 	movq   $0x0,-0x368(%rbp)
    d7c2:	00 00 00 00 
    d7c6:	48 8d 85 d0 ed ff ff 	lea    -0x1230(%rbp),%rax
    d7cd:	48 89 85 a0 fc ff ff 	mov    %rax,-0x360(%rbp)
    d7d4:	48 8d 85 d0 ed ff ff 	lea    -0x1230(%rbp),%rax
    d7db:	48 89 85 a8 fc ff ff 	mov    %rax,-0x358(%rbp)
    d7e2:	48 8d 85 d0 ed ff ff 	lea    -0x1230(%rbp),%rax
    d7e9:	48 89 85 b0 fc ff ff 	mov    %rax,-0x350(%rbp)
    d7f0:	48 8d 85 d0 ed ff ff 	lea    -0x1230(%rbp),%rax
    d7f7:	48 89 85 b8 fc ff ff 	mov    %rax,-0x348(%rbp)
    d7fe:	48 8d 85 d0 ed ff ff 	lea    -0x1230(%rbp),%rax
    d805:	48 89 85 c0 fc ff ff 	mov    %rax,-0x340(%rbp)
    d80c:	48 8d 85 d0 ed ff ff 	lea    -0x1230(%rbp),%rax
    d813:	48 89 85 c8 fc ff ff 	mov    %rax,-0x338(%rbp)
    d81a:	48 8d 85 d0 ed ff ff 	lea    -0x1230(%rbp),%rax
    d821:	48 89 85 d0 fc ff ff 	mov    %rax,-0x330(%rbp)
    d828:	48 8d 85 d0 ed ff ff 	lea    -0x1230(%rbp),%rax
    d82f:	48 89 85 d8 fc ff ff 	mov    %rax,-0x328(%rbp)
    d836:	48 8d 85 d0 ed ff ff 	lea    -0x1230(%rbp),%rax
    d83d:	48 89 85 e0 fc ff ff 	mov    %rax,-0x320(%rbp)
    d844:	48 8d 85 d0 ed ff ff 	lea    -0x1230(%rbp),%rax
    d84b:	48 89 85 e8 fc ff ff 	mov    %rax,-0x318(%rbp)
    d852:	48 c7 85 f0 fc ff ff 	movq   $0x0,-0x310(%rbp)
    d859:	00 00 00 00 
    d85d:	48 8d 85 d0 ed ff ff 	lea    -0x1230(%rbp),%rax
    d864:	48 89 85 f8 fc ff ff 	mov    %rax,-0x308(%rbp)
    d86b:	48 8d 85 d0 ed ff ff 	lea    -0x1230(%rbp),%rax
    d872:	48 89 85 00 fd ff ff 	mov    %rax,-0x300(%rbp)
    d879:	48 c7 85 08 fd ff ff 	movq   $0x0,-0x2f8(%rbp)
    d880:	00 00 00 00 
    d884:	48 8d 85 d0 ed ff ff 	lea    -0x1230(%rbp),%rax
    d88b:	48 89 85 10 fd ff ff 	mov    %rax,-0x2f0(%rbp)
    d892:	48 8d 85 d0 ed ff ff 	lea    -0x1230(%rbp),%rax
    d899:	48 89 85 18 fd ff ff 	mov    %rax,-0x2e8(%rbp)
    d8a0:	48 8d 85 d0 ed ff ff 	lea    -0x1230(%rbp),%rax
    d8a7:	48 89 85 20 fd ff ff 	mov    %rax,-0x2e0(%rbp)
    d8ae:	48 8d 85 d0 ed ff ff 	lea    -0x1230(%rbp),%rax
    d8b5:	48 89 85 28 fd ff ff 	mov    %rax,-0x2d8(%rbp)
    d8bc:	48 8d 85 d0 ed ff ff 	lea    -0x1230(%rbp),%rax
    d8c3:	48 89 85 30 fd ff ff 	mov    %rax,-0x2d0(%rbp)
    d8ca:	48 8d 85 d0 ed ff ff 	lea    -0x1230(%rbp),%rax
    d8d1:	48 89 85 38 fd ff ff 	mov    %rax,-0x2c8(%rbp)
    d8d8:	48 8d 85 d0 ed ff ff 	lea    -0x1230(%rbp),%rax
    d8df:	48 89 85 40 fd ff ff 	mov    %rax,-0x2c0(%rbp)
    d8e6:	48 8d 85 d0 ed ff ff 	lea    -0x1230(%rbp),%rax
    d8ed:	48 89 85 48 fd ff ff 	mov    %rax,-0x2b8(%rbp)
    d8f4:	48 8d 85 d0 ed ff ff 	lea    -0x1230(%rbp),%rax
    d8fb:	48 89 85 50 fd ff ff 	mov    %rax,-0x2b0(%rbp)
    d902:	48 c7 85 58 fd ff ff 	movq   $0x0,-0x2a8(%rbp)
    d909:	00 00 00 00 
    d90d:	48 8d 85 d0 ed ff ff 	lea    -0x1230(%rbp),%rax
    d914:	48 89 85 60 fd ff ff 	mov    %rax,-0x2a0(%rbp)
    d91b:	48 8d 85 d0 ed ff ff 	lea    -0x1230(%rbp),%rax
    d922:	48 89 85 68 fd ff ff 	mov    %rax,-0x298(%rbp)
    d929:	48 c7 85 70 fd ff ff 	movq   $0x0,-0x290(%rbp)
    d930:	00 00 00 00 
    d934:	48 8d 85 d0 ed ff ff 	lea    -0x1230(%rbp),%rax
    d93b:	48 89 85 78 fd ff ff 	mov    %rax,-0x288(%rbp)
    d942:	48 8d 85 d0 ed ff ff 	lea    -0x1230(%rbp),%rax
    d949:	48 89 85 80 fd ff ff 	mov    %rax,-0x280(%rbp)
    d950:	48 c7 85 88 fd ff ff 	movq   $0x0,-0x278(%rbp)
    d957:	00 00 00 00 
    d95b:	48 8d 85 d0 ed ff ff 	lea    -0x1230(%rbp),%rax
    d962:	48 89 85 90 fd ff ff 	mov    %rax,-0x270(%rbp)
    d969:	48 8d 85 d0 ed ff ff 	lea    -0x1230(%rbp),%rax
    d970:	48 89 85 98 fd ff ff 	mov    %rax,-0x268(%rbp)
    d977:	48 8d 85 d0 ed ff ff 	lea    -0x1230(%rbp),%rax
    d97e:	48 89 85 a0 fd ff ff 	mov    %rax,-0x260(%rbp)
    d985:	48 8d 85 d0 ed ff ff 	lea    -0x1230(%rbp),%rax
    d98c:	48 89 85 a8 fd ff ff 	mov    %rax,-0x258(%rbp)
    d993:	48 c7 85 b0 fd ff ff 	movq   $0x0,-0x250(%rbp)
    d99a:	00 00 00 00 
    d99e:	48 8d 85 d0 ed ff ff 	lea    -0x1230(%rbp),%rax
    d9a5:	48 89 85 b8 fd ff ff 	mov    %rax,-0x248(%rbp)
    d9ac:	48 8d 85 d0 ed ff ff 	lea    -0x1230(%rbp),%rax
    d9b3:	48 89 85 c0 fd ff ff 	mov    %rax,-0x240(%rbp)
    d9ba:	48 8d 85 d0 ed ff ff 	lea    -0x1230(%rbp),%rax
    d9c1:	48 89 85 c8 fd ff ff 	mov    %rax,-0x238(%rbp)
    d9c8:	48 8d 85 d0 ed ff ff 	lea    -0x1230(%rbp),%rax
    d9cf:	48 89 85 d0 fd ff ff 	mov    %rax,-0x230(%rbp)
    d9d6:	48 8d 85 d0 ed ff ff 	lea    -0x1230(%rbp),%rax
    d9dd:	48 89 85 d8 fd ff ff 	mov    %rax,-0x228(%rbp)
    d9e4:	48 8d 85 d0 ed ff ff 	lea    -0x1230(%rbp),%rax
    d9eb:	48 89 85 e0 fd ff ff 	mov    %rax,-0x220(%rbp)
    d9f2:	48 8d 85 d0 ed ff ff 	lea    -0x1230(%rbp),%rax
    d9f9:	48 89 85 e8 fd ff ff 	mov    %rax,-0x218(%rbp)
    da00:	48 8d 85 d0 ed ff ff 	lea    -0x1230(%rbp),%rax
    da07:	48 89 85 f0 fd ff ff 	mov    %rax,-0x210(%rbp)
    da0e:	48 8d 85 d0 ed ff ff 	lea    -0x1230(%rbp),%rax
    da15:	48 89 85 f8 fd ff ff 	mov    %rax,-0x208(%rbp)
    da1c:	48 8d 85 d0 ed ff ff 	lea    -0x1230(%rbp),%rax
    da23:	48 89 85 00 fe ff ff 	mov    %rax,-0x200(%rbp)
    da2a:	48 c7 85 08 fe ff ff 	movq   $0x0,-0x1f8(%rbp)
    da31:	00 00 00 00 
    da35:	48 8d 85 d0 ed ff ff 	lea    -0x1230(%rbp),%rax
    da3c:	48 89 85 10 fe ff ff 	mov    %rax,-0x1f0(%rbp)
    da43:	48 8d 85 d0 ed ff ff 	lea    -0x1230(%rbp),%rax
    da4a:	48 89 85 18 fe ff ff 	mov    %rax,-0x1e8(%rbp)
    da51:	48 8d 85 d0 ed ff ff 	lea    -0x1230(%rbp),%rax
    da58:	48 89 85 20 fe ff ff 	mov    %rax,-0x1e0(%rbp)
    da5f:	48 8d 85 d0 ed ff ff 	lea    -0x1230(%rbp),%rax
    da66:	48 89 85 28 fe ff ff 	mov    %rax,-0x1d8(%rbp)
    da6d:	48 8d 85 d0 ed ff ff 	lea    -0x1230(%rbp),%rax
    da74:	48 89 85 30 fe ff ff 	mov    %rax,-0x1d0(%rbp)
    da7b:	48 c7 85 38 fe ff ff 	movq   $0x0,-0x1c8(%rbp)
    da82:	00 00 00 00 
    da86:	48 8d 85 d0 ed ff ff 	lea    -0x1230(%rbp),%rax
    da8d:	48 89 85 40 fe ff ff 	mov    %rax,-0x1c0(%rbp)
    da94:	48 8d 85 d0 ed ff ff 	lea    -0x1230(%rbp),%rax
    da9b:	48 89 85 48 fe ff ff 	mov    %rax,-0x1b8(%rbp)
    daa2:	48 8d 85 d0 ed ff ff 	lea    -0x1230(%rbp),%rax
    daa9:	48 89 85 50 fe ff ff 	mov    %rax,-0x1b0(%rbp)
    dab0:	48 8d 85 d0 ed ff ff 	lea    -0x1230(%rbp),%rax
    dab7:	48 89 85 58 fe ff ff 	mov    %rax,-0x1a8(%rbp)
    dabe:	48 8d 85 d0 ed ff ff 	lea    -0x1230(%rbp),%rax
    dac5:	48 89 85 60 fe ff ff 	mov    %rax,-0x1a0(%rbp)
    dacc:	48 c7 85 68 fe ff ff 	movq   $0x0,-0x198(%rbp)
    dad3:	00 00 00 00 
    dad7:	48 8d 85 d0 ed ff ff 	lea    -0x1230(%rbp),%rax
    dade:	48 89 85 70 fe ff ff 	mov    %rax,-0x190(%rbp)
    dae5:	48 8d 85 d0 ed ff ff 	lea    -0x1230(%rbp),%rax
    daec:	48 89 85 78 fe ff ff 	mov    %rax,-0x188(%rbp)
    daf3:	48 8d 85 d0 ed ff ff 	lea    -0x1230(%rbp),%rax
    dafa:	48 89 85 80 fe ff ff 	mov    %rax,-0x180(%rbp)
    db01:	48 8d 85 d0 ed ff ff 	lea    -0x1230(%rbp),%rax
    db08:	48 89 85 88 fe ff ff 	mov    %rax,-0x178(%rbp)
    db0f:	48 c7 85 90 fe ff ff 	movq   $0x0,-0x170(%rbp)
    db16:	00 00 00 00 
    db1a:	48 8d 85 d0 ed ff ff 	lea    -0x1230(%rbp),%rax
    db21:	48 89 85 98 fe ff ff 	mov    %rax,-0x168(%rbp)
    db28:	48 8d 85 d0 ed ff ff 	lea    -0x1230(%rbp),%rax
    db2f:	48 89 85 a0 fe ff ff 	mov    %rax,-0x160(%rbp)
    db36:	48 c7 85 a8 fe ff ff 	movq   $0x0,-0x158(%rbp)
    db3d:	00 00 00 00 
    db41:	48 8d 85 d0 ed ff ff 	lea    -0x1230(%rbp),%rax
    db48:	48 89 85 b0 fe ff ff 	mov    %rax,-0x150(%rbp)
    db4f:	48 8d 85 d0 ed ff ff 	lea    -0x1230(%rbp),%rax
    db56:	48 89 85 b8 fe ff ff 	mov    %rax,-0x148(%rbp)
    db5d:	48 8d 85 d0 ed ff ff 	lea    -0x1230(%rbp),%rax
    db64:	48 89 85 c0 fe ff ff 	mov    %rax,-0x140(%rbp)
    db6b:	48 8d 85 d0 ed ff ff 	lea    -0x1230(%rbp),%rax
    db72:	48 89 85 c8 fe ff ff 	mov    %rax,-0x138(%rbp)
    db79:	48 8d 85 d0 ed ff ff 	lea    -0x1230(%rbp),%rax
    db80:	48 89 85 d0 fe ff ff 	mov    %rax,-0x130(%rbp)
    db87:	48 8d 85 d0 ed ff ff 	lea    -0x1230(%rbp),%rax
    db8e:	48 89 85 d8 fe ff ff 	mov    %rax,-0x128(%rbp)
    db95:	48 8d 85 d0 ed ff ff 	lea    -0x1230(%rbp),%rax
    db9c:	48 89 85 e0 fe ff ff 	mov    %rax,-0x120(%rbp)
    dba3:	48 8d 85 d0 ed ff ff 	lea    -0x1230(%rbp),%rax
    dbaa:	48 89 85 e8 fe ff ff 	mov    %rax,-0x118(%rbp)
    dbb1:	48 8d 85 d0 ed ff ff 	lea    -0x1230(%rbp),%rax
    dbb8:	48 89 85 f0 fe ff ff 	mov    %rax,-0x110(%rbp)
    dbbf:	48 8d 85 d0 ed ff ff 	lea    -0x1230(%rbp),%rax
    dbc6:	48 89 85 f8 fe ff ff 	mov    %rax,-0x108(%rbp)
    dbcd:	48 8d 85 d0 ed ff ff 	lea    -0x1230(%rbp),%rax
    dbd4:	48 89 85 00 ff ff ff 	mov    %rax,-0x100(%rbp)
    dbdb:	48 8d 85 d0 ed ff ff 	lea    -0x1230(%rbp),%rax
    dbe2:	48 89 85 08 ff ff ff 	mov    %rax,-0xf8(%rbp)
    dbe9:	48 8d 85 d0 ed ff ff 	lea    -0x1230(%rbp),%rax
    dbf0:	48 89 85 10 ff ff ff 	mov    %rax,-0xf0(%rbp)
    dbf7:	48 8d 85 d0 ed ff ff 	lea    -0x1230(%rbp),%rax
    dbfe:	48 89 85 18 ff ff ff 	mov    %rax,-0xe8(%rbp)
    dc05:	48 8d 85 d0 ed ff ff 	lea    -0x1230(%rbp),%rax
    dc0c:	48 89 85 20 ff ff ff 	mov    %rax,-0xe0(%rbp)
    dc13:	48 8d 85 d0 ed ff ff 	lea    -0x1230(%rbp),%rax
    dc1a:	48 89 85 28 ff ff ff 	mov    %rax,-0xd8(%rbp)
    dc21:	48 8d 85 d0 ed ff ff 	lea    -0x1230(%rbp),%rax
    dc28:	48 89 85 30 ff ff ff 	mov    %rax,-0xd0(%rbp)
    dc2f:	48 8d 85 d0 ed ff ff 	lea    -0x1230(%rbp),%rax
    dc36:	48 89 85 38 ff ff ff 	mov    %rax,-0xc8(%rbp)
    dc3d:	48 8d 85 d0 ed ff ff 	lea    -0x1230(%rbp),%rax
    dc44:	48 89 85 40 ff ff ff 	mov    %rax,-0xc0(%rbp)
    dc4b:	48 8d 85 d0 ed ff ff 	lea    -0x1230(%rbp),%rax
    dc52:	48 89 85 48 ff ff ff 	mov    %rax,-0xb8(%rbp)
    dc59:	48 8d 85 d0 ed ff ff 	lea    -0x1230(%rbp),%rax
    dc60:	48 89 85 50 ff ff ff 	mov    %rax,-0xb0(%rbp)
    dc67:	48 8d 85 d0 ed ff ff 	lea    -0x1230(%rbp),%rax
    dc6e:	48 89 85 58 ff ff ff 	mov    %rax,-0xa8(%rbp)
    dc75:	48 8d 85 d0 ed ff ff 	lea    -0x1230(%rbp),%rax
    dc7c:	48 89 85 60 ff ff ff 	mov    %rax,-0xa0(%rbp)
    dc83:	48 8d 85 d0 ed ff ff 	lea    -0x1230(%rbp),%rax
    dc8a:	48 89 85 68 ff ff ff 	mov    %rax,-0x98(%rbp)
    dc91:	48 8d 85 d0 ed ff ff 	lea    -0x1230(%rbp),%rax
    dc98:	48 89 85 70 ff ff ff 	mov    %rax,-0x90(%rbp)
    dc9f:	48 c7 85 78 ff ff ff 	movq   $0x0,-0x88(%rbp)
    dca6:	00 00 00 00 
    dcaa:	48 c7 45 80 00 00 00 	movq   $0x0,-0x80(%rbp)
    dcb1:	00 
    dcb2:	48 8d 85 d0 ed ff ff 	lea    -0x1230(%rbp),%rax
    dcb9:	48 89 45 88          	mov    %rax,-0x78(%rbp)
    dcbd:	48 8d 85 d0 ed ff ff 	lea    -0x1230(%rbp),%rax
    dcc4:	48 89 45 90          	mov    %rax,-0x70(%rbp)
    dcc8:	48 8d 85 d0 ed ff ff 	lea    -0x1230(%rbp),%rax
    dccf:	48 89 45 98          	mov    %rax,-0x68(%rbp)
    dcd3:	48 8d 85 d0 ed ff ff 	lea    -0x1230(%rbp),%rax
    dcda:	48 89 45 a0          	mov    %rax,-0x60(%rbp)
    dcde:	48 c7 45 a8 00 00 00 	movq   $0x0,-0x58(%rbp)
    dce5:	00 
    dce6:	c7 85 24 ed ff ff e6 	movl   $0xcd5a7de6,-0x12dc(%rbp)
    dced:	7d 5a cd 
    dcf0:	c7 85 28 ed ff ff ff 	movl   $0xffffffff,-0x12d8(%rbp)
    dcf7:	ff ff ff 
    dcfa:	c7 85 2c ed ff ff 00 	movl   $0x0,-0x12d4(%rbp)
    dd01:	00 00 00 
    dd04:	66 c7 85 12 ed ff ff 	movw   $0xffff,-0x12ee(%rbp)
    dd0b:	ff ff 
    dd0d:	c7 85 5c ed ff ff 00 	movl   $0x0,-0x12a4(%rbp)
    dd14:	00 00 00 
    dd17:	eb 14                	jmp    dd2d <func_2+0xea3>
    dd19:	8b 85 5c ed ff ff    	mov    -0x12a4(%rbp),%eax
    dd1f:	48 98                	cltq   
    dd21:	c6 44 05 bf 33       	movb   $0x33,-0x41(%rbp,%rax,1)
    dd26:	83 85 5c ed ff ff 01 	addl   $0x1,-0x12a4(%rbp)
    dd2d:	83 bd 5c ed ff ff 08 	cmpl   $0x8,-0x12a4(%rbp)
    dd34:	7e e3                	jle    dd19 <func_2+0xe8f>
    dd36:	c7 85 5c ed ff ff 00 	movl   $0x0,-0x12a4(%rbp)
    dd3d:	00 00 00 
    dd40:	eb 1b                	jmp    dd5d <func_2+0xed3>
    dd42:	8b 85 5c ed ff ff    	mov    -0x12a4(%rbp),%eax
    dd48:	48 98                	cltq   
    dd4a:	48 c7 84 c5 08 ef ff 	movq   $0x0,-0x10f8(%rbp,%rax,8)
    dd51:	ff 00 00 00 00 
    dd56:	83 85 5c ed ff ff 01 	addl   $0x1,-0x12a4(%rbp)
    dd5d:	83 bd 5c ed ff ff 00 	cmpl   $0x0,-0x12a4(%rbp)
    dd64:	7e dc                	jle    dd42 <func_2+0xeb8>
    dd66:	c6 85 f8 ec ff ff f0 	movb   $0xf0,-0x1308(%rbp)
    dd6d:	e9 64 19 00 00       	jmpq   f6d6 <func_2+0x284c>
    dd72:	48 b8 bf fe 66 fb 5b 	movabs $0x823aaf5bfb66febf,%rax
    dd79:	af 3a 82 
    dd7c:	48 89 85 d8 ed ff ff 	mov    %rax,-0x1228(%rbp)
    dd83:	66 c7 85 10 ed ff ff 	movw   $0xe26b,-0x12f0(%rbp)
    dd8a:	6b e2 
    dd8c:	48 8d 05 8d f6 00 00 	lea    0xf68d(%rip),%rax        # 1d420 <g_110+0x3c0>
    dd93:	48 89 85 20 ee ff ff 	mov    %rax,-0x11e0(%rbp)
    dd9a:	48 8d 05 bb fc 00 00 	lea    0xfcbb(%rip),%rax        # 1da5c <g_637+0xc>
    dda1:	48 89 85 f0 ef ff ff 	mov    %rax,-0x1010(%rbp)
    dda8:	48 8d 05 b1 fc 00 00 	lea    0xfcb1(%rip),%rax        # 1da60 <g_637+0x10>
    ddaf:	48 89 85 f8 ef ff ff 	mov    %rax,-0x1008(%rbp)
    ddb6:	48 8d 05 db fc 00 00 	lea    0xfcdb(%rip),%rax        # 1da98 <g_979>
    ddbd:	48 89 85 00 f0 ff ff 	mov    %rax,-0x1000(%rbp)
    ddc4:	48 8d 05 95 fc 00 00 	lea    0xfc95(%rip),%rax        # 1da60 <g_637+0x10>
    ddcb:	48 89 85 08 f0 ff ff 	mov    %rax,-0xff8(%rbp)
    ddd2:	48 8d 05 83 fc 00 00 	lea    0xfc83(%rip),%rax        # 1da5c <g_637+0xc>
    ddd9:	48 89 85 10 f0 ff ff 	mov    %rax,-0xff0(%rbp)
    dde0:	48 8d 05 75 fc 00 00 	lea    0xfc75(%rip),%rax        # 1da5c <g_637+0xc>
    dde7:	48 89 85 18 f0 ff ff 	mov    %rax,-0xfe8(%rbp)
    ddee:	48 8d 05 6b fc 00 00 	lea    0xfc6b(%rip),%rax        # 1da60 <g_637+0x10>
    ddf5:	48 89 85 20 f0 ff ff 	mov    %rax,-0xfe0(%rbp)
    ddfc:	48 8d 05 95 fc 00 00 	lea    0xfc95(%rip),%rax        # 1da98 <g_979>
    de03:	48 89 85 28 f0 ff ff 	mov    %rax,-0xfd8(%rbp)
    de0a:	48 8d 05 4f fc 00 00 	lea    0xfc4f(%rip),%rax        # 1da60 <g_637+0x10>
    de11:	48 89 85 30 f0 ff ff 	mov    %rax,-0xfd0(%rbp)
    de18:	48 8d 05 3d fc 00 00 	lea    0xfc3d(%rip),%rax        # 1da5c <g_637+0xc>
    de1f:	48 89 85 38 f0 ff ff 	mov    %rax,-0xfc8(%rbp)
    de26:	48 8d 05 73 03 01 00 	lea    0x10373(%rip),%rax        # 1e1a0 <g_2398>
    de2d:	48 89 85 f0 ed ff ff 	mov    %rax,-0x1210(%rbp)
    de34:	c7 85 4c ed ff ff 01 	movl   $0x1,-0x12b4(%rbp)
    de3b:	00 00 00 
    de3e:	c7 85 30 ed ff ff 29 	movl   $0x39480b29,-0x12d0(%rbp)
    de45:	0b 48 39 
    de48:	c7 85 50 ed ff ff 28 	movl   $0x21189228,-0x12b0(%rbp)
    de4f:	92 18 21 
    de52:	48 8d 05 e7 21 01 00 	lea    0x121e7(%rip),%rax        # 20040 <g_725+0x180>
    de59:	48 89 85 f8 ed ff ff 	mov    %rax,-0x1208(%rbp)
    de60:	48 8d 05 e9 1f 01 00 	lea    0x11fe9(%rip),%rax        # 1fe50 <g_56>
    de67:	48 89 85 00 ee ff ff 	mov    %rax,-0x1200(%rbp)
    de6e:	c7 85 34 ed ff ff 1a 	movl   $0x213c561a,-0x12cc(%rbp)
    de75:	56 3c 21 
    de78:	c7 85 38 ed ff ff c9 	movl   $0x5748b2c9,-0x12c8(%rbp)
    de7f:	b2 48 57 
    de82:	c7 85 3c ed ff ff c9 	movl   $0x80ec56c9,-0x12c4(%rbp)
    de89:	56 ec 80 
    de8c:	c7 85 40 ed ff ff 00 	movl   $0x0,-0x12c0(%rbp)
    de93:	00 00 00 
    de96:	c7 85 54 ed ff ff 44 	movl   $0x147a9244,-0x12ac(%rbp)
    de9d:	92 7a 14 
    dea0:	c7 85 58 ed ff ff 04 	movl   $0x4,-0x12a8(%rbp)
    dea7:	00 00 00 
    deaa:	c7 85 44 ed ff ff 40 	movl   $0x9ccdf640,-0x12bc(%rbp)
    deb1:	f6 cd 9c 
    deb4:	48 c7 85 08 ee ff ff 	movq   $0x6,-0x11f8(%rbp)
    debb:	06 00 00 00 
    debf:	48 c7 85 10 ee ff ff 	movq   $0x1,-0x11f0(%rbp)
    dec6:	01 00 00 00 
    deca:	48 8d 05 ef 3e 01 00 	lea    0x13eef(%rip),%rax        # 21dc0 <g_2089>
    ded1:	48 89 85 18 ee ff ff 	mov    %rax,-0x11e8(%rbp)
    ded8:	48 8d 05 5d f1 00 00 	lea    0xf15d(%rip),%rax        # 1d03c <g_99>
    dedf:	48 89 85 40 f0 ff ff 	mov    %rax,-0xfc0(%rbp)
    dee6:	48 8d 05 bb 45 01 00 	lea    0x145bb(%rip),%rax        # 224a8 <g_35>
    deed:	48 89 85 48 f0 ff ff 	mov    %rax,-0xfb8(%rbp)
    def4:	48 8d 85 20 ed ff ff 	lea    -0x12e0(%rbp),%rax
    defb:	48 89 85 50 f0 ff ff 	mov    %rax,-0xfb0(%rbp)
    df02:	48 8d 05 33 f1 00 00 	lea    0xf133(%rip),%rax        # 1d03c <g_99>
    df09:	48 89 85 58 f0 ff ff 	mov    %rax,-0xfa8(%rbp)
    df10:	48 8d 85 2c ed ff ff 	lea    -0x12d4(%rbp),%rax
    df17:	48 89 85 60 f0 ff ff 	mov    %rax,-0xfa0(%rbp)
    df1e:	48 8d 85 18 ed ff ff 	lea    -0x12e8(%rbp),%rax
    df25:	48 89 85 68 f0 ff ff 	mov    %rax,-0xf98(%rbp)
    df2c:	48 8d 85 1c ed ff ff 	lea    -0x12e4(%rbp),%rax
    df33:	48 89 85 70 f0 ff ff 	mov    %rax,-0xf90(%rbp)
    df3a:	48 8d 85 20 ed ff ff 	lea    -0x12e0(%rbp),%rax
    df41:	48 89 85 78 f0 ff ff 	mov    %rax,-0xf88(%rbp)
    df48:	48 8d 05 ed f0 00 00 	lea    0xf0ed(%rip),%rax        # 1d03c <g_99>
    df4f:	48 89 85 80 f0 ff ff 	mov    %rax,-0xf80(%rbp)
    df56:	48 8d 85 2c ed ff ff 	lea    -0x12d4(%rbp),%rax
    df5d:	48 89 85 88 f0 ff ff 	mov    %rax,-0xf78(%rbp)
    df64:	48 8d 85 44 ed ff ff 	lea    -0x12bc(%rbp),%rax
    df6b:	48 89 85 90 f0 ff ff 	mov    %rax,-0xf70(%rbp)
    df72:	48 8d 85 30 ed ff ff 	lea    -0x12d0(%rbp),%rax
    df79:	48 89 85 98 f0 ff ff 	mov    %rax,-0xf68(%rbp)
    df80:	48 8d 05 b5 f0 00 00 	lea    0xf0b5(%rip),%rax        # 1d03c <g_99>
    df87:	48 89 85 a0 f0 ff ff 	mov    %rax,-0xf60(%rbp)
    df8e:	48 8d 85 18 ed ff ff 	lea    -0x12e8(%rbp),%rax
    df95:	48 89 85 a8 f0 ff ff 	mov    %rax,-0xf58(%rbp)
    df9c:	48 8d 05 99 f0 00 00 	lea    0xf099(%rip),%rax        # 1d03c <g_99>
    dfa3:	48 89 85 b0 f0 ff ff 	mov    %rax,-0xf50(%rbp)
    dfaa:	48 8d 85 38 ed ff ff 	lea    -0x12c8(%rbp),%rax
    dfb1:	48 89 85 b8 f0 ff ff 	mov    %rax,-0xf48(%rbp)
    dfb8:	48 8d 85 24 ed ff ff 	lea    -0x12dc(%rbp),%rax
    dfbf:	48 89 85 c0 f0 ff ff 	mov    %rax,-0xf40(%rbp)
    dfc6:	48 8d 05 db 44 01 00 	lea    0x144db(%rip),%rax        # 224a8 <g_35>
    dfcd:	48 89 85 c8 f0 ff ff 	mov    %rax,-0xf38(%rbp)
    dfd4:	48 8d 85 38 ed ff ff 	lea    -0x12c8(%rbp),%rax
    dfdb:	48 89 85 d0 f0 ff ff 	mov    %rax,-0xf30(%rbp)
    dfe2:	48 8d 85 24 ed ff ff 	lea    -0x12dc(%rbp),%rax
    dfe9:	48 89 85 d8 f0 ff ff 	mov    %rax,-0xf28(%rbp)
    dff0:	48 8d 85 34 ed ff ff 	lea    -0x12cc(%rbp),%rax
    dff7:	48 89 85 e0 f0 ff ff 	mov    %rax,-0xf20(%rbp)
    dffe:	48 8d 85 24 ed ff ff 	lea    -0x12dc(%rbp),%rax
    e005:	48 89 85 e8 f0 ff ff 	mov    %rax,-0xf18(%rbp)
    e00c:	48 8d 85 38 ed ff ff 	lea    -0x12c8(%rbp),%rax
    e013:	48 89 85 f0 f0 ff ff 	mov    %rax,-0xf10(%rbp)
    e01a:	48 8d 05 87 44 01 00 	lea    0x14487(%rip),%rax        # 224a8 <g_35>
    e021:	48 89 85 f8 f0 ff ff 	mov    %rax,-0xf08(%rbp)
    e028:	48 8d 85 38 ed ff ff 	lea    -0x12c8(%rbp),%rax
    e02f:	48 89 85 00 f1 ff ff 	mov    %rax,-0xf00(%rbp)
    e036:	48 8d 05 c3 f8 00 00 	lea    0xf8c3(%rip),%rax        # 1d900 <g_267>
    e03d:	48 89 85 08 f1 ff ff 	mov    %rax,-0xef8(%rbp)
    e044:	48 8d 85 28 ed ff ff 	lea    -0x12d8(%rbp),%rax
    e04b:	48 89 85 10 f1 ff ff 	mov    %rax,-0xef0(%rbp)
    e052:	48 8d 85 20 ed ff ff 	lea    -0x12e0(%rbp),%rax
    e059:	48 89 85 18 f1 ff ff 	mov    %rax,-0xee8(%rbp)
    e060:	48 8d 05 39 01 01 00 	lea    0x10139(%rip),%rax        # 1e1a0 <g_2398>
    e067:	48 89 85 20 f1 ff ff 	mov    %rax,-0xee0(%rbp)
    e06e:	48 8d 85 38 ed ff ff 	lea    -0x12c8(%rbp),%rax
    e075:	48 89 85 28 f1 ff ff 	mov    %rax,-0xed8(%rbp)
    e07c:	48 8d 85 3c ed ff ff 	lea    -0x12c4(%rbp),%rax
    e083:	48 89 85 30 f1 ff ff 	mov    %rax,-0xed0(%rbp)
    e08a:	48 8d 85 30 ed ff ff 	lea    -0x12d0(%rbp),%rax
    e091:	48 89 85 38 f1 ff ff 	mov    %rax,-0xec8(%rbp)
    e098:	48 8d 85 40 ed ff ff 	lea    -0x12c0(%rbp),%rax
    e09f:	48 89 85 40 f1 ff ff 	mov    %rax,-0xec0(%rbp)
    e0a6:	48 8d 85 3c ed ff ff 	lea    -0x12c4(%rbp),%rax
    e0ad:	48 89 85 48 f1 ff ff 	mov    %rax,-0xeb8(%rbp)
    e0b4:	48 8d 85 24 ed ff ff 	lea    -0x12dc(%rbp),%rax
    e0bb:	48 89 85 50 f1 ff ff 	mov    %rax,-0xeb0(%rbp)
    e0c2:	48 8d 85 44 ed ff ff 	lea    -0x12bc(%rbp),%rax
    e0c9:	48 89 85 58 f1 ff ff 	mov    %rax,-0xea8(%rbp)
    e0d0:	48 8d 85 38 ed ff ff 	lea    -0x12c8(%rbp),%rax
    e0d7:	48 89 85 60 f1 ff ff 	mov    %rax,-0xea0(%rbp)
    e0de:	48 8d 85 3c ed ff ff 	lea    -0x12c4(%rbp),%rax
    e0e5:	48 89 85 68 f1 ff ff 	mov    %rax,-0xe98(%rbp)
    e0ec:	48 8d 85 3c ed ff ff 	lea    -0x12c4(%rbp),%rax
    e0f3:	48 89 85 70 f1 ff ff 	mov    %rax,-0xe90(%rbp)
    e0fa:	48 8d 85 44 ed ff ff 	lea    -0x12bc(%rbp),%rax
    e101:	48 89 85 78 f1 ff ff 	mov    %rax,-0xe88(%rbp)
    e108:	48 8d 85 44 ed ff ff 	lea    -0x12bc(%rbp),%rax
    e10f:	48 89 85 80 f1 ff ff 	mov    %rax,-0xe80(%rbp)
    e116:	48 8d 85 44 ed ff ff 	lea    -0x12bc(%rbp),%rax
    e11d:	48 89 85 88 f1 ff ff 	mov    %rax,-0xe78(%rbp)
    e124:	48 8d 85 28 ed ff ff 	lea    -0x12d8(%rbp),%rax
    e12b:	48 89 85 90 f1 ff ff 	mov    %rax,-0xe70(%rbp)
    e132:	48 8d 85 40 ed ff ff 	lea    -0x12c0(%rbp),%rax
    e139:	48 89 85 98 f1 ff ff 	mov    %rax,-0xe68(%rbp)
    e140:	48 8d 85 38 ed ff ff 	lea    -0x12c8(%rbp),%rax
    e147:	48 89 85 a0 f1 ff ff 	mov    %rax,-0xe60(%rbp)
    e14e:	48 8d 85 38 ed ff ff 	lea    -0x12c8(%rbp),%rax
    e155:	48 89 85 a8 f1 ff ff 	mov    %rax,-0xe58(%rbp)
    e15c:	48 8d 85 40 ed ff ff 	lea    -0x12c0(%rbp),%rax
    e163:	48 89 85 b0 f1 ff ff 	mov    %rax,-0xe50(%rbp)
    e16a:	48 8d 85 18 ed ff ff 	lea    -0x12e8(%rbp),%rax
    e171:	48 89 85 b8 f1 ff ff 	mov    %rax,-0xe48(%rbp)
    e178:	48 8d 85 38 ed ff ff 	lea    -0x12c8(%rbp),%rax
    e17f:	48 89 85 c0 f1 ff ff 	mov    %rax,-0xe40(%rbp)
    e186:	48 8d 85 38 ed ff ff 	lea    -0x12c8(%rbp),%rax
    e18d:	48 89 85 c8 f1 ff ff 	mov    %rax,-0xe38(%rbp)
    e194:	48 8d 85 40 ed ff ff 	lea    -0x12c0(%rbp),%rax
    e19b:	48 89 85 d0 f1 ff ff 	mov    %rax,-0xe30(%rbp)
    e1a2:	48 8d 85 18 ed ff ff 	lea    -0x12e8(%rbp),%rax
    e1a9:	48 89 85 d8 f1 ff ff 	mov    %rax,-0xe28(%rbp)
    e1b0:	48 8d 85 24 ed ff ff 	lea    -0x12dc(%rbp),%rax
    e1b7:	48 89 85 e0 f1 ff ff 	mov    %rax,-0xe20(%rbp)
    e1be:	48 8d 85 1c ed ff ff 	lea    -0x12e4(%rbp),%rax
    e1c5:	48 89 85 e8 f1 ff ff 	mov    %rax,-0xe18(%rbp)
    e1cc:	48 8d 05 d5 42 01 00 	lea    0x142d5(%rip),%rax        # 224a8 <g_35>
    e1d3:	48 89 85 f0 f1 ff ff 	mov    %rax,-0xe10(%rbp)
    e1da:	48 8d 85 3c ed ff ff 	lea    -0x12c4(%rbp),%rax
    e1e1:	48 89 85 f8 f1 ff ff 	mov    %rax,-0xe08(%rbp)
    e1e8:	48 8d 85 2c ed ff ff 	lea    -0x12d4(%rbp),%rax
    e1ef:	48 89 85 00 f2 ff ff 	mov    %rax,-0xe00(%rbp)
    e1f6:	48 8d 85 40 ed ff ff 	lea    -0x12c0(%rbp),%rax
    e1fd:	48 89 85 08 f2 ff ff 	mov    %rax,-0xdf8(%rbp)
    e204:	48 8d 85 24 ed ff ff 	lea    -0x12dc(%rbp),%rax
    e20b:	48 89 85 10 f2 ff ff 	mov    %rax,-0xdf0(%rbp)
    e212:	48 8d 85 30 ed ff ff 	lea    -0x12d0(%rbp),%rax
    e219:	48 89 85 18 f2 ff ff 	mov    %rax,-0xde8(%rbp)
    e220:	48 8d 05 15 ee 00 00 	lea    0xee15(%rip),%rax        # 1d03c <g_99>
    e227:	48 89 85 20 f2 ff ff 	mov    %rax,-0xde0(%rbp)
    e22e:	48 8d 85 28 ed ff ff 	lea    -0x12d8(%rbp),%rax
    e235:	48 89 85 28 f2 ff ff 	mov    %rax,-0xdd8(%rbp)
    e23c:	48 8d 85 24 ed ff ff 	lea    -0x12dc(%rbp),%rax
    e243:	48 89 85 30 f2 ff ff 	mov    %rax,-0xdd0(%rbp)
    e24a:	48 8d 85 3c ed ff ff 	lea    -0x12c4(%rbp),%rax
    e251:	48 89 85 38 f2 ff ff 	mov    %rax,-0xdc8(%rbp)
    e258:	c7 85 48 ed ff ff 01 	movl   $0x1,-0x12b8(%rbp)
    e25f:	00 00 00 
    e262:	8b 05 c0 ed 00 00    	mov    0xedc0(%rip),%eax        # 1d028 <g_9>
    e268:	0f b6 85 f8 ec ff ff 	movzbl -0x1308(%rbp),%eax
    e26f:	0f b6 d8             	movzbl %al,%ebx
    e272:	44 8b a5 fc ec ff ff 	mov    -0x1304(%rbp),%r12d
    e279:	0f b6 05 a4 ed 00 00 	movzbl 0xeda4(%rip),%eax        # 1d024 <g_6>
    e280:	0f b6 c0             	movzbl %al,%eax
    e283:	89 85 f4 ec ff ff    	mov    %eax,-0x130c(%rbp)
    e289:	8b 85 fc ec ff ff    	mov    -0x1304(%rbp),%eax
    e28f:	4c 63 f0             	movslq %eax,%r14
    e292:	8b 85 18 ed ff ff    	mov    -0x12e8(%rbp),%eax
    e298:	4c 63 e8             	movslq %eax,%r13
    e29b:	0f b7 85 10 ed ff ff 	movzwl -0x12f0(%rbp),%eax
    e2a2:	44 0f bf f8          	movswl %ax,%r15d
    e2a6:	48 8b 85 d8 ed ff ff 	mov    -0x1228(%rbp),%rax
    e2ad:	0f be d0             	movsbl %al,%edx
    e2b0:	48 8b 85 d8 ed ff ff 	mov    -0x1228(%rbp),%rax
    e2b7:	89 c1                	mov    %eax,%ecx
    e2b9:	0f b6 05 64 ed 00 00 	movzbl 0xed64(%rip),%eax        # 1d024 <g_6>
    e2c0:	09 c8                	or     %ecx,%eax
    e2c2:	0f be c0             	movsbl %al,%eax
    e2c5:	89 d6                	mov    %edx,%esi
    e2c7:	89 c7                	mov    %eax,%edi
    e2c9:	e8 24 bf ff ff       	callq  a1f2 <safe_sub_func_int8_t_s_s>
    e2ce:	0f be c0             	movsbl %al,%eax
    e2d1:	44 89 fe             	mov    %r15d,%esi
    e2d4:	89 c7                	mov    %eax,%edi
    e2d6:	e8 2a c3 ff ff       	callq  a605 <safe_sub_func_int32_t_s_s>
    e2db:	8b 85 18 ed ff ff    	mov    -0x12e8(%rbp),%eax
    e2e1:	48 98                	cltq   
    e2e3:	48 89 c6             	mov    %rax,%rsi
    e2e6:	48 bf df f4 db 7d d0 	movabs $0x1eb64d07ddbf4df,%rdi
    e2ed:	64 eb 01 
    e2f0:	e8 8b cd ff ff       	callq  b080 <safe_mod_func_uint64_t_u_u>
    e2f5:	0f b6 0d 28 ed 00 00 	movzbl 0xed28(%rip),%ecx        # 1d024 <g_6>
    e2fc:	0f b6 95 f8 ec ff ff 	movzbl -0x1308(%rbp),%edx
    e303:	38 d1                	cmp    %dl,%cl
    e305:	0f 93 c2             	setae  %dl
    e308:	0f b6 d2             	movzbl %dl,%edx
    e30b:	48 39 d0             	cmp    %rdx,%rax
    e30e:	0f 96 c0             	setbe  %al
    e311:	0f b6 f0             	movzbl %al,%esi
    e314:	8b 85 fc ec ff ff    	mov    -0x1304(%rbp),%eax
    e31a:	98                   	cwtl   
    e31b:	44 8b 85 f4 ec ff ff 	mov    -0x130c(%rbp),%r8d
    e322:	4c 89 f1             	mov    %r14,%rcx
    e325:	4c 89 ea             	mov    %r13,%rdx
    e328:	89 c7                	mov    %eax,%edi
    e32a:	e8 02 65 00 00       	callq  14831 <func_19>
    e32f:	8b 8d 18 ed ff ff    	mov    -0x12e8(%rbp),%ecx
    e335:	48 8b 85 20 ee ff ff 	mov    -0x11e0(%rbp),%rax
    e33c:	48 8b 10             	mov    (%rax),%rdx
    e33f:	48 63 c1             	movslq %ecx,%rax
    e342:	48 21 c2             	and    %rax,%rdx
    e345:	48 8b 85 20 ee ff ff 	mov    -0x11e0(%rbp),%rax
    e34c:	48 89 10             	mov    %rdx,(%rax)
    e34f:	48 8b 85 20 ee ff ff 	mov    -0x11e0(%rbp),%rax
    e356:	48 8b 00             	mov    (%rax),%rax
    e359:	48 83 f8 06          	cmp    $0x6,%rax
    e35d:	0f 95 c0             	setne  %al
    e360:	0f b6 c0             	movzbl %al,%eax
    e363:	f7 d0                	not    %eax
    e365:	44 89 e6             	mov    %r12d,%esi
    e368:	89 c7                	mov    %eax,%edi
    e36a:	e8 1a 14 00 00       	callq  f789 <func_15>
    e36f:	84 c0                	test   %al,%al
    e371:	75 0a                	jne    e37d <func_2+0x14f3>
    e373:	8b 85 fc ec ff ff    	mov    -0x1304(%rbp),%eax
    e379:	85 c0                	test   %eax,%eax
    e37b:	74 07                	je     e384 <func_2+0x14fa>
    e37d:	b8 01 00 00 00       	mov    $0x1,%eax
    e382:	eb 05                	jmp    e389 <func_2+0x14ff>
    e384:	b8 00 00 00 00       	mov    $0x0,%eax
    e389:	89 85 18 ed ff ff    	mov    %eax,-0x12e8(%rbp)
    e38f:	8b 85 18 ed ff ff    	mov    -0x12e8(%rbp),%eax
    e395:	89 c1                	mov    %eax,%ecx
    e397:	8b 85 fc ec ff ff    	mov    -0x1304(%rbp),%eax
    e39d:	48 98                	cltq   
    e39f:	89 da                	mov    %ebx,%edx
    e3a1:	89 ce                	mov    %ecx,%esi
    e3a3:	48 89 c7             	mov    %rax,%rdi
    e3a6:	e8 67 13 00 00       	callq  f712 <func_10>
    e3ab:	48 85 c0             	test   %rax,%rax
    e3ae:	74 13                	je     e3c3 <func_2+0x1539>
    e3b0:	0f b7 85 10 ed ff ff 	movzwl -0x12f0(%rbp),%eax
    e3b7:	66 85 c0             	test   %ax,%ax
    e3ba:	74 07                	je     e3c3 <func_2+0x1539>
    e3bc:	b8 01 00 00 00       	mov    $0x1,%eax
    e3c1:	eb 05                	jmp    e3c8 <func_2+0x153e>
    e3c3:	b8 00 00 00 00       	mov    $0x0,%eax
    e3c8:	89 85 fc ec ff ff    	mov    %eax,-0x1304(%rbp)
    e3ce:	48 8b 85 d8 ed ff ff 	mov    -0x1228(%rbp),%rax
    e3d5:	48 83 f8 01          	cmp    $0x1,%rax
    e3d9:	0f 96 c0             	setbe  %al
    e3dc:	0f b6 d0             	movzbl %al,%edx
    e3df:	0f b7 85 10 ed ff ff 	movzwl -0x12f0(%rbp),%eax
    e3e6:	98                   	cwtl   
    e3e7:	21 c2                	and    %eax,%edx
    e3e9:	48 8b 85 f0 ed ff ff 	mov    -0x1210(%rbp),%rax
    e3f0:	8b 00                	mov    (%rax),%eax
    e3f2:	31 c2                	xor    %eax,%edx
    e3f4:	48 8b 85 f0 ed ff ff 	mov    -0x1210(%rbp),%rax
    e3fb:	89 10                	mov    %edx,(%rax)
    e3fd:	48 8b 85 b8 ed ff ff 	mov    -0x1248(%rbp),%rax
    e404:	48 89 85 b8 ed ff ff 	mov    %rax,-0x1248(%rbp)
    e40b:	48 8b 95 b8 ed ff ff 	mov    -0x1248(%rbp),%rdx
    e412:	48 8d 85 f8 ec ff ff 	lea    -0x1308(%rbp),%rax
    e419:	48 39 c2             	cmp    %rax,%rdx
    e41c:	be 14 00 00 00       	mov    $0x14,%esi
    e421:	bf fe ff ff ff       	mov    $0xfffffffe,%edi
    e426:	e8 a9 bd ff ff       	callq  a1d4 <safe_add_func_int8_t_s_s>
    e42b:	0f b6 45 c7          	movzbl -0x39(%rbp),%eax
    e42f:	0f b6 d0             	movzbl %al,%edx
    e432:	8b 85 18 ed ff ff    	mov    -0x12e8(%rbp),%eax
    e438:	09 d0                	or     %edx,%eax
    e43a:	89 85 18 ed ff ff    	mov    %eax,-0x12e8(%rbp)
    e440:	8b 85 18 ed ff ff    	mov    -0x12e8(%rbp),%eax
    e446:	85 c0                	test   %eax,%eax
    e448:	0f 9f c0             	setg   %al
    e44b:	0f b6 c0             	movzbl %al,%eax
    e44e:	8b 95 fc ec ff ff    	mov    -0x1304(%rbp),%edx
    e454:	89 c6                	mov    %eax,%esi
    e456:	89 d7                	mov    %edx,%edi
    e458:	e8 5b ca ff ff       	callq  aeb8 <safe_add_func_uint32_t_u_u>
    e45d:	48 8b 95 f0 ed ff ff 	mov    -0x1210(%rbp),%rdx
    e464:	8b 12                	mov    (%rdx),%edx
    e466:	21 d0                	and    %edx,%eax
    e468:	85 c0                	test   %eax,%eax
    e46a:	0f 84 a6 09 00 00    	je     ee16 <func_2+0x1f8c>
    e470:	48 8d 85 70 ef ff ff 	lea    -0x1090(%rbp),%rax
    e477:	48 83 c0 30          	add    $0x30,%rax
    e47b:	48 89 85 c8 ee ff ff 	mov    %rax,-0x1138(%rbp)
    e482:	c7 85 9c ed ff ff 00 	movl   $0x0,-0x1264(%rbp)
    e489:	00 00 00 
    e48c:	48 8d 05 07 f5 00 00 	lea    0xf507(%rip),%rax        # 1d99a <g_412>
    e493:	48 89 85 d0 ee ff ff 	mov    %rax,-0x1130(%rbp)
    e49a:	48 8b 05 07 25 01 00 	mov    0x12507(%rip),%rax        # 209a8 <g_1297>
    e4a1:	48 8b 08             	mov    (%rax),%rcx
    e4a4:	48 8b 95 a0 ef ff ff 	mov    -0x1060(%rbp),%rdx
    e4ab:	48 8b 85 c8 ee ff ff 	mov    -0x1138(%rbp),%rax
    e4b2:	48 89 10             	mov    %rdx,(%rax)
    e4b5:	48 8b 85 c8 ee ff ff 	mov    -0x1138(%rbp),%rax
    e4bc:	48 8b 00             	mov    (%rax),%rax
    e4bf:	48 39 c1             	cmp    %rax,%rcx
    e4c2:	0f 95 c0             	setne  %al
    e4c5:	0f b6 c0             	movzbl %al,%eax
    e4c8:	8b 95 9c ed ff ff    	mov    -0x1264(%rbp),%edx
    e4ce:	81 ca b5 1c 00 00    	or     $0x1cb5,%edx
    e4d4:	39 d0                	cmp    %edx,%eax
    e4d6:	7c 0b                	jl     e4e3 <func_2+0x1659>
    e4d8:	8b 85 9c ed ff ff    	mov    -0x1264(%rbp),%eax
    e4de:	e9 09 12 00 00       	jmpq   f6ec <func_2+0x2862>
    e4e3:	48 8d 85 40 f2 ff ff 	lea    -0xdc0(%rbp),%rax
    e4ea:	48 8d 15 cf 00 01 00 	lea    0x100cf(%rip),%rdx        # 1e5c0 <g_3068+0x298>
    e4f1:	b9 46 00 00 00       	mov    $0x46,%ecx
    e4f6:	48 89 c7             	mov    %rax,%rdi
    e4f9:	48 89 d6             	mov    %rdx,%rsi
    e4fc:	f3 48 a5             	rep movsq %ds:(%rsi),%es:(%rdi)
    e4ff:	c7 85 40 ef ff ff c0 	movl   $0xfc3278c0,-0x10c0(%rbp)
    e506:	78 32 fc 
    e509:	c7 85 44 ef ff ff c0 	movl   $0xfc3278c0,-0x10bc(%rbp)
    e510:	78 32 fc 
    e513:	c7 85 48 ef ff ff c0 	movl   $0xfc3278c0,-0x10b8(%rbp)
    e51a:	78 32 fc 
    e51d:	c7 85 4c ef ff ff c0 	movl   $0xfc3278c0,-0x10b4(%rbp)
    e524:	78 32 fc 
    e527:	48 8d 05 12 1d 01 00 	lea    0x11d12(%rip),%rax        # 20240 <g_936>
    e52e:	48 89 85 d8 ee ff ff 	mov    %rax,-0x1128(%rbp)
    e535:	48 8d 05 24 19 01 00 	lea    0x11924(%rip),%rax        # 1fe60 <g_486>
    e53c:	48 89 85 e0 ee ff ff 	mov    %rax,-0x1120(%rbp)
    e543:	c7 05 53 fc 00 00 13 	movl   $0x13,0xfc53(%rip)        # 1e1a0 <g_2398>
    e54a:	00 00 00 
    e54d:	e9 02 01 00 00       	jmpq   e654 <func_2+0x17ca>
    e552:	48 8d 05 2f 3a 01 00 	lea    0x13a2f(%rip),%rax        # 21f88 <g_2304>
    e559:	48 89 85 00 ef ff ff 	mov    %rax,-0x1100(%rbp)
    e560:	c7 85 ac ed ff ff 8e 	movl   $0x2f09a68e,-0x1254(%rbp)
    e567:	a6 09 2f 
    e56a:	c7 85 64 ed ff ff 00 	movl   $0x0,-0x129c(%rbp)
    e571:	00 00 00 
    e574:	eb 1e                	jmp    e594 <func_2+0x170a>
    e576:	8b 85 64 ed ff ff    	mov    -0x129c(%rbp),%eax
    e57c:	48 98                	cltq   
    e57e:	48 8d 15 15 f4 00 00 	lea    0xf415(%rip),%rdx        # 1d99a <g_412>
    e585:	48 89 94 c5 b0 ef ff 	mov    %rdx,-0x1050(%rbp,%rax,8)
    e58c:	ff 
    e58d:	83 85 64 ed ff ff 01 	addl   $0x1,-0x129c(%rbp)
    e594:	83 bd 64 ed ff ff 04 	cmpl   $0x4,-0x129c(%rbp)
    e59b:	7e d9                	jle    e576 <func_2+0x16ec>
    e59d:	48 8b 15 ec 18 01 00 	mov    0x118ec(%rip),%rdx        # 1fe90 <g_496>
    e5a4:	48 8d 05 f5 23 01 00 	lea    0x123f5(%rip),%rax        # 209a0 <g_1299>
    e5ab:	48 8b 00             	mov    (%rax),%rax
    e5ae:	48 8b 12             	mov    (%rdx),%rdx
    e5b1:	48 89 10             	mov    %rdx,(%rax)
    e5b4:	48 8b 00             	mov    (%rax),%rax
    e5b7:	89 c2                	mov    %eax,%edx
    e5b9:	48 8b 85 30 f4 ff ff 	mov    -0xbd0(%rbp),%rax
    e5c0:	48 85 c0             	test   %rax,%rax
    e5c3:	0f 95 c0             	setne  %al
    e5c6:	0f b6 c0             	movzbl %al,%eax
    e5c9:	21 d0                	and    %edx,%eax
    e5cb:	98                   	cwtl   
    e5cc:	89 c7                	mov    %eax,%edi
    e5ce:	e8 ca bd ff ff       	callq  a39d <safe_unary_minus_func_int16_t_s>
    e5d3:	0f bf d0             	movswl %ax,%edx
    e5d6:	48 83 bd 00 ef ff ff 	cmpq   $0x0,-0x1100(%rbp)
    e5dd:	00 
    e5de:	0f 95 c0             	setne  %al
    e5e1:	0f b6 c0             	movzbl %al,%eax
    e5e4:	89 85 ac ed ff ff    	mov    %eax,-0x1254(%rbp)
    e5ea:	8b 85 ac ed ff ff    	mov    -0x1254(%rbp),%eax
    e5f0:	0f b7 c0             	movzwl %ax,%eax
    e5f3:	89 d6                	mov    %edx,%esi
    e5f5:	89 c7                	mov    %eax,%edi
    e5f7:	e8 7e c8 ff ff       	callq  ae7a <safe_rshift_func_uint16_t_u_u>
    e5fc:	8b 85 9c ed ff ff    	mov    -0x1264(%rbp),%eax
    e602:	89 c6                	mov    %eax,%esi
    e604:	bf fc 63 00 00       	mov    $0x63fc,%edi
    e609:	e8 f1 c0 ff ff       	callq  a6ff <safe_div_func_int32_t_s_s>
    e60e:	be 01 00 00 00       	mov    $0x1,%esi
    e613:	bf 05 00 00 00       	mov    $0x5,%edi
    e618:	e8 5b c5 ff ff       	callq  ab78 <safe_sub_func_uint8_t_u_u>
    e61d:	b9 00 00 00 00       	mov    $0x0,%ecx
    e622:	48 8b 05 67 23 01 00 	mov    0x12367(%rip),%rax        # 20990 <g_1169>
    e629:	8b 10                	mov    (%rax),%edx
    e62b:	48 8b 05 5e 23 01 00 	mov    0x1235e(%rip),%rax        # 20990 <g_1169>
    e632:	21 ca                	and    %ecx,%edx
    e634:	89 10                	mov    %edx,(%rax)
    e636:	8b 05 64 fb 00 00    	mov    0xfb64(%rip),%eax        # 1e1a0 <g_2398>
    e63c:	0f be c0             	movsbl %al,%eax
    e63f:	be 01 00 00 00       	mov    $0x1,%esi
    e644:	89 c7                	mov    %eax,%edi
    e646:	e8 a7 bb ff ff       	callq  a1f2 <safe_sub_func_int8_t_s_s>
    e64b:	0f be c0             	movsbl %al,%eax
    e64e:	89 05 4c fb 00 00    	mov    %eax,0xfb4c(%rip)        # 1e1a0 <g_2398>
    e654:	8b 05 46 fb 00 00    	mov    0xfb46(%rip),%eax        # 1e1a0 <g_2398>
    e65a:	83 f8 0c             	cmp    $0xc,%eax
    e65d:	0f 85 ef fe ff ff    	jne    e552 <func_2+0x16c8>
    e663:	66 c7 85 10 ed ff ff 	movw   $0x0,-0x12f0(%rbp)
    e66a:	00 00 
    e66c:	90                   	nop
    e66d:	0f b7 85 10 ed ff ff 	movzwl -0x12f0(%rbp),%eax
    e674:	66 83 f8 e9          	cmp    $0xffe9,%ax
    e678:	0f 84 9f 04 00 00    	je     eb1d <func_2+0x1c93>
    e67e:	c6 85 0d ed ff ff 78 	movb   $0x78,-0x12f3(%rbp)
    e685:	48 b8 38 23 23 38 23 	movabs $0x2338232338232338,%rax
    e68c:	23 38 23 
    e68f:	48 89 45 b7          	mov    %rax,-0x49(%rbp)
    e693:	48 8d 05 06 fb 00 00 	lea    0xfb06(%rip),%rax        # 1e1a0 <g_2398>
    e69a:	48 89 85 e8 ee ff ff 	mov    %rax,-0x1118(%rbp)
    e6a1:	48 c7 85 f0 ee ff ff 	movq   $0x0,-0x1110(%rbp)
    e6a8:	00 00 00 00 
    e6ac:	48 8b 05 d5 38 01 00 	mov    0x138d5(%rip),%rax        # 21f88 <g_2304>
    e6b3:	48 8b 00             	mov    (%rax),%rax
    e6b6:	48 8b 00             	mov    (%rax),%rax
    e6b9:	48 85 c0             	test   %rax,%rax
    e6bc:	0f 95 c0             	setne  %al
    e6bf:	0f b6 c0             	movzbl %al,%eax
    e6c2:	be 06 00 00 00       	mov    $0x6,%esi
    e6c7:	89 c7                	mov    %eax,%edi
    e6c9:	e8 ac c7 ff ff       	callq  ae7a <safe_rshift_func_uint16_t_u_u>
    e6ce:	66 85 c0             	test   %ax,%ax
    e6d1:	74 28                	je     e6fb <func_2+0x1871>
    e6d3:	48 8b 05 8e 38 01 00 	mov    0x1388e(%rip),%rax        # 21f68 <g_2197>
    e6da:	48 8b 00             	mov    (%rax),%rax
    e6dd:	48 89 c6             	mov    %rax,%rsi
    e6e0:	48 bf 54 03 38 d5 c0 	movabs $0x40e03fc0d5380354,%rdi
    e6e7:	3f e0 40 
    e6ea:	e8 b9 c1 ff ff       	callq  a8a8 <safe_sub_func_int64_t_s_s>
    e6ef:	48 85 c0             	test   %rax,%rax
    e6f2:	74 07                	je     e6fb <func_2+0x1871>
    e6f4:	b9 01 00 00 00       	mov    $0x1,%ecx
    e6f9:	eb 05                	jmp    e700 <func_2+0x1876>
    e6fb:	b9 00 00 00 00       	mov    $0x0,%ecx
    e700:	48 8b 05 49 17 01 00 	mov    0x11749(%rip),%rax        # 1fe50 <g_56>
    e707:	0f b7 10             	movzwl (%rax),%edx
    e70a:	48 8b 05 3f 17 01 00 	mov    0x1173f(%rip),%rax        # 1fe50 <g_56>
    e711:	09 ca                	or     %ecx,%edx
    e713:	66 89 10             	mov    %dx,(%rax)
    e716:	0f b7 00             	movzwl (%rax),%eax
    e719:	0f b7 d0             	movzwl %ax,%edx
    e71c:	0f b6 85 f8 ec ff ff 	movzbl -0x1308(%rbp),%eax
    e723:	0f b6 c0             	movzbl %al,%eax
    e726:	89 d6                	mov    %edx,%esi
    e728:	89 c7                	mov    %eax,%edi
    e72a:	e8 d0 c5 ff ff       	callq  acff <safe_add_func_uint16_t_u_u>
    e72f:	66 85 c0             	test   %ax,%ax
    e732:	74 59                	je     e78d <func_2+0x1903>
    e734:	0f b6 45 c7          	movzbl -0x39(%rbp),%eax
    e738:	0f b6 c0             	movzbl %al,%eax
    e73b:	89 85 18 ed ff ff    	mov    %eax,-0x12e8(%rbp)
    e741:	83 bd 9c ed ff ff 09 	cmpl   $0x9,-0x1264(%rbp)
    e748:	7e 11                	jle    e75b <func_2+0x18d1>
    e74a:	8b 05 b0 3d 01 00    	mov    0x13db0(%rip),%eax        # 22500 <g_1434>
    e750:	85 c0                	test   %eax,%eax
    e752:	74 07                	je     e75b <func_2+0x18d1>
    e754:	ba 01 00 00 00       	mov    $0x1,%edx
    e759:	eb 05                	jmp    e760 <func_2+0x18d6>
    e75b:	ba 00 00 00 00       	mov    $0x0,%edx
    e760:	48 8b 85 f0 ed ff ff 	mov    -0x1210(%rbp),%rax
    e767:	8b 00                	mov    (%rax),%eax
    e769:	09 c2                	or     %eax,%edx
    e76b:	48 8b 85 f0 ed ff ff 	mov    -0x1210(%rbp),%rax
    e772:	89 10                	mov    %edx,(%rax)
    e774:	48 8b 85 f0 ed ff ff 	mov    -0x1210(%rbp),%rax
    e77b:	8b 10                	mov    (%rax),%edx
    e77d:	8b 85 fc ec ff ff    	mov    -0x1304(%rbp),%eax
    e783:	31 d0                	xor    %edx,%eax
    e785:	89 85 fc ec ff ff    	mov    %eax,-0x1304(%rbp)
    e78b:	eb 37                	jmp    e7c4 <func_2+0x193a>
    e78d:	c7 85 a4 ed ff ff 27 	movl   $0x81df8527,-0x125c(%rbp)
    e794:	85 df 81 
    e797:	48 8d 05 0a 3d 01 00 	lea    0x13d0a(%rip),%rax        # 224a8 <g_35>
    e79e:	48 89 85 f8 ee ff ff 	mov    %rax,-0x1108(%rbp)
    e7a5:	0f b7 05 f8 f9 00 00 	movzwl 0xf9f8(%rip),%eax        # 1e1a4 <g_2439>
    e7ac:	83 c0 01             	add    $0x1,%eax
    e7af:	66 89 05 ee f9 00 00 	mov    %ax,0xf9ee(%rip)        # 1e1a4 <g_2439>
    e7b6:	48 8d 85 fc ec ff ff 	lea    -0x1304(%rbp),%rax
    e7bd:	48 89 85 f8 ee ff ff 	mov    %rax,-0x1108(%rbp)
    e7c4:	c7 05 d6 f2 00 00 e4 	movl   $0xffffffe4,0xf2d6(%rip)        # 1daa4 <g_1149>
    e7cb:	ff ff ff 
    e7ce:	e9 97 01 00 00       	jmpq   e96a <func_2+0x1ae0>
    e7d3:	c6 85 0f ed ff ff fa 	movb   $0xfa,-0x12f1(%rbp)
    e7da:	c7 85 a8 ed ff ff 01 	movl   $0x1,-0x1258(%rbp)
    e7e1:	00 00 00 
    e7e4:	48 8b 85 f0 ed ff ff 	mov    -0x1210(%rbp),%rax
    e7eb:	8b 00                	mov    (%rax),%eax
    e7ed:	48 63 d8             	movslq %eax,%rbx
    e7f0:	8b 85 fc ec ff ff    	mov    -0x1304(%rbp),%eax
    e7f6:	44 0f b7 e0          	movzwl %ax,%r12d
    e7fa:	48 8b 05 e7 34 01 00 	mov    0x134e7(%rip),%rax        # 21ce8 <g_1994>
    e801:	48 8b 00             	mov    (%rax),%rax
    e804:	48 8b 00             	mov    (%rax),%rax
    e807:	0f b7 00             	movzwl (%rax),%eax
    e80a:	44 0f bf f0          	movswl %ax,%r14d
    e80e:	0f b6 85 f8 ec ff ff 	movzbl -0x1308(%rbp),%eax
    e815:	44 0f b6 e8          	movzbl %al,%r13d
    e819:	48 83 bd d0 ee ff ff 	cmpq   $0x0,-0x1130(%rbp)
    e820:	00 
    e821:	74 07                	je     e82a <func_2+0x19a0>
    e823:	ba fe ff 00 00       	mov    $0xfffe,%edx
    e828:	eb 05                	jmp    e82f <func_2+0x19a5>
    e82a:	ba ff ff 00 00       	mov    $0xffff,%edx
    e82f:	48 0f be 85 0d ed ff 	movsbq -0x12f3(%rbp),%rax
    e836:	ff 
    e837:	48 39 c2             	cmp    %rax,%rdx
    e83a:	0f 97 c0             	seta   %al
    e83d:	0f b6 d0             	movzbl %al,%edx
    e840:	8b 05 ea f2 00 00    	mov    0xf2ea(%rip),%eax        # 1db30 <g_1650+0x10>
    e846:	39 c2                	cmp    %eax,%edx
    e848:	0f 96 c0             	setbe  %al
    e84b:	0f b6 d0             	movzbl %al,%edx
    e84e:	0f be 85 0f ed ff ff 	movsbl -0x12f1(%rbp),%eax
    e855:	39 c2                	cmp    %eax,%edx
    e857:	7e 0a                	jle    e863 <func_2+0x19d9>
    e859:	8b 85 fc ec ff ff    	mov    -0x1304(%rbp),%eax
    e85f:	85 c0                	test   %eax,%eax
    e861:	74 07                	je     e86a <func_2+0x19e0>
    e863:	b8 01 00 00 00       	mov    $0x1,%eax
    e868:	eb 05                	jmp    e86f <func_2+0x19e5>
    e86a:	b8 00 00 00 00       	mov    $0x0,%eax
    e86f:	be 50 a8 bd 77       	mov    $0x77bda850,%esi
    e874:	89 c7                	mov    %eax,%edi
    e876:	e8 3d c6 ff ff       	callq  aeb8 <safe_add_func_uint32_t_u_u>
    e87b:	8b 85 fc ec ff ff    	mov    -0x1304(%rbp),%eax
    e881:	85 c0                	test   %eax,%eax
    e883:	0f 95 c0             	setne  %al
    e886:	0f b6 c0             	movzbl %al,%eax
    e889:	f7 d0                	not    %eax
    e88b:	89 c2                	mov    %eax,%edx
    e88d:	0f b6 85 f8 ec ff ff 	movzbl -0x1308(%rbp),%eax
    e894:	0f b6 c0             	movzbl %al,%eax
    e897:	09 c2                	or     %eax,%edx
    e899:	0f b6 85 f8 ec ff ff 	movzbl -0x1308(%rbp),%eax
    e8a0:	0f b6 c0             	movzbl %al,%eax
    e8a3:	39 c2                	cmp    %eax,%edx
    e8a5:	0f 9d c0             	setge  %al
    e8a8:	0f b6 c0             	movzbl %al,%eax
    e8ab:	4c 89 ee             	mov    %r13,%rsi
    e8ae:	48 89 c7             	mov    %rax,%rdi
    e8b1:	e8 8b bf ff ff       	callq  a841 <safe_add_func_int64_t_s_s>
    e8b6:	48 0f be 95 0f ed ff 	movsbq -0x12f1(%rbp),%rdx
    e8bd:	ff 
    e8be:	48 31 d0             	xor    %rdx,%rax
    e8c1:	48 83 f8 01          	cmp    $0x1,%rax
    e8c5:	0f 9f c0             	setg   %al
    e8c8:	0f b6 c0             	movzbl %al,%eax
    e8cb:	41 39 c6             	cmp    %eax,%r14d
    e8ce:	0f 9f c0             	setg   %al
    e8d1:	0f b6 c0             	movzbl %al,%eax
    e8d4:	be fe ff ff ff       	mov    $0xfffffffe,%esi
    e8d9:	89 c7                	mov    %eax,%edi
    e8db:	e8 12 b9 ff ff       	callq  a1f2 <safe_sub_func_int8_t_s_s>
    e8e0:	66 98                	cbtw   
    e8e2:	0f b7 c0             	movzwl %ax,%eax
    e8e5:	44 89 e6             	mov    %r12d,%esi
    e8e8:	89 c7                	mov    %eax,%edi
    e8ea:	e8 10 c4 ff ff       	callq  acff <safe_add_func_uint16_t_u_u>
    e8ef:	0f b7 c0             	movzwl %ax,%eax
    e8f2:	48 89 de             	mov    %rbx,%rsi
    e8f5:	48 89 c7             	mov    %rax,%rdi
    e8f8:	e8 31 c7 ff ff       	callq  b02e <safe_add_func_uint64_t_u_u>
    e8fd:	0f b6 95 0b ed ff ff 	movzbl -0x12f5(%rbp),%edx
    e904:	48 39 d0             	cmp    %rdx,%rax
    e907:	75 09                	jne    e912 <func_2+0x1a88>
    e909:	80 bd 0d ed ff ff 00 	cmpb   $0x0,-0x12f3(%rbp)
    e910:	74 07                	je     e919 <func_2+0x1a8f>
    e912:	ba 01 00 00 00       	mov    $0x1,%edx
    e917:	eb 05                	jmp    e91e <func_2+0x1a94>
    e919:	ba 00 00 00 00       	mov    $0x0,%edx
    e91e:	0f be 85 0d ed ff ff 	movsbl -0x12f3(%rbp),%eax
    e925:	39 c2                	cmp    %eax,%edx
    e927:	7c 19                	jl     e942 <func_2+0x1ab8>
    e929:	48 8d 05 70 20 01 00 	lea    0x12070(%rip),%rax        # 209a0 <g_1299>
    e930:	48 8b 00             	mov    (%rax),%rax
    e933:	48 8b 00             	mov    (%rax),%rax
    e936:	48 85 c0             	test   %rax,%rax
    e939:	74 07                	je     e942 <func_2+0x1ab8>
    e93b:	ba 01 00 00 00       	mov    $0x1,%edx
    e940:	eb 05                	jmp    e947 <func_2+0x1abd>
    e942:	ba 00 00 00 00       	mov    $0x0,%edx
    e947:	8b 85 fc ec ff ff    	mov    -0x1304(%rbp),%eax
    e94d:	39 c2                	cmp    %eax,%edx
    e94f:	0f 95 c0             	setne  %al
    e952:	0f b6 c0             	movzbl %al,%eax
    e955:	31 85 a8 ed ff ff    	xor    %eax,-0x1258(%rbp)
    e95b:	8b 05 43 f1 00 00    	mov    0xf143(%rip),%eax        # 1daa4 <g_1149>
    e961:	83 c0 01             	add    $0x1,%eax
    e964:	89 05 3a f1 00 00    	mov    %eax,0xf13a(%rip)        # 1daa4 <g_1149>
    e96a:	8b 05 34 f1 00 00    	mov    0xf134(%rip),%eax        # 1daa4 <g_1149>
    e970:	83 f8 20             	cmp    $0x20,%eax
    e973:	0f 86 5a fe ff ff    	jbe    e7d3 <func_2+0x1949>
    e979:	48 8d 05 ae e6 00 00 	lea    0xe6ae(%rip),%rax        # 1d02e <g_57>
    e980:	48 89 85 b0 ef ff ff 	mov    %rax,-0x1050(%rbp)
    e987:	48 8d 05 a0 e6 00 00 	lea    0xe6a0(%rip),%rax        # 1d02e <g_57>
    e98e:	48 89 85 b8 ef ff ff 	mov    %rax,-0x1048(%rbp)
    e995:	48 8d 05 92 e6 00 00 	lea    0xe692(%rip),%rax        # 1d02e <g_57>
    e99c:	48 89 85 c0 ef ff ff 	mov    %rax,-0x1040(%rbp)
    e9a3:	48 8d 05 84 e6 00 00 	lea    0xe684(%rip),%rax        # 1d02e <g_57>
    e9aa:	48 89 85 c8 ef ff ff 	mov    %rax,-0x1038(%rbp)
    e9b1:	48 8d 05 76 e6 00 00 	lea    0xe676(%rip),%rax        # 1d02e <g_57>
    e9b8:	48 89 85 d0 ef ff ff 	mov    %rax,-0x1030(%rbp)
    e9bf:	c6 85 0e ed ff ff fd 	movb   $0xfd,-0x12f2(%rbp)
    e9c6:	c7 85 68 ed ff ff 00 	movl   $0x0,-0x1298(%rbp)
    e9cd:	00 00 00 
    e9d0:	eb 1a                	jmp    e9ec <func_2+0x1b62>
    e9d2:	8b 85 68 ed ff ff    	mov    -0x1298(%rbp),%eax
    e9d8:	48 98                	cltq   
    e9da:	c7 84 85 20 ef ff ff 	movl   $0xfffffff7,-0x10e0(%rbp,%rax,4)
    e9e1:	f7 ff ff ff 
    e9e5:	83 85 68 ed ff ff 01 	addl   $0x1,-0x1298(%rbp)
    e9ec:	83 bd 68 ed ff ff 02 	cmpl   $0x2,-0x1298(%rbp)
    e9f3:	7e dd                	jle    e9d2 <func_2+0x1b48>
    e9f5:	48 8b 05 d4 35 01 00 	mov    0x135d4(%rip),%rax        # 21fd0 <g_2383>
    e9fc:	48 8d 95 fc ec ff ff 	lea    -0x1304(%rbp),%rdx
    ea03:	48 89 10             	mov    %rdx,(%rax)
    ea06:	48 8b 05 cb 35 01 00 	mov    0x135cb(%rip),%rax        # 21fd8 <g_2394>
    ea0d:	48 c7 00 00 00 00 00 	movq   $0x0,(%rax)
    ea14:	0f b6 45 c6          	movzbl -0x3a(%rbp),%eax
    ea18:	0f b6 d8             	movzbl %al,%ebx
    ea1b:	8b 85 20 ef ff ff    	mov    -0x10e0(%rbp),%eax
    ea21:	41 89 c4             	mov    %eax,%r12d
    ea24:	48 8b 85 e8 ee ff ff 	mov    -0x1118(%rbp),%rax
    ea2b:	8b 00                	mov    (%rax),%eax
    ea2d:	0f be d0             	movsbl %al,%edx
    ea30:	8b 85 fc ec ff ff    	mov    -0x1304(%rbp),%eax
    ea36:	85 c0                	test   %eax,%eax
    ea38:	74 12                	je     ea4c <func_2+0x1bc2>
    ea3a:	0f b6 85 f8 ec ff ff 	movzbl -0x1308(%rbp),%eax
    ea41:	84 c0                	test   %al,%al
    ea43:	74 07                	je     ea4c <func_2+0x1bc2>
    ea45:	b8 01 00 00 00       	mov    $0x1,%eax
    ea4a:	eb 05                	jmp    ea51 <func_2+0x1bc7>
    ea4c:	b8 00 00 00 00       	mov    $0x0,%eax
    ea51:	83 f8 01             	cmp    $0x1,%eax
    ea54:	0f 95 c0             	setne  %al
    ea57:	0f b6 c8             	movzbl %al,%ecx
    ea5a:	48 8b 85 e8 ee ff ff 	mov    -0x1118(%rbp),%rax
    ea61:	8b 00                	mov    (%rax),%eax
    ea63:	39 c1                	cmp    %eax,%ecx
    ea65:	0f 95 c0             	setne  %al
    ea68:	0f b6 c0             	movzbl %al,%eax
    ea6b:	89 d6                	mov    %edx,%esi
    ea6d:	89 c7                	mov    %eax,%edi
    ea6f:	e8 bd b7 ff ff       	callq  a231 <safe_mod_func_int8_t_s_s>
    ea74:	44 31 e0             	xor    %r12d,%eax
    ea77:	0f be c0             	movsbl %al,%eax
    ea7a:	be 00 00 00 00       	mov    $0x0,%esi
    ea7f:	89 c7                	mov    %eax,%edi
    ea81:	e8 1b b8 ff ff       	callq  a2a1 <safe_lshift_func_int8_t_s_s>
    ea86:	44 0f be e0          	movsbl %al,%r12d
    ea8a:	48 83 bd f0 ee ff ff 	cmpq   $0x0,-0x1110(%rbp)
    ea91:	00 
    ea92:	0f 95 c0             	setne  %al
    ea95:	0f b6 d0             	movzbl %al,%edx
    ea98:	0f b6 85 f8 ec ff ff 	movzbl -0x1308(%rbp),%eax
    ea9f:	0f be c0             	movsbl %al,%eax
    eaa2:	89 d6                	mov    %edx,%esi
    eaa4:	89 c7                	mov    %eax,%edi
    eaa6:	e8 47 b7 ff ff       	callq  a1f2 <safe_sub_func_int8_t_s_s>
    eaab:	0f be c0             	movsbl %al,%eax
    eaae:	44 89 e6             	mov    %r12d,%esi
    eab1:	89 c7                	mov    %eax,%edi
    eab3:	e8 18 c4 ff ff       	callq  aed0 <safe_sub_func_uint32_t_u_u>
    eab8:	89 c2                	mov    %eax,%edx
    eaba:	48 8b 05 e7 f6 00 00 	mov    0xf6e7(%rip),%rax        # 1e1a8 <g_2498>
    eac1:	48 39 c2             	cmp    %rax,%rdx
    eac4:	0f 9e c0             	setle  %al
    eac7:	0f b6 c0             	movzbl %al,%eax
    eaca:	89 de                	mov    %ebx,%esi
    eacc:	89 c7                	mov    %eax,%edi
    eace:	e8 2a c4 ff ff       	callq  aefd <safe_mod_func_uint32_t_u_u>
    ead3:	be 07 00 00 00       	mov    $0x7,%esi
    ead8:	bf 00 00 00 00       	mov    $0x0,%edi
    eadd:	e8 53 b8 ff ff       	callq  a335 <safe_rshift_func_int8_t_s_s>
    eae2:	0f b6 c0             	movzbl %al,%eax
    eae5:	be 06 00 00 00       	mov    $0x6,%esi
    eaea:	89 c7                	mov    %eax,%edi
    eaec:	e8 5b c1 ff ff       	callq  ac4c <safe_lshift_func_uint8_t_u_u>
    eaf1:	84 c0                	test   %al,%al
    eaf3:	0f 94 c0             	sete   %al
    eaf6:	0f b6 c0             	movzbl %al,%eax
    eaf9:	be 05 00 00 00       	mov    $0x5,%esi
    eafe:	89 c7                	mov    %eax,%edi
    eb00:	e8 25 ba ff ff       	callq  a52a <safe_rshift_func_int16_t_s_s>
    eb05:	0f bf d0             	movswl %ax,%edx
    eb08:	48 8b 85 e8 ee ff ff 	mov    -0x1118(%rbp),%rax
    eb0f:	89 10                	mov    %edx,(%rax)
    eb11:	0f be 85 0e ed ff ff 	movsbl -0x12f2(%rbp),%eax
    eb18:	e9 cf 0b 00 00       	jmpq   f6ec <func_2+0x2862>
    eb1d:	48 8b 05 4c 34 01 00 	mov    0x1344c(%rip),%rax        # 21f70 <g_2196>
    eb24:	48 8b 00             	mov    (%rax),%rax
    eb27:	48 8b 18             	mov    (%rax),%rbx
    eb2a:	48 8d 85 b8 ed ff ff 	lea    -0x1248(%rbp),%rax
    eb31:	48 89 85 c0 ed ff ff 	mov    %rax,-0x1240(%rbp)
    eb38:	48 8b 95 c0 ed ff ff 	mov    -0x1240(%rbp),%rdx
    eb3f:	48 8b 85 d8 ee ff ff 	mov    -0x1128(%rbp),%rax
    eb46:	48 c7 00 00 00 00 00 	movq   $0x0,(%rax)
    eb4d:	48 8b 85 d8 ee ff ff 	mov    -0x1128(%rbp),%rax
    eb54:	48 8b 00             	mov    (%rax),%rax
    eb57:	48 39 c2             	cmp    %rax,%rdx
    eb5a:	0f 95 c0             	setne  %al
    eb5d:	44 0f b6 e0          	movzbl %al,%r12d
    eb61:	8b 85 9c ed ff ff    	mov    -0x1264(%rbp),%eax
    eb67:	0f b7 c0             	movzwl %ax,%eax
    eb6a:	89 c6                	mov    %eax,%esi
    eb6c:	bf 8d a6 00 00       	mov    $0xa68d,%edi
    eb71:	e8 c7 c1 ff ff       	callq  ad3d <safe_mul_func_uint16_t_u_u>
    eb76:	0f b7 c0             	movzwl %ax,%eax
    eb79:	41 39 c4             	cmp    %eax,%r12d
    eb7c:	0f 9f c0             	setg   %al
    eb7f:	0f b6 c0             	movzbl %al,%eax
    eb82:	8b 95 9c ed ff ff    	mov    -0x1264(%rbp),%edx
    eb88:	89 d6                	mov    %edx,%esi
    eb8a:	89 c7                	mov    %eax,%edi
    eb8c:	e8 3b bb ff ff       	callq  a6cc <safe_mod_func_int32_t_s_s>
    eb91:	3d 8c 00 00 00       	cmp    $0x8c,%eax
    eb96:	0f 9f c0             	setg   %al
    eb99:	0f b6 c0             	movzbl %al,%eax
    eb9c:	be 04 00 00 00       	mov    $0x4,%esi
    eba1:	89 c7                	mov    %eax,%edi
    eba3:	e8 5d c0 ff ff       	callq  ac05 <safe_lshift_func_uint8_t_u_s>
    eba8:	0f b6 d0             	movzbl %al,%edx
    ebab:	48 8b 85 f0 ed ff ff 	mov    -0x1210(%rbp),%rax
    ebb2:	89 10                	mov    %edx,(%rax)
    ebb4:	48 8b 85 f0 ed ff ff 	mov    -0x1210(%rbp),%rax
    ebbb:	8b 00                	mov    (%rax),%eax
    ebbd:	85 c0                	test   %eax,%eax
    ebbf:	74 07                	je     ebc8 <func_2+0x1d3e>
    ebc1:	b8 01 00 00 00       	mov    $0x1,%eax
    ebc6:	eb 05                	jmp    ebcd <func_2+0x1d43>
    ebc8:	b8 00 00 00 00       	mov    $0x0,%eax
    ebcd:	48 98                	cltq   
    ebcf:	48 39 c3             	cmp    %rax,%rbx
    ebd2:	0f 97 c0             	seta   %al
    ebd5:	0f b6 c0             	movzbl %al,%eax
    ebd8:	89 85 fc ec ff ff    	mov    %eax,-0x1304(%rbp)
    ebde:	48 8b 85 e0 ee ff ff 	mov    -0x1120(%rbp),%rax
    ebe5:	48 8d 15 04 ef 00 00 	lea    0xef04(%rip),%rdx        # 1daf0 <g_1488>
    ebec:	48 89 10             	mov    %rdx,(%rax)
    ebef:	0f b6 85 f8 ec ff ff 	movzbl -0x1308(%rbp),%eax
    ebf6:	0f b6 d8             	movzbl %al,%ebx
    ebf9:	0f b6 85 f8 ec ff ff 	movzbl -0x1308(%rbp),%eax
    ec00:	44 0f b6 e0          	movzbl %al,%r12d
    ec04:	48 8b 05 ad 1d 01 00 	mov    0x11dad(%rip),%rax        # 209b8 <g_1537>
    ec0b:	48 8b 00             	mov    (%rax),%rax
    ec0e:	48 8b 10             	mov    (%rax),%rdx
    ec11:	0f b6 02             	movzbl (%rdx),%eax
    ec14:	8d 48 01             	lea    0x1(%rax),%ecx
    ec17:	88 0a                	mov    %cl,(%rdx)
    ec19:	84 c0                	test   %al,%al
    ec1b:	0f 85 c8 00 00 00    	jne    ece9 <func_2+0x1e5f>
    ec21:	0f b6 45 c5          	movzbl -0x3b(%rbp),%eax
    ec25:	44 0f b6 e8          	movzbl %al,%r13d
    ec29:	0f b6 85 f8 ec ff ff 	movzbl -0x1308(%rbp),%eax
    ec30:	44 0f b6 f0          	movzbl %al,%r14d
    ec34:	8b 85 fc ec ff ff    	mov    -0x1304(%rbp),%eax
    ec3a:	44 0f be f8          	movsbl %al,%r15d
    ec3e:	8b 05 6c ee 00 00    	mov    0xee6c(%rip),%eax        # 1dab0 <g_1362>
    ec44:	0f b7 d0             	movzwl %ax,%edx
    ec47:	48 8d 85 10 ed ff ff 	lea    -0x12f0(%rbp),%rax
    ec4e:	48 39 85 d0 ee ff ff 	cmp    %rax,-0x1130(%rbp)
    ec55:	0f 95 c0             	setne  %al
    ec58:	0f b6 c0             	movzbl %al,%eax
    ec5b:	89 d6                	mov    %edx,%esi
    ec5d:	89 c7                	mov    %eax,%edi
    ec5f:	e8 bb c0 ff ff       	callq  ad1f <safe_sub_func_uint16_t_u_u>
    ec64:	0f be c0             	movsbl %al,%eax
    ec67:	44 89 fe             	mov    %r15d,%esi
    ec6a:	89 c7                	mov    %eax,%edi
    ec6c:	e8 a1 b5 ff ff       	callq  a212 <safe_mul_func_int8_t_s_s>
    ec71:	0f be d0             	movsbl %al,%edx
    ec74:	8b 85 fc ec ff ff    	mov    -0x1304(%rbp),%eax
    ec7a:	39 c2                	cmp    %eax,%edx
    ec7c:	0f 9e c0             	setle  %al
    ec7f:	0f b6 c0             	movzbl %al,%eax
    ec82:	be 00 00 00 00       	mov    $0x0,%esi
    ec87:	89 c7                	mov    %eax,%edi
    ec89:	e8 04 b8 ff ff       	callq  a492 <safe_lshift_func_int16_t_s_s>
    ec8e:	98                   	cwtl   
    ec8f:	89 85 fc ec ff ff    	mov    %eax,-0x1304(%rbp)
    ec95:	8b 95 fc ec ff ff    	mov    -0x1304(%rbp),%edx
    ec9b:	0f b6 45 c7          	movzbl -0x39(%rbp),%eax
    ec9f:	0f b6 c0             	movzbl %al,%eax
    eca2:	39 c2                	cmp    %eax,%edx
    eca4:	0f 9d c0             	setge  %al
    eca7:	0f b6 d0             	movzbl %al,%edx
    ecaa:	8b 85 18 ed ff ff    	mov    -0x12e8(%rbp),%eax
    ecb0:	09 d0                	or     %edx,%eax
    ecb2:	89 85 18 ed ff ff    	mov    %eax,-0x12e8(%rbp)
    ecb8:	4c 89 f6             	mov    %r14,%rsi
    ecbb:	bf 00 00 00 00       	mov    $0x0,%edi
    ecc0:	e8 ea c3 ff ff       	callq  b0af <safe_div_func_uint64_t_u_u>
    ecc5:	48 8b 95 20 ee ff ff 	mov    -0x11e0(%rbp),%rdx
    eccc:	48 89 02             	mov    %rax,(%rdx)
    eccf:	48 8b 85 20 ee ff ff 	mov    -0x11e0(%rbp),%rax
    ecd6:	48 8b 00             	mov    (%rax),%rax
    ecd9:	4c 89 ee             	mov    %r13,%rsi
    ecdc:	48 89 c7             	mov    %rax,%rdi
    ecdf:	e8 9c c3 ff ff       	callq  b080 <safe_mod_func_uint64_t_u_u>
    ece4:	48 85 c0             	test   %rax,%rax
    ece7:	74 07                	je     ecf0 <func_2+0x1e66>
    ece9:	b8 01 00 00 00       	mov    $0x1,%eax
    ecee:	eb 05                	jmp    ecf5 <func_2+0x1e6b>
    ecf0:	b8 00 00 00 00       	mov    $0x0,%eax
    ecf5:	98                   	cwtl   
    ecf6:	89 c6                	mov    %eax,%esi
    ecf8:	bf ff ff ff ff       	mov    $0xffffffff,%edi
    ecfd:	e8 f3 b6 ff ff       	callq  a3f5 <safe_mul_func_int16_t_s_s>
    ed02:	4c 89 e6             	mov    %r12,%rsi
    ed05:	bf 01 00 00 00       	mov    $0x1,%edi
    ed0a:	e8 a0 c3 ff ff       	callq  b0af <safe_div_func_uint64_t_u_u>
    ed0f:	48 8b 15 8a 1c 01 00 	mov    0x11c8a(%rip),%rdx        # 209a0 <g_1299>
    ed16:	48 8b 12             	mov    (%rdx),%rdx
    ed19:	48 39 d0             	cmp    %rdx,%rax
    ed1c:	0f 96 c0             	setbe  %al
    ed1f:	0f b6 d0             	movzbl %al,%edx
    ed22:	0f b6 85 f8 ec ff ff 	movzbl -0x1308(%rbp),%eax
    ed29:	0f b6 c0             	movzbl %al,%eax
    ed2c:	39 c2                	cmp    %eax,%edx
    ed2e:	75 0a                	jne    ed3a <func_2+0x1eb0>
    ed30:	8b 85 18 ed ff ff    	mov    -0x12e8(%rbp),%eax
    ed36:	85 c0                	test   %eax,%eax
    ed38:	74 07                	je     ed41 <func_2+0x1eb7>
    ed3a:	b8 01 00 00 00       	mov    $0x1,%eax
    ed3f:	eb 05                	jmp    ed46 <func_2+0x1ebc>
    ed41:	b8 00 00 00 00       	mov    $0x0,%eax
    ed46:	89 c2                	mov    %eax,%edx
    ed48:	0f b6 45 c4          	movzbl -0x3c(%rbp),%eax
    ed4c:	0f b6 c0             	movzbl %al,%eax
    ed4f:	21 d0                	and    %edx,%eax
    ed51:	0f b7 c0             	movzwl %ax,%eax
    ed54:	89 de                	mov    %ebx,%esi
    ed56:	89 c7                	mov    %eax,%edi
    ed58:	e8 eb c0 ff ff       	callq  ae48 <safe_rshift_func_uint16_t_u_s>
    ed5d:	98                   	cwtl   
    ed5e:	be 08 00 00 00       	mov    $0x8,%esi
    ed63:	89 c7                	mov    %eax,%edi
    ed65:	e8 77 b7 ff ff       	callq  a4e1 <safe_lshift_func_int16_t_s_u>
    ed6a:	0f b6 45 c4          	movzbl -0x3c(%rbp),%eax
    ed6e:	0a 85 0b ed ff ff    	or     -0x12f5(%rbp),%al
    ed74:	3c 03                	cmp    $0x3,%al
    ed76:	0f 95 c0             	setne  %al
    ed79:	0f b6 d0             	movzbl %al,%edx
    ed7c:	48 8b 85 f0 ed ff ff 	mov    -0x1210(%rbp),%rax
    ed83:	89 10                	mov    %edx,(%rax)
    ed85:	48 8b 05 ec 31 01 00 	mov    0x131ec(%rip),%rax        # 21f78 <g_2195>
    ed8c:	48 8b 00             	mov    (%rax),%rax
    ed8f:	48 8b 00             	mov    (%rax),%rax
    ed92:	48 8d 15 57 ed 00 00 	lea    0xed57(%rip),%rdx        # 1daf0 <g_1488>
    ed99:	48 39 d0             	cmp    %rdx,%rax
    ed9c:	75 0b                	jne    eda9 <func_2+0x1f1f>
    ed9e:	0f b6 85 f8 ec ff ff 	movzbl -0x1308(%rbp),%eax
    eda5:	84 c0                	test   %al,%al
    eda7:	74 07                	je     edb0 <func_2+0x1f26>
    eda9:	b8 01 00 00 00       	mov    $0x1,%eax
    edae:	eb 05                	jmp    edb5 <func_2+0x1f2b>
    edb0:	b8 00 00 00 00       	mov    $0x0,%eax
    edb5:	3d ff ff 00 00       	cmp    $0xffff,%eax
    edba:	0f 95 c0             	setne  %al
    edbd:	0f b6 c0             	movzbl %al,%eax
    edc0:	be f2 ee 48 a0       	mov    $0xa048eef2,%esi
    edc5:	89 c7                	mov    %eax,%edi
    edc7:	e8 31 c1 ff ff       	callq  aefd <safe_mod_func_uint32_t_u_u>
    edcc:	89 c2                	mov    %eax,%edx
    edce:	48 8d 05 cb 1b 01 00 	lea    0x11bcb(%rip),%rax        # 209a0 <g_1299>
    edd5:	48 8b 00             	mov    (%rax),%rax
    edd8:	48 8b 00             	mov    (%rax),%rax
    eddb:	48 39 c2             	cmp    %rax,%rdx
    edde:	0f 95 c0             	setne  %al
    ede1:	0f b6 d0             	movzbl %al,%edx
    ede4:	0f b6 85 f8 ec ff ff 	movzbl -0x1308(%rbp),%eax
    edeb:	0f b6 c0             	movzbl %al,%eax
    edee:	39 c2                	cmp    %eax,%edx
    edf0:	7d 15                	jge    ee07 <func_2+0x1f7d>
    edf2:	c7 85 a0 ed ff ff bc 	movl   $0x7c285dbc,-0x1260(%rbp)
    edf9:	5d 28 7c 
    edfc:	8b 85 a0 ed ff ff    	mov    -0x1260(%rbp),%eax
    ee02:	e9 e5 08 00 00       	jmpq   f6ec <func_2+0x2862>
    ee07:	0f b6 85 f8 ec ff ff 	movzbl -0x1308(%rbp),%eax
    ee0e:	0f b6 c0             	movzbl %al,%eax
    ee11:	e9 d6 08 00 00       	jmpq   f6ec <func_2+0x2862>
    ee16:	48 8d 05 43 31 01 00 	lea    0x13143(%rip),%rax        # 21f60 <g_2155>
    ee1d:	48 89 85 40 ef ff ff 	mov    %rax,-0x10c0(%rbp)
    ee24:	48 8d 05 35 31 01 00 	lea    0x13135(%rip),%rax        # 21f60 <g_2155>
    ee2b:	48 89 85 48 ef ff ff 	mov    %rax,-0x10b8(%rbp)
    ee32:	48 8d 05 27 31 01 00 	lea    0x13127(%rip),%rax        # 21f60 <g_2155>
    ee39:	48 89 85 50 ef ff ff 	mov    %rax,-0x10b0(%rbp)
    ee40:	48 8d 05 19 31 01 00 	lea    0x13119(%rip),%rax        # 21f60 <g_2155>
    ee47:	48 89 85 58 ef ff ff 	mov    %rax,-0x10a8(%rbp)
    ee4e:	48 8d 05 0b 31 01 00 	lea    0x1310b(%rip),%rax        # 21f60 <g_2155>
    ee55:	48 89 85 60 ef ff ff 	mov    %rax,-0x10a0(%rbp)
    ee5c:	48 8d 85 40 f2 ff ff 	lea    -0xdc0(%rbp),%rax
    ee63:	48 8d 15 96 f9 00 00 	lea    0xf996(%rip),%rdx        # 1e800 <g_3068+0x4d8>
    ee6a:	b9 b4 00 00 00       	mov    $0xb4,%ecx
    ee6f:	48 89 c7             	mov    %rax,%rdi
    ee72:	48 89 d6             	mov    %rdx,%rsi
    ee75:	f3 48 a5             	rep movsq %ds:(%rsi),%es:(%rdi)
    ee78:	c7 85 70 ed ff ff fc 	movl   $0xfffffffc,-0x1290(%rbp)
    ee7f:	ff ff ff 
    ee82:	48 8d 05 37 2f 01 00 	lea    0x12f37(%rip),%rax        # 21dc0 <g_2089>
    ee89:	48 89 85 38 ee ff ff 	mov    %rax,-0x11c8(%rbp)
    ee90:	48 c7 85 40 ee ff ff 	movq   $0x0,-0x11c0(%rbp)
    ee97:	00 00 00 00 
    ee9b:	48 8d 85 1c ed ff ff 	lea    -0x12e4(%rbp),%rax
    eea2:	48 89 85 48 ee ff ff 	mov    %rax,-0x11b8(%rbp)
    eea9:	66 c7 85 16 ed ff ff 	movw   $0xfff7,-0x12ea(%rbp)
    eeb0:	f7 ff 
    eeb2:	c7 85 74 ed ff ff 01 	movl   $0x1,-0x128c(%rbp)
    eeb9:	00 00 00 
    eebc:	c7 85 78 ed ff ff 04 	movl   $0x4,-0x1288(%rbp)
    eec3:	00 00 00 
    eec6:	c7 85 7c ed ff ff ff 	movl   $0xffffffff,-0x1284(%rbp)
    eecd:	ff ff ff 
    eed0:	48 8d 05 81 1a 01 00 	lea    0x11a81(%rip),%rax        # 20958 <g_1120+0x18>
    eed7:	48 89 85 50 ee ff ff 	mov    %rax,-0x11b0(%rbp)
    eede:	48 8d 05 c7 eb 00 00 	lea    0xebc7(%rip),%rax        # 1daac <g_1347>
    eee5:	48 89 85 e0 ed ff ff 	mov    %rax,-0x1220(%rbp)
    eeec:	48 8d 85 e0 ed ff ff 	lea    -0x1220(%rbp),%rax
    eef3:	48 89 85 58 ee ff ff 	mov    %rax,-0x11a8(%rbp)
    eefa:	8b 85 fc ec ff ff    	mov    -0x1304(%rbp),%eax
    ef00:	0f b6 d8             	movzbl %al,%ebx
    ef03:	0f b6 85 f8 ec ff ff 	movzbl -0x1308(%rbp),%eax
    ef0a:	44 0f b6 e0          	movzbl %al,%r12d
    ef0e:	0f b7 05 97 35 01 00 	movzwl 0x13597(%rip),%eax        # 224ac <g_104>
    ef15:	83 c0 01             	add    $0x1,%eax
    ef18:	66 89 05 8d 35 01 00 	mov    %ax,0x1358d(%rip)        # 224ac <g_104>
    ef1f:	8b 05 c7 e9 00 00    	mov    0xe9c7(%rip),%eax        # 1d8ec <g_117+0x6c>
    ef25:	44 0f b7 e8          	movzwl %ax,%r13d
    ef29:	0f b6 45 c6          	movzbl -0x3a(%rbp),%eax
    ef2d:	0f b6 d0             	movzbl %al,%edx
    ef30:	8b 85 fc ec ff ff    	mov    -0x1304(%rbp),%eax
    ef36:	48 98                	cltq   
    ef38:	48 89 d6             	mov    %rdx,%rsi
    ef3b:	48 89 c7             	mov    %rax,%rdi
    ef3e:	e8 08 c1 ff ff       	callq  b04b <safe_sub_func_uint64_t_u_u>
    ef43:	48 8b 85 30 ee ff ff 	mov    -0x11d0(%rbp),%rax
    ef4a:	48 8b 00             	mov    (%rax),%rax
    ef4d:	48 85 c0             	test   %rax,%rax
    ef50:	0f 95 c0             	setne  %al
    ef53:	0f b6 d0             	movzbl %al,%edx
    ef56:	48 8b 85 20 ee ff ff 	mov    -0x11e0(%rbp),%rax
    ef5d:	48 89 10             	mov    %rdx,(%rax)
    ef60:	48 8b 85 20 ee ff ff 	mov    -0x11e0(%rbp),%rax
    ef67:	48 8b 00             	mov    (%rax),%rax
    ef6a:	48 ba 89 fb d2 f4 ab 	movabs $0x3b659fabf4d2fb89,%rdx
    ef71:	9f 65 3b 
    ef74:	48 09 d0             	or     %rdx,%rax
    ef77:	49 89 c6             	mov    %rax,%r14
    ef7a:	48 8b 05 37 1a 01 00 	mov    0x11a37(%rip),%rax        # 209b8 <g_1537>
    ef81:	48 8b 00             	mov    (%rax),%rax
    ef84:	48 8b 00             	mov    (%rax),%rax
    ef87:	0f b6 10             	movzbl (%rax),%edx
    ef8a:	83 f2 f8             	xor    $0xfffffff8,%edx
    ef8d:	88 10                	mov    %dl,(%rax)
    ef8f:	0f b6 00             	movzbl (%rax),%eax
    ef92:	0f b6 c0             	movzbl %al,%eax
    ef95:	89 c7                	mov    %eax,%edi
    ef97:	e8 a9 bb ff ff       	callq  ab45 <safe_unary_minus_func_uint8_t_u>
    ef9c:	0f b6 c0             	movzbl %al,%eax
    ef9f:	49 39 c6             	cmp    %rax,%r14
    efa2:	0f 92 c0             	setb   %al
    efa5:	0f b6 d0             	movzbl %al,%edx
    efa8:	48 8b 85 f0 ed ff ff 	mov    -0x1210(%rbp),%rax
    efaf:	8b 00                	mov    (%rax),%eax
    efb1:	39 c2                	cmp    %eax,%edx
    efb3:	0f 9f c0             	setg   %al
    efb6:	0f b6 c0             	movzbl %al,%eax
    efb9:	44 89 ee             	mov    %r13d,%esi
    efbc:	89 c7                	mov    %eax,%edi
    efbe:	e8 7a bd ff ff       	callq  ad3d <safe_mul_func_uint16_t_u_u>
    efc3:	48 8b 85 28 ee ff ff 	mov    -0x11d8(%rbp),%rax
    efca:	48 3b 85 f8 ed ff ff 	cmp    -0x1208(%rbp),%rax
    efd1:	0f 95 c0             	setne  %al
    efd4:	0f b6 c0             	movzbl %al,%eax
    efd7:	44 89 e6             	mov    %r12d,%esi
    efda:	89 c7                	mov    %eax,%edi
    efdc:	e8 74 b4 ff ff       	callq  a455 <safe_div_func_int16_t_s_s>
    efe1:	0f be c0             	movsbl %al,%eax
    efe4:	be 06 00 00 00       	mov    $0x6,%esi
    efe9:	89 c7                	mov    %eax,%edi
    efeb:	e8 fe b2 ff ff       	callq  a2ee <safe_lshift_func_int8_t_s_u>
    eff0:	48 8b 05 51 12 01 00 	mov    0x11251(%rip),%rax        # 20248 <g_955>
    eff7:	48 8b 00             	mov    (%rax),%rax
    effa:	0f b6 00             	movzbl (%rax),%eax
    effd:	0f b6 c0             	movzbl %al,%eax
    f000:	89 de                	mov    %ebx,%esi
    f002:	89 c7                	mov    %eax,%edi
    f004:	e8 a5 bb ff ff       	callq  abae <safe_mod_func_uint8_t_u_u>
    f009:	8b 85 fc ec ff ff    	mov    -0x1304(%rbp),%eax
    f00f:	85 c0                	test   %eax,%eax
    f011:	48 8b 95 50 ef ff ff 	mov    -0x10b0(%rbp),%rdx
    f018:	48 8b 85 58 fc ff ff 	mov    -0x3a8(%rbp),%rax
    f01f:	48 39 c2             	cmp    %rax,%rdx
    f022:	0f 95 c0             	setne  %al
    f025:	0f b6 d0             	movzbl %al,%edx
    f028:	48 8b 85 f0 ed ff ff 	mov    -0x1210(%rbp),%rax
    f02f:	89 10                	mov    %edx,(%rax)
    f031:	48 8d 05 68 19 01 00 	lea    0x11968(%rip),%rax        # 209a0 <g_1299>
    f038:	48 8b 00             	mov    (%rax),%rax
    f03b:	48 c7 00 00 00 00 00 	movq   $0x0,(%rax)
    f042:	48 8b 85 f0 ed ff ff 	mov    -0x1210(%rbp),%rax
    f049:	8b 00                	mov    (%rax),%eax
    f04b:	41 89 c4             	mov    %eax,%r12d
    f04e:	0f b6 85 f8 ec ff ff 	movzbl -0x1308(%rbp),%eax
    f055:	0f b6 d8             	movzbl %al,%ebx
    f058:	48 8b 85 00 ee ff ff 	mov    -0x1200(%rbp),%rax
    f05f:	48 3b 85 30 ee ff ff 	cmp    -0x11d0(%rbp),%rax
    f066:	0f 95 c0             	setne  %al
    f069:	0f b6 d0             	movzbl %al,%edx
    f06c:	0f b6 85 f8 ec ff ff 	movzbl -0x1308(%rbp),%eax
    f073:	0f b6 c0             	movzbl %al,%eax
    f076:	21 d0                	and    %edx,%eax
    f078:	85 c0                	test   %eax,%eax
    f07a:	75 0e                	jne    f08a <func_2+0x2200>
    f07c:	48 8b 05 d5 0d 01 00 	mov    0x10dd5(%rip),%rax        # 1fe58 <g_420>
    f083:	0f b6 00             	movzbl (%rax),%eax
    f086:	84 c0                	test   %al,%al
    f088:	74 07                	je     f091 <func_2+0x2207>
    f08a:	b8 01 00 00 00       	mov    $0x1,%eax
    f08f:	eb 05                	jmp    f096 <func_2+0x220c>
    f091:	b8 00 00 00 00       	mov    $0x0,%eax
    f096:	98                   	cwtl   
    f097:	be 74 c8 ff ff       	mov    $0xffffc874,%esi
    f09c:	89 c7                	mov    %eax,%edi
    f09e:	e8 b2 b3 ff ff       	callq  a455 <safe_div_func_int16_t_s_s>
    f0a3:	48 0f bf c0          	movswq %ax,%rax
    f0a7:	48 89 de             	mov    %rbx,%rsi
    f0aa:	48 89 c7             	mov    %rax,%rdi
    f0ad:	e8 8f b7 ff ff       	callq  a841 <safe_add_func_int64_t_s_s>
    f0b2:	48 8b 85 b8 ed ff ff 	mov    -0x1248(%rbp),%rax
    f0b9:	c6 00 00             	movb   $0x0,(%rax)
    f0bc:	0f b6 00             	movzbl (%rax),%eax
    f0bf:	0f b6 c0             	movzbl %al,%eax
    f0c2:	44 89 e6             	mov    %r12d,%esi
    f0c5:	89 c7                	mov    %eax,%edi
    f0c7:	e8 80 bb ff ff       	callq  ac4c <safe_lshift_func_uint8_t_u_u>
    f0cc:	48 8b 05 95 2e 01 00 	mov    0x12e95(%rip),%rax        # 21f68 <g_2197>
    f0d3:	48 8b 00             	mov    (%rax),%rax
    f0d6:	48 85 c0             	test   %rax,%rax
    f0d9:	74 07                	je     f0e2 <func_2+0x2258>
    f0db:	ba 0d 00 00 00       	mov    $0xd,%edx
    f0e0:	eb 05                	jmp    f0e7 <func_2+0x225d>
    f0e2:	ba 0c 00 00 00       	mov    $0xc,%edx
    f0e7:	48 b8 11 c9 9a 70 f9 	movabs $0xccd758f9709ac911,%rax
    f0ee:	58 d7 cc 
    f0f1:	0f b7 c0             	movzwl %ax,%eax
    f0f4:	89 d6                	mov    %edx,%esi
    f0f6:	89 c7                	mov    %eax,%edi
    f0f8:	e8 40 bc ff ff       	callq  ad3d <safe_mul_func_uint16_t_u_u>
    f0fd:	0f b6 95 0b ed ff ff 	movzbl -0x12f5(%rbp),%edx
    f104:	48 8b 85 f0 ed ff ff 	mov    -0x1210(%rbp),%rax
    f10b:	8b 00                	mov    (%rax),%eax
    f10d:	39 c2                	cmp    %eax,%edx
    f10f:	0f 9c c0             	setl   %al
    f112:	0f b6 d0             	movzbl %al,%edx
    f115:	48 8b 85 48 ee ff ff 	mov    -0x11b8(%rbp),%rax
    f11c:	8b 00                	mov    (%rax),%eax
    f11e:	21 c2                	and    %eax,%edx
    f120:	48 8b 85 48 ee ff ff 	mov    -0x11b8(%rbp),%rax
    f127:	89 10                	mov    %edx,(%rax)
    f129:	c7 85 50 ed ff ff 01 	movl   $0x1,-0x12b0(%rbp)
    f130:	00 00 00 
    f133:	e9 66 05 00 00       	jmpq   f69e <func_2+0x2814>
    f138:	c7 85 80 ed ff ff 70 	movl   $0x7f170170,-0x1280(%rbp)
    f13f:	01 17 7f 
    f142:	c7 85 84 ed ff ff 02 	movl   $0x2,-0x127c(%rbp)
    f149:	00 00 00 
    f14c:	c7 85 10 ef ff ff 08 	movl   $0x8,-0x10f0(%rbp)
    f153:	00 00 00 
    f156:	c7 85 14 ef ff ff 08 	movl   $0x8,-0x10ec(%rbp)
    f15d:	00 00 00 
    f160:	c7 85 18 ef ff ff 08 	movl   $0x8,-0x10e8(%rbp)
    f167:	00 00 00 
    f16a:	c7 85 1c ef ff ff 08 	movl   $0x8,-0x10e4(%rbp)
    f171:	00 00 00 
    f174:	66 c7 85 14 ed ff ff 	movw   $0xd4bd,-0x12ec(%rbp)
    f17b:	bd d4 
    f17d:	c6 85 0c ed ff ff 81 	movb   $0x81,-0x12f4(%rbp)
    f184:	48 c7 85 60 ee ff ff 	movq   $0x0,-0x11a0(%rbp)
    f18b:	00 00 00 00 
    f18f:	48 8d 85 20 ed ff ff 	lea    -0x12e0(%rbp),%rax
    f196:	48 89 85 68 ee ff ff 	mov    %rax,-0x1198(%rbp)
    f19d:	48 b8 6b ba 96 28 9e 	movabs $0x312b999e2896ba6b,%rax
    f1a4:	99 2b 31 
    f1a7:	48 89 85 70 ee ff ff 	mov    %rax,-0x1190(%rbp)
    f1ae:	48 8d 05 2b 2b 01 00 	lea    0x12b2b(%rip),%rax        # 21ce0 <g_1823>
    f1b5:	48 89 85 e8 ed ff ff 	mov    %rax,-0x1218(%rbp)
    f1bc:	48 c7 85 78 ee ff ff 	movq   $0x7,-0x1188(%rbp)
    f1c3:	07 00 00 00 
    f1c7:	48 c7 85 80 ee ff ff 	movq   $0x1,-0x1180(%rbp)
    f1ce:	01 00 00 00 
    f1d2:	48 8d 05 e7 2b 01 00 	lea    0x12be7(%rip),%rax        # 21dc0 <g_2089>
    f1d9:	48 89 85 88 ee ff ff 	mov    %rax,-0x1178(%rbp)
    f1e0:	c7 85 6c ed ff ff 00 	movl   $0x0,-0x1294(%rbp)
    f1e7:	00 00 00 
    f1ea:	eb 1b                	jmp    f207 <func_2+0x237d>
    f1ec:	8b 85 6c ed ff ff    	mov    -0x1294(%rbp),%eax
    f1f2:	48 98                	cltq   
    f1f4:	48 c7 84 c5 20 ef ff 	movq   $0x6,-0x10e0(%rbp,%rax,8)
    f1fb:	ff 06 00 00 00 
    f200:	83 85 6c ed ff ff 01 	addl   $0x1,-0x1294(%rbp)
    f207:	83 bd 6c ed ff ff 02 	cmpl   $0x2,-0x1294(%rbp)
    f20e:	7e dc                	jle    f1ec <func_2+0x2362>
    f210:	8b 85 50 ed ff ff    	mov    -0x12b0(%rbp),%eax
    f216:	48 98                	cltq   
    f218:	48 8d 15 ad eb 00 00 	lea    0xebad(%rip),%rdx        # 1ddcc <g_2235>
    f21f:	0f b6 04 10          	movzbl (%rax,%rdx,1),%eax
    f223:	48 8d 05 86 2d 01 00 	lea    0x12d86(%rip),%rax        # 21fb0 <g_2384+0x10>
    f22a:	48 89 85 90 ee ff ff 	mov    %rax,-0x1170(%rbp)
    f231:	48 8d 05 08 10 01 00 	lea    0x11008(%rip),%rax        # 20240 <g_936>
    f238:	48 89 85 98 ee ff ff 	mov    %rax,-0x1168(%rbp)
    f23f:	c7 85 88 ed ff ff 4d 	movl   $0x9c1c054d,-0x1278(%rbp)
    f246:	05 1c 9c 
    f249:	c7 85 8c ed ff ff 29 	movl   $0xca5fe129,-0x1274(%rbp)
    f250:	e1 5f ca 
    f253:	c7 85 90 ed ff ff fb 	movl   $0xfffffffb,-0x1270(%rbp)
    f25a:	ff ff ff 
    f25d:	48 8b 05 6c 2d 01 00 	mov    0x12d6c(%rip),%rax        # 21fd0 <g_2383>
    f264:	48 8b 10             	mov    (%rax),%rdx
    f267:	48 8b 85 90 ee ff ff 	mov    -0x1170(%rbp),%rax
    f26e:	48 89 10             	mov    %rdx,(%rax)
    f271:	c7 05 19 e8 00 00 00 	movl   $0x0,0xe819(%rip)        # 1da94 <g_978>
    f278:	00 00 00 
    f27b:	e9 0b 03 00 00       	jmpq   f58b <func_2+0x2701>
    f280:	48 c7 85 a0 ee ff ff 	movq   $0x0,-0x1160(%rbp)
    f287:	00 00 00 00 
    f28b:	c7 85 94 ed ff ff 0b 	movl   $0xf3b5d10b,-0x126c(%rbp)
    f292:	d1 b5 f3 
    f295:	c7 85 98 ed ff ff f0 	movl   $0x98dd42f0,-0x1268(%rbp)
    f29c:	42 dd 98 
    f29f:	48 8b 85 f0 ed ff ff 	mov    -0x1210(%rbp),%rax
    f2a6:	8b 00                	mov    (%rax),%eax
    f2a8:	0f b7 d0             	movzwl %ax,%edx
    f2ab:	0f bf 8d 16 ed ff ff 	movswl -0x12ea(%rbp),%ecx
    f2b2:	48 83 bd a0 ee ff ff 	cmpq   $0x0,-0x1160(%rbp)
    f2b9:	00 
    f2ba:	0f 95 c0             	setne  %al
    f2bd:	0f b6 c0             	movzbl %al,%eax
    f2c0:	39 c1                	cmp    %eax,%ecx
    f2c2:	7f 68                	jg     f32c <func_2+0x24a2>
    f2c4:	48 8b 05 1d 2a 01 00 	mov    0x12a1d(%rip),%rax        # 21ce8 <g_1994>
    f2cb:	48 8b 00             	mov    (%rax),%rax
    f2ce:	48 8b 00             	mov    (%rax),%rax
    f2d1:	0f b7 08             	movzwl (%rax),%ecx
    f2d4:	8b 85 fc ec ff ff    	mov    -0x1304(%rbp),%eax
    f2da:	89 c6                	mov    %eax,%esi
    f2dc:	48 8b 05 05 2a 01 00 	mov    0x12a05(%rip),%rax        # 21ce8 <g_1994>
    f2e3:	48 8b 00             	mov    (%rax),%rax
    f2e6:	48 8b 00             	mov    (%rax),%rax
    f2e9:	31 f1                	xor    %esi,%ecx
    f2eb:	66 89 08             	mov    %cx,(%rax)
    f2ee:	c7 85 94 ed ff ff 01 	movl   $0x1,-0x126c(%rbp)
    f2f5:	00 00 00 
    f2f8:	48 8b 05 71 2c 01 00 	mov    0x12c71(%rip),%rax        # 21f70 <g_2196>
    f2ff:	48 8b 08             	mov    (%rax),%rcx
    f302:	48 8b 05 6f 2c 01 00 	mov    0x12c6f(%rip),%rax        # 21f78 <g_2195>
    f309:	48 8b 00             	mov    (%rax),%rax
    f30c:	48 8b 00             	mov    (%rax),%rax
    f30f:	48 39 c1             	cmp    %rax,%rcx
    f312:	0f 95 c0             	setne  %al
    f315:	0f b6 c0             	movzbl %al,%eax
    f318:	89 85 98 ed ff ff    	mov    %eax,-0x1268(%rbp)
    f31e:	8b 85 94 ed ff ff    	mov    -0x126c(%rbp),%eax
    f324:	3b 85 98 ed ff ff    	cmp    -0x1268(%rbp),%eax
    f32a:	74 07                	je     f333 <func_2+0x24a9>
    f32c:	b8 01 00 00 00       	mov    $0x1,%eax
    f331:	eb 05                	jmp    f338 <func_2+0x24ae>
    f333:	b8 00 00 00 00       	mov    $0x0,%eax
    f338:	0f b7 c0             	movzwl %ax,%eax
    f33b:	89 d6                	mov    %edx,%esi
    f33d:	89 c7                	mov    %eax,%edi
    f33f:	e8 18 ba ff ff       	callq  ad5c <safe_mod_func_uint16_t_u_u>
    f344:	48 8b 15 45 16 01 00 	mov    0x11645(%rip),%rdx        # 20990 <g_1169>
    f34b:	8b 0a                	mov    (%rdx),%ecx
    f34d:	0f b7 d0             	movzwl %ax,%edx
    f350:	48 8b 05 39 16 01 00 	mov    0x11639(%rip),%rax        # 20990 <g_1169>
    f357:	31 ca                	xor    %ecx,%edx
    f359:	89 10                	mov    %edx,(%rax)
    f35b:	0f b6 85 f8 ec ff ff 	movzbl -0x1308(%rbp),%eax
    f362:	84 c0                	test   %al,%al
    f364:	0f 85 32 02 00 00    	jne    f59c <func_2+0x2712>
    f36a:	0f b6 85 f8 ec ff ff 	movzbl -0x1308(%rbp),%eax
    f371:	44 0f b6 f8          	movzbl %al,%r15d
    f375:	48 8b 05 dc 0a 01 00 	mov    0x10adc(%rip),%rax        # 1fe58 <g_420>
    f37c:	0f b6 00             	movzbl (%rax),%eax
    f37f:	0f b6 d8             	movzbl %al,%ebx
    f382:	c7 85 fc ec ff ff ff 	movl   $0xffffffff,-0x1304(%rbp)
    f389:	ff ff ff 
    f38c:	0f b6 85 f8 ec ff ff 	movzbl -0x1308(%rbp),%eax
    f393:	44 0f b6 e0          	movzbl %al,%r12d
    f397:	0f b6 85 f8 ec ff ff 	movzbl -0x1308(%rbp),%eax
    f39e:	44 0f b6 e8          	movzbl %al,%r13d
    f3a2:	48 8b 05 17 16 01 00 	mov    0x11617(%rip),%rax        # 209c0 <g_1536>
    f3a9:	48 8b 00             	mov    (%rax),%rax
    f3ac:	48 8b 00             	mov    (%rax),%rax
    f3af:	48 8b 00             	mov    (%rax),%rax
    f3b2:	0f b6 00             	movzbl (%rax),%eax
    f3b5:	44 0f be f0          	movsbl %al,%r14d
    f3b9:	0f b6 85 f8 ec ff ff 	movzbl -0x1308(%rbp),%eax
    f3c0:	84 c0                	test   %al,%al
    f3c2:	75 2f                	jne    f3f3 <func_2+0x2569>
    f3c4:	0f b6 85 f8 ec ff ff 	movzbl -0x1308(%rbp),%eax
    f3cb:	0f be d0             	movsbl %al,%edx
    f3ce:	0f b6 85 f8 ec ff ff 	movzbl -0x1308(%rbp),%eax
    f3d5:	0f be c0             	movsbl %al,%eax
    f3d8:	89 d6                	mov    %edx,%esi
    f3da:	89 c7                	mov    %eax,%edi
    f3dc:	e8 11 ae ff ff       	callq  a1f2 <safe_sub_func_int8_t_s_s>
    f3e1:	0f b6 85 f8 ec ff ff 	movzbl -0x1308(%rbp),%eax
    f3e8:	84 c0                	test   %al,%al
    f3ea:	74 07                	je     f3f3 <func_2+0x2569>
    f3ec:	b8 01 00 00 00       	mov    $0x1,%eax
    f3f1:	eb 05                	jmp    f3f8 <func_2+0x256e>
    f3f3:	b8 00 00 00 00       	mov    $0x0,%eax
    f3f8:	89 85 18 ed ff ff    	mov    %eax,-0x12e8(%rbp)
    f3fe:	8b 85 18 ed ff ff    	mov    -0x12e8(%rbp),%eax
    f404:	0f be c0             	movsbl %al,%eax
    f407:	44 89 f6             	mov    %r14d,%esi
    f40a:	89 c7                	mov    %eax,%edi
    f40c:	e8 01 ae ff ff       	callq  a212 <safe_mul_func_int8_t_s_s>
    f411:	84 c0                	test   %al,%al
    f413:	74 07                	je     f41c <func_2+0x2592>
    f415:	ba 01 00 00 00       	mov    $0x1,%edx
    f41a:	eb 05                	jmp    f421 <func_2+0x2597>
    f41c:	ba 00 00 00 00       	mov    $0x0,%edx
    f421:	0f b6 85 f8 ec ff ff 	movzbl -0x1308(%rbp),%eax
    f428:	0f b6 c0             	movzbl %al,%eax
    f42b:	39 c2                	cmp    %eax,%edx
    f42d:	0f 9e c0             	setle  %al
    f430:	0f b6 c0             	movzbl %al,%eax
    f433:	be 01 00 00 00       	mov    $0x1,%esi
    f438:	48 89 c7             	mov    %rax,%rdi
    f43b:	e8 6f bc ff ff       	callq  b0af <safe_div_func_uint64_t_u_u>
    f440:	0f b7 c0             	movzwl %ax,%eax
    f443:	44 89 ee             	mov    %r13d,%esi
    f446:	89 c7                	mov    %eax,%edi
    f448:	e8 41 b9 ff ff       	callq  ad8e <safe_div_func_uint16_t_u_u>
    f44d:	0f b7 c0             	movzwl %ax,%eax
    f450:	44 89 e6             	mov    %r12d,%esi
    f453:	89 c7                	mov    %eax,%edi
    f455:	e8 a5 b8 ff ff       	callq  acff <safe_add_func_uint16_t_u_u>
    f45a:	0f b7 c0             	movzwl %ax,%eax
    f45d:	48 89 c6             	mov    %rax,%rsi
    f460:	bf 00 00 00 00       	mov    $0x0,%edi
    f465:	e8 45 bc ff ff       	callq  b0af <safe_div_func_uint64_t_u_u>
    f46a:	48 85 c0             	test   %rax,%rax
    f46d:	75 24                	jne    f493 <func_2+0x2609>
    f46f:	48 8b 85 48 ee ff ff 	mov    -0x11b8(%rbp),%rax
    f476:	8b 00                	mov    (%rax),%eax
    f478:	85 c0                	test   %eax,%eax
    f47a:	75 17                	jne    f493 <func_2+0x2609>
    f47c:	8b 85 50 ed ff ff    	mov    -0x12b0(%rbp),%eax
    f482:	48 98                	cltq   
    f484:	48 8d 15 41 e9 00 00 	lea    0xe941(%rip),%rdx        # 1ddcc <g_2235>
    f48b:	0f b6 04 10          	movzbl (%rax,%rdx,1),%eax
    f48f:	84 c0                	test   %al,%al
    f491:	74 07                	je     f49a <func_2+0x2610>
    f493:	b8 01 00 00 00       	mov    $0x1,%eax
    f498:	eb 05                	jmp    f49f <func_2+0x2615>
    f49a:	b8 00 00 00 00       	mov    $0x0,%eax
    f49f:	f7 d0                	not    %eax
    f4a1:	89 c2                	mov    %eax,%edx
    f4a3:	0f b6 85 f8 ec ff ff 	movzbl -0x1308(%rbp),%eax
    f4aa:	0f b6 c0             	movzbl %al,%eax
    f4ad:	39 c2                	cmp    %eax,%edx
    f4af:	0f 9c c0             	setl   %al
    f4b2:	0f b6 c0             	movzbl %al,%eax
    f4b5:	89 de                	mov    %ebx,%esi
    f4b7:	89 c7                	mov    %eax,%edi
    f4b9:	e8 00 b8 ff ff       	callq  acbe <safe_rshift_func_uint8_t_u_u>
    f4be:	0f b6 c0             	movzbl %al,%eax
    f4c1:	be a1 61 cc 55       	mov    $0x55cc61a1,%esi
    f4c6:	89 c7                	mov    %eax,%edi
    f4c8:	e8 32 b2 ff ff       	callq  a6ff <safe_div_func_int32_t_s_s>
    f4cd:	0f be c0             	movsbl %al,%eax
    f4d0:	83 e0 50             	and    $0x50,%eax
    f4d3:	89 c2                	mov    %eax,%edx
    f4d5:	0f b6 85 f8 ec ff ff 	movzbl -0x1308(%rbp),%eax
    f4dc:	0f be c0             	movsbl %al,%eax
    f4df:	89 d6                	mov    %edx,%esi
    f4e1:	89 c7                	mov    %eax,%edi
    f4e3:	e8 2a ad ff ff       	callq  a212 <safe_mul_func_int8_t_s_s>
    f4e8:	0f be c0             	movsbl %al,%eax
    f4eb:	be 00 00 00 00       	mov    $0x0,%esi
    f4f0:	89 c7                	mov    %eax,%edi
    f4f2:	e8 fe ae ff ff       	callq  a3f5 <safe_mul_func_int16_t_s_s>
    f4f7:	66 85 c0             	test   %ax,%ax
    f4fa:	74 07                	je     f503 <func_2+0x2679>
    f4fc:	b8 01 00 00 00       	mov    $0x1,%eax
    f501:	eb 05                	jmp    f508 <func_2+0x267e>
    f503:	b8 00 00 00 00       	mov    $0x0,%eax
    f508:	48 98                	cltq   
    f50a:	48 be 14 95 08 76 46 	movabs $0x293ec14676089514,%rsi
    f511:	c1 3e 29 
    f514:	48 89 c7             	mov    %rax,%rdi
    f517:	e8 8c b3 ff ff       	callq  a8a8 <safe_sub_func_int64_t_s_s>
    f51c:	0f b6 c0             	movzbl %al,%eax
    f51f:	89 c6                	mov    %eax,%esi
    f521:	bf d5 00 00 00       	mov    $0xd5,%edi
    f526:	e8 68 b6 ff ff       	callq  ab93 <safe_mul_func_uint8_t_u_u>
    f52b:	0f b6 c0             	movzbl %al,%eax
    f52e:	48 be 85 bd 29 24 5d 	movabs $0xf08cf85d2429bd85,%rsi
    f535:	f8 8c f0 
    f538:	48 89 c7             	mov    %rax,%rdi
    f53b:	e8 b7 b4 ff ff       	callq  a9f7 <safe_div_func_int64_t_s_s>
    f540:	89 c2                	mov    %eax,%edx
    f542:	0f b6 45 c6          	movzbl -0x3a(%rbp),%eax
    f546:	83 c8 01             	or     $0x1,%eax
    f549:	0f b6 c0             	movzbl %al,%eax
    f54c:	89 d6                	mov    %edx,%esi
    f54e:	89 c7                	mov    %eax,%edi
    f550:	e8 f3 b8 ff ff       	callq  ae48 <safe_rshift_func_uint16_t_u_s>
    f555:	0f b7 c0             	movzwl %ax,%eax
    f558:	25 86 00 00 00       	and    $0x86,%eax
    f55d:	44 89 fa             	mov    %r15d,%edx
    f560:	31 c2                	xor    %eax,%edx
    f562:	48 8b 85 f0 ed ff ff 	mov    -0x1210(%rbp),%rax
    f569:	89 10                	mov    %edx,(%rax)
    f56b:	48 8b 05 4e 28 01 00 	mov    0x1284e(%rip),%rax        # 21dc0 <g_2089>
    f572:	48 8b 95 98 ee ff ff 	mov    -0x1168(%rbp),%rdx
    f579:	48 89 10             	mov    %rdx,(%rax)
    f57c:	8b 05 12 e5 00 00    	mov    0xe512(%rip),%eax        # 1da94 <g_978>
    f582:	83 c0 01             	add    $0x1,%eax
    f585:	89 05 09 e5 00 00    	mov    %eax,0xe509(%rip)        # 1da94 <g_978>
    f58b:	8b 05 03 e5 00 00    	mov    0xe503(%rip),%eax        # 1da94 <g_978>
    f591:	83 f8 04             	cmp    $0x4,%eax
    f594:	0f 8e e6 fc ff ff    	jle    f280 <func_2+0x23f6>
    f59a:	eb 01                	jmp    f59d <func_2+0x2713>
    f59c:	90                   	nop
    f59d:	c6 05 a4 e5 00 00 00 	movb   $0x0,0xe5a4(%rip)        # 1db48 <g_1773>
    f5a4:	e9 d1 00 00 00       	jmpq   f67a <func_2+0x27f0>
    f5a9:	48 c7 85 a8 ee ff ff 	movq   $0xffffffffffffffff,-0x1158(%rbp)
    f5b0:	ff ff ff ff 
    f5b4:	48 8d 85 1c ed ff ff 	lea    -0x12e4(%rbp),%rax
    f5bb:	48 89 85 b0 ee ff ff 	mov    %rax,-0x1150(%rbp)
    f5c2:	48 c7 85 b8 ee ff ff 	movq   $0x0,-0x1148(%rbp)
    f5c9:	00 00 00 00 
    f5cd:	48 8d 05 2c e3 00 00 	lea    0xe32c(%rip),%rax        # 1d900 <g_267>
    f5d4:	48 89 85 b0 ef ff ff 	mov    %rax,-0x1050(%rbp)
    f5db:	48 8d 05 5a da 00 00 	lea    0xda5a(%rip),%rax        # 1d03c <g_99>
    f5e2:	48 89 85 b8 ef ff ff 	mov    %rax,-0x1048(%rbp)
    f5e9:	48 8d 05 10 e3 00 00 	lea    0xe310(%rip),%rax        # 1d900 <g_267>
    f5f0:	48 89 85 c0 ef ff ff 	mov    %rax,-0x1040(%rbp)
    f5f7:	48 8d 05 02 e3 00 00 	lea    0xe302(%rip),%rax        # 1d900 <g_267>
    f5fe:	48 89 85 c8 ef ff ff 	mov    %rax,-0x1038(%rbp)
    f605:	48 8d 05 30 da 00 00 	lea    0xda30(%rip),%rax        # 1d03c <g_99>
    f60c:	48 89 85 d0 ef ff ff 	mov    %rax,-0x1030(%rbp)
    f613:	48 8d 05 e6 e2 00 00 	lea    0xe2e6(%rip),%rax        # 1d900 <g_267>
    f61a:	48 89 85 d8 ef ff ff 	mov    %rax,-0x1028(%rbp)
    f621:	48 8d 05 d8 e2 00 00 	lea    0xe2d8(%rip),%rax        # 1d900 <g_267>
    f628:	48 89 85 e0 ef ff ff 	mov    %rax,-0x1020(%rbp)
    f62f:	48 8d 05 06 da 00 00 	lea    0xda06(%rip),%rax        # 1d03c <g_99>
    f636:	48 89 85 e8 ef ff ff 	mov    %rax,-0x1018(%rbp)
    f63d:	48 c7 85 c0 ee ff ff 	movq   $0xffffffffffffffff,-0x1140(%rbp)
    f644:	ff ff ff ff 
    f648:	48 8b 05 e1 0b 01 00 	mov    0x10be1(%rip),%rax        # 20230 <g_789>
    f64f:	48 8d 95 30 ed ff ff 	lea    -0x12d0(%rbp),%rdx
    f656:	48 89 10             	mov    %rdx,(%rax)
    f659:	0f b7 85 14 ed ff ff 	movzwl -0x12ec(%rbp),%eax
    f660:	83 c0 01             	add    $0x1,%eax
    f663:	66 89 85 14 ed ff ff 	mov    %ax,-0x12ec(%rbp)
    f66a:	0f b6 05 d7 e4 00 00 	movzbl 0xe4d7(%rip),%eax        # 1db48 <g_1773>
    f671:	83 c0 01             	add    $0x1,%eax
    f674:	88 05 ce e4 00 00    	mov    %al,0xe4ce(%rip)        # 1db48 <g_1773>
    f67a:	0f b6 05 c7 e4 00 00 	movzbl 0xe4c7(%rip),%eax        # 1db48 <g_1773>
    f681:	3c 04                	cmp    $0x4,%al
    f683:	0f 86 20 ff ff ff    	jbe    f5a9 <func_2+0x271f>
    f689:	48 8d 85 fc ec ff ff 	lea    -0x1304(%rbp),%rax
    f690:	48 89 85 68 ee ff ff 	mov    %rax,-0x1198(%rbp)
    f697:	83 85 50 ed ff ff 01 	addl   $0x1,-0x12b0(%rbp)
    f69e:	83 bd 50 ed ff ff 04 	cmpl   $0x4,-0x12b0(%rbp)
    f6a5:	0f 8e 8d fa ff ff    	jle    f138 <func_2+0x22ae>
    f6ab:	8b 05 df eb 00 00    	mov    0xebdf(%rip),%eax        # 1e290 <g_2805+0xd0>
    f6b1:	83 e8 01             	sub    $0x1,%eax
    f6b4:	89 05 d6 eb 00 00    	mov    %eax,0xebd6(%rip)        # 1e290 <g_2805+0xd0>
    f6ba:	0f b6 85 f8 ec ff ff 	movzbl -0x1308(%rbp),%eax
    f6c1:	0f b6 c0             	movzbl %al,%eax
    f6c4:	be 02 00 00 00       	mov    $0x2,%esi
    f6c9:	89 c7                	mov    %eax,%edi
    f6cb:	e8 2f b6 ff ff       	callq  acff <safe_add_func_uint16_t_u_u>
    f6d0:	88 85 f8 ec ff ff    	mov    %al,-0x1308(%rbp)
    f6d6:	0f b6 85 f8 ec ff ff 	movzbl -0x1308(%rbp),%eax
    f6dd:	3c 2e                	cmp    $0x2e,%al
    f6df:	0f 85 8d e6 ff ff    	jne    dd72 <func_2+0xee8>
    f6e5:	0f bf 85 12 ed ff ff 	movswl -0x12ee(%rbp),%eax
    f6ec:	48 8b 5d c8          	mov    -0x38(%rbp),%rbx
    f6f0:	64 48 33 1c 25 28 00 	xor    %fs:0x28,%rbx
    f6f7:	00 00 
    f6f9:	74 05                	je     f700 <func_2+0x2876>
    f6fb:	e8 70 a9 ff ff       	callq  a070 <__stack_chk_fail@plt>
    f700:	48 81 c4 e8 12 00 00 	add    $0x12e8,%rsp
    f707:	5b                   	pop    %rbx
    f708:	41 5c                	pop    %r12
    f70a:	41 5d                	pop    %r13
    f70c:	41 5e                	pop    %r14
    f70e:	41 5f                	pop    %r15
    f710:	5d                   	pop    %rbp
    f711:	c3                   	retq   

000000000000f712 <func_10>:
    f712:	f3 0f 1e fa          	endbr64 
    f716:	55                   	push   %rbp
    f717:	48 89 e5             	mov    %rsp,%rbp
    f71a:	48 83 ec 30          	sub    $0x30,%rsp
    f71e:	48 89 7d d8          	mov    %rdi,-0x28(%rbp)
    f722:	89 75 d4             	mov    %esi,-0x2c(%rbp)
    f725:	89 d0                	mov    %edx,%eax
    f727:	66 89 45 d0          	mov    %ax,-0x30(%rbp)
    f72b:	64 48 8b 04 25 28 00 	mov    %fs:0x28,%rax
    f732:	00 00 
    f734:	48 89 45 f8          	mov    %rax,-0x8(%rbp)
    f738:	31 c0                	xor    %eax,%eax
    f73a:	48 c7 45 e8 00 00 00 	movq   $0x0,-0x18(%rbp)
    f741:	00 
    f742:	48 8d 45 e8          	lea    -0x18(%rbp),%rax
    f746:	48 89 45 f0          	mov    %rax,-0x10(%rbp)
    f74a:	48 8b 05 87 28 01 00 	mov    0x12887(%rip),%rax        # 21fd8 <g_2394>
    f751:	48 8b 15 58 d6 00 00 	mov    0xd658(%rip),%rdx        # 1cdb0 <l_2393.4526+0x30>
    f758:	48 89 10             	mov    %rdx,(%rax)
    f75b:	48 8b 45 f0          	mov    -0x10(%rbp),%rax
    f75f:	48 8d 15 4a e3 00 00 	lea    0xe34a(%rip),%rdx        # 1dab0 <g_1362>
    f766:	48 89 10             	mov    %rdx,(%rax)
    f769:	48 8b 05 30 12 01 00 	mov    0x11230(%rip),%rax        # 209a0 <g_1299>
    f770:	48 8b 00             	mov    (%rax),%rax
    f773:	48 8b 4d f8          	mov    -0x8(%rbp),%rcx
    f777:	64 48 33 0c 25 28 00 	xor    %fs:0x28,%rcx
    f77e:	00 00 
    f780:	74 05                	je     f787 <func_10+0x75>
    f782:	e8 e9 a8 ff ff       	callq  a070 <__stack_chk_fail@plt>
    f787:	c9                   	leaveq 
    f788:	c3                   	retq   

000000000000f789 <func_15>:
    f789:	f3 0f 1e fa          	endbr64 
    f78d:	55                   	push   %rbp
    f78e:	48 89 e5             	mov    %rsp,%rbp
    f791:	41 57                	push   %r15
    f793:	41 56                	push   %r14
    f795:	41 55                	push   %r13
    f797:	41 54                	push   %r12
    f799:	53                   	push   %rbx
    f79a:	48 81 ec 00 10 00 00 	sub    $0x1000,%rsp
    f7a1:	48 83 0c 24 00       	orq    $0x0,(%rsp)
    f7a6:	48 81 ec 68 03 00 00 	sub    $0x368,%rsp
    f7ad:	89 bd 7c ec ff ff    	mov    %edi,-0x1384(%rbp)
    f7b3:	89 b5 78 ec ff ff    	mov    %esi,-0x1388(%rbp)
    f7b9:	64 48 8b 04 25 28 00 	mov    %fs:0x28,%rax
    f7c0:	00 00 
    f7c2:	48 89 45 c8          	mov    %rax,-0x38(%rbp)
    f7c6:	31 c0                	xor    %eax,%eax
    f7c8:	48 8d 05 29 e1 00 00 	lea    0xe129(%rip),%rax        # 1d8f8 <g_153>
    f7cf:	48 89 85 30 f2 ff ff 	mov    %rax,-0xdd0(%rbp)
    f7d6:	48 8d 05 1b e1 00 00 	lea    0xe11b(%rip),%rax        # 1d8f8 <g_153>
    f7dd:	48 89 85 38 f2 ff ff 	mov    %rax,-0xdc8(%rbp)
    f7e4:	48 8d 05 0e e1 00 00 	lea    0xe10e(%rip),%rax        # 1d8f9 <g_157>
    f7eb:	48 89 85 40 f2 ff ff 	mov    %rax,-0xdc0(%rbp)
    f7f2:	48 8d 05 ff e0 00 00 	lea    0xe0ff(%rip),%rax        # 1d8f8 <g_153>
    f7f9:	48 89 85 48 f2 ff ff 	mov    %rax,-0xdb8(%rbp)
    f800:	48 8d 05 f1 e0 00 00 	lea    0xe0f1(%rip),%rax        # 1d8f8 <g_153>
    f807:	48 89 85 50 f2 ff ff 	mov    %rax,-0xdb0(%rbp)
    f80e:	48 8d 05 e3 e0 00 00 	lea    0xe0e3(%rip),%rax        # 1d8f8 <g_153>
    f815:	48 89 85 58 f2 ff ff 	mov    %rax,-0xda8(%rbp)
    f81c:	48 8d 05 d6 e0 00 00 	lea    0xe0d6(%rip),%rax        # 1d8f9 <g_157>
    f823:	48 89 85 60 f2 ff ff 	mov    %rax,-0xda0(%rbp)
    f82a:	48 8d 05 c7 e0 00 00 	lea    0xe0c7(%rip),%rax        # 1d8f8 <g_153>
    f831:	48 89 85 68 f2 ff ff 	mov    %rax,-0xd98(%rbp)
    f838:	48 8d 05 ba e0 00 00 	lea    0xe0ba(%rip),%rax        # 1d8f9 <g_157>
    f83f:	48 89 85 70 f2 ff ff 	mov    %rax,-0xd90(%rbp)
    f846:	48 8d 05 ab e0 00 00 	lea    0xe0ab(%rip),%rax        # 1d8f8 <g_153>
    f84d:	48 89 85 78 f2 ff ff 	mov    %rax,-0xd88(%rbp)
    f854:	48 8d 05 9d e0 00 00 	lea    0xe09d(%rip),%rax        # 1d8f8 <g_153>
    f85b:	48 89 85 80 f2 ff ff 	mov    %rax,-0xd80(%rbp)
    f862:	48 8d 05 8f e0 00 00 	lea    0xe08f(%rip),%rax        # 1d8f8 <g_153>
    f869:	48 89 85 88 f2 ff ff 	mov    %rax,-0xd78(%rbp)
    f870:	48 8d 05 82 e0 00 00 	lea    0xe082(%rip),%rax        # 1d8f9 <g_157>
    f877:	48 89 85 90 f2 ff ff 	mov    %rax,-0xd70(%rbp)
    f87e:	48 8d 05 74 e0 00 00 	lea    0xe074(%rip),%rax        # 1d8f9 <g_157>
    f885:	48 89 85 98 f2 ff ff 	mov    %rax,-0xd68(%rbp)
    f88c:	48 8d 05 65 e0 00 00 	lea    0xe065(%rip),%rax        # 1d8f8 <g_153>
    f893:	48 89 85 a0 f2 ff ff 	mov    %rax,-0xd60(%rbp)
    f89a:	c7 85 00 ed ff ff 59 	movl   $0x64794559,-0x1300(%rbp)
    f8a1:	45 79 64 
    f8a4:	48 c7 85 a0 ed ff ff 	movq   $0x0,-0x1260(%rbp)
    f8ab:	00 00 00 00 
    f8af:	48 8d 85 a0 ed ff ff 	lea    -0x1260(%rbp),%rax
    f8b6:	48 89 85 a8 ed ff ff 	mov    %rax,-0x1258(%rbp)
    f8bd:	48 c7 85 b0 f2 ff ff 	movq   $0x0,-0xd50(%rbp)
    f8c4:	00 00 00 00 
    f8c8:	48 8d 85 a8 ed ff ff 	lea    -0x1258(%rbp),%rax
    f8cf:	48 89 85 b8 f2 ff ff 	mov    %rax,-0xd48(%rbp)
    f8d6:	48 8d 85 a8 ed ff ff 	lea    -0x1258(%rbp),%rax
    f8dd:	48 89 85 c0 f2 ff ff 	mov    %rax,-0xd40(%rbp)
    f8e4:	48 c7 85 c8 f2 ff ff 	movq   $0x0,-0xd38(%rbp)
    f8eb:	00 00 00 00 
    f8ef:	48 8d 85 a8 ed ff ff 	lea    -0x1258(%rbp),%rax
    f8f6:	48 89 85 d0 f2 ff ff 	mov    %rax,-0xd30(%rbp)
    f8fd:	48 c7 85 d8 f2 ff ff 	movq   $0x0,-0xd28(%rbp)
    f904:	00 00 00 00 
    f908:	48 c7 85 e0 f2 ff ff 	movq   $0x0,-0xd20(%rbp)
    f90f:	00 00 00 00 
    f913:	48 c7 85 e8 f2 ff ff 	movq   $0x0,-0xd18(%rbp)
    f91a:	00 00 00 00 
    f91e:	48 8d 85 a8 ed ff ff 	lea    -0x1258(%rbp),%rax
    f925:	48 89 85 f0 f2 ff ff 	mov    %rax,-0xd10(%rbp)
    f92c:	48 c7 85 f8 f2 ff ff 	movq   $0x0,-0xd08(%rbp)
    f933:	00 00 00 00 
    f937:	48 c7 85 00 f3 ff ff 	movq   $0x0,-0xd00(%rbp)
    f93e:	00 00 00 00 
    f942:	48 c7 85 08 f3 ff ff 	movq   $0x0,-0xcf8(%rbp)
    f949:	00 00 00 00 
    f94d:	48 8d 85 a8 ed ff ff 	lea    -0x1258(%rbp),%rax
    f954:	48 89 85 10 f3 ff ff 	mov    %rax,-0xcf0(%rbp)
    f95b:	48 c7 85 18 f3 ff ff 	movq   $0x0,-0xce8(%rbp)
    f962:	00 00 00 00 
    f966:	48 8d 85 a8 ed ff ff 	lea    -0x1258(%rbp),%rax
    f96d:	48 89 85 20 f3 ff ff 	mov    %rax,-0xce0(%rbp)
    f974:	48 c7 85 b0 ed ff ff 	movq   $0x0,-0x1250(%rbp)
    f97b:	00 00 00 00 
    f97f:	48 c7 85 28 ee ff ff 	movq   $0x0,-0x11d8(%rbp)
    f986:	00 00 00 00 
    f98a:	48 8d 05 97 2b 01 00 	lea    0x12b97(%rip),%rax        # 22528 <g_1636+0x8>
    f991:	48 89 85 b8 ed ff ff 	mov    %rax,-0x1248(%rbp)
    f998:	48 8d 85 b8 ed ff ff 	lea    -0x1248(%rbp),%rax
    f99f:	48 89 85 30 ee ff ff 	mov    %rax,-0x11d0(%rbp)
    f9a6:	48 8d 05 ef e0 00 00 	lea    0xe0ef(%rip),%rax        # 1da9c <g_1005>
    f9ad:	48 89 85 c0 ed ff ff 	mov    %rax,-0x1240(%rbp)
    f9b4:	48 8d 05 d5 04 01 00 	lea    0x104d5(%rip),%rax        # 1fe90 <g_496>
    f9bb:	48 89 85 c8 ed ff ff 	mov    %rax,-0x1238(%rbp)
    f9c2:	48 8d 85 c8 ed ff ff 	lea    -0x1238(%rbp),%rax
    f9c9:	48 89 85 38 ee ff ff 	mov    %rax,-0x11c8(%rbp)
    f9d0:	c7 85 40 f0 ff ff 05 	movl   $0x5,-0xfc0(%rbp)
    f9d7:	00 00 00 
    f9da:	c7 85 44 f0 ff ff 05 	movl   $0x5,-0xfbc(%rbp)
    f9e1:	00 00 00 
    f9e4:	c7 85 48 f0 ff ff 05 	movl   $0x5,-0xfb8(%rbp)
    f9eb:	00 00 00 
    f9ee:	c7 85 4c f0 ff ff 05 	movl   $0x5,-0xfb4(%rbp)
    f9f5:	00 00 00 
    f9f8:	c7 85 ac ec ff ff 3a 	movl   $0x9a66e63a,-0x1354(%rbp)
    f9ff:	e6 66 9a 
    fa02:	c7 85 b0 ec ff ff 00 	movl   $0x0,-0x1350(%rbp)
    fa09:	00 00 00 
    fa0c:	48 c7 85 d0 ed ff ff 	movq   $0x0,-0x1230(%rbp)
    fa13:	00 00 00 00 
    fa17:	48 8d 85 d0 ed ff ff 	lea    -0x1230(%rbp),%rax
    fa1e:	48 89 85 40 ee ff ff 	mov    %rax,-0x11c0(%rbp)
    fa25:	48 c7 85 d8 ed ff ff 	movq   $0x0,-0x1228(%rbp)
    fa2c:	00 00 00 00 
    fa30:	48 8d 05 75 2a 01 00 	lea    0x12a75(%rip),%rax        # 224ac <g_104>
    fa37:	48 89 85 c0 f3 ff ff 	mov    %rax,-0xc40(%rbp)
    fa3e:	48 8d 05 67 2a 01 00 	lea    0x12a67(%rip),%rax        # 224ac <g_104>
    fa45:	48 89 85 c8 f3 ff ff 	mov    %rax,-0xc38(%rbp)
    fa4c:	48 8d 05 59 2a 01 00 	lea    0x12a59(%rip),%rax        # 224ac <g_104>
    fa53:	48 89 85 d0 f3 ff ff 	mov    %rax,-0xc30(%rbp)
    fa5a:	48 c7 85 d8 f3 ff ff 	movq   $0x0,-0xc28(%rbp)
    fa61:	00 00 00 00 
    fa65:	48 8d 05 40 2a 01 00 	lea    0x12a40(%rip),%rax        # 224ac <g_104>
    fa6c:	48 89 85 e0 f3 ff ff 	mov    %rax,-0xc20(%rbp)
    fa73:	48 c7 85 e8 f3 ff ff 	movq   $0x0,-0xc18(%rbp)
    fa7a:	00 00 00 00 
    fa7e:	48 8d 05 17 e0 00 00 	lea    0xe017(%rip),%rax        # 1da9c <g_1005>
    fa85:	48 89 85 f0 f3 ff ff 	mov    %rax,-0xc10(%rbp)
    fa8c:	48 8d 05 19 2a 01 00 	lea    0x12a19(%rip),%rax        # 224ac <g_104>
    fa93:	48 89 85 f8 f3 ff ff 	mov    %rax,-0xc08(%rbp)
    fa9a:	48 8d 05 fb df 00 00 	lea    0xdffb(%rip),%rax        # 1da9c <g_1005>
    faa1:	48 89 85 00 f4 ff ff 	mov    %rax,-0xc00(%rbp)
    faa8:	48 c7 85 08 f4 ff ff 	movq   $0x0,-0xbf8(%rbp)
    faaf:	00 00 00 00 
    fab3:	48 8d 05 e2 df 00 00 	lea    0xdfe2(%rip),%rax        # 1da9c <g_1005>
    faba:	48 89 85 10 f4 ff ff 	mov    %rax,-0xbf0(%rbp)
    fac1:	48 c7 85 18 f4 ff ff 	movq   $0x0,-0xbe8(%rbp)
    fac8:	00 00 00 00 
    facc:	48 8d 05 d9 29 01 00 	lea    0x129d9(%rip),%rax        # 224ac <g_104>
    fad3:	48 89 85 20 f4 ff ff 	mov    %rax,-0xbe0(%rbp)
    fada:	48 8d 05 cb 29 01 00 	lea    0x129cb(%rip),%rax        # 224ac <g_104>
    fae1:	48 89 85 28 f4 ff ff 	mov    %rax,-0xbd8(%rbp)
    fae8:	48 8d 05 bd 29 01 00 	lea    0x129bd(%rip),%rax        # 224ac <g_104>
    faef:	48 89 85 30 f4 ff ff 	mov    %rax,-0xbd0(%rbp)
    faf6:	48 8d 05 9f df 00 00 	lea    0xdf9f(%rip),%rax        # 1da9c <g_1005>
    fafd:	48 89 85 38 f4 ff ff 	mov    %rax,-0xbc8(%rbp)
    fb04:	48 8d 05 91 df 00 00 	lea    0xdf91(%rip),%rax        # 1da9c <g_1005>
    fb0b:	48 89 85 40 f4 ff ff 	mov    %rax,-0xbc0(%rbp)
    fb12:	48 8d 05 83 df 00 00 	lea    0xdf83(%rip),%rax        # 1da9c <g_1005>
    fb19:	48 89 85 48 f4 ff ff 	mov    %rax,-0xbb8(%rbp)
    fb20:	48 8d 05 85 29 01 00 	lea    0x12985(%rip),%rax        # 224ac <g_104>
    fb27:	48 89 85 50 f4 ff ff 	mov    %rax,-0xbb0(%rbp)
    fb2e:	48 8d 05 77 29 01 00 	lea    0x12977(%rip),%rax        # 224ac <g_104>
    fb35:	48 89 85 58 f4 ff ff 	mov    %rax,-0xba8(%rbp)
    fb3c:	48 8d 05 69 29 01 00 	lea    0x12969(%rip),%rax        # 224ac <g_104>
    fb43:	48 89 85 60 f4 ff ff 	mov    %rax,-0xba0(%rbp)
    fb4a:	48 8d 05 4b df 00 00 	lea    0xdf4b(%rip),%rax        # 1da9c <g_1005>
    fb51:	48 89 85 68 f4 ff ff 	mov    %rax,-0xb98(%rbp)
    fb58:	48 8d 05 4d 29 01 00 	lea    0x1294d(%rip),%rax        # 224ac <g_104>
    fb5f:	48 89 85 70 f4 ff ff 	mov    %rax,-0xb90(%rbp)
    fb66:	48 8d 05 2f df 00 00 	lea    0xdf2f(%rip),%rax        # 1da9c <g_1005>
    fb6d:	48 89 85 78 f4 ff ff 	mov    %rax,-0xb88(%rbp)
    fb74:	48 8d 05 bd 1f 01 00 	lea    0x11fbd(%rip),%rax        # 21b38 <g_1824+0x218>
    fb7b:	48 89 85 e0 ed ff ff 	mov    %rax,-0x1220(%rbp)
    fb82:	48 b8 b3 01 93 d8 da 	movabs $0x4d0975dad89301b3,%rax
    fb89:	75 09 4d 
    fb8c:	48 89 85 48 ee ff ff 	mov    %rax,-0x11b8(%rbp)
    fb93:	c6 85 8a ec ff ff c9 	movb   $0xc9,-0x1376(%rbp)
    fb9a:	c7 85 04 ed ff ff 5e 	movl   $0x23bab65e,-0x12fc(%rbp)
    fba1:	b6 ba 23 
    fba4:	48 8d 05 85 d4 00 00 	lea    0xd485(%rip),%rax        # 1d030 <g_63>
    fbab:	48 89 85 50 ee ff ff 	mov    %rax,-0x11b0(%rbp)
    fbb2:	48 8d 05 cf 03 01 00 	lea    0x103cf(%rip),%rax        # 1ff88 <g_725+0xc8>
    fbb9:	48 89 85 e8 ed ff ff 	mov    %rax,-0x1218(%rbp)
    fbc0:	48 8d 85 e8 ed ff ff 	lea    -0x1218(%rbp),%rax
    fbc7:	48 89 85 f0 ed ff ff 	mov    %rax,-0x1210(%rbp)
    fbce:	48 8d 85 f0 ed ff ff 	lea    -0x1210(%rbp),%rax
    fbd5:	48 89 85 f0 f0 ff ff 	mov    %rax,-0xf10(%rbp)
    fbdc:	48 8d 85 f0 ed ff ff 	lea    -0x1210(%rbp),%rax
    fbe3:	48 89 85 f8 f0 ff ff 	mov    %rax,-0xf08(%rbp)
    fbea:	48 8d 85 f0 ed ff ff 	lea    -0x1210(%rbp),%rax
    fbf1:	48 89 85 00 f1 ff ff 	mov    %rax,-0xf00(%rbp)
    fbf8:	48 8d 85 f0 ed ff ff 	lea    -0x1210(%rbp),%rax
    fbff:	48 89 85 08 f1 ff ff 	mov    %rax,-0xef8(%rbp)
    fc06:	48 8d 85 f0 ed ff ff 	lea    -0x1210(%rbp),%rax
    fc0d:	48 89 85 10 f1 ff ff 	mov    %rax,-0xef0(%rbp)
    fc14:	48 8d 85 f0 ed ff ff 	lea    -0x1210(%rbp),%rax
    fc1b:	48 89 85 18 f1 ff ff 	mov    %rax,-0xee8(%rbp)
    fc22:	48 8d 85 f0 ed ff ff 	lea    -0x1210(%rbp),%rax
    fc29:	48 89 85 20 f1 ff ff 	mov    %rax,-0xee0(%rbp)
    fc30:	66 c7 85 9a ec ff ff 	movw   $0xfff6,-0x1366(%rbp)
    fc37:	f6 ff 
    fc39:	48 8d 05 c0 15 01 00 	lea    0x115c0(%rip),%rax        # 21200 <g_1540+0x20>
    fc40:	48 89 85 f8 ed ff ff 	mov    %rax,-0x1208(%rbp)
    fc47:	48 8d 85 30 f0 ff ff 	lea    -0xfd0(%rbp),%rax
    fc4e:	48 89 85 00 ee ff ff 	mov    %rax,-0x1200(%rbp)
    fc55:	48 8d 85 00 ee ff ff 	lea    -0x1200(%rbp),%rax
    fc5c:	48 89 85 58 ee ff ff 	mov    %rax,-0x11a8(%rbp)
    fc63:	66 c7 85 9c ec ff ff 	movw   $0x0,-0x1364(%rbp)
    fc6a:	00 00 
    fc6c:	48 c7 85 60 ee ff ff 	movq   $0x4,-0x11a0(%rbp)
    fc73:	04 00 00 00 
    fc77:	48 8d 05 1a dd 00 00 	lea    0xdd1a(%rip),%rax        # 1d998 <g_410>
    fc7e:	48 89 85 68 ee ff ff 	mov    %rax,-0x1198(%rbp)
    fc85:	66 c7 85 9e ec ff ff 	movw   $0x5,-0x1362(%rbp)
    fc8c:	05 00 
    fc8e:	c7 85 e8 ec ff ff 00 	movl   $0x0,-0x1318(%rbp)
    fc95:	00 00 00 
    fc98:	eb 1a                	jmp    fcb4 <func_15+0x52b>
    fc9a:	8b 85 e8 ec ff ff    	mov    -0x1318(%rbp),%eax
    fca0:	48 98                	cltq   
    fca2:	c7 84 85 38 f0 ff ff 	movl   $0xfffffffe,-0xfc8(%rbp,%rax,4)
    fca9:	fe ff ff ff 
    fcad:	83 85 e8 ec ff ff 01 	addl   $0x1,-0x1318(%rbp)
    fcb4:	83 bd e8 ec ff ff 01 	cmpl   $0x1,-0x1318(%rbp)
    fcbb:	7e dd                	jle    fc9a <func_15+0x511>
    fcbd:	c7 85 e8 ec ff ff 00 	movl   $0x0,-0x1318(%rbp)
    fcc4:	00 00 00 
    fcc7:	eb 1a                	jmp    fce3 <func_15+0x55a>
    fcc9:	8b 85 e8 ec ff ff    	mov    -0x1318(%rbp),%eax
    fccf:	48 98                	cltq   
    fcd1:	c7 84 85 90 f0 ff ff 	movl   $0x63a9f2a1,-0xf70(%rbp,%rax,4)
    fcd8:	a1 f2 a9 63 
    fcdc:	83 85 e8 ec ff ff 01 	addl   $0x1,-0x1318(%rbp)
    fce3:	83 bd e8 ec ff ff 08 	cmpl   $0x8,-0x1318(%rbp)
    fcea:	7e dd                	jle    fcc9 <func_15+0x540>
    fcec:	c7 85 e8 ec ff ff 00 	movl   $0x0,-0x1318(%rbp)
    fcf3:	00 00 00 
    fcf6:	eb 1b                	jmp    fd13 <func_15+0x58a>
    fcf8:	8b 85 e8 ec ff ff    	mov    -0x1318(%rbp),%eax
    fcfe:	48 98                	cltq   
    fd00:	48 c7 84 c5 30 f0 ff 	movq   $0x0,-0xfd0(%rbp,%rax,8)
    fd07:	ff 00 00 00 00 
    fd0c:	83 85 e8 ec ff ff 01 	addl   $0x1,-0x1318(%rbp)
    fd13:	83 bd e8 ec ff ff 00 	cmpl   $0x0,-0x1318(%rbp)
    fd1a:	7e dc                	jle    fcf8 <func_15+0x56f>
    fd1c:	8b 85 78 ec ff ff    	mov    -0x1388(%rbp),%eax
    fd22:	0f b7 d8             	movzwl %ax,%ebx
    fd25:	8b 85 00 ed ff ff    	mov    -0x1300(%rbp),%eax
    fd2b:	4c 63 e0             	movslq %eax,%r12
    fd2e:	48 8b 05 93 03 01 00 	mov    0x10393(%rip),%rax        # 200c8 <g_723>
    fd35:	48 8b 00             	mov    (%rax),%rax
    fd38:	48 8b 10             	mov    (%rax),%rdx
    fd3b:	48 8b 85 48 f2 ff ff 	mov    -0xdb8(%rbp),%rax
    fd42:	48 39 c2             	cmp    %rax,%rdx
    fd45:	0f 95 c0             	setne  %al
    fd48:	0f b6 d0             	movzbl %al,%edx
    fd4b:	48 8b 05 ae dd 00 00 	mov    0xddae(%rip),%rax        # 1db00 <g_1620>
    fd52:	48 39 c2             	cmp    %rax,%rdx
    fd55:	44 0f b6 2d 8d dd 00 	movzbl 0xdd8d(%rip),%r13d        # 1daea <g_1466+0x2a>
    fd5c:	00 
    fd5d:	8b 85 00 ed ff ff    	mov    -0x1300(%rbp),%eax
    fd63:	0f be d0             	movsbl %al,%edx
    fd66:	48 8b 85 a8 ed ff ff 	mov    -0x1258(%rbp),%rax
    fd6d:	48 89 85 b0 ed ff ff 	mov    %rax,-0x1250(%rbp)
    fd74:	48 8b 85 b0 ed ff ff 	mov    -0x1250(%rbp),%rax
    fd7b:	48 8b 0d 7e 1b 01 00 	mov    0x11b7e(%rip),%rcx        # 21900 <g_1631>
    fd82:	48 89 8d 30 ee ff ff 	mov    %rcx,-0x11d0(%rbp)
    fd89:	48 39 85 30 ee ff ff 	cmp    %rax,-0x11d0(%rbp)
    fd90:	0f 95 c0             	setne  %al
    fd93:	0f b6 c0             	movzbl %al,%eax
    fd96:	89 d6                	mov    %edx,%esi
    fd98:	89 c7                	mov    %eax,%edi
    fd9a:	e8 cb a4 ff ff       	callq  a26a <safe_div_func_int8_t_s_s>
    fd9f:	66 98                	cbtw   
    fda1:	8b 95 00 ed ff ff    	mov    -0x1300(%rbp),%edx
    fda7:	31 c2                	xor    %eax,%edx
    fda9:	48 8b 85 c0 ed ff ff 	mov    -0x1240(%rbp),%rax
    fdb0:	66 89 10             	mov    %dx,(%rax)
    fdb3:	0f b7 00             	movzwl (%rax),%eax
    fdb6:	89 c2                	mov    %eax,%edx
    fdb8:	48 8b 05 79 04 01 00 	mov    0x10479(%rip),%rax        # 20238 <g_937>
    fdbf:	44 31 ea             	xor    %r13d,%edx
    fdc2:	88 10                	mov    %dl,(%rax)
    fdc4:	0f b6 00             	movzbl (%rax),%eax
    fdc7:	0f b6 c0             	movzbl %al,%eax
    fdca:	be 03 00 00 00       	mov    $0x3,%esi
    fdcf:	89 c7                	mov    %eax,%edi
    fdd1:	e8 76 ae ff ff       	callq  ac4c <safe_lshift_func_uint8_t_u_u>
    fdd6:	4c 89 e6             	mov    %r12,%rsi
    fdd9:	bf 00 00 00 00       	mov    $0x0,%edi
    fdde:	e8 68 b2 ff ff       	callq  b04b <safe_sub_func_uint64_t_u_u>
    fde3:	0f b7 c0             	movzwl %ax,%eax
    fde6:	89 de                	mov    %ebx,%esi
    fde8:	89 c7                	mov    %eax,%edi
    fdea:	e8 9f af ff ff       	callq  ad8e <safe_div_func_uint16_t_u_u>
    fdef:	8b 85 4c f0 ff ff    	mov    -0xfb4(%rbp),%eax
    fdf5:	85 c0                	test   %eax,%eax
    fdf7:	74 10                	je     fe09 <func_15+0x680>
    fdf9:	83 bd 7c ec ff ff 00 	cmpl   $0x0,-0x1384(%rbp)
    fe00:	74 07                	je     fe09 <func_15+0x680>
    fe02:	ba 01 00 00 00       	mov    $0x1,%edx
    fe07:	eb 05                	jmp    fe0e <func_15+0x685>
    fe09:	ba 00 00 00 00       	mov    $0x0,%edx
    fe0e:	8b 85 78 ec ff ff    	mov    -0x1388(%rbp),%eax
    fe14:	39 c2                	cmp    %eax,%edx
    fe16:	0f 8e 80 0e 00 00    	jle    10c9c <func_15+0x1513>
    fe1c:	48 c7 85 10 ee ff ff 	movq   $0xffffffffffffffff,-0x11f0(%rbp)
    fe23:	ff ff ff ff 
    fe27:	48 8d 05 7a 26 01 00 	lea    0x1267a(%rip),%rax        # 224a8 <g_35>
    fe2e:	48 89 85 a8 ef ff ff 	mov    %rax,-0x1058(%rbp)
    fe35:	48 c7 85 70 f1 ff ff 	movq   $0x0,-0xe90(%rbp)
    fe3c:	00 00 00 00 
    fe40:	48 c7 85 78 f1 ff ff 	movq   $0x0,-0xe88(%rbp)
    fe47:	00 00 00 00 
    fe4b:	48 c7 85 80 f1 ff ff 	movq   $0x0,-0xe80(%rbp)
    fe52:	00 00 00 00 
    fe56:	48 c7 85 88 f1 ff ff 	movq   $0x0,-0xe78(%rbp)
    fe5d:	00 00 00 00 
    fe61:	48 c7 85 90 f1 ff ff 	movq   $0x0,-0xe70(%rbp)
    fe68:	00 00 00 00 
    fe6c:	c7 85 30 f3 ff ff bd 	movl   $0xbde1e6bd,-0xcd0(%rbp)
    fe73:	e6 e1 bd 
    fe76:	c7 85 34 f3 ff ff bf 	movl   $0xb92d28bf,-0xccc(%rbp)
    fe7d:	28 2d b9 
    fe80:	c7 85 38 f3 ff ff bd 	movl   $0xbde1e6bd,-0xcc8(%rbp)
    fe87:	e6 e1 bd 
    fe8a:	c7 85 3c f3 ff ff bf 	movl   $0xb92d28bf,-0xcc4(%rbp)
    fe91:	28 2d b9 
    fe94:	c7 85 40 f3 ff ff bd 	movl   $0xbde1e6bd,-0xcc0(%rbp)
    fe9b:	e6 e1 bd 
    fe9e:	c7 85 44 f3 ff ff bf 	movl   $0xb92d28bf,-0xcbc(%rbp)
    fea5:	28 2d b9 
    fea8:	c7 85 48 f3 ff ff bd 	movl   $0xbde1e6bd,-0xcb8(%rbp)
    feaf:	e6 e1 bd 
    feb2:	c7 85 4c f3 ff ff bf 	movl   $0xb92d28bf,-0xcb4(%rbp)
    feb9:	28 2d b9 
    febc:	c7 85 50 f3 ff ff bd 	movl   $0xbde1e6bd,-0xcb0(%rbp)
    fec3:	e6 e1 bd 
    fec6:	c7 85 54 f3 ff ff bf 	movl   $0xb92d28bf,-0xcac(%rbp)
    fecd:	28 2d b9 
    fed0:	c7 85 58 f3 ff ff bd 	movl   $0xbde1e6bd,-0xca8(%rbp)
    fed7:	e6 e1 bd 
    feda:	c7 85 5c f3 ff ff bf 	movl   $0xb92d28bf,-0xca4(%rbp)
    fee1:	28 2d b9 
    fee4:	c7 85 60 f3 ff ff bd 	movl   $0xbde1e6bd,-0xca0(%rbp)
    feeb:	e6 e1 bd 
    feee:	c7 85 64 f3 ff ff bf 	movl   $0xb92d28bf,-0xc9c(%rbp)
    fef5:	28 2d b9 
    fef8:	c7 85 68 f3 ff ff bd 	movl   $0xbde1e6bd,-0xc98(%rbp)
    feff:	e6 e1 bd 
    ff02:	c7 85 6c f3 ff ff bf 	movl   $0xb92d28bf,-0xc94(%rbp)
    ff09:	28 2d b9 
    ff0c:	48 8d 85 c8 ed ff ff 	lea    -0x1238(%rbp),%rax
    ff13:	48 89 85 b0 ef ff ff 	mov    %rax,-0x1050(%rbp)
    ff1a:	48 8d 85 10 ee ff ff 	lea    -0x11f0(%rbp),%rax
    ff21:	48 89 85 b8 ef ff ff 	mov    %rax,-0x1048(%rbp)
    ff28:	48 c7 85 c0 ef ff ff 	movq   $0x0,-0x1040(%rbp)
    ff2f:	00 00 00 00 
    ff33:	48 8d 05 c6 12 01 00 	lea    0x112c6(%rip),%rax        # 21200 <g_1540+0x20>
    ff3a:	48 89 85 c8 ef ff ff 	mov    %rax,-0x1038(%rbp)
    ff41:	66 c7 85 c0 f1 ff ff 	movw   $0xfff8,-0xe40(%rbp)
    ff48:	f8 ff 
    ff4a:	66 c7 85 c2 f1 ff ff 	movw   $0x8,-0xe3e(%rbp)
    ff51:	08 00 
    ff53:	66 c7 85 c4 f1 ff ff 	movw   $0xffff,-0xe3c(%rbp)
    ff5a:	ff ff 
    ff5c:	66 c7 85 c6 f1 ff ff 	movw   $0x8,-0xe3a(%rbp)
    ff63:	08 00 
    ff65:	66 c7 85 c8 f1 ff ff 	movw   $0xfff8,-0xe38(%rbp)
    ff6c:	f8 ff 
    ff6e:	66 c7 85 ca f1 ff ff 	movw   $0xfff8,-0xe36(%rbp)
    ff75:	f8 ff 
    ff77:	66 c7 85 cc f1 ff ff 	movw   $0xfff8,-0xe34(%rbp)
    ff7e:	f8 ff 
    ff80:	66 c7 85 ce f1 ff ff 	movw   $0xfff9,-0xe32(%rbp)
    ff87:	f9 ff 
    ff89:	66 c7 85 d0 f1 ff ff 	movw   $0x470d,-0xe30(%rbp)
    ff90:	0d 47 
    ff92:	66 c7 85 d2 f1 ff ff 	movw   $0x87bd,-0xe2e(%rbp)
    ff99:	bd 87 
    ff9b:	66 c7 85 d4 f1 ff ff 	movw   $0x470d,-0xe2c(%rbp)
    ffa2:	0d 47 
    ffa4:	66 c7 85 d6 f1 ff ff 	movw   $0xfff9,-0xe2a(%rbp)
    ffab:	f9 ff 
    ffad:	66 c7 85 d8 f1 ff ff 	movw   $0x5bd6,-0xe28(%rbp)
    ffb4:	d6 5b 
    ffb6:	66 c7 85 da f1 ff ff 	movw   $0x5bd6,-0xe26(%rbp)
    ffbd:	d6 5b 
    ffbf:	66 c7 85 dc f1 ff ff 	movw   $0xfff8,-0xe24(%rbp)
    ffc6:	f8 ff 
    ffc8:	66 c7 85 de f1 ff ff 	movw   $0x8,-0xe22(%rbp)
    ffcf:	08 00 
    ffd1:	66 c7 85 e0 f1 ff ff 	movw   $0xffff,-0xe20(%rbp)
    ffd8:	ff ff 
    ffda:	66 c7 85 e2 f1 ff ff 	movw   $0x8,-0xe1e(%rbp)
    ffe1:	08 00 
    ffe3:	66 c7 85 e4 f1 ff ff 	movw   $0xfff8,-0xe1c(%rbp)
    ffea:	f8 ff 
    ffec:	66 c7 85 e6 f1 ff ff 	movw   $0xfff8,-0xe1a(%rbp)
    fff3:	f8 ff 
    fff5:	66 c7 85 e8 f1 ff ff 	movw   $0xfff8,-0xe18(%rbp)
    fffc:	f8 ff 
    fffe:	66 c7 85 ea f1 ff ff 	movw   $0xfff9,-0xe16(%rbp)
   10005:	f9 ff 
   10007:	66 c7 85 ec f1 ff ff 	movw   $0x470d,-0xe14(%rbp)
   1000e:	0d 47 
   10010:	66 c7 85 ee f1 ff ff 	movw   $0x87bd,-0xe12(%rbp)
   10017:	bd 87 
   10019:	66 c7 85 f0 f1 ff ff 	movw   $0x470d,-0xe10(%rbp)
   10020:	0d 47 
   10022:	66 c7 85 f2 f1 ff ff 	movw   $0xfff9,-0xe0e(%rbp)
   10029:	f9 ff 
   1002b:	66 c7 85 f4 f1 ff ff 	movw   $0x5bd6,-0xe0c(%rbp)
   10032:	d6 5b 
   10034:	66 c7 85 f6 f1 ff ff 	movw   $0x5bd6,-0xe0a(%rbp)
   1003b:	d6 5b 
   1003d:	48 c7 85 d0 ef ff ff 	movq   $0xfffffffffffffffd,-0x1030(%rbp)
   10044:	fd ff ff ff 
   10048:	c7 85 ec ec ff ff 00 	movl   $0x0,-0x1314(%rbp)
   1004f:	00 00 00 
   10052:	eb 1b                	jmp    1006f <func_15+0x8e6>
   10054:	8b 85 ec ec ff ff    	mov    -0x1314(%rbp),%eax
   1005a:	48 98                	cltq   
   1005c:	48 c7 84 c5 30 f1 ff 	movq   $0xfffffffffffffffa,-0xed0(%rbp,%rax,8)
   10063:	ff fa ff ff ff 
   10068:	83 85 ec ec ff ff 01 	addl   $0x1,-0x1314(%rbp)
   1006f:	83 bd ec ec ff ff 03 	cmpl   $0x3,-0x1314(%rbp)
   10076:	7e dc                	jle    10054 <func_15+0x8cb>
   10078:	8b 85 60 f3 ff ff    	mov    -0xca0(%rbp),%eax
   1007e:	83 e8 01             	sub    $0x1,%eax
   10081:	89 85 60 f3 ff ff    	mov    %eax,-0xca0(%rbp)
   10087:	8b 05 a3 da 00 00    	mov    0xdaa3(%rip),%eax        # 1db30 <g_1650+0x10>
   1008d:	48 8b 85 a8 ef ff ff 	mov    -0x1058(%rbp),%rax
   10094:	c7 00 01 00 00 00    	movl   $0x1,(%rax)
   1009a:	48 8d 05 1f 09 01 00 	lea    0x1091f(%rip),%rax        # 209c0 <g_1536>
   100a1:	48 39 85 40 ee ff ff 	cmp    %rax,-0x11c0(%rbp)
   100a8:	0f 95 c0             	setne  %al
   100ab:	0f b6 c0             	movzbl %al,%eax
   100ae:	be 06 00 00 00       	mov    $0x6,%esi
   100b3:	89 c7                	mov    %eax,%edi
   100b5:	e8 d3 ab ff ff       	callq  ac8d <safe_rshift_func_uint8_t_u_s>
   100ba:	48 c7 85 d8 ed ff ff 	movq   $0x0,-0x1228(%rbp)
   100c1:	00 00 00 00 
   100c5:	bf 01 00 00 00       	mov    $0x1,%edi
   100ca:	e8 d7 ad ff ff       	callq  aea6 <safe_unary_minus_func_uint32_t_u>
   100cf:	89 c1                	mov    %eax,%ecx
   100d1:	48 8b 85 b8 ef ff ff 	mov    -0x1048(%rbp),%rax
   100d8:	48 8b 10             	mov    (%rax),%rdx
   100db:	48 8b 05 ae fd 00 00 	mov    0xfdae(%rip),%rax        # 1fe90 <g_496>
   100e2:	48 8b 00             	mov    (%rax),%rax
   100e5:	48 31 c2             	xor    %rax,%rdx
   100e8:	48 8b 85 b8 ef ff ff 	mov    -0x1048(%rbp),%rax
   100ef:	48 89 10             	mov    %rdx,(%rax)
   100f2:	48 8b 85 b8 ef ff ff 	mov    -0x1048(%rbp),%rax
   100f9:	48 8b 00             	mov    (%rax),%rax
   100fc:	25 3a c1 61 55       	and    $0x5561c13a,%eax
   10101:	89 ce                	mov    %ecx,%esi
   10103:	89 c7                	mov    %eax,%edi
   10105:	e8 ac a4 ff ff       	callq  a5b6 <safe_add_func_int32_t_s_s>
   1010a:	8b 85 78 ec ff ff    	mov    -0x1388(%rbp),%eax
   10110:	85 c0                	test   %eax,%eax
   10112:	74 30                	je     10144 <func_15+0x9bb>
   10114:	bf 05 00 00 00       	mov    $0x5,%edi
   10119:	e8 f8 a6 ff ff       	callq  a816 <safe_unary_minus_func_int64_t_s>
   1011e:	0f b6 c0             	movzbl %al,%eax
   10121:	be 06 00 00 00       	mov    $0x6,%esi
   10126:	89 c7                	mov    %eax,%edi
   10128:	e8 2d aa ff ff       	callq  ab5a <safe_add_func_uint8_t_u_u>
   1012d:	0f be d0             	movsbl %al,%edx
   10130:	8b 85 78 ec ff ff    	mov    -0x1388(%rbp),%eax
   10136:	0f be c0             	movsbl %al,%eax
   10139:	89 d6                	mov    %edx,%esi
   1013b:	89 c7                	mov    %eax,%edi
   1013d:	e8 92 a0 ff ff       	callq  a1d4 <safe_add_func_int8_t_s_s>
   10142:	84 c0                	test   %al,%al
   10144:	8b 15 26 d9 00 00    	mov    0xd926(%rip),%edx        # 1da70 <g_751>
   1014a:	48 8b 05 ff fc 00 00 	mov    0xfcff(%rip),%rax        # 1fe50 <g_56>
   10151:	0f b7 00             	movzwl (%rax),%eax
   10154:	98                   	cwtl   
   10155:	39 c2                	cmp    %eax,%edx
   10157:	0f 97 c0             	seta   %al
   1015a:	0f b6 d0             	movzbl %al,%edx
   1015d:	48 8b 85 a8 ef ff ff 	mov    -0x1058(%rbp),%rax
   10164:	89 10                	mov    %edx,(%rax)
   10166:	ba 01 00 00 00       	mov    $0x1,%edx
   1016b:	8b 85 b0 ec ff ff    	mov    -0x1350(%rbp),%eax
   10171:	21 d0                	and    %edx,%eax
   10173:	89 85 b0 ec ff ff    	mov    %eax,-0x1350(%rbp)
   10179:	8b 85 b0 ec ff ff    	mov    -0x1350(%rbp),%eax
   1017f:	0f b6 d0             	movzbl %al,%edx
   10182:	8b 85 78 ec ff ff    	mov    -0x1388(%rbp),%eax
   10188:	0f b6 c0             	movzbl %al,%eax
   1018b:	89 d6                	mov    %edx,%esi
   1018d:	89 c7                	mov    %eax,%edi
   1018f:	e8 ff a9 ff ff       	callq  ab93 <safe_mul_func_uint8_t_u_u>
   10194:	0f b6 c0             	movzbl %al,%eax
   10197:	0b 85 7c ec ff ff    	or     -0x1384(%rbp),%eax
   1019d:	39 85 7c ec ff ff    	cmp    %eax,-0x1384(%rbp)
   101a3:	0f 9d c0             	setge  %al
   101a6:	0f b6 c0             	movzbl %al,%eax
   101a9:	48 89 85 38 f1 ff ff 	mov    %rax,-0xec8(%rbp)
   101b0:	48 8b 85 b0 ef ff ff 	mov    -0x1050(%rbp),%rax
   101b7:	48 8b 00             	mov    (%rax),%rax
   101ba:	48 8b 08             	mov    (%rax),%rcx
   101bd:	48 8b 05 e4 07 01 00 	mov    0x107e4(%rip),%rax        # 209a8 <g_1297>
   101c4:	48 8b 10             	mov    (%rax),%rdx
   101c7:	48 8b 05 da 07 01 00 	mov    0x107da(%rip),%rax        # 209a8 <g_1297>
   101ce:	48 8b 00             	mov    (%rax),%rax
   101d1:	48 8b 12             	mov    (%rdx),%rdx
   101d4:	48 89 10             	mov    %rdx,(%rax)
   101d7:	48 8b 00             	mov    (%rax),%rax
   101da:	48 39 c1             	cmp    %rax,%rcx
   101dd:	0f 95 c0             	setne  %al
   101e0:	0f b6 d0             	movzbl %al,%edx
   101e3:	8b 85 78 ec ff ff    	mov    -0x1388(%rbp),%eax
   101e9:	31 d0                	xor    %edx,%eax
   101eb:	89 c2                	mov    %eax,%edx
   101ed:	48 8b 85 a8 ef ff ff 	mov    -0x1058(%rbp),%rax
   101f4:	8b 00                	mov    (%rax),%eax
   101f6:	89 d6                	mov    %edx,%esi
   101f8:	89 c7                	mov    %eax,%edi
   101fa:	e8 d1 ac ff ff       	callq  aed0 <safe_sub_func_uint32_t_u_u>
   101ff:	66 c7 85 98 ec ff ff 	movw   $0xfffb,-0x1368(%rbp)
   10206:	fb ff 
   10208:	66 c7 85 aa ec ff ff 	movw   $0x4376,-0x1356(%rbp)
   1020f:	76 43 
   10211:	48 8d 85 80 f4 ff ff 	lea    -0xb80(%rbp),%rax
   10218:	48 8d 15 81 8e 00 00 	lea    0x8e81(%rip),%rdx        # 190a0 <g_2536+0x1c>
   1021f:	b9 2a 00 00 00       	mov    $0x2a,%ecx
   10224:	48 89 c7             	mov    %rax,%rdi
   10227:	48 89 d6             	mov    %rdx,%rsi
   1022a:	f3 48 a5             	rep movsq %ds:(%rsi),%es:(%rdi)
   1022d:	48 c7 85 d8 ef ff ff 	movq   $0x0,-0x1028(%rbp)
   10234:	00 00 00 00 
   10238:	48 8d 05 61 07 01 00 	lea    0x10761(%rip),%rax        # 209a0 <g_1299>
   1023f:	48 89 85 e0 ef ff ff 	mov    %rax,-0x1020(%rbp)
   10246:	48 8d 85 d0 f5 ff ff 	lea    -0xa30(%rbp),%rax
   1024d:	48 8d 15 ac 8f 00 00 	lea    0x8fac(%rip),%rdx        # 19200 <g_2536+0x17c>
   10254:	b9 4b 00 00 00       	mov    $0x4b,%ecx
   10259:	48 89 c7             	mov    %rax,%rdi
   1025c:	48 89 d6             	mov    %rdx,%rsi
   1025f:	f3 48 a5             	rep movsq %ds:(%rsi),%es:(%rdi)
   10262:	66 c7 05 31 d8 00 00 	movw   $0x8,0xd831(%rip)        # 1da9c <g_1005>
   10269:	08 00 
   1026b:	90                   	nop
   1026c:	0f b7 05 29 d8 00 00 	movzwl 0xd829(%rip),%eax        # 1da9c <g_1005>
   10273:	66 83 f8 2a          	cmp    $0x2a,%ax
   10277:	74 0b                	je     10284 <func_15+0xafb>
   10279:	8b 85 78 ec ff ff    	mov    -0x1388(%rbp),%eax
   1027f:	e9 87 45 00 00       	jmpq   1480b <func_15+0x5082>
   10284:	48 c7 85 10 ee ff ff 	movq   $0x1,-0x11f0(%rbp)
   1028b:	01 00 00 00 
   1028f:	e9 f3 09 00 00       	jmpq   10c87 <func_15+0x14fe>
   10294:	48 8d 85 30 f1 ff ff 	lea    -0xed0(%rbp),%rax
   1029b:	48 83 c0 08          	add    $0x8,%rax
   1029f:	48 89 85 e8 ef ff ff 	mov    %rax,-0x1018(%rbp)
   102a6:	c7 85 08 ee ff ff f6 	movl   $0x7efedbf6,-0x11f8(%rbp)
   102ad:	db fe 7e 
   102b0:	c7 85 8c ed ff ff 00 	movl   $0x0,-0x1274(%rbp)
   102b7:	00 00 00 
   102ba:	c7 85 90 ed ff ff 8e 	movl   $0xb0c2078e,-0x1270(%rbp)
   102c1:	07 c2 b0 
   102c4:	8b 85 78 ec ff ff    	mov    -0x1388(%rbp),%eax
   102ca:	48 63 d0             	movslq %eax,%rdx
   102cd:	48 8b 85 e8 ef ff ff 	mov    -0x1018(%rbp),%rax
   102d4:	48 89 10             	mov    %rdx,(%rax)
   102d7:	48 ba e2 a8 46 84 5a 	movabs $0xced11c5a8446a8e2,%rdx
   102de:	1c d1 ce 
   102e1:	48 8b 05 c0 06 01 00 	mov    0x106c0(%rip),%rax        # 209a8 <g_1297>
   102e8:	48 8b 00             	mov    (%rax),%rax
   102eb:	48 8b 00             	mov    (%rax),%rax
   102ee:	48 8b 00             	mov    (%rax),%rax
   102f1:	48 09 c2             	or     %rax,%rdx
   102f4:	48 8b 05 ad 06 01 00 	mov    0x106ad(%rip),%rax        # 209a8 <g_1297>
   102fb:	48 8b 00             	mov    (%rax),%rax
   102fe:	48 8b 00             	mov    (%rax),%rax
   10301:	48 89 10             	mov    %rdx,(%rax)
   10304:	48 8b 85 a8 ef ff ff 	mov    -0x1058(%rbp),%rax
   1030b:	8b 00                	mov    (%rax),%eax
   1030d:	41 89 c6             	mov    %eax,%r14d
   10310:	48 8b 05 39 fb 00 00 	mov    0xfb39(%rip),%rax        # 1fe50 <g_56>
   10317:	44 0f b7 28          	movzwl (%rax),%r13d
   1031b:	0f b6 05 d6 d5 00 00 	movzbl 0xd5d6(%rip),%eax        # 1d8f8 <g_153>
   10322:	0f be d8             	movsbl %al,%ebx
   10325:	44 0f b7 a5 98 ec ff 	movzwl -0x1368(%rbp),%r12d
   1032c:	ff 
   1032d:	8b 85 7c ec ff ff    	mov    -0x1384(%rbp),%eax
   10333:	48 63 d0             	movslq %eax,%rdx
   10336:	48 8b 05 83 06 01 00 	mov    0x10683(%rip),%rax        # 209c0 <g_1536>
   1033d:	48 8b 00             	mov    (%rax),%rax
   10340:	48 8b 00             	mov    (%rax),%rax
   10343:	48 8b 00             	mov    (%rax),%rax
   10346:	0f b6 08             	movzbl (%rax),%ecx
   10349:	89 ce                	mov    %ecx,%esi
   1034b:	8b 8d 7c ec ff ff    	mov    -0x1384(%rbp),%ecx
   10351:	09 f1                	or     %esi,%ecx
   10353:	88 08                	mov    %cl,(%rax)
   10355:	0f b6 00             	movzbl (%rax),%eax
   10358:	0f b6 c8             	movzbl %al,%ecx
   1035b:	8b 85 7c ec ff ff    	mov    -0x1384(%rbp),%eax
   10361:	48 98                	cltq   
   10363:	48 39 c1             	cmp    %rax,%rcx
   10366:	0f 95 c0             	setne  %al
   10369:	0f b6 c0             	movzbl %al,%eax
   1036c:	48 89 d6             	mov    %rdx,%rsi
   1036f:	48 89 c7             	mov    %rax,%rdi
   10372:	e8 09 ad ff ff       	callq  b080 <safe_mod_func_uint64_t_u_u>
   10377:	48 89 c2             	mov    %rax,%rdx
   1037a:	48 8d 05 1f 06 01 00 	lea    0x1061f(%rip),%rax        # 209a0 <g_1299>
   10381:	48 8b 00             	mov    (%rax),%rax
   10384:	48 89 10             	mov    %rdx,(%rax)
   10387:	48 8b 05 a2 0e 01 00 	mov    0x10ea2(%rip),%rax        # 21230 <g_1539>
   1038e:	8b 85 78 ec ff ff    	mov    -0x1388(%rbp),%eax
   10394:	f7 d0                	not    %eax
   10396:	c1 e8 1f             	shr    $0x1f,%eax
   10399:	0f b6 d0             	movzbl %al,%edx
   1039c:	8b 85 7c ec ff ff    	mov    -0x1384(%rbp),%eax
   103a2:	0f b7 c0             	movzwl %ax,%eax
   103a5:	89 d6                	mov    %edx,%esi
   103a7:	89 c7                	mov    %eax,%edi
   103a9:	e8 71 a9 ff ff       	callq  ad1f <safe_sub_func_uint16_t_u_u>
   103ae:	b8 01 00 00 00       	mov    $0x1,%eax
   103b3:	31 85 8c ed ff ff    	xor    %eax,-0x1274(%rbp)
   103b9:	8b 85 8c ed ff ff    	mov    -0x1274(%rbp),%eax
   103bf:	0f b6 c0             	movzbl %al,%eax
   103c2:	44 89 e6             	mov    %r12d,%esi
   103c5:	89 c7                	mov    %eax,%edi
   103c7:	e8 80 a8 ff ff       	callq  ac4c <safe_lshift_func_uint8_t_u_u>
   103cc:	0f b6 c0             	movzbl %al,%eax
   103cf:	89 de                	mov    %ebx,%esi
   103d1:	89 c7                	mov    %eax,%edi
   103d3:	e8 fb 9f ff ff       	callq  a3d3 <safe_sub_func_int16_t_s_s>
   103d8:	66 41 39 c5          	cmp    %ax,%r13w
   103dc:	0f 95 c0             	setne  %al
   103df:	0f b6 c0             	movzbl %al,%eax
   103e2:	be fe ff ff ff       	mov    $0xfffffffe,%esi
   103e7:	89 c7                	mov    %eax,%edi
   103e9:	e8 24 9e ff ff       	callq  a212 <safe_mul_func_int8_t_s_s>
   103ee:	0f be c0             	movsbl %al,%eax
   103f1:	be 0d 00 00 00       	mov    $0xd,%esi
   103f6:	89 c7                	mov    %eax,%edi
   103f8:	e8 66 a1 ff ff       	callq  a563 <safe_rshift_func_int16_t_s_u>
   103fd:	98                   	cwtl   
   103fe:	44 89 f6             	mov    %r14d,%esi
   10401:	89 c7                	mov    %eax,%edi
   10403:	e8 b0 aa ff ff       	callq  aeb8 <safe_add_func_uint32_t_u_u>
   10408:	89 c2                	mov    %eax,%edx
   1040a:	8b 85 7c ec ff ff    	mov    -0x1384(%rbp),%eax
   10410:	31 d0                	xor    %edx,%eax
   10412:	0f b6 c0             	movzbl %al,%eax
   10415:	be 01 00 00 00       	mov    $0x1,%esi
   1041a:	89 c7                	mov    %eax,%edi
   1041c:	e8 39 a7 ff ff       	callq  ab5a <safe_add_func_uint8_t_u_u>
   10421:	8b 85 40 f0 ff ff    	mov    -0xfc0(%rbp),%eax
   10427:	85 c0                	test   %eax,%eax
   10429:	75 07                	jne    10432 <func_15+0xca9>
   1042b:	b8 01 00 00 00       	mov    $0x1,%eax
   10430:	eb 05                	jmp    10437 <func_15+0xcae>
   10432:	b8 00 00 00 00       	mov    $0x0,%eax
   10437:	84 c0                	test   %al,%al
   10439:	74 07                	je     10442 <func_15+0xcb9>
   1043b:	ba 01 00 00 00       	mov    $0x1,%edx
   10440:	eb 05                	jmp    10447 <func_15+0xcbe>
   10442:	ba 00 00 00 00       	mov    $0x0,%edx
   10447:	48 8b 85 a8 ef ff ff 	mov    -0x1058(%rbp),%rax
   1044e:	89 10                	mov    %edx,(%rax)
   10450:	66 c7 85 98 ec ff ff 	movw   $0x0,-0x1368(%rbp)
   10457:	00 00 
   10459:	e9 06 08 00 00       	jmpq   10c64 <func_15+0x14db>
   1045e:	48 8d 05 c7 cb 00 00 	lea    0xcbc7(%rip),%rax        # 1d02c <g_50>
   10465:	48 89 85 f0 ef ff ff 	mov    %rax,-0x1010(%rbp)
   1046c:	48 c7 85 f8 ef ff ff 	movq   $0x0,-0x1008(%rbp)
   10473:	00 00 00 00 
   10477:	48 8d 05 7c d4 00 00 	lea    0xd47c(%rip),%rax        # 1d8fa <g_159>
   1047e:	48 89 85 00 f0 ff ff 	mov    %rax,-0x1000(%rbp)
   10485:	c7 85 94 ed ff ff a3 	movl   $0x94d8d2a3,-0x126c(%rbp)
   1048c:	d2 d8 94 
   1048f:	c7 85 98 ed ff ff 06 	movl   $0x6,-0x1268(%rbp)
   10496:	00 00 00 
   10499:	48 8d 05 b0 fd 00 00 	lea    0xfdb0(%rip),%rax        # 20250 <g_954>
   104a0:	48 89 85 08 f0 ff ff 	mov    %rax,-0xff8(%rbp)
   104a7:	48 8d 85 c0 ed ff ff 	lea    -0x1240(%rbp),%rax
   104ae:	48 89 85 10 f0 ff ff 	mov    %rax,-0xff0(%rbp)
   104b5:	c7 85 9c ed ff ff f7 	movl   $0xfffffff7,-0x1264(%rbp)
   104bc:	ff ff ff 
   104bf:	48 8d 05 da 04 01 00 	lea    0x104da(%rip),%rax        # 209a0 <g_1299>
   104c6:	48 89 85 18 f0 ff ff 	mov    %rax,-0xfe8(%rbp)
   104cd:	8b 05 71 d6 00 00    	mov    0xd671(%rip),%eax        # 1db44 <g_1728>
   104d3:	8b 85 78 ec ff ff    	mov    -0x1388(%rbp),%eax
   104d9:	48 63 d8             	movslq %eax,%rbx
   104dc:	44 8b a5 7c ec ff ff 	mov    -0x1384(%rbp),%r12d
   104e3:	48 8b 85 c0 ed ff ff 	mov    -0x1240(%rbp),%rax
   104ea:	48 8d 15 bb 1f 01 00 	lea    0x11fbb(%rip),%rdx        # 224ac <g_104>
   104f1:	48 39 d0             	cmp    %rdx,%rax
   104f4:	0f 95 c0             	setne  %al
   104f7:	0f b6 c0             	movzbl %al,%eax
   104fa:	8b 95 7c ec ff ff    	mov    -0x1384(%rbp),%edx
   10500:	89 d6                	mov    %edx,%esi
   10502:	89 c7                	mov    %eax,%edi
   10504:	e8 ad a0 ff ff       	callq  a5b6 <safe_add_func_int32_t_s_s>
   10509:	48 8d 05 10 04 01 00 	lea    0x10410(%rip),%rax        # 20920 <g_973>
   10510:	48 89 05 01 14 01 00 	mov    %rax,0x11401(%rip)        # 21918 <g_1749>
   10517:	48 8b 05 fa 13 01 00 	mov    0x113fa(%rip),%rax        # 21918 <g_1749>
   1051e:	48 8d 15 fb 03 01 00 	lea    0x103fb(%rip),%rdx        # 20920 <g_973>
   10525:	48 39 d0             	cmp    %rdx,%rax
   10528:	0f 95 c0             	setne  %al
   1052b:	0f b6 c0             	movzbl %al,%eax
   1052e:	39 85 7c ec ff ff    	cmp    %eax,-0x1384(%rbp)
   10534:	0f 9f c0             	setg   %al
   10537:	0f b6 d0             	movzbl %al,%edx
   1053a:	48 8d 05 5f 04 01 00 	lea    0x1045f(%rip),%rax        # 209a0 <g_1299>
   10541:	48 8b 00             	mov    (%rax),%rax
   10544:	48 8b 08             	mov    (%rax),%rcx
   10547:	48 63 d2             	movslq %edx,%rdx
   1054a:	48 8d 05 4f 04 01 00 	lea    0x1044f(%rip),%rax        # 209a0 <g_1299>
   10551:	48 8b 00             	mov    (%rax),%rax
   10554:	48 31 ca             	xor    %rcx,%rdx
   10557:	48 89 10             	mov    %rdx,(%rax)
   1055a:	48 8b 00             	mov    (%rax),%rax
   1055d:	33 85 7c ec ff ff    	xor    -0x1384(%rbp),%eax
   10563:	44 89 e6             	mov    %r12d,%esi
   10566:	89 c7                	mov    %eax,%edi
   10568:	e8 63 a9 ff ff       	callq  aed0 <safe_sub_func_uint32_t_u_u>
   1056d:	48 83 bd c8 ef ff ff 	cmpq   $0x0,-0x1038(%rbp)
   10574:	00 
   10575:	0f 95 c0             	setne  %al
   10578:	0f b6 c0             	movzbl %al,%eax
   1057b:	be 01 00 00 00       	mov    $0x1,%esi
   10580:	89 c7                	mov    %eax,%edi
   10582:	e8 67 9d ff ff       	callq  a2ee <safe_lshift_func_int8_t_s_u>
   10587:	48 8b 05 c2 f8 00 00 	mov    0xf8c2(%rip),%rax        # 1fe50 <g_56>
   1058e:	0f b7 10             	movzwl (%rax),%edx
   10591:	8b 85 7c ec ff ff    	mov    -0x1384(%rbp),%eax
   10597:	89 c1                	mov    %eax,%ecx
   10599:	48 8b 05 b0 f8 00 00 	mov    0xf8b0(%rip),%rax        # 1fe50 <g_56>
   105a0:	21 ca                	and    %ecx,%edx
   105a2:	66 89 10             	mov    %dx,(%rax)
   105a5:	0f b7 10             	movzwl (%rax),%edx
   105a8:	48 8b 85 f0 ef ff ff 	mov    -0x1010(%rbp),%rax
   105af:	0f b7 00             	movzwl (%rax),%eax
   105b2:	31 c2                	xor    %eax,%edx
   105b4:	48 8b 85 f0 ef ff ff 	mov    -0x1010(%rbp),%rax
   105bb:	66 89 10             	mov    %dx,(%rax)
   105be:	48 8b 85 f0 ef ff ff 	mov    -0x1010(%rbp),%rax
   105c5:	0f b7 10             	movzwl (%rax),%edx
   105c8:	48 8b 85 00 f0 ff ff 	mov    -0x1000(%rbp),%rax
   105cf:	66 89 10             	mov    %dx,(%rax)
   105d2:	48 8b 85 00 f0 ff ff 	mov    -0x1000(%rbp),%rax
   105d9:	0f b7 00             	movzwl (%rax),%eax
   105dc:	48 0f bf c0          	movswq %ax,%rax
   105e0:	48 89 85 70 f5 ff ff 	mov    %rax,-0xa90(%rbp)
   105e7:	48 8b 85 70 f5 ff ff 	mov    -0xa90(%rbp),%rax
   105ee:	98                   	cwtl   
   105ef:	be 00 00 00 00       	mov    $0x0,%esi
   105f4:	89 c7                	mov    %eax,%edi
   105f6:	e8 d8 9d ff ff       	callq  a3d3 <safe_sub_func_int16_t_s_s>
   105fb:	48 8b 95 a8 ef ff ff 	mov    -0x1058(%rbp),%rdx
   10602:	8b 12                	mov    (%rdx),%edx
   10604:	98                   	cwtl   
   10605:	21 c2                	and    %eax,%edx
   10607:	48 8b 85 a8 ef ff ff 	mov    -0x1058(%rbp),%rax
   1060e:	89 10                	mov    %edx,(%rax)
   10610:	48 8b 85 a8 ef ff ff 	mov    -0x1058(%rbp),%rax
   10617:	8b 00                	mov    (%rax),%eax
   10619:	0f be c0             	movsbl %al,%eax
   1061c:	be ff ff ff ff       	mov    $0xffffffff,%esi
   10621:	89 c7                	mov    %eax,%edi
   10623:	e8 ca 9b ff ff       	callq  a1f2 <safe_sub_func_int8_t_s_s>
   10628:	0f be d0             	movsbl %al,%edx
   1062b:	8b 05 f7 1e 01 00    	mov    0x11ef7(%rip),%eax        # 22528 <g_1636+0x8>
   10631:	39 c2                	cmp    %eax,%edx
   10633:	0f 92 c0             	setb   %al
   10636:	0f b6 c0             	movzbl %al,%eax
   10639:	be 03 00 00 00       	mov    $0x3,%esi
   1063e:	89 c7                	mov    %eax,%edi
   10640:	e8 35 a8 ff ff       	callq  ae7a <safe_rshift_func_uint16_t_u_u>
   10645:	0f b7 c0             	movzwl %ax,%eax
   10648:	48 c7 c6 ff ff ff ff 	mov    $0xffffffffffffffff,%rsi
   1064f:	48 89 c7             	mov    %rax,%rdi
   10652:	e8 51 a2 ff ff       	callq  a8a8 <safe_sub_func_int64_t_s_s>
   10657:	8b 85 78 ec ff ff    	mov    -0x1388(%rbp),%eax
   1065d:	85 c0                	test   %eax,%eax
   1065f:	78 11                	js     10672 <func_15+0xee9>
   10661:	8b 85 78 ec ff ff    	mov    -0x1388(%rbp),%eax
   10667:	85 c0                	test   %eax,%eax
   10669:	74 07                	je     10672 <func_15+0xee9>
   1066b:	b8 01 00 00 00       	mov    $0x1,%eax
   10670:	eb 05                	jmp    10677 <func_15+0xeee>
   10672:	b8 00 00 00 00       	mov    $0x0,%eax
   10677:	66 89 85 c0 f1 ff ff 	mov    %ax,-0xe40(%rbp)
   1067e:	0f b7 85 c0 f1 ff ff 	movzwl -0xe40(%rbp),%eax
   10685:	66 83 f8 01          	cmp    $0x1,%ax
   10689:	0f 95 c0             	setne  %al
   1068c:	0f b6 c0             	movzbl %al,%eax
   1068f:	48 89 de             	mov    %rbx,%rsi
   10692:	48 89 c7             	mov    %rax,%rdi
   10695:	e8 e6 a9 ff ff       	callq  b080 <safe_mod_func_uint64_t_u_u>
   1069a:	89 85 98 ed ff ff    	mov    %eax,-0x1268(%rbp)
   106a0:	c7 85 78 ec ff ff 01 	movl   $0x1,-0x1388(%rbp)
   106a7:	00 00 00 
   106aa:	0f b7 05 eb d3 00 00 	movzwl 0xd3eb(%rip),%eax        # 1da9c <g_1005>
   106b1:	0f b7 d8             	movzwl %ax,%ebx
   106b4:	44 8b a5 7c ec ff ff 	mov    -0x1384(%rbp),%r12d
   106bb:	48 83 bd 08 f0 ff ff 	cmpq   $0x0,-0xff8(%rbp)
   106c2:	00 
   106c3:	0f 95 c0             	setne  %al
   106c6:	0f b6 d0             	movzbl %al,%edx
   106c9:	0f b7 85 98 ec ff ff 	movzwl -0x1368(%rbp),%eax
   106d0:	31 c2                	xor    %eax,%edx
   106d2:	41 89 d6             	mov    %edx,%r14d
   106d5:	8b 85 7c ec ff ff    	mov    -0x1384(%rbp),%eax
   106db:	44 0f be e8          	movsbl %al,%r13d
   106df:	48 8b 85 08 f0 ff ff 	mov    -0xff8(%rbp),%rax
   106e6:	48 8b 00             	mov    (%rax),%rax
   106e9:	48 8b 00             	mov    (%rax),%rax
   106ec:	48 8b 00             	mov    (%rax),%rax
   106ef:	c6 00 09             	movb   $0x9,(%rax)
   106f2:	be 02 00 00 00       	mov    $0x2,%esi
   106f7:	bf 09 00 00 00       	mov    $0x9,%edi
   106fc:	e8 8c a5 ff ff       	callq  ac8d <safe_rshift_func_uint8_t_u_s>
   10701:	0f b6 d0             	movzbl %al,%edx
   10704:	8b 85 78 ec ff ff    	mov    -0x1388(%rbp),%eax
   1070a:	39 c2                	cmp    %eax,%edx
   1070c:	0f 9f c0             	setg   %al
   1070f:	0f b6 c0             	movzbl %al,%eax
   10712:	44 89 ee             	mov    %r13d,%esi
   10715:	89 c7                	mov    %eax,%edi
   10717:	e8 15 9b ff ff       	callq  a231 <safe_mod_func_int8_t_s_s>
   1071c:	84 c0                	test   %al,%al
   1071e:	74 50                	je     10770 <func_15+0xfe7>
   10720:	48 8b 85 08 f0 ff ff 	mov    -0xff8(%rbp),%rax
   10727:	48 8b 00             	mov    (%rax),%rax
   1072a:	48 8b 00             	mov    (%rax),%rax
   1072d:	48 8b 00             	mov    (%rax),%rax
   10730:	48 85 c0             	test   %rax,%rax
   10733:	0f b6 05 0e d4 00 00 	movzbl 0xd40e(%rip),%eax        # 1db48 <g_1773>
   1073a:	0f b6 d0             	movzbl %al,%edx
   1073d:	8b 85 7c ec ff ff    	mov    -0x1384(%rbp),%eax
   10743:	48 98                	cltq   
   10745:	48 83 f8 f7          	cmp    $0xfffffffffffffff7,%rax
   10749:	0f 96 c0             	setbe  %al
   1074c:	0f b6 c0             	movzbl %al,%eax
   1074f:	21 d0                	and    %edx,%eax
   10751:	89 85 94 ed ff ff    	mov    %eax,-0x126c(%rbp)
   10757:	8b 85 94 ed ff ff    	mov    -0x126c(%rbp),%eax
   1075d:	0f be c0             	movsbl %al,%eax
   10760:	be f9 ff ff ff       	mov    $0xfffffff9,%esi
   10765:	89 c7                	mov    %eax,%edi
   10767:	e8 c5 9a ff ff       	callq  a231 <safe_mod_func_int8_t_s_s>
   1076c:	84 c0                	test   %al,%al
   1076e:	74 0d                	je     1077d <func_15+0xff4>
   10770:	48 8b 05 21 f7 00 00 	mov    0xf721(%rip),%rax        # 1fe98 <g_662>
   10777:	8b 00                	mov    (%rax),%eax
   10779:	85 c0                	test   %eax,%eax
   1077b:	74 07                	je     10784 <func_15+0xffb>
   1077d:	b8 01 00 00 00       	mov    $0x1,%eax
   10782:	eb 05                	jmp    10789 <func_15+0x1000>
   10784:	b8 00 00 00 00       	mov    $0x0,%eax
   10789:	44 39 f0             	cmp    %r14d,%eax
   1078c:	0f 9e c0             	setle  %al
   1078f:	0f b6 c0             	movzbl %al,%eax
   10792:	44 89 e6             	mov    %r12d,%esi
   10795:	89 c7                	mov    %eax,%edi
   10797:	e8 22 a5 ff ff       	callq  acbe <safe_rshift_func_uint8_t_u_u>
   1079c:	0f b6 c0             	movzbl %al,%eax
   1079f:	89 de                	mov    %ebx,%esi
   107a1:	89 c7                	mov    %eax,%edi
   107a3:	e8 5e a6 ff ff       	callq  ae06 <safe_lshift_func_uint16_t_u_u>
   107a8:	0f b7 c0             	movzwl %ax,%eax
   107ab:	be 05 00 00 00       	mov    $0x5,%esi
   107b0:	89 c7                	mov    %eax,%edi
   107b2:	e8 4f a6 ff ff       	callq  ae06 <safe_lshift_func_uint16_t_u_u>
   107b7:	0f b7 d0             	movzwl %ax,%edx
   107ba:	48 8b 85 a8 ef ff ff 	mov    -0x1058(%rbp),%rax
   107c1:	89 10                	mov    %edx,(%rax)
   107c3:	48 8b 85 10 f0 ff ff 	mov    -0xff0(%rbp),%rax
   107ca:	48 8d 15 db 1c 01 00 	lea    0x11cdb(%rip),%rdx        # 224ac <g_104>
   107d1:	48 89 10             	mov    %rdx,(%rax)
   107d4:	48 8b 85 10 f0 ff ff 	mov    -0xff0(%rbp),%rax
   107db:	48 8b 10             	mov    (%rax),%rdx
   107de:	48 8b 85 e0 f3 ff ff 	mov    -0xc20(%rbp),%rax
   107e5:	48 39 c2             	cmp    %rax,%rdx
   107e8:	0f 95 c0             	setne  %al
   107eb:	0f b6 d0             	movzbl %al,%edx
   107ee:	48 8b 85 a8 ef ff ff 	mov    -0x1058(%rbp),%rax
   107f5:	8b 00                	mov    (%rax),%eax
   107f7:	39 85 7c ec ff ff    	cmp    %eax,-0x1384(%rbp)
   107fd:	0f 9d c0             	setge  %al
   10800:	0f b6 c0             	movzbl %al,%eax
   10803:	89 d6                	mov    %edx,%esi
   10805:	89 c7                	mov    %eax,%edi
   10807:	e8 13 a5 ff ff       	callq  ad1f <safe_sub_func_uint16_t_u_u>
   1080c:	83 bd 7c ec ff ff 00 	cmpl   $0x0,-0x1384(%rbp)
   10813:	74 0b                	je     10820 <func_15+0x1097>
   10815:	8b 85 78 ec ff ff    	mov    -0x1388(%rbp),%eax
   1081b:	e9 eb 3f 00 00       	jmpq   1480b <func_15+0x5082>
   10820:	48 8d 05 a6 d2 00 00 	lea    0xd2a6(%rip),%rax        # 1dacd <g_1466+0xd>
   10827:	48 89 85 20 f0 ff ff 	mov    %rax,-0xfe0(%rbp)
   1082e:	c7 85 30 f8 ff ff 98 	movl   $0xbb3db298,-0x7d0(%rbp)
   10835:	b2 3d bb 
   10838:	c7 85 34 f8 ff ff ff 	movl   $0xffffffff,-0x7cc(%rbp)
   1083f:	ff ff ff 
   10842:	c7 85 38 f8 ff ff ff 	movl   $0xffffffff,-0x7c8(%rbp)
   10849:	ff ff ff 
   1084c:	c7 85 3c f8 ff ff 98 	movl   $0xbb3db298,-0x7c4(%rbp)
   10853:	b2 3d bb 
   10856:	c7 85 40 f8 ff ff ff 	movl   $0xffffffff,-0x7c0(%rbp)
   1085d:	ff ff ff 
   10860:	c7 85 44 f8 ff ff ff 	movl   $0xffffffff,-0x7bc(%rbp)
   10867:	ff ff ff 
   1086a:	c7 85 48 f8 ff ff 98 	movl   $0xbb3db298,-0x7b8(%rbp)
   10871:	b2 3d bb 
   10874:	c7 85 4c f8 ff ff ff 	movl   $0xffffffff,-0x7b4(%rbp)
   1087b:	ff ff ff 
   1087e:	c7 85 50 f8 ff ff ff 	movl   $0xffffffff,-0x7b0(%rbp)
   10885:	ff ff ff 
   10888:	8b 85 7c ec ff ff    	mov    -0x1384(%rbp),%eax
   1088e:	0f b7 d8             	movzwl %ax,%ebx
   10891:	44 8b a5 38 f8 ff ff 	mov    -0x7c8(%rbp),%r12d
   10898:	48 8b 05 f1 f5 00 00 	mov    0xf5f1(%rip),%rax        # 1fe90 <g_496>
   1089f:	48 8b 00             	mov    (%rax),%rax
   108a2:	48 89 85 70 ec ff ff 	mov    %rax,-0x1390(%rbp)
   108a9:	44 8b ad 78 ec ff ff 	mov    -0x1388(%rbp),%r13d
   108b0:	48 8b 05 81 f9 00 00 	mov    0xf981(%rip),%rax        # 20238 <g_937>
   108b7:	0f b6 00             	movzbl (%rax),%eax
   108ba:	44 0f be f0          	movsbl %al,%r14d
   108be:	8b 85 78 ec ff ff    	mov    -0x1388(%rbp),%eax
   108c4:	44 0f b6 f8          	movzbl %al,%r15d
   108c8:	8b 85 98 ed ff ff    	mov    -0x1268(%rbp),%eax
   108ce:	0f b6 d0             	movzbl %al,%edx
   108d1:	48 8b 05 60 f9 00 00 	mov    0xf960(%rip),%rax        # 20238 <g_937>
   108d8:	0f b6 00             	movzbl (%rax),%eax
   108db:	0f b6 c0             	movzbl %al,%eax
   108de:	89 d6                	mov    %edx,%esi
   108e0:	89 c7                	mov    %eax,%edi
   108e2:	e8 ac a2 ff ff       	callq  ab93 <safe_mul_func_uint8_t_u_u>
   108e7:	8b 85 7c ec ff ff    	mov    -0x1384(%rbp),%eax
   108ed:	0f b6 c0             	movzbl %al,%eax
   108f0:	44 89 fe             	mov    %r15d,%esi
   108f3:	89 c7                	mov    %eax,%edi
   108f5:	e8 60 a2 ff ff       	callq  ab5a <safe_add_func_uint8_t_u_u>
   108fa:	84 c0                	test   %al,%al
   108fc:	74 4a                	je     10948 <func_15+0x11bf>
   108fe:	48 8b 05 ab 00 01 00 	mov    0x100ab(%rip),%rax        # 209b0 <g_1538>
   10905:	48 8b 00             	mov    (%rax),%rax
   10908:	48 8b 85 b0 ef ff ff 	mov    -0x1050(%rbp),%rax
   1090f:	48 8b 95 e0 ef ff ff 	mov    -0x1020(%rbp),%rdx
   10916:	48 89 10             	mov    %rdx,(%rax)
   10919:	48 8b 85 b0 ef ff ff 	mov    -0x1050(%rbp),%rax
   10920:	48 8b 00             	mov    (%rax),%rax
   10923:	48 39 85 18 f0 ff ff 	cmp    %rax,-0xfe8(%rbp)
   1092a:	0f 95 c0             	setne  %al
   1092d:	0f b6 c0             	movzbl %al,%eax
   10930:	be 18 6f 00 00       	mov    $0x6f18,%esi
   10935:	89 c7                	mov    %eax,%edi
   10937:	e8 b9 9a ff ff       	callq  a3f5 <safe_mul_func_int16_t_s_s>
   1093c:	66 85 c0             	test   %ax,%ax
   1093f:	74 07                	je     10948 <func_15+0x11bf>
   10941:	ba 01 00 00 00       	mov    $0x1,%edx
   10946:	eb 05                	jmp    1094d <func_15+0x11c4>
   10948:	ba 00 00 00 00       	mov    $0x0,%edx
   1094d:	48 8b 05 fc f4 00 00 	mov    0xf4fc(%rip),%rax        # 1fe50 <g_56>
   10954:	0f b7 00             	movzwl (%rax),%eax
   10957:	98                   	cwtl   
   10958:	39 c2                	cmp    %eax,%edx
   1095a:	0f 9f c0             	setg   %al
   1095d:	0f b6 c0             	movzbl %al,%eax
   10960:	be 06 00 00 00       	mov    $0x6,%esi
   10965:	89 c7                	mov    %eax,%edi
   10967:	e8 a6 98 ff ff       	callq  a212 <safe_mul_func_int8_t_s_s>
   1096c:	0f be c0             	movsbl %al,%eax
   1096f:	44 89 f6             	mov    %r14d,%esi
   10972:	89 c7                	mov    %eax,%edi
   10974:	e8 b8 98 ff ff       	callq  a231 <safe_mod_func_int8_t_s_s>
   10979:	0f be c0             	movsbl %al,%eax
   1097c:	44 89 ee             	mov    %r13d,%esi
   1097f:	89 c7                	mov    %eax,%edi
   10981:	e8 79 9d ff ff       	callq  a6ff <safe_div_func_int32_t_s_s>
   10986:	be 0e 00 00 00       	mov    $0xe,%esi
   1098b:	bf 00 00 00 00       	mov    $0x0,%edi
   10990:	e8 95 9b ff ff       	callq  a52a <safe_rshift_func_int16_t_s_s>
   10995:	8b 85 78 ec ff ff    	mov    -0x1388(%rbp),%eax
   1099b:	48 98                	cltq   
   1099d:	48 3d fe ff 00 00    	cmp    $0xfffe,%rax
   109a3:	0f 96 c0             	setbe  %al
   109a6:	0f b6 d0             	movzbl %al,%edx
   109a9:	48 8b 85 20 f0 ff ff 	mov    -0xfe0(%rbp),%rax
   109b0:	0f b6 00             	movzbl (%rax),%eax
   109b3:	89 c1                	mov    %eax,%ecx
   109b5:	89 d0                	mov    %edx,%eax
   109b7:	31 c8                	xor    %ecx,%eax
   109b9:	89 c2                	mov    %eax,%edx
   109bb:	48 8b 85 20 f0 ff ff 	mov    -0xfe0(%rbp),%rax
   109c2:	88 10                	mov    %dl,(%rax)
   109c4:	48 8b 85 20 f0 ff ff 	mov    -0xfe0(%rbp),%rax
   109cb:	0f b6 00             	movzbl (%rax),%eax
   109ce:	0f b6 c0             	movzbl %al,%eax
   109d1:	89 c6                	mov    %eax,%esi
   109d3:	bf 15 00 00 00       	mov    $0x15,%edi
   109d8:	e8 11 99 ff ff       	callq  a2ee <safe_lshift_func_int8_t_s_u>
   109dd:	48 0f be c0          	movsbq %al,%rax
   109e1:	48 8b b5 70 ec ff ff 	mov    -0x1390(%rbp),%rsi
   109e8:	48 89 c7             	mov    %rax,%rdi
   109eb:	e8 5b a6 ff ff       	callq  b04b <safe_sub_func_uint64_t_u_u>
   109f0:	48 8b 15 a9 ff 00 00 	mov    0xffa9(%rip),%rdx        # 209a0 <g_1299>
   109f7:	48 8b 12             	mov    (%rdx),%rdx
   109fa:	48 39 d0             	cmp    %rdx,%rax
   109fd:	0f 96 c0             	setbe  %al
   10a00:	0f b6 d0             	movzbl %al,%edx
   10a03:	8b 85 38 f8 ff ff    	mov    -0x7c8(%rbp),%eax
   10a09:	39 c2                	cmp    %eax,%edx
   10a0b:	0f 9e c0             	setle  %al
   10a0e:	0f b6 c0             	movzbl %al,%eax
   10a11:	8b 95 98 ed ff ff    	mov    -0x1268(%rbp),%edx
   10a17:	31 d0                	xor    %edx,%eax
   10a19:	98                   	cwtl   
   10a1a:	44 89 e6             	mov    %r12d,%esi
   10a1d:	89 c7                	mov    %eax,%edi
   10a1f:	e8 06 9b ff ff       	callq  a52a <safe_rshift_func_int16_t_s_s>
   10a24:	0f b7 c0             	movzwl %ax,%eax
   10a27:	89 de                	mov    %ebx,%esi
   10a29:	89 c7                	mov    %eax,%edi
   10a2b:	e8 0d a3 ff ff       	callq  ad3d <safe_mul_func_uint16_t_u_u>
   10a30:	0f b7 c0             	movzwl %ax,%eax
   10a33:	be fb ff ff ff       	mov    $0xfffffffb,%esi
   10a38:	89 c7                	mov    %eax,%edi
   10a3a:	e8 c6 9b ff ff       	callq  a605 <safe_sub_func_int32_t_s_s>
   10a3f:	ba 00 00 00 00       	mov    $0x0,%edx
   10a44:	8b 85 78 ec ff ff    	mov    -0x1388(%rbp),%eax
   10a4a:	21 d0                	and    %edx,%eax
   10a4c:	48 98                	cltq   
   10a4e:	48 be 5e a3 93 30 71 	movabs $0x51b86d713093a35e,%rsi
   10a55:	6d b8 51 
   10a58:	48 89 c7             	mov    %rax,%rdi
   10a5b:	e8 97 9f ff ff       	callq  a9f7 <safe_div_func_int64_t_s_s>
   10a60:	48 8b 95 a8 ef ff ff 	mov    -0x1058(%rbp),%rdx
   10a67:	8b 12                	mov    (%rdx),%edx
   10a69:	31 c2                	xor    %eax,%edx
   10a6b:	48 8b 85 a8 ef ff ff 	mov    -0x1058(%rbp),%rax
   10a72:	89 10                	mov    %edx,(%rax)
   10a74:	48 8b 05 3d ff 00 00 	mov    0xff3d(%rip),%rax        # 209b8 <g_1537>
   10a7b:	48 8b 00             	mov    (%rax),%rax
   10a7e:	48 8b 10             	mov    (%rax),%rdx
   10a81:	48 8b 05 c0 f7 00 00 	mov    0xf7c0(%rip),%rax        # 20248 <g_955>
   10a88:	48 8b 00             	mov    (%rax),%rax
   10a8b:	48 39 c2             	cmp    %rax,%rdx
   10a8e:	0f 95 c0             	setne  %al
   10a91:	0f b6 d0             	movzbl %al,%edx
   10a94:	48 8b 85 a8 ef ff ff 	mov    -0x1058(%rbp),%rax
   10a9b:	89 10                	mov    %edx,(%rax)
   10a9d:	48 8b 85 a8 ef ff ff 	mov    -0x1058(%rbp),%rax
   10aa4:	8b 00                	mov    (%rax),%eax
   10aa6:	89 85 78 ec ff ff    	mov    %eax,-0x1388(%rbp)
   10aac:	48 8b 85 a0 ed ff ff 	mov    -0x1260(%rbp),%rax
   10ab3:	48 85 c0             	test   %rax,%rax
   10ab6:	0f 95 c0             	setne  %al
   10ab9:	0f b6 c0             	movzbl %al,%eax
   10abc:	89 c7                	mov    %eax,%edi
   10abe:	e8 fc 96 ff ff       	callq  a1bf <safe_unary_minus_func_int8_t_s>
   10ac3:	84 c0                	test   %al,%al
   10ac5:	0f 84 88 00 00 00    	je     10b53 <func_15+0x13ca>
   10acb:	48 8d 05 0e 12 01 00 	lea    0x1120e(%rip),%rax        # 21ce0 <g_1823>
   10ad2:	48 89 85 28 f0 ff ff 	mov    %rax,-0xfd8(%rbp)
   10ad9:	8b 85 78 ec ff ff    	mov    -0x1388(%rbp),%eax
   10adf:	85 c0                	test   %eax,%eax
   10ae1:	0f 85 8d 01 00 00    	jne    10c74 <func_15+0x14eb>
   10ae7:	48 8b 15 f2 11 01 00 	mov    0x111f2(%rip),%rdx        # 21ce0 <g_1823>
   10aee:	48 8b 85 28 f0 ff ff 	mov    -0xfd8(%rbp),%rax
   10af5:	48 89 10             	mov    %rdx,(%rax)
   10af8:	48 8b 85 28 f0 ff ff 	mov    -0xfd8(%rbp),%rax
   10aff:	48 8b 10             	mov    (%rax),%rdx
   10b02:	48 8b 85 e0 ed ff ff 	mov    -0x1220(%rbp),%rax
   10b09:	48 39 c2             	cmp    %rax,%rdx
   10b0c:	0f 95 c0             	setne  %al
   10b0f:	0f b6 d0             	movzbl %al,%edx
   10b12:	48 8b 85 a8 ef ff ff 	mov    -0x1058(%rbp),%rax
   10b19:	89 10                	mov    %edx,(%rax)
   10b1b:	48 8b 85 10 ee ff ff 	mov    -0x11f0(%rbp),%rax
   10b22:	48 8d 95 08 ee ff ff 	lea    -0x11f8(%rbp),%rdx
   10b29:	48 89 94 c5 70 f1 ff 	mov    %rdx,-0xe90(%rbp,%rax,8)
   10b30:	ff 
   10b31:	48 8b 05 58 fe 00 00 	mov    0xfe58(%rip),%rax        # 20990 <g_1169>
   10b38:	8b 00                	mov    (%rax),%eax
   10b3a:	48 8b 05 4f fe 00 00 	mov    0xfe4f(%rip),%rax        # 20990 <g_1169>
   10b41:	c7 00 00 00 00 00    	movl   $0x0,(%rax)
   10b47:	c6 05 fa cf 00 00 00 	movb   $0x0,0xcffa(%rip)        # 1db48 <g_1773>
   10b4e:	e9 fb 00 00 00       	jmpq   10c4e <func_15+0x14c5>
   10b53:	c6 85 95 ec ff ff ff 	movb   $0xff,-0x136b(%rbp)
   10b5a:	48 8d 85 30 f8 ff ff 	lea    -0x7d0(%rbp),%rax
   10b61:	48 8d 15 f8 88 00 00 	lea    0x88f8(%rip),%rdx        # 19460 <g_2536+0x3dc>
   10b68:	b9 78 00 00 00       	mov    $0x78,%ecx
   10b6d:	48 89 c7             	mov    %rax,%rdi
   10b70:	48 89 d6             	mov    %rdx,%rsi
   10b73:	f3 48 a5             	rep movsq %ds:(%rsi),%es:(%rdi)
   10b76:	48 8b 85 b8 ed ff ff 	mov    -0x1248(%rbp),%rax
   10b7d:	8b 10                	mov    (%rax),%edx
   10b7f:	83 c2 01             	add    $0x1,%edx
   10b82:	89 10                	mov    %edx,(%rax)
   10b84:	8b 18                	mov    (%rax),%ebx
   10b86:	8b 85 78 ec ff ff    	mov    -0x1388(%rbp),%eax
   10b8c:	0f b6 c0             	movzbl %al,%eax
   10b8f:	be 06 00 00 00       	mov    $0x6,%esi
   10b94:	89 c7                	mov    %eax,%edi
   10b96:	e8 23 a1 ff ff       	callq  acbe <safe_rshift_func_uint8_t_u_u>
   10b9b:	48 8b 05 0e fe 00 00 	mov    0xfe0e(%rip),%rax        # 209b0 <g_1538>
   10ba2:	48 8b 00             	mov    (%rax),%rax
   10ba5:	0f b6 00             	movzbl (%rax),%eax
   10ba8:	0f be c0             	movsbl %al,%eax
   10bab:	89 c6                	mov    %eax,%esi
   10bad:	bf 09 00 00 00       	mov    $0x9,%edi
   10bb2:	e8 3b 96 ff ff       	callq  a1f2 <safe_sub_func_int8_t_s_s>
   10bb7:	0f be c0             	movsbl %al,%eax
   10bba:	be 00 00 00 00       	mov    $0x0,%esi
   10bbf:	89 c7                	mov    %eax,%edi
   10bc1:	e8 20 a3 ff ff       	callq  aee6 <safe_mul_func_uint32_t_u_u>
   10bc6:	39 c3                	cmp    %eax,%ebx
   10bc8:	0f 93 c0             	setae  %al
   10bcb:	0f b6 c0             	movzbl %al,%eax
   10bce:	39 85 7c ec ff ff    	cmp    %eax,-0x1384(%rbp)
   10bd4:	0f 9c c0             	setl   %al
   10bd7:	0f b6 c0             	movzbl %al,%eax
   10bda:	20 85 95 ec ff ff    	and    %al,-0x136b(%rbp)
   10be0:	48 83 ad 48 ee ff ff 	subq   $0x1,-0x11b8(%rbp)
   10be7:	01 
   10be8:	8b 85 78 ec ff ff    	mov    -0x1388(%rbp),%eax
   10bee:	e9 18 3c 00 00       	jmpq   1480b <func_15+0x5082>
   10bf3:	48 8b 95 10 ee ff ff 	mov    -0x11f0(%rbp),%rdx
   10bfa:	0f b7 85 98 ec ff ff 	movzwl -0x1368(%rbp),%eax
   10c01:	8d 70 01             	lea    0x1(%rax),%esi
   10c04:	0f b6 05 3d cf 00 00 	movzbl 0xcf3d(%rip),%eax        # 1db48 <g_1773>
   10c0b:	0f b6 c0             	movzbl %al,%eax
   10c0e:	48 63 c8             	movslq %eax,%rcx
   10c11:	48 63 f6             	movslq %esi,%rsi
   10c14:	48 89 d0             	mov    %rdx,%rax
   10c17:	48 01 c0             	add    %rax,%rax
   10c1a:	48 01 d0             	add    %rdx,%rax
   10c1d:	48 01 f0             	add    %rsi,%rax
   10c20:	48 01 c0             	add    %rax,%rax
   10c23:	48 01 c8             	add    %rcx,%rax
   10c26:	48 8d 14 c5 00 00 00 	lea    0x0(,%rax,8),%rdx
   10c2d:	00 
   10c2e:	48 8d 05 eb cc 00 00 	lea    0xcceb(%rip),%rax        # 1d920 <g_350>
   10c35:	48 8b 04 02          	mov    (%rdx,%rax,1),%rax
   10c39:	48 85 c0             	test   %rax,%rax
   10c3c:	75 1d                	jne    10c5b <func_15+0x14d2>
   10c3e:	0f b6 05 03 cf 00 00 	movzbl 0xcf03(%rip),%eax        # 1db48 <g_1773>
   10c45:	83 c0 01             	add    $0x1,%eax
   10c48:	88 05 fa ce 00 00    	mov    %al,0xcefa(%rip)        # 1db48 <g_1773>
   10c4e:	0f b6 05 f3 ce 00 00 	movzbl 0xcef3(%rip),%eax        # 1db48 <g_1773>
   10c55:	3c 01                	cmp    $0x1,%al
   10c57:	76 9a                	jbe    10bf3 <func_15+0x146a>
   10c59:	eb 01                	jmp    10c5c <func_15+0x14d3>
   10c5b:	90                   	nop
   10c5c:	66 83 85 98 ec ff ff 	addw   $0x1,-0x1368(%rbp)
   10c63:	01 
   10c64:	66 83 bd 98 ec ff ff 	cmpw   $0x1,-0x1368(%rbp)
   10c6b:	01 
   10c6c:	0f 86 ec f7 ff ff    	jbe    1045e <func_15+0xcd5>
   10c72:	eb 01                	jmp    10c75 <func_15+0x14ec>
   10c74:	90                   	nop
   10c75:	48 8b 85 10 ee ff ff 	mov    -0x11f0(%rbp),%rax
   10c7c:	48 83 e8 01          	sub    $0x1,%rax
   10c80:	48 89 85 10 ee ff ff 	mov    %rax,-0x11f0(%rbp)
   10c87:	48 8b 85 10 ee ff ff 	mov    -0x11f0(%rbp),%rax
   10c8e:	48 85 c0             	test   %rax,%rax
   10c91:	0f 89 fd f5 ff ff    	jns    10294 <func_15+0xb0b>
   10c97:	e9 4b 3b 00 00       	jmpq   147e7 <func_15+0x505e>
   10c9c:	c6 85 87 ec ff ff 01 	movb   $0x1,-0x1379(%rbp)
   10ca3:	c7 85 f0 ec ff ff 34 	movl   $0x9e915c34,-0x1310(%rbp)
   10caa:	5c 91 9e 
   10cad:	c7 85 b4 ec ff ff ff 	movl   $0xffffffff,-0x134c(%rbp)
   10cb4:	ff ff ff 
   10cb7:	c7 85 f4 ec ff ff f6 	movl   $0xfffffff6,-0x130c(%rbp)
   10cbe:	ff ff ff 
   10cc1:	c7 85 f8 ec ff ff ff 	movl   $0xffffffff,-0x1308(%rbp)
   10cc8:	ff ff ff 
   10ccb:	c7 85 08 ed ff ff 4a 	movl   $0x2e6c144a,-0x12f8(%rbp)
   10cd2:	14 6c 2e 
   10cd5:	c7 85 fc ec ff ff 69 	movl   $0x5652e369,-0x1304(%rbp)
   10cdc:	e3 52 56 
   10cdf:	48 8d 05 3a cc 00 00 	lea    0xcc3a(%rip),%rax        # 1d920 <g_350>
   10ce6:	48 89 85 70 ee ff ff 	mov    %rax,-0x1190(%rbp)
   10ced:	48 8d 05 74 fb 00 00 	lea    0xfb74(%rip),%rax        # 20868 <g_974+0x608>
   10cf4:	48 89 85 78 ee ff ff 	mov    %rax,-0x1188(%rbp)
   10cfb:	48 8d 85 f0 ed ff ff 	lea    -0x1210(%rbp),%rax
   10d02:	48 89 85 80 ee ff ff 	mov    %rax,-0x1180(%rbp)
   10d09:	c7 85 0c ed ff ff 00 	movl   $0xa5553300,-0x12f4(%rbp)
   10d10:	33 55 a5 
   10d13:	48 b8 01 9c 4f 5d c7 	movabs $0x101f9c75d4f9c01,%rax
   10d1a:	f9 01 01 
   10d1d:	48 89 85 c0 f1 ff ff 	mov    %rax,-0xe40(%rbp)
   10d24:	66 c7 85 c8 f1 ff ff 	movw   $0x215d,-0xe38(%rbp)
   10d2b:	5d 21 
   10d2d:	48 b8 fc 0e 4f c7 ff 	movabs $0xfcb701ffc74f0efc,%rax
   10d34:	01 b7 fc 
   10d37:	48 89 85 ca f1 ff ff 	mov    %rax,-0xe36(%rbp)
   10d3e:	66 c7 85 d2 f1 ff ff 	movw   $0x2183,-0xe2e(%rbp)
   10d45:	83 21 
   10d47:	48 b8 ff f8 f9 ab c7 	movabs $0xffb7ffc7abf9f8ff,%rax
   10d4e:	ff b7 ff 
   10d51:	48 89 85 d4 f1 ff ff 	mov    %rax,-0xe2c(%rbp)
   10d58:	66 c7 85 dc f1 ff ff 	movw   $0xabc7,-0xe24(%rbp)
   10d5f:	c7 ab 
   10d61:	48 b8 01 0e 01 ab 21 	movabs $0x1014f21ab010e01,%rax
   10d68:	4f 01 01 
   10d6b:	48 89 85 de f1 ff ff 	mov    %rax,-0xe22(%rbp)
   10d72:	66 c7 85 e6 f1 ff ff 	movw   $0x3c83,-0xe1a(%rbp)
   10d79:	83 3c 
   10d7b:	48 b8 01 9c fc c7 83 	movabs $0x146ff83c7fc9c01,%rax
   10d82:	ff 46 01 
   10d85:	48 89 85 e8 f1 ff ff 	mov    %rax,-0xe18(%rbp)
   10d8c:	66 c7 85 f0 f1 ff ff 	movw   $0x835d,-0xe10(%rbp)
   10d93:	5d 83 
   10d95:	48 b8 ff 46 01 5d 83 	movabs $0xff0758835d0146ff,%rax
   10d9c:	58 07 ff 
   10d9f:	48 89 85 f2 f1 ff ff 	mov    %rax,-0xe0e(%rbp)
   10da6:	66 c7 85 fa f1 ff ff 	movw   $0x101,-0xe06(%rbp)
   10dad:	01 01 
   10daf:	48 b8 00 ae 02 fc fc 	movabs $0xae02fcfc02ae00,%rax
   10db6:	02 ae 00 
   10db9:	48 89 85 fc f1 ff ff 	mov    %rax,-0xe04(%rbp)
   10dc0:	66 c7 85 04 f2 ff ff 	movw   $0x4f01,-0xdfc(%rbp)
   10dc7:	01 4f 
   10dc9:	48 b8 58 ff 7b 01 f9 	movabs $0x58ff02f9017bff58,%rax
   10dd0:	02 ff 58 
   10dd3:	48 89 85 06 f2 ff ff 	mov    %rax,-0xdfa(%rbp)
   10dda:	66 c7 85 0e f2 ff ff 	movw   $0xfc01,-0xdf2(%rbp)
   10de1:	01 fc 
   10de3:	48 b8 00 07 7b f9 ff 	movabs $0xd458fff97b0700,%rax
   10dea:	58 d4 00 
   10ded:	48 89 85 10 f2 ff ff 	mov    %rax,-0xdf0(%rbp)
   10df4:	66 c7 85 18 f2 ff ff 	movw   $0xfcfc,-0xde8(%rbp)
   10dfb:	fc fc 
   10dfd:	48 b8 ff ce 02 4f f9 	movabs $0xffd4fff94f02ceff,%rax
   10e04:	ff d4 ff 
   10e07:	48 89 85 1a f2 ff ff 	mov    %rax,-0xde6(%rbp)
   10e0e:	66 c7 85 22 f2 ff ff 	movw   $0x4ff9,-0xdde(%rbp)
   10e15:	f9 4f 
   10e17:	48 8d 05 e2 03 01 00 	lea    0x103e2(%rip),%rax        # 21200 <g_1540+0x20>
   10e1e:	48 89 85 88 ee ff ff 	mov    %rax,-0x1178(%rbp)
   10e25:	66 c7 85 a0 ec ff ff 	movw   $0x9843,-0x1360(%rbp)
   10e2c:	43 98 
   10e2e:	c6 85 89 ec ff ff fa 	movb   $0xfa,-0x1377(%rbp)
   10e35:	c7 85 10 ed ff ff 00 	movl   $0x0,-0x12f0(%rbp)
   10e3c:	00 00 00 
   10e3f:	48 c7 85 18 ee ff ff 	movq   $0x0,-0x11e8(%rbp)
   10e46:	00 00 00 00 
   10e4a:	c7 85 14 ed ff ff f7 	movl   $0xfffffff7,-0x12ec(%rbp)
   10e51:	ff ff ff 
   10e54:	48 c7 85 70 f1 ff ff 	movq   $0x0,-0xe90(%rbp)
   10e5b:	00 00 00 00 
   10e5f:	48 8d 85 b0 ed ff ff 	lea    -0x1250(%rbp),%rax
   10e66:	48 89 85 78 f1 ff ff 	mov    %rax,-0xe88(%rbp)
   10e6d:	48 c7 85 80 f1 ff ff 	movq   $0x0,-0xe80(%rbp)
   10e74:	00 00 00 00 
   10e78:	48 c7 85 88 f1 ff ff 	movq   $0x0,-0xe78(%rbp)
   10e7f:	00 00 00 00 
   10e83:	48 8d 85 b0 ed ff ff 	lea    -0x1250(%rbp),%rax
   10e8a:	48 89 85 90 f1 ff ff 	mov    %rax,-0xe70(%rbp)
   10e91:	48 c7 85 98 f1 ff ff 	movq   $0x0,-0xe68(%rbp)
   10e98:	00 00 00 00 
   10e9c:	48 c7 85 a0 f1 ff ff 	movq   $0x0,-0xe60(%rbp)
   10ea3:	00 00 00 00 
   10ea7:	48 8d 85 b0 ed ff ff 	lea    -0x1250(%rbp),%rax
   10eae:	48 89 85 a8 f1 ff ff 	mov    %rax,-0xe58(%rbp)
   10eb5:	48 c7 85 b0 f1 ff ff 	movq   $0x0,-0xe50(%rbp)
   10ebc:	00 00 00 00 
   10ec0:	c7 85 18 ed ff ff a7 	movl   $0x65bc47a7,-0x12e8(%rbp)
   10ec7:	47 bc 65 
   10eca:	c7 85 1c ed ff ff c9 	movl   $0x90d6bec9,-0x12e4(%rbp)
   10ed1:	be d6 90 
   10ed4:	c7 85 70 f0 ff ff 01 	movl   $0x1,-0xf90(%rbp)
   10edb:	00 00 00 
   10ede:	c7 85 74 f0 ff ff 01 	movl   $0x1,-0xf8c(%rbp)
   10ee5:	00 00 00 
   10ee8:	c7 85 78 f0 ff ff 01 	movl   $0x1,-0xf88(%rbp)
   10eef:	00 00 00 
   10ef2:	c7 85 7c f0 ff ff 01 	movl   $0x1,-0xf84(%rbp)
   10ef9:	00 00 00 
   10efc:	c7 85 80 f0 ff ff 01 	movl   $0x1,-0xf80(%rbp)
   10f03:	00 00 00 
   10f06:	c7 85 84 f0 ff ff 01 	movl   $0x1,-0xf7c(%rbp)
   10f0d:	00 00 00 
   10f10:	48 b8 1f 1e 12 82 97 	movabs $0xd7e9289782121e1f,%rax
   10f17:	28 e9 d7 
   10f1a:	48 89 85 90 ee ff ff 	mov    %rax,-0x1170(%rbp)
   10f21:	c7 85 20 ed ff ff 71 	movl   $0xa6aa0571,-0x12e0(%rbp)
   10f28:	05 aa a6 
   10f2b:	48 c7 85 98 ee ff ff 	movq   $0x0,-0x1168(%rbp)
   10f32:	00 00 00 00 
   10f36:	48 c7 85 a0 ee ff ff 	movq   $0x0,-0x1160(%rbp)
   10f3d:	00 00 00 00 
   10f41:	c7 85 d8 ec ff ff 00 	movl   $0x0,-0x1328(%rbp)
   10f48:	00 00 00 
   10f4b:	eb 72                	jmp    10fbf <func_15+0x1836>
   10f4d:	c7 85 dc ec ff ff 00 	movl   $0x0,-0x1324(%rbp)
   10f54:	00 00 00 
   10f57:	eb 56                	jmp    10faf <func_15+0x1826>
   10f59:	c7 85 e0 ec ff ff 00 	movl   $0x0,-0x1320(%rbp)
   10f60:	00 00 00 
   10f63:	eb 3a                	jmp    10f9f <func_15+0x1816>
   10f65:	8b 85 e0 ec ff ff    	mov    -0x1320(%rbp),%eax
   10f6b:	48 63 d0             	movslq %eax,%rdx
   10f6e:	8b 85 dc ec ff ff    	mov    -0x1324(%rbp),%eax
   10f74:	48 98                	cltq   
   10f76:	8b 8d d8 ec ff ff    	mov    -0x1328(%rbp),%ecx
   10f7c:	48 63 c9             	movslq %ecx,%rcx
   10f7f:	48 c1 e1 02          	shl    $0x2,%rcx
   10f83:	48 01 ca             	add    %rcx,%rdx
   10f86:	48 01 c2             	add    %rax,%rdx
   10f89:	48 8d 85 d0 ed ff ff 	lea    -0x1230(%rbp),%rax
   10f90:	48 89 84 d5 80 f4 ff 	mov    %rax,-0xb80(%rbp,%rdx,8)
   10f97:	ff 
   10f98:	83 85 e0 ec ff ff 01 	addl   $0x1,-0x1320(%rbp)
   10f9f:	83 bd e0 ec ff ff 00 	cmpl   $0x0,-0x1320(%rbp)
   10fa6:	7e bd                	jle    10f65 <func_15+0x17dc>
   10fa8:	83 85 dc ec ff ff 01 	addl   $0x1,-0x1324(%rbp)
   10faf:	83 bd dc ec ff ff 03 	cmpl   $0x3,-0x1324(%rbp)
   10fb6:	7e a1                	jle    10f59 <func_15+0x17d0>
   10fb8:	83 85 d8 ec ff ff 01 	addl   $0x1,-0x1328(%rbp)
   10fbf:	83 bd d8 ec ff ff 06 	cmpl   $0x6,-0x1328(%rbp)
   10fc6:	7e 85                	jle    10f4d <func_15+0x17c4>
   10fc8:	c7 05 5e c0 00 00 00 	movl   $0x0,0xc05e(%rip)        # 1d030 <g_63>
   10fcf:	00 00 00 
   10fd2:	e9 01 38 00 00       	jmpq   147d8 <func_15+0x504f>
   10fd7:	48 c7 85 a8 ee ff ff 	movq   $0x0,-0x1158(%rbp)
   10fde:	00 00 00 00 
   10fe2:	48 8d 05 2f f1 00 00 	lea    0xf12f(%rip),%rax        # 20118 <g_790+0x38>
   10fe9:	48 89 85 30 f8 ff ff 	mov    %rax,-0x7d0(%rbp)
   10ff0:	48 8d 05 49 ee 00 00 	lea    0xee49(%rip),%rax        # 1fe40 <g_34>
   10ff7:	48 89 85 38 f8 ff ff 	mov    %rax,-0x7c8(%rbp)
   10ffe:	48 8d 05 13 f1 00 00 	lea    0xf113(%rip),%rax        # 20118 <g_790+0x38>
   11005:	48 89 85 40 f8 ff ff 	mov    %rax,-0x7c0(%rbp)
   1100c:	48 8d 05 2d ee 00 00 	lea    0xee2d(%rip),%rax        # 1fe40 <g_34>
   11013:	48 89 85 48 f8 ff ff 	mov    %rax,-0x7b8(%rbp)
   1101a:	48 8d 05 1f ee 00 00 	lea    0xee1f(%rip),%rax        # 1fe40 <g_34>
   11021:	48 89 85 50 f8 ff ff 	mov    %rax,-0x7b0(%rbp)
   11028:	48 8d 05 71 f1 00 00 	lea    0xf171(%rip),%rax        # 201a0 <g_790+0xc0>
   1102f:	48 89 85 58 f8 ff ff 	mov    %rax,-0x7a8(%rbp)
   11036:	48 8d 85 d8 ed ff ff 	lea    -0x1228(%rbp),%rax
   1103d:	48 89 85 60 f8 ff ff 	mov    %rax,-0x7a0(%rbp)
   11044:	48 8d 05 55 f1 00 00 	lea    0xf155(%rip),%rax        # 201a0 <g_790+0xc0>
   1104b:	48 89 85 68 f8 ff ff 	mov    %rax,-0x798(%rbp)
   11052:	48 8d 05 af 14 01 00 	lea    0x114af(%rip),%rax        # 22508 <g_1439>
   11059:	48 89 85 70 f8 ff ff 	mov    %rax,-0x790(%rbp)
   11060:	48 8d 05 a1 14 01 00 	lea    0x114a1(%rip),%rax        # 22508 <g_1439>
   11067:	48 89 85 78 f8 ff ff 	mov    %rax,-0x788(%rbp)
   1106e:	48 8d 05 a3 f0 00 00 	lea    0xf0a3(%rip),%rax        # 20118 <g_790+0x38>
   11075:	48 89 85 80 f8 ff ff 	mov    %rax,-0x780(%rbp)
   1107c:	48 8d 05 bd ed 00 00 	lea    0xedbd(%rip),%rax        # 1fe40 <g_34>
   11083:	48 89 85 88 f8 ff ff 	mov    %rax,-0x778(%rbp)
   1108a:	48 8d 05 87 f0 00 00 	lea    0xf087(%rip),%rax        # 20118 <g_790+0x38>
   11091:	48 89 85 90 f8 ff ff 	mov    %rax,-0x770(%rbp)
   11098:	48 8d 05 a1 ed 00 00 	lea    0xeda1(%rip),%rax        # 1fe40 <g_34>
   1109f:	48 89 85 98 f8 ff ff 	mov    %rax,-0x768(%rbp)
   110a6:	48 8d 05 93 ed 00 00 	lea    0xed93(%rip),%rax        # 1fe40 <g_34>
   110ad:	48 89 85 a0 f8 ff ff 	mov    %rax,-0x760(%rbp)
   110b4:	48 8d 05 e5 f0 00 00 	lea    0xf0e5(%rip),%rax        # 201a0 <g_790+0xc0>
   110bb:	48 89 85 a8 f8 ff ff 	mov    %rax,-0x758(%rbp)
   110c2:	48 8d 85 d8 ed ff ff 	lea    -0x1228(%rbp),%rax
   110c9:	48 89 85 b0 f8 ff ff 	mov    %rax,-0x750(%rbp)
   110d0:	48 8d 05 c9 f0 00 00 	lea    0xf0c9(%rip),%rax        # 201a0 <g_790+0xc0>
   110d7:	48 89 85 b8 f8 ff ff 	mov    %rax,-0x748(%rbp)
   110de:	48 8d 05 23 14 01 00 	lea    0x11423(%rip),%rax        # 22508 <g_1439>
   110e5:	48 89 85 c0 f8 ff ff 	mov    %rax,-0x740(%rbp)
   110ec:	48 8d 05 15 14 01 00 	lea    0x11415(%rip),%rax        # 22508 <g_1439>
   110f3:	48 89 85 c8 f8 ff ff 	mov    %rax,-0x738(%rbp)
   110fa:	48 8d 05 17 f0 00 00 	lea    0xf017(%rip),%rax        # 20118 <g_790+0x38>
   11101:	48 89 85 d0 f8 ff ff 	mov    %rax,-0x730(%rbp)
   11108:	48 8d 05 31 ed 00 00 	lea    0xed31(%rip),%rax        # 1fe40 <g_34>
   1110f:	48 89 85 d8 f8 ff ff 	mov    %rax,-0x728(%rbp)
   11116:	48 8d 05 fb ef 00 00 	lea    0xeffb(%rip),%rax        # 20118 <g_790+0x38>
   1111d:	48 89 85 e0 f8 ff ff 	mov    %rax,-0x720(%rbp)
   11124:	48 8d 05 15 ed 00 00 	lea    0xed15(%rip),%rax        # 1fe40 <g_34>
   1112b:	48 89 85 e8 f8 ff ff 	mov    %rax,-0x718(%rbp)
   11132:	48 8d 05 07 ed 00 00 	lea    0xed07(%rip),%rax        # 1fe40 <g_34>
   11139:	48 89 85 f0 f8 ff ff 	mov    %rax,-0x710(%rbp)
   11140:	48 8d 05 59 f0 00 00 	lea    0xf059(%rip),%rax        # 201a0 <g_790+0xc0>
   11147:	48 89 85 f8 f8 ff ff 	mov    %rax,-0x708(%rbp)
   1114e:	48 8d 85 d8 ed ff ff 	lea    -0x1228(%rbp),%rax
   11155:	48 89 85 00 f9 ff ff 	mov    %rax,-0x700(%rbp)
   1115c:	48 8d 05 3d f0 00 00 	lea    0xf03d(%rip),%rax        # 201a0 <g_790+0xc0>
   11163:	48 89 85 08 f9 ff ff 	mov    %rax,-0x6f8(%rbp)
   1116a:	48 8d 05 97 13 01 00 	lea    0x11397(%rip),%rax        # 22508 <g_1439>
   11171:	48 89 85 10 f9 ff ff 	mov    %rax,-0x6f0(%rbp)
   11178:	48 8d 05 89 13 01 00 	lea    0x11389(%rip),%rax        # 22508 <g_1439>
   1117f:	48 89 85 18 f9 ff ff 	mov    %rax,-0x6e8(%rbp)
   11186:	48 8d 05 8b ef 00 00 	lea    0xef8b(%rip),%rax        # 20118 <g_790+0x38>
   1118d:	48 89 85 20 f9 ff ff 	mov    %rax,-0x6e0(%rbp)
   11194:	48 8d 05 a5 ec 00 00 	lea    0xeca5(%rip),%rax        # 1fe40 <g_34>
   1119b:	48 89 85 28 f9 ff ff 	mov    %rax,-0x6d8(%rbp)
   111a2:	48 8d 05 6f ef 00 00 	lea    0xef6f(%rip),%rax        # 20118 <g_790+0x38>
   111a9:	48 89 85 30 f9 ff ff 	mov    %rax,-0x6d0(%rbp)
   111b0:	48 8d 05 89 ec 00 00 	lea    0xec89(%rip),%rax        # 1fe40 <g_34>
   111b7:	48 89 85 38 f9 ff ff 	mov    %rax,-0x6c8(%rbp)
   111be:	48 8d 05 7b ec 00 00 	lea    0xec7b(%rip),%rax        # 1fe40 <g_34>
   111c5:	48 89 85 40 f9 ff ff 	mov    %rax,-0x6c0(%rbp)
   111cc:	48 8d 05 cd ef 00 00 	lea    0xefcd(%rip),%rax        # 201a0 <g_790+0xc0>
   111d3:	48 89 85 48 f9 ff ff 	mov    %rax,-0x6b8(%rbp)
   111da:	48 8d 85 d8 ed ff ff 	lea    -0x1228(%rbp),%rax
   111e1:	48 89 85 50 f9 ff ff 	mov    %rax,-0x6b0(%rbp)
   111e8:	48 8d 05 b1 ef 00 00 	lea    0xefb1(%rip),%rax        # 201a0 <g_790+0xc0>
   111ef:	48 89 85 58 f9 ff ff 	mov    %rax,-0x6a8(%rbp)
   111f6:	48 8d 05 0b 13 01 00 	lea    0x1130b(%rip),%rax        # 22508 <g_1439>
   111fd:	48 89 85 60 f9 ff ff 	mov    %rax,-0x6a0(%rbp)
   11204:	48 8d 05 fd 12 01 00 	lea    0x112fd(%rip),%rax        # 22508 <g_1439>
   1120b:	48 89 85 68 f9 ff ff 	mov    %rax,-0x698(%rbp)
   11212:	48 8d 05 ff ee 00 00 	lea    0xeeff(%rip),%rax        # 20118 <g_790+0x38>
   11219:	48 89 85 70 f9 ff ff 	mov    %rax,-0x690(%rbp)
   11220:	48 8d 05 19 ec 00 00 	lea    0xec19(%rip),%rax        # 1fe40 <g_34>
   11227:	48 89 85 78 f9 ff ff 	mov    %rax,-0x688(%rbp)
   1122e:	48 8d 05 e3 ee 00 00 	lea    0xeee3(%rip),%rax        # 20118 <g_790+0x38>
   11235:	48 89 85 80 f9 ff ff 	mov    %rax,-0x680(%rbp)
   1123c:	48 8d 05 fd eb 00 00 	lea    0xebfd(%rip),%rax        # 1fe40 <g_34>
   11243:	48 89 85 88 f9 ff ff 	mov    %rax,-0x678(%rbp)
   1124a:	48 8d 05 ef eb 00 00 	lea    0xebef(%rip),%rax        # 1fe40 <g_34>
   11251:	48 89 85 90 f9 ff ff 	mov    %rax,-0x670(%rbp)
   11258:	48 8d 05 41 ef 00 00 	lea    0xef41(%rip),%rax        # 201a0 <g_790+0xc0>
   1125f:	48 89 85 98 f9 ff ff 	mov    %rax,-0x668(%rbp)
   11266:	48 8d 85 d8 ed ff ff 	lea    -0x1228(%rbp),%rax
   1126d:	48 89 85 a0 f9 ff ff 	mov    %rax,-0x660(%rbp)
   11274:	48 8d 05 25 ef 00 00 	lea    0xef25(%rip),%rax        # 201a0 <g_790+0xc0>
   1127b:	48 89 85 a8 f9 ff ff 	mov    %rax,-0x658(%rbp)
   11282:	48 8d 05 7f 12 01 00 	lea    0x1127f(%rip),%rax        # 22508 <g_1439>
   11289:	48 89 85 b0 f9 ff ff 	mov    %rax,-0x650(%rbp)
   11290:	48 8d 05 71 12 01 00 	lea    0x11271(%rip),%rax        # 22508 <g_1439>
   11297:	48 89 85 b8 f9 ff ff 	mov    %rax,-0x648(%rbp)
   1129e:	48 8d 05 73 ee 00 00 	lea    0xee73(%rip),%rax        # 20118 <g_790+0x38>
   112a5:	48 89 85 c0 f9 ff ff 	mov    %rax,-0x640(%rbp)
   112ac:	48 8d 05 8d eb 00 00 	lea    0xeb8d(%rip),%rax        # 1fe40 <g_34>
   112b3:	48 89 85 c8 f9 ff ff 	mov    %rax,-0x638(%rbp)
   112ba:	48 8d 05 57 ee 00 00 	lea    0xee57(%rip),%rax        # 20118 <g_790+0x38>
   112c1:	48 89 85 d0 f9 ff ff 	mov    %rax,-0x630(%rbp)
   112c8:	48 8d 05 71 eb 00 00 	lea    0xeb71(%rip),%rax        # 1fe40 <g_34>
   112cf:	48 89 85 d8 f9 ff ff 	mov    %rax,-0x628(%rbp)
   112d6:	48 8d 05 63 eb 00 00 	lea    0xeb63(%rip),%rax        # 1fe40 <g_34>
   112dd:	48 89 85 e0 f9 ff ff 	mov    %rax,-0x620(%rbp)
   112e4:	48 8d 05 b5 ee 00 00 	lea    0xeeb5(%rip),%rax        # 201a0 <g_790+0xc0>
   112eb:	48 89 85 e8 f9 ff ff 	mov    %rax,-0x618(%rbp)
   112f2:	48 8d 85 d8 ed ff ff 	lea    -0x1228(%rbp),%rax
   112f9:	48 89 85 f0 f9 ff ff 	mov    %rax,-0x610(%rbp)
   11300:	48 8d 05 99 ee 00 00 	lea    0xee99(%rip),%rax        # 201a0 <g_790+0xc0>
   11307:	48 89 85 f8 f9 ff ff 	mov    %rax,-0x608(%rbp)
   1130e:	48 8d 05 f3 11 01 00 	lea    0x111f3(%rip),%rax        # 22508 <g_1439>
   11315:	48 89 85 00 fa ff ff 	mov    %rax,-0x600(%rbp)
   1131c:	48 8d 05 e5 11 01 00 	lea    0x111e5(%rip),%rax        # 22508 <g_1439>
   11323:	48 89 85 08 fa ff ff 	mov    %rax,-0x5f8(%rbp)
   1132a:	48 8d 05 e7 ed 00 00 	lea    0xede7(%rip),%rax        # 20118 <g_790+0x38>
   11331:	48 89 85 10 fa ff ff 	mov    %rax,-0x5f0(%rbp)
   11338:	48 8d 05 01 eb 00 00 	lea    0xeb01(%rip),%rax        # 1fe40 <g_34>
   1133f:	48 89 85 18 fa ff ff 	mov    %rax,-0x5e8(%rbp)
   11346:	48 8d 05 cb ed 00 00 	lea    0xedcb(%rip),%rax        # 20118 <g_790+0x38>
   1134d:	48 89 85 20 fa ff ff 	mov    %rax,-0x5e0(%rbp)
   11354:	48 8d 05 e5 ea 00 00 	lea    0xeae5(%rip),%rax        # 1fe40 <g_34>
   1135b:	48 89 85 28 fa ff ff 	mov    %rax,-0x5d8(%rbp)
   11362:	48 8d 05 d7 ea 00 00 	lea    0xead7(%rip),%rax        # 1fe40 <g_34>
   11369:	48 89 85 30 fa ff ff 	mov    %rax,-0x5d0(%rbp)
   11370:	48 8d 05 29 ee 00 00 	lea    0xee29(%rip),%rax        # 201a0 <g_790+0xc0>
   11377:	48 89 85 38 fa ff ff 	mov    %rax,-0x5c8(%rbp)
   1137e:	48 8d 85 d8 ed ff ff 	lea    -0x1228(%rbp),%rax
   11385:	48 89 85 40 fa ff ff 	mov    %rax,-0x5c0(%rbp)
   1138c:	48 8d 05 0d ee 00 00 	lea    0xee0d(%rip),%rax        # 201a0 <g_790+0xc0>
   11393:	48 89 85 48 fa ff ff 	mov    %rax,-0x5b8(%rbp)
   1139a:	48 8d 05 67 11 01 00 	lea    0x11167(%rip),%rax        # 22508 <g_1439>
   113a1:	48 89 85 50 fa ff ff 	mov    %rax,-0x5b0(%rbp)
   113a8:	48 8d 05 59 11 01 00 	lea    0x11159(%rip),%rax        # 22508 <g_1439>
   113af:	48 89 85 58 fa ff ff 	mov    %rax,-0x5a8(%rbp)
   113b6:	48 8d 05 5b ed 00 00 	lea    0xed5b(%rip),%rax        # 20118 <g_790+0x38>
   113bd:	48 89 85 60 fa ff ff 	mov    %rax,-0x5a0(%rbp)
   113c4:	48 8d 05 75 ea 00 00 	lea    0xea75(%rip),%rax        # 1fe40 <g_34>
   113cb:	48 89 85 68 fa ff ff 	mov    %rax,-0x598(%rbp)
   113d2:	48 8d 05 3f ed 00 00 	lea    0xed3f(%rip),%rax        # 20118 <g_790+0x38>
   113d9:	48 89 85 70 fa ff ff 	mov    %rax,-0x590(%rbp)
   113e0:	48 8d 05 59 ea 00 00 	lea    0xea59(%rip),%rax        # 1fe40 <g_34>
   113e7:	48 89 85 78 fa ff ff 	mov    %rax,-0x588(%rbp)
   113ee:	48 8d 05 4b ea 00 00 	lea    0xea4b(%rip),%rax        # 1fe40 <g_34>
   113f5:	48 89 85 80 fa ff ff 	mov    %rax,-0x580(%rbp)
   113fc:	48 8d 05 9d ed 00 00 	lea    0xed9d(%rip),%rax        # 201a0 <g_790+0xc0>
   11403:	48 89 85 88 fa ff ff 	mov    %rax,-0x578(%rbp)
   1140a:	48 8d 85 d8 ed ff ff 	lea    -0x1228(%rbp),%rax
   11411:	48 89 85 90 fa ff ff 	mov    %rax,-0x570(%rbp)
   11418:	48 8d 05 81 ed 00 00 	lea    0xed81(%rip),%rax        # 201a0 <g_790+0xc0>
   1141f:	48 89 85 98 fa ff ff 	mov    %rax,-0x568(%rbp)
   11426:	48 8d 05 db 10 01 00 	lea    0x110db(%rip),%rax        # 22508 <g_1439>
   1142d:	48 89 85 a0 fa ff ff 	mov    %rax,-0x560(%rbp)
   11434:	48 8d 05 cd 10 01 00 	lea    0x110cd(%rip),%rax        # 22508 <g_1439>
   1143b:	48 89 85 a8 fa ff ff 	mov    %rax,-0x558(%rbp)
   11442:	48 8d 05 cf ec 00 00 	lea    0xeccf(%rip),%rax        # 20118 <g_790+0x38>
   11449:	48 89 85 b0 fa ff ff 	mov    %rax,-0x550(%rbp)
   11450:	48 8d 05 e9 e9 00 00 	lea    0xe9e9(%rip),%rax        # 1fe40 <g_34>
   11457:	48 89 85 b8 fa ff ff 	mov    %rax,-0x548(%rbp)
   1145e:	48 8d 05 b3 ec 00 00 	lea    0xecb3(%rip),%rax        # 20118 <g_790+0x38>
   11465:	48 89 85 c0 fa ff ff 	mov    %rax,-0x540(%rbp)
   1146c:	48 8d 05 cd e9 00 00 	lea    0xe9cd(%rip),%rax        # 1fe40 <g_34>
   11473:	48 89 85 c8 fa ff ff 	mov    %rax,-0x538(%rbp)
   1147a:	48 8d 05 bf e9 00 00 	lea    0xe9bf(%rip),%rax        # 1fe40 <g_34>
   11481:	48 89 85 d0 fa ff ff 	mov    %rax,-0x530(%rbp)
   11488:	48 8d 05 11 ed 00 00 	lea    0xed11(%rip),%rax        # 201a0 <g_790+0xc0>
   1148f:	48 89 85 d8 fa ff ff 	mov    %rax,-0x528(%rbp)
   11496:	48 8d 85 d8 ed ff ff 	lea    -0x1228(%rbp),%rax
   1149d:	48 89 85 e0 fa ff ff 	mov    %rax,-0x520(%rbp)
   114a4:	48 8d 05 f5 ec 00 00 	lea    0xecf5(%rip),%rax        # 201a0 <g_790+0xc0>
   114ab:	48 89 85 e8 fa ff ff 	mov    %rax,-0x518(%rbp)
   114b2:	48 8d 05 4f 10 01 00 	lea    0x1104f(%rip),%rax        # 22508 <g_1439>
   114b9:	48 89 85 f0 fa ff ff 	mov    %rax,-0x510(%rbp)
   114c0:	48 8d 05 41 10 01 00 	lea    0x11041(%rip),%rax        # 22508 <g_1439>
   114c7:	48 89 85 f8 fa ff ff 	mov    %rax,-0x508(%rbp)
   114ce:	48 8d 05 43 ec 00 00 	lea    0xec43(%rip),%rax        # 20118 <g_790+0x38>
   114d5:	48 89 85 00 fb ff ff 	mov    %rax,-0x500(%rbp)
   114dc:	48 8d 05 5d e9 00 00 	lea    0xe95d(%rip),%rax        # 1fe40 <g_34>
   114e3:	48 89 85 08 fb ff ff 	mov    %rax,-0x4f8(%rbp)
   114ea:	48 8d 05 27 ec 00 00 	lea    0xec27(%rip),%rax        # 20118 <g_790+0x38>
   114f1:	48 89 85 10 fb ff ff 	mov    %rax,-0x4f0(%rbp)
   114f8:	48 8d 05 41 e9 00 00 	lea    0xe941(%rip),%rax        # 1fe40 <g_34>
   114ff:	48 89 85 18 fb ff ff 	mov    %rax,-0x4e8(%rbp)
   11506:	48 8d 05 33 e9 00 00 	lea    0xe933(%rip),%rax        # 1fe40 <g_34>
   1150d:	48 89 85 20 fb ff ff 	mov    %rax,-0x4e0(%rbp)
   11514:	48 8d 05 85 ec 00 00 	lea    0xec85(%rip),%rax        # 201a0 <g_790+0xc0>
   1151b:	48 89 85 28 fb ff ff 	mov    %rax,-0x4d8(%rbp)
   11522:	48 8d 85 d8 ed ff ff 	lea    -0x1228(%rbp),%rax
   11529:	48 89 85 30 fb ff ff 	mov    %rax,-0x4d0(%rbp)
   11530:	48 8d 05 69 ec 00 00 	lea    0xec69(%rip),%rax        # 201a0 <g_790+0xc0>
   11537:	48 89 85 38 fb ff ff 	mov    %rax,-0x4c8(%rbp)
   1153e:	48 8d 05 c3 0f 01 00 	lea    0x10fc3(%rip),%rax        # 22508 <g_1439>
   11545:	48 89 85 40 fb ff ff 	mov    %rax,-0x4c0(%rbp)
   1154c:	48 8d 05 b5 0f 01 00 	lea    0x10fb5(%rip),%rax        # 22508 <g_1439>
   11553:	48 89 85 48 fb ff ff 	mov    %rax,-0x4b8(%rbp)
   1155a:	48 8d 05 b7 eb 00 00 	lea    0xebb7(%rip),%rax        # 20118 <g_790+0x38>
   11561:	48 89 85 50 fb ff ff 	mov    %rax,-0x4b0(%rbp)
   11568:	48 8d 05 d1 e8 00 00 	lea    0xe8d1(%rip),%rax        # 1fe40 <g_34>
   1156f:	48 89 85 58 fb ff ff 	mov    %rax,-0x4a8(%rbp)
   11576:	48 8d 05 9b eb 00 00 	lea    0xeb9b(%rip),%rax        # 20118 <g_790+0x38>
   1157d:	48 89 85 60 fb ff ff 	mov    %rax,-0x4a0(%rbp)
   11584:	48 8d 05 b5 e8 00 00 	lea    0xe8b5(%rip),%rax        # 1fe40 <g_34>
   1158b:	48 89 85 68 fb ff ff 	mov    %rax,-0x498(%rbp)
   11592:	48 8d 05 a7 e8 00 00 	lea    0xe8a7(%rip),%rax        # 1fe40 <g_34>
   11599:	48 89 85 70 fb ff ff 	mov    %rax,-0x490(%rbp)
   115a0:	48 8d 05 f9 eb 00 00 	lea    0xebf9(%rip),%rax        # 201a0 <g_790+0xc0>
   115a7:	48 89 85 78 fb ff ff 	mov    %rax,-0x488(%rbp)
   115ae:	48 8d 85 d8 ed ff ff 	lea    -0x1228(%rbp),%rax
   115b5:	48 89 85 80 fb ff ff 	mov    %rax,-0x480(%rbp)
   115bc:	48 8d 05 dd eb 00 00 	lea    0xebdd(%rip),%rax        # 201a0 <g_790+0xc0>
   115c3:	48 89 85 88 fb ff ff 	mov    %rax,-0x478(%rbp)
   115ca:	48 8d 05 37 0f 01 00 	lea    0x10f37(%rip),%rax        # 22508 <g_1439>
   115d1:	48 89 85 90 fb ff ff 	mov    %rax,-0x470(%rbp)
   115d8:	48 8d 05 29 0f 01 00 	lea    0x10f29(%rip),%rax        # 22508 <g_1439>
   115df:	48 89 85 98 fb ff ff 	mov    %rax,-0x468(%rbp)
   115e6:	48 8d 05 2b eb 00 00 	lea    0xeb2b(%rip),%rax        # 20118 <g_790+0x38>
   115ed:	48 89 85 a0 fb ff ff 	mov    %rax,-0x460(%rbp)
   115f4:	48 8d 05 45 e8 00 00 	lea    0xe845(%rip),%rax        # 1fe40 <g_34>
   115fb:	48 89 85 a8 fb ff ff 	mov    %rax,-0x458(%rbp)
   11602:	48 8d 05 0f eb 00 00 	lea    0xeb0f(%rip),%rax        # 20118 <g_790+0x38>
   11609:	48 89 85 b0 fb ff ff 	mov    %rax,-0x450(%rbp)
   11610:	48 8d 05 29 e8 00 00 	lea    0xe829(%rip),%rax        # 1fe40 <g_34>
   11617:	48 89 85 b8 fb ff ff 	mov    %rax,-0x448(%rbp)
   1161e:	48 8d 05 1b e8 00 00 	lea    0xe81b(%rip),%rax        # 1fe40 <g_34>
   11625:	48 89 85 c0 fb ff ff 	mov    %rax,-0x440(%rbp)
   1162c:	48 8d 05 6d eb 00 00 	lea    0xeb6d(%rip),%rax        # 201a0 <g_790+0xc0>
   11633:	48 89 85 c8 fb ff ff 	mov    %rax,-0x438(%rbp)
   1163a:	48 8d 85 d8 ed ff ff 	lea    -0x1228(%rbp),%rax
   11641:	48 89 85 d0 fb ff ff 	mov    %rax,-0x430(%rbp)
   11648:	48 8d 05 51 eb 00 00 	lea    0xeb51(%rip),%rax        # 201a0 <g_790+0xc0>
   1164f:	48 89 85 d8 fb ff ff 	mov    %rax,-0x428(%rbp)
   11656:	48 8d 05 ab 0e 01 00 	lea    0x10eab(%rip),%rax        # 22508 <g_1439>
   1165d:	48 89 85 e0 fb ff ff 	mov    %rax,-0x420(%rbp)
   11664:	48 8d 05 9d 0e 01 00 	lea    0x10e9d(%rip),%rax        # 22508 <g_1439>
   1166b:	48 89 85 e8 fb ff ff 	mov    %rax,-0x418(%rbp)
   11672:	48 8d 05 9f ea 00 00 	lea    0xea9f(%rip),%rax        # 20118 <g_790+0x38>
   11679:	48 89 85 f0 fb ff ff 	mov    %rax,-0x410(%rbp)
   11680:	48 8d 05 b9 e7 00 00 	lea    0xe7b9(%rip),%rax        # 1fe40 <g_34>
   11687:	48 89 85 f8 fb ff ff 	mov    %rax,-0x408(%rbp)
   1168e:	48 8d 05 83 ea 00 00 	lea    0xea83(%rip),%rax        # 20118 <g_790+0x38>
   11695:	48 89 85 00 fc ff ff 	mov    %rax,-0x400(%rbp)
   1169c:	48 8d 05 9d e7 00 00 	lea    0xe79d(%rip),%rax        # 1fe40 <g_34>
   116a3:	48 89 85 08 fc ff ff 	mov    %rax,-0x3f8(%rbp)
   116aa:	48 8d 05 8f e7 00 00 	lea    0xe78f(%rip),%rax        # 1fe40 <g_34>
   116b1:	48 89 85 10 fc ff ff 	mov    %rax,-0x3f0(%rbp)
   116b8:	48 8d 05 e1 ea 00 00 	lea    0xeae1(%rip),%rax        # 201a0 <g_790+0xc0>
   116bf:	48 89 85 18 fc ff ff 	mov    %rax,-0x3e8(%rbp)
   116c6:	48 8d 85 d8 ed ff ff 	lea    -0x1228(%rbp),%rax
   116cd:	48 89 85 20 fc ff ff 	mov    %rax,-0x3e0(%rbp)
   116d4:	48 8d 05 c5 ea 00 00 	lea    0xeac5(%rip),%rax        # 201a0 <g_790+0xc0>
   116db:	48 89 85 28 fc ff ff 	mov    %rax,-0x3d8(%rbp)
   116e2:	48 8d 05 1f 0e 01 00 	lea    0x10e1f(%rip),%rax        # 22508 <g_1439>
   116e9:	48 89 85 30 fc ff ff 	mov    %rax,-0x3d0(%rbp)
   116f0:	48 8d 05 11 0e 01 00 	lea    0x10e11(%rip),%rax        # 22508 <g_1439>
   116f7:	48 89 85 38 fc ff ff 	mov    %rax,-0x3c8(%rbp)
   116fe:	48 8d 05 13 ea 00 00 	lea    0xea13(%rip),%rax        # 20118 <g_790+0x38>
   11705:	48 89 85 40 fc ff ff 	mov    %rax,-0x3c0(%rbp)
   1170c:	48 8d 85 d8 ed ff ff 	lea    -0x1228(%rbp),%rax
   11713:	48 89 85 48 fc ff ff 	mov    %rax,-0x3b8(%rbp)
   1171a:	48 8d 85 d8 ed ff ff 	lea    -0x1228(%rbp),%rax
   11721:	48 89 85 50 fc ff ff 	mov    %rax,-0x3b0(%rbp)
   11728:	48 8d 05 e9 e9 00 00 	lea    0xe9e9(%rip),%rax        # 20118 <g_790+0x38>
   1172f:	48 89 85 58 fc ff ff 	mov    %rax,-0x3a8(%rbp)
   11736:	48 8d 05 db e9 00 00 	lea    0xe9db(%rip),%rax        # 20118 <g_790+0x38>
   1173d:	48 89 85 60 fc ff ff 	mov    %rax,-0x3a0(%rbp)
   11744:	48 8d 05 cd e9 00 00 	lea    0xe9cd(%rip),%rax        # 20118 <g_790+0x38>
   1174b:	48 89 85 68 fc ff ff 	mov    %rax,-0x398(%rbp)
   11752:	48 c7 85 70 fc ff ff 	movq   $0x0,-0x390(%rbp)
   11759:	00 00 00 00 
   1175d:	48 8d 05 b4 e9 00 00 	lea    0xe9b4(%rip),%rax        # 20118 <g_790+0x38>
   11764:	48 89 85 78 fc ff ff 	mov    %rax,-0x388(%rbp)
   1176b:	48 8d 05 be e9 00 00 	lea    0xe9be(%rip),%rax        # 20130 <g_790+0x50>
   11772:	48 89 85 80 fc ff ff 	mov    %rax,-0x380(%rbp)
   11779:	48 8d 05 20 ea 00 00 	lea    0xea20(%rip),%rax        # 201a0 <g_790+0xc0>
   11780:	48 89 85 88 fc ff ff 	mov    %rax,-0x378(%rbp)
   11787:	48 8d 85 d8 ed ff ff 	lea    -0x1228(%rbp),%rax
   1178e:	48 89 85 90 fc ff ff 	mov    %rax,-0x370(%rbp)
   11795:	48 8d 85 d8 ed ff ff 	lea    -0x1228(%rbp),%rax
   1179c:	48 89 85 98 fc ff ff 	mov    %rax,-0x368(%rbp)
   117a3:	48 8d 85 d8 ed ff ff 	lea    -0x1228(%rbp),%rax
   117aa:	48 89 85 a0 fc ff ff 	mov    %rax,-0x360(%rbp)
   117b1:	48 8d 05 60 e9 00 00 	lea    0xe960(%rip),%rax        # 20118 <g_790+0x38>
   117b8:	48 89 85 a8 fc ff ff 	mov    %rax,-0x358(%rbp)
   117bf:	48 8d 05 52 e9 00 00 	lea    0xe952(%rip),%rax        # 20118 <g_790+0x38>
   117c6:	48 89 85 b0 fc ff ff 	mov    %rax,-0x350(%rbp)
   117cd:	48 8d 05 44 e9 00 00 	lea    0xe944(%rip),%rax        # 20118 <g_790+0x38>
   117d4:	48 89 85 b8 fc ff ff 	mov    %rax,-0x348(%rbp)
   117db:	48 c7 85 c0 fc ff ff 	movq   $0x0,-0x340(%rbp)
   117e2:	00 00 00 00 
   117e6:	48 8d 05 2b e9 00 00 	lea    0xe92b(%rip),%rax        # 20118 <g_790+0x38>
   117ed:	48 89 85 c8 fc ff ff 	mov    %rax,-0x338(%rbp)
   117f4:	48 8d 05 35 e9 00 00 	lea    0xe935(%rip),%rax        # 20130 <g_790+0x50>
   117fb:	48 89 85 d0 fc ff ff 	mov    %rax,-0x330(%rbp)
   11802:	48 8d 05 97 e9 00 00 	lea    0xe997(%rip),%rax        # 201a0 <g_790+0xc0>
   11809:	48 89 85 d8 fc ff ff 	mov    %rax,-0x328(%rbp)
   11810:	48 8d 85 d8 ed ff ff 	lea    -0x1228(%rbp),%rax
   11817:	48 89 85 e0 fc ff ff 	mov    %rax,-0x320(%rbp)
   1181e:	48 8d 85 d8 ed ff ff 	lea    -0x1228(%rbp),%rax
   11825:	48 89 85 e8 fc ff ff 	mov    %rax,-0x318(%rbp)
   1182c:	48 8d 85 d8 ed ff ff 	lea    -0x1228(%rbp),%rax
   11833:	48 89 85 f0 fc ff ff 	mov    %rax,-0x310(%rbp)
   1183a:	48 8d 05 d7 e8 00 00 	lea    0xe8d7(%rip),%rax        # 20118 <g_790+0x38>
   11841:	48 89 85 f8 fc ff ff 	mov    %rax,-0x308(%rbp)
   11848:	48 8d 05 c9 e8 00 00 	lea    0xe8c9(%rip),%rax        # 20118 <g_790+0x38>
   1184f:	48 89 85 00 fd ff ff 	mov    %rax,-0x300(%rbp)
   11856:	48 8d 05 bb e8 00 00 	lea    0xe8bb(%rip),%rax        # 20118 <g_790+0x38>
   1185d:	48 89 85 08 fd ff ff 	mov    %rax,-0x2f8(%rbp)
   11864:	48 c7 85 10 fd ff ff 	movq   $0x0,-0x2f0(%rbp)
   1186b:	00 00 00 00 
   1186f:	48 8d 05 a2 e8 00 00 	lea    0xe8a2(%rip),%rax        # 20118 <g_790+0x38>
   11876:	48 89 85 18 fd ff ff 	mov    %rax,-0x2e8(%rbp)
   1187d:	48 8d 05 ac e8 00 00 	lea    0xe8ac(%rip),%rax        # 20130 <g_790+0x50>
   11884:	48 89 85 20 fd ff ff 	mov    %rax,-0x2e0(%rbp)
   1188b:	48 8d 05 0e e9 00 00 	lea    0xe90e(%rip),%rax        # 201a0 <g_790+0xc0>
   11892:	48 89 85 28 fd ff ff 	mov    %rax,-0x2d8(%rbp)
   11899:	48 8d 85 d8 ed ff ff 	lea    -0x1228(%rbp),%rax
   118a0:	48 89 85 30 fd ff ff 	mov    %rax,-0x2d0(%rbp)
   118a7:	48 8d 85 d8 ed ff ff 	lea    -0x1228(%rbp),%rax
   118ae:	48 89 85 38 fd ff ff 	mov    %rax,-0x2c8(%rbp)
   118b5:	48 8d 85 d8 ed ff ff 	lea    -0x1228(%rbp),%rax
   118bc:	48 89 85 40 fd ff ff 	mov    %rax,-0x2c0(%rbp)
   118c3:	48 8d 05 4e e8 00 00 	lea    0xe84e(%rip),%rax        # 20118 <g_790+0x38>
   118ca:	48 89 85 48 fd ff ff 	mov    %rax,-0x2b8(%rbp)
   118d1:	48 8d 05 40 e8 00 00 	lea    0xe840(%rip),%rax        # 20118 <g_790+0x38>
   118d8:	48 89 85 50 fd ff ff 	mov    %rax,-0x2b0(%rbp)
   118df:	48 8d 05 32 e8 00 00 	lea    0xe832(%rip),%rax        # 20118 <g_790+0x38>
   118e6:	48 89 85 58 fd ff ff 	mov    %rax,-0x2a8(%rbp)
   118ed:	48 c7 85 60 fd ff ff 	movq   $0x0,-0x2a0(%rbp)
   118f4:	00 00 00 00 
   118f8:	48 8d 05 19 e8 00 00 	lea    0xe819(%rip),%rax        # 20118 <g_790+0x38>
   118ff:	48 89 85 68 fd ff ff 	mov    %rax,-0x298(%rbp)
   11906:	48 8d 05 23 e8 00 00 	lea    0xe823(%rip),%rax        # 20130 <g_790+0x50>
   1190d:	48 89 85 70 fd ff ff 	mov    %rax,-0x290(%rbp)
   11914:	48 8d 05 85 e8 00 00 	lea    0xe885(%rip),%rax        # 201a0 <g_790+0xc0>
   1191b:	48 89 85 78 fd ff ff 	mov    %rax,-0x288(%rbp)
   11922:	48 8d 85 d8 ed ff ff 	lea    -0x1228(%rbp),%rax
   11929:	48 89 85 80 fd ff ff 	mov    %rax,-0x280(%rbp)
   11930:	48 8d 85 d8 ed ff ff 	lea    -0x1228(%rbp),%rax
   11937:	48 89 85 88 fd ff ff 	mov    %rax,-0x278(%rbp)
   1193e:	48 8d 85 d8 ed ff ff 	lea    -0x1228(%rbp),%rax
   11945:	48 89 85 90 fd ff ff 	mov    %rax,-0x270(%rbp)
   1194c:	48 8d 05 c5 e7 00 00 	lea    0xe7c5(%rip),%rax        # 20118 <g_790+0x38>
   11953:	48 89 85 98 fd ff ff 	mov    %rax,-0x268(%rbp)
   1195a:	48 8d 05 b7 e7 00 00 	lea    0xe7b7(%rip),%rax        # 20118 <g_790+0x38>
   11961:	48 89 85 a0 fd ff ff 	mov    %rax,-0x260(%rbp)
   11968:	48 8d 05 a9 e7 00 00 	lea    0xe7a9(%rip),%rax        # 20118 <g_790+0x38>
   1196f:	48 89 85 a8 fd ff ff 	mov    %rax,-0x258(%rbp)
   11976:	48 c7 85 b0 fd ff ff 	movq   $0x0,-0x250(%rbp)
   1197d:	00 00 00 00 
   11981:	48 8d 05 90 e7 00 00 	lea    0xe790(%rip),%rax        # 20118 <g_790+0x38>
   11988:	48 89 85 b8 fd ff ff 	mov    %rax,-0x248(%rbp)
   1198f:	48 8d 05 9a e7 00 00 	lea    0xe79a(%rip),%rax        # 20130 <g_790+0x50>
   11996:	48 89 85 c0 fd ff ff 	mov    %rax,-0x240(%rbp)
   1199d:	48 8d 05 fc e7 00 00 	lea    0xe7fc(%rip),%rax        # 201a0 <g_790+0xc0>
   119a4:	48 89 85 c8 fd ff ff 	mov    %rax,-0x238(%rbp)
   119ab:	48 8d 85 d8 ed ff ff 	lea    -0x1228(%rbp),%rax
   119b2:	48 89 85 d0 fd ff ff 	mov    %rax,-0x230(%rbp)
   119b9:	48 8d 85 d8 ed ff ff 	lea    -0x1228(%rbp),%rax
   119c0:	48 89 85 d8 fd ff ff 	mov    %rax,-0x228(%rbp)
   119c7:	48 8d 85 d8 ed ff ff 	lea    -0x1228(%rbp),%rax
   119ce:	48 89 85 e0 fd ff ff 	mov    %rax,-0x220(%rbp)
   119d5:	48 8d 05 3c e7 00 00 	lea    0xe73c(%rip),%rax        # 20118 <g_790+0x38>
   119dc:	48 89 85 e8 fd ff ff 	mov    %rax,-0x218(%rbp)
   119e3:	48 8d 05 2e e7 00 00 	lea    0xe72e(%rip),%rax        # 20118 <g_790+0x38>
   119ea:	48 89 85 f0 fd ff ff 	mov    %rax,-0x210(%rbp)
   119f1:	48 8d 05 20 e7 00 00 	lea    0xe720(%rip),%rax        # 20118 <g_790+0x38>
   119f8:	48 89 85 f8 fd ff ff 	mov    %rax,-0x208(%rbp)
   119ff:	48 c7 85 00 fe ff ff 	movq   $0x0,-0x200(%rbp)
   11a06:	00 00 00 00 
   11a0a:	48 8d 05 07 e7 00 00 	lea    0xe707(%rip),%rax        # 20118 <g_790+0x38>
   11a11:	48 89 85 08 fe ff ff 	mov    %rax,-0x1f8(%rbp)
   11a18:	48 8d 05 11 e7 00 00 	lea    0xe711(%rip),%rax        # 20130 <g_790+0x50>
   11a1f:	48 89 85 10 fe ff ff 	mov    %rax,-0x1f0(%rbp)
   11a26:	48 8d 05 73 e7 00 00 	lea    0xe773(%rip),%rax        # 201a0 <g_790+0xc0>
   11a2d:	48 89 85 18 fe ff ff 	mov    %rax,-0x1e8(%rbp)
   11a34:	48 8d 85 d8 ed ff ff 	lea    -0x1228(%rbp),%rax
   11a3b:	48 89 85 20 fe ff ff 	mov    %rax,-0x1e0(%rbp)
   11a42:	48 8d 85 d8 ed ff ff 	lea    -0x1228(%rbp),%rax
   11a49:	48 89 85 28 fe ff ff 	mov    %rax,-0x1d8(%rbp)
   11a50:	48 8d 85 d8 ed ff ff 	lea    -0x1228(%rbp),%rax
   11a57:	48 89 85 30 fe ff ff 	mov    %rax,-0x1d0(%rbp)
   11a5e:	48 8d 05 b3 e6 00 00 	lea    0xe6b3(%rip),%rax        # 20118 <g_790+0x38>
   11a65:	48 89 85 38 fe ff ff 	mov    %rax,-0x1c8(%rbp)
   11a6c:	48 8d 05 a5 e6 00 00 	lea    0xe6a5(%rip),%rax        # 20118 <g_790+0x38>
   11a73:	48 89 85 40 fe ff ff 	mov    %rax,-0x1c0(%rbp)
   11a7a:	48 8d 05 97 e6 00 00 	lea    0xe697(%rip),%rax        # 20118 <g_790+0x38>
   11a81:	48 89 85 48 fe ff ff 	mov    %rax,-0x1b8(%rbp)
   11a88:	48 c7 85 50 fe ff ff 	movq   $0x0,-0x1b0(%rbp)
   11a8f:	00 00 00 00 
   11a93:	48 8d 05 7e e6 00 00 	lea    0xe67e(%rip),%rax        # 20118 <g_790+0x38>
   11a9a:	48 89 85 58 fe ff ff 	mov    %rax,-0x1a8(%rbp)
   11aa1:	48 8d 05 88 e6 00 00 	lea    0xe688(%rip),%rax        # 20130 <g_790+0x50>
   11aa8:	48 89 85 60 fe ff ff 	mov    %rax,-0x1a0(%rbp)
   11aaf:	48 8d 05 ea e6 00 00 	lea    0xe6ea(%rip),%rax        # 201a0 <g_790+0xc0>
   11ab6:	48 89 85 68 fe ff ff 	mov    %rax,-0x198(%rbp)
   11abd:	48 8d 85 d8 ed ff ff 	lea    -0x1228(%rbp),%rax
   11ac4:	48 89 85 70 fe ff ff 	mov    %rax,-0x190(%rbp)
   11acb:	48 8d 85 d8 ed ff ff 	lea    -0x1228(%rbp),%rax
   11ad2:	48 89 85 78 fe ff ff 	mov    %rax,-0x188(%rbp)
   11ad9:	48 8d 85 d8 ed ff ff 	lea    -0x1228(%rbp),%rax
   11ae0:	48 89 85 80 fe ff ff 	mov    %rax,-0x180(%rbp)
   11ae7:	48 8d 05 2a e6 00 00 	lea    0xe62a(%rip),%rax        # 20118 <g_790+0x38>
   11aee:	48 89 85 88 fe ff ff 	mov    %rax,-0x178(%rbp)
   11af5:	48 8d 05 1c e6 00 00 	lea    0xe61c(%rip),%rax        # 20118 <g_790+0x38>
   11afc:	48 89 85 90 fe ff ff 	mov    %rax,-0x170(%rbp)
   11b03:	48 8d 05 0e e6 00 00 	lea    0xe60e(%rip),%rax        # 20118 <g_790+0x38>
   11b0a:	48 89 85 98 fe ff ff 	mov    %rax,-0x168(%rbp)
   11b11:	48 c7 85 a0 fe ff ff 	movq   $0x0,-0x160(%rbp)
   11b18:	00 00 00 00 
   11b1c:	48 8d 05 f5 e5 00 00 	lea    0xe5f5(%rip),%rax        # 20118 <g_790+0x38>
   11b23:	48 89 85 a8 fe ff ff 	mov    %rax,-0x158(%rbp)
   11b2a:	48 8d 05 ff e5 00 00 	lea    0xe5ff(%rip),%rax        # 20130 <g_790+0x50>
   11b31:	48 89 85 b0 fe ff ff 	mov    %rax,-0x150(%rbp)
   11b38:	48 8d 05 61 e6 00 00 	lea    0xe661(%rip),%rax        # 201a0 <g_790+0xc0>
   11b3f:	48 89 85 b8 fe ff ff 	mov    %rax,-0x148(%rbp)
   11b46:	48 8d 85 d8 ed ff ff 	lea    -0x1228(%rbp),%rax
   11b4d:	48 89 85 c0 fe ff ff 	mov    %rax,-0x140(%rbp)
   11b54:	48 8d 85 d8 ed ff ff 	lea    -0x1228(%rbp),%rax
   11b5b:	48 89 85 c8 fe ff ff 	mov    %rax,-0x138(%rbp)
   11b62:	48 8d 85 d8 ed ff ff 	lea    -0x1228(%rbp),%rax
   11b69:	48 89 85 d0 fe ff ff 	mov    %rax,-0x130(%rbp)
   11b70:	48 8d 05 a1 e5 00 00 	lea    0xe5a1(%rip),%rax        # 20118 <g_790+0x38>
   11b77:	48 89 85 d8 fe ff ff 	mov    %rax,-0x128(%rbp)
   11b7e:	48 8d 05 93 e5 00 00 	lea    0xe593(%rip),%rax        # 20118 <g_790+0x38>
   11b85:	48 89 85 e0 fe ff ff 	mov    %rax,-0x120(%rbp)
   11b8c:	48 8d 05 85 e5 00 00 	lea    0xe585(%rip),%rax        # 20118 <g_790+0x38>
   11b93:	48 89 85 e8 fe ff ff 	mov    %rax,-0x118(%rbp)
   11b9a:	48 c7 85 f0 fe ff ff 	movq   $0x0,-0x110(%rbp)
   11ba1:	00 00 00 00 
   11ba5:	48 8d 05 6c e5 00 00 	lea    0xe56c(%rip),%rax        # 20118 <g_790+0x38>
   11bac:	48 89 85 f8 fe ff ff 	mov    %rax,-0x108(%rbp)
   11bb3:	48 8d 05 76 e5 00 00 	lea    0xe576(%rip),%rax        # 20130 <g_790+0x50>
   11bba:	48 89 85 00 ff ff ff 	mov    %rax,-0x100(%rbp)
   11bc1:	48 8d 05 d8 e5 00 00 	lea    0xe5d8(%rip),%rax        # 201a0 <g_790+0xc0>
   11bc8:	48 89 85 08 ff ff ff 	mov    %rax,-0xf8(%rbp)
   11bcf:	48 8d 85 d8 ed ff ff 	lea    -0x1228(%rbp),%rax
   11bd6:	48 89 85 10 ff ff ff 	mov    %rax,-0xf0(%rbp)
   11bdd:	48 8d 85 d8 ed ff ff 	lea    -0x1228(%rbp),%rax
   11be4:	48 89 85 18 ff ff ff 	mov    %rax,-0xe8(%rbp)
   11beb:	48 8d 85 d8 ed ff ff 	lea    -0x1228(%rbp),%rax
   11bf2:	48 89 85 20 ff ff ff 	mov    %rax,-0xe0(%rbp)
   11bf9:	48 8d 05 18 e5 00 00 	lea    0xe518(%rip),%rax        # 20118 <g_790+0x38>
   11c00:	48 89 85 28 ff ff ff 	mov    %rax,-0xd8(%rbp)
   11c07:	48 8d 05 0a e5 00 00 	lea    0xe50a(%rip),%rax        # 20118 <g_790+0x38>
   11c0e:	48 89 85 30 ff ff ff 	mov    %rax,-0xd0(%rbp)
   11c15:	48 8d 05 fc e4 00 00 	lea    0xe4fc(%rip),%rax        # 20118 <g_790+0x38>
   11c1c:	48 89 85 38 ff ff ff 	mov    %rax,-0xc8(%rbp)
   11c23:	48 c7 85 40 ff ff ff 	movq   $0x0,-0xc0(%rbp)
   11c2a:	00 00 00 00 
   11c2e:	48 8d 05 e3 e4 00 00 	lea    0xe4e3(%rip),%rax        # 20118 <g_790+0x38>
   11c35:	48 89 85 48 ff ff ff 	mov    %rax,-0xb8(%rbp)
   11c3c:	48 8d 05 ed e4 00 00 	lea    0xe4ed(%rip),%rax        # 20130 <g_790+0x50>
   11c43:	48 89 85 50 ff ff ff 	mov    %rax,-0xb0(%rbp)
   11c4a:	48 8d 05 4f e5 00 00 	lea    0xe54f(%rip),%rax        # 201a0 <g_790+0xc0>
   11c51:	48 89 85 58 ff ff ff 	mov    %rax,-0xa8(%rbp)
   11c58:	48 8d 85 d8 ed ff ff 	lea    -0x1228(%rbp),%rax
   11c5f:	48 89 85 60 ff ff ff 	mov    %rax,-0xa0(%rbp)
   11c66:	48 8d 85 d8 ed ff ff 	lea    -0x1228(%rbp),%rax
   11c6d:	48 89 85 68 ff ff ff 	mov    %rax,-0x98(%rbp)
   11c74:	48 8d 85 d8 ed ff ff 	lea    -0x1228(%rbp),%rax
   11c7b:	48 89 85 70 ff ff ff 	mov    %rax,-0x90(%rbp)
   11c82:	48 8d 05 8f e4 00 00 	lea    0xe48f(%rip),%rax        # 20118 <g_790+0x38>
   11c89:	48 89 85 78 ff ff ff 	mov    %rax,-0x88(%rbp)
   11c90:	48 8d 05 81 e4 00 00 	lea    0xe481(%rip),%rax        # 20118 <g_790+0x38>
   11c97:	48 89 45 80          	mov    %rax,-0x80(%rbp)
   11c9b:	48 8d 05 76 e4 00 00 	lea    0xe476(%rip),%rax        # 20118 <g_790+0x38>
   11ca2:	48 89 45 88          	mov    %rax,-0x78(%rbp)
   11ca6:	48 c7 45 90 00 00 00 	movq   $0x0,-0x70(%rbp)
   11cad:	00 
   11cae:	48 8d 05 63 e4 00 00 	lea    0xe463(%rip),%rax        # 20118 <g_790+0x38>
   11cb5:	48 89 45 98          	mov    %rax,-0x68(%rbp)
   11cb9:	48 8d 05 70 e4 00 00 	lea    0xe470(%rip),%rax        # 20130 <g_790+0x50>
   11cc0:	48 89 45 a0          	mov    %rax,-0x60(%rbp)
   11cc4:	48 8d 05 d5 e4 00 00 	lea    0xe4d5(%rip),%rax        # 201a0 <g_790+0xc0>
   11ccb:	48 89 45 a8          	mov    %rax,-0x58(%rbp)
   11ccf:	c7 85 e4 ec ff ff ff 	movl   $0xffffffff,-0x131c(%rbp)
   11cd6:	ff ff ff 
   11cd9:	48 8d 85 a8 ed ff ff 	lea    -0x1258(%rbp),%rax
   11ce0:	48 89 85 b0 ee ff ff 	mov    %rax,-0x1150(%rbp)
   11ce7:	48 8d 05 12 f5 00 00 	lea    0xf512(%rip),%rax        # 21200 <g_1540+0x20>
   11cee:	48 89 85 b8 ee ff ff 	mov    %rax,-0x1148(%rbp)
   11cf5:	66 c7 85 a2 ec ff ff 	movw   $0x71db,-0x135e(%rbp)
   11cfc:	db 71 
   11cfe:	48 8d 05 f4 bb 00 00 	lea    0xbbf4(%rip),%rax        # 1d8f9 <g_157>
   11d05:	48 89 85 c0 ee ff ff 	mov    %rax,-0x1140(%rbp)
   11d0c:	48 8d 05 15 bc 00 00 	lea    0xbc15(%rip),%rax        # 1d928 <g_350+0x8>
   11d13:	48 89 85 c8 ee ff ff 	mov    %rax,-0x1138(%rbp)
   11d1a:	c6 85 8b ec ff ff 03 	movb   $0x3,-0x1375(%rbp)
   11d21:	48 8d 85 f0 ed ff ff 	lea    -0x1210(%rbp),%rax
   11d28:	48 89 85 d0 ee ff ff 	mov    %rax,-0x1130(%rbp)
   11d2f:	48 c7 85 d8 ee ff ff 	movq   $0x0,-0x1128(%rbp)
   11d36:	00 00 00 00 
   11d3a:	48 c7 85 e0 ee ff ff 	movq   $0x1,-0x1120(%rbp)
   11d41:	01 00 00 00 
   11d45:	c7 85 24 ed ff ff 12 	movl   $0x9a228b12,-0x12dc(%rbp)
   11d4c:	8b 22 9a 
   11d4f:	48 c7 85 20 ee ff ff 	movq   $0x3,-0x11e0(%rbp)
   11d56:	03 00 00 00 
   11d5a:	c6 05 97 bb 00 00 00 	movb   $0x0,0xbb97(%rip)        # 1d8f8 <g_153>
   11d61:	e9 f6 0d 00 00       	jmpq   12b5c <func_15+0x33d3>
   11d66:	66 c7 85 30 f1 ff ff 	movw   $0x9ea8,-0xed0(%rbp)
   11d6d:	a8 9e 
   11d6f:	66 c7 85 32 f1 ff ff 	movw   $0x205b,-0xece(%rbp)
   11d76:	5b 20 
   11d78:	66 c7 85 34 f1 ff ff 	movw   $0xfff6,-0xecc(%rbp)
   11d7f:	f6 ff 
   11d81:	66 c7 85 36 f1 ff ff 	movw   $0x0,-0xeca(%rbp)
   11d88:	00 00 
   11d8a:	66 c7 85 38 f1 ff ff 	movw   $0x9ea8,-0xec8(%rbp)
   11d91:	a8 9e 
   11d93:	66 c7 85 3a f1 ff ff 	movw   $0x9ea8,-0xec6(%rbp)
   11d9a:	a8 9e 
   11d9c:	66 c7 85 3c f1 ff ff 	movw   $0x9ea8,-0xec4(%rbp)
   11da3:	a8 9e 
   11da5:	66 c7 85 3e f1 ff ff 	movw   $0xfffb,-0xec2(%rbp)
   11dac:	fb ff 
   11dae:	66 c7 85 40 f1 ff ff 	movw   $0xffff,-0xec0(%rbp)
   11db5:	ff ff 
   11db7:	66 c7 85 42 f1 ff ff 	movw   $0x135d,-0xebe(%rbp)
   11dbe:	5d 13 
   11dc0:	66 c7 85 44 f1 ff ff 	movw   $0xffff,-0xebc(%rbp)
   11dc7:	ff ff 
   11dc9:	66 c7 85 46 f1 ff ff 	movw   $0xffff,-0xeba(%rbp)
   11dd0:	ff ff 
   11dd2:	66 c7 85 48 f1 ff ff 	movw   $0x1,-0xeb8(%rbp)
   11dd9:	01 00 
   11ddb:	66 c7 85 4a f1 ff ff 	movw   $0xffff,-0xeb6(%rbp)
   11de2:	ff ff 
   11de4:	66 c7 85 4c f1 ff ff 	movw   $0x9ea8,-0xeb4(%rbp)
   11deb:	a8 9e 
   11ded:	66 c7 85 4e f1 ff ff 	movw   $0x9863,-0xeb2(%rbp)
   11df4:	63 98 
   11df6:	66 c7 85 50 f1 ff ff 	movw   $0xc6cf,-0xeb0(%rbp)
   11dfd:	cf c6 
   11dff:	66 c7 85 52 f1 ff ff 	movw   $0xfff6,-0xeae(%rbp)
   11e06:	f6 ff 
   11e08:	66 c7 85 54 f1 ff ff 	movw   $0xffff,-0xeac(%rbp)
   11e0f:	ff ff 
   11e11:	66 c7 85 56 f1 ff ff 	movw   $0xffff,-0xeaa(%rbp)
   11e18:	ff ff 
   11e1a:	66 c7 85 58 f1 ff ff 	movw   $0xc6cf,-0xea8(%rbp)
   11e21:	cf c6 
   11e23:	66 c7 85 5a f1 ff ff 	movw   $0x205b,-0xea6(%rbp)
   11e2a:	5b 20 
   11e2c:	66 c7 85 5c f1 ff ff 	movw   $0xffff,-0xea4(%rbp)
   11e33:	ff ff 
   11e35:	66 c7 85 5e f1 ff ff 	movw   $0x3930,-0xea2(%rbp)
   11e3c:	30 39 
   11e3e:	66 c7 85 60 f1 ff ff 	movw   $0x205b,-0xea0(%rbp)
   11e45:	5b 20 
   11e47:	66 c7 85 62 f1 ff ff 	movw   $0xfffb,-0xe9e(%rbp)
   11e4e:	fb ff 
   11e50:	66 c7 85 64 f1 ff ff 	movw   $0x9863,-0xe9c(%rbp)
   11e57:	63 98 
   11e59:	66 c7 85 66 f1 ff ff 	movw   $0xffff,-0xe9a(%rbp)
   11e60:	ff ff 
   11e62:	66 c7 85 68 f1 ff ff 	movw   $0x9ea8,-0xe98(%rbp)
   11e69:	a8 9e 
   11e6b:	66 c7 85 6a f1 ff ff 	movw   $0xffff,-0xe96(%rbp)
   11e72:	ff ff 
   11e74:	48 8d 05 bd fc 00 00 	lea    0xfcbd(%rip),%rax        # 21b38 <g_1824+0x218>
   11e7b:	48 89 85 e8 ee ff ff 	mov    %rax,-0x1118(%rbp)
   11e82:	c7 85 28 ed ff ff 01 	movl   $0x1,-0x12d8(%rbp)
   11e89:	00 00 00 
   11e8c:	48 8d 05 b5 e0 00 00 	lea    0xe0b5(%rip),%rax        # 1ff48 <g_725+0x88>
   11e93:	48 89 85 30 f3 ff ff 	mov    %rax,-0xcd0(%rbp)
   11e9a:	48 8d 05 a7 e0 00 00 	lea    0xe0a7(%rip),%rax        # 1ff48 <g_725+0x88>
   11ea1:	48 89 85 38 f3 ff ff 	mov    %rax,-0xcc8(%rbp)
   11ea8:	48 8d 05 99 e0 00 00 	lea    0xe099(%rip),%rax        # 1ff48 <g_725+0x88>
   11eaf:	48 89 85 40 f3 ff ff 	mov    %rax,-0xcc0(%rbp)
   11eb6:	48 8d 05 8b e0 00 00 	lea    0xe08b(%rip),%rax        # 1ff48 <g_725+0x88>
   11ebd:	48 89 85 48 f3 ff ff 	mov    %rax,-0xcb8(%rbp)
   11ec4:	48 8d 05 7d e0 00 00 	lea    0xe07d(%rip),%rax        # 1ff48 <g_725+0x88>
   11ecb:	48 89 85 50 f3 ff ff 	mov    %rax,-0xcb0(%rbp)
   11ed2:	48 8d 05 6f e0 00 00 	lea    0xe06f(%rip),%rax        # 1ff48 <g_725+0x88>
   11ed9:	48 89 85 58 f3 ff ff 	mov    %rax,-0xca8(%rbp)
   11ee0:	48 8d 05 61 e0 00 00 	lea    0xe061(%rip),%rax        # 1ff48 <g_725+0x88>
   11ee7:	48 89 85 60 f3 ff ff 	mov    %rax,-0xca0(%rbp)
   11eee:	48 8d 05 53 e0 00 00 	lea    0xe053(%rip),%rax        # 1ff48 <g_725+0x88>
   11ef5:	48 89 85 68 f3 ff ff 	mov    %rax,-0xc98(%rbp)
   11efc:	48 8d 05 45 e0 00 00 	lea    0xe045(%rip),%rax        # 1ff48 <g_725+0x88>
   11f03:	48 89 85 70 f3 ff ff 	mov    %rax,-0xc90(%rbp)
   11f0a:	48 8d 85 30 f3 ff ff 	lea    -0xcd0(%rbp),%rax
   11f11:	48 83 c0 20          	add    $0x20,%rax
   11f15:	48 89 85 f0 ee ff ff 	mov    %rax,-0x1110(%rbp)
   11f1c:	c7 85 c0 f0 ff ff 13 	movl   $0x6ec8ee13,-0xf40(%rbp)
   11f23:	ee c8 6e 
   11f26:	c7 85 c4 f0 ff ff 13 	movl   $0x6ec8ee13,-0xf3c(%rbp)
   11f2d:	ee c8 6e 
   11f30:	c7 85 c8 f0 ff ff 13 	movl   $0x6ec8ee13,-0xf38(%rbp)
   11f37:	ee c8 6e 
   11f3a:	c7 85 cc f0 ff ff 13 	movl   $0x6ec8ee13,-0xf34(%rbp)
   11f41:	ee c8 6e 
   11f44:	c7 85 d0 f0 ff ff 13 	movl   $0x6ec8ee13,-0xf30(%rbp)
   11f4b:	ee c8 6e 
   11f4e:	c7 85 d4 f0 ff ff 13 	movl   $0x6ec8ee13,-0xf2c(%rbp)
   11f55:	ee c8 6e 
   11f58:	c7 85 d8 f0 ff ff 13 	movl   $0x6ec8ee13,-0xf28(%rbp)
   11f5f:	ee c8 6e 
   11f62:	c7 85 dc f0 ff ff 13 	movl   $0x6ec8ee13,-0xf24(%rbp)
   11f69:	ee c8 6e 
   11f6c:	c7 85 e0 f0 ff ff 13 	movl   $0x6ec8ee13,-0xf20(%rbp)
   11f73:	ee c8 6e 
   11f76:	66 c7 85 96 ec ff ff 	movw   $0x5193,-0x136a(%rbp)
   11f7d:	93 51 
   11f7f:	48 8d 05 ba e2 00 00 	lea    0xe2ba(%rip),%rax        # 20240 <g_936>
   11f86:	48 89 85 08 ee ff ff 	mov    %rax,-0x11f8(%rbp)
   11f8d:	48 8d 85 08 ee ff ff 	lea    -0x11f8(%rbp),%rax
   11f94:	48 89 85 f8 ee ff ff 	mov    %rax,-0x1108(%rbp)
   11f9b:	c7 05 ff ba 00 00 02 	movl   $0x2,0xbaff(%rip)        # 1daa4 <g_1149>
   11fa2:	00 00 00 
   11fa5:	e9 76 02 00 00       	jmpq   12220 <func_15+0x2a97>
   11faa:	48 c7 85 10 ee ff ff 	movq   $0x0,-0x11f0(%rbp)
   11fb1:	00 00 00 00 
   11fb5:	48 c7 85 00 ef ff ff 	movq   $0x0,-0x1100(%rbp)
   11fbc:	00 00 00 00 
   11fc0:	48 8d 85 b0 ec ff ff 	lea    -0x1350(%rbp),%rax
   11fc7:	48 89 85 08 ef ff ff 	mov    %rax,-0x10f8(%rbp)
   11fce:	48 8d 85 c0 ed ff ff 	lea    -0x1240(%rbp),%rax
   11fd5:	48 89 85 10 ef ff ff 	mov    %rax,-0x10f0(%rbp)
   11fdc:	48 8d 05 1d bb 00 00 	lea    0xbb1d(%rip),%rax        # 1db00 <g_1620>
   11fe3:	48 89 85 d0 f5 ff ff 	mov    %rax,-0xa30(%rbp)
   11fea:	48 8d 05 0f bb 00 00 	lea    0xbb0f(%rip),%rax        # 1db00 <g_1620>
   11ff1:	48 89 85 d8 f5 ff ff 	mov    %rax,-0xa28(%rbp)
   11ff8:	48 8d 05 01 bb 00 00 	lea    0xbb01(%rip),%rax        # 1db00 <g_1620>
   11fff:	48 89 85 e0 f5 ff ff 	mov    %rax,-0xa20(%rbp)
   12006:	48 8d 05 f3 ba 00 00 	lea    0xbaf3(%rip),%rax        # 1db00 <g_1620>
   1200d:	48 89 85 e8 f5 ff ff 	mov    %rax,-0xa18(%rbp)
   12014:	48 8d 05 e5 ba 00 00 	lea    0xbae5(%rip),%rax        # 1db00 <g_1620>
   1201b:	48 89 85 f0 f5 ff ff 	mov    %rax,-0xa10(%rbp)
   12022:	48 8d 05 d7 ba 00 00 	lea    0xbad7(%rip),%rax        # 1db00 <g_1620>
   12029:	48 89 85 f8 f5 ff ff 	mov    %rax,-0xa08(%rbp)
   12030:	8b 05 fa af 00 00    	mov    0xaffa(%rip),%eax        # 1d030 <g_63>
   12036:	8d 48 04             	lea    0x4(%rax),%ecx
   12039:	8b 05 f1 af 00 00    	mov    0xaff1(%rip),%eax        # 1d030 <g_63>
   1203f:	8d 50 02             	lea    0x2(%rax),%edx
   12042:	8b 05 e8 af 00 00    	mov    0xafe8(%rip),%eax        # 1d030 <g_63>
   12048:	48 98                	cltq   
   1204a:	48 63 c9             	movslq %ecx,%rcx
   1204d:	48 63 d2             	movslq %edx,%rdx
   12050:	48 c1 e1 02          	shl    $0x2,%rcx
   12054:	48 01 ca             	add    %rcx,%rdx
   12057:	48 01 d2             	add    %rdx,%rdx
   1205a:	48 01 c2             	add    %rax,%rdx
   1205d:	48 8d 05 5c ba 00 00 	lea    0xba5c(%rip),%rax        # 1dac0 <g_1466>
   12064:	48 01 d0             	add    %rdx,%rax
   12067:	0f b6 00             	movzbl (%rax),%eax
   1206a:	0f b6 c0             	movzbl %al,%eax
   1206d:	c6 85 87 ec ff ff fa 	movb   $0xfa,-0x1379(%rbp)
   12074:	48 89 c6             	mov    %rax,%rsi
   12077:	bf fa 00 00 00       	mov    $0xfa,%edi
   1207c:	e8 27 88 ff ff       	callq  a8a8 <safe_sub_func_int64_t_s_s>
   12081:	49 89 c0             	mov    %rax,%r8
   12084:	48 8b 85 40 ee ff ff 	mov    -0x11c0(%rbp),%rax
   1208b:	48 8b 10             	mov    (%rax),%rdx
   1208e:	48 8b 85 10 ee ff ff 	mov    -0x11f0(%rbp),%rax
   12095:	48 39 c2             	cmp    %rax,%rdx
   12098:	0f 95 c0             	setne  %al
   1209b:	0f b6 c8             	movzbl %al,%ecx
   1209e:	0f b6 05 53 b8 00 00 	movzbl 0xb853(%rip),%eax        # 1d8f8 <g_153>
   120a5:	0f be c0             	movsbl %al,%eax
   120a8:	8b 15 82 af 00 00    	mov    0xaf82(%rip),%edx        # 1d030 <g_63>
   120ae:	8d 7a 01             	lea    0x1(%rdx),%edi
   120b1:	8b 15 79 af 00 00    	mov    0xaf79(%rip),%edx        # 1d030 <g_63>
   120b7:	48 63 f2             	movslq %edx,%rsi
   120ba:	48 63 d0             	movslq %eax,%rdx
   120bd:	48 63 ff             	movslq %edi,%rdi
   120c0:	48 89 d0             	mov    %rdx,%rax
   120c3:	48 01 c0             	add    %rax,%rax
   120c6:	48 01 d0             	add    %rdx,%rax
   120c9:	48 01 f8             	add    %rdi,%rax
   120cc:	48 01 c0             	add    %rax,%rax
   120cf:	48 01 f0             	add    %rsi,%rax
   120d2:	48 8d 14 c5 00 00 00 	lea    0x0(,%rax,8),%rdx
   120d9:	00 
   120da:	48 8d 05 3f b8 00 00 	lea    0xb83f(%rip),%rax        # 1d920 <g_350>
   120e1:	48 8b 04 02          	mov    (%rdx,%rax,1),%rax
   120e5:	48 39 c1             	cmp    %rax,%rcx
   120e8:	7e 10                	jle    120fa <func_15+0x2971>
   120ea:	83 bd 7c ec ff ff 00 	cmpl   $0x0,-0x1384(%rbp)
   120f1:	74 07                	je     120fa <func_15+0x2971>
   120f3:	b8 01 00 00 00       	mov    $0x1,%eax
   120f8:	eb 05                	jmp    120ff <func_15+0x2976>
   120fa:	b8 00 00 00 00       	mov    $0x0,%eax
   120ff:	83 f0 01             	xor    $0x1,%eax
   12102:	48 98                	cltq   
   12104:	49 39 c0             	cmp    %rax,%r8
   12107:	0f 97 c0             	seta   %al
   1210a:	0f b6 d0             	movzbl %al,%edx
   1210d:	48 8b 85 08 ef ff ff 	mov    -0x10f8(%rbp),%rax
   12114:	8b 00                	mov    (%rax),%eax
   12116:	09 c2                	or     %eax,%edx
   12118:	48 8b 85 08 ef ff ff 	mov    -0x10f8(%rbp),%rax
   1211f:	89 10                	mov    %edx,(%rax)
   12121:	8b 85 7c ec ff ff    	mov    -0x1384(%rbp),%eax
   12127:	0f be d8             	movsbl %al,%ebx
   1212a:	48 8b 05 1f dd 00 00 	mov    0xdd1f(%rip),%rax        # 1fe50 <g_56>
   12131:	0f b7 00             	movzwl (%rax),%eax
   12134:	0f bf d0             	movswl %ax,%edx
   12137:	48 8b 85 10 ef ff ff 	mov    -0x10f0(%rbp),%rax
   1213e:	48 8d 0d 57 b9 00 00 	lea    0xb957(%rip),%rcx        # 1da9c <g_1005>
   12145:	48 89 08             	mov    %rcx,(%rax)
   12148:	48 8b 85 38 ee ff ff 	mov    -0x11c8(%rbp),%rax
   1214f:	48 8b 00             	mov    (%rax),%rax
   12152:	48 8b 00             	mov    (%rax),%rax
   12155:	48 8b 30             	mov    (%rax),%rsi
   12158:	48 8d 05 29 fb 00 00 	lea    0xfb29(%rip),%rax        # 21c88 <g_1824+0x368>
   1215f:	48 39 85 e8 ee ff ff 	cmp    %rax,-0x1118(%rbp)
   12166:	0f 95 c0             	setne  %al
   12169:	0f b6 c8             	movzbl %al,%ecx
   1216c:	48 8b 85 38 ee ff ff 	mov    -0x11c8(%rbp),%rax
   12173:	48 8b 00             	mov    (%rax),%rax
   12176:	48 8b 00             	mov    (%rax),%rax
   12179:	48 31 f1             	xor    %rsi,%rcx
   1217c:	48 89 08             	mov    %rcx,(%rax)
   1217f:	48 8b 00             	mov    (%rax),%rax
   12182:	48 89 05 07 b8 00 00 	mov    %rax,0xb807(%rip)        # 1d990 <g_408>
   12189:	48 8b 05 00 b8 00 00 	mov    0xb800(%rip),%rax        # 1d990 <g_408>
   12190:	0d 3b 9b 1e a8       	or     $0xa81e9b3b,%eax
   12195:	89 85 f0 ec ff ff    	mov    %eax,-0x1310(%rbp)
   1219b:	48 8b 05 96 e0 00 00 	mov    0xe096(%rip),%rax        # 20238 <g_937>
   121a2:	0f b6 00             	movzbl (%rax),%eax
   121a5:	0f b6 c0             	movzbl %al,%eax
   121a8:	39 85 f0 ec ff ff    	cmp    %eax,-0x1310(%rbp)
   121ae:	7e 13                	jle    121c3 <func_15+0x2a3a>
   121b0:	0f b7 85 30 f1 ff ff 	movzwl -0xed0(%rbp),%eax
   121b7:	66 85 c0             	test   %ax,%ax
   121ba:	74 07                	je     121c3 <func_15+0x2a3a>
   121bc:	b8 01 00 00 00       	mov    $0x1,%eax
   121c1:	eb 05                	jmp    121c8 <func_15+0x2a3f>
   121c3:	b8 00 00 00 00       	mov    $0x0,%eax
   121c8:	83 f8 01             	cmp    $0x1,%eax
   121cb:	0f 9e c0             	setle  %al
   121ce:	0f b6 c0             	movzbl %al,%eax
   121d1:	89 d6                	mov    %edx,%esi
   121d3:	89 c7                	mov    %eax,%edi
   121d5:	e8 d9 81 ff ff       	callq  a3b3 <safe_add_func_int16_t_s_s>
   121da:	0f be c0             	movsbl %al,%eax
   121dd:	89 de                	mov    %ebx,%esi
   121df:	89 c7                	mov    %eax,%edi
   121e1:	e8 2c 80 ff ff       	callq  a212 <safe_mul_func_int8_t_s_s>
   121e6:	0f be c0             	movsbl %al,%eax
   121e9:	89 85 28 ed ff ff    	mov    %eax,-0x12d8(%rbp)
   121ef:	48 8b 05 a2 dc 00 00 	mov    0xdca2(%rip),%rax        # 1fe98 <g_662>
   121f6:	8b 00                	mov    (%rax),%eax
   121f8:	85 c0                	test   %eax,%eax
   121fa:	74 0b                	je     12207 <func_15+0x2a7e>
   121fc:	8b 85 7c ec ff ff    	mov    -0x1384(%rbp),%eax
   12202:	e9 04 26 00 00       	jmpq   1480b <func_15+0x5082>
   12207:	8b 05 3f ba 00 00    	mov    0xba3f(%rip),%eax        # 1dc4c <g_1873+0xcc>
   1220d:	85 c0                	test   %eax,%eax
   1220f:	75 20                	jne    12231 <func_15+0x2aa8>
   12211:	8b 05 8d b8 00 00    	mov    0xb88d(%rip),%eax        # 1daa4 <g_1149>
   12217:	83 c0 01             	add    $0x1,%eax
   1221a:	89 05 84 b8 00 00    	mov    %eax,0xb884(%rip)        # 1daa4 <g_1149>
   12220:	8b 05 7e b8 00 00    	mov    0xb87e(%rip),%eax        # 1daa4 <g_1149>
   12226:	83 f8 07             	cmp    $0x7,%eax
   12229:	0f 86 7b fd ff ff    	jbe    11faa <func_15+0x2821>
   1222f:	eb 01                	jmp    12232 <func_15+0x2aa9>
   12231:	90                   	nop
   12232:	48 c7 05 53 b7 00 00 	movq   $0x0,0xb753(%rip)        # 1d990 <g_408>
   12239:	00 00 00 00 
   1223d:	e9 e3 07 00 00       	jmpq   12a25 <func_15+0x329c>
   12242:	c6 85 8c ec ff ff fb 	movb   $0xfb,-0x1374(%rbp)
   12249:	c7 85 2c ed ff ff d9 	movl   $0x7c63c1d9,-0x12d4(%rbp)
   12250:	c1 63 7c 
   12253:	c6 85 8d ec ff ff 81 	movb   $0x81,-0x1373(%rbp)
   1225a:	c7 85 30 ed ff ff de 	movl   $0x9d741de,-0x12d0(%rbp)
   12261:	41 d7 09 
   12264:	c7 85 34 ed ff ff 2a 	movl   $0x393bac2a,-0x12cc(%rbp)
   1226b:	ac 3b 39 
   1226e:	c7 85 38 ed ff ff 34 	movl   $0xf4c97b34,-0x12c8(%rbp)
   12275:	7b c9 f4 
   12278:	0f b6 05 79 b6 00 00 	movzbl 0xb679(%rip),%eax        # 1d8f8 <g_153>
   1227f:	0f be c0             	movsbl %al,%eax
   12282:	83 c0 05             	add    $0x5,%eax
   12285:	48 98                	cltq   
   12287:	48 8d 14 85 00 00 00 	lea    0x0(,%rax,4),%rdx
   1228e:	00 
   1228f:	48 8d 05 2a 02 01 00 	lea    0x1022a(%rip),%rax        # 224c0 <g_269>
   12296:	8b 14 02             	mov    (%rdx,%rax,1),%edx
   12299:	48 8b 05 b0 db 00 00 	mov    0xdbb0(%rip),%rax        # 1fe50 <g_56>
   122a0:	66 89 10             	mov    %dx,(%rax)
   122a3:	0f b7 00             	movzwl (%rax),%eax
   122a6:	66 85 c0             	test   %ax,%ax
   122a9:	48 8d 05 10 de 00 00 	lea    0xde10(%rip),%rax        # 200c0 <g_724>
   122b0:	48 39 85 f0 ee ff ff 	cmp    %rax,-0x1110(%rbp)
   122b7:	0f 95 c0             	setne  %al
   122ba:	0f b6 d8             	movzbl %al,%ebx
   122bd:	0f b6 05 34 b6 00 00 	movzbl 0xb634(%rip),%eax        # 1d8f8 <g_153>
   122c4:	0f be c0             	movsbl %al,%eax
   122c7:	83 c0 06             	add    $0x6,%eax
   122ca:	48 98                	cltq   
   122cc:	48 8d 14 85 00 00 00 	lea    0x0(,%rax,4),%rdx
   122d3:	00 
   122d4:	48 8d 05 e5 01 01 00 	lea    0x101e5(%rip),%rax        # 224c0 <g_269>
   122db:	8b 04 02             	mov    (%rdx,%rax,1),%eax
   122de:	0f b7 d0             	movzwl %ax,%edx
   122e1:	0f b6 05 10 b6 00 00 	movzbl 0xb610(%rip),%eax        # 1d8f8 <g_153>
   122e8:	0f be c0             	movsbl %al,%eax
   122eb:	8d 70 01             	lea    0x1(%rax),%esi
   122ee:	0f b6 05 03 b6 00 00 	movzbl 0xb603(%rip),%eax        # 1d8f8 <g_153>
   122f5:	0f be c0             	movsbl %al,%eax
   122f8:	8d 48 03             	lea    0x3(%rax),%ecx
   122fb:	8b 05 2f ad 00 00    	mov    0xad2f(%rip),%eax        # 1d030 <g_63>
   12301:	48 98                	cltq   
   12303:	48 63 f6             	movslq %esi,%rsi
   12306:	48 63 c9             	movslq %ecx,%rcx
   12309:	48 c1 e6 02          	shl    $0x2,%rsi
   1230d:	48 01 f1             	add    %rsi,%rcx
   12310:	48 01 c9             	add    %rcx,%rcx
   12313:	48 01 c1             	add    %rax,%rcx
   12316:	48 8d 05 a3 b7 00 00 	lea    0xb7a3(%rip),%rax        # 1dac0 <g_1466>
   1231d:	48 01 c8             	add    %rcx,%rax
   12320:	0f b6 00             	movzbl (%rax),%eax
   12323:	0f b6 c0             	movzbl %al,%eax
   12326:	89 d6                	mov    %edx,%esi
   12328:	89 c7                	mov    %eax,%edi
   1232a:	e8 f0 89 ff ff       	callq  ad1f <safe_sub_func_uint16_t_u_u>
   1232f:	0f b7 c0             	movzwl %ax,%eax
   12332:	39 c3                	cmp    %eax,%ebx
   12334:	80 bd 8c ec ff ff 00 	cmpb   $0x0,-0x1374(%rbp)
   1233b:	0f 84 9c 00 00 00    	je     123dd <func_15+0x2c54>
   12341:	c7 85 3c ed ff ff c6 	movl   $0x4ed8aac6,-0x12c4(%rbp)
   12348:	aa d8 4e 
   1234b:	c7 85 d0 f5 ff ff 06 	movl   $0x6,-0xa30(%rbp)
   12352:	00 00 00 
   12355:	c7 85 d4 f5 ff ff b8 	movl   $0x7c78adb8,-0xa2c(%rbp)
   1235c:	ad 78 7c 
   1235f:	c7 85 d8 f5 ff ff b8 	movl   $0x7c78adb8,-0xa28(%rbp)
   12366:	ad 78 7c 
   12369:	c7 85 dc f5 ff ff 06 	movl   $0x6,-0xa24(%rbp)
   12370:	00 00 00 
   12373:	c7 85 e0 f5 ff ff b8 	movl   $0x7c78adb8,-0xa20(%rbp)
   1237a:	ad 78 7c 
   1237d:	c7 85 e4 f5 ff ff b8 	movl   $0x7c78adb8,-0xa1c(%rbp)
   12384:	ad 78 7c 
   12387:	c7 85 e8 f5 ff ff 06 	movl   $0x6,-0xa18(%rbp)
   1238e:	00 00 00 
   12391:	c7 85 ec f5 ff ff b8 	movl   $0x7c78adb8,-0xa14(%rbp)
   12398:	ad 78 7c 
   1239b:	c7 85 f0 f5 ff ff b8 	movl   $0x7c78adb8,-0xa10(%rbp)
   123a2:	ad 78 7c 
   123a5:	c7 85 f4 f5 ff ff 06 	movl   $0x6,-0xa0c(%rbp)
   123ac:	00 00 00 
   123af:	c7 85 f8 f5 ff ff b8 	movl   $0x7c78adb8,-0xa08(%rbp)
   123b6:	ad 78 7c 
   123b9:	c7 85 fc f5 ff ff b8 	movl   $0x7c78adb8,-0xa04(%rbp)
   123c0:	ad 78 7c 
   123c3:	83 ad fc ec ff ff 01 	subl   $0x1,-0x1304(%rbp)
   123ca:	0f b7 85 96 ec ff ff 	movzwl -0x136a(%rbp),%eax
   123d1:	83 e8 01             	sub    $0x1,%eax
   123d4:	66 89 85 96 ec ff ff 	mov    %ax,-0x136a(%rbp)
   123db:	eb 0d                	jmp    123ea <func_15+0x2c61>
   123dd:	83 bd 7c ec ff ff 00 	cmpl   $0x0,-0x1384(%rbp)
   123e4:	0f 85 4e 06 00 00    	jne    12a38 <func_15+0x32af>
   123ea:	48 8b 15 27 f5 00 00 	mov    0xf527(%rip),%rdx        # 21918 <g_1749>
   123f1:	48 8b 05 20 f5 00 00 	mov    0xf520(%rip),%rax        # 21918 <g_1749>
   123f8:	48 8b 12             	mov    (%rdx),%rdx
   123fb:	48 89 10             	mov    %rdx,(%rax)
   123fe:	c7 05 f8 b4 00 00 02 	movl   $0x2,0xb4f8(%rip)        # 1d900 <g_267>
   12405:	00 00 00 
   12408:	e9 f8 05 00 00       	jmpq   12a05 <func_15+0x327c>
   1240d:	48 c7 85 18 ef ff ff 	movq   $0x0,-0x10e8(%rbp)
   12414:	00 00 00 00 
   12418:	48 8d 05 69 b6 00 00 	lea    0xb669(%rip),%rax        # 1da88 <g_899>
   1241f:	48 89 85 20 ef ff ff 	mov    %rax,-0x10e0(%rbp)
   12426:	c7 85 40 ed ff ff 08 	movl   $0x8,-0x12c0(%rbp)
   1242d:	00 00 00 
   12430:	48 8d 85 d0 f5 ff ff 	lea    -0xa30(%rbp),%rax
   12437:	48 8d 15 62 c9 00 00 	lea    0xc962(%rip),%rdx        # 1eda0 <g_3068+0xa78>
   1243e:	b9 28 00 00 00       	mov    $0x28,%ecx
   12443:	48 89 c7             	mov    %rax,%rdi
   12446:	48 89 d6             	mov    %rdx,%rsi
   12449:	f3 48 a5             	rep movsq %ds:(%rsi),%es:(%rdi)
   1244c:	c7 85 44 ed ff ff 02 	movl   $0x2,-0x12bc(%rbp)
   12453:	00 00 00 
   12456:	8b 9d fc ec ff ff    	mov    -0x1304(%rbp),%ebx
   1245c:	0f b7 85 3e f1 ff ff 	movzwl -0xec2(%rbp),%eax
   12463:	44 0f bf e8          	movswl %ax,%r13d
   12467:	8b 85 d4 f0 ff ff    	mov    -0xf2c(%rbp),%eax
   1246d:	44 0f be e0          	movsbl %al,%r12d
   12471:	8b b5 d4 f0 ff ff    	mov    -0xf2c(%rbp),%esi
   12477:	8b 05 b3 ab 00 00    	mov    0xabb3(%rip),%eax        # 1d030 <g_63>
   1247d:	8d 50 02             	lea    0x2(%rax),%edx
   12480:	0f b6 05 71 b4 00 00 	movzbl 0xb471(%rip),%eax        # 1d8f8 <g_153>
   12487:	0f be c0             	movsbl %al,%eax
   1248a:	83 c0 03             	add    $0x3,%eax
   1248d:	0f b6 0d 64 b4 00 00 	movzbl 0xb464(%rip),%ecx        # 1d8f8 <g_153>
   12494:	0f be c9             	movsbl %cl,%ecx
   12497:	83 c1 01             	add    $0x1,%ecx
   1249a:	41 89 f1             	mov    %esi,%r9d
   1249d:	48 63 f1             	movslq %ecx,%rsi
   124a0:	4c 63 c2             	movslq %edx,%r8
   124a3:	48 63 f8             	movslq %eax,%rdi
   124a6:	49 c1 e0 02          	shl    $0x2,%r8
   124aa:	4c 01 c7             	add    %r8,%rdi
   124ad:	48 01 ff             	add    %rdi,%rdi
   124b0:	48 01 f7             	add    %rsi,%rdi
   124b3:	48 8d 35 06 b6 00 00 	lea    0xb606(%rip),%rsi        # 1dac0 <g_1466>
   124ba:	48 01 fe             	add    %rdi,%rsi
   124bd:	44 88 0e             	mov    %r9b,(%rsi)
   124c0:	48 63 c9             	movslq %ecx,%rcx
   124c3:	48 63 d2             	movslq %edx,%rdx
   124c6:	48 98                	cltq   
   124c8:	48 c1 e2 02          	shl    $0x2,%rdx
   124cc:	48 01 d0             	add    %rdx,%rax
   124cf:	48 01 c0             	add    %rax,%rax
   124d2:	48 8d 14 08          	lea    (%rax,%rcx,1),%rdx
   124d6:	48 8d 05 e3 b5 00 00 	lea    0xb5e3(%rip),%rax        # 1dac0 <g_1466>
   124dd:	48 01 d0             	add    %rdx,%rax
   124e0:	0f b6 00             	movzbl (%rax),%eax
   124e3:	0f b6 c0             	movzbl %al,%eax
   124e6:	be 05 00 00 00       	mov    $0x5,%esi
   124eb:	89 c7                	mov    %eax,%edi
   124ed:	e8 cc 87 ff ff       	callq  acbe <safe_rshift_func_uint8_t_u_u>
   124f2:	0f b6 05 ff b3 00 00 	movzbl 0xb3ff(%rip),%eax        # 1d8f8 <g_153>
   124f9:	0f be c0             	movsbl %al,%eax
   124fc:	83 c0 02             	add    $0x2,%eax
   124ff:	48 98                	cltq   
   12501:	48 8d 14 85 00 00 00 	lea    0x0(,%rax,4),%rdx
   12508:	00 
   12509:	48 8d 05 b0 ff 00 00 	lea    0xffb0(%rip),%rax        # 224c0 <g_269>
   12510:	8b 04 02             	mov    (%rdx,%rax,1),%eax
   12513:	3d 8b 00 00 00       	cmp    $0x8b,%eax
   12518:	0f 95 c0             	setne  %al
   1251b:	44 0f b6 f0          	movzbl %al,%r14d
   1251f:	8b 85 cc f0 ff ff    	mov    -0xf34(%rbp),%eax
   12525:	41 89 c7             	mov    %eax,%r15d
   12528:	0f b6 05 77 b4 00 00 	movzbl 0xb477(%rip),%eax        # 1d9a6 <g_503>
   1252f:	0f b6 d0             	movzbl %al,%edx
   12532:	48 8b 05 6f e4 00 00 	mov    0xe46f(%rip),%rax        # 209a8 <g_1297>
   12539:	48 8b 00             	mov    (%rax),%rax
   1253c:	48 8b 00             	mov    (%rax),%rax
   1253f:	48 8b 00             	mov    (%rax),%rax
   12542:	48 85 c0             	test   %rax,%rax
   12545:	74 21                	je     12568 <func_15+0x2ddf>
   12547:	8b 85 78 ec ff ff    	mov    -0x1388(%rbp),%eax
   1254d:	0b 85 7c ec ff ff    	or     -0x1384(%rbp),%eax
   12553:	85 c0                	test   %eax,%eax
   12555:	75 0a                	jne    12561 <func_15+0x2dd8>
   12557:	8b 85 78 ec ff ff    	mov    -0x1388(%rbp),%eax
   1255d:	85 c0                	test   %eax,%eax
   1255f:	74 07                	je     12568 <func_15+0x2ddf>
   12561:	b8 01 00 00 00       	mov    $0x1,%eax
   12566:	eb 05                	jmp    1256d <func_15+0x2de4>
   12568:	b8 00 00 00 00       	mov    $0x0,%eax
   1256d:	0f b7 c0             	movzwl %ax,%eax
   12570:	89 d6                	mov    %edx,%esi
   12572:	89 c7                	mov    %eax,%edi
   12574:	e8 15 88 ff ff       	callq  ad8e <safe_div_func_uint16_t_u_u>
   12579:	0f b7 c0             	movzwl %ax,%eax
   1257c:	44 89 fe             	mov    %r15d,%esi
   1257f:	89 c7                	mov    %eax,%edi
   12581:	e8 77 89 ff ff       	callq  aefd <safe_mod_func_uint32_t_u_u>
   12586:	0f b7 95 96 ec ff ff 	movzwl -0x136a(%rbp),%edx
   1258d:	21 d0                	and    %edx,%eax
   1258f:	44 31 f0             	xor    %r14d,%eax
   12592:	89 c2                	mov    %eax,%edx
   12594:	48 8b 85 20 ef ff ff 	mov    -0x10e0(%rbp),%rax
   1259b:	48 89 10             	mov    %rdx,(%rax)
   1259e:	48 8b 85 20 ef ff ff 	mov    -0x10e0(%rbp),%rax
   125a5:	48 8b 00             	mov    (%rax),%rax
   125a8:	89 85 b4 ec ff ff    	mov    %eax,-0x134c(%rbp)
   125ae:	0f b7 05 8b ff 00 00 	movzwl 0xff8b(%rip),%eax        # 22540 <g_1923>
   125b5:	0f be c0             	movsbl %al,%eax
   125b8:	44 89 e6             	mov    %r12d,%esi
   125bb:	89 c7                	mov    %eax,%edi
   125bd:	e8 12 7c ff ff       	callq  a1d4 <safe_add_func_int8_t_s_s>
   125c2:	8b 15 68 aa 00 00    	mov    0xaa68(%rip),%edx        # 1d030 <g_63>
   125c8:	0f b6 0d 29 b3 00 00 	movzbl 0xb329(%rip),%ecx        # 1d8f8 <g_153>
   125cf:	0f be c9             	movsbl %cl,%ecx
   125d2:	8d 79 02             	lea    0x2(%rcx),%edi
   125d5:	0f b6 0d 1c b3 00 00 	movzbl 0xb31c(%rip),%ecx        # 1d8f8 <g_153>
   125dc:	0f be c9             	movsbl %cl,%ecx
   125df:	4c 0f be c0          	movsbq %al,%r8
   125e3:	4c 63 c9             	movslq %ecx,%r9
   125e6:	48 63 f2             	movslq %edx,%rsi
   125e9:	4c 63 d7             	movslq %edi,%r10
   125ec:	48 89 f0             	mov    %rsi,%rax
   125ef:	48 01 c0             	add    %rax,%rax
   125f2:	48 01 f0             	add    %rsi,%rax
   125f5:	4c 01 d0             	add    %r10,%rax
   125f8:	48 01 c0             	add    %rax,%rax
   125fb:	4c 01 c8             	add    %r9,%rax
   125fe:	48 8d 34 c5 00 00 00 	lea    0x0(,%rax,8),%rsi
   12605:	00 
   12606:	48 8d 05 13 b3 00 00 	lea    0xb313(%rip),%rax        # 1d920 <g_350>
   1260d:	4c 89 04 06          	mov    %r8,(%rsi,%rax,1)
   12611:	48 63 c9             	movslq %ecx,%rcx
   12614:	48 63 d2             	movslq %edx,%rdx
   12617:	48 63 f7             	movslq %edi,%rsi
   1261a:	48 89 d0             	mov    %rdx,%rax
   1261d:	48 01 c0             	add    %rax,%rax
   12620:	48 01 d0             	add    %rdx,%rax
   12623:	48 01 f0             	add    %rsi,%rax
   12626:	48 01 c0             	add    %rax,%rax
   12629:	48 01 c8             	add    %rcx,%rax
   1262c:	48 8d 14 c5 00 00 00 	lea    0x0(,%rax,8),%rdx
   12633:	00 
   12634:	48 8d 05 e5 b2 00 00 	lea    0xb2e5(%rip),%rax        # 1d920 <g_350>
   1263b:	48 8b 04 02          	mov    (%rdx,%rax,1),%rax
   1263f:	be 00 00 00 00       	mov    $0x0,%esi
   12644:	48 89 c7             	mov    %rax,%rdi
   12647:	e8 f5 81 ff ff       	callq  a841 <safe_add_func_int64_t_s_s>
   1264c:	89 c2                	mov    %eax,%edx
   1264e:	8b 85 f4 ec ff ff    	mov    -0x130c(%rbp),%eax
   12654:	89 d6                	mov    %edx,%esi
   12656:	89 c7                	mov    %eax,%edi
   12658:	e8 a0 88 ff ff       	callq  aefd <safe_mod_func_uint32_t_u_u>
   1265d:	41 39 c5             	cmp    %eax,%r13d
   12660:	0f 95 c1             	setne  %cl
   12663:	0f b6 05 8e b2 00 00 	movzbl 0xb28e(%rip),%eax        # 1d8f8 <g_153>
   1266a:	0f be c0             	movsbl %al,%eax
   1266d:	8d 50 03             	lea    0x3(%rax),%edx
   12670:	0f b6 c1             	movzbl %cl,%eax
   12673:	48 63 d2             	movslq %edx,%rdx
   12676:	48 8d 0c 95 00 00 00 	lea    0x0(,%rdx,4),%rcx
   1267d:	00 
   1267e:	48 8d 15 9b fe 00 00 	lea    0xfe9b(%rip),%rdx        # 22520 <g_1636>
   12685:	89 04 11             	mov    %eax,(%rcx,%rdx,1)
   12688:	0f b6 05 b7 b3 00 00 	movzbl 0xb3b7(%rip),%eax        # 1da46 <g_546+0x2>
   1268f:	8b 05 9b a9 00 00    	mov    0xa99b(%rip),%eax        # 1d030 <g_63>
   12695:	8d 48 02             	lea    0x2(%rax),%ecx
   12698:	0f b6 05 59 b2 00 00 	movzbl 0xb259(%rip),%eax        # 1d8f8 <g_153>
   1269f:	0f be c0             	movsbl %al,%eax
   126a2:	8d 50 03             	lea    0x3(%rax),%edx
   126a5:	0f b6 05 4c b2 00 00 	movzbl 0xb24c(%rip),%eax        # 1d8f8 <g_153>
   126ac:	0f be c0             	movsbl %al,%eax
   126af:	83 c0 01             	add    $0x1,%eax
   126b2:	48 98                	cltq   
   126b4:	48 63 c9             	movslq %ecx,%rcx
   126b7:	48 63 d2             	movslq %edx,%rdx
   126ba:	48 c1 e1 02          	shl    $0x2,%rcx
   126be:	48 01 ca             	add    %rcx,%rdx
   126c1:	48 01 d2             	add    %rdx,%rdx
   126c4:	48 01 c2             	add    %rax,%rdx
   126c7:	48 8d 05 f2 b3 00 00 	lea    0xb3f2(%rip),%rax        # 1dac0 <g_1466>
   126ce:	48 01 d0             	add    %rdx,%rax
   126d1:	0f b6 00             	movzbl (%rax),%eax
   126d4:	84 c0                	test   %al,%al
   126d6:	74 07                	je     126df <func_15+0x2f56>
   126d8:	b8 01 00 00 00       	mov    $0x1,%eax
   126dd:	eb 05                	jmp    126e4 <func_15+0x2f5b>
   126df:	b8 00 00 00 00       	mov    $0x0,%eax
   126e4:	0f be c0             	movsbl %al,%eax
   126e7:	be 01 00 00 00       	mov    $0x1,%esi
   126ec:	89 c7                	mov    %eax,%edi
   126ee:	e8 e1 7a ff ff       	callq  a1d4 <safe_add_func_int8_t_s_s>
   126f3:	48 c7 c1 ff ff ff ff 	mov    $0xffffffffffffffff,%rcx
   126fa:	48 8b 05 4f d7 00 00 	mov    0xd74f(%rip),%rax        # 1fe50 <g_56>
   12701:	0f b7 10             	movzwl (%rax),%edx
   12704:	48 8b 05 45 d7 00 00 	mov    0xd745(%rip),%rax        # 1fe50 <g_56>
   1270b:	31 ca                	xor    %ecx,%edx
   1270d:	66 89 10             	mov    %dx,(%rax)
   12710:	0f b7 00             	movzwl (%rax),%eax
   12713:	48 0f bf d0          	movswq %ax,%rdx
   12717:	48 8b 05 02 ad 00 00 	mov    0xad02(%rip),%rax        # 1d420 <g_110+0x3c0>
   1271e:	48 39 c2             	cmp    %rax,%rdx
   12721:	0f 95 c0             	setne  %al
   12724:	0f b6 c0             	movzbl %al,%eax
   12727:	48 89 de             	mov    %rbx,%rsi
   1272a:	48 89 c7             	mov    %rax,%rdi
   1272d:	e8 7d 89 ff ff       	callq  b0af <safe_div_func_uint64_t_u_u>
   12732:	0f be c0             	movsbl %al,%eax
   12735:	be 02 00 00 00       	mov    $0x2,%esi
   1273a:	89 c7                	mov    %eax,%edi
   1273c:	e8 ad 7b ff ff       	callq  a2ee <safe_lshift_func_int8_t_s_u>
   12741:	0f be c8             	movsbl %al,%ecx
   12744:	8b b5 c4 f0 ff ff    	mov    -0xf3c(%rbp),%esi
   1274a:	48 8b 05 3f b2 00 00 	mov    0xb23f(%rip),%rax        # 1d990 <g_408>
   12751:	0f b6 15 a0 b1 00 00 	movzbl 0xb1a0(%rip),%edx        # 1d8f8 <g_153>
   12758:	0f be d2             	movsbl %dl,%edx
   1275b:	41 89 f0             	mov    %esi,%r8d
   1275e:	48 63 f2             	movslq %edx,%rsi
   12761:	48 8d 3c 00          	lea    (%rax,%rax,1),%rdi
   12765:	48 01 fe             	add    %rdi,%rsi
   12768:	48 8d 3c b5 00 00 00 	lea    0x0(,%rsi,4),%rdi
   1276f:	00 
   12770:	48 8d 35 c9 b0 00 00 	lea    0xb0c9(%rip),%rsi        # 1d840 <g_115>
   12777:	44 89 04 37          	mov    %r8d,(%rdi,%rsi,1)
   1277b:	48 63 d2             	movslq %edx,%rdx
   1277e:	48 01 c0             	add    %rax,%rax
   12781:	48 01 d0             	add    %rdx,%rax
   12784:	48 8d 14 85 00 00 00 	lea    0x0(,%rax,4),%rdx
   1278b:	00 
   1278c:	48 8d 05 ad b0 00 00 	lea    0xb0ad(%rip),%rax        # 1d840 <g_115>
   12793:	8b 04 02             	mov    (%rdx,%rax,1),%eax
   12796:	89 ce                	mov    %ecx,%esi
   12798:	89 c7                	mov    %eax,%edi
   1279a:	e8 31 87 ff ff       	callq  aed0 <safe_sub_func_uint32_t_u_u>
   1279f:	f7 d0                	not    %eax
   127a1:	89 85 40 ed ff ff    	mov    %eax,-0x12c0(%rbp)
   127a7:	48 8b 85 20 ef ff ff 	mov    -0x10e0(%rbp),%rax
   127ae:	48 8b 00             	mov    (%rax),%rax
   127b1:	48 8d 48 01          	lea    0x1(%rax),%rcx
   127b5:	48 8b 95 20 ef ff ff 	mov    -0x10e0(%rbp),%rdx
   127bc:	48 89 0a             	mov    %rcx,(%rdx)
   127bf:	89 c2                	mov    %eax,%edx
   127c1:	8b 85 40 ed ff ff    	mov    -0x12c0(%rbp),%eax
   127c7:	21 d0                	and    %edx,%eax
   127c9:	89 85 40 ed ff ff    	mov    %eax,-0x12c0(%rbp)
   127cf:	48 8b 05 d2 b5 00 00 	mov    0xb5d2(%rip),%rax        # 1dda8 <g_1927+0x8>
   127d6:	be 01 00 00 00       	mov    $0x1,%esi
   127db:	48 89 c7             	mov    %rax,%rdi
   127de:	e8 4b 88 ff ff       	callq  b02e <safe_add_func_uint64_t_u_u>
   127e3:	89 85 30 ed ff ff    	mov    %eax,-0x12d0(%rbp)
   127e9:	83 ad e4 ec ff ff 01 	subl   $0x1,-0x131c(%rbp)
   127f0:	83 bd fc ec ff ff 00 	cmpl   $0x0,-0x1304(%rbp)
   127f7:	0f 84 87 01 00 00    	je     12984 <func_15+0x31fb>
   127fd:	48 8b 85 38 ee ff ff 	mov    -0x11c8(%rbp),%rax
   12804:	48 8b 00             	mov    (%rax),%rax
   12807:	48 8b 00             	mov    (%rax),%rax
   1280a:	48 39 85 70 ee ff ff 	cmp    %rax,-0x1190(%rbp)
   12811:	0f 95 c0             	setne  %al
   12814:	44 0f b6 f0          	movzbl %al,%r14d
   12818:	8b 85 44 ed ff ff    	mov    -0x12bc(%rbp),%eax
   1281e:	0f be d8             	movsbl %al,%ebx
   12821:	44 8b a5 a4 f0 ff ff 	mov    -0xf5c(%rbp),%r12d
   12828:	8b 85 78 ec ff ff    	mov    -0x1388(%rbp),%eax
   1282e:	89 85 78 ec ff ff    	mov    %eax,-0x1388(%rbp)
   12834:	44 8b ad 78 ec ff ff 	mov    -0x1388(%rbp),%r13d
   1283b:	be 03 00 00 00       	mov    $0x3,%esi
   12840:	bf 71 00 00 00       	mov    $0x71,%edi
   12845:	e8 bb 83 ff ff       	callq  ac05 <safe_lshift_func_uint8_t_u_s>
   1284a:	be cd 09 00 00       	mov    $0x9cd,%esi
   1284f:	bf 00 00 00 00       	mov    $0x0,%edi
   12854:	e8 a6 84 ff ff       	callq  acff <safe_add_func_uint16_t_u_u>
   12859:	0f b7 c0             	movzwl %ax,%eax
   1285c:	41 39 c5             	cmp    %eax,%r13d
   1285f:	0f 9d c0             	setge  %al
   12862:	44 0f b6 e8          	movzbl %al,%r13d
   12866:	be 00 00 00 00       	mov    $0x0,%esi
   1286b:	bf 07 00 00 00       	mov    $0x7,%edi
   12870:	e8 aa 84 ff ff       	callq  ad1f <safe_sub_func_uint16_t_u_u>
   12875:	0f b7 c0             	movzwl %ax,%eax
   12878:	44 89 ee             	mov    %r13d,%esi
   1287b:	89 c7                	mov    %eax,%edi
   1287d:	e8 83 7d ff ff       	callq  a605 <safe_sub_func_int32_t_s_s>
   12882:	39 85 7c ec ff ff    	cmp    %eax,-0x1384(%rbp)
   12888:	0f 95 c0             	setne  %al
   1288b:	0f b6 c0             	movzbl %al,%eax
   1288e:	be 0f 00 00 00       	mov    $0xf,%esi
   12893:	89 c7                	mov    %eax,%edi
   12895:	e8 f8 7b ff ff       	callq  a492 <safe_lshift_func_int16_t_s_s>
   1289a:	89 c2                	mov    %eax,%edx
   1289c:	48 8b 05 a5 d9 00 00 	mov    0xd9a5(%rip),%rax        # 20248 <g_955>
   128a3:	48 8b 00             	mov    (%rax),%rax
   128a6:	0f b6 00             	movzbl (%rax),%eax
   128a9:	89 c1                	mov    %eax,%ecx
   128ab:	89 d0                	mov    %edx,%eax
   128ad:	09 c1                	or     %eax,%ecx
   128af:	89 ca                	mov    %ecx,%edx
   128b1:	48 8b 05 90 d9 00 00 	mov    0xd990(%rip),%rax        # 20248 <g_955>
   128b8:	48 8b 00             	mov    (%rax),%rax
   128bb:	88 10                	mov    %dl,(%rax)
   128bd:	0f b6 00             	movzbl (%rax),%eax
   128c0:	0f b6 c0             	movzbl %al,%eax
   128c3:	be 01 00 00 00       	mov    $0x1,%esi
   128c8:	89 c7                	mov    %eax,%edi
   128ca:	e8 7d 83 ff ff       	callq  ac4c <safe_lshift_func_uint8_t_u_u>
   128cf:	8b 85 7c ec ff ff    	mov    -0x1384(%rbp),%eax
   128d5:	89 c6                	mov    %eax,%esi
   128d7:	bf 01 00 00 00       	mov    $0x1,%edi
   128dc:	e8 24 7d ff ff       	callq  a605 <safe_sub_func_int32_t_s_s>
   128e1:	0f be c0             	movsbl %al,%eax
   128e4:	be 01 00 00 00       	mov    $0x1,%esi
   128e9:	89 c7                	mov    %eax,%edi
   128eb:	e8 fe 79 ff ff       	callq  a2ee <safe_lshift_func_int8_t_s_u>
   128f0:	48 8b 05 59 d5 00 00 	mov    0xd559(%rip),%rax        # 1fe50 <g_56>
   128f7:	0f b7 00             	movzwl (%rax),%eax
   128fa:	98                   	cwtl   
   128fb:	44 89 e6             	mov    %r12d,%esi
   128fe:	89 c7                	mov    %eax,%edi
   12900:	e8 8d 7b ff ff       	callq  a492 <safe_lshift_func_int16_t_s_s>
   12905:	0f bf d0             	movswl %ax,%edx
   12908:	0f b7 05 b9 b4 00 00 	movzwl 0xb4b9(%rip),%eax        # 1ddc8 <g_1968>
   1290f:	0f b7 c0             	movzwl %ax,%eax
   12912:	39 c2                	cmp    %eax,%edx
   12914:	0f 9e c0             	setle  %al
   12917:	0f b6 c0             	movzbl %al,%eax
   1291a:	39 85 7c ec ff ff    	cmp    %eax,-0x1384(%rbp)
   12920:	0f 9d c0             	setge  %al
   12923:	0f b6 d0             	movzbl %al,%edx
   12926:	48 8b 05 63 d5 00 00 	mov    0xd563(%rip),%rax        # 1fe90 <g_496>
   1292d:	48 8b 00             	mov    (%rax),%rax
   12930:	48 39 c2             	cmp    %rax,%rdx
   12933:	0f 9e c0             	setle  %al
   12936:	0f b6 c0             	movzbl %al,%eax
   12939:	be 0f df de fb       	mov    $0xfbdedf0f,%esi
   1293e:	89 c7                	mov    %eax,%edi
   12940:	e8 8b 85 ff ff       	callq  aed0 <safe_sub_func_uint32_t_u_u>
   12945:	0f b6 c0             	movzbl %al,%eax
   12948:	be 01 00 00 00       	mov    $0x1,%esi
   1294d:	89 c7                	mov    %eax,%edi
   1294f:	e8 39 83 ff ff       	callq  ac8d <safe_rshift_func_uint8_t_u_s>
   12954:	0f be c0             	movsbl %al,%eax
   12957:	89 de                	mov    %ebx,%esi
   12959:	89 c7                	mov    %eax,%edi
   1295b:	e8 0a 79 ff ff       	callq  a26a <safe_div_func_int8_t_s_s>
   12960:	0f be c0             	movsbl %al,%eax
   12963:	39 85 7c ec ff ff    	cmp    %eax,-0x1384(%rbp)
   12969:	0f 94 c0             	sete   %al
   1296c:	0f b6 c0             	movzbl %al,%eax
   1296f:	41 39 c6             	cmp    %eax,%r14d
   12972:	7d 10                	jge    12984 <func_15+0x31fb>
   12974:	80 bd 8d ec ff ff 00 	cmpb   $0x0,-0x1373(%rbp)
   1297b:	74 07                	je     12984 <func_15+0x31fb>
   1297d:	ba 01 00 00 00       	mov    $0x1,%edx
   12982:	eb 05                	jmp    12989 <func_15+0x3200>
   12984:	ba 00 00 00 00       	mov    $0x0,%edx
   12989:	8b 05 71 af 00 00    	mov    0xaf71(%rip),%eax        # 1d900 <g_267>
   1298f:	83 c0 04             	add    $0x4,%eax
   12992:	89 d6                	mov    %edx,%esi
   12994:	48 63 d0             	movslq %eax,%rdx
   12997:	48 8d 0c 95 00 00 00 	lea    0x0(,%rdx,4),%rcx
   1299e:	00 
   1299f:	48 8d 15 7a fb 00 00 	lea    0xfb7a(%rip),%rdx        # 22520 <g_1636>
   129a6:	89 34 11             	mov    %esi,(%rcx,%rdx,1)
   129a9:	48 98                	cltq   
   129ab:	48 8d 14 85 00 00 00 	lea    0x0(,%rax,4),%rdx
   129b2:	00 
   129b3:	48 8d 05 66 fb 00 00 	lea    0xfb66(%rip),%rax        # 22520 <g_1636>
   129ba:	8b 04 02             	mov    (%rdx,%rax,1),%eax
   129bd:	89 c1                	mov    %eax,%ecx
   129bf:	0f b6 05 32 af 00 00 	movzbl 0xaf32(%rip),%eax        # 1d8f8 <g_153>
   129c6:	0f be c0             	movsbl %al,%eax
   129c9:	83 c0 06             	add    $0x6,%eax
   129cc:	48 98                	cltq   
   129ce:	48 8d 14 85 00 00 00 	lea    0x0(,%rax,4),%rdx
   129d5:	00 
   129d6:	48 8d 05 e3 fa 00 00 	lea    0xfae3(%rip),%rax        # 224c0 <g_269>
   129dd:	8b 04 02             	mov    (%rdx,%rax,1),%eax
   129e0:	31 c8                	xor    %ecx,%eax
   129e2:	98                   	cwtl   
   129e3:	be 36 58 00 00       	mov    $0x5836,%esi
   129e8:	89 c7                	mov    %eax,%edi
   129ea:	e8 06 7a ff ff       	callq  a3f5 <safe_mul_func_int16_t_s_s>
   129ef:	98                   	cwtl   
   129f0:	89 85 34 ed ff ff    	mov    %eax,-0x12cc(%rbp)
   129f6:	8b 05 04 af 00 00    	mov    0xaf04(%rip),%eax        # 1d900 <g_267>
   129fc:	83 e8 01             	sub    $0x1,%eax
   129ff:	89 05 fb ae 00 00    	mov    %eax,0xaefb(%rip)        # 1d900 <g_267>
   12a05:	8b 05 f5 ae 00 00    	mov    0xaef5(%rip),%eax        # 1d900 <g_267>
   12a0b:	85 c0                	test   %eax,%eax
   12a0d:	0f 89 fa f9 ff ff    	jns    1240d <func_15+0x2c84>
   12a13:	48 8b 05 76 af 00 00 	mov    0xaf76(%rip),%rax        # 1d990 <g_408>
   12a1a:	48 83 c0 01          	add    $0x1,%rax
   12a1e:	48 89 05 6b af 00 00 	mov    %rax,0xaf6b(%rip)        # 1d990 <g_408>
   12a25:	48 8b 05 64 af 00 00 	mov    0xaf64(%rip),%rax        # 1d990 <g_408>
   12a2c:	48 83 f8 02          	cmp    $0x2,%rax
   12a30:	0f 8e 0c f8 ff ff    	jle    12242 <func_15+0x2ab9>
   12a36:	eb 01                	jmp    12a39 <func_15+0x32b0>
   12a38:	90                   	nop
   12a39:	8b 85 78 ec ff ff    	mov    -0x1388(%rbp),%eax
   12a3f:	85 c0                	test   %eax,%eax
   12a41:	0f 85 26 01 00 00    	jne    12b6d <func_15+0x33e4>
   12a47:	48 8b 05 42 df 00 00 	mov    0xdf42(%rip),%rax        # 20990 <g_1169>
   12a4e:	c7 00 15 af bc 7a    	movl   $0x7abcaf15,(%rax)
   12a54:	48 c7 05 51 fa 00 00 	movq   $0x0,0xfa51(%rip)        # 224b0 <g_239>
   12a5b:	00 00 00 00 
   12a5f:	e9 d7 00 00 00       	jmpq   12b3b <func_15+0x33b2>
   12a64:	48 c7 85 28 ef ff ff 	movq   $0x0,-0x10d8(%rbp)
   12a6b:	00 00 00 00 
   12a6f:	c7 85 cc ec ff ff 00 	movl   $0x0,-0x1334(%rbp)
   12a76:	00 00 00 
   12a79:	c6 05 c8 b0 00 00 00 	movb   $0x0,0xb0c8(%rip)        # 1db48 <g_1773>
   12a80:	eb 58                	jmp    12ada <func_15+0x3351>
   12a82:	48 8b 05 c7 d3 00 00 	mov    0xd3c7(%rip),%rax        # 1fe50 <g_56>
   12a89:	66 c7 00 01 00       	movw   $0x1,(%rax)
   12a8e:	48 be df 89 95 8e 2b 	movabs $0x2f57282b8e9589df,%rsi
   12a95:	28 57 2f 
   12a98:	bf 01 00 00 00       	mov    $0x1,%edi
   12a9d:	e8 12 7f ff ff       	callq  a9b4 <safe_mod_func_int64_t_s_s>
   12aa2:	0f b7 95 38 f1 ff ff 	movzwl -0xec8(%rbp),%edx
   12aa9:	48 0f bf d2          	movswq %dx,%rdx
   12aad:	48 39 d0             	cmp    %rdx,%rax
   12ab0:	0f 9d c0             	setge  %al
   12ab3:	0f b6 c8             	movzbl %al,%ecx
   12ab6:	48 8b 05 d3 de 00 00 	mov    0xded3(%rip),%rax        # 20990 <g_1169>
   12abd:	8b 10                	mov    (%rax),%edx
   12abf:	48 8b 05 ca de 00 00 	mov    0xdeca(%rip),%rax        # 20990 <g_1169>
   12ac6:	09 ca                	or     %ecx,%edx
   12ac8:	89 10                	mov    %edx,(%rax)
   12aca:	0f b6 05 77 b0 00 00 	movzbl 0xb077(%rip),%eax        # 1db48 <g_1773>
   12ad1:	83 c0 01             	add    $0x1,%eax
   12ad4:	88 05 6e b0 00 00    	mov    %al,0xb06e(%rip)        # 1db48 <g_1773>
   12ada:	0f b6 05 67 b0 00 00 	movzbl 0xb067(%rip),%eax        # 1db48 <g_1773>
   12ae1:	3c 07                	cmp    $0x7,%al
   12ae3:	76 9d                	jbe    12a82 <func_15+0x32f9>
   12ae5:	c6 05 5c b0 00 00 00 	movb   $0x0,0xb05c(%rip)        # 1db48 <g_1773>
   12aec:	eb 30                	jmp    12b1e <func_15+0x3395>
   12aee:	8b 05 9c af 00 00    	mov    0xaf9c(%rip),%eax        # 1da90 <g_921>
   12af4:	48 8b 85 28 ef ff ff 	mov    -0x10d8(%rbp),%rax
   12afb:	48 3b 85 f8 ee ff ff 	cmp    -0x1108(%rbp),%rax
   12b02:	0f 95 c0             	setne  %al
   12b05:	0f b6 c0             	movzbl %al,%eax
   12b08:	09 85 cc ec ff ff    	or     %eax,-0x1334(%rbp)
   12b0e:	0f b6 05 33 b0 00 00 	movzbl 0xb033(%rip),%eax        # 1db48 <g_1773>
   12b15:	83 c0 01             	add    $0x1,%eax
   12b18:	88 05 2a b0 00 00    	mov    %al,0xb02a(%rip)        # 1db48 <g_1773>
   12b1e:	0f b6 05 23 b0 00 00 	movzbl 0xb023(%rip),%eax        # 1db48 <g_1773>
   12b25:	3c 07                	cmp    $0x7,%al
   12b27:	76 c5                	jbe    12aee <func_15+0x3365>
   12b29:	48 8b 05 80 f9 00 00 	mov    0xf980(%rip),%rax        # 224b0 <g_239>
   12b30:	48 83 c0 01          	add    $0x1,%rax
   12b34:	48 89 05 75 f9 00 00 	mov    %rax,0xf975(%rip)        # 224b0 <g_239>
   12b3b:	48 8b 05 6e f9 00 00 	mov    0xf96e(%rip),%rax        # 224b0 <g_239>
   12b42:	48 83 f8 02          	cmp    $0x2,%rax
   12b46:	0f 86 18 ff ff ff    	jbe    12a64 <func_15+0x32db>
   12b4c:	0f b6 05 a5 ad 00 00 	movzbl 0xada5(%rip),%eax        # 1d8f8 <g_153>
   12b53:	83 c0 01             	add    $0x1,%eax
   12b56:	88 05 9c ad 00 00    	mov    %al,0xad9c(%rip)        # 1d8f8 <g_153>
   12b5c:	0f b6 05 95 ad 00 00 	movzbl 0xad95(%rip),%eax        # 1d8f8 <g_153>
   12b63:	84 c0                	test   %al,%al
   12b65:	0f 8e fb f1 ff ff    	jle    11d66 <func_15+0x25dd>
   12b6b:	eb 01                	jmp    12b6e <func_15+0x33e5>
   12b6d:	90                   	nop
   12b6e:	83 bd 7c ec ff ff 00 	cmpl   $0x0,-0x1384(%rbp)
   12b75:	0f 85 c1 00 00 00    	jne    12c3c <func_15+0x34b3>
   12b7b:	8b 85 78 ec ff ff    	mov    -0x1388(%rbp),%eax
   12b81:	89 c2                	mov    %eax,%edx
   12b83:	8b 85 78 ec ff ff    	mov    -0x1388(%rbp),%eax
   12b89:	f7 d0                	not    %eax
   12b8b:	89 d6                	mov    %edx,%esi
   12b8d:	89 c7                	mov    %eax,%edi
   12b8f:	e8 3c 83 ff ff       	callq  aed0 <safe_sub_func_uint32_t_u_u>
   12b94:	3d ff 00 00 00       	cmp    $0xff,%eax
   12b99:	0f 97 c0             	seta   %al
   12b9c:	44 0f b6 e0          	movzbl %al,%r12d
   12ba0:	8b 85 78 ec ff ff    	mov    -0x1388(%rbp),%eax
   12ba6:	0f b6 d8             	movzbl %al,%ebx
   12ba9:	48 8b 05 98 d6 00 00 	mov    0xd698(%rip),%rax        # 20248 <g_955>
   12bb0:	48 8b 00             	mov    (%rax),%rax
   12bb3:	c6 00 00             	movb   $0x0,(%rax)
   12bb6:	8b 05 1c f9 00 00    	mov    0xf91c(%rip),%eax        # 224d8 <g_269+0x18>
   12bbc:	0f b7 c0             	movzwl %ax,%eax
   12bbf:	be 06 00 00 00       	mov    $0x6,%esi
   12bc4:	89 c7                	mov    %eax,%edi
   12bc6:	e8 f3 81 ff ff       	callq  adbe <safe_lshift_func_uint16_t_u_s>
   12bcb:	66 85 c0             	test   %ax,%ax
   12bce:	74 16                	je     12be6 <func_15+0x345d>
   12bd0:	8b 85 78 ec ff ff    	mov    -0x1388(%rbp),%eax
   12bd6:	98                   	cwtl   
   12bd7:	be 0d 00 00 00       	mov    $0xd,%esi
   12bdc:	89 c7                	mov    %eax,%edi
   12bde:	e8 af 78 ff ff       	callq  a492 <safe_lshift_func_int16_t_s_s>
   12be3:	66 85 c0             	test   %ax,%ax
   12be6:	89 de                	mov    %ebx,%esi
   12be8:	bf 00 00 00 00       	mov    $0x0,%edi
   12bed:	e8 bc 7f ff ff       	callq  abae <safe_mod_func_uint8_t_u_u>
   12bf2:	0f b6 c0             	movzbl %al,%eax
   12bf5:	48 be c6 71 fd 24 95 	movabs $0xcf49999524fd71c6,%rsi
   12bfc:	99 49 cf 
   12bff:	48 89 c7             	mov    %rax,%rdi
   12c02:	e8 a8 84 ff ff       	callq  b0af <safe_div_func_uint64_t_u_u>
   12c07:	0f b7 c0             	movzwl %ax,%eax
   12c0a:	be 00 00 00 00       	mov    $0x0,%esi
   12c0f:	89 c7                	mov    %eax,%edi
   12c11:	e8 a8 81 ff ff       	callq  adbe <safe_lshift_func_uint16_t_u_s>
   12c16:	0f b7 c0             	movzwl %ax,%eax
   12c19:	41 39 c4             	cmp    %eax,%r12d
   12c1c:	8b 15 46 ae 00 00    	mov    0xae46(%rip),%edx        # 1da68 <g_697>
   12c22:	48 8b 85 c0 ed ff ff 	mov    -0x1240(%rbp),%rax
   12c29:	66 89 10             	mov    %dx,(%rax)
   12c2c:	48 8d 85 78 ec ff ff 	lea    -0x1388(%rbp),%rax
   12c33:	48 39 85 50 ee ff ff 	cmp    %rax,-0x11b0(%rbp)
   12c3a:	74 07                	je     12c43 <func_15+0x34ba>
   12c3c:	b8 01 00 00 00       	mov    $0x1,%eax
   12c41:	eb 05                	jmp    12c48 <func_15+0x34bf>
   12c43:	b8 00 00 00 00       	mov    $0x0,%eax
   12c48:	0f b6 c0             	movzbl %al,%eax
   12c4b:	be 05 00 00 00       	mov    $0x5,%esi
   12c50:	89 c7                	mov    %eax,%edi
   12c52:	e8 36 80 ff ff       	callq  ac8d <safe_rshift_func_uint8_t_u_s>
   12c57:	83 bd 7c ec ff ff 00 	cmpl   $0x0,-0x1384(%rbp)
   12c5e:	0f 84 3b 05 00 00    	je     1319f <func_15+0x3a16>
   12c64:	66 c7 85 a8 ec ff ff 	movw   $0x0,-0x1358(%rbp)
   12c6b:	00 00 
   12c6d:	48 c7 85 80 ef ff ff 	movq   $0x0,-0x1080(%rbp)
   12c74:	00 00 00 00 
   12c78:	48 8d 05 29 b1 00 00 	lea    0xb129(%rip),%rax        # 1dda8 <g_1927+0x8>
   12c7f:	48 89 85 10 ee ff ff 	mov    %rax,-0x11f0(%rbp)
   12c86:	c7 85 5c ed ff ff 09 	movl   $0x9,-0x12a4(%rbp)
   12c8d:	00 00 00 
   12c90:	48 c7 85 88 ef ff ff 	movq   $0x0,-0x1078(%rbp)
   12c97:	00 00 00 00 
   12c9b:	c7 85 60 ed ff ff f6 	movl   $0xfffffff6,-0x12a0(%rbp)
   12ca2:	ff ff ff 
   12ca5:	c7 85 64 ed ff ff 01 	movl   $0x1,-0x129c(%rbp)
   12cac:	00 00 00 
   12caf:	48 8d 85 b4 ec ff ff 	lea    -0x134c(%rbp),%rax
   12cb6:	48 89 85 90 ef ff ff 	mov    %rax,-0x1070(%rbp)
   12cbd:	c7 85 68 ed ff ff fd 	movl   $0xfffffffd,-0x1298(%rbp)
   12cc4:	ff ff ff 
   12cc7:	c7 85 6c ed ff ff 00 	movl   $0x0,-0x1294(%rbp)
   12cce:	00 00 00 
   12cd1:	c7 85 70 ed ff ff 70 	movl   $0x4fbc2970,-0x1290(%rbp)
   12cd8:	29 bc 4f 
   12cdb:	c7 85 74 ed ff ff 04 	movl   $0x4,-0x128c(%rbp)
   12ce2:	00 00 00 
   12ce5:	c7 85 78 ed ff ff ff 	movl   $0xf698bcff,-0x1288(%rbp)
   12cec:	bc 98 f6 
   12cef:	c7 85 d0 f5 ff ff 7e 	movl   $0x879bab7e,-0xa30(%rbp)
   12cf6:	ab 9b 87 
   12cf9:	c7 85 d4 f5 ff ff ff 	movl   $0xffffffff,-0xa2c(%rbp)
   12d00:	ff ff ff 
   12d03:	c7 85 d8 f5 ff ff 7e 	movl   $0x879bab7e,-0xa28(%rbp)
   12d0a:	ab 9b 87 
   12d0d:	c7 85 dc f5 ff ff f8 	movl   $0xa7922cf8,-0xa24(%rbp)
   12d14:	2c 92 a7 
   12d17:	c7 85 e0 f5 ff ff c3 	movl   $0x9a4278c3,-0xa20(%rbp)
   12d1e:	78 42 9a 
   12d21:	c7 85 e4 f5 ff ff 01 	movl   $0x1,-0xa1c(%rbp)
   12d28:	00 00 00 
   12d2b:	c7 85 e8 f5 ff ff f8 	movl   $0xa7922cf8,-0xa18(%rbp)
   12d32:	2c 92 a7 
   12d35:	c7 85 ec f5 ff ff fa 	movl   $0xfffffffa,-0xa14(%rbp)
   12d3c:	ff ff ff 
   12d3f:	c7 85 f0 f5 ff ff ff 	movl   $0xffffffff,-0xa10(%rbp)
   12d46:	ff ff ff 
   12d49:	c7 85 f4 f5 ff ff ff 	movl   $0xffffffff,-0xa0c(%rbp)
   12d50:	ff ff ff 
   12d53:	c7 85 f8 f5 ff ff 5e 	movl   $0x70c1f65e,-0xa08(%rbp)
   12d5a:	f6 c1 70 
   12d5d:	c7 85 fc f5 ff ff c9 	movl   $0xfd92c7c9,-0xa04(%rbp)
   12d64:	c7 92 fd 
   12d67:	c7 85 00 f6 ff ff c9 	movl   $0xfd92c7c9,-0xa00(%rbp)
   12d6e:	c7 92 fd 
   12d71:	c7 85 04 f6 ff ff c3 	movl   $0x9a4278c3,-0x9fc(%rbp)
   12d78:	78 42 9a 
   12d7b:	c7 85 08 f6 ff ff 07 	movl   $0x7,-0x9f8(%rbp)
   12d82:	00 00 00 
   12d85:	c7 85 0c f6 ff ff c3 	movl   $0x9a4278c3,-0x9f4(%rbp)
   12d8c:	78 42 9a 
   12d8f:	c7 85 10 f6 ff ff c9 	movl   $0xfd92c7c9,-0x9f0(%rbp)
   12d96:	c7 92 fd 
   12d99:	c7 85 14 f6 ff ff c9 	movl   $0xfd92c7c9,-0x9ec(%rbp)
   12da0:	c7 92 fd 
   12da3:	c7 85 18 f6 ff ff 5e 	movl   $0x70c1f65e,-0x9e8(%rbp)
   12daa:	f6 c1 70 
   12dad:	c7 85 1c f6 ff ff ff 	movl   $0xffffffff,-0x9e4(%rbp)
   12db4:	ff ff ff 
   12db7:	c7 85 20 f6 ff ff ff 	movl   $0xffffffff,-0x9e0(%rbp)
   12dbe:	ff ff ff 
   12dc1:	c7 85 24 f6 ff ff fa 	movl   $0xfffffffa,-0x9dc(%rbp)
   12dc8:	ff ff ff 
   12dcb:	c7 85 28 f6 ff ff f8 	movl   $0xa7922cf8,-0x9d8(%rbp)
   12dd2:	2c 92 a7 
   12dd5:	c7 85 2c f6 ff ff 01 	movl   $0x1,-0x9d4(%rbp)
   12ddc:	00 00 00 
   12ddf:	c7 85 30 f6 ff ff c3 	movl   $0x9a4278c3,-0x9d0(%rbp)
   12de6:	78 42 9a 
   12de9:	c7 85 34 f6 ff ff f8 	movl   $0xa7922cf8,-0x9cc(%rbp)
   12df0:	2c 92 a7 
   12df3:	c7 85 38 f6 ff ff 7e 	movl   $0x879bab7e,-0x9c8(%rbp)
   12dfa:	ab 9b 87 
   12dfd:	c7 85 3c f6 ff ff ff 	movl   $0xffffffff,-0x9c4(%rbp)
   12e04:	ff ff ff 
   12e07:	c7 85 40 f6 ff ff 7e 	movl   $0x879bab7e,-0x9c0(%rbp)
   12e0e:	ab 9b 87 
   12e11:	c7 85 44 f6 ff ff f8 	movl   $0xa7922cf8,-0x9bc(%rbp)
   12e18:	2c 92 a7 
   12e1b:	c7 85 48 f6 ff ff c3 	movl   $0x9a4278c3,-0x9b8(%rbp)
   12e22:	78 42 9a 
   12e25:	c7 85 4c f6 ff ff 01 	movl   $0x1,-0x9b4(%rbp)
   12e2c:	00 00 00 
   12e2f:	c7 85 50 f6 ff ff f8 	movl   $0xa7922cf8,-0x9b0(%rbp)
   12e36:	2c 92 a7 
   12e39:	c7 85 54 f6 ff ff fa 	movl   $0xfffffffa,-0x9ac(%rbp)
   12e40:	ff ff ff 
   12e43:	c7 85 58 f6 ff ff ff 	movl   $0xffffffff,-0x9a8(%rbp)
   12e4a:	ff ff ff 
   12e4d:	c7 85 5c f6 ff ff ff 	movl   $0xffffffff,-0x9a4(%rbp)
   12e54:	ff ff ff 
   12e57:	c7 85 60 f6 ff ff 5e 	movl   $0x70c1f65e,-0x9a0(%rbp)
   12e5e:	f6 c1 70 
   12e61:	c7 85 64 f6 ff ff c9 	movl   $0xfd92c7c9,-0x99c(%rbp)
   12e68:	c7 92 fd 
   12e6b:	c7 85 68 f6 ff ff c9 	movl   $0xfd92c7c9,-0x998(%rbp)
   12e72:	c7 92 fd 
   12e75:	c7 85 6c f6 ff ff c3 	movl   $0x9a4278c3,-0x994(%rbp)
   12e7c:	78 42 9a 
   12e7f:	c7 85 70 f6 ff ff 07 	movl   $0x7,-0x990(%rbp)
   12e86:	00 00 00 
   12e89:	c7 85 74 f6 ff ff c3 	movl   $0x9a4278c3,-0x98c(%rbp)
   12e90:	78 42 9a 
   12e93:	c7 85 78 f6 ff ff c9 	movl   $0xfd92c7c9,-0x988(%rbp)
   12e9a:	c7 92 fd 
   12e9d:	c7 85 7c f6 ff ff c9 	movl   $0xfd92c7c9,-0x984(%rbp)
   12ea4:	c7 92 fd 
   12ea7:	c7 85 80 f6 ff ff 5e 	movl   $0x70c1f65e,-0x980(%rbp)
   12eae:	f6 c1 70 
   12eb1:	c7 85 84 f6 ff ff ff 	movl   $0xffffffff,-0x97c(%rbp)
   12eb8:	ff ff ff 
   12ebb:	c7 85 88 f6 ff ff ff 	movl   $0xffffffff,-0x978(%rbp)
   12ec2:	ff ff ff 
   12ec5:	c7 85 8c f6 ff ff fa 	movl   $0xfffffffa,-0x974(%rbp)
   12ecc:	ff ff ff 
   12ecf:	c7 85 d0 ec ff ff 00 	movl   $0x0,-0x1330(%rbp)
   12ed6:	00 00 00 
   12ed9:	eb 50                	jmp    12f2b <func_15+0x37a2>
   12edb:	c7 85 d4 ec ff ff 00 	movl   $0x0,-0x132c(%rbp)
   12ee2:	00 00 00 
   12ee5:	eb 34                	jmp    12f1b <func_15+0x3792>
   12ee7:	8b 85 d4 ec ff ff    	mov    -0x132c(%rbp),%eax
   12eed:	48 63 c8             	movslq %eax,%rcx
   12ef0:	8b 85 d0 ec ff ff    	mov    -0x1330(%rbp),%eax
   12ef6:	48 63 d0             	movslq %eax,%rdx
   12ef9:	48 89 d0             	mov    %rdx,%rax
   12efc:	48 01 c0             	add    %rax,%rax
   12eff:	48 01 d0             	add    %rdx,%rax
   12f02:	48 01 c8             	add    %rcx,%rax
   12f05:	48 8d 15 7c ab 00 00 	lea    0xab7c(%rip),%rdx        # 1da88 <g_899>
   12f0c:	48 89 94 c5 c0 f0 ff 	mov    %rdx,-0xf40(%rbp,%rax,8)
   12f13:	ff 
   12f14:	83 85 d4 ec ff ff 01 	addl   $0x1,-0x132c(%rbp)
   12f1b:	83 bd d4 ec ff ff 02 	cmpl   $0x2,-0x132c(%rbp)
   12f22:	7e c3                	jle    12ee7 <func_15+0x375e>
   12f24:	83 85 d0 ec ff ff 01 	addl   $0x1,-0x1330(%rbp)
   12f2b:	83 bd d0 ec ff ff 00 	cmpl   $0x0,-0x1330(%rbp)
   12f32:	7e a7                	jle    12edb <func_15+0x3752>
   12f34:	48 8b 05 e5 a4 00 00 	mov    0xa4e5(%rip),%rax        # 1d420 <g_110+0x3c0>
   12f3b:	0f b7 c0             	movzwl %ax,%eax
   12f3e:	be 03 00 00 00       	mov    $0x3,%esi
   12f43:	89 c7                	mov    %eax,%edi
   12f45:	e8 30 7f ff ff       	callq  ae7a <safe_rshift_func_uint16_t_u_u>
   12f4a:	48 8b 15 e7 d2 00 00 	mov    0xd2e7(%rip),%rdx        # 20238 <g_937>
   12f51:	0f b6 12             	movzbl (%rdx),%edx
   12f54:	0f b6 d2             	movzbl %dl,%edx
   12f57:	66 39 d0             	cmp    %dx,%ax
   12f5a:	0f 96 c0             	setbe  %al
   12f5d:	0f b6 d8             	movzbl %al,%ebx
   12f60:	48 8b 85 b8 ee ff ff 	mov    -0x1148(%rbp),%rax
   12f67:	48 89 05 7a ed 00 00 	mov    %rax,0xed7a(%rip)        # 21ce8 <g_1994>
   12f6e:	48 8b 05 73 ed 00 00 	mov    0xed73(%rip),%rax        # 21ce8 <g_1994>
   12f75:	48 39 85 b8 ee ff ff 	cmp    %rax,-0x1148(%rbp)
   12f7c:	48 8d 05 1d da 00 00 	lea    0xda1d(%rip),%rax        # 209a0 <g_1299>
   12f83:	48 8b 00             	mov    (%rax),%rax
   12f86:	48 8b 00             	mov    (%rax),%rax
   12f89:	48 89 c1             	mov    %rax,%rcx
   12f8c:	0f bf 85 a8 ec ff ff 	movswl -0x1358(%rbp),%eax
   12f93:	23 85 7c ec ff ff    	and    -0x1384(%rbp),%eax
   12f99:	89 c2                	mov    %eax,%edx
   12f9b:	48 8b 85 10 ee ff ff 	mov    -0x11f0(%rbp),%rax
   12fa2:	48 63 d2             	movslq %edx,%rdx
   12fa5:	48 89 10             	mov    %rdx,(%rax)
   12fa8:	48 8b 00             	mov    (%rax),%rax
   12fab:	48 39 c1             	cmp    %rax,%rcx
   12fae:	0f 94 c0             	sete   %al
   12fb1:	0f b6 c0             	movzbl %al,%eax
   12fb4:	89 85 5c ed ff ff    	mov    %eax,-0x12a4(%rbp)
   12fba:	be 01 00 00 00       	mov    $0x1,%esi
   12fbf:	bf 01 00 00 00       	mov    $0x1,%edi
   12fc4:	e8 f5 7d ff ff       	callq  adbe <safe_lshift_func_uint16_t_u_s>
   12fc9:	0f b7 c0             	movzwl %ax,%eax
   12fcc:	21 9d 60 ed ff ff    	and    %ebx,-0x12a0(%rbp)
   12fd2:	0b 85 60 ed ff ff    	or     -0x12a0(%rbp),%eax
   12fd8:	89 c2                	mov    %eax,%edx
   12fda:	8b 85 78 ec ff ff    	mov    -0x1388(%rbp),%eax
   12fe0:	39 c2                	cmp    %eax,%edx
   12fe2:	0f 9c c0             	setl   %al
   12fe5:	0f b6 c0             	movzbl %al,%eax
   12fe8:	09 85 64 ed ff ff    	or     %eax,-0x129c(%rbp)
   12fee:	48 8b 05 cb d9 00 00 	mov    0xd9cb(%rip),%rax        # 209c0 <g_1536>
   12ff5:	48 8b 00             	mov    (%rax),%rax
   12ff8:	48 8b 00             	mov    (%rax),%rax
   12ffb:	48 8b 00             	mov    (%rax),%rax
   12ffe:	8b 95 64 ed ff ff    	mov    -0x129c(%rbp),%edx
   13004:	88 10                	mov    %dl,(%rax)
   13006:	48 8d 85 ac ec ff ff 	lea    -0x1354(%rbp),%rax
   1300d:	48 89 85 90 ef ff ff 	mov    %rax,-0x1070(%rbp)
   13014:	48 c7 05 71 a9 00 00 	movq   $0x2,0xa971(%rip)        # 1d990 <g_408>
   1301b:	02 00 00 00 
   1301f:	e9 66 01 00 00       	jmpq   1318a <func_15+0x3a01>
   13024:	48 8d 85 10 ee ff ff 	lea    -0x11f0(%rbp),%rax
   1302b:	48 89 85 98 ef ff ff 	mov    %rax,-0x1068(%rbp)
   13032:	48 8d 05 4f ce 00 00 	lea    0xce4f(%rip),%rax        # 1fe88 <g_486+0x28>
   13039:	48 89 85 a0 ef ff ff 	mov    %rax,-0x1060(%rbp)
   13040:	48 8d 85 f0 f0 ff ff 	lea    -0xf10(%rbp),%rax
   13047:	48 83 c0 28          	add    $0x28,%rax
   1304b:	48 89 85 30 f1 ff ff 	mov    %rax,-0xed0(%rbp)
   13052:	48 8d 85 f0 f0 ff ff 	lea    -0xf10(%rbp),%rax
   13059:	48 83 c0 28          	add    $0x28,%rax
   1305d:	48 89 85 38 f1 ff ff 	mov    %rax,-0xec8(%rbp)
   13064:	48 8d 85 f0 f0 ff ff 	lea    -0xf10(%rbp),%rax
   1306b:	48 83 c0 28          	add    $0x28,%rax
   1306f:	48 89 85 40 f1 ff ff 	mov    %rax,-0xec0(%rbp)
   13076:	48 8d 85 f0 f0 ff ff 	lea    -0xf10(%rbp),%rax
   1307d:	48 83 c0 28          	add    $0x28,%rax
   13081:	48 89 85 48 f1 ff ff 	mov    %rax,-0xeb8(%rbp)
   13088:	c7 85 7c ed ff ff b8 	movl   $0x97d196b8,-0x1284(%rbp)
   1308f:	96 d1 97 
   13092:	c7 85 c4 ec ff ff 00 	movl   $0x0,-0x133c(%rbp)
   13099:	00 00 00 
   1309c:	eb 1a                	jmp    130b8 <func_15+0x392f>
   1309e:	8b 85 c4 ec ff ff    	mov    -0x133c(%rbp),%eax
   130a4:	48 98                	cltq   
   130a6:	c7 84 85 30 f3 ff ff 	movl   $0x290776eb,-0xcd0(%rbp,%rax,4)
   130ad:	eb 76 07 29 
   130b1:	83 85 c4 ec ff ff 01 	addl   $0x1,-0x133c(%rbp)
   130b8:	83 bd c4 ec ff ff 07 	cmpl   $0x7,-0x133c(%rbp)
   130bf:	7e dd                	jle    1309e <func_15+0x3915>
   130c1:	48 8b 85 98 ef ff ff 	mov    -0x1068(%rbp),%rax
   130c8:	48 8d 15 b9 a9 00 00 	lea    0xa9b9(%rip),%rdx        # 1da88 <g_899>
   130cf:	48 89 10             	mov    %rdx,(%rax)
   130d2:	48 8b 85 a0 ef ff ff 	mov    -0x1060(%rbp),%rax
   130d9:	48 8d 15 c8 ac 00 00 	lea    0xacc8(%rip),%rdx        # 1dda8 <g_1927+0x8>
   130e0:	48 89 10             	mov    %rdx,(%rax)
   130e3:	48 8b 85 18 f1 ff ff 	mov    -0xee8(%rbp),%rax
   130ea:	48 89 85 80 ee ff ff 	mov    %rax,-0x1180(%rbp)
   130f1:	c7 85 f4 ec ff ff 01 	movl   $0x1,-0x130c(%rbp)
   130f8:	00 00 00 
   130fb:	eb 47                	jmp    13144 <func_15+0x39bb>
   130fd:	48 b8 30 30 30 30 30 	movabs $0x3030303030303030,%rax
   13104:	30 30 30 
   13107:	48 89 45 bf          	mov    %rax,-0x41(%rbp)
   1310b:	c6 45 c7 30          	movb   $0x30,-0x39(%rbp)
   1310f:	c7 85 80 ed ff ff 01 	movl   $0x1,-0x1280(%rbp)
   13116:	00 00 00 
   13119:	c7 85 84 ed ff ff 55 	movl   $0xac018655,-0x127c(%rbp)
   13120:	86 01 ac 
   13123:	c7 85 88 ed ff ff ff 	movl   $0xffffffff,-0x1278(%rbp)
   1312a:	ff ff ff 
   1312d:	66 83 85 9a ec ff ff 	addw   $0x1,-0x1366(%rbp)
   13134:	01 
   13135:	8b 85 78 ec ff ff    	mov    -0x1388(%rbp),%eax
   1313b:	85 c0                	test   %eax,%eax
   1313d:	83 ad f4 ec ff ff 01 	subl   $0x1,-0x130c(%rbp)
   13144:	83 bd f4 ec ff ff 00 	cmpl   $0x0,-0x130c(%rbp)
   1314b:	79 b0                	jns    130fd <func_15+0x3974>
   1314d:	c7 85 f0 ec ff ff 00 	movl   $0x0,-0x1310(%rbp)
   13154:	00 00 00 
   13157:	eb 16                	jmp    1316f <func_15+0x39e6>
   13159:	8b 85 14 f6 ff ff    	mov    -0x9ec(%rbp),%eax
   1315f:	83 e8 01             	sub    $0x1,%eax
   13162:	89 85 14 f6 ff ff    	mov    %eax,-0x9ec(%rbp)
   13168:	83 85 f0 ec ff ff 01 	addl   $0x1,-0x1310(%rbp)
   1316f:	83 bd f0 ec ff ff 02 	cmpl   $0x2,-0x1310(%rbp)
   13176:	7e e1                	jle    13159 <func_15+0x39d0>
   13178:	48 8b 05 11 a8 00 00 	mov    0xa811(%rip),%rax        # 1d990 <g_408>
   1317f:	48 83 e8 01          	sub    $0x1,%rax
   13183:	48 89 05 06 a8 00 00 	mov    %rax,0xa806(%rip)        # 1d990 <g_408>
   1318a:	48 8b 05 ff a7 00 00 	mov    0xa7ff(%rip),%rax        # 1d990 <g_408>
   13191:	48 85 c0             	test   %rax,%rax
   13194:	0f 89 8a fe ff ff    	jns    13024 <func_15+0x389b>
   1319a:	e9 df 15 00 00       	jmpq   1477e <func_15+0x4ff5>
   1319f:	48 bb a4 4d 3d 95 06 	movabs $0xbc069906953d4da4,%rbx
   131a6:	99 06 bc 
   131a9:	48 89 9d 30 f3 ff ff 	mov    %rbx,-0xcd0(%rbp)
   131b0:	48 b8 83 91 e0 0d ac 	movabs $0x3830bbac0de09183,%rax
   131b7:	bb 30 38 
   131ba:	48 89 85 38 f3 ff ff 	mov    %rax,-0xcc8(%rbp)
   131c1:	48 89 85 40 f3 ff ff 	mov    %rax,-0xcc0(%rbp)
   131c8:	48 89 9d 48 f3 ff ff 	mov    %rbx,-0xcb8(%rbp)
   131cf:	48 89 85 50 f3 ff ff 	mov    %rax,-0xcb0(%rbp)
   131d6:	48 89 85 58 f3 ff ff 	mov    %rax,-0xca8(%rbp)
   131dd:	48 89 9d 60 f3 ff ff 	mov    %rbx,-0xca0(%rbp)
   131e4:	48 89 85 68 f3 ff ff 	mov    %rax,-0xc98(%rbp)
   131eb:	48 89 85 70 f3 ff ff 	mov    %rax,-0xc90(%rbp)
   131f2:	48 89 9d 78 f3 ff ff 	mov    %rbx,-0xc88(%rbp)
   131f9:	48 89 85 80 f3 ff ff 	mov    %rax,-0xc80(%rbp)
   13200:	48 89 85 88 f3 ff ff 	mov    %rax,-0xc78(%rbp)
   13207:	48 89 9d 90 f3 ff ff 	mov    %rbx,-0xc70(%rbp)
   1320e:	48 89 85 98 f3 ff ff 	mov    %rax,-0xc68(%rbp)
   13215:	48 89 85 a0 f3 ff ff 	mov    %rax,-0xc60(%rbp)
   1321c:	48 89 9d a8 f3 ff ff 	mov    %rbx,-0xc58(%rbp)
   13223:	48 89 85 b0 f3 ff ff 	mov    %rax,-0xc50(%rbp)
   1322a:	48 89 85 b8 f3 ff ff 	mov    %rax,-0xc48(%rbp)
   13231:	c7 85 48 ed ff ff aa 	movl   $0xe3a143aa,-0x12b8(%rbp)
   13238:	43 a1 e3 
   1323b:	48 8d 85 87 ec ff ff 	lea    -0x1379(%rbp),%rax
   13242:	48 89 85 30 ef ff ff 	mov    %rax,-0x10d0(%rbp)
   13249:	c6 85 88 ec ff ff ba 	movb   $0xba,-0x1378(%rbp)
   13250:	48 8d 05 09 cc 00 00 	lea    0xcc09(%rip),%rax        # 1fe60 <g_486>
   13257:	48 89 85 38 ef ff ff 	mov    %rax,-0x10c8(%rbp)
   1325e:	c6 85 8e ec ff ff 01 	movb   $0x1,-0x1372(%rbp)
   13265:	48 c7 85 40 ef ff ff 	movq   $0x0,-0x10c0(%rbp)
   1326c:	00 00 00 00 
   13270:	c7 85 4c ed ff ff 13 	movl   $0x3fa7b113,-0x12b4(%rbp)
   13277:	b1 a7 3f 
   1327a:	c7 85 50 ed ff ff 01 	movl   $0x1,-0x12b0(%rbp)
   13281:	00 00 00 
   13284:	c7 85 54 ed ff ff df 	movl   $0xa22726df,-0x12ac(%rbp)
   1328b:	26 27 a2 
   1328e:	c7 85 58 ed ff ff 01 	movl   $0x1,-0x12a8(%rbp)
   13295:	00 00 00 
   13298:	48 8b 85 b8 ed ff ff 	mov    -0x1248(%rbp),%rax
   1329f:	8b 10                	mov    (%rax),%edx
   132a1:	83 ea 01             	sub    $0x1,%edx
   132a4:	89 10                	mov    %edx,(%rax)
   132a6:	be ff ff ff ff       	mov    $0xffffffff,%esi
   132ab:	bf 01 00 00 00       	mov    $0x1,%edi
   132b0:	e8 1b 7c ff ff       	callq  aed0 <safe_sub_func_uint32_t_u_u>
   132b5:	8b 95 48 ed ff ff    	mov    -0x12b8(%rbp),%edx
   132bb:	31 d0                	xor    %edx,%eax
   132bd:	89 85 48 ed ff ff    	mov    %eax,-0x12b8(%rbp)
   132c3:	83 bd 7c ec ff ff 00 	cmpl   $0x0,-0x1384(%rbp)
   132ca:	74 13                	je     132df <func_15+0x3b56>
   132cc:	48 8b 85 90 f3 ff ff 	mov    -0xc70(%rbp),%rax
   132d3:	48 85 c0             	test   %rax,%rax
   132d6:	74 07                	je     132df <func_15+0x3b56>
   132d8:	b8 01 00 00 00       	mov    $0x1,%eax
   132dd:	eb 05                	jmp    132e4 <func_15+0x3b5b>
   132df:	b8 00 00 00 00       	mov    $0x0,%eax
   132e4:	0f b7 c0             	movzwl %ax,%eax
   132e7:	be da ca 00 00       	mov    $0xcada,%esi
   132ec:	89 c7                	mov    %eax,%edi
   132ee:	e8 0c 7a ff ff       	callq  acff <safe_add_func_uint16_t_u_u>
   132f3:	66 85 c0             	test   %ax,%ax
   132f6:	0f 95 c0             	setne  %al
   132f9:	0f b6 d0             	movzbl %al,%edx
   132fc:	0f b6 85 0e f2 ff ff 	movzbl -0xdf2(%rbp),%eax
   13303:	0f b6 c0             	movzbl %al,%eax
   13306:	39 c2                	cmp    %eax,%edx
   13308:	0f 9c c0             	setl   %al
   1330b:	0f b6 d8             	movzbl %al,%ebx
   1330e:	be 00 00 00 00       	mov    $0x0,%esi
   13313:	bf a8 ff ff ff       	mov    $0xffffffa8,%edi
   13318:	e8 84 6f ff ff       	callq  a2a1 <safe_lshift_func_int8_t_s_s>
   1331d:	84 c0                	test   %al,%al
   1331f:	74 11                	je     13332 <func_15+0x3ba9>
   13321:	83 bd 7c ec ff ff 00 	cmpl   $0x0,-0x1384(%rbp)
   13328:	74 08                	je     13332 <func_15+0x3ba9>
   1332a:	41 bc 01 00 00 00    	mov    $0x1,%r12d
   13330:	eb 06                	jmp    13338 <func_15+0x3baf>
   13332:	41 bc 00 00 00 00    	mov    $0x0,%r12d
   13338:	48 8b 85 90 f3 ff ff 	mov    -0xc70(%rbp),%rax
   1333f:	89 c2                	mov    %eax,%edx
   13341:	83 bd 7c ec ff ff ff 	cmpl   $0xffffffff,-0x1384(%rbp)
   13348:	0f 95 c0             	setne  %al
   1334b:	0f b6 c0             	movzbl %al,%eax
   1334e:	21 d0                	and    %edx,%eax
   13350:	89 c2                	mov    %eax,%edx
   13352:	8b 85 78 ec ff ff    	mov    -0x1388(%rbp),%eax
   13358:	0f be c0             	movsbl %al,%eax
   1335b:	89 d6                	mov    %edx,%esi
   1335d:	89 c7                	mov    %eax,%edi
   1335f:	e8 08 70 ff ff       	callq  a36c <safe_rshift_func_int8_t_s_u>
   13364:	0f be c0             	movsbl %al,%eax
   13367:	39 85 7c ec ff ff    	cmp    %eax,-0x1384(%rbp)
   1336d:	0f 9f c0             	setg   %al
   13370:	0f b6 c0             	movzbl %al,%eax
   13373:	be 03 00 00 00       	mov    $0x3,%esi
   13378:	89 c7                	mov    %eax,%edi
   1337a:	e8 0e 79 ff ff       	callq  ac8d <safe_rshift_func_uint8_t_u_s>
   1337f:	0f b6 c0             	movzbl %al,%eax
   13382:	41 39 c4             	cmp    %eax,%r12d
   13385:	0f 9c c0             	setl   %al
   13388:	0f b6 c0             	movzbl %al,%eax
   1338b:	89 de                	mov    %ebx,%esi
   1338d:	89 c7                	mov    %eax,%edi
   1338f:	e8 22 72 ff ff       	callq  a5b6 <safe_add_func_int32_t_s_s>
   13394:	89 c2                	mov    %eax,%edx
   13396:	48 8b 05 9b ce 00 00 	mov    0xce9b(%rip),%rax        # 20238 <g_937>
   1339d:	88 10                	mov    %dl,(%rax)
   1339f:	0f b6 10             	movzbl (%rax),%edx
   133a2:	48 8b 85 30 ef ff ff 	mov    -0x10d0(%rbp),%rax
   133a9:	0f b6 00             	movzbl (%rax),%eax
   133ac:	31 c2                	xor    %eax,%edx
   133ae:	48 8b 85 30 ef ff ff 	mov    -0x10d0(%rbp),%rax
   133b5:	88 10                	mov    %dl,(%rax)
   133b7:	48 8b 85 30 ef ff ff 	mov    -0x10d0(%rbp),%rax
   133be:	0f b6 00             	movzbl (%rax),%eax
   133c1:	3c 04                	cmp    $0x4,%al
   133c3:	0f 87 63 04 00 00    	ja     1382c <func_15+0x40a3>
   133c9:	66 c7 85 a4 ec ff ff 	movw   $0xf451,-0x135c(%rbp)
   133d0:	51 f4 
   133d2:	48 c7 85 48 ef ff ff 	movq   $0x0,-0x10b8(%rbp)
   133d9:	00 00 00 00 
   133dd:	48 8d 05 04 e9 00 00 	lea    0xe904(%rip),%rax        # 21ce8 <g_1994>
   133e4:	48 89 85 50 ef ff ff 	mov    %rax,-0x10b0(%rbp)
   133eb:	48 c7 85 10 ee ff ff 	movq   $0x0,-0x11f0(%rbp)
   133f2:	00 00 00 00 
   133f6:	48 8d 85 30 f1 ff ff 	lea    -0xed0(%rbp),%rax
   133fd:	48 83 c0 28          	add    $0x28,%rax
   13401:	48 89 85 d0 f5 ff ff 	mov    %rax,-0xa30(%rbp)
   13408:	48 8d 85 30 f1 ff ff 	lea    -0xed0(%rbp),%rax
   1340f:	48 83 c0 28          	add    $0x28,%rax
   13413:	48 89 85 d8 f5 ff ff 	mov    %rax,-0xa28(%rbp)
   1341a:	48 8d 85 30 f1 ff ff 	lea    -0xed0(%rbp),%rax
   13421:	48 83 c0 28          	add    $0x28,%rax
   13425:	48 89 85 e0 f5 ff ff 	mov    %rax,-0xa20(%rbp)
   1342c:	48 8d 85 30 f1 ff ff 	lea    -0xed0(%rbp),%rax
   13433:	48 83 c0 28          	add    $0x28,%rax
   13437:	48 89 85 e8 f5 ff ff 	mov    %rax,-0xa18(%rbp)
   1343e:	48 8d 85 30 f1 ff ff 	lea    -0xed0(%rbp),%rax
   13445:	48 83 c0 28          	add    $0x28,%rax
   13449:	48 89 85 f0 f5 ff ff 	mov    %rax,-0xa10(%rbp)
   13450:	48 8d 85 30 f1 ff ff 	lea    -0xed0(%rbp),%rax
   13457:	48 83 c0 28          	add    $0x28,%rax
   1345b:	48 89 85 f8 f5 ff ff 	mov    %rax,-0xa08(%rbp)
   13462:	48 8d 85 30 f1 ff ff 	lea    -0xed0(%rbp),%rax
   13469:	48 83 c0 28          	add    $0x28,%rax
   1346d:	48 89 85 00 f6 ff ff 	mov    %rax,-0xa00(%rbp)
   13474:	48 8d 85 30 f1 ff ff 	lea    -0xed0(%rbp),%rax
   1347b:	48 83 c0 28          	add    $0x28,%rax
   1347f:	48 89 85 08 f6 ff ff 	mov    %rax,-0x9f8(%rbp)
   13486:	48 8d 85 30 f1 ff ff 	lea    -0xed0(%rbp),%rax
   1348d:	48 83 c0 28          	add    $0x28,%rax
   13491:	48 89 85 10 f6 ff ff 	mov    %rax,-0x9f0(%rbp)
   13498:	48 8d 85 30 f1 ff ff 	lea    -0xed0(%rbp),%rax
   1349f:	48 83 c0 28          	add    $0x28,%rax
   134a3:	48 89 85 18 f6 ff ff 	mov    %rax,-0x9e8(%rbp)
   134aa:	48 8d 85 30 f1 ff ff 	lea    -0xed0(%rbp),%rax
   134b1:	48 83 c0 28          	add    $0x28,%rax
   134b5:	48 89 85 20 f6 ff ff 	mov    %rax,-0x9e0(%rbp)
   134bc:	48 8d 85 30 f1 ff ff 	lea    -0xed0(%rbp),%rax
   134c3:	48 83 c0 28          	add    $0x28,%rax
   134c7:	48 89 85 28 f6 ff ff 	mov    %rax,-0x9d8(%rbp)
   134ce:	48 8d 85 30 f1 ff ff 	lea    -0xed0(%rbp),%rax
   134d5:	48 83 c0 28          	add    $0x28,%rax
   134d9:	48 89 85 30 f6 ff ff 	mov    %rax,-0x9d0(%rbp)
   134e0:	48 8d 85 30 f1 ff ff 	lea    -0xed0(%rbp),%rax
   134e7:	48 83 c0 28          	add    $0x28,%rax
   134eb:	48 89 85 38 f6 ff ff 	mov    %rax,-0x9c8(%rbp)
   134f2:	48 8d 85 30 f1 ff ff 	lea    -0xed0(%rbp),%rax
   134f9:	48 83 c0 28          	add    $0x28,%rax
   134fd:	48 89 85 40 f6 ff ff 	mov    %rax,-0x9c0(%rbp)
   13504:	48 8d 85 30 f1 ff ff 	lea    -0xed0(%rbp),%rax
   1350b:	48 83 c0 28          	add    $0x28,%rax
   1350f:	48 89 85 48 f6 ff ff 	mov    %rax,-0x9b8(%rbp)
   13516:	48 8d 85 30 f1 ff ff 	lea    -0xed0(%rbp),%rax
   1351d:	48 83 c0 28          	add    $0x28,%rax
   13521:	48 89 85 50 f6 ff ff 	mov    %rax,-0x9b0(%rbp)
   13528:	48 8d 85 30 f1 ff ff 	lea    -0xed0(%rbp),%rax
   1352f:	48 83 c0 28          	add    $0x28,%rax
   13533:	48 89 85 58 f6 ff ff 	mov    %rax,-0x9a8(%rbp)
   1353a:	48 8d 85 30 f1 ff ff 	lea    -0xed0(%rbp),%rax
   13541:	48 83 c0 28          	add    $0x28,%rax
   13545:	48 89 85 60 f6 ff ff 	mov    %rax,-0x9a0(%rbp)
   1354c:	48 8d 85 30 f1 ff ff 	lea    -0xed0(%rbp),%rax
   13553:	48 83 c0 28          	add    $0x28,%rax
   13557:	48 89 85 68 f6 ff ff 	mov    %rax,-0x998(%rbp)
   1355e:	48 8d 85 30 f1 ff ff 	lea    -0xed0(%rbp),%rax
   13565:	48 83 c0 28          	add    $0x28,%rax
   13569:	48 89 85 70 f6 ff ff 	mov    %rax,-0x990(%rbp)
   13570:	48 8d 85 30 f1 ff ff 	lea    -0xed0(%rbp),%rax
   13577:	48 83 c0 28          	add    $0x28,%rax
   1357b:	48 89 85 78 f6 ff ff 	mov    %rax,-0x988(%rbp)
   13582:	48 8d 85 30 f1 ff ff 	lea    -0xed0(%rbp),%rax
   13589:	48 83 c0 28          	add    $0x28,%rax
   1358d:	48 89 85 80 f6 ff ff 	mov    %rax,-0x980(%rbp)
   13594:	48 8d 85 30 f1 ff ff 	lea    -0xed0(%rbp),%rax
   1359b:	48 83 c0 28          	add    $0x28,%rax
   1359f:	48 89 85 88 f6 ff ff 	mov    %rax,-0x978(%rbp)
   135a6:	48 8d 85 30 f1 ff ff 	lea    -0xed0(%rbp),%rax
   135ad:	48 83 c0 28          	add    $0x28,%rax
   135b1:	48 89 85 90 f6 ff ff 	mov    %rax,-0x970(%rbp)
   135b8:	48 8d 85 30 f1 ff ff 	lea    -0xed0(%rbp),%rax
   135bf:	48 83 c0 28          	add    $0x28,%rax
   135c3:	48 89 85 98 f6 ff ff 	mov    %rax,-0x968(%rbp)
   135ca:	48 8d 85 30 f1 ff ff 	lea    -0xed0(%rbp),%rax
   135d1:	48 83 c0 28          	add    $0x28,%rax
   135d5:	48 89 85 a0 f6 ff ff 	mov    %rax,-0x960(%rbp)
   135dc:	48 8d 85 30 f1 ff ff 	lea    -0xed0(%rbp),%rax
   135e3:	48 83 c0 28          	add    $0x28,%rax
   135e7:	48 89 85 a8 f6 ff ff 	mov    %rax,-0x958(%rbp)
   135ee:	c7 85 c0 f0 ff ff 00 	movl   $0x0,-0xf40(%rbp)
   135f5:	00 00 00 
   135f8:	c7 85 c4 f0 ff ff 07 	movl   $0x81aec907,-0xf3c(%rbp)
   135ff:	c9 ae 81 
   13602:	c7 85 c8 f0 ff ff 00 	movl   $0x0,-0xf38(%rbp)
   13609:	00 00 00 
   1360c:	c7 85 cc f0 ff ff 07 	movl   $0x81aec907,-0xf34(%rbp)
   13613:	c9 ae 81 
   13616:	c7 85 c8 ec ff ff 00 	movl   $0x0,-0x1338(%rbp)
   1361d:	00 00 00 
   13620:	eb 1e                	jmp    13640 <func_15+0x3eb7>
   13622:	8b 85 c8 ec ff ff    	mov    -0x1338(%rbp),%eax
   13628:	48 98                	cltq   
   1362a:	48 8d 95 10 ee ff ff 	lea    -0x11f0(%rbp),%rdx
   13631:	48 89 94 c5 30 f1 ff 	mov    %rdx,-0xed0(%rbp,%rax,8)
   13638:	ff 
   13639:	83 85 c8 ec ff ff 01 	addl   $0x1,-0x1338(%rbp)
   13640:	83 bd c8 ec ff ff 06 	cmpl   $0x6,-0x1338(%rbp)
   13647:	7e d9                	jle    13622 <func_15+0x3e99>
   13649:	be 07 00 00 00       	mov    $0x7,%esi
   1364e:	bf 00 00 00 00       	mov    $0x0,%edi
   13653:	e8 0b 6f ff ff       	callq  a563 <safe_rshift_func_int16_t_s_u>
   13658:	66 3d f0 00          	cmp    $0xf0,%ax
   1365c:	48 8d 85 e0 ed ff ff 	lea    -0x1220(%rbp),%rax
   13663:	48 89 85 58 ee ff ff 	mov    %rax,-0x11a8(%rbp)
   1366a:	83 bd 7c ec ff ff 01 	cmpl   $0x1,-0x1384(%rbp)
   13671:	48 8b 85 b8 ee ff ff 	mov    -0x1148(%rbp),%rax
   13678:	48 8b 00             	mov    (%rax),%rax
   1367b:	48 8b 00             	mov    (%rax),%rax
   1367e:	66 c7 00 00 00       	movw   $0x0,(%rax)
   13683:	0f b7 00             	movzwl (%rax),%eax
   13686:	0f bf d0             	movswl %ax,%edx
   13689:	8b 05 49 ee 00 00    	mov    0xee49(%rip),%eax        # 224d8 <g_269+0x18>
   1368f:	39 c2                	cmp    %eax,%edx
   13691:	0f 93 c0             	setae  %al
   13694:	0f b6 c0             	movzbl %al,%eax
   13697:	89 c7                	mov    %eax,%edi
   13699:	e8 f8 6e ff ff       	callq  a596 <safe_unary_minus_func_int32_t_s>
   1369e:	85 c0                	test   %eax,%eax
   136a0:	74 07                	je     136a9 <func_15+0x3f20>
   136a2:	b9 01 00 00 00       	mov    $0x1,%ecx
   136a7:	eb 05                	jmp    136ae <func_15+0x3f25>
   136a9:	b9 00 00 00 00       	mov    $0x0,%ecx
   136ae:	48 8b 95 f8 ed ff ff 	mov    -0x1208(%rbp),%rdx
   136b5:	48 8b 85 50 ef ff ff 	mov    -0x10b0(%rbp),%rax
   136bc:	48 89 10             	mov    %rdx,(%rax)
   136bf:	48 8b 85 50 ef ff ff 	mov    -0x10b0(%rbp),%rax
   136c6:	48 8b 00             	mov    (%rax),%rax
   136c9:	48 39 85 88 ee ff ff 	cmp    %rax,-0x1178(%rbp)
   136d0:	0f 95 c0             	setne  %al
   136d3:	0f b6 c0             	movzbl %al,%eax
   136d6:	89 ce                	mov    %ecx,%esi
   136d8:	89 c7                	mov    %eax,%edi
   136da:	e8 4b 6e ff ff       	callq  a52a <safe_rshift_func_int16_t_s_s>
   136df:	8b 85 78 ec ff ff    	mov    -0x1388(%rbp),%eax
   136e5:	0f b6 c0             	movzbl %al,%eax
   136e8:	48 8b 15 d1 d2 00 00 	mov    0xd2d1(%rip),%rdx        # 209c0 <g_1536>
   136ef:	48 8b 12             	mov    (%rdx),%rdx
   136f2:	48 8b 12             	mov    (%rdx),%rdx
   136f5:	48 8b 1a             	mov    (%rdx),%rbx
   136f8:	be 03 00 00 00       	mov    $0x3,%esi
   136fd:	89 c7                	mov    %eax,%edi
   136ff:	e8 48 75 ff ff       	callq  ac4c <safe_lshift_func_uint8_t_u_u>
   13704:	88 03                	mov    %al,(%rbx)
   13706:	0f b6 03             	movzbl (%rbx),%eax
   13709:	84 c0                	test   %al,%al
   1370b:	75 0d                	jne    1371a <func_15+0x3f91>
   1370d:	48 8b 05 84 c7 00 00 	mov    0xc784(%rip),%rax        # 1fe98 <g_662>
   13714:	8b 00                	mov    (%rax),%eax
   13716:	85 c0                	test   %eax,%eax
   13718:	74 07                	je     13721 <func_15+0x3f98>
   1371a:	b8 01 00 00 00       	mov    $0x1,%eax
   1371f:	eb 05                	jmp    13726 <func_15+0x3f9d>
   13721:	b8 00 00 00 00       	mov    $0x0,%eax
   13726:	3b 85 48 ed ff ff    	cmp    -0x12b8(%rbp),%eax
   1372c:	66 83 bd a4 ec ff ff 	cmpw   $0x0,-0x135c(%rbp)
   13733:	00 
   13734:	7e 19                	jle    1374f <func_15+0x3fc6>
   13736:	48 8b 05 5b d2 00 00 	mov    0xd25b(%rip),%rax        # 20998 <g_1170>
   1373d:	48 8b 00             	mov    (%rax),%rax
   13740:	8b 00                	mov    (%rax),%eax
   13742:	85 c0                	test   %eax,%eax
   13744:	0f 84 c2 01 00 00    	je     1390c <func_15+0x4183>
   1374a:	e9 98 10 00 00       	jmpq   147e7 <func_15+0x505e>
   1374f:	66 c7 85 a6 ec ff ff 	movw   $0x1,-0x135a(%rbp)
   13756:	01 00 
   13758:	48 8b 05 31 d2 00 00 	mov    0xd231(%rip),%rax        # 20990 <g_1169>
   1375f:	44 8b 20             	mov    (%rax),%r12d
   13762:	0f b7 9d a6 ec ff ff 	movzwl -0x135a(%rbp),%ebx
   13769:	8b 85 7c ec ff ff    	mov    -0x1384(%rbp),%eax
   1376f:	4c 63 e8             	movslq %eax,%r13
   13772:	48 8b 85 c0 ee ff ff 	mov    -0x1140(%rbp),%rax
   13779:	0f b6 10             	movzbl (%rax),%edx
   1377c:	8b 85 78 ec ff ff    	mov    -0x1388(%rbp),%eax
   13782:	85 c0                	test   %eax,%eax
   13784:	0f 94 c0             	sete   %al
   13787:	09 c2                	or     %eax,%edx
   13789:	48 8b 85 c0 ee ff ff 	mov    -0x1140(%rbp),%rax
   13790:	88 10                	mov    %dl,(%rax)
   13792:	0f b6 05 5f a1 00 00 	movzbl 0xa15f(%rip),%eax        # 1d8f8 <g_153>
   13799:	3c fb                	cmp    $0xfb,%al
   1379b:	0f 95 c0             	setne  %al
   1379e:	0f b6 d0             	movzbl %al,%edx
   137a1:	83 b5 f4 ec ff ff 01 	xorl   $0x1,-0x130c(%rbp)
   137a8:	8b 85 f4 ec ff ff    	mov    -0x130c(%rbp),%eax
   137ae:	0f be c0             	movsbl %al,%eax
   137b1:	89 d6                	mov    %edx,%esi
   137b3:	89 c7                	mov    %eax,%edi
   137b5:	e8 1a 6a ff ff       	callq  a1d4 <safe_add_func_int8_t_s_s>
   137ba:	0f b6 c0             	movzbl %al,%eax
   137bd:	be ff 00 00 00       	mov    $0xff,%esi
   137c2:	89 c7                	mov    %eax,%edi
   137c4:	e8 91 73 ff ff       	callq  ab5a <safe_add_func_uint8_t_u_u>
   137c9:	83 c8 51             	or     $0x51,%eax
   137cc:	0f b6 c0             	movzbl %al,%eax
   137cf:	49 39 c5             	cmp    %rax,%r13
   137d2:	75 0a                	jne    137de <func_15+0x4055>
   137d4:	8b 85 78 ec ff ff    	mov    -0x1388(%rbp),%eax
   137da:	85 c0                	test   %eax,%eax
   137dc:	74 07                	je     137e5 <func_15+0x405c>
   137de:	b8 01 00 00 00       	mov    $0x1,%eax
   137e3:	eb 05                	jmp    137ea <func_15+0x4061>
   137e5:	b8 00 00 00 00       	mov    $0x0,%eax
   137ea:	98                   	cwtl   
   137eb:	89 de                	mov    %ebx,%esi
   137ed:	89 c7                	mov    %eax,%edi
   137ef:	e8 9e 6c ff ff       	callq  a492 <safe_lshift_func_int16_t_s_s>
   137f4:	0f b6 c0             	movzbl %al,%eax
   137f7:	be 07 00 00 00       	mov    $0x7,%esi
   137fc:	89 c7                	mov    %eax,%edi
   137fe:	e8 02 74 ff ff       	callq  ac05 <safe_lshift_func_uint8_t_u_s>
   13803:	0f b6 c0             	movzbl %al,%eax
   13806:	41 39 c4             	cmp    %eax,%r12d
   13809:	0f 9d c0             	setge  %al
   1380c:	0f b6 c0             	movzbl %al,%eax
   1380f:	89 85 c4 f0 ff ff    	mov    %eax,-0xf3c(%rbp)
   13815:	48 8b 05 7c d1 00 00 	mov    0xd17c(%rip),%rax        # 20998 <g_1170>
   1381c:	48 8b 00             	mov    (%rax),%rax
   1381f:	8b 95 c4 f0 ff ff    	mov    -0xf3c(%rbp),%edx
   13825:	89 10                	mov    %edx,(%rax)
   13827:	e9 e0 00 00 00       	jmpq   1390c <func_15+0x4183>
   1382c:	c6 85 8f ec ff ff fe 	movb   $0xfe,-0x1371(%rbp)
   13833:	48 8b 85 90 f3 ff ff 	mov    -0xc70(%rbp),%rax
   1383a:	41 89 c0             	mov    %eax,%r8d
   1383d:	48 8b 05 fc c9 00 00 	mov    0xc9fc(%rip),%rax        # 20240 <g_936>
   13844:	48 8b 00             	mov    (%rax),%rax
   13847:	0f b6 00             	movzbl (%rax),%eax
   1384a:	0f b6 c8             	movzbl %al,%ecx
   1384d:	8b 85 78 ec ff ff    	mov    -0x1388(%rbp),%eax
   13853:	85 c0                	test   %eax,%eax
   13855:	74 0a                	je     13861 <func_15+0x40d8>
   13857:	8b 85 78 ec ff ff    	mov    -0x1388(%rbp),%eax
   1385d:	85 c0                	test   %eax,%eax
   1385f:	75 68                	jne    138c9 <func_15+0x4140>
   13861:	0f b7 b5 a0 ec ff ff 	movzwl -0x1360(%rbp),%esi
   13868:	48 8b 05 21 d1 00 00 	mov    0xd121(%rip),%rax        # 20990 <g_1169>
   1386f:	8b 00                	mov    (%rax),%eax
   13871:	48 8b 95 c8 ed ff ff 	mov    -0x1238(%rbp),%rdx
   13878:	48 8b 85 38 ee ff ff 	mov    -0x11c8(%rbp),%rax
   1387f:	48 8b 00             	mov    (%rax),%rax
   13882:	48 8b 12             	mov    (%rdx),%rdx
   13885:	48 89 10             	mov    %rdx,(%rax)
   13888:	48 8b 00             	mov    (%rax),%rax
   1388b:	48 39 85 c8 ee ff ff 	cmp    %rax,-0x1138(%rbp)
   13892:	0f 95 c0             	setne  %al
   13895:	0f b6 d0             	movzbl %al,%edx
   13898:	48 8b 85 a8 f4 ff ff 	mov    -0xb58(%rbp),%rax
   1389f:	48 89 05 52 e5 00 00 	mov    %rax,0xe552(%rip)        # 21df8 <g_2088+0x18>
   138a6:	48 8b 3d 4b e5 00 00 	mov    0xe54b(%rip),%rdi        # 21df8 <g_2088+0x18>
   138ad:	48 8b 85 f0 f4 ff ff 	mov    -0xb10(%rbp),%rax
   138b4:	48 39 c7             	cmp    %rax,%rdi
   138b7:	0f 95 c0             	setne  %al
   138ba:	0f b6 c0             	movzbl %al,%eax
   138bd:	39 c2                	cmp    %eax,%edx
   138bf:	0f 9f c0             	setg   %al
   138c2:	0f b6 c0             	movzbl %al,%eax
   138c5:	39 c6                	cmp    %eax,%esi
   138c7:	74 10                	je     138d9 <func_15+0x4150>
   138c9:	80 bd 8f ec ff ff 00 	cmpb   $0x0,-0x1371(%rbp)
   138d0:	74 07                	je     138d9 <func_15+0x4150>
   138d2:	b8 01 00 00 00       	mov    $0x1,%eax
   138d7:	eb 05                	jmp    138de <func_15+0x4155>
   138d9:	b8 00 00 00 00       	mov    $0x0,%eax
   138de:	85 c0                	test   %eax,%eax
   138e0:	0f 94 c0             	sete   %al
   138e3:	0f b6 c0             	movzbl %al,%eax
   138e6:	21 c8                	and    %ecx,%eax
   138e8:	98                   	cwtl   
   138e9:	44 89 c6             	mov    %r8d,%esi
   138ec:	89 c7                	mov    %eax,%edi
   138ee:	e8 37 6c ff ff       	callq  a52a <safe_rshift_func_int16_t_s_s>
   138f3:	89 c2                	mov    %eax,%edx
   138f5:	48 8b 05 94 d0 00 00 	mov    0xd094(%rip),%rax        # 20990 <g_1169>
   138fc:	0f bf d2             	movswl %dx,%edx
   138ff:	89 10                	mov    %edx,(%rax)
   13901:	8b 85 7c ec ff ff    	mov    -0x1384(%rbp),%eax
   13907:	e9 ff 0e 00 00       	jmpq   1480b <func_15+0x5082>
   1390c:	c7 85 fc ec ff ff 00 	movl   $0x0,-0x1304(%rbp)
   13913:	00 00 00 
   13916:	e9 a6 09 00 00       	jmpq   142c1 <func_15+0x4b38>
   1391b:	66 c7 85 d0 f5 ff ff 	movw   $0xbfbc,-0xa30(%rbp)
   13922:	bc bf 
   13924:	66 c7 85 d2 f5 ff ff 	movw   $0xa63e,-0xa2e(%rbp)
   1392b:	3e a6 
   1392d:	66 c7 85 d4 f5 ff ff 	movw   $0xbfbc,-0xa2c(%rbp)
   13934:	bc bf 
   13936:	66 c7 85 d6 f5 ff ff 	movw   $0xa63e,-0xa2a(%rbp)
   1393d:	3e a6 
   1393f:	66 c7 85 d8 f5 ff ff 	movw   $0xbfbc,-0xa28(%rbp)
   13946:	bc bf 
   13948:	66 c7 85 da f5 ff ff 	movw   $0xa63e,-0xa26(%rbp)
   1394f:	3e a6 
   13951:	66 c7 85 dc f5 ff ff 	movw   $0xbfbc,-0xa24(%rbp)
   13958:	bc bf 
   1395a:	66 c7 85 de f5 ff ff 	movw   $0x3be9,-0xa22(%rbp)
   13961:	e9 3b 
   13963:	66 c7 85 e0 f5 ff ff 	movw   $0x3be9,-0xa20(%rbp)
   1396a:	e9 3b 
   1396c:	66 c7 85 e2 f5 ff ff 	movw   $0x3be9,-0xa1e(%rbp)
   13973:	e9 3b 
   13975:	66 c7 85 e4 f5 ff ff 	movw   $0x3be9,-0xa1c(%rbp)
   1397c:	e9 3b 
   1397e:	66 c7 85 e6 f5 ff ff 	movw   $0x3be9,-0xa1a(%rbp)
   13985:	e9 3b 
   13987:	66 c7 85 e8 f5 ff ff 	movw   $0x3be9,-0xa18(%rbp)
   1398e:	e9 3b 
   13990:	66 c7 85 ea f5 ff ff 	movw   $0x3be9,-0xa16(%rbp)
   13997:	e9 3b 
   13999:	66 c7 85 ec f5 ff ff 	movw   $0xbfbc,-0xa14(%rbp)
   139a0:	bc bf 
   139a2:	66 c7 85 ee f5 ff ff 	movw   $0xa63e,-0xa12(%rbp)
   139a9:	3e a6 
   139ab:	66 c7 85 f0 f5 ff ff 	movw   $0xbfbc,-0xa10(%rbp)
   139b2:	bc bf 
   139b4:	66 c7 85 f2 f5 ff ff 	movw   $0xa63e,-0xa0e(%rbp)
   139bb:	3e a6 
   139bd:	66 c7 85 f4 f5 ff ff 	movw   $0xbfbc,-0xa0c(%rbp)
   139c4:	bc bf 
   139c6:	66 c7 85 f6 f5 ff ff 	movw   $0xa63e,-0xa0a(%rbp)
   139cd:	3e a6 
   139cf:	66 c7 85 f8 f5 ff ff 	movw   $0xbfbc,-0xa08(%rbp)
   139d6:	bc bf 
   139d8:	66 c7 85 fa f5 ff ff 	movw   $0x3be9,-0xa06(%rbp)
   139df:	e9 3b 
   139e1:	66 c7 85 fc f5 ff ff 	movw   $0x3be9,-0xa04(%rbp)
   139e8:	e9 3b 
   139ea:	66 c7 85 fe f5 ff ff 	movw   $0x3be9,-0xa02(%rbp)
   139f1:	e9 3b 
   139f3:	66 c7 85 00 f6 ff ff 	movw   $0x3be9,-0xa00(%rbp)
   139fa:	e9 3b 
   139fc:	66 c7 85 02 f6 ff ff 	movw   $0x3be9,-0x9fe(%rbp)
   13a03:	e9 3b 
   13a05:	66 c7 85 04 f6 ff ff 	movw   $0x3be9,-0x9fc(%rbp)
   13a0c:	e9 3b 
   13a0e:	66 c7 85 06 f6 ff ff 	movw   $0x3be9,-0x9fa(%rbp)
   13a15:	e9 3b 
   13a17:	66 c7 85 08 f6 ff ff 	movw   $0xbfbc,-0x9f8(%rbp)
   13a1e:	bc bf 
   13a20:	66 c7 85 0a f6 ff ff 	movw   $0xa63e,-0x9f6(%rbp)
   13a27:	3e a6 
   13a29:	66 c7 85 0c f6 ff ff 	movw   $0xbfbc,-0x9f4(%rbp)
   13a30:	bc bf 
   13a32:	66 c7 85 0e f6 ff ff 	movw   $0xa63e,-0x9f2(%rbp)
   13a39:	3e a6 
   13a3b:	66 c7 85 10 f6 ff ff 	movw   $0xbfbc,-0x9f0(%rbp)
   13a42:	bc bf 
   13a44:	66 c7 85 12 f6 ff ff 	movw   $0xa63e,-0x9ee(%rbp)
   13a4b:	3e a6 
   13a4d:	66 c7 85 14 f6 ff ff 	movw   $0xbfbc,-0x9ec(%rbp)
   13a54:	bc bf 
   13a56:	66 c7 85 16 f6 ff ff 	movw   $0x3be9,-0x9ea(%rbp)
   13a5d:	e9 3b 
   13a5f:	66 c7 85 18 f6 ff ff 	movw   $0x3be9,-0x9e8(%rbp)
   13a66:	e9 3b 
   13a68:	66 c7 85 1a f6 ff ff 	movw   $0x3be9,-0x9e6(%rbp)
   13a6f:	e9 3b 
   13a71:	66 c7 85 1c f6 ff ff 	movw   $0x3be9,-0x9e4(%rbp)
   13a78:	e9 3b 
   13a7a:	66 c7 85 1e f6 ff ff 	movw   $0x3be9,-0x9e2(%rbp)
   13a81:	e9 3b 
   13a83:	66 c7 85 20 f6 ff ff 	movw   $0x3be9,-0x9e0(%rbp)
   13a8a:	e9 3b 
   13a8c:	66 c7 85 22 f6 ff ff 	movw   $0x3be9,-0x9de(%rbp)
   13a93:	e9 3b 
   13a95:	66 c7 85 24 f6 ff ff 	movw   $0xbfbc,-0x9dc(%rbp)
   13a9c:	bc bf 
   13a9e:	66 c7 85 26 f6 ff ff 	movw   $0xa63e,-0x9da(%rbp)
   13aa5:	3e a6 
   13aa7:	66 c7 85 28 f6 ff ff 	movw   $0xbfbc,-0x9d8(%rbp)
   13aae:	bc bf 
   13ab0:	66 c7 85 2a f6 ff ff 	movw   $0xa63e,-0x9d6(%rbp)
   13ab7:	3e a6 
   13ab9:	66 c7 85 2c f6 ff ff 	movw   $0xbfbc,-0x9d4(%rbp)
   13ac0:	bc bf 
   13ac2:	66 c7 85 2e f6 ff ff 	movw   $0xa63e,-0x9d2(%rbp)
   13ac9:	3e a6 
   13acb:	66 c7 85 30 f6 ff ff 	movw   $0xbfbc,-0x9d0(%rbp)
   13ad2:	bc bf 
   13ad4:	66 c7 85 32 f6 ff ff 	movw   $0x3be9,-0x9ce(%rbp)
   13adb:	e9 3b 
   13add:	66 c7 85 34 f6 ff ff 	movw   $0x3be9,-0x9cc(%rbp)
   13ae4:	e9 3b 
   13ae6:	66 c7 85 36 f6 ff ff 	movw   $0x3be9,-0x9ca(%rbp)
   13aed:	e9 3b 
   13aef:	66 c7 85 38 f6 ff ff 	movw   $0x3be9,-0x9c8(%rbp)
   13af6:	e9 3b 
   13af8:	66 c7 85 3a f6 ff ff 	movw   $0x3be9,-0x9c6(%rbp)
   13aff:	e9 3b 
   13b01:	66 c7 85 3c f6 ff ff 	movw   $0x3be9,-0x9c4(%rbp)
   13b08:	e9 3b 
   13b0a:	66 c7 85 3e f6 ff ff 	movw   $0x3be9,-0x9c2(%rbp)
   13b11:	e9 3b 
   13b13:	c7 85 b8 ec ff ff 00 	movl   $0x0,-0x1348(%rbp)
   13b1a:	00 00 00 
   13b1d:	eb 46                	jmp    13b65 <func_15+0x43dc>
   13b1f:	c7 85 bc ec ff ff 00 	movl   $0x0,-0x1344(%rbp)
   13b26:	00 00 00 
   13b29:	eb 2a                	jmp    13b55 <func_15+0x43cc>
   13b2b:	8b 85 bc ec ff ff    	mov    -0x1344(%rbp),%eax
   13b31:	48 98                	cltq   
   13b33:	8b 95 b8 ec ff ff    	mov    -0x1348(%rbp),%edx
   13b39:	48 63 d2             	movslq %edx,%rdx
   13b3c:	48 c1 e2 03          	shl    $0x3,%rdx
   13b40:	48 01 d0             	add    %rdx,%rax
   13b43:	c7 84 85 c0 f0 ff ff 	movl   $0x1,-0xf40(%rbp,%rax,4)
   13b4a:	01 00 00 00 
   13b4e:	83 85 bc ec ff ff 01 	addl   $0x1,-0x1344(%rbp)
   13b55:	83 bd bc ec ff ff 07 	cmpl   $0x7,-0x1344(%rbp)
   13b5c:	7e cd                	jle    13b2b <func_15+0x43a2>
   13b5e:	83 85 b8 ec ff ff 01 	addl   $0x1,-0x1348(%rbp)
   13b65:	83 bd b8 ec ff ff 00 	cmpl   $0x0,-0x1348(%rbp)
   13b6c:	7e b1                	jle    13b1f <func_15+0x4396>
   13b6e:	c7 85 b8 ec ff ff 00 	movl   $0x0,-0x1348(%rbp)
   13b75:	00 00 00 
   13b78:	eb 6a                	jmp    13be4 <func_15+0x445b>
   13b7a:	c7 85 bc ec ff ff 00 	movl   $0x0,-0x1344(%rbp)
   13b81:	00 00 00 
   13b84:	eb 4e                	jmp    13bd4 <func_15+0x444b>
   13b86:	c7 85 c0 ec ff ff 00 	movl   $0x0,-0x1340(%rbp)
   13b8d:	00 00 00 
   13b90:	eb 32                	jmp    13bc4 <func_15+0x443b>
   13b92:	8b 85 c0 ec ff ff    	mov    -0x1340(%rbp),%eax
   13b98:	48 63 c8             	movslq %eax,%rcx
   13b9b:	8b 85 bc ec ff ff    	mov    -0x1344(%rbp),%eax
   13ba1:	48 63 d0             	movslq %eax,%rdx
   13ba4:	8b 85 b8 ec ff ff    	mov    -0x1348(%rbp),%eax
   13baa:	48 98                	cltq   
   13bac:	48 01 ca             	add    %rcx,%rdx
   13baf:	48 01 d0             	add    %rdx,%rax
   13bb2:	c7 84 85 30 f1 ff ff 	movl   $0x87c5c6a8,-0xed0(%rbp,%rax,4)
   13bb9:	a8 c6 c5 87 
   13bbd:	83 85 c0 ec ff ff 01 	addl   $0x1,-0x1340(%rbp)
   13bc4:	83 bd c0 ec ff ff 00 	cmpl   $0x0,-0x1340(%rbp)
   13bcb:	7e c5                	jle    13b92 <func_15+0x4409>
   13bcd:	83 85 bc ec ff ff 01 	addl   $0x1,-0x1344(%rbp)
   13bd4:	83 bd bc ec ff ff 00 	cmpl   $0x0,-0x1344(%rbp)
   13bdb:	7e a9                	jle    13b86 <func_15+0x43fd>
   13bdd:	83 85 b8 ec ff ff 01 	addl   $0x1,-0x1348(%rbp)
   13be4:	83 bd b8 ec ff ff 07 	cmpl   $0x7,-0x1348(%rbp)
   13beb:	7e 8d                	jle    13b7a <func_15+0x43f1>
   13bed:	c7 85 e4 ec ff ff 00 	movl   $0x0,-0x131c(%rbp)
   13bf4:	00 00 00 
   13bf7:	83 bd e4 ec ff ff 01 	cmpl   $0x1,-0x131c(%rbp)
   13bfe:	0f 87 5b 02 00 00    	ja     13e5f <func_15+0x46d6>
   13c04:	48 8d 05 55 9e 00 00 	lea    0x9e55(%rip),%rax        # 1da60 <g_637+0x10>
   13c0b:	48 89 85 68 ef ff ff 	mov    %rax,-0x1098(%rbp)
   13c12:	c6 85 91 ec ff ff 14 	movb   $0x14,-0x136f(%rbp)
   13c19:	48 c7 85 70 ef ff ff 	movq   $0x0,-0x1090(%rbp)
   13c20:	00 00 00 00 
   13c24:	48 8d 05 5d 9e 00 00 	lea    0x9e5d(%rip),%rax        # 1da88 <g_899>
   13c2b:	48 89 85 78 ef ff ff 	mov    %rax,-0x1088(%rbp)
   13c32:	8b 85 78 ec ff ff    	mov    -0x1388(%rbp),%eax
   13c38:	41 89 c5             	mov    %eax,%r13d
   13c3b:	8b 85 7c ec ff ff    	mov    -0x1384(%rbp),%eax
   13c41:	0f be d8             	movsbl %al,%ebx
   13c44:	48 8b 85 68 ef ff ff 	mov    -0x1098(%rbp),%rax
   13c4b:	8b 00                	mov    (%rax),%eax
   13c4d:	8d 48 01             	lea    0x1(%rax),%ecx
   13c50:	48 8b 95 68 ef ff ff 	mov    -0x1098(%rbp),%rdx
   13c57:	89 0a                	mov    %ecx,(%rdx)
   13c59:	89 c2                	mov    %eax,%edx
   13c5b:	0f b6 85 91 ec ff ff 	movzbl -0x136f(%rbp),%eax
   13c62:	21 d0                	and    %edx,%eax
   13c64:	88 85 91 ec ff ff    	mov    %al,-0x136f(%rbp)
   13c6a:	48 8b 05 d7 c5 00 00 	mov    0xc5d7(%rip),%rax        # 20248 <g_955>
   13c71:	48 8b 00             	mov    (%rax),%rax
   13c74:	0f b6 00             	movzbl (%rax),%eax
   13c77:	44 0f be e0          	movsbl %al,%r12d
   13c7b:	8b 85 7c ec ff ff    	mov    -0x1384(%rbp),%eax
   13c81:	0f bf d0             	movswl %ax,%edx
   13c84:	8b 85 78 ec ff ff    	mov    -0x1388(%rbp),%eax
   13c8a:	98                   	cwtl   
   13c8b:	89 d6                	mov    %edx,%esi
   13c8d:	89 c7                	mov    %eax,%edi
   13c8f:	e8 61 67 ff ff       	callq  a3f5 <safe_mul_func_int16_t_s_s>
   13c94:	0f be c0             	movsbl %al,%eax
   13c97:	44 89 e6             	mov    %r12d,%esi
   13c9a:	89 c7                	mov    %eax,%edi
   13c9c:	e8 c9 65 ff ff       	callq  a26a <safe_div_func_int8_t_s_s>
   13ca1:	89 c2                	mov    %eax,%edx
   13ca3:	48 8b 85 c0 ed ff ff 	mov    -0x1240(%rbp),%rax
   13caa:	66 0f be d2          	movsbw %dl,%dx
   13cae:	66 89 10             	mov    %dx,(%rax)
   13cb1:	89 de                	mov    %ebx,%esi
   13cb3:	bf 01 00 00 00       	mov    $0x1,%edi
   13cb8:	e8 ad 65 ff ff       	callq  a26a <safe_div_func_int8_t_s_s>
   13cbd:	0f b6 c0             	movzbl %al,%eax
   13cc0:	44 89 ee             	mov    %r13d,%esi
   13cc3:	89 c7                	mov    %eax,%edi
   13cc5:	e8 f4 6f ff ff       	callq  acbe <safe_rshift_func_uint8_t_u_u>
   13cca:	8b 05 6c 93 00 00    	mov    0x936c(%rip),%eax        # 1d03c <g_99>
   13cd0:	0f b7 c0             	movzwl %ax,%eax
   13cd3:	8b 95 7c ec ff ff    	mov    -0x1384(%rbp),%edx
   13cd9:	89 d6                	mov    %edx,%esi
   13cdb:	89 c7                	mov    %eax,%edi
   13cdd:	e8 66 71 ff ff       	callq  ae48 <safe_rshift_func_uint16_t_u_s>
   13ce2:	48 8b 05 57 c5 00 00 	mov    0xc557(%rip),%rax        # 20240 <g_936>
   13ce9:	48 8b 00             	mov    (%rax),%rax
   13cec:	0f b6 00             	movzbl (%rax),%eax
   13cef:	0f b6 d0             	movzbl %al,%edx
   13cf2:	8b 85 78 ec ff ff    	mov    -0x1388(%rbp),%eax
   13cf8:	39 c2                	cmp    %eax,%edx
   13cfa:	0f 9d c0             	setge  %al
   13cfd:	0f b6 d8             	movzbl %al,%ebx
   13d00:	48 8b 85 88 ee ff ff 	mov    -0x1178(%rbp),%rax
   13d07:	48 8b 00             	mov    (%rax),%rax
   13d0a:	48 8b 00             	mov    (%rax),%rax
   13d0d:	8b 95 7c ec ff ff    	mov    -0x1384(%rbp),%edx
   13d13:	66 89 10             	mov    %dx,(%rax)
   13d16:	0f b7 00             	movzwl (%rax),%eax
   13d19:	98                   	cwtl   
   13d1a:	89 85 d0 f0 ff ff    	mov    %eax,-0xf30(%rbp)
   13d20:	8b 85 d0 f0 ff ff    	mov    -0xf30(%rbp),%eax
   13d26:	98                   	cwtl   
   13d27:	be 01 00 00 00       	mov    $0x1,%esi
   13d2c:	89 c7                	mov    %eax,%edi
   13d2e:	e8 30 68 ff ff       	callq  a563 <safe_rshift_func_int16_t_s_u>
   13d33:	98                   	cwtl   
   13d34:	89 de                	mov    %ebx,%esi
   13d36:	89 c7                	mov    %eax,%edi
   13d38:	e8 b8 66 ff ff       	callq  a3f5 <safe_mul_func_int16_t_s_s>
   13d3d:	0f be c0             	movsbl %al,%eax
   13d40:	89 c6                	mov    %eax,%esi
   13d42:	bf d0 ff ff ff       	mov    $0xffffffd0,%edi
   13d47:	e8 88 64 ff ff       	callq  a1d4 <safe_add_func_int8_t_s_s>
   13d4c:	8b 05 de 92 00 00    	mov    0x92de(%rip),%eax        # 1d030 <g_63>
   13d52:	8d 50 07             	lea    0x7(%rax),%edx
   13d55:	8b 05 d5 92 00 00    	mov    0x92d5(%rip),%eax        # 1d030 <g_63>
   13d5b:	83 c0 01             	add    $0x1,%eax
   13d5e:	48 63 f0             	movslq %eax,%rsi
   13d61:	48 63 c2             	movslq %edx,%rax
   13d64:	8b 8d fc ec ff ff    	mov    -0x1304(%rbp),%ecx
   13d6a:	48 89 c2             	mov    %rax,%rdx
   13d6d:	48 c1 e2 04          	shl    $0x4,%rdx
   13d71:	48 29 c2             	sub    %rax,%rdx
   13d74:	48 89 c8             	mov    %rcx,%rax
   13d77:	48 c1 e0 02          	shl    $0x2,%rax
   13d7b:	48 01 c8             	add    %rcx,%rax
   13d7e:	48 01 d0             	add    %rdx,%rax
   13d81:	48 01 f0             	add    %rsi,%rax
   13d84:	48 8d 14 85 00 00 00 	lea    0x0(,%rax,4),%rdx
   13d8b:	00 
   13d8c:	48 8d 05 ed 9d 00 00 	lea    0x9ded(%rip),%rax        # 1db80 <g_1873>
   13d93:	8b 04 02             	mov    (%rdx,%rax,1),%eax
   13d96:	48 8b 05 f3 cb 00 00 	mov    0xcbf3(%rip),%rax        # 20990 <g_1169>
   13d9d:	c7 00 00 00 00 00    	movl   $0x0,(%rax)
   13da3:	48 8b 85 78 ef ff ff 	mov    -0x1088(%rbp),%rax
   13daa:	48 c7 00 01 00 00 00 	movq   $0x1,(%rax)
   13db1:	48 8b 85 b8 f3 ff ff 	mov    -0xc48(%rbp),%rax
   13db8:	48 85 c0             	test   %rax,%rax
   13dbb:	75 08                	jne    13dc5 <func_15+0x463c>
   13dbd:	8b 85 78 ec ff ff    	mov    -0x1388(%rbp),%eax
   13dc3:	85 c0                	test   %eax,%eax
   13dc5:	48 8b 8d 90 fa ff ff 	mov    -0x570(%rbp),%rcx
   13dcc:	48 8b 95 00 fe ff ff 	mov    -0x200(%rbp),%rdx
   13dd3:	48 8b 85 78 ee ff ff 	mov    -0x1188(%rbp),%rax
   13dda:	48 89 10             	mov    %rdx,(%rax)
   13ddd:	48 8b 85 78 ee ff ff 	mov    -0x1188(%rbp),%rax
   13de4:	48 8b 00             	mov    (%rax),%rax
   13de7:	48 39 c1             	cmp    %rax,%rcx
   13dea:	0f 95 c0             	setne  %al
   13ded:	0f b6 c0             	movzbl %al,%eax
   13df0:	66 89 85 9c ec ff ff 	mov    %ax,-0x1364(%rbp)
   13df7:	0f b7 85 9c ec ff ff 	movzwl -0x1364(%rbp),%eax
   13dfe:	39 85 48 ed ff ff    	cmp    %eax,-0x12b8(%rbp)
   13e04:	0f 95 c0             	setne  %al
   13e07:	0f b6 c0             	movzbl %al,%eax
   13e0a:	be 05 00 00 00       	mov    $0x5,%esi
   13e0f:	89 c7                	mov    %eax,%edi
   13e11:	e8 ef 6d ff ff       	callq  ac05 <safe_lshift_func_uint8_t_u_s>
   13e16:	0f b6 15 1b 92 00 00 	movzbl 0x921b(%rip),%edx        # 1d038 <g_97>
   13e1d:	38 d0                	cmp    %dl,%al
   13e1f:	0f 92 c0             	setb   %al
   13e22:	0f b6 d0             	movzbl %al,%edx
   13e25:	8b 85 78 ec ff ff    	mov    -0x1388(%rbp),%eax
   13e2b:	39 c2                	cmp    %eax,%edx
   13e2d:	0f 95 c0             	setne  %al
   13e30:	0f b6 c8             	movzbl %al,%ecx
   13e33:	48 8b 05 56 cb 00 00 	mov    0xcb56(%rip),%rax        # 20990 <g_1169>
   13e3a:	8b 10                	mov    (%rax),%edx
   13e3c:	48 8b 05 4d cb 00 00 	mov    0xcb4d(%rip),%rax        # 20990 <g_1169>
   13e43:	09 ca                	or     %ecx,%edx
   13e45:	89 10                	mov    %edx,(%rax)
   13e47:	48 8b 05 72 cb 00 00 	mov    0xcb72(%rip),%rax        # 209c0 <g_1536>
   13e4e:	48 8b 00             	mov    (%rax),%rax
   13e51:	48 8b 00             	mov    (%rax),%rax
   13e54:	48 8b 00             	mov    (%rax),%rax
   13e57:	0f b6 00             	movzbl (%rax),%eax
   13e5a:	e9 ac 09 00 00       	jmpq   1480b <func_15+0x5082>
   13e5f:	8b 9d 78 ec ff ff    	mov    -0x1388(%rbp),%ebx
   13e65:	44 8b a5 78 ec ff ff 	mov    -0x1388(%rbp),%r12d
   13e6c:	8b 85 78 ec ff ff    	mov    -0x1388(%rbp),%eax
   13e72:	44 0f bf e8          	movswl %ax,%r13d
   13e76:	44 8b b5 78 ec ff ff 	mov    -0x1388(%rbp),%r14d
   13e7d:	48 8d 05 1c cb 00 00 	lea    0xcb1c(%rip),%rax        # 209a0 <g_1299>
   13e84:	48 8b 00             	mov    (%rax),%rax
   13e87:	48 8b 00             	mov    (%rax),%rax
   13e8a:	48 89 85 70 ec ff ff 	mov    %rax,-0x1390(%rbp)
   13e91:	8b 85 7c ec ff ff    	mov    -0x1384(%rbp),%eax
   13e97:	44 0f bf f8          	movswl %ax,%r15d
   13e9b:	8b 85 78 ec ff ff    	mov    -0x1388(%rbp),%eax
   13ea1:	0f bf d0             	movswl %ax,%edx
   13ea4:	8b 85 7c ec ff ff    	mov    -0x1384(%rbp),%eax
   13eaa:	98                   	cwtl   
   13eab:	89 d6                	mov    %edx,%esi
   13ead:	89 c7                	mov    %eax,%edi
   13eaf:	e8 a1 65 ff ff       	callq  a455 <safe_div_func_int16_t_s_s>
   13eb4:	89 c2                	mov    %eax,%edx
   13eb6:	48 8b 85 f8 ed ff ff 	mov    -0x1208(%rbp),%rax
   13ebd:	48 8b 00             	mov    (%rax),%rax
   13ec0:	48 8b 00             	mov    (%rax),%rax
   13ec3:	0f b7 08             	movzwl (%rax),%ecx
   13ec6:	48 8b 85 f8 ed ff ff 	mov    -0x1208(%rbp),%rax
   13ecd:	48 8b 00             	mov    (%rax),%rax
   13ed0:	48 8b 00             	mov    (%rax),%rax
   13ed3:	31 ca                	xor    %ecx,%edx
   13ed5:	66 89 10             	mov    %dx,(%rax)
   13ed8:	0f b7 00             	movzwl (%rax),%eax
   13edb:	88 85 88 ec ff ff    	mov    %al,-0x1378(%rbp)
   13ee1:	0f b6 85 88 ec ff ff 	movzbl -0x1378(%rbp),%eax
   13ee8:	44 89 fe             	mov    %r15d,%esi
   13eeb:	89 c7                	mov    %eax,%edi
   13eed:	e8 24 65 ff ff       	callq  a416 <safe_mod_func_int16_t_s_s>
   13ef2:	0f be c0             	movsbl %al,%eax
   13ef5:	be 01 00 00 00       	mov    $0x1,%esi
   13efa:	89 c7                	mov    %eax,%edi
   13efc:	e8 d3 62 ff ff       	callq  a1d4 <safe_add_func_int8_t_s_s>
   13f01:	0f be d0             	movsbl %al,%edx
   13f04:	8b 85 78 ec ff ff    	mov    -0x1388(%rbp),%eax
   13f0a:	89 d6                	mov    %edx,%esi
   13f0c:	89 c7                	mov    %eax,%edi
   13f0e:	e8 b9 67 ff ff       	callq  a6cc <safe_mod_func_int32_t_s_s>
   13f13:	85 c0                	test   %eax,%eax
   13f15:	74 10                	je     13f27 <func_15+0x479e>
   13f17:	83 bd 7c ec ff ff 00 	cmpl   $0x0,-0x1384(%rbp)
   13f1e:	74 07                	je     13f27 <func_15+0x479e>
   13f20:	b8 01 00 00 00       	mov    $0x1,%eax
   13f25:	eb 05                	jmp    13f2c <func_15+0x47a3>
   13f27:	b8 00 00 00 00       	mov    $0x0,%eax
   13f2c:	be 96 62 77 ae       	mov    $0xae776296,%esi
   13f31:	89 c7                	mov    %eax,%edi
   13f33:	e8 7e 66 ff ff       	callq  a5b6 <safe_add_func_int32_t_s_s>
   13f38:	0f b7 c0             	movzwl %ax,%eax
   13f3b:	be 0f 00 00 00       	mov    $0xf,%esi
   13f40:	89 c7                	mov    %eax,%edi
   13f42:	e8 01 6f ff ff       	callq  ae48 <safe_rshift_func_uint16_t_u_s>
   13f47:	48 8b 05 42 ca 00 00 	mov    0xca42(%rip),%rax        # 20990 <g_1169>
   13f4e:	44 8b 38             	mov    (%rax),%r15d
   13f51:	8b 85 78 ec ff ff    	mov    -0x1388(%rbp),%eax
   13f57:	0f b6 c0             	movzbl %al,%eax
   13f5a:	be fd 00 00 00       	mov    $0xfd,%esi
   13f5f:	89 c7                	mov    %eax,%edi
   13f61:	e8 f4 6b ff ff       	callq  ab5a <safe_add_func_uint8_t_u_u>
   13f66:	0f b6 c0             	movzbl %al,%eax
   13f69:	41 39 c7             	cmp    %eax,%r15d
   13f6c:	0f 9d c0             	setge  %al
   13f6f:	0f b6 d0             	movzbl %al,%edx
   13f72:	8b 85 38 f1 ff ff    	mov    -0xec8(%rbp),%eax
   13f78:	89 d6                	mov    %edx,%esi
   13f7a:	89 c7                	mov    %eax,%edi
   13f7c:	e8 c1 66 ff ff       	callq  a642 <safe_mul_func_int32_t_s_s>
   13f81:	85 c0                	test   %eax,%eax
   13f83:	0f 9f c0             	setg   %al
   13f86:	0f b6 c0             	movzbl %al,%eax
   13f89:	48 8b b5 70 ec ff ff 	mov    -0x1390(%rbp),%rsi
   13f90:	48 89 c7             	mov    %rax,%rdi
   13f93:	e8 b3 70 ff ff       	callq  b04b <safe_sub_func_uint64_t_u_u>
   13f98:	0f be c0             	movsbl %al,%eax
   13f9b:	be 00 00 00 00       	mov    $0x0,%esi
   13fa0:	89 c7                	mov    %eax,%edi
   13fa2:	e8 47 63 ff ff       	callq  a2ee <safe_lshift_func_int8_t_s_u>
   13fa7:	0f be d0             	movsbl %al,%edx
   13faa:	48 8b 85 50 ee ff ff 	mov    -0x11b0(%rbp),%rax
   13fb1:	8b 00                	mov    (%rax),%eax
   13fb3:	39 c2                	cmp    %eax,%edx
   13fb5:	0f 9f c0             	setg   %al
   13fb8:	0f b6 c0             	movzbl %al,%eax
   13fbb:	44 89 f6             	mov    %r14d,%esi
   13fbe:	89 c7                	mov    %eax,%edi
   13fc0:	e8 40 66 ff ff       	callq  a605 <safe_sub_func_int32_t_s_s>
   13fc5:	0f be c0             	movsbl %al,%eax
   13fc8:	be ec ff ff ff       	mov    $0xffffffec,%esi
   13fcd:	89 c7                	mov    %eax,%edi
   13fcf:	e8 1e 62 ff ff       	callq  a1f2 <safe_sub_func_int8_t_s_s>
   13fd4:	0f be c0             	movsbl %al,%eax
   13fd7:	44 89 ee             	mov    %r13d,%esi
   13fda:	89 c7                	mov    %eax,%edi
   13fdc:	e8 14 64 ff ff       	callq  a3f5 <safe_mul_func_int16_t_s_s>
   13fe1:	98                   	cwtl   
   13fe2:	44 89 e6             	mov    %r12d,%esi
   13fe5:	89 c7                	mov    %eax,%edi
   13fe7:	e8 3e 65 ff ff       	callq  a52a <safe_rshift_func_int16_t_s_s>
   13fec:	66 35 af 1f          	xor    $0x1faf,%ax
   13ff0:	98                   	cwtl   
   13ff1:	89 de                	mov    %ebx,%esi
   13ff3:	89 c7                	mov    %eax,%edi
   13ff5:	e8 98 64 ff ff       	callq  a492 <safe_lshift_func_int16_t_s_s>
   13ffa:	66 85 c0             	test   %ax,%ax
   13ffd:	0f 84 2b 01 00 00    	je     1412e <func_15+0x49a5>
   14003:	c6 85 90 ec ff ff f5 	movb   $0xf5,-0x1370(%rbp)
   1400a:	48 8d 05 d7 e4 00 00 	lea    0xe4d7(%rip),%rax        # 224e8 <g_487>
   14011:	48 89 85 10 ee ff ff 	mov    %rax,-0x11f0(%rbp)
   14018:	48 8d 85 10 ee ff ff 	lea    -0x11f0(%rbp),%rax
   1401f:	48 89 85 60 ef ff ff 	mov    %rax,-0x10a0(%rbp)
   14026:	c6 85 90 ec ff ff 1b 	movb   $0x1b,-0x1370(%rbp)
   1402d:	48 83 bd d8 ee ff ff 	cmpq   $0x0,-0x1128(%rbp)
   14034:	00 
   14035:	0f 94 c0             	sete   %al
   14038:	0f b6 c0             	movzbl %al,%eax
   1403b:	be 1b 00 00 00       	mov    $0x1b,%esi
   14040:	89 c7                	mov    %eax,%edi
   14042:	e8 f6 6c ff ff       	callq  ad3d <safe_mul_func_uint16_t_u_u>
   14047:	66 3d d0 1b          	cmp    $0x1bd0,%ax
   1404b:	0f 96 c0             	setbe  %al
   1404e:	0f b6 d0             	movzbl %al,%edx
   14051:	0f b6 85 88 ec ff ff 	movzbl -0x1378(%rbp),%eax
   14058:	39 c2                	cmp    %eax,%edx
   1405a:	0f 9e c0             	setle  %al
   1405d:	0f b6 d0             	movzbl %al,%edx
   14060:	48 8b 85 60 ef ff ff 	mov    -0x10a0(%rbp),%rax
   14067:	48 8d 0d f2 bd 00 00 	lea    0xbdf2(%rip),%rcx        # 1fe60 <g_486>
   1406e:	48 89 08             	mov    %rcx,(%rax)
   14071:	48 8b 85 60 ef ff ff 	mov    -0x10a0(%rbp),%rax
   14078:	48 8b 00             	mov    (%rax),%rax
   1407b:	48 39 85 38 ef ff ff 	cmp    %rax,-0x10c8(%rbp)
   14082:	0f 95 c0             	setne  %al
   14085:	0f b6 c0             	movzbl %al,%eax
   14088:	39 c2                	cmp    %eax,%edx
   1408a:	0f 9d c0             	setge  %al
   1408d:	0f b6 d0             	movzbl %al,%edx
   14090:	48 8b 05 a9 c1 00 00 	mov    0xc1a9(%rip),%rax        # 20240 <g_936>
   14097:	48 8b 00             	mov    (%rax),%rax
   1409a:	0f b6 00             	movzbl (%rax),%eax
   1409d:	0f b6 c0             	movzbl %al,%eax
   140a0:	39 c2                	cmp    %eax,%edx
   140a2:	0f 9f c0             	setg   %al
   140a5:	0f b6 c0             	movzbl %al,%eax
   140a8:	8b 95 7c ec ff ff    	mov    -0x1384(%rbp),%edx
   140ae:	89 d6                	mov    %edx,%esi
   140b0:	89 c7                	mov    %eax,%edi
   140b2:	e8 4e 6b ff ff       	callq  ac05 <safe_lshift_func_uint8_t_u_s>
   140b7:	80 bd 8e ec ff ff 00 	cmpb   $0x0,-0x1372(%rbp)
   140be:	75 0a                	jne    140ca <func_15+0x4941>
   140c0:	8b 85 78 ec ff ff    	mov    -0x1388(%rbp),%eax
   140c6:	85 c0                	test   %eax,%eax
   140c8:	74 07                	je     140d1 <func_15+0x4948>
   140ca:	b8 01 00 00 00       	mov    $0x1,%eax
   140cf:	eb 05                	jmp    140d6 <func_15+0x494d>
   140d1:	b8 00 00 00 00       	mov    $0x0,%eax
   140d6:	3b 85 7c ec ff ff    	cmp    -0x1384(%rbp),%eax
   140dc:	0f 9c c0             	setl   %al
   140df:	0f b6 c0             	movzbl %al,%eax
   140e2:	be 07 00 00 00       	mov    $0x7,%esi
   140e7:	89 c7                	mov    %eax,%edi
   140e9:	e8 a5 6a ff ff       	callq  ab93 <safe_mul_func_uint8_t_u_u>
   140ee:	0f b6 d0             	movzbl %al,%edx
   140f1:	48 8d 05 a8 c8 00 00 	lea    0xc8a8(%rip),%rax        # 209a0 <g_1299>
   140f8:	48 8b 00             	mov    (%rax),%rax
   140fb:	48 8b 00             	mov    (%rax),%rax
   140fe:	48 39 c2             	cmp    %rax,%rdx
   14101:	0f 95 c0             	setne  %al
   14104:	0f b6 c8             	movzbl %al,%ecx
   14107:	48 8b 05 82 c8 00 00 	mov    0xc882(%rip),%rax        # 20990 <g_1169>
   1410e:	8b 10                	mov    (%rax),%edx
   14110:	48 8b 05 79 c8 00 00 	mov    0xc879(%rip),%rax        # 20990 <g_1169>
   14117:	31 ca                	xor    %ecx,%edx
   14119:	89 10                	mov    %edx,(%rax)
   1411b:	8b 85 78 ec ff ff    	mov    -0x1388(%rbp),%eax
   14121:	85 c0                	test   %eax,%eax
   14123:	0f 84 91 01 00 00    	je     142ba <func_15+0x4b31>
   14129:	e9 a0 01 00 00       	jmpq   142ce <func_15+0x4b45>
   1412e:	48 8d 85 f8 ed ff ff 	lea    -0x1208(%rbp),%rax
   14135:	48 89 85 58 ef ff ff 	mov    %rax,-0x10a8(%rbp)
   1413c:	c7 85 50 f0 ff ff ff 	movl   $0xffffffff,-0xfb0(%rbp)
   14143:	ff ff ff 
   14146:	c7 85 54 f0 ff ff ff 	movl   $0xffffffff,-0xfac(%rbp)
   1414d:	ff ff ff 
   14150:	c7 85 58 f0 ff ff ff 	movl   $0xffffffff,-0xfa8(%rbp)
   14157:	ff ff ff 
   1415a:	c7 85 5c f0 ff ff ff 	movl   $0xffffffff,-0xfa4(%rbp)
   14161:	ff ff ff 
   14164:	c7 85 60 f0 ff ff ff 	movl   $0xffffffff,-0xfa0(%rbp)
   1416b:	ff ff ff 
   1416e:	0f b7 85 0a f6 ff ff 	movzwl -0x9f6(%rbp),%eax
   14175:	0f b7 d8             	movzwl %ax,%ebx
   14178:	48 8b 15 09 99 00 00 	mov    0x9909(%rip),%rdx        # 1da88 <g_899>
   1417f:	48 8b 85 c0 ed ff ff 	mov    -0x1240(%rbp),%rax
   14186:	66 89 10             	mov    %dx,(%rax)
   14189:	0f b7 00             	movzwl (%rax),%eax
   1418c:	44 0f b7 e8          	movzwl %ax,%r13d
   14190:	8b 85 78 ec ff ff    	mov    -0x1388(%rbp),%eax
   14196:	44 0f be e0          	movsbl %al,%r12d
   1419a:	8b 95 d0 f0 ff ff    	mov    -0xf30(%rbp),%edx
   141a0:	48 8b 05 a1 c0 00 00 	mov    0xc0a1(%rip),%rax        # 20248 <g_955>
   141a7:	48 8b 00             	mov    (%rax),%rax
   141aa:	8b 8d 7c ec ff ff    	mov    -0x1384(%rbp),%ecx
   141b0:	88 08                	mov    %cl,(%rax)
   141b2:	0f b6 08             	movzbl (%rax),%ecx
   141b5:	48 8b 85 30 ef ff ff 	mov    -0x10d0(%rbp),%rax
   141bc:	88 08                	mov    %cl,(%rax)
   141be:	48 8b 85 30 ef ff ff 	mov    -0x10d0(%rbp),%rax
   141c5:	0f b6 00             	movzbl (%rax),%eax
   141c8:	3c 52                	cmp    $0x52,%al
   141ca:	0f 95 c0             	setne  %al
   141cd:	0f b6 c0             	movzbl %al,%eax
   141d0:	89 d6                	mov    %edx,%esi
   141d2:	89 c7                	mov    %eax,%edi
   141d4:	e8 08 63 ff ff       	callq  a4e1 <safe_lshift_func_int16_t_s_u>
   141d9:	0f be c0             	movsbl %al,%eax
   141dc:	44 89 e6             	mov    %r12d,%esi
   141df:	89 c7                	mov    %eax,%edi
   141e1:	e8 2c 60 ff ff       	callq  a212 <safe_mul_func_int8_t_s_s>
   141e6:	66 98                	cbtw   
   141e8:	0f b7 c0             	movzwl %ax,%eax
   141eb:	be d3 b4 00 00       	mov    $0xb4d3,%esi
   141f0:	89 c7                	mov    %eax,%edi
   141f2:	e8 46 6b ff ff       	callq  ad3d <safe_mul_func_uint16_t_u_u>
   141f7:	66 85 c0             	test   %ax,%ax
   141fa:	75 07                	jne    14203 <func_15+0x4a7a>
   141fc:	83 bd 7c ec ff ff 00 	cmpl   $0x0,-0x1384(%rbp)
   14203:	48 8b 05 9e c7 00 00 	mov    0xc79e(%rip),%rax        # 209a8 <g_1297>
   1420a:	48 8b 00             	mov    (%rax),%rax
   1420d:	48 8b 00             	mov    (%rax),%rax
   14210:	48 8b 10             	mov    (%rax),%rdx
   14213:	48 8b 85 58 ef ff ff 	mov    -0x10a8(%rbp),%rax
   1421a:	48 8d 0d e7 cf 00 00 	lea    0xcfe7(%rip),%rcx        # 21208 <g_1540+0x28>
   14221:	48 89 08             	mov    %rcx,(%rax)
   14224:	48 8b 85 58 ef ff ff 	mov    -0x10a8(%rbp),%rax
   1422b:	48 8b 00             	mov    (%rax),%rax
   1422e:	48 39 85 40 ef ff ff 	cmp    %rax,-0x10c0(%rbp)
   14235:	0f 95 c0             	setne  %al
   14238:	0f b6 c8             	movzbl %al,%ecx
   1423b:	8b 85 78 ec ff ff    	mov    -0x1388(%rbp),%eax
   14241:	39 c1                	cmp    %eax,%ecx
   14243:	0f 9d c0             	setge  %al
   14246:	0f b6 c0             	movzbl %al,%eax
   14249:	48 39 c2             	cmp    %rax,%rdx
   1424c:	0f 9f c0             	setg   %al
   1424f:	0f b6 c0             	movzbl %al,%eax
   14252:	be 01 00 00 00       	mov    $0x1,%esi
   14257:	48 89 c7             	mov    %rax,%rdi
   1425a:	e8 55 67 ff ff       	callq  a9b4 <safe_mod_func_int64_t_s_s>
   1425f:	48 85 c0             	test   %rax,%rax
   14262:	75 09                	jne    1426d <func_15+0x4ae4>
   14264:	83 bd 7c ec ff ff 00 	cmpl   $0x0,-0x1384(%rbp)
   1426b:	74 07                	je     14274 <func_15+0x4aeb>
   1426d:	b8 01 00 00 00       	mov    $0x1,%eax
   14272:	eb 05                	jmp    14279 <func_15+0x4af0>
   14274:	b8 00 00 00 00       	mov    $0x0,%eax
   14279:	44 39 e8             	cmp    %r13d,%eax
   1427c:	0f 9c c0             	setl   %al
   1427f:	0f b6 d0             	movzbl %al,%edx
   14282:	8b 85 58 f0 ff ff    	mov    -0xfa8(%rbp),%eax
   14288:	09 d0                	or     %edx,%eax
   1428a:	48 98                	cltq   
   1428c:	48 89 de             	mov    %rbx,%rsi
   1428f:	48 89 c7             	mov    %rax,%rdi
   14292:	e8 1d 67 ff ff       	callq  a9b4 <safe_mod_func_int64_t_s_s>
   14297:	48 8b 15 f2 c6 00 00 	mov    0xc6f2(%rip),%rdx        # 20990 <g_1169>
   1429e:	8b 12                	mov    (%rdx),%edx
   142a0:	89 c1                	mov    %eax,%ecx
   142a2:	48 8b 05 e7 c6 00 00 	mov    0xc6e7(%rip),%rax        # 20990 <g_1169>
   142a9:	21 ca                	and    %ecx,%edx
   142ab:	89 10                	mov    %edx,(%rax)
   142ad:	48 8b 05 dc c6 00 00 	mov    0xc6dc(%rip),%rax        # 20990 <g_1169>
   142b4:	c7 00 8b 92 41 b3    	movl   $0xb341928b,(%rax)
   142ba:	83 85 fc ec ff ff 01 	addl   $0x1,-0x1304(%rbp)
   142c1:	83 bd fc ec ff ff 01 	cmpl   $0x1,-0x1304(%rbp)
   142c8:	0f 86 4d f6 ff ff    	jbe    1391b <func_15+0x4192>
   142ce:	8b 85 78 ec ff ff    	mov    -0x1388(%rbp),%eax
   142d4:	85 c0                	test   %eax,%eax
   142d6:	0f 85 e9 04 00 00    	jne    147c5 <func_15+0x503c>
   142dc:	48 8b 05 65 bf 00 00 	mov    0xbf65(%rip),%rax        # 20248 <g_955>
   142e3:	48 8b 10             	mov    (%rax),%rdx
   142e6:	48 8b 05 4b bf 00 00 	mov    0xbf4b(%rip),%rax        # 20238 <g_937>
   142ed:	0f b6 12             	movzbl (%rdx),%edx
   142f0:	88 10                	mov    %dl,(%rax)
   142f2:	0f b6 00             	movzbl (%rax),%eax
   142f5:	3c 11                	cmp    $0x11,%al
   142f7:	0f 84 7e 03 00 00    	je     1467b <func_15+0x4ef2>
   142fd:	48 c7 85 d0 f5 ff ff 	movq   $0xfffffffffffffffe,-0xa30(%rbp)
   14304:	fe ff ff ff 
   14308:	48 c7 85 d8 f5 ff ff 	movq   $0xfffffffffffffffe,-0xa28(%rbp)
   1430f:	fe ff ff ff 
   14313:	48 c7 85 e0 f5 ff ff 	movq   $0xfffffffffffffffe,-0xa20(%rbp)
   1431a:	fe ff ff ff 
   1431e:	48 c7 85 e8 f5 ff ff 	movq   $0xfffffffffffffffe,-0xa18(%rbp)
   14325:	fe ff ff ff 
   14329:	48 c7 85 f0 f5 ff ff 	movq   $0xfffffffffffffffe,-0xa10(%rbp)
   14330:	fe ff ff ff 
   14334:	48 c7 85 f8 f5 ff ff 	movq   $0xfffffffffffffffe,-0xa08(%rbp)
   1433b:	fe ff ff ff 
   1433f:	48 c7 85 00 f6 ff ff 	movq   $0xfffffffffffffffe,-0xa00(%rbp)
   14346:	fe ff ff ff 
   1434a:	48 c7 85 08 f6 ff ff 	movq   $0xfffffffffffffffe,-0x9f8(%rbp)
   14351:	fe ff ff ff 
   14355:	c7 85 f4 ec ff ff 01 	movl   $0x1,-0x130c(%rbp)
   1435c:	00 00 00 
   1435f:	e9 fd 00 00 00       	jmpq   14461 <func_15+0x4cd8>
   14364:	c6 85 94 ec ff ff fa 	movb   $0xfa,-0x136c(%rbp)
   1436b:	48 8b 05 2e c6 00 00 	mov    0xc62e(%rip),%rax        # 209a0 <g_1299>
   14372:	48 8b 18             	mov    (%rax),%rbx
   14375:	be 07 00 00 00       	mov    $0x7,%esi
   1437a:	bf 9c ff ff ff       	mov    $0xffffff9c,%edi
   1437f:	e8 1d 5f ff ff       	callq  a2a1 <safe_lshift_func_int8_t_s_s>
   14384:	48 0f be c0          	movsbq %al,%rax
   14388:	48 89 de             	mov    %rbx,%rsi
   1438b:	48 89 c7             	mov    %rax,%rdi
   1438e:	e8 21 66 ff ff       	callq  a9b4 <safe_mod_func_int64_t_s_s>
   14393:	8b 85 7c ec ff ff    	mov    -0x1384(%rbp),%eax
   14399:	83 f0 01             	xor    $0x1,%eax
   1439c:	89 c6                	mov    %eax,%esi
   1439e:	8b 85 f4 ec ff ff    	mov    -0x130c(%rbp),%eax
   143a4:	48 63 d0             	movslq %eax,%rdx
   143a7:	48 89 d0             	mov    %rdx,%rax
   143aa:	48 01 c0             	add    %rax,%rax
   143ad:	48 01 d0             	add    %rdx,%rax
   143b0:	48 c1 e0 02          	shl    $0x2,%rax
   143b4:	48 89 c2             	mov    %rax,%rdx
   143b7:	48 8d 05 82 94 00 00 	lea    0x9482(%rip),%rax        # 1d840 <g_115>
   143be:	8b 04 02             	mov    (%rdx,%rax,1),%eax
   143c1:	8d 48 ff             	lea    -0x1(%rax),%ecx
   143c4:	8b 85 f4 ec ff ff    	mov    -0x130c(%rbp),%eax
   143ca:	48 63 d0             	movslq %eax,%rdx
   143cd:	48 89 d0             	mov    %rdx,%rax
   143d0:	48 01 c0             	add    %rax,%rax
   143d3:	48 01 d0             	add    %rdx,%rax
   143d6:	48 c1 e0 02          	shl    $0x2,%rax
   143da:	48 89 c2             	mov    %rax,%rdx
   143dd:	48 8d 05 5c 94 00 00 	lea    0x945c(%rip),%rax        # 1d840 <g_115>
   143e4:	89 0c 02             	mov    %ecx,(%rdx,%rax,1)
   143e7:	8b 85 f4 ec ff ff    	mov    -0x130c(%rbp),%eax
   143ed:	48 63 d0             	movslq %eax,%rdx
   143f0:	48 89 d0             	mov    %rdx,%rax
   143f3:	48 01 c0             	add    %rax,%rax
   143f6:	48 01 d0             	add    %rdx,%rax
   143f9:	48 c1 e0 02          	shl    $0x2,%rax
   143fd:	48 89 c2             	mov    %rax,%rdx
   14400:	48 8d 05 39 94 00 00 	lea    0x9439(%rip),%rax        # 1d840 <g_115>
   14407:	8b 04 02             	mov    (%rdx,%rax,1),%eax
   1440a:	89 c7                	mov    %eax,%edi
   1440c:	e8 a7 6a ff ff       	callq  aeb8 <safe_add_func_uint32_t_u_u>
   14411:	89 c1                	mov    %eax,%ecx
   14413:	8b 85 7c ec ff ff    	mov    -0x1384(%rbp),%eax
   14419:	89 c2                	mov    %eax,%edx
   1441b:	48 8b 05 9e c5 00 00 	mov    0xc59e(%rip),%rax        # 209c0 <g_1536>
   14422:	48 8b 00             	mov    (%rax),%rax
   14425:	48 8b 00             	mov    (%rax),%rax
   14428:	48 8b 00             	mov    (%rax),%rax
   1442b:	31 ca                	xor    %ecx,%edx
   1442d:	88 10                	mov    %dl,(%rax)
   1442f:	c7 85 78 ec ff ff 01 	movl   $0x1,-0x1388(%rbp)
   14436:	00 00 00 
   14439:	48 8b 85 08 f6 ff ff 	mov    -0x9f8(%rbp),%rax
   14440:	48 83 e8 01          	sub    $0x1,%rax
   14444:	48 89 85 08 f6 ff ff 	mov    %rax,-0x9f8(%rbp)
   1444b:	48 8b 05 3e c5 00 00 	mov    0xc53e(%rip),%rax        # 20990 <g_1169>
   14452:	8b 95 78 ec ff ff    	mov    -0x1388(%rbp),%edx
   14458:	89 10                	mov    %edx,(%rax)
   1445a:	83 ad f4 ec ff ff 01 	subl   $0x1,-0x130c(%rbp)
   14461:	83 bd f4 ec ff ff 00 	cmpl   $0x0,-0x130c(%rbp)
   14468:	0f 89 f6 fe ff ff    	jns    14364 <func_15+0x4bdb>
   1446e:	48 8b 05 db b9 00 00 	mov    0xb9db(%rip),%rax        # 1fe50 <g_56>
   14475:	0f b7 00             	movzwl (%rax),%eax
   14478:	44 0f bf e0          	movswl %ax,%r12d
   1447c:	8b 9d 78 ec ff ff    	mov    -0x1388(%rbp),%ebx
   14482:	44 8b ad 7c ec ff ff 	mov    -0x1384(%rbp),%r13d
   14489:	48 8b 85 f8 f5 ff ff 	mov    -0xa08(%rbp),%rax
   14490:	41 89 c6             	mov    %eax,%r14d
   14493:	0f b6 95 88 ec ff ff 	movzbl -0x1378(%rbp),%edx
   1449a:	8b 85 7c ec ff ff    	mov    -0x1384(%rbp),%eax
   144a0:	89 c1                	mov    %eax,%ecx
   144a2:	48 8b 85 30 ef ff ff 	mov    -0x10d0(%rbp),%rax
   144a9:	88 08                	mov    %cl,(%rax)
   144ab:	48 8b 85 30 ef ff ff 	mov    -0x10d0(%rbp),%rax
   144b2:	0f b6 00             	movzbl (%rax),%eax
   144b5:	84 c0                	test   %al,%al
   144b7:	74 10                	je     144c9 <func_15+0x4d40>
   144b9:	80 bd 88 ec ff ff 00 	cmpb   $0x0,-0x1378(%rbp)
   144c0:	74 07                	je     144c9 <func_15+0x4d40>
   144c2:	b8 01 00 00 00       	mov    $0x1,%eax
   144c7:	eb 05                	jmp    144ce <func_15+0x4d45>
   144c9:	b8 00 00 00 00       	mov    $0x0,%eax
   144ce:	48 98                	cltq   
   144d0:	48 89 d6             	mov    %rdx,%rsi
   144d3:	48 89 c7             	mov    %rax,%rdi
   144d6:	e8 cd 63 ff ff       	callq  a8a8 <safe_sub_func_int64_t_s_s>
   144db:	8b 95 7c ec ff ff    	mov    -0x1384(%rbp),%edx
   144e1:	48 63 d2             	movslq %edx,%rdx
   144e4:	48 39 d0             	cmp    %rdx,%rax
   144e7:	0f 95 c0             	setne  %al
   144ea:	0f b6 c0             	movzbl %al,%eax
   144ed:	44 89 f6             	mov    %r14d,%esi
   144f0:	89 c7                	mov    %eax,%edi
   144f2:	e8 96 67 ff ff       	callq  ac8d <safe_rshift_func_uint8_t_u_s>
   144f7:	48 8b 85 50 ee ff ff 	mov    -0x11b0(%rbp),%rax
   144fe:	44 8b 30             	mov    (%rax),%r14d
   14501:	48 8b 85 e8 f5 ff ff 	mov    -0xa18(%rbp),%rax
   14508:	89 c2                	mov    %eax,%edx
   1450a:	8b 85 b4 ec ff ff    	mov    -0x134c(%rbp),%eax
   14510:	89 d6                	mov    %edx,%esi
   14512:	89 c7                	mov    %eax,%edi
   14514:	e8 ec 60 ff ff       	callq  a605 <safe_sub_func_int32_t_s_s>
   14519:	44 89 f2             	mov    %r14d,%edx
   1451c:	09 c2                	or     %eax,%edx
   1451e:	8b 85 78 ec ff ff    	mov    -0x1388(%rbp),%eax
   14524:	39 c2                	cmp    %eax,%edx
   14526:	0f 95 c0             	setne  %al
   14529:	0f b6 d0             	movzbl %al,%edx
   1452c:	0f b6 85 f4 f1 ff ff 	movzbl -0xe0c(%rbp),%eax
   14533:	0f b6 c0             	movzbl %al,%eax
   14536:	39 c2                	cmp    %eax,%edx
   14538:	0f 95 c0             	setne  %al
   1453b:	0f b6 d0             	movzbl %al,%edx
   1453e:	0f b6 05 b3 93 00 00 	movzbl 0x93b3(%rip),%eax        # 1d8f8 <g_153>
   14545:	0f be c0             	movsbl %al,%eax
   14548:	39 c2                	cmp    %eax,%edx
   1454a:	0f 9e c0             	setle  %al
   1454d:	0f b6 c0             	movzbl %al,%eax
   14550:	44 89 ee             	mov    %r13d,%esi
   14553:	89 c7                	mov    %eax,%edi
   14555:	e8 87 5f ff ff       	callq  a4e1 <safe_lshift_func_int16_t_s_u>
   1455a:	83 bd 7c ec ff ff 00 	cmpl   $0x0,-0x1384(%rbp)
   14561:	0f 9f c0             	setg   %al
   14564:	0f b6 c0             	movzbl %al,%eax
   14567:	89 de                	mov    %ebx,%esi
   14569:	89 c7                	mov    %eax,%edi
   1456b:	e8 c5 5d ff ff       	callq  a335 <safe_rshift_func_int8_t_s_s>
   14570:	0f b6 d0             	movzbl %al,%edx
   14573:	48 8b 85 60 ee ff ff 	mov    -0x11a0(%rbp),%rax
   1457a:	0f b6 c0             	movzbl %al,%eax
   1457d:	89 d6                	mov    %edx,%esi
   1457f:	89 c7                	mov    %eax,%edi
   14581:	e8 0d 66 ff ff       	callq  ab93 <safe_mul_func_uint8_t_u_u>
   14586:	0f b6 d0             	movzbl %al,%edx
   14589:	0f b6 05 3b 98 00 00 	movzbl 0x983b(%rip),%eax        # 1ddcb <g_2215>
   14590:	0f b6 c0             	movzbl %al,%eax
   14593:	89 d6                	mov    %edx,%esi
   14595:	89 c7                	mov    %eax,%edi
   14597:	e8 1c 69 ff ff       	callq  aeb8 <safe_add_func_uint32_t_u_u>
   1459c:	f7 d0                	not    %eax
   1459e:	0f b7 c0             	movzwl %ax,%eax
   145a1:	be 0e 00 00 00       	mov    $0xe,%esi
   145a6:	89 c7                	mov    %eax,%edi
   145a8:	e8 59 68 ff ff       	callq  ae06 <safe_lshift_func_uint16_t_u_u>
   145ad:	0f b7 c0             	movzwl %ax,%eax
   145b0:	39 85 7c ec ff ff    	cmp    %eax,-0x1384(%rbp)
   145b6:	0f 95 c0             	setne  %al
   145b9:	0f b6 d0             	movzbl %al,%edx
   145bc:	48 8b 05 8d b8 00 00 	mov    0xb88d(%rip),%rax        # 1fe50 <g_56>
   145c3:	0f b7 00             	movzwl (%rax),%eax
   145c6:	98                   	cwtl   
   145c7:	39 c2                	cmp    %eax,%edx
   145c9:	0f 95 c0             	setne  %al
   145cc:	0f b6 c0             	movzbl %al,%eax
   145cf:	48 8b 9d c0 ed ff ff 	mov    -0x1240(%rbp),%rbx
   145d6:	be 08 00 00 00       	mov    $0x8,%esi
   145db:	89 c7                	mov    %eax,%edi
   145dd:	e8 98 68 ff ff       	callq  ae7a <safe_rshift_func_uint16_t_u_u>
   145e2:	66 89 03             	mov    %ax,(%rbx)
   145e5:	0f b7 03             	movzwl (%rbx),%eax
   145e8:	0f b7 c0             	movzwl %ax,%eax
   145eb:	be 0a 00 00 00       	mov    $0xa,%esi
   145f0:	89 c7                	mov    %eax,%edi
   145f2:	e8 c7 67 ff ff       	callq  adbe <safe_lshift_func_uint16_t_u_s>
   145f7:	0f b7 d0             	movzwl %ax,%edx
   145fa:	48 8b 05 4f b8 00 00 	mov    0xb84f(%rip),%rax        # 1fe50 <g_56>
   14601:	0f b7 00             	movzwl (%rax),%eax
   14604:	98                   	cwtl   
   14605:	21 c2                	and    %eax,%edx
   14607:	8b 85 78 ec ff ff    	mov    -0x1388(%rbp),%eax
   1460d:	39 c2                	cmp    %eax,%edx
   1460f:	0f 95 c2             	setne  %dl
   14612:	48 8b 05 1f bc 00 00 	mov    0xbc1f(%rip),%rax        # 20238 <g_937>
   14619:	88 10                	mov    %dl,(%rax)
   1461b:	0f b6 00             	movzbl (%rax),%eax
   1461e:	83 c8 1b             	or     $0x1b,%eax
   14621:	0f b6 c0             	movzbl %al,%eax
   14624:	44 89 e6             	mov    %r12d,%esi
   14627:	89 c7                	mov    %eax,%edi
   14629:	e8 c7 5d ff ff       	callq  a3f5 <safe_mul_func_int16_t_s_s>
   1462e:	8b 95 3c f0 ff ff    	mov    -0xfc4(%rbp),%edx
   14634:	98                   	cwtl   
   14635:	31 d0                	xor    %edx,%eax
   14637:	89 85 3c f0 ff ff    	mov    %eax,-0xfc4(%rbp)
   1463d:	66 c7 05 b4 92 00 00 	movw   $0x0,0x92b4(%rip)        # 1d8fa <g_159>
   14644:	00 00 
   14646:	90                   	nop
   14647:	0f b7 05 ac 92 00 00 	movzwl 0x92ac(%rip),%eax        # 1d8fa <g_159>
   1464e:	66 85 c0             	test   %ax,%ax
   14651:	7f 0b                	jg     1465e <func_15+0x4ed5>
   14653:	8b 85 54 ed ff ff    	mov    -0x12ac(%rbp),%eax
   14659:	e9 ad 01 00 00       	jmpq   1480b <func_15+0x5082>
   1465e:	48 8b 05 2b c3 00 00 	mov    0xc32b(%rip),%rax        # 20990 <g_1169>
   14665:	8b 10                	mov    (%rax),%edx
   14667:	48 8b 05 22 c3 00 00 	mov    0xc322(%rip),%rax        # 20990 <g_1169>
   1466e:	0b 95 7c ec ff ff    	or     -0x1384(%rbp),%edx
   14674:	89 10                	mov    %edx,(%rax)
   14676:	e9 03 01 00 00       	jmpq   1477e <func_15+0x4ff5>
   1467b:	c6 85 92 ec ff ff 00 	movb   $0x0,-0x136e(%rbp)
   14682:	0f b6 05 47 97 00 00 	movzbl 0x9747(%rip),%eax        # 1ddd0 <g_2235+0x4>
   14689:	0f b6 d0             	movzbl %al,%edx
   1468c:	83 bd 58 ed ff ff 00 	cmpl   $0x0,-0x12a8(%rbp)
   14693:	75 09                	jne    1469e <func_15+0x4f15>
   14695:	80 bd 92 ec ff ff 00 	cmpb   $0x0,-0x136e(%rbp)
   1469c:	74 07                	je     146a5 <func_15+0x4f1c>
   1469e:	b8 01 00 00 00       	mov    $0x1,%eax
   146a3:	eb 05                	jmp    146aa <func_15+0x4f21>
   146a5:	b8 00 00 00 00       	mov    $0x0,%eax
   146aa:	98                   	cwtl   
   146ab:	89 d6                	mov    %edx,%esi
   146ad:	89 c7                	mov    %eax,%edi
   146af:	e8 ff 5c ff ff       	callq  a3b3 <safe_add_func_int16_t_s_s>
   146b4:	89 c2                	mov    %eax,%edx
   146b6:	48 8b 05 db b7 00 00 	mov    0xb7db(%rip),%rax        # 1fe98 <g_662>
   146bd:	0f bf d2             	movswl %dx,%edx
   146c0:	89 10                	mov    %edx,(%rax)
   146c2:	8b 00                	mov    (%rax),%eax
   146c4:	09 85 f8 ec ff ff    	or     %eax,-0x1308(%rbp)
   146ca:	48 8b 05 17 d6 00 00 	mov    0xd617(%rip),%rax        # 21ce8 <g_1994>
   146d1:	48 8b 00             	mov    (%rax),%rax
   146d4:	48 8b 00             	mov    (%rax),%rax
   146d7:	0f b7 00             	movzwl (%rax),%eax
   146da:	98                   	cwtl   
   146db:	23 85 7c ec ff ff    	and    -0x1384(%rbp),%eax
   146e1:	89 c2                	mov    %eax,%edx
   146e3:	8b 85 78 ec ff ff    	mov    -0x1388(%rbp),%eax
   146e9:	09 d0                	or     %edx,%eax
   146eb:	89 85 78 ec ff ff    	mov    %eax,-0x1388(%rbp)
   146f1:	48 8b 05 98 c2 00 00 	mov    0xc298(%rip),%rax        # 20990 <g_1169>
   146f8:	c7 00 01 00 00 00    	movl   $0x1,(%rax)
   146fe:	c6 05 33 89 00 00 00 	movb   $0x0,0x8933(%rip)        # 1d038 <g_97>
   14705:	eb 6c                	jmp    14773 <func_15+0x4fea>
   14707:	c6 85 93 ec ff ff 00 	movb   $0x0,-0x136d(%rbp)
   1470e:	0f b6 85 93 ec ff ff 	movzbl -0x136d(%rbp),%eax
   14715:	83 c0 01             	add    $0x1,%eax
   14718:	88 85 93 ec ff ff    	mov    %al,-0x136d(%rbp)
   1471e:	8b 85 7c ec ff ff    	mov    -0x1384(%rbp),%eax
   14724:	0f b7 c0             	movzwl %ax,%eax
   14727:	be 06 00 00 00       	mov    $0x6,%esi
   1472c:	89 c7                	mov    %eax,%edi
   1472e:	e8 d3 66 ff ff       	callq  ae06 <safe_lshift_func_uint16_t_u_u>
   14733:	89 c2                	mov    %eax,%edx
   14735:	48 8b 05 54 c2 00 00 	mov    0xc254(%rip),%rax        # 20990 <g_1169>
   1473c:	0f b7 d2             	movzwl %dx,%edx
   1473f:	89 10                	mov    %edx,(%rax)
   14741:	48 8b 05 48 c2 00 00 	mov    0xc248(%rip),%rax        # 20990 <g_1169>
   14748:	8b 08                	mov    (%rax),%ecx
   1474a:	0f b6 95 88 ec ff ff 	movzbl -0x1378(%rbp),%edx
   14751:	48 8b 05 38 c2 00 00 	mov    0xc238(%rip),%rax        # 20990 <g_1169>
   14758:	31 ca                	xor    %ecx,%edx
   1475a:	89 10                	mov    %edx,(%rax)
   1475c:	80 85 89 ec ff ff 01 	addb   $0x1,-0x1377(%rbp)
   14763:	0f b6 05 ce 88 00 00 	movzbl 0x88ce(%rip),%eax        # 1d038 <g_97>
   1476a:	83 c0 01             	add    $0x1,%eax
   1476d:	88 05 c5 88 00 00    	mov    %al,0x88c5(%rip)        # 1d038 <g_97>
   14773:	0f b6 05 be 88 00 00 	movzbl 0x88be(%rip),%eax        # 1d038 <g_97>
   1477a:	84 c0                	test   %al,%al
   1477c:	74 89                	je     14707 <func_15+0x4f7e>
   1477e:	8b 85 78 ec ff ff    	mov    -0x1388(%rbp),%eax
   14784:	85 c0                	test   %eax,%eax
   14786:	75 40                	jne    147c8 <func_15+0x503f>
   14788:	48 83 ad 18 ee ff ff 	subq   $0x1,-0x11e8(%rbp)
   1478f:	01 
   14790:	48 c7 05 55 93 00 00 	movq   $0x0,0x9355(%rip)        # 1daf0 <g_1488>
   14797:	00 00 00 00 
   1479b:	eb 1a                	jmp    147b7 <func_15+0x502e>
   1479d:	48 83 ad 20 ee ff ff 	subq   $0x1,-0x11e0(%rbp)
   147a4:	01 
   147a5:	48 8b 05 44 93 00 00 	mov    0x9344(%rip),%rax        # 1daf0 <g_1488>
   147ac:	48 83 c0 01          	add    $0x1,%rax
   147b0:	48 89 05 39 93 00 00 	mov    %rax,0x9339(%rip)        # 1daf0 <g_1488>
   147b7:	48 8b 05 32 93 00 00 	mov    0x9332(%rip),%rax        # 1daf0 <g_1488>
   147be:	48 85 c0             	test   %rax,%rax
   147c1:	74 da                	je     1479d <func_15+0x5014>
   147c3:	eb 04                	jmp    147c9 <func_15+0x5040>
   147c5:	90                   	nop
   147c6:	eb 01                	jmp    147c9 <func_15+0x5040>
   147c8:	90                   	nop
   147c9:	8b 05 61 88 00 00    	mov    0x8861(%rip),%eax        # 1d030 <g_63>
   147cf:	83 c0 01             	add    $0x1,%eax
   147d2:	89 05 58 88 00 00    	mov    %eax,0x8858(%rip)        # 1d030 <g_63>
   147d8:	8b 05 52 88 00 00    	mov    0x8852(%rip),%eax        # 1d030 <g_63>
   147de:	83 f8 01             	cmp    $0x1,%eax
   147e1:	0f 8e f0 c7 ff ff    	jle    10fd7 <func_15+0x184e>
   147e7:	48 8b 05 a2 c1 00 00 	mov    0xc1a2(%rip),%rax        # 20990 <g_1169>
   147ee:	8b 08                	mov    (%rax),%ecx
   147f0:	0f bf 95 9e ec ff ff 	movswl -0x1362(%rbp),%edx
   147f7:	48 8b 05 92 c1 00 00 	mov    0xc192(%rip),%rax        # 20990 <g_1169>
   147fe:	21 ca                	and    %ecx,%edx
   14800:	89 10                	mov    %edx,(%rax)
   14802:	48 8b 85 50 ee ff ff 	mov    -0x11b0(%rbp),%rax
   14809:	8b 00                	mov    (%rax),%eax
   1480b:	48 8b 5d c8          	mov    -0x38(%rbp),%rbx
   1480f:	64 48 33 1c 25 28 00 	xor    %fs:0x28,%rbx
   14816:	00 00 
   14818:	74 05                	je     1481f <func_15+0x5096>
   1481a:	e8 51 58 ff ff       	callq  a070 <__stack_chk_fail@plt>
   1481f:	48 81 c4 68 13 00 00 	add    $0x1368,%rsp
   14826:	5b                   	pop    %rbx
   14827:	41 5c                	pop    %r12
   14829:	41 5d                	pop    %r13
   1482b:	41 5e                	pop    %r14
   1482d:	41 5f                	pop    %r15
   1482f:	5d                   	pop    %rbp
   14830:	c3                   	retq   

0000000000014831 <func_19>:
   14831:	f3 0f 1e fa          	endbr64 
   14835:	55                   	push   %rbp
   14836:	48 89 e5             	mov    %rsp,%rbp
   14839:	48 81 ec 10 0d 00 00 	sub    $0xd10,%rsp
   14840:	89 f0                	mov    %esi,%eax
   14842:	48 89 95 00 f3 ff ff 	mov    %rdx,-0xd00(%rbp)
   14849:	48 89 8d f8 f2 ff ff 	mov    %rcx,-0xd08(%rbp)
   14850:	44 89 85 f4 f2 ff ff 	mov    %r8d,-0xd0c(%rbp)
   14857:	89 fa                	mov    %edi,%edx
   14859:	66 89 95 0c f3 ff ff 	mov    %dx,-0xcf4(%rbp)
   14860:	66 89 85 08 f3 ff ff 	mov    %ax,-0xcf8(%rbp)
   14867:	64 48 8b 04 25 28 00 	mov    %fs:0x28,%rax
   1486e:	00 00 
   14870:	48 89 45 f8          	mov    %rax,-0x8(%rbp)
   14874:	31 c0                	xor    %eax,%eax
   14876:	c7 85 34 f3 ff ff 18 	movl   $0x375eab18,-0xccc(%rbp)
   1487d:	ab 5e 37 
   14880:	48 8d 05 f1 47 00 00 	lea    0x47f1(%rip),%rax        # 19078 <g_862>
   14887:	48 89 85 90 f5 ff ff 	mov    %rax,-0xa70(%rbp)
   1488e:	48 8d 05 e3 47 00 00 	lea    0x47e3(%rip),%rax        # 19078 <g_862>
   14895:	48 89 85 98 f5 ff ff 	mov    %rax,-0xa68(%rbp)
   1489c:	48 8d 05 d5 47 00 00 	lea    0x47d5(%rip),%rax        # 19078 <g_862>
   148a3:	48 89 85 a0 f5 ff ff 	mov    %rax,-0xa60(%rbp)
   148aa:	48 c7 85 a8 f5 ff ff 	movq   $0x0,-0xa58(%rbp)
   148b1:	00 00 00 00 
   148b5:	48 8d 05 bc 47 00 00 	lea    0x47bc(%rip),%rax        # 19078 <g_862>
   148bc:	48 89 85 b0 f5 ff ff 	mov    %rax,-0xa50(%rbp)
   148c3:	48 8d 05 ae 47 00 00 	lea    0x47ae(%rip),%rax        # 19078 <g_862>
   148ca:	48 89 85 b8 f5 ff ff 	mov    %rax,-0xa48(%rbp)
   148d1:	48 8d 05 a0 47 00 00 	lea    0x47a0(%rip),%rax        # 19078 <g_862>
   148d8:	48 89 85 c0 f5 ff ff 	mov    %rax,-0xa40(%rbp)
   148df:	48 8d 05 92 47 00 00 	lea    0x4792(%rip),%rax        # 19078 <g_862>
   148e6:	48 89 85 c8 f5 ff ff 	mov    %rax,-0xa38(%rbp)
   148ed:	48 c7 85 d0 f5 ff ff 	movq   $0x0,-0xa30(%rbp)
   148f4:	00 00 00 00 
   148f8:	48 8d 05 79 47 00 00 	lea    0x4779(%rip),%rax        # 19078 <g_862>
   148ff:	48 89 85 d8 f5 ff ff 	mov    %rax,-0xa28(%rbp)
   14906:	48 8d 05 1f 87 00 00 	lea    0x871f(%rip),%rax        # 1d02c <g_50>
   1490d:	48 89 85 f0 f4 ff ff 	mov    %rax,-0xb10(%rbp)
   14914:	48 8d 05 11 87 00 00 	lea    0x8711(%rip),%rax        # 1d02c <g_50>
   1491b:	48 89 85 f8 f4 ff ff 	mov    %rax,-0xb08(%rbp)
   14922:	48 8d 05 03 87 00 00 	lea    0x8703(%rip),%rax        # 1d02c <g_50>
   14929:	48 89 85 00 f5 ff ff 	mov    %rax,-0xb00(%rbp)
   14930:	48 8d 05 f5 86 00 00 	lea    0x86f5(%rip),%rax        # 1d02c <g_50>
   14937:	48 89 85 08 f5 ff ff 	mov    %rax,-0xaf8(%rbp)
   1493e:	48 8d 05 e7 86 00 00 	lea    0x86e7(%rip),%rax        # 1d02c <g_50>
   14945:	48 89 85 10 f5 ff ff 	mov    %rax,-0xaf0(%rbp)
   1494c:	48 8d 05 d9 86 00 00 	lea    0x86d9(%rip),%rax        # 1d02c <g_50>
   14953:	48 89 85 18 f5 ff ff 	mov    %rax,-0xae8(%rbp)
   1495a:	48 8d 05 cb 86 00 00 	lea    0x86cb(%rip),%rax        # 1d02c <g_50>
   14961:	48 89 85 20 f5 ff ff 	mov    %rax,-0xae0(%rbp)
   14968:	48 8d 05 bd 86 00 00 	lea    0x86bd(%rip),%rax        # 1d02c <g_50>
   1496f:	48 89 85 28 f5 ff ff 	mov    %rax,-0xad8(%rbp)
   14976:	48 8d 05 af 86 00 00 	lea    0x86af(%rip),%rax        # 1d02c <g_50>
   1497d:	48 89 85 30 f5 ff ff 	mov    %rax,-0xad0(%rbp)
   14984:	c7 85 40 f3 ff ff fd 	movl   $0xfffffffd,-0xcc0(%rbp)
   1498b:	ff ff ff 
   1498e:	48 8d 05 a3 b8 00 00 	lea    0xb8a3(%rip),%rax        # 20238 <g_937>
   14995:	48 89 85 c0 f3 ff ff 	mov    %rax,-0xc40(%rbp)
   1499c:	48 8d 05 e5 b5 00 00 	lea    0xb5e5(%rip),%rax        # 1ff88 <g_725+0xc8>
   149a3:	48 89 85 90 f3 ff ff 	mov    %rax,-0xc70(%rbp)
   149aa:	48 8d 85 90 f3 ff ff 	lea    -0xc70(%rbp),%rax
   149b1:	48 89 85 c0 f4 ff ff 	mov    %rax,-0xb40(%rbp)
   149b8:	48 c7 85 c8 f4 ff ff 	movq   $0x0,-0xb38(%rbp)
   149bf:	00 00 00 00 
   149c3:	48 c7 85 d0 f4 ff ff 	movq   $0x0,-0xb30(%rbp)
   149ca:	00 00 00 00 
   149ce:	48 8d 85 90 f3 ff ff 	lea    -0xc70(%rbp),%rax
   149d5:	48 89 85 d8 f4 ff ff 	mov    %rax,-0xb28(%rbp)
   149dc:	48 c7 85 e0 f4 ff ff 	movq   $0x0,-0xb20(%rbp)
   149e3:	00 00 00 00 
   149e7:	48 c7 85 e8 f4 ff ff 	movq   $0x0,-0xb18(%rbp)
   149ee:	00 00 00 00 
   149f2:	48 8d 05 37 86 00 00 	lea    0x8637(%rip),%rax        # 1d030 <g_63>
   149f9:	48 89 85 c8 f3 ff ff 	mov    %rax,-0xc38(%rbp)
   14a00:	48 8d 05 89 b4 00 00 	lea    0xb489(%rip),%rax        # 1fe90 <g_496>
   14a07:	48 89 85 98 f3 ff ff 	mov    %rax,-0xc68(%rbp)
   14a0e:	48 8d 05 3b b4 00 00 	lea    0xb43b(%rip),%rax        # 1fe50 <g_56>
   14a15:	48 89 85 d0 f3 ff ff 	mov    %rax,-0xc30(%rbp)
   14a1c:	66 c7 85 20 f3 ff ff 	movw   $0x3535,-0xce0(%rbp)
   14a23:	35 35 
   14a25:	c7 85 44 f3 ff ff fd 	movl   $0xfffffffd,-0xcbc(%rbp)
   14a2c:	ff ff ff 
   14a2f:	c7 85 48 f3 ff ff ff 	movl   $0xffffffff,-0xcb8(%rbp)
   14a36:	ff ff ff 
   14a39:	48 b8 e5 31 e4 fb dd 	movabs $0xfbdd9cddfbe431e5,%rax
   14a40:	9c dd fb 
   14a43:	48 89 85 e0 f5 ff ff 	mov    %rax,-0xa20(%rbp)
   14a4a:	48 b9 e4 ff e4 42 90 	movabs $0x31ff9f9042e4ffe4,%rcx
   14a51:	9f ff 31 
   14a54:	48 89 8d e8 f5 ff ff 	mov    %rcx,-0xa18(%rbp)
   14a5b:	48 be dd ff 90 9c 5c 	movabs $0xff909c5c9c90ffdd,%rsi
   14a62:	9c 90 ff 
   14a65:	48 89 b5 f0 f5 ff ff 	mov    %rsi,-0xa10(%rbp)
   14a6c:	48 bf dd 31 ff 9f 90 	movabs $0xffe442909fff31dd,%rdi
   14a73:	42 e4 ff 
   14a76:	48 89 bd f8 f5 ff ff 	mov    %rdi,-0xa08(%rbp)
   14a7d:	48 ba e4 fb dd 9c dd 	movabs $0x31e4fbdd9cddfbe4,%rdx
   14a84:	fb e4 31 
   14a87:	48 89 95 00 f6 ff ff 	mov    %rdx,-0xa00(%rbp)
   14a8e:	49 b9 e5 9c ff 42 45 	movabs $0xfb90fb4542ff9ce5,%r9
   14a95:	fb 90 fb 
   14a98:	4c 89 8d 08 f6 ff ff 	mov    %r9,-0x9f8(%rbp)
   14a9f:	49 ba 45 fb 90 fb 45 	movabs $0x9cff4245fb90fb45,%r10
   14aa6:	42 ff 9c 
   14aa9:	4c 89 95 10 f6 ff ff 	mov    %r10,-0x9f0(%rbp)
   14ab0:	48 89 85 18 f6 ff ff 	mov    %rax,-0x9e8(%rbp)
   14ab7:	48 89 8d 20 f6 ff ff 	mov    %rcx,-0x9e0(%rbp)
   14abe:	48 89 b5 28 f6 ff ff 	mov    %rsi,-0x9d8(%rbp)
   14ac5:	48 89 bd 30 f6 ff ff 	mov    %rdi,-0x9d0(%rbp)
   14acc:	48 89 95 38 f6 ff ff 	mov    %rdx,-0x9c8(%rbp)
   14ad3:	4c 89 8d 40 f6 ff ff 	mov    %r9,-0x9c0(%rbp)
   14ada:	4c 89 95 48 f6 ff ff 	mov    %r10,-0x9b8(%rbp)
   14ae1:	48 89 85 50 f6 ff ff 	mov    %rax,-0x9b0(%rbp)
   14ae8:	48 89 8d 58 f6 ff ff 	mov    %rcx,-0x9a8(%rbp)
   14aef:	48 89 b5 60 f6 ff ff 	mov    %rsi,-0x9a0(%rbp)
   14af6:	48 89 bd 68 f6 ff ff 	mov    %rdi,-0x998(%rbp)
   14afd:	48 8d 85 34 f3 ff ff 	lea    -0xccc(%rbp),%rax
   14b04:	48 89 85 a0 f3 ff ff 	mov    %rax,-0xc60(%rbp)
   14b0b:	48 8d 85 a0 f3 ff ff 	lea    -0xc60(%rbp),%rax
   14b12:	48 89 85 d8 f3 ff ff 	mov    %rax,-0xc28(%rbp)
   14b19:	c6 85 1d f3 ff ff 01 	movb   $0x1,-0xce3(%rbp)
   14b20:	66 c7 85 40 f4 ff ff 	movw   $0x2,-0xbc0(%rbp)
   14b27:	02 00 
   14b29:	66 c7 85 42 f4 ff ff 	movw   $0xfffe,-0xbbe(%rbp)
   14b30:	fe ff 
   14b32:	66 c7 85 44 f4 ff ff 	movw   $0x2,-0xbbc(%rbp)
   14b39:	02 00 
   14b3b:	66 c7 85 46 f4 ff ff 	movw   $0xfffe,-0xbba(%rbp)
   14b42:	fe ff 
   14b44:	66 c7 85 48 f4 ff ff 	movw   $0x2,-0xbb8(%rbp)
   14b4b:	02 00 
   14b4d:	66 c7 85 4a f4 ff ff 	movw   $0xfffe,-0xbb6(%rbp)
   14b54:	fe ff 
   14b56:	66 c7 85 4c f4 ff ff 	movw   $0x2,-0xbb4(%rbp)
   14b5d:	02 00 
   14b5f:	66 c7 85 4e f4 ff ff 	movw   $0xfffe,-0xbb2(%rbp)
   14b66:	fe ff 
   14b68:	66 c7 85 50 f4 ff ff 	movw   $0x2,-0xbb0(%rbp)
   14b6f:	02 00 
   14b71:	66 c7 85 52 f4 ff ff 	movw   $0xfffe,-0xbae(%rbp)
   14b78:	fe ff 
   14b7a:	c7 85 4c f3 ff ff 21 	movl   $0xfe496121,-0xcb4(%rbp)
   14b81:	61 49 fe 
   14b84:	c6 85 1e f3 ff ff 00 	movb   $0x0,-0xce2(%rbp)
   14b8b:	66 c7 85 22 f3 ff ff 	movw   $0x0,-0xcde(%rbp)
   14b92:	00 00 
   14b94:	66 c7 85 24 f3 ff ff 	movw   $0xfff9,-0xcdc(%rbp)
   14b9b:	f9 ff 
   14b9d:	66 c7 85 26 f3 ff ff 	movw   $0x1,-0xcda(%rbp)
   14ba4:	01 00 
   14ba6:	66 c7 85 28 f3 ff ff 	movw   $0xab6a,-0xcd8(%rbp)
   14bad:	6a ab 
   14baf:	48 8d 05 8a b6 00 00 	lea    0xb68a(%rip),%rax        # 20240 <g_936>
   14bb6:	48 89 85 a8 f3 ff ff 	mov    %rax,-0xc58(%rbp)
   14bbd:	48 8d 85 a8 f3 ff ff 	lea    -0xc58(%rbp),%rax
   14bc4:	48 89 85 e0 f3 ff ff 	mov    %rax,-0xc20(%rbp)
   14bcb:	c7 85 38 f3 ff ff 00 	movl   $0x0,-0xcc8(%rbp)
   14bd2:	00 00 00 
   14bd5:	eb 1a                	jmp    14bf1 <func_19+0x3c0>
   14bd7:	8b 85 38 f3 ff ff    	mov    -0xcc8(%rbp),%eax
   14bdd:	48 98                	cltq   
   14bdf:	c7 84 85 38 f4 ff ff 	movl   $0xffffffff,-0xbc8(%rbp,%rax,4)
   14be6:	ff ff ff ff 
   14bea:	83 85 38 f3 ff ff 01 	addl   $0x1,-0xcc8(%rbp)
   14bf1:	83 bd 38 f3 ff ff 01 	cmpl   $0x1,-0xcc8(%rbp)
   14bf8:	7e dd                	jle    14bd7 <func_19+0x3a6>
   14bfa:	c7 85 38 f3 ff ff 00 	movl   $0x0,-0xcc8(%rbp)
   14c01:	00 00 00 
   14c04:	eb 1e                	jmp    14c24 <func_19+0x3f3>
   14c06:	8b 85 38 f3 ff ff    	mov    -0xcc8(%rbp),%eax
   14c0c:	48 98                	cltq   
   14c0e:	48 8d 95 98 f3 ff ff 	lea    -0xc68(%rbp),%rdx
   14c15:	48 89 94 c5 60 f4 ff 	mov    %rdx,-0xba0(%rbp,%rax,8)
   14c1c:	ff 
   14c1d:	83 85 38 f3 ff ff 01 	addl   $0x1,-0xcc8(%rbp)
   14c24:	83 bd 38 f3 ff ff 02 	cmpl   $0x2,-0xcc8(%rbp)
   14c2b:	7e d9                	jle    14c06 <func_19+0x3d5>
   14c2d:	48 8b 05 14 b2 00 00 	mov    0xb214(%rip),%rax        # 1fe48 <g_33>
   14c34:	48 8d 95 f4 f2 ff ff 	lea    -0xd0c(%rbp),%rdx
   14c3b:	48 89 10             	mov    %rdx,(%rax)
   14c3e:	c7 85 f4 f2 ff ff e5 	movl   $0xffffffe5,-0xd0c(%rbp)
   14c45:	ff ff ff 
   14c48:	e9 28 05 00 00       	jmpq   15175 <func_19+0x944>
   14c4d:	c6 85 1c f3 ff ff 03 	movb   $0x3,-0xce4(%rbp)
   14c54:	c7 85 50 f3 ff ff 01 	movl   $0x1,-0xcb0(%rbp)
   14c5b:	00 00 00 
   14c5e:	48 8d 85 20 f8 ff ff 	lea    -0x7e0(%rbp),%rax
   14c65:	48 8d 15 74 a2 00 00 	lea    0xa274(%rip),%rdx        # 1eee0 <g_3068+0xbb8>
   14c6c:	b9 fa 00 00 00       	mov    $0xfa,%ecx
   14c71:	48 89 c7             	mov    %rax,%rdi
   14c74:	48 89 d6             	mov    %rdx,%rsi
   14c77:	f3 48 a5             	rep movsq %ds:(%rsi),%es:(%rdi)
   14c7a:	48 8d 05 ff 8c 00 00 	lea    0x8cff(%rip),%rax        # 1d980 <g_379>
   14c81:	48 89 85 e8 f3 ff ff 	mov    %rax,-0xc18(%rbp)
   14c88:	48 8d 85 40 f5 ff ff 	lea    -0xac0(%rbp),%rax
   14c8f:	48 83 c0 20          	add    $0x20,%rax
   14c93:	48 89 85 b0 f3 ff ff 	mov    %rax,-0xc50(%rbp)
   14c9a:	c7 85 54 f3 ff ff fa 	movl   $0xfffffffa,-0xcac(%rbp)
   14ca1:	ff ff ff 
   14ca4:	c7 85 58 f3 ff ff ac 	movl   $0xe9da7aac,-0xca8(%rbp)
   14cab:	7a da e9 
   14cae:	c7 85 5c f3 ff ff 00 	movl   $0x0,-0xca4(%rbp)
   14cb5:	00 00 00 
   14cb8:	c7 85 60 f3 ff ff 56 	movl   $0xaed7a356,-0xca0(%rbp)
   14cbf:	a3 d7 ae 
   14cc2:	c7 85 64 f3 ff ff 1d 	movl   $0x6fca581d,-0xc9c(%rbp)
   14cc9:	58 ca 6f 
   14ccc:	c7 85 68 f3 ff ff 00 	movl   $0x0,-0xc98(%rbp)
   14cd3:	00 00 00 
   14cd6:	c7 85 80 f4 ff ff fe 	movl   $0xfffffffe,-0xb80(%rbp)
   14cdd:	ff ff ff 
   14ce0:	c7 85 84 f4 ff ff fe 	movl   $0xfffffffe,-0xb7c(%rbp)
   14ce7:	ff ff ff 
   14cea:	c7 85 88 f4 ff ff f8 	movl   $0xfffffff8,-0xb78(%rbp)
   14cf1:	ff ff ff 
   14cf4:	c7 85 8c f4 ff ff fe 	movl   $0xfffffffe,-0xb74(%rbp)
   14cfb:	ff ff ff 
   14cfe:	c7 85 90 f4 ff ff fe 	movl   $0xfffffffe,-0xb70(%rbp)
   14d05:	ff ff ff 
   14d08:	c7 85 94 f4 ff ff f8 	movl   $0xfffffff8,-0xb6c(%rbp)
   14d0f:	ff ff ff 
   14d12:	66 c7 85 2a f3 ff ff 	movw   $0x1,-0xcd6(%rbp)
   14d19:	01 00 
   14d1b:	48 c7 85 f0 f3 ff ff 	movq   $0x0,-0xc10(%rbp)
   14d22:	00 00 00 00 
   14d26:	48 c7 85 f8 f3 ff ff 	movq   $0x0,-0xc08(%rbp)
   14d2d:	00 00 00 00 
   14d31:	c7 85 6c f3 ff ff 3d 	movl   $0x2688c43d,-0xc94(%rbp)
   14d38:	c4 88 26 
   14d3b:	c7 85 70 f3 ff ff 03 	movl   $0x3,-0xc90(%rbp)
   14d42:	00 00 00 
   14d45:	c7 85 74 f3 ff ff 01 	movl   $0x1,-0xc8c(%rbp)
   14d4c:	00 00 00 
   14d4f:	66 c7 85 2c f3 ff ff 	movw   $0x0,-0xcd4(%rbp)
   14d56:	00 00 
   14d58:	c6 85 1f f3 ff ff ff 	movb   $0xff,-0xce1(%rbp)
   14d5f:	66 c7 85 2e f3 ff ff 	movw   $0xf1bf,-0xcd2(%rbp)
   14d66:	bf f1 
   14d68:	c7 85 3c f3 ff ff 00 	movl   $0x0,-0xcc4(%rbp)
   14d6f:	00 00 00 
   14d72:	eb 1e                	jmp    14d92 <func_19+0x561>
   14d74:	8b 85 3c f3 ff ff    	mov    -0xcc4(%rbp),%eax
   14d7a:	48 98                	cltq   
   14d7c:	48 8d 15 0d 8c 00 00 	lea    0x8c0d(%rip),%rdx        # 1d990 <g_408>
   14d83:	48 89 94 c5 40 f5 ff 	mov    %rdx,-0xac0(%rbp,%rax,8)
   14d8a:	ff 
   14d8b:	83 85 3c f3 ff ff 01 	addl   $0x1,-0xcc4(%rbp)
   14d92:	83 bd 3c f3 ff ff 08 	cmpl   $0x8,-0xcc4(%rbp)
   14d99:	7e d9                	jle    14d74 <func_19+0x543>
   14d9b:	c7 05 03 d7 00 00 07 	movl   $0x7,0xd703(%rip)        # 224a8 <g_35>
   14da2:	00 00 00 
   14da5:	e9 ad 03 00 00       	jmpq   15157 <func_19+0x926>
   14daa:	48 8d 05 7b 82 00 00 	lea    0x827b(%rip),%rax        # 1d02c <g_50>
   14db1:	48 89 85 00 f4 ff ff 	mov    %rax,-0xc00(%rbp)
   14db8:	c7 85 78 f3 ff ff 12 	movl   $0x510a7412,-0xc88(%rbp)
   14dbf:	74 0a 51 
   14dc2:	48 8d 05 d1 8b 00 00 	lea    0x8bd1(%rip),%rax        # 1d99a <g_412>
   14dc9:	48 89 85 08 f4 ff ff 	mov    %rax,-0xbf8(%rbp)
   14dd0:	48 8d 85 1c f3 ff ff 	lea    -0xce4(%rbp),%rax
   14dd7:	48 89 85 10 f4 ff ff 	mov    %rax,-0xbf0(%rbp)
   14dde:	c7 85 7c f3 ff ff 13 	movl   $0x947bc613,-0xc84(%rbp)
   14de5:	c6 7b 94 
   14de8:	c7 85 80 f3 ff ff 98 	movl   $0xffe01b98,-0xc80(%rbp)
   14def:	1b e0 ff 
   14df2:	48 8d 05 47 b0 00 00 	lea    0xb047(%rip),%rax        # 1fe40 <g_34>
   14df9:	48 89 85 18 f4 ff ff 	mov    %rax,-0xbe8(%rbp)
   14e00:	c7 85 84 f3 ff ff 16 	movl   $0xae2ebf16,-0xc7c(%rbp)
   14e07:	bf 2e ae 
   14e0a:	48 8d 85 00 f7 ff ff 	lea    -0x900(%rbp),%rax
   14e11:	48 8d 15 08 4a 00 00 	lea    0x4a08(%rip),%rdx        # 19820 <g_2536+0x79c>
   14e18:	b9 23 00 00 00       	mov    $0x23,%ecx
   14e1d:	48 89 c7             	mov    %rax,%rdi
   14e20:	48 89 d6             	mov    %rdx,%rsi
   14e23:	f3 48 a5             	rep movsq %ds:(%rsi),%es:(%rdi)
   14e26:	48 8d 05 f7 81 00 00 	lea    0x81f7(%rip),%rax        # 1d024 <g_6>
   14e2d:	48 89 85 b8 f3 ff ff 	mov    %rax,-0xc48(%rbp)
   14e34:	48 8d 85 b8 f3 ff ff 	lea    -0xc48(%rbp),%rax
   14e3b:	48 89 85 20 f4 ff ff 	mov    %rax,-0xbe0(%rbp)
   14e42:	66 c7 85 30 f3 ff ff 	movw   $0x0,-0xcd0(%rbp)
   14e49:	00 00 
   14e4b:	48 8d 05 86 b9 00 00 	lea    0xb986(%rip),%rax        # 207d8 <g_974+0x578>
   14e52:	48 89 85 28 f4 ff ff 	mov    %rax,-0xbd8(%rbp)
   14e59:	c7 85 88 f3 ff ff 28 	movl   $0x2933228,-0xc78(%rbp)
   14e60:	32 93 02 
   14e63:	c7 85 8c f3 ff ff 79 	movl   $0xd01c7c79,-0xc74(%rbp)
   14e6a:	7c 1c d0 
   14e6d:	c7 85 a0 f4 ff ff dd 	movl   $0xf77441dd,-0xb60(%rbp)
   14e74:	41 74 f7 
   14e77:	c7 85 a4 f4 ff ff dd 	movl   $0xf77441dd,-0xb5c(%rbp)
   14e7e:	41 74 f7 
   14e81:	c7 85 a8 f4 ff ff dd 	movl   $0xf77441dd,-0xb58(%rbp)
   14e88:	41 74 f7 
   14e8b:	c7 85 ac f4 ff ff dd 	movl   $0xf77441dd,-0xb54(%rbp)
   14e92:	41 74 f7 
   14e95:	c7 85 b0 f4 ff ff dd 	movl   $0xf77441dd,-0xb50(%rbp)
   14e9c:	41 74 f7 
   14e9f:	c7 85 b4 f4 ff ff dd 	movl   $0xf77441dd,-0xb4c(%rbp)
   14ea6:	41 74 f7 
   14ea9:	66 c7 85 70 f6 ff ff 	movw   $0x6044,-0x990(%rbp)
   14eb0:	44 60 
   14eb2:	66 c7 85 72 f6 ff ff 	movw   $0x0,-0x98e(%rbp)
   14eb9:	00 00 
   14ebb:	66 c7 85 74 f6 ff ff 	movw   $0x6044,-0x98c(%rbp)
   14ec2:	44 60 
   14ec4:	66 c7 85 76 f6 ff ff 	movw   $0x6044,-0x98a(%rbp)
   14ecb:	44 60 
   14ecd:	66 c7 85 78 f6 ff ff 	movw   $0x0,-0x988(%rbp)
   14ed4:	00 00 
   14ed6:	66 c7 85 7a f6 ff ff 	movw   $0x6044,-0x986(%rbp)
   14edd:	44 60 
   14edf:	66 c7 85 7c f6 ff ff 	movw   $0x6044,-0x984(%rbp)
   14ee6:	44 60 
   14ee8:	66 c7 85 7e f6 ff ff 	movw   $0x0,-0x982(%rbp)
   14eef:	00 00 
   14ef1:	66 c7 85 80 f6 ff ff 	movw   $0x0,-0x980(%rbp)
   14ef8:	00 00 
   14efa:	66 c7 85 82 f6 ff ff 	movw   $0x6044,-0x97e(%rbp)
   14f01:	44 60 
   14f03:	66 c7 85 84 f6 ff ff 	movw   $0x6044,-0x97c(%rbp)
   14f0a:	44 60 
   14f0c:	66 c7 85 86 f6 ff ff 	movw   $0x0,-0x97a(%rbp)
   14f13:	00 00 
   14f15:	66 c7 85 88 f6 ff ff 	movw   $0x6044,-0x978(%rbp)
   14f1c:	44 60 
   14f1e:	66 c7 85 8a f6 ff ff 	movw   $0x6044,-0x976(%rbp)
   14f25:	44 60 
   14f27:	66 c7 85 8c f6 ff ff 	movw   $0x0,-0x974(%rbp)
   14f2e:	00 00 
   14f30:	66 c7 85 8e f6 ff ff 	movw   $0x6044,-0x972(%rbp)
   14f37:	44 60 
   14f39:	66 c7 85 90 f6 ff ff 	movw   $0x0,-0x970(%rbp)
   14f40:	00 00 
   14f42:	66 c7 85 92 f6 ff ff 	movw   $0x0,-0x96e(%rbp)
   14f49:	00 00 
   14f4b:	66 c7 85 94 f6 ff ff 	movw   $0x6083,-0x96c(%rbp)
   14f52:	83 60 
   14f54:	66 c7 85 96 f6 ff ff 	movw   $0x0,-0x96a(%rbp)
   14f5b:	00 00 
   14f5d:	66 c7 85 98 f6 ff ff 	movw   $0x0,-0x968(%rbp)
   14f64:	00 00 
   14f66:	66 c7 85 9a f6 ff ff 	movw   $0x6083,-0x966(%rbp)
   14f6d:	83 60 
   14f6f:	66 c7 85 9c f6 ff ff 	movw   $0x0,-0x964(%rbp)
   14f76:	00 00 
   14f78:	66 c7 85 9e f6 ff ff 	movw   $0x0,-0x962(%rbp)
   14f7f:	00 00 
   14f81:	66 c7 85 a0 f6 ff ff 	movw   $0x6044,-0x960(%rbp)
   14f88:	44 60 
   14f8a:	66 c7 85 a2 f6 ff ff 	movw   $0x0,-0x95e(%rbp)
   14f91:	00 00 
   14f93:	66 c7 85 a4 f6 ff ff 	movw   $0x6044,-0x95c(%rbp)
   14f9a:	44 60 
   14f9c:	66 c7 85 a6 f6 ff ff 	movw   $0x6044,-0x95a(%rbp)
   14fa3:	44 60 
   14fa5:	66 c7 85 a8 f6 ff ff 	movw   $0x0,-0x958(%rbp)
   14fac:	00 00 
   14fae:	66 c7 85 aa f6 ff ff 	movw   $0x6044,-0x956(%rbp)
   14fb5:	44 60 
   14fb7:	66 c7 85 ac f6 ff ff 	movw   $0x6044,-0x954(%rbp)
   14fbe:	44 60 
   14fc0:	66 c7 85 ae f6 ff ff 	movw   $0x0,-0x952(%rbp)
   14fc7:	00 00 
   14fc9:	66 c7 85 b0 f6 ff ff 	movw   $0x0,-0x950(%rbp)
   14fd0:	00 00 
   14fd2:	66 c7 85 b2 f6 ff ff 	movw   $0x6044,-0x94e(%rbp)
   14fd9:	44 60 
   14fdb:	66 c7 85 b4 f6 ff ff 	movw   $0x6044,-0x94c(%rbp)
   14fe2:	44 60 
   14fe4:	66 c7 85 b6 f6 ff ff 	movw   $0x0,-0x94a(%rbp)
   14feb:	00 00 
   14fed:	66 c7 85 b8 f6 ff ff 	movw   $0x6044,-0x948(%rbp)
   14ff4:	44 60 
   14ff6:	66 c7 85 ba f6 ff ff 	movw   $0x6044,-0x946(%rbp)
   14ffd:	44 60 
   14fff:	66 c7 85 bc f6 ff ff 	movw   $0x0,-0x944(%rbp)
   15006:	00 00 
   15008:	66 c7 85 be f6 ff ff 	movw   $0x6044,-0x942(%rbp)
   1500f:	44 60 
   15011:	66 c7 85 c0 f6 ff ff 	movw   $0x0,-0x940(%rbp)
   15018:	00 00 
   1501a:	66 c7 85 c2 f6 ff ff 	movw   $0x0,-0x93e(%rbp)
   15021:	00 00 
   15023:	66 c7 85 c4 f6 ff ff 	movw   $0x6083,-0x93c(%rbp)
   1502a:	83 60 
   1502c:	66 c7 85 c6 f6 ff ff 	movw   $0x0,-0x93a(%rbp)
   15033:	00 00 
   15035:	66 c7 85 c8 f6 ff ff 	movw   $0x0,-0x938(%rbp)
   1503c:	00 00 
   1503e:	66 c7 85 ca f6 ff ff 	movw   $0x6083,-0x936(%rbp)
   15045:	83 60 
   15047:	66 c7 85 cc f6 ff ff 	movw   $0x0,-0x934(%rbp)
   1504e:	00 00 
   15050:	66 c7 85 ce f6 ff ff 	movw   $0x0,-0x932(%rbp)
   15057:	00 00 
   15059:	66 c7 85 d0 f6 ff ff 	movw   $0x6044,-0x930(%rbp)
   15060:	44 60 
   15062:	66 c7 85 d2 f6 ff ff 	movw   $0x0,-0x92e(%rbp)
   15069:	00 00 
   1506b:	66 c7 85 d4 f6 ff ff 	movw   $0x6044,-0x92c(%rbp)
   15072:	44 60 
   15074:	66 c7 85 d6 f6 ff ff 	movw   $0x6044,-0x92a(%rbp)
   1507b:	44 60 
   1507d:	66 c7 85 d8 f6 ff ff 	movw   $0x0,-0x928(%rbp)
   15084:	00 00 
   15086:	66 c7 85 da f6 ff ff 	movw   $0x6044,-0x926(%rbp)
   1508d:	44 60 
   1508f:	66 c7 85 dc f6 ff ff 	movw   $0x6044,-0x924(%rbp)
   15096:	44 60 
   15098:	66 c7 85 de f6 ff ff 	movw   $0x0,-0x922(%rbp)
   1509f:	00 00 
   150a1:	66 c7 85 e0 f6 ff ff 	movw   $0x0,-0x920(%rbp)
   150a8:	00 00 
   150aa:	66 c7 85 e2 f6 ff ff 	movw   $0x6044,-0x91e(%rbp)
   150b1:	44 60 
   150b3:	66 c7 85 e4 f6 ff ff 	movw   $0x6044,-0x91c(%rbp)
   150ba:	44 60 
   150bc:	66 c7 85 e6 f6 ff ff 	movw   $0x0,-0x91a(%rbp)
   150c3:	00 00 
   150c5:	66 c7 85 e8 f6 ff ff 	movw   $0x6044,-0x918(%rbp)
   150cc:	44 60 
   150ce:	66 c7 85 ea f6 ff ff 	movw   $0x6044,-0x916(%rbp)
   150d5:	44 60 
   150d7:	66 c7 85 ec f6 ff ff 	movw   $0x0,-0x914(%rbp)
   150de:	00 00 
   150e0:	66 c7 85 ee f6 ff ff 	movw   $0x6044,-0x912(%rbp)
   150e7:	44 60 
   150e9:	66 c7 85 f0 f6 ff ff 	movw   $0x0,-0x910(%rbp)
   150f0:	00 00 
   150f2:	66 c7 85 f2 f6 ff ff 	movw   $0x0,-0x90e(%rbp)
   150f9:	00 00 
   150fb:	66 c7 85 f4 f6 ff ff 	movw   $0x6083,-0x90c(%rbp)
   15102:	83 60 
   15104:	66 c7 85 f6 f6 ff ff 	movw   $0x0,-0x90a(%rbp)
   1510b:	00 00 
   1510d:	66 c7 85 f8 f6 ff ff 	movw   $0x0,-0x908(%rbp)
   15114:	00 00 
   15116:	66 c7 85 fa f6 ff ff 	movw   $0x6083,-0x906(%rbp)
   1511d:	83 60 
   1511f:	66 c7 85 fc f6 ff ff 	movw   $0x0,-0x904(%rbp)
   15126:	00 00 
   15128:	66 c7 85 fe f6 ff ff 	movw   $0x0,-0x902(%rbp)
   1512f:	00 00 
   15131:	66 c7 85 32 f3 ff ff 	movw   $0x8ca1,-0xcce(%rbp)
   15138:	a1 8c 
   1513a:	48 8d 85 b0 f3 ff ff 	lea    -0xc50(%rbp),%rax
   15141:	48 89 85 30 f4 ff ff 	mov    %rax,-0xbd0(%rbp)
   15148:	8b 05 5a d3 00 00    	mov    0xd35a(%rip),%eax        # 224a8 <g_35>
   1514e:	83 c0 01             	add    $0x1,%eax
   15151:	89 05 51 d3 00 00    	mov    %eax,0xd351(%rip)        # 224a8 <g_35>
   15157:	8b 05 4b d3 00 00    	mov    0xd34b(%rip),%eax        # 224a8 <g_35>
   1515d:	83 f8 1c             	cmp    $0x1c,%eax
   15160:	0f 8e 44 fc ff ff    	jle    14daa <func_19+0x579>
   15166:	8b 85 f4 f2 ff ff    	mov    -0xd0c(%rbp),%eax
   1516c:	83 c0 01             	add    $0x1,%eax
   1516f:	89 85 f4 f2 ff ff    	mov    %eax,-0xd0c(%rbp)
   15175:	8b 85 f4 f2 ff ff    	mov    -0xd0c(%rbp),%eax
   1517b:	83 f8 17             	cmp    $0x17,%eax
   1517e:	0f 8e c9 fa ff ff    	jle    14c4d <func_19+0x41c>
   15184:	0f b7 85 08 f3 ff ff 	movzwl -0xcf8(%rbp),%eax
   1518b:	48 8b 4d f8          	mov    -0x8(%rbp),%rcx
   1518f:	64 48 33 0c 25 28 00 	xor    %fs:0x28,%rcx
   15196:	00 00 
   15198:	74 05                	je     1519f <func_19+0x96e>
   1519a:	e8 d1 4e ff ff       	callq  a070 <__stack_chk_fail@plt>
   1519f:	c9                   	leaveq 
   151a0:	c3                   	retq   

00000000000151a1 <func_54>:
   151a1:	f3 0f 1e fa          	endbr64 
   151a5:	55                   	push   %rbp
   151a6:	48 89 e5             	mov    %rsp,%rbp
   151a9:	41 54                	push   %r12
   151ab:	53                   	push   %rbx
   151ac:	48 81 ec d0 01 00 00 	sub    $0x1d0,%rsp
   151b3:	48 89 bd 28 fe ff ff 	mov    %rdi,-0x1d8(%rbp)
   151ba:	64 48 8b 04 25 28 00 	mov    %fs:0x28,%rax
   151c1:	00 00 
   151c3:	48 89 45 e8          	mov    %rax,-0x18(%rbp)
   151c7:	31 c0                	xor    %eax,%eax
   151c9:	48 8d 05 d8 d2 00 00 	lea    0xd2d8(%rip),%rax        # 224a8 <g_35>
   151d0:	48 89 85 58 fe ff ff 	mov    %rax,-0x1a8(%rbp)
   151d7:	c7 85 40 fe ff ff fc 	movl   $0xfffffffc,-0x1c0(%rbp)
   151de:	ff ff ff 
   151e1:	48 c7 85 60 fe ff ff 	movq   $0x0,-0x1a0(%rbp)
   151e8:	00 00 00 00 
   151ec:	48 8d 05 06 87 00 00 	lea    0x8706(%rip),%rax        # 1d8f9 <g_157>
   151f3:	48 89 85 48 fe ff ff 	mov    %rax,-0x1b8(%rbp)
   151fa:	48 8d 85 48 fe ff ff 	lea    -0x1b8(%rbp),%rax
   15201:	48 89 85 50 fe ff ff 	mov    %rax,-0x1b0(%rbp)
   15208:	48 8d 05 eb 86 00 00 	lea    0x86eb(%rip),%rax        # 1d8fa <g_159>
   1520f:	48 89 85 68 fe ff ff 	mov    %rax,-0x198(%rbp)
   15216:	c7 85 44 fe ff ff 00 	movl   $0x0,-0x1bc(%rbp)
   1521d:	00 00 00 
   15220:	c7 85 90 fe ff ff 73 	movl   $0x2378dd73,-0x170(%rbp)
   15227:	dd 78 23 
   1522a:	c7 85 94 fe ff ff 73 	movl   $0x2378dd73,-0x16c(%rbp)
   15231:	dd 78 23 
   15234:	c7 85 98 fe ff ff 73 	movl   $0x2378dd73,-0x168(%rbp)
   1523b:	dd 78 23 
   1523e:	c7 85 9c fe ff ff 73 	movl   $0x2378dd73,-0x164(%rbp)
   15245:	dd 78 23 
   15248:	c7 85 a0 fe ff ff 73 	movl   $0x2378dd73,-0x160(%rbp)
   1524f:	dd 78 23 
   15252:	c7 85 a4 fe ff ff 73 	movl   $0x2378dd73,-0x15c(%rbp)
   15259:	dd 78 23 
   1525c:	c7 85 a8 fe ff ff 73 	movl   $0x2378dd73,-0x158(%rbp)
   15263:	dd 78 23 
   15266:	c7 85 ac fe ff ff 73 	movl   $0x2378dd73,-0x154(%rbp)
   1526d:	dd 78 23 
   15270:	c7 85 b0 fe ff ff 73 	movl   $0x2378dd73,-0x150(%rbp)
   15277:	dd 78 23 
   1527a:	66 c7 85 3a fe ff ff 	movw   $0xffff,-0x1c6(%rbp)
   15281:	ff ff 
   15283:	c7 85 3c fe ff ff 00 	movl   $0x0,-0x1c4(%rbp)
   1528a:	00 00 00 
   1528d:	eb 1e                	jmp    152ad <func_54+0x10c>
   1528f:	8b 85 3c fe ff ff    	mov    -0x1c4(%rbp),%eax
   15295:	48 98                	cltq   
   15297:	48 8d 95 50 fe ff ff 	lea    -0x1b0(%rbp),%rdx
   1529e:	48 89 94 c5 80 fe ff 	mov    %rdx,-0x180(%rbp,%rax,8)
   152a5:	ff 
   152a6:	83 85 3c fe ff ff 01 	addl   $0x1,-0x1c4(%rbp)
   152ad:	83 bd 3c fe ff ff 00 	cmpl   $0x0,-0x1c4(%rbp)
   152b4:	7e d9                	jle    1528f <func_54+0xee>
   152b6:	c7 85 3c fe ff ff 00 	movl   $0x0,-0x1c4(%rbp)
   152bd:	00 00 00 
   152c0:	eb 1a                	jmp    152dc <func_54+0x13b>
   152c2:	8b 85 3c fe ff ff    	mov    -0x1c4(%rbp),%eax
   152c8:	48 98                	cltq   
   152ca:	c7 84 85 88 fe ff ff 	movl   $0x88961cdd,-0x178(%rbp,%rax,4)
   152d1:	dd 1c 96 88 
   152d5:	83 85 3c fe ff ff 01 	addl   $0x1,-0x1c4(%rbp)
   152dc:	83 bd 3c fe ff ff 01 	cmpl   $0x1,-0x1c4(%rbp)
   152e3:	7e dd                	jle    152c2 <func_54+0x121>
   152e5:	48 8b 1d ac ab 00 00 	mov    0xabac(%rip),%rbx        # 1fe98 <g_662>
   152ec:	48 8b 85 58 fe ff ff 	mov    -0x1a8(%rbp),%rax
   152f3:	48 8d 35 46 ab 00 00 	lea    0xab46(%rip),%rsi        # 1fe40 <g_34>
   152fa:	48 89 c7             	mov    %rax,%rdi
   152fd:	e8 c7 01 00 00       	callq  154c9 <func_58>
   15302:	89 03                	mov    %eax,(%rbx)
   15304:	66 c7 05 9f d1 00 00 	movw   $0x10,0xd19f(%rip)        # 224ac <g_104>
   1530b:	10 00 
   1530d:	eb 56                	jmp    15365 <func_54+0x1c4>
   1530f:	48 c7 85 70 fe ff ff 	movq   $0x0,-0x190(%rbp)
   15316:	00 00 00 00 
   1531a:	48 8d 85 c0 fe ff ff 	lea    -0x140(%rbp),%rax
   15321:	48 8d 15 18 46 00 00 	lea    0x4618(%rip),%rdx        # 19940 <g_2536+0x8bc>
   15328:	b9 24 00 00 00       	mov    $0x24,%ecx
   1532d:	48 89 c7             	mov    %rax,%rdi
   15330:	48 89 d6             	mov    %rdx,%rsi
   15333:	f3 48 a5             	rep movsq %ds:(%rsi),%es:(%rdi)
   15336:	48 b8 e8 3f 8e ac 9d 	movabs $0xa0f2229dac8e3fe8,%rax
   1533d:	22 f2 a0 
   15340:	48 89 85 78 fe ff ff 	mov    %rax,-0x188(%rbp)
   15347:	0f b7 05 5e d1 00 00 	movzwl 0xd15e(%rip),%eax        # 224ac <g_104>
   1534e:	0f b7 c0             	movzwl %ax,%eax
   15351:	be 08 00 00 00       	mov    $0x8,%esi
   15356:	48 89 c7             	mov    %rax,%rdi
   15359:	e8 ed 5c ff ff       	callq  b04b <safe_sub_func_uint64_t_u_u>
   1535e:	66 89 05 47 d1 00 00 	mov    %ax,0xd147(%rip)        # 224ac <g_104>
   15365:	0f b7 05 40 d1 00 00 	movzwl 0xd140(%rip),%eax        # 224ac <g_104>
   1536c:	66 83 f8 06          	cmp    $0x6,%ax
   15370:	75 9d                	jne    1530f <func_54+0x16e>
   15372:	48 8b 85 58 fe ff ff 	mov    -0x1a8(%rbp),%rax
   15379:	8b 00                	mov    (%rax),%eax
   1537b:	0f b6 d8             	movzbl %al,%ebx
   1537e:	48 8b 85 58 fe ff ff 	mov    -0x1a8(%rbp),%rax
   15385:	44 8b 20             	mov    (%rax),%r12d
   15388:	0f b7 05 15 86 00 00 	movzwl 0x8615(%rip),%eax        # 1d9a4 <g_481>
   1538f:	83 c8 e0             	or     $0xffffffe0,%eax
   15392:	0f be c0             	movsbl %al,%eax
   15395:	be 01 00 00 00       	mov    $0x1,%esi
   1539a:	89 c7                	mov    %eax,%edi
   1539c:	e8 90 4e ff ff       	callq  a231 <safe_mod_func_int8_t_s_s>
   153a1:	84 c0                	test   %al,%al
   153a3:	75 0b                	jne    153b0 <func_54+0x20f>
   153a5:	48 8b 85 58 fe ff ff 	mov    -0x1a8(%rbp),%rax
   153ac:	8b 00                	mov    (%rax),%eax
   153ae:	85 c0                	test   %eax,%eax
   153b0:	48 8b 85 58 fe ff ff 	mov    -0x1a8(%rbp),%rax
   153b7:	8b 00                	mov    (%rax),%eax
   153b9:	83 c8 01             	or     $0x1,%eax
   153bc:	98                   	cwtl   
   153bd:	be 0e 00 00 00       	mov    $0xe,%esi
   153c2:	89 c7                	mov    %eax,%edi
   153c4:	e8 c9 50 ff ff       	callq  a492 <safe_lshift_func_int16_t_s_s>
   153c9:	0f be d0             	movsbl %al,%edx
   153cc:	48 8b 85 58 fe ff ff 	mov    -0x1a8(%rbp),%rax
   153d3:	8b 00                	mov    (%rax),%eax
   153d5:	0f be c0             	movsbl %al,%eax
   153d8:	89 d6                	mov    %edx,%esi
   153da:	89 c7                	mov    %eax,%edi
   153dc:	e8 50 4e ff ff       	callq  a231 <safe_mod_func_int8_t_s_s>
   153e1:	0f b6 c0             	movzbl %al,%eax
   153e4:	44 89 e6             	mov    %r12d,%esi
   153e7:	89 c7                	mov    %eax,%edi
   153e9:	e8 9f 58 ff ff       	callq  ac8d <safe_rshift_func_uint8_t_u_s>
   153ee:	0f be c0             	movsbl %al,%eax
   153f1:	be 07 00 00 00       	mov    $0x7,%esi
   153f6:	89 c7                	mov    %eax,%edi
   153f8:	e8 38 4f ff ff       	callq  a335 <safe_rshift_func_int8_t_s_s>
   153fd:	48 8b 85 68 fe ff ff 	mov    -0x198(%rbp),%rax
   15404:	66 c7 00 01 00       	movw   $0x1,(%rax)
   15409:	be 0b 00 00 00       	mov    $0xb,%esi
   1540e:	bf 01 00 00 00       	mov    $0x1,%edi
   15413:	e8 12 51 ff ff       	callq  a52a <safe_rshift_func_int16_t_s_s>
   15418:	0f bf d0             	movswl %ax,%edx
   1541b:	0f b6 05 1e 7c 00 00 	movzbl 0x7c1e(%rip),%eax        # 1d040 <g_102>
   15422:	0f b6 c0             	movzbl %al,%eax
   15425:	39 c2                	cmp    %eax,%edx
   15427:	0f 9d c0             	setge  %al
   1542a:	0f b6 c0             	movzbl %al,%eax
   1542d:	8b 95 9c fe ff ff    	mov    -0x164(%rbp),%edx
   15433:	09 d0                	or     %edx,%eax
   15435:	0f bf d0             	movswl %ax,%edx
   15438:	48 8b 05 11 aa 00 00 	mov    0xaa11(%rip),%rax        # 1fe50 <g_56>
   1543f:	0f b7 00             	movzwl (%rax),%eax
   15442:	98                   	cwtl   
   15443:	89 d6                	mov    %edx,%esi
   15445:	89 c7                	mov    %eax,%edi
   15447:	e8 ca 4f ff ff       	callq  a416 <safe_mod_func_int16_t_s_s>
   1544c:	98                   	cwtl   
   1544d:	be ff ff ff ff       	mov    $0xffffffff,%esi
   15452:	89 c7                	mov    %eax,%edi
   15454:	e8 7a 4f ff ff       	callq  a3d3 <safe_sub_func_int16_t_s_s>
   15459:	0f bf d0             	movswl %ax,%edx
   1545c:	48 8b 85 58 fe ff ff 	mov    -0x1a8(%rbp),%rax
   15463:	8b 00                	mov    (%rax),%eax
   15465:	39 c2                	cmp    %eax,%edx
   15467:	0f 9c c0             	setl   %al
   1546a:	0f b6 c0             	movzbl %al,%eax
   1546d:	89 de                	mov    %ebx,%esi
   1546f:	89 c7                	mov    %eax,%edi
   15471:	e8 38 57 ff ff       	callq  abae <safe_mod_func_uint8_t_u_u>
   15476:	0f b6 c0             	movzbl %al,%eax
   15479:	66 31 85 3a fe ff ff 	xor    %ax,-0x1c6(%rbp)
   15480:	c6 05 b1 7b 00 00 00 	movb   $0x0,0x7bb1(%rip)        # 1d038 <g_97>
   15487:	90                   	nop
   15488:	0f b6 05 a9 7b 00 00 	movzbl 0x7ba9(%rip),%eax        # 1d038 <g_97>
   1548f:	3c 01                	cmp    $0x1,%al
   15491:	77 0c                	ja     1549f <func_54+0x2fe>
   15493:	48 8b 05 ae a9 00 00 	mov    0xa9ae(%rip),%rax        # 1fe48 <g_33>
   1549a:	48 8b 00             	mov    (%rax),%rax
   1549d:	eb 0a                	jmp    154a9 <func_54+0x308>
   1549f:	48 8b 05 a2 a9 00 00 	mov    0xa9a2(%rip),%rax        # 1fe48 <g_33>
   154a6:	48 8b 00             	mov    (%rax),%rax
   154a9:	48 8b 4d e8          	mov    -0x18(%rbp),%rcx
   154ad:	64 48 33 0c 25 28 00 	xor    %fs:0x28,%rcx
   154b4:	00 00 
   154b6:	74 05                	je     154bd <func_54+0x31c>
   154b8:	e8 b3 4b ff ff       	callq  a070 <__stack_chk_fail@plt>
   154bd:	48 81 c4 d0 01 00 00 	add    $0x1d0,%rsp
   154c4:	5b                   	pop    %rbx
   154c5:	41 5c                	pop    %r12
   154c7:	5d                   	pop    %rbp
   154c8:	c3                   	retq   

00000000000154c9 <func_58>:
   154c9:	f3 0f 1e fa          	endbr64 
   154cd:	55                   	push   %rbp
   154ce:	48 89 e5             	mov    %rsp,%rbp
   154d1:	41 54                	push   %r12
   154d3:	53                   	push   %rbx
   154d4:	48 81 ec 30 03 00 00 	sub    $0x330,%rsp
   154db:	48 89 bd c8 fc ff ff 	mov    %rdi,-0x338(%rbp)
   154e2:	48 89 b5 c0 fc ff ff 	mov    %rsi,-0x340(%rbp)
   154e9:	64 48 8b 04 25 28 00 	mov    %fs:0x28,%rax
   154f0:	00 00 
   154f2:	48 89 45 e8          	mov    %rax,-0x18(%rbp)
   154f6:	31 c0                	xor    %eax,%eax
   154f8:	48 8d 05 31 7b 00 00 	lea    0x7b31(%rip),%rax        # 1d030 <g_63>
   154ff:	48 89 85 08 fd ff ff 	mov    %rax,-0x2f8(%rbp)
   15506:	48 8d 05 13 84 00 00 	lea    0x8413(%rip),%rax        # 1d920 <g_350>
   1550d:	48 89 85 10 fd ff ff 	mov    %rax,-0x2f0(%rbp)
   15514:	c6 85 d5 fc ff ff 08 	movb   $0x8,-0x32b(%rbp)
   1551b:	c7 85 e4 fc ff ff 73 	movl   $0xf242d73,-0x31c(%rbp)
   15522:	2d 24 0f 
   15525:	c7 85 e8 fc ff ff 01 	movl   $0x1,-0x318(%rbp)
   1552c:	00 00 00 
   1552f:	c7 85 ec fc ff ff 00 	movl   $0x0,-0x314(%rbp)
   15536:	00 00 00 
   15539:	c7 85 f0 fc ff ff 06 	movl   $0x6,-0x310(%rbp)
   15540:	00 00 00 
   15543:	c7 85 f4 fc ff ff ff 	movl   $0xffffffff,-0x30c(%rbp)
   1554a:	ff ff ff 
   1554d:	66 c7 85 d6 fc ff ff 	movw   $0xde9c,-0x32a(%rbp)
   15554:	9c de 
   15556:	48 8d 85 80 fe ff ff 	lea    -0x180(%rbp),%rax
   1555d:	48 8d 15 fc 44 00 00 	lea    0x44fc(%rip),%rdx        # 19a60 <g_2536+0x9dc>
   15564:	b9 2d 00 00 00       	mov    $0x2d,%ecx
   15569:	48 89 c7             	mov    %rax,%rdi
   1556c:	48 89 d6             	mov    %rdx,%rsi
   1556f:	f3 48 a5             	rep movsq %ds:(%rsi),%es:(%rdi)
   15572:	48 8d 05 5f cf 00 00 	lea    0xcf5f(%rip),%rax        # 224d8 <g_269+0x18>
   15579:	48 89 85 18 fd ff ff 	mov    %rax,-0x2e8(%rbp)
   15580:	48 8d 05 79 83 00 00 	lea    0x8379(%rip),%rax        # 1d900 <g_267>
   15587:	48 89 85 20 fd ff ff 	mov    %rax,-0x2e0(%rbp)
   1558e:	c7 85 dc fc ff ff 00 	movl   $0x0,-0x324(%rbp)
   15595:	00 00 00 
   15598:	eb 1b                	jmp    155b5 <func_58+0xec>
   1559a:	8b 85 dc fc ff ff    	mov    -0x324(%rbp),%eax
   155a0:	48 98                	cltq   
   155a2:	48 c7 84 c5 60 fd ff 	movq   $0x0,-0x2a0(%rbp,%rax,8)
   155a9:	ff 00 00 00 00 
   155ae:	83 85 dc fc ff ff 01 	addl   $0x1,-0x324(%rbp)
   155b5:	83 bd dc fc ff ff 06 	cmpl   $0x6,-0x324(%rbp)
   155bc:	7e dc                	jle    1559a <func_58+0xd1>
   155be:	48 8b 05 83 a8 00 00 	mov    0xa883(%rip),%rax        # 1fe48 <g_33>
   155c5:	48 8b 00             	mov    (%rax),%rax
   155c8:	48 85 c0             	test   %rax,%rax
   155cb:	0f 95 c0             	setne  %al
   155ce:	0f b6 d0             	movzbl %al,%edx
   155d1:	48 8b 85 08 fd ff ff 	mov    -0x2f8(%rbp),%rax
   155d8:	89 10                	mov    %edx,(%rax)
   155da:	c6 05 43 7a 00 00 ed 	movb   $0xed,0x7a43(%rip)        # 1d024 <g_6>
   155e1:	e9 61 04 00 00       	jmpq   15a47 <func_58+0x57e>
   155e6:	66 c7 85 a0 fd ff ff 	movw   $0xffff,-0x260(%rbp)
   155ed:	ff ff 
   155ef:	66 c7 85 a2 fd ff ff 	movw   $0x8638,-0x25e(%rbp)
   155f6:	38 86 
   155f8:	66 c7 85 a4 fd ff ff 	movw   $0x0,-0x25c(%rbp)
   155ff:	00 00 
   15601:	66 c7 85 a6 fd ff ff 	movw   $0x0,-0x25a(%rbp)
   15608:	00 00 
   1560a:	66 c7 85 a8 fd ff ff 	movw   $0x8638,-0x258(%rbp)
   15611:	38 86 
   15613:	66 c7 85 aa fd ff ff 	movw   $0xe796,-0x256(%rbp)
   1561a:	96 e7 
   1561c:	66 c7 85 ac fd ff ff 	movw   $0xffff,-0x254(%rbp)
   15623:	ff ff 
   15625:	66 c7 85 ae fd ff ff 	movw   $0x1,-0x252(%rbp)
   1562c:	01 00 
   1562e:	66 c7 85 b0 fd ff ff 	movw   $0x4,-0x250(%rbp)
   15635:	04 00 
   15637:	66 c7 85 b2 fd ff ff 	movw   $0x31b5,-0x24e(%rbp)
   1563e:	b5 31 
   15640:	66 c7 85 b4 fd ff ff 	movw   $0x0,-0x24c(%rbp)
   15647:	00 00 
   15649:	66 c7 85 b6 fd ff ff 	movw   $0xf99d,-0x24a(%rbp)
   15650:	9d f9 
   15652:	66 c7 85 b8 fd ff ff 	movw   $0x0,-0x248(%rbp)
   15659:	00 00 
   1565b:	66 c7 85 ba fd ff ff 	movw   $0x8638,-0x246(%rbp)
   15662:	38 86 
   15664:	66 c7 85 bc fd ff ff 	movw   $0x8638,-0x244(%rbp)
   1566b:	38 86 
   1566d:	66 c7 85 be fd ff ff 	movw   $0x3,-0x242(%rbp)
   15674:	03 00 
   15676:	66 c7 85 c0 fd ff ff 	movw   $0x4,-0x240(%rbp)
   1567d:	04 00 
   1567f:	66 c7 85 c2 fd ff ff 	movw   $0x3,-0x23e(%rbp)
   15686:	03 00 
   15688:	66 c7 85 c4 fd ff ff 	movw   $0x0,-0x23c(%rbp)
   1568f:	00 00 
   15691:	66 c7 85 c6 fd ff ff 	movw   $0xe796,-0x23a(%rbp)
   15698:	96 e7 
   1569a:	66 c7 85 c8 fd ff ff 	movw   $0x8638,-0x238(%rbp)
   156a1:	38 86 
   156a3:	66 c7 85 ca fd ff ff 	movw   $0x0,-0x236(%rbp)
   156aa:	00 00 
   156ac:	66 c7 85 cc fd ff ff 	movw   $0x0,-0x234(%rbp)
   156b3:	00 00 
   156b5:	66 c7 85 ce fd ff ff 	movw   $0x8638,-0x232(%rbp)
   156bc:	38 86 
   156be:	66 c7 85 d0 fd ff ff 	movw   $0x0,-0x230(%rbp)
   156c5:	00 00 
   156c7:	66 c7 85 d2 fd ff ff 	movw   $0x0,-0x22e(%rbp)
   156ce:	00 00 
   156d0:	66 c7 85 d4 fd ff ff 	movw   $0x0,-0x22c(%rbp)
   156d7:	00 00 
   156d9:	66 c7 85 d6 fd ff ff 	movw   $0x54d,-0x22a(%rbp)
   156e0:	4d 05 
   156e2:	66 c7 85 d8 fd ff ff 	movw   $0x4,-0x228(%rbp)
   156e9:	04 00 
   156eb:	66 c7 85 da fd ff ff 	movw   $0x3,-0x226(%rbp)
   156f2:	03 00 
   156f4:	66 c7 85 dc fd ff ff 	movw   $0xffff,-0x224(%rbp)
   156fb:	ff ff 
   156fd:	66 c7 85 de fd ff ff 	movw   $0x0,-0x222(%rbp)
   15704:	00 00 
   15706:	66 c7 85 e0 fd ff ff 	movw   $0x0,-0x220(%rbp)
   1570d:	00 00 
   1570f:	66 c7 85 e2 fd ff ff 	movw   $0x0,-0x21e(%rbp)
   15716:	00 00 
   15718:	66 c7 85 e4 fd ff ff 	movw   $0x0,-0x21c(%rbp)
   1571f:	00 00 
   15721:	66 c7 85 e6 fd ff ff 	movw   $0x3,-0x21a(%rbp)
   15728:	03 00 
   1572a:	66 c7 85 e8 fd ff ff 	movw   $0xffff,-0x218(%rbp)
   15731:	ff ff 
   15733:	66 c7 85 ea fd ff ff 	movw   $0x3,-0x216(%rbp)
   1573a:	03 00 
   1573c:	66 c7 85 ec fd ff ff 	movw   $0x0,-0x214(%rbp)
   15743:	00 00 
   15745:	66 c7 85 ee fd ff ff 	movw   $0x31b5,-0x212(%rbp)
   1574c:	b5 31 
   1574e:	66 c7 85 f0 fd ff ff 	movw   $0xf99d,-0x210(%rbp)
   15755:	9d f9 
   15757:	66 c7 85 f2 fd ff ff 	movw   $0x0,-0x20e(%rbp)
   1575e:	00 00 
   15760:	66 c7 85 f4 fd ff ff 	movw   $0x0,-0x20c(%rbp)
   15767:	00 00 
   15769:	66 c7 85 f6 fd ff ff 	movw   $0x0,-0x20a(%rbp)
   15770:	00 00 
   15772:	66 c7 85 f8 fd ff ff 	movw   $0xf99d,-0x208(%rbp)
   15779:	9d f9 
   1577b:	66 c7 85 fa fd ff ff 	movw   $0x3,-0x206(%rbp)
   15782:	03 00 
   15784:	66 c7 85 fc fd ff ff 	movw   $0x0,-0x204(%rbp)
   1578b:	00 00 
   1578d:	66 c7 85 fe fd ff ff 	movw   $0x1,-0x202(%rbp)
   15794:	01 00 
   15796:	66 c7 85 00 fe ff ff 	movw   $0x0,-0x200(%rbp)
   1579d:	00 00 
   1579f:	66 c7 85 02 fe ff ff 	movw   $0x0,-0x1fe(%rbp)
   157a6:	00 00 
   157a8:	66 c7 85 04 fe ff ff 	movw   $0xf99d,-0x1fc(%rbp)
   157af:	9d f9 
   157b1:	66 c7 85 06 fe ff ff 	movw   $0x0,-0x1fa(%rbp)
   157b8:	00 00 
   157ba:	66 c7 85 08 fe ff ff 	movw   $0x0,-0x1f8(%rbp)
   157c1:	00 00 
   157c3:	66 c7 85 0a fe ff ff 	movw   $0xf99d,-0x1f6(%rbp)
   157ca:	9d f9 
   157cc:	66 c7 85 0c fe ff ff 	movw   $0x0,-0x1f4(%rbp)
   157d3:	00 00 
   157d5:	66 c7 85 0e fe ff ff 	movw   $0x3,-0x1f2(%rbp)
   157dc:	03 00 
   157de:	66 c7 85 10 fe ff ff 	movw   $0x4,-0x1f0(%rbp)
   157e5:	04 00 
   157e7:	66 c7 85 12 fe ff ff 	movw   $0x54d,-0x1ee(%rbp)
   157ee:	4d 05 
   157f0:	66 c7 85 14 fe ff ff 	movw   $0x0,-0x1ec(%rbp)
   157f7:	00 00 
   157f9:	66 c7 85 16 fe ff ff 	movw   $0x0,-0x1ea(%rbp)
   15800:	00 00 
   15802:	66 c7 85 18 fe ff ff 	movw   $0xffff,-0x1e8(%rbp)
   15809:	ff ff 
   1580b:	66 c7 85 1a fe ff ff 	movw   $0xf99d,-0x1e6(%rbp)
   15812:	9d f9 
   15814:	66 c7 85 1c fe ff ff 	movw   $0xffff,-0x1e4(%rbp)
   1581b:	ff ff 
   1581d:	66 c7 85 1e fe ff ff 	movw   $0x0,-0x1e2(%rbp)
   15824:	00 00 
   15826:	66 c7 85 20 fe ff ff 	movw   $0xf99d,-0x1e0(%rbp)
   1582d:	9d f9 
   1582f:	66 c7 85 22 fe ff ff 	movw   $0x0,-0x1de(%rbp)
   15836:	00 00 
   15838:	66 c7 85 24 fe ff ff 	movw   $0xffff,-0x1dc(%rbp)
   1583f:	ff ff 
   15841:	66 c7 85 26 fe ff ff 	movw   $0x31b5,-0x1da(%rbp)
   15848:	b5 31 
   1584a:	66 c7 85 28 fe ff ff 	movw   $0x0,-0x1d8(%rbp)
   15851:	00 00 
   15853:	66 c7 85 2a fe ff ff 	movw   $0x31b5,-0x1d6(%rbp)
   1585a:	b5 31 
   1585c:	66 c7 85 2c fe ff ff 	movw   $0x8638,-0x1d4(%rbp)
   15863:	38 86 
   15865:	66 c7 85 2e fe ff ff 	movw   $0x8638,-0x1d2(%rbp)
   1586c:	38 86 
   1586e:	66 c7 85 30 fe ff ff 	movw   $0x0,-0x1d0(%rbp)
   15875:	00 00 
   15877:	66 c7 85 32 fe ff ff 	movw   $0xf99d,-0x1ce(%rbp)
   1587e:	9d f9 
   15880:	66 c7 85 34 fe ff ff 	movw   $0x0,-0x1cc(%rbp)
   15887:	00 00 
   15889:	66 c7 85 36 fe ff ff 	movw   $0x23a,-0x1ca(%rbp)
   15890:	3a 02 
   15892:	66 c7 85 38 fe ff ff 	movw   $0x0,-0x1c8(%rbp)
   15899:	00 00 
   1589b:	66 c7 85 3a fe ff ff 	movw   $0x0,-0x1c6(%rbp)
   158a2:	00 00 
   158a4:	66 c7 85 3c fe ff ff 	movw   $0xfff8,-0x1c4(%rbp)
   158ab:	f8 ff 
   158ad:	66 c7 85 3e fe ff ff 	movw   $0x31b5,-0x1c2(%rbp)
   158b4:	b5 31 
   158b6:	66 c7 85 40 fe ff ff 	movw   $0x0,-0x1c0(%rbp)
   158bd:	00 00 
   158bf:	66 c7 85 42 fe ff ff 	movw   $0x0,-0x1be(%rbp)
   158c6:	00 00 
   158c8:	66 c7 85 44 fe ff ff 	movw   $0x4358,-0x1bc(%rbp)
   158cf:	58 43 
   158d1:	66 c7 85 46 fe ff ff 	movw   $0x0,-0x1ba(%rbp)
   158d8:	00 00 
   158da:	66 c7 85 48 fe ff ff 	movw   $0xa176,-0x1b8(%rbp)
   158e1:	76 a1 
   158e3:	66 c7 85 4a fe ff ff 	movw   $0x1,-0x1b6(%rbp)
   158ea:	01 00 
   158ec:	66 c7 85 4c fe ff ff 	movw   $0x0,-0x1b4(%rbp)
   158f3:	00 00 
   158f5:	66 c7 85 4e fe ff ff 	movw   $0x0,-0x1b2(%rbp)
   158fc:	00 00 
   158fe:	66 c7 85 50 fe ff ff 	movw   $0x0,-0x1b0(%rbp)
   15905:	00 00 
   15907:	66 c7 85 52 fe ff ff 	movw   $0x1,-0x1ae(%rbp)
   1590e:	01 00 
   15910:	66 c7 85 54 fe ff ff 	movw   $0x4358,-0x1ac(%rbp)
   15917:	58 43 
   15919:	66 c7 85 56 fe ff ff 	movw   $0xffff,-0x1aa(%rbp)
   15920:	ff ff 
   15922:	66 c7 85 58 fe ff ff 	movw   $0x0,-0x1a8(%rbp)
   15929:	00 00 
   1592b:	66 c7 85 5a fe ff ff 	movw   $0xa176,-0x1a6(%rbp)
   15932:	76 a1 
   15934:	66 c7 85 5c fe ff ff 	movw   $0xffff,-0x1a4(%rbp)
   1593b:	ff ff 
   1593d:	66 c7 85 5e fe ff ff 	movw   $0x1,-0x1a2(%rbp)
   15944:	01 00 
   15946:	66 c7 85 60 fe ff ff 	movw   $0xffff,-0x1a0(%rbp)
   1594d:	ff ff 
   1594f:	66 c7 85 62 fe ff ff 	movw   $0x54d,-0x19e(%rbp)
   15956:	4d 05 
   15958:	66 c7 85 64 fe ff ff 	movw   $0xffff,-0x19c(%rbp)
   1595f:	ff ff 
   15961:	66 c7 85 66 fe ff ff 	movw   $0x0,-0x19a(%rbp)
   15968:	00 00 
   1596a:	66 c7 85 68 fe ff ff 	movw   $0x0,-0x198(%rbp)
   15971:	00 00 
   15973:	66 c7 85 6a fe ff ff 	movw   $0x0,-0x196(%rbp)
   1597a:	00 00 
   1597c:	66 c7 85 6c fe ff ff 	movw   $0x8638,-0x194(%rbp)
   15983:	38 86 
   15985:	66 c7 85 6e fe ff ff 	movw   $0xffff,-0x192(%rbp)
   1598c:	ff ff 
   1598e:	66 c7 85 70 fe ff ff 	movw   $0xffff,-0x190(%rbp)
   15995:	ff ff 
   15997:	c7 85 f8 fc ff ff fb 	movl   $0xcc1a10fb,-0x308(%rbp)
   1599e:	10 1a cc 
   159a1:	c7 85 fc fc ff ff 7c 	movl   $0x9906447c,-0x304(%rbp)
   159a8:	44 06 99 
   159ab:	66 c7 85 d8 fc ff ff 	movw   $0x8de8,-0x328(%rbp)
   159b2:	e8 8d 
   159b4:	48 8d 05 3d 7f 00 00 	lea    0x7f3d(%rip),%rax        # 1d8f8 <g_153>
   159bb:	48 89 85 28 fd ff ff 	mov    %rax,-0x2d8(%rbp)
   159c2:	c7 85 00 fd ff ff 01 	movl   $0x1,-0x300(%rbp)
   159c9:	00 00 00 
   159cc:	48 c7 85 30 fd ff ff 	movq   $0x0,-0x2d0(%rbp)
   159d3:	00 00 00 00 
   159d7:	66 c7 85 da fc ff ff 	movw   $0xfffe,-0x326(%rbp)
   159de:	fe ff 
   159e0:	c7 85 04 fd ff ff f9 	movl   $0xfffffff9,-0x2fc(%rbp)
   159e7:	ff ff ff 
   159ea:	48 8d 05 37 7f 00 00 	lea    0x7f37(%rip),%rax        # 1d928 <g_350+0x8>
   159f1:	48 89 85 38 fd ff ff 	mov    %rax,-0x2c8(%rbp)
   159f8:	c7 85 e0 fc ff ff 00 	movl   $0x0,-0x320(%rbp)
   159ff:	00 00 00 
   15a02:	eb 1e                	jmp    15a22 <func_58+0x559>
   15a04:	8b 85 e0 fc ff ff    	mov    -0x320(%rbp),%eax
   15a0a:	48 98                	cltq   
   15a0c:	48 8d 15 c5 ca 00 00 	lea    0xcac5(%rip),%rdx        # 224d8 <g_269+0x18>
   15a13:	48 89 94 c5 40 fd ff 	mov    %rdx,-0x2c0(%rbp,%rax,8)
   15a1a:	ff 
   15a1b:	83 85 e0 fc ff ff 01 	addl   $0x1,-0x320(%rbp)
   15a22:	83 bd e0 fc ff ff 02 	cmpl   $0x2,-0x320(%rbp)
   15a29:	7e d9                	jle    15a04 <func_58+0x53b>
   15a2b:	0f b6 05 f2 75 00 00 	movzbl 0x75f2(%rip),%eax        # 1d024 <g_6>
   15a32:	0f b6 c0             	movzbl %al,%eax
   15a35:	be 09 00 00 00       	mov    $0x9,%esi
   15a3a:	89 c7                	mov    %eax,%edi
   15a3c:	e8 75 4b ff ff       	callq  a5b6 <safe_add_func_int32_t_s_s>
   15a41:	88 05 dd 75 00 00    	mov    %al,0x75dd(%rip)        # 1d024 <g_6>
   15a47:	0f b6 05 d6 75 00 00 	movzbl 0x75d6(%rip),%eax        # 1d024 <g_6>
   15a4e:	3c 18                	cmp    $0x18,%al
   15a50:	0f 86 90 fb ff ff    	jbe    155e6 <func_58+0x11d>
   15a56:	48 8b 85 08 fd ff ff 	mov    -0x2f8(%rbp),%rax
   15a5d:	8b 18                	mov    (%rax),%ebx
   15a5f:	48 8b 85 c8 fc ff ff 	mov    -0x338(%rbp),%rax
   15a66:	44 8b 20             	mov    (%rax),%r12d
   15a69:	48 8b 05 d0 a3 00 00 	mov    0xa3d0(%rip),%rax        # 1fe40 <g_34>
   15a70:	8b 00                	mov    (%rax),%eax
   15a72:	85 c0                	test   %eax,%eax
   15a74:	0f 85 e0 00 00 00    	jne    15b5a <func_58+0x691>
   15a7a:	8b 05 e4 7f 00 00    	mov    0x7fe4(%rip),%eax        # 1da64 <g_648>
   15a80:	48 8b 05 c1 a3 00 00 	mov    0xa3c1(%rip),%rax        # 1fe48 <g_33>
   15a87:	48 8b 85 18 fd ff ff 	mov    -0x2e8(%rbp),%rax
   15a8e:	8b 00                	mov    (%rax),%eax
   15a90:	8d 48 01             	lea    0x1(%rax),%ecx
   15a93:	48 8b 95 18 fd ff ff 	mov    -0x2e8(%rbp),%rdx
   15a9a:	89 0a                	mov    %ecx,(%rdx)
   15a9c:	48 8b 95 90 fd ff ff 	mov    -0x270(%rbp),%rdx
   15aa3:	48 85 d2             	test   %rdx,%rdx
   15aa6:	0f 95 c2             	setne  %dl
   15aa9:	0f b6 d2             	movzbl %dl,%edx
   15aac:	39 d0                	cmp    %edx,%eax
   15aae:	48 8b 05 9b a3 00 00 	mov    0xa39b(%rip),%rax        # 1fe50 <g_56>
   15ab5:	0f b7 00             	movzwl (%rax),%eax
   15ab8:	48 0f bf d0          	movswq %ax,%rdx
   15abc:	48 8b 05 5d 79 00 00 	mov    0x795d(%rip),%rax        # 1d420 <g_110+0x3c0>
   15ac3:	48 21 c2             	and    %rax,%rdx
   15ac6:	48 b8 c9 6f fe d5 6e 	movabs $0xc7813e6ed5fe6fc9,%rax
   15acd:	3e 81 c7 
   15ad0:	48 39 c2             	cmp    %rax,%rdx
   15ad3:	48 8b 85 08 fd ff ff 	mov    -0x2f8(%rbp),%rax
   15ada:	8b 00                	mov    (%rax),%eax
   15adc:	48 98                	cltq   
   15ade:	be 00 00 00 00       	mov    $0x0,%esi
   15ae3:	48 89 c7             	mov    %rax,%rdi
   15ae6:	e8 43 55 ff ff       	callq  b02e <safe_add_func_uint64_t_u_u>
   15aeb:	48 8b 85 08 fd ff ff 	mov    -0x2f8(%rbp),%rax
   15af2:	8b 00                	mov    (%rax),%eax
   15af4:	be 56 bb ba f0       	mov    $0xf0babb56,%esi
   15af9:	89 c7                	mov    %eax,%edi
   15afb:	e8 cc 4b ff ff       	callq  a6cc <safe_mod_func_int32_t_s_s>
   15b00:	85 c0                	test   %eax,%eax
   15b02:	75 0e                	jne    15b12 <func_58+0x649>
   15b04:	48 8b 85 c0 fc ff ff 	mov    -0x340(%rbp),%rax
   15b0b:	48 8b 00             	mov    (%rax),%rax
   15b0e:	8b 00                	mov    (%rax),%eax
   15b10:	85 c0                	test   %eax,%eax
   15b12:	0f b7 05 e1 7d 00 00 	movzwl 0x7de1(%rip),%eax        # 1d8fa <g_159>
   15b19:	0f bf d0             	movswl %ax,%edx
   15b1c:	48 8b 05 1d a3 00 00 	mov    0xa31d(%rip),%rax        # 1fe40 <g_34>
   15b23:	8b 00                	mov    (%rax),%eax
   15b25:	39 c2                	cmp    %eax,%edx
   15b27:	0f 9c c0             	setl   %al
   15b2a:	0f b6 d0             	movzbl %al,%edx
   15b2d:	48 8b 85 08 fd ff ff 	mov    -0x2f8(%rbp),%rax
   15b34:	8b 00                	mov    (%rax),%eax
   15b36:	39 c2                	cmp    %eax,%edx
   15b38:	0f 9e c0             	setle  %al
   15b3b:	0f b6 c0             	movzbl %al,%eax
   15b3e:	89 c6                	mov    %eax,%esi
   15b40:	bf 80 00 00 00       	mov    $0x80,%edi
   15b45:	e8 49 50 ff ff       	callq  ab93 <safe_mul_func_uint8_t_u_u>
   15b4a:	48 8b 05 f7 a2 00 00 	mov    0xa2f7(%rip),%rax        # 1fe48 <g_33>
   15b51:	48 8b 00             	mov    (%rax),%rax
   15b54:	8b 00                	mov    (%rax),%eax
   15b56:	85 c0                	test   %eax,%eax
   15b58:	74 07                	je     15b61 <func_58+0x698>
   15b5a:	b8 01 00 00 00       	mov    $0x1,%eax
   15b5f:	eb 05                	jmp    15b66 <func_58+0x69d>
   15b61:	b8 00 00 00 00       	mov    $0x0,%eax
   15b66:	48 63 d0             	movslq %eax,%rdx
   15b69:	48 8b 05 20 a3 00 00 	mov    0xa320(%rip),%rax        # 1fe90 <g_496>
   15b70:	48 8b 00             	mov    (%rax),%rax
   15b73:	48 39 c2             	cmp    %rax,%rdx
   15b76:	0f 9e c0             	setle  %al
   15b79:	0f b6 c0             	movzbl %al,%eax
   15b7c:	44 89 e6             	mov    %r12d,%esi
   15b7f:	89 c7                	mov    %eax,%edi
   15b81:	e8 46 4b ff ff       	callq  a6cc <safe_mod_func_int32_t_s_s>
   15b86:	0f be c0             	movsbl %al,%eax
   15b89:	89 de                	mov    %ebx,%esi
   15b8b:	89 c7                	mov    %eax,%edi
   15b8d:	e8 a3 47 ff ff       	callq  a335 <safe_rshift_func_int8_t_s_s>
   15b92:	48 8b 85 08 fd ff ff 	mov    -0x2f8(%rbp),%rax
   15b99:	8b 00                	mov    (%rax),%eax
   15b9b:	85 c0                	test   %eax,%eax
   15b9d:	74 07                	je     15ba6 <func_58+0x6dd>
   15b9f:	ba 01 00 00 00       	mov    $0x1,%edx
   15ba4:	eb 05                	jmp    15bab <func_58+0x6e2>
   15ba6:	ba 00 00 00 00       	mov    $0x0,%edx
   15bab:	48 8b 85 20 fd ff ff 	mov    -0x2e0(%rbp),%rax
   15bb2:	8b 00                	mov    (%rax),%eax
   15bb4:	21 c2                	and    %eax,%edx
   15bb6:	48 8b 85 20 fd ff ff 	mov    -0x2e0(%rbp),%rax
   15bbd:	89 10                	mov    %edx,(%rax)
   15bbf:	48 8b 05 82 a2 00 00 	mov    0xa282(%rip),%rax        # 1fe48 <g_33>
   15bc6:	48 8b 00             	mov    (%rax),%rax
   15bc9:	8b 00                	mov    (%rax),%eax
   15bcb:	48 8b 5d e8          	mov    -0x18(%rbp),%rbx
   15bcf:	64 48 33 1c 25 28 00 	xor    %fs:0x28,%rbx
   15bd6:	00 00 
   15bd8:	74 05                	je     15bdf <func_58+0x716>
   15bda:	e8 91 44 ff ff       	callq  a070 <__stack_chk_fail@plt>
   15bdf:	48 81 c4 30 03 00 00 	add    $0x330,%rsp
   15be6:	5b                   	pop    %rbx
   15be7:	41 5c                	pop    %r12
   15be9:	5d                   	pop    %rbp
   15bea:	c3                   	retq   

0000000000015beb <func_68>:
   15beb:	f3 0f 1e fa          	endbr64 
   15bef:	55                   	push   %rbp
   15bf0:	48 89 e5             	mov    %rsp,%rbp
   15bf3:	41 57                	push   %r15
   15bf5:	41 56                	push   %r14
   15bf7:	41 55                	push   %r13
   15bf9:	41 54                	push   %r12
   15bfb:	53                   	push   %rbx
   15bfc:	48 81 ec 00 10 00 00 	sub    $0x1000,%rsp
   15c03:	48 83 0c 24 00       	orq    $0x0,(%rsp)
   15c08:	48 81 ec 78 04 00 00 	sub    $0x478,%rsp
   15c0f:	48 89 bd 78 eb ff ff 	mov    %rdi,-0x1488(%rbp)
   15c16:	48 89 b5 70 eb ff ff 	mov    %rsi,-0x1490(%rbp)
   15c1d:	48 89 95 68 eb ff ff 	mov    %rdx,-0x1498(%rbp)
   15c24:	89 c8                	mov    %ecx,%eax
   15c26:	66 89 85 64 eb ff ff 	mov    %ax,-0x149c(%rbp)
   15c2d:	64 48 8b 04 25 28 00 	mov    %fs:0x28,%rax
   15c34:	00 00 
   15c36:	48 89 45 c8          	mov    %rax,-0x38(%rbp)
   15c3a:	31 c0                	xor    %eax,%eax
   15c3c:	48 c7 85 c8 eb ff ff 	movq   $0x2,-0x1438(%rbp)
   15c43:	02 00 00 00 
   15c47:	48 8d 85 30 f8 ff ff 	lea    -0x7d0(%rbp),%rax
   15c4e:	48 8d 15 6b 9a 00 00 	lea    0x9a6b(%rip),%rdx        # 1f6c0 <g_3068+0x1398>
   15c55:	b9 f0 00 00 00       	mov    $0xf0,%ecx
   15c5a:	48 89 c7             	mov    %rax,%rdi
   15c5d:	48 89 d6             	mov    %rdx,%rsi
   15c60:	f3 48 a5             	rep movsq %ds:(%rsi),%es:(%rdi)
   15c63:	c7 85 b0 eb ff ff 8a 	movl   $0xc22d9d8a,-0x1450(%rbp)
   15c6a:	9d 2d c2 
   15c6d:	48 8d 05 ba 73 00 00 	lea    0x73ba(%rip),%rax        # 1d02e <g_57>
   15c74:	48 89 85 f8 eb ff ff 	mov    %rax,-0x1408(%rbp)
   15c7b:	c7 85 b4 eb ff ff d6 	movl   $0x827553d6,-0x144c(%rbp)
   15c82:	53 75 82 
   15c85:	48 8d 05 98 73 00 00 	lea    0x7398(%rip),%rax        # 1d024 <g_6>
   15c8c:	48 89 85 d0 eb ff ff 	mov    %rax,-0x1430(%rbp)
   15c93:	48 8d 85 d0 eb ff ff 	lea    -0x1430(%rbp),%rax
   15c9a:	48 89 85 00 ec ff ff 	mov    %rax,-0x1400(%rbp)
   15ca1:	c7 85 98 eb ff ff 00 	movl   $0x0,-0x1468(%rbp)
   15ca8:	00 00 00 
   15cab:	eb 1e                	jmp    15ccb <func_68+0xe0>
   15cad:	8b 85 98 eb ff ff    	mov    -0x1468(%rbp),%eax
   15cb3:	48 98                	cltq   
   15cb5:	48 8d 15 3c 7c 00 00 	lea    0x7c3c(%rip),%rdx        # 1d8f8 <g_153>
   15cbc:	48 89 94 c5 60 ec ff 	mov    %rdx,-0x13a0(%rbp,%rax,8)
   15cc3:	ff 
   15cc4:	83 85 98 eb ff ff 01 	addl   $0x1,-0x1468(%rbp)
   15ccb:	83 bd 98 eb ff ff 01 	cmpl   $0x1,-0x1468(%rbp)
   15cd2:	7e d9                	jle    15cad <func_68+0xc2>
   15cd4:	c7 85 98 eb ff ff 00 	movl   $0x0,-0x1468(%rbp)
   15cdb:	00 00 00 
   15cde:	eb 1e                	jmp    15cfe <func_68+0x113>
   15ce0:	8b 85 98 eb ff ff    	mov    -0x1468(%rbp),%eax
   15ce6:	48 98                	cltq   
   15ce8:	48 8d 15 4d 73 00 00 	lea    0x734d(%rip),%rdx        # 1d03c <g_99>
   15cef:	48 89 94 c5 70 ec ff 	mov    %rdx,-0x1390(%rbp,%rax,8)
   15cf6:	ff 
   15cf7:	83 85 98 eb ff ff 01 	addl   $0x1,-0x1468(%rbp)
   15cfe:	83 bd 98 eb ff ff 07 	cmpl   $0x7,-0x1468(%rbp)
   15d05:	7e d9                	jle    15ce0 <func_68+0xf5>
   15d07:	66 c7 05 1e 73 00 00 	movw   $0x0,0x731e(%rip)        # 1d02e <g_57>
   15d0e:	00 00 
   15d10:	e9 93 19 00 00       	jmpq   176a8 <func_68+0x1abd>
   15d15:	c7 85 94 eb ff ff ff 	movl   $0xc0e6d3ff,-0x146c(%rbp)
   15d1c:	d3 e6 c0 
   15d1f:	48 c7 85 80 ed ff ff 	movq   $0x0,-0x1280(%rbp)
   15d26:	00 00 00 00 
   15d2a:	48 8d 05 97 7b 00 00 	lea    0x7b97(%rip),%rax        # 1d8c8 <g_117+0x48>
   15d31:	48 89 85 88 ed ff ff 	mov    %rax,-0x1278(%rbp)
   15d38:	48 8d 05 1d 7b 00 00 	lea    0x7b1d(%rip),%rax        # 1d85c <g_115+0x1c>
   15d3f:	48 89 85 90 ed ff ff 	mov    %rax,-0x1270(%rbp)
   15d46:	48 8d 05 9f 7b 00 00 	lea    0x7b9f(%rip),%rax        # 1d8ec <g_117+0x6c>
   15d4d:	48 89 85 98 ed ff ff 	mov    %rax,-0x1268(%rbp)
   15d54:	48 8d 05 95 7b 00 00 	lea    0x7b95(%rip),%rax        # 1d8f0 <g_117+0x70>
   15d5b:	48 89 85 a0 ed ff ff 	mov    %rax,-0x1260(%rbp)
   15d62:	48 8d 05 83 7b 00 00 	lea    0x7b83(%rip),%rax        # 1d8ec <g_117+0x6c>
   15d69:	48 89 85 a8 ed ff ff 	mov    %rax,-0x1258(%rbp)
   15d70:	48 8d 05 e5 7a 00 00 	lea    0x7ae5(%rip),%rax        # 1d85c <g_115+0x1c>
   15d77:	48 89 85 b0 ed ff ff 	mov    %rax,-0x1250(%rbp)
   15d7e:	48 8d 05 43 7b 00 00 	lea    0x7b43(%rip),%rax        # 1d8c8 <g_117+0x48>
   15d85:	48 89 85 b8 ed ff ff 	mov    %rax,-0x1248(%rbp)
   15d8c:	48 c7 85 c0 ed ff ff 	movq   $0x0,-0x1240(%rbp)
   15d93:	00 00 00 00 
   15d97:	48 8d 05 22 7b 00 00 	lea    0x7b22(%rip),%rax        # 1d8c0 <g_117+0x40>
   15d9e:	48 89 85 c8 ed ff ff 	mov    %rax,-0x1238(%rbp)
   15da5:	48 8d 05 dc 7a 00 00 	lea    0x7adc(%rip),%rax        # 1d888 <g_117+0x8>
   15dac:	48 89 85 d0 ed ff ff 	mov    %rax,-0x1230(%rbp)
   15db3:	48 c7 85 d8 ed ff ff 	movq   $0x0,-0x1228(%rbp)
   15dba:	00 00 00 00 
   15dbe:	48 8d 05 97 7a 00 00 	lea    0x7a97(%rip),%rax        # 1d85c <g_115+0x1c>
   15dc5:	48 89 85 e0 ed ff ff 	mov    %rax,-0x1220(%rbp)
   15dcc:	48 8d 05 1d 7b 00 00 	lea    0x7b1d(%rip),%rax        # 1d8f0 <g_117+0x70>
   15dd3:	48 89 85 e8 ed ff ff 	mov    %rax,-0x1218(%rbp)
   15dda:	48 8d 05 e7 7a 00 00 	lea    0x7ae7(%rip),%rax        # 1d8c8 <g_117+0x48>
   15de1:	48 89 85 f0 ed ff ff 	mov    %rax,-0x1210(%rbp)
   15de8:	48 8d 05 d9 7a 00 00 	lea    0x7ad9(%rip),%rax        # 1d8c8 <g_117+0x48>
   15def:	48 89 85 f8 ed ff ff 	mov    %rax,-0x1208(%rbp)
   15df6:	48 8d 05 f3 7a 00 00 	lea    0x7af3(%rip),%rax        # 1d8f0 <g_117+0x70>
   15dfd:	48 89 85 00 ee ff ff 	mov    %rax,-0x1200(%rbp)
   15e04:	48 8d 05 51 7a 00 00 	lea    0x7a51(%rip),%rax        # 1d85c <g_115+0x1c>
   15e0b:	48 89 85 08 ee ff ff 	mov    %rax,-0x11f8(%rbp)
   15e12:	48 c7 85 10 ee ff ff 	movq   $0x0,-0x11f0(%rbp)
   15e19:	00 00 00 00 
   15e1d:	48 8d 05 64 7a 00 00 	lea    0x7a64(%rip),%rax        # 1d888 <g_117+0x8>
   15e24:	48 89 85 18 ee ff ff 	mov    %rax,-0x11e8(%rbp)
   15e2b:	48 c7 85 20 ee ff ff 	movq   $0x0,-0x11e0(%rbp)
   15e32:	00 00 00 00 
   15e36:	48 8d 05 af 7a 00 00 	lea    0x7aaf(%rip),%rax        # 1d8ec <g_117+0x6c>
   15e3d:	48 89 85 28 ee ff ff 	mov    %rax,-0x11d8(%rbp)
   15e44:	48 c7 85 30 ee ff ff 	movq   $0x0,-0x11d0(%rbp)
   15e4b:	00 00 00 00 
   15e4f:	48 8d 05 9a 7a 00 00 	lea    0x7a9a(%rip),%rax        # 1d8f0 <g_117+0x70>
   15e56:	48 89 85 38 ee ff ff 	mov    %rax,-0x11c8(%rbp)
   15e5d:	48 8d 05 88 7a 00 00 	lea    0x7a88(%rip),%rax        # 1d8ec <g_117+0x6c>
   15e64:	48 89 85 40 ee ff ff 	mov    %rax,-0x11c0(%rbp)
   15e6b:	48 8d 05 16 7a 00 00 	lea    0x7a16(%rip),%rax        # 1d888 <g_117+0x8>
   15e72:	48 89 85 48 ee ff ff 	mov    %rax,-0x11b8(%rbp)
   15e79:	48 8d 05 6c 7a 00 00 	lea    0x7a6c(%rip),%rax        # 1d8ec <g_117+0x6c>
   15e80:	48 89 85 50 ee ff ff 	mov    %rax,-0x11b0(%rbp)
   15e87:	48 8d 05 62 7a 00 00 	lea    0x7a62(%rip),%rax        # 1d8f0 <g_117+0x70>
   15e8e:	48 89 85 58 ee ff ff 	mov    %rax,-0x11a8(%rbp)
   15e95:	48 c7 85 60 ee ff ff 	movq   $0x0,-0x11a0(%rbp)
   15e9c:	00 00 00 00 
   15ea0:	48 8d 05 45 7a 00 00 	lea    0x7a45(%rip),%rax        # 1d8ec <g_117+0x6c>
   15ea7:	48 89 85 68 ee ff ff 	mov    %rax,-0x1198(%rbp)
   15eae:	c7 85 90 eb ff ff 00 	movl   $0x0,-0x1470(%rbp)
   15eb5:	00 00 00 
   15eb8:	48 8d 05 39 7a 00 00 	lea    0x7a39(%rip),%rax        # 1d8f8 <g_153>
   15ebf:	48 89 85 d8 eb ff ff 	mov    %rax,-0x1428(%rbp)
   15ec6:	48 c7 85 08 ec ff ff 	movq   $0x0,-0x13f8(%rbp)
   15ecd:	00 00 00 00 
   15ed1:	48 c7 85 10 ec ff ff 	movq   $0x0,-0x13f0(%rbp)
   15ed8:	00 00 00 00 
   15edc:	48 8d 05 c9 c5 00 00 	lea    0xc5c9(%rip),%rax        # 224ac <g_104>
   15ee3:	48 89 85 18 ec ff ff 	mov    %rax,-0x13e8(%rbp)
   15eea:	48 8d 05 09 7a 00 00 	lea    0x7a09(%rip),%rax        # 1d8fa <g_159>
   15ef1:	48 89 85 20 ec ff ff 	mov    %rax,-0x13e0(%rbp)
   15ef8:	c7 85 b8 eb ff ff fd 	movl   $0xfffffffd,-0x1448(%rbp)
   15eff:	ff ff ff 
   15f02:	48 8d 05 ef 79 00 00 	lea    0x79ef(%rip),%rax        # 1d8f8 <g_153>
   15f09:	48 89 85 e8 eb ff ff 	mov    %rax,-0x1418(%rbp)
   15f10:	66 c7 85 8e eb ff ff 	movw   $0xfff6,-0x1472(%rbp)
   15f17:	f6 ff 
   15f19:	0f b6 05 20 71 00 00 	movzbl 0x7120(%rip),%eax        # 1d040 <g_102>
   15f20:	0f b6 d0             	movzbl %al,%edx
   15f23:	48 8b 85 c8 eb ff ff 	mov    -0x1438(%rbp),%rax
   15f2a:	48 09 c2             	or     %rax,%rdx
   15f2d:	48 8b 85 c8 eb ff ff 	mov    -0x1438(%rbp),%rax
   15f34:	48 39 c2             	cmp    %rax,%rdx
   15f37:	48 8b 85 c8 eb ff ff 	mov    -0x1438(%rbp),%rax
   15f3e:	0f bf d8             	movswl %ax,%ebx
   15f41:	0f b7 85 64 eb ff ff 	movzwl -0x149c(%rbp),%eax
   15f48:	44 0f bf e8          	movswl %ax,%r13d
   15f4c:	48 8b 05 f5 9e 00 00 	mov    0x9ef5(%rip),%rax        # 1fe48 <g_33>
   15f53:	48 8b 00             	mov    (%rax),%rax
   15f56:	44 8b 20             	mov    (%rax),%r12d
   15f59:	8b 85 94 eb ff ff    	mov    -0x146c(%rbp),%eax
   15f5f:	0f b7 c0             	movzwl %ax,%eax
   15f62:	be 08 00 00 00       	mov    $0x8,%esi
   15f67:	89 c7                	mov    %eax,%edi
   15f69:	e8 da 4e ff ff       	callq  ae48 <safe_rshift_func_uint16_t_u_s>
   15f6e:	0f b7 c0             	movzwl %ax,%eax
   15f71:	44 89 e6             	mov    %r12d,%esi
   15f74:	89 c7                	mov    %eax,%edi
   15f76:	e8 84 47 ff ff       	callq  a6ff <safe_div_func_int32_t_s_s>
   15f7b:	41 09 c5             	or     %eax,%r13d
   15f7e:	45 89 ec             	mov    %r13d,%r12d
   15f81:	48 8b 85 c8 eb ff ff 	mov    -0x1438(%rbp),%rax
   15f88:	41 89 c6             	mov    %eax,%r14d
   15f8b:	8b 05 cb 78 00 00    	mov    0x78cb(%rip),%eax        # 1d85c <g_115+0x1c>
   15f91:	83 e8 01             	sub    $0x1,%eax
   15f94:	89 05 c2 78 00 00    	mov    %eax,0x78c2(%rip)        # 1d85c <g_115+0x1c>
   15f9a:	8b 05 bc 78 00 00    	mov    0x78bc(%rip),%eax        # 1d85c <g_115+0x1c>
   15fa0:	f7 d0                	not    %eax
   15fa2:	41 89 c5             	mov    %eax,%r13d
   15fa5:	0f b7 05 82 70 00 00 	movzwl 0x7082(%rip),%eax        # 1d02e <g_57>
   15fac:	0f bf d0             	movswl %ax,%edx
   15faf:	48 8b 05 8a 9e 00 00 	mov    0x9e8a(%rip),%rax        # 1fe40 <g_34>
   15fb6:	8b 00                	mov    (%rax),%eax
   15fb8:	39 c2                	cmp    %eax,%edx
   15fba:	0f 9d c2             	setge  %dl
   15fbd:	48 8b 85 d8 eb ff ff 	mov    -0x1428(%rbp),%rax
   15fc4:	88 10                	mov    %dl,(%rax)
   15fc6:	0f b6 00             	movzbl (%rax),%eax
   15fc9:	0f be c0             	movsbl %al,%eax
   15fcc:	be 07 00 00 00       	mov    $0x7,%esi
   15fd1:	89 c7                	mov    %eax,%edi
   15fd3:	e8 c9 42 ff ff       	callq  a2a1 <safe_lshift_func_int8_t_s_s>
   15fd8:	48 8b 85 18 ec ff ff 	mov    -0x13e8(%rbp),%rax
   15fdf:	66 c7 00 00 00       	movw   $0x0,(%rax)
   15fe4:	48 8b 85 18 ec ff ff 	mov    -0x13e8(%rbp),%rax
   15feb:	0f b7 00             	movzwl (%rax),%eax
   15fee:	89 c2                	mov    %eax,%edx
   15ff0:	0f b6 05 02 79 00 00 	movzbl 0x7902(%rip),%eax        # 1d8f9 <g_157>
   15ff7:	09 d0                	or     %edx,%eax
   15ff9:	88 05 fa 78 00 00    	mov    %al,0x78fa(%rip)        # 1d8f9 <g_157>
   15fff:	8b 85 90 eb ff ff    	mov    -0x1470(%rbp),%eax
   16005:	89 c2                	mov    %eax,%edx
   16007:	48 8b 85 20 ec ff ff 	mov    -0x13e0(%rbp),%rax
   1600e:	66 89 10             	mov    %dx,(%rax)
   16011:	48 8b 85 20 ec ff ff 	mov    -0x13e0(%rbp),%rax
   16018:	0f b7 00             	movzwl (%rax),%eax
   1601b:	44 21 e8             	and    %r13d,%eax
   1601e:	98                   	cwtl   
   1601f:	44 89 f6             	mov    %r14d,%esi
   16022:	89 c7                	mov    %eax,%edi
   16024:	e8 01 45 ff ff       	callq  a52a <safe_rshift_func_int16_t_s_s>
   16029:	0f b6 c0             	movzbl %al,%eax
   1602c:	be 05 00 00 00       	mov    $0x5,%esi
   16031:	89 c7                	mov    %eax,%edi
   16033:	e8 14 4c ff ff       	callq  ac4c <safe_lshift_func_uint8_t_u_u>
   16038:	0f b6 c0             	movzbl %al,%eax
   1603b:	be ff ff 00 00       	mov    $0xffff,%esi
   16040:	89 c7                	mov    %eax,%edi
   16042:	e8 d8 4c ff ff       	callq  ad1f <safe_sub_func_uint16_t_u_u>
   16047:	0f b7 c0             	movzwl %ax,%eax
   1604a:	41 39 c4             	cmp    %eax,%r12d
   1604d:	0f 9f c0             	setg   %al
   16050:	0f b6 c0             	movzbl %al,%eax
   16053:	89 de                	mov    %ebx,%esi
   16055:	89 c7                	mov    %eax,%edi
   16057:	e8 99 43 ff ff       	callq  a3f5 <safe_mul_func_int16_t_s_s>
   1605c:	48 8b 85 c8 eb ff ff 	mov    -0x1438(%rbp),%rax
   16063:	09 85 b8 eb ff ff    	or     %eax,-0x1448(%rbp)
   16069:	83 bd b8 eb ff ff 00 	cmpl   $0x0,-0x1448(%rbp)
   16070:	0f 85 20 16 00 00    	jne    17696 <func_68+0x1aab>
   16076:	c7 85 94 eb ff ff 00 	movl   $0x0,-0x146c(%rbp)
   1607d:	00 00 00 
   16080:	e9 02 16 00 00       	jmpq   17687 <func_68+0x1a9c>
   16085:	48 8d 85 60 ec ff ff 	lea    -0x13a0(%rbp),%rax
   1608c:	48 89 85 30 f3 ff ff 	mov    %rax,-0xcd0(%rbp)
   16093:	48 c7 85 38 f3 ff ff 	movq   $0x0,-0xcc8(%rbp)
   1609a:	00 00 00 00 
   1609e:	48 8d 85 60 ec ff ff 	lea    -0x13a0(%rbp),%rax
   160a5:	48 89 85 40 f3 ff ff 	mov    %rax,-0xcc0(%rbp)
   160ac:	48 8d 85 60 ec ff ff 	lea    -0x13a0(%rbp),%rax
   160b3:	48 89 85 48 f3 ff ff 	mov    %rax,-0xcb8(%rbp)
   160ba:	48 8d 85 60 ec ff ff 	lea    -0x13a0(%rbp),%rax
   160c1:	48 83 c0 08          	add    $0x8,%rax
   160c5:	48 89 85 50 f3 ff ff 	mov    %rax,-0xcb0(%rbp)
   160cc:	48 8d 85 60 ec ff ff 	lea    -0x13a0(%rbp),%rax
   160d3:	48 89 85 58 f3 ff ff 	mov    %rax,-0xca8(%rbp)
   160da:	48 8d 85 60 ec ff ff 	lea    -0x13a0(%rbp),%rax
   160e1:	48 89 85 60 f3 ff ff 	mov    %rax,-0xca0(%rbp)
   160e8:	48 c7 85 68 f3 ff ff 	movq   $0x0,-0xc98(%rbp)
   160ef:	00 00 00 00 
   160f3:	48 8d 85 60 ec ff ff 	lea    -0x13a0(%rbp),%rax
   160fa:	48 89 85 70 f3 ff ff 	mov    %rax,-0xc90(%rbp)
   16101:	48 8d 85 60 ec ff ff 	lea    -0x13a0(%rbp),%rax
   16108:	48 89 85 78 f3 ff ff 	mov    %rax,-0xc88(%rbp)
   1610f:	48 c7 85 80 f3 ff ff 	movq   $0x0,-0xc80(%rbp)
   16116:	00 00 00 00 
   1611a:	48 8d 85 60 ec ff ff 	lea    -0x13a0(%rbp),%rax
   16121:	48 89 85 88 f3 ff ff 	mov    %rax,-0xc78(%rbp)
   16128:	48 8d 85 d8 eb ff ff 	lea    -0x1428(%rbp),%rax
   1612f:	48 89 85 90 f3 ff ff 	mov    %rax,-0xc70(%rbp)
   16136:	48 8d 85 60 ec ff ff 	lea    -0x13a0(%rbp),%rax
   1613d:	48 89 85 98 f3 ff ff 	mov    %rax,-0xc68(%rbp)
   16144:	48 8d 85 60 ec ff ff 	lea    -0x13a0(%rbp),%rax
   1614b:	48 89 85 a0 f3 ff ff 	mov    %rax,-0xc60(%rbp)
   16152:	48 c7 85 a8 f3 ff ff 	movq   $0x0,-0xc58(%rbp)
   16159:	00 00 00 00 
   1615d:	48 8d 85 60 ec ff ff 	lea    -0x13a0(%rbp),%rax
   16164:	48 89 85 b0 f3 ff ff 	mov    %rax,-0xc50(%rbp)
   1616b:	48 c7 85 b8 f3 ff ff 	movq   $0x0,-0xc48(%rbp)
   16172:	00 00 00 00 
   16176:	48 8d 85 60 ec ff ff 	lea    -0x13a0(%rbp),%rax
   1617d:	48 89 85 c0 f3 ff ff 	mov    %rax,-0xc40(%rbp)
   16184:	48 8d 85 60 ec ff ff 	lea    -0x13a0(%rbp),%rax
   1618b:	48 89 85 c8 f3 ff ff 	mov    %rax,-0xc38(%rbp)
   16192:	48 8d 85 60 ec ff ff 	lea    -0x13a0(%rbp),%rax
   16199:	48 89 85 d0 f3 ff ff 	mov    %rax,-0xc30(%rbp)
   161a0:	48 8d 85 60 ec ff ff 	lea    -0x13a0(%rbp),%rax
   161a7:	48 89 85 d8 f3 ff ff 	mov    %rax,-0xc28(%rbp)
   161ae:	48 8d 85 60 ec ff ff 	lea    -0x13a0(%rbp),%rax
   161b5:	48 89 85 e0 f3 ff ff 	mov    %rax,-0xc20(%rbp)
   161bc:	48 8d 85 60 ec ff ff 	lea    -0x13a0(%rbp),%rax
   161c3:	48 89 85 e8 f3 ff ff 	mov    %rax,-0xc18(%rbp)
   161ca:	48 8d 85 60 ec ff ff 	lea    -0x13a0(%rbp),%rax
   161d1:	48 89 85 f0 f3 ff ff 	mov    %rax,-0xc10(%rbp)
   161d8:	48 8d 85 60 ec ff ff 	lea    -0x13a0(%rbp),%rax
   161df:	48 89 85 f8 f3 ff ff 	mov    %rax,-0xc08(%rbp)
   161e6:	48 8d 85 60 ec ff ff 	lea    -0x13a0(%rbp),%rax
   161ed:	48 89 85 00 f4 ff ff 	mov    %rax,-0xc00(%rbp)
   161f4:	48 8d 85 60 ec ff ff 	lea    -0x13a0(%rbp),%rax
   161fb:	48 89 85 08 f4 ff ff 	mov    %rax,-0xbf8(%rbp)
   16202:	48 8d 85 60 ec ff ff 	lea    -0x13a0(%rbp),%rax
   16209:	48 89 85 10 f4 ff ff 	mov    %rax,-0xbf0(%rbp)
   16210:	48 8d 85 60 ec ff ff 	lea    -0x13a0(%rbp),%rax
   16217:	48 89 85 18 f4 ff ff 	mov    %rax,-0xbe8(%rbp)
   1621e:	48 8d 85 60 ec ff ff 	lea    -0x13a0(%rbp),%rax
   16225:	48 89 85 20 f4 ff ff 	mov    %rax,-0xbe0(%rbp)
   1622c:	48 c7 85 28 f4 ff ff 	movq   $0x0,-0xbd8(%rbp)
   16233:	00 00 00 00 
   16237:	48 8d 85 60 ec ff ff 	lea    -0x13a0(%rbp),%rax
   1623e:	48 89 85 30 f4 ff ff 	mov    %rax,-0xbd0(%rbp)
   16245:	48 8d 85 60 ec ff ff 	lea    -0x13a0(%rbp),%rax
   1624c:	48 89 85 38 f4 ff ff 	mov    %rax,-0xbc8(%rbp)
   16253:	48 c7 85 40 f4 ff ff 	movq   $0x0,-0xbc0(%rbp)
   1625a:	00 00 00 00 
   1625e:	48 8d 85 60 ec ff ff 	lea    -0x13a0(%rbp),%rax
   16265:	48 89 85 48 f4 ff ff 	mov    %rax,-0xbb8(%rbp)
   1626c:	48 8d 85 60 ec ff ff 	lea    -0x13a0(%rbp),%rax
   16273:	48 89 85 50 f4 ff ff 	mov    %rax,-0xbb0(%rbp)
   1627a:	48 8d 85 60 ec ff ff 	lea    -0x13a0(%rbp),%rax
   16281:	48 89 85 58 f4 ff ff 	mov    %rax,-0xba8(%rbp)
   16288:	48 8d 85 60 ec ff ff 	lea    -0x13a0(%rbp),%rax
   1628f:	48 89 85 60 f4 ff ff 	mov    %rax,-0xba0(%rbp)
   16296:	48 8d 85 60 ec ff ff 	lea    -0x13a0(%rbp),%rax
   1629d:	48 89 85 68 f4 ff ff 	mov    %rax,-0xb98(%rbp)
   162a4:	48 c7 85 70 f4 ff ff 	movq   $0x0,-0xb90(%rbp)
   162ab:	00 00 00 00 
   162af:	48 8d 85 60 ec ff ff 	lea    -0x13a0(%rbp),%rax
   162b6:	48 89 85 78 f4 ff ff 	mov    %rax,-0xb88(%rbp)
   162bd:	48 8d 85 60 ec ff ff 	lea    -0x13a0(%rbp),%rax
   162c4:	48 89 85 80 f4 ff ff 	mov    %rax,-0xb80(%rbp)
   162cb:	48 c7 85 88 f4 ff ff 	movq   $0x0,-0xb78(%rbp)
   162d2:	00 00 00 00 
   162d6:	48 c7 85 90 f4 ff ff 	movq   $0x0,-0xb70(%rbp)
   162dd:	00 00 00 00 
   162e1:	48 8d 85 60 ec ff ff 	lea    -0x13a0(%rbp),%rax
   162e8:	48 89 85 98 f4 ff ff 	mov    %rax,-0xb68(%rbp)
   162ef:	48 c7 85 a0 f4 ff ff 	movq   $0x0,-0xb60(%rbp)
   162f6:	00 00 00 00 
   162fa:	48 c7 85 a8 f4 ff ff 	movq   $0x0,-0xb58(%rbp)
   16301:	00 00 00 00 
   16305:	48 8d 85 60 ec ff ff 	lea    -0x13a0(%rbp),%rax
   1630c:	48 89 85 b0 f4 ff ff 	mov    %rax,-0xb50(%rbp)
   16313:	48 8d 85 60 ec ff ff 	lea    -0x13a0(%rbp),%rax
   1631a:	48 89 85 b8 f4 ff ff 	mov    %rax,-0xb48(%rbp)
   16321:	48 c7 85 c0 f4 ff ff 	movq   $0x0,-0xb40(%rbp)
   16328:	00 00 00 00 
   1632c:	48 8d 85 60 ec ff ff 	lea    -0x13a0(%rbp),%rax
   16333:	48 89 85 c8 f4 ff ff 	mov    %rax,-0xb38(%rbp)
   1633a:	48 8d 85 60 ec ff ff 	lea    -0x13a0(%rbp),%rax
   16341:	48 83 c0 08          	add    $0x8,%rax
   16345:	48 89 85 d0 f4 ff ff 	mov    %rax,-0xb30(%rbp)
   1634c:	48 8d 85 60 ec ff ff 	lea    -0x13a0(%rbp),%rax
   16353:	48 89 85 d8 f4 ff ff 	mov    %rax,-0xb28(%rbp)
   1635a:	48 8d 85 60 ec ff ff 	lea    -0x13a0(%rbp),%rax
   16361:	48 89 85 e0 f4 ff ff 	mov    %rax,-0xb20(%rbp)
   16368:	48 8d 85 60 ec ff ff 	lea    -0x13a0(%rbp),%rax
   1636f:	48 83 c0 08          	add    $0x8,%rax
   16373:	48 89 85 e8 f4 ff ff 	mov    %rax,-0xb18(%rbp)
   1637a:	48 8d 85 60 ec ff ff 	lea    -0x13a0(%rbp),%rax
   16381:	48 89 85 f0 f4 ff ff 	mov    %rax,-0xb10(%rbp)
   16388:	48 8d 85 60 ec ff ff 	lea    -0x13a0(%rbp),%rax
   1638f:	48 89 85 f8 f4 ff ff 	mov    %rax,-0xb08(%rbp)
   16396:	48 8d 85 60 ec ff ff 	lea    -0x13a0(%rbp),%rax
   1639d:	48 89 85 00 f5 ff ff 	mov    %rax,-0xb00(%rbp)
   163a4:	48 8d 85 60 ec ff ff 	lea    -0x13a0(%rbp),%rax
   163ab:	48 89 85 08 f5 ff ff 	mov    %rax,-0xaf8(%rbp)
   163b2:	48 8d 85 60 ec ff ff 	lea    -0x13a0(%rbp),%rax
   163b9:	48 89 85 10 f5 ff ff 	mov    %rax,-0xaf0(%rbp)
   163c0:	48 c7 85 18 f5 ff ff 	movq   $0x0,-0xae8(%rbp)
   163c7:	00 00 00 00 
   163cb:	48 8d 85 60 ec ff ff 	lea    -0x13a0(%rbp),%rax
   163d2:	48 89 85 20 f5 ff ff 	mov    %rax,-0xae0(%rbp)
   163d9:	48 8d 85 60 ec ff ff 	lea    -0x13a0(%rbp),%rax
   163e0:	48 89 85 28 f5 ff ff 	mov    %rax,-0xad8(%rbp)
   163e7:	48 8d 85 60 ec ff ff 	lea    -0x13a0(%rbp),%rax
   163ee:	48 89 85 30 f5 ff ff 	mov    %rax,-0xad0(%rbp)
   163f5:	48 8d 85 60 ec ff ff 	lea    -0x13a0(%rbp),%rax
   163fc:	48 83 c0 08          	add    $0x8,%rax
   16400:	48 89 85 38 f5 ff ff 	mov    %rax,-0xac8(%rbp)
   16407:	48 8d 85 60 ec ff ff 	lea    -0x13a0(%rbp),%rax
   1640e:	48 83 c0 08          	add    $0x8,%rax
   16412:	48 89 85 40 f5 ff ff 	mov    %rax,-0xac0(%rbp)
   16419:	48 8d 85 60 ec ff ff 	lea    -0x13a0(%rbp),%rax
   16420:	48 89 85 48 f5 ff ff 	mov    %rax,-0xab8(%rbp)
   16427:	48 8d 85 60 ec ff ff 	lea    -0x13a0(%rbp),%rax
   1642e:	48 89 85 50 f5 ff ff 	mov    %rax,-0xab0(%rbp)
   16435:	48 8d 85 60 ec ff ff 	lea    -0x13a0(%rbp),%rax
   1643c:	48 89 85 58 f5 ff ff 	mov    %rax,-0xaa8(%rbp)
   16443:	48 c7 85 60 f5 ff ff 	movq   $0x0,-0xaa0(%rbp)
   1644a:	00 00 00 00 
   1644e:	48 c7 85 68 f5 ff ff 	movq   $0x0,-0xa98(%rbp)
   16455:	00 00 00 00 
   16459:	48 8d 85 60 ec ff ff 	lea    -0x13a0(%rbp),%rax
   16460:	48 83 c0 08          	add    $0x8,%rax
   16464:	48 89 85 70 f5 ff ff 	mov    %rax,-0xa90(%rbp)
   1646b:	48 8d 85 60 ec ff ff 	lea    -0x13a0(%rbp),%rax
   16472:	48 89 85 78 f5 ff ff 	mov    %rax,-0xa88(%rbp)
   16479:	48 8d 85 60 ec ff ff 	lea    -0x13a0(%rbp),%rax
   16480:	48 83 c0 08          	add    $0x8,%rax
   16484:	48 89 85 80 f5 ff ff 	mov    %rax,-0xa80(%rbp)
   1648b:	48 8d 85 60 ec ff ff 	lea    -0x13a0(%rbp),%rax
   16492:	48 89 85 88 f5 ff ff 	mov    %rax,-0xa78(%rbp)
   16499:	48 8d 85 60 ec ff ff 	lea    -0x13a0(%rbp),%rax
   164a0:	48 89 85 90 f5 ff ff 	mov    %rax,-0xa70(%rbp)
   164a7:	48 c7 85 98 f5 ff ff 	movq   $0x0,-0xa68(%rbp)
   164ae:	00 00 00 00 
   164b2:	48 c7 85 a0 f5 ff ff 	movq   $0x0,-0xa60(%rbp)
   164b9:	00 00 00 00 
   164bd:	48 8d 85 60 ec ff ff 	lea    -0x13a0(%rbp),%rax
   164c4:	48 89 85 a8 f5 ff ff 	mov    %rax,-0xa58(%rbp)
   164cb:	48 c7 85 b0 f5 ff ff 	movq   $0x0,-0xa50(%rbp)
   164d2:	00 00 00 00 
   164d6:	48 8d 85 d8 eb ff ff 	lea    -0x1428(%rbp),%rax
   164dd:	48 89 85 b8 f5 ff ff 	mov    %rax,-0xa48(%rbp)
   164e4:	48 8d 85 60 ec ff ff 	lea    -0x13a0(%rbp),%rax
   164eb:	48 83 c0 08          	add    $0x8,%rax
   164ef:	48 89 85 c0 f5 ff ff 	mov    %rax,-0xa40(%rbp)
   164f6:	48 8d 85 60 ec ff ff 	lea    -0x13a0(%rbp),%rax
   164fd:	48 89 85 c8 f5 ff ff 	mov    %rax,-0xa38(%rbp)
   16504:	48 8d 85 d8 eb ff ff 	lea    -0x1428(%rbp),%rax
   1650b:	48 89 85 d0 f5 ff ff 	mov    %rax,-0xa30(%rbp)
   16512:	48 8d 85 60 ec ff ff 	lea    -0x13a0(%rbp),%rax
   16519:	48 89 85 d8 f5 ff ff 	mov    %rax,-0xa28(%rbp)
   16520:	48 8d 85 60 ec ff ff 	lea    -0x13a0(%rbp),%rax
   16527:	48 89 85 e0 f5 ff ff 	mov    %rax,-0xa20(%rbp)
   1652e:	48 8d 85 60 ec ff ff 	lea    -0x13a0(%rbp),%rax
   16535:	48 89 85 e8 f5 ff ff 	mov    %rax,-0xa18(%rbp)
   1653c:	48 8d 85 d8 eb ff ff 	lea    -0x1428(%rbp),%rax
   16543:	48 89 85 f0 f5 ff ff 	mov    %rax,-0xa10(%rbp)
   1654a:	48 8d 85 60 ec ff ff 	lea    -0x13a0(%rbp),%rax
   16551:	48 89 85 f8 f5 ff ff 	mov    %rax,-0xa08(%rbp)
   16558:	48 8d 85 60 ec ff ff 	lea    -0x13a0(%rbp),%rax
   1655f:	48 89 85 00 f6 ff ff 	mov    %rax,-0xa00(%rbp)
   16566:	48 8d 85 d8 eb ff ff 	lea    -0x1428(%rbp),%rax
   1656d:	48 89 85 08 f6 ff ff 	mov    %rax,-0x9f8(%rbp)
   16574:	48 8d 85 60 ec ff ff 	lea    -0x13a0(%rbp),%rax
   1657b:	48 89 85 10 f6 ff ff 	mov    %rax,-0x9f0(%rbp)
   16582:	48 8d 85 60 ec ff ff 	lea    -0x13a0(%rbp),%rax
   16589:	48 83 c0 08          	add    $0x8,%rax
   1658d:	48 89 85 18 f6 ff ff 	mov    %rax,-0x9e8(%rbp)
   16594:	48 8d 85 60 ec ff ff 	lea    -0x13a0(%rbp),%rax
   1659b:	48 89 85 20 f6 ff ff 	mov    %rax,-0x9e0(%rbp)
   165a2:	48 c7 85 28 f6 ff ff 	movq   $0x0,-0x9d8(%rbp)
   165a9:	00 00 00 00 
   165ad:	48 8d 85 60 ec ff ff 	lea    -0x13a0(%rbp),%rax
   165b4:	48 83 c0 08          	add    $0x8,%rax
   165b8:	48 89 85 30 f6 ff ff 	mov    %rax,-0x9d0(%rbp)
   165bf:	48 8d 85 60 ec ff ff 	lea    -0x13a0(%rbp),%rax
   165c6:	48 89 85 38 f6 ff ff 	mov    %rax,-0x9c8(%rbp)
   165cd:	48 8d 85 d8 eb ff ff 	lea    -0x1428(%rbp),%rax
   165d4:	48 89 85 40 f6 ff ff 	mov    %rax,-0x9c0(%rbp)
   165db:	48 8d 85 60 ec ff ff 	lea    -0x13a0(%rbp),%rax
   165e2:	48 89 85 48 f6 ff ff 	mov    %rax,-0x9b8(%rbp)
   165e9:	48 8d 85 60 ec ff ff 	lea    -0x13a0(%rbp),%rax
   165f0:	48 89 85 50 f6 ff ff 	mov    %rax,-0x9b0(%rbp)
   165f7:	48 8d 85 60 ec ff ff 	lea    -0x13a0(%rbp),%rax
   165fe:	48 89 85 58 f6 ff ff 	mov    %rax,-0x9a8(%rbp)
   16605:	48 8d 85 60 ec ff ff 	lea    -0x13a0(%rbp),%rax
   1660c:	48 83 c0 08          	add    $0x8,%rax
   16610:	48 89 85 60 f6 ff ff 	mov    %rax,-0x9a0(%rbp)
   16617:	48 8d 85 60 ec ff ff 	lea    -0x13a0(%rbp),%rax
   1661e:	48 83 c0 08          	add    $0x8,%rax
   16622:	48 89 85 68 f6 ff ff 	mov    %rax,-0x998(%rbp)
   16629:	48 8d 85 d8 eb ff ff 	lea    -0x1428(%rbp),%rax
   16630:	48 89 85 70 f6 ff ff 	mov    %rax,-0x990(%rbp)
   16637:	48 8d 85 60 ec ff ff 	lea    -0x13a0(%rbp),%rax
   1663e:	48 89 85 78 f6 ff ff 	mov    %rax,-0x988(%rbp)
   16645:	48 8d 85 60 ec ff ff 	lea    -0x13a0(%rbp),%rax
   1664c:	48 89 85 80 f6 ff ff 	mov    %rax,-0x980(%rbp)
   16653:	48 8d 85 60 ec ff ff 	lea    -0x13a0(%rbp),%rax
   1665a:	48 89 85 88 f6 ff ff 	mov    %rax,-0x978(%rbp)
   16661:	48 8d 85 60 ec ff ff 	lea    -0x13a0(%rbp),%rax
   16668:	48 89 85 90 f6 ff ff 	mov    %rax,-0x970(%rbp)
   1666f:	48 8d 85 d8 eb ff ff 	lea    -0x1428(%rbp),%rax
   16676:	48 89 85 98 f6 ff ff 	mov    %rax,-0x968(%rbp)
   1667d:	48 8d 85 60 ec ff ff 	lea    -0x13a0(%rbp),%rax
   16684:	48 89 85 a0 f6 ff ff 	mov    %rax,-0x960(%rbp)
   1668b:	48 8d 85 60 ec ff ff 	lea    -0x13a0(%rbp),%rax
   16692:	48 89 85 a8 f6 ff ff 	mov    %rax,-0x958(%rbp)
   16699:	48 8d 85 60 ec ff ff 	lea    -0x13a0(%rbp),%rax
   166a0:	48 89 85 b0 f6 ff ff 	mov    %rax,-0x950(%rbp)
   166a7:	48 8d 85 60 ec ff ff 	lea    -0x13a0(%rbp),%rax
   166ae:	48 89 85 b8 f6 ff ff 	mov    %rax,-0x948(%rbp)
   166b5:	48 8d 85 d8 eb ff ff 	lea    -0x1428(%rbp),%rax
   166bc:	48 89 85 c0 f6 ff ff 	mov    %rax,-0x940(%rbp)
   166c3:	48 8d 85 d8 eb ff ff 	lea    -0x1428(%rbp),%rax
   166ca:	48 89 85 c8 f6 ff ff 	mov    %rax,-0x938(%rbp)
   166d1:	48 8d 85 d8 eb ff ff 	lea    -0x1428(%rbp),%rax
   166d8:	48 89 85 d0 f6 ff ff 	mov    %rax,-0x930(%rbp)
   166df:	48 8d 85 60 ec ff ff 	lea    -0x13a0(%rbp),%rax
   166e6:	48 89 85 d8 f6 ff ff 	mov    %rax,-0x928(%rbp)
   166ed:	48 8d 85 60 ec ff ff 	lea    -0x13a0(%rbp),%rax
   166f4:	48 89 85 e0 f6 ff ff 	mov    %rax,-0x920(%rbp)
   166fb:	48 8d 85 60 ec ff ff 	lea    -0x13a0(%rbp),%rax
   16702:	48 89 85 e8 f6 ff ff 	mov    %rax,-0x918(%rbp)
   16709:	48 8d 85 d8 eb ff ff 	lea    -0x1428(%rbp),%rax
   16710:	48 89 85 f0 f6 ff ff 	mov    %rax,-0x910(%rbp)
   16717:	48 8d 85 60 ec ff ff 	lea    -0x13a0(%rbp),%rax
   1671e:	48 89 85 f8 f6 ff ff 	mov    %rax,-0x908(%rbp)
   16725:	48 8d 85 60 ec ff ff 	lea    -0x13a0(%rbp),%rax
   1672c:	48 83 c0 08          	add    $0x8,%rax
   16730:	48 89 85 00 f7 ff ff 	mov    %rax,-0x900(%rbp)
   16737:	48 c7 85 08 f7 ff ff 	movq   $0x0,-0x8f8(%rbp)
   1673e:	00 00 00 00 
   16742:	48 8d 85 60 ec ff ff 	lea    -0x13a0(%rbp),%rax
   16749:	48 89 85 10 f7 ff ff 	mov    %rax,-0x8f0(%rbp)
   16750:	48 8d 85 60 ec ff ff 	lea    -0x13a0(%rbp),%rax
   16757:	48 83 c0 08          	add    $0x8,%rax
   1675b:	48 89 85 18 f7 ff ff 	mov    %rax,-0x8e8(%rbp)
   16762:	48 8d 85 60 ec ff ff 	lea    -0x13a0(%rbp),%rax
   16769:	48 89 85 20 f7 ff ff 	mov    %rax,-0x8e0(%rbp)
   16770:	48 8d 85 d8 eb ff ff 	lea    -0x1428(%rbp),%rax
   16777:	48 89 85 28 f7 ff ff 	mov    %rax,-0x8d8(%rbp)
   1677e:	48 8d 85 60 ec ff ff 	lea    -0x13a0(%rbp),%rax
   16785:	48 89 85 30 f7 ff ff 	mov    %rax,-0x8d0(%rbp)
   1678c:	48 8d 85 60 ec ff ff 	lea    -0x13a0(%rbp),%rax
   16793:	48 83 c0 08          	add    $0x8,%rax
   16797:	48 89 85 38 f7 ff ff 	mov    %rax,-0x8c8(%rbp)
   1679e:	48 8d 85 60 ec ff ff 	lea    -0x13a0(%rbp),%rax
   167a5:	48 83 c0 08          	add    $0x8,%rax
   167a9:	48 89 85 40 f7 ff ff 	mov    %rax,-0x8c0(%rbp)
   167b0:	48 8d 85 60 ec ff ff 	lea    -0x13a0(%rbp),%rax
   167b7:	48 89 85 48 f7 ff ff 	mov    %rax,-0x8b8(%rbp)
   167be:	48 c7 85 50 f7 ff ff 	movq   $0x0,-0x8b0(%rbp)
   167c5:	00 00 00 00 
   167c9:	48 8d 85 60 ec ff ff 	lea    -0x13a0(%rbp),%rax
   167d0:	48 89 85 58 f7 ff ff 	mov    %rax,-0x8a8(%rbp)
   167d7:	48 8d 85 60 ec ff ff 	lea    -0x13a0(%rbp),%rax
   167de:	48 83 c0 08          	add    $0x8,%rax
   167e2:	48 89 85 60 f7 ff ff 	mov    %rax,-0x8a0(%rbp)
   167e9:	48 8d 85 60 ec ff ff 	lea    -0x13a0(%rbp),%rax
   167f0:	48 89 85 68 f7 ff ff 	mov    %rax,-0x898(%rbp)
   167f7:	48 8d 85 60 ec ff ff 	lea    -0x13a0(%rbp),%rax
   167fe:	48 89 85 70 f7 ff ff 	mov    %rax,-0x890(%rbp)
   16805:	48 8d 85 60 ec ff ff 	lea    -0x13a0(%rbp),%rax
   1680c:	48 83 c0 08          	add    $0x8,%rax
   16810:	48 89 85 78 f7 ff ff 	mov    %rax,-0x888(%rbp)
   16817:	48 8d 85 60 ec ff ff 	lea    -0x13a0(%rbp),%rax
   1681e:	48 89 85 80 f7 ff ff 	mov    %rax,-0x880(%rbp)
   16825:	48 8d 85 60 ec ff ff 	lea    -0x13a0(%rbp),%rax
   1682c:	48 89 85 88 f7 ff ff 	mov    %rax,-0x878(%rbp)
   16833:	48 8d 85 d8 eb ff ff 	lea    -0x1428(%rbp),%rax
   1683a:	48 89 85 90 f7 ff ff 	mov    %rax,-0x870(%rbp)
   16841:	48 8d 85 d8 eb ff ff 	lea    -0x1428(%rbp),%rax
   16848:	48 89 85 98 f7 ff ff 	mov    %rax,-0x868(%rbp)
   1684f:	48 c7 85 a0 f7 ff ff 	movq   $0x0,-0x860(%rbp)
   16856:	00 00 00 00 
   1685a:	48 8d 85 60 ec ff ff 	lea    -0x13a0(%rbp),%rax
   16861:	48 83 c0 08          	add    $0x8,%rax
   16865:	48 89 85 a8 f7 ff ff 	mov    %rax,-0x858(%rbp)
   1686c:	48 c7 85 b0 f7 ff ff 	movq   $0x0,-0x850(%rbp)
   16873:	00 00 00 00 
   16877:	48 8d 85 d8 eb ff ff 	lea    -0x1428(%rbp),%rax
   1687e:	48 89 85 b8 f7 ff ff 	mov    %rax,-0x848(%rbp)
   16885:	48 8d 85 60 ec ff ff 	lea    -0x13a0(%rbp),%rax
   1688c:	48 89 85 c0 f7 ff ff 	mov    %rax,-0x840(%rbp)
   16893:	48 8d 85 d8 eb ff ff 	lea    -0x1428(%rbp),%rax
   1689a:	48 89 85 c8 f7 ff ff 	mov    %rax,-0x838(%rbp)
   168a1:	48 8d 85 d8 eb ff ff 	lea    -0x1428(%rbp),%rax
   168a8:	48 89 85 d0 f7 ff ff 	mov    %rax,-0x830(%rbp)
   168af:	48 8d 85 60 ec ff ff 	lea    -0x13a0(%rbp),%rax
   168b6:	48 89 85 d8 f7 ff ff 	mov    %rax,-0x828(%rbp)
   168bd:	48 8d 85 60 ec ff ff 	lea    -0x13a0(%rbp),%rax
   168c4:	48 89 85 e0 f7 ff ff 	mov    %rax,-0x820(%rbp)
   168cb:	48 8d 85 60 ec ff ff 	lea    -0x13a0(%rbp),%rax
   168d2:	48 83 c0 08          	add    $0x8,%rax
   168d6:	48 89 85 e8 f7 ff ff 	mov    %rax,-0x818(%rbp)
   168dd:	48 8d 85 60 ec ff ff 	lea    -0x13a0(%rbp),%rax
   168e4:	48 83 c0 08          	add    $0x8,%rax
   168e8:	48 89 85 f0 f7 ff ff 	mov    %rax,-0x810(%rbp)
   168ef:	48 8d 85 60 ec ff ff 	lea    -0x13a0(%rbp),%rax
   168f6:	48 83 c0 08          	add    $0x8,%rax
   168fa:	48 89 85 f8 f7 ff ff 	mov    %rax,-0x808(%rbp)
   16901:	48 8d 85 60 ec ff ff 	lea    -0x13a0(%rbp),%rax
   16908:	48 83 c0 08          	add    $0x8,%rax
   1690c:	48 89 85 00 f8 ff ff 	mov    %rax,-0x800(%rbp)
   16913:	48 8d 85 60 ec ff ff 	lea    -0x13a0(%rbp),%rax
   1691a:	48 89 85 08 f8 ff ff 	mov    %rax,-0x7f8(%rbp)
   16921:	48 c7 85 10 f8 ff ff 	movq   $0x0,-0x7f0(%rbp)
   16928:	00 00 00 00 
   1692c:	48 8d 85 60 ec ff ff 	lea    -0x13a0(%rbp),%rax
   16933:	48 89 85 18 f8 ff ff 	mov    %rax,-0x7e8(%rbp)
   1693a:	48 8d 85 d8 eb ff ff 	lea    -0x1428(%rbp),%rax
   16941:	48 89 85 20 f8 ff ff 	mov    %rax,-0x7e0(%rbp)
   16948:	48 8d 85 60 ec ff ff 	lea    -0x13a0(%rbp),%rax
   1694f:	48 83 c0 08          	add    $0x8,%rax
   16953:	48 89 85 28 f8 ff ff 	mov    %rax,-0x7d8(%rbp)
   1695a:	c7 85 f0 ec ff ff 57 	movl   $0xa918c557,-0x1310(%rbp)
   16961:	c5 18 a9 
   16964:	c7 85 f4 ec ff ff f7 	movl   $0xfffffff7,-0x130c(%rbp)
   1696b:	ff ff ff 
   1696e:	c7 85 f8 ec ff ff 5a 	movl   $0xc8051a5a,-0x1308(%rbp)
   16975:	1a 05 c8 
   16978:	c7 85 fc ec ff ff 01 	movl   $0x1,-0x1304(%rbp)
   1697f:	00 00 00 
   16982:	c7 85 00 ed ff ff 38 	movl   $0xc8bc8038,-0x1300(%rbp)
   16989:	80 bc c8 
   1698c:	c7 85 04 ed ff ff 01 	movl   $0x1,-0x12fc(%rbp)
   16993:	00 00 00 
   16996:	c7 85 08 ed ff ff 5a 	movl   $0xc8051a5a,-0x12f8(%rbp)
   1699d:	1a 05 c8 
   169a0:	c7 85 0c ed ff ff f7 	movl   $0xfffffff7,-0x12f4(%rbp)
   169a7:	ff ff ff 
   169aa:	c7 85 10 ed ff ff 57 	movl   $0xa918c557,-0x12f0(%rbp)
   169b1:	c5 18 a9 
   169b4:	c7 85 14 ed ff ff 41 	movl   $0xcf235841,-0x12ec(%rbp)
   169bb:	58 23 cf 
   169be:	c7 85 18 ed ff ff 43 	movl   $0x8a207143,-0x12e8(%rbp)
   169c5:	71 20 8a 
   169c8:	c7 85 1c ed ff ff 57 	movl   $0xa918c557,-0x12e4(%rbp)
   169cf:	c5 18 a9 
   169d2:	c7 85 20 ed ff ff b6 	movl   $0x9e53ddb6,-0x12e0(%rbp)
   169d9:	dd 53 9e 
   169dc:	c7 85 24 ed ff ff 41 	movl   $0xcf235841,-0x12dc(%rbp)
   169e3:	58 23 cf 
   169e6:	c7 85 28 ed ff ff 01 	movl   $0x1,-0x12d8(%rbp)
   169ed:	00 00 00 
   169f0:	c7 85 2c ed ff ff a8 	movl   $0x6458d0a8,-0x12d4(%rbp)
   169f7:	d0 58 64 
   169fa:	c7 85 30 ed ff ff a8 	movl   $0x6458d0a8,-0x12d0(%rbp)
   16a01:	d0 58 64 
   16a04:	c7 85 34 ed ff ff 5a 	movl   $0xc8051a5a,-0x12cc(%rbp)
   16a0b:	1a 05 c8 
   16a0e:	c7 85 38 ed ff ff b6 	movl   $0x9e53ddb6,-0x12c8(%rbp)
   16a15:	dd 53 9e 
   16a18:	c7 85 3c ed ff ff 5a 	movl   $0xc8051a5a,-0x12c4(%rbp)
   16a1f:	1a 05 c8 
   16a22:	c7 85 40 ed ff ff 41 	movl   $0xcf235841,-0x12c0(%rbp)
   16a29:	58 23 cf 
   16a2c:	c7 85 44 ed ff ff 41 	movl   $0xcf235841,-0x12bc(%rbp)
   16a33:	58 23 cf 
   16a36:	c7 85 48 ed ff ff 5a 	movl   $0xc8051a5a,-0x12b8(%rbp)
   16a3d:	1a 05 c8 
   16a40:	c7 85 4c ed ff ff b6 	movl   $0x9e53ddb6,-0x12b4(%rbp)
   16a47:	dd 53 9e 
   16a4a:	c7 85 50 ed ff ff 5a 	movl   $0xc8051a5a,-0x12b0(%rbp)
   16a51:	1a 05 c8 
   16a54:	c7 85 54 ed ff ff a8 	movl   $0x6458d0a8,-0x12ac(%rbp)
   16a5b:	d0 58 64 
   16a5e:	c7 85 58 ed ff ff a8 	movl   $0x6458d0a8,-0x12a8(%rbp)
   16a65:	d0 58 64 
   16a68:	c7 85 5c ed ff ff 01 	movl   $0x1,-0x12a4(%rbp)
   16a6f:	00 00 00 
   16a72:	c7 85 60 ed ff ff 41 	movl   $0xcf235841,-0x12a0(%rbp)
   16a79:	58 23 cf 
   16a7c:	c7 85 64 ed ff ff b6 	movl   $0x9e53ddb6,-0x129c(%rbp)
   16a83:	dd 53 9e 
   16a86:	c7 85 68 ed ff ff 57 	movl   $0xa918c557,-0x1298(%rbp)
   16a8d:	c5 18 a9 
   16a90:	c7 85 6c ed ff ff 43 	movl   $0x8a207143,-0x1294(%rbp)
   16a97:	71 20 8a 
   16a9a:	c7 85 70 ed ff ff 41 	movl   $0xcf235841,-0x1290(%rbp)
   16aa1:	58 23 cf 
   16aa4:	c7 85 74 ed ff ff 57 	movl   $0xa918c557,-0x128c(%rbp)
   16aab:	c5 18 a9 
   16aae:	c7 85 78 ed ff ff f7 	movl   $0xfffffff7,-0x1288(%rbp)
   16ab5:	ff ff ff 
   16ab8:	c7 85 7c ed ff ff 5a 	movl   $0xc8051a5a,-0x1284(%rbp)
   16abf:	1a 05 c8 
   16ac2:	48 8b 85 d8 eb ff ff 	mov    -0x1428(%rbp),%rax
   16ac9:	c6 00 01             	movb   $0x1,(%rax)
   16acc:	48 8b 85 68 eb ff ff 	mov    -0x1498(%rbp),%rax
   16ad3:	0f be d8             	movsbl %al,%ebx
   16ad6:	48 8b 85 60 ec ff ff 	mov    -0x13a0(%rbp),%rax
   16add:	48 89 85 d8 eb ff ff 	mov    %rax,-0x1428(%rbp)
   16ae4:	48 8b 85 d8 eb ff ff 	mov    -0x1428(%rbp),%rax
   16aeb:	48 39 85 e8 eb ff ff 	cmp    %rax,-0x1418(%rbp)
   16af2:	0f 95 c0             	setne  %al
   16af5:	0f b6 d0             	movzbl %al,%edx
   16af8:	48 8b 05 21 69 00 00 	mov    0x6921(%rip),%rax        # 1d420 <g_110+0x3c0>
   16aff:	8b 0d 57 6d 00 00    	mov    0x6d57(%rip),%ecx        # 1d85c <g_115+0x1c>
   16b05:	89 c9                	mov    %ecx,%ecx
   16b07:	48 39 c8             	cmp    %rcx,%rax
   16b0a:	0f 95 c0             	setne  %al
   16b0d:	0f b6 c0             	movzbl %al,%eax
   16b10:	48 89 d6             	mov    %rdx,%rsi
   16b13:	48 89 c7             	mov    %rax,%rdi
   16b16:	e8 30 45 ff ff       	callq  b04b <safe_sub_func_uint64_t_u_u>
   16b1b:	0f be c0             	movsbl %al,%eax
   16b1e:	89 de                	mov    %ebx,%esi
   16b20:	89 c7                	mov    %eax,%edi
   16b22:	e8 eb 36 ff ff       	callq  a212 <safe_mul_func_int8_t_s_s>
   16b27:	0f be c0             	movsbl %al,%eax
   16b2a:	39 85 b8 eb ff ff    	cmp    %eax,-0x1448(%rbp)
   16b30:	0f 9e c0             	setle  %al
   16b33:	0f b6 d0             	movzbl %al,%edx
   16b36:	48 8b 85 68 eb ff ff 	mov    -0x1498(%rbp),%rax
   16b3d:	48 39 c2             	cmp    %rax,%rdx
   16b40:	0f 95 c0             	setne  %al
   16b43:	0f b6 c0             	movzbl %al,%eax
   16b46:	be 74 00 00 00       	mov    $0x74,%esi
   16b4b:	89 c7                	mov    %eax,%edi
   16b4d:	e8 a0 36 ff ff       	callq  a1f2 <safe_sub_func_int8_t_s_s>
   16b52:	0f be d0             	movsbl %al,%edx
   16b55:	48 8b 85 70 eb ff ff 	mov    -0x1490(%rbp),%rax
   16b5c:	0f b7 00             	movzwl (%rax),%eax
   16b5f:	98                   	cwtl   
   16b60:	21 d0                	and    %edx,%eax
   16b62:	3d 87 00 00 00       	cmp    $0x87,%eax
   16b67:	b8 01 00 00 00       	mov    $0x1,%eax
   16b6c:	3d 9d c1 e0 19       	cmp    $0x19e0c19d,%eax
   16b71:	0f 9e c0             	setle  %al
   16b74:	0f b6 d0             	movzbl %al,%edx
   16b77:	48 8b 85 c8 eb ff ff 	mov    -0x1438(%rbp),%rax
   16b7e:	48 89 d6             	mov    %rdx,%rsi
   16b81:	48 89 c7             	mov    %rax,%rdi
   16b84:	e8 1f 3d ff ff       	callq  a8a8 <safe_sub_func_int64_t_s_s>
   16b89:	48 8b 95 68 eb ff ff 	mov    -0x1498(%rbp),%rdx
   16b90:	48 39 d0             	cmp    %rdx,%rax
   16b93:	0f 95 c0             	setne  %al
   16b96:	0f b6 c0             	movzbl %al,%eax
   16b99:	48 8b 95 c8 eb ff ff 	mov    -0x1438(%rbp),%rdx
   16ba0:	21 d0                	and    %edx,%eax
   16ba2:	be a1 d6 72 ff       	mov    $0xff72d6a1,%esi
   16ba7:	89 c7                	mov    %eax,%edi
   16ba9:	e8 08 3a ff ff       	callq  a5b6 <safe_add_func_int32_t_s_s>
   16bae:	be ff ff 00 00       	mov    $0xffff,%esi
   16bb3:	bf ff ff 00 00       	mov    $0xffff,%edi
   16bb8:	e8 62 41 ff ff       	callq  ad1f <safe_sub_func_uint16_t_u_u>
   16bbd:	0f b7 95 8e eb ff ff 	movzwl -0x1472(%rbp),%edx
   16bc4:	8b 05 66 64 00 00    	mov    0x6466(%rip),%eax        # 1d030 <g_63>
   16bca:	21 d0                	and    %edx,%eax
   16bcc:	48 98                	cltq   
   16bce:	48 be a8 46 5c 78 34 	movabs $0xf157af34785c46a8,%rsi
   16bd5:	af 57 f1 
   16bd8:	48 89 c7             	mov    %rax,%rdi
   16bdb:	e8 61 3c ff ff       	callq  a841 <safe_add_func_int64_t_s_s>
   16be0:	0f b7 85 64 eb ff ff 	movzwl -0x149c(%rbp),%eax
   16be7:	98                   	cwtl   
   16be8:	39 85 b0 eb ff ff    	cmp    %eax,-0x1450(%rbp)
   16bee:	0f 95 c0             	setne  %al
   16bf1:	0f b6 d0             	movzbl %al,%edx
   16bf4:	0f b7 05 ff 6c 00 00 	movzwl 0x6cff(%rip),%eax        # 1d8fa <g_159>
   16bfb:	48 0f bf c0          	movswq %ax,%rax
   16bff:	48 89 d6             	mov    %rdx,%rsi
   16c02:	48 89 c7             	mov    %rax,%rdi
   16c05:	e8 41 44 ff ff       	callq  b04b <safe_sub_func_uint64_t_u_u>
   16c0a:	48 85 c0             	test   %rax,%rax
   16c0d:	0f 84 13 01 00 00    	je     16d26 <func_68+0x113b>
   16c13:	c7 85 70 ee ff ff bc 	movl   $0x67b0dcbc,-0x1190(%rbp)
   16c1a:	dc b0 67 
   16c1d:	c7 85 74 ee ff ff bc 	movl   $0x67b0dcbc,-0x118c(%rbp)
   16c24:	dc b0 67 
   16c27:	c7 85 78 ee ff ff 01 	movl   $0x1,-0x1188(%rbp)
   16c2e:	00 00 00 
   16c31:	c7 85 7c ee ff ff bc 	movl   $0x67b0dcbc,-0x1184(%rbp)
   16c38:	dc b0 67 
   16c3b:	c7 85 80 ee ff ff bc 	movl   $0x67b0dcbc,-0x1180(%rbp)
   16c42:	dc b0 67 
   16c45:	c7 85 84 ee ff ff 01 	movl   $0x1,-0x117c(%rbp)
   16c4c:	00 00 00 
   16c4f:	c7 85 88 ee ff ff bc 	movl   $0x67b0dcbc,-0x1178(%rbp)
   16c56:	dc b0 67 
   16c59:	c7 85 8c ee ff ff bc 	movl   $0x67b0dcbc,-0x1174(%rbp)
   16c60:	dc b0 67 
   16c63:	48 8d 85 70 ef ff ff 	lea    -0x1090(%rbp),%rax
   16c6a:	48 8d 15 6f 2f 00 00 	lea    0x2f6f(%rip),%rdx        # 19be0 <g_2536+0xb5c>
   16c71:	b9 78 00 00 00       	mov    $0x78,%ecx
   16c76:	48 89 c7             	mov    %rax,%rdi
   16c79:	48 89 d6             	mov    %rdx,%rsi
   16c7c:	f3 48 a5             	rep movsq %ds:(%rsi),%es:(%rdi)
   16c7f:	8b 05 af 63 00 00    	mov    0x63af(%rip),%eax        # 1d034 <g_85>
   16c85:	48 8d 05 20 b8 00 00 	lea    0xb820(%rip),%rax        # 224ac <g_104>
   16c8c:	48 39 85 70 eb ff ff 	cmp    %rax,-0x1490(%rbp)
   16c93:	8b 85 78 ee ff ff    	mov    -0x1188(%rbp),%eax
   16c99:	0f b6 d8             	movzbl %al,%ebx
   16c9c:	48 8b 85 78 eb ff ff 	mov    -0x1488(%rbp),%rax
   16ca3:	48 8b 10             	mov    (%rax),%rdx
   16ca6:	48 8b 85 78 eb ff ff 	mov    -0x1488(%rbp),%rax
   16cad:	48 89 10             	mov    %rdx,(%rax)
   16cb0:	48 8b 85 78 eb ff ff 	mov    -0x1488(%rbp),%rax
   16cb7:	48 8b 00             	mov    (%rax),%rax
   16cba:	48 8d 15 6f 63 00 00 	lea    0x636f(%rip),%rdx        # 1d030 <g_63>
   16cc1:	48 39 d0             	cmp    %rdx,%rax
   16cc4:	0f 95 c0             	setne  %al
   16cc7:	0f b6 c0             	movzbl %al,%eax
   16cca:	be 00 00 00 00       	mov    $0x0,%esi
   16ccf:	48 89 c7             	mov    %rax,%rdi
   16cd2:	e8 8e 43 ff ff       	callq  b065 <safe_mul_func_uint64_t_u_u>
   16cd7:	0f b6 c0             	movzbl %al,%eax
   16cda:	89 de                	mov    %ebx,%esi
   16cdc:	89 c7                	mov    %eax,%edi
   16cde:	e8 b0 3e ff ff       	callq  ab93 <safe_mul_func_uint8_t_u_u>
   16ce3:	0f b6 d0             	movzbl %al,%edx
   16ce6:	0f b7 85 64 eb ff ff 	movzwl -0x149c(%rbp),%eax
   16ced:	98                   	cwtl   
   16cee:	39 c2                	cmp    %eax,%edx
   16cf0:	0f 9d c0             	setge  %al
   16cf3:	0f b6 c0             	movzbl %al,%eax
   16cf6:	39 85 b0 eb ff ff    	cmp    %eax,-0x1450(%rbp)
   16cfc:	c7 85 d4 f1 ff ff 1b 	movl   $0x605a821b,-0xe2c(%rbp)
   16d03:	82 5a 60 
   16d06:	8b 85 d4 f1 ff ff    	mov    -0xe2c(%rbp),%eax
   16d0c:	89 c7                	mov    %eax,%edi
   16d0e:	e8 93 41 ff ff       	callq  aea6 <safe_unary_minus_func_uint32_t_u>
   16d13:	8b 15 17 63 00 00    	mov    0x6317(%rip),%edx        # 1d030 <g_63>
   16d19:	09 d0                	or     %edx,%eax
   16d1b:	89 05 0f 63 00 00    	mov    %eax,0x630f(%rip)        # 1d030 <g_63>
   16d21:	e9 5a 09 00 00       	jmpq   17680 <func_68+0x1a95>
   16d26:	48 c7 85 f0 eb ff ff 	movq   $0x1,-0x1410(%rbp)
   16d2d:	01 00 00 00 
   16d31:	c7 85 bc eb ff ff 52 	movl   $0xa2dd5c52,-0x1444(%rbp)
   16d38:	5c dd a2 
   16d3b:	c6 85 8c eb ff ff 01 	movb   $0x1,-0x1474(%rbp)
   16d42:	c7 05 f0 62 00 00 03 	movl   $0x3,0x62f0(%rip)        # 1d03c <g_99>
   16d49:	00 00 00 
   16d4c:	90                   	nop
   16d4d:	8b 05 e9 62 00 00    	mov    0x62e9(%rip),%eax        # 1d03c <g_99>
   16d53:	85 c0                	test   %eax,%eax
   16d55:	0f 88 33 08 00 00    	js     1758e <func_68+0x19a3>
   16d5b:	48 c7 45 be ff ff ff 	movq   $0xffffffffffffffff,-0x42(%rbp)
   16d62:	ff 
   16d63:	66 c7 45 c6 ff ff    	movw   $0xffff,-0x3a(%rbp)
   16d69:	c7 85 9c eb ff ff 00 	movl   $0x0,-0x1464(%rbp)
   16d70:	00 00 00 
   16d73:	e9 8e 00 00 00       	jmpq   16e06 <func_68+0x121b>
   16d78:	c7 85 a0 eb ff ff 00 	movl   $0x0,-0x1460(%rbp)
   16d7f:	00 00 00 
   16d82:	eb 72                	jmp    16df6 <func_68+0x120b>
   16d84:	c7 85 a4 eb ff ff 00 	movl   $0x0,-0x145c(%rbp)
   16d8b:	00 00 00 
   16d8e:	eb 56                	jmp    16de6 <func_68+0x11fb>
   16d90:	8b 85 a4 eb ff ff    	mov    -0x145c(%rbp),%eax
   16d96:	48 63 f0             	movslq %eax,%rsi
   16d99:	8b 85 9c eb ff ff    	mov    -0x1464(%rbp),%eax
   16d9f:	48 63 d0             	movslq %eax,%rdx
   16da2:	8b 85 a0 eb ff ff    	mov    -0x1460(%rbp),%eax
   16da8:	48 63 c8             	movslq %eax,%rcx
   16dab:	48 89 d0             	mov    %rdx,%rax
   16dae:	48 c1 e0 02          	shl    $0x2,%rax
   16db2:	48 01 d0             	add    %rdx,%rax
   16db5:	48 8d 14 85 00 00 00 	lea    0x0(,%rax,4),%rdx
   16dbc:	00 
   16dbd:	48 01 d0             	add    %rdx,%rax
   16dc0:	48 89 ca             	mov    %rcx,%rdx
   16dc3:	48 c1 e2 02          	shl    $0x2,%rdx
   16dc7:	48 01 ca             	add    %rcx,%rdx
   16dca:	48 01 d0             	add    %rdx,%rax
   16dcd:	48 01 f0             	add    %rsi,%rax
   16dd0:	48 8d 15 22 6b 00 00 	lea    0x6b22(%rip),%rdx        # 1d8f9 <g_157>
   16dd7:	48 89 94 c5 70 ef ff 	mov    %rdx,-0x1090(%rbp,%rax,8)
   16dde:	ff 
   16ddf:	83 85 a4 eb ff ff 01 	addl   $0x1,-0x145c(%rbp)
   16de6:	83 bd a4 eb ff ff 04 	cmpl   $0x4,-0x145c(%rbp)
   16ded:	7e a1                	jle    16d90 <func_68+0x11a5>
   16def:	83 85 a0 eb ff ff 01 	addl   $0x1,-0x1460(%rbp)
   16df6:	83 bd a0 eb ff ff 04 	cmpl   $0x4,-0x1460(%rbp)
   16dfd:	7e 85                	jle    16d84 <func_68+0x1199>
   16dff:	83 85 9c eb ff ff 01 	addl   $0x1,-0x1464(%rbp)
   16e06:	83 bd 9c eb ff ff 01 	cmpl   $0x1,-0x1464(%rbp)
   16e0d:	0f 8e 65 ff ff ff    	jle    16d78 <func_68+0x118d>
   16e13:	0f b7 05 14 62 00 00 	movzwl 0x6214(%rip),%eax        # 1d02e <g_57>
   16e1a:	98                   	cwtl   
   16e1b:	8d 50 04             	lea    0x4(%rax),%edx
   16e1e:	8b 85 94 eb ff ff    	mov    -0x146c(%rbp),%eax
   16e24:	83 c0 02             	add    $0x2,%eax
   16e27:	48 63 f0             	movslq %eax,%rsi
   16e2a:	8b 85 94 eb ff ff    	mov    -0x146c(%rbp),%eax
   16e30:	48 98                	cltq   
   16e32:	48 63 ca             	movslq %edx,%rcx
   16e35:	48 89 c2             	mov    %rax,%rdx
   16e38:	48 c1 e2 06          	shl    $0x6,%rdx
   16e3c:	48 29 c2             	sub    %rax,%rdx
   16e3f:	48 89 c8             	mov    %rcx,%rax
   16e42:	48 c1 e0 03          	shl    $0x3,%rax
   16e46:	48 29 c8             	sub    %rcx,%rax
   16e49:	48 01 d0             	add    %rdx,%rax
   16e4c:	48 01 f0             	add    %rsi,%rax
   16e4f:	48 8d 14 c5 00 00 00 	lea    0x0(,%rax,8),%rdx
   16e56:	00 
   16e57:	48 8d 05 02 62 00 00 	lea    0x6202(%rip),%rax        # 1d060 <g_110>
   16e5e:	48 8b 04 02          	mov    (%rdx,%rax,1),%rax
   16e62:	89 c7                	mov    %eax,%edi
   16e64:	0f b7 05 c3 61 00 00 	movzwl 0x61c3(%rip),%eax        # 1d02e <g_57>
   16e6b:	98                   	cwtl   
   16e6c:	8d 50 04             	lea    0x4(%rax),%edx
   16e6f:	8b 85 94 eb ff ff    	mov    -0x146c(%rbp),%eax
   16e75:	83 c0 02             	add    $0x2,%eax
   16e78:	48 63 f0             	movslq %eax,%rsi
   16e7b:	8b 85 94 eb ff ff    	mov    -0x146c(%rbp),%eax
   16e81:	48 98                	cltq   
   16e83:	48 63 ca             	movslq %edx,%rcx
   16e86:	48 89 c2             	mov    %rax,%rdx
   16e89:	48 c1 e2 06          	shl    $0x6,%rdx
   16e8d:	48 29 c2             	sub    %rax,%rdx
   16e90:	48 89 c8             	mov    %rcx,%rax
   16e93:	48 c1 e0 03          	shl    $0x3,%rax
   16e97:	48 29 c8             	sub    %rcx,%rax
   16e9a:	48 01 d0             	add    %rdx,%rax
   16e9d:	48 01 f0             	add    %rsi,%rax
   16ea0:	48 8d 14 c5 00 00 00 	lea    0x0(,%rax,8),%rdx
   16ea7:	00 
   16ea8:	48 8d 05 b1 61 00 00 	lea    0x61b1(%rip),%rax        # 1d060 <g_110>
   16eaf:	48 8b 14 02          	mov    (%rdx,%rax,1),%rdx
   16eb3:	8b 05 6f 61 00 00    	mov    0x616f(%rip),%eax        # 1d028 <g_9>
   16eb9:	3d a6 cc 00 00       	cmp    $0xcca6,%eax
   16ebe:	0f 96 c0             	setbe  %al
   16ec1:	0f b6 c0             	movzbl %al,%eax
   16ec4:	48 09 d0             	or     %rdx,%rax
   16ec7:	48 83 f8 01          	cmp    $0x1,%rax
   16ecb:	0f 95 c0             	setne  %al
   16ece:	0f b6 c0             	movzbl %al,%eax
   16ed1:	89 fe                	mov    %edi,%esi
   16ed3:	89 c7                	mov    %eax,%edi
   16ed5:	e8 a0 3f ff ff       	callq  ae7a <safe_rshift_func_uint16_t_u_u>
   16eda:	66 85 c0             	test   %ax,%ax
   16edd:	0f 84 4b 05 00 00    	je     1742e <func_68+0x1843>
   16ee3:	48 8d 05 0f 6a 00 00 	lea    0x6a0f(%rip),%rax        # 1d8f9 <g_157>
   16eea:	48 89 85 b0 ec ff ff 	mov    %rax,-0x1350(%rbp)
   16ef1:	48 8d 05 01 6a 00 00 	lea    0x6a01(%rip),%rax        # 1d8f9 <g_157>
   16ef8:	48 89 85 b8 ec ff ff 	mov    %rax,-0x1348(%rbp)
   16eff:	48 8d 05 f3 69 00 00 	lea    0x69f3(%rip),%rax        # 1d8f9 <g_157>
   16f06:	48 89 85 c0 ec ff ff 	mov    %rax,-0x1340(%rbp)
   16f0d:	48 8d 05 e5 69 00 00 	lea    0x69e5(%rip),%rax        # 1d8f9 <g_157>
   16f14:	48 89 85 c8 ec ff ff 	mov    %rax,-0x1338(%rbp)
   16f1b:	48 8d 05 d7 69 00 00 	lea    0x69d7(%rip),%rax        # 1d8f9 <g_157>
   16f22:	48 89 85 d0 ec ff ff 	mov    %rax,-0x1330(%rbp)
   16f29:	48 8d 05 c9 69 00 00 	lea    0x69c9(%rip),%rax        # 1d8f9 <g_157>
   16f30:	48 89 85 d8 ec ff ff 	mov    %rax,-0x1328(%rbp)
   16f37:	48 8d 05 bb 69 00 00 	lea    0x69bb(%rip),%rax        # 1d8f9 <g_157>
   16f3e:	48 89 85 e0 ec ff ff 	mov    %rax,-0x1320(%rbp)
   16f45:	48 8d 05 ad 69 00 00 	lea    0x69ad(%rip),%rax        # 1d8f9 <g_157>
   16f4c:	48 89 85 e8 ec ff ff 	mov    %rax,-0x1318(%rbp)
   16f53:	48 8d 85 b0 ec ff ff 	lea    -0x1350(%rbp),%rax
   16f5a:	48 89 85 70 ee ff ff 	mov    %rax,-0x1190(%rbp)
   16f61:	48 8d 85 b0 ec ff ff 	lea    -0x1350(%rbp),%rax
   16f68:	48 83 c0 10          	add    $0x10,%rax
   16f6c:	48 89 85 78 ee ff ff 	mov    %rax,-0x1188(%rbp)
   16f73:	48 8d 85 b0 ec ff ff 	lea    -0x1350(%rbp),%rax
   16f7a:	48 83 c0 28          	add    $0x28,%rax
   16f7e:	48 89 85 80 ee ff ff 	mov    %rax,-0x1180(%rbp)
   16f85:	48 8d 85 b0 ec ff ff 	lea    -0x1350(%rbp),%rax
   16f8c:	48 83 c0 10          	add    $0x10,%rax
   16f90:	48 89 85 88 ee ff ff 	mov    %rax,-0x1178(%rbp)
   16f97:	48 8d 85 b0 ec ff ff 	lea    -0x1350(%rbp),%rax
   16f9e:	48 89 85 90 ee ff ff 	mov    %rax,-0x1170(%rbp)
   16fa5:	48 8d 85 b0 ec ff ff 	lea    -0x1350(%rbp),%rax
   16fac:	48 83 c0 10          	add    $0x10,%rax
   16fb0:	48 89 85 98 ee ff ff 	mov    %rax,-0x1168(%rbp)
   16fb7:	48 8d 85 b0 ec ff ff 	lea    -0x1350(%rbp),%rax
   16fbe:	48 83 c0 28          	add    $0x28,%rax
   16fc2:	48 89 85 a0 ee ff ff 	mov    %rax,-0x1160(%rbp)
   16fc9:	48 8d 85 b0 ec ff ff 	lea    -0x1350(%rbp),%rax
   16fd0:	48 83 c0 10          	add    $0x10,%rax
   16fd4:	48 89 85 a8 ee ff ff 	mov    %rax,-0x1158(%rbp)
   16fdb:	48 8d 85 b0 ec ff ff 	lea    -0x1350(%rbp),%rax
   16fe2:	48 89 85 b0 ee ff ff 	mov    %rax,-0x1150(%rbp)
   16fe9:	48 8d 85 b0 ec ff ff 	lea    -0x1350(%rbp),%rax
   16ff0:	48 83 c0 10          	add    $0x10,%rax
   16ff4:	48 89 85 b8 ee ff ff 	mov    %rax,-0x1148(%rbp)
   16ffb:	48 8d 85 b0 ec ff ff 	lea    -0x1350(%rbp),%rax
   17002:	48 83 c0 28          	add    $0x28,%rax
   17006:	48 89 85 c0 ee ff ff 	mov    %rax,-0x1140(%rbp)
   1700d:	48 8d 85 b0 ec ff ff 	lea    -0x1350(%rbp),%rax
   17014:	48 83 c0 10          	add    $0x10,%rax
   17018:	48 89 85 c8 ee ff ff 	mov    %rax,-0x1138(%rbp)
   1701f:	48 8d 85 b0 ec ff ff 	lea    -0x1350(%rbp),%rax
   17026:	48 89 85 d0 ee ff ff 	mov    %rax,-0x1130(%rbp)
   1702d:	48 8d 85 b0 ec ff ff 	lea    -0x1350(%rbp),%rax
   17034:	48 83 c0 10          	add    $0x10,%rax
   17038:	48 89 85 d8 ee ff ff 	mov    %rax,-0x1128(%rbp)
   1703f:	48 8d 85 b0 ec ff ff 	lea    -0x1350(%rbp),%rax
   17046:	48 83 c0 28          	add    $0x28,%rax
   1704a:	48 89 85 e0 ee ff ff 	mov    %rax,-0x1120(%rbp)
   17051:	48 8d 85 b0 ec ff ff 	lea    -0x1350(%rbp),%rax
   17058:	48 83 c0 10          	add    $0x10,%rax
   1705c:	48 89 85 e8 ee ff ff 	mov    %rax,-0x1118(%rbp)
   17063:	48 8d 85 b0 ec ff ff 	lea    -0x1350(%rbp),%rax
   1706a:	48 89 85 f0 ee ff ff 	mov    %rax,-0x1110(%rbp)
   17071:	48 8d 85 b0 ec ff ff 	lea    -0x1350(%rbp),%rax
   17078:	48 83 c0 10          	add    $0x10,%rax
   1707c:	48 89 85 f8 ee ff ff 	mov    %rax,-0x1108(%rbp)
   17083:	48 8d 85 b0 ec ff ff 	lea    -0x1350(%rbp),%rax
   1708a:	48 83 c0 28          	add    $0x28,%rax
   1708e:	48 89 85 00 ef ff ff 	mov    %rax,-0x1100(%rbp)
   17095:	48 8d 85 b0 ec ff ff 	lea    -0x1350(%rbp),%rax
   1709c:	48 83 c0 10          	add    $0x10,%rax
   170a0:	48 89 85 08 ef ff ff 	mov    %rax,-0x10f8(%rbp)
   170a7:	48 8d 85 70 ee ff ff 	lea    -0x1190(%rbp),%rax
   170ae:	48 05 98 00 00 00    	add    $0x98,%rax
   170b4:	48 89 85 48 ec ff ff 	mov    %rax,-0x13b8(%rbp)
   170bb:	c7 85 c4 eb ff ff 88 	movl   $0x4eff3e88,-0x143c(%rbp)
   170c2:	3e ff 4e 
   170c5:	48 8d 85 58 ec ff ff 	lea    -0x13a8(%rbp),%rax
   170cc:	48 89 85 e0 eb ff ff 	mov    %rax,-0x1420(%rbp)
   170d3:	48 8d 85 e0 eb ff ff 	lea    -0x1420(%rbp),%rax
   170da:	48 89 85 50 ec ff ff 	mov    %rax,-0x13b0(%rbp)
   170e1:	c7 85 a8 eb ff ff 00 	movl   $0x0,-0x1458(%rbp)
   170e8:	00 00 00 
   170eb:	eb 1e                	jmp    1710b <func_68+0x1520>
   170ed:	8b 85 a8 eb ff ff    	mov    -0x1458(%rbp),%eax
   170f3:	48 98                	cltq   
   170f5:	48 8d 15 3c 5f 00 00 	lea    0x5f3c(%rip),%rdx        # 1d038 <g_97>
   170fc:	48 89 94 c5 58 ec ff 	mov    %rdx,-0x13a8(%rbp,%rax,8)
   17103:	ff 
   17104:	83 85 a8 eb ff ff 01 	addl   $0x1,-0x1458(%rbp)
   1710b:	83 bd a8 eb ff ff 00 	cmpl   $0x0,-0x1458(%rbp)
   17112:	7e d9                	jle    170ed <func_68+0x1502>
   17114:	8b 0d da 67 00 00    	mov    0x67da(%rip),%ecx        # 1d8f4 <g_117+0x74>
   1711a:	48 8b 95 08 ef ff ff 	mov    -0x10f8(%rbp),%rdx
   17121:	48 8b 85 48 ec ff ff 	mov    -0x13b8(%rbp),%rax
   17128:	48 89 10             	mov    %rdx,(%rax)
   1712b:	48 8b 85 48 ec ff ff 	mov    -0x13b8(%rbp),%rax
   17132:	48 8b 00             	mov    (%rax),%rax
   17135:	48 85 c0             	test   %rax,%rax
   17138:	0f 95 c0             	setne  %al
   1713b:	0f b6 c0             	movzbl %al,%eax
   1713e:	09 c8                	or     %ecx,%eax
   17140:	3d 2b 9d 00 00       	cmp    $0x9d2b,%eax
   17145:	48 8b 95 78 f8 ff ff 	mov    -0x788(%rbp),%rdx
   1714c:	48 8b 85 78 eb ff ff 	mov    -0x1488(%rbp),%rax
   17153:	48 89 10             	mov    %rdx,(%rax)
   17156:	0f be 9d 8c eb ff ff 	movsbl -0x1474(%rbp),%ebx
   1715d:	8b 05 cd 5e 00 00    	mov    0x5ecd(%rip),%eax        # 1d030 <g_63>
   17163:	44 0f b7 e0          	movzwl %ax,%r12d
   17167:	0f b7 85 64 eb ff ff 	movzwl -0x149c(%rbp),%eax
   1716e:	44 0f b6 e8          	movzbl %al,%r13d
   17172:	48 8b 85 c8 eb ff ff 	mov    -0x1438(%rbp),%rax
   17179:	48 85 c0             	test   %rax,%rax
   1717c:	0f 89 35 01 00 00    	jns    172b7 <func_68+0x16cc>
   17182:	0f b7 05 71 67 00 00 	movzwl 0x6771(%rip),%eax        # 1d8fa <g_159>
   17189:	4c 0f bf f0          	movswq %ax,%r14
   1718d:	8b 05 9d 5e 00 00    	mov    0x5e9d(%rip),%eax        # 1d030 <g_63>
   17193:	44 0f b7 f8          	movzwl %ax,%r15d
   17197:	48 8b 85 d8 eb ff ff 	mov    -0x1428(%rbp),%rax
   1719e:	0f b6 00             	movzbl (%rax),%eax
   171a1:	89 c2                	mov    %eax,%edx
   171a3:	8b 05 b3 66 00 00    	mov    0x66b3(%rip),%eax        # 1d85c <g_115+0x1c>
   171a9:	21 c2                	and    %eax,%edx
   171ab:	48 8b 85 d8 eb ff ff 	mov    -0x1428(%rbp),%rax
   171b2:	88 10                	mov    %dl,(%rax)
   171b4:	0f b6 00             	movzbl (%rax),%eax
   171b7:	84 c0                	test   %al,%al
   171b9:	75 6d                	jne    17228 <func_68+0x163d>
   171bb:	8b 35 a7 66 00 00    	mov    0x66a7(%rip),%esi        # 1d868 <g_115+0x28>
   171c1:	0f b7 05 66 5e 00 00 	movzwl 0x5e66(%rip),%eax        # 1d02e <g_57>
   171c8:	98                   	cwtl   
   171c9:	8d 50 04             	lea    0x4(%rax),%edx
   171cc:	8b 85 94 eb ff ff    	mov    -0x146c(%rbp),%eax
   171d2:	83 c0 02             	add    $0x2,%eax
   171d5:	48 63 f8             	movslq %eax,%rdi
   171d8:	8b 85 94 eb ff ff    	mov    -0x146c(%rbp),%eax
   171de:	48 98                	cltq   
   171e0:	48 63 ca             	movslq %edx,%rcx
   171e3:	48 89 c2             	mov    %rax,%rdx
   171e6:	48 c1 e2 06          	shl    $0x6,%rdx
   171ea:	48 29 c2             	sub    %rax,%rdx
   171ed:	48 89 c8             	mov    %rcx,%rax
   171f0:	48 c1 e0 03          	shl    $0x3,%rax
   171f4:	48 29 c8             	sub    %rcx,%rax
   171f7:	48 01 d0             	add    %rdx,%rax
   171fa:	48 01 f8             	add    %rdi,%rax
   171fd:	48 8d 14 c5 00 00 00 	lea    0x0(,%rax,8),%rdx
   17204:	00 
   17205:	48 8d 05 54 5e 00 00 	lea    0x5e54(%rip),%rax        # 1d060 <g_110>
   1720c:	48 8b 04 02          	mov    (%rdx,%rax,1),%rax
   17210:	0f b6 c0             	movzbl %al,%eax
   17213:	89 c7                	mov    %eax,%edi
   17215:	e8 32 3a ff ff       	callq  ac4c <safe_lshift_func_uint8_t_u_u>
   1721a:	84 c0                	test   %al,%al
   1721c:	75 0a                	jne    17228 <func_68+0x163d>
   1721e:	48 83 bd f0 eb ff ff 	cmpq   $0x0,-0x1410(%rbp)
   17225:	00 
   17226:	74 07                	je     1722f <func_68+0x1644>
   17228:	b8 01 00 00 00       	mov    $0x1,%eax
   1722d:	eb 05                	jmp    17234 <func_68+0x1649>
   1722f:	b8 00 00 00 00       	mov    $0x0,%eax
   17234:	89 c2                	mov    %eax,%edx
   17236:	8b 85 b0 eb ff ff    	mov    -0x1450(%rbp),%eax
   1723c:	0f b6 c0             	movzbl %al,%eax
   1723f:	89 d6                	mov    %edx,%esi
   17241:	89 c7                	mov    %eax,%edi
   17243:	e8 76 3a ff ff       	callq  acbe <safe_rshift_func_uint8_t_u_u>
   17248:	44 89 fe             	mov    %r15d,%esi
   1724b:	bf 37 f8 00 00       	mov    $0xf837,%edi
   17250:	e8 39 3b ff ff       	callq  ad8e <safe_div_func_uint16_t_u_u>
   17255:	88 05 e5 5d 00 00    	mov    %al,0x5de5(%rip)        # 1d040 <g_102>
   1725b:	0f b6 05 de 5d 00 00 	movzbl 0x5dde(%rip),%eax        # 1d040 <g_102>
   17262:	0f b6 c0             	movzbl %al,%eax
   17265:	be 00 00 00 00       	mov    $0x0,%esi
   1726a:	89 c7                	mov    %eax,%edi
   1726c:	e8 07 39 ff ff       	callq  ab78 <safe_sub_func_uint8_t_u_u>
   17271:	0f b6 c0             	movzbl %al,%eax
   17274:	4c 89 f6             	mov    %r14,%rsi
   17277:	48 89 c7             	mov    %rax,%rdi
   1727a:	e8 30 3e ff ff       	callq  b0af <safe_div_func_uint64_t_u_u>
   1727f:	0f b7 05 a8 5d 00 00 	movzwl 0x5da8(%rip),%eax        # 1d02e <g_57>
   17286:	98                   	cwtl   
   17287:	8d 50 04             	lea    0x4(%rax),%edx
   1728a:	8b 85 94 eb ff ff    	mov    -0x146c(%rbp),%eax
   17290:	48 63 c8             	movslq %eax,%rcx
   17293:	48 63 d2             	movslq %edx,%rdx
   17296:	48 89 c8             	mov    %rcx,%rax
   17299:	48 c1 e0 06          	shl    $0x6,%rax
   1729d:	48 29 c8             	sub    %rcx,%rax
   172a0:	48 89 d0             	mov    %rdx,%rax
   172a3:	48 c1 e0 03          	shl    $0x3,%rax
   172a7:	48 29 d0             	sub    %rdx,%rax
   172aa:	48 8b 85 70 eb ff ff 	mov    -0x1490(%rbp),%rax
   172b1:	0f b7 00             	movzwl (%rax),%eax
   172b4:	66 85 c0             	test   %ax,%ax
   172b7:	0f b7 85 64 eb ff ff 	movzwl -0x149c(%rbp),%eax
   172be:	0f b6 c0             	movzbl %al,%eax
   172c1:	44 89 ee             	mov    %r13d,%esi
   172c4:	89 c7                	mov    %eax,%edi
   172c6:	e8 c8 38 ff ff       	callq  ab93 <safe_mul_func_uint8_t_u_u>
   172cb:	0f b6 c0             	movzbl %al,%eax
   172ce:	89 85 c4 eb ff ff    	mov    %eax,-0x143c(%rbp)
   172d4:	8b 85 c4 eb ff ff    	mov    -0x143c(%rbp),%eax
   172da:	89 85 bc eb ff ff    	mov    %eax,-0x1444(%rbp)
   172e0:	8b 85 bc eb ff ff    	mov    -0x1444(%rbp),%eax
   172e6:	0f b6 c0             	movzbl %al,%eax
   172e9:	be 07 00 00 00       	mov    $0x7,%esi
   172ee:	89 c7                	mov    %eax,%edi
   172f0:	e8 e6 38 ff ff       	callq  abdb <safe_div_func_uint8_t_u_u>
   172f5:	b8 01 00 00 00       	mov    $0x1,%eax
   172fa:	48 98                	cltq   
   172fc:	48 89 c6             	mov    %rax,%rsi
   172ff:	48 bf 1f 16 13 ea 8d 	movabs $0xc1cf038dea13161f,%rdi
   17306:	03 cf c1 
   17309:	e8 33 35 ff ff       	callq  a841 <safe_add_func_int64_t_s_s>
   1730e:	48 8b 95 18 ec ff ff 	mov    -0x13e8(%rbp),%rdx
   17315:	0f b7 12             	movzwl (%rdx),%edx
   17318:	21 d0                	and    %edx,%eax
   1731a:	89 c2                	mov    %eax,%edx
   1731c:	48 8b 85 18 ec ff ff 	mov    -0x13e8(%rbp),%rax
   17323:	66 89 10             	mov    %dx,(%rax)
   17326:	48 8b 85 18 ec ff ff 	mov    -0x13e8(%rbp),%rax
   1732d:	0f b7 00             	movzwl (%rax),%eax
   17330:	0f b7 c0             	movzwl %ax,%eax
   17333:	44 89 e6             	mov    %r12d,%esi
   17336:	89 c7                	mov    %eax,%edi
   17338:	e8 1f 3a ff ff       	callq  ad5c <safe_mod_func_uint16_t_u_u>
   1733d:	b8 01 00 00 00       	mov    $0x1,%eax
   17342:	0f be c0             	movsbl %al,%eax
   17345:	be 24 00 00 00       	mov    $0x24,%esi
   1734a:	89 c7                	mov    %eax,%edi
   1734c:	e8 a1 2e ff ff       	callq  a1f2 <safe_sub_func_int8_t_s_s>
   17351:	4c 0f be e0          	movsbq %al,%r12
   17355:	c7 85 b4 eb ff ff 3e 	movl   $0x3e,-0x144c(%rbp)
   1735c:	00 00 00 
   1735f:	be 05 00 00 00       	mov    $0x5,%esi
   17364:	bf 3e 00 00 00       	mov    $0x3e,%edi
   17369:	e8 1f 39 ff ff       	callq  ac8d <safe_rshift_func_uint8_t_u_s>
   1736e:	0f b6 c0             	movzbl %al,%eax
   17371:	4c 89 e6             	mov    %r12,%rsi
   17374:	48 89 c7             	mov    %rax,%rdi
   17377:	e8 b2 3c ff ff       	callq  b02e <safe_add_func_uint64_t_u_u>
   1737c:	0f b7 c0             	movzwl %ax,%eax
   1737f:	be 4d bb 00 00       	mov    $0xbb4d,%esi
   17384:	89 c7                	mov    %eax,%edi
   17386:	e8 d1 39 ff ff       	callq  ad5c <safe_mod_func_uint16_t_u_u>
   1738b:	0f b6 c0             	movzbl %al,%eax
   1738e:	be 05 00 00 00       	mov    $0x5,%esi
   17393:	89 c7                	mov    %eax,%edi
   17395:	e8 b2 38 ff ff       	callq  ac4c <safe_lshift_func_uint8_t_u_u>
   1739a:	0f b6 c0             	movzbl %al,%eax
   1739d:	89 de                	mov    %ebx,%esi
   1739f:	89 c7                	mov    %eax,%edi
   173a1:	e8 af 30 ff ff       	callq  a455 <safe_div_func_int16_t_s_s>
   173a6:	0f be c0             	movsbl %al,%eax
   173a9:	be 01 00 00 00       	mov    $0x1,%esi
   173ae:	89 c7                	mov    %eax,%edi
   173b0:	e8 ec 2e ff ff       	callq  a2a1 <safe_lshift_func_int8_t_s_s>
   173b5:	0f b7 15 72 5c 00 00 	movzwl 0x5c72(%rip),%edx        # 1d02e <g_57>
   173bc:	0f bf d2             	movswl %dx,%edx
   173bf:	0f b7 0d 68 5c 00 00 	movzwl 0x5c68(%rip),%ecx        # 1d02e <g_57>
   173c6:	0f bf c9             	movswl %cx,%ecx
   173c9:	44 8d 41 01          	lea    0x1(%rcx),%r8d
   173cd:	0f b7 0d 5a 5c 00 00 	movzwl 0x5c5a(%rip),%ecx        # 1d02e <g_57>
   173d4:	0f bf c9             	movswl %cx,%ecx
   173d7:	83 c1 01             	add    $0x1,%ecx
   173da:	48 0f be f0          	movsbq %al,%rsi
   173de:	48 63 f9             	movslq %ecx,%rdi
   173e1:	48 63 c2             	movslq %edx,%rax
   173e4:	49 63 c8             	movslq %r8d,%rcx
   173e7:	48 89 c2             	mov    %rax,%rdx
   173ea:	48 c1 e2 06          	shl    $0x6,%rdx
   173ee:	48 29 c2             	sub    %rax,%rdx
   173f1:	48 89 c8             	mov    %rcx,%rax
   173f4:	48 c1 e0 03          	shl    $0x3,%rax
   173f8:	48 29 c8             	sub    %rcx,%rax
   173fb:	48 01 d0             	add    %rdx,%rax
   173fe:	48 01 f8             	add    %rdi,%rax
   17401:	48 8d 14 c5 00 00 00 	lea    0x0(,%rax,8),%rdx
   17408:	00 
   17409:	48 8d 05 50 5c 00 00 	lea    0x5c50(%rip),%rax        # 1d060 <g_110>
   17410:	48 89 34 02          	mov    %rsi,(%rdx,%rax,1)
   17414:	48 8b 85 50 ec ff ff 	mov    -0x13b0(%rbp),%rax
   1741b:	48 c7 00 00 00 00 00 	movq   $0x0,(%rax)
   17422:	48 8b 05 87 b0 00 00 	mov    0xb087(%rip),%rax        # 224b0 <g_239>
   17429:	e9 b6 02 00 00       	jmpq   176e4 <func_68+0x1af9>
   1742e:	48 8d 85 c8 eb ff ff 	lea    -0x1438(%rbp),%rax
   17435:	48 89 85 38 ec ff ff 	mov    %rax,-0x13c8(%rbp)
   1743c:	48 8d 85 70 ee ff ff 	lea    -0x1190(%rbp),%rax
   17443:	48 8d 15 56 2b 00 00 	lea    0x2b56(%rip),%rdx        # 19fa0 <g_2536+0xf1c>
   1744a:	b9 1f 00 00 00       	mov    $0x1f,%ecx
   1744f:	48 89 c7             	mov    %rax,%rdi
   17452:	48 89 d6             	mov    %rdx,%rsi
   17455:	f3 48 a5             	rep movsq %ds:(%rsi),%es:(%rdi)
   17458:	48 89 f2             	mov    %rsi,%rdx
   1745b:	48 89 f8             	mov    %rdi,%rax
   1745e:	8b 0a                	mov    (%rdx),%ecx
   17460:	89 08                	mov    %ecx,(%rax)
   17462:	48 8d 40 04          	lea    0x4(%rax),%rax
   17466:	48 8d 52 04          	lea    0x4(%rdx),%rdx
   1746a:	48 8d 85 90 eb ff ff 	lea    -0x1470(%rbp),%rax
   17471:	48 89 85 40 ec ff ff 	mov    %rax,-0x13c0(%rbp)
   17478:	c7 85 ac eb ff ff 00 	movl   $0x0,-0x1454(%rbp)
   1747f:	00 00 00 
   17482:	eb 1e                	jmp    174a2 <func_68+0x18b7>
   17484:	8b 85 ac eb ff ff    	mov    -0x1454(%rbp),%eax
   1748a:	48 98                	cltq   
   1748c:	48 8d 15 ad 5b 00 00 	lea    0x5bad(%rip),%rdx        # 1d040 <g_102>
   17493:	48 89 94 c5 b0 ec ff 	mov    %rdx,-0x1350(%rbp,%rax,8)
   1749a:	ff 
   1749b:	83 85 ac eb ff ff 01 	addl   $0x1,-0x1454(%rbp)
   174a2:	83 bd ac eb ff ff 01 	cmpl   $0x1,-0x1454(%rbp)
   174a9:	7e d9                	jle    17484 <func_68+0x1899>
   174ab:	48 8b 85 70 eb ff ff 	mov    -0x1490(%rbp),%rax
   174b2:	0f b7 00             	movzwl (%rax),%eax
   174b5:	4c 0f bf e8          	movswq %ax,%r13
   174b9:	48 8b 85 70 eb ff ff 	mov    -0x1490(%rbp),%rax
   174c0:	0f b7 00             	movzwl (%rax),%eax
   174c3:	0f b7 d8             	movzwl %ax,%ebx
   174c6:	c7 85 64 ef ff ff 03 	movl   $0xffff0003,-0x109c(%rbp)
   174cd:	00 ff ff 
   174d0:	0f b7 85 64 eb ff ff 	movzwl -0x149c(%rbp),%eax
   174d7:	44 0f b6 e0          	movzbl %al,%r12d
   174db:	48 8b 85 68 eb ff ff 	mov    -0x1498(%rbp),%rax
   174e2:	0f b6 d0             	movzbl %al,%edx
   174e5:	8b 85 00 ef ff ff    	mov    -0x1100(%rbp),%eax
   174eb:	0f b6 c0             	movzbl %al,%eax
   174ee:	89 d6                	mov    %edx,%esi
   174f0:	89 c7                	mov    %eax,%edi
   174f2:	e8 81 36 ff ff       	callq  ab78 <safe_sub_func_uint8_t_u_u>
   174f7:	0f b6 45 c3          	movzbl -0x3d(%rbp),%eax
   174fb:	83 e0 01             	and    $0x1,%eax
   174fe:	88 05 3c 5b 00 00    	mov    %al,0x5b3c(%rip)        # 1d040 <g_102>
   17504:	0f b6 05 35 5b 00 00 	movzbl 0x5b35(%rip),%eax        # 1d040 <g_102>
   1750b:	0f b6 c0             	movzbl %al,%eax
   1750e:	44 89 e6             	mov    %r12d,%esi
   17511:	89 c7                	mov    %eax,%edi
   17513:	e8 7b 36 ff ff       	callq  ab93 <safe_mul_func_uint8_t_u_u>
   17518:	0f b6 c0             	movzbl %al,%eax
   1751b:	89 de                	mov    %ebx,%esi
   1751d:	89 c7                	mov    %eax,%edi
   1751f:	e8 38 38 ff ff       	callq  ad5c <safe_mod_func_uint16_t_u_u>
   17524:	0f b7 d0             	movzwl %ax,%edx
   17527:	48 8b 85 68 eb ff ff 	mov    -0x1498(%rbp),%rax
   1752e:	48 09 d0             	or     %rdx,%rax
   17531:	49 39 c5             	cmp    %rax,%r13
   17534:	0f 9e c0             	setle  %al
   17537:	0f b6 d0             	movzbl %al,%edx
   1753a:	0f b7 85 64 eb ff ff 	movzwl -0x149c(%rbp),%eax
   17541:	48 0f bf c8          	movswq %ax,%rcx
   17545:	8b 05 e9 5a 00 00    	mov    0x5ae9(%rip),%eax        # 1d034 <g_85>
   1754b:	89 c6                	mov    %eax,%esi
   1754d:	48 8b 85 38 ec ff ff 	mov    -0x13c8(%rbp),%rax
   17554:	48 89 30             	mov    %rsi,(%rax)
   17557:	48 8b 85 38 ec ff ff 	mov    -0x13c8(%rbp),%rax
   1755e:	48 8b 00             	mov    (%rax),%rax
   17561:	48 39 c1             	cmp    %rax,%rcx
   17564:	0f 9f c0             	setg   %al
   17567:	0f b6 c0             	movzbl %al,%eax
   1756a:	89 d6                	mov    %edx,%esi
   1756c:	89 c7                	mov    %eax,%edi
   1756e:	e8 8c 37 ff ff       	callq  acff <safe_add_func_uint16_t_u_u>
   17573:	0f b7 d0             	movzwl %ax,%edx
   17576:	48 8b 85 40 ec ff ff 	mov    -0x13c0(%rbp),%rax
   1757d:	89 10                	mov    %edx,(%rax)
   1757f:	48 8b 85 70 eb ff ff 	mov    -0x1490(%rbp),%rax
   17586:	0f b7 00             	movzwl (%rax),%eax
   17589:	e9 56 01 00 00       	jmpq   176e4 <func_68+0x1af9>
   1758e:	48 c7 85 f0 eb ff ff 	movq   $0x0,-0x1410(%rbp)
   17595:	00 00 00 00 
   17599:	e9 d4 00 00 00       	jmpq   17672 <func_68+0x1a87>
   1759e:	c6 85 8d eb ff ff 44 	movb   $0x44,-0x1473(%rbp)
   175a5:	48 8d 85 c8 eb ff ff 	lea    -0x1438(%rbp),%rax
   175ac:	48 89 85 28 ec ff ff 	mov    %rax,-0x13d8(%rbp)
   175b3:	c7 85 c0 eb ff ff df 	movl   $0xd2922df,-0x1440(%rbp)
   175ba:	22 29 0d 
   175bd:	48 8d 85 f0 ec ff ff 	lea    -0x1310(%rbp),%rax
   175c4:	48 83 c0 10          	add    $0x10,%rax
   175c8:	48 89 85 30 ec ff ff 	mov    %rax,-0x13d0(%rbp)
   175cf:	8b 85 94 eb ff ff    	mov    -0x146c(%rbp),%eax
   175d5:	83 c0 03             	add    $0x3,%eax
   175d8:	48 63 c8             	movslq %eax,%rcx
   175db:	48 8b 95 f0 eb ff ff 	mov    -0x1410(%rbp),%rdx
   175e2:	48 89 d0             	mov    %rdx,%rax
   175e5:	48 c1 e0 02          	shl    $0x2,%rax
   175e9:	48 01 d0             	add    %rdx,%rax
   175ec:	48 01 c0             	add    %rax,%rax
   175ef:	48 01 c8             	add    %rcx,%rax
   175f2:	48 8b 84 c5 80 ed ff 	mov    -0x1280(%rbp,%rax,8),%rax
   175f9:	ff 
   175fa:	48 85 c0             	test   %rax,%rax
   175fd:	0f 95 c0             	setne  %al
   17600:	88 85 8d eb ff ff    	mov    %al,-0x1473(%rbp)
   17606:	66 0f be 9d 8d eb ff 	movsbw -0x1473(%rbp),%bx
   1760d:	ff 
   1760e:	48 83 bd 00 ec ff ff 	cmpq   $0x0,-0x1400(%rbp)
   17615:	00 
   17616:	0f 95 c0             	setne  %al
   17619:	0f b6 d0             	movzbl %al,%edx
   1761c:	8b 85 00 ed ff ff    	mov    -0x1300(%rbp),%eax
   17622:	0f be c0             	movsbl %al,%eax
   17625:	89 d6                	mov    %edx,%esi
   17627:	89 c7                	mov    %eax,%edi
   17629:	e8 c4 2b ff ff       	callq  a1f2 <safe_sub_func_int8_t_s_s>
   1762e:	8b 05 fc 59 00 00    	mov    0x59fc(%rip),%eax        # 1d030 <g_63>
   17634:	48 63 d0             	movslq %eax,%rdx
   17637:	48 8b 85 28 ec ff ff 	mov    -0x13d8(%rbp),%rax
   1763e:	48 89 10             	mov    %rdx,(%rax)
   17641:	be 0d 00 00 00       	mov    $0xd,%esi
   17646:	bf 01 00 00 00       	mov    $0x1,%edi
   1764b:	e8 91 2e ff ff       	callq  a4e1 <safe_lshift_func_int16_t_s_u>
   17650:	66 39 c3             	cmp    %ax,%bx
   17653:	74 07                	je     1765c <func_68+0x1a71>
   17655:	ba 01 00 00 00       	mov    $0x1,%edx
   1765a:	eb 05                	jmp    17661 <func_68+0x1a76>
   1765c:	ba 00 00 00 00       	mov    $0x0,%edx
   17661:	48 8b 85 30 ec ff ff 	mov    -0x13d0(%rbp),%rax
   17668:	89 10                	mov    %edx,(%rax)
   1766a:	48 83 85 f0 eb ff ff 	addq   $0x1,-0x1410(%rbp)
   17671:	01 
   17672:	48 83 bd f0 eb ff ff 	cmpq   $0x2,-0x1410(%rbp)
   17679:	02 
   1767a:	0f 86 1e ff ff ff    	jbe    1759e <func_68+0x19b3>
   17680:	83 85 94 eb ff ff 01 	addl   $0x1,-0x146c(%rbp)
   17687:	83 bd 94 eb ff ff 03 	cmpl   $0x3,-0x146c(%rbp)
   1768e:	0f 8e f1 e9 ff ff    	jle    16085 <func_68+0x49a>
   17694:	eb 01                	jmp    17697 <func_68+0x1aac>
   17696:	90                   	nop
   17697:	0f b7 05 90 59 00 00 	movzwl 0x5990(%rip),%eax        # 1d02e <g_57>
   1769e:	83 c0 01             	add    $0x1,%eax
   176a1:	66 89 05 86 59 00 00 	mov    %ax,0x5986(%rip)        # 1d02e <g_57>
   176a8:	0f b7 05 7f 59 00 00 	movzwl 0x597f(%rip),%eax        # 1d02e <g_57>
   176af:	66 83 f8 03          	cmp    $0x3,%ax
   176b3:	0f 8e 5c e6 ff ff    	jle    15d15 <func_68+0x12a>
   176b9:	8b 05 19 ae 00 00    	mov    0xae19(%rip),%eax        # 224d8 <g_269+0x18>
   176bf:	83 c0 01             	add    $0x1,%eax
   176c2:	89 05 10 ae 00 00    	mov    %eax,0xae10(%rip)        # 224d8 <g_269+0x18>
   176c8:	48 8b 05 39 62 00 00 	mov    0x6239(%rip),%rax        # 1d908 <g_272>
   176cf:	48 83 e8 01          	sub    $0x1,%rax
   176d3:	48 89 05 2e 62 00 00 	mov    %rax,0x622e(%rip)        # 1d908 <g_272>
   176da:	48 8b 85 70 eb ff ff 	mov    -0x1490(%rbp),%rax
   176e1:	0f b7 00             	movzwl (%rax),%eax
   176e4:	48 8b 5d c8          	mov    -0x38(%rbp),%rbx
   176e8:	64 48 33 1c 25 28 00 	xor    %fs:0x28,%rbx
   176ef:	00 00 
   176f1:	74 05                	je     176f8 <func_68+0x1b0d>
   176f3:	e8 78 29 ff ff       	callq  a070 <__stack_chk_fail@plt>
   176f8:	48 81 c4 78 14 00 00 	add    $0x1478,%rsp
   176ff:	5b                   	pop    %rbx
   17700:	41 5c                	pop    %r12
   17702:	41 5d                	pop    %r13
   17704:	41 5e                	pop    %r14
   17706:	41 5f                	pop    %r15
   17708:	5d                   	pop    %rbp
   17709:	c3                   	retq   

000000000001770a <func_73>:
   1770a:	f3 0f 1e fa          	endbr64 
   1770e:	55                   	push   %rbp
   1770f:	48 89 e5             	mov    %rsp,%rbp
   17712:	53                   	push   %rbx
   17713:	48 81 ec c8 00 00 00 	sub    $0xc8,%rsp
   1771a:	48 89 bd 38 ff ff ff 	mov    %rdi,-0xc8(%rbp)
   17721:	48 89 b5 30 ff ff ff 	mov    %rsi,-0xd0(%rbp)
   17728:	64 48 8b 04 25 28 00 	mov    %fs:0x28,%rax
   1772f:	00 00 
   17731:	48 89 45 e8          	mov    %rax,-0x18(%rbp)
   17735:	31 c0                	xor    %eax,%eax
   17737:	c7 85 50 ff ff ff 00 	movl   $0x0,-0xb0(%rbp)
   1773e:	00 00 00 
   17741:	c7 85 54 ff ff ff 5e 	movl   $0xdb4cfa5e,-0xac(%rbp)
   17748:	fa 4c db 
   1774b:	c7 85 58 ff ff ff 00 	movl   $0x0,-0xa8(%rbp)
   17752:	00 00 00 
   17755:	c7 85 5c ff ff ff 2d 	movl   $0xb26d052d,-0xa4(%rbp)
   1775c:	05 6d b2 
   1775f:	c7 85 60 ff ff ff 27 	movl   $0x1e97b727,-0xa0(%rbp)
   17766:	b7 97 1e 
   17769:	c7 85 64 ff ff ff 7d 	movl   $0xd885d17d,-0x9c(%rbp)
   17770:	d1 85 d8 
   17773:	c7 85 68 ff ff ff 67 	movl   $0x6d180367,-0x98(%rbp)
   1777a:	03 18 6d 
   1777d:	c7 85 6c ff ff ff 27 	movl   $0x42f35a27,-0x94(%rbp)
   17784:	5a f3 42 
   17787:	c7 85 70 ff ff ff 67 	movl   $0x6d180367,-0x90(%rbp)
   1778e:	03 18 6d 
   17791:	c7 85 74 ff ff ff 7d 	movl   $0xd885d17d,-0x8c(%rbp)
   17798:	d1 85 d8 
   1779b:	c7 85 78 ff ff ff 00 	movl   $0x0,-0x88(%rbp)
   177a2:	00 00 00 
   177a5:	c7 85 7c ff ff ff 01 	movl   $0x1,-0x84(%rbp)
   177ac:	00 00 00 
   177af:	c7 45 80 5e fa 4c db 	movl   $0xdb4cfa5e,-0x80(%rbp)
   177b6:	c7 45 84 ff ff ff ff 	movl   $0xffffffff,-0x7c(%rbp)
   177bd:	c7 45 88 5e fa 4c db 	movl   $0xdb4cfa5e,-0x78(%rbp)
   177c4:	c7 45 8c c4 90 e3 02 	movl   $0x2e390c4,-0x74(%rbp)
   177cb:	c7 45 90 c4 90 e3 02 	movl   $0x2e390c4,-0x70(%rbp)
   177d2:	c7 45 94 27 5a f3 42 	movl   $0x42f35a27,-0x6c(%rbp)
   177d9:	c7 45 98 7d d1 85 d8 	movl   $0xd885d17d,-0x68(%rbp)
   177e0:	c7 45 9c 01 00 00 00 	movl   $0x1,-0x64(%rbp)
   177e7:	c7 45 a0 01 00 00 00 	movl   $0x1,-0x60(%rbp)
   177ee:	c7 45 a4 00 00 00 00 	movl   $0x0,-0x5c(%rbp)
   177f5:	c7 45 a8 00 00 00 00 	movl   $0x0,-0x58(%rbp)
   177fc:	c7 45 ac 01 00 00 00 	movl   $0x1,-0x54(%rbp)
   17803:	c7 45 b0 5e fa 4c db 	movl   $0xdb4cfa5e,-0x50(%rbp)
   1780a:	c7 45 b4 67 03 18 6d 	movl   $0x6d180367,-0x4c(%rbp)
   17811:	c7 45 b8 7d d1 85 d8 	movl   $0xd885d17d,-0x48(%rbp)
   17818:	c7 45 bc ff ff ff ff 	movl   $0xffffffff,-0x44(%rbp)
   1781f:	c7 45 c0 ff ff ff ff 	movl   $0xffffffff,-0x40(%rbp)
   17826:	c7 45 c4 7d d1 85 d8 	movl   $0xd885d17d,-0x3c(%rbp)
   1782d:	c7 45 c8 5e fa 4c db 	movl   $0xdb4cfa5e,-0x38(%rbp)
   17834:	c7 45 cc 00 00 00 00 	movl   $0x0,-0x34(%rbp)
   1783b:	c7 45 d0 2d 05 6d b2 	movl   $0xb26d052d,-0x30(%rbp)
   17842:	c7 45 d4 27 b7 97 1e 	movl   $0x1e97b727,-0x2c(%rbp)
   17849:	c7 45 d8 27 b7 97 1e 	movl   $0x1e97b727,-0x28(%rbp)
   17850:	48 8d 05 e5 57 00 00 	lea    0x57e5(%rip),%rax        # 1d03c <g_99>
   17857:	48 89 85 48 ff ff ff 	mov    %rax,-0xb8(%rbp)
   1785e:	48 8b 05 e3 85 00 00 	mov    0x85e3(%rip),%rax        # 1fe48 <g_33>
   17865:	48 8b 00             	mov    (%rax),%rax
   17868:	8b 18                	mov    (%rax),%ebx
   1786a:	0f b6 05 c7 57 00 00 	movzbl 0x57c7(%rip),%eax        # 1d038 <g_97>
   17871:	83 c0 01             	add    $0x1,%eax
   17874:	88 05 be 57 00 00    	mov    %al,0x57be(%rip)        # 1d038 <g_97>
   1787a:	be c0 38 00 00       	mov    $0x38c0,%esi
   1787f:	bf 00 00 00 00       	mov    $0x0,%edi
   17884:	e8 76 34 ff ff       	callq  acff <safe_add_func_uint16_t_u_u>
   17889:	89 de                	mov    %ebx,%esi
   1788b:	bf 01 00 00 00       	mov    $0x1,%edi
   17890:	e8 21 2d ff ff       	callq  a5b6 <safe_add_func_int32_t_s_s>
   17895:	48 8b 85 38 ff ff ff 	mov    -0xc8(%rbp),%rax
   1789c:	0f b6 c0             	movzbl %al,%eax
   1789f:	be 01 00 00 00       	mov    $0x1,%esi
   178a4:	89 c7                	mov    %eax,%edi
   178a6:	e8 5a 33 ff ff       	callq  ac05 <safe_lshift_func_uint8_t_u_s>
   178ab:	8b 45 c8             	mov    -0x38(%rbp),%eax
   178ae:	f7 d0                	not    %eax
   178b0:	8b 95 60 ff ff ff    	mov    -0xa0(%rbp),%edx
   178b6:	21 d0                	and    %edx,%eax
   178b8:	0f be c0             	movsbl %al,%eax
   178bb:	89 c7                	mov    %eax,%edi
   178bd:	e8 fd 28 ff ff       	callq  a1bf <safe_unary_minus_func_int8_t_s>
   178c2:	0f be d0             	movsbl %al,%edx
   178c5:	8b 45 ac             	mov    -0x54(%rbp),%eax
   178c8:	39 c2                	cmp    %eax,%edx
   178ca:	0f 9e c0             	setle  %al
   178cd:	0f b6 d0             	movzbl %al,%edx
   178d0:	48 8b 85 48 ff ff ff 	mov    -0xb8(%rbp),%rax
   178d7:	89 10                	mov    %edx,(%rax)
   178d9:	48 8d 05 60 85 00 00 	lea    0x8560(%rip),%rax        # 1fe40 <g_34>
   178e0:	48 8b 4d e8          	mov    -0x18(%rbp),%rcx
   178e4:	64 48 33 0c 25 28 00 	xor    %fs:0x28,%rcx
   178eb:	00 00 
   178ed:	74 05                	je     178f4 <func_73+0x1ea>
   178ef:	e8 7c 27 ff ff       	callq  a070 <__stack_chk_fail@plt>
   178f4:	48 81 c4 c8 00 00 00 	add    $0xc8,%rsp
   178fb:	5b                   	pop    %rbx
   178fc:	5d                   	pop    %rbp
   178fd:	c3                   	retq   

00000000000178fe <func_78>:
   178fe:	f3 0f 1e fa          	endbr64 
   17902:	55                   	push   %rbp
   17903:	48 89 e5             	mov    %rsp,%rbp
   17906:	48 81 ec 90 00 00 00 	sub    $0x90,%rsp
   1790d:	89 f8                	mov    %edi,%eax
   1790f:	48 89 75 80          	mov    %rsi,-0x80(%rbp)
   17913:	89 55 88             	mov    %edx,-0x78(%rbp)
   17916:	48 89 8d 78 ff ff ff 	mov    %rcx,-0x88(%rbp)
   1791d:	66 89 45 8c          	mov    %ax,-0x74(%rbp)
   17921:	64 48 8b 04 25 28 00 	mov    %fs:0x28,%rax
   17928:	00 00 
   1792a:	48 89 45 f8          	mov    %rax,-0x8(%rbp)
   1792e:	31 c0                	xor    %eax,%eax
   17930:	48 c7 45 98 00 00 00 	movq   $0x0,-0x68(%rbp)
   17937:	00 
   17938:	48 8d 05 fd 56 00 00 	lea    0x56fd(%rip),%rax        # 1d03c <g_99>
   1793f:	48 89 45 a0          	mov    %rax,-0x60(%rbp)
   17943:	48 8d 05 f2 56 00 00 	lea    0x56f2(%rip),%rax        # 1d03c <g_99>
   1794a:	48 89 45 a8          	mov    %rax,-0x58(%rbp)
   1794e:	48 8d 05 db 56 00 00 	lea    0x56db(%rip),%rax        # 1d030 <g_63>
   17955:	48 89 45 b0          	mov    %rax,-0x50(%rbp)
   17959:	48 8d 05 48 ab 00 00 	lea    0xab48(%rip),%rax        # 224a8 <g_35>
   17960:	48 89 45 c0          	mov    %rax,-0x40(%rbp)
   17964:	48 8d 05 3d ab 00 00 	lea    0xab3d(%rip),%rax        # 224a8 <g_35>
   1796b:	48 89 45 c8          	mov    %rax,-0x38(%rbp)
   1796f:	48 8d 05 32 ab 00 00 	lea    0xab32(%rip),%rax        # 224a8 <g_35>
   17976:	48 89 45 d0          	mov    %rax,-0x30(%rbp)
   1797a:	48 8d 05 27 ab 00 00 	lea    0xab27(%rip),%rax        # 224a8 <g_35>
   17981:	48 89 45 d8          	mov    %rax,-0x28(%rbp)
   17985:	48 8d 05 1c ab 00 00 	lea    0xab1c(%rip),%rax        # 224a8 <g_35>
   1798c:	48 89 45 e0          	mov    %rax,-0x20(%rbp)
   17990:	48 8d 05 11 ab 00 00 	lea    0xab11(%rip),%rax        # 224a8 <g_35>
   17997:	48 89 45 e8          	mov    %rax,-0x18(%rbp)
   1799b:	48 8d 05 06 ab 00 00 	lea    0xab06(%rip),%rax        # 224a8 <g_35>
   179a2:	48 89 45 f0          	mov    %rax,-0x10(%rbp)
   179a6:	48 c7 45 b8 00 00 00 	movq   $0x0,-0x48(%rbp)
   179ad:	00 
   179ae:	48 8b 05 6b 5a 00 00 	mov    0x5a6b(%rip),%rax        # 1d420 <g_110+0x3c0>
   179b5:	48 83 e8 01          	sub    $0x1,%rax
   179b9:	48 89 05 60 5a 00 00 	mov    %rax,0x5a60(%rip)        # 1d420 <g_110+0x3c0>
   179c0:	48 8b 45 a8          	mov    -0x58(%rbp),%rax
   179c4:	8b 10                	mov    (%rax),%edx
   179c6:	48 8b 05 73 84 00 00 	mov    0x8473(%rip),%rax        # 1fe40 <g_34>
   179cd:	8b 00                	mov    (%rax),%eax
   179cf:	31 c2                	xor    %eax,%edx
   179d1:	48 8b 45 a8          	mov    -0x58(%rbp),%rax
   179d5:	89 10                	mov    %edx,(%rax)
   179d7:	48 8b 45 b8          	mov    -0x48(%rbp),%rax
   179db:	48 8b 4d f8          	mov    -0x8(%rbp),%rcx
   179df:	64 48 33 0c 25 28 00 	xor    %fs:0x28,%rcx
   179e6:	00 00 
   179e8:	74 05                	je     179ef <func_78+0xf1>
   179ea:	e8 81 26 ff ff       	callq  a070 <__stack_chk_fail@plt>
   179ef:	c9                   	leaveq 
   179f0:	c3                   	retq   

00000000000179f1 <main>:
   179f1:	f3 0f 1e fa          	endbr64 
   179f5:	55                   	push   %rbp
   179f6:	48 89 e5             	mov    %rsp,%rbp
   179f9:	48 83 ec 20          	sub    $0x20,%rsp
   179fd:	89 7d ec             	mov    %edi,-0x14(%rbp)
   17a00:	48 89 75 e0          	mov    %rsi,-0x20(%rbp)
   17a04:	c7 45 fc 00 00 00 00 	movl   $0x0,-0x4(%rbp)
   17a0b:	83 7d ec 02          	cmpl   $0x2,-0x14(%rbp)
   17a0f:	74 25                	je     17a36 <main+0x45>
   17a11:	48 8b 45 e0          	mov    -0x20(%rbp),%rax
   17a15:	48 83 c0 08          	add    $0x8,%rax
   17a19:	48 8b 00             	mov    (%rax),%rax
   17a1c:	48 8d 35 79 26 00 00 	lea    0x2679(%rip),%rsi        # 1a09c <g_2536+0x1018>
   17a23:	48 89 c7             	mov    %rax,%rdi
   17a26:	e8 65 26 ff ff       	callq  a090 <strcmp@plt>
   17a2b:	85 c0                	test   %eax,%eax
   17a2d:	74 07                	je     17a36 <main+0x45>
   17a2f:	c7 45 fc 01 00 00 00 	movl   $0x1,-0x4(%rbp)
   17a36:	e8 4e 27 ff ff       	callq  a189 <platform_main_begin>
   17a3b:	e8 58 3b ff ff       	callq  b598 <crc32_gentab>
   17a40:	e8 70 3d ff ff       	callq  b7b5 <func_1>
   17a45:	0f b6 05 d8 55 00 00 	movzbl 0x55d8(%rip),%eax        # 1d024 <g_6>
   17a4c:	0f b6 c0             	movzbl %al,%eax
   17a4f:	8b 55 fc             	mov    -0x4(%rbp),%edx
   17a52:	48 8d 35 45 26 00 00 	lea    0x2645(%rip),%rsi        # 1a09e <g_2536+0x101a>
   17a59:	48 89 c7             	mov    %rax,%rdi
   17a5c:	e8 92 3c ff ff       	callq  b6f3 <transparent_crc>
   17a61:	8b 05 c1 55 00 00    	mov    0x55c1(%rip),%eax        # 1d028 <g_9>
   17a67:	89 c1                	mov    %eax,%ecx
   17a69:	8b 45 fc             	mov    -0x4(%rbp),%eax
   17a6c:	89 c2                	mov    %eax,%edx
   17a6e:	48 8d 35 2d 26 00 00 	lea    0x262d(%rip),%rsi        # 1a0a2 <g_2536+0x101e>
   17a75:	48 89 cf             	mov    %rcx,%rdi
   17a78:	e8 76 3c ff ff       	callq  b6f3 <transparent_crc>
   17a7d:	8b 05 25 aa 00 00    	mov    0xaa25(%rip),%eax        # 224a8 <g_35>
   17a83:	48 98                	cltq   
   17a85:	8b 55 fc             	mov    -0x4(%rbp),%edx
   17a88:	48 8d 35 1a 26 00 00 	lea    0x261a(%rip),%rsi        # 1a0a9 <g_2536+0x1025>
   17a8f:	48 89 c7             	mov    %rax,%rdi
   17a92:	e8 5c 3c ff ff       	callq  b6f3 <transparent_crc>
   17a97:	0f b7 05 8e 55 00 00 	movzwl 0x558e(%rip),%eax        # 1d02c <g_50>
   17a9e:	48 0f bf c0          	movswq %ax,%rax
   17aa2:	8b 55 fc             	mov    -0x4(%rbp),%edx
   17aa5:	48 8d 35 02 26 00 00 	lea    0x2602(%rip),%rsi        # 1a0ae <g_2536+0x102a>
   17aac:	48 89 c7             	mov    %rax,%rdi
   17aaf:	e8 3f 3c ff ff       	callq  b6f3 <transparent_crc>
   17ab4:	0f b7 05 73 55 00 00 	movzwl 0x5573(%rip),%eax        # 1d02e <g_57>
   17abb:	48 0f bf c0          	movswq %ax,%rax
   17abf:	8b 55 fc             	mov    -0x4(%rbp),%edx
   17ac2:	48 8d 35 ea 25 00 00 	lea    0x25ea(%rip),%rsi        # 1a0b3 <g_2536+0x102f>
   17ac9:	48 89 c7             	mov    %rax,%rdi
   17acc:	e8 22 3c ff ff       	callq  b6f3 <transparent_crc>
   17ad1:	8b 05 59 55 00 00    	mov    0x5559(%rip),%eax        # 1d030 <g_63>
   17ad7:	48 98                	cltq   
   17ad9:	8b 55 fc             	mov    -0x4(%rbp),%edx
   17adc:	48 8d 35 d5 25 00 00 	lea    0x25d5(%rip),%rsi        # 1a0b8 <g_2536+0x1034>
   17ae3:	48 89 c7             	mov    %rax,%rdi
   17ae6:	e8 08 3c ff ff       	callq  b6f3 <transparent_crc>
   17aeb:	8b 05 43 55 00 00    	mov    0x5543(%rip),%eax        # 1d034 <g_85>
   17af1:	89 c1                	mov    %eax,%ecx
   17af3:	8b 45 fc             	mov    -0x4(%rbp),%eax
   17af6:	89 c2                	mov    %eax,%edx
   17af8:	48 8d 35 be 25 00 00 	lea    0x25be(%rip),%rsi        # 1a0bd <g_2536+0x1039>
   17aff:	48 89 cf             	mov    %rcx,%rdi
   17b02:	e8 ec 3b ff ff       	callq  b6f3 <transparent_crc>
   17b07:	0f b6 05 2a 55 00 00 	movzbl 0x552a(%rip),%eax        # 1d038 <g_97>
   17b0e:	0f b6 c0             	movzbl %al,%eax
   17b11:	8b 55 fc             	mov    -0x4(%rbp),%edx
   17b14:	48 8d 35 aa 25 00 00 	lea    0x25aa(%rip),%rsi        # 1a0c5 <g_2536+0x1041>
   17b1b:	48 89 c7             	mov    %rax,%rdi
   17b1e:	e8 d0 3b ff ff       	callq  b6f3 <transparent_crc>
   17b23:	8b 05 13 55 00 00    	mov    0x5513(%rip),%eax        # 1d03c <g_99>
   17b29:	48 98                	cltq   
   17b2b:	8b 55 fc             	mov    -0x4(%rbp),%edx
   17b2e:	48 8d 35 95 25 00 00 	lea    0x2595(%rip),%rsi        # 1a0ca <g_2536+0x1046>
   17b35:	48 89 c7             	mov    %rax,%rdi
   17b38:	e8 b6 3b ff ff       	callq  b6f3 <transparent_crc>
   17b3d:	0f b6 05 fc 54 00 00 	movzbl 0x54fc(%rip),%eax        # 1d040 <g_102>
   17b44:	0f b6 c0             	movzbl %al,%eax
   17b47:	8b 55 fc             	mov    -0x4(%rbp),%edx
   17b4a:	48 8d 35 7e 25 00 00 	lea    0x257e(%rip),%rsi        # 1a0cf <g_2536+0x104b>
   17b51:	48 89 c7             	mov    %rax,%rdi
   17b54:	e8 9a 3b ff ff       	callq  b6f3 <transparent_crc>
   17b59:	0f b7 05 4c a9 00 00 	movzwl 0xa94c(%rip),%eax        # 224ac <g_104>
   17b60:	0f b7 c0             	movzwl %ax,%eax
   17b63:	8b 55 fc             	mov    -0x4(%rbp),%edx
   17b66:	48 8d 35 68 25 00 00 	lea    0x2568(%rip),%rsi        # 1a0d5 <g_2536+0x1051>
   17b6d:	48 89 c7             	mov    %rax,%rdi
   17b70:	e8 7e 3b ff ff       	callq  b6f3 <transparent_crc>
   17b75:	c7 45 f0 00 00 00 00 	movl   $0x0,-0x10(%rbp)
   17b7c:	e9 a3 00 00 00       	jmpq   17c24 <main+0x233>
   17b81:	c7 45 f4 00 00 00 00 	movl   $0x0,-0xc(%rbp)
   17b88:	e9 89 00 00 00       	jmpq   17c16 <main+0x225>
   17b8d:	c7 45 f8 00 00 00 00 	movl   $0x0,-0x8(%rbp)
   17b94:	eb 76                	jmp    17c0c <main+0x21b>
   17b96:	8b 45 f8             	mov    -0x8(%rbp),%eax
   17b99:	48 63 f0             	movslq %eax,%rsi
   17b9c:	8b 45 f0             	mov    -0x10(%rbp),%eax
   17b9f:	48 98                	cltq   
   17ba1:	8b 55 f4             	mov    -0xc(%rbp),%edx
   17ba4:	48 63 ca             	movslq %edx,%rcx
   17ba7:	48 89 c2             	mov    %rax,%rdx
   17baa:	48 c1 e2 06          	shl    $0x6,%rdx
   17bae:	48 29 c2             	sub    %rax,%rdx
   17bb1:	48 89 c8             	mov    %rcx,%rax
   17bb4:	48 c1 e0 03          	shl    $0x3,%rax
   17bb8:	48 29 c8             	sub    %rcx,%rax
   17bbb:	48 01 d0             	add    %rdx,%rax
   17bbe:	48 01 f0             	add    %rsi,%rax
   17bc1:	48 8d 14 c5 00 00 00 	lea    0x0(,%rax,8),%rdx
   17bc8:	00 
   17bc9:	48 8d 05 90 54 00 00 	lea    0x5490(%rip),%rax        # 1d060 <g_110>
   17bd0:	48 8b 04 02          	mov    (%rdx,%rax,1),%rax
   17bd4:	8b 55 fc             	mov    -0x4(%rbp),%edx
   17bd7:	48 8d 35 fd 24 00 00 	lea    0x24fd(%rip),%rsi        # 1a0db <g_2536+0x1057>
   17bde:	48 89 c7             	mov    %rax,%rdi
   17be1:	e8 0d 3b ff ff       	callq  b6f3 <transparent_crc>
   17be6:	83 7d fc 00          	cmpl   $0x0,-0x4(%rbp)
   17bea:	74 1c                	je     17c08 <main+0x217>
   17bec:	8b 4d f8             	mov    -0x8(%rbp),%ecx
   17bef:	8b 55 f4             	mov    -0xc(%rbp),%edx
   17bf2:	8b 45 f0             	mov    -0x10(%rbp),%eax
   17bf5:	89 c6                	mov    %eax,%esi
   17bf7:	48 8d 3d ec 24 00 00 	lea    0x24ec(%rip),%rdi        # 1a0ea <g_2536+0x1066>
   17bfe:	b8 00 00 00 00       	mov    $0x0,%eax
   17c03:	e8 78 24 ff ff       	callq  a080 <printf@plt>
   17c08:	83 45 f8 01          	addl   $0x1,-0x8(%rbp)
   17c0c:	83 7d f8 06          	cmpl   $0x6,-0x8(%rbp)
   17c10:	7e 84                	jle    17b96 <main+0x1a5>
   17c12:	83 45 f4 01          	addl   $0x1,-0xc(%rbp)
   17c16:	83 7d f4 08          	cmpl   $0x8,-0xc(%rbp)
   17c1a:	0f 8e 6d ff ff ff    	jle    17b8d <main+0x19c>
   17c20:	83 45 f0 01          	addl   $0x1,-0x10(%rbp)
   17c24:	83 7d f0 03          	cmpl   $0x3,-0x10(%rbp)
   17c28:	0f 8e 53 ff ff ff    	jle    17b81 <main+0x190>
   17c2e:	c7 45 f0 00 00 00 00 	movl   $0x0,-0x10(%rbp)
   17c35:	eb 6f                	jmp    17ca6 <main+0x2b5>
   17c37:	c7 45 f4 00 00 00 00 	movl   $0x0,-0xc(%rbp)
   17c3e:	eb 5c                	jmp    17c9c <main+0x2ab>
   17c40:	8b 45 f4             	mov    -0xc(%rbp),%eax
   17c43:	48 98                	cltq   
   17c45:	8b 55 f0             	mov    -0x10(%rbp),%edx
   17c48:	48 63 d2             	movslq %edx,%rdx
   17c4b:	48 01 d2             	add    %rdx,%rdx
   17c4e:	48 01 d0             	add    %rdx,%rax
   17c51:	48 8d 14 85 00 00 00 	lea    0x0(,%rax,4),%rdx
   17c58:	00 
   17c59:	48 8d 05 e0 5b 00 00 	lea    0x5be0(%rip),%rax        # 1d840 <g_115>
   17c60:	8b 04 02             	mov    (%rdx,%rax,1),%eax
   17c63:	89 c1                	mov    %eax,%ecx
   17c65:	8b 45 fc             	mov    -0x4(%rbp),%eax
   17c68:	89 c2                	mov    %eax,%edx
   17c6a:	48 8d 35 8f 24 00 00 	lea    0x248f(%rip),%rsi        # 1a100 <g_2536+0x107c>
   17c71:	48 89 cf             	mov    %rcx,%rdi
   17c74:	e8 7a 3a ff ff       	callq  b6f3 <transparent_crc>
   17c79:	83 7d fc 00          	cmpl   $0x0,-0x4(%rbp)
   17c7d:	74 19                	je     17c98 <main+0x2a7>
   17c7f:	8b 55 f4             	mov    -0xc(%rbp),%edx
   17c82:	8b 45 f0             	mov    -0x10(%rbp),%eax
   17c85:	89 c6                	mov    %eax,%esi
   17c87:	48 8d 3d 7e 24 00 00 	lea    0x247e(%rip),%rdi        # 1a10c <g_2536+0x1088>
   17c8e:	b8 00 00 00 00       	mov    $0x0,%eax
   17c93:	e8 e8 23 ff ff       	callq  a080 <printf@plt>
   17c98:	83 45 f4 01          	addl   $0x1,-0xc(%rbp)
   17c9c:	83 7d f4 01          	cmpl   $0x1,-0xc(%rbp)
   17ca0:	7e 9e                	jle    17c40 <main+0x24f>
   17ca2:	83 45 f0 01          	addl   $0x1,-0x10(%rbp)
   17ca6:	83 7d f0 06          	cmpl   $0x6,-0x10(%rbp)
   17caa:	7e 8b                	jle    17c37 <main+0x246>
   17cac:	c7 45 f0 00 00 00 00 	movl   $0x0,-0x10(%rbp)
   17cb3:	e9 9c 00 00 00       	jmpq   17d54 <main+0x363>
   17cb8:	c7 45 f4 00 00 00 00 	movl   $0x0,-0xc(%rbp)
   17cbf:	e9 82 00 00 00       	jmpq   17d46 <main+0x355>
   17cc4:	c7 45 f8 00 00 00 00 	movl   $0x0,-0x8(%rbp)
   17ccb:	eb 6f                	jmp    17d3c <main+0x34b>
   17ccd:	8b 45 f8             	mov    -0x8(%rbp),%eax
   17cd0:	48 63 f0             	movslq %eax,%rsi
   17cd3:	8b 45 f4             	mov    -0xc(%rbp),%eax
   17cd6:	48 63 c8             	movslq %eax,%rcx
   17cd9:	8b 45 f0             	mov    -0x10(%rbp),%eax
   17cdc:	48 63 d0             	movslq %eax,%rdx
   17cdf:	48 89 d0             	mov    %rdx,%rax
   17ce2:	48 01 c0             	add    %rax,%rax
   17ce5:	48 01 d0             	add    %rdx,%rax
   17ce8:	48 01 f0             	add    %rsi,%rax
   17ceb:	48 01 c8             	add    %rcx,%rax
   17cee:	48 8d 14 85 00 00 00 	lea    0x0(,%rax,4),%rdx
   17cf5:	00 
   17cf6:	48 8d 05 83 5b 00 00 	lea    0x5b83(%rip),%rax        # 1d880 <g_117>
   17cfd:	8b 04 02             	mov    (%rdx,%rax,1),%eax
   17d00:	89 c1                	mov    %eax,%ecx
   17d02:	8b 45 fc             	mov    -0x4(%rbp),%eax
   17d05:	89 c2                	mov    %eax,%edx
   17d07:	48 8d 35 10 24 00 00 	lea    0x2410(%rip),%rsi        # 1a11e <g_2536+0x109a>
   17d0e:	48 89 cf             	mov    %rcx,%rdi
   17d11:	e8 dd 39 ff ff       	callq  b6f3 <transparent_crc>
   17d16:	83 7d fc 00          	cmpl   $0x0,-0x4(%rbp)
   17d1a:	74 1c                	je     17d38 <main+0x347>
   17d1c:	8b 4d f8             	mov    -0x8(%rbp),%ecx
   17d1f:	8b 55 f4             	mov    -0xc(%rbp),%edx
   17d22:	8b 45 f0             	mov    -0x10(%rbp),%eax
   17d25:	89 c6                	mov    %eax,%esi
   17d27:	48 8d 3d bc 23 00 00 	lea    0x23bc(%rip),%rdi        # 1a0ea <g_2536+0x1066>
   17d2e:	b8 00 00 00 00       	mov    $0x0,%eax
   17d33:	e8 48 23 ff ff       	callq  a080 <printf@plt>
   17d38:	83 45 f8 01          	addl   $0x1,-0x8(%rbp)
   17d3c:	83 7d f8 00          	cmpl   $0x0,-0x8(%rbp)
   17d40:	7e 8b                	jle    17ccd <main+0x2dc>
   17d42:	83 45 f4 01          	addl   $0x1,-0xc(%rbp)
   17d46:	83 7d f4 02          	cmpl   $0x2,-0xc(%rbp)
   17d4a:	0f 8e 74 ff ff ff    	jle    17cc4 <main+0x2d3>
   17d50:	83 45 f0 01          	addl   $0x1,-0x10(%rbp)
   17d54:	83 7d f0 09          	cmpl   $0x9,-0x10(%rbp)
   17d58:	0f 8e 5a ff ff ff    	jle    17cb8 <main+0x2c7>
   17d5e:	0f b6 05 93 5b 00 00 	movzbl 0x5b93(%rip),%eax        # 1d8f8 <g_153>
   17d65:	48 0f be c0          	movsbq %al,%rax
   17d69:	8b 55 fc             	mov    -0x4(%rbp),%edx
   17d6c:	48 8d 35 ba 23 00 00 	lea    0x23ba(%rip),%rsi        # 1a12d <g_2536+0x10a9>
   17d73:	48 89 c7             	mov    %rax,%rdi
   17d76:	e8 78 39 ff ff       	callq  b6f3 <transparent_crc>
   17d7b:	0f b6 05 77 5b 00 00 	movzbl 0x5b77(%rip),%eax        # 1d8f9 <g_157>
   17d82:	48 0f be c0          	movsbq %al,%rax
   17d86:	8b 55 fc             	mov    -0x4(%rbp),%edx
   17d89:	48 8d 35 a3 23 00 00 	lea    0x23a3(%rip),%rsi        # 1a133 <g_2536+0x10af>
   17d90:	48 89 c7             	mov    %rax,%rdi
   17d93:	e8 5b 39 ff ff       	callq  b6f3 <transparent_crc>
   17d98:	0f b7 05 5b 5b 00 00 	movzwl 0x5b5b(%rip),%eax        # 1d8fa <g_159>
   17d9f:	48 0f bf c0          	movswq %ax,%rax
   17da3:	8b 55 fc             	mov    -0x4(%rbp),%edx
   17da6:	48 8d 35 8c 23 00 00 	lea    0x238c(%rip),%rsi        # 1a139 <g_2536+0x10b5>
   17dad:	48 89 c7             	mov    %rax,%rdi
   17db0:	e8 3e 39 ff ff       	callq  b6f3 <transparent_crc>
   17db5:	48 8b 05 f4 a6 00 00 	mov    0xa6f4(%rip),%rax        # 224b0 <g_239>
   17dbc:	8b 55 fc             	mov    -0x4(%rbp),%edx
   17dbf:	48 8d 35 79 23 00 00 	lea    0x2379(%rip),%rsi        # 1a13f <g_2536+0x10bb>
   17dc6:	48 89 c7             	mov    %rax,%rdi
   17dc9:	e8 25 39 ff ff       	callq  b6f3 <transparent_crc>
   17dce:	8b 05 28 5b 00 00    	mov    0x5b28(%rip),%eax        # 1d8fc <g_254>
   17dd4:	89 c1                	mov    %eax,%ecx
   17dd6:	8b 45 fc             	mov    -0x4(%rbp),%eax
   17dd9:	89 c2                	mov    %eax,%edx
   17ddb:	48 8d 35 63 23 00 00 	lea    0x2363(%rip),%rsi        # 1a145 <g_2536+0x10c1>
   17de2:	48 89 cf             	mov    %rcx,%rdi
   17de5:	e8 09 39 ff ff       	callq  b6f3 <transparent_crc>
   17dea:	8b 05 10 5b 00 00    	mov    0x5b10(%rip),%eax        # 1d900 <g_267>
   17df0:	48 98                	cltq   
   17df2:	8b 55 fc             	mov    -0x4(%rbp),%edx
   17df5:	48 8d 35 52 23 00 00 	lea    0x2352(%rip),%rsi        # 1a14e <g_2536+0x10ca>
   17dfc:	48 89 c7             	mov    %rax,%rdi
   17dff:	e8 ef 38 ff ff       	callq  b6f3 <transparent_crc>
   17e04:	0f b6 05 f9 5a 00 00 	movzbl 0x5af9(%rip),%eax        # 1d904 <g_268>
   17e0b:	48 0f be c0          	movsbq %al,%rax
   17e0f:	8b 55 fc             	mov    -0x4(%rbp),%edx
   17e12:	48 8d 35 3b 23 00 00 	lea    0x233b(%rip),%rsi        # 1a154 <g_2536+0x10d0>
   17e19:	48 89 c7             	mov    %rax,%rdi
   17e1c:	e8 d2 38 ff ff       	callq  b6f3 <transparent_crc>
   17e21:	c7 45 f0 00 00 00 00 	movl   $0x0,-0x10(%rbp)
   17e28:	eb 4d                	jmp    17e77 <main+0x486>
   17e2a:	8b 45 f0             	mov    -0x10(%rbp),%eax
   17e2d:	48 98                	cltq   
   17e2f:	48 8d 14 85 00 00 00 	lea    0x0(,%rax,4),%rdx
   17e36:	00 
   17e37:	48 8d 05 82 a6 00 00 	lea    0xa682(%rip),%rax        # 224c0 <g_269>
   17e3e:	8b 04 02             	mov    (%rdx,%rax,1),%eax
   17e41:	89 c1                	mov    %eax,%ecx
   17e43:	8b 45 fc             	mov    -0x4(%rbp),%eax
   17e46:	89 c2                	mov    %eax,%edx
   17e48:	48 8d 35 0b 23 00 00 	lea    0x230b(%rip),%rsi        # 1a15a <g_2536+0x10d6>
   17e4f:	48 89 cf             	mov    %rcx,%rdi
   17e52:	e8 9c 38 ff ff       	callq  b6f3 <transparent_crc>
   17e57:	83 7d fc 00          	cmpl   $0x0,-0x4(%rbp)
   17e5b:	74 16                	je     17e73 <main+0x482>
   17e5d:	8b 45 f0             	mov    -0x10(%rbp),%eax
   17e60:	89 c6                	mov    %eax,%esi
   17e62:	48 8d 3d fa 22 00 00 	lea    0x22fa(%rip),%rdi        # 1a163 <g_2536+0x10df>
   17e69:	b8 00 00 00 00       	mov    $0x0,%eax
   17e6e:	e8 0d 22 ff ff       	callq  a080 <printf@plt>
   17e73:	83 45 f0 01          	addl   $0x1,-0x10(%rbp)
   17e77:	83 7d f0 08          	cmpl   $0x8,-0x10(%rbp)
   17e7b:	7e ad                	jle    17e2a <main+0x439>
   17e7d:	48 8b 05 84 5a 00 00 	mov    0x5a84(%rip),%rax        # 1d908 <g_272>
   17e84:	8b 55 fc             	mov    -0x4(%rbp),%edx
   17e87:	48 8d 35 e3 22 00 00 	lea    0x22e3(%rip),%rsi        # 1a171 <g_2536+0x10ed>
   17e8e:	48 89 c7             	mov    %rax,%rdi
   17e91:	e8 5d 38 ff ff       	callq  b6f3 <transparent_crc>
   17e96:	0f b6 05 73 5a 00 00 	movzbl 0x5a73(%rip),%eax        # 1d910 <g_307>
   17e9d:	0f b6 c0             	movzbl %al,%eax
   17ea0:	8b 55 fc             	mov    -0x4(%rbp),%edx
   17ea3:	48 8d 35 cd 22 00 00 	lea    0x22cd(%rip),%rsi        # 1a177 <g_2536+0x10f3>
   17eaa:	48 89 c7             	mov    %rax,%rdi
   17ead:	e8 41 38 ff ff       	callq  b6f3 <transparent_crc>
   17eb2:	0f b6 05 58 5a 00 00 	movzbl 0x5a58(%rip),%eax        # 1d911 <g_322>
   17eb9:	0f b6 c0             	movzbl %al,%eax
   17ebc:	8b 55 fc             	mov    -0x4(%rbp),%edx
   17ebf:	48 8d 35 b7 22 00 00 	lea    0x22b7(%rip),%rsi        # 1a17d <g_2536+0x10f9>
   17ec6:	48 89 c7             	mov    %rax,%rdi
   17ec9:	e8 25 38 ff ff       	callq  b6f3 <transparent_crc>
   17ece:	c7 45 f0 00 00 00 00 	movl   $0x0,-0x10(%rbp)
   17ed5:	e9 a1 00 00 00       	jmpq   17f7b <main+0x58a>
   17eda:	c7 45 f4 00 00 00 00 	movl   $0x0,-0xc(%rbp)
   17ee1:	e9 87 00 00 00       	jmpq   17f6d <main+0x57c>
   17ee6:	c7 45 f8 00 00 00 00 	movl   $0x0,-0x8(%rbp)
   17eed:	eb 74                	jmp    17f63 <main+0x572>
   17eef:	8b 45 f8             	mov    -0x8(%rbp),%eax
   17ef2:	48 63 c8             	movslq %eax,%rcx
   17ef5:	8b 45 f0             	mov    -0x10(%rbp),%eax
   17ef8:	48 63 d0             	movslq %eax,%rdx
   17efb:	8b 45 f4             	mov    -0xc(%rbp),%eax
   17efe:	48 63 f0             	movslq %eax,%rsi
   17f01:	48 89 d0             	mov    %rdx,%rax
   17f04:	48 01 c0             	add    %rax,%rax
   17f07:	48 01 d0             	add    %rdx,%rax
   17f0a:	48 01 f0             	add    %rsi,%rax
   17f0d:	48 01 c0             	add    %rax,%rax
   17f10:	48 01 c8             	add    %rcx,%rax
   17f13:	48 8d 14 c5 00 00 00 	lea    0x0(,%rax,8),%rdx
   17f1a:	00 
   17f1b:	48 8d 05 fe 59 00 00 	lea    0x59fe(%rip),%rax        # 1d920 <g_350>
   17f22:	48 8b 04 02          	mov    (%rdx,%rax,1),%rax
   17f26:	48 89 c1             	mov    %rax,%rcx
   17f29:	8b 45 fc             	mov    -0x4(%rbp),%eax
   17f2c:	89 c2                	mov    %eax,%edx
   17f2e:	48 8d 35 4e 22 00 00 	lea    0x224e(%rip),%rsi        # 1a183 <g_2536+0x10ff>
   17f35:	48 89 cf             	mov    %rcx,%rdi
   17f38:	e8 b6 37 ff ff       	callq  b6f3 <transparent_crc>
   17f3d:	83 7d fc 00          	cmpl   $0x0,-0x4(%rbp)
   17f41:	74 1c                	je     17f5f <main+0x56e>
   17f43:	8b 4d f8             	mov    -0x8(%rbp),%ecx
   17f46:	8b 55 f4             	mov    -0xc(%rbp),%edx
   17f49:	8b 45 f0             	mov    -0x10(%rbp),%eax
   17f4c:	89 c6                	mov    %eax,%esi
   17f4e:	48 8d 3d 95 21 00 00 	lea    0x2195(%rip),%rdi        # 1a0ea <g_2536+0x1066>
   17f55:	b8 00 00 00 00       	mov    $0x0,%eax
   17f5a:	e8 21 21 ff ff       	callq  a080 <printf@plt>
   17f5f:	83 45 f8 01          	addl   $0x1,-0x8(%rbp)
   17f63:	83 7d f8 01          	cmpl   $0x1,-0x8(%rbp)
   17f67:	7e 86                	jle    17eef <main+0x4fe>
   17f69:	83 45 f4 01          	addl   $0x1,-0xc(%rbp)
   17f6d:	83 7d f4 02          	cmpl   $0x2,-0xc(%rbp)
   17f71:	0f 8e 6f ff ff ff    	jle    17ee6 <main+0x4f5>
   17f77:	83 45 f0 01          	addl   $0x1,-0x10(%rbp)
   17f7b:	83 7d f0 01          	cmpl   $0x1,-0x10(%rbp)
   17f7f:	0f 8e 55 ff ff ff    	jle    17eda <main+0x4e9>
   17f85:	8b 05 f5 59 00 00    	mov    0x59f5(%rip),%eax        # 1d980 <g_379>
   17f8b:	48 98                	cltq   
   17f8d:	8b 55 fc             	mov    -0x4(%rbp),%edx
   17f90:	48 8d 35 fb 21 00 00 	lea    0x21fb(%rip),%rsi        # 1a192 <g_2536+0x110e>
   17f97:	48 89 c7             	mov    %rax,%rdi
   17f9a:	e8 54 37 ff ff       	callq  b6f3 <transparent_crc>
   17f9f:	8b 05 df 59 00 00    	mov    0x59df(%rip),%eax        # 1d984 <g_388>
   17fa5:	89 c1                	mov    %eax,%ecx
   17fa7:	8b 45 fc             	mov    -0x4(%rbp),%eax
   17faa:	89 c2                	mov    %eax,%edx
   17fac:	48 8d 35 e5 21 00 00 	lea    0x21e5(%rip),%rsi        # 1a198 <g_2536+0x1114>
   17fb3:	48 89 cf             	mov    %rcx,%rdi
   17fb6:	e8 38 37 ff ff       	callq  b6f3 <transparent_crc>
   17fbb:	8b 05 c7 59 00 00    	mov    0x59c7(%rip),%eax        # 1d988 <g_391>
   17fc1:	89 c1                	mov    %eax,%ecx
   17fc3:	8b 45 fc             	mov    -0x4(%rbp),%eax
   17fc6:	89 c2                	mov    %eax,%edx
   17fc8:	48 8d 35 d2 21 00 00 	lea    0x21d2(%rip),%rsi        # 1a1a1 <g_2536+0x111d>
   17fcf:	48 89 cf             	mov    %rcx,%rdi
   17fd2:	e8 1c 37 ff ff       	callq  b6f3 <transparent_crc>
   17fd7:	48 8b 05 b2 59 00 00 	mov    0x59b2(%rip),%rax        # 1d990 <g_408>
   17fde:	48 89 c1             	mov    %rax,%rcx
   17fe1:	8b 45 fc             	mov    -0x4(%rbp),%eax
   17fe4:	89 c2                	mov    %eax,%edx
   17fe6:	48 8d 35 bd 21 00 00 	lea    0x21bd(%rip),%rsi        # 1a1aa <g_2536+0x1126>
   17fed:	48 89 cf             	mov    %rcx,%rdi
   17ff0:	e8 fe 36 ff ff       	callq  b6f3 <transparent_crc>
   17ff5:	0f b7 05 9c 59 00 00 	movzwl 0x599c(%rip),%eax        # 1d998 <g_410>
   17ffc:	48 0f bf c0          	movswq %ax,%rax
   18000:	8b 55 fc             	mov    -0x4(%rbp),%edx
   18003:	48 8d 35 a6 21 00 00 	lea    0x21a6(%rip),%rsi        # 1a1b0 <g_2536+0x112c>
   1800a:	48 89 c7             	mov    %rax,%rdi
   1800d:	e8 e1 36 ff ff       	callq  b6f3 <transparent_crc>
   18012:	0f b7 05 81 59 00 00 	movzwl 0x5981(%rip),%eax        # 1d99a <g_412>
   18019:	0f b7 c0             	movzwl %ax,%eax
   1801c:	8b 55 fc             	mov    -0x4(%rbp),%edx
   1801f:	48 8d 35 90 21 00 00 	lea    0x2190(%rip),%rsi        # 1a1b6 <g_2536+0x1132>
   18026:	48 89 c7             	mov    %rax,%rdi
   18029:	e8 c5 36 ff ff       	callq  b6f3 <transparent_crc>
   1802e:	b8 43 00 00 00       	mov    $0x43,%eax
   18033:	0f b6 c0             	movzbl %al,%eax
   18036:	8b 55 fc             	mov    -0x4(%rbp),%edx
   18039:	48 8d 35 7c 21 00 00 	lea    0x217c(%rip),%rsi        # 1a1bc <g_2536+0x1138>
   18040:	48 89 c7             	mov    %rax,%rdi
   18043:	e8 ab 36 ff ff       	callq  b6f3 <transparent_crc>
   18048:	b8 fe ff ff ff       	mov    $0xfffffffe,%eax
   1804d:	0f b6 c0             	movzbl %al,%eax
   18050:	8b 55 fc             	mov    -0x4(%rbp),%edx
   18053:	48 8d 35 68 21 00 00 	lea    0x2168(%rip),%rsi        # 1a1c2 <g_2536+0x113e>
   1805a:	48 89 c7             	mov    %rax,%rdi
   1805d:	e8 91 36 ff ff       	callq  b6f3 <transparent_crc>
   18062:	0f b6 05 33 59 00 00 	movzbl 0x5933(%rip),%eax        # 1d99c <g_453>
   18069:	0f b6 c0             	movzbl %al,%eax
   1806c:	8b 55 fc             	mov    -0x4(%rbp),%edx
   1806f:	48 8d 35 52 21 00 00 	lea    0x2152(%rip),%rsi        # 1a1c8 <g_2536+0x1144>
   18076:	48 89 c7             	mov    %rax,%rdi
   18079:	e8 75 36 ff ff       	callq  b6f3 <transparent_crc>
   1807e:	8b 05 1c 59 00 00    	mov    0x591c(%rip),%eax        # 1d9a0 <g_467>
   18084:	89 c1                	mov    %eax,%ecx
   18086:	8b 45 fc             	mov    -0x4(%rbp),%eax
   18089:	89 c2                	mov    %eax,%edx
   1808b:	48 8d 35 3c 21 00 00 	lea    0x213c(%rip),%rsi        # 1a1ce <g_2536+0x114a>
   18092:	48 89 cf             	mov    %rcx,%rdi
   18095:	e8 59 36 ff ff       	callq  b6f3 <transparent_crc>
   1809a:	0f b7 05 03 59 00 00 	movzwl 0x5903(%rip),%eax        # 1d9a4 <g_481>
   180a1:	0f b7 c0             	movzwl %ax,%eax
   180a4:	8b 55 fc             	mov    -0x4(%rbp),%edx
   180a7:	48 8d 35 29 21 00 00 	lea    0x2129(%rip),%rsi        # 1a1d7 <g_2536+0x1153>
   180ae:	48 89 c7             	mov    %rax,%rdi
   180b1:	e8 3d 36 ff ff       	callq  b6f3 <transparent_crc>
   180b6:	0f b6 05 e9 58 00 00 	movzbl 0x58e9(%rip),%eax        # 1d9a6 <g_503>
   180bd:	0f b6 c0             	movzbl %al,%eax
   180c0:	8b 55 fc             	mov    -0x4(%rbp),%edx
   180c3:	48 8d 35 13 21 00 00 	lea    0x2113(%rip),%rsi        # 1a1dd <g_2536+0x1159>
   180ca:	48 89 c7             	mov    %rax,%rdi
   180cd:	e8 21 36 ff ff       	callq  b6f3 <transparent_crc>
   180d2:	c7 45 f0 00 00 00 00 	movl   $0x0,-0x10(%rbp)
   180d9:	e9 93 00 00 00       	jmpq   18171 <main+0x780>
   180de:	c7 45 f4 00 00 00 00 	movl   $0x0,-0xc(%rbp)
   180e5:	eb 7c                	jmp    18163 <main+0x772>
   180e7:	c7 45 f8 00 00 00 00 	movl   $0x0,-0x8(%rbp)
   180ee:	eb 69                	jmp    18159 <main+0x768>
   180f0:	8b 45 f8             	mov    -0x8(%rbp),%eax
   180f3:	48 98                	cltq   
   180f5:	8b 55 f0             	mov    -0x10(%rbp),%edx
   180f8:	48 63 ca             	movslq %edx,%rcx
   180fb:	8b 55 f4             	mov    -0xc(%rbp),%edx
   180fe:	48 63 d2             	movslq %edx,%rdx
   18101:	48 01 ca             	add    %rcx,%rdx
   18104:	48 c1 e2 02          	shl    $0x2,%rdx
   18108:	48 01 d0             	add    %rdx,%rax
   1810b:	48 8d 14 85 00 00 00 	lea    0x0(,%rax,4),%rdx
   18112:	00 
   18113:	48 8d 05 a6 58 00 00 	lea    0x58a6(%rip),%rax        # 1d9c0 <g_518>
   1811a:	8b 04 02             	mov    (%rdx,%rax,1),%eax
   1811d:	89 c1                	mov    %eax,%ecx
   1811f:	8b 45 fc             	mov    -0x4(%rbp),%eax
   18122:	89 c2                	mov    %eax,%edx
   18124:	48 8d 35 b8 20 00 00 	lea    0x20b8(%rip),%rsi        # 1a1e3 <g_2536+0x115f>
   1812b:	48 89 cf             	mov    %rcx,%rdi
   1812e:	e8 c0 35 ff ff       	callq  b6f3 <transparent_crc>
   18133:	83 7d fc 00          	cmpl   $0x0,-0x4(%rbp)
   18137:	74 1c                	je     18155 <main+0x764>
   18139:	8b 4d f8             	mov    -0x8(%rbp),%ecx
   1813c:	8b 55 f4             	mov    -0xc(%rbp),%edx
   1813f:	8b 45 f0             	mov    -0x10(%rbp),%eax
   18142:	89 c6                	mov    %eax,%esi
   18144:	48 8d 3d 9f 1f 00 00 	lea    0x1f9f(%rip),%rdi        # 1a0ea <g_2536+0x1066>
   1814b:	b8 00 00 00 00       	mov    $0x0,%eax
   18150:	e8 2b 1f ff ff       	callq  a080 <printf@plt>
   18155:	83 45 f8 01          	addl   $0x1,-0x8(%rbp)
   18159:	83 7d f8 03          	cmpl   $0x3,-0x8(%rbp)
   1815d:	7e 91                	jle    180f0 <main+0x6ff>
   1815f:	83 45 f4 01          	addl   $0x1,-0xc(%rbp)
   18163:	83 7d f4 00          	cmpl   $0x0,-0xc(%rbp)
   18167:	0f 8e 7a ff ff ff    	jle    180e7 <main+0x6f6>
   1816d:	83 45 f0 01          	addl   $0x1,-0x10(%rbp)
   18171:	83 7d f0 07          	cmpl   $0x7,-0x10(%rbp)
   18175:	0f 8e 63 ff ff ff    	jle    180de <main+0x6ed>
   1817b:	8b 05 bf 58 00 00    	mov    0x58bf(%rip),%eax        # 1da40 <g_545>
   18181:	48 98                	cltq   
   18183:	8b 55 fc             	mov    -0x4(%rbp),%edx
   18186:	48 8d 35 68 20 00 00 	lea    0x2068(%rip),%rsi        # 1a1f5 <g_2536+0x1171>
   1818d:	48 89 c7             	mov    %rax,%rdi
   18190:	e8 5e 35 ff ff       	callq  b6f3 <transparent_crc>
   18195:	c7 45 f0 00 00 00 00 	movl   $0x0,-0x10(%rbp)
   1819c:	eb 45                	jmp    181e3 <main+0x7f2>
   1819e:	8b 45 f0             	mov    -0x10(%rbp),%eax
   181a1:	48 98                	cltq   
   181a3:	48 8d 15 9a 58 00 00 	lea    0x589a(%rip),%rdx        # 1da44 <g_546>
   181aa:	0f b6 04 10          	movzbl (%rax,%rdx,1),%eax
   181ae:	0f b6 c0             	movzbl %al,%eax
   181b1:	8b 55 fc             	mov    -0x4(%rbp),%edx
   181b4:	48 8d 35 40 20 00 00 	lea    0x2040(%rip),%rsi        # 1a1fb <g_2536+0x1177>
   181bb:	48 89 c7             	mov    %rax,%rdi
   181be:	e8 30 35 ff ff       	callq  b6f3 <transparent_crc>
   181c3:	83 7d fc 00          	cmpl   $0x0,-0x4(%rbp)
   181c7:	74 16                	je     181df <main+0x7ee>
   181c9:	8b 45 f0             	mov    -0x10(%rbp),%eax
   181cc:	89 c6                	mov    %eax,%esi
   181ce:	48 8d 3d 8e 1f 00 00 	lea    0x1f8e(%rip),%rdi        # 1a163 <g_2536+0x10df>
   181d5:	b8 00 00 00 00       	mov    $0x0,%eax
   181da:	e8 a1 1e ff ff       	callq  a080 <printf@plt>
   181df:	83 45 f0 01          	addl   $0x1,-0x10(%rbp)
   181e3:	83 7d f0 06          	cmpl   $0x6,-0x10(%rbp)
   181e7:	7e b5                	jle    1819e <main+0x7ad>
   181e9:	c7 45 f0 00 00 00 00 	movl   $0x0,-0x10(%rbp)
   181f0:	eb 4d                	jmp    1823f <main+0x84e>
   181f2:	8b 45 f0             	mov    -0x10(%rbp),%eax
   181f5:	48 98                	cltq   
   181f7:	48 8d 14 85 00 00 00 	lea    0x0(,%rax,4),%rdx
   181fe:	00 
   181ff:	48 8d 05 4a 58 00 00 	lea    0x584a(%rip),%rax        # 1da50 <g_637>
   18206:	8b 04 02             	mov    (%rdx,%rax,1),%eax
   18209:	89 c1                	mov    %eax,%ecx
   1820b:	8b 45 fc             	mov    -0x4(%rbp),%eax
   1820e:	89 c2                	mov    %eax,%edx
   18210:	48 8d 35 ed 1f 00 00 	lea    0x1fed(%rip),%rsi        # 1a204 <g_2536+0x1180>
   18217:	48 89 cf             	mov    %rcx,%rdi
   1821a:	e8 d4 34 ff ff       	callq  b6f3 <transparent_crc>
   1821f:	83 7d fc 00          	cmpl   $0x0,-0x4(%rbp)
   18223:	74 16                	je     1823b <main+0x84a>
   18225:	8b 45 f0             	mov    -0x10(%rbp),%eax
   18228:	89 c6                	mov    %eax,%esi
   1822a:	48 8d 3d 32 1f 00 00 	lea    0x1f32(%rip),%rdi        # 1a163 <g_2536+0x10df>
   18231:	b8 00 00 00 00       	mov    $0x0,%eax
   18236:	e8 45 1e ff ff       	callq  a080 <printf@plt>
   1823b:	83 45 f0 01          	addl   $0x1,-0x10(%rbp)
   1823f:	83 7d f0 04          	cmpl   $0x4,-0x10(%rbp)
   18243:	7e ad                	jle    181f2 <main+0x801>
   18245:	8b 05 19 58 00 00    	mov    0x5819(%rip),%eax        # 1da64 <g_648>
   1824b:	89 c1                	mov    %eax,%ecx
   1824d:	8b 45 fc             	mov    -0x4(%rbp),%eax
   18250:	89 c2                	mov    %eax,%edx
   18252:	48 8d 35 b4 1f 00 00 	lea    0x1fb4(%rip),%rsi        # 1a20d <g_2536+0x1189>
   18259:	48 89 cf             	mov    %rcx,%rdi
   1825c:	e8 92 34 ff ff       	callq  b6f3 <transparent_crc>
   18261:	8b 05 01 58 00 00    	mov    0x5801(%rip),%eax        # 1da68 <g_697>
   18267:	89 c1                	mov    %eax,%ecx
   18269:	8b 45 fc             	mov    -0x4(%rbp),%eax
   1826c:	89 c2                	mov    %eax,%edx
   1826e:	48 8d 35 a1 1f 00 00 	lea    0x1fa1(%rip),%rsi        # 1a216 <g_2536+0x1192>
   18275:	48 89 cf             	mov    %rcx,%rdi
   18278:	e8 76 34 ff ff       	callq  b6f3 <transparent_crc>
   1827d:	c7 45 f0 00 00 00 00 	movl   $0x0,-0x10(%rbp)
   18284:	eb 6f                	jmp    182f5 <main+0x904>
   18286:	c7 45 f4 00 00 00 00 	movl   $0x0,-0xc(%rbp)
   1828d:	eb 5c                	jmp    182eb <main+0x8fa>
   1828f:	8b 45 f4             	mov    -0xc(%rbp),%eax
   18292:	48 98                	cltq   
   18294:	8b 55 f0             	mov    -0x10(%rbp),%edx
   18297:	48 63 d2             	movslq %edx,%rdx
   1829a:	48 01 d2             	add    %rdx,%rdx
   1829d:	48 01 d0             	add    %rdx,%rax
   182a0:	48 8d 14 85 00 00 00 	lea    0x0(,%rax,4),%rdx
   182a7:	00 
   182a8:	48 8d 05 c1 57 00 00 	lea    0x57c1(%rip),%rax        # 1da70 <g_751>
   182af:	8b 04 02             	mov    (%rdx,%rax,1),%eax
   182b2:	89 c1                	mov    %eax,%ecx
   182b4:	8b 45 fc             	mov    -0x4(%rbp),%eax
   182b7:	89 c2                	mov    %eax,%edx
   182b9:	48 8d 35 5f 1f 00 00 	lea    0x1f5f(%rip),%rsi        # 1a21f <g_2536+0x119b>
   182c0:	48 89 cf             	mov    %rcx,%rdi
   182c3:	e8 2b 34 ff ff       	callq  b6f3 <transparent_crc>
   182c8:	83 7d fc 00          	cmpl   $0x0,-0x4(%rbp)
   182cc:	74 19                	je     182e7 <main+0x8f6>
   182ce:	8b 55 f4             	mov    -0xc(%rbp),%edx
   182d1:	8b 45 f0             	mov    -0x10(%rbp),%eax
   182d4:	89 c6                	mov    %eax,%esi
   182d6:	48 8d 3d 2f 1e 00 00 	lea    0x1e2f(%rip),%rdi        # 1a10c <g_2536+0x1088>
   182dd:	b8 00 00 00 00       	mov    $0x0,%eax
   182e2:	e8 99 1d ff ff       	callq  a080 <printf@plt>
   182e7:	83 45 f4 01          	addl   $0x1,-0xc(%rbp)
   182eb:	83 7d f4 01          	cmpl   $0x1,-0xc(%rbp)
   182ef:	7e 9e                	jle    1828f <main+0x89e>
   182f1:	83 45 f0 01          	addl   $0x1,-0x10(%rbp)
   182f5:	83 7d f0 02          	cmpl   $0x2,-0x10(%rbp)
   182f9:	7e 8b                	jle    18286 <main+0x895>
   182fb:	c7 45 f0 00 00 00 00 	movl   $0x0,-0x10(%rbp)
   18302:	eb 4a                	jmp    1834e <main+0x95d>
   18304:	8b 45 f0             	mov    -0x10(%rbp),%eax
   18307:	48 98                	cltq   
   18309:	48 8d 14 c5 00 00 00 	lea    0x0(,%rax,8),%rdx
   18310:	00 
   18311:	48 8d 05 48 0d 00 00 	lea    0xd48(%rip),%rax        # 19060 <g_860>
   18318:	48 8b 04 02          	mov    (%rdx,%rax,1),%rax
   1831c:	8b 55 fc             	mov    -0x4(%rbp),%edx
   1831f:	48 8d 35 08 1f 00 00 	lea    0x1f08(%rip),%rsi        # 1a22e <g_2536+0x11aa>
   18326:	48 89 c7             	mov    %rax,%rdi
   18329:	e8 c5 33 ff ff       	callq  b6f3 <transparent_crc>
   1832e:	83 7d fc 00          	cmpl   $0x0,-0x4(%rbp)
   18332:	74 16                	je     1834a <main+0x959>
   18334:	8b 45 f0             	mov    -0x10(%rbp),%eax
   18337:	89 c6                	mov    %eax,%esi
   18339:	48 8d 3d 23 1e 00 00 	lea    0x1e23(%rip),%rdi        # 1a163 <g_2536+0x10df>
   18340:	b8 00 00 00 00       	mov    $0x0,%eax
   18345:	e8 36 1d ff ff       	callq  a080 <printf@plt>
   1834a:	83 45 f0 01          	addl   $0x1,-0x10(%rbp)
   1834e:	83 7d f0 02          	cmpl   $0x2,-0x10(%rbp)
   18352:	7e b0                	jle    18304 <main+0x913>
   18354:	48 b9 03 d7 29 df 25 	movabs $0x1f5e9c25df29d703,%rcx
   1835b:	9c 5e 1f 
   1835e:	8b 45 fc             	mov    -0x4(%rbp),%eax
   18361:	89 c2                	mov    %eax,%edx
   18363:	48 8d 35 cd 1e 00 00 	lea    0x1ecd(%rip),%rsi        # 1a237 <g_2536+0x11b3>
   1836a:	48 89 cf             	mov    %rcx,%rdi
   1836d:	e8 81 33 ff ff       	callq  b6f3 <transparent_crc>
   18372:	c7 45 f0 00 00 00 00 	movl   $0x0,-0x10(%rbp)
   18379:	eb 69                	jmp    183e4 <main+0x9f3>
   1837b:	c7 45 f4 00 00 00 00 	movl   $0x0,-0xc(%rbp)
   18382:	eb 56                	jmp    183da <main+0x9e9>
   18384:	8b 45 f4             	mov    -0xc(%rbp),%eax
   18387:	48 63 d0             	movslq %eax,%rdx
   1838a:	8b 45 f0             	mov    -0x10(%rbp),%eax
   1838d:	48 98                	cltq   
   1838f:	48 01 d0             	add    %rdx,%rax
   18392:	48 8d 14 c5 00 00 00 	lea    0x0(,%rax,8),%rdx
   18399:	00 
   1839a:	48 8d 05 e7 56 00 00 	lea    0x56e7(%rip),%rax        # 1da88 <g_899>
   183a1:	48 8b 04 02          	mov    (%rdx,%rax,1),%rax
   183a5:	8b 55 fc             	mov    -0x4(%rbp),%edx
   183a8:	48 8d 35 8e 1e 00 00 	lea    0x1e8e(%rip),%rsi        # 1a23d <g_2536+0x11b9>
   183af:	48 89 c7             	mov    %rax,%rdi
   183b2:	e8 3c 33 ff ff       	callq  b6f3 <transparent_crc>
   183b7:	83 7d fc 00          	cmpl   $0x0,-0x4(%rbp)
   183bb:	74 19                	je     183d6 <main+0x9e5>
   183bd:	8b 55 f4             	mov    -0xc(%rbp),%edx
   183c0:	8b 45 f0             	mov    -0x10(%rbp),%eax
   183c3:	89 c6                	mov    %eax,%esi
   183c5:	48 8d 3d 40 1d 00 00 	lea    0x1d40(%rip),%rdi        # 1a10c <g_2536+0x1088>
   183cc:	b8 00 00 00 00       	mov    $0x0,%eax
   183d1:	e8 aa 1c ff ff       	callq  a080 <printf@plt>
   183d6:	83 45 f4 01          	addl   $0x1,-0xc(%rbp)
   183da:	83 7d f4 00          	cmpl   $0x0,-0xc(%rbp)
   183de:	7e a4                	jle    18384 <main+0x993>
   183e0:	83 45 f0 01          	addl   $0x1,-0x10(%rbp)
   183e4:	83 7d f0 00          	cmpl   $0x0,-0x10(%rbp)
   183e8:	7e 91                	jle    1837b <main+0x98a>
   183ea:	8b 05 a0 56 00 00    	mov    0x56a0(%rip),%eax        # 1da90 <g_921>
   183f0:	89 c1                	mov    %eax,%ecx
   183f2:	8b 45 fc             	mov    -0x4(%rbp),%eax
   183f5:	89 c2                	mov    %eax,%edx
   183f7:	48 8d 35 4b 1e 00 00 	lea    0x1e4b(%rip),%rsi        # 1a249 <g_2536+0x11c5>
   183fe:	48 89 cf             	mov    %rcx,%rdi
   18401:	e8 ed 32 ff ff       	callq  b6f3 <transparent_crc>
   18406:	8b 05 88 56 00 00    	mov    0x5688(%rip),%eax        # 1da94 <g_978>
   1840c:	48 98                	cltq   
   1840e:	8b 55 fc             	mov    -0x4(%rbp),%edx
   18411:	48 8d 35 3a 1e 00 00 	lea    0x1e3a(%rip),%rsi        # 1a252 <g_2536+0x11ce>
   18418:	48 89 c7             	mov    %rax,%rdi
   1841b:	e8 d3 32 ff ff       	callq  b6f3 <transparent_crc>
   18420:	8b 05 72 56 00 00    	mov    0x5672(%rip),%eax        # 1da98 <g_979>
   18426:	89 c1                	mov    %eax,%ecx
   18428:	8b 45 fc             	mov    -0x4(%rbp),%eax
   1842b:	89 c2                	mov    %eax,%edx
   1842d:	48 8d 35 24 1e 00 00 	lea    0x1e24(%rip),%rsi        # 1a258 <g_2536+0x11d4>
   18434:	48 89 cf             	mov    %rcx,%rdi
   18437:	e8 b7 32 ff ff       	callq  b6f3 <transparent_crc>
   1843c:	0f b7 05 59 56 00 00 	movzwl 0x5659(%rip),%eax        # 1da9c <g_1005>
   18443:	0f b7 c0             	movzwl %ax,%eax
   18446:	8b 55 fc             	mov    -0x4(%rbp),%edx
   18449:	48 8d 35 0e 1e 00 00 	lea    0x1e0e(%rip),%rsi        # 1a25e <g_2536+0x11da>
   18450:	48 89 c7             	mov    %rax,%rdi
   18453:	e8 9b 32 ff ff       	callq  b6f3 <transparent_crc>
   18458:	8b 05 42 56 00 00    	mov    0x5642(%rip),%eax        # 1daa0 <g_1104>
   1845e:	89 c1                	mov    %eax,%ecx
   18460:	8b 45 fc             	mov    -0x4(%rbp),%eax
   18463:	89 c2                	mov    %eax,%edx
   18465:	48 8d 35 f9 1d 00 00 	lea    0x1df9(%rip),%rsi        # 1a265 <g_2536+0x11e1>
   1846c:	48 89 cf             	mov    %rcx,%rdi
   1846f:	e8 7f 32 ff ff       	callq  b6f3 <transparent_crc>
   18474:	8b 05 2a 56 00 00    	mov    0x562a(%rip),%eax        # 1daa4 <g_1149>
   1847a:	89 c1                	mov    %eax,%ecx
   1847c:	8b 45 fc             	mov    -0x4(%rbp),%eax
   1847f:	89 c2                	mov    %eax,%edx
   18481:	48 8d 35 e7 1d 00 00 	lea    0x1de7(%rip),%rsi        # 1a26f <g_2536+0x11eb>
   18488:	48 89 cf             	mov    %rcx,%rdi
   1848b:	e8 63 32 ff ff       	callq  b6f3 <transparent_crc>
   18490:	8b 05 12 56 00 00    	mov    0x5612(%rip),%eax        # 1daa8 <g_1166>
   18496:	89 c1                	mov    %eax,%ecx
   18498:	8b 45 fc             	mov    -0x4(%rbp),%eax
   1849b:	89 c2                	mov    %eax,%edx
   1849d:	48 8d 35 d2 1d 00 00 	lea    0x1dd2(%rip),%rsi        # 1a276 <g_2536+0x11f2>
   184a4:	48 89 cf             	mov    %rcx,%rdi
   184a7:	e8 47 32 ff ff       	callq  b6f3 <transparent_crc>
   184ac:	8b 05 fa 55 00 00    	mov    0x55fa(%rip),%eax        # 1daac <g_1347>
   184b2:	89 c1                	mov    %eax,%ecx
   184b4:	8b 45 fc             	mov    -0x4(%rbp),%eax
   184b7:	89 c2                	mov    %eax,%edx
   184b9:	48 8d 35 bd 1d 00 00 	lea    0x1dbd(%rip),%rsi        # 1a27d <g_2536+0x11f9>
   184c0:	48 89 cf             	mov    %rcx,%rdi
   184c3:	e8 2b 32 ff ff       	callq  b6f3 <transparent_crc>
   184c8:	8b 05 e2 55 00 00    	mov    0x55e2(%rip),%eax        # 1dab0 <g_1362>
   184ce:	89 c1                	mov    %eax,%ecx
   184d0:	8b 45 fc             	mov    -0x4(%rbp),%eax
   184d3:	89 c2                	mov    %eax,%edx
   184d5:	48 8d 35 ab 1d 00 00 	lea    0x1dab(%rip),%rsi        # 1a287 <g_2536+0x1203>
   184dc:	48 89 cf             	mov    %rcx,%rdi
   184df:	e8 0f 32 ff ff       	callq  b6f3 <transparent_crc>
   184e4:	8b 05 16 a0 00 00    	mov    0xa016(%rip),%eax        # 22500 <g_1434>
   184ea:	48 98                	cltq   
   184ec:	8b 55 fc             	mov    -0x4(%rbp),%edx
   184ef:	48 8d 35 9b 1d 00 00 	lea    0x1d9b(%rip),%rsi        # 1a291 <g_2536+0x120d>
   184f6:	48 89 c7             	mov    %rax,%rdi
   184f9:	e8 f5 31 ff ff       	callq  b6f3 <transparent_crc>
   184fe:	c7 45 f0 00 00 00 00 	movl   $0x0,-0x10(%rbp)
   18505:	e9 8c 00 00 00       	jmpq   18596 <main+0xba5>
   1850a:	c7 45 f4 00 00 00 00 	movl   $0x0,-0xc(%rbp)
   18511:	eb 79                	jmp    1858c <main+0xb9b>
   18513:	c7 45 f8 00 00 00 00 	movl   $0x0,-0x8(%rbp)
   1851a:	eb 66                	jmp    18582 <main+0xb91>
   1851c:	8b 45 f8             	mov    -0x8(%rbp),%eax
   1851f:	48 98                	cltq   
   18521:	8b 55 f0             	mov    -0x10(%rbp),%edx
   18524:	48 63 ca             	movslq %edx,%rcx
   18527:	8b 55 f4             	mov    -0xc(%rbp),%edx
   1852a:	48 63 d2             	movslq %edx,%rdx
   1852d:	48 c1 e1 02          	shl    $0x2,%rcx
   18531:	48 01 ca             	add    %rcx,%rdx
   18534:	48 01 d2             	add    %rdx,%rdx
   18537:	48 01 c2             	add    %rax,%rdx
   1853a:	48 8d 05 7f 55 00 00 	lea    0x557f(%rip),%rax        # 1dac0 <g_1466>
   18541:	48 01 d0             	add    %rdx,%rax
   18544:	0f b6 00             	movzbl (%rax),%eax
   18547:	0f b6 c0             	movzbl %al,%eax
   1854a:	8b 55 fc             	mov    -0x4(%rbp),%edx
   1854d:	48 8d 35 44 1d 00 00 	lea    0x1d44(%rip),%rsi        # 1a298 <g_2536+0x1214>
   18554:	48 89 c7             	mov    %rax,%rdi
   18557:	e8 97 31 ff ff       	callq  b6f3 <transparent_crc>
   1855c:	83 7d fc 00          	cmpl   $0x0,-0x4(%rbp)
   18560:	74 1c                	je     1857e <main+0xb8d>
   18562:	8b 4d f8             	mov    -0x8(%rbp),%ecx
   18565:	8b 55 f4             	mov    -0xc(%rbp),%edx
   18568:	8b 45 f0             	mov    -0x10(%rbp),%eax
   1856b:	89 c6                	mov    %eax,%esi
   1856d:	48 8d 3d 76 1b 00 00 	lea    0x1b76(%rip),%rdi        # 1a0ea <g_2536+0x1066>
   18574:	b8 00 00 00 00       	mov    $0x0,%eax
   18579:	e8 02 1b ff ff       	callq  a080 <printf@plt>
   1857e:	83 45 f8 01          	addl   $0x1,-0x8(%rbp)
   18582:	83 7d f8 01          	cmpl   $0x1,-0x8(%rbp)
   18586:	7e 94                	jle    1851c <main+0xb2b>
   18588:	83 45 f4 01          	addl   $0x1,-0xc(%rbp)
   1858c:	83 7d f4 03          	cmpl   $0x3,-0xc(%rbp)
   18590:	7e 81                	jle    18513 <main+0xb22>
   18592:	83 45 f0 01          	addl   $0x1,-0x10(%rbp)
   18596:	83 7d f0 05          	cmpl   $0x5,-0x10(%rbp)
   1859a:	0f 8e 6a ff ff ff    	jle    1850a <main+0xb19>
   185a0:	48 8b 05 49 55 00 00 	mov    0x5549(%rip),%rax        # 1daf0 <g_1488>
   185a7:	8b 55 fc             	mov    -0x4(%rbp),%edx
   185aa:	48 8d 35 f7 1c 00 00 	lea    0x1cf7(%rip),%rsi        # 1a2a8 <g_2536+0x1224>
   185b1:	48 89 c7             	mov    %rax,%rdi
   185b4:	e8 3a 31 ff ff       	callq  b6f3 <transparent_crc>
   185b9:	8b 05 39 55 00 00    	mov    0x5539(%rip),%eax        # 1daf8 <g_1523>
   185bf:	89 c1                	mov    %eax,%ecx
   185c1:	8b 45 fc             	mov    -0x4(%rbp),%eax
   185c4:	89 c2                	mov    %eax,%edx
   185c6:	48 8d 35 e2 1c 00 00 	lea    0x1ce2(%rip),%rsi        # 1a2af <g_2536+0x122b>
   185cd:	48 89 cf             	mov    %rcx,%rdi
   185d0:	e8 1e 31 ff ff       	callq  b6f3 <transparent_crc>
   185d5:	8b 05 21 55 00 00    	mov    0x5521(%rip),%eax        # 1dafc <g_1572>
   185db:	48 98                	cltq   
   185dd:	8b 55 fc             	mov    -0x4(%rbp),%edx
   185e0:	48 8d 35 d2 1c 00 00 	lea    0x1cd2(%rip),%rsi        # 1a2b9 <g_2536+0x1235>
   185e7:	48 89 c7             	mov    %rax,%rdi
   185ea:	e8 04 31 ff ff       	callq  b6f3 <transparent_crc>
   185ef:	48 8b 05 0a 55 00 00 	mov    0x550a(%rip),%rax        # 1db00 <g_1620>
   185f6:	48 89 c1             	mov    %rax,%rcx
   185f9:	8b 45 fc             	mov    -0x4(%rbp),%eax
   185fc:	89 c2                	mov    %eax,%edx
   185fe:	48 8d 35 bb 1c 00 00 	lea    0x1cbb(%rip),%rsi        # 1a2c0 <g_2536+0x123c>
   18605:	48 89 cf             	mov    %rcx,%rdi
   18608:	e8 e6 30 ff ff       	callq  b6f3 <transparent_crc>
   1860d:	c7 45 f0 00 00 00 00 	movl   $0x0,-0x10(%rbp)
   18614:	eb 4d                	jmp    18663 <main+0xc72>
   18616:	8b 45 f0             	mov    -0x10(%rbp),%eax
   18619:	48 98                	cltq   
   1861b:	48 8d 14 85 00 00 00 	lea    0x0(,%rax,4),%rdx
   18622:	00 
   18623:	48 8d 05 f6 9e 00 00 	lea    0x9ef6(%rip),%rax        # 22520 <g_1636>
   1862a:	8b 04 02             	mov    (%rdx,%rax,1),%eax
   1862d:	89 c1                	mov    %eax,%ecx
   1862f:	8b 45 fc             	mov    -0x4(%rbp),%eax
   18632:	89 c2                	mov    %eax,%edx
   18634:	48 8d 35 8c 1c 00 00 	lea    0x1c8c(%rip),%rsi        # 1a2c7 <g_2536+0x1243>
   1863b:	48 89 cf             	mov    %rcx,%rdi
   1863e:	e8 b0 30 ff ff       	callq  b6f3 <transparent_crc>
   18643:	83 7d fc 00          	cmpl   $0x0,-0x4(%rbp)
   18647:	74 16                	je     1865f <main+0xc6e>
   18649:	8b 45 f0             	mov    -0x10(%rbp),%eax
   1864c:	89 c6                	mov    %eax,%esi
   1864e:	48 8d 3d 0e 1b 00 00 	lea    0x1b0e(%rip),%rdi        # 1a163 <g_2536+0x10df>
   18655:	b8 00 00 00 00       	mov    $0x0,%eax
   1865a:	e8 21 1a ff ff       	callq  a080 <printf@plt>
   1865f:	83 45 f0 01          	addl   $0x1,-0x10(%rbp)
   18663:	83 7d f0 07          	cmpl   $0x7,-0x10(%rbp)
   18667:	7e ad                	jle    18616 <main+0xc25>
   18669:	c7 45 f0 00 00 00 00 	movl   $0x0,-0x10(%rbp)
   18670:	eb 4d                	jmp    186bf <main+0xcce>
   18672:	8b 45 f0             	mov    -0x10(%rbp),%eax
   18675:	48 98                	cltq   
   18677:	48 8d 14 85 00 00 00 	lea    0x0(,%rax,4),%rdx
   1867e:	00 
   1867f:	48 8d 05 9a 54 00 00 	lea    0x549a(%rip),%rax        # 1db20 <g_1650>
   18686:	8b 04 02             	mov    (%rdx,%rax,1),%eax
   18689:	89 c1                	mov    %eax,%ecx
   1868b:	8b 45 fc             	mov    -0x4(%rbp),%eax
   1868e:	89 c2                	mov    %eax,%edx
   18690:	48 8d 35 3a 1c 00 00 	lea    0x1c3a(%rip),%rsi        # 1a2d1 <g_2536+0x124d>
   18697:	48 89 cf             	mov    %rcx,%rdi
   1869a:	e8 54 30 ff ff       	callq  b6f3 <transparent_crc>
   1869f:	83 7d fc 00          	cmpl   $0x0,-0x4(%rbp)
   186a3:	74 16                	je     186bb <main+0xcca>
   186a5:	8b 45 f0             	mov    -0x10(%rbp),%eax
   186a8:	89 c6                	mov    %eax,%esi
   186aa:	48 8d 3d b2 1a 00 00 	lea    0x1ab2(%rip),%rdi        # 1a163 <g_2536+0x10df>
   186b1:	b8 00 00 00 00       	mov    $0x0,%eax
   186b6:	e8 c5 19 ff ff       	callq  a080 <printf@plt>
   186bb:	83 45 f0 01          	addl   $0x1,-0x10(%rbp)
   186bf:	83 7d f0 07          	cmpl   $0x7,-0x10(%rbp)
   186c3:	7e ad                	jle    18672 <main+0xc81>
   186c5:	8b 05 75 54 00 00    	mov    0x5475(%rip),%eax        # 1db40 <g_1696>
   186cb:	48 98                	cltq   
   186cd:	8b 55 fc             	mov    -0x4(%rbp),%edx
   186d0:	48 8d 35 07 1c 00 00 	lea    0x1c07(%rip),%rsi        # 1a2de <g_2536+0x125a>
   186d7:	48 89 c7             	mov    %rax,%rdi
   186da:	e8 14 30 ff ff       	callq  b6f3 <transparent_crc>
   186df:	8b 05 5f 54 00 00    	mov    0x545f(%rip),%eax        # 1db44 <g_1728>
   186e5:	89 c1                	mov    %eax,%ecx
   186e7:	8b 45 fc             	mov    -0x4(%rbp),%eax
   186ea:	89 c2                	mov    %eax,%edx
   186ec:	48 8d 35 f2 1b 00 00 	lea    0x1bf2(%rip),%rsi        # 1a2e5 <g_2536+0x1261>
   186f3:	48 89 cf             	mov    %rcx,%rdi
   186f6:	e8 f8 2f ff ff       	callq  b6f3 <transparent_crc>
   186fb:	0f b6 05 46 54 00 00 	movzbl 0x5446(%rip),%eax        # 1db48 <g_1773>
   18702:	0f b6 c0             	movzbl %al,%eax
   18705:	8b 55 fc             	mov    -0x4(%rbp),%edx
   18708:	48 8d 35 e0 1b 00 00 	lea    0x1be0(%rip),%rsi        # 1a2ef <g_2536+0x126b>
   1870f:	48 89 c7             	mov    %rax,%rdi
   18712:	e8 dc 2f ff ff       	callq  b6f3 <transparent_crc>
   18717:	c7 45 f0 00 00 00 00 	movl   $0x0,-0x10(%rbp)
   1871e:	e9 92 00 00 00       	jmpq   187b5 <main+0xdc4>
   18723:	c7 45 f4 00 00 00 00 	movl   $0x0,-0xc(%rbp)
   1872a:	eb 7b                	jmp    187a7 <main+0xdb6>
   1872c:	c7 45 f8 00 00 00 00 	movl   $0x0,-0x8(%rbp)
   18733:	eb 68                	jmp    1879d <main+0xdac>
   18735:	8b 45 f8             	mov    -0x8(%rbp),%eax
   18738:	48 63 d0             	movslq %eax,%rdx
   1873b:	8b 45 f4             	mov    -0xc(%rbp),%eax
   1873e:	48 98                	cltq   
   18740:	8b 4d f0             	mov    -0x10(%rbp),%ecx
   18743:	48 63 c9             	movslq %ecx,%rcx
   18746:	48 01 c9             	add    %rcx,%rcx
   18749:	48 01 ca             	add    %rcx,%rdx
   1874c:	48 01 d0             	add    %rdx,%rax
   1874f:	48 8d 14 85 00 00 00 	lea    0x0(,%rax,4),%rdx
   18756:	00 
   18757:	48 8d 05 f2 53 00 00 	lea    0x53f2(%rip),%rax        # 1db50 <g_1846>
   1875e:	8b 04 02             	mov    (%rdx,%rax,1),%eax
   18761:	89 c1                	mov    %eax,%ecx
   18763:	8b 45 fc             	mov    -0x4(%rbp),%eax
   18766:	89 c2                	mov    %eax,%edx
   18768:	48 8d 35 87 1b 00 00 	lea    0x1b87(%rip),%rsi        # 1a2f6 <g_2536+0x1272>
   1876f:	48 89 cf             	mov    %rcx,%rdi
   18772:	e8 7c 2f ff ff       	callq  b6f3 <transparent_crc>
   18777:	83 7d fc 00          	cmpl   $0x0,-0x4(%rbp)
   1877b:	74 1c                	je     18799 <main+0xda8>
   1877d:	8b 4d f8             	mov    -0x8(%rbp),%ecx
   18780:	8b 55 f4             	mov    -0xc(%rbp),%edx
   18783:	8b 45 f0             	mov    -0x10(%rbp),%eax
   18786:	89 c6                	mov    %eax,%esi
   18788:	48 8d 3d 5b 19 00 00 	lea    0x195b(%rip),%rdi        # 1a0ea <g_2536+0x1066>
   1878f:	b8 00 00 00 00       	mov    $0x0,%eax
   18794:	e8 e7 18 ff ff       	callq  a080 <printf@plt>
   18799:	83 45 f8 01          	addl   $0x1,-0x8(%rbp)
   1879d:	83 7d f8 00          	cmpl   $0x0,-0x8(%rbp)
   187a1:	7e 92                	jle    18735 <main+0xd44>
   187a3:	83 45 f4 01          	addl   $0x1,-0xc(%rbp)
   187a7:	83 7d f4 01          	cmpl   $0x1,-0xc(%rbp)
   187ab:	0f 8e 7b ff ff ff    	jle    1872c <main+0xd3b>
   187b1:	83 45 f0 01          	addl   $0x1,-0x10(%rbp)
   187b5:	83 7d f0 02          	cmpl   $0x2,-0x10(%rbp)
   187b9:	0f 8e 64 ff ff ff    	jle    18723 <main+0xd32>
   187bf:	c7 45 f0 00 00 00 00 	movl   $0x0,-0x10(%rbp)
   187c6:	e9 a6 00 00 00       	jmpq   18871 <main+0xe80>
   187cb:	c7 45 f4 00 00 00 00 	movl   $0x0,-0xc(%rbp)
   187d2:	e9 8c 00 00 00       	jmpq   18863 <main+0xe72>
   187d7:	c7 45 f8 00 00 00 00 	movl   $0x0,-0x8(%rbp)
   187de:	eb 79                	jmp    18859 <main+0xe68>
   187e0:	8b 45 f8             	mov    -0x8(%rbp),%eax
   187e3:	48 63 f0             	movslq %eax,%rsi
   187e6:	8b 45 f0             	mov    -0x10(%rbp),%eax
   187e9:	48 98                	cltq   
   187eb:	8b 55 f4             	mov    -0xc(%rbp),%edx
   187ee:	48 63 ca             	movslq %edx,%rcx
   187f1:	48 89 c2             	mov    %rax,%rdx
   187f4:	48 c1 e2 04          	shl    $0x4,%rdx
   187f8:	48 29 c2             	sub    %rax,%rdx
   187fb:	48 89 c8             	mov    %rcx,%rax
   187fe:	48 c1 e0 02          	shl    $0x2,%rax
   18802:	48 01 c8             	add    %rcx,%rax
   18805:	48 01 d0             	add    %rdx,%rax
   18808:	48 01 f0             	add    %rsi,%rax
   1880b:	48 8d 14 85 00 00 00 	lea    0x0(,%rax,4),%rdx
   18812:	00 
   18813:	48 8d 05 66 53 00 00 	lea    0x5366(%rip),%rax        # 1db80 <g_1873>
   1881a:	8b 04 02             	mov    (%rdx,%rax,1),%eax
   1881d:	89 c1                	mov    %eax,%ecx
   1881f:	8b 45 fc             	mov    -0x4(%rbp),%eax
   18822:	89 c2                	mov    %eax,%edx
   18824:	48 8d 35 de 1a 00 00 	lea    0x1ade(%rip),%rsi        # 1a309 <g_2536+0x1285>
   1882b:	48 89 cf             	mov    %rcx,%rdi
   1882e:	e8 c0 2e ff ff       	callq  b6f3 <transparent_crc>
   18833:	83 7d fc 00          	cmpl   $0x0,-0x4(%rbp)
   18837:	74 1c                	je     18855 <main+0xe64>
   18839:	8b 4d f8             	mov    -0x8(%rbp),%ecx
   1883c:	8b 55 f4             	mov    -0xc(%rbp),%edx
   1883f:	8b 45 f0             	mov    -0x10(%rbp),%eax
   18842:	89 c6                	mov    %eax,%esi
   18844:	48 8d 3d 9f 18 00 00 	lea    0x189f(%rip),%rdi        # 1a0ea <g_2536+0x1066>
   1884b:	b8 00 00 00 00       	mov    $0x0,%eax
   18850:	e8 2b 18 ff ff       	callq  a080 <printf@plt>
   18855:	83 45 f8 01          	addl   $0x1,-0x8(%rbp)
   18859:	83 7d f8 04          	cmpl   $0x4,-0x8(%rbp)
   1885d:	7e 81                	jle    187e0 <main+0xdef>
   1885f:	83 45 f4 01          	addl   $0x1,-0xc(%rbp)
   18863:	83 7d f4 02          	cmpl   $0x2,-0xc(%rbp)
   18867:	0f 8e 6a ff ff ff    	jle    187d7 <main+0xde6>
   1886d:	83 45 f0 01          	addl   $0x1,-0x10(%rbp)
   18871:	83 7d f0 08          	cmpl   $0x8,-0x10(%rbp)
   18875:	0f 8e 50 ff ff ff    	jle    187cb <main+0xdda>
   1887b:	b8 07 00 00 00       	mov    $0x7,%eax
   18880:	0f b7 c0             	movzwl %ax,%eax
   18883:	8b 55 fc             	mov    -0x4(%rbp),%edx
   18886:	48 8d 35 8c 1a 00 00 	lea    0x1a8c(%rip),%rsi        # 1a319 <g_2536+0x1295>
   1888d:	48 89 c7             	mov    %rax,%rdi
   18890:	e8 5e 2e ff ff       	callq  b6f3 <transparent_crc>
   18895:	0f b7 05 a4 9c 00 00 	movzwl 0x9ca4(%rip),%eax        # 22540 <g_1923>
   1889c:	48 0f bf c0          	movswq %ax,%rax
   188a0:	8b 55 fc             	mov    -0x4(%rbp),%edx
   188a3:	48 8d 35 76 1a 00 00 	lea    0x1a76(%rip),%rsi        # 1a320 <g_2536+0x129c>
   188aa:	48 89 c7             	mov    %rax,%rdi
   188ad:	e8 41 2e ff ff       	callq  b6f3 <transparent_crc>
   188b2:	c7 45 f0 00 00 00 00 	movl   $0x0,-0x10(%rbp)
   188b9:	eb 4a                	jmp    18905 <main+0xf14>
   188bb:	8b 45 f0             	mov    -0x10(%rbp),%eax
   188be:	48 98                	cltq   
   188c0:	48 8d 14 c5 00 00 00 	lea    0x0(,%rax,8),%rdx
   188c7:	00 
   188c8:	48 8d 05 d1 54 00 00 	lea    0x54d1(%rip),%rax        # 1dda0 <g_1927>
   188cf:	48 8b 04 02          	mov    (%rdx,%rax,1),%rax
   188d3:	8b 55 fc             	mov    -0x4(%rbp),%edx
   188d6:	48 8d 35 4a 1a 00 00 	lea    0x1a4a(%rip),%rsi        # 1a327 <g_2536+0x12a3>
   188dd:	48 89 c7             	mov    %rax,%rdi
   188e0:	e8 0e 2e ff ff       	callq  b6f3 <transparent_crc>
   188e5:	83 7d fc 00          	cmpl   $0x0,-0x4(%rbp)
   188e9:	74 16                	je     18901 <main+0xf10>
   188eb:	8b 45 f0             	mov    -0x10(%rbp),%eax
   188ee:	89 c6                	mov    %eax,%esi
   188f0:	48 8d 3d 6c 18 00 00 	lea    0x186c(%rip),%rdi        # 1a163 <g_2536+0x10df>
   188f7:	b8 00 00 00 00       	mov    $0x0,%eax
   188fc:	e8 7f 17 ff ff       	callq  a080 <printf@plt>
   18901:	83 45 f0 01          	addl   $0x1,-0x10(%rbp)
   18905:	83 7d f0 04          	cmpl   $0x4,-0x10(%rbp)
   18909:	7e b0                	jle    188bb <main+0xeca>
   1890b:	0f b7 05 b6 54 00 00 	movzwl 0x54b6(%rip),%eax        # 1ddc8 <g_1968>
   18912:	0f b7 c0             	movzwl %ax,%eax
   18915:	8b 55 fc             	mov    -0x4(%rbp),%edx
   18918:	48 8d 35 12 1a 00 00 	lea    0x1a12(%rip),%rsi        # 1a331 <g_2536+0x12ad>
   1891f:	48 89 c7             	mov    %rax,%rdi
   18922:	e8 cc 2d ff ff       	callq  b6f3 <transparent_crc>
   18927:	0f b6 05 9c 54 00 00 	movzbl 0x549c(%rip),%eax        # 1ddca <g_2019>
   1892e:	48 0f be c0          	movsbq %al,%rax
   18932:	8b 55 fc             	mov    -0x4(%rbp),%edx
   18935:	48 8d 35 fc 19 00 00 	lea    0x19fc(%rip),%rsi        # 1a338 <g_2536+0x12b4>
   1893c:	48 89 c7             	mov    %rax,%rdi
   1893f:	e8 af 2d ff ff       	callq  b6f3 <transparent_crc>
   18944:	48 8b 05 05 9c 00 00 	mov    0x9c05(%rip),%rax        # 22550 <g_2198>
   1894b:	8b 55 fc             	mov    -0x4(%rbp),%edx
   1894e:	48 8d 35 ea 19 00 00 	lea    0x19ea(%rip),%rsi        # 1a33f <g_2536+0x12bb>
   18955:	48 89 c7             	mov    %rax,%rdi
   18958:	e8 96 2d ff ff       	callq  b6f3 <transparent_crc>
   1895d:	0f b6 05 67 54 00 00 	movzbl 0x5467(%rip),%eax        # 1ddcb <g_2215>
   18964:	0f b6 c0             	movzbl %al,%eax
   18967:	8b 55 fc             	mov    -0x4(%rbp),%edx
   1896a:	48 8d 35 d5 19 00 00 	lea    0x19d5(%rip),%rsi        # 1a346 <g_2536+0x12c2>
   18971:	48 89 c7             	mov    %rax,%rdi
   18974:	e8 7a 2d ff ff       	callq  b6f3 <transparent_crc>
   18979:	c7 45 f0 00 00 00 00 	movl   $0x0,-0x10(%rbp)
   18980:	eb 45                	jmp    189c7 <main+0xfd6>
   18982:	8b 45 f0             	mov    -0x10(%rbp),%eax
   18985:	48 98                	cltq   
   18987:	48 8d 15 3e 54 00 00 	lea    0x543e(%rip),%rdx        # 1ddcc <g_2235>
   1898e:	0f b6 04 10          	movzbl (%rax,%rdx,1),%eax
   18992:	0f b6 c0             	movzbl %al,%eax
   18995:	8b 55 fc             	mov    -0x4(%rbp),%edx
   18998:	48 8d 35 ae 19 00 00 	lea    0x19ae(%rip),%rsi        # 1a34d <g_2536+0x12c9>
   1899f:	48 89 c7             	mov    %rax,%rdi
   189a2:	e8 4c 2d ff ff       	callq  b6f3 <transparent_crc>
   189a7:	83 7d fc 00          	cmpl   $0x0,-0x4(%rbp)
   189ab:	74 16                	je     189c3 <main+0xfd2>
   189ad:	8b 45 f0             	mov    -0x10(%rbp),%eax
   189b0:	89 c6                	mov    %eax,%esi
   189b2:	48 8d 3d aa 17 00 00 	lea    0x17aa(%rip),%rdi        # 1a163 <g_2536+0x10df>
   189b9:	b8 00 00 00 00       	mov    $0x0,%eax
   189be:	e8 bd 16 ff ff       	callq  a080 <printf@plt>
   189c3:	83 45 f0 01          	addl   $0x1,-0x10(%rbp)
   189c7:	83 7d f0 04          	cmpl   $0x4,-0x10(%rbp)
   189cb:	7e b5                	jle    18982 <main+0xf91>
   189cd:	8b 05 01 54 00 00    	mov    0x5401(%rip),%eax        # 1ddd4 <g_2303>
   189d3:	89 c1                	mov    %eax,%ecx
   189d5:	8b 45 fc             	mov    -0x4(%rbp),%eax
   189d8:	89 c2                	mov    %eax,%edx
   189da:	48 8d 35 76 19 00 00 	lea    0x1976(%rip),%rsi        # 1a357 <g_2536+0x12d3>
   189e1:	48 89 cf             	mov    %rcx,%rdi
   189e4:	e8 0a 2d ff ff       	callq  b6f3 <transparent_crc>
   189e9:	c7 45 f0 00 00 00 00 	movl   $0x0,-0x10(%rbp)
   189f0:	e9 b0 00 00 00       	jmpq   18aa5 <main+0x10b4>
   189f5:	c7 45 f4 00 00 00 00 	movl   $0x0,-0xc(%rbp)
   189fc:	e9 96 00 00 00       	jmpq   18a97 <main+0x10a6>
   18a01:	c7 45 f8 00 00 00 00 	movl   $0x0,-0x8(%rbp)
   18a08:	eb 7f                	jmp    18a89 <main+0x1098>
   18a0a:	8b 45 f8             	mov    -0x8(%rbp),%eax
   18a0d:	48 63 f0             	movslq %eax,%rsi
   18a10:	8b 45 f0             	mov    -0x10(%rbp),%eax
   18a13:	48 63 d0             	movslq %eax,%rdx
   18a16:	8b 45 f4             	mov    -0xc(%rbp),%eax
   18a19:	48 63 c8             	movslq %eax,%rcx
   18a1c:	48 89 d0             	mov    %rdx,%rax
   18a1f:	48 c1 e0 04          	shl    $0x4,%rax
   18a23:	48 29 d0             	sub    %rdx,%rax
   18a26:	48 01 c0             	add    %rax,%rax
   18a29:	48 89 ca             	mov    %rcx,%rdx
   18a2c:	48 c1 e2 02          	shl    $0x2,%rdx
   18a30:	48 01 ca             	add    %rcx,%rdx
   18a33:	48 01 d0             	add    %rdx,%rax
   18a36:	48 01 f0             	add    %rsi,%rax
   18a39:	48 8d 14 c5 00 00 00 	lea    0x0(,%rax,8),%rdx
   18a40:	00 
   18a41:	48 8d 05 98 53 00 00 	lea    0x5398(%rip),%rax        # 1dde0 <g_2326>
   18a48:	48 8b 04 02          	mov    (%rdx,%rax,1),%rax
   18a4c:	48 89 c1             	mov    %rax,%rcx
   18a4f:	8b 45 fc             	mov    -0x4(%rbp),%eax
   18a52:	89 c2                	mov    %eax,%edx
   18a54:	48 8d 35 06 19 00 00 	lea    0x1906(%rip),%rsi        # 1a361 <g_2536+0x12dd>
   18a5b:	48 89 cf             	mov    %rcx,%rdi
   18a5e:	e8 90 2c ff ff       	callq  b6f3 <transparent_crc>
   18a63:	83 7d fc 00          	cmpl   $0x0,-0x4(%rbp)
   18a67:	74 1c                	je     18a85 <main+0x1094>
   18a69:	8b 4d f8             	mov    -0x8(%rbp),%ecx
   18a6c:	8b 55 f4             	mov    -0xc(%rbp),%edx
   18a6f:	8b 45 f0             	mov    -0x10(%rbp),%eax
   18a72:	89 c6                	mov    %eax,%esi
   18a74:	48 8d 3d 6f 16 00 00 	lea    0x166f(%rip),%rdi        # 1a0ea <g_2536+0x1066>
   18a7b:	b8 00 00 00 00       	mov    $0x0,%eax
   18a80:	e8 fb 15 ff ff       	callq  a080 <printf@plt>
   18a85:	83 45 f8 01          	addl   $0x1,-0x8(%rbp)
   18a89:	83 7d f8 04          	cmpl   $0x4,-0x8(%rbp)
   18a8d:	0f 8e 77 ff ff ff    	jle    18a0a <main+0x1019>
   18a93:	83 45 f4 01          	addl   $0x1,-0xc(%rbp)
   18a97:	83 7d f4 05          	cmpl   $0x5,-0xc(%rbp)
   18a9b:	0f 8e 60 ff ff ff    	jle    18a01 <main+0x1010>
   18aa1:	83 45 f0 01          	addl   $0x1,-0x10(%rbp)
   18aa5:	83 7d f0 03          	cmpl   $0x3,-0x10(%rbp)
   18aa9:	0f 8e 46 ff ff ff    	jle    189f5 <main+0x1004>
   18aaf:	8b 05 eb 56 00 00    	mov    0x56eb(%rip),%eax        # 1e1a0 <g_2398>
   18ab5:	48 98                	cltq   
   18ab7:	8b 55 fc             	mov    -0x4(%rbp),%edx
   18aba:	48 8d 35 b0 18 00 00 	lea    0x18b0(%rip),%rsi        # 1a371 <g_2536+0x12ed>
   18ac1:	48 89 c7             	mov    %rax,%rdi
   18ac4:	e8 2a 2c ff ff       	callq  b6f3 <transparent_crc>
   18ac9:	0f b7 05 d4 56 00 00 	movzwl 0x56d4(%rip),%eax        # 1e1a4 <g_2439>
   18ad0:	0f b7 c0             	movzwl %ax,%eax
   18ad3:	8b 55 fc             	mov    -0x4(%rbp),%edx
   18ad6:	48 8d 35 9b 18 00 00 	lea    0x189b(%rip),%rsi        # 1a378 <g_2536+0x12f4>
   18add:	48 89 c7             	mov    %rax,%rdi
   18ae0:	e8 0e 2c ff ff       	callq  b6f3 <transparent_crc>
   18ae5:	48 8b 05 bc 56 00 00 	mov    0x56bc(%rip),%rax        # 1e1a8 <g_2498>
   18aec:	48 89 c1             	mov    %rax,%rcx
   18aef:	8b 45 fc             	mov    -0x4(%rbp),%eax
   18af2:	89 c2                	mov    %eax,%edx
   18af4:	48 8d 35 84 18 00 00 	lea    0x1884(%rip),%rsi        # 1a37f <g_2536+0x12fb>
   18afb:	48 89 cf             	mov    %rcx,%rdi
   18afe:	e8 f0 2b ff ff       	callq  b6f3 <transparent_crc>
   18b03:	8b 05 7b 05 00 00    	mov    0x57b(%rip),%eax        # 19084 <g_2536>
   18b09:	89 c1                	mov    %eax,%ecx
   18b0b:	8b 45 fc             	mov    -0x4(%rbp),%eax
   18b0e:	89 c2                	mov    %eax,%edx
   18b10:	48 8d 35 6f 18 00 00 	lea    0x186f(%rip),%rsi        # 1a386 <g_2536+0x1302>
   18b17:	48 89 cf             	mov    %rcx,%rdi
   18b1a:	e8 d4 2b ff ff       	callq  b6f3 <transparent_crc>
   18b1f:	8b 05 8b 56 00 00    	mov    0x568b(%rip),%eax        # 1e1b0 <g_2571>
   18b25:	89 c1                	mov    %eax,%ecx
   18b27:	8b 45 fc             	mov    -0x4(%rbp),%eax
   18b2a:	89 c2                	mov    %eax,%edx
   18b2c:	48 8d 35 5d 18 00 00 	lea    0x185d(%rip),%rsi        # 1a390 <g_2536+0x130c>
   18b33:	48 89 cf             	mov    %rcx,%rdi
   18b36:	e8 b8 2b ff ff       	callq  b6f3 <transparent_crc>
   18b3b:	8b 05 1f 9a 00 00    	mov    0x9a1f(%rip),%eax        # 22560 <g_2776>
   18b41:	89 c1                	mov    %eax,%ecx
   18b43:	8b 45 fc             	mov    -0x4(%rbp),%eax
   18b46:	89 c2                	mov    %eax,%edx
   18b48:	48 8d 35 4b 18 00 00 	lea    0x184b(%rip),%rsi        # 1a39a <g_2536+0x1316>
   18b4f:	48 89 cf             	mov    %rcx,%rdi
   18b52:	e8 9c 2b ff ff       	callq  b6f3 <transparent_crc>
   18b57:	c7 45 f0 00 00 00 00 	movl   $0x0,-0x10(%rbp)
   18b5e:	e9 a1 00 00 00       	jmpq   18c04 <main+0x1213>
   18b63:	c7 45 f4 00 00 00 00 	movl   $0x0,-0xc(%rbp)
   18b6a:	e9 87 00 00 00       	jmpq   18bf6 <main+0x1205>
   18b6f:	c7 45 f8 00 00 00 00 	movl   $0x0,-0x8(%rbp)
   18b76:	eb 74                	jmp    18bec <main+0x11fb>
   18b78:	8b 45 f8             	mov    -0x8(%rbp),%eax
   18b7b:	48 63 c8             	movslq %eax,%rcx
   18b7e:	8b 45 f0             	mov    -0x10(%rbp),%eax
   18b81:	48 63 d0             	movslq %eax,%rdx
   18b84:	8b 45 f4             	mov    -0xc(%rbp),%eax
   18b87:	48 63 f0             	movslq %eax,%rsi
   18b8a:	48 89 d0             	mov    %rdx,%rax
   18b8d:	48 c1 e0 03          	shl    $0x3,%rax
   18b91:	48 29 d0             	sub    %rdx,%rax
   18b94:	48 01 f0             	add    %rsi,%rax
   18b97:	48 c1 e0 02          	shl    $0x2,%rax
   18b9b:	48 01 c8             	add    %rcx,%rax
   18b9e:	48 8d 14 85 00 00 00 	lea    0x0(,%rax,4),%rdx
   18ba5:	00 
   18ba6:	48 8d 05 13 56 00 00 	lea    0x5613(%rip),%rax        # 1e1c0 <g_2805>
   18bad:	8b 04 02             	mov    (%rdx,%rax,1),%eax
   18bb0:	89 c1                	mov    %eax,%ecx
   18bb2:	8b 45 fc             	mov    -0x4(%rbp),%eax
   18bb5:	89 c2                	mov    %eax,%edx
   18bb7:	48 8d 35 e6 17 00 00 	lea    0x17e6(%rip),%rsi        # 1a3a4 <g_2536+0x1320>
   18bbe:	48 89 cf             	mov    %rcx,%rdi
   18bc1:	e8 2d 2b ff ff       	callq  b6f3 <transparent_crc>
   18bc6:	83 7d fc 00          	cmpl   $0x0,-0x4(%rbp)
   18bca:	74 1c                	je     18be8 <main+0x11f7>
   18bcc:	8b 4d f8             	mov    -0x8(%rbp),%ecx
   18bcf:	8b 55 f4             	mov    -0xc(%rbp),%edx
   18bd2:	8b 45 f0             	mov    -0x10(%rbp),%eax
   18bd5:	89 c6                	mov    %eax,%esi
   18bd7:	48 8d 3d 0c 15 00 00 	lea    0x150c(%rip),%rdi        # 1a0ea <g_2536+0x1066>
   18bde:	b8 00 00 00 00       	mov    $0x0,%eax
   18be3:	e8 98 14 ff ff       	callq  a080 <printf@plt>
   18be8:	83 45 f8 01          	addl   $0x1,-0x8(%rbp)
   18bec:	83 7d f8 03          	cmpl   $0x3,-0x8(%rbp)
   18bf0:	7e 86                	jle    18b78 <main+0x1187>
   18bf2:	83 45 f4 01          	addl   $0x1,-0xc(%rbp)
   18bf6:	83 7d f4 06          	cmpl   $0x6,-0xc(%rbp)
   18bfa:	0f 8e 6f ff ff ff    	jle    18b6f <main+0x117e>
   18c00:	83 45 f0 01          	addl   $0x1,-0x10(%rbp)
   18c04:	83 7d f0 02          	cmpl   $0x2,-0x10(%rbp)
   18c08:	0f 8e 55 ff ff ff    	jle    18b63 <main+0x1172>
   18c0e:	8b 05 fc 56 00 00    	mov    0x56fc(%rip),%eax        # 1e310 <g_2883>
   18c14:	89 c1                	mov    %eax,%ecx
   18c16:	8b 45 fc             	mov    -0x4(%rbp),%eax
   18c19:	89 c2                	mov    %eax,%edx
   18c1b:	48 8d 35 92 17 00 00 	lea    0x1792(%rip),%rsi        # 1a3b4 <g_2536+0x1330>
   18c22:	48 89 cf             	mov    %rcx,%rdi
   18c25:	e8 c9 2a ff ff       	callq  b6f3 <transparent_crc>
   18c2a:	8b 05 e4 56 00 00    	mov    0x56e4(%rip),%eax        # 1e314 <g_2885>
   18c30:	89 c1                	mov    %eax,%ecx
   18c32:	8b 45 fc             	mov    -0x4(%rbp),%eax
   18c35:	89 c2                	mov    %eax,%edx
   18c37:	48 8d 35 80 17 00 00 	lea    0x1780(%rip),%rsi        # 1a3be <g_2536+0x133a>
   18c3e:	48 89 cf             	mov    %rcx,%rdi
   18c41:	e8 ad 2a ff ff       	callq  b6f3 <transparent_crc>
   18c46:	c7 45 f0 00 00 00 00 	movl   $0x0,-0x10(%rbp)
   18c4d:	eb 4d                	jmp    18c9c <main+0x12ab>
   18c4f:	8b 45 f0             	mov    -0x10(%rbp),%eax
   18c52:	48 98                	cltq   
   18c54:	48 8d 14 85 00 00 00 	lea    0x0(,%rax,4),%rdx
   18c5b:	00 
   18c5c:	48 8d 05 b5 56 00 00 	lea    0x56b5(%rip),%rax        # 1e318 <g_2949>
   18c63:	8b 04 02             	mov    (%rdx,%rax,1),%eax
   18c66:	89 c1                	mov    %eax,%ecx
   18c68:	8b 45 fc             	mov    -0x4(%rbp),%eax
   18c6b:	89 c2                	mov    %eax,%edx
   18c6d:	48 8d 35 54 17 00 00 	lea    0x1754(%rip),%rsi        # 1a3c8 <g_2536+0x1344>
   18c74:	48 89 cf             	mov    %rcx,%rdi
   18c77:	e8 77 2a ff ff       	callq  b6f3 <transparent_crc>
   18c7c:	83 7d fc 00          	cmpl   $0x0,-0x4(%rbp)
   18c80:	74 16                	je     18c98 <main+0x12a7>
   18c82:	8b 45 f0             	mov    -0x10(%rbp),%eax
   18c85:	89 c6                	mov    %eax,%esi
   18c87:	48 8d 3d d5 14 00 00 	lea    0x14d5(%rip),%rdi        # 1a163 <g_2536+0x10df>
   18c8e:	b8 00 00 00 00       	mov    $0x0,%eax
   18c93:	e8 e8 13 ff ff       	callq  a080 <printf@plt>
   18c98:	83 45 f0 01          	addl   $0x1,-0x10(%rbp)
   18c9c:	83 7d f0 01          	cmpl   $0x1,-0x10(%rbp)
   18ca0:	7e ad                	jle    18c4f <main+0x125e>
   18ca2:	8b 05 78 56 00 00    	mov    0x5678(%rip),%eax        # 1e320 <g_2992>
   18ca8:	89 c1                	mov    %eax,%ecx
   18caa:	8b 45 fc             	mov    -0x4(%rbp),%eax
   18cad:	89 c2                	mov    %eax,%edx
   18caf:	48 8d 35 1f 17 00 00 	lea    0x171f(%rip),%rsi        # 1a3d5 <g_2536+0x1351>
   18cb6:	48 89 cf             	mov    %rcx,%rdi
   18cb9:	e8 35 2a ff ff       	callq  b6f3 <transparent_crc>
   18cbe:	8b 05 60 56 00 00    	mov    0x5660(%rip),%eax        # 1e324 <g_3061>
   18cc4:	89 c1                	mov    %eax,%ecx
   18cc6:	8b 45 fc             	mov    -0x4(%rbp),%eax
   18cc9:	89 c2                	mov    %eax,%edx
   18ccb:	48 8d 35 0a 17 00 00 	lea    0x170a(%rip),%rsi        # 1a3dc <g_2536+0x1358>
   18cd2:	48 89 cf             	mov    %rcx,%rdi
   18cd5:	e8 19 2a ff ff       	callq  b6f3 <transparent_crc>
   18cda:	8b 05 48 56 00 00    	mov    0x5648(%rip),%eax        # 1e328 <g_3068>
   18ce0:	48 98                	cltq   
   18ce2:	8b 55 fc             	mov    -0x4(%rbp),%edx
   18ce5:	48 8d 35 fa 16 00 00 	lea    0x16fa(%rip),%rsi        # 1a3e6 <g_2536+0x1362>
   18cec:	48 89 c7             	mov    %rax,%rdi
   18cef:	e8 ff 29 ff ff       	callq  b6f3 <transparent_crc>
   18cf4:	8b 05 26 43 00 00    	mov    0x4326(%rip),%eax        # 1d020 <crc32_context>
   18cfa:	f7 d0                	not    %eax
   18cfc:	89 c2                	mov    %eax,%edx
   18cfe:	8b 45 fc             	mov    -0x4(%rbp),%eax
   18d01:	89 c6                	mov    %eax,%esi
   18d03:	89 d7                	mov    %edx,%edi
   18d05:	e8 8a 14 ff ff       	callq  a194 <platform_main_end>
   18d0a:	b8 00 00 00 00       	mov    $0x0,%eax
   18d0f:	c9                   	leaveq 
   18d10:	c3                   	retq   
   18d11:	66 2e 0f 1f 84 00 00 	nopw   %cs:0x0(%rax,%rax,1)
   18d18:	00 00 00 
   18d1b:	0f 1f 44 00 00       	nopl   0x0(%rax,%rax,1)

0000000000018d20 <__libc_csu_init>:
   18d20:	f3 0f 1e fa          	endbr64 
   18d24:	41 57                	push   %r15
   18d26:	4c 8d 3d e3 3f 00 00 	lea    0x3fe3(%rip),%r15        # 1cd10 <__frame_dummy_init_array_entry>
   18d2d:	41 56                	push   %r14
   18d2f:	49 89 d6             	mov    %rdx,%r14
   18d32:	41 55                	push   %r13
   18d34:	49 89 f5             	mov    %rsi,%r13
   18d37:	41 54                	push   %r12
   18d39:	41 89 fc             	mov    %edi,%r12d
   18d3c:	55                   	push   %rbp
   18d3d:	48 8d 2d d4 3f 00 00 	lea    0x3fd4(%rip),%rbp        # 1cd18 <__do_global_dtors_aux_fini_array_entry>
   18d44:	53                   	push   %rbx
   18d45:	4c 29 fd             	sub    %r15,%rbp
   18d48:	48 83 ec 08          	sub    $0x8,%rsp
   18d4c:	e8 af 12 ff ff       	callq  a000 <_init>
   18d51:	48 c1 fd 03          	sar    $0x3,%rbp
   18d55:	74 1f                	je     18d76 <__libc_csu_init+0x56>
   18d57:	31 db                	xor    %ebx,%ebx
   18d59:	0f 1f 80 00 00 00 00 	nopl   0x0(%rax)
   18d60:	4c 89 f2             	mov    %r14,%rdx
   18d63:	4c 89 ee             	mov    %r13,%rsi
   18d66:	44 89 e7             	mov    %r12d,%edi
   18d69:	41 ff 14 df          	callq  *(%r15,%rbx,8)
   18d6d:	48 83 c3 01          	add    $0x1,%rbx
   18d71:	48 39 dd             	cmp    %rbx,%rbp
   18d74:	75 ea                	jne    18d60 <__libc_csu_init+0x40>
   18d76:	48 83 c4 08          	add    $0x8,%rsp
   18d7a:	5b                   	pop    %rbx
   18d7b:	5d                   	pop    %rbp
   18d7c:	41 5c                	pop    %r12
   18d7e:	41 5d                	pop    %r13
   18d80:	41 5e                	pop    %r14
   18d82:	41 5f                	pop    %r15
   18d84:	c3                   	retq   
   18d85:	66 66 2e 0f 1f 84 00 	data16 nopw %cs:0x0(%rax,%rax,1)
   18d8c:	00 00 00 00 

0000000000018d90 <__libc_csu_fini>:
   18d90:	f3 0f 1e fa          	endbr64 
   18d94:	c3                   	retq   
