


Disassembly of section .text:

00000000000090a0 <_start>:
    90a0:	f3 0f 1e fa          	endbr64 
    90a4:	31 ed                	xor    %ebp,%ebp
    90a6:	49 89 d1             	mov    %rdx,%r9
    90a9:	5e                   	pop    %rsi
    90aa:	48 89 e2             	mov    %rsp,%rdx
    90ad:	48 83 e4 f0          	and    $0xfffffffffffffff0,%rsp
    90b1:	50                   	push   %rax
    90b2:	54                   	push   %rsp
    90b3:	4c 8d 05 b6 8a 00 00 	lea    0x8ab6(%rip),%r8        # 11b70 <__libc_csu_fini>
    90ba:	48 8d 0d 3f 8a 00 00 	lea    0x8a3f(%rip),%rcx        # 11b00 <__libc_csu_init>
    90c1:	48 8d 3d d5 81 00 00 	lea    0x81d5(%rip),%rdi        # 1129d <main>
    90c8:	ff 15 fa be 00 00    	callq  *0xbefa(%rip)        # 14fc8 <__libc_start_main@GLIBC_2.2.5>
    90ce:	f4                   	hlt    
    90cf:	90                   	nop

00000000000090d0 <deregister_tm_clones>:
    90d0:	48 8d 3d 79 f4 00 00 	lea    0xf479(%rip),%rdi        # 18550 <__TMC_END__>
    90d7:	48 8d 05 72 f4 00 00 	lea    0xf472(%rip),%rax        # 18550 <__TMC_END__>
    90de:	48 39 f8             	cmp    %rdi,%rax
    90e1:	74 15                	je     90f8 <deregister_tm_clones+0x28>
    90e3:	48 8b 05 d6 be 00 00 	mov    0xbed6(%rip),%rax        # 14fc0 <_ITM_deregisterTMCloneTable>
    90ea:	48 85 c0             	test   %rax,%rax
    90ed:	74 09                	je     90f8 <deregister_tm_clones+0x28>
    90ef:	ff e0                	jmpq   *%rax
    90f1:	0f 1f 80 00 00 00 00 	nopl   0x0(%rax)
    90f8:	c3                   	retq   
    90f9:	0f 1f 80 00 00 00 00 	nopl   0x0(%rax)

0000000000009100 <register_tm_clones>:
    9100:	48 8d 3d 49 f4 00 00 	lea    0xf449(%rip),%rdi        # 18550 <__TMC_END__>
    9107:	48 8d 35 42 f4 00 00 	lea    0xf442(%rip),%rsi        # 18550 <__TMC_END__>
    910e:	48 29 fe             	sub    %rdi,%rsi
    9111:	48 89 f0             	mov    %rsi,%rax
    9114:	48 c1 ee 3f          	shr    $0x3f,%rsi
    9118:	48 c1 f8 03          	sar    $0x3,%rax
    911c:	48 01 c6             	add    %rax,%rsi
    911f:	48 d1 fe             	sar    %rsi
    9122:	74 14                	je     9138 <register_tm_clones+0x38>
    9124:	48 8b 05 ad be 00 00 	mov    0xbead(%rip),%rax        # 14fd8 <_ITM_registerTMCloneTable>
    912b:	48 85 c0             	test   %rax,%rax
    912e:	74 08                	je     9138 <register_tm_clones+0x38>
    9130:	ff e0                	jmpq   *%rax
    9132:	66 0f 1f 44 00 00    	nopw   0x0(%rax,%rax,1)
    9138:	c3                   	retq   
    9139:	0f 1f 80 00 00 00 00 	nopl   0x0(%rax)

0000000000009140 <__do_global_dtors_aux>:
    9140:	f3 0f 1e fa          	endbr64 
    9144:	80 3d 15 f4 00 00 00 	cmpb   $0x0,0xf415(%rip)        # 18560 <completed.8061>
    914b:	75 2b                	jne    9178 <__do_global_dtors_aux+0x38>
    914d:	55                   	push   %rbp
    914e:	48 83 3d 8a be 00 00 	cmpq   $0x0,0xbe8a(%rip)        # 14fe0 <__cxa_finalize@GLIBC_2.2.5>
    9155:	00 
    9156:	48 89 e5             	mov    %rsp,%rbp
    9159:	74 0c                	je     9167 <__do_global_dtors_aux+0x27>
    915b:	48 8b 3d a6 be 00 00 	mov    0xbea6(%rip),%rdi        # 15008 <__dso_handle>
    9162:	e8 f9 fe ff ff       	callq  9060 <__cxa_finalize@plt>
    9167:	e8 64 ff ff ff       	callq  90d0 <deregister_tm_clones>
    916c:	c6 05 ed f3 00 00 01 	movb   $0x1,0xf3ed(%rip)        # 18560 <completed.8061>
    9173:	5d                   	pop    %rbp
    9174:	c3                   	retq   
    9175:	0f 1f 00             	nopl   (%rax)
    9178:	c3                   	retq   
    9179:	0f 1f 80 00 00 00 00 	nopl   0x0(%rax)

0000000000009180 <frame_dummy>:
    9180:	f3 0f 1e fa          	endbr64 
    9184:	e9 77 ff ff ff       	jmpq   9100 <register_tm_clones>

0000000000009189 <platform_main_begin>:
    9189:	f3 0f 1e fa          	endbr64 
    918d:	55                   	push   %rbp
    918e:	48 89 e5             	mov    %rsp,%rbp
    9191:	90                   	nop
    9192:	5d                   	pop    %rbp
    9193:	c3                   	retq   

0000000000009194 <platform_main_end>:
    9194:	f3 0f 1e fa          	endbr64 
    9198:	55                   	push   %rbp
    9199:	48 89 e5             	mov    %rsp,%rbp
    919c:	48 83 ec 10          	sub    $0x10,%rsp
    91a0:	89 7d fc             	mov    %edi,-0x4(%rbp)
    91a3:	89 75 f8             	mov    %esi,-0x8(%rbp)
    91a6:	8b 45 fc             	mov    -0x4(%rbp),%eax
    91a9:	89 c6                	mov    %eax,%esi
    91ab:	48 8d 3d 5e 8e 00 00 	lea    0x8e5e(%rip),%rdi        # 12010 <_IO_stdin_used+0x10>
    91b2:	b8 00 00 00 00       	mov    $0x0,%eax
    91b7:	e8 c4 fe ff ff       	callq  9080 <printf@plt>
    91bc:	90                   	nop
    91bd:	c9                   	leaveq 
    91be:	c3                   	retq   

00000000000091bf <safe_unary_minus_func_int8_t_s>:
    91bf:	f3 0f 1e fa          	endbr64 
    91c3:	55                   	push   %rbp
    91c4:	48 89 e5             	mov    %rsp,%rbp
    91c7:	89 f8                	mov    %edi,%eax
    91c9:	88 45 fc             	mov    %al,-0x4(%rbp)
    91cc:	0f b6 45 fc          	movzbl -0x4(%rbp),%eax
    91d0:	f7 d8                	neg    %eax
    91d2:	5d                   	pop    %rbp
    91d3:	c3                   	retq   

00000000000091d4 <safe_add_func_int8_t_s_s>:
    91d4:	f3 0f 1e fa          	endbr64 
    91d8:	55                   	push   %rbp
    91d9:	48 89 e5             	mov    %rsp,%rbp
    91dc:	89 fa                	mov    %edi,%edx
    91de:	89 f0                	mov    %esi,%eax
    91e0:	88 55 fc             	mov    %dl,-0x4(%rbp)
    91e3:	88 45 f8             	mov    %al,-0x8(%rbp)
    91e6:	0f b6 55 fc          	movzbl -0x4(%rbp),%edx
    91ea:	0f b6 45 f8          	movzbl -0x8(%rbp),%eax
    91ee:	01 d0                	add    %edx,%eax
    91f0:	5d                   	pop    %rbp
    91f1:	c3                   	retq   

00000000000091f2 <safe_sub_func_int8_t_s_s>:
    91f2:	f3 0f 1e fa          	endbr64 
    91f6:	55                   	push   %rbp
    91f7:	48 89 e5             	mov    %rsp,%rbp
    91fa:	89 fa                	mov    %edi,%edx
    91fc:	89 f0                	mov    %esi,%eax
    91fe:	88 55 fc             	mov    %dl,-0x4(%rbp)
    9201:	88 45 f8             	mov    %al,-0x8(%rbp)
    9204:	0f b6 55 fc          	movzbl -0x4(%rbp),%edx
    9208:	0f b6 45 f8          	movzbl -0x8(%rbp),%eax
    920c:	29 c2                	sub    %eax,%edx
    920e:	89 d0                	mov    %edx,%eax
    9210:	5d                   	pop    %rbp
    9211:	c3                   	retq   

0000000000009212 <safe_mul_func_int8_t_s_s>:
    9212:	f3 0f 1e fa          	endbr64 
    9216:	55                   	push   %rbp
    9217:	48 89 e5             	mov    %rsp,%rbp
    921a:	89 fa                	mov    %edi,%edx
    921c:	89 f0                	mov    %esi,%eax
    921e:	88 55 fc             	mov    %dl,-0x4(%rbp)
    9221:	88 45 f8             	mov    %al,-0x8(%rbp)
    9224:	0f b6 45 fc          	movzbl -0x4(%rbp),%eax
    9228:	0f b6 55 f8          	movzbl -0x8(%rbp),%edx
    922c:	0f af c2             	imul   %edx,%eax
    922f:	5d                   	pop    %rbp
    9230:	c3                   	retq   

0000000000009231 <safe_mod_func_int8_t_s_s>:
    9231:	f3 0f 1e fa          	endbr64 
    9235:	55                   	push   %rbp
    9236:	48 89 e5             	mov    %rsp,%rbp
    9239:	89 fa                	mov    %edi,%edx
    923b:	89 f0                	mov    %esi,%eax
    923d:	88 55 fc             	mov    %dl,-0x4(%rbp)
    9240:	88 45 f8             	mov    %al,-0x8(%rbp)
    9243:	80 7d f8 00          	cmpb   $0x0,-0x8(%rbp)
    9247:	74 1b                	je     9264 <safe_mod_func_int8_t_s_s+0x33>
    9249:	80 7d fc 80          	cmpb   $0x80,-0x4(%rbp)
    924d:	75 06                	jne    9255 <safe_mod_func_int8_t_s_s+0x24>
    924f:	80 7d f8 ff          	cmpb   $0xff,-0x8(%rbp)
    9253:	74 0f                	je     9264 <safe_mod_func_int8_t_s_s+0x33>
    9255:	0f be 45 fc          	movsbl -0x4(%rbp),%eax
    9259:	0f be 4d f8          	movsbl -0x8(%rbp),%ecx
    925d:	99                   	cltd   
    925e:	f7 f9                	idiv   %ecx
    9260:	89 d0                	mov    %edx,%eax
    9262:	eb 04                	jmp    9268 <safe_mod_func_int8_t_s_s+0x37>
    9264:	0f b6 45 fc          	movzbl -0x4(%rbp),%eax
    9268:	5d                   	pop    %rbp
    9269:	c3                   	retq   

000000000000926a <safe_div_func_int8_t_s_s>:
    926a:	f3 0f 1e fa          	endbr64 
    926e:	55                   	push   %rbp
    926f:	48 89 e5             	mov    %rsp,%rbp
    9272:	89 fa                	mov    %edi,%edx
    9274:	89 f0                	mov    %esi,%eax
    9276:	88 55 fc             	mov    %dl,-0x4(%rbp)
    9279:	88 45 f8             	mov    %al,-0x8(%rbp)
    927c:	80 7d f8 00          	cmpb   $0x0,-0x8(%rbp)
    9280:	74 19                	je     929b <safe_div_func_int8_t_s_s+0x31>
    9282:	80 7d fc 80          	cmpb   $0x80,-0x4(%rbp)
    9286:	75 06                	jne    928e <safe_div_func_int8_t_s_s+0x24>
    9288:	80 7d f8 ff          	cmpb   $0xff,-0x8(%rbp)
    928c:	74 0d                	je     929b <safe_div_func_int8_t_s_s+0x31>
    928e:	0f be 45 fc          	movsbl -0x4(%rbp),%eax
    9292:	0f be 4d f8          	movsbl -0x8(%rbp),%ecx
    9296:	99                   	cltd   
    9297:	f7 f9                	idiv   %ecx
    9299:	eb 04                	jmp    929f <safe_div_func_int8_t_s_s+0x35>
    929b:	0f b6 45 fc          	movzbl -0x4(%rbp),%eax
    929f:	5d                   	pop    %rbp
    92a0:	c3                   	retq   

00000000000092a1 <safe_lshift_func_int8_t_s_s>:
    92a1:	f3 0f 1e fa          	endbr64 
    92a5:	55                   	push   %rbp
    92a6:	48 89 e5             	mov    %rsp,%rbp
    92a9:	89 f8                	mov    %edi,%eax
    92ab:	89 75 f8             	mov    %esi,-0x8(%rbp)
    92ae:	88 45 fc             	mov    %al,-0x4(%rbp)
    92b1:	80 7d fc 00          	cmpb   $0x0,-0x4(%rbp)
    92b5:	78 31                	js     92e8 <safe_lshift_func_int8_t_s_s+0x47>
    92b7:	83 7d f8 00          	cmpl   $0x0,-0x8(%rbp)
    92bb:	78 2b                	js     92e8 <safe_lshift_func_int8_t_s_s+0x47>
    92bd:	83 7d f8 1f          	cmpl   $0x1f,-0x8(%rbp)
    92c1:	7f 25                	jg     92e8 <safe_lshift_func_int8_t_s_s+0x47>
    92c3:	0f be 55 fc          	movsbl -0x4(%rbp),%edx
    92c7:	8b 45 f8             	mov    -0x8(%rbp),%eax
    92ca:	be 7f 00 00 00       	mov    $0x7f,%esi
    92cf:	89 c1                	mov    %eax,%ecx
    92d1:	d3 fe                	sar    %cl,%esi
    92d3:	89 f0                	mov    %esi,%eax
    92d5:	39 c2                	cmp    %eax,%edx
    92d7:	7f 0f                	jg     92e8 <safe_lshift_func_int8_t_s_s+0x47>
    92d9:	0f be 55 fc          	movsbl -0x4(%rbp),%edx
    92dd:	8b 45 f8             	mov    -0x8(%rbp),%eax
    92e0:	89 c1                	mov    %eax,%ecx
    92e2:	d3 e2                	shl    %cl,%edx
    92e4:	89 d0                	mov    %edx,%eax
    92e6:	eb 04                	jmp    92ec <safe_lshift_func_int8_t_s_s+0x4b>
    92e8:	0f b6 45 fc          	movzbl -0x4(%rbp),%eax
    92ec:	5d                   	pop    %rbp
    92ed:	c3                   	retq   

00000000000092ee <safe_lshift_func_int8_t_s_u>:
    92ee:	f3 0f 1e fa          	endbr64 
    92f2:	55                   	push   %rbp
    92f3:	48 89 e5             	mov    %rsp,%rbp
    92f6:	89 f8                	mov    %edi,%eax
    92f8:	89 75 f8             	mov    %esi,-0x8(%rbp)
    92fb:	88 45 fc             	mov    %al,-0x4(%rbp)
    92fe:	80 7d fc 00          	cmpb   $0x0,-0x4(%rbp)
    9302:	78 2b                	js     932f <safe_lshift_func_int8_t_s_u+0x41>
    9304:	83 7d f8 1f          	cmpl   $0x1f,-0x8(%rbp)
    9308:	77 25                	ja     932f <safe_lshift_func_int8_t_s_u+0x41>
    930a:	0f be 55 fc          	movsbl -0x4(%rbp),%edx
    930e:	8b 45 f8             	mov    -0x8(%rbp),%eax
    9311:	be 7f 00 00 00       	mov    $0x7f,%esi
    9316:	89 c1                	mov    %eax,%ecx
    9318:	d3 fe                	sar    %cl,%esi
    931a:	89 f0                	mov    %esi,%eax
    931c:	39 c2                	cmp    %eax,%edx
    931e:	7f 0f                	jg     932f <safe_lshift_func_int8_t_s_u+0x41>
    9320:	0f be 55 fc          	movsbl -0x4(%rbp),%edx
    9324:	8b 45 f8             	mov    -0x8(%rbp),%eax
    9327:	89 c1                	mov    %eax,%ecx
    9329:	d3 e2                	shl    %cl,%edx
    932b:	89 d0                	mov    %edx,%eax
    932d:	eb 04                	jmp    9333 <safe_lshift_func_int8_t_s_u+0x45>
    932f:	0f b6 45 fc          	movzbl -0x4(%rbp),%eax
    9333:	5d                   	pop    %rbp
    9334:	c3                   	retq   

0000000000009335 <safe_rshift_func_int8_t_s_s>:
    9335:	f3 0f 1e fa          	endbr64 
    9339:	55                   	push   %rbp
    933a:	48 89 e5             	mov    %rsp,%rbp
    933d:	89 f8                	mov    %edi,%eax
    933f:	89 75 f8             	mov    %esi,-0x8(%rbp)
    9342:	88 45 fc             	mov    %al,-0x4(%rbp)
    9345:	80 7d fc 00          	cmpb   $0x0,-0x4(%rbp)
    9349:	78 1b                	js     9366 <safe_rshift_func_int8_t_s_s+0x31>
    934b:	83 7d f8 00          	cmpl   $0x0,-0x8(%rbp)
    934f:	78 15                	js     9366 <safe_rshift_func_int8_t_s_s+0x31>
    9351:	83 7d f8 1f          	cmpl   $0x1f,-0x8(%rbp)
    9355:	7f 0f                	jg     9366 <safe_rshift_func_int8_t_s_s+0x31>
    9357:	0f be 55 fc          	movsbl -0x4(%rbp),%edx
    935b:	8b 45 f8             	mov    -0x8(%rbp),%eax
    935e:	89 c1                	mov    %eax,%ecx
    9360:	d3 fa                	sar    %cl,%edx
    9362:	89 d0                	mov    %edx,%eax
    9364:	eb 04                	jmp    936a <safe_rshift_func_int8_t_s_s+0x35>
    9366:	0f b6 45 fc          	movzbl -0x4(%rbp),%eax
    936a:	5d                   	pop    %rbp
    936b:	c3                   	retq   

000000000000936c <safe_rshift_func_int8_t_s_u>:
    936c:	f3 0f 1e fa          	endbr64 
    9370:	55                   	push   %rbp
    9371:	48 89 e5             	mov    %rsp,%rbp
    9374:	89 f8                	mov    %edi,%eax
    9376:	89 75 f8             	mov    %esi,-0x8(%rbp)
    9379:	88 45 fc             	mov    %al,-0x4(%rbp)
    937c:	80 7d fc 00          	cmpb   $0x0,-0x4(%rbp)
    9380:	78 15                	js     9397 <safe_rshift_func_int8_t_s_u+0x2b>
    9382:	83 7d f8 1f          	cmpl   $0x1f,-0x8(%rbp)
    9386:	77 0f                	ja     9397 <safe_rshift_func_int8_t_s_u+0x2b>
    9388:	0f be 55 fc          	movsbl -0x4(%rbp),%edx
    938c:	8b 45 f8             	mov    -0x8(%rbp),%eax
    938f:	89 c1                	mov    %eax,%ecx
    9391:	d3 fa                	sar    %cl,%edx
    9393:	89 d0                	mov    %edx,%eax
    9395:	eb 04                	jmp    939b <safe_rshift_func_int8_t_s_u+0x2f>
    9397:	0f b6 45 fc          	movzbl -0x4(%rbp),%eax
    939b:	5d                   	pop    %rbp
    939c:	c3                   	retq   

000000000000939d <safe_unary_minus_func_int16_t_s>:
    939d:	f3 0f 1e fa          	endbr64 
    93a1:	55                   	push   %rbp
    93a2:	48 89 e5             	mov    %rsp,%rbp
    93a5:	89 f8                	mov    %edi,%eax
    93a7:	66 89 45 fc          	mov    %ax,-0x4(%rbp)
    93ab:	0f b7 45 fc          	movzwl -0x4(%rbp),%eax
    93af:	f7 d8                	neg    %eax
    93b1:	5d                   	pop    %rbp
    93b2:	c3                   	retq   

00000000000093b3 <safe_add_func_int16_t_s_s>:
    93b3:	f3 0f 1e fa          	endbr64 
    93b7:	55                   	push   %rbp
    93b8:	48 89 e5             	mov    %rsp,%rbp
    93bb:	89 fa                	mov    %edi,%edx
    93bd:	89 f0                	mov    %esi,%eax
    93bf:	66 89 55 fc          	mov    %dx,-0x4(%rbp)
    93c3:	66 89 45 f8          	mov    %ax,-0x8(%rbp)
    93c7:	0f b7 55 fc          	movzwl -0x4(%rbp),%edx
    93cb:	0f b7 45 f8          	movzwl -0x8(%rbp),%eax
    93cf:	01 d0                	add    %edx,%eax
    93d1:	5d                   	pop    %rbp
    93d2:	c3                   	retq   

00000000000093d3 <safe_sub_func_int16_t_s_s>:
    93d3:	f3 0f 1e fa          	endbr64 
    93d7:	55                   	push   %rbp
    93d8:	48 89 e5             	mov    %rsp,%rbp
    93db:	89 fa                	mov    %edi,%edx
    93dd:	89 f0                	mov    %esi,%eax
    93df:	66 89 55 fc          	mov    %dx,-0x4(%rbp)
    93e3:	66 89 45 f8          	mov    %ax,-0x8(%rbp)
    93e7:	0f b7 55 fc          	movzwl -0x4(%rbp),%edx
    93eb:	0f b7 45 f8          	movzwl -0x8(%rbp),%eax
    93ef:	29 c2                	sub    %eax,%edx
    93f1:	89 d0                	mov    %edx,%eax
    93f3:	5d                   	pop    %rbp
    93f4:	c3                   	retq   

00000000000093f5 <safe_mul_func_int16_t_s_s>:
    93f5:	f3 0f 1e fa          	endbr64 
    93f9:	55                   	push   %rbp
    93fa:	48 89 e5             	mov    %rsp,%rbp
    93fd:	89 fa                	mov    %edi,%edx
    93ff:	89 f0                	mov    %esi,%eax
    9401:	66 89 55 fc          	mov    %dx,-0x4(%rbp)
    9405:	66 89 45 f8          	mov    %ax,-0x8(%rbp)
    9409:	0f b7 55 fc          	movzwl -0x4(%rbp),%edx
    940d:	0f b7 45 f8          	movzwl -0x8(%rbp),%eax
    9411:	0f af c2             	imul   %edx,%eax
    9414:	5d                   	pop    %rbp
    9415:	c3                   	retq   

0000000000009416 <safe_mod_func_int16_t_s_s>:
    9416:	f3 0f 1e fa          	endbr64 
    941a:	55                   	push   %rbp
    941b:	48 89 e5             	mov    %rsp,%rbp
    941e:	89 fa                	mov    %edi,%edx
    9420:	89 f0                	mov    %esi,%eax
    9422:	66 89 55 fc          	mov    %dx,-0x4(%rbp)
    9426:	66 89 45 f8          	mov    %ax,-0x8(%rbp)
    942a:	66 83 7d f8 00       	cmpw   $0x0,-0x8(%rbp)
    942f:	74 1e                	je     944f <safe_mod_func_int16_t_s_s+0x39>
    9431:	66 81 7d fc 00 80    	cmpw   $0x8000,-0x4(%rbp)
    9437:	75 07                	jne    9440 <safe_mod_func_int16_t_s_s+0x2a>
    9439:	66 83 7d f8 ff       	cmpw   $0xffff,-0x8(%rbp)
    943e:	74 0f                	je     944f <safe_mod_func_int16_t_s_s+0x39>
    9440:	0f bf 45 fc          	movswl -0x4(%rbp),%eax
    9444:	0f bf 4d f8          	movswl -0x8(%rbp),%ecx
    9448:	99                   	cltd   
    9449:	f7 f9                	idiv   %ecx
    944b:	89 d0                	mov    %edx,%eax
    944d:	eb 04                	jmp    9453 <safe_mod_func_int16_t_s_s+0x3d>
    944f:	0f b7 45 fc          	movzwl -0x4(%rbp),%eax
    9453:	5d                   	pop    %rbp
    9454:	c3                   	retq   

0000000000009455 <safe_div_func_int16_t_s_s>:
    9455:	f3 0f 1e fa          	endbr64 
    9459:	55                   	push   %rbp
    945a:	48 89 e5             	mov    %rsp,%rbp
    945d:	89 fa                	mov    %edi,%edx
    945f:	89 f0                	mov    %esi,%eax
    9461:	66 89 55 fc          	mov    %dx,-0x4(%rbp)
    9465:	66 89 45 f8          	mov    %ax,-0x8(%rbp)
    9469:	66 83 7d f8 00       	cmpw   $0x0,-0x8(%rbp)
    946e:	74 1c                	je     948c <safe_div_func_int16_t_s_s+0x37>
    9470:	66 81 7d fc 00 80    	cmpw   $0x8000,-0x4(%rbp)
    9476:	75 07                	jne    947f <safe_div_func_int16_t_s_s+0x2a>
    9478:	66 83 7d f8 ff       	cmpw   $0xffff,-0x8(%rbp)
    947d:	74 0d                	je     948c <safe_div_func_int16_t_s_s+0x37>
    947f:	0f bf 45 fc          	movswl -0x4(%rbp),%eax
    9483:	0f bf 4d f8          	movswl -0x8(%rbp),%ecx
    9487:	99                   	cltd   
    9488:	f7 f9                	idiv   %ecx
    948a:	eb 04                	jmp    9490 <safe_div_func_int16_t_s_s+0x3b>
    948c:	0f b7 45 fc          	movzwl -0x4(%rbp),%eax
    9490:	5d                   	pop    %rbp
    9491:	c3                   	retq   

0000000000009492 <safe_lshift_func_int16_t_s_s>:
    9492:	f3 0f 1e fa          	endbr64 
    9496:	55                   	push   %rbp
    9497:	48 89 e5             	mov    %rsp,%rbp
    949a:	89 f8                	mov    %edi,%eax
    949c:	89 75 f8             	mov    %esi,-0x8(%rbp)
    949f:	66 89 45 fc          	mov    %ax,-0x4(%rbp)
    94a3:	66 83 7d fc 00       	cmpw   $0x0,-0x4(%rbp)
    94a8:	78 31                	js     94db <safe_lshift_func_int16_t_s_s+0x49>
    94aa:	83 7d f8 00          	cmpl   $0x0,-0x8(%rbp)
    94ae:	78 2b                	js     94db <safe_lshift_func_int16_t_s_s+0x49>
    94b0:	83 7d f8 1f          	cmpl   $0x1f,-0x8(%rbp)
    94b4:	7f 25                	jg     94db <safe_lshift_func_int16_t_s_s+0x49>
    94b6:	0f bf 55 fc          	movswl -0x4(%rbp),%edx
    94ba:	8b 45 f8             	mov    -0x8(%rbp),%eax
    94bd:	be ff 7f 00 00       	mov    $0x7fff,%esi
    94c2:	89 c1                	mov    %eax,%ecx
    94c4:	d3 fe                	sar    %cl,%esi
    94c6:	89 f0                	mov    %esi,%eax
    94c8:	39 c2                	cmp    %eax,%edx
    94ca:	7f 0f                	jg     94db <safe_lshift_func_int16_t_s_s+0x49>
    94cc:	0f bf 55 fc          	movswl -0x4(%rbp),%edx
    94d0:	8b 45 f8             	mov    -0x8(%rbp),%eax
    94d3:	89 c1                	mov    %eax,%ecx
    94d5:	d3 e2                	shl    %cl,%edx
    94d7:	89 d0                	mov    %edx,%eax
    94d9:	eb 04                	jmp    94df <safe_lshift_func_int16_t_s_s+0x4d>
    94db:	0f b7 45 fc          	movzwl -0x4(%rbp),%eax
    94df:	5d                   	pop    %rbp
    94e0:	c3                   	retq   

00000000000094e1 <safe_lshift_func_int16_t_s_u>:
    94e1:	f3 0f 1e fa          	endbr64 
    94e5:	55                   	push   %rbp
    94e6:	48 89 e5             	mov    %rsp,%rbp
    94e9:	89 f8                	mov    %edi,%eax
    94eb:	89 75 f8             	mov    %esi,-0x8(%rbp)
    94ee:	66 89 45 fc          	mov    %ax,-0x4(%rbp)
    94f2:	66 83 7d fc 00       	cmpw   $0x0,-0x4(%rbp)
    94f7:	78 2b                	js     9524 <safe_lshift_func_int16_t_s_u+0x43>
    94f9:	83 7d f8 1f          	cmpl   $0x1f,-0x8(%rbp)
    94fd:	77 25                	ja     9524 <safe_lshift_func_int16_t_s_u+0x43>
    94ff:	0f bf 55 fc          	movswl -0x4(%rbp),%edx
    9503:	8b 45 f8             	mov    -0x8(%rbp),%eax
    9506:	be ff 7f 00 00       	mov    $0x7fff,%esi
    950b:	89 c1                	mov    %eax,%ecx
    950d:	d3 fe                	sar    %cl,%esi
    950f:	89 f0                	mov    %esi,%eax
    9511:	39 c2                	cmp    %eax,%edx
    9513:	7f 0f                	jg     9524 <safe_lshift_func_int16_t_s_u+0x43>
    9515:	0f bf 55 fc          	movswl -0x4(%rbp),%edx
    9519:	8b 45 f8             	mov    -0x8(%rbp),%eax
    951c:	89 c1                	mov    %eax,%ecx
    951e:	d3 e2                	shl    %cl,%edx
    9520:	89 d0                	mov    %edx,%eax
    9522:	eb 04                	jmp    9528 <safe_lshift_func_int16_t_s_u+0x47>
    9524:	0f b7 45 fc          	movzwl -0x4(%rbp),%eax
    9528:	5d                   	pop    %rbp
    9529:	c3                   	retq   

000000000000952a <safe_rshift_func_int16_t_s_s>:
    952a:	f3 0f 1e fa          	endbr64 
    952e:	55                   	push   %rbp
    952f:	48 89 e5             	mov    %rsp,%rbp
    9532:	89 f8                	mov    %edi,%eax
    9534:	89 75 f8             	mov    %esi,-0x8(%rbp)
    9537:	66 89 45 fc          	mov    %ax,-0x4(%rbp)
    953b:	66 83 7d fc 00       	cmpw   $0x0,-0x4(%rbp)
    9540:	78 1b                	js     955d <safe_rshift_func_int16_t_s_s+0x33>
    9542:	83 7d f8 00          	cmpl   $0x0,-0x8(%rbp)
    9546:	78 15                	js     955d <safe_rshift_func_int16_t_s_s+0x33>
    9548:	83 7d f8 1f          	cmpl   $0x1f,-0x8(%rbp)
    954c:	7f 0f                	jg     955d <safe_rshift_func_int16_t_s_s+0x33>
    954e:	0f bf 55 fc          	movswl -0x4(%rbp),%edx
    9552:	8b 45 f8             	mov    -0x8(%rbp),%eax
    9555:	89 c1                	mov    %eax,%ecx
    9557:	d3 fa                	sar    %cl,%edx
    9559:	89 d0                	mov    %edx,%eax
    955b:	eb 04                	jmp    9561 <safe_rshift_func_int16_t_s_s+0x37>
    955d:	0f b7 45 fc          	movzwl -0x4(%rbp),%eax
    9561:	5d                   	pop    %rbp
    9562:	c3                   	retq   

0000000000009563 <safe_rshift_func_int16_t_s_u>:
    9563:	f3 0f 1e fa          	endbr64 
    9567:	55                   	push   %rbp
    9568:	48 89 e5             	mov    %rsp,%rbp
    956b:	89 f8                	mov    %edi,%eax
    956d:	89 75 f8             	mov    %esi,-0x8(%rbp)
    9570:	66 89 45 fc          	mov    %ax,-0x4(%rbp)
    9574:	66 83 7d fc 00       	cmpw   $0x0,-0x4(%rbp)
    9579:	78 15                	js     9590 <safe_rshift_func_int16_t_s_u+0x2d>
    957b:	83 7d f8 1f          	cmpl   $0x1f,-0x8(%rbp)
    957f:	77 0f                	ja     9590 <safe_rshift_func_int16_t_s_u+0x2d>
    9581:	0f bf 55 fc          	movswl -0x4(%rbp),%edx
    9585:	8b 45 f8             	mov    -0x8(%rbp),%eax
    9588:	89 c1                	mov    %eax,%ecx
    958a:	d3 fa                	sar    %cl,%edx
    958c:	89 d0                	mov    %edx,%eax
    958e:	eb 04                	jmp    9594 <safe_rshift_func_int16_t_s_u+0x31>
    9590:	0f b7 45 fc          	movzwl -0x4(%rbp),%eax
    9594:	5d                   	pop    %rbp
    9595:	c3                   	retq   

0000000000009596 <safe_unary_minus_func_int32_t_s>:
    9596:	f3 0f 1e fa          	endbr64 
    959a:	55                   	push   %rbp
    959b:	48 89 e5             	mov    %rsp,%rbp
    959e:	89 7d fc             	mov    %edi,-0x4(%rbp)
    95a1:	81 7d fc 00 00 00 80 	cmpl   $0x80000000,-0x4(%rbp)
    95a8:	74 07                	je     95b1 <safe_unary_minus_func_int32_t_s+0x1b>
    95aa:	8b 45 fc             	mov    -0x4(%rbp),%eax
    95ad:	f7 d8                	neg    %eax
    95af:	eb 03                	jmp    95b4 <safe_unary_minus_func_int32_t_s+0x1e>
    95b1:	8b 45 fc             	mov    -0x4(%rbp),%eax
    95b4:	5d                   	pop    %rbp
    95b5:	c3                   	retq   

00000000000095b6 <safe_add_func_int32_t_s_s>:
    95b6:	f3 0f 1e fa          	endbr64 
    95ba:	55                   	push   %rbp
    95bb:	48 89 e5             	mov    %rsp,%rbp
    95be:	89 7d fc             	mov    %edi,-0x4(%rbp)
    95c1:	89 75 f8             	mov    %esi,-0x8(%rbp)
    95c4:	83 7d fc 00          	cmpl   $0x0,-0x4(%rbp)
    95c8:	7e 13                	jle    95dd <safe_add_func_int32_t_s_s+0x27>
    95ca:	83 7d f8 00          	cmpl   $0x0,-0x8(%rbp)
    95ce:	7e 0d                	jle    95dd <safe_add_func_int32_t_s_s+0x27>
    95d0:	b8 ff ff ff 7f       	mov    $0x7fffffff,%eax
    95d5:	2b 45 f8             	sub    -0x8(%rbp),%eax
    95d8:	39 45 fc             	cmp    %eax,-0x4(%rbp)
    95db:	7f 23                	jg     9600 <safe_add_func_int32_t_s_s+0x4a>
    95dd:	83 7d fc 00          	cmpl   $0x0,-0x4(%rbp)
    95e1:	79 13                	jns    95f6 <safe_add_func_int32_t_s_s+0x40>
    95e3:	83 7d f8 00          	cmpl   $0x0,-0x8(%rbp)
    95e7:	79 0d                	jns    95f6 <safe_add_func_int32_t_s_s+0x40>
    95e9:	b8 00 00 00 80       	mov    $0x80000000,%eax
    95ee:	2b 45 f8             	sub    -0x8(%rbp),%eax
    95f1:	39 45 fc             	cmp    %eax,-0x4(%rbp)
    95f4:	7c 0a                	jl     9600 <safe_add_func_int32_t_s_s+0x4a>
    95f6:	8b 55 fc             	mov    -0x4(%rbp),%edx
    95f9:	8b 45 f8             	mov    -0x8(%rbp),%eax
    95fc:	01 d0                	add    %edx,%eax
    95fe:	eb 03                	jmp    9603 <safe_add_func_int32_t_s_s+0x4d>
    9600:	8b 45 fc             	mov    -0x4(%rbp),%eax
    9603:	5d                   	pop    %rbp
    9604:	c3                   	retq   

0000000000009605 <safe_sub_func_int32_t_s_s>:
    9605:	f3 0f 1e fa          	endbr64 
    9609:	55                   	push   %rbp
    960a:	48 89 e5             	mov    %rsp,%rbp
    960d:	89 7d fc             	mov    %edi,-0x4(%rbp)
    9610:	89 75 f8             	mov    %esi,-0x8(%rbp)
    9613:	8b 45 fc             	mov    -0x4(%rbp),%eax
    9616:	33 45 f8             	xor    -0x8(%rbp),%eax
    9619:	89 c2                	mov    %eax,%edx
    961b:	8b 45 fc             	mov    -0x4(%rbp),%eax
    961e:	33 45 f8             	xor    -0x8(%rbp),%eax
    9621:	25 00 00 00 80       	and    $0x80000000,%eax
    9626:	33 45 fc             	xor    -0x4(%rbp),%eax
    9629:	2b 45 f8             	sub    -0x8(%rbp),%eax
    962c:	33 45 f8             	xor    -0x8(%rbp),%eax
    962f:	21 d0                	and    %edx,%eax
    9631:	85 c0                	test   %eax,%eax
    9633:	78 08                	js     963d <safe_sub_func_int32_t_s_s+0x38>
    9635:	8b 45 fc             	mov    -0x4(%rbp),%eax
    9638:	2b 45 f8             	sub    -0x8(%rbp),%eax
    963b:	eb 03                	jmp    9640 <safe_sub_func_int32_t_s_s+0x3b>
    963d:	8b 45 fc             	mov    -0x4(%rbp),%eax
    9640:	5d                   	pop    %rbp
    9641:	c3                   	retq   

0000000000009642 <safe_mul_func_int32_t_s_s>:
    9642:	f3 0f 1e fa          	endbr64 
    9646:	55                   	push   %rbp
    9647:	48 89 e5             	mov    %rsp,%rbp
    964a:	89 7d fc             	mov    %edi,-0x4(%rbp)
    964d:	89 75 f8             	mov    %esi,-0x8(%rbp)
    9650:	83 7d fc 00          	cmpl   $0x0,-0x4(%rbp)
    9654:	7e 14                	jle    966a <safe_mul_func_int32_t_s_s+0x28>
    9656:	83 7d f8 00          	cmpl   $0x0,-0x8(%rbp)
    965a:	7e 0e                	jle    966a <safe_mul_func_int32_t_s_s+0x28>
    965c:	b8 ff ff ff 7f       	mov    $0x7fffffff,%eax
    9661:	99                   	cltd   
    9662:	f7 7d f8             	idivl  -0x8(%rbp)
    9665:	39 45 fc             	cmp    %eax,-0x4(%rbp)
    9668:	7f 5d                	jg     96c7 <safe_mul_func_int32_t_s_s+0x85>
    966a:	83 7d fc 00          	cmpl   $0x0,-0x4(%rbp)
    966e:	7e 14                	jle    9684 <safe_mul_func_int32_t_s_s+0x42>
    9670:	83 7d f8 00          	cmpl   $0x0,-0x8(%rbp)
    9674:	7f 0e                	jg     9684 <safe_mul_func_int32_t_s_s+0x42>
    9676:	b8 00 00 00 80       	mov    $0x80000000,%eax
    967b:	99                   	cltd   
    967c:	f7 7d fc             	idivl  -0x4(%rbp)
    967f:	39 45 f8             	cmp    %eax,-0x8(%rbp)
    9682:	7c 43                	jl     96c7 <safe_mul_func_int32_t_s_s+0x85>
    9684:	83 7d fc 00          	cmpl   $0x0,-0x4(%rbp)
    9688:	7f 14                	jg     969e <safe_mul_func_int32_t_s_s+0x5c>
    968a:	83 7d f8 00          	cmpl   $0x0,-0x8(%rbp)
    968e:	7e 0e                	jle    969e <safe_mul_func_int32_t_s_s+0x5c>
    9690:	b8 00 00 00 80       	mov    $0x80000000,%eax
    9695:	99                   	cltd   
    9696:	f7 7d f8             	idivl  -0x8(%rbp)
    9699:	39 45 fc             	cmp    %eax,-0x4(%rbp)
    969c:	7c 29                	jl     96c7 <safe_mul_func_int32_t_s_s+0x85>
    969e:	83 7d fc 00          	cmpl   $0x0,-0x4(%rbp)
    96a2:	7f 1a                	jg     96be <safe_mul_func_int32_t_s_s+0x7c>
    96a4:	83 7d f8 00          	cmpl   $0x0,-0x8(%rbp)
    96a8:	7f 14                	jg     96be <safe_mul_func_int32_t_s_s+0x7c>
    96aa:	83 7d fc 00          	cmpl   $0x0,-0x4(%rbp)
    96ae:	74 0e                	je     96be <safe_mul_func_int32_t_s_s+0x7c>
    96b0:	b8 ff ff ff 7f       	mov    $0x7fffffff,%eax
    96b5:	99                   	cltd   
    96b6:	f7 7d fc             	idivl  -0x4(%rbp)
    96b9:	39 45 f8             	cmp    %eax,-0x8(%rbp)
    96bc:	7c 09                	jl     96c7 <safe_mul_func_int32_t_s_s+0x85>
    96be:	8b 45 fc             	mov    -0x4(%rbp),%eax
    96c1:	0f af 45 f8          	imul   -0x8(%rbp),%eax
    96c5:	eb 03                	jmp    96ca <safe_mul_func_int32_t_s_s+0x88>
    96c7:	8b 45 fc             	mov    -0x4(%rbp),%eax
    96ca:	5d                   	pop    %rbp
    96cb:	c3                   	retq   

00000000000096cc <safe_mod_func_int32_t_s_s>:
    96cc:	f3 0f 1e fa          	endbr64 
    96d0:	55                   	push   %rbp
    96d1:	48 89 e5             	mov    %rsp,%rbp
    96d4:	89 7d fc             	mov    %edi,-0x4(%rbp)
    96d7:	89 75 f8             	mov    %esi,-0x8(%rbp)
    96da:	83 7d f8 00          	cmpl   $0x0,-0x8(%rbp)
    96de:	74 1a                	je     96fa <safe_mod_func_int32_t_s_s+0x2e>
    96e0:	81 7d fc 00 00 00 80 	cmpl   $0x80000000,-0x4(%rbp)
    96e7:	75 06                	jne    96ef <safe_mod_func_int32_t_s_s+0x23>
    96e9:	83 7d f8 ff          	cmpl   $0xffffffff,-0x8(%rbp)
    96ed:	74 0b                	je     96fa <safe_mod_func_int32_t_s_s+0x2e>
    96ef:	8b 45 fc             	mov    -0x4(%rbp),%eax
    96f2:	99                   	cltd   
    96f3:	f7 7d f8             	idivl  -0x8(%rbp)
    96f6:	89 d0                	mov    %edx,%eax
    96f8:	eb 03                	jmp    96fd <safe_mod_func_int32_t_s_s+0x31>
    96fa:	8b 45 fc             	mov    -0x4(%rbp),%eax
    96fd:	5d                   	pop    %rbp
    96fe:	c3                   	retq   

00000000000096ff <safe_div_func_int32_t_s_s>:
    96ff:	f3 0f 1e fa          	endbr64 
    9703:	55                   	push   %rbp
    9704:	48 89 e5             	mov    %rsp,%rbp
    9707:	89 7d fc             	mov    %edi,-0x4(%rbp)
    970a:	89 75 f8             	mov    %esi,-0x8(%rbp)
    970d:	83 7d f8 00          	cmpl   $0x0,-0x8(%rbp)
    9711:	74 18                	je     972b <safe_div_func_int32_t_s_s+0x2c>
    9713:	81 7d fc 00 00 00 80 	cmpl   $0x80000000,-0x4(%rbp)
    971a:	75 06                	jne    9722 <safe_div_func_int32_t_s_s+0x23>
    971c:	83 7d f8 ff          	cmpl   $0xffffffff,-0x8(%rbp)
    9720:	74 09                	je     972b <safe_div_func_int32_t_s_s+0x2c>
    9722:	8b 45 fc             	mov    -0x4(%rbp),%eax
    9725:	99                   	cltd   
    9726:	f7 7d f8             	idivl  -0x8(%rbp)
    9729:	eb 03                	jmp    972e <safe_div_func_int32_t_s_s+0x2f>
    972b:	8b 45 fc             	mov    -0x4(%rbp),%eax
    972e:	5d                   	pop    %rbp
    972f:	c3                   	retq   

0000000000009730 <safe_lshift_func_int32_t_s_s>:
    9730:	f3 0f 1e fa          	endbr64 
    9734:	55                   	push   %rbp
    9735:	48 89 e5             	mov    %rsp,%rbp
    9738:	89 7d fc             	mov    %edi,-0x4(%rbp)
    973b:	89 75 f8             	mov    %esi,-0x8(%rbp)
    973e:	83 7d fc 00          	cmpl   $0x0,-0x4(%rbp)
    9742:	78 2d                	js     9771 <safe_lshift_func_int32_t_s_s+0x41>
    9744:	83 7d f8 00          	cmpl   $0x0,-0x8(%rbp)
    9748:	78 27                	js     9771 <safe_lshift_func_int32_t_s_s+0x41>
    974a:	83 7d f8 1f          	cmpl   $0x1f,-0x8(%rbp)
    974e:	7f 21                	jg     9771 <safe_lshift_func_int32_t_s_s+0x41>
    9750:	8b 45 f8             	mov    -0x8(%rbp),%eax
    9753:	ba ff ff ff 7f       	mov    $0x7fffffff,%edx
    9758:	89 c1                	mov    %eax,%ecx
    975a:	d3 fa                	sar    %cl,%edx
    975c:	89 d0                	mov    %edx,%eax
    975e:	39 45 fc             	cmp    %eax,-0x4(%rbp)
    9761:	7f 0e                	jg     9771 <safe_lshift_func_int32_t_s_s+0x41>
    9763:	8b 45 f8             	mov    -0x8(%rbp),%eax
    9766:	8b 55 fc             	mov    -0x4(%rbp),%edx
    9769:	89 c1                	mov    %eax,%ecx
    976b:	d3 e2                	shl    %cl,%edx
    976d:	89 d0                	mov    %edx,%eax
    976f:	eb 03                	jmp    9774 <safe_lshift_func_int32_t_s_s+0x44>
    9771:	8b 45 fc             	mov    -0x4(%rbp),%eax
    9774:	5d                   	pop    %rbp
    9775:	c3                   	retq   

0000000000009776 <safe_lshift_func_int32_t_s_u>:
    9776:	f3 0f 1e fa          	endbr64 
    977a:	55                   	push   %rbp
    977b:	48 89 e5             	mov    %rsp,%rbp
    977e:	89 7d fc             	mov    %edi,-0x4(%rbp)
    9781:	89 75 f8             	mov    %esi,-0x8(%rbp)
    9784:	83 7d fc 00          	cmpl   $0x0,-0x4(%rbp)
    9788:	78 27                	js     97b1 <safe_lshift_func_int32_t_s_u+0x3b>
    978a:	83 7d f8 1f          	cmpl   $0x1f,-0x8(%rbp)
    978e:	77 21                	ja     97b1 <safe_lshift_func_int32_t_s_u+0x3b>
    9790:	8b 45 f8             	mov    -0x8(%rbp),%eax
    9793:	ba ff ff ff 7f       	mov    $0x7fffffff,%edx
    9798:	89 c1                	mov    %eax,%ecx
    979a:	d3 fa                	sar    %cl,%edx
    979c:	89 d0                	mov    %edx,%eax
    979e:	39 45 fc             	cmp    %eax,-0x4(%rbp)
    97a1:	7f 0e                	jg     97b1 <safe_lshift_func_int32_t_s_u+0x3b>
    97a3:	8b 45 f8             	mov    -0x8(%rbp),%eax
    97a6:	8b 55 fc             	mov    -0x4(%rbp),%edx
    97a9:	89 c1                	mov    %eax,%ecx
    97ab:	d3 e2                	shl    %cl,%edx
    97ad:	89 d0                	mov    %edx,%eax
    97af:	eb 03                	jmp    97b4 <safe_lshift_func_int32_t_s_u+0x3e>
    97b1:	8b 45 fc             	mov    -0x4(%rbp),%eax
    97b4:	5d                   	pop    %rbp
    97b5:	c3                   	retq   

00000000000097b6 <safe_rshift_func_int32_t_s_s>:
    97b6:	f3 0f 1e fa          	endbr64 
    97ba:	55                   	push   %rbp
    97bb:	48 89 e5             	mov    %rsp,%rbp
    97be:	89 7d fc             	mov    %edi,-0x4(%rbp)
    97c1:	89 75 f8             	mov    %esi,-0x8(%rbp)
    97c4:	83 7d fc 00          	cmpl   $0x0,-0x4(%rbp)
    97c8:	78 1a                	js     97e4 <safe_rshift_func_int32_t_s_s+0x2e>
    97ca:	83 7d f8 00          	cmpl   $0x0,-0x8(%rbp)
    97ce:	78 14                	js     97e4 <safe_rshift_func_int32_t_s_s+0x2e>
    97d0:	83 7d f8 1f          	cmpl   $0x1f,-0x8(%rbp)
    97d4:	7f 0e                	jg     97e4 <safe_rshift_func_int32_t_s_s+0x2e>
    97d6:	8b 45 f8             	mov    -0x8(%rbp),%eax
    97d9:	8b 55 fc             	mov    -0x4(%rbp),%edx
    97dc:	89 c1                	mov    %eax,%ecx
    97de:	d3 fa                	sar    %cl,%edx
    97e0:	89 d0                	mov    %edx,%eax
    97e2:	eb 03                	jmp    97e7 <safe_rshift_func_int32_t_s_s+0x31>
    97e4:	8b 45 fc             	mov    -0x4(%rbp),%eax
    97e7:	5d                   	pop    %rbp
    97e8:	c3                   	retq   

00000000000097e9 <safe_rshift_func_int32_t_s_u>:
    97e9:	f3 0f 1e fa          	endbr64 
    97ed:	55                   	push   %rbp
    97ee:	48 89 e5             	mov    %rsp,%rbp
    97f1:	89 7d fc             	mov    %edi,-0x4(%rbp)
    97f4:	89 75 f8             	mov    %esi,-0x8(%rbp)
    97f7:	83 7d fc 00          	cmpl   $0x0,-0x4(%rbp)
    97fb:	78 14                	js     9811 <safe_rshift_func_int32_t_s_u+0x28>
    97fd:	83 7d f8 1f          	cmpl   $0x1f,-0x8(%rbp)
    9801:	77 0e                	ja     9811 <safe_rshift_func_int32_t_s_u+0x28>
    9803:	8b 45 f8             	mov    -0x8(%rbp),%eax
    9806:	8b 55 fc             	mov    -0x4(%rbp),%edx
    9809:	89 c1                	mov    %eax,%ecx
    980b:	d3 fa                	sar    %cl,%edx
    980d:	89 d0                	mov    %edx,%eax
    980f:	eb 03                	jmp    9814 <safe_rshift_func_int32_t_s_u+0x2b>
    9811:	8b 45 fc             	mov    -0x4(%rbp),%eax
    9814:	5d                   	pop    %rbp
    9815:	c3                   	retq   

0000000000009816 <safe_unary_minus_func_int64_t_s>:
    9816:	f3 0f 1e fa          	endbr64 
    981a:	55                   	push   %rbp
    981b:	48 89 e5             	mov    %rsp,%rbp
    981e:	48 89 7d f8          	mov    %rdi,-0x8(%rbp)
    9822:	48 b8 00 00 00 00 00 	movabs $0x8000000000000000,%rax
    9829:	00 00 80 
    982c:	48 39 45 f8          	cmp    %rax,-0x8(%rbp)
    9830:	74 09                	je     983b <safe_unary_minus_func_int64_t_s+0x25>
    9832:	48 8b 45 f8          	mov    -0x8(%rbp),%rax
    9836:	48 f7 d8             	neg    %rax
    9839:	eb 04                	jmp    983f <safe_unary_minus_func_int64_t_s+0x29>
    983b:	48 8b 45 f8          	mov    -0x8(%rbp),%rax
    983f:	5d                   	pop    %rbp
    9840:	c3                   	retq   

0000000000009841 <safe_add_func_int64_t_s_s>:
    9841:	f3 0f 1e fa          	endbr64 
    9845:	55                   	push   %rbp
    9846:	48 89 e5             	mov    %rsp,%rbp
    9849:	48 89 7d f8          	mov    %rdi,-0x8(%rbp)
    984d:	48 89 75 f0          	mov    %rsi,-0x10(%rbp)
    9851:	48 83 7d f8 00       	cmpq   $0x0,-0x8(%rbp)
    9856:	7e 1b                	jle    9873 <safe_add_func_int64_t_s_s+0x32>
    9858:	48 83 7d f0 00       	cmpq   $0x0,-0x10(%rbp)
    985d:	7e 14                	jle    9873 <safe_add_func_int64_t_s_s+0x32>
    985f:	48 b8 ff ff ff ff ff 	movabs $0x7fffffffffffffff,%rax
    9866:	ff ff 7f 
    9869:	48 2b 45 f0          	sub    -0x10(%rbp),%rax
    986d:	48 39 45 f8          	cmp    %rax,-0x8(%rbp)
    9871:	7f 2f                	jg     98a2 <safe_add_func_int64_t_s_s+0x61>
    9873:	48 83 7d f8 00       	cmpq   $0x0,-0x8(%rbp)
    9878:	79 1b                	jns    9895 <safe_add_func_int64_t_s_s+0x54>
    987a:	48 83 7d f0 00       	cmpq   $0x0,-0x10(%rbp)
    987f:	79 14                	jns    9895 <safe_add_func_int64_t_s_s+0x54>
    9881:	48 b8 00 00 00 00 00 	movabs $0x8000000000000000,%rax
    9888:	00 00 80 
    988b:	48 2b 45 f0          	sub    -0x10(%rbp),%rax
    988f:	48 39 45 f8          	cmp    %rax,-0x8(%rbp)
    9893:	7c 0d                	jl     98a2 <safe_add_func_int64_t_s_s+0x61>
    9895:	48 8b 55 f8          	mov    -0x8(%rbp),%rdx
    9899:	48 8b 45 f0          	mov    -0x10(%rbp),%rax
    989d:	48 01 d0             	add    %rdx,%rax
    98a0:	eb 04                	jmp    98a6 <safe_add_func_int64_t_s_s+0x65>
    98a2:	48 8b 45 f8          	mov    -0x8(%rbp),%rax
    98a6:	5d                   	pop    %rbp
    98a7:	c3                   	retq   

00000000000098a8 <safe_sub_func_int64_t_s_s>:
    98a8:	f3 0f 1e fa          	endbr64 
    98ac:	55                   	push   %rbp
    98ad:	48 89 e5             	mov    %rsp,%rbp
    98b0:	48 89 7d f8          	mov    %rdi,-0x8(%rbp)
    98b4:	48 89 75 f0          	mov    %rsi,-0x10(%rbp)
    98b8:	48 8b 45 f8          	mov    -0x8(%rbp),%rax
    98bc:	48 33 45 f0          	xor    -0x10(%rbp),%rax
    98c0:	48 89 c2             	mov    %rax,%rdx
    98c3:	48 8b 45 f8          	mov    -0x8(%rbp),%rax
    98c7:	48 33 45 f0          	xor    -0x10(%rbp),%rax
    98cb:	48 b9 00 00 00 00 00 	movabs $0x8000000000000000,%rcx
    98d2:	00 00 80 
    98d5:	48 21 c8             	and    %rcx,%rax
    98d8:	48 33 45 f8          	xor    -0x8(%rbp),%rax
    98dc:	48 2b 45 f0          	sub    -0x10(%rbp),%rax
    98e0:	48 33 45 f0          	xor    -0x10(%rbp),%rax
    98e4:	48 21 d0             	and    %rdx,%rax
    98e7:	48 85 c0             	test   %rax,%rax
    98ea:	78 0a                	js     98f6 <safe_sub_func_int64_t_s_s+0x4e>
    98ec:	48 8b 45 f8          	mov    -0x8(%rbp),%rax
    98f0:	48 2b 45 f0          	sub    -0x10(%rbp),%rax
    98f4:	eb 04                	jmp    98fa <safe_sub_func_int64_t_s_s+0x52>
    98f6:	48 8b 45 f8          	mov    -0x8(%rbp),%rax
    98fa:	5d                   	pop    %rbp
    98fb:	c3                   	retq   

00000000000098fc <safe_mul_func_int64_t_s_s>:
    98fc:	f3 0f 1e fa          	endbr64 
    9900:	55                   	push   %rbp
    9901:	48 89 e5             	mov    %rsp,%rbp
    9904:	48 89 7d f8          	mov    %rdi,-0x8(%rbp)
    9908:	48 89 75 f0          	mov    %rsi,-0x10(%rbp)
    990c:	48 83 7d f8 00       	cmpq   $0x0,-0x8(%rbp)
    9911:	7e 1d                	jle    9930 <safe_mul_func_int64_t_s_s+0x34>
    9913:	48 83 7d f0 00       	cmpq   $0x0,-0x10(%rbp)
    9918:	7e 16                	jle    9930 <safe_mul_func_int64_t_s_s+0x34>
    991a:	48 b8 ff ff ff ff ff 	movabs $0x7fffffffffffffff,%rax
    9921:	ff ff 7f 
    9924:	48 99                	cqto   
    9926:	48 f7 7d f0          	idivq  -0x10(%rbp)
    992a:	48 39 45 f8          	cmp    %rax,-0x8(%rbp)
    992e:	7f 7e                	jg     99ae <safe_mul_func_int64_t_s_s+0xb2>
    9930:	48 83 7d f8 00       	cmpq   $0x0,-0x8(%rbp)
    9935:	7e 1d                	jle    9954 <safe_mul_func_int64_t_s_s+0x58>
    9937:	48 83 7d f0 00       	cmpq   $0x0,-0x10(%rbp)
    993c:	7f 16                	jg     9954 <safe_mul_func_int64_t_s_s+0x58>
    993e:	48 b8 00 00 00 00 00 	movabs $0x8000000000000000,%rax
    9945:	00 00 80 
    9948:	48 99                	cqto   
    994a:	48 f7 7d f8          	idivq  -0x8(%rbp)
    994e:	48 39 45 f0          	cmp    %rax,-0x10(%rbp)
    9952:	7c 5a                	jl     99ae <safe_mul_func_int64_t_s_s+0xb2>
    9954:	48 83 7d f8 00       	cmpq   $0x0,-0x8(%rbp)
    9959:	7f 1d                	jg     9978 <safe_mul_func_int64_t_s_s+0x7c>
    995b:	48 83 7d f0 00       	cmpq   $0x0,-0x10(%rbp)
    9960:	7e 16                	jle    9978 <safe_mul_func_int64_t_s_s+0x7c>
    9962:	48 b8 00 00 00 00 00 	movabs $0x8000000000000000,%rax
    9969:	00 00 80 
    996c:	48 99                	cqto   
    996e:	48 f7 7d f0          	idivq  -0x10(%rbp)
    9972:	48 39 45 f8          	cmp    %rax,-0x8(%rbp)
    9976:	7c 36                	jl     99ae <safe_mul_func_int64_t_s_s+0xb2>
    9978:	48 83 7d f8 00       	cmpq   $0x0,-0x8(%rbp)
    997d:	7f 24                	jg     99a3 <safe_mul_func_int64_t_s_s+0xa7>
    997f:	48 83 7d f0 00       	cmpq   $0x0,-0x10(%rbp)
    9984:	7f 1d                	jg     99a3 <safe_mul_func_int64_t_s_s+0xa7>
    9986:	48 83 7d f8 00       	cmpq   $0x0,-0x8(%rbp)
    998b:	74 16                	je     99a3 <safe_mul_func_int64_t_s_s+0xa7>
    998d:	48 b8 ff ff ff ff ff 	movabs $0x7fffffffffffffff,%rax
    9994:	ff ff 7f 
    9997:	48 99                	cqto   
    9999:	48 f7 7d f8          	idivq  -0x8(%rbp)
    999d:	48 39 45 f0          	cmp    %rax,-0x10(%rbp)
    99a1:	7c 0b                	jl     99ae <safe_mul_func_int64_t_s_s+0xb2>
    99a3:	48 8b 45 f8          	mov    -0x8(%rbp),%rax
    99a7:	48 0f af 45 f0       	imul   -0x10(%rbp),%rax
    99ac:	eb 04                	jmp    99b2 <safe_mul_func_int64_t_s_s+0xb6>
    99ae:	48 8b 45 f8          	mov    -0x8(%rbp),%rax
    99b2:	5d                   	pop    %rbp
    99b3:	c3                   	retq   

00000000000099b4 <safe_mod_func_int64_t_s_s>:
    99b4:	f3 0f 1e fa          	endbr64 
    99b8:	55                   	push   %rbp
    99b9:	48 89 e5             	mov    %rsp,%rbp
    99bc:	48 89 7d f8          	mov    %rdi,-0x8(%rbp)
    99c0:	48 89 75 f0          	mov    %rsi,-0x10(%rbp)
    99c4:	48 83 7d f0 00       	cmpq   $0x0,-0x10(%rbp)
    99c9:	74 26                	je     99f1 <safe_mod_func_int64_t_s_s+0x3d>
    99cb:	48 b8 00 00 00 00 00 	movabs $0x8000000000000000,%rax
    99d2:	00 00 80 
    99d5:	48 39 45 f8          	cmp    %rax,-0x8(%rbp)
    99d9:	75 07                	jne    99e2 <safe_mod_func_int64_t_s_s+0x2e>
    99db:	48 83 7d f0 ff       	cmpq   $0xffffffffffffffff,-0x10(%rbp)
    99e0:	74 0f                	je     99f1 <safe_mod_func_int64_t_s_s+0x3d>
    99e2:	48 8b 45 f8          	mov    -0x8(%rbp),%rax
    99e6:	48 99                	cqto   
    99e8:	48 f7 7d f0          	idivq  -0x10(%rbp)
    99ec:	48 89 d0             	mov    %rdx,%rax
    99ef:	eb 04                	jmp    99f5 <safe_mod_func_int64_t_s_s+0x41>
    99f1:	48 8b 45 f8          	mov    -0x8(%rbp),%rax
    99f5:	5d                   	pop    %rbp
    99f6:	c3                   	retq   

00000000000099f7 <safe_div_func_int64_t_s_s>:
    99f7:	f3 0f 1e fa          	endbr64 
    99fb:	55                   	push   %rbp
    99fc:	48 89 e5             	mov    %rsp,%rbp
    99ff:	48 89 7d f8          	mov    %rdi,-0x8(%rbp)
    9a03:	48 89 75 f0          	mov    %rsi,-0x10(%rbp)
    9a07:	48 83 7d f0 00       	cmpq   $0x0,-0x10(%rbp)
    9a0c:	74 23                	je     9a31 <safe_div_func_int64_t_s_s+0x3a>
    9a0e:	48 b8 00 00 00 00 00 	movabs $0x8000000000000000,%rax
    9a15:	00 00 80 
    9a18:	48 39 45 f8          	cmp    %rax,-0x8(%rbp)
    9a1c:	75 07                	jne    9a25 <safe_div_func_int64_t_s_s+0x2e>
    9a1e:	48 83 7d f0 ff       	cmpq   $0xffffffffffffffff,-0x10(%rbp)
    9a23:	74 0c                	je     9a31 <safe_div_func_int64_t_s_s+0x3a>
    9a25:	48 8b 45 f8          	mov    -0x8(%rbp),%rax
    9a29:	48 99                	cqto   
    9a2b:	48 f7 7d f0          	idivq  -0x10(%rbp)
    9a2f:	eb 04                	jmp    9a35 <safe_div_func_int64_t_s_s+0x3e>
    9a31:	48 8b 45 f8          	mov    -0x8(%rbp),%rax
    9a35:	5d                   	pop    %rbp
    9a36:	c3                   	retq   

0000000000009a37 <safe_lshift_func_int64_t_s_s>:
    9a37:	f3 0f 1e fa          	endbr64 
    9a3b:	55                   	push   %rbp
    9a3c:	48 89 e5             	mov    %rsp,%rbp
    9a3f:	48 89 7d f8          	mov    %rdi,-0x8(%rbp)
    9a43:	89 75 f4             	mov    %esi,-0xc(%rbp)
    9a46:	48 83 7d f8 00       	cmpq   $0x0,-0x8(%rbp)
    9a4b:	78 38                	js     9a85 <safe_lshift_func_int64_t_s_s+0x4e>
    9a4d:	83 7d f4 00          	cmpl   $0x0,-0xc(%rbp)
    9a51:	78 32                	js     9a85 <safe_lshift_func_int64_t_s_s+0x4e>
    9a53:	83 7d f4 1f          	cmpl   $0x1f,-0xc(%rbp)
    9a57:	7f 2c                	jg     9a85 <safe_lshift_func_int64_t_s_s+0x4e>
    9a59:	8b 45 f4             	mov    -0xc(%rbp),%eax
    9a5c:	48 ba ff ff ff ff ff 	movabs $0x7fffffffffffffff,%rdx
    9a63:	ff ff 7f 
    9a66:	89 c1                	mov    %eax,%ecx
    9a68:	48 d3 fa             	sar    %cl,%rdx
    9a6b:	48 89 d0             	mov    %rdx,%rax
    9a6e:	48 39 45 f8          	cmp    %rax,-0x8(%rbp)
    9a72:	7f 11                	jg     9a85 <safe_lshift_func_int64_t_s_s+0x4e>
    9a74:	8b 45 f4             	mov    -0xc(%rbp),%eax
    9a77:	48 8b 55 f8          	mov    -0x8(%rbp),%rdx
    9a7b:	89 c1                	mov    %eax,%ecx
    9a7d:	48 d3 e2             	shl    %cl,%rdx
    9a80:	48 89 d0             	mov    %rdx,%rax
    9a83:	eb 04                	jmp    9a89 <safe_lshift_func_int64_t_s_s+0x52>
    9a85:	48 8b 45 f8          	mov    -0x8(%rbp),%rax
    9a89:	5d                   	pop    %rbp
    9a8a:	c3                   	retq   

0000000000009a8b <safe_lshift_func_int64_t_s_u>:
    9a8b:	f3 0f 1e fa          	endbr64 
    9a8f:	55                   	push   %rbp
    9a90:	48 89 e5             	mov    %rsp,%rbp
    9a93:	48 89 7d f8          	mov    %rdi,-0x8(%rbp)
    9a97:	89 75 f4             	mov    %esi,-0xc(%rbp)
    9a9a:	48 83 7d f8 00       	cmpq   $0x0,-0x8(%rbp)
    9a9f:	78 32                	js     9ad3 <safe_lshift_func_int64_t_s_u+0x48>
    9aa1:	83 7d f4 1f          	cmpl   $0x1f,-0xc(%rbp)
    9aa5:	77 2c                	ja     9ad3 <safe_lshift_func_int64_t_s_u+0x48>
    9aa7:	8b 45 f4             	mov    -0xc(%rbp),%eax
    9aaa:	48 ba ff ff ff ff ff 	movabs $0x7fffffffffffffff,%rdx
    9ab1:	ff ff 7f 
    9ab4:	89 c1                	mov    %eax,%ecx
    9ab6:	48 d3 fa             	sar    %cl,%rdx
    9ab9:	48 89 d0             	mov    %rdx,%rax
    9abc:	48 39 45 f8          	cmp    %rax,-0x8(%rbp)
    9ac0:	7f 11                	jg     9ad3 <safe_lshift_func_int64_t_s_u+0x48>
    9ac2:	8b 45 f4             	mov    -0xc(%rbp),%eax
    9ac5:	48 8b 55 f8          	mov    -0x8(%rbp),%rdx
    9ac9:	89 c1                	mov    %eax,%ecx
    9acb:	48 d3 e2             	shl    %cl,%rdx
    9ace:	48 89 d0             	mov    %rdx,%rax
    9ad1:	eb 04                	jmp    9ad7 <safe_lshift_func_int64_t_s_u+0x4c>
    9ad3:	48 8b 45 f8          	mov    -0x8(%rbp),%rax
    9ad7:	5d                   	pop    %rbp
    9ad8:	c3                   	retq   

0000000000009ad9 <safe_rshift_func_int64_t_s_s>:
    9ad9:	f3 0f 1e fa          	endbr64 
    9add:	55                   	push   %rbp
    9ade:	48 89 e5             	mov    %rsp,%rbp
    9ae1:	48 89 7d f8          	mov    %rdi,-0x8(%rbp)
    9ae5:	89 75 f4             	mov    %esi,-0xc(%rbp)
    9ae8:	48 83 7d f8 00       	cmpq   $0x0,-0x8(%rbp)
    9aed:	78 1d                	js     9b0c <safe_rshift_func_int64_t_s_s+0x33>
    9aef:	83 7d f4 00          	cmpl   $0x0,-0xc(%rbp)
    9af3:	78 17                	js     9b0c <safe_rshift_func_int64_t_s_s+0x33>
    9af5:	83 7d f4 1f          	cmpl   $0x1f,-0xc(%rbp)
    9af9:	7f 11                	jg     9b0c <safe_rshift_func_int64_t_s_s+0x33>
    9afb:	8b 45 f4             	mov    -0xc(%rbp),%eax
    9afe:	48 8b 55 f8          	mov    -0x8(%rbp),%rdx
    9b02:	89 c1                	mov    %eax,%ecx
    9b04:	48 d3 fa             	sar    %cl,%rdx
    9b07:	48 89 d0             	mov    %rdx,%rax
    9b0a:	eb 04                	jmp    9b10 <safe_rshift_func_int64_t_s_s+0x37>
    9b0c:	48 8b 45 f8          	mov    -0x8(%rbp),%rax
    9b10:	5d                   	pop    %rbp
    9b11:	c3                   	retq   

0000000000009b12 <safe_rshift_func_int64_t_s_u>:
    9b12:	f3 0f 1e fa          	endbr64 
    9b16:	55                   	push   %rbp
    9b17:	48 89 e5             	mov    %rsp,%rbp
    9b1a:	48 89 7d f8          	mov    %rdi,-0x8(%rbp)
    9b1e:	89 75 f4             	mov    %esi,-0xc(%rbp)
    9b21:	48 83 7d f8 00       	cmpq   $0x0,-0x8(%rbp)
    9b26:	78 17                	js     9b3f <safe_rshift_func_int64_t_s_u+0x2d>
    9b28:	83 7d f4 1f          	cmpl   $0x1f,-0xc(%rbp)
    9b2c:	77 11                	ja     9b3f <safe_rshift_func_int64_t_s_u+0x2d>
    9b2e:	8b 45 f4             	mov    -0xc(%rbp),%eax
    9b31:	48 8b 55 f8          	mov    -0x8(%rbp),%rdx
    9b35:	89 c1                	mov    %eax,%ecx
    9b37:	48 d3 fa             	sar    %cl,%rdx
    9b3a:	48 89 d0             	mov    %rdx,%rax
    9b3d:	eb 04                	jmp    9b43 <safe_rshift_func_int64_t_s_u+0x31>
    9b3f:	48 8b 45 f8          	mov    -0x8(%rbp),%rax
    9b43:	5d                   	pop    %rbp
    9b44:	c3                   	retq   

0000000000009b45 <safe_unary_minus_func_uint8_t_u>:
    9b45:	f3 0f 1e fa          	endbr64 
    9b49:	55                   	push   %rbp
    9b4a:	48 89 e5             	mov    %rsp,%rbp
    9b4d:	89 f8                	mov    %edi,%eax
    9b4f:	88 45 fc             	mov    %al,-0x4(%rbp)
    9b52:	0f b6 45 fc          	movzbl -0x4(%rbp),%eax
    9b56:	f7 d8                	neg    %eax
    9b58:	5d                   	pop    %rbp
    9b59:	c3                   	retq   

0000000000009b5a <safe_add_func_uint8_t_u_u>:
    9b5a:	f3 0f 1e fa          	endbr64 
    9b5e:	55                   	push   %rbp
    9b5f:	48 89 e5             	mov    %rsp,%rbp
    9b62:	89 fa                	mov    %edi,%edx
    9b64:	89 f0                	mov    %esi,%eax
    9b66:	88 55 fc             	mov    %dl,-0x4(%rbp)
    9b69:	88 45 f8             	mov    %al,-0x8(%rbp)
    9b6c:	0f b6 55 fc          	movzbl -0x4(%rbp),%edx
    9b70:	0f b6 45 f8          	movzbl -0x8(%rbp),%eax
    9b74:	01 d0                	add    %edx,%eax
    9b76:	5d                   	pop    %rbp
    9b77:	c3                   	retq   

0000000000009b78 <safe_sub_func_uint8_t_u_u>:
    9b78:	f3 0f 1e fa          	endbr64 
    9b7c:	55                   	push   %rbp
    9b7d:	48 89 e5             	mov    %rsp,%rbp
    9b80:	89 fa                	mov    %edi,%edx
    9b82:	89 f0                	mov    %esi,%eax
    9b84:	88 55 fc             	mov    %dl,-0x4(%rbp)
    9b87:	88 45 f8             	mov    %al,-0x8(%rbp)
    9b8a:	0f b6 45 fc          	movzbl -0x4(%rbp),%eax
    9b8e:	2a 45 f8             	sub    -0x8(%rbp),%al
    9b91:	5d                   	pop    %rbp
    9b92:	c3                   	retq   

0000000000009b93 <safe_mul_func_uint8_t_u_u>:
    9b93:	f3 0f 1e fa          	endbr64 
    9b97:	55                   	push   %rbp
    9b98:	48 89 e5             	mov    %rsp,%rbp
    9b9b:	89 fa                	mov    %edi,%edx
    9b9d:	89 f0                	mov    %esi,%eax
    9b9f:	88 55 fc             	mov    %dl,-0x4(%rbp)
    9ba2:	88 45 f8             	mov    %al,-0x8(%rbp)
    9ba5:	0f b6 45 fc          	movzbl -0x4(%rbp),%eax
    9ba9:	f6 65 f8             	mulb   -0x8(%rbp)
    9bac:	5d                   	pop    %rbp
    9bad:	c3                   	retq   

0000000000009bae <safe_mod_func_uint8_t_u_u>:
    9bae:	f3 0f 1e fa          	endbr64 
    9bb2:	55                   	push   %rbp
    9bb3:	48 89 e5             	mov    %rsp,%rbp
    9bb6:	89 fa                	mov    %edi,%edx
    9bb8:	89 f0                	mov    %esi,%eax
    9bba:	88 55 fc             	mov    %dl,-0x4(%rbp)
    9bbd:	88 45 f8             	mov    %al,-0x8(%rbp)
    9bc0:	80 7d f8 00          	cmpb   $0x0,-0x8(%rbp)
    9bc4:	74 0f                	je     9bd5 <safe_mod_func_uint8_t_u_u+0x27>
    9bc6:	0f b6 45 fc          	movzbl -0x4(%rbp),%eax
    9bca:	0f b6 c0             	movzbl %al,%eax
    9bcd:	f6 75 f8             	divb   -0x8(%rbp)
    9bd0:	0f b6 c4             	movzbl %ah,%eax
    9bd3:	eb 04                	jmp    9bd9 <safe_mod_func_uint8_t_u_u+0x2b>
    9bd5:	0f b6 45 fc          	movzbl -0x4(%rbp),%eax
    9bd9:	5d                   	pop    %rbp
    9bda:	c3                   	retq   

0000000000009bdb <safe_div_func_uint8_t_u_u>:
    9bdb:	f3 0f 1e fa          	endbr64 
    9bdf:	55                   	push   %rbp
    9be0:	48 89 e5             	mov    %rsp,%rbp
    9be3:	89 fa                	mov    %edi,%edx
    9be5:	89 f0                	mov    %esi,%eax
    9be7:	88 55 fc             	mov    %dl,-0x4(%rbp)
    9bea:	88 45 f8             	mov    %al,-0x8(%rbp)
    9bed:	80 7d f8 00          	cmpb   $0x0,-0x8(%rbp)
    9bf1:	74 0c                	je     9bff <safe_div_func_uint8_t_u_u+0x24>
    9bf3:	0f b6 45 fc          	movzbl -0x4(%rbp),%eax
    9bf7:	0f b6 c0             	movzbl %al,%eax
    9bfa:	f6 75 f8             	divb   -0x8(%rbp)
    9bfd:	eb 04                	jmp    9c03 <safe_div_func_uint8_t_u_u+0x28>
    9bff:	0f b6 45 fc          	movzbl -0x4(%rbp),%eax
    9c03:	5d                   	pop    %rbp
    9c04:	c3                   	retq   

0000000000009c05 <safe_lshift_func_uint8_t_u_s>:
    9c05:	f3 0f 1e fa          	endbr64 
    9c09:	55                   	push   %rbp
    9c0a:	48 89 e5             	mov    %rsp,%rbp
    9c0d:	89 f8                	mov    %edi,%eax
    9c0f:	89 75 f8             	mov    %esi,-0x8(%rbp)
    9c12:	88 45 fc             	mov    %al,-0x4(%rbp)
    9c15:	83 7d f8 00          	cmpl   $0x0,-0x8(%rbp)
    9c19:	78 2b                	js     9c46 <safe_lshift_func_uint8_t_u_s+0x41>
    9c1b:	83 7d f8 1f          	cmpl   $0x1f,-0x8(%rbp)
    9c1f:	7f 25                	jg     9c46 <safe_lshift_func_uint8_t_u_s+0x41>
    9c21:	0f b6 55 fc          	movzbl -0x4(%rbp),%edx
    9c25:	8b 45 f8             	mov    -0x8(%rbp),%eax
    9c28:	be ff 00 00 00       	mov    $0xff,%esi
    9c2d:	89 c1                	mov    %eax,%ecx
    9c2f:	d3 fe                	sar    %cl,%esi
    9c31:	89 f0                	mov    %esi,%eax
    9c33:	39 c2                	cmp    %eax,%edx
    9c35:	7f 0f                	jg     9c46 <safe_lshift_func_uint8_t_u_s+0x41>
    9c37:	0f b6 55 fc          	movzbl -0x4(%rbp),%edx
    9c3b:	8b 45 f8             	mov    -0x8(%rbp),%eax
    9c3e:	89 c1                	mov    %eax,%ecx
    9c40:	d3 e2                	shl    %cl,%edx
    9c42:	89 d0                	mov    %edx,%eax
    9c44:	eb 04                	jmp    9c4a <safe_lshift_func_uint8_t_u_s+0x45>
    9c46:	0f b6 45 fc          	movzbl -0x4(%rbp),%eax
    9c4a:	5d                   	pop    %rbp
    9c4b:	c3                   	retq   

0000000000009c4c <safe_lshift_func_uint8_t_u_u>:
    9c4c:	f3 0f 1e fa          	endbr64 
    9c50:	55                   	push   %rbp
    9c51:	48 89 e5             	mov    %rsp,%rbp
    9c54:	89 f8                	mov    %edi,%eax
    9c56:	89 75 f8             	mov    %esi,-0x8(%rbp)
    9c59:	88 45 fc             	mov    %al,-0x4(%rbp)
    9c5c:	83 7d f8 1f          	cmpl   $0x1f,-0x8(%rbp)
    9c60:	77 25                	ja     9c87 <safe_lshift_func_uint8_t_u_u+0x3b>
    9c62:	0f b6 55 fc          	movzbl -0x4(%rbp),%edx
    9c66:	8b 45 f8             	mov    -0x8(%rbp),%eax
    9c69:	be ff 00 00 00       	mov    $0xff,%esi
    9c6e:	89 c1                	mov    %eax,%ecx
    9c70:	d3 fe                	sar    %cl,%esi
    9c72:	89 f0                	mov    %esi,%eax
    9c74:	39 c2                	cmp    %eax,%edx
    9c76:	7f 0f                	jg     9c87 <safe_lshift_func_uint8_t_u_u+0x3b>
    9c78:	0f b6 55 fc          	movzbl -0x4(%rbp),%edx
    9c7c:	8b 45 f8             	mov    -0x8(%rbp),%eax
    9c7f:	89 c1                	mov    %eax,%ecx
    9c81:	d3 e2                	shl    %cl,%edx
    9c83:	89 d0                	mov    %edx,%eax
    9c85:	eb 04                	jmp    9c8b <safe_lshift_func_uint8_t_u_u+0x3f>
    9c87:	0f b6 45 fc          	movzbl -0x4(%rbp),%eax
    9c8b:	5d                   	pop    %rbp
    9c8c:	c3                   	retq   

0000000000009c8d <safe_rshift_func_uint8_t_u_s>:
    9c8d:	f3 0f 1e fa          	endbr64 
    9c91:	55                   	push   %rbp
    9c92:	48 89 e5             	mov    %rsp,%rbp
    9c95:	89 f8                	mov    %edi,%eax
    9c97:	89 75 f8             	mov    %esi,-0x8(%rbp)
    9c9a:	88 45 fc             	mov    %al,-0x4(%rbp)
    9c9d:	83 7d f8 00          	cmpl   $0x0,-0x8(%rbp)
    9ca1:	78 15                	js     9cb8 <safe_rshift_func_uint8_t_u_s+0x2b>
    9ca3:	83 7d f8 1f          	cmpl   $0x1f,-0x8(%rbp)
    9ca7:	7f 0f                	jg     9cb8 <safe_rshift_func_uint8_t_u_s+0x2b>
    9ca9:	0f b6 55 fc          	movzbl -0x4(%rbp),%edx
    9cad:	8b 45 f8             	mov    -0x8(%rbp),%eax
    9cb0:	89 c1                	mov    %eax,%ecx
    9cb2:	d3 fa                	sar    %cl,%edx
    9cb4:	89 d0                	mov    %edx,%eax
    9cb6:	eb 04                	jmp    9cbc <safe_rshift_func_uint8_t_u_s+0x2f>
    9cb8:	0f b6 45 fc          	movzbl -0x4(%rbp),%eax
    9cbc:	5d                   	pop    %rbp
    9cbd:	c3                   	retq   

0000000000009cbe <safe_rshift_func_uint8_t_u_u>:
    9cbe:	f3 0f 1e fa          	endbr64 
    9cc2:	55                   	push   %rbp
    9cc3:	48 89 e5             	mov    %rsp,%rbp
    9cc6:	89 f8                	mov    %edi,%eax
    9cc8:	89 75 f8             	mov    %esi,-0x8(%rbp)
    9ccb:	88 45 fc             	mov    %al,-0x4(%rbp)
    9cce:	83 7d f8 1f          	cmpl   $0x1f,-0x8(%rbp)
    9cd2:	77 0f                	ja     9ce3 <safe_rshift_func_uint8_t_u_u+0x25>
    9cd4:	0f b6 55 fc          	movzbl -0x4(%rbp),%edx
    9cd8:	8b 45 f8             	mov    -0x8(%rbp),%eax
    9cdb:	89 c1                	mov    %eax,%ecx
    9cdd:	d3 fa                	sar    %cl,%edx
    9cdf:	89 d0                	mov    %edx,%eax
    9ce1:	eb 04                	jmp    9ce7 <safe_rshift_func_uint8_t_u_u+0x29>
    9ce3:	0f b6 45 fc          	movzbl -0x4(%rbp),%eax
    9ce7:	5d                   	pop    %rbp
    9ce8:	c3                   	retq   

0000000000009ce9 <safe_unary_minus_func_uint16_t_u>:
    9ce9:	f3 0f 1e fa          	endbr64 
    9ced:	55                   	push   %rbp
    9cee:	48 89 e5             	mov    %rsp,%rbp
    9cf1:	89 f8                	mov    %edi,%eax
    9cf3:	66 89 45 fc          	mov    %ax,-0x4(%rbp)
    9cf7:	0f b7 45 fc          	movzwl -0x4(%rbp),%eax
    9cfb:	f7 d8                	neg    %eax
    9cfd:	5d                   	pop    %rbp
    9cfe:	c3                   	retq   

0000000000009cff <safe_add_func_uint16_t_u_u>:
    9cff:	f3 0f 1e fa          	endbr64 
    9d03:	55                   	push   %rbp
    9d04:	48 89 e5             	mov    %rsp,%rbp
    9d07:	89 fa                	mov    %edi,%edx
    9d09:	89 f0                	mov    %esi,%eax
    9d0b:	66 89 55 fc          	mov    %dx,-0x4(%rbp)
    9d0f:	66 89 45 f8          	mov    %ax,-0x8(%rbp)
    9d13:	0f b7 55 fc          	movzwl -0x4(%rbp),%edx
    9d17:	0f b7 45 f8          	movzwl -0x8(%rbp),%eax
    9d1b:	01 d0                	add    %edx,%eax
    9d1d:	5d                   	pop    %rbp
    9d1e:	c3                   	retq   

0000000000009d1f <safe_sub_func_uint16_t_u_u>:
    9d1f:	f3 0f 1e fa          	endbr64 
    9d23:	55                   	push   %rbp
    9d24:	48 89 e5             	mov    %rsp,%rbp
    9d27:	89 fa                	mov    %edi,%edx
    9d29:	89 f0                	mov    %esi,%eax
    9d2b:	66 89 55 fc          	mov    %dx,-0x4(%rbp)
    9d2f:	66 89 45 f8          	mov    %ax,-0x8(%rbp)
    9d33:	0f b7 45 fc          	movzwl -0x4(%rbp),%eax
    9d37:	66 2b 45 f8          	sub    -0x8(%rbp),%ax
    9d3b:	5d                   	pop    %rbp
    9d3c:	c3                   	retq   

0000000000009d3d <safe_mul_func_uint16_t_u_u>:
    9d3d:	f3 0f 1e fa          	endbr64 
    9d41:	55                   	push   %rbp
    9d42:	48 89 e5             	mov    %rsp,%rbp
    9d45:	89 fa                	mov    %edi,%edx
    9d47:	89 f0                	mov    %esi,%eax
    9d49:	66 89 55 fc          	mov    %dx,-0x4(%rbp)
    9d4d:	66 89 45 f8          	mov    %ax,-0x8(%rbp)
    9d51:	0f b7 45 fc          	movzwl -0x4(%rbp),%eax
    9d55:	66 0f af 45 f8       	imul   -0x8(%rbp),%ax
    9d5a:	5d                   	pop    %rbp
    9d5b:	c3                   	retq   

0000000000009d5c <safe_mod_func_uint16_t_u_u>:
    9d5c:	f3 0f 1e fa          	endbr64 
    9d60:	55                   	push   %rbp
    9d61:	48 89 e5             	mov    %rsp,%rbp
    9d64:	89 fa                	mov    %edi,%edx
    9d66:	89 f0                	mov    %esi,%eax
    9d68:	66 89 55 fc          	mov    %dx,-0x4(%rbp)
    9d6c:	66 89 45 f8          	mov    %ax,-0x8(%rbp)
    9d70:	66 83 7d f8 00       	cmpw   $0x0,-0x8(%rbp)
    9d75:	74 11                	je     9d88 <safe_mod_func_uint16_t_u_u+0x2c>
    9d77:	0f b7 45 fc          	movzwl -0x4(%rbp),%eax
    9d7b:	ba 00 00 00 00       	mov    $0x0,%edx
    9d80:	66 f7 75 f8          	divw   -0x8(%rbp)
    9d84:	89 d0                	mov    %edx,%eax
    9d86:	eb 04                	jmp    9d8c <safe_mod_func_uint16_t_u_u+0x30>
    9d88:	0f b7 45 fc          	movzwl -0x4(%rbp),%eax
    9d8c:	5d                   	pop    %rbp
    9d8d:	c3                   	retq   

0000000000009d8e <safe_div_func_uint16_t_u_u>:
    9d8e:	f3 0f 1e fa          	endbr64 
    9d92:	55                   	push   %rbp
    9d93:	48 89 e5             	mov    %rsp,%rbp
    9d96:	89 fa                	mov    %edi,%edx
    9d98:	89 f0                	mov    %esi,%eax
    9d9a:	66 89 55 fc          	mov    %dx,-0x4(%rbp)
    9d9e:	66 89 45 f8          	mov    %ax,-0x8(%rbp)
    9da2:	66 83 7d f8 00       	cmpw   $0x0,-0x8(%rbp)
    9da7:	74 0f                	je     9db8 <safe_div_func_uint16_t_u_u+0x2a>
    9da9:	0f b7 45 fc          	movzwl -0x4(%rbp),%eax
    9dad:	ba 00 00 00 00       	mov    $0x0,%edx
    9db2:	66 f7 75 f8          	divw   -0x8(%rbp)
    9db6:	eb 04                	jmp    9dbc <safe_div_func_uint16_t_u_u+0x2e>
    9db8:	0f b7 45 fc          	movzwl -0x4(%rbp),%eax
    9dbc:	5d                   	pop    %rbp
    9dbd:	c3                   	retq   

0000000000009dbe <safe_lshift_func_uint16_t_u_s>:
    9dbe:	f3 0f 1e fa          	endbr64 
    9dc2:	55                   	push   %rbp
    9dc3:	48 89 e5             	mov    %rsp,%rbp
    9dc6:	89 f8                	mov    %edi,%eax
    9dc8:	89 75 f8             	mov    %esi,-0x8(%rbp)
    9dcb:	66 89 45 fc          	mov    %ax,-0x4(%rbp)
    9dcf:	83 7d f8 00          	cmpl   $0x0,-0x8(%rbp)
    9dd3:	78 2b                	js     9e00 <safe_lshift_func_uint16_t_u_s+0x42>
    9dd5:	83 7d f8 1f          	cmpl   $0x1f,-0x8(%rbp)
    9dd9:	7f 25                	jg     9e00 <safe_lshift_func_uint16_t_u_s+0x42>
    9ddb:	0f b7 55 fc          	movzwl -0x4(%rbp),%edx
    9ddf:	8b 45 f8             	mov    -0x8(%rbp),%eax
    9de2:	be ff ff 00 00       	mov    $0xffff,%esi
    9de7:	89 c1                	mov    %eax,%ecx
    9de9:	d3 fe                	sar    %cl,%esi
    9deb:	89 f0                	mov    %esi,%eax
    9ded:	39 c2                	cmp    %eax,%edx
    9def:	7f 0f                	jg     9e00 <safe_lshift_func_uint16_t_u_s+0x42>
    9df1:	0f b7 55 fc          	movzwl -0x4(%rbp),%edx
    9df5:	8b 45 f8             	mov    -0x8(%rbp),%eax
    9df8:	89 c1                	mov    %eax,%ecx
    9dfa:	d3 e2                	shl    %cl,%edx
    9dfc:	89 d0                	mov    %edx,%eax
    9dfe:	eb 04                	jmp    9e04 <safe_lshift_func_uint16_t_u_s+0x46>
    9e00:	0f b7 45 fc          	movzwl -0x4(%rbp),%eax
    9e04:	5d                   	pop    %rbp
    9e05:	c3                   	retq   

0000000000009e06 <safe_lshift_func_uint16_t_u_u>:
    9e06:	f3 0f 1e fa          	endbr64 
    9e0a:	55                   	push   %rbp
    9e0b:	48 89 e5             	mov    %rsp,%rbp
    9e0e:	89 f8                	mov    %edi,%eax
    9e10:	89 75 f8             	mov    %esi,-0x8(%rbp)
    9e13:	66 89 45 fc          	mov    %ax,-0x4(%rbp)
    9e17:	83 7d f8 1f          	cmpl   $0x1f,-0x8(%rbp)
    9e1b:	77 25                	ja     9e42 <safe_lshift_func_uint16_t_u_u+0x3c>
    9e1d:	0f b7 55 fc          	movzwl -0x4(%rbp),%edx
    9e21:	8b 45 f8             	mov    -0x8(%rbp),%eax
    9e24:	be ff ff 00 00       	mov    $0xffff,%esi
    9e29:	89 c1                	mov    %eax,%ecx
    9e2b:	d3 fe                	sar    %cl,%esi
    9e2d:	89 f0                	mov    %esi,%eax
    9e2f:	39 c2                	cmp    %eax,%edx
    9e31:	7f 0f                	jg     9e42 <safe_lshift_func_uint16_t_u_u+0x3c>
    9e33:	0f b7 55 fc          	movzwl -0x4(%rbp),%edx
    9e37:	8b 45 f8             	mov    -0x8(%rbp),%eax
    9e3a:	89 c1                	mov    %eax,%ecx
    9e3c:	d3 e2                	shl    %cl,%edx
    9e3e:	89 d0                	mov    %edx,%eax
    9e40:	eb 04                	jmp    9e46 <safe_lshift_func_uint16_t_u_u+0x40>
    9e42:	0f b7 45 fc          	movzwl -0x4(%rbp),%eax
    9e46:	5d                   	pop    %rbp
    9e47:	c3                   	retq   

0000000000009e48 <safe_rshift_func_uint16_t_u_s>:
    9e48:	f3 0f 1e fa          	endbr64 
    9e4c:	55                   	push   %rbp
    9e4d:	48 89 e5             	mov    %rsp,%rbp
    9e50:	89 f8                	mov    %edi,%eax
    9e52:	89 75 f8             	mov    %esi,-0x8(%rbp)
    9e55:	66 89 45 fc          	mov    %ax,-0x4(%rbp)
    9e59:	83 7d f8 00          	cmpl   $0x0,-0x8(%rbp)
    9e5d:	78 15                	js     9e74 <safe_rshift_func_uint16_t_u_s+0x2c>
    9e5f:	83 7d f8 1f          	cmpl   $0x1f,-0x8(%rbp)
    9e63:	7f 0f                	jg     9e74 <safe_rshift_func_uint16_t_u_s+0x2c>
    9e65:	0f b7 55 fc          	movzwl -0x4(%rbp),%edx
    9e69:	8b 45 f8             	mov    -0x8(%rbp),%eax
    9e6c:	89 c1                	mov    %eax,%ecx
    9e6e:	d3 fa                	sar    %cl,%edx
    9e70:	89 d0                	mov    %edx,%eax
    9e72:	eb 04                	jmp    9e78 <safe_rshift_func_uint16_t_u_s+0x30>
    9e74:	0f b7 45 fc          	movzwl -0x4(%rbp),%eax
    9e78:	5d                   	pop    %rbp
    9e79:	c3                   	retq   

0000000000009e7a <safe_rshift_func_uint16_t_u_u>:
    9e7a:	f3 0f 1e fa          	endbr64 
    9e7e:	55                   	push   %rbp
    9e7f:	48 89 e5             	mov    %rsp,%rbp
    9e82:	89 f8                	mov    %edi,%eax
    9e84:	89 75 f8             	mov    %esi,-0x8(%rbp)
    9e87:	66 89 45 fc          	mov    %ax,-0x4(%rbp)
    9e8b:	83 7d f8 1f          	cmpl   $0x1f,-0x8(%rbp)
    9e8f:	77 0f                	ja     9ea0 <safe_rshift_func_uint16_t_u_u+0x26>
    9e91:	0f b7 55 fc          	movzwl -0x4(%rbp),%edx
    9e95:	8b 45 f8             	mov    -0x8(%rbp),%eax
    9e98:	89 c1                	mov    %eax,%ecx
    9e9a:	d3 fa                	sar    %cl,%edx
    9e9c:	89 d0                	mov    %edx,%eax
    9e9e:	eb 04                	jmp    9ea4 <safe_rshift_func_uint16_t_u_u+0x2a>
    9ea0:	0f b7 45 fc          	movzwl -0x4(%rbp),%eax
    9ea4:	5d                   	pop    %rbp
    9ea5:	c3                   	retq   

0000000000009ea6 <safe_unary_minus_func_uint32_t_u>:
    9ea6:	f3 0f 1e fa          	endbr64 
    9eaa:	55                   	push   %rbp
    9eab:	48 89 e5             	mov    %rsp,%rbp
    9eae:	89 7d fc             	mov    %edi,-0x4(%rbp)
    9eb1:	8b 45 fc             	mov    -0x4(%rbp),%eax
    9eb4:	f7 d8                	neg    %eax
    9eb6:	5d                   	pop    %rbp
    9eb7:	c3                   	retq   

0000000000009eb8 <safe_add_func_uint32_t_u_u>:
    9eb8:	f3 0f 1e fa          	endbr64 
    9ebc:	55                   	push   %rbp
    9ebd:	48 89 e5             	mov    %rsp,%rbp
    9ec0:	89 7d fc             	mov    %edi,-0x4(%rbp)
    9ec3:	89 75 f8             	mov    %esi,-0x8(%rbp)
    9ec6:	8b 55 fc             	mov    -0x4(%rbp),%edx
    9ec9:	8b 45 f8             	mov    -0x8(%rbp),%eax
    9ecc:	01 d0                	add    %edx,%eax
    9ece:	5d                   	pop    %rbp
    9ecf:	c3                   	retq   

0000000000009ed0 <safe_sub_func_uint32_t_u_u>:
    9ed0:	f3 0f 1e fa          	endbr64 
    9ed4:	55                   	push   %rbp
    9ed5:	48 89 e5             	mov    %rsp,%rbp
    9ed8:	89 7d fc             	mov    %edi,-0x4(%rbp)
    9edb:	89 75 f8             	mov    %esi,-0x8(%rbp)
    9ede:	8b 45 fc             	mov    -0x4(%rbp),%eax
    9ee1:	2b 45 f8             	sub    -0x8(%rbp),%eax
    9ee4:	5d                   	pop    %rbp
    9ee5:	c3                   	retq   

0000000000009ee6 <safe_mul_func_uint32_t_u_u>:
    9ee6:	f3 0f 1e fa          	endbr64 
    9eea:	55                   	push   %rbp
    9eeb:	48 89 e5             	mov    %rsp,%rbp
    9eee:	89 7d fc             	mov    %edi,-0x4(%rbp)
    9ef1:	89 75 f8             	mov    %esi,-0x8(%rbp)
    9ef4:	8b 45 fc             	mov    -0x4(%rbp),%eax
    9ef7:	0f af 45 f8          	imul   -0x8(%rbp),%eax
    9efb:	5d                   	pop    %rbp
    9efc:	c3                   	retq   

0000000000009efd <safe_mod_func_uint32_t_u_u>:
    9efd:	f3 0f 1e fa          	endbr64 
    9f01:	55                   	push   %rbp
    9f02:	48 89 e5             	mov    %rsp,%rbp
    9f05:	89 7d fc             	mov    %edi,-0x4(%rbp)
    9f08:	89 75 f8             	mov    %esi,-0x8(%rbp)
    9f0b:	83 7d f8 00          	cmpl   $0x0,-0x8(%rbp)
    9f0f:	74 0f                	je     9f20 <safe_mod_func_uint32_t_u_u+0x23>
    9f11:	8b 45 fc             	mov    -0x4(%rbp),%eax
    9f14:	ba 00 00 00 00       	mov    $0x0,%edx
    9f19:	f7 75 f8             	divl   -0x8(%rbp)
    9f1c:	89 d0                	mov    %edx,%eax
    9f1e:	eb 03                	jmp    9f23 <safe_mod_func_uint32_t_u_u+0x26>
    9f20:	8b 45 fc             	mov    -0x4(%rbp),%eax
    9f23:	5d                   	pop    %rbp
    9f24:	c3                   	retq   

0000000000009f25 <safe_div_func_uint32_t_u_u>:
    9f25:	f3 0f 1e fa          	endbr64 
    9f29:	55                   	push   %rbp
    9f2a:	48 89 e5             	mov    %rsp,%rbp
    9f2d:	89 7d fc             	mov    %edi,-0x4(%rbp)
    9f30:	89 75 f8             	mov    %esi,-0x8(%rbp)
    9f33:	83 7d f8 00          	cmpl   $0x0,-0x8(%rbp)
    9f37:	74 0d                	je     9f46 <safe_div_func_uint32_t_u_u+0x21>
    9f39:	8b 45 fc             	mov    -0x4(%rbp),%eax
    9f3c:	ba 00 00 00 00       	mov    $0x0,%edx
    9f41:	f7 75 f8             	divl   -0x8(%rbp)
    9f44:	eb 03                	jmp    9f49 <safe_div_func_uint32_t_u_u+0x24>
    9f46:	8b 45 fc             	mov    -0x4(%rbp),%eax
    9f49:	5d                   	pop    %rbp
    9f4a:	c3                   	retq   

0000000000009f4b <safe_lshift_func_uint32_t_u_s>:
    9f4b:	f3 0f 1e fa          	endbr64 
    9f4f:	55                   	push   %rbp
    9f50:	48 89 e5             	mov    %rsp,%rbp
    9f53:	89 7d fc             	mov    %edi,-0x4(%rbp)
    9f56:	89 75 f8             	mov    %esi,-0x8(%rbp)
    9f59:	83 7d f8 00          	cmpl   $0x0,-0x8(%rbp)
    9f5d:	78 27                	js     9f86 <safe_lshift_func_uint32_t_u_s+0x3b>
    9f5f:	83 7d f8 1f          	cmpl   $0x1f,-0x8(%rbp)
    9f63:	7f 21                	jg     9f86 <safe_lshift_func_uint32_t_u_s+0x3b>
    9f65:	8b 45 f8             	mov    -0x8(%rbp),%eax
    9f68:	ba ff ff ff ff       	mov    $0xffffffff,%edx
    9f6d:	89 c1                	mov    %eax,%ecx
    9f6f:	d3 ea                	shr    %cl,%edx
    9f71:	89 d0                	mov    %edx,%eax
    9f73:	39 45 fc             	cmp    %eax,-0x4(%rbp)
    9f76:	77 0e                	ja     9f86 <safe_lshift_func_uint32_t_u_s+0x3b>
    9f78:	8b 45 f8             	mov    -0x8(%rbp),%eax
    9f7b:	8b 55 fc             	mov    -0x4(%rbp),%edx
    9f7e:	89 c1                	mov    %eax,%ecx
    9f80:	d3 e2                	shl    %cl,%edx
    9f82:	89 d0                	mov    %edx,%eax
    9f84:	eb 03                	jmp    9f89 <safe_lshift_func_uint32_t_u_s+0x3e>
    9f86:	8b 45 fc             	mov    -0x4(%rbp),%eax
    9f89:	5d                   	pop    %rbp
    9f8a:	c3                   	retq   

0000000000009f8b <safe_lshift_func_uint32_t_u_u>:
    9f8b:	f3 0f 1e fa          	endbr64 
    9f8f:	55                   	push   %rbp
    9f90:	48 89 e5             	mov    %rsp,%rbp
    9f93:	89 7d fc             	mov    %edi,-0x4(%rbp)
    9f96:	89 75 f8             	mov    %esi,-0x8(%rbp)
    9f99:	83 7d f8 1f          	cmpl   $0x1f,-0x8(%rbp)
    9f9d:	77 21                	ja     9fc0 <safe_lshift_func_uint32_t_u_u+0x35>
    9f9f:	8b 45 f8             	mov    -0x8(%rbp),%eax
    9fa2:	ba ff ff ff ff       	mov    $0xffffffff,%edx
    9fa7:	89 c1                	mov    %eax,%ecx
    9fa9:	d3 ea                	shr    %cl,%edx
    9fab:	89 d0                	mov    %edx,%eax
    9fad:	39 45 fc             	cmp    %eax,-0x4(%rbp)
    9fb0:	77 0e                	ja     9fc0 <safe_lshift_func_uint32_t_u_u+0x35>
    9fb2:	8b 45 f8             	mov    -0x8(%rbp),%eax
    9fb5:	8b 55 fc             	mov    -0x4(%rbp),%edx
    9fb8:	89 c1                	mov    %eax,%ecx
    9fba:	d3 e2                	shl    %cl,%edx
    9fbc:	89 d0                	mov    %edx,%eax
    9fbe:	eb 03                	jmp    9fc3 <safe_lshift_func_uint32_t_u_u+0x38>
    9fc0:	8b 45 fc             	mov    -0x4(%rbp),%eax
    9fc3:	5d                   	pop    %rbp
    9fc4:	c3                   	retq   

0000000000009fc5 <safe_rshift_func_uint32_t_u_s>:
    9fc5:	f3 0f 1e fa          	endbr64 
    9fc9:	55                   	push   %rbp
    9fca:	48 89 e5             	mov    %rsp,%rbp
    9fcd:	89 7d fc             	mov    %edi,-0x4(%rbp)
    9fd0:	89 75 f8             	mov    %esi,-0x8(%rbp)
    9fd3:	83 7d f8 00          	cmpl   $0x0,-0x8(%rbp)
    9fd7:	78 14                	js     9fed <safe_rshift_func_uint32_t_u_s+0x28>
    9fd9:	83 7d f8 1f          	cmpl   $0x1f,-0x8(%rbp)
    9fdd:	7f 0e                	jg     9fed <safe_rshift_func_uint32_t_u_s+0x28>
    9fdf:	8b 45 f8             	mov    -0x8(%rbp),%eax
    9fe2:	8b 55 fc             	mov    -0x4(%rbp),%edx
    9fe5:	89 c1                	mov    %eax,%ecx
    9fe7:	d3 ea                	shr    %cl,%edx
    9fe9:	89 d0                	mov    %edx,%eax
    9feb:	eb 03                	jmp    9ff0 <safe_rshift_func_uint32_t_u_s+0x2b>
    9fed:	8b 45 fc             	mov    -0x4(%rbp),%eax
    9ff0:	5d                   	pop    %rbp
    9ff1:	c3                   	retq   

0000000000009ff2 <safe_rshift_func_uint32_t_u_u>:
    9ff2:	f3 0f 1e fa          	endbr64 
    9ff6:	55                   	push   %rbp
    9ff7:	48 89 e5             	mov    %rsp,%rbp
    9ffa:	89 7d fc             	mov    %edi,-0x4(%rbp)
    9ffd:	89 75 f8             	mov    %esi,-0x8(%rbp)
    a000:	83 7d f8 1f          	cmpl   $0x1f,-0x8(%rbp)
    a004:	77 0e                	ja     a014 <safe_rshift_func_uint32_t_u_u+0x22>
    a006:	8b 45 f8             	mov    -0x8(%rbp),%eax
    a009:	8b 55 fc             	mov    -0x4(%rbp),%edx
    a00c:	89 c1                	mov    %eax,%ecx
    a00e:	d3 ea                	shr    %cl,%edx
    a010:	89 d0                	mov    %edx,%eax
    a012:	eb 03                	jmp    a017 <safe_rshift_func_uint32_t_u_u+0x25>
    a014:	8b 45 fc             	mov    -0x4(%rbp),%eax
    a017:	5d                   	pop    %rbp
    a018:	c3                   	retq   

000000000000a019 <safe_unary_minus_func_uint64_t_u>:
    a019:	f3 0f 1e fa          	endbr64 
    a01d:	55                   	push   %rbp
    a01e:	48 89 e5             	mov    %rsp,%rbp
    a021:	48 89 7d f8          	mov    %rdi,-0x8(%rbp)
    a025:	48 8b 45 f8          	mov    -0x8(%rbp),%rax
    a029:	48 f7 d8             	neg    %rax
    a02c:	5d                   	pop    %rbp
    a02d:	c3                   	retq   

000000000000a02e <safe_add_func_uint64_t_u_u>:
    a02e:	f3 0f 1e fa          	endbr64 
    a032:	55                   	push   %rbp
    a033:	48 89 e5             	mov    %rsp,%rbp
    a036:	48 89 7d f8          	mov    %rdi,-0x8(%rbp)
    a03a:	48 89 75 f0          	mov    %rsi,-0x10(%rbp)
    a03e:	48 8b 55 f8          	mov    -0x8(%rbp),%rdx
    a042:	48 8b 45 f0          	mov    -0x10(%rbp),%rax
    a046:	48 01 d0             	add    %rdx,%rax
    a049:	5d                   	pop    %rbp
    a04a:	c3                   	retq   

000000000000a04b <safe_sub_func_uint64_t_u_u>:
    a04b:	f3 0f 1e fa          	endbr64 
    a04f:	55                   	push   %rbp
    a050:	48 89 e5             	mov    %rsp,%rbp
    a053:	48 89 7d f8          	mov    %rdi,-0x8(%rbp)
    a057:	48 89 75 f0          	mov    %rsi,-0x10(%rbp)
    a05b:	48 8b 45 f8          	mov    -0x8(%rbp),%rax
    a05f:	48 2b 45 f0          	sub    -0x10(%rbp),%rax
    a063:	5d                   	pop    %rbp
    a064:	c3                   	retq   

000000000000a065 <safe_mul_func_uint64_t_u_u>:
    a065:	f3 0f 1e fa          	endbr64 
    a069:	55                   	push   %rbp
    a06a:	48 89 e5             	mov    %rsp,%rbp
    a06d:	48 89 7d f8          	mov    %rdi,-0x8(%rbp)
    a071:	48 89 75 f0          	mov    %rsi,-0x10(%rbp)
    a075:	48 8b 45 f8          	mov    -0x8(%rbp),%rax
    a079:	48 0f af 45 f0       	imul   -0x10(%rbp),%rax
    a07e:	5d                   	pop    %rbp
    a07f:	c3                   	retq   

000000000000a080 <safe_mod_func_uint64_t_u_u>:
    a080:	f3 0f 1e fa          	endbr64 
    a084:	55                   	push   %rbp
    a085:	48 89 e5             	mov    %rsp,%rbp
    a088:	48 89 7d f8          	mov    %rdi,-0x8(%rbp)
    a08c:	48 89 75 f0          	mov    %rsi,-0x10(%rbp)
    a090:	48 83 7d f0 00       	cmpq   $0x0,-0x10(%rbp)
    a095:	74 12                	je     a0a9 <safe_mod_func_uint64_t_u_u+0x29>
    a097:	48 8b 45 f8          	mov    -0x8(%rbp),%rax
    a09b:	ba 00 00 00 00       	mov    $0x0,%edx
    a0a0:	48 f7 75 f0          	divq   -0x10(%rbp)
    a0a4:	48 89 d0             	mov    %rdx,%rax
    a0a7:	eb 04                	jmp    a0ad <safe_mod_func_uint64_t_u_u+0x2d>
    a0a9:	48 8b 45 f8          	mov    -0x8(%rbp),%rax
    a0ad:	5d                   	pop    %rbp
    a0ae:	c3                   	retq   

000000000000a0af <safe_div_func_uint64_t_u_u>:
    a0af:	f3 0f 1e fa          	endbr64 
    a0b3:	55                   	push   %rbp
    a0b4:	48 89 e5             	mov    %rsp,%rbp
    a0b7:	48 89 7d f8          	mov    %rdi,-0x8(%rbp)
    a0bb:	48 89 75 f0          	mov    %rsi,-0x10(%rbp)
    a0bf:	48 83 7d f0 00       	cmpq   $0x0,-0x10(%rbp)
    a0c4:	74 0f                	je     a0d5 <safe_div_func_uint64_t_u_u+0x26>
    a0c6:	48 8b 45 f8          	mov    -0x8(%rbp),%rax
    a0ca:	ba 00 00 00 00       	mov    $0x0,%edx
    a0cf:	48 f7 75 f0          	divq   -0x10(%rbp)
    a0d3:	eb 04                	jmp    a0d9 <safe_div_func_uint64_t_u_u+0x2a>
    a0d5:	48 8b 45 f8          	mov    -0x8(%rbp),%rax
    a0d9:	5d                   	pop    %rbp
    a0da:	c3                   	retq   

000000000000a0db <safe_lshift_func_uint64_t_u_s>:
    a0db:	f3 0f 1e fa          	endbr64 
    a0df:	55                   	push   %rbp
    a0e0:	48 89 e5             	mov    %rsp,%rbp
    a0e3:	48 89 7d f8          	mov    %rdi,-0x8(%rbp)
    a0e7:	89 75 f4             	mov    %esi,-0xc(%rbp)
    a0ea:	83 7d f4 00          	cmpl   $0x0,-0xc(%rbp)
    a0ee:	78 2f                	js     a11f <safe_lshift_func_uint64_t_u_s+0x44>
    a0f0:	83 7d f4 1f          	cmpl   $0x1f,-0xc(%rbp)
    a0f4:	7f 29                	jg     a11f <safe_lshift_func_uint64_t_u_s+0x44>
    a0f6:	8b 45 f4             	mov    -0xc(%rbp),%eax
    a0f9:	48 c7 c2 ff ff ff ff 	mov    $0xffffffffffffffff,%rdx
    a100:	89 c1                	mov    %eax,%ecx
    a102:	48 d3 ea             	shr    %cl,%rdx
    a105:	48 89 d0             	mov    %rdx,%rax
    a108:	48 39 45 f8          	cmp    %rax,-0x8(%rbp)
    a10c:	77 11                	ja     a11f <safe_lshift_func_uint64_t_u_s+0x44>
    a10e:	8b 45 f4             	mov    -0xc(%rbp),%eax
    a111:	48 8b 55 f8          	mov    -0x8(%rbp),%rdx
    a115:	89 c1                	mov    %eax,%ecx
    a117:	48 d3 e2             	shl    %cl,%rdx
    a11a:	48 89 d0             	mov    %rdx,%rax
    a11d:	eb 04                	jmp    a123 <safe_lshift_func_uint64_t_u_s+0x48>
    a11f:	48 8b 45 f8          	mov    -0x8(%rbp),%rax
    a123:	5d                   	pop    %rbp
    a124:	c3                   	retq   

000000000000a125 <safe_lshift_func_uint64_t_u_u>:
    a125:	f3 0f 1e fa          	endbr64 
    a129:	55                   	push   %rbp
    a12a:	48 89 e5             	mov    %rsp,%rbp
    a12d:	48 89 7d f8          	mov    %rdi,-0x8(%rbp)
    a131:	89 75 f4             	mov    %esi,-0xc(%rbp)
    a134:	83 7d f4 1f          	cmpl   $0x1f,-0xc(%rbp)
    a138:	77 29                	ja     a163 <safe_lshift_func_uint64_t_u_u+0x3e>
    a13a:	8b 45 f4             	mov    -0xc(%rbp),%eax
    a13d:	48 c7 c2 ff ff ff ff 	mov    $0xffffffffffffffff,%rdx
    a144:	89 c1                	mov    %eax,%ecx
    a146:	48 d3 ea             	shr    %cl,%rdx
    a149:	48 89 d0             	mov    %rdx,%rax
    a14c:	48 39 45 f8          	cmp    %rax,-0x8(%rbp)
    a150:	77 11                	ja     a163 <safe_lshift_func_uint64_t_u_u+0x3e>
    a152:	8b 45 f4             	mov    -0xc(%rbp),%eax
    a155:	48 8b 55 f8          	mov    -0x8(%rbp),%rdx
    a159:	89 c1                	mov    %eax,%ecx
    a15b:	48 d3 e2             	shl    %cl,%rdx
    a15e:	48 89 d0             	mov    %rdx,%rax
    a161:	eb 04                	jmp    a167 <safe_lshift_func_uint64_t_u_u+0x42>
    a163:	48 8b 45 f8          	mov    -0x8(%rbp),%rax
    a167:	5d                   	pop    %rbp
    a168:	c3                   	retq   

000000000000a169 <safe_rshift_func_uint64_t_u_s>:
    a169:	f3 0f 1e fa          	endbr64 
    a16d:	55                   	push   %rbp
    a16e:	48 89 e5             	mov    %rsp,%rbp
    a171:	48 89 7d f8          	mov    %rdi,-0x8(%rbp)
    a175:	89 75 f4             	mov    %esi,-0xc(%rbp)
    a178:	83 7d f4 00          	cmpl   $0x0,-0xc(%rbp)
    a17c:	78 17                	js     a195 <safe_rshift_func_uint64_t_u_s+0x2c>
    a17e:	83 7d f4 1f          	cmpl   $0x1f,-0xc(%rbp)
    a182:	7f 11                	jg     a195 <safe_rshift_func_uint64_t_u_s+0x2c>
    a184:	8b 45 f4             	mov    -0xc(%rbp),%eax
    a187:	48 8b 55 f8          	mov    -0x8(%rbp),%rdx
    a18b:	89 c1                	mov    %eax,%ecx
    a18d:	48 d3 ea             	shr    %cl,%rdx
    a190:	48 89 d0             	mov    %rdx,%rax
    a193:	eb 04                	jmp    a199 <safe_rshift_func_uint64_t_u_s+0x30>
    a195:	48 8b 45 f8          	mov    -0x8(%rbp),%rax
    a199:	5d                   	pop    %rbp
    a19a:	c3                   	retq   

000000000000a19b <safe_rshift_func_uint64_t_u_u>:
    a19b:	f3 0f 1e fa          	endbr64 
    a19f:	55                   	push   %rbp
    a1a0:	48 89 e5             	mov    %rsp,%rbp
    a1a3:	48 89 7d f8          	mov    %rdi,-0x8(%rbp)
    a1a7:	89 75 f4             	mov    %esi,-0xc(%rbp)
    a1aa:	83 7d f4 1f          	cmpl   $0x1f,-0xc(%rbp)
    a1ae:	77 11                	ja     a1c1 <safe_rshift_func_uint64_t_u_u+0x26>
    a1b0:	8b 45 f4             	mov    -0xc(%rbp),%eax
    a1b3:	48 8b 55 f8          	mov    -0x8(%rbp),%rdx
    a1b7:	89 c1                	mov    %eax,%ecx
    a1b9:	48 d3 ea             	shr    %cl,%rdx
    a1bc:	48 89 d0             	mov    %rdx,%rax
    a1bf:	eb 04                	jmp    a1c5 <safe_rshift_func_uint64_t_u_u+0x2a>
    a1c1:	48 8b 45 f8          	mov    -0x8(%rbp),%rax
    a1c5:	5d                   	pop    %rbp
    a1c6:	c3                   	retq   

000000000000a1c7 <safe_add_func_float_f_f>:
    a1c7:	f3 0f 1e fa          	endbr64 
    a1cb:	55                   	push   %rbp
    a1cc:	48 89 e5             	mov    %rsp,%rbp
    a1cf:	f3 0f 11 45 fc       	movss  %xmm0,-0x4(%rbp)
    a1d4:	f3 0f 11 4d f8       	movss  %xmm1,-0x8(%rbp)
    a1d9:	f3 0f 10 4d fc       	movss  -0x4(%rbp),%xmm1
    a1de:	f3 0f 10 05 12 80 00 	movss  0x8012(%rip),%xmm0        # 121f8 <g_2298+0x188>
    a1e5:	00 
    a1e6:	f3 0f 59 c8          	mulss  %xmm0,%xmm1
    a1ea:	f3 0f 10 55 f8       	movss  -0x8(%rbp),%xmm2
    a1ef:	f3 0f 10 05 01 80 00 	movss  0x8001(%rip),%xmm0        # 121f8 <g_2298+0x188>
    a1f6:	00 
    a1f7:	f3 0f 59 c2          	mulss  %xmm2,%xmm0
    a1fb:	f3 0f 58 c1          	addss  %xmm1,%xmm0
    a1ff:	f3 0f 10 0d f9 7f 00 	movss  0x7ff9(%rip),%xmm1        # 12200 <g_2298+0x190>
    a206:	00 
    a207:	0f 54 c1             	andps  %xmm1,%xmm0
    a20a:	0f 2f 05 ff 7f 00 00 	comiss 0x7fff(%rip),%xmm0        # 12210 <g_2298+0x1a0>
    a211:	76 07                	jbe    a21a <safe_add_func_float_f_f+0x53>
    a213:	f3 0f 10 45 fc       	movss  -0x4(%rbp),%xmm0
    a218:	eb 0a                	jmp    a224 <safe_add_func_float_f_f+0x5d>
    a21a:	f3 0f 10 45 fc       	movss  -0x4(%rbp),%xmm0
    a21f:	f3 0f 58 45 f8       	addss  -0x8(%rbp),%xmm0
    a224:	5d                   	pop    %rbp
    a225:	c3                   	retq   

000000000000a226 <safe_sub_func_float_f_f>:
    a226:	f3 0f 1e fa          	endbr64 
    a22a:	55                   	push   %rbp
    a22b:	48 89 e5             	mov    %rsp,%rbp
    a22e:	f3 0f 11 45 fc       	movss  %xmm0,-0x4(%rbp)
    a233:	f3 0f 11 4d f8       	movss  %xmm1,-0x8(%rbp)
    a238:	f3 0f 10 4d fc       	movss  -0x4(%rbp),%xmm1
    a23d:	f3 0f 10 05 b3 7f 00 	movss  0x7fb3(%rip),%xmm0        # 121f8 <g_2298+0x188>
    a244:	00 
    a245:	f3 0f 59 c1          	mulss  %xmm1,%xmm0
    a249:	f3 0f 10 55 f8       	movss  -0x8(%rbp),%xmm2
    a24e:	f3 0f 10 0d a2 7f 00 	movss  0x7fa2(%rip),%xmm1        # 121f8 <g_2298+0x188>
    a255:	00 
    a256:	f3 0f 59 ca          	mulss  %xmm2,%xmm1
    a25a:	f3 0f 5c c1          	subss  %xmm1,%xmm0
    a25e:	f3 0f 10 0d 9a 7f 00 	movss  0x7f9a(%rip),%xmm1        # 12200 <g_2298+0x190>
    a265:	00 
    a266:	0f 54 c1             	andps  %xmm1,%xmm0
    a269:	0f 2f 05 a0 7f 00 00 	comiss 0x7fa0(%rip),%xmm0        # 12210 <g_2298+0x1a0>
    a270:	76 07                	jbe    a279 <safe_sub_func_float_f_f+0x53>
    a272:	f3 0f 10 45 fc       	movss  -0x4(%rbp),%xmm0
    a277:	eb 0a                	jmp    a283 <safe_sub_func_float_f_f+0x5d>
    a279:	f3 0f 10 45 fc       	movss  -0x4(%rbp),%xmm0
    a27e:	f3 0f 5c 45 f8       	subss  -0x8(%rbp),%xmm0
    a283:	5d                   	pop    %rbp
    a284:	c3                   	retq   

000000000000a285 <safe_mul_func_float_f_f>:
    a285:	f3 0f 1e fa          	endbr64 
    a289:	55                   	push   %rbp
    a28a:	48 89 e5             	mov    %rsp,%rbp
    a28d:	f3 0f 11 45 fc       	movss  %xmm0,-0x4(%rbp)
    a292:	f3 0f 11 4d f8       	movss  %xmm1,-0x8(%rbp)
    a297:	f3 0f 10 4d fc       	movss  -0x4(%rbp),%xmm1
    a29c:	f3 0f 10 05 70 7f 00 	movss  0x7f70(%rip),%xmm0        # 12214 <g_2298+0x1a4>
    a2a3:	00 
    a2a4:	f3 0f 59 c8          	mulss  %xmm0,%xmm1
    a2a8:	f3 0f 10 55 f8       	movss  -0x8(%rbp),%xmm2
    a2ad:	f3 0f 10 05 63 7f 00 	movss  0x7f63(%rip),%xmm0        # 12218 <g_2298+0x1a8>
    a2b4:	00 
    a2b5:	f3 0f 59 c2          	mulss  %xmm2,%xmm0
    a2b9:	f3 0f 59 c1          	mulss  %xmm1,%xmm0
    a2bd:	f3 0f 10 0d 3b 7f 00 	movss  0x7f3b(%rip),%xmm1        # 12200 <g_2298+0x190>
    a2c4:	00 
    a2c5:	0f 54 c1             	andps  %xmm1,%xmm0
    a2c8:	0f 2f 05 4d 7f 00 00 	comiss 0x7f4d(%rip),%xmm0        # 1221c <g_2298+0x1ac>
    a2cf:	76 07                	jbe    a2d8 <safe_mul_func_float_f_f+0x53>
    a2d1:	f3 0f 10 45 fc       	movss  -0x4(%rbp),%xmm0
    a2d6:	eb 0a                	jmp    a2e2 <safe_mul_func_float_f_f+0x5d>
    a2d8:	f3 0f 10 45 fc       	movss  -0x4(%rbp),%xmm0
    a2dd:	f3 0f 59 45 f8       	mulss  -0x8(%rbp),%xmm0
    a2e2:	5d                   	pop    %rbp
    a2e3:	c3                   	retq   

000000000000a2e4 <safe_div_func_float_f_f>:
    a2e4:	f3 0f 1e fa          	endbr64 
    a2e8:	55                   	push   %rbp
    a2e9:	48 89 e5             	mov    %rsp,%rbp
    a2ec:	f3 0f 11 45 fc       	movss  %xmm0,-0x4(%rbp)
    a2f1:	f3 0f 11 4d f8       	movss  %xmm1,-0x8(%rbp)
    a2f6:	f3 0f 10 45 f8       	movss  -0x8(%rbp),%xmm0
    a2fb:	f3 0f 10 0d fd 7e 00 	movss  0x7efd(%rip),%xmm1        # 12200 <g_2298+0x190>
    a302:	00 
    a303:	0f 54 c8             	andps  %xmm0,%xmm1
    a306:	f3 0f 10 05 12 7f 00 	movss  0x7f12(%rip),%xmm0        # 12220 <g_2298+0x1b0>
    a30d:	00 
    a30e:	0f 2f c1             	comiss %xmm1,%xmm0
    a311:	0f 97 c0             	seta   %al
    a314:	83 f0 01             	xor    $0x1,%eax
    a317:	84 c0                	test   %al,%al
    a319:	75 56                	jne    a371 <safe_div_func_float_f_f+0x8d>
    a31b:	66 0f ef c0          	pxor   %xmm0,%xmm0
    a31f:	0f 2e 45 f8          	ucomiss -0x8(%rbp),%xmm0
    a323:	7a 0a                	jp     a32f <safe_div_func_float_f_f+0x4b>
    a325:	66 0f ef c0          	pxor   %xmm0,%xmm0
    a329:	0f 2e 45 f8          	ucomiss -0x8(%rbp),%xmm0
    a32d:	74 4e                	je     a37d <safe_div_func_float_f_f+0x99>
    a32f:	f3 0f 10 4d fc       	movss  -0x4(%rbp),%xmm1
    a334:	f3 0f 10 05 e8 7e 00 	movss  0x7ee8(%rip),%xmm0        # 12224 <g_2298+0x1b4>
    a33b:	00 
    a33c:	f3 0f 59 c1          	mulss  %xmm1,%xmm0
    a340:	f3 0f 10 55 f8       	movss  -0x8(%rbp),%xmm2
    a345:	f3 0f 10 0d db 7e 00 	movss  0x7edb(%rip),%xmm1        # 12228 <g_2298+0x1b8>
    a34c:	00 
    a34d:	f3 0f 59 ca          	mulss  %xmm2,%xmm1
    a351:	f3 0f 5e c1          	divss  %xmm1,%xmm0
    a355:	f3 0f 10 0d a3 7e 00 	movss  0x7ea3(%rip),%xmm1        # 12200 <g_2298+0x190>
    a35c:	00 
    a35d:	0f 54 c1             	andps  %xmm1,%xmm0
    a360:	0f 2f 05 c5 7e 00 00 	comiss 0x7ec5(%rip),%xmm0        # 1222c <g_2298+0x1bc>
    a367:	0f 97 c0             	seta   %al
    a36a:	83 f0 01             	xor    $0x1,%eax
    a36d:	84 c0                	test   %al,%al
    a36f:	74 0c                	je     a37d <safe_div_func_float_f_f+0x99>
    a371:	f3 0f 10 45 fc       	movss  -0x4(%rbp),%xmm0
    a376:	f3 0f 5e 45 f8       	divss  -0x8(%rbp),%xmm0
    a37b:	eb 05                	jmp    a382 <safe_div_func_float_f_f+0x9e>
    a37d:	f3 0f 10 45 fc       	movss  -0x4(%rbp),%xmm0
    a382:	5d                   	pop    %rbp
    a383:	c3                   	retq   

000000000000a384 <safe_add_func_double_f_f>:
    a384:	f3 0f 1e fa          	endbr64 
    a388:	55                   	push   %rbp
    a389:	48 89 e5             	mov    %rsp,%rbp
    a38c:	f2 0f 11 45 f8       	movsd  %xmm0,-0x8(%rbp)
    a391:	f2 0f 11 4d f0       	movsd  %xmm1,-0x10(%rbp)
    a396:	f2 0f 10 4d f8       	movsd  -0x8(%rbp),%xmm1
    a39b:	f2 0f 10 05 8d 7e 00 	movsd  0x7e8d(%rip),%xmm0        # 12230 <g_2298+0x1c0>
    a3a2:	00 
    a3a3:	f2 0f 59 c8          	mulsd  %xmm0,%xmm1
    a3a7:	f2 0f 10 55 f0       	movsd  -0x10(%rbp),%xmm2
    a3ac:	f2 0f 10 05 7c 7e 00 	movsd  0x7e7c(%rip),%xmm0        # 12230 <g_2298+0x1c0>
    a3b3:	00 
    a3b4:	f2 0f 59 c2          	mulsd  %xmm2,%xmm0
    a3b8:	f2 0f 58 c1          	addsd  %xmm1,%xmm0
    a3bc:	f3 0f 7e 0d 7c 7e 00 	movq   0x7e7c(%rip),%xmm1        # 12240 <g_2298+0x1d0>
    a3c3:	00 
    a3c4:	66 0f 54 c1          	andpd  %xmm1,%xmm0
    a3c8:	66 0f 2f 05 80 7e 00 	comisd 0x7e80(%rip),%xmm0        # 12250 <g_2298+0x1e0>
    a3cf:	00 
    a3d0:	76 07                	jbe    a3d9 <safe_add_func_double_f_f+0x55>
    a3d2:	f2 0f 10 45 f8       	movsd  -0x8(%rbp),%xmm0
    a3d7:	eb 0a                	jmp    a3e3 <safe_add_func_double_f_f+0x5f>
    a3d9:	f2 0f 10 45 f8       	movsd  -0x8(%rbp),%xmm0
    a3de:	f2 0f 58 45 f0       	addsd  -0x10(%rbp),%xmm0
    a3e3:	5d                   	pop    %rbp
    a3e4:	c3                   	retq   

000000000000a3e5 <safe_sub_func_double_f_f>:
    a3e5:	f3 0f 1e fa          	endbr64 
    a3e9:	55                   	push   %rbp
    a3ea:	48 89 e5             	mov    %rsp,%rbp
    a3ed:	f2 0f 11 45 f8       	movsd  %xmm0,-0x8(%rbp)
    a3f2:	f2 0f 11 4d f0       	movsd  %xmm1,-0x10(%rbp)
    a3f7:	f2 0f 10 4d f8       	movsd  -0x8(%rbp),%xmm1
    a3fc:	f2 0f 10 05 2c 7e 00 	movsd  0x7e2c(%rip),%xmm0        # 12230 <g_2298+0x1c0>
    a403:	00 
    a404:	f2 0f 59 c1          	mulsd  %xmm1,%xmm0
    a408:	f2 0f 10 55 f0       	movsd  -0x10(%rbp),%xmm2
    a40d:	f2 0f 10 0d 1b 7e 00 	movsd  0x7e1b(%rip),%xmm1        # 12230 <g_2298+0x1c0>
    a414:	00 
    a415:	f2 0f 59 ca          	mulsd  %xmm2,%xmm1
    a419:	f2 0f 5c c1          	subsd  %xmm1,%xmm0
    a41d:	f3 0f 7e 0d 1b 7e 00 	movq   0x7e1b(%rip),%xmm1        # 12240 <g_2298+0x1d0>
    a424:	00 
    a425:	66 0f 54 c1          	andpd  %xmm1,%xmm0
    a429:	66 0f 2f 05 1f 7e 00 	comisd 0x7e1f(%rip),%xmm0        # 12250 <g_2298+0x1e0>
    a430:	00 
    a431:	76 07                	jbe    a43a <safe_sub_func_double_f_f+0x55>
    a433:	f2 0f 10 45 f8       	movsd  -0x8(%rbp),%xmm0
    a438:	eb 0a                	jmp    a444 <safe_sub_func_double_f_f+0x5f>
    a43a:	f2 0f 10 45 f8       	movsd  -0x8(%rbp),%xmm0
    a43f:	f2 0f 5c 45 f0       	subsd  -0x10(%rbp),%xmm0
    a444:	5d                   	pop    %rbp
    a445:	c3                   	retq   

000000000000a446 <safe_mul_func_double_f_f>:
    a446:	f3 0f 1e fa          	endbr64 
    a44a:	55                   	push   %rbp
    a44b:	48 89 e5             	mov    %rsp,%rbp
    a44e:	f2 0f 11 45 f8       	movsd  %xmm0,-0x8(%rbp)
    a453:	f2 0f 11 4d f0       	movsd  %xmm1,-0x10(%rbp)
    a458:	f2 0f 10 4d f8       	movsd  -0x8(%rbp),%xmm1
    a45d:	f2 0f 10 05 f3 7d 00 	movsd  0x7df3(%rip),%xmm0        # 12258 <g_2298+0x1e8>
    a464:	00 
    a465:	f2 0f 59 c8          	mulsd  %xmm0,%xmm1
    a469:	f2 0f 10 55 f0       	movsd  -0x10(%rbp),%xmm2
    a46e:	f2 0f 10 05 ea 7d 00 	movsd  0x7dea(%rip),%xmm0        # 12260 <g_2298+0x1f0>
    a475:	00 
    a476:	f2 0f 59 c2          	mulsd  %xmm2,%xmm0
    a47a:	f2 0f 59 c1          	mulsd  %xmm1,%xmm0
    a47e:	f3 0f 7e 0d ba 7d 00 	movq   0x7dba(%rip),%xmm1        # 12240 <g_2298+0x1d0>
    a485:	00 
    a486:	66 0f 54 c1          	andpd  %xmm1,%xmm0
    a48a:	66 0f 2f 05 d6 7d 00 	comisd 0x7dd6(%rip),%xmm0        # 12268 <g_2298+0x1f8>
    a491:	00 
    a492:	76 07                	jbe    a49b <safe_mul_func_double_f_f+0x55>
    a494:	f2 0f 10 45 f8       	movsd  -0x8(%rbp),%xmm0
    a499:	eb 0a                	jmp    a4a5 <safe_mul_func_double_f_f+0x5f>
    a49b:	f2 0f 10 45 f8       	movsd  -0x8(%rbp),%xmm0
    a4a0:	f2 0f 59 45 f0       	mulsd  -0x10(%rbp),%xmm0
    a4a5:	5d                   	pop    %rbp
    a4a6:	c3                   	retq   

000000000000a4a7 <safe_div_func_double_f_f>:
    a4a7:	f3 0f 1e fa          	endbr64 
    a4ab:	55                   	push   %rbp
    a4ac:	48 89 e5             	mov    %rsp,%rbp
    a4af:	f2 0f 11 45 f8       	movsd  %xmm0,-0x8(%rbp)
    a4b4:	f2 0f 11 4d f0       	movsd  %xmm1,-0x10(%rbp)
    a4b9:	f2 0f 10 45 f0       	movsd  -0x10(%rbp),%xmm0
    a4be:	f3 0f 7e 0d 7a 7d 00 	movq   0x7d7a(%rip),%xmm1        # 12240 <g_2298+0x1d0>
    a4c5:	00 
    a4c6:	66 0f 54 c8          	andpd  %xmm0,%xmm1
    a4ca:	f2 0f 10 05 9e 7d 00 	movsd  0x7d9e(%rip),%xmm0        # 12270 <g_2298+0x200>
    a4d1:	00 
    a4d2:	66 0f 2f c1          	comisd %xmm1,%xmm0
    a4d6:	0f 97 c0             	seta   %al
    a4d9:	83 f0 01             	xor    $0x1,%eax
    a4dc:	84 c0                	test   %al,%al
    a4de:	75 5a                	jne    a53a <safe_div_func_double_f_f+0x93>
    a4e0:	66 0f ef c0          	pxor   %xmm0,%xmm0
    a4e4:	66 0f 2e 45 f0       	ucomisd -0x10(%rbp),%xmm0
    a4e9:	7a 0b                	jp     a4f6 <safe_div_func_double_f_f+0x4f>
    a4eb:	66 0f ef c0          	pxor   %xmm0,%xmm0
    a4ef:	66 0f 2e 45 f0       	ucomisd -0x10(%rbp),%xmm0
    a4f4:	74 50                	je     a546 <safe_div_func_double_f_f+0x9f>
    a4f6:	f2 0f 10 4d f8       	movsd  -0x8(%rbp),%xmm1
    a4fb:	f2 0f 10 05 75 7d 00 	movsd  0x7d75(%rip),%xmm0        # 12278 <g_2298+0x208>
    a502:	00 
    a503:	f2 0f 59 c1          	mulsd  %xmm1,%xmm0
    a507:	f2 0f 10 55 f0       	movsd  -0x10(%rbp),%xmm2
    a50c:	f2 0f 10 0d 6c 7d 00 	movsd  0x7d6c(%rip),%xmm1        # 12280 <g_2298+0x210>
    a513:	00 
    a514:	f2 0f 59 ca          	mulsd  %xmm2,%xmm1
    a518:	f2 0f 5e c1          	divsd  %xmm1,%xmm0
    a51c:	f3 0f 7e 0d 1c 7d 00 	movq   0x7d1c(%rip),%xmm1        # 12240 <g_2298+0x1d0>
    a523:	00 
    a524:	66 0f 54 c1          	andpd  %xmm1,%xmm0
    a528:	66 0f 2f 05 58 7d 00 	comisd 0x7d58(%rip),%xmm0        # 12288 <g_2298+0x218>
    a52f:	00 
    a530:	0f 97 c0             	seta   %al
    a533:	83 f0 01             	xor    $0x1,%eax
    a536:	84 c0                	test   %al,%al
    a538:	74 0c                	je     a546 <safe_div_func_double_f_f+0x9f>
    a53a:	f2 0f 10 45 f8       	movsd  -0x8(%rbp),%xmm0
    a53f:	f2 0f 5e 45 f0       	divsd  -0x10(%rbp),%xmm0
    a544:	eb 05                	jmp    a54b <safe_div_func_double_f_f+0xa4>
    a546:	f2 0f 10 45 f8       	movsd  -0x8(%rbp),%xmm0
    a54b:	5d                   	pop    %rbp
    a54c:	c3                   	retq   

000000000000a54d <safe_convert_func_float_to_int32_t>:
    a54d:	f3 0f 1e fa          	endbr64 
    a551:	55                   	push   %rbp
    a552:	48 89 e5             	mov    %rsp,%rbp
    a555:	f3 0f 11 45 fc       	movss  %xmm0,-0x4(%rbp)
    a55a:	f3 0f 10 05 2e 7d 00 	movss  0x7d2e(%rip),%xmm0        # 12290 <g_2298+0x220>
    a561:	00 
    a562:	0f 2f 45 fc          	comiss -0x4(%rbp),%xmm0
    a566:	0f 93 c0             	setae  %al
    a569:	83 f0 01             	xor    $0x1,%eax
    a56c:	84 c0                	test   %al,%al
    a56e:	74 21                	je     a591 <safe_convert_func_float_to_int32_t+0x44>
    a570:	f3 0f 10 45 fc       	movss  -0x4(%rbp),%xmm0
    a575:	0f 2f 05 18 7d 00 00 	comiss 0x7d18(%rip),%xmm0        # 12294 <g_2298+0x224>
    a57c:	0f 93 c0             	setae  %al
    a57f:	83 f0 01             	xor    $0x1,%eax
    a582:	84 c0                	test   %al,%al
    a584:	74 0b                	je     a591 <safe_convert_func_float_to_int32_t+0x44>
    a586:	f3 0f 10 45 fc       	movss  -0x4(%rbp),%xmm0
    a58b:	f3 0f 2c c0          	cvttss2si %xmm0,%eax
    a58f:	eb 05                	jmp    a596 <safe_convert_func_float_to_int32_t+0x49>
    a591:	b8 ff ff ff 7f       	mov    $0x7fffffff,%eax
    a596:	5d                   	pop    %rbp
    a597:	c3                   	retq   

000000000000a598 <crc32_gentab>:
    a598:	f3 0f 1e fa          	endbr64 
    a59c:	55                   	push   %rbp
    a59d:	48 89 e5             	mov    %rsp,%rbp
    a5a0:	c7 45 fc 20 83 b8 ed 	movl   $0xedb88320,-0x4(%rbp)
    a5a7:	c7 45 f4 00 00 00 00 	movl   $0x0,-0xc(%rbp)
    a5ae:	eb 51                	jmp    a601 <crc32_gentab+0x69>
    a5b0:	8b 45 f4             	mov    -0xc(%rbp),%eax
    a5b3:	89 45 f0             	mov    %eax,-0x10(%rbp)
    a5b6:	c7 45 f8 08 00 00 00 	movl   $0x8,-0x8(%rbp)
    a5bd:	eb 1e                	jmp    a5dd <crc32_gentab+0x45>
    a5bf:	8b 45 f0             	mov    -0x10(%rbp),%eax
    a5c2:	83 e0 01             	and    $0x1,%eax
    a5c5:	85 c0                	test   %eax,%eax
    a5c7:	74 0d                	je     a5d6 <crc32_gentab+0x3e>
    a5c9:	8b 45 f0             	mov    -0x10(%rbp),%eax
    a5cc:	d1 e8                	shr    %eax
    a5ce:	33 45 fc             	xor    -0x4(%rbp),%eax
    a5d1:	89 45 f0             	mov    %eax,-0x10(%rbp)
    a5d4:	eb 03                	jmp    a5d9 <crc32_gentab+0x41>
    a5d6:	d1 6d f0             	shrl   -0x10(%rbp)
    a5d9:	83 6d f8 01          	subl   $0x1,-0x8(%rbp)
    a5dd:	83 7d f8 00          	cmpl   $0x0,-0x8(%rbp)
    a5e1:	7f dc                	jg     a5bf <crc32_gentab+0x27>
    a5e3:	8b 45 f4             	mov    -0xc(%rbp),%eax
    a5e6:	48 98                	cltq   
    a5e8:	48 8d 0c 85 00 00 00 	lea    0x0(,%rax,4),%rcx
    a5ef:	00 
    a5f0:	48 8d 15 89 df 00 00 	lea    0xdf89(%rip),%rdx        # 18580 <crc32_tab>
    a5f7:	8b 45 f0             	mov    -0x10(%rbp),%eax
    a5fa:	89 04 11             	mov    %eax,(%rcx,%rdx,1)
    a5fd:	83 45 f4 01          	addl   $0x1,-0xc(%rbp)
    a601:	81 7d f4 ff 00 00 00 	cmpl   $0xff,-0xc(%rbp)
    a608:	7e a6                	jle    a5b0 <crc32_gentab+0x18>
    a60a:	90                   	nop
    a60b:	90                   	nop
    a60c:	5d                   	pop    %rbp
    a60d:	c3                   	retq   

000000000000a60e <crc32_byte>:
    a60e:	f3 0f 1e fa          	endbr64 
    a612:	55                   	push   %rbp
    a613:	48 89 e5             	mov    %rsp,%rbp
    a616:	89 f8                	mov    %edi,%eax
    a618:	88 45 fc             	mov    %al,-0x4(%rbp)
    a61b:	8b 05 ff a9 00 00    	mov    0xa9ff(%rip),%eax        # 15020 <crc32_context>
    a621:	c1 e8 08             	shr    $0x8,%eax
    a624:	89 c1                	mov    %eax,%ecx
    a626:	0f b6 55 fc          	movzbl -0x4(%rbp),%edx
    a62a:	8b 05 f0 a9 00 00    	mov    0xa9f0(%rip),%eax        # 15020 <crc32_context>
    a630:	31 d0                	xor    %edx,%eax
    a632:	0f b6 c0             	movzbl %al,%eax
    a635:	89 c0                	mov    %eax,%eax
    a637:	48 8d 14 85 00 00 00 	lea    0x0(,%rax,4),%rdx
    a63e:	00 
    a63f:	48 8d 05 3a df 00 00 	lea    0xdf3a(%rip),%rax        # 18580 <crc32_tab>
    a646:	8b 04 02             	mov    (%rdx,%rax,1),%eax
    a649:	31 c8                	xor    %ecx,%eax
    a64b:	89 05 cf a9 00 00    	mov    %eax,0xa9cf(%rip)        # 15020 <crc32_context>
    a651:	90                   	nop
    a652:	5d                   	pop    %rbp
    a653:	c3                   	retq   

000000000000a654 <crc32_8bytes>:
    a654:	f3 0f 1e fa          	endbr64 
    a658:	55                   	push   %rbp
    a659:	48 89 e5             	mov    %rsp,%rbp
    a65c:	48 83 ec 08          	sub    $0x8,%rsp
    a660:	48 89 7d f8          	mov    %rdi,-0x8(%rbp)
    a664:	48 8b 45 f8          	mov    -0x8(%rbp),%rax
    a668:	0f b6 c0             	movzbl %al,%eax
    a66b:	89 c7                	mov    %eax,%edi
    a66d:	e8 9c ff ff ff       	callq  a60e <crc32_byte>
    a672:	48 8b 45 f8          	mov    -0x8(%rbp),%rax
    a676:	48 c1 e8 08          	shr    $0x8,%rax
    a67a:	0f b6 c0             	movzbl %al,%eax
    a67d:	89 c7                	mov    %eax,%edi
    a67f:	e8 8a ff ff ff       	callq  a60e <crc32_byte>
    a684:	48 8b 45 f8          	mov    -0x8(%rbp),%rax
    a688:	48 c1 e8 10          	shr    $0x10,%rax
    a68c:	0f b6 c0             	movzbl %al,%eax
    a68f:	89 c7                	mov    %eax,%edi
    a691:	e8 78 ff ff ff       	callq  a60e <crc32_byte>
    a696:	48 8b 45 f8          	mov    -0x8(%rbp),%rax
    a69a:	48 c1 e8 18          	shr    $0x18,%rax
    a69e:	0f b6 c0             	movzbl %al,%eax
    a6a1:	89 c7                	mov    %eax,%edi
    a6a3:	e8 66 ff ff ff       	callq  a60e <crc32_byte>
    a6a8:	48 8b 45 f8          	mov    -0x8(%rbp),%rax
    a6ac:	48 c1 e8 20          	shr    $0x20,%rax
    a6b0:	0f b6 c0             	movzbl %al,%eax
    a6b3:	89 c7                	mov    %eax,%edi
    a6b5:	e8 54 ff ff ff       	callq  a60e <crc32_byte>
    a6ba:	48 8b 45 f8          	mov    -0x8(%rbp),%rax
    a6be:	48 c1 e8 28          	shr    $0x28,%rax
    a6c2:	0f b6 c0             	movzbl %al,%eax
    a6c5:	89 c7                	mov    %eax,%edi
    a6c7:	e8 42 ff ff ff       	callq  a60e <crc32_byte>
    a6cc:	48 8b 45 f8          	mov    -0x8(%rbp),%rax
    a6d0:	48 c1 e8 30          	shr    $0x30,%rax
    a6d4:	0f b6 c0             	movzbl %al,%eax
    a6d7:	89 c7                	mov    %eax,%edi
    a6d9:	e8 30 ff ff ff       	callq  a60e <crc32_byte>
    a6de:	48 8b 45 f8          	mov    -0x8(%rbp),%rax
    a6e2:	48 c1 e8 38          	shr    $0x38,%rax
    a6e6:	0f b6 c0             	movzbl %al,%eax
    a6e9:	89 c7                	mov    %eax,%edi
    a6eb:	e8 1e ff ff ff       	callq  a60e <crc32_byte>
    a6f0:	90                   	nop
    a6f1:	c9                   	leaveq 
    a6f2:	c3                   	retq   

000000000000a6f3 <transparent_crc>:
    a6f3:	f3 0f 1e fa          	endbr64 
    a6f7:	55                   	push   %rbp
    a6f8:	48 89 e5             	mov    %rsp,%rbp
    a6fb:	48 83 ec 20          	sub    $0x20,%rsp
    a6ff:	48 89 7d f8          	mov    %rdi,-0x8(%rbp)
    a703:	48 89 75 f0          	mov    %rsi,-0x10(%rbp)
    a707:	89 55 ec             	mov    %edx,-0x14(%rbp)
    a70a:	48 8b 45 f8          	mov    -0x8(%rbp),%rax
    a70e:	48 89 c7             	mov    %rax,%rdi
    a711:	e8 3e ff ff ff       	callq  a654 <crc32_8bytes>
    a716:	83 7d ec 00          	cmpl   $0x0,-0x14(%rbp)
    a71a:	74 22                	je     a73e <transparent_crc+0x4b>
    a71c:	8b 05 fe a8 00 00    	mov    0xa8fe(%rip),%eax        # 15020 <crc32_context>
    a722:	f7 d0                	not    %eax
    a724:	89 c2                	mov    %eax,%edx
    a726:	48 8b 45 f0          	mov    -0x10(%rbp),%rax
    a72a:	48 89 c6             	mov    %rax,%rsi
    a72d:	48 8d 3d ec 78 00 00 	lea    0x78ec(%rip),%rdi        # 12020 <_IO_stdin_used+0x20>
    a734:	b8 00 00 00 00       	mov    $0x0,%eax
    a739:	e8 42 e9 ff ff       	callq  9080 <printf@plt>
    a73e:	90                   	nop
    a73f:	c9                   	leaveq 
    a740:	c3                   	retq   

000000000000a741 <transparent_crc_bytes>:
    a741:	f3 0f 1e fa          	endbr64 
    a745:	55                   	push   %rbp
    a746:	48 89 e5             	mov    %rsp,%rbp
    a749:	48 83 ec 30          	sub    $0x30,%rsp
    a74d:	48 89 7d e8          	mov    %rdi,-0x18(%rbp)
    a751:	89 75 e4             	mov    %esi,-0x1c(%rbp)
    a754:	48 89 55 d8          	mov    %rdx,-0x28(%rbp)
    a758:	89 4d e0             	mov    %ecx,-0x20(%rbp)
    a75b:	c7 45 fc 00 00 00 00 	movl   $0x0,-0x4(%rbp)
    a762:	eb 1e                	jmp    a782 <transparent_crc_bytes+0x41>
    a764:	8b 45 fc             	mov    -0x4(%rbp),%eax
    a767:	48 63 d0             	movslq %eax,%rdx
    a76a:	48 8b 45 e8          	mov    -0x18(%rbp),%rax
    a76e:	48 01 d0             	add    %rdx,%rax
    a771:	0f b6 00             	movzbl (%rax),%eax
    a774:	0f b6 c0             	movzbl %al,%eax
    a777:	89 c7                	mov    %eax,%edi
    a779:	e8 90 fe ff ff       	callq  a60e <crc32_byte>
    a77e:	83 45 fc 01          	addl   $0x1,-0x4(%rbp)
    a782:	8b 45 fc             	mov    -0x4(%rbp),%eax
    a785:	3b 45 e4             	cmp    -0x1c(%rbp),%eax
    a788:	7c da                	jl     a764 <transparent_crc_bytes+0x23>
    a78a:	83 7d e0 00          	cmpl   $0x0,-0x20(%rbp)
    a78e:	74 22                	je     a7b2 <transparent_crc_bytes+0x71>
    a790:	8b 05 8a a8 00 00    	mov    0xa88a(%rip),%eax        # 15020 <crc32_context>
    a796:	f7 d0                	not    %eax
    a798:	89 c2                	mov    %eax,%edx
    a79a:	48 8b 45 d8          	mov    -0x28(%rbp),%rax
    a79e:	48 89 c6             	mov    %rax,%rsi
    a7a1:	48 8d 3d 78 78 00 00 	lea    0x7878(%rip),%rdi        # 12020 <_IO_stdin_used+0x20>
    a7a8:	b8 00 00 00 00       	mov    $0x0,%eax
    a7ad:	e8 ce e8 ff ff       	callq  9080 <printf@plt>
    a7b2:	90                   	nop
    a7b3:	c9                   	leaveq 
    a7b4:	c3                   	retq   

000000000000a7b5 <func_1>:
    a7b5:	f3 0f 1e fa          	endbr64 
    a7b9:	55                   	push   %rbp
    a7ba:	48 89 e5             	mov    %rsp,%rbp
    a7bd:	41 57                	push   %r15
    a7bf:	41 56                	push   %r14
    a7c1:	41 55                	push   %r13
    a7c3:	41 54                	push   %r12
    a7c5:	53                   	push   %rbx
    a7c6:	48 81 ec b8 00 00 00 	sub    $0xb8,%rsp
    a7cd:	64 48 8b 04 25 28 00 	mov    %fs:0x28,%rax
    a7d4:	00 00 
    a7d6:	48 89 45 c8          	mov    %rax,-0x38(%rbp)
    a7da:	31 c0                	xor    %eax,%eax
    a7dc:	48 8d 05 55 cc 00 00 	lea    0xcc55(%rip),%rax        # 17438 <g_641>
    a7e3:	48 89 85 48 ff ff ff 	mov    %rax,-0xb8(%rbp)
    a7ea:	48 8d 85 48 ff ff ff 	lea    -0xb8(%rbp),%rax
    a7f1:	48 89 85 60 ff ff ff 	mov    %rax,-0xa0(%rbp)
    a7f8:	48 8d 05 39 e2 00 00 	lea    0xe239(%rip),%rax        # 18a38 <g_2438>
    a7ff:	48 89 85 68 ff ff ff 	mov    %rax,-0x98(%rbp)
    a806:	48 b8 0e 8a 1f 2b 96 	movabs $0x9c6337962b1f8a0e,%rax
    a80d:	37 63 9c 
    a810:	48 89 85 70 ff ff ff 	mov    %rax,-0x90(%rbp)
    a817:	c7 85 38 ff ff ff 01 	movl   $0x1,-0xc8(%rbp)
    a81e:	00 00 00 
    a821:	48 b8 f0 33 9c 27 9b 	movabs $0xf3dee89b279c33f0,%rax
    a828:	e8 de f3 
    a82b:	48 89 85 78 ff ff ff 	mov    %rax,-0x88(%rbp)
    a832:	48 8d 05 d7 a9 00 00 	lea    0xa9d7(%rip),%rax        # 15210 <g_1520>
    a839:	48 89 45 80          	mov    %rax,-0x80(%rbp)
    a83d:	c7 85 44 ff ff ff 82 	movl   $0x735c3782,-0xbc(%rbp)
    a844:	37 5c 73 
    a847:	48 8d 05 1a cf 00 00 	lea    0xcf1a(%rip),%rax        # 17768 <g_1304>
    a84e:	48 89 85 50 ff ff ff 	mov    %rax,-0xb0(%rbp)
    a855:	48 8d 85 50 ff ff ff 	lea    -0xb0(%rbp),%rax
    a85c:	48 89 85 58 ff ff ff 	mov    %rax,-0xa8(%rbp)
    a863:	48 8d 85 58 ff ff ff 	lea    -0xa8(%rbp),%rax
    a86a:	48 89 45 88          	mov    %rax,-0x78(%rbp)
    a86e:	c7 85 3c ff ff ff 00 	movl   $0x0,-0xc4(%rbp)
    a875:	00 00 00 
    a878:	eb 43                	jmp    a8bd <func_1+0x108>
    a87a:	c7 85 40 ff ff ff 00 	movl   $0x0,-0xc0(%rbp)
    a881:	00 00 00 
    a884:	eb 27                	jmp    a8ad <func_1+0xf8>
    a886:	8b 85 40 ff ff ff    	mov    -0xc0(%rbp),%eax
    a88c:	48 98                	cltq   
    a88e:	8b 95 3c ff ff ff    	mov    -0xc4(%rbp),%edx
    a894:	48 63 d2             	movslq %edx,%rdx
    a897:	48 01 d2             	add    %rdx,%rdx
    a89a:	48 01 d0             	add    %rdx,%rax
    a89d:	48 c7 44 c5 90 00 00 	movq   $0x0,-0x70(%rbp,%rax,8)
    a8a4:	00 00 
    a8a6:	83 85 40 ff ff ff 01 	addl   $0x1,-0xc0(%rbp)
    a8ad:	83 bd 40 ff ff ff 01 	cmpl   $0x1,-0xc0(%rbp)
    a8b4:	7e d0                	jle    a886 <func_1+0xd1>
    a8b6:	83 85 3c ff ff ff 01 	addl   $0x1,-0xc4(%rbp)
    a8bd:	83 bd 3c ff ff ff 02 	cmpl   $0x2,-0xc4(%rbp)
    a8c4:	7e b4                	jle    a87a <func_1+0xc5>
    a8c6:	be 0f 00 00 00       	mov    $0xf,%esi
    a8cb:	bf f9 ff 00 00       	mov    $0xfff9,%edi
    a8d0:	e8 31 f5 ff ff       	callq  9e06 <safe_lshift_func_uint16_t_u_u>
    a8d5:	0f be d0             	movsbl %al,%edx
    a8d8:	48 8b 45 b0          	mov    -0x50(%rbp),%rax
    a8dc:	0f b6 c0             	movzbl %al,%eax
    a8df:	89 d6                	mov    %edx,%esi
    a8e1:	89 c7                	mov    %eax,%edi
    a8e3:	e8 04 03 00 00       	callq  abec <func_7>
    a8e8:	41 89 c4             	mov    %eax,%r12d
    a8eb:	48 8b 45 90          	mov    -0x70(%rbp),%rax
    a8ef:	89 c3                	mov    %eax,%ebx
    a8f1:	48 8b 45 b0          	mov    -0x50(%rbp),%rax
    a8f5:	be ff ff ff ff       	mov    $0xffffffff,%esi
    a8fa:	89 c7                	mov    %eax,%edi
    a8fc:	e8 24 f6 ff ff       	callq  9f25 <safe_div_func_uint32_t_u_u>
    a901:	0f be c0             	movsbl %al,%eax
    a904:	be ff ff ff ff       	mov    $0xffffffff,%esi
    a909:	89 c7                	mov    %eax,%edi
    a90b:	e8 e2 e8 ff ff       	callq  91f2 <safe_sub_func_int8_t_s_s>
    a910:	48 8b 05 81 db 00 00 	mov    0xdb81(%rip),%rax        # 18498 <g_1896>
    a917:	48 8b 00             	mov    (%rax),%rax
    a91a:	48 85 c0             	test   %rax,%rax
    a91d:	0f 95 c0             	setne  %al
    a920:	0f b6 d0             	movzbl %al,%edx
    a923:	8b 85 38 ff ff ff    	mov    -0xc8(%rbp),%eax
    a929:	21 d0                	and    %edx,%eax
    a92b:	89 85 38 ff ff ff    	mov    %eax,-0xc8(%rbp)
    a931:	8b 85 38 ff ff ff    	mov    -0xc8(%rbp),%eax
    a937:	0f b7 c0             	movzwl %ax,%eax
    a93a:	89 de                	mov    %ebx,%esi
    a93c:	89 c7                	mov    %eax,%edi
    a93e:	e8 7b f4 ff ff       	callq  9dbe <safe_lshift_func_uint16_t_u_s>
    a943:	0f b7 d0             	movzwl %ax,%edx
    a946:	48 8b 45 b0          	mov    -0x50(%rbp),%rax
    a94a:	48 39 c2             	cmp    %rax,%rdx
    a94d:	0f 95 c0             	setne  %al
    a950:	0f b6 c0             	movzbl %al,%eax
    a953:	48 39 85 70 ff ff ff 	cmp    %rax,-0x90(%rbp)
    a95a:	0f 92 c0             	setb   %al
    a95d:	0f b6 c0             	movzbl %al,%eax
    a960:	be 08 00 00 00       	mov    $0x8,%esi
    a965:	89 c7                	mov    %eax,%edi
    a967:	e8 9a f4 ff ff       	callq  9e06 <safe_lshift_func_uint16_t_u_u>
    a96c:	48 8b 15 c5 e0 00 00 	mov    0xe0c5(%rip),%rdx        # 18a38 <g_2438>
    a973:	48 8b 85 68 ff ff ff 	mov    -0x98(%rbp),%rax
    a97a:	48 89 10             	mov    %rdx,(%rax)
    a97d:	48 83 bd 70 ff ff ff 	cmpq   $0x0,-0x90(%rbp)
    a984:	00 
    a985:	74 07                	je     a98e <func_1+0x1d9>
    a987:	b8 01 00 00 00       	mov    $0x1,%eax
    a98c:	eb 05                	jmp    a993 <func_1+0x1de>
    a98e:	b8 00 00 00 00       	mov    $0x0,%eax
    a993:	48 98                	cltq   
    a995:	48 8b 95 78 ff ff ff 	mov    -0x88(%rbp),%rdx
    a99c:	48 89 d6             	mov    %rdx,%rsi
    a99f:	48 89 c7             	mov    %rax,%rdi
    a9a2:	e8 9a ee ff ff       	callq  9841 <safe_add_func_int64_t_s_s>
    a9a7:	49 39 c4             	cmp    %rax,%r12
    a9aa:	0f 9c c0             	setl   %al
    a9ad:	0f b6 c0             	movzbl %al,%eax
    a9b0:	be 5d 31 b4 bb       	mov    $0xbbb4315d,%esi
    a9b5:	89 c7                	mov    %eax,%edi
    a9b7:	e8 fc f4 ff ff       	callq  9eb8 <safe_add_func_uint32_t_u_u>
    a9bc:	48 8b 55 80          	mov    -0x80(%rbp),%rdx
    a9c0:	0f b7 12             	movzwl (%rdx),%edx
    a9c3:	31 d0                	xor    %edx,%eax
    a9c5:	89 c2                	mov    %eax,%edx
    a9c7:	48 8b 45 80          	mov    -0x80(%rbp),%rax
    a9cb:	66 89 10             	mov    %dx,(%rax)
    a9ce:	48 8b 45 80          	mov    -0x80(%rbp),%rax
    a9d2:	0f b7 00             	movzwl (%rax),%eax
    a9d5:	0f bf d0             	movswl %ax,%edx
    a9d8:	b8 00 00 00 00       	mov    $0x0,%eax
    a9dd:	98                   	cwtl   
    a9de:	89 d6                	mov    %edx,%esi
    a9e0:	89 c7                	mov    %eax,%edi
    a9e2:	e8 0e ea ff ff       	callq  93f5 <safe_mul_func_int16_t_s_s>
    a9e7:	48 0f bf c0          	movswq %ax,%rax
    a9eb:	48 0b 85 78 ff ff ff 	or     -0x88(%rbp),%rax
    a9f2:	09 85 44 ff ff ff    	or     %eax,-0xbc(%rbp)
    a9f8:	48 8b 45 b0          	mov    -0x50(%rbp),%rax
    a9fc:	44 0f be f0          	movsbl %al,%r14d
    aa00:	8b 85 44 ff ff ff    	mov    -0xbc(%rbp),%eax
    aa06:	44 0f be e8          	movsbl %al,%r13d
    aa0a:	48 8b 45 b0          	mov    -0x50(%rbp),%rax
    aa0e:	44 0f b7 e0          	movzwl %ax,%r12d
    aa12:	48 8b 05 f7 be 00 00 	mov    0xbef7(%rip),%rax        # 16910 <g_243>
    aa19:	8b 10                	mov    (%rax),%edx
    aa1b:	48 8b 05 ee be 00 00 	mov    0xbeee(%rip),%rax        # 16910 <g_243>
    aa22:	f7 d2                	not    %edx
    aa24:	89 10                	mov    %edx,(%rax)
    aa26:	8b 00                	mov    (%rax),%eax
    aa28:	85 c0                	test   %eax,%eax
    aa2a:	74 1a                	je     aa46 <func_1+0x291>
    aa2c:	be 00 00 00 00       	mov    $0x0,%esi
    aa31:	bf 00 00 00 00       	mov    $0x0,%edi
    aa36:	e8 b3 e8 ff ff       	callq  92ee <safe_lshift_func_int8_t_s_u>
    aa3b:	84 c0                	test   %al,%al
    aa3d:	74 07                	je     aa46 <func_1+0x291>
    aa3f:	b8 01 00 00 00       	mov    $0x1,%eax
    aa44:	eb 05                	jmp    aa4b <func_1+0x296>
    aa46:	b8 00 00 00 00       	mov    $0x0,%eax
    aa4b:	48 98                	cltq   
    aa4d:	48 be ce 3b f7 e6 60 	movabs $0x2055ae60e6f73bce,%rsi
    aa54:	ae 55 20 
    aa57:	48 89 c7             	mov    %rax,%rdi
    aa5a:	e8 cf f5 ff ff       	callq  a02e <safe_add_func_uint64_t_u_u>
    aa5f:	48 89 c2             	mov    %rax,%rdx
    aa62:	48 8b 05 87 d5 00 00 	mov    0xd587(%rip),%rax        # 17ff0 <g_1864>
    aa69:	48 8b 00             	mov    (%rax),%rax
    aa6c:	89 10                	mov    %edx,(%rax)
    aa6e:	8b 00                	mov    (%rax),%eax
    aa70:	66 89 85 2e ff ff ff 	mov    %ax,-0xd2(%rbp)
    aa77:	48 8d 05 12 da 00 00 	lea    0xda12(%rip),%rax        # 18490 <g_1898>
    aa7e:	48 8b 00             	mov    (%rax),%rax
    aa81:	0f b7 00             	movzwl (%rax),%eax
    aa84:	0f bf d8             	movswl %ax,%ebx
    aa87:	8b 85 44 ff ff ff    	mov    -0xbc(%rbp),%eax
    aa8d:	48 63 d0             	movslq %eax,%rdx
    aa90:	48 8b 45 b0          	mov    -0x50(%rbp),%rax
    aa94:	48 39 c2             	cmp    %rax,%rdx
    aa97:	0f 95 c0             	setne  %al
    aa9a:	0f b6 c0             	movzbl %al,%eax
    aa9d:	89 85 38 ff ff ff    	mov    %eax,-0xc8(%rbp)
    aaa3:	8b 85 38 ff ff ff    	mov    -0xc8(%rbp),%eax
    aaa9:	48 98                	cltq   
    aaab:	48 39 85 70 ff ff ff 	cmp    %rax,-0x90(%rbp)
    aab2:	0f 96 c0             	setbe  %al
    aab5:	0f b6 c0             	movzbl %al,%eax
    aab8:	48 39 85 70 ff ff ff 	cmp    %rax,-0x90(%rbp)
    aabf:	0f 96 c0             	setbe  %al
    aac2:	44 0f b6 f8          	movzbl %al,%r15d
    aac6:	48 8b 85 70 ff ff ff 	mov    -0x90(%rbp),%rax
    aacd:	89 c2                	mov    %eax,%edx
    aacf:	8b 85 44 ff ff ff    	mov    -0xbc(%rbp),%eax
    aad5:	98                   	cwtl   
    aad6:	89 d6                	mov    %edx,%esi
    aad8:	89 c7                	mov    %eax,%edi
    aada:	e8 4b ea ff ff       	callq  952a <safe_rshift_func_int16_t_s_s>
    aadf:	48 8b 55 80          	mov    -0x80(%rbp),%rdx
    aae3:	66 89 02             	mov    %ax,(%rdx)
    aae6:	48 8b 45 80          	mov    -0x80(%rbp),%rax
    aaea:	0f b7 00             	movzwl (%rax),%eax
    aaed:	98                   	cwtl   
    aaee:	be 0c 00 00 00       	mov    $0xc,%esi
    aaf3:	89 c7                	mov    %eax,%edi
    aaf5:	e8 30 ea ff ff       	callq  952a <safe_rshift_func_int16_t_s_s>
    aafa:	98                   	cwtl   
    aafb:	44 89 fe             	mov    %r15d,%esi
    aafe:	89 c7                	mov    %eax,%edi
    ab00:	e8 5e ea ff ff       	callq  9563 <safe_rshift_func_int16_t_s_u>
    ab05:	f7 d0                	not    %eax
    ab07:	66 c1 e8 0f          	shr    $0xf,%ax
    ab0b:	0f b6 c0             	movzbl %al,%eax
    ab0e:	48 39 85 70 ff ff ff 	cmp    %rax,-0x90(%rbp)
    ab15:	0f 94 c0             	sete   %al
    ab18:	0f b6 c0             	movzbl %al,%eax
    ab1b:	89 de                	mov    %ebx,%esi
    ab1d:	89 c7                	mov    %eax,%edi
    ab1f:	e8 24 f3 ff ff       	callq  9e48 <safe_rshift_func_uint16_t_u_s>
    ab24:	f7 d0                	not    %eax
    ab26:	89 c2                	mov    %eax,%edx
    ab28:	48 8b 05 09 c9 00 00 	mov    0xc909(%rip),%rax        # 17438 <g_641>
    ab2f:	0f b7 00             	movzwl (%rax),%eax
    ab32:	31 d0                	xor    %edx,%eax
    ab34:	0f b6 d0             	movzbl %al,%edx
    ab37:	48 8b 8d 58 ff ff ff 	mov    -0xa8(%rbp),%rcx
    ab3e:	48 8b 45 88          	mov    -0x78(%rbp),%rax
    ab42:	48 89 08             	mov    %rcx,(%rax)
    ab45:	48 8b 45 88          	mov    -0x78(%rbp),%rax
    ab49:	48 8b 08             	mov    (%rax),%rcx
    ab4c:	48 8b 05 f5 d9 00 00 	mov    0xd9f5(%rip),%rax        # 18548 <g_2794>
    ab53:	48 39 c1             	cmp    %rax,%rcx
    ab56:	0f 94 c0             	sete   %al
    ab59:	0f b6 c0             	movzbl %al,%eax
    ab5c:	89 d6                	mov    %edx,%esi
    ab5e:	89 c7                	mov    %eax,%edi
    ab60:	e8 2e f0 ff ff       	callq  9b93 <safe_mul_func_uint8_t_u_u>
    ab65:	0f b6 c0             	movzbl %al,%eax
    ab68:	66 0b 85 2e ff ff ff 	or     -0xd2(%rbp),%ax
    ab6f:	0f b7 c0             	movzwl %ax,%eax
    ab72:	48 8b 15 7f d4 00 00 	mov    0xd47f(%rip),%rdx        # 17ff8 <g_1863>
    ab79:	48 8b 1a             	mov    (%rdx),%rbx
    ab7c:	89 c7                	mov    %eax,%edi
    ab7e:	e8 d4 1e 00 00       	callq  ca57 <func_28>
    ab83:	48 89 03             	mov    %rax,(%rbx)
    ab86:	48 8b 03             	mov    (%rbx),%rax
    ab89:	48 8b 1d 60 d4 00 00 	mov    0xd460(%rip),%rbx        # 17ff0 <g_1864>
    ab90:	4c 8d 05 ad a5 00 00 	lea    0xa5ad(%rip),%r8        # 15144 <g_373>
    ab97:	44 89 f1             	mov    %r14d,%ecx
    ab9a:	44 89 ea             	mov    %r13d,%edx
    ab9d:	44 89 e6             	mov    %r12d,%esi
    aba0:	48 89 c7             	mov    %rax,%rdi
    aba3:	e8 28 04 00 00       	callq  afd0 <func_22>
    aba8:	48 89 03             	mov    %rax,(%rbx)
    abab:	48 8b 05 46 d4 00 00 	mov    0xd446(%rip),%rax        # 17ff8 <g_1863>
    abb2:	48 8b 00             	mov    (%rax),%rax
    abb5:	48 8d 95 38 ff ff ff 	lea    -0xc8(%rbp),%rdx
    abbc:	48 89 10             	mov    %rdx,(%rax)
    abbf:	48 8b 85 70 ff ff ff 	mov    -0x90(%rbp),%rax
    abc6:	48 8b 4d c8          	mov    -0x38(%rbp),%rcx
    abca:	64 48 33 0c 25 28 00 	xor    %fs:0x28,%rcx
    abd1:	00 00 
    abd3:	74 05                	je     abda <func_1+0x425>
    abd5:	e8 96 e4 ff ff       	callq  9070 <__stack_chk_fail@plt>
    abda:	48 81 c4 b8 00 00 00 	add    $0xb8,%rsp
    abe1:	5b                   	pop    %rbx
    abe2:	41 5c                	pop    %r12
    abe4:	41 5d                	pop    %r13
    abe6:	41 5e                	pop    %r14
    abe8:	41 5f                	pop    %r15
    abea:	5d                   	pop    %rbp
    abeb:	c3                   	retq   

000000000000abec <func_7>:
    abec:	f3 0f 1e fa          	endbr64 
    abf0:	55                   	push   %rbp
    abf1:	48 89 e5             	mov    %rsp,%rbp
    abf4:	41 54                	push   %r12
    abf6:	53                   	push   %rbx
    abf7:	48 83 ec 40          	sub    $0x40,%rsp
    abfb:	89 fa                	mov    %edi,%edx
    abfd:	89 f0                	mov    %esi,%eax
    abff:	88 55 bc             	mov    %dl,-0x44(%rbp)
    ac02:	88 45 b8             	mov    %al,-0x48(%rbp)
    ac05:	c7 45 cc ff ff ff ff 	movl   $0xffffffff,-0x34(%rbp)
    ac0c:	c7 45 d0 54 c0 30 b1 	movl   $0xb130c054,-0x30(%rbp)
    ac13:	c7 45 d4 01 00 00 00 	movl   $0x1,-0x2c(%rbp)
    ac1a:	48 8d 05 4f a4 00 00 	lea    0xa44f(%rip),%rax        # 15070 <g_281>
    ac21:	48 89 45 d8          	mov    %rax,-0x28(%rbp)
    ac25:	48 8d 05 b4 c7 00 00 	lea    0xc7b4(%rip),%rax        # 173e0 <g_433>
    ac2c:	48 89 45 e0          	mov    %rax,-0x20(%rbp)
    ac30:	48 8d 05 21 a4 00 00 	lea    0xa421(%rip),%rax        # 15058 <g_183+0x8>
    ac37:	48 89 45 e8          	mov    %rax,-0x18(%rbp)
    ac3b:	0f b6 5d bc          	movzbl -0x44(%rbp),%ebx
    ac3f:	0f be 55 b8          	movsbl -0x48(%rbp),%edx
    ac43:	0f be 45 b8          	movsbl -0x48(%rbp),%eax
    ac47:	89 d6                	mov    %edx,%esi
    ac49:	89 c7                	mov    %eax,%edi
    ac4b:	e8 05 e8 ff ff       	callq  9455 <safe_div_func_int16_t_s_s>
    ac50:	48 0f bf c0          	movswq %ax,%rax
    ac54:	48 89 de             	mov    %rbx,%rsi
    ac57:	48 89 c7             	mov    %rax,%rdi
    ac5a:	e8 cf f3 ff ff       	callq  a02e <safe_add_func_uint64_t_u_u>
    ac5f:	0f be d8             	movsbl %al,%ebx
    ac62:	66 0f be 45 b8       	movsbw -0x48(%rbp),%ax
    ac67:	44 0f b7 e0          	movzwl %ax,%r12d
    ac6b:	b8 00 00 00 00       	mov    $0x0,%eax
    ac70:	0f b7 d0             	movzwl %ax,%edx
    ac73:	8b 45 cc             	mov    -0x34(%rbp),%eax
    ac76:	b9 00 00 00 00       	mov    $0x0,%ecx
    ac7b:	89 c6                	mov    %eax,%esi
    ac7d:	89 cf                	mov    %ecx,%edi
    ac7f:	e8 79 01 00 00       	callq  adfd <func_17>
    ac84:	0f b6 45 bc          	movzbl -0x44(%rbp),%eax
    ac88:	48 89 c7             	mov    %rax,%rdi
    ac8b:	e8 89 f3 ff ff       	callq  a019 <safe_unary_minus_func_uint64_t_u>
    ac90:	48 0f be 55 b8       	movsbq -0x48(%rbp),%rdx
    ac95:	48 39 d0             	cmp    %rdx,%rax
    ac98:	0f 96 c0             	setbe  %al
    ac9b:	0f b6 c0             	movzbl %al,%eax
    ac9e:	44 89 e6             	mov    %r12d,%esi
    aca1:	89 c7                	mov    %eax,%edi
    aca3:	e8 57 f0 ff ff       	callq  9cff <safe_add_func_uint16_t_u_u>
    aca8:	0f be c0             	movsbl %al,%eax
    acab:	89 de                	mov    %ebx,%esi
    acad:	89 c7                	mov    %eax,%edi
    acaf:	e8 5e e5 ff ff       	callq  9212 <safe_mul_func_int8_t_s_s>
    acb4:	0f be c0             	movsbl %al,%eax
    acb7:	39 45 cc             	cmp    %eax,-0x34(%rbp)
    acba:	0f 94 c0             	sete   %al
    acbd:	0f b6 c0             	movzbl %al,%eax
    acc0:	89 45 d0             	mov    %eax,-0x30(%rbp)
    acc3:	0f b6 45 bc          	movzbl -0x44(%rbp),%eax
    acc7:	21 45 d4             	and    %eax,-0x2c(%rbp)
    acca:	48 8b 05 a7 ca 00 00 	mov    0xcaa7(%rip),%rax        # 17778 <g_1428>
    acd1:	8b 00                	mov    (%rax),%eax
    acd3:	48 8b 05 36 bc 00 00 	mov    0xbc36(%rip),%rax        # 16910 <g_243>
    acda:	0f be 55 b8          	movsbl -0x48(%rbp),%edx
    acde:	89 10                	mov    %edx,(%rax)
    ace0:	0f b6 55 bc          	movzbl -0x44(%rbp),%edx
    ace4:	48 8b 45 d8          	mov    -0x28(%rbp),%rax
    ace8:	48 89 10             	mov    %rdx,(%rax)
    aceb:	8b 5d cc             	mov    -0x34(%rbp),%ebx
    acee:	48 8b 05 1b bc 00 00 	mov    0xbc1b(%rip),%rax        # 16910 <g_243>
    acf5:	8b 10                	mov    (%rax),%edx
    acf7:	83 c2 01             	add    $0x1,%edx
    acfa:	89 10                	mov    %edx,(%rax)
    acfc:	48 8b 05 fd c9 00 00 	mov    0xc9fd(%rip),%rax        # 17700 <g_1272>
    ad03:	48 8b 10             	mov    (%rax),%rdx
    ad06:	48 8b 05 fb c9 00 00 	mov    0xc9fb(%rip),%rax        # 17708 <g_1271>
    ad0d:	48 8b 00             	mov    (%rax),%rax
    ad10:	48 8b 00             	mov    (%rax),%rax
    ad13:	48 89 d6             	mov    %rdx,%rsi
    ad16:	48 89 c7             	mov    %rax,%rdi
    ad19:	e8 96 ec ff ff       	callq  99b4 <safe_mod_func_int64_t_s_s>
    ad1e:	48 89 c2             	mov    %rax,%rdx
    ad21:	48 b8 6f 9e e7 97 0f 	movabs $0x95ee420f97e79e6f,%rax
    ad28:	42 ee 95 
    ad2b:	48 39 c2             	cmp    %rax,%rdx
    ad2e:	0f 97 c0             	seta   %al
    ad31:	0f b6 d0             	movzbl %al,%edx
    ad34:	0f b6 45 bc          	movzbl -0x44(%rbp),%eax
    ad38:	21 d0                	and    %edx,%eax
    ad3a:	48 98                	cltq   
    ad3c:	48 89 de             	mov    %rbx,%rsi
    ad3f:	48 89 c7             	mov    %rax,%rdi
    ad42:	e8 04 f3 ff ff       	callq  a04b <safe_sub_func_uint64_t_u_u>
    ad47:	48 89 c2             	mov    %rax,%rdx
    ad4a:	48 8b 05 e7 c6 00 00 	mov    0xc6e7(%rip),%rax        # 17438 <g_641>
    ad51:	66 89 10             	mov    %dx,(%rax)
    ad54:	0f b7 00             	movzwl (%rax),%eax
    ad57:	98                   	cwtl   
    ad58:	89 c6                	mov    %eax,%esi
    ad5a:	bf f9 ff ff ff       	mov    $0xfffffff9,%edi
    ad5f:	e8 b2 e6 ff ff       	callq  9416 <safe_mod_func_int16_t_s_s>
    ad64:	98                   	cwtl   
    ad65:	be 03 00 00 00       	mov    $0x3,%esi
    ad6a:	89 c7                	mov    %eax,%edi
    ad6c:	e8 70 e7 ff ff       	callq  94e1 <safe_lshift_func_int16_t_s_u>
    ad71:	66 0f be 55 b8       	movsbw -0x48(%rbp),%dx
    ad76:	66 39 d0             	cmp    %dx,%ax
    ad79:	83 7d d0 00          	cmpl   $0x0,-0x30(%rbp)
    ad7d:	74 07                	je     ad86 <func_7+0x19a>
    ad7f:	b8 01 00 00 00       	mov    $0x1,%eax
    ad84:	eb 05                	jmp    ad8b <func_7+0x19f>
    ad86:	b8 00 00 00 00       	mov    $0x0,%eax
    ad8b:	89 c2                	mov    %eax,%edx
    ad8d:	8b 05 ed a4 00 00    	mov    0xa4ed(%rip),%eax        # 15280 <g_2768>
    ad93:	21 d0                	and    %edx,%eax
    ad95:	85 c0                	test   %eax,%eax
    ad97:	0f 94 c0             	sete   %al
    ad9a:	0f b6 c0             	movzbl %al,%eax
    ad9d:	be 0a c2 ff ff       	mov    $0xffffc20a,%esi
    ada2:	89 c7                	mov    %eax,%edi
    ada4:	e8 4c e6 ff ff       	callq  93f5 <safe_mul_func_int16_t_s_s>
    ada9:	48 0f bf d0          	movswq %ax,%rdx
    adad:	48 8b 45 e8          	mov    -0x18(%rbp),%rax
    adb1:	48 89 10             	mov    %rdx,(%rax)
    adb4:	48 8b 45 e8          	mov    -0x18(%rbp),%rax
    adb8:	48 8b 00             	mov    (%rax),%rax
    adbb:	48 85 c0             	test   %rax,%rax
    adbe:	74 0d                	je     adcd <func_7+0x1e1>
    adc0:	83 7d d4 00          	cmpl   $0x0,-0x2c(%rbp)
    adc4:	74 07                	je     adcd <func_7+0x1e1>
    adc6:	b8 01 00 00 00       	mov    $0x1,%eax
    adcb:	eb 05                	jmp    add2 <func_7+0x1e6>
    adcd:	b8 00 00 00 00       	mov    $0x0,%eax
    add2:	f7 d0                	not    %eax
    add4:	89 c1                	mov    %eax,%ecx
    add6:	48 8b 05 13 d2 00 00 	mov    0xd213(%rip),%rax        # 17ff0 <g_1864>
    addd:	48 8b 00             	mov    (%rax),%rax
    ade0:	8b 10                	mov    (%rax),%edx
    ade2:	48 8b 05 07 d2 00 00 	mov    0xd207(%rip),%rax        # 17ff0 <g_1864>
    ade9:	48 8b 00             	mov    (%rax),%rax
    adec:	21 ca                	and    %ecx,%edx
    adee:	89 10                	mov    %edx,(%rax)
    adf0:	0f be 45 b8          	movsbl -0x48(%rbp),%eax
    adf4:	48 83 c4 40          	add    $0x40,%rsp
    adf8:	5b                   	pop    %rbx
    adf9:	41 5c                	pop    %r12
    adfb:	5d                   	pop    %rbp
    adfc:	c3                   	retq   

000000000000adfd <func_17>:
    adfd:	f3 0f 1e fa          	endbr64 
    ae01:	55                   	push   %rbp
    ae02:	48 89 e5             	mov    %rsp,%rbp
    ae05:	41 57                	push   %r15
    ae07:	41 56                	push   %r14
    ae09:	41 55                	push   %r13
    ae0b:	41 54                	push   %r12
    ae0d:	53                   	push   %rbx
    ae0e:	48 83 ec 68          	sub    $0x68,%rsp
    ae12:	89 7d 8c             	mov    %edi,-0x74(%rbp)
    ae15:	89 75 88             	mov    %esi,-0x78(%rbp)
    ae18:	89 d0                	mov    %edx,%eax
    ae1a:	66 89 45 84          	mov    %ax,-0x7c(%rbp)
    ae1e:	64 48 8b 04 25 28 00 	mov    %fs:0x28,%rax
    ae25:	00 00 
    ae27:	48 89 45 c8          	mov    %rax,-0x38(%rbp)
    ae2b:	31 c0                	xor    %eax,%eax
    ae2d:	66 c7 45 9e 2f ce    	movw   $0xce2f,-0x62(%rbp)
    ae33:	48 c7 45 a0 00 00 00 	movq   $0x0,-0x60(%rbp)
    ae3a:	00 
    ae3b:	48 8d 45 a0          	lea    -0x60(%rbp),%rax
    ae3f:	48 89 45 b0          	mov    %rax,-0x50(%rbp)
    ae43:	48 8d 05 06 a3 00 00 	lea    0xa306(%rip),%rax        # 15150 <g_401>
    ae4a:	48 89 45 a8          	mov    %rax,-0x58(%rbp)
    ae4e:	48 8d 45 a8          	lea    -0x58(%rbp),%rax
    ae52:	48 89 45 b8          	mov    %rax,-0x48(%rbp)
    ae56:	48 8d 05 07 a2 00 00 	lea    0xa207(%rip),%rax        # 15064 <g_207>
    ae5d:	48 89 45 c0          	mov    %rax,-0x40(%rbp)
    ae61:	48 8b 05 88 d1 00 00 	mov    0xd188(%rip),%rax        # 17ff0 <g_1864>
    ae68:	48 8b 00             	mov    (%rax),%rax
    ae6b:	48 89 85 78 ff ff ff 	mov    %rax,-0x88(%rbp)
    ae72:	8b 45 88             	mov    -0x78(%rbp),%eax
    ae75:	44 0f be e8          	movsbl %al,%r13d
    ae79:	0f b7 45 9e          	movzwl -0x62(%rbp),%eax
    ae7d:	44 0f be e0          	movsbl %al,%r12d
    ae81:	0f b7 45 9e          	movzwl -0x62(%rbp),%eax
    ae85:	0f b7 d8             	movzwl %ax,%ebx
    ae88:	0f b7 45 9e          	movzwl -0x62(%rbp),%eax
    ae8c:	44 0f be f0          	movsbl %al,%r14d
    ae90:	0f b7 45 84          	movzwl -0x7c(%rbp),%eax
    ae94:	44 0f bf f8          	movswl %ax,%r15d
    ae98:	48 8b 05 61 ba 00 00 	mov    0xba61(%rip),%rax        # 16900 <g_38>
    ae9f:	48 89 c7             	mov    %rax,%rdi
    aea2:	e8 64 3f 00 00       	callq  ee0b <func_36>
    aea7:	98                   	cwtl   
    aea8:	44 89 fe             	mov    %r15d,%esi
    aeab:	89 c7                	mov    %eax,%edi
    aead:	e8 21 e5 ff ff       	callq  93d3 <safe_sub_func_int16_t_s_s>
    aeb2:	0f b7 c0             	movzwl %ax,%eax
    aeb5:	48 8d 15 9c 71 00 00 	lea    0x719c(%rip),%rdx        # 12058 <g_4+0x8>
    aebc:	44 89 f6             	mov    %r14d,%esi
    aebf:	89 c7                	mov    %eax,%edi
    aec1:	e8 95 34 00 00       	callq  e35b <func_30>
    aec6:	89 c2                	mov    %eax,%edx
    aec8:	8b 05 c6 a2 00 00    	mov    0xa2c6(%rip),%eax        # 15194 <g_943>
    aece:	09 d0                	or     %edx,%eax
    aed0:	89 05 be a2 00 00    	mov    %eax,0xa2be(%rip)        # 15194 <g_943>
    aed6:	4c 0f bf 75 9e       	movswq -0x62(%rbp),%r14
    aedb:	44 0f b7 7d 84       	movzwl -0x7c(%rbp),%r15d
    aee0:	0f bf 55 9e          	movswl -0x62(%rbp),%edx
    aee4:	8b 05 5a a2 00 00    	mov    0xa25a(%rip),%eax        # 15144 <g_373>
    aeea:	39 c2                	cmp    %eax,%edx
    aeec:	0f 9f c0             	setg   %al
    aeef:	0f b6 c0             	movzbl %al,%eax
    aef2:	48 be cf d3 23 18 d7 	movabs $0x45fdcfd71823d3cf,%rsi
    aef9:	cf fd 45 
    aefc:	48 89 c7             	mov    %rax,%rdi
    aeff:	e8 ab f1 ff ff       	callq  a0af <safe_div_func_uint64_t_u_u>
    af04:	48 8b 45 b0          	mov    -0x50(%rbp),%rax
    af08:	48 8d 15 41 a2 00 00 	lea    0xa241(%rip),%rdx        # 15150 <g_401>
    af0f:	48 89 10             	mov    %rdx,(%rax)
    af12:	48 8b 45 b0          	mov    -0x50(%rbp),%rax
    af16:	48 8b 10             	mov    (%rax),%rdx
    af19:	48 8b 45 b8          	mov    -0x48(%rbp),%rax
    af1d:	48 89 10             	mov    %rdx,(%rax)
    af20:	48 8b 45 b8          	mov    -0x48(%rbp),%rax
    af24:	48 8b 00             	mov    (%rax),%rax
    af27:	48 8d 15 22 a2 00 00 	lea    0xa222(%rip),%rdx        # 15150 <g_401>
    af2e:	48 39 d0             	cmp    %rdx,%rax
    af31:	0f 94 c0             	sete   %al
    af34:	0f b6 d0             	movzbl %al,%edx
    af37:	48 8b 45 c0          	mov    -0x40(%rbp),%rax
    af3b:	0f b7 00             	movzwl (%rax),%eax
    af3e:	21 c2                	and    %eax,%edx
    af40:	48 8b 45 c0          	mov    -0x40(%rbp),%rax
    af44:	66 89 10             	mov    %dx,(%rax)
    af47:	48 8b 45 c0          	mov    -0x40(%rbp),%rax
    af4b:	0f b7 00             	movzwl (%rax),%eax
    af4e:	98                   	cwtl   
    af4f:	44 89 fe             	mov    %r15d,%esi
    af52:	89 c7                	mov    %eax,%edi
    af54:	e8 39 e5 ff ff       	callq  9492 <safe_lshift_func_int16_t_s_s>
    af59:	0f b7 45 84          	movzwl -0x7c(%rbp),%eax
    af5d:	83 e0 01             	and    $0x1,%eax
    af60:	be 05 00 00 00       	mov    $0x5,%esi
    af65:	89 c7                	mov    %eax,%edi
    af67:	e8 52 ee ff ff       	callq  9dbe <safe_lshift_func_uint16_t_u_s>
    af6c:	0f b7 c0             	movzwl %ax,%eax
    af6f:	4c 89 f6             	mov    %r14,%rsi
    af72:	48 89 c7             	mov    %rax,%rdi
    af75:	e8 06 f1 ff ff       	callq  a080 <safe_mod_func_uint64_t_u_u>
    af7a:	bf 01 00 00 00       	mov    $0x1,%edi
    af7f:	e8 d3 1a 00 00       	callq  ca57 <func_28>
    af84:	48 89 c7             	mov    %rax,%rdi
    af87:	48 8b 05 6a d0 00 00 	mov    0xd06a(%rip),%rax        # 17ff8 <g_1863>
    af8e:	4c 8b 30             	mov    (%rax),%r14
    af91:	4c 8b 85 78 ff ff ff 	mov    -0x88(%rbp),%r8
    af98:	44 89 e9             	mov    %r13d,%ecx
    af9b:	44 89 e2             	mov    %r12d,%edx
    af9e:	89 de                	mov    %ebx,%esi
    afa0:	e8 2b 00 00 00       	callq  afd0 <func_22>
    afa5:	49 89 06             	mov    %rax,(%r14)
    afa8:	48 0f bf 45 9e       	movswq -0x62(%rbp),%rax
    afad:	48 8b 4d c8          	mov    -0x38(%rbp),%rcx
    afb1:	64 48 33 0c 25 28 00 	xor    %fs:0x28,%rcx
    afb8:	00 00 
    afba:	74 05                	je     afc1 <func_17+0x1c4>
    afbc:	e8 af e0 ff ff       	callq  9070 <__stack_chk_fail@plt>
    afc1:	48 83 c4 68          	add    $0x68,%rsp
    afc5:	5b                   	pop    %rbx
    afc6:	41 5c                	pop    %r12
    afc8:	41 5d                	pop    %r13
    afca:	41 5e                	pop    %r14
    afcc:	41 5f                	pop    %r15
    afce:	5d                   	pop    %rbp
    afcf:	c3                   	retq   

000000000000afd0 <func_22>:
    afd0:	f3 0f 1e fa          	endbr64 
    afd4:	55                   	push   %rbp
    afd5:	48 89 e5             	mov    %rsp,%rbp
    afd8:	41 56                	push   %r14
    afda:	41 55                	push   %r13
    afdc:	41 54                	push   %r12
    afde:	53                   	push   %rbx
    afdf:	48 81 ec 00 10 00 00 	sub    $0x1000,%rsp
    afe6:	48 83 0c 24 00       	orq    $0x0,(%rsp)
    afeb:	48 81 ec 10 03 00 00 	sub    $0x310,%rsp
    aff2:	48 89 bd e8 ec ff ff 	mov    %rdi,-0x1318(%rbp)
    aff9:	89 f0                	mov    %esi,%eax
    affb:	89 d6                	mov    %edx,%esi
    affd:	89 ca                	mov    %ecx,%edx
    afff:	4c 89 85 d0 ec ff ff 	mov    %r8,-0x1330(%rbp)
    b006:	66 89 85 e4 ec ff ff 	mov    %ax,-0x131c(%rbp)
    b00d:	89 f0                	mov    %esi,%eax
    b00f:	88 85 e0 ec ff ff    	mov    %al,-0x1320(%rbp)
    b015:	89 d0                	mov    %edx,%eax
    b017:	88 85 dc ec ff ff    	mov    %al,-0x1324(%rbp)
    b01d:	64 48 8b 04 25 28 00 	mov    %fs:0x28,%rax
    b024:	00 00 
    b026:	48 89 45 d8          	mov    %rax,-0x28(%rbp)
    b02a:	31 c0                	xor    %eax,%eax
    b02c:	c7 85 80 ee ff ff ff 	movl   $0xffffffff,-0x1180(%rbp)
    b033:	ff ff ff 
    b036:	c7 85 84 ee ff ff 02 	movl   $0x2,-0x117c(%rbp)
    b03d:	00 00 00 
    b040:	c7 85 88 ee ff ff 04 	movl   $0x4,-0x1178(%rbp)
    b047:	00 00 00 
    b04a:	c7 85 8c ee ff ff f6 	movl   $0xfffffff6,-0x1174(%rbp)
    b051:	ff ff ff 
    b054:	c7 85 90 ee ff ff 04 	movl   $0x4,-0x1170(%rbp)
    b05b:	00 00 00 
    b05e:	c7 85 94 ee ff ff 02 	movl   $0x2,-0x116c(%rbp)
    b065:	00 00 00 
    b068:	c7 85 98 ee ff ff ff 	movl   $0xffffffff,-0x1168(%rbp)
    b06f:	ff ff ff 
    b072:	c7 85 9c ee ff ff 09 	movl   $0x9,-0x1164(%rbp)
    b079:	00 00 00 
    b07c:	c7 85 a0 ee ff ff f6 	movl   $0xfffffff6,-0x1160(%rbp)
    b083:	ff ff ff 
    b086:	c7 85 a4 ee ff ff 02 	movl   $0x2,-0x115c(%rbp)
    b08d:	00 00 00 
    b090:	c7 85 a8 ee ff ff f9 	movl   $0xfffffff9,-0x1158(%rbp)
    b097:	ff ff ff 
    b09a:	c7 85 ac ee ff ff 04 	movl   $0x4,-0x1154(%rbp)
    b0a1:	00 00 00 
    b0a4:	c7 85 b0 ee ff ff ff 	movl   $0xffffffff,-0x1150(%rbp)
    b0ab:	ff ff ff 
    b0ae:	c7 85 b4 ee ff ff 06 	movl   $0x6,-0x114c(%rbp)
    b0b5:	00 00 00 
    b0b8:	c7 85 b8 ee ff ff fc 	movl   $0xfffffffc,-0x1148(%rbp)
    b0bf:	ff ff ff 
    b0c2:	c7 85 bc ee ff ff ff 	movl   $0xffffffff,-0x1144(%rbp)
    b0c9:	ff ff ff 
    b0cc:	c7 85 c0 ee ff ff 07 	movl   $0x7,-0x1140(%rbp)
    b0d3:	00 00 00 
    b0d6:	c7 85 c4 ee ff ff 04 	movl   $0x4,-0x113c(%rbp)
    b0dd:	00 00 00 
    b0e0:	c7 85 c8 ee ff ff fd 	movl   $0xfffffffd,-0x1138(%rbp)
    b0e7:	ff ff ff 
    b0ea:	c7 85 cc ee ff ff fd 	movl   $0xfffffffd,-0x1134(%rbp)
    b0f1:	ff ff ff 
    b0f4:	c7 85 d0 ee ff ff 04 	movl   $0x4,-0x1130(%rbp)
    b0fb:	00 00 00 
    b0fe:	c7 85 d4 ee ff ff 02 	movl   $0x2,-0x112c(%rbp)
    b105:	00 00 00 
    b108:	c7 85 d8 ee ff ff 9c 	movl   $0xb4fc89c,-0x1128(%rbp)
    b10f:	c8 4f 0b 
    b112:	c7 85 dc ee ff ff 02 	movl   $0x2,-0x1124(%rbp)
    b119:	00 00 00 
    b11c:	c7 85 e0 ee ff ff ff 	movl   $0xffffffff,-0x1120(%rbp)
    b123:	ff ff ff 
    b126:	c7 85 e4 ee ff ff ef 	movl   $0x507861ef,-0x111c(%rbp)
    b12d:	61 78 50 
    b130:	c7 85 e8 ee ff ff fc 	movl   $0xfffffffc,-0x1118(%rbp)
    b137:	ff ff ff 
    b13a:	c7 85 ec ee ff ff ff 	movl   $0xffffffff,-0x1114(%rbp)
    b141:	ff ff ff 
    b144:	c7 85 f0 ee ff ff 02 	movl   $0x2,-0x1110(%rbp)
    b14b:	00 00 00 
    b14e:	c7 85 f4 ee ff ff f9 	movl   $0xfffffff9,-0x110c(%rbp)
    b155:	ff ff ff 
    b158:	c7 85 f8 ee ff ff 04 	movl   $0x4,-0x1108(%rbp)
    b15f:	00 00 00 
    b162:	c7 85 fc ee ff ff ff 	movl   $0xffffffff,-0x1104(%rbp)
    b169:	ff ff ff 
    b16c:	c7 85 00 ef ff ff 06 	movl   $0x6,-0x1100(%rbp)
    b173:	00 00 00 
    b176:	c7 85 04 ef ff ff 9c 	movl   $0xb4fc89c,-0x10fc(%rbp)
    b17d:	c8 4f 0b 
    b180:	c7 85 08 ef ff ff fc 	movl   $0xfffffffc,-0x10f8(%rbp)
    b187:	ff ff ff 
    b18a:	c7 85 00 ed ff ff 76 	movl   $0x5f76bb76,-0x1300(%rbp)
    b191:	bb 76 5f 
    b194:	c7 85 00 ee ff ff d4 	movl   $0xd72065d4,-0x1200(%rbp)
    b19b:	65 20 d7 
    b19e:	c7 85 04 ee ff ff ff 	movl   $0xffffffff,-0x11fc(%rbp)
    b1a5:	ff ff ff 
    b1a8:	c7 85 08 ee ff ff d4 	movl   $0xd72065d4,-0x11f8(%rbp)
    b1af:	65 20 d7 
    b1b2:	c7 85 0c ee ff ff d4 	movl   $0xd72065d4,-0x11f4(%rbp)
    b1b9:	65 20 d7 
    b1bc:	c7 85 10 ee ff ff ff 	movl   $0xffffffff,-0x11f0(%rbp)
    b1c3:	ff ff ff 
    b1c6:	c7 85 14 ee ff ff d4 	movl   $0xd72065d4,-0x11ec(%rbp)
    b1cd:	65 20 d7 
    b1d0:	c7 85 18 ee ff ff d4 	movl   $0xd72065d4,-0x11e8(%rbp)
    b1d7:	65 20 d7 
    b1da:	c7 85 1c ee ff ff ff 	movl   $0xffffffff,-0x11e4(%rbp)
    b1e1:	ff ff ff 
    b1e4:	c7 85 20 ee ff ff d4 	movl   $0xd72065d4,-0x11e0(%rbp)
    b1eb:	65 20 d7 
    b1ee:	c7 85 24 ee ff ff d4 	movl   $0xd72065d4,-0x11dc(%rbp)
    b1f5:	65 20 d7 
    b1f8:	66 c7 85 fa ec ff ff 	movw   $0xfffb,-0x1306(%rbp)
    b1ff:	fb ff 
    b201:	48 c7 85 58 ed ff ff 	movq   $0x0,-0x12a8(%rbp)
    b208:	00 00 00 00 
    b20c:	48 8d 05 78 9f 00 00 	lea    0x9f78(%rip),%rax        # 1518b <g_421+0x3>
    b213:	48 89 85 70 ed ff ff 	mov    %rax,-0x1290(%rbp)
    b21a:	48 b8 40 99 c9 34 e4 	movabs $0x4bb0f4e434c99940,%rax
    b221:	f4 b0 4b 
    b224:	48 89 85 78 ed ff ff 	mov    %rax,-0x1288(%rbp)
    b22b:	66 c7 85 fc ec ff ff 	movw   $0xc499,-0x1304(%rbp)
    b232:	99 c4 
    b234:	48 b8 4a 6d 3a 68 b7 	movabs $0x8e64a6b7683a6d4a,%rax
    b23b:	a6 64 8e 
    b23e:	48 89 85 80 ed ff ff 	mov    %rax,-0x1280(%rbp)
    b245:	48 c7 05 f0 9d 00 00 	movq   $0x0,0x9df0(%rip)        # 15040 <g_118>
    b24c:	00 00 00 00 
    b250:	e9 ba 17 00 00       	jmpq   ca0f <func_22+0x1a3f>
    b255:	c7 85 18 ed ff ff ff 	movl   $0xffffffff,-0x12e8(%rbp)
    b25c:	ff ff ff 
    b25f:	48 8d 05 e2 cc 00 00 	lea    0xcce2(%rip),%rax        # 17f48 <g_1579>
    b266:	48 89 85 88 ed ff ff 	mov    %rax,-0x1278(%rbp)
    b26d:	c7 85 1c ed ff ff 2c 	movl   $0x6f4b5c2c,-0x12e4(%rbp)
    b274:	5c 4b 6f 
    b277:	48 8d 85 80 ee ff ff 	lea    -0x1180(%rbp),%rax
    b27e:	48 83 c0 30          	add    $0x30,%rax
    b282:	48 89 85 c0 f3 ff ff 	mov    %rax,-0xc40(%rbp)
    b289:	48 8d 85 80 ee ff ff 	lea    -0x1180(%rbp),%rax
    b290:	48 83 c0 30          	add    $0x30,%rax
    b294:	48 89 85 c8 f3 ff ff 	mov    %rax,-0xc38(%rbp)
    b29b:	48 8d 85 80 ee ff ff 	lea    -0x1180(%rbp),%rax
    b2a2:	48 83 c0 30          	add    $0x30,%rax
    b2a6:	48 89 85 d0 f3 ff ff 	mov    %rax,-0xc30(%rbp)
    b2ad:	48 8d 85 80 ee ff ff 	lea    -0x1180(%rbp),%rax
    b2b4:	48 83 c0 30          	add    $0x30,%rax
    b2b8:	48 89 85 d8 f3 ff ff 	mov    %rax,-0xc28(%rbp)
    b2bf:	48 8d 85 80 ee ff ff 	lea    -0x1180(%rbp),%rax
    b2c6:	48 83 c0 30          	add    $0x30,%rax
    b2ca:	48 89 85 e0 f3 ff ff 	mov    %rax,-0xc20(%rbp)
    b2d1:	48 8d 05 78 9e 00 00 	lea    0x9e78(%rip),%rax        # 15150 <g_401>
    b2d8:	48 89 85 e8 f3 ff ff 	mov    %rax,-0xc18(%rbp)
    b2df:	48 8d 85 80 ee ff ff 	lea    -0x1180(%rbp),%rax
    b2e6:	48 83 c0 30          	add    $0x30,%rax
    b2ea:	48 89 85 f0 f3 ff ff 	mov    %rax,-0xc10(%rbp)
    b2f1:	48 8d 85 80 ee ff ff 	lea    -0x1180(%rbp),%rax
    b2f8:	48 83 c0 08          	add    $0x8,%rax
    b2fc:	48 89 85 f8 f3 ff ff 	mov    %rax,-0xc08(%rbp)
    b303:	48 8d 05 46 9e 00 00 	lea    0x9e46(%rip),%rax        # 15150 <g_401>
    b30a:	48 89 85 00 f4 ff ff 	mov    %rax,-0xc00(%rbp)
    b311:	48 c7 85 08 f4 ff ff 	movq   $0x0,-0xbf8(%rbp)
    b318:	00 00 00 00 
    b31c:	48 8d 05 2d 9e 00 00 	lea    0x9e2d(%rip),%rax        # 15150 <g_401>
    b323:	48 89 85 10 f4 ff ff 	mov    %rax,-0xbf0(%rbp)
    b32a:	48 c7 85 18 f4 ff ff 	movq   $0x0,-0xbe8(%rbp)
    b331:	00 00 00 00 
    b335:	48 8d 05 14 9e 00 00 	lea    0x9e14(%rip),%rax        # 15150 <g_401>
    b33c:	48 89 85 20 f4 ff ff 	mov    %rax,-0xbe0(%rbp)
    b343:	48 8d 85 80 ee ff ff 	lea    -0x1180(%rbp),%rax
    b34a:	48 83 c0 30          	add    $0x30,%rax
    b34e:	48 89 85 28 f4 ff ff 	mov    %rax,-0xbd8(%rbp)
    b355:	48 c7 85 30 f4 ff ff 	movq   $0x0,-0xbd0(%rbp)
    b35c:	00 00 00 00 
    b360:	48 8d 85 80 ee ff ff 	lea    -0x1180(%rbp),%rax
    b367:	48 83 c0 30          	add    $0x30,%rax
    b36b:	48 89 85 38 f4 ff ff 	mov    %rax,-0xbc8(%rbp)
    b372:	48 8d 85 80 ee ff ff 	lea    -0x1180(%rbp),%rax
    b379:	48 83 c0 30          	add    $0x30,%rax
    b37d:	48 89 85 40 f4 ff ff 	mov    %rax,-0xbc0(%rbp)
    b384:	48 8d 85 80 ee ff ff 	lea    -0x1180(%rbp),%rax
    b38b:	48 83 c0 2c          	add    $0x2c,%rax
    b38f:	48 89 85 48 f4 ff ff 	mov    %rax,-0xbb8(%rbp)
    b396:	48 8d 85 80 ee ff ff 	lea    -0x1180(%rbp),%rax
    b39d:	48 83 c0 30          	add    $0x30,%rax
    b3a1:	48 89 85 50 f4 ff ff 	mov    %rax,-0xbb0(%rbp)
    b3a8:	48 8d 85 80 ee ff ff 	lea    -0x1180(%rbp),%rax
    b3af:	48 83 c0 30          	add    $0x30,%rax
    b3b3:	48 89 85 58 f4 ff ff 	mov    %rax,-0xba8(%rbp)
    b3ba:	48 c7 85 60 f4 ff ff 	movq   $0x0,-0xba0(%rbp)
    b3c1:	00 00 00 00 
    b3c5:	48 8d 85 80 ee ff ff 	lea    -0x1180(%rbp),%rax
    b3cc:	48 83 c0 30          	add    $0x30,%rax
    b3d0:	48 89 85 68 f4 ff ff 	mov    %rax,-0xb98(%rbp)
    b3d7:	48 8d 05 72 9d 00 00 	lea    0x9d72(%rip),%rax        # 15150 <g_401>
    b3de:	48 89 85 70 f4 ff ff 	mov    %rax,-0xb90(%rbp)
    b3e5:	48 8d 05 64 9d 00 00 	lea    0x9d64(%rip),%rax        # 15150 <g_401>
    b3ec:	48 89 85 78 f4 ff ff 	mov    %rax,-0xb88(%rbp)
    b3f3:	48 8d 05 56 9d 00 00 	lea    0x9d56(%rip),%rax        # 15150 <g_401>
    b3fa:	48 89 85 80 f4 ff ff 	mov    %rax,-0xb80(%rbp)
    b401:	48 c7 85 88 f4 ff ff 	movq   $0x0,-0xb78(%rbp)
    b408:	00 00 00 00 
    b40c:	48 8d 85 80 ee ff ff 	lea    -0x1180(%rbp),%rax
    b413:	48 83 c0 40          	add    $0x40,%rax
    b417:	48 89 85 90 f4 ff ff 	mov    %rax,-0xb70(%rbp)
    b41e:	48 8d 85 80 ee ff ff 	lea    -0x1180(%rbp),%rax
    b425:	48 83 c0 30          	add    $0x30,%rax
    b429:	48 89 85 98 f4 ff ff 	mov    %rax,-0xb68(%rbp)
    b430:	48 c7 85 a0 f4 ff ff 	movq   $0x0,-0xb60(%rbp)
    b437:	00 00 00 00 
    b43b:	48 8d 05 0e 9d 00 00 	lea    0x9d0e(%rip),%rax        # 15150 <g_401>
    b442:	48 89 85 a8 f4 ff ff 	mov    %rax,-0xb58(%rbp)
    b449:	48 8d 85 80 ee ff ff 	lea    -0x1180(%rbp),%rax
    b450:	48 83 c0 30          	add    $0x30,%rax
    b454:	48 89 85 b0 f4 ff ff 	mov    %rax,-0xb50(%rbp)
    b45b:	48 8d 85 80 ee ff ff 	lea    -0x1180(%rbp),%rax
    b462:	48 83 c0 38          	add    $0x38,%rax
    b466:	48 89 85 b8 f4 ff ff 	mov    %rax,-0xb48(%rbp)
    b46d:	48 8d 05 dc 9c 00 00 	lea    0x9cdc(%rip),%rax        # 15150 <g_401>
    b474:	48 89 85 c0 f4 ff ff 	mov    %rax,-0xb40(%rbp)
    b47b:	48 8d 05 ce 9c 00 00 	lea    0x9cce(%rip),%rax        # 15150 <g_401>
    b482:	48 89 85 c8 f4 ff ff 	mov    %rax,-0xb38(%rbp)
    b489:	48 8d 05 c0 9c 00 00 	lea    0x9cc0(%rip),%rax        # 15150 <g_401>
    b490:	48 89 85 d0 f4 ff ff 	mov    %rax,-0xb30(%rbp)
    b497:	48 8d 85 80 ee ff ff 	lea    -0x1180(%rbp),%rax
    b49e:	48 83 c0 38          	add    $0x38,%rax
    b4a2:	48 89 85 d8 f4 ff ff 	mov    %rax,-0xb28(%rbp)
    b4a9:	48 8d 05 a0 9c 00 00 	lea    0x9ca0(%rip),%rax        # 15150 <g_401>
    b4b0:	48 89 85 e0 f4 ff ff 	mov    %rax,-0xb20(%rbp)
    b4b7:	48 8d 85 80 ee ff ff 	lea    -0x1180(%rbp),%rax
    b4be:	48 83 c0 30          	add    $0x30,%rax
    b4c2:	48 89 85 e8 f4 ff ff 	mov    %rax,-0xb18(%rbp)
    b4c9:	48 8d 85 80 ee ff ff 	lea    -0x1180(%rbp),%rax
    b4d0:	48 83 c0 30          	add    $0x30,%rax
    b4d4:	48 89 85 f0 f4 ff ff 	mov    %rax,-0xb10(%rbp)
    b4db:	48 8d 05 6e 9c 00 00 	lea    0x9c6e(%rip),%rax        # 15150 <g_401>
    b4e2:	48 89 85 f8 f4 ff ff 	mov    %rax,-0xb08(%rbp)
    b4e9:	48 8d 85 80 ee ff ff 	lea    -0x1180(%rbp),%rax
    b4f0:	48 83 c0 08          	add    $0x8,%rax
    b4f4:	48 89 85 00 f5 ff ff 	mov    %rax,-0xb00(%rbp)
    b4fb:	48 8d 05 4e 9c 00 00 	lea    0x9c4e(%rip),%rax        # 15150 <g_401>
    b502:	48 89 85 08 f5 ff ff 	mov    %rax,-0xaf8(%rbp)
    b509:	48 8d 05 40 9c 00 00 	lea    0x9c40(%rip),%rax        # 15150 <g_401>
    b510:	48 89 85 10 f5 ff ff 	mov    %rax,-0xaf0(%rbp)
    b517:	48 8d 85 80 ee ff ff 	lea    -0x1180(%rbp),%rax
    b51e:	48 83 c0 30          	add    $0x30,%rax
    b522:	48 89 85 18 f5 ff ff 	mov    %rax,-0xae8(%rbp)
    b529:	48 8d 85 80 ee ff ff 	lea    -0x1180(%rbp),%rax
    b530:	48 83 c0 30          	add    $0x30,%rax
    b534:	48 89 85 20 f5 ff ff 	mov    %rax,-0xae0(%rbp)
    b53b:	48 c7 85 28 f5 ff ff 	movq   $0x0,-0xad8(%rbp)
    b542:	00 00 00 00 
    b546:	48 c7 85 30 f5 ff ff 	movq   $0x0,-0xad0(%rbp)
    b54d:	00 00 00 00 
    b551:	48 c7 85 38 f5 ff ff 	movq   $0x0,-0xac8(%rbp)
    b558:	00 00 00 00 
    b55c:	48 8d 05 ed 9b 00 00 	lea    0x9bed(%rip),%rax        # 15150 <g_401>
    b563:	48 89 85 40 f5 ff ff 	mov    %rax,-0xac0(%rbp)
    b56a:	48 8d 85 80 ee ff ff 	lea    -0x1180(%rbp),%rax
    b571:	48 83 c0 68          	add    $0x68,%rax
    b575:	48 89 85 48 f5 ff ff 	mov    %rax,-0xab8(%rbp)
    b57c:	48 8d 85 80 ee ff ff 	lea    -0x1180(%rbp),%rax
    b583:	48 83 c0 30          	add    $0x30,%rax
    b587:	48 89 85 50 f5 ff ff 	mov    %rax,-0xab0(%rbp)
    b58e:	48 8d 05 bb 9b 00 00 	lea    0x9bbb(%rip),%rax        # 15150 <g_401>
    b595:	48 89 85 58 f5 ff ff 	mov    %rax,-0xaa8(%rbp)
    b59c:	48 8d 85 80 ee ff ff 	lea    -0x1180(%rbp),%rax
    b5a3:	48 83 c0 38          	add    $0x38,%rax
    b5a7:	48 89 85 60 f5 ff ff 	mov    %rax,-0xaa0(%rbp)
    b5ae:	48 c7 85 68 f5 ff ff 	movq   $0x0,-0xa98(%rbp)
    b5b5:	00 00 00 00 
    b5b9:	48 c7 85 70 f5 ff ff 	movq   $0x0,-0xa90(%rbp)
    b5c0:	00 00 00 00 
    b5c4:	48 8d 05 85 9b 00 00 	lea    0x9b85(%rip),%rax        # 15150 <g_401>
    b5cb:	48 89 85 78 f5 ff ff 	mov    %rax,-0xa88(%rbp)
    b5d2:	48 8d 05 77 9b 00 00 	lea    0x9b77(%rip),%rax        # 15150 <g_401>
    b5d9:	48 89 85 80 f5 ff ff 	mov    %rax,-0xa80(%rbp)
    b5e0:	48 c7 85 88 f5 ff ff 	movq   $0x0,-0xa78(%rbp)
    b5e7:	00 00 00 00 
    b5eb:	48 8d 85 80 ee ff ff 	lea    -0x1180(%rbp),%rax
    b5f2:	48 83 c0 08          	add    $0x8,%rax
    b5f6:	48 89 85 90 f5 ff ff 	mov    %rax,-0xa70(%rbp)
    b5fd:	48 8d 85 80 ee ff ff 	lea    -0x1180(%rbp),%rax
    b604:	48 83 c0 30          	add    $0x30,%rax
    b608:	48 89 85 98 f5 ff ff 	mov    %rax,-0xa68(%rbp)
    b60f:	48 8d 05 3a 9b 00 00 	lea    0x9b3a(%rip),%rax        # 15150 <g_401>
    b616:	48 89 85 a0 f5 ff ff 	mov    %rax,-0xa60(%rbp)
    b61d:	48 8d 85 80 ee ff ff 	lea    -0x1180(%rbp),%rax
    b624:	48 83 c0 30          	add    $0x30,%rax
    b628:	48 89 85 a8 f5 ff ff 	mov    %rax,-0xa58(%rbp)
    b62f:	48 8d 85 80 ee ff ff 	lea    -0x1180(%rbp),%rax
    b636:	48 83 c0 24          	add    $0x24,%rax
    b63a:	48 89 85 b0 f5 ff ff 	mov    %rax,-0xa50(%rbp)
    b641:	48 c7 85 b8 f5 ff ff 	movq   $0x0,-0xa48(%rbp)
    b648:	00 00 00 00 
    b64c:	48 c7 85 c0 f5 ff ff 	movq   $0x0,-0xa40(%rbp)
    b653:	00 00 00 00 
    b657:	48 8d 85 80 ee ff ff 	lea    -0x1180(%rbp),%rax
    b65e:	48 83 c0 30          	add    $0x30,%rax
    b662:	48 89 85 c8 f5 ff ff 	mov    %rax,-0xa38(%rbp)
    b669:	48 8d 05 e0 9a 00 00 	lea    0x9ae0(%rip),%rax        # 15150 <g_401>
    b670:	48 89 85 d0 f5 ff ff 	mov    %rax,-0xa30(%rbp)
    b677:	48 8d 85 80 ee ff ff 	lea    -0x1180(%rbp),%rax
    b67e:	48 83 c0 38          	add    $0x38,%rax
    b682:	48 89 85 d8 f5 ff ff 	mov    %rax,-0xa28(%rbp)
    b689:	48 8d 05 c0 9a 00 00 	lea    0x9ac0(%rip),%rax        # 15150 <g_401>
    b690:	48 89 85 e0 f5 ff ff 	mov    %rax,-0xa20(%rbp)
    b697:	48 8d 85 80 ee ff ff 	lea    -0x1180(%rbp),%rax
    b69e:	48 83 c0 24          	add    $0x24,%rax
    b6a2:	48 89 85 e8 f5 ff ff 	mov    %rax,-0xa18(%rbp)
    b6a9:	48 8d 85 80 ee ff ff 	lea    -0x1180(%rbp),%rax
    b6b0:	48 83 c0 24          	add    $0x24,%rax
    b6b4:	48 89 85 f0 f5 ff ff 	mov    %rax,-0xa10(%rbp)
    b6bb:	48 8d 05 8e 9a 00 00 	lea    0x9a8e(%rip),%rax        # 15150 <g_401>
    b6c2:	48 89 85 f8 f5 ff ff 	mov    %rax,-0xa08(%rbp)
    b6c9:	48 8d 05 80 9a 00 00 	lea    0x9a80(%rip),%rax        # 15150 <g_401>
    b6d0:	48 89 85 00 f6 ff ff 	mov    %rax,-0xa00(%rbp)
    b6d7:	48 8d 85 80 ee ff ff 	lea    -0x1180(%rbp),%rax
    b6de:	48 83 c0 58          	add    $0x58,%rax
    b6e2:	48 89 85 08 f6 ff ff 	mov    %rax,-0x9f8(%rbp)
    b6e9:	48 8d 85 80 ee ff ff 	lea    -0x1180(%rbp),%rax
    b6f0:	48 83 c0 30          	add    $0x30,%rax
    b6f4:	48 89 85 10 f6 ff ff 	mov    %rax,-0x9f0(%rbp)
    b6fb:	48 8d 85 80 ee ff ff 	lea    -0x1180(%rbp),%rax
    b702:	48 83 c0 58          	add    $0x58,%rax
    b706:	48 89 85 18 f6 ff ff 	mov    %rax,-0x9e8(%rbp)
    b70d:	48 8d 05 3c 9a 00 00 	lea    0x9a3c(%rip),%rax        # 15150 <g_401>
    b714:	48 89 85 20 f6 ff ff 	mov    %rax,-0x9e0(%rbp)
    b71b:	48 8d 05 2e 9a 00 00 	lea    0x9a2e(%rip),%rax        # 15150 <g_401>
    b722:	48 89 85 28 f6 ff ff 	mov    %rax,-0x9d8(%rbp)
    b729:	48 8d 05 20 9a 00 00 	lea    0x9a20(%rip),%rax        # 15150 <g_401>
    b730:	48 89 85 30 f6 ff ff 	mov    %rax,-0x9d0(%rbp)
    b737:	48 8d 85 80 ee ff ff 	lea    -0x1180(%rbp),%rax
    b73e:	48 83 c0 10          	add    $0x10,%rax
    b742:	48 89 85 38 f6 ff ff 	mov    %rax,-0x9c8(%rbp)
    b749:	48 c7 85 40 f6 ff ff 	movq   $0x0,-0x9c0(%rbp)
    b750:	00 00 00 00 
    b754:	48 8d 05 f5 99 00 00 	lea    0x99f5(%rip),%rax        # 15150 <g_401>
    b75b:	48 89 85 48 f6 ff ff 	mov    %rax,-0x9b8(%rbp)
    b762:	48 8d 05 e7 99 00 00 	lea    0x99e7(%rip),%rax        # 15150 <g_401>
    b769:	48 89 85 50 f6 ff ff 	mov    %rax,-0x9b0(%rbp)
    b770:	48 c7 85 58 f6 ff ff 	movq   $0x0,-0x9a8(%rbp)
    b777:	00 00 00 00 
    b77b:	48 8d 85 80 ee ff ff 	lea    -0x1180(%rbp),%rax
    b782:	48 83 c0 38          	add    $0x38,%rax
    b786:	48 89 85 60 f6 ff ff 	mov    %rax,-0x9a0(%rbp)
    b78d:	48 8d 85 80 ee ff ff 	lea    -0x1180(%rbp),%rax
    b794:	48 83 c0 30          	add    $0x30,%rax
    b798:	48 89 85 68 f6 ff ff 	mov    %rax,-0x998(%rbp)
    b79f:	48 c7 85 70 f6 ff ff 	movq   $0x0,-0x990(%rbp)
    b7a6:	00 00 00 00 
    b7aa:	48 c7 85 78 f6 ff ff 	movq   $0x0,-0x988(%rbp)
    b7b1:	00 00 00 00 
    b7b5:	48 c7 85 80 f6 ff ff 	movq   $0x0,-0x980(%rbp)
    b7bc:	00 00 00 00 
    b7c0:	48 c7 85 88 f6 ff ff 	movq   $0x0,-0x978(%rbp)
    b7c7:	00 00 00 00 
    b7cb:	48 8d 85 80 ee ff ff 	lea    -0x1180(%rbp),%rax
    b7d2:	48 83 c0 10          	add    $0x10,%rax
    b7d6:	48 89 85 90 f6 ff ff 	mov    %rax,-0x970(%rbp)
    b7dd:	48 8d 85 80 ee ff ff 	lea    -0x1180(%rbp),%rax
    b7e4:	48 83 c0 1c          	add    $0x1c,%rax
    b7e8:	48 89 85 98 f6 ff ff 	mov    %rax,-0x968(%rbp)
    b7ef:	48 c7 85 a0 f6 ff ff 	movq   $0x0,-0x960(%rbp)
    b7f6:	00 00 00 00 
    b7fa:	48 8d 85 80 ee ff ff 	lea    -0x1180(%rbp),%rax
    b801:	48 83 c0 30          	add    $0x30,%rax
    b805:	48 89 85 a8 f6 ff ff 	mov    %rax,-0x958(%rbp)
    b80c:	48 8d 85 80 ee ff ff 	lea    -0x1180(%rbp),%rax
    b813:	48 83 c0 30          	add    $0x30,%rax
    b817:	48 89 85 b0 f6 ff ff 	mov    %rax,-0x950(%rbp)
    b81e:	48 8d 05 2b 99 00 00 	lea    0x992b(%rip),%rax        # 15150 <g_401>
    b825:	48 89 85 b8 f6 ff ff 	mov    %rax,-0x948(%rbp)
    b82c:	48 c7 85 c0 f6 ff ff 	movq   $0x0,-0x940(%rbp)
    b833:	00 00 00 00 
    b837:	48 8d 05 12 99 00 00 	lea    0x9912(%rip),%rax        # 15150 <g_401>
    b83e:	48 89 85 c8 f6 ff ff 	mov    %rax,-0x938(%rbp)
    b845:	48 8d 05 04 99 00 00 	lea    0x9904(%rip),%rax        # 15150 <g_401>
    b84c:	48 89 85 d0 f6 ff ff 	mov    %rax,-0x930(%rbp)
    b853:	48 8d 85 80 ee ff ff 	lea    -0x1180(%rbp),%rax
    b85a:	48 83 c0 28          	add    $0x28,%rax
    b85e:	48 89 85 d8 f6 ff ff 	mov    %rax,-0x928(%rbp)
    b865:	48 8d 05 e4 98 00 00 	lea    0x98e4(%rip),%rax        # 15150 <g_401>
    b86c:	48 89 85 e0 f6 ff ff 	mov    %rax,-0x920(%rbp)
    b873:	48 8d 85 80 ee ff ff 	lea    -0x1180(%rbp),%rax
    b87a:	48 83 c0 30          	add    $0x30,%rax
    b87e:	48 89 85 e8 f6 ff ff 	mov    %rax,-0x918(%rbp)
    b885:	48 c7 85 f0 f6 ff ff 	movq   $0x0,-0x910(%rbp)
    b88c:	00 00 00 00 
    b890:	48 8d 85 80 ee ff ff 	lea    -0x1180(%rbp),%rax
    b897:	48 83 c0 30          	add    $0x30,%rax
    b89b:	48 89 85 f8 f6 ff ff 	mov    %rax,-0x908(%rbp)
    b8a2:	48 8d 05 a7 98 00 00 	lea    0x98a7(%rip),%rax        # 15150 <g_401>
    b8a9:	48 89 85 00 f7 ff ff 	mov    %rax,-0x900(%rbp)
    b8b0:	48 8d 85 80 ee ff ff 	lea    -0x1180(%rbp),%rax
    b8b7:	48 83 c0 38          	add    $0x38,%rax
    b8bb:	48 89 85 08 f7 ff ff 	mov    %rax,-0x8f8(%rbp)
    b8c2:	48 8d 05 87 98 00 00 	lea    0x9887(%rip),%rax        # 15150 <g_401>
    b8c9:	48 89 85 10 f7 ff ff 	mov    %rax,-0x8f0(%rbp)
    b8d0:	48 8d 85 80 ee ff ff 	lea    -0x1180(%rbp),%rax
    b8d7:	48 83 c0 38          	add    $0x38,%rax
    b8db:	48 89 85 18 f7 ff ff 	mov    %rax,-0x8e8(%rbp)
    b8e2:	48 8d 85 80 ee ff ff 	lea    -0x1180(%rbp),%rax
    b8e9:	48 83 c0 30          	add    $0x30,%rax
    b8ed:	48 89 85 20 f7 ff ff 	mov    %rax,-0x8e0(%rbp)
    b8f4:	48 c7 85 28 f7 ff ff 	movq   $0x0,-0x8d8(%rbp)
    b8fb:	00 00 00 00 
    b8ff:	48 8d 05 4a 98 00 00 	lea    0x984a(%rip),%rax        # 15150 <g_401>
    b906:	48 89 85 30 f7 ff ff 	mov    %rax,-0x8d0(%rbp)
    b90d:	48 8d 05 3c 98 00 00 	lea    0x983c(%rip),%rax        # 15150 <g_401>
    b914:	48 89 85 38 f7 ff ff 	mov    %rax,-0x8c8(%rbp)
    b91b:	48 c7 85 40 f7 ff ff 	movq   $0x0,-0x8c0(%rbp)
    b922:	00 00 00 00 
    b926:	48 8d 85 80 ee ff ff 	lea    -0x1180(%rbp),%rax
    b92d:	48 83 c0 30          	add    $0x30,%rax
    b931:	48 89 85 48 f7 ff ff 	mov    %rax,-0x8b8(%rbp)
    b938:	48 8d 85 80 ee ff ff 	lea    -0x1180(%rbp),%rax
    b93f:	48 83 c0 68          	add    $0x68,%rax
    b943:	48 89 85 50 f7 ff ff 	mov    %rax,-0x8b0(%rbp)
    b94a:	48 8d 05 ff 97 00 00 	lea    0x97ff(%rip),%rax        # 15150 <g_401>
    b951:	48 89 85 58 f7 ff ff 	mov    %rax,-0x8a8(%rbp)
    b958:	48 8d 85 80 ee ff ff 	lea    -0x1180(%rbp),%rax
    b95f:	48 83 c0 30          	add    $0x30,%rax
    b963:	48 89 85 60 f7 ff ff 	mov    %rax,-0x8a0(%rbp)
    b96a:	48 c7 85 68 f7 ff ff 	movq   $0x0,-0x898(%rbp)
    b971:	00 00 00 00 
    b975:	48 8d 05 d4 97 00 00 	lea    0x97d4(%rip),%rax        # 15150 <g_401>
    b97c:	48 89 85 70 f7 ff ff 	mov    %rax,-0x890(%rbp)
    b983:	48 c7 85 78 f7 ff ff 	movq   $0x0,-0x888(%rbp)
    b98a:	00 00 00 00 
    b98e:	48 8d 05 bb 97 00 00 	lea    0x97bb(%rip),%rax        # 15150 <g_401>
    b995:	48 89 85 80 f7 ff ff 	mov    %rax,-0x880(%rbp)
    b99c:	48 8d 85 80 ee ff ff 	lea    -0x1180(%rbp),%rax
    b9a3:	48 83 c0 1c          	add    $0x1c,%rax
    b9a7:	48 89 85 88 f7 ff ff 	mov    %rax,-0x878(%rbp)
    b9ae:	48 c7 85 90 f7 ff ff 	movq   $0x0,-0x870(%rbp)
    b9b5:	00 00 00 00 
    b9b9:	48 8d 85 80 ee ff ff 	lea    -0x1180(%rbp),%rax
    b9c0:	48 83 c0 24          	add    $0x24,%rax
    b9c4:	48 89 85 98 f7 ff ff 	mov    %rax,-0x868(%rbp)
    b9cb:	48 8d 85 80 ee ff ff 	lea    -0x1180(%rbp),%rax
    b9d2:	48 83 c0 30          	add    $0x30,%rax
    b9d6:	48 89 85 a0 f7 ff ff 	mov    %rax,-0x860(%rbp)
    b9dd:	48 8d 85 80 ee ff ff 	lea    -0x1180(%rbp),%rax
    b9e4:	48 83 c0 38          	add    $0x38,%rax
    b9e8:	48 89 85 a8 f7 ff ff 	mov    %rax,-0x858(%rbp)
    b9ef:	48 8d 85 80 ee ff ff 	lea    -0x1180(%rbp),%rax
    b9f6:	48 83 c0 30          	add    $0x30,%rax
    b9fa:	48 89 85 b0 f7 ff ff 	mov    %rax,-0x850(%rbp)
    ba01:	48 8d 85 80 ee ff ff 	lea    -0x1180(%rbp),%rax
    ba08:	48 83 c0 40          	add    $0x40,%rax
    ba0c:	48 89 85 b8 f7 ff ff 	mov    %rax,-0x848(%rbp)
    ba13:	48 c7 85 c0 f7 ff ff 	movq   $0x0,-0x840(%rbp)
    ba1a:	00 00 00 00 
    ba1e:	48 8d 05 2b 97 00 00 	lea    0x972b(%rip),%rax        # 15150 <g_401>
    ba25:	48 89 85 c8 f7 ff ff 	mov    %rax,-0x838(%rbp)
    ba2c:	48 8d 85 80 ee ff ff 	lea    -0x1180(%rbp),%rax
    ba33:	48 83 c0 30          	add    $0x30,%rax
    ba37:	48 89 85 d0 f7 ff ff 	mov    %rax,-0x830(%rbp)
    ba3e:	48 c7 85 d8 f7 ff ff 	movq   $0x0,-0x828(%rbp)
    ba45:	00 00 00 00 
    ba49:	48 8d 85 80 ee ff ff 	lea    -0x1180(%rbp),%rax
    ba50:	48 83 c0 68          	add    $0x68,%rax
    ba54:	48 89 85 e0 f7 ff ff 	mov    %rax,-0x820(%rbp)
    ba5b:	48 8d 85 80 ee ff ff 	lea    -0x1180(%rbp),%rax
    ba62:	48 83 c0 24          	add    $0x24,%rax
    ba66:	48 89 85 e8 f7 ff ff 	mov    %rax,-0x818(%rbp)
    ba6d:	48 8d 85 80 ee ff ff 	lea    -0x1180(%rbp),%rax
    ba74:	48 83 c0 58          	add    $0x58,%rax
    ba78:	48 89 85 f0 f7 ff ff 	mov    %rax,-0x810(%rbp)
    ba7f:	48 c7 85 f8 f7 ff ff 	movq   $0x0,-0x808(%rbp)
    ba86:	00 00 00 00 
    ba8a:	48 8d 85 80 ee ff ff 	lea    -0x1180(%rbp),%rax
    ba91:	48 83 c0 30          	add    $0x30,%rax
    ba95:	48 89 85 00 f8 ff ff 	mov    %rax,-0x800(%rbp)
    ba9c:	48 c7 85 08 f8 ff ff 	movq   $0x0,-0x7f8(%rbp)
    baa3:	00 00 00 00 
    baa7:	48 8d 05 a2 96 00 00 	lea    0x96a2(%rip),%rax        # 15150 <g_401>
    baae:	48 89 85 10 f8 ff ff 	mov    %rax,-0x7f0(%rbp)
    bab5:	48 8d 05 94 96 00 00 	lea    0x9694(%rip),%rax        # 15150 <g_401>
    babc:	48 89 85 18 f8 ff ff 	mov    %rax,-0x7e8(%rbp)
    bac3:	48 8d 05 86 96 00 00 	lea    0x9686(%rip),%rax        # 15150 <g_401>
    baca:	48 89 85 20 f8 ff ff 	mov    %rax,-0x7e0(%rbp)
    bad1:	48 c7 85 28 f8 ff ff 	movq   $0x0,-0x7d8(%rbp)
    bad8:	00 00 00 00 
    badc:	48 8d 05 6d 96 00 00 	lea    0x966d(%rip),%rax        # 15150 <g_401>
    bae3:	48 89 85 30 f8 ff ff 	mov    %rax,-0x7d0(%rbp)
    baea:	48 8d 05 5f 96 00 00 	lea    0x965f(%rip),%rax        # 15150 <g_401>
    baf1:	48 89 85 38 f8 ff ff 	mov    %rax,-0x7c8(%rbp)
    baf8:	48 8d 85 80 ee ff ff 	lea    -0x1180(%rbp),%rax
    baff:	48 83 c0 30          	add    $0x30,%rax
    bb03:	48 89 85 40 f8 ff ff 	mov    %rax,-0x7c0(%rbp)
    bb0a:	48 8d 85 80 ee ff ff 	lea    -0x1180(%rbp),%rax
    bb11:	48 83 c0 30          	add    $0x30,%rax
    bb15:	48 89 85 48 f8 ff ff 	mov    %rax,-0x7b8(%rbp)
    bb1c:	48 8d 05 2d 96 00 00 	lea    0x962d(%rip),%rax        # 15150 <g_401>
    bb23:	48 89 85 50 f8 ff ff 	mov    %rax,-0x7b0(%rbp)
    bb2a:	48 8d 85 80 ee ff ff 	lea    -0x1180(%rbp),%rax
    bb31:	48 83 c0 1c          	add    $0x1c,%rax
    bb35:	48 89 85 58 f8 ff ff 	mov    %rax,-0x7a8(%rbp)
    bb3c:	48 8d 05 0d 96 00 00 	lea    0x960d(%rip),%rax        # 15150 <g_401>
    bb43:	48 89 85 60 f8 ff ff 	mov    %rax,-0x7a0(%rbp)
    bb4a:	48 8d 85 80 ee ff ff 	lea    -0x1180(%rbp),%rax
    bb51:	48 83 c0 30          	add    $0x30,%rax
    bb55:	48 89 85 68 f8 ff ff 	mov    %rax,-0x798(%rbp)
    bb5c:	48 8d 85 80 ee ff ff 	lea    -0x1180(%rbp),%rax
    bb63:	48 83 c0 30          	add    $0x30,%rax
    bb67:	48 89 85 70 f8 ff ff 	mov    %rax,-0x790(%rbp)
    bb6e:	48 8d 05 db 95 00 00 	lea    0x95db(%rip),%rax        # 15150 <g_401>
    bb75:	48 89 85 78 f8 ff ff 	mov    %rax,-0x788(%rbp)
    bb7c:	48 c7 85 80 f8 ff ff 	movq   $0x0,-0x780(%rbp)
    bb83:	00 00 00 00 
    bb87:	48 8d 05 c2 95 00 00 	lea    0x95c2(%rip),%rax        # 15150 <g_401>
    bb8e:	48 89 85 88 f8 ff ff 	mov    %rax,-0x778(%rbp)
    bb95:	48 8d 85 80 ee ff ff 	lea    -0x1180(%rbp),%rax
    bb9c:	48 83 c0 38          	add    $0x38,%rax
    bba0:	48 89 85 90 f8 ff ff 	mov    %rax,-0x770(%rbp)
    bba7:	48 8d 05 a2 95 00 00 	lea    0x95a2(%rip),%rax        # 15150 <g_401>
    bbae:	48 89 85 98 f8 ff ff 	mov    %rax,-0x768(%rbp)
    bbb5:	48 8d 85 80 ee ff ff 	lea    -0x1180(%rbp),%rax
    bbbc:	48 83 c0 30          	add    $0x30,%rax
    bbc0:	48 89 85 a0 f8 ff ff 	mov    %rax,-0x760(%rbp)
    bbc7:	48 c7 85 a8 f8 ff ff 	movq   $0x0,-0x758(%rbp)
    bbce:	00 00 00 00 
    bbd2:	48 c7 85 b0 f8 ff ff 	movq   $0x0,-0x750(%rbp)
    bbd9:	00 00 00 00 
    bbdd:	48 8d 05 6c 95 00 00 	lea    0x956c(%rip),%rax        # 15150 <g_401>
    bbe4:	48 89 85 b8 f8 ff ff 	mov    %rax,-0x748(%rbp)
    bbeb:	48 8d 05 5e 95 00 00 	lea    0x955e(%rip),%rax        # 15150 <g_401>
    bbf2:	48 89 85 c0 f8 ff ff 	mov    %rax,-0x740(%rbp)
    bbf9:	48 8d 05 50 95 00 00 	lea    0x9550(%rip),%rax        # 15150 <g_401>
    bc00:	48 89 85 c8 f8 ff ff 	mov    %rax,-0x738(%rbp)
    bc07:	c7 85 20 ed ff ff 12 	movl   $0x1852d112,-0x12e0(%rbp)
    bc0e:	d1 52 18 
    bc11:	c7 85 04 ed ff ff 08 	movl   $0x8,-0x12fc(%rbp)
    bc18:	00 00 00 
    bc1b:	c7 85 24 ed ff ff 2a 	movl   $0x6cde482a,-0x12dc(%rbp)
    bc22:	48 de 6c 
    bc25:	c7 85 28 ed ff ff 2f 	movl   $0xb5989d2f,-0x12d8(%rbp)
    bc2c:	9d 98 b5 
    bc2f:	c7 85 d0 ef ff ff fb 	movl   $0xfffffffb,-0x1030(%rbp)
    bc36:	ff ff ff 
    bc39:	c7 85 d4 ef ff ff fb 	movl   $0xfffffffb,-0x102c(%rbp)
    bc40:	ff ff ff 
    bc43:	c7 85 d8 ef ff ff 00 	movl   $0x0,-0x1028(%rbp)
    bc4a:	00 00 00 
    bc4d:	c7 85 dc ef ff ff f7 	movl   $0xfffffff7,-0x1024(%rbp)
    bc54:	ff ff ff 
    bc57:	c7 85 e0 ef ff ff 00 	movl   $0x0,-0x1020(%rbp)
    bc5e:	00 00 00 
    bc61:	c7 85 e4 ef ff ff fb 	movl   $0xfffffffb,-0x101c(%rbp)
    bc68:	ff ff ff 
    bc6b:	c7 85 e8 ef ff ff fb 	movl   $0xfffffffb,-0x1018(%rbp)
    bc72:	ff ff ff 
    bc75:	c7 85 ec ef ff ff 00 	movl   $0x0,-0x1014(%rbp)
    bc7c:	00 00 00 
    bc7f:	c7 85 f0 ef ff ff f7 	movl   $0xfffffff7,-0x1010(%rbp)
    bc86:	ff ff ff 
    bc89:	c7 85 f4 ef ff ff 15 	movl   $0xbd235115,-0x100c(%rbp)
    bc90:	51 23 bd 
    bc93:	c7 85 f8 ef ff ff 1b 	movl   $0xb895ad1b,-0x1008(%rbp)
    bc9a:	ad 95 b8 
    bc9d:	c7 85 fc ef ff ff 15 	movl   $0xbd235115,-0x1004(%rbp)
    bca4:	51 23 bd 
    bca7:	c7 85 00 f0 ff ff bf 	movl   $0x45c510bf,-0x1000(%rbp)
    bcae:	10 c5 45 
    bcb1:	c7 85 04 f0 ff ff bf 	movl   $0x45c510bf,-0xffc(%rbp)
    bcb8:	10 c5 45 
    bcbb:	c7 85 08 f0 ff ff 15 	movl   $0xbd235115,-0xff8(%rbp)
    bcc2:	51 23 bd 
    bcc5:	c7 85 0c f0 ff ff 1b 	movl   $0xb895ad1b,-0xff4(%rbp)
    bccc:	ad 95 b8 
    bccf:	c7 85 10 f0 ff ff 15 	movl   $0xbd235115,-0xff0(%rbp)
    bcd6:	51 23 bd 
    bcd9:	c7 85 14 f0 ff ff bf 	movl   $0x45c510bf,-0xfec(%rbp)
    bce0:	10 c5 45 
    bce3:	c7 85 18 f0 ff ff 00 	movl   $0x0,-0xfe8(%rbp)
    bcea:	00 00 00 
    bced:	c7 85 1c f0 ff ff 00 	movl   $0x0,-0xfe4(%rbp)
    bcf4:	00 00 00 
    bcf7:	c7 85 20 f0 ff ff 00 	movl   $0x0,-0xfe0(%rbp)
    bcfe:	00 00 00 
    bd01:	c7 85 24 f0 ff ff 00 	movl   $0x0,-0xfdc(%rbp)
    bd08:	00 00 00 
    bd0b:	c7 85 28 f0 ff ff d8 	movl   $0xba4540d8,-0xfd8(%rbp)
    bd12:	40 45 ba 
    bd15:	c7 85 2c f0 ff ff 00 	movl   $0x0,-0xfd4(%rbp)
    bd1c:	00 00 00 
    bd1f:	c7 85 30 f0 ff ff 00 	movl   $0x0,-0xfd0(%rbp)
    bd26:	00 00 00 
    bd29:	c7 85 34 f0 ff ff 00 	movl   $0x0,-0xfcc(%rbp)
    bd30:	00 00 00 
    bd33:	c7 85 38 f0 ff ff 00 	movl   $0x0,-0xfc8(%rbp)
    bd3a:	00 00 00 
    bd3d:	c7 85 3c f0 ff ff 04 	movl   $0x4,-0xfc4(%rbp)
    bd44:	00 00 00 
    bd47:	c7 85 40 f0 ff ff bf 	movl   $0x45c510bf,-0xfc0(%rbp)
    bd4e:	10 c5 45 
    bd51:	c7 85 44 f0 ff ff f1 	movl   $0xe1bf02f1,-0xfbc(%rbp)
    bd58:	02 bf e1 
    bd5b:	c7 85 48 f0 ff ff bf 	movl   $0x45c510bf,-0xfb8(%rbp)
    bd62:	10 c5 45 
    bd65:	c7 85 4c f0 ff ff 04 	movl   $0x4,-0xfb4(%rbp)
    bd6c:	00 00 00 
    bd6f:	c7 85 50 f0 ff ff 04 	movl   $0x4,-0xfb0(%rbp)
    bd76:	00 00 00 
    bd79:	c7 85 54 f0 ff ff bf 	movl   $0x45c510bf,-0xfac(%rbp)
    bd80:	10 c5 45 
    bd83:	c7 85 58 f0 ff ff f1 	movl   $0xe1bf02f1,-0xfa8(%rbp)
    bd8a:	02 bf e1 
    bd8d:	c7 85 5c f0 ff ff bf 	movl   $0x45c510bf,-0xfa4(%rbp)
    bd94:	10 c5 45 
    bd97:	c7 85 60 f0 ff ff 00 	movl   $0x0,-0xfa0(%rbp)
    bd9e:	00 00 00 
    bda1:	c7 85 64 f0 ff ff d8 	movl   $0xba4540d8,-0xf9c(%rbp)
    bda8:	40 45 ba 
    bdab:	c7 85 68 f0 ff ff f7 	movl   $0xfffffff7,-0xf98(%rbp)
    bdb2:	ff ff ff 
    bdb5:	c7 85 6c f0 ff ff f7 	movl   $0xfffffff7,-0xf94(%rbp)
    bdbc:	ff ff ff 
    bdbf:	c7 85 70 f0 ff ff d8 	movl   $0xba4540d8,-0xf90(%rbp)
    bdc6:	40 45 ba 
    bdc9:	c7 85 74 f0 ff ff 00 	movl   $0x0,-0xf8c(%rbp)
    bdd0:	00 00 00 
    bdd3:	c7 85 78 f0 ff ff d8 	movl   $0xba4540d8,-0xf88(%rbp)
    bdda:	40 45 ba 
    bddd:	c7 85 7c f0 ff ff f7 	movl   $0xfffffff7,-0xf84(%rbp)
    bde4:	ff ff ff 
    bde7:	c7 85 80 f0 ff ff f7 	movl   $0xfffffff7,-0xf80(%rbp)
    bdee:	ff ff ff 
    bdf1:	c7 85 84 f0 ff ff 04 	movl   $0x4,-0xf7c(%rbp)
    bdf8:	00 00 00 
    bdfb:	c7 85 88 f0 ff ff 04 	movl   $0x4,-0xf78(%rbp)
    be02:	00 00 00 
    be05:	c7 85 8c f0 ff ff bf 	movl   $0x45c510bf,-0xf74(%rbp)
    be0c:	10 c5 45 
    be0f:	c7 85 90 f0 ff ff f1 	movl   $0xe1bf02f1,-0xf70(%rbp)
    be16:	02 bf e1 
    be19:	c7 85 94 f0 ff ff bf 	movl   $0x45c510bf,-0xf6c(%rbp)
    be20:	10 c5 45 
    be23:	c7 85 98 f0 ff ff 04 	movl   $0x4,-0xf68(%rbp)
    be2a:	00 00 00 
    be2d:	c7 85 9c f0 ff ff 04 	movl   $0x4,-0xf64(%rbp)
    be34:	00 00 00 
    be37:	c7 85 a0 f0 ff ff bf 	movl   $0x45c510bf,-0xf60(%rbp)
    be3e:	10 c5 45 
    be41:	c7 85 a4 f0 ff ff f1 	movl   $0xe1bf02f1,-0xf5c(%rbp)
    be48:	02 bf e1 
    be4b:	48 c7 85 30 ee ff ff 	movq   $0xfffffffffffffffc,-0x11d0(%rbp)
    be52:	fc ff ff ff 
    be56:	48 b8 41 49 92 4d fd 	movabs $0x9e8f71fd4d924941,%rax
    be5d:	71 8f 9e 
    be60:	48 89 85 38 ee ff ff 	mov    %rax,-0x11c8(%rbp)
    be67:	48 c7 85 40 ee ff ff 	movq   $0xfffffffffffffffc,-0x11c0(%rbp)
    be6e:	fc ff ff ff 
    be72:	48 c7 85 48 ee ff ff 	movq   $0x0,-0x11b8(%rbp)
    be79:	00 00 00 00 
    be7d:	48 c7 85 50 ee ff ff 	movq   $0x0,-0x11b0(%rbp)
    be84:	00 00 00 00 
    be88:	48 c7 85 58 ee ff ff 	movq   $0xfffffffffffffffc,-0x11a8(%rbp)
    be8f:	fc ff ff ff 
    be93:	48 89 85 60 ee ff ff 	mov    %rax,-0x11a0(%rbp)
    be9a:	48 c7 85 68 ee ff ff 	movq   $0xfffffffffffffffc,-0x1198(%rbp)
    bea1:	fc ff ff ff 
    bea5:	48 c7 85 70 ee ff ff 	movq   $0x0,-0x1190(%rbp)
    beac:	00 00 00 00 
    beb0:	48 c7 85 78 ee ff ff 	movq   $0x0,-0x1188(%rbp)
    beb7:	00 00 00 00 
    bebb:	8b 95 18 ed ff ff    	mov    -0x12e8(%rbp),%edx
    bec1:	8b 85 18 ed ff ff    	mov    -0x12e8(%rbp),%eax
    bec7:	48 89 d6             	mov    %rdx,%rsi
    beca:	48 89 c7             	mov    %rax,%rdi
    becd:	e8 6f d9 ff ff       	callq  9841 <safe_add_func_int64_t_s_s>
    bed2:	8b 8d b0 ee ff ff    	mov    -0x1150(%rbp),%ecx
    bed8:	8b 95 00 ed ff ff    	mov    -0x1300(%rbp),%edx
    bede:	83 e2 01             	and    $0x1,%edx
    bee1:	89 95 00 ed ff ff    	mov    %edx,-0x1300(%rbp)
    bee7:	8b 95 00 ed ff ff    	mov    -0x1300(%rbp),%edx
    beed:	39 d1                	cmp    %edx,%ecx
    beef:	0f 95 c2             	setne  %dl
    bef2:	0f b6 d2             	movzbl %dl,%edx
    bef5:	48 39 d0             	cmp    %rdx,%rax
    bef8:	0f 9e c0             	setle  %al
    befb:	88 85 dc ec ff ff    	mov    %al,-0x1324(%rbp)
    bf01:	0f be 9d dc ec ff ff 	movsbl -0x1324(%rbp),%ebx
    bf08:	8b 05 6e 93 00 00    	mov    0x936e(%rip),%eax        # 1527c <g_2610>
    bf0e:	83 f8 05             	cmp    $0x5,%eax
    bf11:	0f 95 c0             	setne  %al
    bf14:	0f b6 c0             	movzbl %al,%eax
    bf17:	89 85 18 ee ff ff    	mov    %eax,-0x11e8(%rbp)
    bf1d:	be 00 00 00 00       	mov    $0x0,%esi
    bf22:	bf 01 00 00 00       	mov    $0x1,%edi
    bf27:	e8 a8 d2 ff ff       	callq  91d4 <safe_add_func_int8_t_s_s>
    bf2c:	66 98                	cbtw   
    bf2e:	0f b7 c0             	movzwl %ax,%eax
    bf31:	89 c7                	mov    %eax,%edi
    bf33:	e8 b1 dd ff ff       	callq  9ce9 <safe_unary_minus_func_uint16_t_u>
    bf38:	0f b7 c0             	movzwl %ax,%eax
    bf3b:	09 c3                	or     %eax,%ebx
    bf3d:	89 da                	mov    %ebx,%edx
    bf3f:	48 8b 05 f2 b4 00 00 	mov    0xb4f2(%rip),%rax        # 17438 <g_641>
    bf46:	0f b7 00             	movzwl (%rax),%eax
    bf49:	89 c1                	mov    %eax,%ecx
    bf4b:	89 d0                	mov    %edx,%eax
    bf4d:	31 c1                	xor    %eax,%ecx
    bf4f:	89 ca                	mov    %ecx,%edx
    bf51:	48 8b 05 e0 b4 00 00 	mov    0xb4e0(%rip),%rax        # 17438 <g_641>
    bf58:	66 89 10             	mov    %dx,(%rax)
    bf5b:	0f b7 00             	movzwl (%rax),%eax
    bf5e:	0f b7 c0             	movzwl %ax,%eax
    bf61:	83 e0 f7             	and    $0xfffffff7,%eax
    bf64:	89 c3                	mov    %eax,%ebx
    bf66:	bf 00 00 00 00       	mov    $0x0,%edi
    bf6b:	e8 2d d4 ff ff       	callq  939d <safe_unary_minus_func_int16_t_s>
    bf70:	98                   	cwtl   
    bf71:	89 de                	mov    %ebx,%esi
    bf73:	89 c7                	mov    %eax,%edi
    bf75:	e8 3e df ff ff       	callq  9eb8 <safe_add_func_uint32_t_u_u>
    bf7a:	3d 30 bd 00 00       	cmp    $0xbd30,%eax
    bf7f:	0f 95 c0             	setne  %al
    bf82:	0f b6 c8             	movzbl %al,%ecx
    bf85:	48 8b 05 6c c0 00 00 	mov    0xc06c(%rip),%rax        # 17ff8 <g_1863>
    bf8c:	48 8b 00             	mov    (%rax),%rax
    bf8f:	48 8b 00             	mov    (%rax),%rax
    bf92:	8b 10                	mov    (%rax),%edx
    bf94:	48 8b 05 5d c0 00 00 	mov    0xc05d(%rip),%rax        # 17ff8 <g_1863>
    bf9b:	48 8b 00             	mov    (%rax),%rax
    bf9e:	48 8b 00             	mov    (%rax),%rax
    bfa1:	09 ca                	or     %ecx,%edx
    bfa3:	89 10                	mov    %edx,(%rax)
    bfa5:	8b 00                	mov    (%rax),%eax
    bfa7:	85 c0                	test   %eax,%eax
    bfa9:	0f 84 8d 08 00 00    	je     c83c <func_22+0x186c>
    bfaf:	c7 85 2c ed ff ff 03 	movl   $0x3,-0x12d4(%rbp)
    bfb6:	00 00 00 
    bfb9:	66 c7 85 fe ec ff ff 	movw   $0xfffe,-0x1302(%rbp)
    bfc0:	fe ff 
    bfc2:	48 8d 05 7f bf 00 00 	lea    0xbf7f(%rip),%rax        # 17f48 <g_1579>
    bfc9:	48 89 85 90 ed ff ff 	mov    %rax,-0x1270(%rbp)
    bfd0:	48 c7 85 60 ed ff ff 	movq   $0x0,-0x12a0(%rbp)
    bfd7:	00 00 00 00 
    bfdb:	48 8d 85 60 ed ff ff 	lea    -0x12a0(%rbp),%rax
    bfe2:	48 89 85 68 ed ff ff 	mov    %rax,-0x1298(%rbp)
    bfe9:	48 8d 85 68 ed ff ff 	lea    -0x1298(%rbp),%rax
    bff0:	48 89 85 98 ed ff ff 	mov    %rax,-0x1268(%rbp)
    bff7:	c7 85 30 ed ff ff 48 	movl   $0x6a909948,-0x12d0(%rbp)
    bffe:	99 90 6a 
    c001:	c7 85 34 ed ff ff ab 	movl   $0x144d6aab,-0x12cc(%rbp)
    c008:	6a 4d 14 
    c00b:	c6 85 f9 ec ff ff 07 	movb   $0x7,-0x1307(%rbp)
    c012:	c7 85 38 ed ff ff ff 	movl   $0xffffffff,-0x12c8(%rbp)
    c019:	ff ff ff 
    c01c:	c7 85 3c ed ff ff ff 	movl   $0xffffffff,-0x12c4(%rbp)
    c023:	ff ff ff 
    c026:	c7 85 08 ed ff ff 01 	movl   $0x1,-0x12f8(%rbp)
    c02d:	00 00 00 
    c030:	c7 85 0c ed ff ff fd 	movl   $0xfffffffd,-0x12f4(%rbp)
    c037:	ff ff ff 
    c03a:	c7 85 40 ed ff ff c2 	movl   $0xa16cc3c2,-0x12c0(%rbp)
    c041:	c3 6c a1 
    c044:	c7 85 44 ed ff ff c8 	movl   $0x690f0ac8,-0x12bc(%rbp)
    c04b:	0a 0f 69 
    c04e:	48 8d 85 00 ed ff ff 	lea    -0x1300(%rbp),%rax
    c055:	48 89 85 a0 ed ff ff 	mov    %rax,-0x1260(%rbp)
    c05c:	48 8d 85 00 ee ff ff 	lea    -0x1200(%rbp),%rax
    c063:	48 83 c0 0c          	add    $0xc,%rax
    c067:	48 89 85 a8 ed ff ff 	mov    %rax,-0x1258(%rbp)
    c06e:	48 8d 85 08 ed ff ff 	lea    -0x12f8(%rbp),%rax
    c075:	48 89 85 b0 f0 ff ff 	mov    %rax,-0xf50(%rbp)
    c07c:	48 8d 05 b5 8f 00 00 	lea    0x8fb5(%rip),%rax        # 15038 <g_116>
    c083:	48 89 85 b8 f0 ff ff 	mov    %rax,-0xf48(%rbp)
    c08a:	48 8d 85 08 ed ff ff 	lea    -0x12f8(%rbp),%rax
    c091:	48 89 85 c0 f0 ff ff 	mov    %rax,-0xf40(%rbp)
    c098:	48 8d 05 75 91 00 00 	lea    0x9175(%rip),%rax        # 15214 <g_1663>
    c09f:	48 89 85 c8 f0 ff ff 	mov    %rax,-0xf38(%rbp)
    c0a6:	48 8d 05 67 91 00 00 	lea    0x9167(%rip),%rax        # 15214 <g_1663>
    c0ad:	48 89 85 d0 f0 ff ff 	mov    %rax,-0xf30(%rbp)
    c0b4:	48 8d 85 08 ed ff ff 	lea    -0x12f8(%rbp),%rax
    c0bb:	48 89 85 d8 f0 ff ff 	mov    %rax,-0xf28(%rbp)
    c0c2:	48 8d 05 6f 8f 00 00 	lea    0x8f6f(%rip),%rax        # 15038 <g_116>
    c0c9:	48 89 85 e0 f0 ff ff 	mov    %rax,-0xf20(%rbp)
    c0d0:	48 8d 85 08 ed ff ff 	lea    -0x12f8(%rbp),%rax
    c0d7:	48 89 85 e8 f0 ff ff 	mov    %rax,-0xf18(%rbp)
    c0de:	48 8d 05 2f 91 00 00 	lea    0x912f(%rip),%rax        # 15214 <g_1663>
    c0e5:	48 89 85 f0 f0 ff ff 	mov    %rax,-0xf10(%rbp)
    c0ec:	48 8d 85 08 ed ff ff 	lea    -0x12f8(%rbp),%rax
    c0f3:	48 89 85 f8 f0 ff ff 	mov    %rax,-0xf08(%rbp)
    c0fa:	48 8d 05 13 91 00 00 	lea    0x9113(%rip),%rax        # 15214 <g_1663>
    c101:	48 89 85 00 f1 ff ff 	mov    %rax,-0xf00(%rbp)
    c108:	48 8d 05 05 91 00 00 	lea    0x9105(%rip),%rax        # 15214 <g_1663>
    c10f:	48 89 85 08 f1 ff ff 	mov    %rax,-0xef8(%rbp)
    c116:	48 8d 85 08 ed ff ff 	lea    -0x12f8(%rbp),%rax
    c11d:	48 89 85 10 f1 ff ff 	mov    %rax,-0xef0(%rbp)
    c124:	48 8d 05 0d 8f 00 00 	lea    0x8f0d(%rip),%rax        # 15038 <g_116>
    c12b:	48 89 85 18 f1 ff ff 	mov    %rax,-0xee8(%rbp)
    c132:	48 8d 85 08 ed ff ff 	lea    -0x12f8(%rbp),%rax
    c139:	48 89 85 20 f1 ff ff 	mov    %rax,-0xee0(%rbp)
    c140:	48 8d 05 cd 90 00 00 	lea    0x90cd(%rip),%rax        # 15214 <g_1663>
    c147:	48 89 85 28 f1 ff ff 	mov    %rax,-0xed8(%rbp)
    c14e:	48 8d 05 bf 90 00 00 	lea    0x90bf(%rip),%rax        # 15214 <g_1663>
    c155:	48 89 85 30 f1 ff ff 	mov    %rax,-0xed0(%rbp)
    c15c:	48 8d 85 08 ed ff ff 	lea    -0x12f8(%rbp),%rax
    c163:	48 89 85 38 f1 ff ff 	mov    %rax,-0xec8(%rbp)
    c16a:	48 8d 85 00 ee ff ff 	lea    -0x1200(%rbp),%rax
    c171:	48 83 c0 18          	add    $0x18,%rax
    c175:	48 89 85 40 f1 ff ff 	mov    %rax,-0xec0(%rbp)
    c17c:	48 8d 05 91 90 00 00 	lea    0x9091(%rip),%rax        # 15214 <g_1663>
    c183:	48 89 85 48 f1 ff ff 	mov    %rax,-0xeb8(%rbp)
    c18a:	48 8d 85 04 ed ff ff 	lea    -0x12fc(%rbp),%rax
    c191:	48 89 85 50 f1 ff ff 	mov    %rax,-0xeb0(%rbp)
    c198:	48 8d 05 75 90 00 00 	lea    0x9075(%rip),%rax        # 15214 <g_1663>
    c19f:	48 89 85 58 f1 ff ff 	mov    %rax,-0xea8(%rbp)
    c1a6:	48 8d 85 00 ee ff ff 	lea    -0x1200(%rbp),%rax
    c1ad:	48 83 c0 18          	add    $0x18,%rax
    c1b1:	48 89 85 60 f1 ff ff 	mov    %rax,-0xea0(%rbp)
    c1b8:	48 8d 85 00 ee ff ff 	lea    -0x1200(%rbp),%rax
    c1bf:	48 83 c0 18          	add    $0x18,%rax
    c1c3:	48 89 85 68 f1 ff ff 	mov    %rax,-0xe98(%rbp)
    c1ca:	48 8d 05 43 90 00 00 	lea    0x9043(%rip),%rax        # 15214 <g_1663>
    c1d1:	48 89 85 70 f1 ff ff 	mov    %rax,-0xe90(%rbp)
    c1d8:	48 8d 85 04 ed ff ff 	lea    -0x12fc(%rbp),%rax
    c1df:	48 89 85 78 f1 ff ff 	mov    %rax,-0xe88(%rbp)
    c1e6:	48 8d 05 27 90 00 00 	lea    0x9027(%rip),%rax        # 15214 <g_1663>
    c1ed:	48 89 85 80 f1 ff ff 	mov    %rax,-0xe80(%rbp)
    c1f4:	48 8b 05 cd c2 00 00 	mov    0xc2cd(%rip),%rax        # 184c8 <g_2449>
    c1fb:	48 8b 00             	mov    (%rax),%rax
    c1fe:	48 8b 00             	mov    (%rax),%rax
    c201:	48 8b 00             	mov    (%rax),%rax
    c204:	8b 95 2c ed ff ff    	mov    -0x12d4(%rbp),%edx
    c20a:	89 10                	mov    %edx,(%rax)
    c20c:	c7 05 3a 8f 00 00 00 	movl   $0x0,0x8f3a(%rip)        # 15150 <g_401>
    c213:	00 00 00 
    c216:	e9 fa 05 00 00       	jmpq   c815 <func_22+0x1845>
    c21b:	48 8d 85 80 ee ff ff 	lea    -0x1180(%rbp),%rax
    c222:	48 83 c0 30          	add    $0x30,%rax
    c226:	48 89 85 b0 ed ff ff 	mov    %rax,-0x1250(%rbp)
    c22d:	48 8d 85 58 ed ff ff 	lea    -0x12a8(%rbp),%rax
    c234:	48 89 85 b8 ed ff ff 	mov    %rax,-0x1248(%rbp)
    c23b:	c7 85 48 ed ff ff fa 	movl   $0xfffffffa,-0x12b8(%rbp)
    c242:	ff ff ff 
    c245:	48 8d 85 90 f1 ff ff 	lea    -0xe70(%rbp),%rax
    c24c:	48 8d 15 4d 90 00 00 	lea    0x904d(%rip),%rdx        # 152a0 <g_2768+0x20>
    c253:	b9 46 00 00 00       	mov    $0x46,%ecx
    c258:	48 89 c7             	mov    %rax,%rdi
    c25b:	48 89 d6             	mov    %rdx,%rsi
    c25e:	f3 48 a5             	rep movsq %ds:(%rsi),%es:(%rdi)
    c261:	48 8d 05 08 8e 00 00 	lea    0x8e08(%rip),%rax        # 15070 <g_281>
    c268:	48 89 85 10 ef ff ff 	mov    %rax,-0x10f0(%rbp)
    c26f:	48 8d 05 fa 8d 00 00 	lea    0x8dfa(%rip),%rax        # 15070 <g_281>
    c276:	48 89 85 18 ef ff ff 	mov    %rax,-0x10e8(%rbp)
    c27d:	48 8d 05 ec 8d 00 00 	lea    0x8dec(%rip),%rax        # 15070 <g_281>
    c284:	48 89 85 20 ef ff ff 	mov    %rax,-0x10e0(%rbp)
    c28b:	48 8d 05 de 8d 00 00 	lea    0x8dde(%rip),%rax        # 15070 <g_281>
    c292:	48 89 85 28 ef ff ff 	mov    %rax,-0x10d8(%rbp)
    c299:	48 8d 05 d0 8d 00 00 	lea    0x8dd0(%rip),%rax        # 15070 <g_281>
    c2a0:	48 89 85 30 ef ff ff 	mov    %rax,-0x10d0(%rbp)
    c2a7:	48 8d 05 c2 8d 00 00 	lea    0x8dc2(%rip),%rax        # 15070 <g_281>
    c2ae:	48 89 85 38 ef ff ff 	mov    %rax,-0x10c8(%rbp)
    c2b5:	48 8d 05 b4 8d 00 00 	lea    0x8db4(%rip),%rax        # 15070 <g_281>
    c2bc:	48 89 85 40 ef ff ff 	mov    %rax,-0x10c0(%rbp)
    c2c3:	48 8d 05 a6 8d 00 00 	lea    0x8da6(%rip),%rax        # 15070 <g_281>
    c2ca:	48 89 85 48 ef ff ff 	mov    %rax,-0x10b8(%rbp)
    c2d1:	48 8d 05 98 8d 00 00 	lea    0x8d98(%rip),%rax        # 15070 <g_281>
    c2d8:	48 89 85 50 ef ff ff 	mov    %rax,-0x10b0(%rbp)
    c2df:	48 8d 05 8a 8d 00 00 	lea    0x8d8a(%rip),%rax        # 15070 <g_281>
    c2e6:	48 89 85 58 ef ff ff 	mov    %rax,-0x10a8(%rbp)
    c2ed:	48 8d 05 7c 8d 00 00 	lea    0x8d7c(%rip),%rax        # 15070 <g_281>
    c2f4:	48 89 85 60 ef ff ff 	mov    %rax,-0x10a0(%rbp)
    c2fb:	48 8d 05 6e 8d 00 00 	lea    0x8d6e(%rip),%rax        # 15070 <g_281>
    c302:	48 89 85 68 ef ff ff 	mov    %rax,-0x1098(%rbp)
    c309:	48 8d 05 60 8d 00 00 	lea    0x8d60(%rip),%rax        # 15070 <g_281>
    c310:	48 89 85 70 ef ff ff 	mov    %rax,-0x1090(%rbp)
    c317:	48 8d 05 52 8d 00 00 	lea    0x8d52(%rip),%rax        # 15070 <g_281>
    c31e:	48 89 85 78 ef ff ff 	mov    %rax,-0x1088(%rbp)
    c325:	48 8d 05 44 8d 00 00 	lea    0x8d44(%rip),%rax        # 15070 <g_281>
    c32c:	48 89 85 80 ef ff ff 	mov    %rax,-0x1080(%rbp)
    c333:	48 8d 05 36 8d 00 00 	lea    0x8d36(%rip),%rax        # 15070 <g_281>
    c33a:	48 89 85 88 ef ff ff 	mov    %rax,-0x1078(%rbp)
    c341:	48 8d 05 28 8d 00 00 	lea    0x8d28(%rip),%rax        # 15070 <g_281>
    c348:	48 89 85 90 ef ff ff 	mov    %rax,-0x1070(%rbp)
    c34f:	48 8d 05 1a 8d 00 00 	lea    0x8d1a(%rip),%rax        # 15070 <g_281>
    c356:	48 89 85 98 ef ff ff 	mov    %rax,-0x1068(%rbp)
    c35d:	48 8d 05 0c 8d 00 00 	lea    0x8d0c(%rip),%rax        # 15070 <g_281>
    c364:	48 89 85 a0 ef ff ff 	mov    %rax,-0x1060(%rbp)
    c36b:	48 8d 05 fe 8c 00 00 	lea    0x8cfe(%rip),%rax        # 15070 <g_281>
    c372:	48 89 85 a8 ef ff ff 	mov    %rax,-0x1058(%rbp)
    c379:	48 8d 05 f0 8c 00 00 	lea    0x8cf0(%rip),%rax        # 15070 <g_281>
    c380:	48 89 85 b0 ef ff ff 	mov    %rax,-0x1050(%rbp)
    c387:	48 8d 05 e2 8c 00 00 	lea    0x8ce2(%rip),%rax        # 15070 <g_281>
    c38e:	48 89 85 b8 ef ff ff 	mov    %rax,-0x1048(%rbp)
    c395:	48 8d 05 d4 8c 00 00 	lea    0x8cd4(%rip),%rax        # 15070 <g_281>
    c39c:	48 89 85 c0 ef ff ff 	mov    %rax,-0x1040(%rbp)
    c3a3:	48 8d 05 c6 8c 00 00 	lea    0x8cc6(%rip),%rax        # 15070 <g_281>
    c3aa:	48 89 85 c8 ef ff ff 	mov    %rax,-0x1038(%rbp)
    c3b1:	c7 85 4c ed ff ff ff 	movl   $0xffffffff,-0x12b4(%rbp)
    c3b8:	ff ff ff 
    c3bb:	c7 85 50 ed ff ff b9 	movl   $0xb16b7eb9,-0x12b0(%rbp)
    c3c2:	7e 6b b1 
    c3c5:	c7 85 54 ed ff ff 4a 	movl   $0x8ca354a,-0x12ac(%rbp)
    c3cc:	35 ca 08 
    c3cf:	66 83 ad fa ec ff ff 	subw   $0x1,-0x1306(%rbp)
    c3d6:	01 
    c3d7:	8b 85 48 ed ff ff    	mov    -0x12b8(%rbp),%eax
    c3dd:	48 63 d8             	movslq %eax,%rbx
    c3e0:	48 8b 85 b0 ed ff ff 	mov    -0x1250(%rbp),%rax
    c3e7:	8b 10                	mov    (%rax),%edx
    c3e9:	48 8b 05 38 bb 00 00 	mov    0xbb38(%rip),%rax        # 17f28 <g_1479>
    c3f0:	8b 00                	mov    (%rax),%eax
    c3f2:	09 c2                	or     %eax,%edx
    c3f4:	48 8b 85 b0 ed ff ff 	mov    -0x1250(%rbp),%rax
    c3fb:	89 10                	mov    %edx,(%rax)
    c3fd:	48 8b 05 64 b3 00 00 	mov    0xb364(%rip),%rax        # 17768 <g_1304>
    c404:	48 8b 95 e8 f2 ff ff 	mov    -0xd18(%rbp),%rdx
    c40b:	48 89 10             	mov    %rdx,(%rax)
    c40e:	48 8b 00             	mov    (%rax),%rax
    c411:	48 39 85 70 ed ff ff 	cmp    %rax,-0x1290(%rbp)
    c418:	0f 95 c2             	setne  %dl
    c41b:	48 8b 05 76 c0 00 00 	mov    0xc076(%rip),%rax        # 18498 <g_1896>
    c422:	48 8b 00             	mov    (%rax),%rax
    c425:	48 8b 00             	mov    (%rax),%rax
    c428:	0f b6 d2             	movzbl %dl,%edx
    c42b:	66 89 10             	mov    %dx,(%rax)
    c42e:	0f b7 00             	movzwl (%rax),%eax
    c431:	44 0f bf e0          	movswl %ax,%r12d
    c435:	8b 85 2c ed ff ff    	mov    -0x12d4(%rbp),%eax
    c43b:	0f b6 c0             	movzbl %al,%eax
    c43e:	89 c6                	mov    %eax,%esi
    c440:	bf 00 00 00 00       	mov    $0x0,%edi
    c445:	e8 91 d7 ff ff       	callq  9bdb <safe_div_func_uint8_t_u_u>
    c44a:	0f b6 c0             	movzbl %al,%eax
    c44d:	41 39 c4             	cmp    %eax,%r12d
    c450:	0f 9c c0             	setl   %al
    c453:	0f b6 c0             	movzbl %al,%eax
    c456:	be 01 00 00 00       	mov    $0x1,%esi
    c45b:	89 c7                	mov    %eax,%edi
    c45d:	e8 bd d8 ff ff       	callq  9d1f <safe_sub_func_uint16_t_u_u>
    c462:	0f be c0             	movsbl %al,%eax
    c465:	89 c6                	mov    %eax,%esi
    c467:	bf ff ff ff ff       	mov    $0xffffffff,%edi
    c46c:	e8 c0 cd ff ff       	callq  9231 <safe_mod_func_int8_t_s_s>
    c471:	0f be c0             	movsbl %al,%eax
    c474:	39 85 18 ed ff ff    	cmp    %eax,-0x12e8(%rbp)
    c47a:	0f 97 c0             	seta   %al
    c47d:	44 0f b6 e0          	movzbl %al,%r12d
    c481:	8b 85 48 ed ff ff    	mov    -0x12b8(%rbp),%eax
    c487:	89 c6                	mov    %eax,%esi
    c489:	bf 00 00 00 00       	mov    $0x0,%edi
    c48e:	e8 4e d0 ff ff       	callq  94e1 <safe_lshift_func_int16_t_s_u>
    c493:	0f b7 c0             	movzwl %ax,%eax
    c496:	44 89 e6             	mov    %r12d,%esi
    c499:	89 c7                	mov    %eax,%edi
    c49b:	e8 a8 d9 ff ff       	callq  9e48 <safe_rshift_func_uint16_t_u_s>
    c4a0:	66 85 c0             	test   %ax,%ax
    c4a3:	48 8b 95 58 ed ff ff 	mov    -0x12a8(%rbp),%rdx
    c4aa:	48 8b 85 b8 ed ff ff 	mov    -0x1248(%rbp),%rax
    c4b1:	48 89 10             	mov    %rdx,(%rax)
    c4b4:	48 8b 85 b8 ed ff ff 	mov    -0x1248(%rbp),%rax
    c4bb:	48 8b 00             	mov    (%rax),%rax
    c4be:	48 85 c0             	test   %rax,%rax
    c4c1:	0f b7 85 e4 ec ff ff 	movzwl -0x131c(%rbp),%eax
    c4c8:	0f b6 c0             	movzbl %al,%eax
    c4cb:	be 04 00 00 00       	mov    $0x4,%esi
    c4d0:	89 c7                	mov    %eax,%edi
    c4d2:	e8 b6 d7 ff ff       	callq  9c8d <safe_rshift_func_uint8_t_u_s>
    c4d7:	0f b6 c0             	movzbl %al,%eax
    c4da:	48 89 de             	mov    %rbx,%rsi
    c4dd:	48 89 c7             	mov    %rax,%rdi
    c4e0:	e8 ca db ff ff       	callq  a0af <safe_div_func_uint64_t_u_u>
    c4e5:	8b 95 18 ee ff ff    	mov    -0x11e8(%rbp),%edx
    c4eb:	48 63 d2             	movslq %edx,%rdx
    c4ee:	48 39 d0             	cmp    %rdx,%rax
    c4f1:	0f 87 8d 02 00 00    	ja     c784 <func_22+0x17b4>
    c4f7:	48 8d 85 68 ed ff ff 	lea    -0x1298(%rbp),%rax
    c4fe:	48 89 85 d8 ed ff ff 	mov    %rax,-0x1228(%rbp)
    c505:	c7 85 e0 ed ff ff 80 	movl   $0x84c2c580,-0x1220(%rbp)
    c50c:	c5 c2 84 
    c50f:	c7 85 e4 ed ff ff 80 	movl   $0x84c2c580,-0x121c(%rbp)
    c516:	c5 c2 84 
    c519:	c7 85 e8 ed ff ff 80 	movl   $0x84c2c580,-0x1218(%rbp)
    c520:	c5 c2 84 
    c523:	c7 85 ec ed ff ff 80 	movl   $0x84c2c580,-0x1214(%rbp)
    c52a:	c5 c2 84 
    c52d:	c7 85 f0 ed ff ff 80 	movl   $0x84c2c580,-0x1210(%rbp)
    c534:	c5 c2 84 
    c537:	0f b7 85 fe ec ff ff 	movzwl -0x1302(%rbp),%eax
    c53e:	98                   	cwtl   
    c53f:	89 c7                	mov    %eax,%edi
    c541:	e8 57 ce ff ff       	callq  939d <safe_unary_minus_func_int16_t_s>
    c546:	0f b7 c0             	movzwl %ax,%eax
    c549:	48 8b 15 a8 ba 00 00 	mov    0xbaa8(%rip),%rdx        # 17ff8 <g_1863>
    c550:	48 8b 1a             	mov    (%rdx),%rbx
    c553:	89 c7                	mov    %eax,%edi
    c555:	e8 fd 04 00 00       	callq  ca57 <func_28>
    c55a:	48 89 03             	mov    %rax,(%rbx)
    c55d:	48 8b 85 90 ed ff ff 	mov    -0x1270(%rbp),%rax
    c564:	48 89 85 88 ed ff ff 	mov    %rax,-0x1278(%rbp)
    c56b:	48 8b 85 88 ed ff ff 	mov    -0x1278(%rbp),%rax
    c572:	48 89 05 67 bf 00 00 	mov    %rax,0xbf67(%rip)        # 184e0 <g_2647>
    c579:	48 8b 05 60 bf 00 00 	mov    0xbf60(%rip),%rax        # 184e0 <g_2647>
    c580:	48 85 c0             	test   %rax,%rax
    c583:	0f 95 c0             	setne  %al
    c586:	0f b6 c0             	movzbl %al,%eax
    c589:	be 00 00 00 00       	mov    $0x0,%esi
    c58e:	89 c7                	mov    %eax,%edi
    c590:	e8 b7 d6 ff ff       	callq  9c4c <safe_lshift_func_uint8_t_u_u>
    c595:	48 8b 05 2c bf 00 00 	mov    0xbf2c(%rip),%rax        # 184c8 <g_2449>
    c59c:	48 8b 00             	mov    (%rax),%rax
    c59f:	48 8b 00             	mov    (%rax),%rax
    c5a2:	48 8b 00             	mov    (%rax),%rax
    c5a5:	8b 00                	mov    (%rax),%eax
    c5a7:	85 c0                	test   %eax,%eax
    c5a9:	48 0f be 9d e0 ec ff 	movsbq -0x1320(%rbp),%rbx
    c5b0:	ff 
    c5b1:	8b 85 2c ed ff ff    	mov    -0x12d4(%rbp),%eax
    c5b7:	44 0f b7 e0          	movzwl %ax,%r12d
    c5bb:	0f b7 95 e4 ec ff ff 	movzwl -0x131c(%rbp),%edx
    c5c2:	48 8b 85 98 ed ff ff 	mov    -0x1268(%rbp),%rax
    c5c9:	48 3b 85 d8 ed ff ff 	cmp    -0x1228(%rbp),%rax
    c5d0:	0f 94 c0             	sete   %al
    c5d3:	0f b6 c8             	movzbl %al,%ecx
    c5d6:	0f b7 85 fe ec ff ff 	movzwl -0x1302(%rbp),%eax
    c5dd:	09 c8                	or     %ecx,%eax
    c5df:	39 c2                	cmp    %eax,%edx
    c5e1:	0f 9d c2             	setge  %dl
    c5e4:	48 8b 05 ad be 00 00 	mov    0xbead(%rip),%rax        # 18498 <g_1896>
    c5eb:	48 8b 00             	mov    (%rax),%rax
    c5ee:	48 8b 00             	mov    (%rax),%rax
    c5f1:	0f b6 d2             	movzbl %dl,%edx
    c5f4:	66 89 10             	mov    %dx,(%rax)
    c5f7:	0f b7 00             	movzwl (%rax),%eax
    c5fa:	98                   	cwtl   
    c5fb:	be 0b 00 00 00       	mov    $0xb,%esi
    c600:	89 c7                	mov    %eax,%edi
    c602:	e8 8b ce ff ff       	callq  9492 <safe_lshift_func_int16_t_s_s>
    c607:	48 0f bf d0          	movswq %ax,%rdx
    c60b:	48 8b 05 ee b0 00 00 	mov    0xb0ee(%rip),%rax        # 17700 <g_1272>
    c612:	48 8b 00             	mov    (%rax),%rax
    c615:	48 39 c2             	cmp    %rax,%rdx
    c618:	7c 11                	jl     c62b <func_22+0x165b>
    c61a:	8b 85 e4 ed ff ff    	mov    -0x121c(%rbp),%eax
    c620:	85 c0                	test   %eax,%eax
    c622:	74 07                	je     c62b <func_22+0x165b>
    c624:	b8 01 00 00 00       	mov    $0x1,%eax
    c629:	eb 05                	jmp    c630 <func_22+0x1660>
    c62b:	b8 00 00 00 00       	mov    $0x0,%eax
    c630:	0f b7 c0             	movzwl %ax,%eax
    c633:	44 89 e6             	mov    %r12d,%esi
    c636:	89 c7                	mov    %eax,%edi
    c638:	e8 1f d7 ff ff       	callq  9d5c <safe_mod_func_uint16_t_u_u>
    c63d:	48 89 de             	mov    %rbx,%rsi
    c640:	bf 01 00 00 00       	mov    $0x1,%edi
    c645:	e8 f7 d1 ff ff       	callq  9841 <safe_add_func_int64_t_s_s>
    c64a:	8b 95 f0 ed ff ff    	mov    -0x1210(%rbp),%edx
    c650:	48 63 d2             	movslq %edx,%rdx
    c653:	48 39 d0             	cmp    %rdx,%rax
    c656:	0f 9f c0             	setg   %al
    c659:	0f b6 c0             	movzbl %al,%eax
    c65c:	be 0f 00 00 00       	mov    $0xf,%esi
    c661:	89 c7                	mov    %eax,%edi
    c663:	e8 79 ce ff ff       	callq  94e1 <safe_lshift_func_int16_t_s_u>
    c668:	0f b7 95 e4 ec ff ff 	movzwl -0x131c(%rbp),%edx
    c66f:	0f b7 85 fe ec ff ff 	movzwl -0x1302(%rbp),%eax
    c676:	0f be c0             	movsbl %al,%eax
    c679:	89 d6                	mov    %edx,%esi
    c67b:	89 c7                	mov    %eax,%edi
    c67d:	e8 b3 cc ff ff       	callq  9335 <safe_rshift_func_int8_t_s_s>
    c682:	48 8b 05 07 be 00 00 	mov    0xbe07(%rip),%rax        # 18490 <g_1898>
    c689:	0f b7 00             	movzwl (%rax),%eax
    c68c:	0a 85 dc ec ff ff    	or     -0x1324(%rbp),%al
    c692:	0f b6 d0             	movzbl %al,%edx
    c695:	0f b6 85 e0 ec ff ff 	movzbl -0x1320(%rbp),%eax
    c69c:	0f b6 c0             	movzbl %al,%eax
    c69f:	89 d6                	mov    %edx,%esi
    c6a1:	89 c7                	mov    %eax,%edi
    c6a3:	e8 eb d4 ff ff       	callq  9b93 <safe_mul_func_uint8_t_u_u>
    c6a8:	0f b6 d0             	movzbl %al,%edx
    c6ab:	0f be 85 e0 ec ff ff 	movsbl -0x1320(%rbp),%eax
    c6b2:	21 d0                	and    %edx,%eax
    c6b4:	89 c6                	mov    %eax,%esi
    c6b6:	bf 9e 6f 68 47       	mov    $0x47686f9e,%edi
    c6bb:	e8 0c d0 ff ff       	callq  96cc <safe_mod_func_int32_t_s_s>
    c6c0:	0f b7 95 e4 ec ff ff 	movzwl -0x131c(%rbp),%edx
    c6c7:	09 d0                	or     %edx,%eax
    c6c9:	83 f8 74             	cmp    $0x74,%eax
    c6cc:	0f 94 c0             	sete   %al
    c6cf:	0f b6 d0             	movzbl %al,%edx
    c6d2:	8b 85 ec ed ff ff    	mov    -0x1214(%rbp),%eax
    c6d8:	39 c2                	cmp    %eax,%edx
    c6da:	0f 94 c0             	sete   %al
    c6dd:	0f b6 c8             	movzbl %al,%ecx
    c6e0:	48 8b 05 89 b0 00 00 	mov    0xb089(%rip),%rax        # 17770 <g_1412>
    c6e7:	8b 10                	mov    (%rax),%edx
    c6e9:	48 8b 05 80 b0 00 00 	mov    0xb080(%rip),%rax        # 17770 <g_1412>
    c6f0:	09 ca                	or     %ecx,%edx
    c6f2:	89 10                	mov    %edx,(%rax)
    c6f4:	48 8b 15 35 b8 00 00 	mov    0xb835(%rip),%rdx        # 17f30 <g_1497>
    c6fb:	8b 00                	mov    (%rax),%eax
    c6fd:	89 02                	mov    %eax,(%rdx)
    c6ff:	c6 05 42 89 00 00 00 	movb   $0x0,0x8942(%rip)        # 15048 <g_150>
    c706:	eb 6f                	jmp    c777 <func_22+0x17a7>
    c708:	c7 85 10 ed ff ff 00 	movl   $0x0,-0x12f0(%rbp)
    c70f:	00 00 00 
    c712:	eb 4a                	jmp    c75e <func_22+0x178e>
    c714:	c7 85 14 ed ff ff 00 	movl   $0x0,-0x12ec(%rbp)
    c71b:	00 00 00 
    c71e:	eb 2e                	jmp    c74e <func_22+0x177e>
    c720:	8b 85 14 ed ff ff    	mov    -0x12ec(%rbp),%eax
    c726:	48 98                	cltq   
    c728:	8b 95 10 ed ff ff    	mov    -0x12f0(%rbp),%edx
    c72e:	48 63 d2             	movslq %edx,%rdx
    c731:	48 c1 e2 02          	shl    $0x2,%rdx
    c735:	48 01 d0             	add    %rdx,%rax
    c738:	48 8d 15 e5 88 00 00 	lea    0x88e5(%rip),%rdx        # 15024 <g_39>
    c73f:	48 89 94 c5 d0 f8 ff 	mov    %rdx,-0x730(%rbp,%rax,8)
    c746:	ff 
    c747:	83 85 14 ed ff ff 01 	addl   $0x1,-0x12ec(%rbp)
    c74e:	83 bd 14 ed ff ff 03 	cmpl   $0x3,-0x12ec(%rbp)
    c755:	7e c9                	jle    c720 <func_22+0x1750>
    c757:	83 85 10 ed ff ff 01 	addl   $0x1,-0x12f0(%rbp)
    c75e:	83 bd 10 ed ff ff 06 	cmpl   $0x6,-0x12f0(%rbp)
    c765:	7e ad                	jle    c714 <func_22+0x1744>
    c767:	0f b6 05 da 88 00 00 	movzbl 0x88da(%rip),%eax        # 15048 <g_150>
    c76e:	83 c0 01             	add    $0x1,%eax
    c771:	88 05 d1 88 00 00    	mov    %al,0x88d1(%rip)        # 15048 <g_150>
    c777:	0f b6 05 ca 88 00 00 	movzbl 0x88ca(%rip),%eax        # 15048 <g_150>
    c77e:	3c 07                	cmp    $0x7,%al
    c780:	76 86                	jbe    c708 <func_22+0x1738>
    c782:	eb 73                	jmp    c7f7 <func_22+0x1827>
    c784:	48 8d 85 0c ed ff ff 	lea    -0x12f4(%rbp),%rax
    c78b:	48 89 85 c0 ed ff ff 	mov    %rax,-0x1240(%rbp)
    c792:	66 c7 85 e4 ec ff ff 	movw   $0x0,-0x131c(%rbp)
    c799:	00 00 
    c79b:	66 83 bd e4 ec ff ff 	cmpw   $0x1a,-0x131c(%rbp)
    c7a2:	1a 
    c7a3:	76 52                	jbe    c7f7 <func_22+0x1827>
    c7a5:	48 c7 85 c8 ed ff ff 	movq   $0x0,-0x1238(%rbp)
    c7ac:	00 00 00 00 
    c7b0:	48 8d 85 d0 f8 ff ff 	lea    -0x730(%rbp),%rax
    c7b7:	48 8d 15 22 8d 00 00 	lea    0x8d22(%rip),%rdx        # 154e0 <g_2768+0x260>
    c7be:	b9 e0 00 00 00       	mov    $0xe0,%ecx
    c7c3:	48 89 c7             	mov    %rax,%rdi
    c7c6:	48 89 d6             	mov    %rdx,%rsi
    c7c9:	f3 48 a5             	rep movsq %ds:(%rsi),%es:(%rdi)
    c7cc:	48 8d 05 5d c2 00 00 	lea    0xc25d(%rip),%rax        # 18a30 <g_2412>
    c7d3:	48 89 85 d0 ed ff ff 	mov    %rax,-0x1230(%rbp)
    c7da:	48 8b 85 d0 ed ff ff 	mov    -0x1230(%rbp),%rax
    c7e1:	48 8b 95 a0 ed ff ff 	mov    -0x1260(%rbp),%rdx
    c7e8:	48 89 10             	mov    %rdx,(%rax)
    c7eb:	48 8b 85 d0 ec ff ff 	mov    -0x1330(%rbp),%rax
    c7f2:	e9 3c 02 00 00       	jmpq   ca33 <func_22+0x1a63>
    c7f7:	8b 05 53 89 00 00    	mov    0x8953(%rip),%eax        # 15150 <g_401>
    c7fd:	0f b7 c0             	movzwl %ax,%eax
    c800:	be 09 00 00 00       	mov    $0x9,%esi
    c805:	89 c7                	mov    %eax,%edi
    c807:	e8 f3 d4 ff ff       	callq  9cff <safe_add_func_uint16_t_u_u>
    c80c:	0f b7 c0             	movzwl %ax,%eax
    c80f:	89 05 3b 89 00 00    	mov    %eax,0x893b(%rip)        # 15150 <g_401>
    c815:	8b 05 35 89 00 00    	mov    0x8935(%rip),%eax        # 15150 <g_401>
    c81b:	83 f8 1b             	cmp    $0x1b,%eax
    c81e:	0f 85 f7 f9 ff ff    	jne    c21b <func_22+0x124b>
    c824:	48 83 bd 78 ed ff ff 	cmpq   $0x0,-0x1288(%rbp)
    c82b:	00 
    c82c:	0f 85 c7 01 00 00    	jne    c9f9 <func_22+0x1a29>
    c832:	66 83 ad fc ec ff ff 	subw   $0x1,-0x1304(%rbp)
    c839:	01 
    c83a:	eb 3a                	jmp    c876 <func_22+0x18a6>
    c83c:	48 8b 05 b5 b7 00 00 	mov    0xb7b5(%rip),%rax        # 17ff8 <g_1863>
    c843:	48 8b 18             	mov    (%rax),%rbx
    c846:	bf 00 00 00 00       	mov    $0x0,%edi
    c84b:	e8 07 02 00 00       	callq  ca57 <func_28>
    c850:	48 89 03             	mov    %rax,(%rbx)
    c853:	48 8b 85 50 ee ff ff 	mov    -0x11b0(%rbp),%rax
    c85a:	89 c2                	mov    %eax,%edx
    c85c:	48 8b 85 d0 ec ff ff 	mov    -0x1330(%rbp),%rax
    c863:	89 10                	mov    %edx,(%rax)
    c865:	48 8b 85 e8 ec ff ff 	mov    -0x1318(%rbp),%rax
    c86c:	8b 00                	mov    (%rax),%eax
    c86e:	85 c0                	test   %eax,%eax
    c870:	0f 85 86 01 00 00    	jne    c9fc <func_22+0x1a2c>
    c876:	48 8b 85 d0 ec ff ff 	mov    -0x1330(%rbp),%rax
    c87d:	8b 00                	mov    (%rax),%eax
    c87f:	85 c0                	test   %eax,%eax
    c881:	0f 85 9b 01 00 00    	jne    ca22 <func_22+0x1a52>
    c887:	0f b7 85 fa ec ff ff 	movzwl -0x1306(%rbp),%eax
    c88e:	0f b6 d8             	movzbl %al,%ebx
    c891:	c7 85 04 ed ff ff 00 	movl   $0x0,-0x12fc(%rbp)
    c898:	00 00 00 
    c89b:	4c 8b a5 80 ed ff ff 	mov    -0x1280(%rbp),%r12
    c8a2:	8b 85 28 ed ff ff    	mov    -0x12d8(%rbp),%eax
    c8a8:	44 0f be e8          	movsbl %al,%r13d
    c8ac:	0f b7 85 fa ec ff ff 	movzwl -0x1306(%rbp),%eax
    c8b3:	44 0f b6 f0          	movzbl %al,%r14d
    c8b7:	8b 85 84 f0 ff ff    	mov    -0xf7c(%rbp),%eax
    c8bd:	89 c6                	mov    %eax,%esi
    c8bf:	bf ff ff ff ff       	mov    $0xffffffff,%edi
    c8c4:	e8 ed cc ff ff       	callq  95b6 <safe_add_func_int32_t_s_s>
    c8c9:	48 8b 05 28 b7 00 00 	mov    0xb728(%rip),%rax        # 17ff8 <g_1863>
    c8d0:	48 8b 00             	mov    (%rax),%rax
    c8d3:	48 8b 00             	mov    (%rax),%rax
    c8d6:	8b 00                	mov    (%rax),%eax
    c8d8:	89 c6                	mov    %eax,%esi
    c8da:	bf 01 00 00 00       	mov    $0x1,%edi
    c8df:	e8 21 cd ff ff       	callq  9605 <safe_sub_func_int32_t_s_s>
    c8e4:	be 01 00 00 00       	mov    $0x1,%esi
    c8e9:	bf 01 00 00 00       	mov    $0x1,%edi
    c8ee:	e8 ae c9 ff ff       	callq  92a1 <safe_lshift_func_int8_t_s_s>
    c8f3:	38 85 dc ec ff ff    	cmp    %al,-0x1324(%rbp)
    c8f9:	0f 94 c0             	sete   %al
    c8fc:	22 85 dc ec ff ff    	and    -0x1324(%rbp),%al
    c902:	0f b6 c0             	movzbl %al,%eax
    c905:	44 89 f6             	mov    %r14d,%esi
    c908:	89 c7                	mov    %eax,%edi
    c90a:	e8 69 d2 ff ff       	callq  9b78 <safe_sub_func_uint8_t_u_u>
    c90f:	84 c0                	test   %al,%al
    c911:	75 16                	jne    c929 <func_22+0x1959>
    c913:	48 8b 05 ae bb 00 00 	mov    0xbbae(%rip),%rax        # 184c8 <g_2449>
    c91a:	48 8b 00             	mov    (%rax),%rax
    c91d:	48 8b 00             	mov    (%rax),%rax
    c920:	48 8b 00             	mov    (%rax),%rax
    c923:	8b 00                	mov    (%rax),%eax
    c925:	85 c0                	test   %eax,%eax
    c927:	74 07                	je     c930 <func_22+0x1960>
    c929:	b8 01 00 00 00       	mov    $0x1,%eax
    c92e:	eb 05                	jmp    c935 <func_22+0x1965>
    c930:	b8 00 00 00 00       	mov    $0x0,%eax
    c935:	08 85 e0 ec ff ff    	or     %al,-0x1320(%rbp)
    c93b:	0f be 85 e0 ec ff ff 	movsbl -0x1320(%rbp),%eax
    c942:	44 89 ee             	mov    %r13d,%esi
    c945:	89 c7                	mov    %eax,%edi
    c947:	e8 1e c9 ff ff       	callq  926a <safe_div_func_int8_t_s_s>
    c94c:	8b 95 84 f0 ff ff    	mov    -0xf7c(%rbp),%edx
    c952:	8b 85 08 ee ff ff    	mov    -0x11f8(%rbp),%eax
    c958:	31 d0                	xor    %edx,%eax
    c95a:	89 85 08 ee ff ff    	mov    %eax,-0x11f8(%rbp)
    c960:	48 8b 05 91 b6 00 00 	mov    0xb691(%rip),%rax        # 17ff8 <g_1863>
    c967:	48 8b 00             	mov    (%rax),%rax
    c96a:	48 8b 00             	mov    (%rax),%rax
    c96d:	8b 95 08 ee ff ff    	mov    -0x11f8(%rbp),%edx
    c973:	89 10                	mov    %edx,(%rax)
    c975:	8b 10                	mov    (%rax),%edx
    c977:	0f be 8d dc ec ff ff 	movsbl -0x1324(%rbp),%ecx
    c97e:	48 8b 05 8b 9f 00 00 	mov    0x9f8b(%rip),%rax        # 16910 <g_243>
    c985:	8b 30                	mov    (%rax),%esi
    c987:	83 c6 01             	add    $0x1,%esi
    c98a:	89 30                	mov    %esi,(%rax)
    c98c:	8b 00                	mov    (%rax),%eax
    c98e:	39 c1                	cmp    %eax,%ecx
    c990:	0f 96 c0             	setbe  %al
    c993:	0f b6 c0             	movzbl %al,%eax
    c996:	89 d6                	mov    %edx,%esi
    c998:	89 c7                	mov    %eax,%edi
    c99a:	e8 2d cd ff ff       	callq  96cc <safe_mod_func_int32_t_s_s>
    c99f:	98                   	cwtl   
    c9a0:	be 0a 00 00 00       	mov    $0xa,%esi
    c9a5:	89 c7                	mov    %eax,%edi
    c9a7:	e8 b7 cb ff ff       	callq  9563 <safe_rshift_func_int16_t_s_u>
    c9ac:	be f9 ff ff ff       	mov    $0xfffffff9,%esi
    c9b1:	bf 01 00 00 00       	mov    $0x1,%edi
    c9b6:	e8 4a cc ff ff       	callq  9605 <safe_sub_func_int32_t_s_s>
    c9bb:	48 98                	cltq   
    c9bd:	4c 89 e6             	mov    %r12,%rsi
    c9c0:	48 89 c7             	mov    %rax,%rdi
    c9c3:	e8 83 d6 ff ff       	callq  a04b <safe_sub_func_uint64_t_u_u>
    c9c8:	be 01 00 00 00       	mov    $0x1,%esi
    c9cd:	89 c7                	mov    %eax,%edi
    c9cf:	e8 e4 d4 ff ff       	callq  9eb8 <safe_add_func_uint32_t_u_u>
    c9d4:	0f b6 c0             	movzbl %al,%eax
    c9d7:	89 de                	mov    %ebx,%esi
    c9d9:	89 c7                	mov    %eax,%edi
    c9db:	e8 b3 d1 ff ff       	callq  9b93 <safe_mul_func_uint8_t_u_u>
    c9e0:	48 8b 15 89 ad 00 00 	mov    0xad89(%rip),%rdx        # 17770 <g_1412>
    c9e7:	8b 0a                	mov    (%rdx),%ecx
    c9e9:	0f b6 d0             	movzbl %al,%edx
    c9ec:	48 8b 05 7d ad 00 00 	mov    0xad7d(%rip),%rax        # 17770 <g_1412>
    c9f3:	21 ca                	and    %ecx,%edx
    c9f5:	89 10                	mov    %edx,(%rax)
    c9f7:	eb 04                	jmp    c9fd <func_22+0x1a2d>
    c9f9:	90                   	nop
    c9fa:	eb 01                	jmp    c9fd <func_22+0x1a2d>
    c9fc:	90                   	nop
    c9fd:	48 8b 05 3c 86 00 00 	mov    0x863c(%rip),%rax        # 15040 <g_118>
    ca04:	48 83 c0 01          	add    $0x1,%rax
    ca08:	48 89 05 31 86 00 00 	mov    %rax,0x8631(%rip)        # 15040 <g_118>
    ca0f:	48 8b 05 2a 86 00 00 	mov    0x862a(%rip),%rax        # 15040 <g_118>
    ca16:	48 83 f8 19          	cmp    $0x19,%rax
    ca1a:	0f 8e 35 e8 ff ff    	jle    b255 <func_22+0x285>
    ca20:	eb 01                	jmp    ca23 <func_22+0x1a53>
    ca22:	90                   	nop
    ca23:	48 8b 05 9e ba 00 00 	mov    0xba9e(%rip),%rax        # 184c8 <g_2449>
    ca2a:	48 8b 00             	mov    (%rax),%rax
    ca2d:	48 8b 00             	mov    (%rax),%rax
    ca30:	48 8b 00             	mov    (%rax),%rax
    ca33:	48 8b 5d d8          	mov    -0x28(%rbp),%rbx
    ca37:	64 48 33 1c 25 28 00 	xor    %fs:0x28,%rbx
    ca3e:	00 00 
    ca40:	74 05                	je     ca47 <func_22+0x1a77>
    ca42:	e8 29 c6 ff ff       	callq  9070 <__stack_chk_fail@plt>
    ca47:	48 81 c4 10 13 00 00 	add    $0x1310,%rsp
    ca4e:	5b                   	pop    %rbx
    ca4f:	41 5c                	pop    %r12
    ca51:	41 5d                	pop    %r13
    ca53:	41 5e                	pop    %r14
    ca55:	5d                   	pop    %rbp
    ca56:	c3                   	retq   

000000000000ca57 <func_28>:
    ca57:	f3 0f 1e fa          	endbr64 
    ca5b:	55                   	push   %rbp
    ca5c:	48 89 e5             	mov    %rsp,%rbp
    ca5f:	41 57                	push   %r15
    ca61:	41 56                	push   %r14
    ca63:	41 55                	push   %r13
    ca65:	41 54                	push   %r12
    ca67:	53                   	push   %rbx
    ca68:	48 81 ec 00 10 00 00 	sub    $0x1000,%rsp
    ca6f:	48 83 0c 24 00       	orq    $0x0,(%rsp)
    ca74:	48 81 ec 58 01 00 00 	sub    $0x158,%rsp
    ca7b:	89 f8                	mov    %edi,%eax
    ca7d:	66 89 85 8c ee ff ff 	mov    %ax,-0x1174(%rbp)
    ca84:	64 48 8b 04 25 28 00 	mov    %fs:0x28,%rax
    ca8b:	00 00 
    ca8d:	48 89 45 c8          	mov    %rax,-0x38(%rbp)
    ca91:	31 c0                	xor    %eax,%eax
    ca93:	c6 85 92 ee ff ff 8e 	movb   $0x8e,-0x116e(%rbp)
    ca9a:	c7 85 9c ee ff ff ff 	movl   $0xffffffff,-0x1164(%rbp)
    caa1:	ff ff ff 
    caa4:	48 8d 85 90 f2 ff ff 	lea    -0xd70(%rbp),%rax
    caab:	48 8d 15 2e 91 00 00 	lea    0x912e(%rip),%rdx        # 15be0 <g_2768+0x960>
    cab2:	b9 b4 00 00 00       	mov    $0xb4,%ecx
    cab7:	48 89 c7             	mov    %rax,%rdi
    caba:	48 89 d6             	mov    %rdx,%rsi
    cabd:	f3 48 a5             	rep movsq %ds:(%rsi),%es:(%rdi)
    cac0:	c7 85 a0 ee ff ff e9 	movl   $0x50a538e9,-0x1160(%rbp)
    cac7:	38 a5 50 
    caca:	c7 85 a4 ee ff ff 01 	movl   $0x1,-0x115c(%rbp)
    cad1:	00 00 00 
    cad4:	c7 85 a8 ee ff ff 07 	movl   $0x7,-0x1158(%rbp)
    cadb:	00 00 00 
    cade:	48 c7 85 d0 ee ff ff 	movq   $0x0,-0x1130(%rbp)
    cae5:	00 00 00 00 
    cae9:	48 8d 85 d0 ee ff ff 	lea    -0x1130(%rbp),%rax
    caf0:	48 89 85 00 ef ff ff 	mov    %rax,-0x1100(%rbp)
    caf7:	48 8d 85 a8 ee ff ff 	lea    -0x1158(%rbp),%rax
    cafe:	48 89 85 08 ef ff ff 	mov    %rax,-0x10f8(%rbp)
    cb05:	c7 85 ac ee ff ff f6 	movl   $0xe3aa4f6,-0x1154(%rbp)
    cb0c:	a4 3a 0e 
    cb0f:	48 8d 05 0e 85 00 00 	lea    0x850e(%rip),%rax        # 15024 <g_39>
    cb16:	48 89 85 10 ef ff ff 	mov    %rax,-0x10f0(%rbp)
    cb1d:	48 c7 85 d8 ee ff ff 	movq   $0x0,-0x1128(%rbp)
    cb24:	00 00 00 00 
    cb28:	48 8d 85 d8 ee ff ff 	lea    -0x1128(%rbp),%rax
    cb2f:	48 89 85 18 ef ff ff 	mov    %rax,-0x10e8(%rbp)
    cb36:	48 8d 05 27 85 00 00 	lea    0x8527(%rip),%rax        # 15064 <g_207>
    cb3d:	48 89 85 20 ef ff ff 	mov    %rax,-0x10e0(%rbp)
    cb44:	48 8d 05 fd 84 00 00 	lea    0x84fd(%rip),%rax        # 15048 <g_150>
    cb4b:	48 89 85 e0 ee ff ff 	mov    %rax,-0x1120(%rbp)
    cb52:	48 8d 85 e0 ee ff ff 	lea    -0x1120(%rbp),%rax
    cb59:	48 89 85 28 ef ff ff 	mov    %rax,-0x10d8(%rbp)
    cb60:	c6 85 93 ee ff ff e1 	movb   $0xe1,-0x116d(%rbp)
    cb67:	c7 85 b0 ee ff ff 46 	movl   $0x5a077f46,-0x1150(%rbp)
    cb6e:	7f 07 5a 
    cb71:	48 c7 85 30 ef ff ff 	movq   $0x0,-0x10d0(%rbp)
    cb78:	00 00 00 00 
    cb7c:	c6 85 94 ee ff ff c1 	movb   $0xc1,-0x116c(%rbp)
    cb83:	48 8d 85 ac ee ff ff 	lea    -0x1154(%rbp),%rax
    cb8a:	48 89 85 e8 ee ff ff 	mov    %rax,-0x1118(%rbp)
    cb91:	48 8d 85 e8 ee ff ff 	lea    -0x1118(%rbp),%rax
    cb98:	48 89 85 70 f1 ff ff 	mov    %rax,-0xe90(%rbp)
    cb9f:	48 8d 85 e8 ee ff ff 	lea    -0x1118(%rbp),%rax
    cba6:	48 89 85 78 f1 ff ff 	mov    %rax,-0xe88(%rbp)
    cbad:	48 8d 85 e8 ee ff ff 	lea    -0x1118(%rbp),%rax
    cbb4:	48 89 85 80 f1 ff ff 	mov    %rax,-0xe80(%rbp)
    cbbb:	48 8d 85 e8 ee ff ff 	lea    -0x1118(%rbp),%rax
    cbc2:	48 89 85 88 f1 ff ff 	mov    %rax,-0xe78(%rbp)
    cbc9:	48 8d 85 e8 ee ff ff 	lea    -0x1118(%rbp),%rax
    cbd0:	48 89 85 90 f1 ff ff 	mov    %rax,-0xe70(%rbp)
    cbd7:	48 8d 85 e8 ee ff ff 	lea    -0x1118(%rbp),%rax
    cbde:	48 89 85 98 f1 ff ff 	mov    %rax,-0xe68(%rbp)
    cbe5:	48 c7 85 a0 f1 ff ff 	movq   $0x0,-0xe60(%rbp)
    cbec:	00 00 00 00 
    cbf0:	48 c7 85 a8 f1 ff ff 	movq   $0x0,-0xe58(%rbp)
    cbf7:	00 00 00 00 
    cbfb:	48 8d 85 e8 ee ff ff 	lea    -0x1118(%rbp),%rax
    cc02:	48 89 85 b0 f1 ff ff 	mov    %rax,-0xe50(%rbp)
    cc09:	48 8d 85 e8 ee ff ff 	lea    -0x1118(%rbp),%rax
    cc10:	48 89 85 b8 f1 ff ff 	mov    %rax,-0xe48(%rbp)
    cc17:	48 8d 85 e8 ee ff ff 	lea    -0x1118(%rbp),%rax
    cc1e:	48 89 85 c0 f1 ff ff 	mov    %rax,-0xe40(%rbp)
    cc25:	48 8d 85 e8 ee ff ff 	lea    -0x1118(%rbp),%rax
    cc2c:	48 89 85 c8 f1 ff ff 	mov    %rax,-0xe38(%rbp)
    cc33:	48 8d 85 e8 ee ff ff 	lea    -0x1118(%rbp),%rax
    cc3a:	48 89 85 d0 f1 ff ff 	mov    %rax,-0xe30(%rbp)
    cc41:	48 8d 85 e8 ee ff ff 	lea    -0x1118(%rbp),%rax
    cc48:	48 89 85 d8 f1 ff ff 	mov    %rax,-0xe28(%rbp)
    cc4f:	48 8d 85 e8 ee ff ff 	lea    -0x1118(%rbp),%rax
    cc56:	48 89 85 e0 f1 ff ff 	mov    %rax,-0xe20(%rbp)
    cc5d:	48 8d 85 e8 ee ff ff 	lea    -0x1118(%rbp),%rax
    cc64:	48 89 85 e8 f1 ff ff 	mov    %rax,-0xe18(%rbp)
    cc6b:	48 8d 85 e8 ee ff ff 	lea    -0x1118(%rbp),%rax
    cc72:	48 89 85 f0 f1 ff ff 	mov    %rax,-0xe10(%rbp)
    cc79:	48 8d 85 e8 ee ff ff 	lea    -0x1118(%rbp),%rax
    cc80:	48 89 85 f8 f1 ff ff 	mov    %rax,-0xe08(%rbp)
    cc87:	48 8d 85 e8 ee ff ff 	lea    -0x1118(%rbp),%rax
    cc8e:	48 89 85 00 f2 ff ff 	mov    %rax,-0xe00(%rbp)
    cc95:	48 8d 85 e8 ee ff ff 	lea    -0x1118(%rbp),%rax
    cc9c:	48 89 85 08 f2 ff ff 	mov    %rax,-0xdf8(%rbp)
    cca3:	48 8d 85 e8 ee ff ff 	lea    -0x1118(%rbp),%rax
    ccaa:	48 89 85 10 f2 ff ff 	mov    %rax,-0xdf0(%rbp)
    ccb1:	48 8d 85 e8 ee ff ff 	lea    -0x1118(%rbp),%rax
    ccb8:	48 89 85 18 f2 ff ff 	mov    %rax,-0xde8(%rbp)
    ccbf:	48 8d 85 e8 ee ff ff 	lea    -0x1118(%rbp),%rax
    ccc6:	48 89 85 20 f2 ff ff 	mov    %rax,-0xde0(%rbp)
    cccd:	48 8d 85 e8 ee ff ff 	lea    -0x1118(%rbp),%rax
    ccd4:	48 89 85 28 f2 ff ff 	mov    %rax,-0xdd8(%rbp)
    ccdb:	48 c7 85 30 f2 ff ff 	movq   $0x0,-0xdd0(%rbp)
    cce2:	00 00 00 00 
    cce6:	48 c7 85 38 f2 ff ff 	movq   $0x0,-0xdc8(%rbp)
    cced:	00 00 00 00 
    ccf1:	48 8d 85 e8 ee ff ff 	lea    -0x1118(%rbp),%rax
    ccf8:	48 89 85 40 f2 ff ff 	mov    %rax,-0xdc0(%rbp)
    ccff:	48 8d 85 e8 ee ff ff 	lea    -0x1118(%rbp),%rax
    cd06:	48 89 85 48 f2 ff ff 	mov    %rax,-0xdb8(%rbp)
    cd0d:	48 8d 85 e8 ee ff ff 	lea    -0x1118(%rbp),%rax
    cd14:	48 89 85 50 f2 ff ff 	mov    %rax,-0xdb0(%rbp)
    cd1b:	48 8d 85 e8 ee ff ff 	lea    -0x1118(%rbp),%rax
    cd22:	48 89 85 58 f2 ff ff 	mov    %rax,-0xda8(%rbp)
    cd29:	48 8d 85 e8 ee ff ff 	lea    -0x1118(%rbp),%rax
    cd30:	48 89 85 60 f2 ff ff 	mov    %rax,-0xda0(%rbp)
    cd37:	48 8d 85 e8 ee ff ff 	lea    -0x1118(%rbp),%rax
    cd3e:	48 89 85 68 f2 ff ff 	mov    %rax,-0xd98(%rbp)
    cd45:	48 8d 85 e8 ee ff ff 	lea    -0x1118(%rbp),%rax
    cd4c:	48 89 85 70 f2 ff ff 	mov    %rax,-0xd90(%rbp)
    cd53:	48 8d 85 e8 ee ff ff 	lea    -0x1118(%rbp),%rax
    cd5a:	48 89 85 78 f2 ff ff 	mov    %rax,-0xd88(%rbp)
    cd61:	48 8d 85 e8 ee ff ff 	lea    -0x1118(%rbp),%rax
    cd68:	48 89 85 80 f2 ff ff 	mov    %rax,-0xd80(%rbp)
    cd6f:	48 8d 85 e8 ee ff ff 	lea    -0x1118(%rbp),%rax
    cd76:	48 89 85 88 f2 ff ff 	mov    %rax,-0xd78(%rbp)
    cd7d:	48 c7 85 f0 ee ff ff 	movq   $0x0,-0x1110(%rbp)
    cd84:	00 00 00 00 
    cd88:	48 8d 85 f0 ee ff ff 	lea    -0x1110(%rbp),%rax
    cd8f:	48 89 85 38 ef ff ff 	mov    %rax,-0x10c8(%rbp)
    cd96:	66 c7 85 96 ee ff ff 	movw   $0x4d46,-0x116a(%rbp)
    cd9d:	46 4d 
    cd9f:	48 8d 05 42 a6 00 00 	lea    0xa642(%rip),%rax        # 173e8 <g_432>
    cda6:	48 89 85 f8 ee ff ff 	mov    %rax,-0x1108(%rbp)
    cdad:	48 8d 85 f8 ee ff ff 	lea    -0x1108(%rbp),%rax
    cdb4:	48 89 85 40 ef ff ff 	mov    %rax,-0x10c0(%rbp)
    cdbb:	48 8d 85 9c ee ff ff 	lea    -0x1164(%rbp),%rax
    cdc2:	48 89 85 48 ef ff ff 	mov    %rax,-0x10b8(%rbp)
    cdc9:	48 8d 05 68 82 00 00 	lea    0x8268(%rip),%rax        # 15038 <g_116>
    cdd0:	48 89 85 30 f8 ff ff 	mov    %rax,-0x7d0(%rbp)
    cdd7:	48 8d 05 66 83 00 00 	lea    0x8366(%rip),%rax        # 15144 <g_373>
    cdde:	48 89 85 38 f8 ff ff 	mov    %rax,-0x7c8(%rbp)
    cde5:	48 8d 05 74 82 00 00 	lea    0x8274(%rip),%rax        # 15060 <g_188>
    cdec:	48 89 85 40 f8 ff ff 	mov    %rax,-0x7c0(%rbp)
    cdf3:	48 8d 85 a4 ee ff ff 	lea    -0x115c(%rbp),%rax
    cdfa:	48 89 85 48 f8 ff ff 	mov    %rax,-0x7b8(%rbp)
    ce01:	48 c7 85 50 f8 ff ff 	movq   $0x0,-0x7b0(%rbp)
    ce08:	00 00 00 00 
    ce0c:	48 8d 85 a8 ee ff ff 	lea    -0x1158(%rbp),%rax
    ce13:	48 89 85 58 f8 ff ff 	mov    %rax,-0x7a8(%rbp)
    ce1a:	48 8d 85 a0 ee ff ff 	lea    -0x1160(%rbp),%rax
    ce21:	48 89 85 60 f8 ff ff 	mov    %rax,-0x7a0(%rbp)
    ce28:	48 c7 85 68 f8 ff ff 	movq   $0x0,-0x798(%rbp)
    ce2f:	00 00 00 00 
    ce33:	48 8d 05 0a 83 00 00 	lea    0x830a(%rip),%rax        # 15144 <g_373>
    ce3a:	48 89 85 70 f8 ff ff 	mov    %rax,-0x790(%rbp)
    ce41:	48 8d 85 a4 ee ff ff 	lea    -0x115c(%rbp),%rax
    ce48:	48 89 85 78 f8 ff ff 	mov    %rax,-0x788(%rbp)
    ce4f:	48 8d 05 ee 82 00 00 	lea    0x82ee(%rip),%rax        # 15144 <g_373>
    ce56:	48 89 85 80 f8 ff ff 	mov    %rax,-0x780(%rbp)
    ce5d:	48 8d 05 c0 81 00 00 	lea    0x81c0(%rip),%rax        # 15024 <g_39>
    ce64:	48 89 85 88 f8 ff ff 	mov    %rax,-0x778(%rbp)
    ce6b:	48 8d 05 c6 81 00 00 	lea    0x81c6(%rip),%rax        # 15038 <g_116>
    ce72:	48 89 85 90 f8 ff ff 	mov    %rax,-0x770(%rbp)
    ce79:	48 8d 05 b8 81 00 00 	lea    0x81b8(%rip),%rax        # 15038 <g_116>
    ce80:	48 89 85 98 f8 ff ff 	mov    %rax,-0x768(%rbp)
    ce87:	48 c7 85 a0 f8 ff ff 	movq   $0x0,-0x760(%rbp)
    ce8e:	00 00 00 00 
    ce92:	48 8d 85 a8 ee ff ff 	lea    -0x1158(%rbp),%rax
    ce99:	48 89 85 a8 f8 ff ff 	mov    %rax,-0x758(%rbp)
    cea0:	48 8d 85 b0 ee ff ff 	lea    -0x1150(%rbp),%rax
    cea7:	48 89 85 b0 f8 ff ff 	mov    %rax,-0x750(%rbp)
    ceae:	48 8d 05 8f 82 00 00 	lea    0x828f(%rip),%rax        # 15144 <g_373>
    ceb5:	48 89 85 b8 f8 ff ff 	mov    %rax,-0x748(%rbp)
    cebc:	48 8d 85 a8 ee ff ff 	lea    -0x1158(%rbp),%rax
    cec3:	48 89 85 c0 f8 ff ff 	mov    %rax,-0x740(%rbp)
    ceca:	48 8d 85 9c ee ff ff 	lea    -0x1164(%rbp),%rax
    ced1:	48 89 85 c8 f8 ff ff 	mov    %rax,-0x738(%rbp)
    ced8:	48 8d 05 65 82 00 00 	lea    0x8265(%rip),%rax        # 15144 <g_373>
    cedf:	48 89 85 d0 f8 ff ff 	mov    %rax,-0x730(%rbp)
    cee6:	48 8d 05 73 81 00 00 	lea    0x8173(%rip),%rax        # 15060 <g_188>
    ceed:	48 89 85 d8 f8 ff ff 	mov    %rax,-0x728(%rbp)
    cef4:	48 8d 05 3d 81 00 00 	lea    0x813d(%rip),%rax        # 15038 <g_116>
    cefb:	48 89 85 e0 f8 ff ff 	mov    %rax,-0x720(%rbp)
    cf02:	48 c7 85 e8 f8 ff ff 	movq   $0x0,-0x718(%rbp)
    cf09:	00 00 00 00 
    cf0d:	48 8d 05 4c 81 00 00 	lea    0x814c(%rip),%rax        # 15060 <g_188>
    cf14:	48 89 85 f0 f8 ff ff 	mov    %rax,-0x710(%rbp)
    cf1b:	48 8d 85 9c ee ff ff 	lea    -0x1164(%rbp),%rax
    cf22:	48 89 85 f8 f8 ff ff 	mov    %rax,-0x708(%rbp)
    cf29:	48 8d 05 30 81 00 00 	lea    0x8130(%rip),%rax        # 15060 <g_188>
    cf30:	48 89 85 00 f9 ff ff 	mov    %rax,-0x700(%rbp)
    cf37:	48 8d 85 b0 ee ff ff 	lea    -0x1150(%rbp),%rax
    cf3e:	48 89 85 08 f9 ff ff 	mov    %rax,-0x6f8(%rbp)
    cf45:	48 8d 85 b0 ee ff ff 	lea    -0x1150(%rbp),%rax
    cf4c:	48 89 85 10 f9 ff ff 	mov    %rax,-0x6f0(%rbp)
    cf53:	48 8d 85 a8 ee ff ff 	lea    -0x1158(%rbp),%rax
    cf5a:	48 89 85 18 f9 ff ff 	mov    %rax,-0x6e8(%rbp)
    cf61:	48 8d 85 a0 ee ff ff 	lea    -0x1160(%rbp),%rax
    cf68:	48 89 85 20 f9 ff ff 	mov    %rax,-0x6e0(%rbp)
    cf6f:	48 8d 05 c2 80 00 00 	lea    0x80c2(%rip),%rax        # 15038 <g_116>
    cf76:	48 89 85 28 f9 ff ff 	mov    %rax,-0x6d8(%rbp)
    cf7d:	48 8d 85 a8 ee ff ff 	lea    -0x1158(%rbp),%rax
    cf84:	48 89 85 30 f9 ff ff 	mov    %rax,-0x6d0(%rbp)
    cf8b:	48 c7 85 38 f9 ff ff 	movq   $0x0,-0x6c8(%rbp)
    cf92:	00 00 00 00 
    cf96:	48 8d 05 a7 81 00 00 	lea    0x81a7(%rip),%rax        # 15144 <g_373>
    cf9d:	48 89 85 40 f9 ff ff 	mov    %rax,-0x6c0(%rbp)
    cfa4:	48 8d 05 b5 80 00 00 	lea    0x80b5(%rip),%rax        # 15060 <g_188>
    cfab:	48 89 85 48 f9 ff ff 	mov    %rax,-0x6b8(%rbp)
    cfb2:	48 8d 05 a7 80 00 00 	lea    0x80a7(%rip),%rax        # 15060 <g_188>
    cfb9:	48 89 85 50 f9 ff ff 	mov    %rax,-0x6b0(%rbp)
    cfc0:	48 c7 85 58 f9 ff ff 	movq   $0x0,-0x6a8(%rbp)
    cfc7:	00 00 00 00 
    cfcb:	48 c7 85 60 f9 ff ff 	movq   $0x0,-0x6a0(%rbp)
    cfd2:	00 00 00 00 
    cfd6:	48 8d 05 47 80 00 00 	lea    0x8047(%rip),%rax        # 15024 <g_39>
    cfdd:	48 89 85 68 f9 ff ff 	mov    %rax,-0x698(%rbp)
    cfe4:	48 c7 85 70 f9 ff ff 	movq   $0x0,-0x690(%rbp)
    cfeb:	00 00 00 00 
    cfef:	48 8d 05 6a 80 00 00 	lea    0x806a(%rip),%rax        # 15060 <g_188>
    cff6:	48 89 85 78 f9 ff ff 	mov    %rax,-0x688(%rbp)
    cffd:	48 8d 85 a8 ee ff ff 	lea    -0x1158(%rbp),%rax
    d004:	48 89 85 80 f9 ff ff 	mov    %rax,-0x680(%rbp)
    d00b:	48 8d 05 32 81 00 00 	lea    0x8132(%rip),%rax        # 15144 <g_373>
    d012:	48 89 85 88 f9 ff ff 	mov    %rax,-0x678(%rbp)
    d019:	48 8d 85 a8 ee ff ff 	lea    -0x1158(%rbp),%rax
    d020:	48 89 85 90 f9 ff ff 	mov    %rax,-0x670(%rbp)
    d027:	48 8d 05 0a 80 00 00 	lea    0x800a(%rip),%rax        # 15038 <g_116>
    d02e:	48 89 85 98 f9 ff ff 	mov    %rax,-0x668(%rbp)
    d035:	48 8d 05 fc 7f 00 00 	lea    0x7ffc(%rip),%rax        # 15038 <g_116>
    d03c:	48 89 85 a0 f9 ff ff 	mov    %rax,-0x660(%rbp)
    d043:	48 8d 85 a8 ee ff ff 	lea    -0x1158(%rbp),%rax
    d04a:	48 89 85 a8 f9 ff ff 	mov    %rax,-0x658(%rbp)
    d051:	48 8d 05 e0 7f 00 00 	lea    0x7fe0(%rip),%rax        # 15038 <g_116>
    d058:	48 89 85 b0 f9 ff ff 	mov    %rax,-0x650(%rbp)
    d05f:	48 8d 05 be 7f 00 00 	lea    0x7fbe(%rip),%rax        # 15024 <g_39>
    d066:	48 89 85 b8 f9 ff ff 	mov    %rax,-0x648(%rbp)
    d06d:	48 8d 05 ec 7f 00 00 	lea    0x7fec(%rip),%rax        # 15060 <g_188>
    d074:	48 89 85 c0 f9 ff ff 	mov    %rax,-0x640(%rbp)
    d07b:	48 8d 05 a2 7f 00 00 	lea    0x7fa2(%rip),%rax        # 15024 <g_39>
    d082:	48 89 85 c8 f9 ff ff 	mov    %rax,-0x638(%rbp)
    d089:	48 c7 85 d0 f9 ff ff 	movq   $0x0,-0x630(%rbp)
    d090:	00 00 00 00 
    d094:	48 c7 85 d8 f9 ff ff 	movq   $0x0,-0x628(%rbp)
    d09b:	00 00 00 00 
    d09f:	48 8d 85 a0 ee ff ff 	lea    -0x1160(%rbp),%rax
    d0a6:	48 89 85 e0 f9 ff ff 	mov    %rax,-0x620(%rbp)
    d0ad:	48 8d 05 84 7f 00 00 	lea    0x7f84(%rip),%rax        # 15038 <g_116>
    d0b4:	48 89 85 e8 f9 ff ff 	mov    %rax,-0x618(%rbp)
    d0bb:	48 8d 05 82 80 00 00 	lea    0x8082(%rip),%rax        # 15144 <g_373>
    d0c2:	48 89 85 f0 f9 ff ff 	mov    %rax,-0x610(%rbp)
    d0c9:	48 8d 05 54 7f 00 00 	lea    0x7f54(%rip),%rax        # 15024 <g_39>
    d0d0:	48 89 85 f8 f9 ff ff 	mov    %rax,-0x608(%rbp)
    d0d7:	48 8d 05 66 80 00 00 	lea    0x8066(%rip),%rax        # 15144 <g_373>
    d0de:	48 89 85 00 fa ff ff 	mov    %rax,-0x600(%rbp)
    d0e5:	48 8d 05 58 80 00 00 	lea    0x8058(%rip),%rax        # 15144 <g_373>
    d0ec:	48 89 85 08 fa ff ff 	mov    %rax,-0x5f8(%rbp)
    d0f3:	48 8d 05 3e 7f 00 00 	lea    0x7f3e(%rip),%rax        # 15038 <g_116>
    d0fa:	48 89 85 10 fa ff ff 	mov    %rax,-0x5f0(%rbp)
    d101:	48 8d 05 1c 7f 00 00 	lea    0x7f1c(%rip),%rax        # 15024 <g_39>
    d108:	48 89 85 18 fa ff ff 	mov    %rax,-0x5e8(%rbp)
    d10f:	48 c7 85 20 fa ff ff 	movq   $0x0,-0x5e0(%rbp)
    d116:	00 00 00 00 
    d11a:	48 8d 05 17 7f 00 00 	lea    0x7f17(%rip),%rax        # 15038 <g_116>
    d121:	48 89 85 28 fa ff ff 	mov    %rax,-0x5d8(%rbp)
    d128:	48 8d 85 b0 ee ff ff 	lea    -0x1150(%rbp),%rax
    d12f:	48 89 85 30 fa ff ff 	mov    %rax,-0x5d0(%rbp)
    d136:	48 8d 05 e7 7e 00 00 	lea    0x7ee7(%rip),%rax        # 15024 <g_39>
    d13d:	48 89 85 38 fa ff ff 	mov    %rax,-0x5c8(%rbp)
    d144:	48 8d 85 a8 ee ff ff 	lea    -0x1158(%rbp),%rax
    d14b:	48 89 85 40 fa ff ff 	mov    %rax,-0x5c0(%rbp)
    d152:	48 8d 85 b0 ee ff ff 	lea    -0x1150(%rbp),%rax
    d159:	48 89 85 48 fa ff ff 	mov    %rax,-0x5b8(%rbp)
    d160:	48 8d 05 dd 7f 00 00 	lea    0x7fdd(%rip),%rax        # 15144 <g_373>
    d167:	48 89 85 50 fa ff ff 	mov    %rax,-0x5b0(%rbp)
    d16e:	48 8d 05 af 7e 00 00 	lea    0x7eaf(%rip),%rax        # 15024 <g_39>
    d175:	48 89 85 58 fa ff ff 	mov    %rax,-0x5a8(%rbp)
    d17c:	48 8d 05 b5 7e 00 00 	lea    0x7eb5(%rip),%rax        # 15038 <g_116>
    d183:	48 89 85 60 fa ff ff 	mov    %rax,-0x5a0(%rbp)
    d18a:	48 8d 85 a8 ee ff ff 	lea    -0x1158(%rbp),%rax
    d191:	48 89 85 68 fa ff ff 	mov    %rax,-0x598(%rbp)
    d198:	48 8d 05 c1 7e 00 00 	lea    0x7ec1(%rip),%rax        # 15060 <g_188>
    d19f:	48 89 85 70 fa ff ff 	mov    %rax,-0x590(%rbp)
    d1a6:	48 8d 85 b0 ee ff ff 	lea    -0x1150(%rbp),%rax
    d1ad:	48 89 85 78 fa ff ff 	mov    %rax,-0x588(%rbp)
    d1b4:	48 8d 05 a5 7e 00 00 	lea    0x7ea5(%rip),%rax        # 15060 <g_188>
    d1bb:	48 89 85 80 fa ff ff 	mov    %rax,-0x580(%rbp)
    d1c2:	48 c7 85 88 fa ff ff 	movq   $0x0,-0x578(%rbp)
    d1c9:	00 00 00 00 
    d1cd:	48 8d 85 b0 ee ff ff 	lea    -0x1150(%rbp),%rax
    d1d4:	48 89 85 90 fa ff ff 	mov    %rax,-0x570(%rbp)
    d1db:	48 c7 85 98 fa ff ff 	movq   $0x0,-0x568(%rbp)
    d1e2:	00 00 00 00 
    d1e6:	48 8d 85 a0 ee ff ff 	lea    -0x1160(%rbp),%rax
    d1ed:	48 89 85 a0 fa ff ff 	mov    %rax,-0x560(%rbp)
    d1f4:	48 8d 05 29 7e 00 00 	lea    0x7e29(%rip),%rax        # 15024 <g_39>
    d1fb:	48 89 85 a8 fa ff ff 	mov    %rax,-0x558(%rbp)
    d202:	48 8d 85 a8 ee ff ff 	lea    -0x1158(%rbp),%rax
    d209:	48 89 85 b0 fa ff ff 	mov    %rax,-0x550(%rbp)
    d210:	48 8d 85 b0 ee ff ff 	lea    -0x1150(%rbp),%rax
    d217:	48 89 85 b8 fa ff ff 	mov    %rax,-0x548(%rbp)
    d21e:	48 8d 05 1f 7f 00 00 	lea    0x7f1f(%rip),%rax        # 15144 <g_373>
    d225:	48 89 85 c0 fa ff ff 	mov    %rax,-0x540(%rbp)
    d22c:	48 8d 05 05 7e 00 00 	lea    0x7e05(%rip),%rax        # 15038 <g_116>
    d233:	48 89 85 c8 fa ff ff 	mov    %rax,-0x538(%rbp)
    d23a:	48 8d 05 1f 7e 00 00 	lea    0x7e1f(%rip),%rax        # 15060 <g_188>
    d241:	48 89 85 d0 fa ff ff 	mov    %rax,-0x530(%rbp)
    d248:	48 8d 05 e9 7d 00 00 	lea    0x7de9(%rip),%rax        # 15038 <g_116>
    d24f:	48 89 85 d8 fa ff ff 	mov    %rax,-0x528(%rbp)
    d256:	48 c7 85 e0 fa ff ff 	movq   $0x0,-0x520(%rbp)
    d25d:	00 00 00 00 
    d261:	48 8d 05 f8 7d 00 00 	lea    0x7df8(%rip),%rax        # 15060 <g_188>
    d268:	48 89 85 e8 fa ff ff 	mov    %rax,-0x518(%rbp)
    d26f:	48 c7 85 f0 fa ff ff 	movq   $0x0,-0x510(%rbp)
    d276:	00 00 00 00 
    d27a:	48 8d 05 b7 7d 00 00 	lea    0x7db7(%rip),%rax        # 15038 <g_116>
    d281:	48 89 85 f8 fa ff ff 	mov    %rax,-0x508(%rbp)
    d288:	48 8d 85 a8 ee ff ff 	lea    -0x1158(%rbp),%rax
    d28f:	48 89 85 00 fb ff ff 	mov    %rax,-0x500(%rbp)
    d296:	48 8d 05 87 7d 00 00 	lea    0x7d87(%rip),%rax        # 15024 <g_39>
    d29d:	48 89 85 08 fb ff ff 	mov    %rax,-0x4f8(%rbp)
    d2a4:	48 8d 85 a8 ee ff ff 	lea    -0x1158(%rbp),%rax
    d2ab:	48 89 85 10 fb ff ff 	mov    %rax,-0x4f0(%rbp)
    d2b2:	48 8d 85 a8 ee ff ff 	lea    -0x1158(%rbp),%rax
    d2b9:	48 89 85 18 fb ff ff 	mov    %rax,-0x4e8(%rbp)
    d2c0:	48 8d 05 71 7d 00 00 	lea    0x7d71(%rip),%rax        # 15038 <g_116>
    d2c7:	48 89 85 20 fb ff ff 	mov    %rax,-0x4e0(%rbp)
    d2ce:	48 c7 85 28 fb ff ff 	movq   $0x0,-0x4d8(%rbp)
    d2d5:	00 00 00 00 
    d2d9:	48 8d 05 58 7d 00 00 	lea    0x7d58(%rip),%rax        # 15038 <g_116>
    d2e0:	48 89 85 30 fb ff ff 	mov    %rax,-0x4d0(%rbp)
    d2e7:	48 8d 05 56 7e 00 00 	lea    0x7e56(%rip),%rax        # 15144 <g_373>
    d2ee:	48 89 85 38 fb ff ff 	mov    %rax,-0x4c8(%rbp)
    d2f5:	48 8d 05 64 7d 00 00 	lea    0x7d64(%rip),%rax        # 15060 <g_188>
    d2fc:	48 89 85 40 fb ff ff 	mov    %rax,-0x4c0(%rbp)
    d303:	48 8d 85 a4 ee ff ff 	lea    -0x115c(%rbp),%rax
    d30a:	48 89 85 48 fb ff ff 	mov    %rax,-0x4b8(%rbp)
    d311:	48 c7 85 50 fb ff ff 	movq   $0x0,-0x4b0(%rbp)
    d318:	00 00 00 00 
    d31c:	48 8d 85 a8 ee ff ff 	lea    -0x1158(%rbp),%rax
    d323:	48 89 85 58 fb ff ff 	mov    %rax,-0x4a8(%rbp)
    d32a:	48 8d 85 a0 ee ff ff 	lea    -0x1160(%rbp),%rax
    d331:	48 89 85 60 fb ff ff 	mov    %rax,-0x4a0(%rbp)
    d338:	48 c7 85 68 fb ff ff 	movq   $0x0,-0x498(%rbp)
    d33f:	00 00 00 00 
    d343:	48 8d 05 fa 7d 00 00 	lea    0x7dfa(%rip),%rax        # 15144 <g_373>
    d34a:	48 89 85 70 fb ff ff 	mov    %rax,-0x490(%rbp)
    d351:	48 8d 85 a4 ee ff ff 	lea    -0x115c(%rbp),%rax
    d358:	48 89 85 78 fb ff ff 	mov    %rax,-0x488(%rbp)
    d35f:	48 8d 05 de 7d 00 00 	lea    0x7dde(%rip),%rax        # 15144 <g_373>
    d366:	48 89 85 80 fb ff ff 	mov    %rax,-0x480(%rbp)
    d36d:	48 8d 05 b0 7c 00 00 	lea    0x7cb0(%rip),%rax        # 15024 <g_39>
    d374:	48 89 85 88 fb ff ff 	mov    %rax,-0x478(%rbp)
    d37b:	48 8d 05 b6 7c 00 00 	lea    0x7cb6(%rip),%rax        # 15038 <g_116>
    d382:	48 89 85 90 fb ff ff 	mov    %rax,-0x470(%rbp)
    d389:	48 8d 05 a8 7c 00 00 	lea    0x7ca8(%rip),%rax        # 15038 <g_116>
    d390:	48 89 85 98 fb ff ff 	mov    %rax,-0x468(%rbp)
    d397:	48 c7 85 a0 fb ff ff 	movq   $0x0,-0x460(%rbp)
    d39e:	00 00 00 00 
    d3a2:	48 8d 85 a8 ee ff ff 	lea    -0x1158(%rbp),%rax
    d3a9:	48 89 85 a8 fb ff ff 	mov    %rax,-0x458(%rbp)
    d3b0:	48 8d 85 b0 ee ff ff 	lea    -0x1150(%rbp),%rax
    d3b7:	48 89 85 b0 fb ff ff 	mov    %rax,-0x450(%rbp)
    d3be:	48 8d 05 7f 7d 00 00 	lea    0x7d7f(%rip),%rax        # 15144 <g_373>
    d3c5:	48 89 85 b8 fb ff ff 	mov    %rax,-0x448(%rbp)
    d3cc:	48 8d 85 a8 ee ff ff 	lea    -0x1158(%rbp),%rax
    d3d3:	48 89 85 c0 fb ff ff 	mov    %rax,-0x440(%rbp)
    d3da:	48 8d 85 9c ee ff ff 	lea    -0x1164(%rbp),%rax
    d3e1:	48 89 85 c8 fb ff ff 	mov    %rax,-0x438(%rbp)
    d3e8:	48 8d 05 55 7d 00 00 	lea    0x7d55(%rip),%rax        # 15144 <g_373>
    d3ef:	48 89 85 d0 fb ff ff 	mov    %rax,-0x430(%rbp)
    d3f6:	48 8d 05 63 7c 00 00 	lea    0x7c63(%rip),%rax        # 15060 <g_188>
    d3fd:	48 89 85 d8 fb ff ff 	mov    %rax,-0x428(%rbp)
    d404:	48 8d 05 2d 7c 00 00 	lea    0x7c2d(%rip),%rax        # 15038 <g_116>
    d40b:	48 89 85 e0 fb ff ff 	mov    %rax,-0x420(%rbp)
    d412:	48 c7 85 e8 fb ff ff 	movq   $0x0,-0x418(%rbp)
    d419:	00 00 00 00 
    d41d:	48 8d 05 3c 7c 00 00 	lea    0x7c3c(%rip),%rax        # 15060 <g_188>
    d424:	48 89 85 f0 fb ff ff 	mov    %rax,-0x410(%rbp)
    d42b:	48 8d 85 9c ee ff ff 	lea    -0x1164(%rbp),%rax
    d432:	48 89 85 f8 fb ff ff 	mov    %rax,-0x408(%rbp)
    d439:	48 8d 05 20 7c 00 00 	lea    0x7c20(%rip),%rax        # 15060 <g_188>
    d440:	48 89 85 00 fc ff ff 	mov    %rax,-0x400(%rbp)
    d447:	48 8d 85 b0 ee ff ff 	lea    -0x1150(%rbp),%rax
    d44e:	48 89 85 08 fc ff ff 	mov    %rax,-0x3f8(%rbp)
    d455:	48 8d 85 b0 ee ff ff 	lea    -0x1150(%rbp),%rax
    d45c:	48 89 85 10 fc ff ff 	mov    %rax,-0x3f0(%rbp)
    d463:	48 8d 85 a8 ee ff ff 	lea    -0x1158(%rbp),%rax
    d46a:	48 89 85 18 fc ff ff 	mov    %rax,-0x3e8(%rbp)
    d471:	48 8d 85 a0 ee ff ff 	lea    -0x1160(%rbp),%rax
    d478:	48 89 85 20 fc ff ff 	mov    %rax,-0x3e0(%rbp)
    d47f:	48 8d 05 b2 7b 00 00 	lea    0x7bb2(%rip),%rax        # 15038 <g_116>
    d486:	48 89 85 28 fc ff ff 	mov    %rax,-0x3d8(%rbp)
    d48d:	48 8d 85 a8 ee ff ff 	lea    -0x1158(%rbp),%rax
    d494:	48 89 85 30 fc ff ff 	mov    %rax,-0x3d0(%rbp)
    d49b:	48 c7 85 38 fc ff ff 	movq   $0x0,-0x3c8(%rbp)
    d4a2:	00 00 00 00 
    d4a6:	48 8d 05 97 7c 00 00 	lea    0x7c97(%rip),%rax        # 15144 <g_373>
    d4ad:	48 89 85 40 fc ff ff 	mov    %rax,-0x3c0(%rbp)
    d4b4:	48 8d 05 a5 7b 00 00 	lea    0x7ba5(%rip),%rax        # 15060 <g_188>
    d4bb:	48 89 85 48 fc ff ff 	mov    %rax,-0x3b8(%rbp)
    d4c2:	48 8d 05 97 7b 00 00 	lea    0x7b97(%rip),%rax        # 15060 <g_188>
    d4c9:	48 89 85 50 fc ff ff 	mov    %rax,-0x3b0(%rbp)
    d4d0:	48 c7 85 58 fc ff ff 	movq   $0x0,-0x3a8(%rbp)
    d4d7:	00 00 00 00 
    d4db:	48 c7 85 60 fc ff ff 	movq   $0x0,-0x3a0(%rbp)
    d4e2:	00 00 00 00 
    d4e6:	48 8d 05 37 7b 00 00 	lea    0x7b37(%rip),%rax        # 15024 <g_39>
    d4ed:	48 89 85 68 fc ff ff 	mov    %rax,-0x398(%rbp)
    d4f4:	48 c7 85 70 fc ff ff 	movq   $0x0,-0x390(%rbp)
    d4fb:	00 00 00 00 
    d4ff:	48 8d 05 5a 7b 00 00 	lea    0x7b5a(%rip),%rax        # 15060 <g_188>
    d506:	48 89 85 78 fc ff ff 	mov    %rax,-0x388(%rbp)
    d50d:	48 8d 85 a8 ee ff ff 	lea    -0x1158(%rbp),%rax
    d514:	48 89 85 80 fc ff ff 	mov    %rax,-0x380(%rbp)
    d51b:	48 8d 05 22 7c 00 00 	lea    0x7c22(%rip),%rax        # 15144 <g_373>
    d522:	48 89 85 88 fc ff ff 	mov    %rax,-0x378(%rbp)
    d529:	48 8d 85 a8 ee ff ff 	lea    -0x1158(%rbp),%rax
    d530:	48 89 85 90 fc ff ff 	mov    %rax,-0x370(%rbp)
    d537:	48 8d 05 fa 7a 00 00 	lea    0x7afa(%rip),%rax        # 15038 <g_116>
    d53e:	48 89 85 98 fc ff ff 	mov    %rax,-0x368(%rbp)
    d545:	48 8d 05 ec 7a 00 00 	lea    0x7aec(%rip),%rax        # 15038 <g_116>
    d54c:	48 89 85 a0 fc ff ff 	mov    %rax,-0x360(%rbp)
    d553:	48 8d 85 a8 ee ff ff 	lea    -0x1158(%rbp),%rax
    d55a:	48 89 85 a8 fc ff ff 	mov    %rax,-0x358(%rbp)
    d561:	48 8d 05 d0 7a 00 00 	lea    0x7ad0(%rip),%rax        # 15038 <g_116>
    d568:	48 89 85 b0 fc ff ff 	mov    %rax,-0x350(%rbp)
    d56f:	48 8d 05 ae 7a 00 00 	lea    0x7aae(%rip),%rax        # 15024 <g_39>
    d576:	48 89 85 b8 fc ff ff 	mov    %rax,-0x348(%rbp)
    d57d:	48 8d 05 dc 7a 00 00 	lea    0x7adc(%rip),%rax        # 15060 <g_188>
    d584:	48 89 85 c0 fc ff ff 	mov    %rax,-0x340(%rbp)
    d58b:	48 8d 05 92 7a 00 00 	lea    0x7a92(%rip),%rax        # 15024 <g_39>
    d592:	48 89 85 c8 fc ff ff 	mov    %rax,-0x338(%rbp)
    d599:	48 c7 85 d0 fc ff ff 	movq   $0x0,-0x330(%rbp)
    d5a0:	00 00 00 00 
    d5a4:	48 c7 85 d8 fc ff ff 	movq   $0x0,-0x328(%rbp)
    d5ab:	00 00 00 00 
    d5af:	48 8d 85 a0 ee ff ff 	lea    -0x1160(%rbp),%rax
    d5b6:	48 89 85 e0 fc ff ff 	mov    %rax,-0x320(%rbp)
    d5bd:	48 8d 05 74 7a 00 00 	lea    0x7a74(%rip),%rax        # 15038 <g_116>
    d5c4:	48 89 85 e8 fc ff ff 	mov    %rax,-0x318(%rbp)
    d5cb:	48 8d 05 72 7b 00 00 	lea    0x7b72(%rip),%rax        # 15144 <g_373>
    d5d2:	48 89 85 f0 fc ff ff 	mov    %rax,-0x310(%rbp)
    d5d9:	48 8d 05 44 7a 00 00 	lea    0x7a44(%rip),%rax        # 15024 <g_39>
    d5e0:	48 89 85 f8 fc ff ff 	mov    %rax,-0x308(%rbp)
    d5e7:	48 8d 05 56 7b 00 00 	lea    0x7b56(%rip),%rax        # 15144 <g_373>
    d5ee:	48 89 85 00 fd ff ff 	mov    %rax,-0x300(%rbp)
    d5f5:	48 8d 05 48 7b 00 00 	lea    0x7b48(%rip),%rax        # 15144 <g_373>
    d5fc:	48 89 85 08 fd ff ff 	mov    %rax,-0x2f8(%rbp)
    d603:	48 8d 05 2e 7a 00 00 	lea    0x7a2e(%rip),%rax        # 15038 <g_116>
    d60a:	48 89 85 10 fd ff ff 	mov    %rax,-0x2f0(%rbp)
    d611:	48 8d 05 0c 7a 00 00 	lea    0x7a0c(%rip),%rax        # 15024 <g_39>
    d618:	48 89 85 18 fd ff ff 	mov    %rax,-0x2e8(%rbp)
    d61f:	48 c7 85 20 fd ff ff 	movq   $0x0,-0x2e0(%rbp)
    d626:	00 00 00 00 
    d62a:	48 8d 05 07 7a 00 00 	lea    0x7a07(%rip),%rax        # 15038 <g_116>
    d631:	48 89 85 28 fd ff ff 	mov    %rax,-0x2d8(%rbp)
    d638:	48 8d 85 b0 ee ff ff 	lea    -0x1150(%rbp),%rax
    d63f:	48 89 85 30 fd ff ff 	mov    %rax,-0x2d0(%rbp)
    d646:	48 8d 05 d7 79 00 00 	lea    0x79d7(%rip),%rax        # 15024 <g_39>
    d64d:	48 89 85 38 fd ff ff 	mov    %rax,-0x2c8(%rbp)
    d654:	48 8d 85 a8 ee ff ff 	lea    -0x1158(%rbp),%rax
    d65b:	48 89 85 40 fd ff ff 	mov    %rax,-0x2c0(%rbp)
    d662:	48 8d 85 b0 ee ff ff 	lea    -0x1150(%rbp),%rax
    d669:	48 89 85 48 fd ff ff 	mov    %rax,-0x2b8(%rbp)
    d670:	48 8d 05 cd 7a 00 00 	lea    0x7acd(%rip),%rax        # 15144 <g_373>
    d677:	48 89 85 50 fd ff ff 	mov    %rax,-0x2b0(%rbp)
    d67e:	48 8d 05 9f 79 00 00 	lea    0x799f(%rip),%rax        # 15024 <g_39>
    d685:	48 89 85 58 fd ff ff 	mov    %rax,-0x2a8(%rbp)
    d68c:	48 8d 05 a5 79 00 00 	lea    0x79a5(%rip),%rax        # 15038 <g_116>
    d693:	48 89 85 60 fd ff ff 	mov    %rax,-0x2a0(%rbp)
    d69a:	48 8d 85 a8 ee ff ff 	lea    -0x1158(%rbp),%rax
    d6a1:	48 89 85 68 fd ff ff 	mov    %rax,-0x298(%rbp)
    d6a8:	48 8d 05 b1 79 00 00 	lea    0x79b1(%rip),%rax        # 15060 <g_188>
    d6af:	48 89 85 70 fd ff ff 	mov    %rax,-0x290(%rbp)
    d6b6:	48 8d 85 b0 ee ff ff 	lea    -0x1150(%rbp),%rax
    d6bd:	48 89 85 78 fd ff ff 	mov    %rax,-0x288(%rbp)
    d6c4:	48 8d 05 95 79 00 00 	lea    0x7995(%rip),%rax        # 15060 <g_188>
    d6cb:	48 89 85 80 fd ff ff 	mov    %rax,-0x280(%rbp)
    d6d2:	48 c7 85 88 fd ff ff 	movq   $0x0,-0x278(%rbp)
    d6d9:	00 00 00 00 
    d6dd:	48 8d 85 b0 ee ff ff 	lea    -0x1150(%rbp),%rax
    d6e4:	48 89 85 90 fd ff ff 	mov    %rax,-0x270(%rbp)
    d6eb:	48 c7 85 98 fd ff ff 	movq   $0x0,-0x268(%rbp)
    d6f2:	00 00 00 00 
    d6f6:	48 8d 85 a0 ee ff ff 	lea    -0x1160(%rbp),%rax
    d6fd:	48 89 85 a0 fd ff ff 	mov    %rax,-0x260(%rbp)
    d704:	48 8d 05 19 79 00 00 	lea    0x7919(%rip),%rax        # 15024 <g_39>
    d70b:	48 89 85 a8 fd ff ff 	mov    %rax,-0x258(%rbp)
    d712:	48 8d 85 a8 ee ff ff 	lea    -0x1158(%rbp),%rax
    d719:	48 89 85 b0 fd ff ff 	mov    %rax,-0x250(%rbp)
    d720:	48 8d 85 b0 ee ff ff 	lea    -0x1150(%rbp),%rax
    d727:	48 89 85 b8 fd ff ff 	mov    %rax,-0x248(%rbp)
    d72e:	48 8d 05 0f 7a 00 00 	lea    0x7a0f(%rip),%rax        # 15144 <g_373>
    d735:	48 89 85 c0 fd ff ff 	mov    %rax,-0x240(%rbp)
    d73c:	48 8d 05 f5 78 00 00 	lea    0x78f5(%rip),%rax        # 15038 <g_116>
    d743:	48 89 85 c8 fd ff ff 	mov    %rax,-0x238(%rbp)
    d74a:	48 8d 05 0f 79 00 00 	lea    0x790f(%rip),%rax        # 15060 <g_188>
    d751:	48 89 85 d0 fd ff ff 	mov    %rax,-0x230(%rbp)
    d758:	48 8d 05 d9 78 00 00 	lea    0x78d9(%rip),%rax        # 15038 <g_116>
    d75f:	48 89 85 d8 fd ff ff 	mov    %rax,-0x228(%rbp)
    d766:	48 c7 85 e0 fd ff ff 	movq   $0x0,-0x220(%rbp)
    d76d:	00 00 00 00 
    d771:	48 8d 05 e8 78 00 00 	lea    0x78e8(%rip),%rax        # 15060 <g_188>
    d778:	48 89 85 e8 fd ff ff 	mov    %rax,-0x218(%rbp)
    d77f:	48 c7 85 f0 fd ff ff 	movq   $0x0,-0x210(%rbp)
    d786:	00 00 00 00 
    d78a:	48 8d 05 a7 78 00 00 	lea    0x78a7(%rip),%rax        # 15038 <g_116>
    d791:	48 89 85 f8 fd ff ff 	mov    %rax,-0x208(%rbp)
    d798:	48 8d 85 a8 ee ff ff 	lea    -0x1158(%rbp),%rax
    d79f:	48 89 85 00 fe ff ff 	mov    %rax,-0x200(%rbp)
    d7a6:	48 8d 05 77 78 00 00 	lea    0x7877(%rip),%rax        # 15024 <g_39>
    d7ad:	48 89 85 08 fe ff ff 	mov    %rax,-0x1f8(%rbp)
    d7b4:	48 8d 85 a8 ee ff ff 	lea    -0x1158(%rbp),%rax
    d7bb:	48 89 85 10 fe ff ff 	mov    %rax,-0x1f0(%rbp)
    d7c2:	48 8d 85 a8 ee ff ff 	lea    -0x1158(%rbp),%rax
    d7c9:	48 89 85 18 fe ff ff 	mov    %rax,-0x1e8(%rbp)
    d7d0:	48 8d 05 61 78 00 00 	lea    0x7861(%rip),%rax        # 15038 <g_116>
    d7d7:	48 89 85 20 fe ff ff 	mov    %rax,-0x1e0(%rbp)
    d7de:	48 c7 85 28 fe ff ff 	movq   $0x0,-0x1d8(%rbp)
    d7e5:	00 00 00 00 
    d7e9:	48 8d 05 48 78 00 00 	lea    0x7848(%rip),%rax        # 15038 <g_116>
    d7f0:	48 89 85 30 fe ff ff 	mov    %rax,-0x1d0(%rbp)
    d7f7:	48 8d 05 46 79 00 00 	lea    0x7946(%rip),%rax        # 15144 <g_373>
    d7fe:	48 89 85 38 fe ff ff 	mov    %rax,-0x1c8(%rbp)
    d805:	48 8d 05 54 78 00 00 	lea    0x7854(%rip),%rax        # 15060 <g_188>
    d80c:	48 89 85 40 fe ff ff 	mov    %rax,-0x1c0(%rbp)
    d813:	48 8d 85 a4 ee ff ff 	lea    -0x115c(%rbp),%rax
    d81a:	48 89 85 48 fe ff ff 	mov    %rax,-0x1b8(%rbp)
    d821:	48 c7 85 50 fe ff ff 	movq   $0x0,-0x1b0(%rbp)
    d828:	00 00 00 00 
    d82c:	48 8d 85 a8 ee ff ff 	lea    -0x1158(%rbp),%rax
    d833:	48 89 85 58 fe ff ff 	mov    %rax,-0x1a8(%rbp)
    d83a:	48 8d 85 a0 ee ff ff 	lea    -0x1160(%rbp),%rax
    d841:	48 89 85 60 fe ff ff 	mov    %rax,-0x1a0(%rbp)
    d848:	48 c7 85 68 fe ff ff 	movq   $0x0,-0x198(%rbp)
    d84f:	00 00 00 00 
    d853:	48 8d 05 ea 78 00 00 	lea    0x78ea(%rip),%rax        # 15144 <g_373>
    d85a:	48 89 85 70 fe ff ff 	mov    %rax,-0x190(%rbp)
    d861:	48 8d 85 a4 ee ff ff 	lea    -0x115c(%rbp),%rax
    d868:	48 89 85 78 fe ff ff 	mov    %rax,-0x188(%rbp)
    d86f:	48 8d 05 ce 78 00 00 	lea    0x78ce(%rip),%rax        # 15144 <g_373>
    d876:	48 89 85 80 fe ff ff 	mov    %rax,-0x180(%rbp)
    d87d:	48 8d 05 a0 77 00 00 	lea    0x77a0(%rip),%rax        # 15024 <g_39>
    d884:	48 89 85 88 fe ff ff 	mov    %rax,-0x178(%rbp)
    d88b:	48 8d 05 a6 77 00 00 	lea    0x77a6(%rip),%rax        # 15038 <g_116>
    d892:	48 89 85 90 fe ff ff 	mov    %rax,-0x170(%rbp)
    d899:	48 8d 05 98 77 00 00 	lea    0x7798(%rip),%rax        # 15038 <g_116>
    d8a0:	48 89 85 98 fe ff ff 	mov    %rax,-0x168(%rbp)
    d8a7:	48 c7 85 a0 fe ff ff 	movq   $0x0,-0x160(%rbp)
    d8ae:	00 00 00 00 
    d8b2:	48 8d 85 a8 ee ff ff 	lea    -0x1158(%rbp),%rax
    d8b9:	48 89 85 a8 fe ff ff 	mov    %rax,-0x158(%rbp)
    d8c0:	48 8d 85 b0 ee ff ff 	lea    -0x1150(%rbp),%rax
    d8c7:	48 89 85 b0 fe ff ff 	mov    %rax,-0x150(%rbp)
    d8ce:	48 8d 05 6f 78 00 00 	lea    0x786f(%rip),%rax        # 15144 <g_373>
    d8d5:	48 89 85 b8 fe ff ff 	mov    %rax,-0x148(%rbp)
    d8dc:	48 8d 85 a8 ee ff ff 	lea    -0x1158(%rbp),%rax
    d8e3:	48 89 85 c0 fe ff ff 	mov    %rax,-0x140(%rbp)
    d8ea:	48 8d 85 9c ee ff ff 	lea    -0x1164(%rbp),%rax
    d8f1:	48 89 85 c8 fe ff ff 	mov    %rax,-0x138(%rbp)
    d8f8:	48 8d 05 45 78 00 00 	lea    0x7845(%rip),%rax        # 15144 <g_373>
    d8ff:	48 89 85 d0 fe ff ff 	mov    %rax,-0x130(%rbp)
    d906:	48 8d 05 53 77 00 00 	lea    0x7753(%rip),%rax        # 15060 <g_188>
    d90d:	48 89 85 d8 fe ff ff 	mov    %rax,-0x128(%rbp)
    d914:	48 8d 05 1d 77 00 00 	lea    0x771d(%rip),%rax        # 15038 <g_116>
    d91b:	48 89 85 e0 fe ff ff 	mov    %rax,-0x120(%rbp)
    d922:	48 c7 85 e8 fe ff ff 	movq   $0x0,-0x118(%rbp)
    d929:	00 00 00 00 
    d92d:	48 8d 05 2c 77 00 00 	lea    0x772c(%rip),%rax        # 15060 <g_188>
    d934:	48 89 85 f0 fe ff ff 	mov    %rax,-0x110(%rbp)
    d93b:	48 8d 85 9c ee ff ff 	lea    -0x1164(%rbp),%rax
    d942:	48 89 85 f8 fe ff ff 	mov    %rax,-0x108(%rbp)
    d949:	48 8d 05 10 77 00 00 	lea    0x7710(%rip),%rax        # 15060 <g_188>
    d950:	48 89 85 00 ff ff ff 	mov    %rax,-0x100(%rbp)
    d957:	48 8d 85 b0 ee ff ff 	lea    -0x1150(%rbp),%rax
    d95e:	48 89 85 08 ff ff ff 	mov    %rax,-0xf8(%rbp)
    d965:	48 8d 85 b0 ee ff ff 	lea    -0x1150(%rbp),%rax
    d96c:	48 89 85 10 ff ff ff 	mov    %rax,-0xf0(%rbp)
    d973:	48 8d 85 a8 ee ff ff 	lea    -0x1158(%rbp),%rax
    d97a:	48 89 85 18 ff ff ff 	mov    %rax,-0xe8(%rbp)
    d981:	48 8d 85 a0 ee ff ff 	lea    -0x1160(%rbp),%rax
    d988:	48 89 85 20 ff ff ff 	mov    %rax,-0xe0(%rbp)
    d98f:	48 8d 05 a2 76 00 00 	lea    0x76a2(%rip),%rax        # 15038 <g_116>
    d996:	48 89 85 28 ff ff ff 	mov    %rax,-0xd8(%rbp)
    d99d:	48 8d 85 a8 ee ff ff 	lea    -0x1158(%rbp),%rax
    d9a4:	48 89 85 30 ff ff ff 	mov    %rax,-0xd0(%rbp)
    d9ab:	48 c7 85 38 ff ff ff 	movq   $0x0,-0xc8(%rbp)
    d9b2:	00 00 00 00 
    d9b6:	48 8d 05 87 77 00 00 	lea    0x7787(%rip),%rax        # 15144 <g_373>
    d9bd:	48 89 85 40 ff ff ff 	mov    %rax,-0xc0(%rbp)
    d9c4:	48 8d 05 95 76 00 00 	lea    0x7695(%rip),%rax        # 15060 <g_188>
    d9cb:	48 89 85 48 ff ff ff 	mov    %rax,-0xb8(%rbp)
    d9d2:	48 8d 05 87 76 00 00 	lea    0x7687(%rip),%rax        # 15060 <g_188>
    d9d9:	48 89 85 50 ff ff ff 	mov    %rax,-0xb0(%rbp)
    d9e0:	48 c7 85 58 ff ff ff 	movq   $0x0,-0xa8(%rbp)
    d9e7:	00 00 00 00 
    d9eb:	48 c7 85 60 ff ff ff 	movq   $0x0,-0xa0(%rbp)
    d9f2:	00 00 00 00 
    d9f6:	48 8d 05 27 76 00 00 	lea    0x7627(%rip),%rax        # 15024 <g_39>
    d9fd:	48 89 85 68 ff ff ff 	mov    %rax,-0x98(%rbp)
    da04:	48 c7 85 70 ff ff ff 	movq   $0x0,-0x90(%rbp)
    da0b:	00 00 00 00 
    da0f:	48 8d 05 4a 76 00 00 	lea    0x764a(%rip),%rax        # 15060 <g_188>
    da16:	48 89 85 78 ff ff ff 	mov    %rax,-0x88(%rbp)
    da1d:	48 8d 85 a8 ee ff ff 	lea    -0x1158(%rbp),%rax
    da24:	48 89 45 80          	mov    %rax,-0x80(%rbp)
    da28:	48 8d 05 15 77 00 00 	lea    0x7715(%rip),%rax        # 15144 <g_373>
    da2f:	48 89 45 88          	mov    %rax,-0x78(%rbp)
    da33:	48 8d 85 a8 ee ff ff 	lea    -0x1158(%rbp),%rax
    da3a:	48 89 45 90          	mov    %rax,-0x70(%rbp)
    da3e:	48 8d 05 f3 75 00 00 	lea    0x75f3(%rip),%rax        # 15038 <g_116>
    da45:	48 89 45 98          	mov    %rax,-0x68(%rbp)
    da49:	48 8d 05 e8 75 00 00 	lea    0x75e8(%rip),%rax        # 15038 <g_116>
    da50:	48 89 45 a0          	mov    %rax,-0x60(%rbp)
    da54:	48 8d 85 a8 ee ff ff 	lea    -0x1158(%rbp),%rax
    da5b:	48 89 45 a8          	mov    %rax,-0x58(%rbp)
    da5f:	48 8d 05 d2 75 00 00 	lea    0x75d2(%rip),%rax        # 15038 <g_116>
    da66:	48 89 45 b0          	mov    %rax,-0x50(%rbp)
    da6a:	48 8d 05 b3 75 00 00 	lea    0x75b3(%rip),%rax        # 15024 <g_39>
    da71:	48 89 45 b8          	mov    %rax,-0x48(%rbp)
    da75:	48 8d 05 e4 75 00 00 	lea    0x75e4(%rip),%rax        # 15060 <g_188>
    da7c:	48 89 45 c0          	mov    %rax,-0x40(%rbp)
    da80:	66 c7 85 d0 ef ff ff 	movw   $0x3,-0x1030(%rbp)
    da87:	03 00 
    da89:	66 c7 85 d2 ef ff ff 	movw   $0x301,-0x102e(%rbp)
    da90:	01 03 
    da92:	66 c7 85 d4 ef ff ff 	movw   $0xfc00,-0x102c(%rbp)
    da99:	00 fc 
    da9b:	66 c7 85 d6 ef ff ff 	movw   $0x300,-0x102a(%rbp)
    daa2:	00 03 
    daa4:	66 c7 85 d8 ef ff ff 	movw   $0x1,-0x1028(%rbp)
    daab:	01 00 
    daad:	66 c7 85 da ef ff ff 	movw   $0xfc03,-0x1026(%rbp)
    dab4:	03 fc 
    dab6:	66 c7 85 dc ef ff ff 	movw   $0x0,-0x1024(%rbp)
    dabd:	00 00 
    dabf:	66 c7 85 de ef ff ff 	movw   $0x1,-0x1022(%rbp)
    dac6:	01 00 
    dac8:	66 c7 85 e0 ef ff ff 	movw   $0xfc00,-0x1020(%rbp)
    dacf:	00 fc 
    dad1:	66 c7 85 e2 ef ff ff 	movw   $0x3,-0x101e(%rbp)
    dad8:	03 00 
    dada:	66 c7 85 e4 ef ff ff 	movw   $0x301,-0x101c(%rbp)
    dae1:	01 03 
    dae3:	66 c7 85 e6 ef ff ff 	movw   $0xfc00,-0x101a(%rbp)
    daea:	00 fc 
    daec:	66 c7 85 e8 ef ff ff 	movw   $0x300,-0x1018(%rbp)
    daf3:	00 03 
    daf5:	66 c7 85 ea ef ff ff 	movw   $0x1,-0x1016(%rbp)
    dafc:	01 00 
    dafe:	66 c7 85 ec ef ff ff 	movw   $0xfc03,-0x1014(%rbp)
    db05:	03 fc 
    db07:	66 c7 85 ee ef ff ff 	movw   $0x0,-0x1012(%rbp)
    db0e:	00 00 
    db10:	66 c7 85 f0 ef ff ff 	movw   $0x1f7,-0x1010(%rbp)
    db17:	f7 01 
    db19:	66 c7 85 f2 ef ff ff 	movw   $0x2101,-0x100e(%rbp)
    db20:	01 21 
    db22:	66 c7 85 f4 ef ff ff 	movw   $0xfffc,-0x100c(%rbp)
    db29:	fc ff 
    db2b:	66 c7 85 f6 ef ff ff 	movw   $0xfcf7,-0x100a(%rbp)
    db32:	f7 fc 
    db34:	66 c7 85 f8 ef ff ff 	movw   $0x21ff,-0x1008(%rbp)
    db3b:	ff 21 
    db3d:	66 c7 85 fa ef ff ff 	movw   $0xfcff,-0x1006(%rbp)
    db44:	ff fc 
    db46:	66 c7 85 fc ef ff ff 	movw   $0xfff7,-0x1004(%rbp)
    db4d:	f7 ff 
    db4f:	66 c7 85 fe ef ff ff 	movw   $0x21fc,-0x1002(%rbp)
    db56:	fc 21 
    db58:	66 c7 85 00 f0 ff ff 	movw   $0x101,-0x1000(%rbp)
    db5f:	01 01 
    db61:	66 c7 85 02 f0 ff ff 	movw   $0x1f7,-0xffe(%rbp)
    db68:	f7 01 
    db6a:	66 c7 85 04 f0 ff ff 	movw   $0x2101,-0xffc(%rbp)
    db71:	01 21 
    db73:	66 c7 85 06 f0 ff ff 	movw   $0xfffc,-0xffa(%rbp)
    db7a:	fc ff 
    db7c:	66 c7 85 08 f0 ff ff 	movw   $0xfcf7,-0xff8(%rbp)
    db83:	f7 fc 
    db85:	66 c7 85 0a f0 ff ff 	movw   $0x21ff,-0xff6(%rbp)
    db8c:	ff 21 
    db8e:	66 c7 85 0c f0 ff ff 	movw   $0xfcff,-0xff4(%rbp)
    db95:	ff fc 
    db97:	66 c7 85 0e f0 ff ff 	movw   $0xfff7,-0xff2(%rbp)
    db9e:	f7 ff 
    dba0:	66 c7 85 10 f0 ff ff 	movw   $0x21fc,-0xff0(%rbp)
    dba7:	fc 21 
    dba9:	66 c7 85 12 f0 ff ff 	movw   $0x101,-0xfee(%rbp)
    dbb0:	01 01 
    dbb2:	66 c7 85 14 f0 ff ff 	movw   $0x1f7,-0xfec(%rbp)
    dbb9:	f7 01 
    dbbb:	66 c7 85 16 f0 ff ff 	movw   $0x2101,-0xfea(%rbp)
    dbc2:	01 21 
    dbc4:	48 8d 05 35 8d 00 00 	lea    0x8d35(%rip),%rax        # 16900 <g_38>
    dbcb:	48 89 85 50 ef ff ff 	mov    %rax,-0x10b0(%rbp)
    dbd2:	48 8d 05 27 8d 00 00 	lea    0x8d27(%rip),%rax        # 16900 <g_38>
    dbd9:	48 89 85 58 ef ff ff 	mov    %rax,-0x10a8(%rbp)
    dbe0:	48 8d 85 30 f8 ff ff 	lea    -0x7d0(%rbp),%rax
    dbe7:	48 83 c0 10          	add    $0x10,%rax
    dbeb:	48 89 85 60 ef ff ff 	mov    %rax,-0x10a0(%rbp)
    dbf2:	66 c7 85 b0 f0 ff ff 	movw   $0x7b52,-0xf50(%rbp)
    dbf9:	52 7b 
    dbfb:	66 c7 85 b2 f0 ff ff 	movw   $0x4,-0xf4e(%rbp)
    dc02:	04 00 
    dc04:	66 c7 85 b4 f0 ff ff 	movw   $0x17af,-0xf4c(%rbp)
    dc0b:	af 17 
    dc0d:	66 c7 85 b6 f0 ff ff 	movw   $0x8,-0xf4a(%rbp)
    dc14:	08 00 
    dc16:	66 c7 85 b8 f0 ff ff 	movw   $0xf80d,-0xf48(%rbp)
    dc1d:	0d f8 
    dc1f:	66 c7 85 ba f0 ff ff 	movw   $0x4e0a,-0xf46(%rbp)
    dc26:	0a 4e 
    dc28:	66 c7 85 bc f0 ff ff 	movw   $0xfffe,-0xf44(%rbp)
    dc2f:	fe ff 
    dc31:	66 c7 85 be f0 ff ff 	movw   $0xa02d,-0xf42(%rbp)
    dc38:	2d a0 
    dc3a:	66 c7 85 c0 f0 ff ff 	movw   $0x8,-0xf40(%rbp)
    dc41:	08 00 
    dc43:	66 c7 85 c2 f0 ff ff 	movw   $0x7d71,-0xf3e(%rbp)
    dc4a:	71 7d 
    dc4c:	66 c7 85 c4 f0 ff ff 	movw   $0x5,-0xf3c(%rbp)
    dc53:	05 00 
    dc55:	66 c7 85 c6 f0 ff ff 	movw   $0xffff,-0xf3a(%rbp)
    dc5c:	ff ff 
    dc5e:	66 c7 85 c8 f0 ff ff 	movw   $0xffff,-0xf38(%rbp)
    dc65:	ff ff 
    dc67:	66 c7 85 ca f0 ff ff 	movw   $0xffff,-0xf36(%rbp)
    dc6e:	ff ff 
    dc70:	66 c7 85 cc f0 ff ff 	movw   $0xffff,-0xf34(%rbp)
    dc77:	ff ff 
    dc79:	66 c7 85 ce f0 ff ff 	movw   $0x5,-0xf32(%rbp)
    dc80:	05 00 
    dc82:	66 c7 85 d0 f0 ff ff 	movw   $0x7d71,-0xf30(%rbp)
    dc89:	71 7d 
    dc8b:	66 c7 85 d2 f0 ff ff 	movw   $0xf80d,-0xf2e(%rbp)
    dc92:	0d f8 
    dc94:	66 c7 85 d4 f0 ff ff 	movw   $0x7d71,-0xf2c(%rbp)
    dc9b:	71 7d 
    dc9d:	66 c7 85 d6 f0 ff ff 	movw   $0x17af,-0xf2a(%rbp)
    dca4:	af 17 
    dca6:	66 c7 85 d8 f0 ff ff 	movw   $0xf80d,-0xf28(%rbp)
    dcad:	0d f8 
    dcaf:	66 c7 85 da f0 ff ff 	movw   $0xffff,-0xf26(%rbp)
    dcb6:	ff ff 
    dcb8:	66 c7 85 dc f0 ff ff 	movw   $0x6e54,-0xf24(%rbp)
    dcbf:	54 6e 
    dcc1:	66 c7 85 de f0 ff ff 	movw   $0xbba6,-0xf22(%rbp)
    dcc8:	a6 bb 
    dcca:	66 c7 85 e0 f0 ff ff 	movw   $0x0,-0xf20(%rbp)
    dcd1:	00 00 
    dcd3:	66 c7 85 e2 f0 ff ff 	movw   $0xffff,-0xf1e(%rbp)
    dcda:	ff ff 
    dcdc:	66 c7 85 e4 f0 ff ff 	movw   $0xb7ff,-0xf1c(%rbp)
    dce3:	ff b7 
    dce5:	66 c7 85 e6 f0 ff ff 	movw   $0x7b52,-0xf1a(%rbp)
    dcec:	52 7b 
    dcee:	66 c7 85 e8 f0 ff ff 	movw   $0xa02d,-0xf18(%rbp)
    dcf5:	2d a0 
    dcf7:	66 c7 85 ea f0 ff ff 	movw   $0x6b9b,-0xf16(%rbp)
    dcfe:	9b 6b 
    dd00:	66 c7 85 ec f0 ff ff 	movw   $0x0,-0xf14(%rbp)
    dd07:	00 00 
    dd09:	66 c7 85 ee f0 ff ff 	movw   $0x4,-0xf12(%rbp)
    dd10:	04 00 
    dd12:	66 c7 85 f0 f0 ff ff 	movw   $0xe26c,-0xf10(%rbp)
    dd19:	6c e2 
    dd1b:	66 c7 85 f2 f0 ff ff 	movw   $0xf80d,-0xf0e(%rbp)
    dd22:	0d f8 
    dd24:	66 c7 85 f4 f0 ff ff 	movw   $0x6b9b,-0xf0c(%rbp)
    dd2b:	9b 6b 
    dd2d:	66 c7 85 f6 f0 ff ff 	movw   $0xf80d,-0xf0a(%rbp)
    dd34:	0d f8 
    dd36:	66 c7 85 f8 f0 ff ff 	movw   $0xa02d,-0xf08(%rbp)
    dd3d:	2d a0 
    dd3f:	66 c7 85 fa f0 ff ff 	movw   $0xfffe,-0xf06(%rbp)
    dd46:	fe ff 
    dd48:	66 c7 85 fc f0 ff ff 	movw   $0x5,-0xf04(%rbp)
    dd4f:	05 00 
    dd51:	66 c7 85 fe f0 ff ff 	movw   $0x5,-0xf02(%rbp)
    dd58:	05 00 
    dd5a:	66 c7 85 00 f1 ff ff 	movw   $0xfffe,-0xf00(%rbp)
    dd61:	fe ff 
    dd63:	66 c7 85 02 f1 ff ff 	movw   $0xa02d,-0xefe(%rbp)
    dd6a:	2d a0 
    dd6c:	66 c7 85 04 f1 ff ff 	movw   $0x6e54,-0xefc(%rbp)
    dd73:	54 6e 
    dd75:	66 c7 85 06 f1 ff ff 	movw   $0x6b9b,-0xefa(%rbp)
    dd7c:	9b 6b 
    dd7e:	66 c7 85 08 f1 ff ff 	movw   $0x8,-0xef8(%rbp)
    dd85:	08 00 
    dd87:	66 c7 85 0a f1 ff ff 	movw   $0xe26c,-0xef6(%rbp)
    dd8e:	6c e2 
    dd90:	66 c7 85 0c f1 ff ff 	movw   $0x4,-0xef4(%rbp)
    dd97:	04 00 
    dd99:	66 c7 85 0e f1 ff ff 	movw   $0x0,-0xef2(%rbp)
    dda0:	00 00 
    dda2:	66 c7 85 10 f1 ff ff 	movw   $0x6b9b,-0xef0(%rbp)
    dda9:	9b 6b 
    ddab:	66 c7 85 12 f1 ff ff 	movw   $0xa02d,-0xeee(%rbp)
    ddb2:	2d a0 
    ddb4:	66 c7 85 14 f1 ff ff 	movw   $0x7b52,-0xeec(%rbp)
    ddbb:	52 7b 
    ddbd:	66 c7 85 16 f1 ff ff 	movw   $0xfffe,-0xeea(%rbp)
    ddc4:	fe ff 
    ddc6:	66 c7 85 18 f1 ff ff 	movw   $0xffff,-0xee8(%rbp)
    ddcd:	ff ff 
    ddcf:	66 c7 85 1a f1 ff ff 	movw   $0x6b9b,-0xee6(%rbp)
    ddd6:	9b 6b 
    ddd8:	66 c7 85 1c f1 ff ff 	movw   $0xbba6,-0xee4(%rbp)
    dddf:	a6 bb 
    dde1:	66 c7 85 1e f1 ff ff 	movw   $0x6e54,-0xee2(%rbp)
    dde8:	54 6e 
    ddea:	66 c7 85 20 f1 ff ff 	movw   $0xffff,-0xee0(%rbp)
    ddf1:	ff ff 
    ddf3:	66 c7 85 22 f1 ff ff 	movw   $0xf80d,-0xede(%rbp)
    ddfa:	0d f8 
    ddfc:	66 c7 85 24 f1 ff ff 	movw   $0x17af,-0xedc(%rbp)
    de03:	af 17 
    de05:	66 c7 85 26 f1 ff ff 	movw   $0x7d71,-0xeda(%rbp)
    de0c:	71 7d 
    de0e:	66 c7 85 28 f1 ff ff 	movw   $0x6e54,-0xed8(%rbp)
    de15:	54 6e 
    de17:	66 c7 85 2a f1 ff ff 	movw   $0x7d71,-0xed6(%rbp)
    de1e:	71 7d 
    de20:	66 c7 85 2c f1 ff ff 	movw   $0x17af,-0xed4(%rbp)
    de27:	af 17 
    de29:	66 c7 85 2e f1 ff ff 	movw   $0xffff,-0xed2(%rbp)
    de30:	ff ff 
    de32:	66 c7 85 30 f1 ff ff 	movw   $0xffff,-0xed0(%rbp)
    de39:	ff ff 
    de3b:	66 c7 85 32 f1 ff ff 	movw   $0xffff,-0xece(%rbp)
    de42:	ff ff 
    de44:	66 c7 85 34 f1 ff ff 	movw   $0xffff,-0xecc(%rbp)
    de4b:	ff ff 
    de4d:	66 c7 85 36 f1 ff ff 	movw   $0x5,-0xeca(%rbp)
    de54:	05 00 
    de56:	66 c7 85 38 f1 ff ff 	movw   $0x7d71,-0xec8(%rbp)
    de5d:	71 7d 
    de5f:	66 c7 85 3a f1 ff ff 	movw   $0xf80d,-0xec6(%rbp)
    de66:	0d f8 
    de68:	66 c7 85 3c f1 ff ff 	movw   $0xa02d,-0xec4(%rbp)
    de6f:	2d a0 
    de71:	66 c7 85 3e f1 ff ff 	movw   $0xb7ff,-0xec2(%rbp)
    de78:	ff b7 
    de7a:	66 c7 85 40 f1 ff ff 	movw   $0x4e0a,-0xec0(%rbp)
    de81:	0a 4e 
    de83:	66 c7 85 42 f1 ff ff 	movw   $0xf80d,-0xebe(%rbp)
    de8a:	0d f8 
    de8c:	66 c7 85 44 f1 ff ff 	movw   $0x8,-0xebc(%rbp)
    de93:	08 00 
    de95:	66 c7 85 46 f1 ff ff 	movw   $0x17af,-0xeba(%rbp)
    de9c:	af 17 
    de9e:	66 c7 85 48 f1 ff ff 	movw   $0x4,-0xeb8(%rbp)
    dea5:	04 00 
    dea7:	66 c7 85 4a f1 ff ff 	movw   $0x7b52,-0xeb6(%rbp)
    deae:	52 7b 
    deb0:	66 c7 85 4c f1 ff ff 	movw   $0x0,-0xeb4(%rbp)
    deb7:	00 00 
    deb9:	66 c7 85 4e f1 ff ff 	movw   $0x8,-0xeb2(%rbp)
    dec0:	08 00 
    dec2:	66 c7 85 50 f1 ff ff 	movw   $0xffff,-0xeb0(%rbp)
    dec9:	ff ff 
    decb:	66 c7 85 52 f1 ff ff 	movw   $0xa02d,-0xeae(%rbp)
    ded2:	2d a0 
    ded4:	66 c7 85 54 f1 ff ff 	movw   $0xfbaf,-0xeac(%rbp)
    dedb:	af fb 
    dedd:	66 c7 85 56 f1 ff ff 	movw   $0x5,-0xeaa(%rbp)
    dee4:	05 00 
    dee6:	66 c7 85 58 f1 ff ff 	movw   $0xfff9,-0xea8(%rbp)
    deed:	f9 ff 
    deef:	66 c7 85 5a f1 ff ff 	movw   $0x5,-0xea6(%rbp)
    def6:	05 00 
    def8:	66 c7 85 5c f1 ff ff 	movw   $0xa02d,-0xea4(%rbp)
    deff:	2d a0 
    df01:	66 c7 85 5e f1 ff ff 	movw   $0x5,-0xea2(%rbp)
    df08:	05 00 
    df0a:	66 c7 85 60 f1 ff ff 	movw   $0xfff9,-0xea0(%rbp)
    df11:	f9 ff 
    df13:	66 c7 85 62 f1 ff ff 	movw   $0x5,-0xe9e(%rbp)
    df1a:	05 00 
    df1c:	66 c7 85 98 ee ff ff 	movw   $0x6207,-0x1168(%rbp)
    df23:	07 62 
    df25:	66 c7 85 9a ee ff ff 	movw   $0xc0bb,-0x1166(%rbp)
    df2c:	bb c0 
    df2e:	48 c7 85 68 ef ff ff 	movq   $0x0,-0x1098(%rbp)
    df35:	00 00 00 00 
    df39:	c7 85 b8 ee ff ff cc 	movl   $0xffc4dfcc,-0x1148(%rbp)
    df40:	df c4 ff 
    df43:	c7 85 bc ee ff ff f7 	movl   $0xfffffff7,-0x1144(%rbp)
    df4a:	ff ff ff 
    df4d:	c7 85 c0 ee ff ff 88 	movl   $0xd60c888,-0x1140(%rbp)
    df54:	c8 60 0d 
    df57:	c7 85 c4 ee ff ff 65 	movl   $0xab77f165,-0x113c(%rbp)
    df5e:	f1 77 ab 
    df61:	48 c7 85 70 ef ff ff 	movq   $0xfffffffffffffff6,-0x1090(%rbp)
    df68:	f6 ff ff ff 
    df6c:	c7 85 c8 ee ff ff d4 	movl   $0xf80b1ed4,-0x1138(%rbp)
    df73:	1e 0b f8 
    df76:	c6 85 95 ee ff ff 01 	movb   $0x1,-0x116b(%rbp)
    df7d:	48 b8 10 15 95 e7 dc 	movabs $0x88f107dce7951510,%rax
    df84:	07 f1 88 
    df87:	48 89 85 78 ef ff ff 	mov    %rax,-0x1088(%rbp)
    df8e:	48 c7 85 80 ef ff ff 	movq   $0xffffffffffffffff,-0x1080(%rbp)
    df95:	ff ff ff ff 
    df99:	48 c7 85 88 ef ff ff 	movq   $0x0,-0x1078(%rbp)
    dfa0:	00 00 00 00 
    dfa4:	48 8d 05 69 72 00 00 	lea    0x7269(%rip),%rax        # 15214 <g_1663>
    dfab:	48 89 85 90 ef ff ff 	mov    %rax,-0x1070(%rbp)
    dfb2:	c7 85 cc ee ff ff 04 	movl   $0x4,-0x1134(%rbp)
    dfb9:	00 00 00 
    dfbc:	c7 85 20 f0 ff ff 01 	movl   $0x1,-0xfe0(%rbp)
    dfc3:	00 00 00 
    dfc6:	c7 85 24 f0 ff ff 25 	movl   $0x7eed7d25,-0xfdc(%rbp)
    dfcd:	7d ed 7e 
    dfd0:	c7 85 28 f0 ff ff 01 	movl   $0x1,-0xfd8(%rbp)
    dfd7:	00 00 00 
    dfda:	c7 85 2c f0 ff ff 25 	movl   $0x7eed7d25,-0xfd4(%rbp)
    dfe1:	7d ed 7e 
    dfe4:	c7 85 30 f0 ff ff 01 	movl   $0x1,-0xfd0(%rbp)
    dfeb:	00 00 00 
    dfee:	c7 85 34 f0 ff ff 01 	movl   $0x1,-0xfcc(%rbp)
    dff5:	00 00 00 
    dff8:	c7 85 38 f0 ff ff 25 	movl   $0x7eed7d25,-0xfc8(%rbp)
    dfff:	7d ed 7e 
    e002:	c7 85 3c f0 ff ff 01 	movl   $0x1,-0xfc4(%rbp)
    e009:	00 00 00 
    e00c:	c7 85 40 f0 ff ff 01 	movl   $0x1,-0xfc0(%rbp)
    e013:	00 00 00 
    e016:	c7 85 44 f0 ff ff 01 	movl   $0x1,-0xfbc(%rbp)
    e01d:	00 00 00 
    e020:	c7 85 48 f0 ff ff 01 	movl   $0x1,-0xfb8(%rbp)
    e027:	00 00 00 
    e02a:	c7 85 4c f0 ff ff 01 	movl   $0x1,-0xfb4(%rbp)
    e031:	00 00 00 
    e034:	c7 85 50 f0 ff ff 01 	movl   $0x1,-0xfb0(%rbp)
    e03b:	00 00 00 
    e03e:	c7 85 54 f0 ff ff 01 	movl   $0x1,-0xfac(%rbp)
    e045:	00 00 00 
    e048:	c7 85 58 f0 ff ff 01 	movl   $0x1,-0xfa8(%rbp)
    e04f:	00 00 00 
    e052:	c7 85 5c f0 ff ff 01 	movl   $0x1,-0xfa4(%rbp)
    e059:	00 00 00 
    e05c:	c7 85 60 f0 ff ff 25 	movl   $0x7eed7d25,-0xfa0(%rbp)
    e063:	7d ed 7e 
    e066:	c7 85 64 f0 ff ff 01 	movl   $0x1,-0xf9c(%rbp)
    e06d:	00 00 00 
    e070:	c7 85 68 f0 ff ff 01 	movl   $0x1,-0xf98(%rbp)
    e077:	00 00 00 
    e07a:	c7 85 6c f0 ff ff 25 	movl   $0x7eed7d25,-0xf94(%rbp)
    e081:	7d ed 7e 
    e084:	c7 85 70 f0 ff ff 01 	movl   $0x1,-0xf90(%rbp)
    e08b:	00 00 00 
    e08e:	c7 85 74 f0 ff ff 25 	movl   $0x7eed7d25,-0xf8c(%rbp)
    e095:	7d ed 7e 
    e098:	c7 85 78 f0 ff ff 01 	movl   $0x1,-0xf88(%rbp)
    e09f:	00 00 00 
    e0a2:	c7 85 7c f0 ff ff 01 	movl   $0x1,-0xf84(%rbp)
    e0a9:	00 00 00 
    e0ac:	c7 85 80 f0 ff ff 25 	movl   $0x7eed7d25,-0xf80(%rbp)
    e0b3:	7d ed 7e 
    e0b6:	c7 85 84 f0 ff ff 01 	movl   $0x1,-0xf7c(%rbp)
    e0bd:	00 00 00 
    e0c0:	c7 85 88 f0 ff ff 01 	movl   $0x1,-0xf78(%rbp)
    e0c7:	00 00 00 
    e0ca:	c7 85 8c f0 ff ff 01 	movl   $0x1,-0xf74(%rbp)
    e0d1:	00 00 00 
    e0d4:	c7 85 90 f0 ff ff 01 	movl   $0x1,-0xf70(%rbp)
    e0db:	00 00 00 
    e0de:	c7 85 94 f0 ff ff 01 	movl   $0x1,-0xf6c(%rbp)
    e0e5:	00 00 00 
    e0e8:	c7 85 98 f0 ff ff 01 	movl   $0x1,-0xf68(%rbp)
    e0ef:	00 00 00 
    e0f2:	c7 85 9c f0 ff ff 01 	movl   $0x1,-0xf64(%rbp)
    e0f9:	00 00 00 
    e0fc:	c7 85 a0 f0 ff ff 01 	movl   $0x1,-0xf60(%rbp)
    e103:	00 00 00 
    e106:	c7 85 a4 f0 ff ff 01 	movl   $0x1,-0xf5c(%rbp)
    e10d:	00 00 00 
    e110:	c7 85 a8 f0 ff ff 25 	movl   $0x7eed7d25,-0xf58(%rbp)
    e117:	7d ed 7e 
    e11a:	c7 85 ac f0 ff ff 01 	movl   $0x1,-0xf54(%rbp)
    e121:	00 00 00 
    e124:	48 b8 75 9a 6a eb 9c 	movabs $0x2a17659ceb6a9a75,%rax
    e12b:	65 17 2a 
    e12e:	48 89 85 98 ef ff ff 	mov    %rax,-0x1068(%rbp)
    e135:	c7 85 b4 ee ff ff 00 	movl   $0x0,-0x114c(%rbp)
    e13c:	00 00 00 
    e13f:	eb 1a                	jmp    e15b <func_28+0x1704>
    e141:	8b 85 b4 ee ff ff    	mov    -0x114c(%rbp),%eax
    e147:	48 98                	cltq   
    e149:	c7 84 85 a4 ef ff ff 	movl   $0xfffffffa,-0x105c(%rbp,%rax,4)
    e150:	fa ff ff ff 
    e154:	83 85 b4 ee ff ff 01 	addl   $0x1,-0x114c(%rbp)
    e15b:	83 bd b4 ee ff ff 00 	cmpl   $0x0,-0x114c(%rbp)
    e162:	7e dd                	jle    e141 <func_28+0x16ea>
    e164:	c7 85 b4 ee ff ff 00 	movl   $0x0,-0x114c(%rbp)
    e16b:	00 00 00 
    e16e:	eb 1e                	jmp    e18e <func_28+0x1737>
    e170:	8b 85 b4 ee ff ff    	mov    -0x114c(%rbp),%eax
    e176:	48 98                	cltq   
    e178:	48 8d 15 f1 3e 00 00 	lea    0x3ef1(%rip),%rdx        # 12070 <g_2298>
    e17f:	48 89 94 c5 a8 ef ff 	mov    %rdx,-0x1058(%rbp,%rax,8)
    e186:	ff 
    e187:	83 85 b4 ee ff ff 01 	addl   $0x1,-0x114c(%rbp)
    e18e:	83 bd b4 ee ff ff 00 	cmpl   $0x0,-0x114c(%rbp)
    e195:	7e d9                	jle    e170 <func_28+0x1719>
    e197:	c7 85 b4 ee ff ff 00 	movl   $0x0,-0x114c(%rbp)
    e19e:	00 00 00 
    e1a1:	eb 21                	jmp    e1c4 <func_28+0x176d>
    e1a3:	8b 85 b4 ee ff ff    	mov    -0x114c(%rbp),%eax
    e1a9:	48 98                	cltq   
    e1ab:	48 b9 af 69 93 19 d7 	movabs $0x2f9b92d7199369af,%rcx
    e1b2:	92 9b 2f 
    e1b5:	48 89 8c c5 b0 ef ff 	mov    %rcx,-0x1050(%rbp,%rax,8)
    e1bc:	ff 
    e1bd:	83 85 b4 ee ff ff 01 	addl   $0x1,-0x114c(%rbp)
    e1c4:	83 bd b4 ee ff ff 02 	cmpl   $0x2,-0x114c(%rbp)
    e1cb:	7e d6                	jle    e1a3 <func_28+0x174c>
    e1cd:	8b 85 ac ee ff ff    	mov    -0x1154(%rbp),%eax
    e1d3:	41 89 c7             	mov    %eax,%r15d
    e1d6:	44 0f b7 b5 8c ee ff 	movzwl -0x1174(%rbp),%r14d
    e1dd:	ff 
    e1de:	44 0f b7 a5 8c ee ff 	movzwl -0x1174(%rbp),%r12d
    e1e5:	ff 
    e1e6:	48 8b 1d 83 6e 00 00 	mov    0x6e83(%rip),%rbx        # 15070 <g_281>
    e1ed:	48 8d 43 ff          	lea    -0x1(%rbx),%rax
    e1f1:	48 89 05 78 6e 00 00 	mov    %rax,0x6e78(%rip)        # 15070 <g_281>
    e1f8:	44 0f b7 ad 8c ee ff 	movzwl -0x1174(%rbp),%r13d
    e1ff:	ff 
    e200:	0f b7 95 8c ee ff ff 	movzwl -0x1174(%rbp),%edx
    e207:	8b 85 a0 ee ff ff    	mov    -0x1160(%rbp),%eax
    e20d:	0f be c0             	movsbl %al,%eax
    e210:	89 d6                	mov    %edx,%esi
    e212:	89 c7                	mov    %eax,%edi
    e214:	e8 1c b1 ff ff       	callq  9335 <safe_rshift_func_int8_t_s_s>
    e219:	84 c0                	test   %al,%al
    e21b:	74 29                	je     e246 <func_28+0x17ef>
    e21d:	0f b7 95 8c ee ff ff 	movzwl -0x1174(%rbp),%edx
    e224:	8b 85 a4 ee ff ff    	mov    -0x115c(%rbp),%eax
    e22a:	0f be c0             	movsbl %al,%eax
    e22d:	89 d6                	mov    %edx,%esi
    e22f:	89 c7                	mov    %eax,%edi
    e231:	e8 36 b1 ff ff       	callq  936c <safe_rshift_func_int8_t_s_u>
    e236:	84 c0                	test   %al,%al
    e238:	74 0c                	je     e246 <func_28+0x17ef>
    e23a:	c7 85 88 ee ff ff 01 	movl   $0x1,-0x1178(%rbp)
    e241:	00 00 00 
    e244:	eb 0a                	jmp    e250 <func_28+0x17f9>
    e246:	c7 85 88 ee ff ff 00 	movl   $0x0,-0x1178(%rbp)
    e24d:	00 00 00 
    e250:	be f8 ff ff ff       	mov    $0xfffffff8,%esi
    e255:	bf 06 00 00 00       	mov    $0x6,%edi
    e25a:	e8 b7 b1 ff ff       	callq  9416 <safe_mod_func_int16_t_s_s>
    e25f:	83 e0 fb             	and    $0xfffffffb,%eax
    e262:	98                   	cwtl   
    e263:	39 85 88 ee ff ff    	cmp    %eax,-0x1178(%rbp)
    e269:	0f 9f c0             	setg   %al
    e26c:	0f b6 c0             	movzbl %al,%eax
    e26f:	89 85 9c ee ff ff    	mov    %eax,-0x1164(%rbp)
    e275:	8b 85 9c ee ff ff    	mov    -0x1164(%rbp),%eax
    e27b:	48 98                	cltq   
    e27d:	4c 89 ee             	mov    %r13,%rsi
    e280:	48 89 c7             	mov    %rax,%rdi
    e283:	e8 20 b6 ff ff       	callq  98a8 <safe_sub_func_int64_t_s_s>
    e288:	48 39 c3             	cmp    %rax,%rbx
    e28b:	0f 95 c0             	setne  %al
    e28e:	0f b6 d0             	movzbl %al,%edx
    e291:	0f b7 85 8c ee ff ff 	movzwl -0x1174(%rbp),%eax
    e298:	31 c2                	xor    %eax,%edx
    e29a:	48 8b 05 97 91 00 00 	mov    0x9197(%rip),%rax        # 17438 <g_641>
    e2a1:	66 89 10             	mov    %dx,(%rax)
    e2a4:	0f b7 00             	movzwl (%rax),%eax
    e2a7:	0f b7 c0             	movzwl %ax,%eax
    e2aa:	44 89 e6             	mov    %r12d,%esi
    e2ad:	89 c7                	mov    %eax,%edi
    e2af:	e8 89 ba ff ff       	callq  9d3d <safe_mul_func_uint16_t_u_u>
    e2b4:	89 c2                	mov    %eax,%edx
    e2b6:	8b 85 a0 ee ff ff    	mov    -0x1160(%rbp),%eax
    e2bc:	09 d0                	or     %edx,%eax
    e2be:	0f be c0             	movsbl %al,%eax
    e2c1:	be 19 00 00 00       	mov    $0x19,%esi
    e2c6:	89 c7                	mov    %eax,%edi
    e2c8:	e8 9d af ff ff       	callq  926a <safe_div_func_int8_t_s_s>
    e2cd:	0f be c0             	movsbl %al,%eax
    e2d0:	be 01 00 00 00       	mov    $0x1,%esi
    e2d5:	89 c7                	mov    %eax,%edi
    e2d7:	e8 f4 bb ff ff       	callq  9ed0 <safe_sub_func_uint32_t_u_u>
    e2dc:	3d f6 00 00 00       	cmp    $0xf6,%eax
    e2e1:	76 07                	jbe    e2ea <func_28+0x1893>
    e2e3:	b8 f8 00 00 00       	mov    $0xf8,%eax
    e2e8:	eb 05                	jmp    e2ef <func_28+0x1898>
    e2ea:	b8 f9 00 00 00       	mov    $0xf9,%eax
    e2ef:	4c 39 f0             	cmp    %r14,%rax
    e2f2:	0f 96 c0             	setbe  %al
    e2f5:	0f b6 d0             	movzbl %al,%edx
    e2f8:	48 8b 85 08 ef ff ff 	mov    -0x10f8(%rbp),%rax
    e2ff:	89 10                	mov    %edx,(%rax)
    e301:	48 8b 85 08 ef ff ff 	mov    -0x10f8(%rbp),%rax
    e308:	8b 00                	mov    (%rax),%eax
    e30a:	44 89 fe             	mov    %r15d,%esi
    e30d:	89 c7                	mov    %eax,%edi
    e30f:	e8 b8 b3 ff ff       	callq  96cc <safe_mod_func_int32_t_s_s>
    e314:	48 8b 95 10 ef ff ff 	mov    -0x10f0(%rbp),%rdx
    e31b:	8b 12                	mov    (%rdx),%edx
    e31d:	31 c2                	xor    %eax,%edx
    e31f:	48 8b 85 10 ef ff ff 	mov    -0x10f0(%rbp),%rax
    e326:	89 10                	mov    %edx,(%rax)
    e328:	48 8b 05 c9 9c 00 00 	mov    0x9cc9(%rip),%rax        # 17ff8 <g_1863>
    e32f:	48 8b 00             	mov    (%rax),%rax
    e332:	48 8b 00             	mov    (%rax),%rax
    e335:	48 8b 5d c8          	mov    -0x38(%rbp),%rbx
    e339:	64 48 33 1c 25 28 00 	xor    %fs:0x28,%rbx
    e340:	00 00 
    e342:	74 05                	je     e349 <func_28+0x18f2>
    e344:	e8 27 ad ff ff       	callq  9070 <__stack_chk_fail@plt>
    e349:	48 81 c4 58 11 00 00 	add    $0x1158,%rsp
    e350:	5b                   	pop    %rbx
    e351:	41 5c                	pop    %r12
    e353:	41 5d                	pop    %r13
    e355:	41 5e                	pop    %r14
    e357:	41 5f                	pop    %r15
    e359:	5d                   	pop    %rbp
    e35a:	c3                   	retq   

000000000000e35b <func_30>:
    e35b:	f3 0f 1e fa          	endbr64 
    e35f:	55                   	push   %rbp
    e360:	48 89 e5             	mov    %rsp,%rbp
    e363:	41 57                	push   %r15
    e365:	41 56                	push   %r14
    e367:	41 55                	push   %r13
    e369:	41 54                	push   %r12
    e36b:	53                   	push   %rbx
    e36c:	48 81 ec e8 01 00 00 	sub    $0x1e8,%rsp
    e373:	89 f8                	mov    %edi,%eax
    e375:	89 f1                	mov    %esi,%ecx
    e377:	48 89 95 f0 fd ff ff 	mov    %rdx,-0x210(%rbp)
    e37e:	66 89 85 fc fd ff ff 	mov    %ax,-0x204(%rbp)
    e385:	89 c8                	mov    %ecx,%eax
    e387:	88 85 f8 fd ff ff    	mov    %al,-0x208(%rbp)
    e38d:	64 48 8b 04 25 28 00 	mov    %fs:0x28,%rax
    e394:	00 00 
    e396:	48 89 45 c8          	mov    %rax,-0x38(%rbp)
    e39a:	31 c0                	xor    %eax,%eax
    e39c:	48 8d 05 a1 6d 00 00 	lea    0x6da1(%rip),%rax        # 15144 <g_373>
    e3a3:	48 89 85 68 fe ff ff 	mov    %rax,-0x198(%rbp)
    e3aa:	48 8d 05 97 6d 00 00 	lea    0x6d97(%rip),%rax        # 15148 <g_395>
    e3b1:	48 89 85 70 fe ff ff 	mov    %rax,-0x190(%rbp)
    e3b8:	48 8d 05 89 6c 00 00 	lea    0x6c89(%rip),%rax        # 15048 <g_150>
    e3bf:	48 89 85 78 fe ff ff 	mov    %rax,-0x188(%rbp)
    e3c6:	66 c7 85 10 fe ff ff 	movw   $0x5295,-0x1f0(%rbp)
    e3cd:	95 52 
    e3cf:	48 8d 05 5a 6c 00 00 	lea    0x6c5a(%rip),%rax        # 15030 <g_101>
    e3d6:	48 89 85 38 fe ff ff 	mov    %rax,-0x1c8(%rbp)
    e3dd:	48 b8 ba 5e cf 14 5a 	movabs $0xc8b5565a14cf5eba,%rax
    e3e4:	56 b5 c8 
    e3e7:	48 89 85 40 fe ff ff 	mov    %rax,-0x1c0(%rbp)
    e3ee:	48 8d 05 83 6c 00 00 	lea    0x6c83(%rip),%rax        # 15078 <g_312>
    e3f5:	48 89 85 48 fe ff ff 	mov    %rax,-0x1b8(%rbp)
    e3fc:	c6 85 0c fe ff ff 00 	movb   $0x0,-0x1f4(%rbp)
    e403:	c7 85 18 fe ff ff fd 	movl   $0xfffffffd,-0x1e8(%rbp)
    e40a:	ff ff ff 
    e40d:	48 8d 85 40 fe ff ff 	lea    -0x1c0(%rbp),%rax
    e414:	48 89 85 80 fe ff ff 	mov    %rax,-0x180(%rbp)
    e41b:	c7 85 1c fe ff ff 09 	movl   $0x9,-0x1e4(%rbp)
    e422:	00 00 00 
    e425:	c7 85 20 fe ff ff dc 	movl   $0x9e8e3edc,-0x1e0(%rbp)
    e42c:	3e 8e 9e 
    e42f:	c7 85 24 fe ff ff 20 	movl   $0xd6b76d20,-0x1dc(%rbp)
    e436:	6d b7 d6 
    e439:	c7 85 40 ff ff ff a5 	movl   $0x2adcfaa5,-0xc0(%rbp)
    e440:	fa dc 2a 
    e443:	c7 85 44 ff ff ff a5 	movl   $0x2adcfaa5,-0xbc(%rbp)
    e44a:	fa dc 2a 
    e44d:	c7 85 48 ff ff ff a5 	movl   $0x2adcfaa5,-0xb8(%rbp)
    e454:	fa dc 2a 
    e457:	c7 85 4c ff ff ff a5 	movl   $0x2adcfaa5,-0xb4(%rbp)
    e45e:	fa dc 2a 
    e461:	c7 85 50 ff ff ff a5 	movl   $0x2adcfaa5,-0xb0(%rbp)
    e468:	fa dc 2a 
    e46b:	c7 85 54 ff ff ff a5 	movl   $0x2adcfaa5,-0xac(%rbp)
    e472:	fa dc 2a 
    e475:	c7 85 58 ff ff ff a5 	movl   $0x2adcfaa5,-0xa8(%rbp)
    e47c:	fa dc 2a 
    e47f:	48 c7 85 88 fe ff ff 	movq   $0xfffffffffffffff7,-0x178(%rbp)
    e486:	f7 ff ff ff 
    e48a:	48 8d 05 57 8f 00 00 	lea    0x8f57(%rip),%rax        # 173e8 <g_432>
    e491:	48 89 85 90 fe ff ff 	mov    %rax,-0x170(%rbp)
    e498:	c6 85 0d fe ff ff ff 	movb   $0xff,-0x1f3(%rbp)
    e49f:	48 c7 85 98 fe ff ff 	movq   $0x1,-0x168(%rbp)
    e4a6:	01 00 00 00 
    e4aa:	48 c7 85 50 fe ff ff 	movq   $0x0,-0x1b0(%rbp)
    e4b1:	00 00 00 00 
    e4b5:	48 8d 85 50 fe ff ff 	lea    -0x1b0(%rbp),%rax
    e4bc:	48 89 85 58 fe ff ff 	mov    %rax,-0x1a8(%rbp)
    e4c3:	48 c7 85 a0 fe ff ff 	movq   $0x1,-0x160(%rbp)
    e4ca:	01 00 00 00 
    e4ce:	c7 85 20 ff ff ff c1 	movl   $0xbb1d7c1,-0xe0(%rbp)
    e4d5:	d7 b1 0b 
    e4d8:	c7 85 24 ff ff ff c1 	movl   $0xbb1d7c1,-0xdc(%rbp)
    e4df:	d7 b1 0b 
    e4e2:	c7 85 28 ff ff ff c1 	movl   $0xbb1d7c1,-0xd8(%rbp)
    e4e9:	d7 b1 0b 
    e4ec:	c7 85 2c ff ff ff c1 	movl   $0xbb1d7c1,-0xd4(%rbp)
    e4f3:	d7 b1 0b 
    e4f6:	c7 85 30 ff ff ff c1 	movl   $0xbb1d7c1,-0xd0(%rbp)
    e4fd:	d7 b1 0b 
    e500:	c7 85 34 ff ff ff c1 	movl   $0xbb1d7c1,-0xcc(%rbp)
    e507:	d7 b1 0b 
    e50a:	c6 85 0e fe ff ff 01 	movb   $0x1,-0x1f2(%rbp)
    e511:	48 8d 05 18 6b 00 00 	lea    0x6b18(%rip),%rax        # 15030 <g_101>
    e518:	48 89 85 a8 fe ff ff 	mov    %rax,-0x158(%rbp)
    e51f:	66 c7 85 12 fe ff ff 	movw   $0x622,-0x1ee(%rbp)
    e526:	22 06 
    e528:	48 c7 45 80 00 00 00 	movq   $0x0,-0x80(%rbp)
    e52f:	00 
    e530:	48 c7 45 88 00 00 00 	movq   $0x0,-0x78(%rbp)
    e537:	00 
    e538:	48 c7 45 90 00 00 00 	movq   $0x0,-0x70(%rbp)
    e53f:	00 
    e540:	48 c7 45 98 00 00 00 	movq   $0x0,-0x68(%rbp)
    e547:	00 
    e548:	48 c7 45 a0 00 00 00 	movq   $0x0,-0x60(%rbp)
    e54f:	00 
    e550:	48 c7 45 a8 00 00 00 	movq   $0x0,-0x58(%rbp)
    e557:	00 
    e558:	48 c7 45 b0 00 00 00 	movq   $0x0,-0x50(%rbp)
    e55f:	00 
    e560:	48 c7 45 b8 00 00 00 	movq   $0x0,-0x48(%rbp)
    e567:	00 
    e568:	48 8d 85 40 ff ff ff 	lea    -0xc0(%rbp),%rax
    e56f:	48 89 85 b0 fe ff ff 	mov    %rax,-0x150(%rbp)
    e576:	48 c7 85 b8 fe ff ff 	movq   $0x0,-0x148(%rbp)
    e57d:	00 00 00 00 
    e581:	48 8d 85 58 fe ff ff 	lea    -0x1a8(%rbp),%rax
    e588:	48 89 85 60 ff ff ff 	mov    %rax,-0xa0(%rbp)
    e58f:	48 8d 85 58 fe ff ff 	lea    -0x1a8(%rbp),%rax
    e596:	48 89 85 68 ff ff ff 	mov    %rax,-0x98(%rbp)
    e59d:	48 8d 85 58 fe ff ff 	lea    -0x1a8(%rbp),%rax
    e5a4:	48 89 85 70 ff ff ff 	mov    %rax,-0x90(%rbp)
    e5ab:	48 8d 85 58 fe ff ff 	lea    -0x1a8(%rbp),%rax
    e5b2:	48 89 85 78 ff ff ff 	mov    %rax,-0x88(%rbp)
    e5b9:	48 8b 85 f0 fd ff ff 	mov    -0x210(%rbp),%rax
    e5c0:	8b 10                	mov    (%rax),%edx
    e5c2:	48 8b 85 68 fe ff ff 	mov    -0x198(%rbp),%rax
    e5c9:	89 10                	mov    %edx,(%rax)
    e5cb:	48 8b 85 70 fe ff ff 	mov    -0x190(%rbp),%rax
    e5d2:	8b 10                	mov    (%rax),%edx
    e5d4:	48 8b 05 35 83 00 00 	mov    0x8335(%rip),%rax        # 16910 <g_243>
    e5db:	8b 00                	mov    (%rax),%eax
    e5dd:	31 c2                	xor    %eax,%edx
    e5df:	48 8b 85 70 fe ff ff 	mov    -0x190(%rbp),%rax
    e5e6:	89 10                	mov    %edx,(%rax)
    e5e8:	48 8b 85 70 fe ff ff 	mov    -0x190(%rbp),%rax
    e5ef:	8b 00                	mov    (%rax),%eax
    e5f1:	85 c0                	test   %eax,%eax
    e5f3:	0f 85 ba 01 00 00    	jne    e7b3 <func_30+0x458>
    e5f9:	0f be 9d f8 fd ff ff 	movsbl -0x208(%rbp),%ebx
    e600:	48 8b 85 78 fe ff ff 	mov    -0x188(%rbp),%rax
    e607:	0f b6 00             	movzbl (%rax),%eax
    e60a:	8d 48 01             	lea    0x1(%rax),%ecx
    e60d:	48 8b 95 78 fe ff ff 	mov    -0x188(%rbp),%rdx
    e614:	88 0a                	mov    %cl,(%rdx)
    e616:	44 0f b6 f8          	movzbl %al,%r15d
    e61a:	44 0f be a5 f8 fd ff 	movsbl -0x208(%rbp),%r12d
    e621:	ff 
    e622:	0f b6 05 20 6a 00 00 	movzbl 0x6a20(%rip),%eax        # 15049 <g_157>
    e629:	44 0f be e8          	movsbl %al,%r13d
    e62d:	48 8b 85 40 fe ff ff 	mov    -0x1c0(%rbp),%rax
    e634:	0f be c0             	movsbl %al,%eax
    e637:	be 02 00 00 00       	mov    $0x2,%esi
    e63c:	89 c7                	mov    %eax,%edi
    e63e:	e8 cf ab ff ff       	callq  9212 <safe_mul_func_int8_t_s_s>
    e643:	84 c0                	test   %al,%al
    e645:	75 0a                	jne    e651 <func_30+0x2f6>
    e647:	0f b7 05 da 69 00 00 	movzwl 0x69da(%rip),%eax        # 15028 <g_75>
    e64e:	66 85 c0             	test   %ax,%ax
    e651:	44 0f be b5 f8 fd ff 	movsbl -0x208(%rbp),%r14d
    e658:	ff 
    e659:	48 8b 85 f0 fd ff ff 	mov    -0x210(%rbp),%rax
    e660:	8b 10                	mov    (%rax),%edx
    e662:	48 8b 85 f0 fd ff ff 	mov    -0x210(%rbp),%rax
    e669:	8b 00                	mov    (%rax),%eax
    e66b:	89 d6                	mov    %edx,%esi
    e66d:	89 c7                	mov    %eax,%edi
    e66f:	e8 91 af ff ff       	callq  9605 <safe_sub_func_int32_t_s_s>
    e674:	85 c0                	test   %eax,%eax
    e676:	0f 94 c0             	sete   %al
    e679:	0f b6 c0             	movzbl %al,%eax
    e67c:	44 89 f6             	mov    %r14d,%esi
    e67f:	89 c7                	mov    %eax,%edi
    e681:	e8 c6 b5 ff ff       	callq  9c4c <safe_lshift_func_uint8_t_u_u>
    e686:	89 c2                	mov    %eax,%edx
    e688:	48 8b 85 38 fe ff ff 	mov    -0x1c8(%rbp),%rax
    e68f:	0f b6 d2             	movzbl %dl,%edx
    e692:	66 89 10             	mov    %dx,(%rax)
    e695:	0f b7 00             	movzwl (%rax),%eax
    e698:	0f b7 d0             	movzwl %ax,%edx
    e69b:	48 8b 85 68 fe ff ff 	mov    -0x198(%rbp),%rax
    e6a2:	8b 00                	mov    (%rax),%eax
    e6a4:	39 c2                	cmp    %eax,%edx
    e6a6:	0f 9c c0             	setl   %al
    e6a9:	0f b6 c0             	movzbl %al,%eax
    e6ac:	be 01 00 00 00       	mov    $0x1,%esi
    e6b1:	48 89 c7             	mov    %rax,%rdi
    e6b4:	e8 88 b1 ff ff       	callq  9841 <safe_add_func_int64_t_s_s>
    e6b9:	0f b7 95 fc fd ff ff 	movzwl -0x204(%rbp),%edx
    e6c0:	48 09 c2             	or     %rax,%rdx
    e6c3:	0f b6 05 f9 69 00 00 	movzbl 0x69f9(%rip),%eax        # 150c3 <g_352+0x43>
    e6ca:	0f b6 c0             	movzbl %al,%eax
    e6cd:	48 39 c2             	cmp    %rax,%rdx
    e6d0:	0f 94 c0             	sete   %al
    e6d3:	0f b6 d0             	movzbl %al,%edx
    e6d6:	48 8b 85 68 fe ff ff 	mov    -0x198(%rbp),%rax
    e6dd:	89 10                	mov    %edx,(%rax)
    e6df:	48 8b 85 68 fe ff ff 	mov    -0x198(%rbp),%rax
    e6e6:	8b 08                	mov    (%rax),%ecx
    e6e8:	48 8b 85 48 fe ff ff 	mov    -0x1b8(%rbp),%rax
    e6ef:	0f b7 10             	movzwl (%rax),%edx
    e6f2:	48 8b 85 48 fe ff ff 	mov    -0x1b8(%rbp),%rax
    e6f9:	09 ca                	or     %ecx,%edx
    e6fb:	66 89 10             	mov    %dx,(%rax)
    e6fe:	0f b7 00             	movzwl (%rax),%eax
    e701:	98                   	cwtl   
    e702:	be 0b 00 00 00       	mov    $0xb,%esi
    e707:	89 c7                	mov    %eax,%edi
    e709:	e8 d3 ad ff ff       	callq  94e1 <safe_lshift_func_int16_t_s_u>
    e70e:	98                   	cwtl   
    e70f:	be 0e 00 00 00       	mov    $0xe,%esi
    e714:	89 c7                	mov    %eax,%edi
    e716:	e8 c6 ad ff ff       	callq  94e1 <safe_lshift_func_int16_t_s_u>
    e71b:	0f be c0             	movsbl %al,%eax
    e71e:	44 89 ee             	mov    %r13d,%esi
    e721:	89 c7                	mov    %eax,%edi
    e723:	e8 44 ac ff ff       	callq  936c <safe_rshift_func_int8_t_s_u>
    e728:	0f be c0             	movsbl %al,%eax
    e72b:	44 89 e6             	mov    %r12d,%esi
    e72e:	89 c7                	mov    %eax,%edi
    e730:	e8 dd aa ff ff       	callq  9212 <safe_mul_func_int8_t_s_s>
    e735:	0f be d0             	movsbl %al,%edx
    e738:	0f bf 85 10 fe ff ff 	movswl -0x1f0(%rbp),%eax
    e73f:	89 d6                	mov    %edx,%esi
    e741:	89 c7                	mov    %eax,%edi
    e743:	e8 bd ae ff ff       	callq  9605 <safe_sub_func_int32_t_s_s>
    e748:	41 39 c7             	cmp    %eax,%r15d
    e74b:	0f 9f c0             	setg   %al
    e74e:	0f b6 d0             	movzbl %al,%edx
    e751:	48 8b 85 f0 fd ff ff 	mov    -0x210(%rbp),%rax
    e758:	8b 00                	mov    (%rax),%eax
    e75a:	39 c2                	cmp    %eax,%edx
    e75c:	0f 94 c0             	sete   %al
    e75f:	0f b6 c0             	movzbl %al,%eax
    e762:	be 71 37 21 32       	mov    $0x32213771,%esi
    e767:	89 c7                	mov    %eax,%edi
    e769:	e8 48 ae ff ff       	callq  95b6 <safe_add_func_int32_t_s_s>
    e76e:	89 de                	mov    %ebx,%esi
    e770:	bf 01 00 00 00       	mov    $0x1,%edi
    e775:	e8 8b ae ff ff       	callq  9605 <safe_sub_func_int32_t_s_s>
    e77a:	48 98                	cltq   
    e77c:	25 6f fa 00 00       	and    $0xfa6f,%eax
    e781:	48 85 c0             	test   %rax,%rax
    e784:	74 11                	je     e797 <func_30+0x43c>
    e786:	66 83 bd fc fd ff ff 	cmpw   $0x0,-0x204(%rbp)
    e78d:	00 
    e78e:	74 07                	je     e797 <func_30+0x43c>
    e790:	b8 01 00 00 00       	mov    $0x1,%eax
    e795:	eb 05                	jmp    e79c <func_30+0x441>
    e797:	b8 00 00 00 00       	mov    $0x0,%eax
    e79c:	98                   	cwtl   
    e79d:	be 01 00 00 00       	mov    $0x1,%esi
    e7a2:	89 c7                	mov    %eax,%edi
    e7a4:	e8 0a ac ff ff       	callq  93b3 <safe_add_func_int16_t_s_s>
    e7a9:	66 83 f8 02          	cmp    $0x2,%ax
    e7ad:	0f 84 b1 00 00 00    	je     e864 <func_30+0x509>
    e7b3:	c7 85 34 fe ff ff ff 	movl   $0xffffffff,-0x1cc(%rbp)
    e7ba:	ff ff ff 
    e7bd:	c7 05 5d 68 00 00 01 	movl   $0x1,0x685d(%rip)        # 15024 <g_39>
    e7c4:	00 00 00 
    e7c7:	e9 85 00 00 00       	jmpq   e851 <func_30+0x4f6>
    e7cc:	48 8d 05 8d 68 00 00 	lea    0x688d(%rip),%rax        # 15060 <g_188>
    e7d3:	48 89 85 f8 fe ff ff 	mov    %rax,-0x108(%rbp)
    e7da:	48 8b 05 47 8c 00 00 	mov    0x8c47(%rip),%rax        # 17428 <g_532>
    e7e1:	48 8b 95 f8 fe ff ff 	mov    -0x108(%rbp),%rdx
    e7e8:	48 89 10             	mov    %rdx,(%rax)
    e7eb:	48 8b 05 ee 8b 00 00 	mov    0x8bee(%rip),%rax        # 173e0 <g_433>
    e7f2:	0f b6 08             	movzbl (%rax),%ecx
    e7f5:	8b 05 29 68 00 00    	mov    0x6829(%rip),%eax        # 15024 <g_39>
    e7fb:	48 98                	cltq   
    e7fd:	48 8d 14 c5 00 00 00 	lea    0x0(,%rax,8),%rdx
    e804:	00 
    e805:	48 8d 05 44 68 00 00 	lea    0x6844(%rip),%rax        # 15050 <g_183>
    e80c:	48 8b 04 02          	mov    (%rdx,%rax,1),%rax
    e810:	48 85 c0             	test   %rax,%rax
    e813:	75 0a                	jne    e81f <func_30+0x4c4>
    e815:	66 83 bd fc fd ff ff 	cmpw   $0x0,-0x204(%rbp)
    e81c:	00 
    e81d:	74 07                	je     e826 <func_30+0x4cb>
    e81f:	b8 01 00 00 00       	mov    $0x1,%eax
    e824:	eb 05                	jmp    e82b <func_30+0x4d0>
    e826:	b8 00 00 00 00       	mov    $0x0,%eax
    e82b:	89 c2                	mov    %eax,%edx
    e82d:	48 8b 05 ac 8b 00 00 	mov    0x8bac(%rip),%rax        # 173e0 <g_433>
    e834:	09 ca                	or     %ecx,%edx
    e836:	88 10                	mov    %dl,(%rax)
    e838:	c7 85 34 fe ff ff 01 	movl   $0x1,-0x1cc(%rbp)
    e83f:	00 00 00 
    e842:	8b 05 dc 67 00 00    	mov    0x67dc(%rip),%eax        # 15024 <g_39>
    e848:	83 e8 01             	sub    $0x1,%eax
    e84b:	89 05 d3 67 00 00    	mov    %eax,0x67d3(%rip)        # 15024 <g_39>
    e851:	8b 05 cd 67 00 00    	mov    0x67cd(%rip),%eax        # 15024 <g_39>
    e857:	85 c0                	test   %eax,%eax
    e859:	0f 89 6d ff ff ff    	jns    e7cc <func_30+0x471>
    e85f:	e9 7f 03 00 00       	jmpq   ebe3 <func_30+0x888>
    e864:	48 b8 53 0e b8 0d 0f 	movabs $0xabe2860f0db80e53,%rax
    e86b:	86 e2 ab 
    e86e:	48 89 85 c0 fe ff ff 	mov    %rax,-0x140(%rbp)
    e875:	c7 85 28 fe ff ff 18 	movl   $0x9bd76918,-0x1d8(%rbp)
    e87c:	69 d7 9b 
    e87f:	48 c7 85 c8 fe ff ff 	movq   $0x0,-0x138(%rbp)
    e886:	00 00 00 00 
    e88a:	48 8d 85 38 fe ff ff 	lea    -0x1c8(%rbp),%rax
    e891:	48 89 85 d0 fe ff ff 	mov    %rax,-0x130(%rbp)
    e898:	48 8d 05 85 67 00 00 	lea    0x6785(%rip),%rax        # 15024 <g_39>
    e89f:	48 89 85 d8 fe ff ff 	mov    %rax,-0x128(%rbp)
    e8a6:	c7 85 2c fe ff ff f7 	movl   $0xfffffff7,-0x1d4(%rbp)
    e8ad:	ff ff ff 
    e8b0:	c7 85 30 fe ff ff 01 	movl   $0x5a978901,-0x1d0(%rbp)
    e8b7:	89 97 5a 
    e8ba:	c7 85 10 ff ff ff 01 	movl   $0x1,-0xf0(%rbp)
    e8c1:	00 00 00 
    e8c4:	c7 85 14 ff ff ff 01 	movl   $0x1,-0xec(%rbp)
    e8cb:	00 00 00 
    e8ce:	c7 85 18 ff ff ff 01 	movl   $0x1,-0xe8(%rbp)
    e8d5:	00 00 00 
    e8d8:	c7 85 1c ff ff ff 01 	movl   $0x1,-0xe4(%rbp)
    e8df:	00 00 00 
    e8e2:	48 8d 05 43 67 00 00 	lea    0x6743(%rip),%rax        # 1502c <g_79>
    e8e9:	48 89 85 60 fe ff ff 	mov    %rax,-0x1a0(%rbp)
    e8f0:	48 8d 85 60 fe ff ff 	lea    -0x1a0(%rbp),%rax
    e8f7:	48 89 85 e0 fe ff ff 	mov    %rax,-0x120(%rbp)
    e8fe:	48 8d 05 44 67 00 00 	lea    0x6744(%rip),%rax        # 15049 <g_157>
    e905:	48 89 85 e8 fe ff ff 	mov    %rax,-0x118(%rbp)
    e90c:	48 8d 85 48 fe ff ff 	lea    -0x1b8(%rbp),%rax
    e913:	48 89 85 f0 fe ff ff 	mov    %rax,-0x110(%rbp)
    e91a:	c6 85 0f fe ff ff e0 	movb   $0xe0,-0x1f1(%rbp)
    e921:	c7 85 14 fe ff ff 00 	movl   $0x0,-0x1ec(%rbp)
    e928:	00 00 00 
    e92b:	eb 1a                	jmp    e947 <func_30+0x5ec>
    e92d:	8b 85 14 fe ff ff    	mov    -0x1ec(%rbp),%eax
    e933:	48 98                	cltq   
    e935:	c7 84 85 04 ff ff ff 	movl   $0xad7cea23,-0xfc(%rbp,%rax,4)
    e93c:	23 ea 7c ad 
    e940:	83 85 14 fe ff ff 01 	addl   $0x1,-0x1ec(%rbp)
    e947:	83 bd 14 fe ff ff 02 	cmpl   $0x2,-0x1ec(%rbp)
    e94e:	7e dd                	jle    e92d <func_30+0x5d2>
    e950:	48 8b 05 b9 7f 00 00 	mov    0x7fb9(%rip),%rax        # 16910 <g_243>
    e957:	8b 00                	mov    (%rax),%eax
    e959:	85 c0                	test   %eax,%eax
    e95b:	0f 85 dc 00 00 00    	jne    ea3d <func_30+0x6e2>
    e961:	48 8b 85 68 fe ff ff 	mov    -0x198(%rbp),%rax
    e968:	8b 00                	mov    (%rax),%eax
    e96a:	41 89 c4             	mov    %eax,%r12d
    e96d:	48 8b 9d c0 fe ff ff 	mov    -0x140(%rbp),%rbx
    e974:	48 8b 05 65 8a 00 00 	mov    0x8a65(%rip),%rax        # 173e0 <g_433>
    e97b:	0f b6 00             	movzbl (%rax),%eax
    e97e:	0f be c0             	movsbl %al,%eax
    e981:	0c 87                	or     $0x87,%al
    e983:	89 c2                	mov    %eax,%edx
    e985:	48 8b 85 c0 fe ff ff 	mov    -0x140(%rbp),%rax
    e98c:	0f be c0             	movsbl %al,%eax
    e98f:	89 d6                	mov    %edx,%esi
    e991:	89 c7                	mov    %eax,%edi
    e993:	e8 9d a9 ff ff       	callq  9335 <safe_rshift_func_int8_t_s_s>
    e998:	48 8b 85 c0 fe ff ff 	mov    -0x140(%rbp),%rax
    e99f:	98                   	cwtl   
    e9a0:	be 01 00 00 00       	mov    $0x1,%esi
    e9a5:	89 c7                	mov    %eax,%edi
    e9a7:	e8 b7 ab ff ff       	callq  9563 <safe_rshift_func_int16_t_s_u>
    e9ac:	48 0f bf c0          	movswq %ax,%rax
    e9b0:	48 89 de             	mov    %rbx,%rsi
    e9b3:	48 89 c7             	mov    %rax,%rdi
    e9b6:	e8 90 b6 ff ff       	callq  a04b <safe_sub_func_uint64_t_u_u>
    e9bb:	0f b7 d0             	movzwl %ax,%edx
    e9be:	0f b7 85 fc fd ff ff 	movzwl -0x204(%rbp),%eax
    e9c5:	89 d6                	mov    %edx,%esi
    e9c7:	89 c7                	mov    %eax,%edi
    e9c9:	e8 31 b3 ff ff       	callq  9cff <safe_add_func_uint16_t_u_u>
    e9ce:	0f be c0             	movsbl %al,%eax
    e9d1:	be 07 00 00 00       	mov    $0x7,%esi
    e9d6:	89 c7                	mov    %eax,%edi
    e9d8:	e8 c4 a8 ff ff       	callq  92a1 <safe_lshift_func_int8_t_s_s>
    e9dd:	38 85 f8 fd ff ff    	cmp    %al,-0x208(%rbp)
    e9e3:	0f 95 c0             	setne  %al
    e9e6:	89 c2                	mov    %eax,%edx
    e9e8:	48 8b 85 78 fe ff ff 	mov    -0x188(%rbp),%rax
    e9ef:	88 10                	mov    %dl,(%rax)
    e9f1:	48 8b 85 78 fe ff ff 	mov    -0x188(%rbp),%rax
    e9f8:	0f b6 00             	movzbl (%rax),%eax
    e9fb:	0f b6 c0             	movzbl %al,%eax
    e9fe:	89 c7                	mov    %eax,%edi
    ea00:	e8 40 b1 ff ff       	callq  9b45 <safe_unary_minus_func_uint8_t_u>
    ea05:	84 c0                	test   %al,%al
    ea07:	75 0d                	jne    ea16 <func_30+0x6bb>
    ea09:	48 8b 85 68 fe ff ff 	mov    -0x198(%rbp),%rax
    ea10:	8b 00                	mov    (%rax),%eax
    ea12:	85 c0                	test   %eax,%eax
    ea14:	74 07                	je     ea1d <func_30+0x6c2>
    ea16:	b8 01 00 00 00       	mov    $0x1,%eax
    ea1b:	eb 05                	jmp    ea22 <func_30+0x6c7>
    ea1d:	b8 00 00 00 00       	mov    $0x0,%eax
    ea22:	0f be c0             	movsbl %al,%eax
    ea25:	44 89 e6             	mov    %r12d,%esi
    ea28:	89 c7                	mov    %eax,%edi
    ea2a:	e8 bf a8 ff ff       	callq  92ee <safe_lshift_func_int8_t_s_u>
    ea2f:	0f be d0             	movsbl %al,%edx
    ea32:	48 8b 85 f0 fd ff ff 	mov    -0x210(%rbp),%rax
    ea39:	8b 00                	mov    (%rax),%eax
    ea3b:	39 c2                	cmp    %eax,%edx
    ea3d:	8b 85 18 fe ff ff    	mov    -0x1e8(%rbp),%eax
    ea43:	0f be c0             	movsbl %al,%eax
    ea46:	89 c6                	mov    %eax,%esi
    ea48:	bf 01 00 00 00       	mov    $0x1,%edi
    ea4d:	e8 a0 a7 ff ff       	callq  91f2 <safe_sub_func_int8_t_s_s>
    ea52:	0f be d0             	movsbl %al,%edx
    ea55:	66 0f be 85 0c fe ff 	movsbw -0x1f4(%rbp),%ax
    ea5c:	ff 
    ea5d:	0f b7 c0             	movzwl %ax,%eax
    ea60:	89 d6                	mov    %edx,%esi
    ea62:	89 c7                	mov    %eax,%edi
    ea64:	e8 11 b4 ff ff       	callq  9e7a <safe_rshift_func_uint16_t_u_u>
    ea69:	83 c8 fc             	or     $0xfffffffc,%eax
    ea6c:	0f b7 c0             	movzwl %ax,%eax
    ea6f:	89 c2                	mov    %eax,%edx
    ea71:	8b 85 28 fe ff ff    	mov    -0x1d8(%rbp),%eax
    ea77:	21 d0                	and    %edx,%eax
    ea79:	89 85 28 fe ff ff    	mov    %eax,-0x1d8(%rbp)
    ea7f:	b8 00 00 00 00       	mov    $0x0,%eax
    ea84:	48 63 d8             	movslq %eax,%rbx
    ea87:	80 bd f8 fd ff ff 00 	cmpb   $0x0,-0x208(%rbp)
    ea8e:	41 0f 94 c5          	sete   %r13b
    ea92:	48 8b 85 68 fe ff ff 	mov    -0x198(%rbp),%rax
    ea99:	8b 00                	mov    (%rax),%eax
    ea9b:	4c 63 e0             	movslq %eax,%r12
    ea9e:	8b 05 88 65 00 00    	mov    0x6588(%rip),%eax        # 1502c <g_79>
    eaa4:	0f be d0             	movsbl %al,%edx
    eaa7:	8b 85 28 fe ff ff    	mov    -0x1d8(%rbp),%eax
    eaad:	0f be c0             	movsbl %al,%eax
    eab0:	89 d6                	mov    %edx,%esi
    eab2:	89 c7                	mov    %eax,%edi
    eab4:	e8 59 a7 ff ff       	callq  9212 <safe_mul_func_int8_t_s_s>
    eab9:	48 8b 85 d0 fe ff ff 	mov    -0x130(%rbp),%rax
    eac0:	48 c7 00 00 00 00 00 	movq   $0x0,(%rax)
    eac7:	48 8b 85 68 fe ff ff 	mov    -0x198(%rbp),%rax
    eace:	8b 10                	mov    (%rax),%edx
    ead0:	48 8b 05 31 7e 00 00 	mov    0x7e31(%rip),%rax        # 16908 <g_127>
    ead7:	48 8b 00             	mov    (%rax),%rax
    eada:	48 85 c0             	test   %rax,%rax
    eadd:	0f 94 c0             	sete   %al
    eae0:	0f b6 c0             	movzbl %al,%eax
    eae3:	39 c2                	cmp    %eax,%edx
    eae5:	0f 9f c0             	setg   %al
    eae8:	0f b6 d0             	movzbl %al,%edx
    eaeb:	0f b6 05 4e 66 00 00 	movzbl 0x664e(%rip),%eax        # 15140 <g_370>
    eaf2:	48 0f be c0          	movsbq %al,%rax
    eaf6:	48 89 d6             	mov    %rdx,%rsi
    eaf9:	48 89 c7             	mov    %rax,%rdi
    eafc:	e8 40 ad ff ff       	callq  9841 <safe_add_func_int64_t_s_s>
    eb01:	0f be c0             	movsbl %al,%eax
    eb04:	be 06 00 00 00       	mov    $0x6,%esi
    eb09:	89 c7                	mov    %eax,%edi
    eb0b:	e8 5c a8 ff ff       	callq  936c <safe_rshift_func_int8_t_s_u>
    eb10:	48 8b 85 68 fe ff ff 	mov    -0x198(%rbp),%rax
    eb17:	8b 00                	mov    (%rax),%eax
    eb19:	83 c8 01             	or     $0x1,%eax
    eb1c:	48 98                	cltq   
    eb1e:	4c 89 e6             	mov    %r12,%rsi
    eb21:	48 89 c7             	mov    %rax,%rdi
    eb24:	e8 8b ae ff ff       	callq  99b4 <safe_mod_func_int64_t_s_s>
    eb29:	48 89 c6             	mov    %rax,%rsi
    eb2c:	48 bf c1 66 28 a5 85 	movabs $0x69fc85a52866c1,%rdi
    eb33:	fc 69 00 
    eb36:	e8 f3 b4 ff ff       	callq  a02e <safe_add_func_uint64_t_u_u>
    eb3b:	48 85 c0             	test   %rax,%rax
    eb3e:	75 0d                	jne    eb4d <func_30+0x7f2>
    eb40:	48 8b 85 68 fe ff ff 	mov    -0x198(%rbp),%rax
    eb47:	8b 00                	mov    (%rax),%eax
    eb49:	85 c0                	test   %eax,%eax
    eb4b:	74 07                	je     eb54 <func_30+0x7f9>
    eb4d:	b8 01 00 00 00       	mov    $0x1,%eax
    eb52:	eb 05                	jmp    eb59 <func_30+0x7fe>
    eb54:	b8 00 00 00 00       	mov    $0x0,%eax
    eb59:	83 e0 01             	and    $0x1,%eax
    eb5c:	44 31 e8             	xor    %r13d,%eax
    eb5f:	0f b6 c0             	movzbl %al,%eax
    eb62:	48 89 c7             	mov    %rax,%rdi
    eb65:	e8 af b4 ff ff       	callq  a019 <safe_unary_minus_func_uint64_t_u>
    eb6a:	48 89 c2             	mov    %rax,%rdx
    eb6d:	48 8b 85 68 fe ff ff 	mov    -0x198(%rbp),%rax
    eb74:	8b 00                	mov    (%rax),%eax
    eb76:	48 98                	cltq   
    eb78:	48 89 d6             	mov    %rdx,%rsi
    eb7b:	48 89 c7             	mov    %rax,%rdi
    eb7e:	e8 be ac ff ff       	callq  9841 <safe_add_func_int64_t_s_s>
    eb83:	0f b6 c0             	movzbl %al,%eax
    eb86:	be 16 00 00 00       	mov    $0x16,%esi
    eb8b:	89 c7                	mov    %eax,%edi
    eb8d:	e8 1c b0 ff ff       	callq  9bae <safe_mod_func_uint8_t_u_u>
    eb92:	0f b6 c0             	movzbl %al,%eax
    eb95:	48 89 de             	mov    %rbx,%rsi
    eb98:	48 89 c7             	mov    %rax,%rdi
    eb9b:	e8 a1 ac ff ff       	callq  9841 <safe_add_func_int64_t_s_s>
    eba0:	0f b6 c0             	movzbl %al,%eax
    eba3:	be f7 00 00 00       	mov    $0xf7,%esi
    eba8:	89 c7                	mov    %eax,%edi
    ebaa:	e8 e4 af ff ff       	callq  9b93 <safe_mul_func_uint8_t_u_u>
    ebaf:	66 83 bd fc fd ff ff 	cmpw   $0x0,-0x204(%rbp)
    ebb6:	00 
    ebb7:	75 0a                	jne    ebc3 <func_30+0x868>
    ebb9:	48 83 bd c0 fe ff ff 	cmpq   $0x0,-0x140(%rbp)
    ebc0:	00 
    ebc1:	74 07                	je     ebca <func_30+0x86f>
    ebc3:	ba 01 00 00 00       	mov    $0x1,%edx
    ebc8:	eb 05                	jmp    ebcf <func_30+0x874>
    ebca:	ba 00 00 00 00       	mov    $0x0,%edx
    ebcf:	48 8b 85 d8 fe ff ff 	mov    -0x128(%rbp),%rax
    ebd6:	8b 00                	mov    (%rax),%eax
    ebd8:	09 c2                	or     %eax,%edx
    ebda:	48 8b 85 d8 fe ff ff 	mov    -0x128(%rbp),%rax
    ebe1:	89 10                	mov    %edx,(%rax)
    ebe3:	48 8b 05 f6 87 00 00 	mov    0x87f6(%rip),%rax        # 173e0 <g_433>
    ebea:	0f b6 00             	movzbl (%rax),%eax
    ebed:	0f b6 d0             	movzbl %al,%edx
    ebf0:	0f b7 85 12 fe ff ff 	movzwl -0x1ee(%rbp),%eax
    ebf7:	0f b6 c0             	movzbl %al,%eax
    ebfa:	89 d6                	mov    %edx,%esi
    ebfc:	89 c7                	mov    %eax,%edi
    ebfe:	e8 90 af ff ff       	callq  9b93 <safe_mul_func_uint8_t_u_u>
    ec03:	48 8b 85 70 fe ff ff 	mov    -0x190(%rbp),%rax
    ec0a:	8b 00                	mov    (%rax),%eax
    ec0c:	8d 50 ff             	lea    -0x1(%rax),%edx
    ec0f:	48 8b 85 70 fe ff ff 	mov    -0x190(%rbp),%rax
    ec16:	89 10                	mov    %edx,(%rax)
    ec18:	0f b6 15 72 65 00 00 	movzbl 0x6572(%rip),%edx        # 15191 <g_887>
    ec1f:	48 8b 85 48 fe ff ff 	mov    -0x1b8(%rbp),%rax
    ec26:	66 0f be d2          	movsbw %dl,%dx
    ec2a:	66 89 10             	mov    %dx,(%rax)
    ec2d:	0f b7 00             	movzwl (%rax),%eax
    ec30:	0f bf d0             	movswl %ax,%edx
    ec33:	48 8b 05 fe 87 00 00 	mov    0x87fe(%rip),%rax        # 17438 <g_641>
    ec3a:	66 c7 00 dd 02       	movw   $0x2dd,(%rax)
    ec3f:	0f b7 30             	movzwl (%rax),%esi
    ec42:	48 8b 85 68 fe ff ff 	mov    -0x198(%rbp),%rax
    ec49:	8b 08                	mov    (%rax),%ecx
    ec4b:	0f b7 c6             	movzwl %si,%eax
    ec4e:	09 c1                	or     %eax,%ecx
    ec50:	48 8b 85 68 fe ff ff 	mov    -0x198(%rbp),%rax
    ec57:	89 08                	mov    %ecx,(%rax)
    ec59:	48 8b 85 68 fe ff ff 	mov    -0x198(%rbp),%rax
    ec60:	8b 00                	mov    (%rax),%eax
    ec62:	89 c1                	mov    %eax,%ecx
    ec64:	48 8b 85 a8 fe ff ff 	mov    -0x158(%rbp),%rax
    ec6b:	66 89 08             	mov    %cx,(%rax)
    ec6e:	48 8b 85 a8 fe ff ff 	mov    -0x158(%rbp),%rax
    ec75:	0f b7 00             	movzwl (%rax),%eax
    ec78:	0f b7 c0             	movzwl %ax,%eax
    ec7b:	39 c2                	cmp    %eax,%edx
    ec7d:	0f 9c c0             	setl   %al
    ec80:	0f b6 c0             	movzbl %al,%eax
    ec83:	be a2 0a 00 00       	mov    $0xaa2,%esi
    ec88:	89 c7                	mov    %eax,%edi
    ec8a:	e8 ae b0 ff ff       	callq  9d3d <safe_mul_func_uint16_t_u_u>
    ec8f:	0f b7 c0             	movzwl %ax,%eax
    ec92:	be 06 00 00 00       	mov    $0x6,%esi
    ec97:	48 89 c7             	mov    %rax,%rdi
    ec9a:	e8 ac b3 ff ff       	callq  a04b <safe_sub_func_uint64_t_u_u>
    ec9f:	48 8b 45 88          	mov    -0x78(%rbp),%rax
    eca3:	48 8d 15 3c 64 00 00 	lea    0x643c(%rip),%rdx        # 150e6 <g_352+0x66>
    ecaa:	48 39 d0             	cmp    %rdx,%rax
    ecad:	66 83 bd fc fd ff ff 	cmpw   $0x0,-0x204(%rbp)
    ecb4:	00 
    ecb5:	74 10                	je     ecc7 <func_30+0x96c>
    ecb7:	80 bd f8 fd ff ff 00 	cmpb   $0x0,-0x208(%rbp)
    ecbe:	74 07                	je     ecc7 <func_30+0x96c>
    ecc0:	ba 01 00 00 00       	mov    $0x1,%edx
    ecc5:	eb 05                	jmp    eccc <func_30+0x971>
    ecc7:	ba 00 00 00 00       	mov    $0x0,%edx
    eccc:	0f b7 85 fc fd ff ff 	movzwl -0x204(%rbp),%eax
    ecd3:	39 c2                	cmp    %eax,%edx
    ecd5:	0f 95 c0             	setne  %al
    ecd8:	0f b6 d0             	movzbl %al,%edx
    ecdb:	48 8b 85 b0 fe ff ff 	mov    -0x150(%rbp),%rax
    ece2:	8b 00                	mov    (%rax),%eax
    ece4:	21 c2                	and    %eax,%edx
    ece6:	48 8b 85 b0 fe ff ff 	mov    -0x150(%rbp),%rax
    eced:	89 10                	mov    %edx,(%rax)
    ecef:	48 8b 85 68 fe ff ff 	mov    -0x198(%rbp),%rax
    ecf6:	44 8b 28             	mov    (%rax),%r13d
    ecf9:	0f b7 9d fc fd ff ff 	movzwl -0x204(%rbp),%ebx
    ed00:	0f b6 05 f2 63 00 00 	movzbl 0x63f2(%rip),%eax        # 150f9 <g_352+0x79>
    ed07:	44 0f b6 e0          	movzbl %al,%r12d
    ed0b:	48 8b 85 b0 fe ff ff 	mov    -0x150(%rbp),%rax
    ed12:	8b 10                	mov    (%rax),%edx
    ed14:	48 8b 0d 55 64 00 00 	mov    0x6455(%rip),%rcx        # 15170 <g_405+0x10>
    ed1b:	48 8d 85 50 fe ff ff 	lea    -0x1b0(%rbp),%rax
    ed22:	48 89 05 6f 9c 00 00 	mov    %rax,0x9c6f(%rip)        # 18998 <g_940>
    ed29:	48 8b 35 68 9c 00 00 	mov    0x9c68(%rip),%rsi        # 18998 <g_940>
    ed30:	48 8d 85 50 fe ff ff 	lea    -0x1b0(%rbp),%rax
    ed37:	48 89 05 62 9c 00 00 	mov    %rax,0x9c62(%rip)        # 189a0 <g_942>
    ed3e:	48 8b 05 5b 9c 00 00 	mov    0x9c5b(%rip),%rax        # 189a0 <g_942>
    ed45:	48 39 c6             	cmp    %rax,%rsi
    ed48:	0f 95 c0             	setne  %al
    ed4b:	0f b6 c0             	movzbl %al,%eax
    ed4e:	48 39 c1             	cmp    %rax,%rcx
    ed51:	0f 95 c0             	setne  %al
    ed54:	0f b6 c0             	movzbl %al,%eax
    ed57:	39 c2                	cmp    %eax,%edx
    ed59:	0f 9c c0             	setl   %al
    ed5c:	0f b6 d0             	movzbl %al,%edx
    ed5f:	48 8b 85 68 fe ff ff 	mov    -0x198(%rbp),%rax
    ed66:	8b 08                	mov    (%rax),%ecx
    ed68:	48 8b 85 b0 fe ff ff 	mov    -0x150(%rbp),%rax
    ed6f:	8b 00                	mov    (%rax),%eax
    ed71:	39 c1                	cmp    %eax,%ecx
    ed73:	0f 94 c0             	sete   %al
    ed76:	0f b6 c0             	movzbl %al,%eax
    ed79:	48 89 d6             	mov    %rdx,%rsi
    ed7c:	48 89 c7             	mov    %rax,%rdi
    ed7f:	e8 24 ab ff ff       	callq  98a8 <safe_sub_func_int64_t_s_s>
    ed84:	48 85 c0             	test   %rax,%rax
    ed87:	0f 95 c0             	setne  %al
    ed8a:	0f b6 c0             	movzbl %al,%eax
    ed8d:	44 89 e6             	mov    %r12d,%esi
    ed90:	89 c7                	mov    %eax,%edi
    ed92:	e8 fb a6 ff ff       	callq  9492 <safe_lshift_func_int16_t_s_s>
    ed97:	0f b6 c0             	movzbl %al,%eax
    ed9a:	89 de                	mov    %ebx,%esi
    ed9c:	89 c7                	mov    %eax,%edi
    ed9e:	e8 62 ae ff ff       	callq  9c05 <safe_lshift_func_uint8_t_u_s>
    eda3:	0f b6 c0             	movzbl %al,%eax
    eda6:	be 01 00 00 00       	mov    $0x1,%esi
    edab:	89 c7                	mov    %eax,%edi
    edad:	e8 06 b1 ff ff       	callq  9eb8 <safe_add_func_uint32_t_u_u>
    edb2:	98                   	cwtl   
    edb3:	be 01 00 00 00       	mov    $0x1,%esi
    edb8:	89 c7                	mov    %eax,%edi
    edba:	e8 d3 a6 ff ff       	callq  9492 <safe_lshift_func_int16_t_s_s>
    edbf:	0f be c0             	movsbl %al,%eax
    edc2:	be d7 ff ff ff       	mov    $0xffffffd7,%esi
    edc7:	89 c7                	mov    %eax,%edi
    edc9:	e8 24 a4 ff ff       	callq  91f2 <safe_sub_func_int8_t_s_s>
    edce:	0f be c0             	movsbl %al,%eax
    edd1:	44 89 ea             	mov    %r13d,%edx
    edd4:	09 c2                	or     %eax,%edx
    edd6:	48 8b 85 b0 fe ff ff 	mov    -0x150(%rbp),%rax
    eddd:	89 10                	mov    %edx,(%rax)
    eddf:	8b 05 63 63 00 00    	mov    0x6363(%rip),%eax        # 15148 <g_395>
    ede5:	48 8b 5d c8          	mov    -0x38(%rbp),%rbx
    ede9:	64 48 33 1c 25 28 00 	xor    %fs:0x28,%rbx
    edf0:	00 00 
    edf2:	74 05                	je     edf9 <func_30+0xa9e>
    edf4:	e8 77 a2 ff ff       	callq  9070 <__stack_chk_fail@plt>
    edf9:	48 81 c4 e8 01 00 00 	add    $0x1e8,%rsp
    ee00:	5b                   	pop    %rbx
    ee01:	41 5c                	pop    %r12
    ee03:	41 5d                	pop    %r13
    ee05:	41 5e                	pop    %r14
    ee07:	41 5f                	pop    %r15
    ee09:	5d                   	pop    %rbp
    ee0a:	c3                   	retq   

000000000000ee0b <func_36>:
    ee0b:	f3 0f 1e fa          	endbr64 
    ee0f:	55                   	push   %rbp
    ee10:	48 89 e5             	mov    %rsp,%rbp
    ee13:	41 57                	push   %r15
    ee15:	41 56                	push   %r14
    ee17:	41 55                	push   %r13
    ee19:	41 54                	push   %r12
    ee1b:	53                   	push   %rbx
    ee1c:	48 81 ec 98 00 00 00 	sub    $0x98,%rsp
    ee23:	48 89 bd 68 ff ff ff 	mov    %rdi,-0x98(%rbp)
    ee2a:	64 48 8b 04 25 28 00 	mov    %fs:0x28,%rax
    ee31:	00 00 
    ee33:	48 89 45 c8          	mov    %rax,-0x38(%rbp)
    ee37:	31 c0                	xor    %eax,%eax
    ee39:	66 c7 85 72 ff ff ff 	movw   $0x1,-0x8e(%rbp)
    ee40:	01 00 
    ee42:	48 8d 05 fb 62 00 00 	lea    0x62fb(%rip),%rax        # 15144 <g_373>
    ee49:	48 89 45 a0          	mov    %rax,-0x60(%rbp)
    ee4d:	48 8d 05 f0 62 00 00 	lea    0x62f0(%rip),%rax        # 15144 <g_373>
    ee54:	48 89 45 a8          	mov    %rax,-0x58(%rbp)
    ee58:	48 8d 05 e5 62 00 00 	lea    0x62e5(%rip),%rax        # 15144 <g_373>
    ee5f:	48 89 45 b0          	mov    %rax,-0x50(%rbp)
    ee63:	48 8d 05 da 62 00 00 	lea    0x62da(%rip),%rax        # 15144 <g_373>
    ee6a:	48 89 45 b8          	mov    %rax,-0x48(%rbp)
    ee6e:	48 c7 45 88 00 00 00 	movq   $0x0,-0x78(%rbp)
    ee75:	00 
    ee76:	48 8d 05 cb 62 00 00 	lea    0x62cb(%rip),%rax        # 15148 <g_395>
    ee7d:	48 89 45 90          	mov    %rax,-0x70(%rbp)
    ee81:	c7 85 78 ff ff ff 02 	movl   $0x2,-0x88(%rbp)
    ee88:	00 00 00 
    ee8b:	c7 45 c1 51 51 61 51 	movl   $0x51615151,-0x3f(%rbp)
    ee92:	66 c7 45 c5 51 61    	movw   $0x6151,-0x3b(%rbp)
    ee98:	c6 45 c7 51          	movb   $0x51,-0x39(%rbp)
    ee9c:	c7 85 7c ff ff ff 4b 	movl   $0xe980e34b,-0x84(%rbp)
    eea3:	e3 80 e9 
    eea6:	c6 85 70 ff ff ff d2 	movb   $0xd2,-0x90(%rbp)
    eead:	c7 45 80 69 95 c0 a8 	movl   $0xa8c09569,-0x80(%rbp)
    eeb4:	c6 85 71 ff ff ff 00 	movb   $0x0,-0x8f(%rbp)
    eebb:	c7 45 84 00 00 00 00 	movl   $0x0,-0x7c(%rbp)
    eec2:	c7 85 74 ff ff ff 00 	movl   $0x0,-0x8c(%rbp)
    eec9:	00 00 00 
    eecc:	eb 17                	jmp    eee5 <func_36+0xda>
    eece:	8b 85 74 ff ff ff    	mov    -0x8c(%rbp),%eax
    eed4:	48 98                	cltq   
    eed6:	c7 44 85 98 01 00 00 	movl   $0x1,-0x68(%rbp,%rax,4)
    eedd:	00 
    eede:	83 85 74 ff ff ff 01 	addl   $0x1,-0x8c(%rbp)
    eee5:	83 bd 74 ff ff ff 01 	cmpl   $0x1,-0x8c(%rbp)
    eeec:	7e e0                	jle    eece <func_36+0xc3>
    eeee:	b8 00 00 00 00       	mov    $0x0,%eax
    eef3:	48 63 d8             	movslq %eax,%rbx
    eef6:	48 8b 05 6b 62 00 00 	mov    0x626b(%rip),%rax        # 15168 <g_405+0x8>
    eefd:	44 0f be e0          	movsbl %al,%r12d
    ef01:	8b 45 9c             	mov    -0x64(%rbp),%eax
    ef04:	89 85 64 ff ff ff    	mov    %eax,-0x9c(%rbp)
    ef0a:	8b 05 3c 62 00 00    	mov    0x623c(%rip),%eax        # 1514c <g_400>
    ef10:	89 c1                	mov    %eax,%ecx
    ef12:	48 89 8d 58 ff ff ff 	mov    %rcx,-0xa8(%rbp)
    ef19:	0f b7 05 60 62 00 00 	movzwl 0x6260(%rip),%eax        # 15180 <g_406>
    ef20:	44 0f b7 f0          	movzwl %ax,%r14d
    ef24:	48 8b 05 45 62 00 00 	mov    0x6245(%rip),%rax        # 15170 <g_405+0x10>
    ef2b:	44 0f b7 e8          	movzwl %ax,%r13d
    ef2f:	b8 00 00 00 00       	mov    $0x0,%eax
    ef34:	48 63 d0             	movslq %eax,%rdx
    ef37:	48 89 95 50 ff ff ff 	mov    %rdx,-0xb0(%rbp)
    ef3e:	44 0f b6 bd 71 ff ff 	movzbl -0x8f(%rbp),%r15d
    ef45:	ff 
    ef46:	8b 05 04 62 00 00    	mov    0x6204(%rip),%eax        # 15150 <g_401>
    ef4c:	89 85 60 ff ff ff    	mov    %eax,-0xa0(%rbp)
    ef52:	b8 00 00 00 00       	mov    $0x0,%eax
    ef57:	0f b6 f8             	movzbl %al,%edi
    ef5a:	89 bd 4c ff ff ff    	mov    %edi,-0xb4(%rbp)
    ef60:	8b 85 7c ff ff ff    	mov    -0x84(%rbp),%eax
    ef66:	44 0f b7 c8          	movzwl %ax,%r9d
    ef6a:	44 89 8d 48 ff ff ff 	mov    %r9d,-0xb8(%rbp)
    ef71:	0f b6 45 c3          	movzbl -0x3d(%rbp),%eax
    ef75:	44 0f b6 d0          	movzbl %al,%r10d
    ef79:	44 89 95 44 ff ff ff 	mov    %r10d,-0xbc(%rbp)
    ef80:	be 03 00 00 00       	mov    $0x3,%esi
    ef85:	bf ff ff 00 00       	mov    $0xffff,%edi
    ef8a:	e8 77 ae ff ff       	callq  9e06 <safe_lshift_func_uint16_t_u_u>
    ef8f:	0f b6 c0             	movzbl %al,%eax
    ef92:	be 01 00 00 00       	mov    $0x1,%esi
    ef97:	89 c7                	mov    %eax,%edi
    ef99:	e8 f5 ab ff ff       	callq  9b93 <safe_mul_func_uint8_t_u_u>
    ef9e:	0f b6 d0             	movzbl %al,%edx
    efa1:	48 8b 45 90          	mov    -0x70(%rbp),%rax
    efa5:	89 10                	mov    %edx,(%rax)
    efa7:	48 8b 45 90          	mov    -0x70(%rbp),%rax
    efab:	8b 10                	mov    (%rax),%edx
    efad:	8b 85 78 ff ff ff    	mov    -0x88(%rbp),%eax
    efb3:	39 c2                	cmp    %eax,%edx
    efb5:	0f 96 c0             	setbe  %al
    efb8:	0f b6 c0             	movzbl %al,%eax
    efbb:	ba 00 00 00 00       	mov    $0x0,%edx
    efc0:	39 d0                	cmp    %edx,%eax
    efc2:	0f 94 c0             	sete   %al
    efc5:	0f b6 c0             	movzbl %al,%eax
    efc8:	8b b5 44 ff ff ff    	mov    -0xbc(%rbp),%esi
    efce:	89 c7                	mov    %eax,%edi
    efd0:	e8 50 af ff ff       	callq  9f25 <safe_div_func_uint32_t_u_u>
    efd5:	ba 00 00 00 00       	mov    $0x0,%edx
    efda:	39 d0                	cmp    %edx,%eax
    efdc:	0f 95 c0             	setne  %al
    efdf:	0f b6 c0             	movzbl %al,%eax
    efe2:	8b b5 48 ff ff ff    	mov    -0xb8(%rbp),%esi
    efe8:	89 c7                	mov    %eax,%edi
    efea:	e8 4e ad ff ff       	callq  9d3d <safe_mul_func_uint16_t_u_u>
    efef:	b8 00 00 00 00       	mov    $0x0,%eax
    eff4:	85 c0                	test   %eax,%eax
    eff6:	0f 9f c0             	setg   %al
    eff9:	0f b6 c0             	movzbl %al,%eax
    effc:	8b b5 4c ff ff ff    	mov    -0xb4(%rbp),%esi
    f002:	89 c7                	mov    %eax,%edi
    f004:	e8 8a ab ff ff       	callq  9b93 <safe_mul_func_uint8_t_u_u>
    f009:	b8 00 00 00 00       	mov    $0x0,%eax
    f00e:	83 f8 01             	cmp    $0x1,%eax
    f011:	0f 9f c0             	setg   %al
    f014:	0f b6 c0             	movzbl %al,%eax
    f017:	be 00 00 00 00       	mov    $0x0,%esi
    f01c:	89 c7                	mov    %eax,%edi
    f01e:	e8 fc ac ff ff       	callq  9d1f <safe_sub_func_uint16_t_u_u>
    f023:	8b 05 23 61 00 00    	mov    0x6123(%rip),%eax        # 1514c <g_400>
    f029:	8b b5 60 ff ff ff    	mov    -0xa0(%rbp),%esi
    f02f:	89 c7                	mov    %eax,%edi
    f031:	e8 ef ae ff ff       	callq  9f25 <safe_div_func_uint32_t_u_u>
    f036:	85 c0                	test   %eax,%eax
    f038:	0f 94 c0             	sete   %al
    f03b:	0f b6 c0             	movzbl %al,%eax
    f03e:	39 45 80             	cmp    %eax,-0x80(%rbp)
    f041:	0f 9f c0             	setg   %al
    f044:	0f b6 c0             	movzbl %al,%eax
    f047:	44 89 fe             	mov    %r15d,%esi
    f04a:	89 c7                	mov    %eax,%edi
    f04c:	e8 3c ac ff ff       	callq  9c8d <safe_rshift_func_uint8_t_u_s>
    f051:	0f b6 c0             	movzbl %al,%eax
    f054:	be f7 00 00 00       	mov    $0xf7,%esi
    f059:	89 c7                	mov    %eax,%edi
    f05b:	e8 4e ab ff ff       	callq  9bae <safe_mod_func_uint8_t_u_u>
    f060:	4c 8b 7d a0          	mov    -0x60(%rbp),%r15
    f064:	48 8d 35 b9 5f 00 00 	lea    0x5fb9(%rip),%rsi        # 15024 <g_39>
    f06b:	48 8d 3d b2 5f 00 00 	lea    0x5fb2(%rip),%rdi        # 15024 <g_39>
    f072:	e8 87 10 00 00       	callq  100fe <func_57>
    f077:	48 89 c6             	mov    %rax,%rsi
    f07a:	0f b7 85 72 ff ff ff 	movzwl -0x8e(%rbp),%eax
    f081:	4c 8b 85 50 ff ff ff 	mov    -0xb0(%rbp),%r8
    f088:	48 8d 0d b5 60 00 00 	lea    0x60b5(%rip),%rcx        # 15144 <g_373>
    f08f:	4c 89 fa             	mov    %r15,%rdx
    f092:	89 c7                	mov    %eax,%edi
    f094:	e8 e6 0f 00 00       	callq  1007f <func_51>
    f099:	0f be c0             	movsbl %al,%eax
    f09c:	44 8b 85 64 ff ff ff 	mov    -0x9c(%rbp),%r8d
    f0a3:	48 8b 8d 58 ff ff ff 	mov    -0xa8(%rbp),%rcx
    f0aa:	44 89 f2             	mov    %r14d,%edx
    f0ad:	44 89 ee             	mov    %r13d,%esi
    f0b0:	89 c7                	mov    %eax,%edi
    f0b2:	e8 72 00 00 00       	callq  f129 <func_45>
    f0b7:	0f be c0             	movsbl %al,%eax
    f0ba:	44 89 e6             	mov    %r12d,%esi
    f0bd:	89 c7                	mov    %eax,%edi
    f0bf:	e8 a6 a1 ff ff       	callq  926a <safe_div_func_int8_t_s_s>
    f0c4:	48 0f be c0          	movsbq %al,%rax
    f0c8:	48 89 de             	mov    %rbx,%rsi
    f0cb:	48 89 c7             	mov    %rax,%rdi
    f0ce:	e8 78 af ff ff       	callq  a04b <safe_sub_func_uint64_t_u_u>
    f0d3:	89 c2                	mov    %eax,%edx
    f0d5:	48 8b 85 68 ff ff ff 	mov    -0x98(%rbp),%rax
    f0dc:	89 10                	mov    %edx,(%rax)
    f0de:	48 8b 85 68 ff ff ff 	mov    -0x98(%rbp),%rax
    f0e5:	8b 00                	mov    (%rax),%eax
    f0e7:	89 45 84             	mov    %eax,-0x7c(%rbp)
    f0ea:	0f b6 05 9f 60 00 00 	movzbl 0x609f(%rip),%eax        # 15190 <g_492>
    f0f1:	83 e8 01             	sub    $0x1,%eax
    f0f4:	88 05 96 60 00 00    	mov    %al,0x6096(%rip)        # 15190 <g_492>
    f0fa:	0f b6 05 3f 60 00 00 	movzbl 0x603f(%rip),%eax        # 15140 <g_370>
    f101:	66 98                	cbtw   
    f103:	48 8b 5d c8          	mov    -0x38(%rbp),%rbx
    f107:	64 48 33 1c 25 28 00 	xor    %fs:0x28,%rbx
    f10e:	00 00 
    f110:	74 05                	je     f117 <func_36+0x30c>
    f112:	e8 59 9f ff ff       	callq  9070 <__stack_chk_fail@plt>
    f117:	48 81 c4 98 00 00 00 	add    $0x98,%rsp
    f11e:	5b                   	pop    %rbx
    f11f:	41 5c                	pop    %r12
    f121:	41 5d                	pop    %r13
    f123:	41 5e                	pop    %r14
    f125:	41 5f                	pop    %r15
    f127:	5d                   	pop    %rbp
    f128:	c3                   	retq   

000000000000f129 <func_45>:
    f129:	f3 0f 1e fa          	endbr64 
    f12d:	55                   	push   %rbp
    f12e:	48 89 e5             	mov    %rsp,%rbp
    f131:	41 55                	push   %r13
    f133:	41 54                	push   %r12
    f135:	53                   	push   %rbx
    f136:	48 81 ec 18 0e 00 00 	sub    $0xe18,%rsp
    f13d:	89 d0                	mov    %edx,%eax
    f13f:	48 89 8d d8 f1 ff ff 	mov    %rcx,-0xe28(%rbp)
    f146:	44 89 85 e0 f1 ff ff 	mov    %r8d,-0xe20(%rbp)
    f14d:	89 fa                	mov    %edi,%edx
    f14f:	88 95 ec f1 ff ff    	mov    %dl,-0xe14(%rbp)
    f155:	89 f2                	mov    %esi,%edx
    f157:	66 89 95 e8 f1 ff ff 	mov    %dx,-0xe18(%rbp)
    f15e:	66 89 85 e4 f1 ff ff 	mov    %ax,-0xe1c(%rbp)
    f165:	64 48 8b 04 25 28 00 	mov    %fs:0x28,%rax
    f16c:	00 00 
    f16e:	48 89 45 d8          	mov    %rax,-0x28(%rbp)
    f172:	31 c0                	xor    %eax,%eax
    f174:	48 8d 05 a9 5e 00 00 	lea    0x5ea9(%rip),%rax        # 15024 <g_39>
    f17b:	48 89 85 e0 f2 ff ff 	mov    %rax,-0xd20(%rbp)
    f182:	48 8d 05 9b 5e 00 00 	lea    0x5e9b(%rip),%rax        # 15024 <g_39>
    f189:	48 89 85 e8 f2 ff ff 	mov    %rax,-0xd18(%rbp)
    f190:	48 8d 05 8d 5e 00 00 	lea    0x5e8d(%rip),%rax        # 15024 <g_39>
    f197:	48 89 85 f0 f2 ff ff 	mov    %rax,-0xd10(%rbp)
    f19e:	48 8d 05 7f 5e 00 00 	lea    0x5e7f(%rip),%rax        # 15024 <g_39>
    f1a5:	48 89 85 f8 f2 ff ff 	mov    %rax,-0xd08(%rbp)
    f1ac:	48 8d 05 71 5e 00 00 	lea    0x5e71(%rip),%rax        # 15024 <g_39>
    f1b3:	48 89 85 00 f3 ff ff 	mov    %rax,-0xd00(%rbp)
    f1ba:	48 8d 05 63 5e 00 00 	lea    0x5e63(%rip),%rax        # 15024 <g_39>
    f1c1:	48 89 85 08 f3 ff ff 	mov    %rax,-0xcf8(%rbp)
    f1c8:	48 8d 05 55 5e 00 00 	lea    0x5e55(%rip),%rax        # 15024 <g_39>
    f1cf:	48 89 85 10 f3 ff ff 	mov    %rax,-0xcf0(%rbp)
    f1d6:	48 8d 05 47 5e 00 00 	lea    0x5e47(%rip),%rax        # 15024 <g_39>
    f1dd:	48 89 85 18 f3 ff ff 	mov    %rax,-0xce8(%rbp)
    f1e4:	48 8d 05 39 5e 00 00 	lea    0x5e39(%rip),%rax        # 15024 <g_39>
    f1eb:	48 89 85 20 f3 ff ff 	mov    %rax,-0xce0(%rbp)
    f1f2:	48 8d 05 4f 5e 00 00 	lea    0x5e4f(%rip),%rax        # 15048 <g_150>
    f1f9:	48 89 85 30 f2 ff ff 	mov    %rax,-0xdd0(%rbp)
    f200:	48 c7 85 10 f2 ff ff 	movq   $0xffffffffffffffff,-0xdf0(%rbp)
    f207:	ff ff ff ff 
    f20b:	48 8d 85 50 f8 ff ff 	lea    -0x7b0(%rbp),%rax
    f212:	48 8d 15 67 6f 00 00 	lea    0x6f67(%rip),%rdx        # 16180 <g_2768+0xf00>
    f219:	b9 f0 00 00 00       	mov    $0xf0,%ecx
    f21e:	48 89 c7             	mov    %rax,%rdi
    f221:	48 89 d6             	mov    %rdx,%rsi
    f224:	f3 48 a5             	rep movsq %ds:(%rsi),%es:(%rdi)
    f227:	48 8d 05 f6 5d 00 00 	lea    0x5df6(%rip),%rax        # 15024 <g_39>
    f22e:	48 89 85 38 f2 ff ff 	mov    %rax,-0xdc8(%rbp)
    f235:	48 c7 85 40 f2 ff ff 	movq   $0x0,-0xdc0(%rbp)
    f23c:	00 00 00 00 
    f240:	48 8d 85 e0 f2 ff ff 	lea    -0xd20(%rbp),%rax
    f247:	48 83 c0 38          	add    $0x38,%rax
    f24b:	48 89 85 48 f2 ff ff 	mov    %rax,-0xdb8(%rbp)
    f252:	48 8d 05 db 5d 00 00 	lea    0x5ddb(%rip),%rax        # 15034 <g_112>
    f259:	48 89 85 50 f2 ff ff 	mov    %rax,-0xdb0(%rbp)
    f260:	48 8d 05 cd 5d 00 00 	lea    0x5dcd(%rip),%rax        # 15034 <g_112>
    f267:	48 89 85 58 f2 ff ff 	mov    %rax,-0xda8(%rbp)
    f26e:	48 8d 05 d3 5e 00 00 	lea    0x5ed3(%rip),%rax        # 15148 <g_395>
    f275:	48 89 85 60 f2 ff ff 	mov    %rax,-0xda0(%rbp)
    f27c:	48 c7 85 18 f2 ff ff 	movq   $0x1,-0xde8(%rbp)
    f283:	01 00 00 00 
    f287:	48 8d 05 9a 5d 00 00 	lea    0x5d9a(%rip),%rax        # 15028 <g_75>
    f28e:	48 89 85 b0 f2 ff ff 	mov    %rax,-0xd50(%rbp)
    f295:	48 c7 85 b8 f2 ff ff 	movq   $0x0,-0xd48(%rbp)
    f29c:	00 00 00 00 
    f2a0:	48 c7 85 c0 f2 ff ff 	movq   $0x0,-0xd40(%rbp)
    f2a7:	00 00 00 00 
    f2ab:	48 8d 05 76 5d 00 00 	lea    0x5d76(%rip),%rax        # 15028 <g_75>
    f2b2:	48 89 85 c8 f2 ff ff 	mov    %rax,-0xd38(%rbp)
    f2b9:	48 c7 85 d0 f2 ff ff 	movq   $0x0,-0xd30(%rbp)
    f2c0:	00 00 00 00 
    f2c4:	48 c7 85 d8 f2 ff ff 	movq   $0x0,-0xd28(%rbp)
    f2cb:	00 00 00 00 
    f2cf:	48 8d 05 a2 5e 00 00 	lea    0x5ea2(%rip),%rax        # 15178 <g_405+0x18>
    f2d6:	48 89 85 f0 f3 ff ff 	mov    %rax,-0xc10(%rbp)
    f2dd:	48 8d 85 18 f2 ff ff 	lea    -0xde8(%rbp),%rax
    f2e4:	48 89 85 f8 f3 ff ff 	mov    %rax,-0xc08(%rbp)
    f2eb:	48 8d 85 18 f2 ff ff 	lea    -0xde8(%rbp),%rax
    f2f2:	48 89 85 00 f4 ff ff 	mov    %rax,-0xc00(%rbp)
    f2f9:	48 8d 85 18 f2 ff ff 	lea    -0xde8(%rbp),%rax
    f300:	48 89 85 08 f4 ff ff 	mov    %rax,-0xbf8(%rbp)
    f307:	48 8d 85 18 f2 ff ff 	lea    -0xde8(%rbp),%rax
    f30e:	48 89 85 10 f4 ff ff 	mov    %rax,-0xbf0(%rbp)
    f315:	48 8d 85 18 f2 ff ff 	lea    -0xde8(%rbp),%rax
    f31c:	48 89 85 18 f4 ff ff 	mov    %rax,-0xbe8(%rbp)
    f323:	48 8d 05 4e 5e 00 00 	lea    0x5e4e(%rip),%rax        # 15178 <g_405+0x18>
    f32a:	48 89 85 20 f4 ff ff 	mov    %rax,-0xbe0(%rbp)
    f331:	48 8d 85 10 f2 ff ff 	lea    -0xdf0(%rbp),%rax
    f338:	48 89 85 28 f4 ff ff 	mov    %rax,-0xbd8(%rbp)
    f33f:	48 c7 85 30 f4 ff ff 	movq   $0x0,-0xbd0(%rbp)
    f346:	00 00 00 00 
    f34a:	48 c7 85 38 f4 ff ff 	movq   $0x0,-0xbc8(%rbp)
    f351:	00 00 00 00 
    f355:	48 c7 85 40 f4 ff ff 	movq   $0x0,-0xbc0(%rbp)
    f35c:	00 00 00 00 
    f360:	48 c7 85 48 f4 ff ff 	movq   $0x0,-0xbb8(%rbp)
    f367:	00 00 00 00 
    f36b:	48 8d 85 10 f2 ff ff 	lea    -0xdf0(%rbp),%rax
    f372:	48 89 85 50 f4 ff ff 	mov    %rax,-0xbb0(%rbp)
    f379:	48 c7 85 58 f4 ff ff 	movq   $0x0,-0xba8(%rbp)
    f380:	00 00 00 00 
    f384:	48 8d 05 cd 5c 00 00 	lea    0x5ccd(%rip),%rax        # 15058 <g_183+0x8>
    f38b:	48 89 85 60 f4 ff ff 	mov    %rax,-0xba0(%rbp)
    f392:	48 8d 85 18 f2 ff ff 	lea    -0xde8(%rbp),%rax
    f399:	48 89 85 68 f4 ff ff 	mov    %rax,-0xb98(%rbp)
    f3a0:	48 8d 05 c9 5d 00 00 	lea    0x5dc9(%rip),%rax        # 15170 <g_405+0x10>
    f3a7:	48 89 85 70 f4 ff ff 	mov    %rax,-0xb90(%rbp)
    f3ae:	48 8d 85 18 f2 ff ff 	lea    -0xde8(%rbp),%rax
    f3b5:	48 89 85 78 f4 ff ff 	mov    %rax,-0xb88(%rbp)
    f3bc:	48 8d 05 95 5c 00 00 	lea    0x5c95(%rip),%rax        # 15058 <g_183+0x8>
    f3c3:	48 89 85 80 f4 ff ff 	mov    %rax,-0xb80(%rbp)
    f3ca:	48 c7 85 88 f4 ff ff 	movq   $0x0,-0xb78(%rbp)
    f3d1:	00 00 00 00 
    f3d5:	48 8d 05 7c 5c 00 00 	lea    0x5c7c(%rip),%rax        # 15058 <g_183+0x8>
    f3dc:	48 89 85 90 f4 ff ff 	mov    %rax,-0xb70(%rbp)
    f3e3:	48 c7 85 98 f4 ff ff 	movq   $0x0,-0xb68(%rbp)
    f3ea:	00 00 00 00 
    f3ee:	48 c7 85 a0 f4 ff ff 	movq   $0x0,-0xb60(%rbp)
    f3f5:	00 00 00 00 
    f3f9:	48 c7 85 a8 f4 ff ff 	movq   $0x0,-0xb58(%rbp)
    f400:	00 00 00 00 
    f404:	48 c7 85 b0 f4 ff ff 	movq   $0x0,-0xb50(%rbp)
    f40b:	00 00 00 00 
    f40f:	48 8d 85 10 f2 ff ff 	lea    -0xdf0(%rbp),%rax
    f416:	48 89 85 b8 f4 ff ff 	mov    %rax,-0xb48(%rbp)
    f41d:	48 c7 85 c0 f4 ff ff 	movq   $0x0,-0xb40(%rbp)
    f424:	00 00 00 00 
    f428:	48 8d 05 29 5c 00 00 	lea    0x5c29(%rip),%rax        # 15058 <g_183+0x8>
    f42f:	48 89 85 c8 f4 ff ff 	mov    %rax,-0xb38(%rbp)
    f436:	48 8d 85 18 f2 ff ff 	lea    -0xde8(%rbp),%rax
    f43d:	48 89 85 d0 f4 ff ff 	mov    %rax,-0xb30(%rbp)
    f444:	48 8d 85 18 f2 ff ff 	lea    -0xde8(%rbp),%rax
    f44b:	48 89 85 d8 f4 ff ff 	mov    %rax,-0xb28(%rbp)
    f452:	48 8d 85 18 f2 ff ff 	lea    -0xde8(%rbp),%rax
    f459:	48 89 85 e0 f4 ff ff 	mov    %rax,-0xb20(%rbp)
    f460:	48 8d 85 18 f2 ff ff 	lea    -0xde8(%rbp),%rax
    f467:	48 89 85 e8 f4 ff ff 	mov    %rax,-0xb18(%rbp)
    f46e:	48 8d 05 03 5d 00 00 	lea    0x5d03(%rip),%rax        # 15178 <g_405+0x18>
    f475:	48 89 85 f0 f4 ff ff 	mov    %rax,-0xb10(%rbp)
    f47c:	48 8d 85 18 f2 ff ff 	lea    -0xde8(%rbp),%rax
    f483:	48 89 85 f8 f4 ff ff 	mov    %rax,-0xb08(%rbp)
    f48a:	48 8d 85 18 f2 ff ff 	lea    -0xde8(%rbp),%rax
    f491:	48 89 85 00 f5 ff ff 	mov    %rax,-0xb00(%rbp)
    f498:	48 c7 85 08 f5 ff ff 	movq   $0x0,-0xaf8(%rbp)
    f49f:	00 00 00 00 
    f4a3:	48 c7 85 10 f5 ff ff 	movq   $0x0,-0xaf0(%rbp)
    f4aa:	00 00 00 00 
    f4ae:	48 8d 85 10 f2 ff ff 	lea    -0xdf0(%rbp),%rax
    f4b5:	48 89 85 18 f5 ff ff 	mov    %rax,-0xae8(%rbp)
    f4bc:	48 8d 05 95 5b 00 00 	lea    0x5b95(%rip),%rax        # 15058 <g_183+0x8>
    f4c3:	48 89 85 20 f5 ff ff 	mov    %rax,-0xae0(%rbp)
    f4ca:	48 c7 85 28 f5 ff ff 	movq   $0x0,-0xad8(%rbp)
    f4d1:	00 00 00 00 
    f4d5:	48 8d 85 18 f2 ff ff 	lea    -0xde8(%rbp),%rax
    f4dc:	48 89 85 30 f5 ff ff 	mov    %rax,-0xad0(%rbp)
    f4e3:	48 8d 05 6e 5b 00 00 	lea    0x5b6e(%rip),%rax        # 15058 <g_183+0x8>
    f4ea:	48 89 85 38 f5 ff ff 	mov    %rax,-0xac8(%rbp)
    f4f1:	48 8d 05 60 5b 00 00 	lea    0x5b60(%rip),%rax        # 15058 <g_183+0x8>
    f4f8:	48 89 85 40 f5 ff ff 	mov    %rax,-0xac0(%rbp)
    f4ff:	48 8d 85 18 f2 ff ff 	lea    -0xde8(%rbp),%rax
    f506:	48 89 85 48 f5 ff ff 	mov    %rax,-0xab8(%rbp)
    f50d:	48 8d 05 3c 5b 00 00 	lea    0x5b3c(%rip),%rax        # 15050 <g_183>
    f514:	48 89 85 50 f5 ff ff 	mov    %rax,-0xab0(%rbp)
    f51b:	48 8d 85 18 f2 ff ff 	lea    -0xde8(%rbp),%rax
    f522:	48 89 85 58 f5 ff ff 	mov    %rax,-0xaa8(%rbp)
    f529:	48 8d 05 20 5b 00 00 	lea    0x5b20(%rip),%rax        # 15050 <g_183>
    f530:	48 89 85 60 f5 ff ff 	mov    %rax,-0xaa0(%rbp)
    f537:	48 8d 85 18 f2 ff ff 	lea    -0xde8(%rbp),%rax
    f53e:	48 89 85 68 f5 ff ff 	mov    %rax,-0xa98(%rbp)
    f545:	48 8d 05 0c 5b 00 00 	lea    0x5b0c(%rip),%rax        # 15058 <g_183+0x8>
    f54c:	48 89 85 70 f5 ff ff 	mov    %rax,-0xa90(%rbp)
    f553:	48 8d 85 10 f2 ff ff 	lea    -0xdf0(%rbp),%rax
    f55a:	48 89 85 78 f5 ff ff 	mov    %rax,-0xa88(%rbp)
    f561:	48 8d 05 f0 5a 00 00 	lea    0x5af0(%rip),%rax        # 15058 <g_183+0x8>
    f568:	48 89 85 80 f5 ff ff 	mov    %rax,-0xa80(%rbp)
    f56f:	48 c7 85 88 f5 ff ff 	movq   $0x0,-0xa78(%rbp)
    f576:	00 00 00 00 
    f57a:	48 8d 85 10 f2 ff ff 	lea    -0xdf0(%rbp),%rax
    f581:	48 89 85 90 f5 ff ff 	mov    %rax,-0xa70(%rbp)
    f588:	48 c7 85 98 f5 ff ff 	movq   $0x0,-0xa68(%rbp)
    f58f:	00 00 00 00 
    f593:	48 c7 85 a0 f5 ff ff 	movq   $0x0,-0xa60(%rbp)
    f59a:	00 00 00 00 
    f59e:	48 c7 85 a8 f5 ff ff 	movq   $0x0,-0xa58(%rbp)
    f5a5:	00 00 00 00 
    f5a9:	48 8d 05 c8 5b 00 00 	lea    0x5bc8(%rip),%rax        # 15178 <g_405+0x18>
    f5b0:	48 89 85 b0 f5 ff ff 	mov    %rax,-0xa50(%rbp)
    f5b7:	48 8d 85 18 f2 ff ff 	lea    -0xde8(%rbp),%rax
    f5be:	48 89 85 b8 f5 ff ff 	mov    %rax,-0xa48(%rbp)
    f5c5:	48 8d 05 84 5a 00 00 	lea    0x5a84(%rip),%rax        # 15050 <g_183>
    f5cc:	48 89 85 c0 f5 ff ff 	mov    %rax,-0xa40(%rbp)
    f5d3:	48 8d 85 18 f2 ff ff 	lea    -0xde8(%rbp),%rax
    f5da:	48 89 85 c8 f5 ff ff 	mov    %rax,-0xa38(%rbp)
    f5e1:	48 8d 05 90 5b 00 00 	lea    0x5b90(%rip),%rax        # 15178 <g_405+0x18>
    f5e8:	48 89 85 d0 f5 ff ff 	mov    %rax,-0xa30(%rbp)
    f5ef:	48 c7 85 d8 f5 ff ff 	movq   $0x0,-0xa28(%rbp)
    f5f6:	00 00 00 00 
    f5fa:	48 8d 05 77 5b 00 00 	lea    0x5b77(%rip),%rax        # 15178 <g_405+0x18>
    f601:	48 89 85 e0 f5 ff ff 	mov    %rax,-0xa20(%rbp)
    f608:	48 c7 85 e8 f5 ff ff 	movq   $0x0,-0xa18(%rbp)
    f60f:	00 00 00 00 
    f613:	48 8d 85 10 f2 ff ff 	lea    -0xdf0(%rbp),%rax
    f61a:	48 89 85 f0 f5 ff ff 	mov    %rax,-0xa10(%rbp)
    f621:	48 c7 85 f8 f5 ff ff 	movq   $0x0,-0xa08(%rbp)
    f628:	00 00 00 00 
    f62c:	48 8d 05 25 5a 00 00 	lea    0x5a25(%rip),%rax        # 15058 <g_183+0x8>
    f633:	48 89 85 00 f6 ff ff 	mov    %rax,-0xa00(%rbp)
    f63a:	48 8d 85 10 f2 ff ff 	lea    -0xdf0(%rbp),%rax
    f641:	48 89 85 08 f6 ff ff 	mov    %rax,-0x9f8(%rbp)
    f648:	48 8d 85 10 f2 ff ff 	lea    -0xdf0(%rbp),%rax
    f64f:	48 89 85 10 f6 ff ff 	mov    %rax,-0x9f0(%rbp)
    f656:	48 8d 05 fb 59 00 00 	lea    0x59fb(%rip),%rax        # 15058 <g_183+0x8>
    f65d:	48 89 85 18 f6 ff ff 	mov    %rax,-0x9e8(%rbp)
    f664:	48 8d 05 e5 59 00 00 	lea    0x59e5(%rip),%rax        # 15050 <g_183>
    f66b:	48 89 85 20 f6 ff ff 	mov    %rax,-0x9e0(%rbp)
    f672:	48 8d 85 18 f2 ff ff 	lea    -0xde8(%rbp),%rax
    f679:	48 89 85 28 f6 ff ff 	mov    %rax,-0x9d8(%rbp)
    f680:	48 8d 05 c9 59 00 00 	lea    0x59c9(%rip),%rax        # 15050 <g_183>
    f687:	48 89 85 30 f6 ff ff 	mov    %rax,-0x9d0(%rbp)
    f68e:	48 8d 85 18 f2 ff ff 	lea    -0xde8(%rbp),%rax
    f695:	48 89 85 38 f6 ff ff 	mov    %rax,-0x9c8(%rbp)
    f69c:	48 8d 05 b5 59 00 00 	lea    0x59b5(%rip),%rax        # 15058 <g_183+0x8>
    f6a3:	48 89 85 40 f6 ff ff 	mov    %rax,-0x9c0(%rbp)
    f6aa:	48 8d 85 18 f2 ff ff 	lea    -0xde8(%rbp),%rax
    f6b1:	48 89 85 48 f6 ff ff 	mov    %rax,-0x9b8(%rbp)
    f6b8:	48 8d 05 91 59 00 00 	lea    0x5991(%rip),%rax        # 15050 <g_183>
    f6bf:	48 89 85 50 f6 ff ff 	mov    %rax,-0x9b0(%rbp)
    f6c6:	48 c7 85 58 f6 ff ff 	movq   $0x0,-0x9a8(%rbp)
    f6cd:	00 00 00 00 
    f6d1:	48 8d 05 80 59 00 00 	lea    0x5980(%rip),%rax        # 15058 <g_183+0x8>
    f6d8:	48 89 85 60 f6 ff ff 	mov    %rax,-0x9a0(%rbp)
    f6df:	48 8d 85 10 f2 ff ff 	lea    -0xdf0(%rbp),%rax
    f6e6:	48 89 85 68 f6 ff ff 	mov    %rax,-0x998(%rbp)
    f6ed:	48 c7 85 70 f6 ff ff 	movq   $0x0,-0x990(%rbp)
    f6f4:	00 00 00 00 
    f6f8:	48 c7 85 78 f6 ff ff 	movq   $0x0,-0x988(%rbp)
    f6ff:	00 00 00 00 
    f703:	48 8d 85 10 f2 ff ff 	lea    -0xdf0(%rbp),%rax
    f70a:	48 89 85 80 f6 ff ff 	mov    %rax,-0x980(%rbp)
    f711:	48 8d 05 40 59 00 00 	lea    0x5940(%rip),%rax        # 15058 <g_183+0x8>
    f718:	48 89 85 88 f6 ff ff 	mov    %rax,-0x978(%rbp)
    f71f:	48 8d 05 52 5a 00 00 	lea    0x5a52(%rip),%rax        # 15178 <g_405+0x18>
    f726:	48 89 85 90 f6 ff ff 	mov    %rax,-0x970(%rbp)
    f72d:	48 8d 85 18 f2 ff ff 	lea    -0xde8(%rbp),%rax
    f734:	48 89 85 98 f6 ff ff 	mov    %rax,-0x968(%rbp)
    f73b:	48 8d 85 18 f2 ff ff 	lea    -0xde8(%rbp),%rax
    f742:	48 89 85 a0 f6 ff ff 	mov    %rax,-0x960(%rbp)
    f749:	48 8d 85 18 f2 ff ff 	lea    -0xde8(%rbp),%rax
    f750:	48 89 85 a8 f6 ff ff 	mov    %rax,-0x958(%rbp)
    f757:	48 8d 85 18 f2 ff ff 	lea    -0xde8(%rbp),%rax
    f75e:	48 89 85 b0 f6 ff ff 	mov    %rax,-0x950(%rbp)
    f765:	48 8d 85 18 f2 ff ff 	lea    -0xde8(%rbp),%rax
    f76c:	48 89 85 b8 f6 ff ff 	mov    %rax,-0x948(%rbp)
    f773:	48 8d 05 fe 59 00 00 	lea    0x59fe(%rip),%rax        # 15178 <g_405+0x18>
    f77a:	48 89 85 c0 f6 ff ff 	mov    %rax,-0x940(%rbp)
    f781:	48 8d 85 10 f2 ff ff 	lea    -0xdf0(%rbp),%rax
    f788:	48 89 85 c8 f6 ff ff 	mov    %rax,-0x938(%rbp)
    f78f:	48 c7 85 d0 f6 ff ff 	movq   $0x0,-0x930(%rbp)
    f796:	00 00 00 00 
    f79a:	48 c7 85 d8 f6 ff ff 	movq   $0x0,-0x928(%rbp)
    f7a1:	00 00 00 00 
    f7a5:	48 c7 85 e0 f6 ff ff 	movq   $0x0,-0x920(%rbp)
    f7ac:	00 00 00 00 
    f7b0:	48 c7 85 e8 f6 ff ff 	movq   $0x0,-0x918(%rbp)
    f7b7:	00 00 00 00 
    f7bb:	48 8d 85 10 f2 ff ff 	lea    -0xdf0(%rbp),%rax
    f7c2:	48 89 85 f0 f6 ff ff 	mov    %rax,-0x910(%rbp)
    f7c9:	48 c7 85 f8 f6 ff ff 	movq   $0x0,-0x908(%rbp)
    f7d0:	00 00 00 00 
    f7d4:	48 8d 05 7d 58 00 00 	lea    0x587d(%rip),%rax        # 15058 <g_183+0x8>
    f7db:	48 89 85 00 f7 ff ff 	mov    %rax,-0x900(%rbp)
    f7e2:	48 8d 85 18 f2 ff ff 	lea    -0xde8(%rbp),%rax
    f7e9:	48 89 85 08 f7 ff ff 	mov    %rax,-0x8f8(%rbp)
    f7f0:	48 8d 05 79 59 00 00 	lea    0x5979(%rip),%rax        # 15170 <g_405+0x10>
    f7f7:	48 89 85 10 f7 ff ff 	mov    %rax,-0x8f0(%rbp)
    f7fe:	48 8d 85 18 f2 ff ff 	lea    -0xde8(%rbp),%rax
    f805:	48 89 85 18 f7 ff ff 	mov    %rax,-0x8e8(%rbp)
    f80c:	48 8d 05 45 58 00 00 	lea    0x5845(%rip),%rax        # 15058 <g_183+0x8>
    f813:	48 89 85 20 f7 ff ff 	mov    %rax,-0x8e0(%rbp)
    f81a:	48 c7 85 28 f7 ff ff 	movq   $0x0,-0x8d8(%rbp)
    f821:	00 00 00 00 
    f825:	48 8d 05 2c 58 00 00 	lea    0x582c(%rip),%rax        # 15058 <g_183+0x8>
    f82c:	48 89 85 30 f7 ff ff 	mov    %rax,-0x8d0(%rbp)
    f833:	48 c7 85 38 f7 ff ff 	movq   $0x0,-0x8c8(%rbp)
    f83a:	00 00 00 00 
    f83e:	48 c7 85 40 f7 ff ff 	movq   $0x0,-0x8c0(%rbp)
    f845:	00 00 00 00 
    f849:	48 c7 85 48 f7 ff ff 	movq   $0x0,-0x8b8(%rbp)
    f850:	00 00 00 00 
    f854:	48 c7 85 50 f7 ff ff 	movq   $0x0,-0x8b0(%rbp)
    f85b:	00 00 00 00 
    f85f:	48 8d 85 10 f2 ff ff 	lea    -0xdf0(%rbp),%rax
    f866:	48 89 85 58 f7 ff ff 	mov    %rax,-0x8a8(%rbp)
    f86d:	48 c7 85 60 f7 ff ff 	movq   $0x0,-0x8a0(%rbp)
    f874:	00 00 00 00 
    f878:	48 8d 05 d9 57 00 00 	lea    0x57d9(%rip),%rax        # 15058 <g_183+0x8>
    f87f:	48 89 85 68 f7 ff ff 	mov    %rax,-0x898(%rbp)
    f886:	48 8d 05 c3 57 00 00 	lea    0x57c3(%rip),%rax        # 15050 <g_183>
    f88d:	48 89 85 70 f7 ff ff 	mov    %rax,-0x890(%rbp)
    f894:	48 8d 85 18 f2 ff ff 	lea    -0xde8(%rbp),%rax
    f89b:	48 89 85 78 f7 ff ff 	mov    %rax,-0x888(%rbp)
    f8a2:	48 8d 05 a7 57 00 00 	lea    0x57a7(%rip),%rax        # 15050 <g_183>
    f8a9:	48 89 85 80 f7 ff ff 	mov    %rax,-0x880(%rbp)
    f8b0:	48 c7 85 88 f7 ff ff 	movq   $0x0,-0x878(%rbp)
    f8b7:	00 00 00 00 
    f8bb:	48 8d 85 18 f2 ff ff 	lea    -0xde8(%rbp),%rax
    f8c2:	48 89 85 90 f7 ff ff 	mov    %rax,-0x870(%rbp)
    f8c9:	48 c7 85 98 f7 ff ff 	movq   $0x0,-0x868(%rbp)
    f8d0:	00 00 00 00 
    f8d4:	48 8d 05 75 57 00 00 	lea    0x5775(%rip),%rax        # 15050 <g_183>
    f8db:	48 89 85 a0 f7 ff ff 	mov    %rax,-0x860(%rbp)
    f8e2:	48 8d 85 10 f2 ff ff 	lea    -0xdf0(%rbp),%rax
    f8e9:	48 89 85 a8 f7 ff ff 	mov    %rax,-0x858(%rbp)
    f8f0:	48 8d 85 10 f2 ff ff 	lea    -0xdf0(%rbp),%rax
    f8f7:	48 89 85 b0 f7 ff ff 	mov    %rax,-0x850(%rbp)
    f8fe:	48 8d 05 53 57 00 00 	lea    0x5753(%rip),%rax        # 15058 <g_183+0x8>
    f905:	48 89 85 b8 f7 ff ff 	mov    %rax,-0x848(%rbp)
    f90c:	48 c7 85 c0 f7 ff ff 	movq   $0x0,-0x840(%rbp)
    f913:	00 00 00 00 
    f917:	48 8d 85 10 f2 ff ff 	lea    -0xdf0(%rbp),%rax
    f91e:	48 89 85 c8 f7 ff ff 	mov    %rax,-0x838(%rbp)
    f925:	48 c7 85 d0 f7 ff ff 	movq   $0x0,-0x830(%rbp)
    f92c:	00 00 00 00 
    f930:	48 c7 85 d8 f7 ff ff 	movq   $0x0,-0x828(%rbp)
    f937:	00 00 00 00 
    f93b:	48 8d 05 0e 57 00 00 	lea    0x570e(%rip),%rax        # 15050 <g_183>
    f942:	48 89 85 e0 f7 ff ff 	mov    %rax,-0x820(%rbp)
    f949:	48 c7 85 e8 f7 ff ff 	movq   $0x0,-0x818(%rbp)
    f950:	00 00 00 00 
    f954:	48 8d 05 15 58 00 00 	lea    0x5815(%rip),%rax        # 15170 <g_405+0x10>
    f95b:	48 89 85 f0 f7 ff ff 	mov    %rax,-0x810(%rbp)
    f962:	48 8d 85 18 f2 ff ff 	lea    -0xde8(%rbp),%rax
    f969:	48 89 85 f8 f7 ff ff 	mov    %rax,-0x808(%rbp)
    f970:	48 8d 05 f9 57 00 00 	lea    0x57f9(%rip),%rax        # 15170 <g_405+0x10>
    f977:	48 89 85 00 f8 ff ff 	mov    %rax,-0x800(%rbp)
    f97e:	48 c7 85 08 f8 ff ff 	movq   $0x0,-0x7f8(%rbp)
    f985:	00 00 00 00 
    f989:	48 8d 05 c0 56 00 00 	lea    0x56c0(%rip),%rax        # 15050 <g_183>
    f990:	48 89 85 10 f8 ff ff 	mov    %rax,-0x7f0(%rbp)
    f997:	48 8d 85 18 f2 ff ff 	lea    -0xde8(%rbp),%rax
    f99e:	48 89 85 18 f8 ff ff 	mov    %rax,-0x7e8(%rbp)
    f9a5:	48 c7 85 20 f8 ff ff 	movq   $0x0,-0x7e0(%rbp)
    f9ac:	00 00 00 00 
    f9b0:	48 8d 85 10 f2 ff ff 	lea    -0xdf0(%rbp),%rax
    f9b7:	48 89 85 28 f8 ff ff 	mov    %rax,-0x7d8(%rbp)
    f9be:	48 8d 85 18 f2 ff ff 	lea    -0xde8(%rbp),%rax
    f9c5:	48 89 85 30 f8 ff ff 	mov    %rax,-0x7d0(%rbp)
    f9cc:	48 8d 85 10 f2 ff ff 	lea    -0xdf0(%rbp),%rax
    f9d3:	48 89 85 38 f8 ff ff 	mov    %rax,-0x7c8(%rbp)
    f9da:	48 8d 85 10 f2 ff ff 	lea    -0xdf0(%rbp),%rax
    f9e1:	48 89 85 40 f8 ff ff 	mov    %rax,-0x7c0(%rbp)
    f9e8:	48 8d 85 10 f2 ff ff 	lea    -0xdf0(%rbp),%rax
    f9ef:	48 89 85 48 f8 ff ff 	mov    %rax,-0x7b8(%rbp)
    f9f6:	c7 85 fc f1 ff ff 00 	movl   $0x0,-0xe04(%rbp)
    f9fd:	00 00 00 
    fa00:	eb 1e                	jmp    fa20 <func_45+0x8f7>
    fa02:	8b 85 fc f1 ff ff    	mov    -0xe04(%rbp),%eax
    fa08:	48 98                	cltq   
    fa0a:	48 8d 15 ff 70 00 00 	lea    0x70ff(%rip),%rdx        # 16b10 <g_242+0x1f0>
    fa11:	48 89 94 c5 a0 f2 ff 	mov    %rdx,-0xd60(%rbp,%rax,8)
    fa18:	ff 
    fa19:	83 85 fc f1 ff ff 01 	addl   $0x1,-0xe04(%rbp)
    fa20:	83 bd fc f1 ff ff 01 	cmpl   $0x1,-0xe04(%rbp)
    fa27:	7e d9                	jle    fa02 <func_45+0x8d9>
    fa29:	90                   	nop
    fa2a:	48 8b 85 38 f2 ff ff 	mov    -0xdc8(%rbp),%rax
    fa31:	8b 00                	mov    (%rax),%eax
    fa33:	89 c2                	mov    %eax,%edx
    fa35:	48 8b 85 50 f2 ff ff 	mov    -0xdb0(%rbp),%rax
    fa3c:	48 89 85 58 f2 ff ff 	mov    %rax,-0xda8(%rbp)
    fa43:	89 d6                	mov    %edx,%esi
    fa45:	bf 00 00 00 00       	mov    $0x0,%edi
    fa4a:	e8 81 a4 ff ff       	callq  9ed0 <safe_sub_func_uint32_t_u_u>
    fa4f:	89 c2                	mov    %eax,%edx
    fa51:	48 8b 85 38 f2 ff ff 	mov    -0xdc8(%rbp),%rax
    fa58:	89 10                	mov    %edx,(%rax)
    fa5a:	c7 05 ec 56 00 00 00 	movl   $0x0,0x56ec(%rip)        # 15150 <g_401>
    fa61:	00 00 00 
    fa64:	e9 de 05 00 00       	jmpq   10047 <func_45+0xf1e>
    fa69:	66 c7 85 fa f1 ff ff 	movw   $0xfff7,-0xe06(%rbp)
    fa70:	f7 ff 
    fa72:	48 c7 85 70 f2 ff ff 	movq   $0x0,-0xd90(%rbp)
    fa79:	00 00 00 00 
    fa7d:	48 b8 d1 a8 43 63 70 	movabs $0x55af59706343a8d1,%rax
    fa84:	59 af 55 
    fa87:	48 89 85 68 f2 ff ff 	mov    %rax,-0xd98(%rbp)
    fa8e:	48 c7 05 d7 55 00 00 	movq   $0x0,0x55d7(%rip)        # 15070 <g_281>
    fa95:	00 00 00 00 
    fa99:	e9 89 05 00 00       	jmpq   10027 <func_45+0xefe>
    fa9e:	48 c7 85 20 f2 ff ff 	movq   $0x0,-0xde0(%rbp)
    faa5:	00 00 00 00 
    faa9:	48 8d 85 20 f2 ff ff 	lea    -0xde0(%rbp),%rax
    fab0:	48 89 85 78 f2 ff ff 	mov    %rax,-0xd88(%rbp)
    fab7:	c7 85 08 f2 ff ff 07 	movl   $0x7,-0xdf8(%rbp)
    fabe:	00 00 00 
    fac1:	48 8d 05 88 55 00 00 	lea    0x5588(%rip),%rax        # 15050 <g_183>
    fac8:	48 89 85 80 f2 ff ff 	mov    %rax,-0xd80(%rbp)
    facf:	c7 85 30 f3 ff ff f9 	movl   $0xfffffff9,-0xcd0(%rbp)
    fad6:	ff ff ff 
    fad9:	c7 85 34 f3 ff ff 74 	movl   $0x82a8ca74,-0xccc(%rbp)
    fae0:	ca a8 82 
    fae3:	c7 85 38 f3 ff ff ff 	movl   $0xffffffff,-0xcc8(%rbp)
    faea:	ff ff ff 
    faed:	c7 85 3c f3 ff ff 53 	movl   $0xfbbf1c53,-0xcc4(%rbp)
    faf4:	1c bf fb 
    faf7:	c7 85 40 f3 ff ff 04 	movl   $0x4,-0xcc0(%rbp)
    fafe:	00 00 00 
    fb01:	c7 85 44 f3 ff ff 04 	movl   $0x4,-0xcbc(%rbp)
    fb08:	00 00 00 
    fb0b:	c7 85 48 f3 ff ff 53 	movl   $0xfbbf1c53,-0xcb8(%rbp)
    fb12:	1c bf fb 
    fb15:	c7 85 4c f3 ff ff ff 	movl   $0xffffffff,-0xcb4(%rbp)
    fb1c:	ff ff ff 
    fb1f:	c7 85 50 f3 ff ff fc 	movl   $0xfffffffc,-0xcb0(%rbp)
    fb26:	ff ff ff 
    fb29:	c7 85 54 f3 ff ff fc 	movl   $0xfffffffc,-0xcac(%rbp)
    fb30:	ff ff ff 
    fb33:	c7 85 58 f3 ff ff ff 	movl   $0xffffffff,-0xca8(%rbp)
    fb3a:	ff ff ff 
    fb3d:	c7 85 5c f3 ff ff e4 	movl   $0x187817e4,-0xca4(%rbp)
    fb44:	17 78 18 
    fb47:	c7 85 60 f3 ff ff 08 	movl   $0x8,-0xca0(%rbp)
    fb4e:	00 00 00 
    fb51:	c7 85 64 f3 ff ff 00 	movl   $0x0,-0xc9c(%rbp)
    fb58:	00 00 00 
    fb5b:	c7 85 68 f3 ff ff ca 	movl   $0x3fba25ca,-0xc98(%rbp)
    fb62:	25 ba 3f 
    fb65:	c7 85 6c f3 ff ff f9 	movl   $0xfffffff9,-0xc94(%rbp)
    fb6c:	ff ff ff 
    fb6f:	c7 85 70 f3 ff ff 04 	movl   $0x4,-0xc90(%rbp)
    fb76:	00 00 00 
    fb79:	c7 85 74 f3 ff ff ca 	movl   $0x3fba25ca,-0xc8c(%rbp)
    fb80:	25 ba 3f 
    fb83:	c7 85 78 f3 ff ff 06 	movl   $0x6,-0xc88(%rbp)
    fb8a:	00 00 00 
    fb8d:	c7 85 7c f3 ff ff fc 	movl   $0xfffffffc,-0xc84(%rbp)
    fb94:	ff ff ff 
    fb97:	c7 85 80 f3 ff ff 06 	movl   $0x6,-0xc80(%rbp)
    fb9e:	00 00 00 
    fba1:	c7 85 84 f3 ff ff ca 	movl   $0x3fba25ca,-0xc7c(%rbp)
    fba8:	25 ba 3f 
    fbab:	c7 85 88 f3 ff ff 04 	movl   $0x4,-0xc78(%rbp)
    fbb2:	00 00 00 
    fbb5:	c7 85 8c f3 ff ff f9 	movl   $0xfffffff9,-0xc74(%rbp)
    fbbc:	ff ff ff 
    fbbf:	c7 85 90 f3 ff ff ca 	movl   $0x3fba25ca,-0xc70(%rbp)
    fbc6:	25 ba 3f 
    fbc9:	c7 85 94 f3 ff ff 00 	movl   $0x0,-0xc6c(%rbp)
    fbd0:	00 00 00 
    fbd3:	c7 85 98 f3 ff ff 08 	movl   $0x8,-0xc68(%rbp)
    fbda:	00 00 00 
    fbdd:	c7 85 9c f3 ff ff e4 	movl   $0x187817e4,-0xc64(%rbp)
    fbe4:	17 78 18 
    fbe7:	c7 85 a0 f3 ff ff ff 	movl   $0xffffffff,-0xc60(%rbp)
    fbee:	ff ff ff 
    fbf1:	c7 85 a4 f3 ff ff fc 	movl   $0xfffffffc,-0xc5c(%rbp)
    fbf8:	ff ff ff 
    fbfb:	c7 85 a8 f3 ff ff fc 	movl   $0xfffffffc,-0xc58(%rbp)
    fc02:	ff ff ff 
    fc05:	c7 85 ac f3 ff ff ff 	movl   $0xffffffff,-0xc54(%rbp)
    fc0c:	ff ff ff 
    fc0f:	c7 85 b0 f3 ff ff 53 	movl   $0xfbbf1c53,-0xc50(%rbp)
    fc16:	1c bf fb 
    fc19:	c7 85 b4 f3 ff ff 04 	movl   $0x4,-0xc4c(%rbp)
    fc20:	00 00 00 
    fc23:	c7 85 b8 f3 ff ff 04 	movl   $0x4,-0xc48(%rbp)
    fc2a:	00 00 00 
    fc2d:	c7 85 bc f3 ff ff 53 	movl   $0xfbbf1c53,-0xc44(%rbp)
    fc34:	1c bf fb 
    fc37:	c7 85 c0 f3 ff ff ff 	movl   $0xffffffff,-0xc40(%rbp)
    fc3e:	ff ff ff 
    fc41:	c7 85 c4 f3 ff ff 74 	movl   $0x82a8ca74,-0xc3c(%rbp)
    fc48:	ca a8 82 
    fc4b:	c7 85 c8 f3 ff ff f9 	movl   $0xfffffff9,-0xc38(%rbp)
    fc52:	ff ff ff 
    fc55:	c7 85 cc f3 ff ff fc 	movl   $0xfffffffc,-0xc34(%rbp)
    fc5c:	ff ff ff 
    fc5f:	c7 85 d0 f3 ff ff ca 	movl   $0x3fba25ca,-0xc30(%rbp)
    fc66:	25 ba 3f 
    fc69:	c7 85 d4 f3 ff ff f9 	movl   $0xfffffff9,-0xc2c(%rbp)
    fc70:	ff ff ff 
    fc73:	c7 85 d8 f3 ff ff fc 	movl   $0xfffffffc,-0xc28(%rbp)
    fc7a:	ff ff ff 
    fc7d:	c7 85 dc f3 ff ff ff 	movl   $0xffffffff,-0xc24(%rbp)
    fc84:	ff ff ff 
    fc87:	c7 85 e0 f3 ff ff 06 	movl   $0x6,-0xc20(%rbp)
    fc8e:	00 00 00 
    fc91:	c7 85 e4 f3 ff ff ff 	movl   $0xffffffff,-0xc1c(%rbp)
    fc98:	ff ff ff 
    fc9b:	c7 85 e8 f3 ff ff fc 	movl   $0xfffffffc,-0xc18(%rbp)
    fca2:	ff ff ff 
    fca5:	c7 85 ec f3 ff ff f9 	movl   $0xfffffff9,-0xc14(%rbp)
    fcac:	ff ff ff 
    fcaf:	c7 85 00 f2 ff ff 00 	movl   $0x0,-0xe00(%rbp)
    fcb6:	00 00 00 
    fcb9:	eb 1e                	jmp    fcd9 <func_45+0xbb0>
    fcbb:	8b 85 00 f2 ff ff    	mov    -0xe00(%rbp),%eax
    fcc1:	48 98                	cltq   
    fcc3:	48 8d 15 66 53 00 00 	lea    0x5366(%rip),%rdx        # 15030 <g_101>
    fcca:	48 89 94 c5 90 f2 ff 	mov    %rdx,-0xd70(%rbp,%rax,8)
    fcd1:	ff 
    fcd2:	83 85 00 f2 ff ff 01 	addl   $0x1,-0xe00(%rbp)
    fcd9:	83 bd 00 f2 ff ff 00 	cmpl   $0x0,-0xe00(%rbp)
    fce0:	7e d9                	jle    fcbb <func_45+0xb92>
    fce2:	48 8b 95 20 f2 ff ff 	mov    -0xde0(%rbp),%rdx
    fce9:	48 8b 85 78 f2 ff ff 	mov    -0xd88(%rbp),%rax
    fcf0:	48 89 10             	mov    %rdx,(%rax)
    fcf3:	48 8b 85 78 f2 ff ff 	mov    -0xd88(%rbp),%rax
    fcfa:	48 8b 00             	mov    (%rax),%rax
    fcfd:	48 89 05 e4 76 00 00 	mov    %rax,0x76e4(%rip)        # 173e8 <g_432>
    fd04:	48 8b 05 dd 76 00 00 	mov    0x76dd(%rip),%rax        # 173e8 <g_432>
    fd0b:	48 8d 15 0e 6f 00 00 	lea    0x6f0e(%rip),%rdx        # 16c20 <g_369+0x20>
    fd12:	48 39 d0             	cmp    %rdx,%rax
    fd15:	0f 94 c0             	sete   %al
    fd18:	0f b6 c0             	movzbl %al,%eax
    fd1b:	48 89 85 18 f2 ff ff 	mov    %rax,-0xde8(%rbp)
    fd22:	48 8b 85 18 f2 ff ff 	mov    -0xde8(%rbp),%rax
    fd29:	48 85 c0             	test   %rax,%rax
    fd2c:	0f 95 c0             	setne  %al
    fd2f:	0f b6 d8             	movzbl %al,%ebx
    fd32:	8b 85 08 f2 ff ff    	mov    -0xdf8(%rbp),%eax
    fd38:	0f b6 c0             	movzbl %al,%eax
    fd3b:	be 37 00 00 00       	mov    $0x37,%esi
    fd40:	89 c7                	mov    %eax,%edi
    fd42:	e8 4c 9e ff ff       	callq  9b93 <safe_mul_func_uint8_t_u_u>
    fd47:	0f b6 c0             	movzbl %al,%eax
    fd4a:	39 c3                	cmp    %eax,%ebx
    fd4c:	0f 9c c0             	setl   %al
    fd4f:	44 0f b6 e0          	movzbl %al,%r12d
    fd53:	48 8b 85 d8 f1 ff ff 	mov    -0xe28(%rbp),%rax
    fd5a:	0f b6 d8             	movzbl %al,%ebx
    fd5d:	8b 85 e0 f1 ff ff    	mov    -0xe20(%rbp),%eax
    fd63:	0f b7 c0             	movzwl %ax,%eax
    fd66:	be 08 00 00 00       	mov    $0x8,%esi
    fd6b:	89 c7                	mov    %eax,%edi
    fd6d:	e8 94 a0 ff ff       	callq  9e06 <safe_lshift_func_uint16_t_u_u>
    fd72:	0f b6 05 cf 52 00 00 	movzbl 0x52cf(%rip),%eax        # 15048 <g_150>
    fd79:	0f b6 d0             	movzbl %al,%edx
    fd7c:	48 8b 05 85 6b 00 00 	mov    0x6b85(%rip),%rax        # 16908 <g_127>
    fd83:	48 8b 08             	mov    (%rax),%rcx
    fd86:	48 8b 85 c8 f2 ff ff 	mov    -0xd38(%rbp),%rax
    fd8d:	48 39 c1             	cmp    %rax,%rcx
    fd90:	0f 94 c0             	sete   %al
    fd93:	0f b6 c0             	movzbl %al,%eax
    fd96:	39 c2                	cmp    %eax,%edx
    fd98:	0f 94 c0             	sete   %al
    fd9b:	0f b6 d0             	movzbl %al,%edx
    fd9e:	8b 85 08 f2 ff ff    	mov    -0xdf8(%rbp),%eax
    fda4:	98                   	cwtl   
    fda5:	89 d6                	mov    %edx,%esi
    fda7:	89 c7                	mov    %eax,%edi
    fda9:	e8 25 96 ff ff       	callq  93d3 <safe_sub_func_int16_t_s_s>
    fdae:	66 39 85 fa f1 ff ff 	cmp    %ax,-0xe06(%rbp)
    fdb5:	0f 9c c0             	setl   %al
    fdb8:	0f b6 c0             	movzbl %al,%eax
    fdbb:	89 de                	mov    %ebx,%esi
    fdbd:	89 c7                	mov    %eax,%edi
    fdbf:	e8 b4 9d ff ff       	callq  9b78 <safe_sub_func_uint8_t_u_u>
    fdc4:	0f b6 c0             	movzbl %al,%eax
    fdc7:	48 39 85 d8 f1 ff ff 	cmp    %rax,-0xe28(%rbp)
    fdce:	0f 92 c0             	setb   %al
    fdd1:	0f b6 c0             	movzbl %al,%eax
    fdd4:	41 39 c4             	cmp    %eax,%r12d
    fdd7:	48 8d 05 92 53 00 00 	lea    0x5392(%rip),%rax        # 15170 <g_405+0x10>
    fdde:	48 89 85 28 f2 ff ff 	mov    %rax,-0xdd8(%rbp)
    fde5:	c7 85 0c f2 ff ff ff 	movl   $0xffffffff,-0xdf4(%rbp)
    fdec:	ff ff ff 
    fdef:	48 8d 05 6e 52 00 00 	lea    0x526e(%rip),%rax        # 15064 <g_207>
    fdf6:	48 89 85 88 f2 ff ff 	mov    %rax,-0xd78(%rbp)
    fdfd:	c7 85 04 f2 ff ff 00 	movl   $0x0,-0xdfc(%rbp)
    fe04:	00 00 00 
    fe07:	eb 1e                	jmp    fe27 <func_45+0xcfe>
    fe09:	8b 85 04 f2 ff ff    	mov    -0xdfc(%rbp),%eax
    fe0f:	48 98                	cltq   
    fe11:	48 8d 95 28 f2 ff ff 	lea    -0xdd8(%rbp),%rdx
    fe18:	48 89 94 c5 98 f2 ff 	mov    %rdx,-0xd68(%rbp,%rax,8)
    fe1f:	ff 
    fe20:	83 85 04 f2 ff ff 01 	addl   $0x1,-0xdfc(%rbp)
    fe27:	83 bd 04 f2 ff ff 00 	cmpl   $0x0,-0xdfc(%rbp)
    fe2e:	7e d9                	jle    fe09 <func_45+0xce0>
    fe30:	48 8b 85 38 f2 ff ff 	mov    -0xdc8(%rbp),%rax
    fe37:	c7 00 01 00 00 00    	movl   $0x1,(%rax)
    fe3d:	48 8b 85 d8 f1 ff ff 	mov    -0xe28(%rbp),%rax
    fe44:	41 89 c4             	mov    %eax,%r12d
    fe47:	0f be 95 ec f1 ff ff 	movsbl -0xe14(%rbp),%edx
    fe4e:	48 8b 85 38 f2 ff ff 	mov    -0xdc8(%rbp),%rax
    fe55:	8b 00                	mov    (%rax),%eax
    fe57:	89 c1                	mov    %eax,%ecx
    fe59:	48 8b 05 b0 6a 00 00 	mov    0x6ab0(%rip),%rax        # 16910 <g_243>
    fe60:	81 e1 a2 d8 00 00    	and    $0xd8a2,%ecx
    fe66:	89 08                	mov    %ecx,(%rax)
    fe68:	8b 00                	mov    (%rax),%eax
    fe6a:	89 d6                	mov    %edx,%esi
    fe6c:	89 c7                	mov    %eax,%edi
    fe6e:	e8 b2 a0 ff ff       	callq  9f25 <safe_div_func_uint32_t_u_u>
    fe73:	0f b7 d8             	movzwl %ax,%ebx
    fe76:	48 8b 85 38 f2 ff ff 	mov    -0xdc8(%rbp),%rax
    fe7d:	8b 00                	mov    (%rax),%eax
    fe7f:	41 89 c5             	mov    %eax,%r13d
    fe82:	8b 85 0c f2 ff ff    	mov    -0xdf4(%rbp),%eax
    fe88:	0f b7 c0             	movzwl %ax,%eax
    fe8b:	be 05 00 00 00       	mov    $0x5,%esi
    fe90:	89 c7                	mov    %eax,%edi
    fe92:	e8 27 9f ff ff       	callq  9dbe <safe_lshift_func_uint16_t_u_s>
    fe97:	0f b7 c0             	movzwl %ax,%eax
    fe9a:	39 85 e0 f1 ff ff    	cmp    %eax,-0xe20(%rbp)
    fea0:	0f 9e c0             	setle  %al
    fea3:	44 09 e8             	or     %r13d,%eax
    fea6:	0f b6 d0             	movzbl %al,%edx
    fea9:	0f b6 05 99 51 00 00 	movzbl 0x5199(%rip),%eax        # 15049 <g_157>
    feb0:	0f b6 c0             	movzbl %al,%eax
    feb3:	89 d6                	mov    %edx,%esi
    feb5:	89 c7                	mov    %eax,%edi
    feb7:	e8 f2 9c ff ff       	callq  9bae <safe_mod_func_uint8_t_u_u>
    febc:	0f b6 c0             	movzbl %al,%eax
    febf:	89 de                	mov    %ebx,%esi
    fec1:	89 c7                	mov    %eax,%edi
    fec3:	e8 57 9e ff ff       	callq  9d1f <safe_sub_func_uint16_t_u_u>
    fec8:	89 c2                	mov    %eax,%edx
    feca:	0f b7 85 fa f1 ff ff 	movzwl -0xe06(%rbp),%eax
    fed1:	09 d0                	or     %edx,%eax
    fed3:	0f b6 d0             	movzbl %al,%edx
    fed6:	48 8d 85 10 f2 ff ff 	lea    -0xdf0(%rbp),%rax
    fedd:	48 89 85 70 f7 ff ff 	mov    %rax,-0x890(%rbp)
    fee4:	48 8b 85 70 f7 ff ff 	mov    -0x890(%rbp),%rax
    feeb:	48 39 85 80 f2 ff ff 	cmp    %rax,-0xd80(%rbp)
    fef2:	0f 95 c0             	setne  %al
    fef5:	0f b6 c0             	movzbl %al,%eax
    fef8:	89 d6                	mov    %edx,%esi
    fefa:	89 c7                	mov    %eax,%edi
    fefc:	e8 77 9c ff ff       	callq  9b78 <safe_sub_func_uint8_t_u_u>
    ff01:	0f b6 c0             	movzbl %al,%eax
    ff04:	44 89 e6             	mov    %r12d,%esi
    ff07:	89 c7                	mov    %eax,%edi
    ff09:	e8 b0 9e ff ff       	callq  9dbe <safe_lshift_func_uint16_t_u_s>
    ff0e:	48 8b 85 88 f2 ff ff 	mov    -0xd78(%rbp),%rax
    ff15:	66 c7 00 00 00       	movw   $0x0,(%rax)
    ff1a:	48 8b 05 df 74 00 00 	mov    0x74df(%rip),%rax        # 17400 <g_468>
    ff21:	48 85 c0             	test   %rax,%rax
    ff24:	0f 95 c0             	setne  %al
    ff27:	0f b6 c0             	movzbl %al,%eax
    ff2a:	be 06 00 00 00       	mov    $0x6,%esi
    ff2f:	89 c7                	mov    %eax,%edi
    ff31:	e8 ff 93 ff ff       	callq  9335 <safe_rshift_func_int8_t_s_s>
    ff36:	48 8d 05 23 51 00 00 	lea    0x5123(%rip),%rax        # 15060 <g_188>
    ff3d:	48 89 85 70 f2 ff ff 	mov    %rax,-0xd90(%rbp)
    ff44:	48 8b 85 48 f2 ff ff 	mov    -0xdb8(%rbp),%rax
    ff4b:	48 8b 95 70 f2 ff ff 	mov    -0xd90(%rbp),%rdx
    ff52:	48 89 10             	mov    %rdx,(%rax)
    ff55:	66 83 bd e8 f1 ff ff 	cmpw   $0x0,-0xe18(%rbp)
    ff5c:	00 
    ff5d:	0f 85 b2 00 00 00    	jne    10015 <func_45+0xeec>
    ff63:	c7 05 d7 51 00 00 00 	movl   $0x0,0x51d7(%rip)        # 15144 <g_373>
    ff6a:	00 00 00 
    ff6d:	90                   	nop
    ff6e:	8b 05 d0 51 00 00    	mov    0x51d0(%rip),%eax        # 15144 <g_373>
    ff74:	83 f8 02             	cmp    $0x2,%eax
    ff77:	7f 3d                	jg     ffb6 <func_45+0xe8d>
    ff79:	48 8b 15 f0 50 00 00 	mov    0x50f0(%rip),%rdx        # 15070 <g_281>
    ff80:	48 8b 05 e9 50 00 00 	mov    0x50e9(%rip),%rax        # 15070 <g_281>
    ff87:	48 8d 48 01          	lea    0x1(%rax),%rcx
    ff8b:	8b 05 b3 51 00 00    	mov    0x51b3(%rip),%eax        # 15144 <g_373>
    ff91:	83 c0 05             	add    $0x5,%eax
    ff94:	48 98                	cltq   
    ff96:	48 c1 e2 03          	shl    $0x3,%rdx
    ff9a:	48 01 ca             	add    %rcx,%rdx
    ff9d:	48 c1 e2 03          	shl    $0x3,%rdx
    ffa1:	48 01 c2             	add    %rax,%rdx
    ffa4:	48 8d 05 d5 50 00 00 	lea    0x50d5(%rip),%rax        # 15080 <g_352>
    ffab:	48 01 d0             	add    %rdx,%rax
    ffae:	0f b6 00             	movzbl (%rax),%eax
    ffb1:	e9 a7 00 00 00       	jmpq   1005d <func_45+0xf34>
    ffb6:	83 bd 08 f2 ff ff 00 	cmpl   $0x0,-0xdf8(%rbp)
    ffbd:	74 05                	je     ffc4 <func_45+0xe9b>
    ffbf:	e9 66 fa ff ff       	jmpq   fa2a <func_45+0x901>
    ffc4:	48 c7 85 68 f2 ff ff 	movq   $0x0,-0xd98(%rbp)
    ffcb:	00 00 00 00 
    ffcf:	eb 12                	jmp    ffe3 <func_45+0xeba>
    ffd1:	c7 85 e0 f1 ff ff 00 	movl   $0x0,-0xe20(%rbp)
    ffd8:	00 00 00 
    ffdb:	48 83 85 68 f2 ff ff 	addq   $0x1,-0xd98(%rbp)
    ffe2:	01 
    ffe3:	48 83 bd 68 f2 ff ff 	cmpq   $0x2,-0xd98(%rbp)
    ffea:	02 
    ffeb:	7e e4                	jle    ffd1 <func_45+0xea8>
    ffed:	c7 85 e0 f1 ff ff 02 	movl   $0x2,-0xe20(%rbp)
    fff4:	00 00 00 
    fff7:	eb 10                	jmp    10009 <func_45+0xee0>
    fff9:	83 bd e0 f1 ff ff 00 	cmpl   $0x0,-0xe20(%rbp)
   10000:	75 12                	jne    10014 <func_45+0xeeb>
   10002:	83 ad e0 f1 ff ff 01 	subl   $0x1,-0xe20(%rbp)
   10009:	83 bd e0 f1 ff ff 00 	cmpl   $0x0,-0xe20(%rbp)
   10010:	79 e7                	jns    fff9 <func_45+0xed0>
   10012:	eb 01                	jmp    10015 <func_45+0xeec>
   10014:	90                   	nop
   10015:	48 8b 05 54 50 00 00 	mov    0x5054(%rip),%rax        # 15070 <g_281>
   1001c:	48 83 c0 01          	add    $0x1,%rax
   10020:	48 89 05 49 50 00 00 	mov    %rax,0x5049(%rip)        # 15070 <g_281>
   10027:	48 8b 05 42 50 00 00 	mov    0x5042(%rip),%rax        # 15070 <g_281>
   1002e:	48 83 f8 02          	cmp    $0x2,%rax
   10032:	0f 86 66 fa ff ff    	jbe    fa9e <func_45+0x975>
   10038:	8b 05 12 51 00 00    	mov    0x5112(%rip),%eax        # 15150 <g_401>
   1003e:	83 c0 01             	add    $0x1,%eax
   10041:	89 05 09 51 00 00    	mov    %eax,0x5109(%rip)        # 15150 <g_401>
   10047:	8b 05 03 51 00 00    	mov    0x5103(%rip),%eax        # 15150 <g_401>
   1004d:	83 f8 0a             	cmp    $0xa,%eax
   10050:	0f 8f 13 fa ff ff    	jg     fa69 <func_45+0x940>
   10056:	0f b6 85 ec f1 ff ff 	movzbl -0xe14(%rbp),%eax
   1005d:	48 8b 5d d8          	mov    -0x28(%rbp),%rbx
   10061:	64 48 33 1c 25 28 00 	xor    %fs:0x28,%rbx
   10068:	00 00 
   1006a:	74 05                	je     10071 <func_45+0xf48>
   1006c:	e8 ff 8f ff ff       	callq  9070 <__stack_chk_fail@plt>
   10071:	48 81 c4 18 0e 00 00 	add    $0xe18,%rsp
   10078:	5b                   	pop    %rbx
   10079:	41 5c                	pop    %r12
   1007b:	41 5d                	pop    %r13
   1007d:	5d                   	pop    %rbp
   1007e:	c3                   	retq   

000000000001007f <func_51>:
   1007f:	f3 0f 1e fa          	endbr64 
   10083:	55                   	push   %rbp
   10084:	48 89 e5             	mov    %rsp,%rbp
   10087:	48 83 ec 60          	sub    $0x60,%rsp
   1008b:	89 7d cc             	mov    %edi,-0x34(%rbp)
   1008e:	48 89 75 c0          	mov    %rsi,-0x40(%rbp)
   10092:	48 89 55 b8          	mov    %rdx,-0x48(%rbp)
   10096:	48 89 4d b0          	mov    %rcx,-0x50(%rbp)
   1009a:	4c 89 45 a8          	mov    %r8,-0x58(%rbp)
   1009e:	64 48 8b 04 25 28 00 	mov    %fs:0x28,%rax
   100a5:	00 00 
   100a7:	48 89 45 f8          	mov    %rax,-0x8(%rbp)
   100ab:	31 c0                	xor    %eax,%eax
   100ad:	c7 45 d0 f8 ff ff ff 	movl   $0xfffffff8,-0x30(%rbp)
   100b4:	c7 45 d4 06 00 00 00 	movl   $0x6,-0x2c(%rbp)
   100bb:	c7 45 d8 f8 ff ff ff 	movl   $0xfffffff8,-0x28(%rbp)
   100c2:	c7 45 dc 06 00 00 00 	movl   $0x6,-0x24(%rbp)
   100c9:	c7 45 e0 f8 ff ff ff 	movl   $0xfffffff8,-0x20(%rbp)
   100d0:	c7 45 e4 06 00 00 00 	movl   $0x6,-0x1c(%rbp)
   100d7:	c7 45 e8 f8 ff ff ff 	movl   $0xfffffff8,-0x18(%rbp)
   100de:	c7 45 ec 06 00 00 00 	movl   $0x6,-0x14(%rbp)
   100e5:	8b 45 d8             	mov    -0x28(%rbp),%eax
   100e8:	48 8b 55 f8          	mov    -0x8(%rbp),%rdx
   100ec:	64 48 33 14 25 28 00 	xor    %fs:0x28,%rdx
   100f3:	00 00 
   100f5:	74 05                	je     100fc <func_51+0x7d>
   100f7:	e8 74 8f ff ff       	callq  9070 <__stack_chk_fail@plt>
   100fc:	c9                   	leaveq 
   100fd:	c3                   	retq   

00000000000100fe <func_57>:
   100fe:	f3 0f 1e fa          	endbr64 
   10102:	55                   	push   %rbp
   10103:	48 89 e5             	mov    %rsp,%rbp
   10106:	41 57                	push   %r15
   10108:	41 56                	push   %r14
   1010a:	41 55                	push   %r13
   1010c:	41 54                	push   %r12
   1010e:	53                   	push   %rbx
   1010f:	48 81 ec 08 05 00 00 	sub    $0x508,%rsp
   10116:	48 89 bd d8 fa ff ff 	mov    %rdi,-0x528(%rbp)
   1011d:	48 89 b5 d0 fa ff ff 	mov    %rsi,-0x530(%rbp)
   10124:	64 48 8b 04 25 28 00 	mov    %fs:0x28,%rax
   1012b:	00 00 
   1012d:	48 89 45 c8          	mov    %rax,-0x38(%rbp)
   10131:	31 c0                	xor    %eax,%eax
   10133:	48 c7 85 10 fb ff ff 	movq   $0x0,-0x4f0(%rbp)
   1013a:	00 00 00 00 
   1013e:	48 8d 05 e3 4e 00 00 	lea    0x4ee3(%rip),%rax        # 15028 <g_75>
   10145:	48 89 85 70 fb ff ff 	mov    %rax,-0x490(%rbp)
   1014c:	48 8d 05 d9 4e 00 00 	lea    0x4ed9(%rip),%rax        # 1502c <g_79>
   10153:	48 89 85 20 fc ff ff 	mov    %rax,-0x3e0(%rbp)
   1015a:	48 8d 05 cb 4e 00 00 	lea    0x4ecb(%rip),%rax        # 1502c <g_79>
   10161:	48 89 85 28 fc ff ff 	mov    %rax,-0x3d8(%rbp)
   10168:	48 8d 05 bd 4e 00 00 	lea    0x4ebd(%rip),%rax        # 1502c <g_79>
   1016f:	48 89 85 30 fc ff ff 	mov    %rax,-0x3d0(%rbp)
   10176:	48 8d 05 af 4e 00 00 	lea    0x4eaf(%rip),%rax        # 1502c <g_79>
   1017d:	48 89 85 38 fc ff ff 	mov    %rax,-0x3c8(%rbp)
   10184:	48 8d 05 a1 4e 00 00 	lea    0x4ea1(%rip),%rax        # 1502c <g_79>
   1018b:	48 89 85 40 fc ff ff 	mov    %rax,-0x3c0(%rbp)
   10192:	48 8d 05 cb 4e 00 00 	lea    0x4ecb(%rip),%rax        # 15064 <g_207>
   10199:	48 89 85 68 fb ff ff 	mov    %rax,-0x498(%rbp)
   101a0:	c7 85 f8 fa ff ff 89 	movl   $0x7b6a1989,-0x508(%rbp)
   101a7:	19 6a 7b 
   101aa:	48 8d 05 7b 4e 00 00 	lea    0x4e7b(%rip),%rax        # 1502c <g_79>
   101b1:	48 89 85 18 fb ff ff 	mov    %rax,-0x4e8(%rbp)
   101b8:	48 8d 85 18 fb ff ff 	lea    -0x4e8(%rbp),%rax
   101bf:	48 89 85 20 fb ff ff 	mov    %rax,-0x4e0(%rbp)
   101c6:	48 8d 85 20 fb ff ff 	lea    -0x4e0(%rbp),%rax
   101cd:	48 89 85 a0 fc ff ff 	mov    %rax,-0x360(%rbp)
   101d4:	48 8d 85 20 fb ff ff 	lea    -0x4e0(%rbp),%rax
   101db:	48 89 85 a8 fc ff ff 	mov    %rax,-0x358(%rbp)
   101e2:	48 8d 85 20 fb ff ff 	lea    -0x4e0(%rbp),%rax
   101e9:	48 89 85 b0 fc ff ff 	mov    %rax,-0x350(%rbp)
   101f0:	48 8d 85 20 fb ff ff 	lea    -0x4e0(%rbp),%rax
   101f7:	48 89 85 b8 fc ff ff 	mov    %rax,-0x348(%rbp)
   101fe:	48 c7 85 c0 fc ff ff 	movq   $0x0,-0x340(%rbp)
   10205:	00 00 00 00 
   10209:	48 8d 85 20 fb ff ff 	lea    -0x4e0(%rbp),%rax
   10210:	48 89 85 c8 fc ff ff 	mov    %rax,-0x338(%rbp)
   10217:	48 8d 85 20 fb ff ff 	lea    -0x4e0(%rbp),%rax
   1021e:	48 89 85 d0 fc ff ff 	mov    %rax,-0x330(%rbp)
   10225:	48 8d 85 20 fb ff ff 	lea    -0x4e0(%rbp),%rax
   1022c:	48 89 85 d8 fc ff ff 	mov    %rax,-0x328(%rbp)
   10233:	48 8d 85 20 fb ff ff 	lea    -0x4e0(%rbp),%rax
   1023a:	48 89 85 e0 fc ff ff 	mov    %rax,-0x320(%rbp)
   10241:	48 c7 85 e8 fc ff ff 	movq   $0x0,-0x318(%rbp)
   10248:	00 00 00 00 
   1024c:	48 c7 85 f0 fc ff ff 	movq   $0x0,-0x310(%rbp)
   10253:	00 00 00 00 
   10257:	48 8d 85 20 fb ff ff 	lea    -0x4e0(%rbp),%rax
   1025e:	48 89 85 f8 fc ff ff 	mov    %rax,-0x308(%rbp)
   10265:	48 8d 85 20 fb ff ff 	lea    -0x4e0(%rbp),%rax
   1026c:	48 89 85 00 fd ff ff 	mov    %rax,-0x300(%rbp)
   10273:	48 c7 85 08 fd ff ff 	movq   $0x0,-0x2f8(%rbp)
   1027a:	00 00 00 00 
   1027e:	48 8d 85 20 fb ff ff 	lea    -0x4e0(%rbp),%rax
   10285:	48 89 85 10 fd ff ff 	mov    %rax,-0x2f0(%rbp)
   1028c:	48 8d 85 20 fb ff ff 	lea    -0x4e0(%rbp),%rax
   10293:	48 89 85 18 fd ff ff 	mov    %rax,-0x2e8(%rbp)
   1029a:	48 8d 85 20 fb ff ff 	lea    -0x4e0(%rbp),%rax
   102a1:	48 89 85 20 fd ff ff 	mov    %rax,-0x2e0(%rbp)
   102a8:	48 8d 85 20 fb ff ff 	lea    -0x4e0(%rbp),%rax
   102af:	48 89 85 28 fd ff ff 	mov    %rax,-0x2d8(%rbp)
   102b6:	48 8d 85 20 fb ff ff 	lea    -0x4e0(%rbp),%rax
   102bd:	48 89 85 30 fd ff ff 	mov    %rax,-0x2d0(%rbp)
   102c4:	48 8d 85 20 fb ff ff 	lea    -0x4e0(%rbp),%rax
   102cb:	48 89 85 38 fd ff ff 	mov    %rax,-0x2c8(%rbp)
   102d2:	48 8d 85 20 fb ff ff 	lea    -0x4e0(%rbp),%rax
   102d9:	48 89 85 40 fd ff ff 	mov    %rax,-0x2c0(%rbp)
   102e0:	48 8d 85 20 fb ff ff 	lea    -0x4e0(%rbp),%rax
   102e7:	48 89 85 48 fd ff ff 	mov    %rax,-0x2b8(%rbp)
   102ee:	48 8d 85 20 fb ff ff 	lea    -0x4e0(%rbp),%rax
   102f5:	48 89 85 50 fd ff ff 	mov    %rax,-0x2b0(%rbp)
   102fc:	48 8d 85 20 fb ff ff 	lea    -0x4e0(%rbp),%rax
   10303:	48 89 85 58 fd ff ff 	mov    %rax,-0x2a8(%rbp)
   1030a:	48 8d 85 20 fb ff ff 	lea    -0x4e0(%rbp),%rax
   10311:	48 89 85 60 fd ff ff 	mov    %rax,-0x2a0(%rbp)
   10318:	48 c7 85 68 fd ff ff 	movq   $0x0,-0x298(%rbp)
   1031f:	00 00 00 00 
   10323:	48 8d 85 20 fb ff ff 	lea    -0x4e0(%rbp),%rax
   1032a:	48 89 85 70 fd ff ff 	mov    %rax,-0x290(%rbp)
   10331:	48 8d 85 20 fb ff ff 	lea    -0x4e0(%rbp),%rax
   10338:	48 89 85 78 fd ff ff 	mov    %rax,-0x288(%rbp)
   1033f:	48 8d 85 20 fb ff ff 	lea    -0x4e0(%rbp),%rax
   10346:	48 89 85 80 fd ff ff 	mov    %rax,-0x280(%rbp)
   1034d:	48 8d 85 20 fb ff ff 	lea    -0x4e0(%rbp),%rax
   10354:	48 89 85 88 fd ff ff 	mov    %rax,-0x278(%rbp)
   1035b:	48 8d 85 20 fb ff ff 	lea    -0x4e0(%rbp),%rax
   10362:	48 89 85 90 fd ff ff 	mov    %rax,-0x270(%rbp)
   10369:	48 c7 85 98 fd ff ff 	movq   $0x0,-0x268(%rbp)
   10370:	00 00 00 00 
   10374:	48 c7 85 a0 fd ff ff 	movq   $0x0,-0x260(%rbp)
   1037b:	00 00 00 00 
   1037f:	48 c7 85 a8 fd ff ff 	movq   $0x0,-0x258(%rbp)
   10386:	00 00 00 00 
   1038a:	48 c7 85 b0 fd ff ff 	movq   $0x0,-0x250(%rbp)
   10391:	00 00 00 00 
   10395:	48 8d 85 20 fb ff ff 	lea    -0x4e0(%rbp),%rax
   1039c:	48 89 85 b8 fd ff ff 	mov    %rax,-0x248(%rbp)
   103a3:	48 c7 85 c0 fd ff ff 	movq   $0x0,-0x240(%rbp)
   103aa:	00 00 00 00 
   103ae:	48 8d 85 20 fb ff ff 	lea    -0x4e0(%rbp),%rax
   103b5:	48 89 85 c8 fd ff ff 	mov    %rax,-0x238(%rbp)
   103bc:	48 8d 85 20 fb ff ff 	lea    -0x4e0(%rbp),%rax
   103c3:	48 89 85 d0 fd ff ff 	mov    %rax,-0x230(%rbp)
   103ca:	48 8d 85 20 fb ff ff 	lea    -0x4e0(%rbp),%rax
   103d1:	48 89 85 d8 fd ff ff 	mov    %rax,-0x228(%rbp)
   103d8:	48 8d 85 20 fb ff ff 	lea    -0x4e0(%rbp),%rax
   103df:	48 89 85 e0 fd ff ff 	mov    %rax,-0x220(%rbp)
   103e6:	48 c7 85 e8 fd ff ff 	movq   $0x0,-0x218(%rbp)
   103ed:	00 00 00 00 
   103f1:	48 8d 85 20 fb ff ff 	lea    -0x4e0(%rbp),%rax
   103f8:	48 89 85 f0 fd ff ff 	mov    %rax,-0x210(%rbp)
   103ff:	48 8d 85 20 fb ff ff 	lea    -0x4e0(%rbp),%rax
   10406:	48 89 85 f8 fd ff ff 	mov    %rax,-0x208(%rbp)
   1040d:	48 8d 85 20 fb ff ff 	lea    -0x4e0(%rbp),%rax
   10414:	48 89 85 00 fe ff ff 	mov    %rax,-0x200(%rbp)
   1041b:	48 c7 85 08 fe ff ff 	movq   $0x0,-0x1f8(%rbp)
   10422:	00 00 00 00 
   10426:	48 8d 85 20 fb ff ff 	lea    -0x4e0(%rbp),%rax
   1042d:	48 89 85 10 fe ff ff 	mov    %rax,-0x1f0(%rbp)
   10434:	48 c7 85 18 fe ff ff 	movq   $0x0,-0x1e8(%rbp)
   1043b:	00 00 00 00 
   1043f:	48 8d 85 20 fb ff ff 	lea    -0x4e0(%rbp),%rax
   10446:	48 89 85 20 fe ff ff 	mov    %rax,-0x1e0(%rbp)
   1044d:	48 8d 85 20 fb ff ff 	lea    -0x4e0(%rbp),%rax
   10454:	48 89 85 28 fe ff ff 	mov    %rax,-0x1d8(%rbp)
   1045b:	48 8d 85 20 fb ff ff 	lea    -0x4e0(%rbp),%rax
   10462:	48 89 85 30 fe ff ff 	mov    %rax,-0x1d0(%rbp)
   10469:	48 8d 85 20 fb ff ff 	lea    -0x4e0(%rbp),%rax
   10470:	48 89 85 38 fe ff ff 	mov    %rax,-0x1c8(%rbp)
   10477:	48 8d 85 20 fb ff ff 	lea    -0x4e0(%rbp),%rax
   1047e:	48 89 85 40 fe ff ff 	mov    %rax,-0x1c0(%rbp)
   10485:	48 8d 85 20 fb ff ff 	lea    -0x4e0(%rbp),%rax
   1048c:	48 89 85 48 fe ff ff 	mov    %rax,-0x1b8(%rbp)
   10493:	48 8d 85 20 fb ff ff 	lea    -0x4e0(%rbp),%rax
   1049a:	48 89 85 50 fe ff ff 	mov    %rax,-0x1b0(%rbp)
   104a1:	48 8d 85 20 fb ff ff 	lea    -0x4e0(%rbp),%rax
   104a8:	48 89 85 58 fe ff ff 	mov    %rax,-0x1a8(%rbp)
   104af:	48 8d 85 20 fb ff ff 	lea    -0x4e0(%rbp),%rax
   104b6:	48 89 85 60 fe ff ff 	mov    %rax,-0x1a0(%rbp)
   104bd:	48 8d 85 20 fb ff ff 	lea    -0x4e0(%rbp),%rax
   104c4:	48 89 85 68 fe ff ff 	mov    %rax,-0x198(%rbp)
   104cb:	48 c7 85 70 fe ff ff 	movq   $0x0,-0x190(%rbp)
   104d2:	00 00 00 00 
   104d6:	48 c7 85 78 fe ff ff 	movq   $0x0,-0x188(%rbp)
   104dd:	00 00 00 00 
   104e1:	48 8d 85 20 fb ff ff 	lea    -0x4e0(%rbp),%rax
   104e8:	48 89 85 80 fe ff ff 	mov    %rax,-0x180(%rbp)
   104ef:	48 8d 85 20 fb ff ff 	lea    -0x4e0(%rbp),%rax
   104f6:	48 89 85 88 fe ff ff 	mov    %rax,-0x178(%rbp)
   104fd:	48 8d 85 20 fb ff ff 	lea    -0x4e0(%rbp),%rax
   10504:	48 89 85 90 fe ff ff 	mov    %rax,-0x170(%rbp)
   1050b:	48 c7 85 98 fe ff ff 	movq   $0x0,-0x168(%rbp)
   10512:	00 00 00 00 
   10516:	48 c7 85 a0 fe ff ff 	movq   $0x0,-0x160(%rbp)
   1051d:	00 00 00 00 
   10521:	48 c7 85 a8 fe ff ff 	movq   $0x0,-0x158(%rbp)
   10528:	00 00 00 00 
   1052c:	48 8d 85 20 fb ff ff 	lea    -0x4e0(%rbp),%rax
   10533:	48 89 85 b0 fe ff ff 	mov    %rax,-0x150(%rbp)
   1053a:	48 8d 85 20 fb ff ff 	lea    -0x4e0(%rbp),%rax
   10541:	48 89 85 b8 fe ff ff 	mov    %rax,-0x148(%rbp)
   10548:	48 8d 85 20 fb ff ff 	lea    -0x4e0(%rbp),%rax
   1054f:	48 89 85 c0 fe ff ff 	mov    %rax,-0x140(%rbp)
   10556:	48 8d 85 20 fb ff ff 	lea    -0x4e0(%rbp),%rax
   1055d:	48 89 85 c8 fe ff ff 	mov    %rax,-0x138(%rbp)
   10564:	48 8d 85 20 fb ff ff 	lea    -0x4e0(%rbp),%rax
   1056b:	48 89 85 d0 fe ff ff 	mov    %rax,-0x130(%rbp)
   10572:	48 c7 85 d8 fe ff ff 	movq   $0x0,-0x128(%rbp)
   10579:	00 00 00 00 
   1057d:	48 8d 85 20 fb ff ff 	lea    -0x4e0(%rbp),%rax
   10584:	48 89 85 e0 fe ff ff 	mov    %rax,-0x120(%rbp)
   1058b:	48 c7 85 e8 fe ff ff 	movq   $0x0,-0x118(%rbp)
   10592:	00 00 00 00 
   10596:	48 8d 85 20 fb ff ff 	lea    -0x4e0(%rbp),%rax
   1059d:	48 89 85 f0 fe ff ff 	mov    %rax,-0x110(%rbp)
   105a4:	48 8d 85 20 fb ff ff 	lea    -0x4e0(%rbp),%rax
   105ab:	48 89 85 f8 fe ff ff 	mov    %rax,-0x108(%rbp)
   105b2:	48 c7 85 00 ff ff ff 	movq   $0x0,-0x100(%rbp)
   105b9:	00 00 00 00 
   105bd:	48 8d 85 20 fb ff ff 	lea    -0x4e0(%rbp),%rax
   105c4:	48 89 85 08 ff ff ff 	mov    %rax,-0xf8(%rbp)
   105cb:	48 c7 85 10 ff ff ff 	movq   $0x0,-0xf0(%rbp)
   105d2:	00 00 00 00 
   105d6:	48 8d 85 20 fb ff ff 	lea    -0x4e0(%rbp),%rax
   105dd:	48 89 85 18 ff ff ff 	mov    %rax,-0xe8(%rbp)
   105e4:	48 c7 85 20 ff ff ff 	movq   $0x0,-0xe0(%rbp)
   105eb:	00 00 00 00 
   105ef:	48 c7 85 28 ff ff ff 	movq   $0x0,-0xd8(%rbp)
   105f6:	00 00 00 00 
   105fa:	48 8d 85 20 fb ff ff 	lea    -0x4e0(%rbp),%rax
   10601:	48 89 85 30 ff ff ff 	mov    %rax,-0xd0(%rbp)
   10608:	48 c7 85 38 ff ff ff 	movq   $0x0,-0xc8(%rbp)
   1060f:	00 00 00 00 
   10613:	48 8d 85 20 fb ff ff 	lea    -0x4e0(%rbp),%rax
   1061a:	48 89 85 40 ff ff ff 	mov    %rax,-0xc0(%rbp)
   10621:	48 8d 85 20 fb ff ff 	lea    -0x4e0(%rbp),%rax
   10628:	48 89 85 48 ff ff ff 	mov    %rax,-0xb8(%rbp)
   1062f:	48 8d 85 20 fb ff ff 	lea    -0x4e0(%rbp),%rax
   10636:	48 89 85 50 ff ff ff 	mov    %rax,-0xb0(%rbp)
   1063d:	48 c7 85 58 ff ff ff 	movq   $0x0,-0xa8(%rbp)
   10644:	00 00 00 00 
   10648:	48 8d 85 20 fb ff ff 	lea    -0x4e0(%rbp),%rax
   1064f:	48 89 85 60 ff ff ff 	mov    %rax,-0xa0(%rbp)
   10656:	48 c7 85 68 ff ff ff 	movq   $0x0,-0x98(%rbp)
   1065d:	00 00 00 00 
   10661:	48 8d 85 20 fb ff ff 	lea    -0x4e0(%rbp),%rax
   10668:	48 89 85 70 ff ff ff 	mov    %rax,-0x90(%rbp)
   1066f:	48 8d 85 20 fb ff ff 	lea    -0x4e0(%rbp),%rax
   10676:	48 89 85 78 ff ff ff 	mov    %rax,-0x88(%rbp)
   1067d:	48 8d 85 20 fb ff ff 	lea    -0x4e0(%rbp),%rax
   10684:	48 89 45 80          	mov    %rax,-0x80(%rbp)
   10688:	48 c7 45 88 00 00 00 	movq   $0x0,-0x78(%rbp)
   1068f:	00 
   10690:	48 8d 85 20 fb ff ff 	lea    -0x4e0(%rbp),%rax
   10697:	48 89 45 90          	mov    %rax,-0x70(%rbp)
   1069b:	48 8d 85 20 fb ff ff 	lea    -0x4e0(%rbp),%rax
   106a2:	48 89 45 98          	mov    %rax,-0x68(%rbp)
   106a6:	48 8d 85 20 fb ff ff 	lea    -0x4e0(%rbp),%rax
   106ad:	48 89 45 a0          	mov    %rax,-0x60(%rbp)
   106b1:	48 8d 85 20 fb ff ff 	lea    -0x4e0(%rbp),%rax
   106b8:	48 89 45 a8          	mov    %rax,-0x58(%rbp)
   106bc:	48 c7 45 b0 00 00 00 	movq   $0x0,-0x50(%rbp)
   106c3:	00 
   106c4:	48 8d 85 20 fb ff ff 	lea    -0x4e0(%rbp),%rax
   106cb:	48 89 45 b8          	mov    %rax,-0x48(%rbp)
   106cf:	c7 85 ec fa ff ff c2 	movl   $0x116317c2,-0x514(%rbp)
   106d6:	17 63 11 
   106d9:	c6 85 e5 fa ff ff 62 	movb   $0x62,-0x51b(%rbp)
   106e0:	c7 85 f0 fa ff ff 00 	movl   $0x0,-0x510(%rbp)
   106e7:	00 00 00 
   106ea:	eb 1a                	jmp    10706 <func_57+0x608>
   106ec:	8b 85 f0 fa ff ff    	mov    -0x510(%rbp),%eax
   106f2:	48 98                	cltq   
   106f4:	c7 84 85 f8 fb ff ff 	movl   $0x3846f263,-0x408(%rbp,%rax,4)
   106fb:	63 f2 46 38 
   106ff:	83 85 f0 fa ff ff 01 	addl   $0x1,-0x510(%rbp)
   10706:	83 bd f0 fa ff ff 01 	cmpl   $0x1,-0x510(%rbp)
   1070d:	7e dd                	jle    106ec <func_57+0x5ee>
   1070f:	90                   	nop
   10710:	f3 0f 1e fa          	endbr64 
   10714:	48 8b 85 10 fb ff ff 	mov    -0x4f0(%rbp),%rax
   1071b:	48 89 05 de 61 00 00 	mov    %rax,0x61de(%rip)        # 16900 <g_38>
   10722:	b8 00 00 00 00       	mov    $0x0,%eax
   10727:	48 63 d8             	movslq %eax,%rbx
   1072a:	8b 05 f4 48 00 00    	mov    0x48f4(%rip),%eax        # 15024 <g_39>
   10730:	89 c6                	mov    %eax,%esi
   10732:	bf 01 00 00 00       	mov    $0x1,%edi
   10737:	e8 51 95 ff ff       	callq  9c8d <safe_rshift_func_uint8_t_u_s>
   1073c:	44 0f b6 e0          	movzbl %al,%r12d
   10740:	8b 05 e6 48 00 00    	mov    0x48e6(%rip),%eax        # 1502c <g_79>
   10746:	83 e8 01             	sub    $0x1,%eax
   10749:	89 05 dd 48 00 00    	mov    %eax,0x48dd(%rip)        # 1502c <g_79>
   1074f:	48 8b 85 d0 fa ff ff 	mov    -0x530(%rbp),%rax
   10756:	8b 00                	mov    (%rax),%eax
   10758:	0f b7 c0             	movzwl %ax,%eax
   1075b:	be 5f 4c 00 00       	mov    $0x4c5f,%esi
   10760:	89 c7                	mov    %eax,%edi
   10762:	e8 d6 95 ff ff       	callq  9d3d <safe_mul_func_uint16_t_u_u>
   10767:	b8 01 00 00 00       	mov    $0x1,%eax
   1076c:	be d5 c1 39 00       	mov    $0x39c1d5,%esi
   10771:	89 c7                	mov    %eax,%edi
   10773:	e8 87 8f ff ff       	callq  96ff <safe_div_func_int32_t_s_s>
   10778:	41 89 c5             	mov    %eax,%r13d
   1077b:	48 8b 85 70 fb ff ff 	mov    -0x490(%rbp),%rax
   10782:	0f b7 00             	movzwl (%rax),%eax
   10785:	89 c2                	mov    %eax,%edx
   10787:	b8 00 00 00 00       	mov    $0x0,%eax
   1078c:	21 d0                	and    %edx,%eax
   1078e:	89 c2                	mov    %eax,%edx
   10790:	48 8b 85 70 fb ff ff 	mov    -0x490(%rbp),%rax
   10797:	66 89 10             	mov    %dx,(%rax)
   1079a:	48 8b 85 70 fb ff ff 	mov    -0x490(%rbp),%rax
   107a1:	0f b7 00             	movzwl (%rax),%eax
   107a4:	0f b7 d0             	movzwl %ax,%edx
   107a7:	8b 05 77 48 00 00    	mov    0x4877(%rip),%eax        # 15024 <g_39>
   107ad:	0f b7 c0             	movzwl %ax,%eax
   107b0:	89 d6                	mov    %edx,%esi
   107b2:	89 c7                	mov    %eax,%edi
   107b4:	e8 d5 95 ff ff       	callq  9d8e <safe_div_func_uint16_t_u_u>
   107b9:	be 06 00 00 00       	mov    $0x6,%esi
   107be:	bf 92 68 00 00       	mov    $0x6892,%edi
   107c3:	e8 f6 95 ff ff       	callq  9dbe <safe_lshift_func_uint16_t_u_s>
   107c8:	0f b7 c0             	movzwl %ax,%eax
   107cb:	ba 00 00 00 00       	mov    $0x0,%edx
   107d0:	31 c2                	xor    %eax,%edx
   107d2:	8b 85 fc fb ff ff    	mov    -0x404(%rbp),%eax
   107d8:	89 d6                	mov    %edx,%esi
   107da:	89 c7                	mov    %eax,%edi
   107dc:	e8 eb 8e ff ff       	callq  96cc <safe_mod_func_int32_t_s_s>
   107e1:	44 89 ee             	mov    %r13d,%esi
   107e4:	89 c7                	mov    %eax,%edi
   107e6:	e8 e5 96 ff ff       	callq  9ed0 <safe_sub_func_uint32_t_u_u>
   107eb:	41 39 c4             	cmp    %eax,%r12d
   107ee:	0f 92 c0             	setb   %al
   107f1:	0f b6 c0             	movzbl %al,%eax
   107f4:	48 89 de             	mov    %rbx,%rsi
   107f7:	48 89 c7             	mov    %rax,%rdi
   107fa:	e8 4c 98 ff ff       	callq  a04b <safe_sub_func_uint64_t_u_u>
   107ff:	48 85 c0             	test   %rax,%rax
   10802:	0f 84 5b 04 00 00    	je     10c63 <func_57+0xb65>
   10808:	48 b8 7c b7 fa de 9b 	movabs $0xa237ff9bdefab77c,%rax
   1080f:	ff 37 a2 
   10812:	48 89 85 38 fb ff ff 	mov    %rax,-0x4c8(%rbp)
   10819:	48 8d 05 18 48 00 00 	lea    0x4818(%rip),%rax        # 15038 <g_116>
   10820:	48 89 85 90 fb ff ff 	mov    %rax,-0x470(%rbp)
   10827:	c7 85 00 fb ff ff f8 	movl   $0xfffffff8,-0x500(%rbp)
   1082e:	ff ff ff 
   10831:	c7 05 e9 47 00 00 00 	movl   $0x0,0x47e9(%rip)        # 15024 <g_39>
   10838:	00 00 00 
   1083b:	e9 0f 04 00 00       	jmpq   10c4f <func_57+0xb51>
   10840:	48 8d 85 10 fb ff ff 	lea    -0x4f0(%rbp),%rax
   10847:	48 89 85 98 fb ff ff 	mov    %rax,-0x468(%rbp)
   1084e:	48 8d 85 f8 fb ff ff 	lea    -0x408(%rbp),%rax
   10855:	48 83 c0 04          	add    $0x4,%rax
   10859:	48 89 85 a0 fb ff ff 	mov    %rax,-0x460(%rbp)
   10860:	48 c7 85 a8 fb ff ff 	movq   $0x0,-0x458(%rbp)
   10867:	00 00 00 00 
   1086b:	48 8d 05 be 47 00 00 	lea    0x47be(%rip),%rax        # 15030 <g_101>
   10872:	48 89 85 b0 fb ff ff 	mov    %rax,-0x450(%rbp)
   10879:	c7 85 04 fb ff ff f9 	movl   $0xfffffff9,-0x4fc(%rbp)
   10880:	ff ff ff 
   10883:	48 8d 05 b6 47 00 00 	lea    0x47b6(%rip),%rax        # 15040 <g_118>
   1088a:	48 89 85 b8 fb ff ff 	mov    %rax,-0x448(%rbp)
   10891:	48 8d 05 b8 47 00 00 	lea    0x47b8(%rip),%rax        # 15050 <g_183>
   10898:	48 89 85 c0 fb ff ff 	mov    %rax,-0x440(%rbp)
   1089f:	48 c7 85 c8 fb ff ff 	movq   $0x0,-0x438(%rbp)
   108a6:	00 00 00 00 
   108aa:	48 8d 85 38 fb ff ff 	lea    -0x4c8(%rbp),%rax
   108b1:	48 89 85 d0 fb ff ff 	mov    %rax,-0x430(%rbp)
   108b8:	48 8d 05 a1 47 00 00 	lea    0x47a1(%rip),%rax        # 15060 <g_188>
   108bf:	48 89 85 d8 fb ff ff 	mov    %rax,-0x428(%rbp)
   108c6:	c6 85 e7 fa ff ff f6 	movb   $0xf6,-0x519(%rbp)
   108cd:	48 8b 85 98 fb ff ff 	mov    -0x468(%rbp),%rax
   108d4:	48 8d 95 f8 fb ff ff 	lea    -0x408(%rbp),%rdx
   108db:	48 89 10             	mov    %rdx,(%rax)
   108de:	48 8b 85 98 fb ff ff 	mov    -0x468(%rbp),%rax
   108e5:	48 8b 00             	mov    (%rax),%rax
   108e8:	48 39 85 a0 fb ff ff 	cmp    %rax,-0x460(%rbp)
   108ef:	0f 85 a0 00 00 00    	jne    10995 <func_57+0x897>
   108f5:	48 8b 85 70 fb ff ff 	mov    -0x490(%rbp),%rax
   108fc:	66 c7 00 00 00       	movw   $0x0,(%rax)
   10901:	be 00 00 00 00       	mov    $0x0,%esi
   10906:	bf 7d 03 00 00       	mov    $0x37d,%edi
   1090b:	e8 53 8c ff ff       	callq  9563 <safe_rshift_func_int16_t_s_u>
   10910:	b8 00 00 00 00       	mov    $0x0,%eax
   10915:	0f b7 d8             	movzwl %ax,%ebx
   10918:	48 8b 85 38 fb ff ff 	mov    -0x4c8(%rbp),%rax
   1091f:	0f bf d0             	movswl %ax,%edx
   10922:	8b 05 04 47 00 00    	mov    0x4704(%rip),%eax        # 1502c <g_79>
   10928:	98                   	cwtl   
   10929:	89 d6                	mov    %edx,%esi
   1092b:	89 c7                	mov    %eax,%edi
   1092d:	e8 e4 8a ff ff       	callq  9416 <safe_mod_func_int16_t_s_s>
   10932:	66 85 c0             	test   %ax,%ax
   10935:	74 07                	je     1093e <func_57+0x840>
   10937:	ba 01 00 00 00       	mov    $0x1,%edx
   1093c:	eb 05                	jmp    10943 <func_57+0x845>
   1093e:	ba 00 00 00 00       	mov    $0x0,%edx
   10943:	48 8b 85 b0 fb ff ff 	mov    -0x450(%rbp),%rax
   1094a:	0f b7 00             	movzwl (%rax),%eax
   1094d:	89 c1                	mov    %eax,%ecx
   1094f:	89 d0                	mov    %edx,%eax
   10951:	31 c8                	xor    %ecx,%eax
   10953:	89 c2                	mov    %eax,%edx
   10955:	48 8b 85 b0 fb ff ff 	mov    -0x450(%rbp),%rax
   1095c:	66 89 10             	mov    %dx,(%rax)
   1095f:	48 8b 85 b0 fb ff ff 	mov    -0x450(%rbp),%rax
   10966:	0f b7 00             	movzwl (%rax),%eax
   10969:	0f b7 c0             	movzwl %ax,%eax
   1096c:	89 de                	mov    %ebx,%esi
   1096e:	89 c7                	mov    %eax,%edi
   10970:	e8 8a 93 ff ff       	callq  9cff <safe_add_func_uint16_t_u_u>
   10975:	66 85 c0             	test   %ax,%ax
   10978:	48 8b 85 10 fb ff ff 	mov    -0x4f0(%rbp),%rax
   1097f:	8b 00                	mov    (%rax),%eax
   10981:	48 98                	cltq   
   10983:	48 be 2e 12 13 6b a2 	movabs $0xead942a26b13122e,%rsi
   1098a:	42 d9 ea 
   1098d:	48 89 c7             	mov    %rax,%rdi
   10990:	e8 ac 8e ff ff       	callq  9841 <safe_add_func_int64_t_s_s>
   10995:	48 8b 85 a0 fb ff ff 	mov    -0x460(%rbp),%rax
   1099c:	8b 00                	mov    (%rax),%eax
   1099e:	85 c0                	test   %eax,%eax
   109a0:	48 8b 85 d0 fa ff ff 	mov    -0x530(%rbp),%rax
   109a7:	8b 10                	mov    (%rax),%edx
   109a9:	48 8b 85 a0 fb ff ff 	mov    -0x460(%rbp),%rax
   109b0:	89 10                	mov    %edx,(%rax)
   109b2:	c7 05 70 46 00 00 1c 	movl   $0x1c,0x4670(%rip)        # 1502c <g_79>
   109b9:	00 00 00 
   109bc:	eb 3b                	jmp    109f9 <func_57+0x8fb>
   109be:	66 c7 85 e8 fa ff ff 	movw   $0x1e0e,-0x518(%rbp)
   109c5:	0e 1e 
   109c7:	48 8d 05 72 46 00 00 	lea    0x4672(%rip),%rax        # 15040 <g_118>
   109ce:	48 89 85 e0 fb ff ff 	mov    %rax,-0x420(%rbp)
   109d5:	48 c7 85 e8 fb ff ff 	movq   $0x0,-0x418(%rbp)
   109dc:	00 00 00 00 
   109e0:	c7 85 08 fb ff ff 5a 	movl   $0xe501e45a,-0x4f8(%rbp)
   109e7:	e4 01 e5 
   109ea:	8b 05 3c 46 00 00    	mov    0x463c(%rip),%eax        # 1502c <g_79>
   109f0:	83 e8 01             	sub    $0x1,%eax
   109f3:	89 05 33 46 00 00    	mov    %eax,0x4633(%rip)        # 1502c <g_79>
   109f9:	8b 05 2d 46 00 00    	mov    0x462d(%rip),%eax        # 1502c <g_79>
   109ff:	83 f8 15             	cmp    $0x15,%eax
   10a02:	76 ba                	jbe    109be <func_57+0x8c0>
   10a04:	8b 1d 2e 46 00 00    	mov    0x462e(%rip),%ebx        # 15038 <g_116>
   10a0a:	8b 05 28 46 00 00    	mov    0x4628(%rip),%eax        # 15038 <g_116>
   10a10:	44 0f be e0          	movsbl %al,%r12d
   10a14:	48 8b 85 b8 fb ff ff 	mov    -0x448(%rbp),%rax
   10a1b:	48 8b 10             	mov    (%rax),%rdx
   10a1e:	48 8b 85 10 fb ff ff 	mov    -0x4f0(%rbp),%rax
   10a25:	8b 00                	mov    (%rax),%eax
   10a27:	48 98                	cltq   
   10a29:	48 21 c2             	and    %rax,%rdx
   10a2c:	48 8b 85 b8 fb ff ff 	mov    -0x448(%rbp),%rax
   10a33:	48 89 10             	mov    %rdx,(%rax)
   10a36:	48 8b 85 b8 fb ff ff 	mov    -0x448(%rbp),%rax
   10a3d:	48 8b 00             	mov    (%rax),%rax
   10a40:	41 89 c7             	mov    %eax,%r15d
   10a43:	48 8b 85 10 fb ff ff 	mov    -0x4f0(%rbp),%rax
   10a4a:	44 8b 28             	mov    (%rax),%r13d
   10a4d:	48 8b 85 90 fb ff ff 	mov    -0x470(%rbp),%rax
   10a54:	44 8b 30             	mov    (%rax),%r14d
   10a57:	8b 05 cf 45 00 00    	mov    0x45cf(%rip),%eax        # 1502c <g_79>
   10a5d:	85 c0                	test   %eax,%eax
   10a5f:	0f 85 b3 00 00 00    	jne    10b18 <func_57+0xa1a>
   10a65:	48 8b 85 10 fb ff ff 	mov    -0x4f0(%rbp),%rax
   10a6c:	8b 00                	mov    (%rax),%eax
   10a6e:	48 63 d0             	movslq %eax,%rdx
   10a71:	48 8b 85 c0 fb ff ff 	mov    -0x440(%rbp),%rax
   10a78:	48 89 10             	mov    %rdx,(%rax)
   10a7b:	48 8b 85 c0 fb ff ff 	mov    -0x440(%rbp),%rax
   10a82:	48 8b 00             	mov    (%rax),%rax
   10a85:	48 89 c7             	mov    %rax,%rdi
   10a88:	e8 89 8d ff ff       	callq  9816 <safe_unary_minus_func_int64_t_s>
   10a8d:	0f be c0             	movsbl %al,%eax
   10a90:	be 00 00 00 00       	mov    $0x0,%esi
   10a95:	89 c7                	mov    %eax,%edi
   10a97:	e8 56 87 ff ff       	callq  91f2 <safe_sub_func_int8_t_s_s>
   10a9c:	8b 05 82 45 00 00    	mov    0x4582(%rip),%eax        # 15024 <g_39>
   10aa2:	85 c0                	test   %eax,%eax
   10aa4:	75 0d                	jne    10ab3 <func_57+0x9b5>
   10aa6:	48 8b 85 90 fb ff ff 	mov    -0x470(%rbp),%rax
   10aad:	8b 00                	mov    (%rax),%eax
   10aaf:	85 c0                	test   %eax,%eax
   10ab1:	74 07                	je     10aba <func_57+0x9bc>
   10ab3:	ba 01 00 00 00       	mov    $0x1,%edx
   10ab8:	eb 05                	jmp    10abf <func_57+0x9c1>
   10aba:	ba 00 00 00 00       	mov    $0x0,%edx
   10abf:	48 8b 85 a0 fb ff ff 	mov    -0x460(%rbp),%rax
   10ac6:	8b 00                	mov    (%rax),%eax
   10ac8:	39 c2                	cmp    %eax,%edx
   10aca:	0f 95 c0             	setne  %al
   10acd:	0f b6 d0             	movzbl %al,%edx
   10ad0:	48 8b 85 10 fb ff ff 	mov    -0x4f0(%rbp),%rax
   10ad7:	8b 00                	mov    (%rax),%eax
   10ad9:	21 d0                	and    %edx,%eax
   10adb:	0f bf d0             	movswl %ax,%edx
   10ade:	48 8b 85 90 fb ff ff 	mov    -0x470(%rbp),%rax
   10ae5:	8b 00                	mov    (%rax),%eax
   10ae7:	98                   	cwtl   
   10ae8:	89 d6                	mov    %edx,%esi
   10aea:	89 c7                	mov    %eax,%edi
   10aec:	e8 c2 88 ff ff       	callq  93b3 <safe_add_func_int16_t_s_s>
   10af1:	0f b7 c0             	movzwl %ax,%eax
   10af4:	be ff ff 00 00       	mov    $0xffff,%esi
   10af9:	89 c7                	mov    %eax,%edi
   10afb:	e8 3d 92 ff ff       	callq  9d3d <safe_mul_func_uint16_t_u_u>
   10b00:	66 85 c0             	test   %ax,%ax
   10b03:	0f 95 c0             	setne  %al
   10b06:	0f b6 c0             	movzbl %al,%eax
   10b09:	89 85 00 fb ff ff    	mov    %eax,-0x500(%rbp)
   10b0f:	83 bd 00 fb ff ff 00 	cmpl   $0x0,-0x500(%rbp)
   10b16:	74 07                	je     10b1f <func_57+0xa21>
   10b18:	b8 01 00 00 00       	mov    $0x1,%eax
   10b1d:	eb 05                	jmp    10b24 <func_57+0xa26>
   10b1f:	b8 00 00 00 00       	mov    $0x0,%eax
   10b24:	48 63 d0             	movslq %eax,%rdx
   10b27:	48 8b 85 d0 fb ff ff 	mov    -0x430(%rbp),%rax
   10b2e:	48 89 10             	mov    %rdx,(%rax)
   10b31:	48 8b 85 d0 fb ff ff 	mov    -0x430(%rbp),%rax
   10b38:	48 8b 00             	mov    (%rax),%rax
   10b3b:	48 85 c0             	test   %rax,%rax
   10b3e:	75 09                	jne    10b49 <func_57+0xa4b>
   10b40:	b8 00 00 00 00       	mov    $0x0,%eax
   10b45:	85 c0                	test   %eax,%eax
   10b47:	74 07                	je     10b50 <func_57+0xa52>
   10b49:	ba 01 00 00 00       	mov    $0x1,%edx
   10b4e:	eb 05                	jmp    10b55 <func_57+0xa57>
   10b50:	ba 00 00 00 00       	mov    $0x0,%edx
   10b55:	48 8b 85 d8 fb ff ff 	mov    -0x428(%rbp),%rax
   10b5c:	89 10                	mov    %edx,(%rax)
   10b5e:	48 8b 85 d8 fb ff ff 	mov    -0x428(%rbp),%rax
   10b65:	8b 00                	mov    (%rax),%eax
   10b67:	3d 04 0d 46 21       	cmp    $0x21460d04,%eax
   10b6c:	0f 94 c0             	sete   %al
   10b6f:	0f b6 c0             	movzbl %al,%eax
   10b72:	41 39 c6             	cmp    %eax,%r14d
   10b75:	0f 9e c0             	setle  %al
   10b78:	0f b6 c0             	movzbl %al,%eax
   10b7b:	41 39 c5             	cmp    %eax,%r13d
   10b7e:	0f 9c c0             	setl   %al
   10b81:	0f b6 c0             	movzbl %al,%eax
   10b84:	be bf 2d 00 00       	mov    $0x2dbf,%esi
   10b89:	89 c7                	mov    %eax,%edi
   10b8b:	e8 cc 91 ff ff       	callq  9d5c <safe_mod_func_uint16_t_u_u>
   10b90:	44 31 f8             	xor    %r15d,%eax
   10b93:	83 f0 a2             	xor    $0xffffffa2,%eax
   10b96:	83 c8 fc             	or     $0xfffffffc,%eax
   10b99:	0f be c0             	movsbl %al,%eax
   10b9c:	83 e0 31             	and    $0x31,%eax
   10b9f:	44 89 e6             	mov    %r12d,%esi
   10ba2:	89 c7                	mov    %eax,%edi
   10ba4:	e8 2b 86 ff ff       	callq  91d4 <safe_add_func_int8_t_s_s>
   10ba9:	48 8b 85 10 fb ff ff 	mov    -0x4f0(%rbp),%rax
   10bb0:	8b 00                	mov    (%rax),%eax
   10bb2:	3d fa 8e 00 00       	cmp    $0x8efa,%eax
   10bb7:	0f 9e c0             	setle  %al
   10bba:	0f b6 c0             	movzbl %al,%eax
   10bbd:	89 de                	mov    %ebx,%esi
   10bbf:	89 c7                	mov    %eax,%edi
   10bc1:	e8 39 8b ff ff       	callq  96ff <safe_div_func_int32_t_s_s>
   10bc6:	48 8b 95 d8 fa ff ff 	mov    -0x528(%rbp),%rdx
   10bcd:	8b 12                	mov    (%rdx),%edx
   10bcf:	39 d0                	cmp    %edx,%eax
   10bd1:	0f 9f c0             	setg   %al
   10bd4:	0f b6 c8             	movzbl %al,%ecx
   10bd7:	48 8b 85 90 fb ff ff 	mov    -0x470(%rbp),%rax
   10bde:	8b 10                	mov    (%rax),%edx
   10be0:	48 8b 85 98 fb ff ff 	mov    -0x468(%rbp),%rax
   10be7:	48 8b 00             	mov    (%rax),%rax
   10bea:	21 ca                	and    %ecx,%edx
   10bec:	89 10                	mov    %edx,(%rax)
   10bee:	66 c7 05 39 44 00 00 	movw   $0x0,0x4439(%rip)        # 15030 <g_101>
   10bf5:	00 00 
   10bf7:	eb 3a                	jmp    10c33 <func_57+0xb35>
   10bf9:	48 8b 85 98 fb ff ff 	mov    -0x468(%rbp),%rax
   10c00:	48 8b 00             	mov    (%rax),%rax
   10c03:	8b 00                	mov    (%rax),%eax
   10c05:	89 c2                	mov    %eax,%edx
   10c07:	0f b6 85 e7 fa ff ff 	movzbl -0x519(%rbp),%eax
   10c0e:	31 d0                	xor    %edx,%eax
   10c10:	88 85 e7 fa ff ff    	mov    %al,-0x519(%rbp)
   10c16:	0f b7 05 13 44 00 00 	movzwl 0x4413(%rip),%eax        # 15030 <g_101>
   10c1d:	0f b7 c0             	movzwl %ax,%eax
   10c20:	be 03 00 00 00       	mov    $0x3,%esi
   10c25:	89 c7                	mov    %eax,%edi
   10c27:	e8 d3 90 ff ff       	callq  9cff <safe_add_func_uint16_t_u_u>
   10c2c:	66 89 05 fd 43 00 00 	mov    %ax,0x43fd(%rip)        # 15030 <g_101>
   10c33:	0f b7 05 f6 43 00 00 	movzwl 0x43f6(%rip),%eax        # 15030 <g_101>
   10c3a:	66 83 f8 24          	cmp    $0x24,%ax
   10c3e:	75 b9                	jne    10bf9 <func_57+0xafb>
   10c40:	8b 05 de 43 00 00    	mov    0x43de(%rip),%eax        # 15024 <g_39>
   10c46:	83 c0 01             	add    $0x1,%eax
   10c49:	89 05 d5 43 00 00    	mov    %eax,0x43d5(%rip)        # 15024 <g_39>
   10c4f:	8b 05 cf 43 00 00    	mov    0x43cf(%rip),%eax        # 15024 <g_39>
   10c55:	83 f8 1a             	cmp    $0x1a,%eax
   10c58:	0f 8e e2 fb ff ff    	jle    10840 <func_57+0x742>
   10c5e:	e9 8c 03 00 00       	jmpq   10fef <func_57+0xef1>
   10c63:	48 8d 85 20 fc ff ff 	lea    -0x3e0(%rbp),%rax
   10c6a:	48 89 85 28 fb ff ff 	mov    %rax,-0x4d8(%rbp)
   10c71:	48 8d 85 28 fb ff ff 	lea    -0x4d8(%rbp),%rax
   10c78:	48 89 85 40 fb ff ff 	mov    %rax,-0x4c0(%rbp)
   10c7f:	66 c7 85 00 fc ff ff 	movw   $0x1,-0x400(%rbp)
   10c86:	01 00 
   10c88:	66 c7 85 02 fc ff ff 	movw   $0x1,-0x3fe(%rbp)
   10c8f:	01 00 
   10c91:	66 c7 85 04 fc ff ff 	movw   $0x1,-0x3fc(%rbp)
   10c98:	01 00 
   10c9a:	66 c7 85 06 fc ff ff 	movw   $0x1,-0x3fa(%rbp)
   10ca1:	01 00 
   10ca3:	c7 85 f4 fa ff ff 00 	movl   $0x0,-0x50c(%rbp)
   10caa:	00 00 00 
   10cad:	eb 21                	jmp    10cd0 <func_57+0xbd2>
   10caf:	8b 85 f4 fa ff ff    	mov    -0x50c(%rbp),%eax
   10cb5:	48 98                	cltq   
   10cb7:	48 b9 bc 8a 9e b7 55 	movabs $0x7b64f655b79e8abc,%rcx
   10cbe:	f6 64 7b 
   10cc1:	48 89 8c c5 50 fc ff 	mov    %rcx,-0x3b0(%rbp,%rax,8)
   10cc8:	ff 
   10cc9:	83 85 f4 fa ff ff 01 	addl   $0x1,-0x50c(%rbp)
   10cd0:	83 bd f4 fa ff ff 02 	cmpl   $0x2,-0x50c(%rbp)
   10cd7:	7e d6                	jle    10caf <func_57+0xbb1>
   10cd9:	c7 05 51 43 00 00 01 	movl   $0x1,0x4351(%rip)        # 15034 <g_112>
   10ce0:	00 00 00 
   10ce3:	e9 f8 02 00 00       	jmpq   10fe0 <func_57+0xee2>
   10ce8:	c6 85 e6 fa ff ff ff 	movb   $0xff,-0x51a(%rbp)
   10cef:	48 c7 85 48 fb ff ff 	movq   $0xfffffffffffffffa,-0x4b8(%rbp)
   10cf6:	fa ff ff ff 
   10cfa:	48 8d 05 37 43 00 00 	lea    0x4337(%rip),%rax        # 15038 <g_116>
   10d01:	48 89 85 30 fb ff ff 	mov    %rax,-0x4d0(%rbp)
   10d08:	48 8d 05 59 43 00 00 	lea    0x4359(%rip),%rax        # 15068 <g_216>
   10d0f:	48 89 85 50 fb ff ff 	mov    %rax,-0x4b0(%rbp)
   10d16:	48 8d 85 30 fb ff ff 	lea    -0x4d0(%rbp),%rax
   10d1d:	48 89 85 58 fb ff ff 	mov    %rax,-0x4a8(%rbp)
   10d24:	48 c7 85 60 fb ff ff 	movq   $0x0,-0x4a0(%rbp)
   10d2b:	00 00 00 00 
   10d2f:	66 c7 05 f8 42 00 00 	movw   $0x0,0x42f8(%rip)        # 15030 <g_101>
   10d36:	00 00 
   10d38:	e9 95 01 00 00       	jmpq   10ed2 <func_57+0xdd4>
   10d3d:	48 8d 85 20 fc ff ff 	lea    -0x3e0(%rbp),%rax
   10d44:	48 89 85 38 fb ff ff 	mov    %rax,-0x4c8(%rbp)
   10d4b:	48 8d 85 38 fb ff ff 	lea    -0x4c8(%rbp),%rax
   10d52:	48 89 85 78 fb ff ff 	mov    %rax,-0x488(%rbp)
   10d59:	c7 85 fc fa ff ff 01 	movl   $0x1,-0x504(%rbp)
   10d60:	00 00 00 
   10d63:	48 8d 05 fa 42 00 00 	lea    0x42fa(%rip),%rax        # 15064 <g_207>
   10d6a:	48 89 85 80 fb ff ff 	mov    %rax,-0x480(%rbp)
   10d71:	48 8d 05 c0 42 00 00 	lea    0x42c0(%rip),%rax        # 15038 <g_116>
   10d78:	48 89 85 88 fb ff ff 	mov    %rax,-0x478(%rbp)
   10d7f:	48 8b 85 48 fb ff ff 	mov    -0x4b8(%rbp),%rax
   10d86:	41 89 c4             	mov    %eax,%r12d
   10d89:	0f be 9d e6 fa ff ff 	movsbl -0x51a(%rbp),%ebx
   10d90:	0f b7 05 99 42 00 00 	movzwl 0x4299(%rip),%eax        # 15030 <g_101>
   10d97:	0f b7 c0             	movzwl %ax,%eax
   10d9a:	8b 0d c0 42 00 00    	mov    0x42c0(%rip),%ecx        # 15060 <g_188>
   10da0:	48 63 d0             	movslq %eax,%rdx
   10da3:	89 8c 95 f8 fb ff ff 	mov    %ecx,-0x408(%rbp,%rdx,4)
   10daa:	48 98                	cltq   
   10dac:	8b 84 85 f8 fb ff ff 	mov    -0x408(%rbp,%rax,4),%eax
   10db3:	85 c0                	test   %eax,%eax
   10db5:	75 1b                	jne    10dd2 <func_57+0xcd4>
   10db7:	48 8b 85 78 fb ff ff 	mov    -0x488(%rbp),%rax
   10dbe:	48 c7 00 00 00 00 00 	movq   $0x0,(%rax)
   10dc5:	48 8b 85 78 fb ff ff 	mov    -0x488(%rbp),%rax
   10dcc:	48 8b 00             	mov    (%rax),%rax
   10dcf:	48 85 c0             	test   %rax,%rax
   10dd2:	b8 00 00 00 00       	mov    $0x0,%eax
   10dd7:	41 89 c5             	mov    %eax,%r13d
   10dda:	48 8b 85 50 fc ff ff 	mov    -0x3b0(%rbp),%rax
   10de1:	89 c2                	mov    %eax,%edx
   10de3:	8b 85 fc fa ff ff    	mov    -0x504(%rbp),%eax
   10de9:	83 c8 01             	or     $0x1,%eax
   10dec:	31 c2                	xor    %eax,%edx
   10dee:	41 89 d6             	mov    %edx,%r14d
   10df1:	8b 85 fc fa ff ff    	mov    -0x504(%rbp),%eax
   10df7:	0f bf d0             	movswl %ax,%edx
   10dfa:	48 8b 85 80 fb ff ff 	mov    -0x480(%rbp),%rax
   10e01:	0f b7 00             	movzwl (%rax),%eax
   10e04:	66 0d 75 22          	or     $0x2275,%ax
   10e08:	89 c1                	mov    %eax,%ecx
   10e0a:	48 8b 85 80 fb ff ff 	mov    -0x480(%rbp),%rax
   10e11:	66 89 08             	mov    %cx,(%rax)
   10e14:	48 8b 85 80 fb ff ff 	mov    -0x480(%rbp),%rax
   10e1b:	0f b7 00             	movzwl (%rax),%eax
   10e1e:	98                   	cwtl   
   10e1f:	89 d6                	mov    %edx,%esi
   10e21:	89 c7                	mov    %eax,%edi
   10e23:	e8 ab 85 ff ff       	callq  93d3 <safe_sub_func_int16_t_s_s>
   10e28:	66 85 c0             	test   %ax,%ax
   10e2b:	0f 94 c0             	sete   %al
   10e2e:	0f b6 d0             	movzbl %al,%edx
   10e31:	48 8b 85 d8 fa ff ff 	mov    -0x528(%rbp),%rax
   10e38:	8b 00                	mov    (%rax),%eax
   10e3a:	39 c2                	cmp    %eax,%edx
   10e3c:	0f 9f c0             	setg   %al
   10e3f:	44 09 f0             	or     %r14d,%eax
   10e42:	0f be c0             	movsbl %al,%eax
   10e45:	44 89 ee             	mov    %r13d,%esi
   10e48:	89 c7                	mov    %eax,%edi
   10e4a:	e8 1d 85 ff ff       	callq  936c <safe_rshift_func_int8_t_s_u>
   10e4f:	84 c0                	test   %al,%al
   10e51:	75 09                	jne    10e5c <func_57+0xd5e>
   10e53:	0f b6 05 ee 41 00 00 	movzbl 0x41ee(%rip),%eax        # 15048 <g_150>
   10e5a:	84 c0                	test   %al,%al
   10e5c:	8b 95 fc fb ff ff    	mov    -0x404(%rbp),%edx
   10e62:	0f b6 05 e0 41 00 00 	movzbl 0x41e0(%rip),%eax        # 15049 <g_157>
   10e69:	0f be c0             	movsbl %al,%eax
   10e6c:	39 c2                	cmp    %eax,%edx
   10e6e:	0f 9e c0             	setle  %al
   10e71:	0f b6 c0             	movzbl %al,%eax
   10e74:	89 de                	mov    %ebx,%esi
   10e76:	89 c7                	mov    %eax,%edi
   10e78:	e8 75 83 ff ff       	callq  91f2 <safe_sub_func_int8_t_s_s>
   10e7d:	0f be c0             	movsbl %al,%eax
   10e80:	44 89 e6             	mov    %r12d,%esi
   10e83:	89 c7                	mov    %eax,%edi
   10e85:	e8 a0 86 ff ff       	callq  952a <safe_rshift_func_int16_t_s_s>
   10e8a:	48 8b 95 88 fb ff ff 	mov    -0x478(%rbp),%rdx
   10e91:	8b 12                	mov    (%rdx),%edx
   10e93:	98                   	cwtl   
   10e94:	09 c2                	or     %eax,%edx
   10e96:	48 8b 85 88 fb ff ff 	mov    -0x478(%rbp),%rax
   10e9d:	89 10                	mov    %edx,(%rax)
   10e9f:	66 c7 05 bc 41 00 00 	movw   $0x4,0x41bc(%rip)        # 15064 <g_207>
   10ea6:	04 00 
   10ea8:	90                   	nop
   10ea9:	0f b7 05 b4 41 00 00 	movzwl 0x41b4(%rip),%eax        # 15064 <g_207>
   10eb0:	66 85 c0             	test   %ax,%ax
   10eb3:	7e 0c                	jle    10ec1 <func_57+0xdc3>
   10eb5:	48 8b 85 30 fb ff ff 	mov    -0x4d0(%rbp),%rax
   10ebc:	e9 b6 03 00 00       	jmpq   11277 <func_57+0x1179>
   10ec1:	0f b7 05 68 41 00 00 	movzwl 0x4168(%rip),%eax        # 15030 <g_101>
   10ec8:	83 c0 01             	add    $0x1,%eax
   10ecb:	66 89 05 5e 41 00 00 	mov    %ax,0x415e(%rip)        # 15030 <g_101>
   10ed2:	0f b7 05 57 41 00 00 	movzwl 0x4157(%rip),%eax        # 15030 <g_101>
   10ed9:	66 83 f8 01          	cmp    $0x1,%ax
   10edd:	0f 86 5a fe ff ff    	jbe    10d3d <func_57+0xc3f>
   10ee3:	8b 05 4b 41 00 00    	mov    0x414b(%rip),%eax        # 15034 <g_112>
   10ee9:	89 c0                	mov    %eax,%eax
   10eeb:	48 8b 84 c5 20 fc ff 	mov    -0x3e0(%rbp,%rax,8),%rax
   10ef2:	ff 
   10ef3:	48 89 05 06 5a 00 00 	mov    %rax,0x5a06(%rip)        # 16900 <g_38>
   10efa:	48 8b 85 50 fb ff ff 	mov    -0x4b0(%rbp),%rax
   10f01:	c7 00 07 00 00 00    	movl   $0x7,(%rax)
   10f07:	48 8d 85 28 fb ff ff 	lea    -0x4d8(%rbp),%rax
   10f0e:	48 39 85 40 fb ff ff 	cmp    %rax,-0x4c0(%rbp)
   10f15:	0f 95 c0             	setne  %al
   10f18:	0f b6 d8             	movzbl %al,%ebx
   10f1b:	be 01 00 00 00       	mov    $0x1,%esi
   10f20:	bf 09 00 00 00       	mov    $0x9,%edi
   10f25:	e8 94 8d ff ff       	callq  9cbe <safe_rshift_func_uint8_t_u_u>
   10f2a:	0f b6 d0             	movzbl %al,%edx
   10f2d:	0f b7 85 06 fc ff ff 	movzwl -0x3fa(%rbp),%eax
   10f34:	66 39 c2             	cmp    %ax,%dx
   10f37:	0f 97 c0             	seta   %al
   10f3a:	0f b6 c0             	movzbl %al,%eax
   10f3d:	39 c3                	cmp    %eax,%ebx
   10f3f:	7d 65                	jge    10fa6 <func_57+0xea8>
   10f41:	48 83 bd 60 fb ff ff 	cmpq   $0x0,-0x4a0(%rbp)
   10f48:	00 
   10f49:	74 12                	je     10f5d <func_57+0xe5f>
   10f4b:	0f b6 05 f6 40 00 00 	movzbl 0x40f6(%rip),%eax        # 15048 <g_150>
   10f52:	84 c0                	test   %al,%al
   10f54:	74 07                	je     10f5d <func_57+0xe5f>
   10f56:	b8 01 00 00 00       	mov    $0x1,%eax
   10f5b:	eb 05                	jmp    10f62 <func_57+0xe64>
   10f5d:	b8 00 00 00 00       	mov    $0x0,%eax
   10f62:	0f b6 d0             	movzbl %al,%edx
   10f65:	48 8b 85 58 fb ff ff 	mov    -0x4a8(%rbp),%rax
   10f6c:	48 8d 0d ed 40 00 00 	lea    0x40ed(%rip),%rcx        # 15060 <g_188>
   10f73:	48 89 08             	mov    %rcx,(%rax)
   10f76:	48 8b 85 58 fb ff ff 	mov    -0x4a8(%rbp),%rax
   10f7d:	48 8b 00             	mov    (%rax),%rax
   10f80:	48 8d 0d b1 40 00 00 	lea    0x40b1(%rip),%rcx        # 15038 <g_116>
   10f87:	48 39 c8             	cmp    %rcx,%rax
   10f8a:	0f 94 c0             	sete   %al
   10f8d:	f7 d0                	not    %eax
   10f8f:	0f b6 c0             	movzbl %al,%eax
   10f92:	89 d6                	mov    %edx,%esi
   10f94:	89 c7                	mov    %eax,%edi
   10f96:	e8 f8 8b ff ff       	callq  9b93 <safe_mul_func_uint8_t_u_u>
   10f9b:	84 c0                	test   %al,%al
   10f9d:	74 07                	je     10fa6 <func_57+0xea8>
   10f9f:	b8 01 00 00 00       	mov    $0x1,%eax
   10fa4:	eb 05                	jmp    10fab <func_57+0xead>
   10fa6:	b8 00 00 00 00       	mov    $0x0,%eax
   10fab:	0f be c0             	movsbl %al,%eax
   10fae:	be fb ff ff ff       	mov    $0xfffffffb,%esi
   10fb3:	89 c7                	mov    %eax,%edi
   10fb5:	e8 b0 82 ff ff       	callq  926a <safe_div_func_int8_t_s_s>
   10fba:	48 8b 95 d0 fa ff ff 	mov    -0x530(%rbp),%rdx
   10fc1:	8b 12                	mov    (%rdx),%edx
   10fc3:	0f be c0             	movsbl %al,%eax
   10fc6:	31 c2                	xor    %eax,%edx
   10fc8:	48 8b 85 d0 fa ff ff 	mov    -0x530(%rbp),%rax
   10fcf:	89 10                	mov    %edx,(%rax)
   10fd1:	8b 05 5d 40 00 00    	mov    0x405d(%rip),%eax        # 15034 <g_112>
   10fd7:	83 c0 01             	add    $0x1,%eax
   10fda:	89 05 54 40 00 00    	mov    %eax,0x4054(%rip)        # 15034 <g_112>
   10fe0:	8b 05 4e 40 00 00    	mov    0x404e(%rip),%eax        # 15034 <g_112>
   10fe6:	83 f8 04             	cmp    $0x4,%eax
   10fe9:	0f 86 f9 fc ff ff    	jbe    10ce8 <func_57+0xbea>
   10fef:	48 8b 85 68 fb ff ff 	mov    -0x498(%rbp),%rax
   10ff6:	0f b7 00             	movzwl (%rax),%eax
   10ff9:	8b 95 fc fb ff ff    	mov    -0x404(%rbp),%edx
   10fff:	31 c2                	xor    %eax,%edx
   11001:	48 8b 85 68 fb ff ff 	mov    -0x498(%rbp),%rax
   11008:	66 89 10             	mov    %dx,(%rax)
   1100b:	c7 85 0c fb ff ff 02 	movl   $0x2,-0x4f4(%rbp)
   11012:	00 00 00 
   11015:	66 c7 85 ea fa ff ff 	movw   $0x0,-0x516(%rbp)
   1101c:	00 00 
   1101e:	48 8d 85 f8 fb ff ff 	lea    -0x408(%rbp),%rax
   11025:	48 89 85 00 fc ff ff 	mov    %rax,-0x400(%rbp)
   1102c:	48 8d 85 f8 fb ff ff 	lea    -0x408(%rbp),%rax
   11033:	48 89 85 08 fc ff ff 	mov    %rax,-0x3f8(%rbp)
   1103a:	48 8d 85 f8 fb ff ff 	lea    -0x408(%rbp),%rax
   11041:	48 89 85 10 fc ff ff 	mov    %rax,-0x3f0(%rbp)
   11048:	48 8d 85 f8 fb ff ff 	lea    -0x408(%rbp),%rax
   1104f:	48 89 85 18 fc ff ff 	mov    %rax,-0x3e8(%rbp)
   11056:	48 8d 05 ec 3f 00 00 	lea    0x3fec(%rip),%rax        # 15049 <g_157>
   1105d:	48 89 85 50 fc ff ff 	mov    %rax,-0x3b0(%rbp)
   11064:	48 8d 05 de 3f 00 00 	lea    0x3fde(%rip),%rax        # 15049 <g_157>
   1106b:	48 89 85 58 fc ff ff 	mov    %rax,-0x3a8(%rbp)
   11072:	48 8d 05 d0 3f 00 00 	lea    0x3fd0(%rip),%rax        # 15049 <g_157>
   11079:	48 89 85 60 fc ff ff 	mov    %rax,-0x3a0(%rbp)
   11080:	48 8d 05 c2 3f 00 00 	lea    0x3fc2(%rip),%rax        # 15049 <g_157>
   11087:	48 89 85 68 fc ff ff 	mov    %rax,-0x398(%rbp)
   1108e:	48 8d 05 b4 3f 00 00 	lea    0x3fb4(%rip),%rax        # 15049 <g_157>
   11095:	48 89 85 70 fc ff ff 	mov    %rax,-0x390(%rbp)
   1109c:	48 8d 05 a6 3f 00 00 	lea    0x3fa6(%rip),%rax        # 15049 <g_157>
   110a3:	48 89 85 78 fc ff ff 	mov    %rax,-0x388(%rbp)
   110aa:	48 8d 05 98 3f 00 00 	lea    0x3f98(%rip),%rax        # 15049 <g_157>
   110b1:	48 89 85 80 fc ff ff 	mov    %rax,-0x380(%rbp)
   110b8:	48 8d 05 8a 3f 00 00 	lea    0x3f8a(%rip),%rax        # 15049 <g_157>
   110bf:	48 89 85 88 fc ff ff 	mov    %rax,-0x378(%rbp)
   110c6:	48 8d 05 7c 3f 00 00 	lea    0x3f7c(%rip),%rax        # 15049 <g_157>
   110cd:	48 89 85 90 fc ff ff 	mov    %rax,-0x370(%rbp)
   110d4:	48 8d 85 50 fc ff ff 	lea    -0x3b0(%rbp),%rax
   110db:	48 89 85 f0 fb ff ff 	mov    %rax,-0x410(%rbp)
   110e2:	0f b6 05 fd 3f 00 00 	movzbl 0x3ffd(%rip),%eax        # 150e6 <g_352+0x66>
   110e9:	0f b6 d8             	movzbl %al,%ebx
   110ec:	44 0f b7 a5 ea fa ff 	movzwl -0x516(%rbp),%r12d
   110f3:	ff 
   110f4:	8b 05 3a 3f 00 00    	mov    0x3f3a(%rip),%eax        # 15034 <g_112>
   110fa:	39 85 0c fb ff ff    	cmp    %eax,-0x4f4(%rbp)
   11100:	74 52                	je     11154 <func_57+0x1056>
   11102:	48 8b 05 07 58 00 00 	mov    0x5807(%rip),%rax        # 16910 <g_243>
   11109:	8b 00                	mov    (%rax),%eax
   1110b:	85 c0                	test   %eax,%eax
   1110d:	74 2a                	je     11139 <func_57+0x103b>
   1110f:	8b 85 f8 fa ff ff    	mov    -0x508(%rbp),%eax
   11115:	48 98                	cltq   
   11117:	83 bd 0c fb ff ff 00 	cmpl   $0x0,-0x4f4(%rbp)
   1111e:	75 0a                	jne    1112a <func_57+0x102c>
   11120:	0f b7 15 09 3f 00 00 	movzwl 0x3f09(%rip),%edx        # 15030 <g_101>
   11127:	66 85 d2             	test   %dx,%dx
   1112a:	48 89 c6             	mov    %rax,%rsi
   1112d:	48 c7 c7 ff ff ff ff 	mov    $0xffffffffffffffff,%rdi
   11134:	e8 f5 8e ff ff       	callq  a02e <safe_add_func_uint64_t_u_u>
   11139:	ba 00 00 00 00       	mov    $0x0,%edx
   1113e:	48 8b 85 d0 fa ff ff 	mov    -0x530(%rbp),%rax
   11145:	8b 00                	mov    (%rax),%eax
   11147:	09 d0                	or     %edx,%eax
   11149:	85 c0                	test   %eax,%eax
   1114b:	74 07                	je     11154 <func_57+0x1056>
   1114d:	b8 01 00 00 00       	mov    $0x1,%eax
   11152:	eb 05                	jmp    11159 <func_57+0x105b>
   11154:	b8 00 00 00 00       	mov    $0x0,%eax
   11159:	0f b7 c0             	movzwl %ax,%eax
   1115c:	44 89 e6             	mov    %r12d,%esi
   1115f:	89 c7                	mov    %eax,%edi
   11161:	e8 b9 8b ff ff       	callq  9d1f <safe_sub_func_uint16_t_u_u>
   11166:	66 39 85 ea fa ff ff 	cmp    %ax,-0x516(%rbp)
   1116d:	0f 92 c0             	setb   %al
   11170:	0f b6 d0             	movzbl %al,%edx
   11173:	0f b6 05 ce 3e 00 00 	movzbl 0x3ece(%rip),%eax        # 15048 <g_150>
   1117a:	0f b6 c0             	movzbl %al,%eax
   1117d:	09 d0                	or     %edx,%eax
   1117f:	89 de                	mov    %ebx,%esi
   11181:	89 c7                	mov    %eax,%edi
   11183:	e8 77 85 ff ff       	callq  96ff <safe_div_func_int32_t_s_s>
   11188:	85 c0                	test   %eax,%eax
   1118a:	75 0b                	jne    11197 <func_57+0x1099>
   1118c:	48 8b 85 d0 fa ff ff 	mov    -0x530(%rbp),%rax
   11193:	8b 00                	mov    (%rax),%eax
   11195:	85 c0                	test   %eax,%eax
   11197:	0f b6 05 f2 77 00 00 	movzbl 0x77f2(%rip),%eax        # 18990 <g_165>
   1119e:	b8 00 00 00 00       	mov    $0x0,%eax
   111a3:	31 85 ec fa ff ff    	xor    %eax,-0x514(%rbp)
   111a9:	48 8b 85 d8 fa ff ff 	mov    -0x528(%rbp),%rax
   111b0:	8b 18                	mov    (%rax),%ebx
   111b2:	8b 05 6c 3e 00 00    	mov    0x3e6c(%rip),%eax        # 15024 <g_39>
   111b8:	44 0f b6 e0          	movzbl %al,%r12d
   111bc:	8b 05 9e 3e 00 00    	mov    0x3e9e(%rip),%eax        # 15060 <g_188>
   111c2:	85 c0                	test   %eax,%eax
   111c4:	74 72                	je     11238 <func_57+0x113a>
   111c6:	48 8b 95 70 fc ff ff 	mov    -0x390(%rbp),%rdx
   111cd:	48 8b 85 f0 fb ff ff 	mov    -0x410(%rbp),%rax
   111d4:	48 89 10             	mov    %rdx,(%rax)
   111d7:	8b 85 f8 fa ff ff    	mov    -0x508(%rbp),%eax
   111dd:	44 0f b7 e8          	movzwl %ax,%r13d
   111e1:	b8 00 00 00 00       	mov    $0x0,%eax
   111e6:	44 0f b6 f0          	movzbl %al,%r14d
   111ea:	48 8b 05 2f 5d 00 00 	mov    0x5d2f(%rip),%rax        # 16f20 <g_368+0x2c0>
   111f1:	48 85 c0             	test   %rax,%rax
   111f4:	74 07                	je     111fd <func_57+0x10ff>
   111f6:	83 bd f8 fa ff ff 00 	cmpl   $0x0,-0x508(%rbp)
   111fd:	be 08 00 00 00       	mov    $0x8,%esi
   11202:	bf 01 00 00 00       	mov    $0x1,%edi
   11207:	e8 6e 8c ff ff       	callq  9e7a <safe_rshift_func_uint16_t_u_u>
   1120c:	0f b6 c0             	movzbl %al,%eax
   1120f:	44 89 f6             	mov    %r14d,%esi
   11212:	89 c7                	mov    %eax,%edi
   11214:	e8 95 89 ff ff       	callq  9bae <safe_mod_func_uint8_t_u_u>
   11219:	0f b6 c0             	movzbl %al,%eax
   1121c:	8b 15 46 3e 00 00    	mov    0x3e46(%rip),%edx        # 15068 <g_216>
   11222:	09 d0                	or     %edx,%eax
   11224:	0f b7 c0             	movzwl %ax,%eax
   11227:	44 89 ee             	mov    %r13d,%esi
   1122a:	89 c7                	mov    %eax,%edi
   1122c:	e8 5d 8b ff ff       	callq  9d8e <safe_div_func_uint16_t_u_u>
   11231:	ba 01 00 00 00       	mov    $0x1,%edx
   11236:	eb 05                	jmp    1123d <func_57+0x113f>
   11238:	ba 00 00 00 00       	mov    $0x0,%edx
   1123d:	0f be 85 e5 fa ff ff 	movsbl -0x51b(%rbp),%eax
   11244:	39 c2                	cmp    %eax,%edx
   11246:	0f 94 c0             	sete   %al
   11249:	0f b6 c0             	movzbl %al,%eax
   1124c:	44 89 e6             	mov    %r12d,%esi
   1124f:	89 c7                	mov    %eax,%edi
   11251:	e8 3d 89 ff ff       	callq  9b93 <safe_mul_func_uint8_t_u_u>
   11256:	0f b6 c0             	movzbl %al,%eax
   11259:	89 de                	mov    %ebx,%esi
   1125b:	89 c7                	mov    %eax,%edi
   1125d:	e8 9d 84 ff ff       	callq  96ff <safe_div_func_int32_t_s_s>
   11262:	0f b7 05 0f 3e 00 00 	movzwl 0x3e0f(%rip),%eax        # 15078 <g_312>
   11269:	98                   	cwtl   
   1126a:	31 85 ec fa ff ff    	xor    %eax,-0x514(%rbp)
   11270:	48 8b 85 d8 fa ff ff 	mov    -0x528(%rbp),%rax
   11277:	48 8b 4d c8          	mov    -0x38(%rbp),%rcx
   1127b:	64 48 33 0c 25 28 00 	xor    %fs:0x28,%rcx
   11282:	00 00 
   11284:	74 05                	je     1128b <func_57+0x118d>
   11286:	e8 e5 7d ff ff       	callq  9070 <__stack_chk_fail@plt>
   1128b:	48 81 c4 08 05 00 00 	add    $0x508,%rsp
   11292:	5b                   	pop    %rbx
   11293:	41 5c                	pop    %r12
   11295:	41 5d                	pop    %r13
   11297:	41 5e                	pop    %r14
   11299:	41 5f                	pop    %r15
   1129b:	5d                   	pop    %rbp
   1129c:	c3                   	retq   

000000000001129d <main>:
   1129d:	f3 0f 1e fa          	endbr64 
   112a1:	55                   	push   %rbp
   112a2:	48 89 e5             	mov    %rsp,%rbp
   112a5:	48 83 ec 20          	sub    $0x20,%rsp
   112a9:	89 7d ec             	mov    %edi,-0x14(%rbp)
   112ac:	48 89 75 e0          	mov    %rsi,-0x20(%rbp)
   112b0:	c7 45 fc 00 00 00 00 	movl   $0x0,-0x4(%rbp)
   112b7:	83 7d ec 02          	cmpl   $0x2,-0x14(%rbp)
   112bb:	75 25                	jne    112e2 <main+0x45>
   112bd:	48 8b 45 e0          	mov    -0x20(%rbp),%rax
   112c1:	48 83 c0 08          	add    $0x8,%rax
   112c5:	48 8b 00             	mov    (%rax),%rax
   112c8:	48 8d 35 a5 0d 00 00 	lea    0xda5(%rip),%rsi        # 12074 <g_2298+0x4>
   112cf:	48 89 c7             	mov    %rax,%rdi
   112d2:	e8 b9 7d ff ff       	callq  9090 <strcmp@plt>
   112d7:	85 c0                	test   %eax,%eax
   112d9:	75 07                	jne    112e2 <main+0x45>
   112db:	c7 45 fc 01 00 00 00 	movl   $0x1,-0x4(%rbp)
   112e2:	e8 a2 7e ff ff       	callq  9189 <platform_main_begin>
   112e7:	e8 ac 92 ff ff       	callq  a598 <crc32_gentab>
   112ec:	e8 c4 94 ff ff       	callq  a7b5 <func_1>
   112f1:	c7 45 f0 00 00 00 00 	movl   $0x0,-0x10(%rbp)
   112f8:	eb 4b                	jmp    11345 <main+0xa8>
   112fa:	8b 45 f0             	mov    -0x10(%rbp),%eax
   112fd:	48 98                	cltq   
   112ff:	48 8d 14 85 00 00 00 	lea    0x0(,%rax,4),%rdx
   11306:	00 
   11307:	48 8d 05 42 0d 00 00 	lea    0xd42(%rip),%rax        # 12050 <g_4>
   1130e:	8b 04 02             	mov    (%rdx,%rax,1),%eax
   11311:	48 98                	cltq   
   11313:	8b 55 fc             	mov    -0x4(%rbp),%edx
   11316:	48 8d 35 59 0d 00 00 	lea    0xd59(%rip),%rsi        # 12076 <g_2298+0x6>
   1131d:	48 89 c7             	mov    %rax,%rdi
   11320:	e8 ce 93 ff ff       	callq  a6f3 <transparent_crc>
   11325:	83 7d fc 00          	cmpl   $0x0,-0x4(%rbp)
   11329:	74 16                	je     11341 <main+0xa4>
   1132b:	8b 45 f0             	mov    -0x10(%rbp),%eax
   1132e:	89 c6                	mov    %eax,%esi
   11330:	48 8d 3d 46 0d 00 00 	lea    0xd46(%rip),%rdi        # 1207d <g_2298+0xd>
   11337:	b8 00 00 00 00       	mov    $0x0,%eax
   1133c:	e8 3f 7d ff ff       	callq  9080 <printf@plt>
   11341:	83 45 f0 01          	addl   $0x1,-0x10(%rbp)
   11345:	83 7d f0 04          	cmpl   $0x4,-0x10(%rbp)
   11349:	7e af                	jle    112fa <main+0x5d>
   1134b:	8b 05 d3 3c 00 00    	mov    0x3cd3(%rip),%eax        # 15024 <g_39>
   11351:	48 98                	cltq   
   11353:	8b 55 fc             	mov    -0x4(%rbp),%edx
   11356:	48 8d 35 2e 0d 00 00 	lea    0xd2e(%rip),%rsi        # 1208b <g_2298+0x1b>
   1135d:	48 89 c7             	mov    %rax,%rdi
   11360:	e8 8e 93 ff ff       	callq  a6f3 <transparent_crc>
   11365:	0f b7 05 bc 3c 00 00 	movzwl 0x3cbc(%rip),%eax        # 15028 <g_75>
   1136c:	0f b7 c0             	movzwl %ax,%eax
   1136f:	8b 55 fc             	mov    -0x4(%rbp),%edx
   11372:	48 8d 35 17 0d 00 00 	lea    0xd17(%rip),%rsi        # 12090 <g_2298+0x20>
   11379:	48 89 c7             	mov    %rax,%rdi
   1137c:	e8 72 93 ff ff       	callq  a6f3 <transparent_crc>
   11381:	8b 05 a5 3c 00 00    	mov    0x3ca5(%rip),%eax        # 1502c <g_79>
   11387:	89 c1                	mov    %eax,%ecx
   11389:	8b 45 fc             	mov    -0x4(%rbp),%eax
   1138c:	89 c2                	mov    %eax,%edx
   1138e:	48 8d 35 00 0d 00 00 	lea    0xd00(%rip),%rsi        # 12095 <g_2298+0x25>
   11395:	48 89 cf             	mov    %rcx,%rdi
   11398:	e8 56 93 ff ff       	callq  a6f3 <transparent_crc>
   1139d:	0f b7 05 8c 3c 00 00 	movzwl 0x3c8c(%rip),%eax        # 15030 <g_101>
   113a4:	0f b7 c0             	movzwl %ax,%eax
   113a7:	8b 55 fc             	mov    -0x4(%rbp),%edx
   113aa:	48 8d 35 e9 0c 00 00 	lea    0xce9(%rip),%rsi        # 1209a <g_2298+0x2a>
   113b1:	48 89 c7             	mov    %rax,%rdi
   113b4:	e8 3a 93 ff ff       	callq  a6f3 <transparent_crc>
   113b9:	8b 05 75 3c 00 00    	mov    0x3c75(%rip),%eax        # 15034 <g_112>
   113bf:	89 c1                	mov    %eax,%ecx
   113c1:	8b 45 fc             	mov    -0x4(%rbp),%eax
   113c4:	89 c2                	mov    %eax,%edx
   113c6:	48 8d 35 d3 0c 00 00 	lea    0xcd3(%rip),%rsi        # 120a0 <g_2298+0x30>
   113cd:	48 89 cf             	mov    %rcx,%rdi
   113d0:	e8 1e 93 ff ff       	callq  a6f3 <transparent_crc>
   113d5:	8b 05 5d 3c 00 00    	mov    0x3c5d(%rip),%eax        # 15038 <g_116>
   113db:	48 98                	cltq   
   113dd:	8b 55 fc             	mov    -0x4(%rbp),%edx
   113e0:	48 8d 35 bf 0c 00 00 	lea    0xcbf(%rip),%rsi        # 120a6 <g_2298+0x36>
   113e7:	48 89 c7             	mov    %rax,%rdi
   113ea:	e8 04 93 ff ff       	callq  a6f3 <transparent_crc>
   113ef:	48 8b 05 4a 3c 00 00 	mov    0x3c4a(%rip),%rax        # 15040 <g_118>
   113f6:	48 89 c1             	mov    %rax,%rcx
   113f9:	8b 45 fc             	mov    -0x4(%rbp),%eax
   113fc:	89 c2                	mov    %eax,%edx
   113fe:	48 8d 35 a7 0c 00 00 	lea    0xca7(%rip),%rsi        # 120ac <g_2298+0x3c>
   11405:	48 89 cf             	mov    %rcx,%rdi
   11408:	e8 e6 92 ff ff       	callq  a6f3 <transparent_crc>
   1140d:	0f b6 05 34 3c 00 00 	movzbl 0x3c34(%rip),%eax        # 15048 <g_150>
   11414:	0f b6 c0             	movzbl %al,%eax
   11417:	8b 55 fc             	mov    -0x4(%rbp),%edx
   1141a:	48 8d 35 91 0c 00 00 	lea    0xc91(%rip),%rsi        # 120b2 <g_2298+0x42>
   11421:	48 89 c7             	mov    %rax,%rdi
   11424:	e8 ca 92 ff ff       	callq  a6f3 <transparent_crc>
   11429:	0f b6 05 19 3c 00 00 	movzbl 0x3c19(%rip),%eax        # 15049 <g_157>
   11430:	48 0f be c0          	movsbq %al,%rax
   11434:	8b 55 fc             	mov    -0x4(%rbp),%edx
   11437:	48 8d 35 7a 0c 00 00 	lea    0xc7a(%rip),%rsi        # 120b8 <g_2298+0x48>
   1143e:	48 89 c7             	mov    %rax,%rdi
   11441:	e8 ad 92 ff ff       	callq  a6f3 <transparent_crc>
   11446:	0f b6 05 43 75 00 00 	movzbl 0x7543(%rip),%eax        # 18990 <g_165>
   1144d:	0f b6 c0             	movzbl %al,%eax
   11450:	8b 55 fc             	mov    -0x4(%rbp),%edx
   11453:	48 8d 35 64 0c 00 00 	lea    0xc64(%rip),%rsi        # 120be <g_2298+0x4e>
   1145a:	48 89 c7             	mov    %rax,%rdi
   1145d:	e8 91 92 ff ff       	callq  a6f3 <transparent_crc>
   11462:	c7 45 f0 00 00 00 00 	movl   $0x0,-0x10(%rbp)
   11469:	eb 4f                	jmp    114ba <main+0x21d>
   1146b:	8b 45 f0             	mov    -0x10(%rbp),%eax
   1146e:	48 98                	cltq   
   11470:	48 8d 14 c5 00 00 00 	lea    0x0(,%rax,8),%rdx
   11477:	00 
   11478:	48 8d 05 d1 3b 00 00 	lea    0x3bd1(%rip),%rax        # 15050 <g_183>
   1147f:	48 8b 04 02          	mov    (%rdx,%rax,1),%rax
   11483:	48 89 c1             	mov    %rax,%rcx
   11486:	8b 45 fc             	mov    -0x4(%rbp),%eax
   11489:	89 c2                	mov    %eax,%edx
   1148b:	48 8d 35 32 0c 00 00 	lea    0xc32(%rip),%rsi        # 120c4 <g_2298+0x54>
   11492:	48 89 cf             	mov    %rcx,%rdi
   11495:	e8 59 92 ff ff       	callq  a6f3 <transparent_crc>
   1149a:	83 7d fc 00          	cmpl   $0x0,-0x4(%rbp)
   1149e:	74 16                	je     114b6 <main+0x219>
   114a0:	8b 45 f0             	mov    -0x10(%rbp),%eax
   114a3:	89 c6                	mov    %eax,%esi
   114a5:	48 8d 3d d1 0b 00 00 	lea    0xbd1(%rip),%rdi        # 1207d <g_2298+0xd>
   114ac:	b8 00 00 00 00       	mov    $0x0,%eax
   114b1:	e8 ca 7b ff ff       	callq  9080 <printf@plt>
   114b6:	83 45 f0 01          	addl   $0x1,-0x10(%rbp)
   114ba:	83 7d f0 01          	cmpl   $0x1,-0x10(%rbp)
   114be:	7e ab                	jle    1146b <main+0x1ce>
   114c0:	8b 05 9a 3b 00 00    	mov    0x3b9a(%rip),%eax        # 15060 <g_188>
   114c6:	48 98                	cltq   
   114c8:	8b 55 fc             	mov    -0x4(%rbp),%edx
   114cb:	48 8d 35 fb 0b 00 00 	lea    0xbfb(%rip),%rsi        # 120cd <g_2298+0x5d>
   114d2:	48 89 c7             	mov    %rax,%rdi
   114d5:	e8 19 92 ff ff       	callq  a6f3 <transparent_crc>
   114da:	0f b7 05 83 3b 00 00 	movzwl 0x3b83(%rip),%eax        # 15064 <g_207>
   114e1:	48 0f bf c0          	movswq %ax,%rax
   114e5:	8b 55 fc             	mov    -0x4(%rbp),%edx
   114e8:	48 8d 35 e4 0b 00 00 	lea    0xbe4(%rip),%rsi        # 120d3 <g_2298+0x63>
   114ef:	48 89 c7             	mov    %rax,%rdi
   114f2:	e8 fc 91 ff ff       	callq  a6f3 <transparent_crc>
   114f7:	8b 05 6b 3b 00 00    	mov    0x3b6b(%rip),%eax        # 15068 <g_216>
   114fd:	89 c1                	mov    %eax,%ecx
   114ff:	8b 45 fc             	mov    -0x4(%rbp),%eax
   11502:	89 c2                	mov    %eax,%edx
   11504:	48 8d 35 ce 0b 00 00 	lea    0xbce(%rip),%rsi        # 120d9 <g_2298+0x69>
   1150b:	48 89 cf             	mov    %rcx,%rdi
   1150e:	e8 e0 91 ff ff       	callq  a6f3 <transparent_crc>
   11513:	48 8b 05 56 3b 00 00 	mov    0x3b56(%rip),%rax        # 15070 <g_281>
   1151a:	8b 55 fc             	mov    -0x4(%rbp),%edx
   1151d:	48 8d 35 bb 0b 00 00 	lea    0xbbb(%rip),%rsi        # 120df <g_2298+0x6f>
   11524:	48 89 c7             	mov    %rax,%rdi
   11527:	e8 c7 91 ff ff       	callq  a6f3 <transparent_crc>
   1152c:	0f b7 05 45 3b 00 00 	movzwl 0x3b45(%rip),%eax        # 15078 <g_312>
   11533:	48 0f bf c0          	movswq %ax,%rax
   11537:	8b 55 fc             	mov    -0x4(%rbp),%edx
   1153a:	48 8d 35 a4 0b 00 00 	lea    0xba4(%rip),%rsi        # 120e5 <g_2298+0x75>
   11541:	48 89 c7             	mov    %rax,%rdi
   11544:	e8 aa 91 ff ff       	callq  a6f3 <transparent_crc>
   11549:	c7 45 f0 00 00 00 00 	movl   $0x0,-0x10(%rbp)
   11550:	e9 8d 00 00 00       	jmpq   115e2 <main+0x345>
   11555:	c7 45 f4 00 00 00 00 	movl   $0x0,-0xc(%rbp)
   1155c:	eb 7a                	jmp    115d8 <main+0x33b>
   1155e:	c7 45 f8 00 00 00 00 	movl   $0x0,-0x8(%rbp)
   11565:	eb 67                	jmp    115ce <main+0x331>
   11567:	8b 45 f8             	mov    -0x8(%rbp),%eax
   1156a:	48 98                	cltq   
   1156c:	8b 55 f0             	mov    -0x10(%rbp),%edx
   1156f:	48 63 ca             	movslq %edx,%rcx
   11572:	8b 55 f4             	mov    -0xc(%rbp),%edx
   11575:	48 63 d2             	movslq %edx,%rdx
   11578:	48 c1 e1 03          	shl    $0x3,%rcx
   1157c:	48 01 ca             	add    %rcx,%rdx
   1157f:	48 c1 e2 03          	shl    $0x3,%rdx
   11583:	48 01 c2             	add    %rax,%rdx
   11586:	48 8d 05 f3 3a 00 00 	lea    0x3af3(%rip),%rax        # 15080 <g_352>
   1158d:	48 01 d0             	add    %rdx,%rax
   11590:	0f b6 00             	movzbl (%rax),%eax
   11593:	0f b6 c0             	movzbl %al,%eax
   11596:	8b 55 fc             	mov    -0x4(%rbp),%edx
   11599:	48 8d 35 4b 0b 00 00 	lea    0xb4b(%rip),%rsi        # 120eb <g_2298+0x7b>
   115a0:	48 89 c7             	mov    %rax,%rdi
   115a3:	e8 4b 91 ff ff       	callq  a6f3 <transparent_crc>
   115a8:	83 7d fc 00          	cmpl   $0x0,-0x4(%rbp)
   115ac:	74 1c                	je     115ca <main+0x32d>
   115ae:	8b 4d f8             	mov    -0x8(%rbp),%ecx
   115b1:	8b 55 f4             	mov    -0xc(%rbp),%edx
   115b4:	8b 45 f0             	mov    -0x10(%rbp),%eax
   115b7:	89 c6                	mov    %eax,%esi
   115b9:	48 8d 3d 3a 0b 00 00 	lea    0xb3a(%rip),%rdi        # 120fa <g_2298+0x8a>
   115c0:	b8 00 00 00 00       	mov    $0x0,%eax
   115c5:	e8 b6 7a ff ff       	callq  9080 <printf@plt>
   115ca:	83 45 f8 01          	addl   $0x1,-0x8(%rbp)
   115ce:	83 7d f8 07          	cmpl   $0x7,-0x8(%rbp)
   115d2:	7e 93                	jle    11567 <main+0x2ca>
   115d4:	83 45 f4 01          	addl   $0x1,-0xc(%rbp)
   115d8:	83 7d f4 07          	cmpl   $0x7,-0xc(%rbp)
   115dc:	7e 80                	jle    1155e <main+0x2c1>
   115de:	83 45 f0 01          	addl   $0x1,-0x10(%rbp)
   115e2:	83 7d f0 02          	cmpl   $0x2,-0x10(%rbp)
   115e6:	0f 8e 69 ff ff ff    	jle    11555 <main+0x2b8>
   115ec:	0f b6 05 4d 3b 00 00 	movzbl 0x3b4d(%rip),%eax        # 15140 <g_370>
   115f3:	48 0f be c0          	movsbq %al,%rax
   115f7:	8b 55 fc             	mov    -0x4(%rbp),%edx
   115fa:	48 8d 35 0f 0b 00 00 	lea    0xb0f(%rip),%rsi        # 12110 <g_2298+0xa0>
   11601:	48 89 c7             	mov    %rax,%rdi
   11604:	e8 ea 90 ff ff       	callq  a6f3 <transparent_crc>
   11609:	8b 05 35 3b 00 00    	mov    0x3b35(%rip),%eax        # 15144 <g_373>
   1160f:	48 98                	cltq   
   11611:	8b 55 fc             	mov    -0x4(%rbp),%edx
   11614:	48 8d 35 fb 0a 00 00 	lea    0xafb(%rip),%rsi        # 12116 <g_2298+0xa6>
   1161b:	48 89 c7             	mov    %rax,%rdi
   1161e:	e8 d0 90 ff ff       	callq  a6f3 <transparent_crc>
   11623:	8b 05 1f 3b 00 00    	mov    0x3b1f(%rip),%eax        # 15148 <g_395>
   11629:	89 c1                	mov    %eax,%ecx
   1162b:	8b 45 fc             	mov    -0x4(%rbp),%eax
   1162e:	89 c2                	mov    %eax,%edx
   11630:	48 8d 35 e5 0a 00 00 	lea    0xae5(%rip),%rsi        # 1211c <g_2298+0xac>
   11637:	48 89 cf             	mov    %rcx,%rdi
   1163a:	e8 b4 90 ff ff       	callq  a6f3 <transparent_crc>
   1163f:	8b 05 07 3b 00 00    	mov    0x3b07(%rip),%eax        # 1514c <g_400>
   11645:	89 c1                	mov    %eax,%ecx
   11647:	8b 45 fc             	mov    -0x4(%rbp),%eax
   1164a:	89 c2                	mov    %eax,%edx
   1164c:	48 8d 35 cf 0a 00 00 	lea    0xacf(%rip),%rsi        # 12122 <g_2298+0xb2>
   11653:	48 89 cf             	mov    %rcx,%rdi
   11656:	e8 98 90 ff ff       	callq  a6f3 <transparent_crc>
   1165b:	8b 05 ef 3a 00 00    	mov    0x3aef(%rip),%eax        # 15150 <g_401>
   11661:	48 98                	cltq   
   11663:	8b 55 fc             	mov    -0x4(%rbp),%edx
   11666:	48 8d 35 bb 0a 00 00 	lea    0xabb(%rip),%rsi        # 12128 <g_2298+0xb8>
   1166d:	48 89 c7             	mov    %rax,%rdi
   11670:	e8 7e 90 ff ff       	callq  a6f3 <transparent_crc>
   11675:	c7 45 f0 00 00 00 00 	movl   $0x0,-0x10(%rbp)
   1167c:	eb 4f                	jmp    116cd <main+0x430>
   1167e:	8b 45 f0             	mov    -0x10(%rbp),%eax
   11681:	48 98                	cltq   
   11683:	48 8d 14 c5 00 00 00 	lea    0x0(,%rax,8),%rdx
   1168a:	00 
   1168b:	48 8d 05 ce 3a 00 00 	lea    0x3ace(%rip),%rax        # 15160 <g_405>
   11692:	48 8b 04 02          	mov    (%rdx,%rax,1),%rax
   11696:	48 89 c1             	mov    %rax,%rcx
   11699:	8b 45 fc             	mov    -0x4(%rbp),%eax
   1169c:	89 c2                	mov    %eax,%edx
   1169e:	48 8d 35 89 0a 00 00 	lea    0xa89(%rip),%rsi        # 1212e <g_2298+0xbe>
   116a5:	48 89 cf             	mov    %rcx,%rdi
   116a8:	e8 46 90 ff ff       	callq  a6f3 <transparent_crc>
   116ad:	83 7d fc 00          	cmpl   $0x0,-0x4(%rbp)
   116b1:	74 16                	je     116c9 <main+0x42c>
   116b3:	8b 45 f0             	mov    -0x10(%rbp),%eax
   116b6:	89 c6                	mov    %eax,%esi
   116b8:	48 8d 3d be 09 00 00 	lea    0x9be(%rip),%rdi        # 1207d <g_2298+0xd>
   116bf:	b8 00 00 00 00       	mov    $0x0,%eax
   116c4:	e8 b7 79 ff ff       	callq  9080 <printf@plt>
   116c9:	83 45 f0 01          	addl   $0x1,-0x10(%rbp)
   116cd:	83 7d f0 03          	cmpl   $0x3,-0x10(%rbp)
   116d1:	7e ab                	jle    1167e <main+0x3e1>
   116d3:	0f b7 05 a6 3a 00 00 	movzwl 0x3aa6(%rip),%eax        # 15180 <g_406>
   116da:	48 0f bf c0          	movswq %ax,%rax
   116de:	8b 55 fc             	mov    -0x4(%rbp),%edx
   116e1:	48 8d 35 4f 0a 00 00 	lea    0xa4f(%rip),%rsi        # 12137 <g_2298+0xc7>
   116e8:	48 89 c7             	mov    %rax,%rdi
   116eb:	e8 03 90 ff ff       	callq  a6f3 <transparent_crc>
   116f0:	c7 45 f0 00 00 00 00 	movl   $0x0,-0x10(%rbp)
   116f7:	eb 45                	jmp    1173e <main+0x4a1>
   116f9:	8b 45 f0             	mov    -0x10(%rbp),%eax
   116fc:	48 98                	cltq   
   116fe:	48 8d 15 83 3a 00 00 	lea    0x3a83(%rip),%rdx        # 15188 <g_421>
   11705:	0f b6 04 10          	movzbl (%rax,%rdx,1),%eax
   11709:	0f b6 c0             	movzbl %al,%eax
   1170c:	8b 55 fc             	mov    -0x4(%rbp),%edx
   1170f:	48 8d 35 27 0a 00 00 	lea    0xa27(%rip),%rsi        # 1213d <g_2298+0xcd>
   11716:	48 89 c7             	mov    %rax,%rdi
   11719:	e8 d5 8f ff ff       	callq  a6f3 <transparent_crc>
   1171e:	83 7d fc 00          	cmpl   $0x0,-0x4(%rbp)
   11722:	74 16                	je     1173a <main+0x49d>
   11724:	8b 45 f0             	mov    -0x10(%rbp),%eax
   11727:	89 c6                	mov    %eax,%esi
   11729:	48 8d 3d 4d 09 00 00 	lea    0x94d(%rip),%rdi        # 1207d <g_2298+0xd>
   11730:	b8 00 00 00 00       	mov    $0x0,%eax
   11735:	e8 46 79 ff ff       	callq  9080 <printf@plt>
   1173a:	83 45 f0 01          	addl   $0x1,-0x10(%rbp)
   1173e:	83 7d f0 07          	cmpl   $0x7,-0x10(%rbp)
   11742:	7e b5                	jle    116f9 <main+0x45c>
   11744:	0f b6 05 45 3a 00 00 	movzbl 0x3a45(%rip),%eax        # 15190 <g_492>
   1174b:	0f b6 c0             	movzbl %al,%eax
   1174e:	8b 55 fc             	mov    -0x4(%rbp),%edx
   11751:	48 8d 35 ee 09 00 00 	lea    0x9ee(%rip),%rsi        # 12146 <g_2298+0xd6>
   11758:	48 89 c7             	mov    %rax,%rdi
   1175b:	e8 93 8f ff ff       	callq  a6f3 <transparent_crc>
   11760:	0f b6 05 2a 3a 00 00 	movzbl 0x3a2a(%rip),%eax        # 15191 <g_887>
   11767:	48 0f be c0          	movsbq %al,%rax
   1176b:	8b 55 fc             	mov    -0x4(%rbp),%edx
   1176e:	48 8d 35 d7 09 00 00 	lea    0x9d7(%rip),%rsi        # 1214c <g_2298+0xdc>
   11775:	48 89 c7             	mov    %rax,%rdi
   11778:	e8 76 8f ff ff       	callq  a6f3 <transparent_crc>
   1177d:	8b 05 11 3a 00 00    	mov    0x3a11(%rip),%eax        # 15194 <g_943>
   11783:	89 c1                	mov    %eax,%ecx
   11785:	8b 45 fc             	mov    -0x4(%rbp),%eax
   11788:	89 c2                	mov    %eax,%edx
   1178a:	48 8d 35 c1 09 00 00 	lea    0x9c1(%rip),%rsi        # 12152 <g_2298+0xe2>
   11791:	48 89 cf             	mov    %rcx,%rdi
   11794:	e8 5a 8f ff ff       	callq  a6f3 <transparent_crc>
   11799:	0f b7 05 f8 39 00 00 	movzwl 0x39f8(%rip),%eax        # 15198 <g_1199>
   117a0:	48 0f bf c0          	movswq %ax,%rax
   117a4:	8b 55 fc             	mov    -0x4(%rbp),%edx
   117a7:	48 8d 35 aa 09 00 00 	lea    0x9aa(%rip),%rsi        # 12158 <g_2298+0xe8>
   117ae:	48 89 c7             	mov    %rax,%rdi
   117b1:	e8 3d 8f ff ff       	callq  a6f3 <transparent_crc>
   117b6:	48 8b 05 e3 39 00 00 	mov    0x39e3(%rip),%rax        # 151a0 <g_1258>
   117bd:	8b 55 fc             	mov    -0x4(%rbp),%edx
   117c0:	48 8d 35 98 09 00 00 	lea    0x998(%rip),%rsi        # 1215f <g_2298+0xef>
   117c7:	48 89 c7             	mov    %rax,%rdi
   117ca:	e8 24 8f ff ff       	callq  a6f3 <transparent_crc>
   117cf:	0f b7 05 d2 39 00 00 	movzwl 0x39d2(%rip),%eax        # 151a8 <g_1402>
   117d6:	0f b7 c0             	movzwl %ax,%eax
   117d9:	8b 55 fc             	mov    -0x4(%rbp),%edx
   117dc:	48 8d 35 83 09 00 00 	lea    0x983(%rip),%rsi        # 12166 <g_2298+0xf6>
   117e3:	48 89 c7             	mov    %rax,%rdi
   117e6:	e8 08 8f ff ff       	callq  a6f3 <transparent_crc>
   117eb:	c7 45 f0 00 00 00 00 	movl   $0x0,-0x10(%rbp)
   117f2:	eb 77                	jmp    1186b <main+0x5ce>
   117f4:	c7 45 f4 00 00 00 00 	movl   $0x0,-0xc(%rbp)
   117fb:	eb 64                	jmp    11861 <main+0x5c4>
   117fd:	8b 45 f4             	mov    -0xc(%rbp),%eax
   11800:	48 63 c8             	movslq %eax,%rcx
   11803:	8b 45 f0             	mov    -0x10(%rbp),%eax
   11806:	48 63 d0             	movslq %eax,%rdx
   11809:	48 89 d0             	mov    %rdx,%rax
   1180c:	48 c1 e0 02          	shl    $0x2,%rax
   11810:	48 01 d0             	add    %rdx,%rax
   11813:	48 01 c8             	add    %rcx,%rax
   11816:	48 8d 14 85 00 00 00 	lea    0x0(,%rax,4),%rdx
   1181d:	00 
   1181e:	48 8d 05 9b 39 00 00 	lea    0x399b(%rip),%rax        # 151c0 <g_1429>
   11825:	8b 04 02             	mov    (%rdx,%rax,1),%eax
   11828:	89 c1                	mov    %eax,%ecx
   1182a:	8b 45 fc             	mov    -0x4(%rbp),%eax
   1182d:	89 c2                	mov    %eax,%edx
   1182f:	48 8d 35 37 09 00 00 	lea    0x937(%rip),%rsi        # 1216d <g_2298+0xfd>
   11836:	48 89 cf             	mov    %rcx,%rdi
   11839:	e8 b5 8e ff ff       	callq  a6f3 <transparent_crc>
   1183e:	83 7d fc 00          	cmpl   $0x0,-0x4(%rbp)
   11842:	74 19                	je     1185d <main+0x5c0>
   11844:	8b 55 f4             	mov    -0xc(%rbp),%edx
   11847:	8b 45 f0             	mov    -0x10(%rbp),%eax
   1184a:	89 c6                	mov    %eax,%esi
   1184c:	48 8d 3d 27 09 00 00 	lea    0x927(%rip),%rdi        # 1217a <g_2298+0x10a>
   11853:	b8 00 00 00 00       	mov    $0x0,%eax
   11858:	e8 23 78 ff ff       	callq  9080 <printf@plt>
   1185d:	83 45 f4 01          	addl   $0x1,-0xc(%rbp)
   11861:	83 7d f4 04          	cmpl   $0x4,-0xc(%rbp)
   11865:	7e 96                	jle    117fd <main+0x560>
   11867:	83 45 f0 01          	addl   $0x1,-0x10(%rbp)
   1186b:	83 7d f0 03          	cmpl   $0x3,-0x10(%rbp)
   1186f:	7e 83                	jle    117f4 <main+0x557>
   11871:	0f b7 05 98 39 00 00 	movzwl 0x3998(%rip),%eax        # 15210 <g_1520>
   11878:	48 0f bf c0          	movswq %ax,%rax
   1187c:	8b 55 fc             	mov    -0x4(%rbp),%edx
   1187f:	48 8d 35 06 09 00 00 	lea    0x906(%rip),%rsi        # 1218c <g_2298+0x11c>
   11886:	48 89 c7             	mov    %rax,%rdi
   11889:	e8 65 8e ff ff       	callq  a6f3 <transparent_crc>
   1188e:	8b 05 80 39 00 00    	mov    0x3980(%rip),%eax        # 15214 <g_1663>
   11894:	48 98                	cltq   
   11896:	8b 55 fc             	mov    -0x4(%rbp),%edx
   11899:	48 8d 35 f3 08 00 00 	lea    0x8f3(%rip),%rsi        # 12193 <g_2298+0x123>
   118a0:	48 89 c7             	mov    %rax,%rdi
   118a3:	e8 4b 8e ff ff       	callq  a6f3 <transparent_crc>
   118a8:	0f b6 05 69 39 00 00 	movzbl 0x3969(%rip),%eax        # 15218 <g_1735>
   118af:	0f b6 c0             	movzbl %al,%eax
   118b2:	8b 55 fc             	mov    -0x4(%rbp),%edx
   118b5:	48 8d 35 de 08 00 00 	lea    0x8de(%rip),%rsi        # 1219a <g_2298+0x12a>
   118bc:	48 89 c7             	mov    %rax,%rdi
   118bf:	e8 2f 8e ff ff       	callq  a6f3 <transparent_crc>
   118c4:	0f b7 05 4f 39 00 00 	movzwl 0x394f(%rip),%eax        # 1521a <g_1744>
   118cb:	48 0f bf c0          	movswq %ax,%rax
   118cf:	8b 55 fc             	mov    -0x4(%rbp),%edx
   118d2:	48 8d 35 c8 08 00 00 	lea    0x8c8(%rip),%rsi        # 121a1 <g_2298+0x131>
   118d9:	48 89 c7             	mov    %rax,%rdi
   118dc:	e8 12 8e ff ff       	callq  a6f3 <transparent_crc>
   118e1:	c7 45 f0 00 00 00 00 	movl   $0x0,-0x10(%rbp)
   118e8:	eb 4d                	jmp    11937 <main+0x69a>
   118ea:	8b 45 f0             	mov    -0x10(%rbp),%eax
   118ed:	48 98                	cltq   
   118ef:	48 8d 14 85 00 00 00 	lea    0x0(,%rax,4),%rdx
   118f6:	00 
   118f7:	48 8d 05 22 39 00 00 	lea    0x3922(%rip),%rax        # 15220 <g_1933>
   118fe:	8b 04 02             	mov    (%rdx,%rax,1),%eax
   11901:	89 c1                	mov    %eax,%ecx
   11903:	8b 45 fc             	mov    -0x4(%rbp),%eax
   11906:	89 c2                	mov    %eax,%edx
   11908:	48 8d 35 99 08 00 00 	lea    0x899(%rip),%rsi        # 121a8 <g_2298+0x138>
   1190f:	48 89 cf             	mov    %rcx,%rdi
   11912:	e8 dc 8d ff ff       	callq  a6f3 <transparent_crc>
   11917:	83 7d fc 00          	cmpl   $0x0,-0x4(%rbp)
   1191b:	74 16                	je     11933 <main+0x696>
   1191d:	8b 45 f0             	mov    -0x10(%rbp),%eax
   11920:	89 c6                	mov    %eax,%esi
   11922:	48 8d 3d 54 07 00 00 	lea    0x754(%rip),%rdi        # 1207d <g_2298+0xd>
   11929:	b8 00 00 00 00       	mov    $0x0,%eax
   1192e:	e8 4d 77 ff ff       	callq  9080 <printf@plt>
   11933:	83 45 f0 01          	addl   $0x1,-0x10(%rbp)
   11937:	83 7d f0 02          	cmpl   $0x2,-0x10(%rbp)
   1193b:	7e ad                	jle    118ea <main+0x64d>
   1193d:	0f b7 05 dc 70 00 00 	movzwl 0x70dc(%rip),%eax        # 18a20 <g_1984>
   11944:	0f b7 c0             	movzwl %ax,%eax
   11947:	8b 55 fc             	mov    -0x4(%rbp),%edx
   1194a:	48 8d 35 61 08 00 00 	lea    0x861(%rip),%rsi        # 121b2 <g_2298+0x142>
   11951:	48 89 c7             	mov    %rax,%rdi
   11954:	e8 9a 8d ff ff       	callq  a6f3 <transparent_crc>
   11959:	c7 45 f0 00 00 00 00 	movl   $0x0,-0x10(%rbp)
   11960:	e9 96 00 00 00       	jmpq   119fb <main+0x75e>
   11965:	c7 45 f4 00 00 00 00 	movl   $0x0,-0xc(%rbp)
   1196c:	eb 7f                	jmp    119ed <main+0x750>
   1196e:	c7 45 f8 00 00 00 00 	movl   $0x0,-0x8(%rbp)
   11975:	eb 6c                	jmp    119e3 <main+0x746>
   11977:	8b 45 f8             	mov    -0x8(%rbp),%eax
   1197a:	48 63 f0             	movslq %eax,%rsi
   1197d:	8b 45 f4             	mov    -0xc(%rbp),%eax
   11980:	48 63 c8             	movslq %eax,%rcx
   11983:	8b 45 f0             	mov    -0x10(%rbp),%eax
   11986:	48 63 d0             	movslq %eax,%rdx
   11989:	48 89 d0             	mov    %rdx,%rax
   1198c:	48 c1 e0 03          	shl    $0x3,%rax
   11990:	48 29 d0             	sub    %rdx,%rax
   11993:	48 01 f0             	add    %rsi,%rax
   11996:	48 8d 14 08          	lea    (%rax,%rcx,1),%rdx
   1199a:	48 8d 05 9f 38 00 00 	lea    0x389f(%rip),%rax        # 15240 <g_2129>
   119a1:	48 01 d0             	add    %rdx,%rax
   119a4:	0f b6 00             	movzbl (%rax),%eax
   119a7:	48 0f be c0          	movsbq %al,%rax
   119ab:	8b 55 fc             	mov    -0x4(%rbp),%edx
   119ae:	48 8d 35 04 08 00 00 	lea    0x804(%rip),%rsi        # 121b9 <g_2298+0x149>
   119b5:	48 89 c7             	mov    %rax,%rdi
   119b8:	e8 36 8d ff ff       	callq  a6f3 <transparent_crc>
   119bd:	83 7d fc 00          	cmpl   $0x0,-0x4(%rbp)
   119c1:	74 1c                	je     119df <main+0x742>
   119c3:	8b 4d f8             	mov    -0x8(%rbp),%ecx
   119c6:	8b 55 f4             	mov    -0xc(%rbp),%edx
   119c9:	8b 45 f0             	mov    -0x10(%rbp),%eax
   119cc:	89 c6                	mov    %eax,%esi
   119ce:	48 8d 3d 25 07 00 00 	lea    0x725(%rip),%rdi        # 120fa <g_2298+0x8a>
   119d5:	b8 00 00 00 00       	mov    $0x0,%eax
   119da:	e8 a1 76 ff ff       	callq  9080 <printf@plt>
   119df:	83 45 f8 01          	addl   $0x1,-0x8(%rbp)
   119e3:	83 7d f8 00          	cmpl   $0x0,-0x8(%rbp)
   119e7:	7e 8e                	jle    11977 <main+0x6da>
   119e9:	83 45 f4 01          	addl   $0x1,-0xc(%rbp)
   119ed:	83 7d f4 06          	cmpl   $0x6,-0xc(%rbp)
   119f1:	0f 8e 77 ff ff ff    	jle    1196e <main+0x6d1>
   119f7:	83 45 f0 01          	addl   $0x1,-0x10(%rbp)
   119fb:	83 7d f0 04          	cmpl   $0x4,-0x10(%rbp)
   119ff:	0f 8e 60 ff ff ff    	jle    11965 <main+0x6c8>
   11a05:	8b 05 59 38 00 00    	mov    0x3859(%rip),%eax        # 15264 <g_2188>
   11a0b:	48 98                	cltq   
   11a0d:	8b 55 fc             	mov    -0x4(%rbp),%edx
   11a10:	48 8d 35 b2 07 00 00 	lea    0x7b2(%rip),%rsi        # 121c9 <g_2298+0x159>
   11a17:	48 89 c7             	mov    %rax,%rdi
   11a1a:	e8 d4 8c ff ff       	callq  a6f3 <transparent_crc>
   11a1f:	b8 32 88 7b bd       	mov    $0xbd7b8832,%eax
   11a24:	48 98                	cltq   
   11a26:	8b 55 fc             	mov    -0x4(%rbp),%edx
   11a29:	48 8d 35 a0 07 00 00 	lea    0x7a0(%rip),%rsi        # 121d0 <g_2298+0x160>
   11a30:	48 89 c7             	mov    %rax,%rdi
   11a33:	e8 bb 8c ff ff       	callq  a6f3 <transparent_crc>
   11a38:	c7 45 f0 00 00 00 00 	movl   $0x0,-0x10(%rbp)
   11a3f:	eb 45                	jmp    11a86 <main+0x7e9>
   11a41:	8b 45 f0             	mov    -0x10(%rbp),%eax
   11a44:	48 98                	cltq   
   11a46:	48 8d 15 23 38 00 00 	lea    0x3823(%rip),%rdx        # 15270 <g_2503>
   11a4d:	0f b6 04 10          	movzbl (%rax,%rdx,1),%eax
   11a51:	0f b6 c0             	movzbl %al,%eax
   11a54:	8b 55 fc             	mov    -0x4(%rbp),%edx
   11a57:	48 8d 35 79 07 00 00 	lea    0x779(%rip),%rsi        # 121d7 <g_2298+0x167>
   11a5e:	48 89 c7             	mov    %rax,%rdi
   11a61:	e8 8d 8c ff ff       	callq  a6f3 <transparent_crc>
   11a66:	83 7d fc 00          	cmpl   $0x0,-0x4(%rbp)
   11a6a:	74 16                	je     11a82 <main+0x7e5>
   11a6c:	8b 45 f0             	mov    -0x10(%rbp),%eax
   11a6f:	89 c6                	mov    %eax,%esi
   11a71:	48 8d 3d 05 06 00 00 	lea    0x605(%rip),%rdi        # 1207d <g_2298+0xd>
   11a78:	b8 00 00 00 00       	mov    $0x0,%eax
   11a7d:	e8 fe 75 ff ff       	callq  9080 <printf@plt>
   11a82:	83 45 f0 01          	addl   $0x1,-0x10(%rbp)
   11a86:	83 7d f0 07          	cmpl   $0x7,-0x10(%rbp)
   11a8a:	7e b5                	jle    11a41 <main+0x7a4>
   11a8c:	0f b6 05 e5 37 00 00 	movzbl 0x37e5(%rip),%eax        # 15278 <g_2525>
   11a93:	48 0f be c0          	movsbq %al,%rax
   11a97:	8b 55 fc             	mov    -0x4(%rbp),%edx
   11a9a:	48 8d 35 40 07 00 00 	lea    0x740(%rip),%rsi        # 121e1 <g_2298+0x171>
   11aa1:	48 89 c7             	mov    %rax,%rdi
   11aa4:	e8 4a 8c ff ff       	callq  a6f3 <transparent_crc>
   11aa9:	8b 05 cd 37 00 00    	mov    0x37cd(%rip),%eax        # 1527c <g_2610>
   11aaf:	89 c1                	mov    %eax,%ecx
   11ab1:	8b 45 fc             	mov    -0x4(%rbp),%eax
   11ab4:	89 c2                	mov    %eax,%edx
   11ab6:	48 8d 35 2b 07 00 00 	lea    0x72b(%rip),%rsi        # 121e8 <g_2298+0x178>
   11abd:	48 89 cf             	mov    %rcx,%rdi
   11ac0:	e8 2e 8c ff ff       	callq  a6f3 <transparent_crc>
   11ac5:	8b 05 b5 37 00 00    	mov    0x37b5(%rip),%eax        # 15280 <g_2768>
   11acb:	89 c1                	mov    %eax,%ecx
   11acd:	8b 45 fc             	mov    -0x4(%rbp),%eax
   11ad0:	89 c2                	mov    %eax,%edx
   11ad2:	48 8d 35 16 07 00 00 	lea    0x716(%rip),%rsi        # 121ef <g_2298+0x17f>
   11ad9:	48 89 cf             	mov    %rcx,%rdi
   11adc:	e8 12 8c ff ff       	callq  a6f3 <transparent_crc>
   11ae1:	8b 05 39 35 00 00    	mov    0x3539(%rip),%eax        # 15020 <crc32_context>
   11ae7:	f7 d0                	not    %eax
   11ae9:	89 c2                	mov    %eax,%edx
   11aeb:	8b 45 fc             	mov    -0x4(%rbp),%eax
   11aee:	89 c6                	mov    %eax,%esi
   11af0:	89 d7                	mov    %edx,%edi
   11af2:	e8 9d 76 ff ff       	callq  9194 <platform_main_end>
   11af7:	b8 00 00 00 00       	mov    $0x0,%eax
   11afc:	c9                   	leaveq 
   11afd:	c3                   	retq   
   11afe:	66 90                	xchg   %ax,%ax

0000000000011b00 <__libc_csu_init>:
   11b00:	f3 0f 1e fa          	endbr64 
   11b04:	41 57                	push   %r15
   11b06:	4c 8d 3d a3 2f 00 00 	lea    0x2fa3(%rip),%r15        # 14ab0 <__frame_dummy_init_array_entry>
   11b0d:	41 56                	push   %r14
   11b0f:	49 89 d6             	mov    %rdx,%r14
   11b12:	41 55                	push   %r13
   11b14:	49 89 f5             	mov    %rsi,%r13
   11b17:	41 54                	push   %r12
   11b19:	41 89 fc             	mov    %edi,%r12d
   11b1c:	55                   	push   %rbp
   11b1d:	48 8d 2d 94 2f 00 00 	lea    0x2f94(%rip),%rbp        # 14ab8 <__do_global_dtors_aux_fini_array_entry>
   11b24:	53                   	push   %rbx
   11b25:	4c 29 fd             	sub    %r15,%rbp
   11b28:	48 83 ec 08          	sub    $0x8,%rsp
   11b2c:	e8 cf 74 ff ff       	callq  9000 <_init>
   11b31:	48 c1 fd 03          	sar    $0x3,%rbp
   11b35:	74 1f                	je     11b56 <__libc_csu_init+0x56>
   11b37:	31 db                	xor    %ebx,%ebx
   11b39:	0f 1f 80 00 00 00 00 	nopl   0x0(%rax)
   11b40:	4c 89 f2             	mov    %r14,%rdx
   11b43:	4c 89 ee             	mov    %r13,%rsi
   11b46:	44 89 e7             	mov    %r12d,%edi
   11b49:	41 ff 14 df          	callq  *(%r15,%rbx,8)
   11b4d:	48 83 c3 01          	add    $0x1,%rbx
   11b51:	48 39 dd             	cmp    %rbx,%rbp
   11b54:	75 ea                	jne    11b40 <__libc_csu_init+0x40>
   11b56:	48 83 c4 08          	add    $0x8,%rsp
   11b5a:	5b                   	pop    %rbx
   11b5b:	5d                   	pop    %rbp
   11b5c:	41 5c                	pop    %r12
   11b5e:	41 5d                	pop    %r13
   11b60:	41 5e                	pop    %r14
   11b62:	41 5f                	pop    %r15
   11b64:	c3                   	retq   
   11b65:	66 66 2e 0f 1f 84 00 	data16 nopw %cs:0x0(%rax,%rax,1)
   11b6c:	00 00 00 00 

0000000000011b70 <__libc_csu_fini>:
   11b70:	f3 0f 1e fa          	endbr64 
   11b74:	c3                   	retq   
