


Disassembly of section .text:

00000000000050a0 <_start>:
    50a0:	f3 0f 1e fa          	endbr64 
    50a4:	31 ed                	xor    %ebp,%ebp
    50a6:	49 89 d1             	mov    %rdx,%r9
    50a9:	5e                   	pop    %rsi
    50aa:	48 89 e2             	mov    %rsp,%rdx
    50ad:	48 83 e4 f0          	and    $0xfffffffffffffff0,%rsp
    50b1:	50                   	push   %rax
    50b2:	54                   	push   %rsp
    50b3:	4c 8d 05 56 a2 00 00 	lea    0xa256(%rip),%r8        # f310 <__libc_csu_fini>
    50ba:	48 8d 0d df a1 00 00 	lea    0xa1df(%rip),%rcx        # f2a0 <__libc_csu_init>
    50c1:	48 8d 3d af 8b 00 00 	lea    0x8baf(%rip),%rdi        # dc77 <main>
    50c8:	ff 15 fa fe 00 00    	callq  *0xfefa(%rip)        # 14fc8 <__libc_start_main@GLIBC_2.2.5>
    50ce:	f4                   	hlt    
    50cf:	90                   	nop

00000000000050d0 <deregister_tm_clones>:
    50d0:	48 8d 3d 71 32 01 00 	lea    0x13271(%rip),%rdi        # 18348 <__TMC_END__>
    50d7:	48 8d 05 6a 32 01 00 	lea    0x1326a(%rip),%rax        # 18348 <__TMC_END__>
    50de:	48 39 f8             	cmp    %rdi,%rax
    50e1:	74 15                	je     50f8 <deregister_tm_clones+0x28>
    50e3:	48 8b 05 d6 fe 00 00 	mov    0xfed6(%rip),%rax        # 14fc0 <_ITM_deregisterTMCloneTable>
    50ea:	48 85 c0             	test   %rax,%rax
    50ed:	74 09                	je     50f8 <deregister_tm_clones+0x28>
    50ef:	ff e0                	jmpq   *%rax
    50f1:	0f 1f 80 00 00 00 00 	nopl   0x0(%rax)
    50f8:	c3                   	retq   
    50f9:	0f 1f 80 00 00 00 00 	nopl   0x0(%rax)

0000000000005100 <register_tm_clones>:
    5100:	48 8d 3d 41 32 01 00 	lea    0x13241(%rip),%rdi        # 18348 <__TMC_END__>
    5107:	48 8d 35 3a 32 01 00 	lea    0x1323a(%rip),%rsi        # 18348 <__TMC_END__>
    510e:	48 29 fe             	sub    %rdi,%rsi
    5111:	48 89 f0             	mov    %rsi,%rax
    5114:	48 c1 ee 3f          	shr    $0x3f,%rsi
    5118:	48 c1 f8 03          	sar    $0x3,%rax
    511c:	48 01 c6             	add    %rax,%rsi
    511f:	48 d1 fe             	sar    %rsi
    5122:	74 14                	je     5138 <register_tm_clones+0x38>
    5124:	48 8b 05 ad fe 00 00 	mov    0xfead(%rip),%rax        # 14fd8 <_ITM_registerTMCloneTable>
    512b:	48 85 c0             	test   %rax,%rax
    512e:	74 08                	je     5138 <register_tm_clones+0x38>
    5130:	ff e0                	jmpq   *%rax
    5132:	66 0f 1f 44 00 00    	nopw   0x0(%rax,%rax,1)
    5138:	c3                   	retq   
    5139:	0f 1f 80 00 00 00 00 	nopl   0x0(%rax)

0000000000005140 <__do_global_dtors_aux>:
    5140:	f3 0f 1e fa          	endbr64 
    5144:	80 3d 15 32 01 00 00 	cmpb   $0x0,0x13215(%rip)        # 18360 <completed.8061>
    514b:	75 2b                	jne    5178 <__do_global_dtors_aux+0x38>
    514d:	55                   	push   %rbp
    514e:	48 83 3d 8a fe 00 00 	cmpq   $0x0,0xfe8a(%rip)        # 14fe0 <__cxa_finalize@GLIBC_2.2.5>
    5155:	00 
    5156:	48 89 e5             	mov    %rsp,%rbp
    5159:	74 0c                	je     5167 <__do_global_dtors_aux+0x27>
    515b:	48 8b 3d a6 fe 00 00 	mov    0xfea6(%rip),%rdi        # 15008 <__dso_handle>
    5162:	e8 f9 fe ff ff       	callq  5060 <__cxa_finalize@plt>
    5167:	e8 64 ff ff ff       	callq  50d0 <deregister_tm_clones>
    516c:	c6 05 ed 31 01 00 01 	movb   $0x1,0x131ed(%rip)        # 18360 <completed.8061>
    5173:	5d                   	pop    %rbp
    5174:	c3                   	retq   
    5175:	0f 1f 00             	nopl   (%rax)
    5178:	c3                   	retq   
    5179:	0f 1f 80 00 00 00 00 	nopl   0x0(%rax)

0000000000005180 <frame_dummy>:
    5180:	f3 0f 1e fa          	endbr64 
    5184:	e9 77 ff ff ff       	jmpq   5100 <register_tm_clones>

0000000000005189 <platform_main_begin>:
    5189:	f3 0f 1e fa          	endbr64 
    518d:	55                   	push   %rbp
    518e:	48 89 e5             	mov    %rsp,%rbp
    5191:	90                   	nop
    5192:	5d                   	pop    %rbp
    5193:	c3                   	retq   

0000000000005194 <platform_main_end>:
    5194:	f3 0f 1e fa          	endbr64 
    5198:	55                   	push   %rbp
    5199:	48 89 e5             	mov    %rsp,%rbp
    519c:	48 83 ec 10          	sub    $0x10,%rsp
    51a0:	89 7d fc             	mov    %edi,-0x4(%rbp)
    51a3:	89 75 f8             	mov    %esi,-0x8(%rbp)
    51a6:	8b 45 fc             	mov    -0x4(%rbp),%eax
    51a9:	89 c6                	mov    %eax,%esi
    51ab:	48 8d 3d 6e ae 00 00 	lea    0xae6e(%rip),%rdi        # 10020 <_IO_stdin_used+0x20>
    51b2:	b8 00 00 00 00       	mov    $0x0,%eax
    51b7:	e8 c4 fe ff ff       	callq  5080 <printf@plt>
    51bc:	90                   	nop
    51bd:	c9                   	leaveq 
    51be:	c3                   	retq   

00000000000051bf <safe_unary_minus_func_int8_t_s>:
    51bf:	f3 0f 1e fa          	endbr64 
    51c3:	55                   	push   %rbp
    51c4:	48 89 e5             	mov    %rsp,%rbp
    51c7:	89 f8                	mov    %edi,%eax
    51c9:	88 45 fc             	mov    %al,-0x4(%rbp)
    51cc:	0f b6 45 fc          	movzbl -0x4(%rbp),%eax
    51d0:	f7 d8                	neg    %eax
    51d2:	5d                   	pop    %rbp
    51d3:	c3                   	retq   

00000000000051d4 <safe_add_func_int8_t_s_s>:
    51d4:	f3 0f 1e fa          	endbr64 
    51d8:	55                   	push   %rbp
    51d9:	48 89 e5             	mov    %rsp,%rbp
    51dc:	89 fa                	mov    %edi,%edx
    51de:	89 f0                	mov    %esi,%eax
    51e0:	88 55 fc             	mov    %dl,-0x4(%rbp)
    51e3:	88 45 f8             	mov    %al,-0x8(%rbp)
    51e6:	0f b6 55 fc          	movzbl -0x4(%rbp),%edx
    51ea:	0f b6 45 f8          	movzbl -0x8(%rbp),%eax
    51ee:	01 d0                	add    %edx,%eax
    51f0:	5d                   	pop    %rbp
    51f1:	c3                   	retq   

00000000000051f2 <safe_sub_func_int8_t_s_s>:
    51f2:	f3 0f 1e fa          	endbr64 
    51f6:	55                   	push   %rbp
    51f7:	48 89 e5             	mov    %rsp,%rbp
    51fa:	89 fa                	mov    %edi,%edx
    51fc:	89 f0                	mov    %esi,%eax
    51fe:	88 55 fc             	mov    %dl,-0x4(%rbp)
    5201:	88 45 f8             	mov    %al,-0x8(%rbp)
    5204:	0f b6 55 fc          	movzbl -0x4(%rbp),%edx
    5208:	0f b6 45 f8          	movzbl -0x8(%rbp),%eax
    520c:	29 c2                	sub    %eax,%edx
    520e:	89 d0                	mov    %edx,%eax
    5210:	5d                   	pop    %rbp
    5211:	c3                   	retq   

0000000000005212 <safe_mul_func_int8_t_s_s>:
    5212:	f3 0f 1e fa          	endbr64 
    5216:	55                   	push   %rbp
    5217:	48 89 e5             	mov    %rsp,%rbp
    521a:	89 fa                	mov    %edi,%edx
    521c:	89 f0                	mov    %esi,%eax
    521e:	88 55 fc             	mov    %dl,-0x4(%rbp)
    5221:	88 45 f8             	mov    %al,-0x8(%rbp)
    5224:	0f b6 45 fc          	movzbl -0x4(%rbp),%eax
    5228:	0f b6 55 f8          	movzbl -0x8(%rbp),%edx
    522c:	0f af c2             	imul   %edx,%eax
    522f:	5d                   	pop    %rbp
    5230:	c3                   	retq   

0000000000005231 <safe_mod_func_int8_t_s_s>:
    5231:	f3 0f 1e fa          	endbr64 
    5235:	55                   	push   %rbp
    5236:	48 89 e5             	mov    %rsp,%rbp
    5239:	89 fa                	mov    %edi,%edx
    523b:	89 f0                	mov    %esi,%eax
    523d:	88 55 fc             	mov    %dl,-0x4(%rbp)
    5240:	88 45 f8             	mov    %al,-0x8(%rbp)
    5243:	80 7d f8 00          	cmpb   $0x0,-0x8(%rbp)
    5247:	74 1b                	je     5264 <safe_mod_func_int8_t_s_s+0x33>
    5249:	80 7d fc 80          	cmpb   $0x80,-0x4(%rbp)
    524d:	75 06                	jne    5255 <safe_mod_func_int8_t_s_s+0x24>
    524f:	80 7d f8 ff          	cmpb   $0xff,-0x8(%rbp)
    5253:	74 0f                	je     5264 <safe_mod_func_int8_t_s_s+0x33>
    5255:	0f be 45 fc          	movsbl -0x4(%rbp),%eax
    5259:	0f be 4d f8          	movsbl -0x8(%rbp),%ecx
    525d:	99                   	cltd   
    525e:	f7 f9                	idiv   %ecx
    5260:	89 d0                	mov    %edx,%eax
    5262:	eb 04                	jmp    5268 <safe_mod_func_int8_t_s_s+0x37>
    5264:	0f b6 45 fc          	movzbl -0x4(%rbp),%eax
    5268:	5d                   	pop    %rbp
    5269:	c3                   	retq   

000000000000526a <safe_div_func_int8_t_s_s>:
    526a:	f3 0f 1e fa          	endbr64 
    526e:	55                   	push   %rbp
    526f:	48 89 e5             	mov    %rsp,%rbp
    5272:	89 fa                	mov    %edi,%edx
    5274:	89 f0                	mov    %esi,%eax
    5276:	88 55 fc             	mov    %dl,-0x4(%rbp)
    5279:	88 45 f8             	mov    %al,-0x8(%rbp)
    527c:	80 7d f8 00          	cmpb   $0x0,-0x8(%rbp)
    5280:	74 19                	je     529b <safe_div_func_int8_t_s_s+0x31>
    5282:	80 7d fc 80          	cmpb   $0x80,-0x4(%rbp)
    5286:	75 06                	jne    528e <safe_div_func_int8_t_s_s+0x24>
    5288:	80 7d f8 ff          	cmpb   $0xff,-0x8(%rbp)
    528c:	74 0d                	je     529b <safe_div_func_int8_t_s_s+0x31>
    528e:	0f be 45 fc          	movsbl -0x4(%rbp),%eax
    5292:	0f be 4d f8          	movsbl -0x8(%rbp),%ecx
    5296:	99                   	cltd   
    5297:	f7 f9                	idiv   %ecx
    5299:	eb 04                	jmp    529f <safe_div_func_int8_t_s_s+0x35>
    529b:	0f b6 45 fc          	movzbl -0x4(%rbp),%eax
    529f:	5d                   	pop    %rbp
    52a0:	c3                   	retq   

00000000000052a1 <safe_lshift_func_int8_t_s_s>:
    52a1:	f3 0f 1e fa          	endbr64 
    52a5:	55                   	push   %rbp
    52a6:	48 89 e5             	mov    %rsp,%rbp
    52a9:	89 f8                	mov    %edi,%eax
    52ab:	89 75 f8             	mov    %esi,-0x8(%rbp)
    52ae:	88 45 fc             	mov    %al,-0x4(%rbp)
    52b1:	80 7d fc 00          	cmpb   $0x0,-0x4(%rbp)
    52b5:	78 31                	js     52e8 <safe_lshift_func_int8_t_s_s+0x47>
    52b7:	83 7d f8 00          	cmpl   $0x0,-0x8(%rbp)
    52bb:	78 2b                	js     52e8 <safe_lshift_func_int8_t_s_s+0x47>
    52bd:	83 7d f8 1f          	cmpl   $0x1f,-0x8(%rbp)
    52c1:	7f 25                	jg     52e8 <safe_lshift_func_int8_t_s_s+0x47>
    52c3:	0f be 55 fc          	movsbl -0x4(%rbp),%edx
    52c7:	8b 45 f8             	mov    -0x8(%rbp),%eax
    52ca:	be 7f 00 00 00       	mov    $0x7f,%esi
    52cf:	89 c1                	mov    %eax,%ecx
    52d1:	d3 fe                	sar    %cl,%esi
    52d3:	89 f0                	mov    %esi,%eax
    52d5:	39 c2                	cmp    %eax,%edx
    52d7:	7f 0f                	jg     52e8 <safe_lshift_func_int8_t_s_s+0x47>
    52d9:	0f be 55 fc          	movsbl -0x4(%rbp),%edx
    52dd:	8b 45 f8             	mov    -0x8(%rbp),%eax
    52e0:	89 c1                	mov    %eax,%ecx
    52e2:	d3 e2                	shl    %cl,%edx
    52e4:	89 d0                	mov    %edx,%eax
    52e6:	eb 04                	jmp    52ec <safe_lshift_func_int8_t_s_s+0x4b>
    52e8:	0f b6 45 fc          	movzbl -0x4(%rbp),%eax
    52ec:	5d                   	pop    %rbp
    52ed:	c3                   	retq   

00000000000052ee <safe_lshift_func_int8_t_s_u>:
    52ee:	f3 0f 1e fa          	endbr64 
    52f2:	55                   	push   %rbp
    52f3:	48 89 e5             	mov    %rsp,%rbp
    52f6:	89 f8                	mov    %edi,%eax
    52f8:	89 75 f8             	mov    %esi,-0x8(%rbp)
    52fb:	88 45 fc             	mov    %al,-0x4(%rbp)
    52fe:	80 7d fc 00          	cmpb   $0x0,-0x4(%rbp)
    5302:	78 2b                	js     532f <safe_lshift_func_int8_t_s_u+0x41>
    5304:	83 7d f8 1f          	cmpl   $0x1f,-0x8(%rbp)
    5308:	77 25                	ja     532f <safe_lshift_func_int8_t_s_u+0x41>
    530a:	0f be 55 fc          	movsbl -0x4(%rbp),%edx
    530e:	8b 45 f8             	mov    -0x8(%rbp),%eax
    5311:	be 7f 00 00 00       	mov    $0x7f,%esi
    5316:	89 c1                	mov    %eax,%ecx
    5318:	d3 fe                	sar    %cl,%esi
    531a:	89 f0                	mov    %esi,%eax
    531c:	39 c2                	cmp    %eax,%edx
    531e:	7f 0f                	jg     532f <safe_lshift_func_int8_t_s_u+0x41>
    5320:	0f be 55 fc          	movsbl -0x4(%rbp),%edx
    5324:	8b 45 f8             	mov    -0x8(%rbp),%eax
    5327:	89 c1                	mov    %eax,%ecx
    5329:	d3 e2                	shl    %cl,%edx
    532b:	89 d0                	mov    %edx,%eax
    532d:	eb 04                	jmp    5333 <safe_lshift_func_int8_t_s_u+0x45>
    532f:	0f b6 45 fc          	movzbl -0x4(%rbp),%eax
    5333:	5d                   	pop    %rbp
    5334:	c3                   	retq   

0000000000005335 <safe_rshift_func_int8_t_s_s>:
    5335:	f3 0f 1e fa          	endbr64 
    5339:	55                   	push   %rbp
    533a:	48 89 e5             	mov    %rsp,%rbp
    533d:	89 f8                	mov    %edi,%eax
    533f:	89 75 f8             	mov    %esi,-0x8(%rbp)
    5342:	88 45 fc             	mov    %al,-0x4(%rbp)
    5345:	80 7d fc 00          	cmpb   $0x0,-0x4(%rbp)
    5349:	78 1b                	js     5366 <safe_rshift_func_int8_t_s_s+0x31>
    534b:	83 7d f8 00          	cmpl   $0x0,-0x8(%rbp)
    534f:	78 15                	js     5366 <safe_rshift_func_int8_t_s_s+0x31>
    5351:	83 7d f8 1f          	cmpl   $0x1f,-0x8(%rbp)
    5355:	7f 0f                	jg     5366 <safe_rshift_func_int8_t_s_s+0x31>
    5357:	0f be 55 fc          	movsbl -0x4(%rbp),%edx
    535b:	8b 45 f8             	mov    -0x8(%rbp),%eax
    535e:	89 c1                	mov    %eax,%ecx
    5360:	d3 fa                	sar    %cl,%edx
    5362:	89 d0                	mov    %edx,%eax
    5364:	eb 04                	jmp    536a <safe_rshift_func_int8_t_s_s+0x35>
    5366:	0f b6 45 fc          	movzbl -0x4(%rbp),%eax
    536a:	5d                   	pop    %rbp
    536b:	c3                   	retq   

000000000000536c <safe_rshift_func_int8_t_s_u>:
    536c:	f3 0f 1e fa          	endbr64 
    5370:	55                   	push   %rbp
    5371:	48 89 e5             	mov    %rsp,%rbp
    5374:	89 f8                	mov    %edi,%eax
    5376:	89 75 f8             	mov    %esi,-0x8(%rbp)
    5379:	88 45 fc             	mov    %al,-0x4(%rbp)
    537c:	80 7d fc 00          	cmpb   $0x0,-0x4(%rbp)
    5380:	78 15                	js     5397 <safe_rshift_func_int8_t_s_u+0x2b>
    5382:	83 7d f8 1f          	cmpl   $0x1f,-0x8(%rbp)
    5386:	77 0f                	ja     5397 <safe_rshift_func_int8_t_s_u+0x2b>
    5388:	0f be 55 fc          	movsbl -0x4(%rbp),%edx
    538c:	8b 45 f8             	mov    -0x8(%rbp),%eax
    538f:	89 c1                	mov    %eax,%ecx
    5391:	d3 fa                	sar    %cl,%edx
    5393:	89 d0                	mov    %edx,%eax
    5395:	eb 04                	jmp    539b <safe_rshift_func_int8_t_s_u+0x2f>
    5397:	0f b6 45 fc          	movzbl -0x4(%rbp),%eax
    539b:	5d                   	pop    %rbp
    539c:	c3                   	retq   

000000000000539d <safe_unary_minus_func_int16_t_s>:
    539d:	f3 0f 1e fa          	endbr64 
    53a1:	55                   	push   %rbp
    53a2:	48 89 e5             	mov    %rsp,%rbp
    53a5:	89 f8                	mov    %edi,%eax
    53a7:	66 89 45 fc          	mov    %ax,-0x4(%rbp)
    53ab:	0f b7 45 fc          	movzwl -0x4(%rbp),%eax
    53af:	f7 d8                	neg    %eax
    53b1:	5d                   	pop    %rbp
    53b2:	c3                   	retq   

00000000000053b3 <safe_add_func_int16_t_s_s>:
    53b3:	f3 0f 1e fa          	endbr64 
    53b7:	55                   	push   %rbp
    53b8:	48 89 e5             	mov    %rsp,%rbp
    53bb:	89 fa                	mov    %edi,%edx
    53bd:	89 f0                	mov    %esi,%eax
    53bf:	66 89 55 fc          	mov    %dx,-0x4(%rbp)
    53c3:	66 89 45 f8          	mov    %ax,-0x8(%rbp)
    53c7:	0f b7 55 fc          	movzwl -0x4(%rbp),%edx
    53cb:	0f b7 45 f8          	movzwl -0x8(%rbp),%eax
    53cf:	01 d0                	add    %edx,%eax
    53d1:	5d                   	pop    %rbp
    53d2:	c3                   	retq   

00000000000053d3 <safe_sub_func_int16_t_s_s>:
    53d3:	f3 0f 1e fa          	endbr64 
    53d7:	55                   	push   %rbp
    53d8:	48 89 e5             	mov    %rsp,%rbp
    53db:	89 fa                	mov    %edi,%edx
    53dd:	89 f0                	mov    %esi,%eax
    53df:	66 89 55 fc          	mov    %dx,-0x4(%rbp)
    53e3:	66 89 45 f8          	mov    %ax,-0x8(%rbp)
    53e7:	0f b7 55 fc          	movzwl -0x4(%rbp),%edx
    53eb:	0f b7 45 f8          	movzwl -0x8(%rbp),%eax
    53ef:	29 c2                	sub    %eax,%edx
    53f1:	89 d0                	mov    %edx,%eax
    53f3:	5d                   	pop    %rbp
    53f4:	c3                   	retq   

00000000000053f5 <safe_mul_func_int16_t_s_s>:
    53f5:	f3 0f 1e fa          	endbr64 
    53f9:	55                   	push   %rbp
    53fa:	48 89 e5             	mov    %rsp,%rbp
    53fd:	89 fa                	mov    %edi,%edx
    53ff:	89 f0                	mov    %esi,%eax
    5401:	66 89 55 fc          	mov    %dx,-0x4(%rbp)
    5405:	66 89 45 f8          	mov    %ax,-0x8(%rbp)
    5409:	0f b7 55 fc          	movzwl -0x4(%rbp),%edx
    540d:	0f b7 45 f8          	movzwl -0x8(%rbp),%eax
    5411:	0f af c2             	imul   %edx,%eax
    5414:	5d                   	pop    %rbp
    5415:	c3                   	retq   

0000000000005416 <safe_mod_func_int16_t_s_s>:
    5416:	f3 0f 1e fa          	endbr64 
    541a:	55                   	push   %rbp
    541b:	48 89 e5             	mov    %rsp,%rbp
    541e:	89 fa                	mov    %edi,%edx
    5420:	89 f0                	mov    %esi,%eax
    5422:	66 89 55 fc          	mov    %dx,-0x4(%rbp)
    5426:	66 89 45 f8          	mov    %ax,-0x8(%rbp)
    542a:	66 83 7d f8 00       	cmpw   $0x0,-0x8(%rbp)
    542f:	74 1e                	je     544f <safe_mod_func_int16_t_s_s+0x39>
    5431:	66 81 7d fc 00 80    	cmpw   $0x8000,-0x4(%rbp)
    5437:	75 07                	jne    5440 <safe_mod_func_int16_t_s_s+0x2a>
    5439:	66 83 7d f8 ff       	cmpw   $0xffff,-0x8(%rbp)
    543e:	74 0f                	je     544f <safe_mod_func_int16_t_s_s+0x39>
    5440:	0f bf 45 fc          	movswl -0x4(%rbp),%eax
    5444:	0f bf 4d f8          	movswl -0x8(%rbp),%ecx
    5448:	99                   	cltd   
    5449:	f7 f9                	idiv   %ecx
    544b:	89 d0                	mov    %edx,%eax
    544d:	eb 04                	jmp    5453 <safe_mod_func_int16_t_s_s+0x3d>
    544f:	0f b7 45 fc          	movzwl -0x4(%rbp),%eax
    5453:	5d                   	pop    %rbp
    5454:	c3                   	retq   

0000000000005455 <safe_div_func_int16_t_s_s>:
    5455:	f3 0f 1e fa          	endbr64 
    5459:	55                   	push   %rbp
    545a:	48 89 e5             	mov    %rsp,%rbp
    545d:	89 fa                	mov    %edi,%edx
    545f:	89 f0                	mov    %esi,%eax
    5461:	66 89 55 fc          	mov    %dx,-0x4(%rbp)
    5465:	66 89 45 f8          	mov    %ax,-0x8(%rbp)
    5469:	66 83 7d f8 00       	cmpw   $0x0,-0x8(%rbp)
    546e:	74 1c                	je     548c <safe_div_func_int16_t_s_s+0x37>
    5470:	66 81 7d fc 00 80    	cmpw   $0x8000,-0x4(%rbp)
    5476:	75 07                	jne    547f <safe_div_func_int16_t_s_s+0x2a>
    5478:	66 83 7d f8 ff       	cmpw   $0xffff,-0x8(%rbp)
    547d:	74 0d                	je     548c <safe_div_func_int16_t_s_s+0x37>
    547f:	0f bf 45 fc          	movswl -0x4(%rbp),%eax
    5483:	0f bf 4d f8          	movswl -0x8(%rbp),%ecx
    5487:	99                   	cltd   
    5488:	f7 f9                	idiv   %ecx
    548a:	eb 04                	jmp    5490 <safe_div_func_int16_t_s_s+0x3b>
    548c:	0f b7 45 fc          	movzwl -0x4(%rbp),%eax
    5490:	5d                   	pop    %rbp
    5491:	c3                   	retq   

0000000000005492 <safe_lshift_func_int16_t_s_s>:
    5492:	f3 0f 1e fa          	endbr64 
    5496:	55                   	push   %rbp
    5497:	48 89 e5             	mov    %rsp,%rbp
    549a:	89 f8                	mov    %edi,%eax
    549c:	89 75 f8             	mov    %esi,-0x8(%rbp)
    549f:	66 89 45 fc          	mov    %ax,-0x4(%rbp)
    54a3:	66 83 7d fc 00       	cmpw   $0x0,-0x4(%rbp)
    54a8:	78 31                	js     54db <safe_lshift_func_int16_t_s_s+0x49>
    54aa:	83 7d f8 00          	cmpl   $0x0,-0x8(%rbp)
    54ae:	78 2b                	js     54db <safe_lshift_func_int16_t_s_s+0x49>
    54b0:	83 7d f8 1f          	cmpl   $0x1f,-0x8(%rbp)
    54b4:	7f 25                	jg     54db <safe_lshift_func_int16_t_s_s+0x49>
    54b6:	0f bf 55 fc          	movswl -0x4(%rbp),%edx
    54ba:	8b 45 f8             	mov    -0x8(%rbp),%eax
    54bd:	be ff 7f 00 00       	mov    $0x7fff,%esi
    54c2:	89 c1                	mov    %eax,%ecx
    54c4:	d3 fe                	sar    %cl,%esi
    54c6:	89 f0                	mov    %esi,%eax
    54c8:	39 c2                	cmp    %eax,%edx
    54ca:	7f 0f                	jg     54db <safe_lshift_func_int16_t_s_s+0x49>
    54cc:	0f bf 55 fc          	movswl -0x4(%rbp),%edx
    54d0:	8b 45 f8             	mov    -0x8(%rbp),%eax
    54d3:	89 c1                	mov    %eax,%ecx
    54d5:	d3 e2                	shl    %cl,%edx
    54d7:	89 d0                	mov    %edx,%eax
    54d9:	eb 04                	jmp    54df <safe_lshift_func_int16_t_s_s+0x4d>
    54db:	0f b7 45 fc          	movzwl -0x4(%rbp),%eax
    54df:	5d                   	pop    %rbp
    54e0:	c3                   	retq   

00000000000054e1 <safe_lshift_func_int16_t_s_u>:
    54e1:	f3 0f 1e fa          	endbr64 
    54e5:	55                   	push   %rbp
    54e6:	48 89 e5             	mov    %rsp,%rbp
    54e9:	89 f8                	mov    %edi,%eax
    54eb:	89 75 f8             	mov    %esi,-0x8(%rbp)
    54ee:	66 89 45 fc          	mov    %ax,-0x4(%rbp)
    54f2:	66 83 7d fc 00       	cmpw   $0x0,-0x4(%rbp)
    54f7:	78 2b                	js     5524 <safe_lshift_func_int16_t_s_u+0x43>
    54f9:	83 7d f8 1f          	cmpl   $0x1f,-0x8(%rbp)
    54fd:	77 25                	ja     5524 <safe_lshift_func_int16_t_s_u+0x43>
    54ff:	0f bf 55 fc          	movswl -0x4(%rbp),%edx
    5503:	8b 45 f8             	mov    -0x8(%rbp),%eax
    5506:	be ff 7f 00 00       	mov    $0x7fff,%esi
    550b:	89 c1                	mov    %eax,%ecx
    550d:	d3 fe                	sar    %cl,%esi
    550f:	89 f0                	mov    %esi,%eax
    5511:	39 c2                	cmp    %eax,%edx
    5513:	7f 0f                	jg     5524 <safe_lshift_func_int16_t_s_u+0x43>
    5515:	0f bf 55 fc          	movswl -0x4(%rbp),%edx
    5519:	8b 45 f8             	mov    -0x8(%rbp),%eax
    551c:	89 c1                	mov    %eax,%ecx
    551e:	d3 e2                	shl    %cl,%edx
    5520:	89 d0                	mov    %edx,%eax
    5522:	eb 04                	jmp    5528 <safe_lshift_func_int16_t_s_u+0x47>
    5524:	0f b7 45 fc          	movzwl -0x4(%rbp),%eax
    5528:	5d                   	pop    %rbp
    5529:	c3                   	retq   

000000000000552a <safe_rshift_func_int16_t_s_s>:
    552a:	f3 0f 1e fa          	endbr64 
    552e:	55                   	push   %rbp
    552f:	48 89 e5             	mov    %rsp,%rbp
    5532:	89 f8                	mov    %edi,%eax
    5534:	89 75 f8             	mov    %esi,-0x8(%rbp)
    5537:	66 89 45 fc          	mov    %ax,-0x4(%rbp)
    553b:	66 83 7d fc 00       	cmpw   $0x0,-0x4(%rbp)
    5540:	78 1b                	js     555d <safe_rshift_func_int16_t_s_s+0x33>
    5542:	83 7d f8 00          	cmpl   $0x0,-0x8(%rbp)
    5546:	78 15                	js     555d <safe_rshift_func_int16_t_s_s+0x33>
    5548:	83 7d f8 1f          	cmpl   $0x1f,-0x8(%rbp)
    554c:	7f 0f                	jg     555d <safe_rshift_func_int16_t_s_s+0x33>
    554e:	0f bf 55 fc          	movswl -0x4(%rbp),%edx
    5552:	8b 45 f8             	mov    -0x8(%rbp),%eax
    5555:	89 c1                	mov    %eax,%ecx
    5557:	d3 fa                	sar    %cl,%edx
    5559:	89 d0                	mov    %edx,%eax
    555b:	eb 04                	jmp    5561 <safe_rshift_func_int16_t_s_s+0x37>
    555d:	0f b7 45 fc          	movzwl -0x4(%rbp),%eax
    5561:	5d                   	pop    %rbp
    5562:	c3                   	retq   

0000000000005563 <safe_rshift_func_int16_t_s_u>:
    5563:	f3 0f 1e fa          	endbr64 
    5567:	55                   	push   %rbp
    5568:	48 89 e5             	mov    %rsp,%rbp
    556b:	89 f8                	mov    %edi,%eax
    556d:	89 75 f8             	mov    %esi,-0x8(%rbp)
    5570:	66 89 45 fc          	mov    %ax,-0x4(%rbp)
    5574:	66 83 7d fc 00       	cmpw   $0x0,-0x4(%rbp)
    5579:	78 15                	js     5590 <safe_rshift_func_int16_t_s_u+0x2d>
    557b:	83 7d f8 1f          	cmpl   $0x1f,-0x8(%rbp)
    557f:	77 0f                	ja     5590 <safe_rshift_func_int16_t_s_u+0x2d>
    5581:	0f bf 55 fc          	movswl -0x4(%rbp),%edx
    5585:	8b 45 f8             	mov    -0x8(%rbp),%eax
    5588:	89 c1                	mov    %eax,%ecx
    558a:	d3 fa                	sar    %cl,%edx
    558c:	89 d0                	mov    %edx,%eax
    558e:	eb 04                	jmp    5594 <safe_rshift_func_int16_t_s_u+0x31>
    5590:	0f b7 45 fc          	movzwl -0x4(%rbp),%eax
    5594:	5d                   	pop    %rbp
    5595:	c3                   	retq   

0000000000005596 <safe_unary_minus_func_int32_t_s>:
    5596:	f3 0f 1e fa          	endbr64 
    559a:	55                   	push   %rbp
    559b:	48 89 e5             	mov    %rsp,%rbp
    559e:	89 7d fc             	mov    %edi,-0x4(%rbp)
    55a1:	81 7d fc 00 00 00 80 	cmpl   $0x80000000,-0x4(%rbp)
    55a8:	74 07                	je     55b1 <safe_unary_minus_func_int32_t_s+0x1b>
    55aa:	8b 45 fc             	mov    -0x4(%rbp),%eax
    55ad:	f7 d8                	neg    %eax
    55af:	eb 03                	jmp    55b4 <safe_unary_minus_func_int32_t_s+0x1e>
    55b1:	8b 45 fc             	mov    -0x4(%rbp),%eax
    55b4:	5d                   	pop    %rbp
    55b5:	c3                   	retq   

00000000000055b6 <safe_add_func_int32_t_s_s>:
    55b6:	f3 0f 1e fa          	endbr64 
    55ba:	55                   	push   %rbp
    55bb:	48 89 e5             	mov    %rsp,%rbp
    55be:	89 7d fc             	mov    %edi,-0x4(%rbp)
    55c1:	89 75 f8             	mov    %esi,-0x8(%rbp)
    55c4:	83 7d fc 00          	cmpl   $0x0,-0x4(%rbp)
    55c8:	7e 13                	jle    55dd <safe_add_func_int32_t_s_s+0x27>
    55ca:	83 7d f8 00          	cmpl   $0x0,-0x8(%rbp)
    55ce:	7e 0d                	jle    55dd <safe_add_func_int32_t_s_s+0x27>
    55d0:	b8 ff ff ff 7f       	mov    $0x7fffffff,%eax
    55d5:	2b 45 f8             	sub    -0x8(%rbp),%eax
    55d8:	39 45 fc             	cmp    %eax,-0x4(%rbp)
    55db:	7f 23                	jg     5600 <safe_add_func_int32_t_s_s+0x4a>
    55dd:	83 7d fc 00          	cmpl   $0x0,-0x4(%rbp)
    55e1:	79 13                	jns    55f6 <safe_add_func_int32_t_s_s+0x40>
    55e3:	83 7d f8 00          	cmpl   $0x0,-0x8(%rbp)
    55e7:	79 0d                	jns    55f6 <safe_add_func_int32_t_s_s+0x40>
    55e9:	b8 00 00 00 80       	mov    $0x80000000,%eax
    55ee:	2b 45 f8             	sub    -0x8(%rbp),%eax
    55f1:	39 45 fc             	cmp    %eax,-0x4(%rbp)
    55f4:	7c 0a                	jl     5600 <safe_add_func_int32_t_s_s+0x4a>
    55f6:	8b 55 fc             	mov    -0x4(%rbp),%edx
    55f9:	8b 45 f8             	mov    -0x8(%rbp),%eax
    55fc:	01 d0                	add    %edx,%eax
    55fe:	eb 03                	jmp    5603 <safe_add_func_int32_t_s_s+0x4d>
    5600:	8b 45 fc             	mov    -0x4(%rbp),%eax
    5603:	5d                   	pop    %rbp
    5604:	c3                   	retq   

0000000000005605 <safe_sub_func_int32_t_s_s>:
    5605:	f3 0f 1e fa          	endbr64 
    5609:	55                   	push   %rbp
    560a:	48 89 e5             	mov    %rsp,%rbp
    560d:	89 7d fc             	mov    %edi,-0x4(%rbp)
    5610:	89 75 f8             	mov    %esi,-0x8(%rbp)
    5613:	8b 45 fc             	mov    -0x4(%rbp),%eax
    5616:	33 45 f8             	xor    -0x8(%rbp),%eax
    5619:	89 c2                	mov    %eax,%edx
    561b:	8b 45 fc             	mov    -0x4(%rbp),%eax
    561e:	33 45 f8             	xor    -0x8(%rbp),%eax
    5621:	25 00 00 00 80       	and    $0x80000000,%eax
    5626:	33 45 fc             	xor    -0x4(%rbp),%eax
    5629:	2b 45 f8             	sub    -0x8(%rbp),%eax
    562c:	33 45 f8             	xor    -0x8(%rbp),%eax
    562f:	21 d0                	and    %edx,%eax
    5631:	85 c0                	test   %eax,%eax
    5633:	78 08                	js     563d <safe_sub_func_int32_t_s_s+0x38>
    5635:	8b 45 fc             	mov    -0x4(%rbp),%eax
    5638:	2b 45 f8             	sub    -0x8(%rbp),%eax
    563b:	eb 03                	jmp    5640 <safe_sub_func_int32_t_s_s+0x3b>
    563d:	8b 45 fc             	mov    -0x4(%rbp),%eax
    5640:	5d                   	pop    %rbp
    5641:	c3                   	retq   

0000000000005642 <safe_mul_func_int32_t_s_s>:
    5642:	f3 0f 1e fa          	endbr64 
    5646:	55                   	push   %rbp
    5647:	48 89 e5             	mov    %rsp,%rbp
    564a:	89 7d fc             	mov    %edi,-0x4(%rbp)
    564d:	89 75 f8             	mov    %esi,-0x8(%rbp)
    5650:	83 7d fc 00          	cmpl   $0x0,-0x4(%rbp)
    5654:	7e 14                	jle    566a <safe_mul_func_int32_t_s_s+0x28>
    5656:	83 7d f8 00          	cmpl   $0x0,-0x8(%rbp)
    565a:	7e 0e                	jle    566a <safe_mul_func_int32_t_s_s+0x28>
    565c:	b8 ff ff ff 7f       	mov    $0x7fffffff,%eax
    5661:	99                   	cltd   
    5662:	f7 7d f8             	idivl  -0x8(%rbp)
    5665:	39 45 fc             	cmp    %eax,-0x4(%rbp)
    5668:	7f 5d                	jg     56c7 <safe_mul_func_int32_t_s_s+0x85>
    566a:	83 7d fc 00          	cmpl   $0x0,-0x4(%rbp)
    566e:	7e 14                	jle    5684 <safe_mul_func_int32_t_s_s+0x42>
    5670:	83 7d f8 00          	cmpl   $0x0,-0x8(%rbp)
    5674:	7f 0e                	jg     5684 <safe_mul_func_int32_t_s_s+0x42>
    5676:	b8 00 00 00 80       	mov    $0x80000000,%eax
    567b:	99                   	cltd   
    567c:	f7 7d fc             	idivl  -0x4(%rbp)
    567f:	39 45 f8             	cmp    %eax,-0x8(%rbp)
    5682:	7c 43                	jl     56c7 <safe_mul_func_int32_t_s_s+0x85>
    5684:	83 7d fc 00          	cmpl   $0x0,-0x4(%rbp)
    5688:	7f 14                	jg     569e <safe_mul_func_int32_t_s_s+0x5c>
    568a:	83 7d f8 00          	cmpl   $0x0,-0x8(%rbp)
    568e:	7e 0e                	jle    569e <safe_mul_func_int32_t_s_s+0x5c>
    5690:	b8 00 00 00 80       	mov    $0x80000000,%eax
    5695:	99                   	cltd   
    5696:	f7 7d f8             	idivl  -0x8(%rbp)
    5699:	39 45 fc             	cmp    %eax,-0x4(%rbp)
    569c:	7c 29                	jl     56c7 <safe_mul_func_int32_t_s_s+0x85>
    569e:	83 7d fc 00          	cmpl   $0x0,-0x4(%rbp)
    56a2:	7f 1a                	jg     56be <safe_mul_func_int32_t_s_s+0x7c>
    56a4:	83 7d f8 00          	cmpl   $0x0,-0x8(%rbp)
    56a8:	7f 14                	jg     56be <safe_mul_func_int32_t_s_s+0x7c>
    56aa:	83 7d fc 00          	cmpl   $0x0,-0x4(%rbp)
    56ae:	74 0e                	je     56be <safe_mul_func_int32_t_s_s+0x7c>
    56b0:	b8 ff ff ff 7f       	mov    $0x7fffffff,%eax
    56b5:	99                   	cltd   
    56b6:	f7 7d fc             	idivl  -0x4(%rbp)
    56b9:	39 45 f8             	cmp    %eax,-0x8(%rbp)
    56bc:	7c 09                	jl     56c7 <safe_mul_func_int32_t_s_s+0x85>
    56be:	8b 45 fc             	mov    -0x4(%rbp),%eax
    56c1:	0f af 45 f8          	imul   -0x8(%rbp),%eax
    56c5:	eb 03                	jmp    56ca <safe_mul_func_int32_t_s_s+0x88>
    56c7:	8b 45 fc             	mov    -0x4(%rbp),%eax
    56ca:	5d                   	pop    %rbp
    56cb:	c3                   	retq   

00000000000056cc <safe_mod_func_int32_t_s_s>:
    56cc:	f3 0f 1e fa          	endbr64 
    56d0:	55                   	push   %rbp
    56d1:	48 89 e5             	mov    %rsp,%rbp
    56d4:	89 7d fc             	mov    %edi,-0x4(%rbp)
    56d7:	89 75 f8             	mov    %esi,-0x8(%rbp)
    56da:	83 7d f8 00          	cmpl   $0x0,-0x8(%rbp)
    56de:	74 1a                	je     56fa <safe_mod_func_int32_t_s_s+0x2e>
    56e0:	81 7d fc 00 00 00 80 	cmpl   $0x80000000,-0x4(%rbp)
    56e7:	75 06                	jne    56ef <safe_mod_func_int32_t_s_s+0x23>
    56e9:	83 7d f8 ff          	cmpl   $0xffffffff,-0x8(%rbp)
    56ed:	74 0b                	je     56fa <safe_mod_func_int32_t_s_s+0x2e>
    56ef:	8b 45 fc             	mov    -0x4(%rbp),%eax
    56f2:	99                   	cltd   
    56f3:	f7 7d f8             	idivl  -0x8(%rbp)
    56f6:	89 d0                	mov    %edx,%eax
    56f8:	eb 03                	jmp    56fd <safe_mod_func_int32_t_s_s+0x31>
    56fa:	8b 45 fc             	mov    -0x4(%rbp),%eax
    56fd:	5d                   	pop    %rbp
    56fe:	c3                   	retq   

00000000000056ff <safe_div_func_int32_t_s_s>:
    56ff:	f3 0f 1e fa          	endbr64 
    5703:	55                   	push   %rbp
    5704:	48 89 e5             	mov    %rsp,%rbp
    5707:	89 7d fc             	mov    %edi,-0x4(%rbp)
    570a:	89 75 f8             	mov    %esi,-0x8(%rbp)
    570d:	83 7d f8 00          	cmpl   $0x0,-0x8(%rbp)
    5711:	74 18                	je     572b <safe_div_func_int32_t_s_s+0x2c>
    5713:	81 7d fc 00 00 00 80 	cmpl   $0x80000000,-0x4(%rbp)
    571a:	75 06                	jne    5722 <safe_div_func_int32_t_s_s+0x23>
    571c:	83 7d f8 ff          	cmpl   $0xffffffff,-0x8(%rbp)
    5720:	74 09                	je     572b <safe_div_func_int32_t_s_s+0x2c>
    5722:	8b 45 fc             	mov    -0x4(%rbp),%eax
    5725:	99                   	cltd   
    5726:	f7 7d f8             	idivl  -0x8(%rbp)
    5729:	eb 03                	jmp    572e <safe_div_func_int32_t_s_s+0x2f>
    572b:	8b 45 fc             	mov    -0x4(%rbp),%eax
    572e:	5d                   	pop    %rbp
    572f:	c3                   	retq   

0000000000005730 <safe_lshift_func_int32_t_s_s>:
    5730:	f3 0f 1e fa          	endbr64 
    5734:	55                   	push   %rbp
    5735:	48 89 e5             	mov    %rsp,%rbp
    5738:	89 7d fc             	mov    %edi,-0x4(%rbp)
    573b:	89 75 f8             	mov    %esi,-0x8(%rbp)
    573e:	83 7d fc 00          	cmpl   $0x0,-0x4(%rbp)
    5742:	78 2d                	js     5771 <safe_lshift_func_int32_t_s_s+0x41>
    5744:	83 7d f8 00          	cmpl   $0x0,-0x8(%rbp)
    5748:	78 27                	js     5771 <safe_lshift_func_int32_t_s_s+0x41>
    574a:	83 7d f8 1f          	cmpl   $0x1f,-0x8(%rbp)
    574e:	7f 21                	jg     5771 <safe_lshift_func_int32_t_s_s+0x41>
    5750:	8b 45 f8             	mov    -0x8(%rbp),%eax
    5753:	ba ff ff ff 7f       	mov    $0x7fffffff,%edx
    5758:	89 c1                	mov    %eax,%ecx
    575a:	d3 fa                	sar    %cl,%edx
    575c:	89 d0                	mov    %edx,%eax
    575e:	39 45 fc             	cmp    %eax,-0x4(%rbp)
    5761:	7f 0e                	jg     5771 <safe_lshift_func_int32_t_s_s+0x41>
    5763:	8b 45 f8             	mov    -0x8(%rbp),%eax
    5766:	8b 55 fc             	mov    -0x4(%rbp),%edx
    5769:	89 c1                	mov    %eax,%ecx
    576b:	d3 e2                	shl    %cl,%edx
    576d:	89 d0                	mov    %edx,%eax
    576f:	eb 03                	jmp    5774 <safe_lshift_func_int32_t_s_s+0x44>
    5771:	8b 45 fc             	mov    -0x4(%rbp),%eax
    5774:	5d                   	pop    %rbp
    5775:	c3                   	retq   

0000000000005776 <safe_lshift_func_int32_t_s_u>:
    5776:	f3 0f 1e fa          	endbr64 
    577a:	55                   	push   %rbp
    577b:	48 89 e5             	mov    %rsp,%rbp
    577e:	89 7d fc             	mov    %edi,-0x4(%rbp)
    5781:	89 75 f8             	mov    %esi,-0x8(%rbp)
    5784:	83 7d fc 00          	cmpl   $0x0,-0x4(%rbp)
    5788:	78 27                	js     57b1 <safe_lshift_func_int32_t_s_u+0x3b>
    578a:	83 7d f8 1f          	cmpl   $0x1f,-0x8(%rbp)
    578e:	77 21                	ja     57b1 <safe_lshift_func_int32_t_s_u+0x3b>
    5790:	8b 45 f8             	mov    -0x8(%rbp),%eax
    5793:	ba ff ff ff 7f       	mov    $0x7fffffff,%edx
    5798:	89 c1                	mov    %eax,%ecx
    579a:	d3 fa                	sar    %cl,%edx
    579c:	89 d0                	mov    %edx,%eax
    579e:	39 45 fc             	cmp    %eax,-0x4(%rbp)
    57a1:	7f 0e                	jg     57b1 <safe_lshift_func_int32_t_s_u+0x3b>
    57a3:	8b 45 f8             	mov    -0x8(%rbp),%eax
    57a6:	8b 55 fc             	mov    -0x4(%rbp),%edx
    57a9:	89 c1                	mov    %eax,%ecx
    57ab:	d3 e2                	shl    %cl,%edx
    57ad:	89 d0                	mov    %edx,%eax
    57af:	eb 03                	jmp    57b4 <safe_lshift_func_int32_t_s_u+0x3e>
    57b1:	8b 45 fc             	mov    -0x4(%rbp),%eax
    57b4:	5d                   	pop    %rbp
    57b5:	c3                   	retq   

00000000000057b6 <safe_rshift_func_int32_t_s_s>:
    57b6:	f3 0f 1e fa          	endbr64 
    57ba:	55                   	push   %rbp
    57bb:	48 89 e5             	mov    %rsp,%rbp
    57be:	89 7d fc             	mov    %edi,-0x4(%rbp)
    57c1:	89 75 f8             	mov    %esi,-0x8(%rbp)
    57c4:	83 7d fc 00          	cmpl   $0x0,-0x4(%rbp)
    57c8:	78 1a                	js     57e4 <safe_rshift_func_int32_t_s_s+0x2e>
    57ca:	83 7d f8 00          	cmpl   $0x0,-0x8(%rbp)
    57ce:	78 14                	js     57e4 <safe_rshift_func_int32_t_s_s+0x2e>
    57d0:	83 7d f8 1f          	cmpl   $0x1f,-0x8(%rbp)
    57d4:	7f 0e                	jg     57e4 <safe_rshift_func_int32_t_s_s+0x2e>
    57d6:	8b 45 f8             	mov    -0x8(%rbp),%eax
    57d9:	8b 55 fc             	mov    -0x4(%rbp),%edx
    57dc:	89 c1                	mov    %eax,%ecx
    57de:	d3 fa                	sar    %cl,%edx
    57e0:	89 d0                	mov    %edx,%eax
    57e2:	eb 03                	jmp    57e7 <safe_rshift_func_int32_t_s_s+0x31>
    57e4:	8b 45 fc             	mov    -0x4(%rbp),%eax
    57e7:	5d                   	pop    %rbp
    57e8:	c3                   	retq   

00000000000057e9 <safe_rshift_func_int32_t_s_u>:
    57e9:	f3 0f 1e fa          	endbr64 
    57ed:	55                   	push   %rbp
    57ee:	48 89 e5             	mov    %rsp,%rbp
    57f1:	89 7d fc             	mov    %edi,-0x4(%rbp)
    57f4:	89 75 f8             	mov    %esi,-0x8(%rbp)
    57f7:	83 7d fc 00          	cmpl   $0x0,-0x4(%rbp)
    57fb:	78 14                	js     5811 <safe_rshift_func_int32_t_s_u+0x28>
    57fd:	83 7d f8 1f          	cmpl   $0x1f,-0x8(%rbp)
    5801:	77 0e                	ja     5811 <safe_rshift_func_int32_t_s_u+0x28>
    5803:	8b 45 f8             	mov    -0x8(%rbp),%eax
    5806:	8b 55 fc             	mov    -0x4(%rbp),%edx
    5809:	89 c1                	mov    %eax,%ecx
    580b:	d3 fa                	sar    %cl,%edx
    580d:	89 d0                	mov    %edx,%eax
    580f:	eb 03                	jmp    5814 <safe_rshift_func_int32_t_s_u+0x2b>
    5811:	8b 45 fc             	mov    -0x4(%rbp),%eax
    5814:	5d                   	pop    %rbp
    5815:	c3                   	retq   

0000000000005816 <safe_unary_minus_func_int64_t_s>:
    5816:	f3 0f 1e fa          	endbr64 
    581a:	55                   	push   %rbp
    581b:	48 89 e5             	mov    %rsp,%rbp
    581e:	48 89 7d f8          	mov    %rdi,-0x8(%rbp)
    5822:	48 b8 00 00 00 00 00 	movabs $0x8000000000000000,%rax
    5829:	00 00 80 
    582c:	48 39 45 f8          	cmp    %rax,-0x8(%rbp)
    5830:	74 09                	je     583b <safe_unary_minus_func_int64_t_s+0x25>
    5832:	48 8b 45 f8          	mov    -0x8(%rbp),%rax
    5836:	48 f7 d8             	neg    %rax
    5839:	eb 04                	jmp    583f <safe_unary_minus_func_int64_t_s+0x29>
    583b:	48 8b 45 f8          	mov    -0x8(%rbp),%rax
    583f:	5d                   	pop    %rbp
    5840:	c3                   	retq   

0000000000005841 <safe_add_func_int64_t_s_s>:
    5841:	f3 0f 1e fa          	endbr64 
    5845:	55                   	push   %rbp
    5846:	48 89 e5             	mov    %rsp,%rbp
    5849:	48 89 7d f8          	mov    %rdi,-0x8(%rbp)
    584d:	48 89 75 f0          	mov    %rsi,-0x10(%rbp)
    5851:	48 83 7d f8 00       	cmpq   $0x0,-0x8(%rbp)
    5856:	7e 1b                	jle    5873 <safe_add_func_int64_t_s_s+0x32>
    5858:	48 83 7d f0 00       	cmpq   $0x0,-0x10(%rbp)
    585d:	7e 14                	jle    5873 <safe_add_func_int64_t_s_s+0x32>
    585f:	48 b8 ff ff ff ff ff 	movabs $0x7fffffffffffffff,%rax
    5866:	ff ff 7f 
    5869:	48 2b 45 f0          	sub    -0x10(%rbp),%rax
    586d:	48 39 45 f8          	cmp    %rax,-0x8(%rbp)
    5871:	7f 2f                	jg     58a2 <safe_add_func_int64_t_s_s+0x61>
    5873:	48 83 7d f8 00       	cmpq   $0x0,-0x8(%rbp)
    5878:	79 1b                	jns    5895 <safe_add_func_int64_t_s_s+0x54>
    587a:	48 83 7d f0 00       	cmpq   $0x0,-0x10(%rbp)
    587f:	79 14                	jns    5895 <safe_add_func_int64_t_s_s+0x54>
    5881:	48 b8 00 00 00 00 00 	movabs $0x8000000000000000,%rax
    5888:	00 00 80 
    588b:	48 2b 45 f0          	sub    -0x10(%rbp),%rax
    588f:	48 39 45 f8          	cmp    %rax,-0x8(%rbp)
    5893:	7c 0d                	jl     58a2 <safe_add_func_int64_t_s_s+0x61>
    5895:	48 8b 55 f8          	mov    -0x8(%rbp),%rdx
    5899:	48 8b 45 f0          	mov    -0x10(%rbp),%rax
    589d:	48 01 d0             	add    %rdx,%rax
    58a0:	eb 04                	jmp    58a6 <safe_add_func_int64_t_s_s+0x65>
    58a2:	48 8b 45 f8          	mov    -0x8(%rbp),%rax
    58a6:	5d                   	pop    %rbp
    58a7:	c3                   	retq   

00000000000058a8 <safe_sub_func_int64_t_s_s>:
    58a8:	f3 0f 1e fa          	endbr64 
    58ac:	55                   	push   %rbp
    58ad:	48 89 e5             	mov    %rsp,%rbp
    58b0:	48 89 7d f8          	mov    %rdi,-0x8(%rbp)
    58b4:	48 89 75 f0          	mov    %rsi,-0x10(%rbp)
    58b8:	48 8b 45 f8          	mov    -0x8(%rbp),%rax
    58bc:	48 33 45 f0          	xor    -0x10(%rbp),%rax
    58c0:	48 89 c2             	mov    %rax,%rdx
    58c3:	48 8b 45 f8          	mov    -0x8(%rbp),%rax
    58c7:	48 33 45 f0          	xor    -0x10(%rbp),%rax
    58cb:	48 b9 00 00 00 00 00 	movabs $0x8000000000000000,%rcx
    58d2:	00 00 80 
    58d5:	48 21 c8             	and    %rcx,%rax
    58d8:	48 33 45 f8          	xor    -0x8(%rbp),%rax
    58dc:	48 2b 45 f0          	sub    -0x10(%rbp),%rax
    58e0:	48 33 45 f0          	xor    -0x10(%rbp),%rax
    58e4:	48 21 d0             	and    %rdx,%rax
    58e7:	48 85 c0             	test   %rax,%rax
    58ea:	78 0a                	js     58f6 <safe_sub_func_int64_t_s_s+0x4e>
    58ec:	48 8b 45 f8          	mov    -0x8(%rbp),%rax
    58f0:	48 2b 45 f0          	sub    -0x10(%rbp),%rax
    58f4:	eb 04                	jmp    58fa <safe_sub_func_int64_t_s_s+0x52>
    58f6:	48 8b 45 f8          	mov    -0x8(%rbp),%rax
    58fa:	5d                   	pop    %rbp
    58fb:	c3                   	retq   

00000000000058fc <safe_mul_func_int64_t_s_s>:
    58fc:	f3 0f 1e fa          	endbr64 
    5900:	55                   	push   %rbp
    5901:	48 89 e5             	mov    %rsp,%rbp
    5904:	48 89 7d f8          	mov    %rdi,-0x8(%rbp)
    5908:	48 89 75 f0          	mov    %rsi,-0x10(%rbp)
    590c:	48 83 7d f8 00       	cmpq   $0x0,-0x8(%rbp)
    5911:	7e 1d                	jle    5930 <safe_mul_func_int64_t_s_s+0x34>
    5913:	48 83 7d f0 00       	cmpq   $0x0,-0x10(%rbp)
    5918:	7e 16                	jle    5930 <safe_mul_func_int64_t_s_s+0x34>
    591a:	48 b8 ff ff ff ff ff 	movabs $0x7fffffffffffffff,%rax
    5921:	ff ff 7f 
    5924:	48 99                	cqto   
    5926:	48 f7 7d f0          	idivq  -0x10(%rbp)
    592a:	48 39 45 f8          	cmp    %rax,-0x8(%rbp)
    592e:	7f 7e                	jg     59ae <safe_mul_func_int64_t_s_s+0xb2>
    5930:	48 83 7d f8 00       	cmpq   $0x0,-0x8(%rbp)
    5935:	7e 1d                	jle    5954 <safe_mul_func_int64_t_s_s+0x58>
    5937:	48 83 7d f0 00       	cmpq   $0x0,-0x10(%rbp)
    593c:	7f 16                	jg     5954 <safe_mul_func_int64_t_s_s+0x58>
    593e:	48 b8 00 00 00 00 00 	movabs $0x8000000000000000,%rax
    5945:	00 00 80 
    5948:	48 99                	cqto   
    594a:	48 f7 7d f8          	idivq  -0x8(%rbp)
    594e:	48 39 45 f0          	cmp    %rax,-0x10(%rbp)
    5952:	7c 5a                	jl     59ae <safe_mul_func_int64_t_s_s+0xb2>
    5954:	48 83 7d f8 00       	cmpq   $0x0,-0x8(%rbp)
    5959:	7f 1d                	jg     5978 <safe_mul_func_int64_t_s_s+0x7c>
    595b:	48 83 7d f0 00       	cmpq   $0x0,-0x10(%rbp)
    5960:	7e 16                	jle    5978 <safe_mul_func_int64_t_s_s+0x7c>
    5962:	48 b8 00 00 00 00 00 	movabs $0x8000000000000000,%rax
    5969:	00 00 80 
    596c:	48 99                	cqto   
    596e:	48 f7 7d f0          	idivq  -0x10(%rbp)
    5972:	48 39 45 f8          	cmp    %rax,-0x8(%rbp)
    5976:	7c 36                	jl     59ae <safe_mul_func_int64_t_s_s+0xb2>
    5978:	48 83 7d f8 00       	cmpq   $0x0,-0x8(%rbp)
    597d:	7f 24                	jg     59a3 <safe_mul_func_int64_t_s_s+0xa7>
    597f:	48 83 7d f0 00       	cmpq   $0x0,-0x10(%rbp)
    5984:	7f 1d                	jg     59a3 <safe_mul_func_int64_t_s_s+0xa7>
    5986:	48 83 7d f8 00       	cmpq   $0x0,-0x8(%rbp)
    598b:	74 16                	je     59a3 <safe_mul_func_int64_t_s_s+0xa7>
    598d:	48 b8 ff ff ff ff ff 	movabs $0x7fffffffffffffff,%rax
    5994:	ff ff 7f 
    5997:	48 99                	cqto   
    5999:	48 f7 7d f8          	idivq  -0x8(%rbp)
    599d:	48 39 45 f0          	cmp    %rax,-0x10(%rbp)
    59a1:	7c 0b                	jl     59ae <safe_mul_func_int64_t_s_s+0xb2>
    59a3:	48 8b 45 f8          	mov    -0x8(%rbp),%rax
    59a7:	48 0f af 45 f0       	imul   -0x10(%rbp),%rax
    59ac:	eb 04                	jmp    59b2 <safe_mul_func_int64_t_s_s+0xb6>
    59ae:	48 8b 45 f8          	mov    -0x8(%rbp),%rax
    59b2:	5d                   	pop    %rbp
    59b3:	c3                   	retq   

00000000000059b4 <safe_mod_func_int64_t_s_s>:
    59b4:	f3 0f 1e fa          	endbr64 
    59b8:	55                   	push   %rbp
    59b9:	48 89 e5             	mov    %rsp,%rbp
    59bc:	48 89 7d f8          	mov    %rdi,-0x8(%rbp)
    59c0:	48 89 75 f0          	mov    %rsi,-0x10(%rbp)
    59c4:	48 83 7d f0 00       	cmpq   $0x0,-0x10(%rbp)
    59c9:	74 26                	je     59f1 <safe_mod_func_int64_t_s_s+0x3d>
    59cb:	48 b8 00 00 00 00 00 	movabs $0x8000000000000000,%rax
    59d2:	00 00 80 
    59d5:	48 39 45 f8          	cmp    %rax,-0x8(%rbp)
    59d9:	75 07                	jne    59e2 <safe_mod_func_int64_t_s_s+0x2e>
    59db:	48 83 7d f0 ff       	cmpq   $0xffffffffffffffff,-0x10(%rbp)
    59e0:	74 0f                	je     59f1 <safe_mod_func_int64_t_s_s+0x3d>
    59e2:	48 8b 45 f8          	mov    -0x8(%rbp),%rax
    59e6:	48 99                	cqto   
    59e8:	48 f7 7d f0          	idivq  -0x10(%rbp)
    59ec:	48 89 d0             	mov    %rdx,%rax
    59ef:	eb 04                	jmp    59f5 <safe_mod_func_int64_t_s_s+0x41>
    59f1:	48 8b 45 f8          	mov    -0x8(%rbp),%rax
    59f5:	5d                   	pop    %rbp
    59f6:	c3                   	retq   

00000000000059f7 <safe_div_func_int64_t_s_s>:
    59f7:	f3 0f 1e fa          	endbr64 
    59fb:	55                   	push   %rbp
    59fc:	48 89 e5             	mov    %rsp,%rbp
    59ff:	48 89 7d f8          	mov    %rdi,-0x8(%rbp)
    5a03:	48 89 75 f0          	mov    %rsi,-0x10(%rbp)
    5a07:	48 83 7d f0 00       	cmpq   $0x0,-0x10(%rbp)
    5a0c:	74 23                	je     5a31 <safe_div_func_int64_t_s_s+0x3a>
    5a0e:	48 b8 00 00 00 00 00 	movabs $0x8000000000000000,%rax
    5a15:	00 00 80 
    5a18:	48 39 45 f8          	cmp    %rax,-0x8(%rbp)
    5a1c:	75 07                	jne    5a25 <safe_div_func_int64_t_s_s+0x2e>
    5a1e:	48 83 7d f0 ff       	cmpq   $0xffffffffffffffff,-0x10(%rbp)
    5a23:	74 0c                	je     5a31 <safe_div_func_int64_t_s_s+0x3a>
    5a25:	48 8b 45 f8          	mov    -0x8(%rbp),%rax
    5a29:	48 99                	cqto   
    5a2b:	48 f7 7d f0          	idivq  -0x10(%rbp)
    5a2f:	eb 04                	jmp    5a35 <safe_div_func_int64_t_s_s+0x3e>
    5a31:	48 8b 45 f8          	mov    -0x8(%rbp),%rax
    5a35:	5d                   	pop    %rbp
    5a36:	c3                   	retq   

0000000000005a37 <safe_lshift_func_int64_t_s_s>:
    5a37:	f3 0f 1e fa          	endbr64 
    5a3b:	55                   	push   %rbp
    5a3c:	48 89 e5             	mov    %rsp,%rbp
    5a3f:	48 89 7d f8          	mov    %rdi,-0x8(%rbp)
    5a43:	89 75 f4             	mov    %esi,-0xc(%rbp)
    5a46:	48 83 7d f8 00       	cmpq   $0x0,-0x8(%rbp)
    5a4b:	78 38                	js     5a85 <safe_lshift_func_int64_t_s_s+0x4e>
    5a4d:	83 7d f4 00          	cmpl   $0x0,-0xc(%rbp)
    5a51:	78 32                	js     5a85 <safe_lshift_func_int64_t_s_s+0x4e>
    5a53:	83 7d f4 1f          	cmpl   $0x1f,-0xc(%rbp)
    5a57:	7f 2c                	jg     5a85 <safe_lshift_func_int64_t_s_s+0x4e>
    5a59:	8b 45 f4             	mov    -0xc(%rbp),%eax
    5a5c:	48 ba ff ff ff ff ff 	movabs $0x7fffffffffffffff,%rdx
    5a63:	ff ff 7f 
    5a66:	89 c1                	mov    %eax,%ecx
    5a68:	48 d3 fa             	sar    %cl,%rdx
    5a6b:	48 89 d0             	mov    %rdx,%rax
    5a6e:	48 39 45 f8          	cmp    %rax,-0x8(%rbp)
    5a72:	7f 11                	jg     5a85 <safe_lshift_func_int64_t_s_s+0x4e>
    5a74:	8b 45 f4             	mov    -0xc(%rbp),%eax
    5a77:	48 8b 55 f8          	mov    -0x8(%rbp),%rdx
    5a7b:	89 c1                	mov    %eax,%ecx
    5a7d:	48 d3 e2             	shl    %cl,%rdx
    5a80:	48 89 d0             	mov    %rdx,%rax
    5a83:	eb 04                	jmp    5a89 <safe_lshift_func_int64_t_s_s+0x52>
    5a85:	48 8b 45 f8          	mov    -0x8(%rbp),%rax
    5a89:	5d                   	pop    %rbp
    5a8a:	c3                   	retq   

0000000000005a8b <safe_lshift_func_int64_t_s_u>:
    5a8b:	f3 0f 1e fa          	endbr64 
    5a8f:	55                   	push   %rbp
    5a90:	48 89 e5             	mov    %rsp,%rbp
    5a93:	48 89 7d f8          	mov    %rdi,-0x8(%rbp)
    5a97:	89 75 f4             	mov    %esi,-0xc(%rbp)
    5a9a:	48 83 7d f8 00       	cmpq   $0x0,-0x8(%rbp)
    5a9f:	78 32                	js     5ad3 <safe_lshift_func_int64_t_s_u+0x48>
    5aa1:	83 7d f4 1f          	cmpl   $0x1f,-0xc(%rbp)
    5aa5:	77 2c                	ja     5ad3 <safe_lshift_func_int64_t_s_u+0x48>
    5aa7:	8b 45 f4             	mov    -0xc(%rbp),%eax
    5aaa:	48 ba ff ff ff ff ff 	movabs $0x7fffffffffffffff,%rdx
    5ab1:	ff ff 7f 
    5ab4:	89 c1                	mov    %eax,%ecx
    5ab6:	48 d3 fa             	sar    %cl,%rdx
    5ab9:	48 89 d0             	mov    %rdx,%rax
    5abc:	48 39 45 f8          	cmp    %rax,-0x8(%rbp)
    5ac0:	7f 11                	jg     5ad3 <safe_lshift_func_int64_t_s_u+0x48>
    5ac2:	8b 45 f4             	mov    -0xc(%rbp),%eax
    5ac5:	48 8b 55 f8          	mov    -0x8(%rbp),%rdx
    5ac9:	89 c1                	mov    %eax,%ecx
    5acb:	48 d3 e2             	shl    %cl,%rdx
    5ace:	48 89 d0             	mov    %rdx,%rax
    5ad1:	eb 04                	jmp    5ad7 <safe_lshift_func_int64_t_s_u+0x4c>
    5ad3:	48 8b 45 f8          	mov    -0x8(%rbp),%rax
    5ad7:	5d                   	pop    %rbp
    5ad8:	c3                   	retq   

0000000000005ad9 <safe_rshift_func_int64_t_s_s>:
    5ad9:	f3 0f 1e fa          	endbr64 
    5add:	55                   	push   %rbp
    5ade:	48 89 e5             	mov    %rsp,%rbp
    5ae1:	48 89 7d f8          	mov    %rdi,-0x8(%rbp)
    5ae5:	89 75 f4             	mov    %esi,-0xc(%rbp)
    5ae8:	48 83 7d f8 00       	cmpq   $0x0,-0x8(%rbp)
    5aed:	78 1d                	js     5b0c <safe_rshift_func_int64_t_s_s+0x33>
    5aef:	83 7d f4 00          	cmpl   $0x0,-0xc(%rbp)
    5af3:	78 17                	js     5b0c <safe_rshift_func_int64_t_s_s+0x33>
    5af5:	83 7d f4 1f          	cmpl   $0x1f,-0xc(%rbp)
    5af9:	7f 11                	jg     5b0c <safe_rshift_func_int64_t_s_s+0x33>
    5afb:	8b 45 f4             	mov    -0xc(%rbp),%eax
    5afe:	48 8b 55 f8          	mov    -0x8(%rbp),%rdx
    5b02:	89 c1                	mov    %eax,%ecx
    5b04:	48 d3 fa             	sar    %cl,%rdx
    5b07:	48 89 d0             	mov    %rdx,%rax
    5b0a:	eb 04                	jmp    5b10 <safe_rshift_func_int64_t_s_s+0x37>
    5b0c:	48 8b 45 f8          	mov    -0x8(%rbp),%rax
    5b10:	5d                   	pop    %rbp
    5b11:	c3                   	retq   

0000000000005b12 <safe_rshift_func_int64_t_s_u>:
    5b12:	f3 0f 1e fa          	endbr64 
    5b16:	55                   	push   %rbp
    5b17:	48 89 e5             	mov    %rsp,%rbp
    5b1a:	48 89 7d f8          	mov    %rdi,-0x8(%rbp)
    5b1e:	89 75 f4             	mov    %esi,-0xc(%rbp)
    5b21:	48 83 7d f8 00       	cmpq   $0x0,-0x8(%rbp)
    5b26:	78 17                	js     5b3f <safe_rshift_func_int64_t_s_u+0x2d>
    5b28:	83 7d f4 1f          	cmpl   $0x1f,-0xc(%rbp)
    5b2c:	77 11                	ja     5b3f <safe_rshift_func_int64_t_s_u+0x2d>
    5b2e:	8b 45 f4             	mov    -0xc(%rbp),%eax
    5b31:	48 8b 55 f8          	mov    -0x8(%rbp),%rdx
    5b35:	89 c1                	mov    %eax,%ecx
    5b37:	48 d3 fa             	sar    %cl,%rdx
    5b3a:	48 89 d0             	mov    %rdx,%rax
    5b3d:	eb 04                	jmp    5b43 <safe_rshift_func_int64_t_s_u+0x31>
    5b3f:	48 8b 45 f8          	mov    -0x8(%rbp),%rax
    5b43:	5d                   	pop    %rbp
    5b44:	c3                   	retq   

0000000000005b45 <safe_unary_minus_func_uint8_t_u>:
    5b45:	f3 0f 1e fa          	endbr64 
    5b49:	55                   	push   %rbp
    5b4a:	48 89 e5             	mov    %rsp,%rbp
    5b4d:	89 f8                	mov    %edi,%eax
    5b4f:	88 45 fc             	mov    %al,-0x4(%rbp)
    5b52:	0f b6 45 fc          	movzbl -0x4(%rbp),%eax
    5b56:	f7 d8                	neg    %eax
    5b58:	5d                   	pop    %rbp
    5b59:	c3                   	retq   

0000000000005b5a <safe_add_func_uint8_t_u_u>:
    5b5a:	f3 0f 1e fa          	endbr64 
    5b5e:	55                   	push   %rbp
    5b5f:	48 89 e5             	mov    %rsp,%rbp
    5b62:	89 fa                	mov    %edi,%edx
    5b64:	89 f0                	mov    %esi,%eax
    5b66:	88 55 fc             	mov    %dl,-0x4(%rbp)
    5b69:	88 45 f8             	mov    %al,-0x8(%rbp)
    5b6c:	0f b6 55 fc          	movzbl -0x4(%rbp),%edx
    5b70:	0f b6 45 f8          	movzbl -0x8(%rbp),%eax
    5b74:	01 d0                	add    %edx,%eax
    5b76:	5d                   	pop    %rbp
    5b77:	c3                   	retq   

0000000000005b78 <safe_sub_func_uint8_t_u_u>:
    5b78:	f3 0f 1e fa          	endbr64 
    5b7c:	55                   	push   %rbp
    5b7d:	48 89 e5             	mov    %rsp,%rbp
    5b80:	89 fa                	mov    %edi,%edx
    5b82:	89 f0                	mov    %esi,%eax
    5b84:	88 55 fc             	mov    %dl,-0x4(%rbp)
    5b87:	88 45 f8             	mov    %al,-0x8(%rbp)
    5b8a:	0f b6 45 fc          	movzbl -0x4(%rbp),%eax
    5b8e:	2a 45 f8             	sub    -0x8(%rbp),%al
    5b91:	5d                   	pop    %rbp
    5b92:	c3                   	retq   

0000000000005b93 <safe_mul_func_uint8_t_u_u>:
    5b93:	f3 0f 1e fa          	endbr64 
    5b97:	55                   	push   %rbp
    5b98:	48 89 e5             	mov    %rsp,%rbp
    5b9b:	89 fa                	mov    %edi,%edx
    5b9d:	89 f0                	mov    %esi,%eax
    5b9f:	88 55 fc             	mov    %dl,-0x4(%rbp)
    5ba2:	88 45 f8             	mov    %al,-0x8(%rbp)
    5ba5:	0f b6 45 fc          	movzbl -0x4(%rbp),%eax
    5ba9:	f6 65 f8             	mulb   -0x8(%rbp)
    5bac:	5d                   	pop    %rbp
    5bad:	c3                   	retq   

0000000000005bae <safe_mod_func_uint8_t_u_u>:
    5bae:	f3 0f 1e fa          	endbr64 
    5bb2:	55                   	push   %rbp
    5bb3:	48 89 e5             	mov    %rsp,%rbp
    5bb6:	89 fa                	mov    %edi,%edx
    5bb8:	89 f0                	mov    %esi,%eax
    5bba:	88 55 fc             	mov    %dl,-0x4(%rbp)
    5bbd:	88 45 f8             	mov    %al,-0x8(%rbp)
    5bc0:	80 7d f8 00          	cmpb   $0x0,-0x8(%rbp)
    5bc4:	74 0f                	je     5bd5 <safe_mod_func_uint8_t_u_u+0x27>
    5bc6:	0f b6 45 fc          	movzbl -0x4(%rbp),%eax
    5bca:	0f b6 c0             	movzbl %al,%eax
    5bcd:	f6 75 f8             	divb   -0x8(%rbp)
    5bd0:	0f b6 c4             	movzbl %ah,%eax
    5bd3:	eb 04                	jmp    5bd9 <safe_mod_func_uint8_t_u_u+0x2b>
    5bd5:	0f b6 45 fc          	movzbl -0x4(%rbp),%eax
    5bd9:	5d                   	pop    %rbp
    5bda:	c3                   	retq   

0000000000005bdb <safe_div_func_uint8_t_u_u>:
    5bdb:	f3 0f 1e fa          	endbr64 
    5bdf:	55                   	push   %rbp
    5be0:	48 89 e5             	mov    %rsp,%rbp
    5be3:	89 fa                	mov    %edi,%edx
    5be5:	89 f0                	mov    %esi,%eax
    5be7:	88 55 fc             	mov    %dl,-0x4(%rbp)
    5bea:	88 45 f8             	mov    %al,-0x8(%rbp)
    5bed:	80 7d f8 00          	cmpb   $0x0,-0x8(%rbp)
    5bf1:	74 0c                	je     5bff <safe_div_func_uint8_t_u_u+0x24>
    5bf3:	0f b6 45 fc          	movzbl -0x4(%rbp),%eax
    5bf7:	0f b6 c0             	movzbl %al,%eax
    5bfa:	f6 75 f8             	divb   -0x8(%rbp)
    5bfd:	eb 04                	jmp    5c03 <safe_div_func_uint8_t_u_u+0x28>
    5bff:	0f b6 45 fc          	movzbl -0x4(%rbp),%eax
    5c03:	5d                   	pop    %rbp
    5c04:	c3                   	retq   

0000000000005c05 <safe_lshift_func_uint8_t_u_s>:
    5c05:	f3 0f 1e fa          	endbr64 
    5c09:	55                   	push   %rbp
    5c0a:	48 89 e5             	mov    %rsp,%rbp
    5c0d:	89 f8                	mov    %edi,%eax
    5c0f:	89 75 f8             	mov    %esi,-0x8(%rbp)
    5c12:	88 45 fc             	mov    %al,-0x4(%rbp)
    5c15:	83 7d f8 00          	cmpl   $0x0,-0x8(%rbp)
    5c19:	78 2b                	js     5c46 <safe_lshift_func_uint8_t_u_s+0x41>
    5c1b:	83 7d f8 1f          	cmpl   $0x1f,-0x8(%rbp)
    5c1f:	7f 25                	jg     5c46 <safe_lshift_func_uint8_t_u_s+0x41>
    5c21:	0f b6 55 fc          	movzbl -0x4(%rbp),%edx
    5c25:	8b 45 f8             	mov    -0x8(%rbp),%eax
    5c28:	be ff 00 00 00       	mov    $0xff,%esi
    5c2d:	89 c1                	mov    %eax,%ecx
    5c2f:	d3 fe                	sar    %cl,%esi
    5c31:	89 f0                	mov    %esi,%eax
    5c33:	39 c2                	cmp    %eax,%edx
    5c35:	7f 0f                	jg     5c46 <safe_lshift_func_uint8_t_u_s+0x41>
    5c37:	0f b6 55 fc          	movzbl -0x4(%rbp),%edx
    5c3b:	8b 45 f8             	mov    -0x8(%rbp),%eax
    5c3e:	89 c1                	mov    %eax,%ecx
    5c40:	d3 e2                	shl    %cl,%edx
    5c42:	89 d0                	mov    %edx,%eax
    5c44:	eb 04                	jmp    5c4a <safe_lshift_func_uint8_t_u_s+0x45>
    5c46:	0f b6 45 fc          	movzbl -0x4(%rbp),%eax
    5c4a:	5d                   	pop    %rbp
    5c4b:	c3                   	retq   

0000000000005c4c <safe_lshift_func_uint8_t_u_u>:
    5c4c:	f3 0f 1e fa          	endbr64 
    5c50:	55                   	push   %rbp
    5c51:	48 89 e5             	mov    %rsp,%rbp
    5c54:	89 f8                	mov    %edi,%eax
    5c56:	89 75 f8             	mov    %esi,-0x8(%rbp)
    5c59:	88 45 fc             	mov    %al,-0x4(%rbp)
    5c5c:	83 7d f8 1f          	cmpl   $0x1f,-0x8(%rbp)
    5c60:	77 25                	ja     5c87 <safe_lshift_func_uint8_t_u_u+0x3b>
    5c62:	0f b6 55 fc          	movzbl -0x4(%rbp),%edx
    5c66:	8b 45 f8             	mov    -0x8(%rbp),%eax
    5c69:	be ff 00 00 00       	mov    $0xff,%esi
    5c6e:	89 c1                	mov    %eax,%ecx
    5c70:	d3 fe                	sar    %cl,%esi
    5c72:	89 f0                	mov    %esi,%eax
    5c74:	39 c2                	cmp    %eax,%edx
    5c76:	7f 0f                	jg     5c87 <safe_lshift_func_uint8_t_u_u+0x3b>
    5c78:	0f b6 55 fc          	movzbl -0x4(%rbp),%edx
    5c7c:	8b 45 f8             	mov    -0x8(%rbp),%eax
    5c7f:	89 c1                	mov    %eax,%ecx
    5c81:	d3 e2                	shl    %cl,%edx
    5c83:	89 d0                	mov    %edx,%eax
    5c85:	eb 04                	jmp    5c8b <safe_lshift_func_uint8_t_u_u+0x3f>
    5c87:	0f b6 45 fc          	movzbl -0x4(%rbp),%eax
    5c8b:	5d                   	pop    %rbp
    5c8c:	c3                   	retq   

0000000000005c8d <safe_rshift_func_uint8_t_u_s>:
    5c8d:	f3 0f 1e fa          	endbr64 
    5c91:	55                   	push   %rbp
    5c92:	48 89 e5             	mov    %rsp,%rbp
    5c95:	89 f8                	mov    %edi,%eax
    5c97:	89 75 f8             	mov    %esi,-0x8(%rbp)
    5c9a:	88 45 fc             	mov    %al,-0x4(%rbp)
    5c9d:	83 7d f8 00          	cmpl   $0x0,-0x8(%rbp)
    5ca1:	78 15                	js     5cb8 <safe_rshift_func_uint8_t_u_s+0x2b>
    5ca3:	83 7d f8 1f          	cmpl   $0x1f,-0x8(%rbp)
    5ca7:	7f 0f                	jg     5cb8 <safe_rshift_func_uint8_t_u_s+0x2b>
    5ca9:	0f b6 55 fc          	movzbl -0x4(%rbp),%edx
    5cad:	8b 45 f8             	mov    -0x8(%rbp),%eax
    5cb0:	89 c1                	mov    %eax,%ecx
    5cb2:	d3 fa                	sar    %cl,%edx
    5cb4:	89 d0                	mov    %edx,%eax
    5cb6:	eb 04                	jmp    5cbc <safe_rshift_func_uint8_t_u_s+0x2f>
    5cb8:	0f b6 45 fc          	movzbl -0x4(%rbp),%eax
    5cbc:	5d                   	pop    %rbp
    5cbd:	c3                   	retq   

0000000000005cbe <safe_rshift_func_uint8_t_u_u>:
    5cbe:	f3 0f 1e fa          	endbr64 
    5cc2:	55                   	push   %rbp
    5cc3:	48 89 e5             	mov    %rsp,%rbp
    5cc6:	89 f8                	mov    %edi,%eax
    5cc8:	89 75 f8             	mov    %esi,-0x8(%rbp)
    5ccb:	88 45 fc             	mov    %al,-0x4(%rbp)
    5cce:	83 7d f8 1f          	cmpl   $0x1f,-0x8(%rbp)
    5cd2:	77 0f                	ja     5ce3 <safe_rshift_func_uint8_t_u_u+0x25>
    5cd4:	0f b6 55 fc          	movzbl -0x4(%rbp),%edx
    5cd8:	8b 45 f8             	mov    -0x8(%rbp),%eax
    5cdb:	89 c1                	mov    %eax,%ecx
    5cdd:	d3 fa                	sar    %cl,%edx
    5cdf:	89 d0                	mov    %edx,%eax
    5ce1:	eb 04                	jmp    5ce7 <safe_rshift_func_uint8_t_u_u+0x29>
    5ce3:	0f b6 45 fc          	movzbl -0x4(%rbp),%eax
    5ce7:	5d                   	pop    %rbp
    5ce8:	c3                   	retq   

0000000000005ce9 <safe_unary_minus_func_uint16_t_u>:
    5ce9:	f3 0f 1e fa          	endbr64 
    5ced:	55                   	push   %rbp
    5cee:	48 89 e5             	mov    %rsp,%rbp
    5cf1:	89 f8                	mov    %edi,%eax
    5cf3:	66 89 45 fc          	mov    %ax,-0x4(%rbp)
    5cf7:	0f b7 45 fc          	movzwl -0x4(%rbp),%eax
    5cfb:	f7 d8                	neg    %eax
    5cfd:	5d                   	pop    %rbp
    5cfe:	c3                   	retq   

0000000000005cff <safe_add_func_uint16_t_u_u>:
    5cff:	f3 0f 1e fa          	endbr64 
    5d03:	55                   	push   %rbp
    5d04:	48 89 e5             	mov    %rsp,%rbp
    5d07:	89 fa                	mov    %edi,%edx
    5d09:	89 f0                	mov    %esi,%eax
    5d0b:	66 89 55 fc          	mov    %dx,-0x4(%rbp)
    5d0f:	66 89 45 f8          	mov    %ax,-0x8(%rbp)
    5d13:	0f b7 55 fc          	movzwl -0x4(%rbp),%edx
    5d17:	0f b7 45 f8          	movzwl -0x8(%rbp),%eax
    5d1b:	01 d0                	add    %edx,%eax
    5d1d:	5d                   	pop    %rbp
    5d1e:	c3                   	retq   

0000000000005d1f <safe_sub_func_uint16_t_u_u>:
    5d1f:	f3 0f 1e fa          	endbr64 
    5d23:	55                   	push   %rbp
    5d24:	48 89 e5             	mov    %rsp,%rbp
    5d27:	89 fa                	mov    %edi,%edx
    5d29:	89 f0                	mov    %esi,%eax
    5d2b:	66 89 55 fc          	mov    %dx,-0x4(%rbp)
    5d2f:	66 89 45 f8          	mov    %ax,-0x8(%rbp)
    5d33:	0f b7 45 fc          	movzwl -0x4(%rbp),%eax
    5d37:	66 2b 45 f8          	sub    -0x8(%rbp),%ax
    5d3b:	5d                   	pop    %rbp
    5d3c:	c3                   	retq   

0000000000005d3d <safe_mul_func_uint16_t_u_u>:
    5d3d:	f3 0f 1e fa          	endbr64 
    5d41:	55                   	push   %rbp
    5d42:	48 89 e5             	mov    %rsp,%rbp
    5d45:	89 fa                	mov    %edi,%edx
    5d47:	89 f0                	mov    %esi,%eax
    5d49:	66 89 55 fc          	mov    %dx,-0x4(%rbp)
    5d4d:	66 89 45 f8          	mov    %ax,-0x8(%rbp)
    5d51:	0f b7 45 fc          	movzwl -0x4(%rbp),%eax
    5d55:	66 0f af 45 f8       	imul   -0x8(%rbp),%ax
    5d5a:	5d                   	pop    %rbp
    5d5b:	c3                   	retq   

0000000000005d5c <safe_mod_func_uint16_t_u_u>:
    5d5c:	f3 0f 1e fa          	endbr64 
    5d60:	55                   	push   %rbp
    5d61:	48 89 e5             	mov    %rsp,%rbp
    5d64:	89 fa                	mov    %edi,%edx
    5d66:	89 f0                	mov    %esi,%eax
    5d68:	66 89 55 fc          	mov    %dx,-0x4(%rbp)
    5d6c:	66 89 45 f8          	mov    %ax,-0x8(%rbp)
    5d70:	66 83 7d f8 00       	cmpw   $0x0,-0x8(%rbp)
    5d75:	74 11                	je     5d88 <safe_mod_func_uint16_t_u_u+0x2c>
    5d77:	0f b7 45 fc          	movzwl -0x4(%rbp),%eax
    5d7b:	ba 00 00 00 00       	mov    $0x0,%edx
    5d80:	66 f7 75 f8          	divw   -0x8(%rbp)
    5d84:	89 d0                	mov    %edx,%eax
    5d86:	eb 04                	jmp    5d8c <safe_mod_func_uint16_t_u_u+0x30>
    5d88:	0f b7 45 fc          	movzwl -0x4(%rbp),%eax
    5d8c:	5d                   	pop    %rbp
    5d8d:	c3                   	retq   

0000000000005d8e <safe_div_func_uint16_t_u_u>:
    5d8e:	f3 0f 1e fa          	endbr64 
    5d92:	55                   	push   %rbp
    5d93:	48 89 e5             	mov    %rsp,%rbp
    5d96:	89 fa                	mov    %edi,%edx
    5d98:	89 f0                	mov    %esi,%eax
    5d9a:	66 89 55 fc          	mov    %dx,-0x4(%rbp)
    5d9e:	66 89 45 f8          	mov    %ax,-0x8(%rbp)
    5da2:	66 83 7d f8 00       	cmpw   $0x0,-0x8(%rbp)
    5da7:	74 0f                	je     5db8 <safe_div_func_uint16_t_u_u+0x2a>
    5da9:	0f b7 45 fc          	movzwl -0x4(%rbp),%eax
    5dad:	ba 00 00 00 00       	mov    $0x0,%edx
    5db2:	66 f7 75 f8          	divw   -0x8(%rbp)
    5db6:	eb 04                	jmp    5dbc <safe_div_func_uint16_t_u_u+0x2e>
    5db8:	0f b7 45 fc          	movzwl -0x4(%rbp),%eax
    5dbc:	5d                   	pop    %rbp
    5dbd:	c3                   	retq   

0000000000005dbe <safe_lshift_func_uint16_t_u_s>:
    5dbe:	f3 0f 1e fa          	endbr64 
    5dc2:	55                   	push   %rbp
    5dc3:	48 89 e5             	mov    %rsp,%rbp
    5dc6:	89 f8                	mov    %edi,%eax
    5dc8:	89 75 f8             	mov    %esi,-0x8(%rbp)
    5dcb:	66 89 45 fc          	mov    %ax,-0x4(%rbp)
    5dcf:	83 7d f8 00          	cmpl   $0x0,-0x8(%rbp)
    5dd3:	78 2b                	js     5e00 <safe_lshift_func_uint16_t_u_s+0x42>
    5dd5:	83 7d f8 1f          	cmpl   $0x1f,-0x8(%rbp)
    5dd9:	7f 25                	jg     5e00 <safe_lshift_func_uint16_t_u_s+0x42>
    5ddb:	0f b7 55 fc          	movzwl -0x4(%rbp),%edx
    5ddf:	8b 45 f8             	mov    -0x8(%rbp),%eax
    5de2:	be ff ff 00 00       	mov    $0xffff,%esi
    5de7:	89 c1                	mov    %eax,%ecx
    5de9:	d3 fe                	sar    %cl,%esi
    5deb:	89 f0                	mov    %esi,%eax
    5ded:	39 c2                	cmp    %eax,%edx
    5def:	7f 0f                	jg     5e00 <safe_lshift_func_uint16_t_u_s+0x42>
    5df1:	0f b7 55 fc          	movzwl -0x4(%rbp),%edx
    5df5:	8b 45 f8             	mov    -0x8(%rbp),%eax
    5df8:	89 c1                	mov    %eax,%ecx
    5dfa:	d3 e2                	shl    %cl,%edx
    5dfc:	89 d0                	mov    %edx,%eax
    5dfe:	eb 04                	jmp    5e04 <safe_lshift_func_uint16_t_u_s+0x46>
    5e00:	0f b7 45 fc          	movzwl -0x4(%rbp),%eax
    5e04:	5d                   	pop    %rbp
    5e05:	c3                   	retq   

0000000000005e06 <safe_lshift_func_uint16_t_u_u>:
    5e06:	f3 0f 1e fa          	endbr64 
    5e0a:	55                   	push   %rbp
    5e0b:	48 89 e5             	mov    %rsp,%rbp
    5e0e:	89 f8                	mov    %edi,%eax
    5e10:	89 75 f8             	mov    %esi,-0x8(%rbp)
    5e13:	66 89 45 fc          	mov    %ax,-0x4(%rbp)
    5e17:	83 7d f8 1f          	cmpl   $0x1f,-0x8(%rbp)
    5e1b:	77 25                	ja     5e42 <safe_lshift_func_uint16_t_u_u+0x3c>
    5e1d:	0f b7 55 fc          	movzwl -0x4(%rbp),%edx
    5e21:	8b 45 f8             	mov    -0x8(%rbp),%eax
    5e24:	be ff ff 00 00       	mov    $0xffff,%esi
    5e29:	89 c1                	mov    %eax,%ecx
    5e2b:	d3 fe                	sar    %cl,%esi
    5e2d:	89 f0                	mov    %esi,%eax
    5e2f:	39 c2                	cmp    %eax,%edx
    5e31:	7f 0f                	jg     5e42 <safe_lshift_func_uint16_t_u_u+0x3c>
    5e33:	0f b7 55 fc          	movzwl -0x4(%rbp),%edx
    5e37:	8b 45 f8             	mov    -0x8(%rbp),%eax
    5e3a:	89 c1                	mov    %eax,%ecx
    5e3c:	d3 e2                	shl    %cl,%edx
    5e3e:	89 d0                	mov    %edx,%eax
    5e40:	eb 04                	jmp    5e46 <safe_lshift_func_uint16_t_u_u+0x40>
    5e42:	0f b7 45 fc          	movzwl -0x4(%rbp),%eax
    5e46:	5d                   	pop    %rbp
    5e47:	c3                   	retq   

0000000000005e48 <safe_rshift_func_uint16_t_u_s>:
    5e48:	f3 0f 1e fa          	endbr64 
    5e4c:	55                   	push   %rbp
    5e4d:	48 89 e5             	mov    %rsp,%rbp
    5e50:	89 f8                	mov    %edi,%eax
    5e52:	89 75 f8             	mov    %esi,-0x8(%rbp)
    5e55:	66 89 45 fc          	mov    %ax,-0x4(%rbp)
    5e59:	83 7d f8 00          	cmpl   $0x0,-0x8(%rbp)
    5e5d:	78 15                	js     5e74 <safe_rshift_func_uint16_t_u_s+0x2c>
    5e5f:	83 7d f8 1f          	cmpl   $0x1f,-0x8(%rbp)
    5e63:	7f 0f                	jg     5e74 <safe_rshift_func_uint16_t_u_s+0x2c>
    5e65:	0f b7 55 fc          	movzwl -0x4(%rbp),%edx
    5e69:	8b 45 f8             	mov    -0x8(%rbp),%eax
    5e6c:	89 c1                	mov    %eax,%ecx
    5e6e:	d3 fa                	sar    %cl,%edx
    5e70:	89 d0                	mov    %edx,%eax
    5e72:	eb 04                	jmp    5e78 <safe_rshift_func_uint16_t_u_s+0x30>
    5e74:	0f b7 45 fc          	movzwl -0x4(%rbp),%eax
    5e78:	5d                   	pop    %rbp
    5e79:	c3                   	retq   

0000000000005e7a <safe_rshift_func_uint16_t_u_u>:
    5e7a:	f3 0f 1e fa          	endbr64 
    5e7e:	55                   	push   %rbp
    5e7f:	48 89 e5             	mov    %rsp,%rbp
    5e82:	89 f8                	mov    %edi,%eax
    5e84:	89 75 f8             	mov    %esi,-0x8(%rbp)
    5e87:	66 89 45 fc          	mov    %ax,-0x4(%rbp)
    5e8b:	83 7d f8 1f          	cmpl   $0x1f,-0x8(%rbp)
    5e8f:	77 0f                	ja     5ea0 <safe_rshift_func_uint16_t_u_u+0x26>
    5e91:	0f b7 55 fc          	movzwl -0x4(%rbp),%edx
    5e95:	8b 45 f8             	mov    -0x8(%rbp),%eax
    5e98:	89 c1                	mov    %eax,%ecx
    5e9a:	d3 fa                	sar    %cl,%edx
    5e9c:	89 d0                	mov    %edx,%eax
    5e9e:	eb 04                	jmp    5ea4 <safe_rshift_func_uint16_t_u_u+0x2a>
    5ea0:	0f b7 45 fc          	movzwl -0x4(%rbp),%eax
    5ea4:	5d                   	pop    %rbp
    5ea5:	c3                   	retq   

0000000000005ea6 <safe_unary_minus_func_uint32_t_u>:
    5ea6:	f3 0f 1e fa          	endbr64 
    5eaa:	55                   	push   %rbp
    5eab:	48 89 e5             	mov    %rsp,%rbp
    5eae:	89 7d fc             	mov    %edi,-0x4(%rbp)
    5eb1:	8b 45 fc             	mov    -0x4(%rbp),%eax
    5eb4:	f7 d8                	neg    %eax
    5eb6:	5d                   	pop    %rbp
    5eb7:	c3                   	retq   

0000000000005eb8 <safe_add_func_uint32_t_u_u>:
    5eb8:	f3 0f 1e fa          	endbr64 
    5ebc:	55                   	push   %rbp
    5ebd:	48 89 e5             	mov    %rsp,%rbp
    5ec0:	89 7d fc             	mov    %edi,-0x4(%rbp)
    5ec3:	89 75 f8             	mov    %esi,-0x8(%rbp)
    5ec6:	8b 55 fc             	mov    -0x4(%rbp),%edx
    5ec9:	8b 45 f8             	mov    -0x8(%rbp),%eax
    5ecc:	01 d0                	add    %edx,%eax
    5ece:	5d                   	pop    %rbp
    5ecf:	c3                   	retq   

0000000000005ed0 <safe_sub_func_uint32_t_u_u>:
    5ed0:	f3 0f 1e fa          	endbr64 
    5ed4:	55                   	push   %rbp
    5ed5:	48 89 e5             	mov    %rsp,%rbp
    5ed8:	89 7d fc             	mov    %edi,-0x4(%rbp)
    5edb:	89 75 f8             	mov    %esi,-0x8(%rbp)
    5ede:	8b 45 fc             	mov    -0x4(%rbp),%eax
    5ee1:	2b 45 f8             	sub    -0x8(%rbp),%eax
    5ee4:	5d                   	pop    %rbp
    5ee5:	c3                   	retq   

0000000000005ee6 <safe_mul_func_uint32_t_u_u>:
    5ee6:	f3 0f 1e fa          	endbr64 
    5eea:	55                   	push   %rbp
    5eeb:	48 89 e5             	mov    %rsp,%rbp
    5eee:	89 7d fc             	mov    %edi,-0x4(%rbp)
    5ef1:	89 75 f8             	mov    %esi,-0x8(%rbp)
    5ef4:	8b 45 fc             	mov    -0x4(%rbp),%eax
    5ef7:	0f af 45 f8          	imul   -0x8(%rbp),%eax
    5efb:	5d                   	pop    %rbp
    5efc:	c3                   	retq   

0000000000005efd <safe_mod_func_uint32_t_u_u>:
    5efd:	f3 0f 1e fa          	endbr64 
    5f01:	55                   	push   %rbp
    5f02:	48 89 e5             	mov    %rsp,%rbp
    5f05:	89 7d fc             	mov    %edi,-0x4(%rbp)
    5f08:	89 75 f8             	mov    %esi,-0x8(%rbp)
    5f0b:	83 7d f8 00          	cmpl   $0x0,-0x8(%rbp)
    5f0f:	74 0f                	je     5f20 <safe_mod_func_uint32_t_u_u+0x23>
    5f11:	8b 45 fc             	mov    -0x4(%rbp),%eax
    5f14:	ba 00 00 00 00       	mov    $0x0,%edx
    5f19:	f7 75 f8             	divl   -0x8(%rbp)
    5f1c:	89 d0                	mov    %edx,%eax
    5f1e:	eb 03                	jmp    5f23 <safe_mod_func_uint32_t_u_u+0x26>
    5f20:	8b 45 fc             	mov    -0x4(%rbp),%eax
    5f23:	5d                   	pop    %rbp
    5f24:	c3                   	retq   

0000000000005f25 <safe_div_func_uint32_t_u_u>:
    5f25:	f3 0f 1e fa          	endbr64 
    5f29:	55                   	push   %rbp
    5f2a:	48 89 e5             	mov    %rsp,%rbp
    5f2d:	89 7d fc             	mov    %edi,-0x4(%rbp)
    5f30:	89 75 f8             	mov    %esi,-0x8(%rbp)
    5f33:	83 7d f8 00          	cmpl   $0x0,-0x8(%rbp)
    5f37:	74 0d                	je     5f46 <safe_div_func_uint32_t_u_u+0x21>
    5f39:	8b 45 fc             	mov    -0x4(%rbp),%eax
    5f3c:	ba 00 00 00 00       	mov    $0x0,%edx
    5f41:	f7 75 f8             	divl   -0x8(%rbp)
    5f44:	eb 03                	jmp    5f49 <safe_div_func_uint32_t_u_u+0x24>
    5f46:	8b 45 fc             	mov    -0x4(%rbp),%eax
    5f49:	5d                   	pop    %rbp
    5f4a:	c3                   	retq   

0000000000005f4b <safe_lshift_func_uint32_t_u_s>:
    5f4b:	f3 0f 1e fa          	endbr64 
    5f4f:	55                   	push   %rbp
    5f50:	48 89 e5             	mov    %rsp,%rbp
    5f53:	89 7d fc             	mov    %edi,-0x4(%rbp)
    5f56:	89 75 f8             	mov    %esi,-0x8(%rbp)
    5f59:	83 7d f8 00          	cmpl   $0x0,-0x8(%rbp)
    5f5d:	78 27                	js     5f86 <safe_lshift_func_uint32_t_u_s+0x3b>
    5f5f:	83 7d f8 1f          	cmpl   $0x1f,-0x8(%rbp)
    5f63:	7f 21                	jg     5f86 <safe_lshift_func_uint32_t_u_s+0x3b>
    5f65:	8b 45 f8             	mov    -0x8(%rbp),%eax
    5f68:	ba ff ff ff ff       	mov    $0xffffffff,%edx
    5f6d:	89 c1                	mov    %eax,%ecx
    5f6f:	d3 ea                	shr    %cl,%edx
    5f71:	89 d0                	mov    %edx,%eax
    5f73:	39 45 fc             	cmp    %eax,-0x4(%rbp)
    5f76:	77 0e                	ja     5f86 <safe_lshift_func_uint32_t_u_s+0x3b>
    5f78:	8b 45 f8             	mov    -0x8(%rbp),%eax
    5f7b:	8b 55 fc             	mov    -0x4(%rbp),%edx
    5f7e:	89 c1                	mov    %eax,%ecx
    5f80:	d3 e2                	shl    %cl,%edx
    5f82:	89 d0                	mov    %edx,%eax
    5f84:	eb 03                	jmp    5f89 <safe_lshift_func_uint32_t_u_s+0x3e>
    5f86:	8b 45 fc             	mov    -0x4(%rbp),%eax
    5f89:	5d                   	pop    %rbp
    5f8a:	c3                   	retq   

0000000000005f8b <safe_lshift_func_uint32_t_u_u>:
    5f8b:	f3 0f 1e fa          	endbr64 
    5f8f:	55                   	push   %rbp
    5f90:	48 89 e5             	mov    %rsp,%rbp
    5f93:	89 7d fc             	mov    %edi,-0x4(%rbp)
    5f96:	89 75 f8             	mov    %esi,-0x8(%rbp)
    5f99:	83 7d f8 1f          	cmpl   $0x1f,-0x8(%rbp)
    5f9d:	77 21                	ja     5fc0 <safe_lshift_func_uint32_t_u_u+0x35>
    5f9f:	8b 45 f8             	mov    -0x8(%rbp),%eax
    5fa2:	ba ff ff ff ff       	mov    $0xffffffff,%edx
    5fa7:	89 c1                	mov    %eax,%ecx
    5fa9:	d3 ea                	shr    %cl,%edx
    5fab:	89 d0                	mov    %edx,%eax
    5fad:	39 45 fc             	cmp    %eax,-0x4(%rbp)
    5fb0:	77 0e                	ja     5fc0 <safe_lshift_func_uint32_t_u_u+0x35>
    5fb2:	8b 45 f8             	mov    -0x8(%rbp),%eax
    5fb5:	8b 55 fc             	mov    -0x4(%rbp),%edx
    5fb8:	89 c1                	mov    %eax,%ecx
    5fba:	d3 e2                	shl    %cl,%edx
    5fbc:	89 d0                	mov    %edx,%eax
    5fbe:	eb 03                	jmp    5fc3 <safe_lshift_func_uint32_t_u_u+0x38>
    5fc0:	8b 45 fc             	mov    -0x4(%rbp),%eax
    5fc3:	5d                   	pop    %rbp
    5fc4:	c3                   	retq   

0000000000005fc5 <safe_rshift_func_uint32_t_u_s>:
    5fc5:	f3 0f 1e fa          	endbr64 
    5fc9:	55                   	push   %rbp
    5fca:	48 89 e5             	mov    %rsp,%rbp
    5fcd:	89 7d fc             	mov    %edi,-0x4(%rbp)
    5fd0:	89 75 f8             	mov    %esi,-0x8(%rbp)
    5fd3:	83 7d f8 00          	cmpl   $0x0,-0x8(%rbp)
    5fd7:	78 14                	js     5fed <safe_rshift_func_uint32_t_u_s+0x28>
    5fd9:	83 7d f8 1f          	cmpl   $0x1f,-0x8(%rbp)
    5fdd:	7f 0e                	jg     5fed <safe_rshift_func_uint32_t_u_s+0x28>
    5fdf:	8b 45 f8             	mov    -0x8(%rbp),%eax
    5fe2:	8b 55 fc             	mov    -0x4(%rbp),%edx
    5fe5:	89 c1                	mov    %eax,%ecx
    5fe7:	d3 ea                	shr    %cl,%edx
    5fe9:	89 d0                	mov    %edx,%eax
    5feb:	eb 03                	jmp    5ff0 <safe_rshift_func_uint32_t_u_s+0x2b>
    5fed:	8b 45 fc             	mov    -0x4(%rbp),%eax
    5ff0:	5d                   	pop    %rbp
    5ff1:	c3                   	retq   

0000000000005ff2 <safe_rshift_func_uint32_t_u_u>:
    5ff2:	f3 0f 1e fa          	endbr64 
    5ff6:	55                   	push   %rbp
    5ff7:	48 89 e5             	mov    %rsp,%rbp
    5ffa:	89 7d fc             	mov    %edi,-0x4(%rbp)
    5ffd:	89 75 f8             	mov    %esi,-0x8(%rbp)
    6000:	83 7d f8 1f          	cmpl   $0x1f,-0x8(%rbp)
    6004:	77 0e                	ja     6014 <safe_rshift_func_uint32_t_u_u+0x22>
    6006:	8b 45 f8             	mov    -0x8(%rbp),%eax
    6009:	8b 55 fc             	mov    -0x4(%rbp),%edx
    600c:	89 c1                	mov    %eax,%ecx
    600e:	d3 ea                	shr    %cl,%edx
    6010:	89 d0                	mov    %edx,%eax
    6012:	eb 03                	jmp    6017 <safe_rshift_func_uint32_t_u_u+0x25>
    6014:	8b 45 fc             	mov    -0x4(%rbp),%eax
    6017:	5d                   	pop    %rbp
    6018:	c3                   	retq   

0000000000006019 <safe_unary_minus_func_uint64_t_u>:
    6019:	f3 0f 1e fa          	endbr64 
    601d:	55                   	push   %rbp
    601e:	48 89 e5             	mov    %rsp,%rbp
    6021:	48 89 7d f8          	mov    %rdi,-0x8(%rbp)
    6025:	48 8b 45 f8          	mov    -0x8(%rbp),%rax
    6029:	48 f7 d8             	neg    %rax
    602c:	5d                   	pop    %rbp
    602d:	c3                   	retq   

000000000000602e <safe_add_func_uint64_t_u_u>:
    602e:	f3 0f 1e fa          	endbr64 
    6032:	55                   	push   %rbp
    6033:	48 89 e5             	mov    %rsp,%rbp
    6036:	48 89 7d f8          	mov    %rdi,-0x8(%rbp)
    603a:	48 89 75 f0          	mov    %rsi,-0x10(%rbp)
    603e:	48 8b 55 f8          	mov    -0x8(%rbp),%rdx
    6042:	48 8b 45 f0          	mov    -0x10(%rbp),%rax
    6046:	48 01 d0             	add    %rdx,%rax
    6049:	5d                   	pop    %rbp
    604a:	c3                   	retq   

000000000000604b <safe_sub_func_uint64_t_u_u>:
    604b:	f3 0f 1e fa          	endbr64 
    604f:	55                   	push   %rbp
    6050:	48 89 e5             	mov    %rsp,%rbp
    6053:	48 89 7d f8          	mov    %rdi,-0x8(%rbp)
    6057:	48 89 75 f0          	mov    %rsi,-0x10(%rbp)
    605b:	48 8b 45 f8          	mov    -0x8(%rbp),%rax
    605f:	48 2b 45 f0          	sub    -0x10(%rbp),%rax
    6063:	5d                   	pop    %rbp
    6064:	c3                   	retq   

0000000000006065 <safe_mul_func_uint64_t_u_u>:
    6065:	f3 0f 1e fa          	endbr64 
    6069:	55                   	push   %rbp
    606a:	48 89 e5             	mov    %rsp,%rbp
    606d:	48 89 7d f8          	mov    %rdi,-0x8(%rbp)
    6071:	48 89 75 f0          	mov    %rsi,-0x10(%rbp)
    6075:	48 8b 45 f8          	mov    -0x8(%rbp),%rax
    6079:	48 0f af 45 f0       	imul   -0x10(%rbp),%rax
    607e:	5d                   	pop    %rbp
    607f:	c3                   	retq   

0000000000006080 <safe_mod_func_uint64_t_u_u>:
    6080:	f3 0f 1e fa          	endbr64 
    6084:	55                   	push   %rbp
    6085:	48 89 e5             	mov    %rsp,%rbp
    6088:	48 89 7d f8          	mov    %rdi,-0x8(%rbp)
    608c:	48 89 75 f0          	mov    %rsi,-0x10(%rbp)
    6090:	48 83 7d f0 00       	cmpq   $0x0,-0x10(%rbp)
    6095:	74 12                	je     60a9 <safe_mod_func_uint64_t_u_u+0x29>
    6097:	48 8b 45 f8          	mov    -0x8(%rbp),%rax
    609b:	ba 00 00 00 00       	mov    $0x0,%edx
    60a0:	48 f7 75 f0          	divq   -0x10(%rbp)
    60a4:	48 89 d0             	mov    %rdx,%rax
    60a7:	eb 04                	jmp    60ad <safe_mod_func_uint64_t_u_u+0x2d>
    60a9:	48 8b 45 f8          	mov    -0x8(%rbp),%rax
    60ad:	5d                   	pop    %rbp
    60ae:	c3                   	retq   

00000000000060af <safe_div_func_uint64_t_u_u>:
    60af:	f3 0f 1e fa          	endbr64 
    60b3:	55                   	push   %rbp
    60b4:	48 89 e5             	mov    %rsp,%rbp
    60b7:	48 89 7d f8          	mov    %rdi,-0x8(%rbp)
    60bb:	48 89 75 f0          	mov    %rsi,-0x10(%rbp)
    60bf:	48 83 7d f0 00       	cmpq   $0x0,-0x10(%rbp)
    60c4:	74 0f                	je     60d5 <safe_div_func_uint64_t_u_u+0x26>
    60c6:	48 8b 45 f8          	mov    -0x8(%rbp),%rax
    60ca:	ba 00 00 00 00       	mov    $0x0,%edx
    60cf:	48 f7 75 f0          	divq   -0x10(%rbp)
    60d3:	eb 04                	jmp    60d9 <safe_div_func_uint64_t_u_u+0x2a>
    60d5:	48 8b 45 f8          	mov    -0x8(%rbp),%rax
    60d9:	5d                   	pop    %rbp
    60da:	c3                   	retq   

00000000000060db <safe_lshift_func_uint64_t_u_s>:
    60db:	f3 0f 1e fa          	endbr64 
    60df:	55                   	push   %rbp
    60e0:	48 89 e5             	mov    %rsp,%rbp
    60e3:	48 89 7d f8          	mov    %rdi,-0x8(%rbp)
    60e7:	89 75 f4             	mov    %esi,-0xc(%rbp)
    60ea:	83 7d f4 00          	cmpl   $0x0,-0xc(%rbp)
    60ee:	78 2f                	js     611f <safe_lshift_func_uint64_t_u_s+0x44>
    60f0:	83 7d f4 1f          	cmpl   $0x1f,-0xc(%rbp)
    60f4:	7f 29                	jg     611f <safe_lshift_func_uint64_t_u_s+0x44>
    60f6:	8b 45 f4             	mov    -0xc(%rbp),%eax
    60f9:	48 c7 c2 ff ff ff ff 	mov    $0xffffffffffffffff,%rdx
    6100:	89 c1                	mov    %eax,%ecx
    6102:	48 d3 ea             	shr    %cl,%rdx
    6105:	48 89 d0             	mov    %rdx,%rax
    6108:	48 39 45 f8          	cmp    %rax,-0x8(%rbp)
    610c:	77 11                	ja     611f <safe_lshift_func_uint64_t_u_s+0x44>
    610e:	8b 45 f4             	mov    -0xc(%rbp),%eax
    6111:	48 8b 55 f8          	mov    -0x8(%rbp),%rdx
    6115:	89 c1                	mov    %eax,%ecx
    6117:	48 d3 e2             	shl    %cl,%rdx
    611a:	48 89 d0             	mov    %rdx,%rax
    611d:	eb 04                	jmp    6123 <safe_lshift_func_uint64_t_u_s+0x48>
    611f:	48 8b 45 f8          	mov    -0x8(%rbp),%rax
    6123:	5d                   	pop    %rbp
    6124:	c3                   	retq   

0000000000006125 <safe_lshift_func_uint64_t_u_u>:
    6125:	f3 0f 1e fa          	endbr64 
    6129:	55                   	push   %rbp
    612a:	48 89 e5             	mov    %rsp,%rbp
    612d:	48 89 7d f8          	mov    %rdi,-0x8(%rbp)
    6131:	89 75 f4             	mov    %esi,-0xc(%rbp)
    6134:	83 7d f4 1f          	cmpl   $0x1f,-0xc(%rbp)
    6138:	77 29                	ja     6163 <safe_lshift_func_uint64_t_u_u+0x3e>
    613a:	8b 45 f4             	mov    -0xc(%rbp),%eax
    613d:	48 c7 c2 ff ff ff ff 	mov    $0xffffffffffffffff,%rdx
    6144:	89 c1                	mov    %eax,%ecx
    6146:	48 d3 ea             	shr    %cl,%rdx
    6149:	48 89 d0             	mov    %rdx,%rax
    614c:	48 39 45 f8          	cmp    %rax,-0x8(%rbp)
    6150:	77 11                	ja     6163 <safe_lshift_func_uint64_t_u_u+0x3e>
    6152:	8b 45 f4             	mov    -0xc(%rbp),%eax
    6155:	48 8b 55 f8          	mov    -0x8(%rbp),%rdx
    6159:	89 c1                	mov    %eax,%ecx
    615b:	48 d3 e2             	shl    %cl,%rdx
    615e:	48 89 d0             	mov    %rdx,%rax
    6161:	eb 04                	jmp    6167 <safe_lshift_func_uint64_t_u_u+0x42>
    6163:	48 8b 45 f8          	mov    -0x8(%rbp),%rax
    6167:	5d                   	pop    %rbp
    6168:	c3                   	retq   

0000000000006169 <safe_rshift_func_uint64_t_u_s>:
    6169:	f3 0f 1e fa          	endbr64 
    616d:	55                   	push   %rbp
    616e:	48 89 e5             	mov    %rsp,%rbp
    6171:	48 89 7d f8          	mov    %rdi,-0x8(%rbp)
    6175:	89 75 f4             	mov    %esi,-0xc(%rbp)
    6178:	83 7d f4 00          	cmpl   $0x0,-0xc(%rbp)
    617c:	78 17                	js     6195 <safe_rshift_func_uint64_t_u_s+0x2c>
    617e:	83 7d f4 1f          	cmpl   $0x1f,-0xc(%rbp)
    6182:	7f 11                	jg     6195 <safe_rshift_func_uint64_t_u_s+0x2c>
    6184:	8b 45 f4             	mov    -0xc(%rbp),%eax
    6187:	48 8b 55 f8          	mov    -0x8(%rbp),%rdx
    618b:	89 c1                	mov    %eax,%ecx
    618d:	48 d3 ea             	shr    %cl,%rdx
    6190:	48 89 d0             	mov    %rdx,%rax
    6193:	eb 04                	jmp    6199 <safe_rshift_func_uint64_t_u_s+0x30>
    6195:	48 8b 45 f8          	mov    -0x8(%rbp),%rax
    6199:	5d                   	pop    %rbp
    619a:	c3                   	retq   

000000000000619b <safe_rshift_func_uint64_t_u_u>:
    619b:	f3 0f 1e fa          	endbr64 
    619f:	55                   	push   %rbp
    61a0:	48 89 e5             	mov    %rsp,%rbp
    61a3:	48 89 7d f8          	mov    %rdi,-0x8(%rbp)
    61a7:	89 75 f4             	mov    %esi,-0xc(%rbp)
    61aa:	83 7d f4 1f          	cmpl   $0x1f,-0xc(%rbp)
    61ae:	77 11                	ja     61c1 <safe_rshift_func_uint64_t_u_u+0x26>
    61b0:	8b 45 f4             	mov    -0xc(%rbp),%eax
    61b3:	48 8b 55 f8          	mov    -0x8(%rbp),%rdx
    61b7:	89 c1                	mov    %eax,%ecx
    61b9:	48 d3 ea             	shr    %cl,%rdx
    61bc:	48 89 d0             	mov    %rdx,%rax
    61bf:	eb 04                	jmp    61c5 <safe_rshift_func_uint64_t_u_u+0x2a>
    61c1:	48 8b 45 f8          	mov    -0x8(%rbp),%rax
    61c5:	5d                   	pop    %rbp
    61c6:	c3                   	retq   

00000000000061c7 <safe_add_func_float_f_f>:
    61c7:	f3 0f 1e fa          	endbr64 
    61cb:	55                   	push   %rbp
    61cc:	48 89 e5             	mov    %rsp,%rbp
    61cf:	f3 0f 11 45 fc       	movss  %xmm0,-0x4(%rbp)
    61d4:	f3 0f 11 4d f8       	movss  %xmm1,-0x8(%rbp)
    61d9:	f3 0f 10 4d fc       	movss  -0x4(%rbp),%xmm1
    61de:	f3 0f 10 05 7a be 00 	movss  0xbe7a(%rip),%xmm0        # 12060 <l_701.4622+0x20>
    61e5:	00 
    61e6:	f3 0f 59 c8          	mulss  %xmm0,%xmm1
    61ea:	f3 0f 10 55 f8       	movss  -0x8(%rbp),%xmm2
    61ef:	f3 0f 10 05 69 be 00 	movss  0xbe69(%rip),%xmm0        # 12060 <l_701.4622+0x20>
    61f6:	00 
    61f7:	f3 0f 59 c2          	mulss  %xmm2,%xmm0
    61fb:	f3 0f 58 c1          	addss  %xmm1,%xmm0
    61ff:	f3 0f 10 0d 69 be 00 	movss  0xbe69(%rip),%xmm1        # 12070 <l_701.4622+0x30>
    6206:	00 
    6207:	0f 54 c1             	andps  %xmm1,%xmm0
    620a:	0f 2f 05 6f be 00 00 	comiss 0xbe6f(%rip),%xmm0        # 12080 <l_701.4622+0x40>
    6211:	76 07                	jbe    621a <safe_add_func_float_f_f+0x53>
    6213:	f3 0f 10 45 fc       	movss  -0x4(%rbp),%xmm0
    6218:	eb 0a                	jmp    6224 <safe_add_func_float_f_f+0x5d>
    621a:	f3 0f 10 45 fc       	movss  -0x4(%rbp),%xmm0
    621f:	f3 0f 58 45 f8       	addss  -0x8(%rbp),%xmm0
    6224:	5d                   	pop    %rbp
    6225:	c3                   	retq   

0000000000006226 <safe_sub_func_float_f_f>:
    6226:	f3 0f 1e fa          	endbr64 
    622a:	55                   	push   %rbp
    622b:	48 89 e5             	mov    %rsp,%rbp
    622e:	f3 0f 11 45 fc       	movss  %xmm0,-0x4(%rbp)
    6233:	f3 0f 11 4d f8       	movss  %xmm1,-0x8(%rbp)
    6238:	f3 0f 10 4d fc       	movss  -0x4(%rbp),%xmm1
    623d:	f3 0f 10 05 1b be 00 	movss  0xbe1b(%rip),%xmm0        # 12060 <l_701.4622+0x20>
    6244:	00 
    6245:	f3 0f 59 c1          	mulss  %xmm1,%xmm0
    6249:	f3 0f 10 55 f8       	movss  -0x8(%rbp),%xmm2
    624e:	f3 0f 10 0d 0a be 00 	movss  0xbe0a(%rip),%xmm1        # 12060 <l_701.4622+0x20>
    6255:	00 
    6256:	f3 0f 59 ca          	mulss  %xmm2,%xmm1
    625a:	f3 0f 5c c1          	subss  %xmm1,%xmm0
    625e:	f3 0f 10 0d 0a be 00 	movss  0xbe0a(%rip),%xmm1        # 12070 <l_701.4622+0x30>
    6265:	00 
    6266:	0f 54 c1             	andps  %xmm1,%xmm0
    6269:	0f 2f 05 10 be 00 00 	comiss 0xbe10(%rip),%xmm0        # 12080 <l_701.4622+0x40>
    6270:	76 07                	jbe    6279 <safe_sub_func_float_f_f+0x53>
    6272:	f3 0f 10 45 fc       	movss  -0x4(%rbp),%xmm0
    6277:	eb 0a                	jmp    6283 <safe_sub_func_float_f_f+0x5d>
    6279:	f3 0f 10 45 fc       	movss  -0x4(%rbp),%xmm0
    627e:	f3 0f 5c 45 f8       	subss  -0x8(%rbp),%xmm0
    6283:	5d                   	pop    %rbp
    6284:	c3                   	retq   

0000000000006285 <safe_mul_func_float_f_f>:
    6285:	f3 0f 1e fa          	endbr64 
    6289:	55                   	push   %rbp
    628a:	48 89 e5             	mov    %rsp,%rbp
    628d:	f3 0f 11 45 fc       	movss  %xmm0,-0x4(%rbp)
    6292:	f3 0f 11 4d f8       	movss  %xmm1,-0x8(%rbp)
    6297:	f3 0f 10 4d fc       	movss  -0x4(%rbp),%xmm1
    629c:	f3 0f 10 05 e0 bd 00 	movss  0xbde0(%rip),%xmm0        # 12084 <l_701.4622+0x44>
    62a3:	00 
    62a4:	f3 0f 59 c8          	mulss  %xmm0,%xmm1
    62a8:	f3 0f 10 55 f8       	movss  -0x8(%rbp),%xmm2
    62ad:	f3 0f 10 05 d3 bd 00 	movss  0xbdd3(%rip),%xmm0        # 12088 <l_701.4622+0x48>
    62b4:	00 
    62b5:	f3 0f 59 c2          	mulss  %xmm2,%xmm0
    62b9:	f3 0f 59 c1          	mulss  %xmm1,%xmm0
    62bd:	f3 0f 10 0d ab bd 00 	movss  0xbdab(%rip),%xmm1        # 12070 <l_701.4622+0x30>
    62c4:	00 
    62c5:	0f 54 c1             	andps  %xmm1,%xmm0
    62c8:	0f 2f 05 bd bd 00 00 	comiss 0xbdbd(%rip),%xmm0        # 1208c <l_701.4622+0x4c>
    62cf:	76 07                	jbe    62d8 <safe_mul_func_float_f_f+0x53>
    62d1:	f3 0f 10 45 fc       	movss  -0x4(%rbp),%xmm0
    62d6:	eb 0a                	jmp    62e2 <safe_mul_func_float_f_f+0x5d>
    62d8:	f3 0f 10 45 fc       	movss  -0x4(%rbp),%xmm0
    62dd:	f3 0f 59 45 f8       	mulss  -0x8(%rbp),%xmm0
    62e2:	5d                   	pop    %rbp
    62e3:	c3                   	retq   

00000000000062e4 <safe_div_func_float_f_f>:
    62e4:	f3 0f 1e fa          	endbr64 
    62e8:	55                   	push   %rbp
    62e9:	48 89 e5             	mov    %rsp,%rbp
    62ec:	f3 0f 11 45 fc       	movss  %xmm0,-0x4(%rbp)
    62f1:	f3 0f 11 4d f8       	movss  %xmm1,-0x8(%rbp)
    62f6:	f3 0f 10 45 f8       	movss  -0x8(%rbp),%xmm0
    62fb:	f3 0f 10 0d 6d bd 00 	movss  0xbd6d(%rip),%xmm1        # 12070 <l_701.4622+0x30>
    6302:	00 
    6303:	0f 54 c8             	andps  %xmm0,%xmm1
    6306:	f3 0f 10 05 82 bd 00 	movss  0xbd82(%rip),%xmm0        # 12090 <l_701.4622+0x50>
    630d:	00 
    630e:	0f 2f c1             	comiss %xmm1,%xmm0
    6311:	0f 97 c0             	seta   %al
    6314:	83 f0 01             	xor    $0x1,%eax
    6317:	84 c0                	test   %al,%al
    6319:	75 56                	jne    6371 <safe_div_func_float_f_f+0x8d>
    631b:	66 0f ef c0          	pxor   %xmm0,%xmm0
    631f:	0f 2e 45 f8          	ucomiss -0x8(%rbp),%xmm0
    6323:	7a 0a                	jp     632f <safe_div_func_float_f_f+0x4b>
    6325:	66 0f ef c0          	pxor   %xmm0,%xmm0
    6329:	0f 2e 45 f8          	ucomiss -0x8(%rbp),%xmm0
    632d:	74 4e                	je     637d <safe_div_func_float_f_f+0x99>
    632f:	f3 0f 10 4d fc       	movss  -0x4(%rbp),%xmm1
    6334:	f3 0f 10 05 58 bd 00 	movss  0xbd58(%rip),%xmm0        # 12094 <l_701.4622+0x54>
    633b:	00 
    633c:	f3 0f 59 c1          	mulss  %xmm1,%xmm0
    6340:	f3 0f 10 55 f8       	movss  -0x8(%rbp),%xmm2
    6345:	f3 0f 10 0d 4b bd 00 	movss  0xbd4b(%rip),%xmm1        # 12098 <l_701.4622+0x58>
    634c:	00 
    634d:	f3 0f 59 ca          	mulss  %xmm2,%xmm1
    6351:	f3 0f 5e c1          	divss  %xmm1,%xmm0
    6355:	f3 0f 10 0d 13 bd 00 	movss  0xbd13(%rip),%xmm1        # 12070 <l_701.4622+0x30>
    635c:	00 
    635d:	0f 54 c1             	andps  %xmm1,%xmm0
    6360:	0f 2f 05 35 bd 00 00 	comiss 0xbd35(%rip),%xmm0        # 1209c <l_701.4622+0x5c>
    6367:	0f 97 c0             	seta   %al
    636a:	83 f0 01             	xor    $0x1,%eax
    636d:	84 c0                	test   %al,%al
    636f:	74 0c                	je     637d <safe_div_func_float_f_f+0x99>
    6371:	f3 0f 10 45 fc       	movss  -0x4(%rbp),%xmm0
    6376:	f3 0f 5e 45 f8       	divss  -0x8(%rbp),%xmm0
    637b:	eb 05                	jmp    6382 <safe_div_func_float_f_f+0x9e>
    637d:	f3 0f 10 45 fc       	movss  -0x4(%rbp),%xmm0
    6382:	5d                   	pop    %rbp
    6383:	c3                   	retq   

0000000000006384 <safe_add_func_double_f_f>:
    6384:	f3 0f 1e fa          	endbr64 
    6388:	55                   	push   %rbp
    6389:	48 89 e5             	mov    %rsp,%rbp
    638c:	f2 0f 11 45 f8       	movsd  %xmm0,-0x8(%rbp)
    6391:	f2 0f 11 4d f0       	movsd  %xmm1,-0x10(%rbp)
    6396:	f2 0f 10 4d f8       	movsd  -0x8(%rbp),%xmm1
    639b:	f2 0f 10 05 fd bc 00 	movsd  0xbcfd(%rip),%xmm0        # 120a0 <l_701.4622+0x60>
    63a2:	00 
    63a3:	f2 0f 59 c8          	mulsd  %xmm0,%xmm1
    63a7:	f2 0f 10 55 f0       	movsd  -0x10(%rbp),%xmm2
    63ac:	f2 0f 10 05 ec bc 00 	movsd  0xbcec(%rip),%xmm0        # 120a0 <l_701.4622+0x60>
    63b3:	00 
    63b4:	f2 0f 59 c2          	mulsd  %xmm2,%xmm0
    63b8:	f2 0f 58 c1          	addsd  %xmm1,%xmm0
    63bc:	f3 0f 7e 0d ec bc 00 	movq   0xbcec(%rip),%xmm1        # 120b0 <l_701.4622+0x70>
    63c3:	00 
    63c4:	66 0f 54 c1          	andpd  %xmm1,%xmm0
    63c8:	66 0f 2f 05 f0 bc 00 	comisd 0xbcf0(%rip),%xmm0        # 120c0 <l_701.4622+0x80>
    63cf:	00 
    63d0:	76 07                	jbe    63d9 <safe_add_func_double_f_f+0x55>
    63d2:	f2 0f 10 45 f8       	movsd  -0x8(%rbp),%xmm0
    63d7:	eb 0a                	jmp    63e3 <safe_add_func_double_f_f+0x5f>
    63d9:	f2 0f 10 45 f8       	movsd  -0x8(%rbp),%xmm0
    63de:	f2 0f 58 45 f0       	addsd  -0x10(%rbp),%xmm0
    63e3:	5d                   	pop    %rbp
    63e4:	c3                   	retq   

00000000000063e5 <safe_sub_func_double_f_f>:
    63e5:	f3 0f 1e fa          	endbr64 
    63e9:	55                   	push   %rbp
    63ea:	48 89 e5             	mov    %rsp,%rbp
    63ed:	f2 0f 11 45 f8       	movsd  %xmm0,-0x8(%rbp)
    63f2:	f2 0f 11 4d f0       	movsd  %xmm1,-0x10(%rbp)
    63f7:	f2 0f 10 4d f8       	movsd  -0x8(%rbp),%xmm1
    63fc:	f2 0f 10 05 9c bc 00 	movsd  0xbc9c(%rip),%xmm0        # 120a0 <l_701.4622+0x60>
    6403:	00 
    6404:	f2 0f 59 c1          	mulsd  %xmm1,%xmm0
    6408:	f2 0f 10 55 f0       	movsd  -0x10(%rbp),%xmm2
    640d:	f2 0f 10 0d 8b bc 00 	movsd  0xbc8b(%rip),%xmm1        # 120a0 <l_701.4622+0x60>
    6414:	00 
    6415:	f2 0f 59 ca          	mulsd  %xmm2,%xmm1
    6419:	f2 0f 5c c1          	subsd  %xmm1,%xmm0
    641d:	f3 0f 7e 0d 8b bc 00 	movq   0xbc8b(%rip),%xmm1        # 120b0 <l_701.4622+0x70>
    6424:	00 
    6425:	66 0f 54 c1          	andpd  %xmm1,%xmm0
    6429:	66 0f 2f 05 8f bc 00 	comisd 0xbc8f(%rip),%xmm0        # 120c0 <l_701.4622+0x80>
    6430:	00 
    6431:	76 07                	jbe    643a <safe_sub_func_double_f_f+0x55>
    6433:	f2 0f 10 45 f8       	movsd  -0x8(%rbp),%xmm0
    6438:	eb 0a                	jmp    6444 <safe_sub_func_double_f_f+0x5f>
    643a:	f2 0f 10 45 f8       	movsd  -0x8(%rbp),%xmm0
    643f:	f2 0f 5c 45 f0       	subsd  -0x10(%rbp),%xmm0
    6444:	5d                   	pop    %rbp
    6445:	c3                   	retq   

0000000000006446 <safe_mul_func_double_f_f>:
    6446:	f3 0f 1e fa          	endbr64 
    644a:	55                   	push   %rbp
    644b:	48 89 e5             	mov    %rsp,%rbp
    644e:	f2 0f 11 45 f8       	movsd  %xmm0,-0x8(%rbp)
    6453:	f2 0f 11 4d f0       	movsd  %xmm1,-0x10(%rbp)
    6458:	f2 0f 10 4d f8       	movsd  -0x8(%rbp),%xmm1
    645d:	f2 0f 10 05 63 bc 00 	movsd  0xbc63(%rip),%xmm0        # 120c8 <l_701.4622+0x88>
    6464:	00 
    6465:	f2 0f 59 c8          	mulsd  %xmm0,%xmm1
    6469:	f2 0f 10 55 f0       	movsd  -0x10(%rbp),%xmm2
    646e:	f2 0f 10 05 5a bc 00 	movsd  0xbc5a(%rip),%xmm0        # 120d0 <l_701.4622+0x90>
    6475:	00 
    6476:	f2 0f 59 c2          	mulsd  %xmm2,%xmm0
    647a:	f2 0f 59 c1          	mulsd  %xmm1,%xmm0
    647e:	f3 0f 7e 0d 2a bc 00 	movq   0xbc2a(%rip),%xmm1        # 120b0 <l_701.4622+0x70>
    6485:	00 
    6486:	66 0f 54 c1          	andpd  %xmm1,%xmm0
    648a:	66 0f 2f 05 46 bc 00 	comisd 0xbc46(%rip),%xmm0        # 120d8 <l_701.4622+0x98>
    6491:	00 
    6492:	76 07                	jbe    649b <safe_mul_func_double_f_f+0x55>
    6494:	f2 0f 10 45 f8       	movsd  -0x8(%rbp),%xmm0
    6499:	eb 0a                	jmp    64a5 <safe_mul_func_double_f_f+0x5f>
    649b:	f2 0f 10 45 f8       	movsd  -0x8(%rbp),%xmm0
    64a0:	f2 0f 59 45 f0       	mulsd  -0x10(%rbp),%xmm0
    64a5:	5d                   	pop    %rbp
    64a6:	c3                   	retq   

00000000000064a7 <safe_div_func_double_f_f>:
    64a7:	f3 0f 1e fa          	endbr64 
    64ab:	55                   	push   %rbp
    64ac:	48 89 e5             	mov    %rsp,%rbp
    64af:	f2 0f 11 45 f8       	movsd  %xmm0,-0x8(%rbp)
    64b4:	f2 0f 11 4d f0       	movsd  %xmm1,-0x10(%rbp)
    64b9:	f2 0f 10 45 f0       	movsd  -0x10(%rbp),%xmm0
    64be:	f3 0f 7e 0d ea bb 00 	movq   0xbbea(%rip),%xmm1        # 120b0 <l_701.4622+0x70>
    64c5:	00 
    64c6:	66 0f 54 c8          	andpd  %xmm0,%xmm1
    64ca:	f2 0f 10 05 0e bc 00 	movsd  0xbc0e(%rip),%xmm0        # 120e0 <l_701.4622+0xa0>
    64d1:	00 
    64d2:	66 0f 2f c1          	comisd %xmm1,%xmm0
    64d6:	0f 97 c0             	seta   %al
    64d9:	83 f0 01             	xor    $0x1,%eax
    64dc:	84 c0                	test   %al,%al
    64de:	75 5a                	jne    653a <safe_div_func_double_f_f+0x93>
    64e0:	66 0f ef c0          	pxor   %xmm0,%xmm0
    64e4:	66 0f 2e 45 f0       	ucomisd -0x10(%rbp),%xmm0
    64e9:	7a 0b                	jp     64f6 <safe_div_func_double_f_f+0x4f>
    64eb:	66 0f ef c0          	pxor   %xmm0,%xmm0
    64ef:	66 0f 2e 45 f0       	ucomisd -0x10(%rbp),%xmm0
    64f4:	74 50                	je     6546 <safe_div_func_double_f_f+0x9f>
    64f6:	f2 0f 10 4d f8       	movsd  -0x8(%rbp),%xmm1
    64fb:	f2 0f 10 05 e5 bb 00 	movsd  0xbbe5(%rip),%xmm0        # 120e8 <l_701.4622+0xa8>
    6502:	00 
    6503:	f2 0f 59 c1          	mulsd  %xmm1,%xmm0
    6507:	f2 0f 10 55 f0       	movsd  -0x10(%rbp),%xmm2
    650c:	f2 0f 10 0d dc bb 00 	movsd  0xbbdc(%rip),%xmm1        # 120f0 <l_701.4622+0xb0>
    6513:	00 
    6514:	f2 0f 59 ca          	mulsd  %xmm2,%xmm1
    6518:	f2 0f 5e c1          	divsd  %xmm1,%xmm0
    651c:	f3 0f 7e 0d 8c bb 00 	movq   0xbb8c(%rip),%xmm1        # 120b0 <l_701.4622+0x70>
    6523:	00 
    6524:	66 0f 54 c1          	andpd  %xmm1,%xmm0
    6528:	66 0f 2f 05 c8 bb 00 	comisd 0xbbc8(%rip),%xmm0        # 120f8 <l_701.4622+0xb8>
    652f:	00 
    6530:	0f 97 c0             	seta   %al
    6533:	83 f0 01             	xor    $0x1,%eax
    6536:	84 c0                	test   %al,%al
    6538:	74 0c                	je     6546 <safe_div_func_double_f_f+0x9f>
    653a:	f2 0f 10 45 f8       	movsd  -0x8(%rbp),%xmm0
    653f:	f2 0f 5e 45 f0       	divsd  -0x10(%rbp),%xmm0
    6544:	eb 05                	jmp    654b <safe_div_func_double_f_f+0xa4>
    6546:	f2 0f 10 45 f8       	movsd  -0x8(%rbp),%xmm0
    654b:	5d                   	pop    %rbp
    654c:	c3                   	retq   

000000000000654d <safe_convert_func_float_to_int32_t>:
    654d:	f3 0f 1e fa          	endbr64 
    6551:	55                   	push   %rbp
    6552:	48 89 e5             	mov    %rsp,%rbp
    6555:	f3 0f 11 45 fc       	movss  %xmm0,-0x4(%rbp)
    655a:	f3 0f 10 05 9e bb 00 	movss  0xbb9e(%rip),%xmm0        # 12100 <l_701.4622+0xc0>
    6561:	00 
    6562:	0f 2f 45 fc          	comiss -0x4(%rbp),%xmm0
    6566:	0f 93 c0             	setae  %al
    6569:	83 f0 01             	xor    $0x1,%eax
    656c:	84 c0                	test   %al,%al
    656e:	74 21                	je     6591 <safe_convert_func_float_to_int32_t+0x44>
    6570:	f3 0f 10 45 fc       	movss  -0x4(%rbp),%xmm0
    6575:	0f 2f 05 88 bb 00 00 	comiss 0xbb88(%rip),%xmm0        # 12104 <l_701.4622+0xc4>
    657c:	0f 93 c0             	setae  %al
    657f:	83 f0 01             	xor    $0x1,%eax
    6582:	84 c0                	test   %al,%al
    6584:	74 0b                	je     6591 <safe_convert_func_float_to_int32_t+0x44>
    6586:	f3 0f 10 45 fc       	movss  -0x4(%rbp),%xmm0
    658b:	f3 0f 2c c0          	cvttss2si %xmm0,%eax
    658f:	eb 05                	jmp    6596 <safe_convert_func_float_to_int32_t+0x49>
    6591:	b8 ff ff ff 7f       	mov    $0x7fffffff,%eax
    6596:	5d                   	pop    %rbp
    6597:	c3                   	retq   

0000000000006598 <crc32_gentab>:
    6598:	f3 0f 1e fa          	endbr64 
    659c:	55                   	push   %rbp
    659d:	48 89 e5             	mov    %rsp,%rbp
    65a0:	c7 45 fc 20 83 b8 ed 	movl   $0xedb88320,-0x4(%rbp)
    65a7:	c7 45 f4 00 00 00 00 	movl   $0x0,-0xc(%rbp)
    65ae:	eb 51                	jmp    6601 <crc32_gentab+0x69>
    65b0:	8b 45 f4             	mov    -0xc(%rbp),%eax
    65b3:	89 45 f0             	mov    %eax,-0x10(%rbp)
    65b6:	c7 45 f8 08 00 00 00 	movl   $0x8,-0x8(%rbp)
    65bd:	eb 1e                	jmp    65dd <crc32_gentab+0x45>
    65bf:	8b 45 f0             	mov    -0x10(%rbp),%eax
    65c2:	83 e0 01             	and    $0x1,%eax
    65c5:	85 c0                	test   %eax,%eax
    65c7:	74 0d                	je     65d6 <crc32_gentab+0x3e>
    65c9:	8b 45 f0             	mov    -0x10(%rbp),%eax
    65cc:	d1 e8                	shr    %eax
    65ce:	33 45 fc             	xor    -0x4(%rbp),%eax
    65d1:	89 45 f0             	mov    %eax,-0x10(%rbp)
    65d4:	eb 03                	jmp    65d9 <crc32_gentab+0x41>
    65d6:	d1 6d f0             	shrl   -0x10(%rbp)
    65d9:	83 6d f8 01          	subl   $0x1,-0x8(%rbp)
    65dd:	83 7d f8 00          	cmpl   $0x0,-0x8(%rbp)
    65e1:	7f dc                	jg     65bf <crc32_gentab+0x27>
    65e3:	8b 45 f4             	mov    -0xc(%rbp),%eax
    65e6:	48 98                	cltq   
    65e8:	48 8d 0c 85 00 00 00 	lea    0x0(,%rax,4),%rcx
    65ef:	00 
    65f0:	48 8d 15 89 1d 01 00 	lea    0x11d89(%rip),%rdx        # 18380 <crc32_tab>
    65f7:	8b 45 f0             	mov    -0x10(%rbp),%eax
    65fa:	89 04 11             	mov    %eax,(%rcx,%rdx,1)
    65fd:	83 45 f4 01          	addl   $0x1,-0xc(%rbp)
    6601:	81 7d f4 ff 00 00 00 	cmpl   $0xff,-0xc(%rbp)
    6608:	7e a6                	jle    65b0 <crc32_gentab+0x18>
    660a:	90                   	nop
    660b:	90                   	nop
    660c:	5d                   	pop    %rbp
    660d:	c3                   	retq   

000000000000660e <crc32_byte>:
    660e:	f3 0f 1e fa          	endbr64 
    6612:	55                   	push   %rbp
    6613:	48 89 e5             	mov    %rsp,%rbp
    6616:	89 f8                	mov    %edi,%eax
    6618:	88 45 fc             	mov    %al,-0x4(%rbp)
    661b:	8b 05 ff e9 00 00    	mov    0xe9ff(%rip),%eax        # 15020 <crc32_context>
    6621:	c1 e8 08             	shr    $0x8,%eax
    6624:	89 c1                	mov    %eax,%ecx
    6626:	0f b6 55 fc          	movzbl -0x4(%rbp),%edx
    662a:	8b 05 f0 e9 00 00    	mov    0xe9f0(%rip),%eax        # 15020 <crc32_context>
    6630:	31 d0                	xor    %edx,%eax
    6632:	0f b6 c0             	movzbl %al,%eax
    6635:	89 c0                	mov    %eax,%eax
    6637:	48 8d 14 85 00 00 00 	lea    0x0(,%rax,4),%rdx
    663e:	00 
    663f:	48 8d 05 3a 1d 01 00 	lea    0x11d3a(%rip),%rax        # 18380 <crc32_tab>
    6646:	8b 04 02             	mov    (%rdx,%rax,1),%eax
    6649:	31 c8                	xor    %ecx,%eax
    664b:	89 05 cf e9 00 00    	mov    %eax,0xe9cf(%rip)        # 15020 <crc32_context>
    6651:	90                   	nop
    6652:	5d                   	pop    %rbp
    6653:	c3                   	retq   

0000000000006654 <crc32_8bytes>:
    6654:	f3 0f 1e fa          	endbr64 
    6658:	55                   	push   %rbp
    6659:	48 89 e5             	mov    %rsp,%rbp
    665c:	48 83 ec 08          	sub    $0x8,%rsp
    6660:	48 89 7d f8          	mov    %rdi,-0x8(%rbp)
    6664:	48 8b 45 f8          	mov    -0x8(%rbp),%rax
    6668:	0f b6 c0             	movzbl %al,%eax
    666b:	89 c7                	mov    %eax,%edi
    666d:	e8 9c ff ff ff       	callq  660e <crc32_byte>
    6672:	48 8b 45 f8          	mov    -0x8(%rbp),%rax
    6676:	48 c1 e8 08          	shr    $0x8,%rax
    667a:	0f b6 c0             	movzbl %al,%eax
    667d:	89 c7                	mov    %eax,%edi
    667f:	e8 8a ff ff ff       	callq  660e <crc32_byte>
    6684:	48 8b 45 f8          	mov    -0x8(%rbp),%rax
    6688:	48 c1 e8 10          	shr    $0x10,%rax
    668c:	0f b6 c0             	movzbl %al,%eax
    668f:	89 c7                	mov    %eax,%edi
    6691:	e8 78 ff ff ff       	callq  660e <crc32_byte>
    6696:	48 8b 45 f8          	mov    -0x8(%rbp),%rax
    669a:	48 c1 e8 18          	shr    $0x18,%rax
    669e:	0f b6 c0             	movzbl %al,%eax
    66a1:	89 c7                	mov    %eax,%edi
    66a3:	e8 66 ff ff ff       	callq  660e <crc32_byte>
    66a8:	48 8b 45 f8          	mov    -0x8(%rbp),%rax
    66ac:	48 c1 e8 20          	shr    $0x20,%rax
    66b0:	0f b6 c0             	movzbl %al,%eax
    66b3:	89 c7                	mov    %eax,%edi
    66b5:	e8 54 ff ff ff       	callq  660e <crc32_byte>
    66ba:	48 8b 45 f8          	mov    -0x8(%rbp),%rax
    66be:	48 c1 e8 28          	shr    $0x28,%rax
    66c2:	0f b6 c0             	movzbl %al,%eax
    66c5:	89 c7                	mov    %eax,%edi
    66c7:	e8 42 ff ff ff       	callq  660e <crc32_byte>
    66cc:	48 8b 45 f8          	mov    -0x8(%rbp),%rax
    66d0:	48 c1 e8 30          	shr    $0x30,%rax
    66d4:	0f b6 c0             	movzbl %al,%eax
    66d7:	89 c7                	mov    %eax,%edi
    66d9:	e8 30 ff ff ff       	callq  660e <crc32_byte>
    66de:	48 8b 45 f8          	mov    -0x8(%rbp),%rax
    66e2:	48 c1 e8 38          	shr    $0x38,%rax
    66e6:	0f b6 c0             	movzbl %al,%eax
    66e9:	89 c7                	mov    %eax,%edi
    66eb:	e8 1e ff ff ff       	callq  660e <crc32_byte>
    66f0:	90                   	nop
    66f1:	c9                   	leaveq 
    66f2:	c3                   	retq   

00000000000066f3 <transparent_crc>:
    66f3:	f3 0f 1e fa          	endbr64 
    66f7:	55                   	push   %rbp
    66f8:	48 89 e5             	mov    %rsp,%rbp
    66fb:	48 83 ec 20          	sub    $0x20,%rsp
    66ff:	48 89 7d f8          	mov    %rdi,-0x8(%rbp)
    6703:	48 89 75 f0          	mov    %rsi,-0x10(%rbp)
    6707:	89 55 ec             	mov    %edx,-0x14(%rbp)
    670a:	48 8b 45 f8          	mov    -0x8(%rbp),%rax
    670e:	48 89 c7             	mov    %rax,%rdi
    6711:	e8 3e ff ff ff       	callq  6654 <crc32_8bytes>
    6716:	83 7d ec 00          	cmpl   $0x0,-0x14(%rbp)
    671a:	74 22                	je     673e <transparent_crc+0x4b>
    671c:	8b 05 fe e8 00 00    	mov    0xe8fe(%rip),%eax        # 15020 <crc32_context>
    6722:	f7 d0                	not    %eax
    6724:	89 c2                	mov    %eax,%edx
    6726:	48 8b 45 f0          	mov    -0x10(%rbp),%rax
    672a:	48 89 c6             	mov    %rax,%rsi
    672d:	48 8d 3d fc 98 00 00 	lea    0x98fc(%rip),%rdi        # 10030 <_IO_stdin_used+0x30>
    6734:	b8 00 00 00 00       	mov    $0x0,%eax
    6739:	e8 42 e9 ff ff       	callq  5080 <printf@plt>
    673e:	90                   	nop
    673f:	c9                   	leaveq 
    6740:	c3                   	retq   

0000000000006741 <transparent_crc_bytes>:
    6741:	f3 0f 1e fa          	endbr64 
    6745:	55                   	push   %rbp
    6746:	48 89 e5             	mov    %rsp,%rbp
    6749:	48 83 ec 30          	sub    $0x30,%rsp
    674d:	48 89 7d e8          	mov    %rdi,-0x18(%rbp)
    6751:	89 75 e4             	mov    %esi,-0x1c(%rbp)
    6754:	48 89 55 d8          	mov    %rdx,-0x28(%rbp)
    6758:	89 4d e0             	mov    %ecx,-0x20(%rbp)
    675b:	c7 45 fc 00 00 00 00 	movl   $0x0,-0x4(%rbp)
    6762:	eb 1e                	jmp    6782 <transparent_crc_bytes+0x41>
    6764:	8b 45 fc             	mov    -0x4(%rbp),%eax
    6767:	48 63 d0             	movslq %eax,%rdx
    676a:	48 8b 45 e8          	mov    -0x18(%rbp),%rax
    676e:	48 01 d0             	add    %rdx,%rax
    6771:	0f b6 00             	movzbl (%rax),%eax
    6774:	0f b6 c0             	movzbl %al,%eax
    6777:	89 c7                	mov    %eax,%edi
    6779:	e8 90 fe ff ff       	callq  660e <crc32_byte>
    677e:	83 45 fc 01          	addl   $0x1,-0x4(%rbp)
    6782:	8b 45 fc             	mov    -0x4(%rbp),%eax
    6785:	3b 45 e4             	cmp    -0x1c(%rbp),%eax
    6788:	7c da                	jl     6764 <transparent_crc_bytes+0x23>
    678a:	83 7d e0 00          	cmpl   $0x0,-0x20(%rbp)
    678e:	74 22                	je     67b2 <transparent_crc_bytes+0x71>
    6790:	8b 05 8a e8 00 00    	mov    0xe88a(%rip),%eax        # 15020 <crc32_context>
    6796:	f7 d0                	not    %eax
    6798:	89 c2                	mov    %eax,%edx
    679a:	48 8b 45 d8          	mov    -0x28(%rbp),%rax
    679e:	48 89 c6             	mov    %rax,%rsi
    67a1:	48 8d 3d 88 98 00 00 	lea    0x9888(%rip),%rdi        # 10030 <_IO_stdin_used+0x30>
    67a8:	b8 00 00 00 00       	mov    $0x0,%eax
    67ad:	e8 ce e8 ff ff       	callq  5080 <printf@plt>
    67b2:	90                   	nop
    67b3:	c9                   	leaveq 
    67b4:	c3                   	retq   

00000000000067b5 <func_1>:
    67b5:	f3 0f 1e fa          	endbr64 
    67b9:	55                   	push   %rbp
    67ba:	48 89 e5             	mov    %rsp,%rbp
    67bd:	41 57                	push   %r15
    67bf:	41 56                	push   %r14
    67c1:	41 55                	push   %r13
    67c3:	41 54                	push   %r12
    67c5:	53                   	push   %rbx
    67c6:	48 81 ec e8 0a 00 00 	sub    $0xae8,%rsp
    67cd:	64 48 8b 04 25 28 00 	mov    %fs:0x28,%rax
    67d4:	00 00 
    67d6:	48 89 45 c8          	mov    %rax,-0x38(%rbp)
    67da:	31 c0                	xor    %eax,%eax
    67dc:	48 c7 85 58 f5 ff ff 	movq   $0x0,-0xaa8(%rbp)
    67e3:	00 00 00 00 
    67e7:	48 8d 05 02 19 01 00 	lea    0x11902(%rip),%rax        # 180f0 <g_1301>
    67ee:	48 89 85 60 f5 ff ff 	mov    %rax,-0xaa0(%rbp)
    67f5:	c7 85 fc f4 ff ff 01 	movl   $0x1,-0xb04(%rbp)
    67fc:	00 00 00 
    67ff:	c7 85 00 f5 ff ff 05 	movl   $0x5,-0xb00(%rbp)
    6806:	00 00 00 
    6809:	48 8d 05 b8 05 01 00 	lea    0x105b8(%rip),%rax        # 16dc8 <g_1427>
    6810:	48 89 85 a8 f5 ff ff 	mov    %rax,-0xa58(%rbp)
    6817:	c7 85 04 f5 ff ff 63 	movl   $0xc70faf63,-0xafc(%rbp)
    681e:	af 0f c7 
    6821:	c7 85 28 f5 ff ff 00 	movl   $0x0,-0xad8(%rbp)
    6828:	00 00 00 
    682b:	c6 85 f3 f4 ff ff 08 	movb   $0x8,-0xb0d(%rbp)
    6832:	c7 85 2c f5 ff ff 94 	movl   $0xf0aa8f94,-0xad4(%rbp)
    6839:	8f aa f0 
    683c:	48 8d 85 80 f8 ff ff 	lea    -0x780(%rbp),%rax
    6843:	48 8d 15 56 98 00 00 	lea    0x9856(%rip),%rdx        # 100a0 <g_905+0x10>
    684a:	b9 69 00 00 00       	mov    $0x69,%ecx
    684f:	48 89 c7             	mov    %rax,%rdi
    6852:	48 89 d6             	mov    %rdx,%rsi
    6855:	f3 48 a5             	rep movsq %ds:(%rsi),%es:(%rdi)
    6858:	48 8d 05 51 15 01 00 	lea    0x11551(%rip),%rax        # 17db0 <g_141>
    685f:	48 89 85 b0 f5 ff ff 	mov    %rax,-0xa50(%rbp)
    6866:	48 c7 85 b8 f5 ff ff 	movq   $0x0,-0xa48(%rbp)
    686d:	00 00 00 00 
    6871:	48 c7 85 d0 f6 ff ff 	movq   $0x0,-0x930(%rbp)
    6878:	00 00 00 00 
    687c:	48 c7 85 d8 f6 ff ff 	movq   $0x0,-0x928(%rbp)
    6883:	00 00 00 00 
    6887:	48 c7 85 e0 f6 ff ff 	movq   $0x0,-0x920(%rbp)
    688e:	00 00 00 00 
    6892:	48 c7 85 e8 f6 ff ff 	movq   $0x0,-0x918(%rbp)
    6899:	00 00 00 00 
    689d:	48 c7 85 f0 f6 ff ff 	movq   $0x0,-0x910(%rbp)
    68a4:	00 00 00 00 
    68a8:	c7 85 30 f5 ff ff 00 	movl   $0x0,-0xad0(%rbp)
    68af:	00 00 00 
    68b2:	c7 05 6c e7 00 00 00 	movl   $0x0,0xe76c(%rip)        # 15028 <g_3>
    68b9:	00 00 00 
    68bc:	e9 13 0e 00 00       	jmpq   76d4 <func_1+0xf1f>
    68c1:	48 c7 85 68 f5 ff ff 	movq   $0x0,-0xa98(%rbp)
    68c8:	00 00 00 00 
    68cc:	48 8d 85 68 f5 ff ff 	lea    -0xa98(%rbp),%rax
    68d3:	48 89 85 70 f5 ff ff 	mov    %rax,-0xa90(%rbp)
    68da:	48 8d 05 77 15 01 00 	lea    0x11577(%rip),%rax        # 17e58 <g_456>
    68e1:	48 89 85 78 f5 ff ff 	mov    %rax,-0xa88(%rbp)
    68e8:	66 c7 85 f6 f4 ff ff 	movw   $0xfff9,-0xb0a(%rbp)
    68ef:	f9 ff 
    68f1:	48 8d 05 98 e7 00 00 	lea    0xe798(%rip),%rax        # 15090 <g_64>
    68f8:	48 89 85 30 f7 ff ff 	mov    %rax,-0x8d0(%rbp)
    68ff:	48 8d 05 8a e7 00 00 	lea    0xe78a(%rip),%rax        # 15090 <g_64>
    6906:	48 89 85 38 f7 ff ff 	mov    %rax,-0x8c8(%rbp)
    690d:	48 8d 05 84 e7 00 00 	lea    0xe784(%rip),%rax        # 15098 <g_64+0x8>
    6914:	48 89 85 40 f7 ff ff 	mov    %rax,-0x8c0(%rbp)
    691b:	48 8d 05 6e e7 00 00 	lea    0xe76e(%rip),%rax        # 15090 <g_64>
    6922:	48 89 85 48 f7 ff ff 	mov    %rax,-0x8b8(%rbp)
    6929:	48 8d 05 60 e7 00 00 	lea    0xe760(%rip),%rax        # 15090 <g_64>
    6930:	48 89 85 50 f7 ff ff 	mov    %rax,-0x8b0(%rbp)
    6937:	48 8d 05 5a e7 00 00 	lea    0xe75a(%rip),%rax        # 15098 <g_64+0x8>
    693e:	48 89 85 58 f7 ff ff 	mov    %rax,-0x8a8(%rbp)
    6945:	48 8d 05 44 e7 00 00 	lea    0xe744(%rip),%rax        # 15090 <g_64>
    694c:	48 89 85 60 f7 ff ff 	mov    %rax,-0x8a0(%rbp)
    6953:	48 8d 05 36 e7 00 00 	lea    0xe736(%rip),%rax        # 15090 <g_64>
    695a:	48 89 85 68 f7 ff ff 	mov    %rax,-0x898(%rbp)
    6961:	48 8d 05 30 e7 00 00 	lea    0xe730(%rip),%rax        # 15098 <g_64+0x8>
    6968:	48 89 85 70 f7 ff ff 	mov    %rax,-0x890(%rbp)
    696f:	48 8d 05 1a e7 00 00 	lea    0xe71a(%rip),%rax        # 15090 <g_64>
    6976:	48 89 85 78 f7 ff ff 	mov    %rax,-0x888(%rbp)
    697d:	48 c7 85 c0 f5 ff ff 	movq   $0x0,-0xa40(%rbp)
    6984:	00 00 00 00 
    6988:	48 c7 85 98 f5 ff ff 	movq   $0xffffffffffffffff,-0xa68(%rbp)
    698f:	ff ff ff ff 
    6993:	48 8d 85 70 f5 ff ff 	lea    -0xa90(%rbp),%rax
    699a:	48 89 85 80 f5 ff ff 	mov    %rax,-0xa80(%rbp)
    69a1:	48 c7 85 c8 f5 ff ff 	movq   $0x0,-0xa38(%rbp)
    69a8:	00 00 00 00 
    69ac:	c6 85 f4 f4 ff ff 04 	movb   $0x4,-0xb0c(%rbp)
    69b3:	c7 85 34 f5 ff ff ff 	movl   $0xffffffff,-0xacc(%rbp)
    69ba:	ff ff ff 
    69bd:	c7 85 38 f5 ff ff 94 	movl   $0x3d503494,-0xac8(%rbp)
    69c4:	34 50 3d 
    69c7:	c6 85 f5 f4 ff ff fe 	movb   $0xfe,-0xb0b(%rbp)
    69ce:	c7 85 10 f5 ff ff 00 	movl   $0x0,-0xaf0(%rbp)
    69d5:	00 00 00 
    69d8:	eb 1a                	jmp    69f4 <func_1+0x23f>
    69da:	8b 85 10 f5 ff ff    	mov    -0xaf0(%rbp),%eax
    69e0:	48 98                	cltq   
    69e2:	c7 84 85 8c f6 ff ff 	movl   $0x0,-0x974(%rbp,%rax,4)
    69e9:	00 00 00 00 
    69ed:	83 85 10 f5 ff ff 01 	addl   $0x1,-0xaf0(%rbp)
    69f4:	83 bd 10 f5 ff ff 00 	cmpl   $0x0,-0xaf0(%rbp)
    69fb:	7e dd                	jle    69da <func_1+0x225>
    69fd:	c7 85 10 f5 ff ff 00 	movl   $0x0,-0xaf0(%rbp)
    6a04:	00 00 00 
    6a07:	eb 1e                	jmp    6a27 <func_1+0x272>
    6a09:	8b 85 10 f5 ff ff    	mov    -0xaf0(%rbp),%eax
    6a0f:	48 98                	cltq   
    6a11:	48 8d 95 80 f5 ff ff 	lea    -0xa80(%rbp),%rdx
    6a18:	48 89 94 c5 00 f7 ff 	mov    %rdx,-0x900(%rbp,%rax,8)
    6a1f:	ff 
    6a20:	83 85 10 f5 ff ff 01 	addl   $0x1,-0xaf0(%rbp)
    6a27:	83 bd 10 f5 ff ff 05 	cmpl   $0x5,-0xaf0(%rbp)
    6a2e:	7e d9                	jle    6a09 <func_1+0x254>
    6a30:	48 8b 85 70 f5 ff ff 	mov    -0xa90(%rbp),%rax
    6a37:	48 c7 00 00 00 00 00 	movq   $0x0,(%rax)
    6a3e:	48 8b 05 63 13 01 00 	mov    0x11363(%rip),%rax        # 17da8 <g_10>
    6a45:	48 89 c7             	mov    %rax,%rdi
    6a48:	e8 7e 0d 00 00       	callq  77cb <func_8>
    6a4d:	85 c0                	test   %eax,%eax
    6a4f:	0f 84 6d 06 00 00    	je     70c2 <func_1+0x90d>
    6a55:	c7 85 4c f5 ff ff 00 	movl   $0x0,-0xab4(%rbp)
    6a5c:	00 00 00 
    6a5f:	48 c7 85 90 f5 ff ff 	movq   $0x0,-0xa70(%rbp)
    6a66:	00 00 00 00 
    6a6a:	48 8d 85 90 f5 ff ff 	lea    -0xa70(%rbp),%rax
    6a71:	48 89 85 38 f6 ff ff 	mov    %rax,-0x9c8(%rbp)
    6a78:	48 c7 85 40 f6 ff ff 	movq   $0x0,-0x9c0(%rbp)
    6a7f:	00 00 00 00 
    6a83:	48 8d 85 60 f5 ff ff 	lea    -0xaa0(%rbp),%rax
    6a8a:	48 89 85 48 f6 ff ff 	mov    %rax,-0x9b8(%rbp)
    6a91:	c7 85 14 f5 ff ff fe 	movl   $0xfffffffe,-0xaec(%rbp)
    6a98:	ff ff ff 
    6a9b:	48 c7 85 50 f6 ff ff 	movq   $0x0,-0x9b0(%rbp)
    6aa2:	00 00 00 00 
    6aa6:	c7 85 18 f5 ff ff 00 	movl   $0x0,-0xae8(%rbp)
    6aad:	00 00 00 
    6ab0:	eb 1e                	jmp    6ad0 <func_1+0x31b>
    6ab2:	8b 85 18 f5 ff ff    	mov    -0xae8(%rbp),%eax
    6ab8:	48 98                	cltq   
    6aba:	48 8d 15 57 f0 00 00 	lea    0xf057(%rip),%rdx        # 15b18 <g_126>
    6ac1:	48 89 94 c5 80 f7 ff 	mov    %rdx,-0x880(%rbp,%rax,8)
    6ac8:	ff 
    6ac9:	83 85 18 f5 ff ff 01 	addl   $0x1,-0xae8(%rbp)
    6ad0:	83 bd 18 f5 ff ff 09 	cmpl   $0x9,-0xae8(%rbp)
    6ad7:	7e d9                	jle    6ab2 <func_1+0x2fd>
    6ad9:	48 8b 85 58 f5 ff ff 	mov    -0xaa8(%rbp),%rax
    6ae0:	49 89 c6             	mov    %rax,%r14
    6ae3:	48 8b 05 e6 12 01 00 	mov    0x112e6(%rip),%rax        # 17dd0 <g_180>
    6aea:	48 8b 85 58 f5 ff ff 	mov    -0xaa8(%rbp),%rax
    6af1:	41 89 c7             	mov    %eax,%r15d
    6af4:	48 8b 85 58 f5 ff ff 	mov    -0xaa8(%rbp),%rax
    6afb:	89 85 fc f4 ff ff    	mov    %eax,-0xb04(%rbp)
    6b01:	8b 85 fc f4 ff ff    	mov    -0xb04(%rbp),%eax
    6b07:	85 c0                	test   %eax,%eax
    6b09:	74 07                	je     6b12 <func_1+0x35d>
    6b0b:	b8 01 00 00 00       	mov    $0x1,%eax
    6b10:	eb 05                	jmp    6b17 <func_1+0x362>
    6b12:	b8 00 00 00 00       	mov    $0x0,%eax
    6b17:	48 63 d0             	movslq %eax,%rdx
    6b1a:	48 8b 85 58 f5 ff ff 	mov    -0xaa8(%rbp),%rax
    6b21:	48 39 c2             	cmp    %rax,%rdx
    6b24:	0f 9f c0             	setg   %al
    6b27:	0f b6 d8             	movzbl %al,%ebx
    6b2a:	48 8b 85 38 f6 ff ff 	mov    -0x9c8(%rbp),%rax
    6b31:	48 c7 00 00 00 00 00 	movq   $0x0,(%rax)
    6b38:	48 8b 95 60 f5 ff ff 	mov    -0xaa0(%rbp),%rdx
    6b3f:	48 8b 85 48 f6 ff ff 	mov    -0x9b8(%rbp),%rax
    6b46:	48 89 10             	mov    %rdx,(%rax)
    6b49:	48 8b 85 48 f6 ff ff 	mov    -0x9b8(%rbp),%rax
    6b50:	48 8b 00             	mov    (%rax),%rax
    6b53:	48 85 c0             	test   %rax,%rax
    6b56:	0f 95 c0             	setne  %al
    6b59:	44 0f b6 e0          	movzbl %al,%r12d
    6b5d:	48 8b 05 7c 15 01 00 	mov    0x1157c(%rip),%rax        # 180e0 <g_1270>
    6b64:	0f b6 00             	movzbl (%rax),%eax
    6b67:	89 c2                	mov    %eax,%edx
    6b69:	8b 85 4c f5 ff ff    	mov    -0xab4(%rbp),%eax
    6b6f:	21 c2                	and    %eax,%edx
    6b71:	48 8b 05 68 15 01 00 	mov    0x11568(%rip),%rax        # 180e0 <g_1270>
    6b78:	88 10                	mov    %dl,(%rax)
    6b7a:	0f b6 00             	movzbl (%rax),%eax
    6b7d:	44 0f be e8          	movsbl %al,%r13d
    6b81:	48 8b 85 58 f5 ff ff 	mov    -0xaa8(%rbp),%rax
    6b88:	0f b7 c0             	movzwl %ax,%eax
    6b8b:	be 0e 00 00 00       	mov    $0xe,%esi
    6b90:	89 c7                	mov    %eax,%edi
    6b92:	e8 27 f2 ff ff       	callq  5dbe <safe_lshift_func_uint16_t_u_s>
    6b97:	0f b6 c0             	movzbl %al,%eax
    6b9a:	44 89 ee             	mov    %r13d,%esi
    6b9d:	89 c7                	mov    %eax,%edi
    6b9f:	e8 e9 f0 ff ff       	callq  5c8d <safe_rshift_func_uint8_t_u_s>
    6ba4:	0f b6 c0             	movzbl %al,%eax
    6ba7:	89 c6                	mov    %eax,%esi
    6ba9:	bf 00 00 00 00       	mov    $0x0,%edi
    6bae:	e8 8a f1 ff ff       	callq  5d3d <safe_mul_func_uint16_t_u_u>
    6bb3:	0f b7 c0             	movzwl %ax,%eax
    6bb6:	4c 89 e6             	mov    %r12,%rsi
    6bb9:	48 89 c7             	mov    %rax,%rdi
    6bbc:	e8 80 ec ff ff       	callq  5841 <safe_add_func_int64_t_s_s>
    6bc1:	48 89 c2             	mov    %rax,%rdx
    6bc4:	48 8b 05 b5 13 01 00 	mov    0x113b5(%rip),%rax        # 17f80 <g_1082>
    6bcb:	66 89 10             	mov    %dx,(%rax)
    6bce:	0f b7 00             	movzwl (%rax),%eax
    6bd1:	0f b7 c0             	movzwl %ax,%eax
    6bd4:	89 de                	mov    %ebx,%esi
    6bd6:	89 c7                	mov    %eax,%edi
    6bd8:	e8 6b f2 ff ff       	callq  5e48 <safe_rshift_func_uint16_t_u_s>
    6bdd:	0f b7 c0             	movzwl %ax,%eax
    6be0:	89 c6                	mov    %eax,%esi
    6be2:	bf 00 00 00 00       	mov    $0x0,%edi
    6be7:	e8 d2 f1 ff ff       	callq  5dbe <safe_lshift_func_uint16_t_u_s>
    6bec:	0f b7 d0             	movzwl %ax,%edx
    6bef:	48 8b 85 58 f5 ff ff 	mov    -0xaa8(%rbp),%rax
    6bf6:	48 39 c2             	cmp    %rax,%rdx
    6bf9:	0f 9c c0             	setl   %al
    6bfc:	0f b6 c0             	movzbl %al,%eax
    6bff:	44 89 fe             	mov    %r15d,%esi
    6c02:	89 c7                	mov    %eax,%edi
    6c04:	e8 2c e7 ff ff       	callq  5335 <safe_rshift_func_int8_t_s_s>
    6c09:	48 0f be d0          	movsbq %al,%rdx
    6c0d:	48 8b 85 58 f5 ff ff 	mov    -0xaa8(%rbp),%rax
    6c14:	48 39 c2             	cmp    %rax,%rdx
    6c17:	0f 9f c0             	setg   %al
    6c1a:	0f b6 c0             	movzbl %al,%eax
    6c1d:	09 85 14 f5 ff ff    	or     %eax,-0xaec(%rbp)
    6c23:	48 8b 05 86 11 01 00 	mov    0x11186(%rip),%rax        # 17db0 <g_141>
    6c2a:	48 8b 00             	mov    (%rax),%rax
    6c2d:	48 85 c0             	test   %rax,%rax
    6c30:	74 11                	je     6c43 <func_1+0x48e>
    6c32:	8b 85 fc f4 ff ff    	mov    -0xb04(%rbp),%eax
    6c38:	85 c0                	test   %eax,%eax
    6c3a:	74 07                	je     6c43 <func_1+0x48e>
    6c3c:	b8 01 00 00 00       	mov    $0x1,%eax
    6c41:	eb 05                	jmp    6c48 <func_1+0x493>
    6c43:	b8 00 00 00 00       	mov    $0x0,%eax
    6c48:	48 98                	cltq   
    6c4a:	4c 89 f6             	mov    %r14,%rsi
    6c4d:	48 89 c7             	mov    %rax,%rdi
    6c50:	e8 5a f4 ff ff       	callq  60af <safe_div_func_uint64_t_u_u>
    6c55:	8b 95 4c f5 ff ff    	mov    -0xab4(%rbp),%edx
    6c5b:	48 31 d0             	xor    %rdx,%rax
    6c5e:	48 83 f8 ff          	cmp    $0xffffffffffffffff,%rax
    6c62:	0f 84 08 04 00 00    	je     7070 <func_1+0x8bb>
    6c68:	66 c7 85 fa f4 ff ff 	movw   $0xffff,-0xb06(%rbp)
    6c6f:	ff ff 
    6c71:	c7 85 50 f5 ff ff b5 	movl   $0xd7eee8b5,-0xab0(%rbp)
    6c78:	e8 ee d7 
    6c7b:	48 8d 85 d0 fb ff ff 	lea    -0x430(%rbp),%rax
    6c82:	48 8d 15 77 97 00 00 	lea    0x9777(%rip),%rdx        # 10400 <g_905+0x370>
    6c89:	b9 46 00 00 00       	mov    $0x46,%ecx
    6c8e:	48 89 c7             	mov    %rax,%rdi
    6c91:	48 89 d6             	mov    %rdx,%rsi
    6c94:	f3 48 a5             	rep movsq %ds:(%rsi),%es:(%rdi)
    6c97:	0f b7 9d fa f4 ff ff 	movzwl -0xb06(%rbp),%ebx
    6c9e:	be 03 00 00 00       	mov    $0x3,%esi
    6ca3:	bf ff ff ff ff       	mov    $0xffffffff,%edi
    6ca8:	e8 bf e6 ff ff       	callq  536c <safe_rshift_func_int8_t_s_u>
    6cad:	66 98                	cbtw   
    6caf:	0f b7 d0             	movzwl %ax,%edx
    6cb2:	0f b7 85 fa f4 ff ff 	movzwl -0xb06(%rbp),%eax
    6cb9:	89 d6                	mov    %edx,%esi
    6cbb:	89 c7                	mov    %eax,%edi
    6cbd:	e8 cc f0 ff ff       	callq  5d8e <safe_div_func_uint16_t_u_u>
    6cc2:	0f b7 c0             	movzwl %ax,%eax
    6cc5:	89 de                	mov    %ebx,%esi
    6cc7:	89 c7                	mov    %eax,%edi
    6cc9:	e8 7a f1 ff ff       	callq  5e48 <safe_rshift_func_uint16_t_u_s>
    6cce:	0f b7 c0             	movzwl %ax,%eax
    6cd1:	89 85 fc f4 ff ff    	mov    %eax,-0xb04(%rbp)
    6cd7:	48 8b 05 c2 10 01 00 	mov    0x110c2(%rip),%rax        # 17da0 <g_11>
    6cde:	8b 00                	mov    (%rax),%eax
    6ce0:	85 c0                	test   %eax,%eax
    6ce2:	0f 85 fd 09 00 00    	jne    76e5 <func_1+0xf30>
    6ce8:	48 8b 85 58 f5 ff ff 	mov    -0xaa8(%rbp),%rax
    6cef:	21 85 50 f5 ff ff    	and    %eax,-0xab0(%rbp)
    6cf5:	8b 85 50 f5 ff ff    	mov    -0xab0(%rbp),%eax
    6cfb:	89 85 a8 fd ff ff    	mov    %eax,-0x258(%rbp)
    6d01:	48 8b 85 78 f5 ff ff 	mov    -0xa88(%rbp),%rax
    6d08:	48 39 85 50 f6 ff ff 	cmp    %rax,-0x9b0(%rbp)
    6d0f:	0f 95 c0             	setne  %al
    6d12:	0f b6 c0             	movzbl %al,%eax
    6d15:	89 c6                	mov    %eax,%esi
    6d17:	bf fb ff ff ff       	mov    $0xfffffffb,%edi
    6d1c:	e8 af f1 ff ff       	callq  5ed0 <safe_sub_func_uint32_t_u_u>
    6d21:	48 8b 05 b8 13 01 00 	mov    0x113b8(%rip),%rax        # 180e0 <g_1270>
    6d28:	0f b6 00             	movzbl (%rax),%eax
    6d2b:	84 c0                	test   %al,%al
    6d2d:	0f 9f c0             	setg   %al
    6d30:	0f b6 c0             	movzbl %al,%eax
    6d33:	21 85 14 f5 ff ff    	and    %eax,-0xaec(%rbp)
    6d39:	48 8b 05 68 10 01 00 	mov    0x11068(%rip),%rax        # 17da8 <g_10>
    6d40:	48 8b 00             	mov    (%rax),%rax
    6d43:	8b 00                	mov    (%rax),%eax
    6d45:	85 c0                	test   %eax,%eax
    6d47:	0f 84 bf 02 00 00    	je     700c <func_1+0x857>
    6d4d:	48 8d 85 78 f5 ff ff 	lea    -0xa88(%rbp),%rax
    6d54:	48 89 85 68 f6 ff ff 	mov    %rax,-0x998(%rbp)
    6d5b:	48 8d 05 36 e3 00 00 	lea    0xe336(%rip),%rax        # 15098 <g_64+0x8>
    6d62:	48 89 85 70 f6 ff ff 	mov    %rax,-0x990(%rbp)
    6d69:	48 8d 05 9c e6 00 00 	lea    0xe69c(%rip),%rax        # 1540c <g_100>
    6d70:	48 89 85 78 f6 ff ff 	mov    %rax,-0x988(%rbp)
    6d77:	c7 85 54 f5 ff ff 9f 	movl   $0x6a63909f,-0xaac(%rbp)
    6d7e:	90 63 6a 
    6d81:	c7 85 d0 f7 ff ff 19 	movl   $0xdfd9e919,-0x830(%rbp)
    6d88:	e9 d9 df 
    6d8b:	c7 85 d4 f7 ff ff 1c 	movl   $0xb967fc1c,-0x82c(%rbp)
    6d92:	fc 67 b9 
    6d95:	c7 85 d8 f7 ff ff ff 	movl   $0xffffffff,-0x828(%rbp)
    6d9c:	ff ff ff 
    6d9f:	c7 85 dc f7 ff ff 00 	movl   $0x0,-0x824(%rbp)
    6da6:	00 00 00 
    6da9:	c7 85 e0 f7 ff ff 01 	movl   $0x1,-0x820(%rbp)
    6db0:	00 00 00 
    6db3:	c7 85 e4 f7 ff ff 1c 	movl   $0xb967fc1c,-0x81c(%rbp)
    6dba:	fc 67 b9 
    6dbd:	c7 85 e8 f7 ff ff ff 	movl   $0xffffffff,-0x818(%rbp)
    6dc4:	ff ff ff 
    6dc7:	c7 85 ec f7 ff ff ff 	movl   $0xffffffff,-0x814(%rbp)
    6dce:	ff ff ff 
    6dd1:	c7 85 f0 f7 ff ff 19 	movl   $0xdfd9e919,-0x810(%rbp)
    6dd8:	e9 d9 df 
    6ddb:	c7 85 f4 f7 ff ff 24 	movl   $0xecaeb324,-0x80c(%rbp)
    6de2:	b3 ae ec 
    6de5:	c7 85 f8 f7 ff ff ff 	movl   $0xffffffff,-0x808(%rbp)
    6dec:	ff ff ff 
    6def:	c7 85 fc f7 ff ff 19 	movl   $0xdfd9e919,-0x804(%rbp)
    6df6:	e9 d9 df 
    6df9:	c7 85 00 f8 ff ff ff 	movl   $0xffffffff,-0x800(%rbp)
    6e00:	ff ff ff 
    6e03:	c7 85 04 f8 ff ff e2 	movl   $0xc528e9e2,-0x7fc(%rbp)
    6e0a:	e9 28 c5 
    6e0d:	c7 85 08 f8 ff ff 1c 	movl   $0xb967fc1c,-0x7f8(%rbp)
    6e14:	fc 67 b9 
    6e17:	c7 85 0c f8 ff ff 24 	movl   $0xecaeb324,-0x7f4(%rbp)
    6e1e:	b3 ae ec 
    6e21:	c7 85 10 f8 ff ff e2 	movl   $0xc528e9e2,-0x7f0(%rbp)
    6e28:	e9 28 c5 
    6e2b:	c7 85 14 f8 ff ff 73 	movl   $0x85353d73,-0x7ec(%rbp)
    6e32:	3d 35 85 
    6e35:	c7 85 18 f8 ff ff ff 	movl   $0xffffffff,-0x7e8(%rbp)
    6e3c:	ff ff ff 
    6e3f:	c7 85 1c f8 ff ff ff 	movl   $0xffffffff,-0x7e4(%rbp)
    6e46:	ff ff ff 
    6e49:	c7 85 20 f8 ff ff 1c 	movl   $0xb967fc1c,-0x7e0(%rbp)
    6e50:	fc 67 b9 
    6e53:	c7 85 24 f8 ff ff ff 	movl   $0xffffffff,-0x7dc(%rbp)
    6e5a:	ff ff ff 
    6e5d:	c7 85 28 f8 ff ff ff 	movl   $0xffffffff,-0x7d8(%rbp)
    6e64:	ff ff ff 
    6e67:	c7 85 2c f8 ff ff 19 	movl   $0xdfd9e919,-0x7d4(%rbp)
    6e6e:	e9 d9 df 
    6e71:	c7 85 30 f8 ff ff 24 	movl   $0xecaeb324,-0x7d0(%rbp)
    6e78:	b3 ae ec 
    6e7b:	c7 85 34 f8 ff ff ff 	movl   $0xffffffff,-0x7cc(%rbp)
    6e82:	ff ff ff 
    6e85:	c7 85 38 f8 ff ff 19 	movl   $0xdfd9e919,-0x7c8(%rbp)
    6e8c:	e9 d9 df 
    6e8f:	c7 85 3c f8 ff ff ff 	movl   $0xffffffff,-0x7c4(%rbp)
    6e96:	ff ff ff 
    6e99:	c7 85 40 f8 ff ff e2 	movl   $0xc528e9e2,-0x7c0(%rbp)
    6ea0:	e9 28 c5 
    6ea3:	c7 85 44 f8 ff ff 1c 	movl   $0xb967fc1c,-0x7bc(%rbp)
    6eaa:	fc 67 b9 
    6ead:	c7 85 48 f8 ff ff 24 	movl   $0xecaeb324,-0x7b8(%rbp)
    6eb4:	b3 ae ec 
    6eb7:	c7 85 4c f8 ff ff e2 	movl   $0xc528e9e2,-0x7b4(%rbp)
    6ebe:	e9 28 c5 
    6ec1:	c7 85 50 f8 ff ff 73 	movl   $0x85353d73,-0x7b0(%rbp)
    6ec8:	3d 35 85 
    6ecb:	c7 85 54 f8 ff ff ff 	movl   $0xffffffff,-0x7ac(%rbp)
    6ed2:	ff ff ff 
    6ed5:	c7 85 58 f8 ff ff ff 	movl   $0xffffffff,-0x7a8(%rbp)
    6edc:	ff ff ff 
    6edf:	c7 85 5c f8 ff ff 1c 	movl   $0xb967fc1c,-0x7a4(%rbp)
    6ee6:	fc 67 b9 
    6ee9:	c7 85 60 f8 ff ff ff 	movl   $0xffffffff,-0x7a0(%rbp)
    6ef0:	ff ff ff 
    6ef3:	c7 85 64 f8 ff ff ff 	movl   $0xffffffff,-0x79c(%rbp)
    6efa:	ff ff ff 
    6efd:	c7 85 68 f8 ff ff 19 	movl   $0xdfd9e919,-0x798(%rbp)
    6f04:	e9 d9 df 
    6f07:	c7 85 6c f8 ff ff 24 	movl   $0xecaeb324,-0x794(%rbp)
    6f0e:	b3 ae ec 
    6f11:	c7 85 70 f8 ff ff ff 	movl   $0xffffffff,-0x790(%rbp)
    6f18:	ff ff ff 
    6f1b:	c7 85 74 f8 ff ff 19 	movl   $0xdfd9e919,-0x78c(%rbp)
    6f22:	e9 d9 df 
    6f25:	48 8d 85 fc f4 ff ff 	lea    -0xb04(%rbp),%rax
    6f2c:	48 89 85 80 f6 ff ff 	mov    %rax,-0x980(%rbp)
    6f33:	48 8b 85 68 f6 ff ff 	mov    -0x998(%rbp),%rax
    6f3a:	48 8d 15 17 0f 01 00 	lea    0x10f17(%rip),%rdx        # 17e58 <g_456>
    6f41:	48 89 10             	mov    %rdx,(%rax)
    6f44:	0f b6 05 2d 19 01 00 	movzbl 0x1192d(%rip),%eax        # 18878 <g_1560>
    6f4b:	84 c0                	test   %al,%al
    6f4d:	0f 85 87 00 00 00    	jne    6fda <func_1+0x825>
    6f53:	8b 85 a8 fd ff ff    	mov    -0x258(%rbp),%eax
    6f59:	89 c6                	mov    %eax,%esi
    6f5b:	8b 95 4c f5 ff ff    	mov    -0xab4(%rbp),%edx
    6f61:	48 8b 85 70 f6 ff ff 	mov    -0x990(%rbp),%rax
    6f68:	48 89 10             	mov    %rdx,(%rax)
    6f6b:	48 8b 85 70 f6 ff ff 	mov    -0x990(%rbp),%rax
    6f72:	48 8b 10             	mov    (%rax),%rdx
    6f75:	48 8b 85 68 f6 ff ff 	mov    -0x998(%rbp),%rax
    6f7c:	48 8b 00             	mov    (%rax),%rax
    6f7f:	48 8b 08             	mov    (%rax),%rcx
    6f82:	48 8b 85 78 f5 ff ff 	mov    -0xa88(%rbp),%rax
    6f89:	48 8b 00             	mov    (%rax),%rax
    6f8c:	48 39 c1             	cmp    %rax,%rcx
    6f8f:	0f 95 c0             	setne  %al
    6f92:	0f b6 c0             	movzbl %al,%eax
    6f95:	48 39 c2             	cmp    %rax,%rdx
    6f98:	0f 92 c0             	setb   %al
    6f9b:	89 c2                	mov    %eax,%edx
    6f9d:	48 8b 85 78 f6 ff ff 	mov    -0x988(%rbp),%rax
    6fa4:	88 10                	mov    %dl,(%rax)
    6fa6:	48 8b 05 03 0e 01 00 	mov    0x10e03(%rip),%rax        # 17db0 <g_141>
    6fad:	48 c7 00 00 00 00 00 	movq   $0x0,(%rax)
    6fb4:	bf 01 00 00 00       	mov    $0x1,%edi
    6fb9:	e8 ae e3 ff ff       	callq  536c <safe_rshift_func_int8_t_s_u>
    6fbe:	0f be c0             	movsbl %al,%eax
    6fc1:	89 85 54 f5 ff ff    	mov    %eax,-0xaac(%rbp)
    6fc7:	83 bd 54 f5 ff ff 00 	cmpl   $0x0,-0xaac(%rbp)
    6fce:	75 0a                	jne    6fda <func_1+0x825>
    6fd0:	8b 85 e0 f7 ff ff    	mov    -0x820(%rbp),%eax
    6fd6:	85 c0                	test   %eax,%eax
    6fd8:	74 07                	je     6fe1 <func_1+0x82c>
    6fda:	b8 01 00 00 00       	mov    $0x1,%eax
    6fdf:	eb 05                	jmp    6fe6 <func_1+0x831>
    6fe1:	b8 00 00 00 00       	mov    $0x0,%eax
    6fe6:	83 f8 fd             	cmp    $0xfffffffd,%eax
    6fe9:	0f 9d c0             	setge  %al
    6fec:	0f b6 d0             	movzbl %al,%edx
    6fef:	48 8b 85 80 f6 ff ff 	mov    -0x980(%rbp),%rax
    6ff6:	89 10                	mov    %edx,(%rax)
    6ff8:	48 8b 85 80 f6 ff ff 	mov    -0x980(%rbp),%rax
    6fff:	8b 00                	mov    (%rax),%eax
    7001:	89 85 00 f5 ff ff    	mov    %eax,-0xb00(%rbp)
    7007:	e9 a5 00 00 00       	jmpq   70b1 <func_1+0x8fc>
    700c:	48 8d 05 5d e0 00 00 	lea    0xe05d(%rip),%rax        # 15070 <g_29>
    7013:	48 89 85 60 f6 ff ff 	mov    %rax,-0x9a0(%rbp)
    701a:	66 83 bd fa f4 ff ff 	cmpw   $0x0,-0xb06(%rbp)
    7021:	00 
    7022:	0f 85 c0 06 00 00    	jne    76e8 <func_1+0xf33>
    7028:	48 8b 85 60 f6 ff ff 	mov    -0x9a0(%rbp),%rax
    702f:	8b 10                	mov    (%rax),%edx
    7031:	48 8b 85 58 f5 ff ff 	mov    -0xaa8(%rbp),%rax
    7038:	48 3d fe 00 00 00    	cmp    $0xfe,%rax
    703e:	0f 96 c0             	setbe  %al
    7041:	0f b6 c0             	movzbl %al,%eax
    7044:	09 c2                	or     %eax,%edx
    7046:	48 8b 85 60 f6 ff ff 	mov    -0x9a0(%rbp),%rax
    704d:	89 10                	mov    %edx,(%rax)
    704f:	c7 05 6f fd 00 00 00 	movl   $0x0,0xfd6f(%rip)        # 16dc8 <g_1427>
    7056:	00 00 00 
    7059:	90                   	nop
    705a:	8b 05 68 fd 00 00    	mov    0xfd68(%rip),%eax        # 16dc8 <g_1427>
    7060:	85 c0                	test   %eax,%eax
    7062:	78 4d                	js     70b1 <func_1+0x8fc>
    7064:	48 8b 05 65 fd 00 00 	mov    0xfd65(%rip),%rax        # 16dd0 <g_1575>
    706b:	e9 35 07 00 00       	jmpq   77a5 <func_1+0xff0>
    7070:	48 8d 05 09 f7 00 00 	lea    0xf709(%rip),%rax        # 16780 <g_490>
    7077:	48 89 85 58 f6 ff ff 	mov    %rax,-0x9a8(%rbp)
    707e:	48 8b 05 4b 0d 01 00 	mov    0x10d4b(%rip),%rax        # 17dd0 <g_180>
    7085:	8b 00                	mov    (%rax),%eax
    7087:	85 c0                	test   %eax,%eax
    7089:	0f 85 5c 06 00 00    	jne    76eb <func_1+0xf36>
    708f:	48 8b 15 2a 0d 01 00 	mov    0x10d2a(%rip),%rdx        # 17dc0 <g_148>
    7096:	48 8b 05 23 0d 01 00 	mov    0x10d23(%rip),%rax        # 17dc0 <g_148>
    709d:	48 8b 12             	mov    (%rdx),%rdx
    70a0:	48 89 10             	mov    %rdx,(%rax)
    70a3:	48 8b 85 58 f6 ff ff 	mov    -0x9a8(%rbp),%rax
    70aa:	48 89 85 a8 f5 ff ff 	mov    %rax,-0xa58(%rbp)
    70b1:	8b 85 14 f5 ff ff    	mov    -0xaec(%rbp),%eax
    70b7:	89 85 8c f6 ff ff    	mov    %eax,-0x974(%rbp)
    70bd:	e9 f0 05 00 00       	jmpq   76b2 <func_1+0xefd>
    70c2:	c7 85 3c f5 ff ff f9 	movl   $0x97e233f9,-0xac4(%rbp)
    70c9:	33 e2 97 
    70cc:	c7 85 90 f6 ff ff 58 	movl   $0x78efe958,-0x970(%rbp)
    70d3:	e9 ef 78 
    70d6:	c7 85 94 f6 ff ff 58 	movl   $0x78efe958,-0x96c(%rbp)
    70dd:	e9 ef 78 
    70e0:	c7 85 98 f6 ff ff 58 	movl   $0x78efe958,-0x968(%rbp)
    70e7:	e9 ef 78 
    70ea:	c7 85 9c f6 ff ff 58 	movl   $0x78efe958,-0x964(%rbp)
    70f1:	e9 ef 78 
    70f4:	c7 85 a0 f6 ff ff 58 	movl   $0x78efe958,-0x960(%rbp)
    70fb:	e9 ef 78 
    70fe:	c7 85 a4 f6 ff ff 58 	movl   $0x78efe958,-0x95c(%rbp)
    7105:	e9 ef 78 
    7108:	48 8d 05 0b ea 00 00 	lea    0xea0b(%rip),%rax        # 15b1a <g_132>
    710f:	48 89 85 d0 f5 ff ff 	mov    %rax,-0xa30(%rbp)
    7116:	c7 85 40 f5 ff ff 14 	movl   $0x70b91914,-0xac0(%rbp)
    711d:	19 b9 70 
    7120:	48 8d 85 68 f5 ff ff 	lea    -0xa98(%rbp),%rax
    7127:	48 89 85 d8 f5 ff ff 	mov    %rax,-0xa28(%rbp)
    712e:	48 8b 05 b3 0f 01 00 	mov    0x10fb3(%rip),%rax        # 180e8 <g_1269>
    7135:	48 8b 00             	mov    (%rax),%rax
    7138:	0f b6 00             	movzbl (%rax),%eax
    713b:	0f be d0             	movsbl %al,%edx
    713e:	48 8b 05 a3 0f 01 00 	mov    0x10fa3(%rip),%rax        # 180e8 <g_1269>
    7145:	48 8b 00             	mov    (%rax),%rax
    7148:	0f b6 00             	movzbl (%rax),%eax
    714b:	0f be c0             	movsbl %al,%eax
    714e:	89 d6                	mov    %edx,%esi
    7150:	89 c7                	mov    %eax,%edi
    7152:	e8 da e0 ff ff       	callq  5231 <safe_mod_func_int8_t_s_s>
    7157:	84 c0                	test   %al,%al
    7159:	0f 84 bb 04 00 00    	je     761a <func_1+0xe65>
    715f:	c7 85 08 f5 ff ff 00 	movl   $0x0,-0xaf8(%rbp)
    7166:	00 00 00 
    7169:	c7 85 b0 f6 ff ff 93 	movl   $0x31522a93,-0x950(%rbp)
    7170:	2a 52 31 
    7173:	c7 85 b4 f6 ff ff 93 	movl   $0x31522a93,-0x94c(%rbp)
    717a:	2a 52 31 
    717d:	c7 85 b8 f6 ff ff 93 	movl   $0x31522a93,-0x948(%rbp)
    7184:	2a 52 31 
    7187:	c7 85 bc f6 ff ff 93 	movl   $0x31522a93,-0x944(%rbp)
    718e:	2a 52 31 
    7191:	c7 85 c0 f6 ff ff 93 	movl   $0x31522a93,-0x940(%rbp)
    7198:	2a 52 31 
    719b:	c7 85 c4 f6 ff ff 93 	movl   $0x31522a93,-0x93c(%rbp)
    71a2:	2a 52 31 
    71a5:	c7 85 c8 f6 ff ff 93 	movl   $0x31522a93,-0x938(%rbp)
    71ac:	2a 52 31 
    71af:	c7 85 cc f6 ff ff 93 	movl   $0x31522a93,-0x934(%rbp)
    71b6:	2a 52 31 
    71b9:	48 8d 05 40 0f 01 00 	lea    0x10f40(%rip),%rax        # 18100 <g_1332>
    71c0:	48 89 85 88 f5 ff ff 	mov    %rax,-0xa78(%rbp)
    71c7:	c7 05 f7 fb 00 00 00 	movl   $0x0,0xfbf7(%rip)        # 16dc8 <g_1427>
    71ce:	00 00 00 
    71d1:	e9 30 04 00 00       	jmpq   7606 <func_1+0xe51>
    71d6:	66 c7 85 f8 f4 ff ff 	movw   $0x5226,-0xb08(%rbp)
    71dd:	26 52 
    71df:	48 8d 85 d0 fb ff ff 	lea    -0x430(%rbp),%rax
    71e6:	48 8d 15 53 94 00 00 	lea    0x9453(%rip),%rdx        # 10640 <g_905+0x5b0>
    71ed:	b9 7e 00 00 00       	mov    $0x7e,%ecx
    71f2:	48 89 c7             	mov    %rax,%rdi
    71f5:	48 89 d6             	mov    %rdx,%rsi
    71f8:	f3 48 a5             	rep movsq %ds:(%rsi),%es:(%rdi)
    71fb:	48 b8 9e 6b 91 75 4f 	movabs $0xf5b6bb4f75916b9e,%rax
    7202:	bb b6 f5 
    7205:	48 89 85 a0 f5 ff ff 	mov    %rax,-0xa60(%rbp)
    720c:	48 8d 05 f9 e1 00 00 	lea    0xe1f9(%rip),%rax        # 1540c <g_100>
    7213:	48 89 85 90 f5 ff ff 	mov    %rax,-0xa70(%rbp)
    721a:	c7 85 1c f5 ff ff 02 	movl   $0x2,-0xae4(%rbp)
    7221:	00 00 00 
    7224:	48 8d 05 d5 0e 01 00 	lea    0x10ed5(%rip),%rax        # 18100 <g_1332>
    722b:	48 89 85 f0 f5 ff ff 	mov    %rax,-0xa10(%rbp)
    7232:	c7 85 20 f5 ff ff 00 	movl   $0x0,-0xae0(%rbp)
    7239:	00 00 00 
    723c:	eb 4a                	jmp    7288 <func_1+0xad3>
    723e:	c7 85 24 f5 ff ff 00 	movl   $0x0,-0xadc(%rbp)
    7245:	00 00 00 
    7248:	eb 2e                	jmp    7278 <func_1+0xac3>
    724a:	8b 85 24 f5 ff ff    	mov    -0xadc(%rbp),%eax
    7250:	48 98                	cltq   
    7252:	8b 95 20 f5 ff ff    	mov    -0xae0(%rbp),%edx
    7258:	48 63 d2             	movslq %edx,%rdx
    725b:	48 c1 e2 02          	shl    $0x2,%rdx
    725f:	48 01 c2             	add    %rax,%rdx
    7262:	48 8d 85 90 f5 ff ff 	lea    -0xa70(%rbp),%rax
    7269:	48 89 84 d5 80 f7 ff 	mov    %rax,-0x880(%rbp,%rdx,8)
    7270:	ff 
    7271:	83 85 24 f5 ff ff 01 	addl   $0x1,-0xadc(%rbp)
    7278:	83 bd 24 f5 ff ff 03 	cmpl   $0x3,-0xadc(%rbp)
    727f:	7e c9                	jle    724a <func_1+0xa95>
    7281:	83 85 20 f5 ff ff 01 	addl   $0x1,-0xae0(%rbp)
    7288:	83 bd 20 f5 ff ff 01 	cmpl   $0x1,-0xae0(%rbp)
    728f:	7e ad                	jle    723e <func_1+0xa89>
    7291:	c7 05 cd f7 00 00 00 	movl   $0x0,0xf7cd(%rip)        # 16a68 <g_1304>
    7298:	00 00 00 
    729b:	e9 12 01 00 00       	jmpq   73b2 <func_1+0xbfd>
    72a0:	48 8d 05 e5 f4 00 00 	lea    0xf4e5(%rip),%rax        # 1678c <g_606>
    72a7:	48 89 85 28 f6 ff ff 	mov    %rax,-0x9d8(%rbp)
    72ae:	48 c7 85 30 f6 ff ff 	movq   $0x0,-0x9d0(%rbp)
    72b5:	00 00 00 00 
    72b9:	48 8d 85 8c f6 ff ff 	lea    -0x974(%rbp),%rax
    72c0:	48 89 85 d0 f7 ff ff 	mov    %rax,-0x830(%rbp)
    72c7:	48 8d 85 8c f6 ff ff 	lea    -0x974(%rbp),%rax
    72ce:	48 89 85 d8 f7 ff ff 	mov    %rax,-0x828(%rbp)
    72d5:	48 8d 05 a0 dd 00 00 	lea    0xdda0(%rip),%rax        # 1507c <g_29+0xc>
    72dc:	48 89 85 e0 f7 ff ff 	mov    %rax,-0x820(%rbp)
    72e3:	48 8d 85 8c f6 ff ff 	lea    -0x974(%rbp),%rax
    72ea:	48 89 85 e8 f7 ff ff 	mov    %rax,-0x818(%rbp)
    72f1:	48 8d 85 8c f6 ff ff 	lea    -0x974(%rbp),%rax
    72f8:	48 89 85 f0 f7 ff ff 	mov    %rax,-0x810(%rbp)
    72ff:	48 8d 05 76 dd 00 00 	lea    0xdd76(%rip),%rax        # 1507c <g_29+0xc>
    7306:	48 89 85 f8 f7 ff ff 	mov    %rax,-0x808(%rbp)
    730d:	48 8d 85 8c f6 ff ff 	lea    -0x974(%rbp),%rax
    7314:	48 89 85 00 f8 ff ff 	mov    %rax,-0x800(%rbp)
    731b:	48 8d 85 8c f6 ff ff 	lea    -0x974(%rbp),%rax
    7322:	48 89 85 08 f8 ff ff 	mov    %rax,-0x7f8(%rbp)
    7329:	8b 05 a5 ec 00 00    	mov    0xeca5(%rip),%eax        # 15fd4 <g_447+0x14>
    732f:	8b 05 47 ec 00 00    	mov    0xec47(%rip),%eax        # 15f7c <g_315+0x1c>
    7335:	0f b7 d0             	movzwl %ax,%edx
    7338:	48 8b 05 99 d7 00 00 	mov    0xd799(%rip),%rax        # 14ad8 <l_1588.4216+0x4b8>
    733f:	48 85 c0             	test   %rax,%rax
    7342:	0f 95 c0             	setne  %al
    7345:	0f b6 c0             	movzbl %al,%eax
    7348:	89 d6                	mov    %edx,%esi
    734a:	89 c7                	mov    %eax,%edi
    734c:	e8 0b ea ff ff       	callq  5d5c <safe_mod_func_uint16_t_u_u>
    7351:	0f b7 85 f8 f4 ff ff 	movzwl -0xb08(%rbp),%eax
    7358:	83 f0 01             	xor    $0x1,%eax
    735b:	0f b7 c0             	movzwl %ax,%eax
    735e:	89 c6                	mov    %eax,%esi
    7360:	bf 0b 22 e6 57       	mov    $0x57e6220b,%edi
    7365:	e8 bb eb ff ff       	callq  5f25 <safe_div_func_uint32_t_u_u>
    736a:	8b 95 3c f5 ff ff    	mov    -0xac4(%rbp),%edx
    7370:	39 d0                	cmp    %edx,%eax
    7372:	0f 95 c0             	setne  %al
    7375:	0f b6 d0             	movzbl %al,%edx
    7378:	8b 85 b0 fe ff ff    	mov    -0x150(%rbp),%eax
    737e:	21 d0                	and    %edx,%eax
    7380:	89 85 b0 fe ff ff    	mov    %eax,-0x150(%rbp)
    7386:	48 83 85 a0 f5 ff ff 	addq   $0x1,-0xa60(%rbp)
    738d:	01 
    738e:	48 8b 85 70 f5 ff ff 	mov    -0xa90(%rbp),%rax
    7395:	48 8d 95 d0 fb ff ff 	lea    -0x430(%rbp),%rdx
    739c:	48 83 c2 5c          	add    $0x5c,%rdx
    73a0:	48 89 10             	mov    %rdx,(%rax)
    73a3:	8b 05 bf f6 00 00    	mov    0xf6bf(%rip),%eax        # 16a68 <g_1304>
    73a9:	83 c0 01             	add    $0x1,%eax
    73ac:	89 05 b6 f6 00 00    	mov    %eax,0xf6b6(%rip)        # 16a68 <g_1304>
    73b2:	8b 05 b0 f6 00 00    	mov    0xf6b0(%rip),%eax        # 16a68 <g_1304>
    73b8:	83 f8 02             	cmp    $0x2,%eax
    73bb:	0f 86 df fe ff ff    	jbe    72a0 <func_1+0xaeb>
    73c1:	8b 85 90 f6 ff ff    	mov    -0x970(%rbp),%eax
    73c7:	85 c0                	test   %eax,%eax
    73c9:	74 73                	je     743e <func_1+0xc89>
    73cb:	48 8b 05 16 0d 01 00 	mov    0x10d16(%rip),%rax        # 180e8 <g_1269>
    73d2:	48 8b 95 d0 f5 ff ff 	mov    -0xa30(%rbp),%rdx
    73d9:	48 89 10             	mov    %rdx,(%rax)
    73dc:	48 8b 10             	mov    (%rax),%rdx
    73df:	48 8b 85 90 f5 ff ff 	mov    -0xa70(%rbp),%rax
    73e6:	48 39 c2             	cmp    %rax,%rdx
    73e9:	0f 95 c0             	setne  %al
    73ec:	0f b6 d8             	movzbl %al,%ebx
    73ef:	48 8b 85 48 f7 ff ff 	mov    -0x8b8(%rbp),%rax
    73f6:	48 39 85 c0 f5 ff ff 	cmp    %rax,-0xa40(%rbp)
    73fd:	0f 95 c0             	setne  %al
    7400:	44 0f b6 e0          	movzbl %al,%r12d
    7404:	be 06 00 00 00       	mov    $0x6,%esi
    7409:	bf 01 00 00 00       	mov    $0x1,%edi
    740e:	e8 f2 e7 ff ff       	callq  5c05 <safe_lshift_func_uint8_t_u_s>
    7413:	0f b6 d0             	movzbl %al,%edx
    7416:	48 8b 05 a3 09 01 00 	mov    0x109a3(%rip),%rax        # 17dc0 <g_148>
    741d:	48 8b 00             	mov    (%rax),%rax
    7420:	8b 00                	mov    (%rax),%eax
    7422:	39 c2                	cmp    %eax,%edx
    7424:	0f 9c c0             	setl   %al
    7427:	0f b6 c0             	movzbl %al,%eax
    742a:	41 39 c4             	cmp    %eax,%r12d
    742d:	0f 9d c0             	setge  %al
    7430:	0f b6 c0             	movzbl %al,%eax
    7433:	39 c3                	cmp    %eax,%ebx
    7435:	7e 07                	jle    743e <func_1+0xc89>
    7437:	b8 01 00 00 00       	mov    $0x1,%eax
    743c:	eb 05                	jmp    7443 <func_1+0xc8e>
    743e:	b8 00 00 00 00       	mov    $0x0,%eax
    7443:	48 98                	cltq   
    7445:	25 50 87 f8 32       	and    $0x32f88750,%eax
    744a:	48 85 c0             	test   %rax,%rax
    744d:	74 6b                	je     74ba <func_1+0xd05>
    744f:	c7 85 44 f5 ff ff e4 	movl   $0xeff5b3e4,-0xabc(%rbp)
    7456:	b3 f5 ef 
    7459:	c7 85 48 f5 ff ff fc 	movl   $0xe6055fc,-0xab8(%rbp)
    7460:	55 60 0e 
    7463:	48 8d 85 00 f5 ff ff 	lea    -0xb00(%rbp),%rax
    746a:	48 89 85 08 f6 ff ff 	mov    %rax,-0x9f8(%rbp)
    7471:	48 8d 05 1c f3 00 00 	lea    0xf31c(%rip),%rax        # 16794 <g_635>
    7478:	48 89 85 10 f6 ff ff 	mov    %rax,-0x9f0(%rbp)
    747f:	81 8d 44 f5 ff ff 75 	orl    $0x8d40ca75,-0xabc(%rbp)
    7486:	ca 40 8d 
    7489:	48 83 ad 98 f5 ff ff 	subq   $0x1,-0xa68(%rbp)
    7490:	01 
    7491:	48 8b 85 10 f6 ff ff 	mov    -0x9f0(%rbp),%rax
    7498:	c7 00 47 03 91 1a    	movl   $0x1a910347,(%rax)
    749e:	48 8b 85 08 f6 ff ff 	mov    -0x9f8(%rbp),%rax
    74a5:	8b 10                	mov    (%rax),%edx
    74a7:	8b 85 08 f5 ff ff    	mov    -0xaf8(%rbp),%eax
    74ad:	09 c2                	or     %eax,%edx
    74af:	48 8b 85 08 f6 ff ff 	mov    -0x9f8(%rbp),%rax
    74b6:	89 10                	mov    %edx,(%rax)
    74b8:	eb 3b                	jmp    74f5 <func_1+0xd40>
    74ba:	48 8d 05 af db 00 00 	lea    0xdbaf(%rip),%rax        # 15070 <g_29>
    74c1:	48 89 85 f8 f5 ff ff 	mov    %rax,-0xa08(%rbp)
    74c8:	48 8d 85 b0 f6 ff ff 	lea    -0x950(%rbp),%rax
    74cf:	48 83 c0 10          	add    $0x10,%rax
    74d3:	48 89 85 00 f6 ff ff 	mov    %rax,-0xa00(%rbp)
    74da:	83 85 1c f5 ff ff 01 	addl   $0x1,-0xae4(%rbp)
    74e1:	48 8b 05 c0 08 01 00 	mov    0x108c0(%rip),%rax        # 17da8 <g_10>
    74e8:	48 8b 00             	mov    (%rax),%rax
    74eb:	8b 00                	mov    (%rax),%eax
    74ed:	85 c0                	test   %eax,%eax
    74ef:	0f 85 f2 00 00 00    	jne    75e7 <func_1+0xe32>
    74f5:	c7 85 c0 f6 ff ff 01 	movl   $0x1,-0x940(%rbp)
    74fc:	00 00 00 
    74ff:	48 8d 85 88 f5 ff ff 	lea    -0xa78(%rbp),%rax
    7506:	48 89 85 18 f6 ff ff 	mov    %rax,-0x9e8(%rbp)
    750d:	48 c7 85 20 f6 ff ff 	movq   $0x0,-0x9e0(%rbp)
    7514:	00 00 00 00 
    7518:	48 8d 85 04 f5 ff ff 	lea    -0xafc(%rbp),%rax
    751f:	48 89 85 d0 f7 ff ff 	mov    %rax,-0x830(%rbp)
    7526:	48 8d 85 04 f5 ff ff 	lea    -0xafc(%rbp),%rax
    752d:	48 89 85 d8 f7 ff ff 	mov    %rax,-0x828(%rbp)
    7534:	48 8d 85 8c f6 ff ff 	lea    -0x974(%rbp),%rax
    753b:	48 89 85 e0 f7 ff ff 	mov    %rax,-0x820(%rbp)
    7542:	48 8d 05 03 db 00 00 	lea    0xdb03(%rip),%rax        # 1504c <g_12+0xc>
    7549:	48 89 85 e8 f7 ff ff 	mov    %rax,-0x818(%rbp)
    7550:	48 8d 85 8c f6 ff ff 	lea    -0x974(%rbp),%rax
    7557:	48 89 85 f0 f7 ff ff 	mov    %rax,-0x810(%rbp)
    755e:	48 8d 85 04 f5 ff ff 	lea    -0xafc(%rbp),%rax
    7565:	48 89 85 f8 f7 ff ff 	mov    %rax,-0x808(%rbp)
    756c:	48 8d 85 04 f5 ff ff 	lea    -0xafc(%rbp),%rax
    7573:	48 89 85 00 f8 ff ff 	mov    %rax,-0x800(%rbp)
    757a:	48 8d 85 8c f6 ff ff 	lea    -0x974(%rbp),%rax
    7581:	48 89 85 08 f8 ff ff 	mov    %rax,-0x7f8(%rbp)
    7588:	48 8d 05 bd da 00 00 	lea    0xdabd(%rip),%rax        # 1504c <g_12+0xc>
    758f:	48 89 85 10 f8 ff ff 	mov    %rax,-0x7f0(%rbp)
    7596:	48 8d 85 8c f6 ff ff 	lea    -0x974(%rbp),%rax
    759d:	48 89 85 18 f8 ff ff 	mov    %rax,-0x7e8(%rbp)
    75a4:	48 8b 95 88 f5 ff ff 	mov    -0xa78(%rbp),%rdx
    75ab:	48 8b 85 18 f6 ff ff 	mov    -0x9e8(%rbp),%rax
    75b2:	48 89 10             	mov    %rdx,(%rax)
    75b5:	48 8b 85 18 f6 ff ff 	mov    -0x9e8(%rbp),%rax
    75bc:	48 8b 00             	mov    (%rax),%rax
    75bf:	48 39 85 f0 f5 ff ff 	cmp    %rax,-0xa10(%rbp)
    75c6:	0f 95 c0             	setne  %al
    75c9:	0f b6 c8             	movzbl %al,%ecx
    75cc:	48 8b 05 fd 07 01 00 	mov    0x107fd(%rip),%rax        # 17dd0 <g_180>
    75d3:	8b 10                	mov    (%rax),%edx
    75d5:	09 ca                	or     %ecx,%edx
    75d7:	89 10                	mov    %edx,(%rax)
    75d9:	8b 85 1c f5 ff ff    	mov    -0xae4(%rbp),%eax
    75df:	89 85 bc f6 ff ff    	mov    %eax,-0x944(%rbp)
    75e5:	eb 01                	jmp    75e8 <func_1+0xe33>
    75e7:	90                   	nop
    75e8:	8b 05 da f7 00 00    	mov    0xf7da(%rip),%eax        # 16dc8 <g_1427>
    75ee:	0f b6 c0             	movzbl %al,%eax
    75f1:	be 05 00 00 00       	mov    $0x5,%esi
    75f6:	89 c7                	mov    %eax,%edi
    75f8:	e8 5d e5 ff ff       	callq  5b5a <safe_add_func_uint8_t_u_u>
    75fd:	0f b6 c0             	movzbl %al,%eax
    7600:	89 05 c2 f7 00 00    	mov    %eax,0xf7c2(%rip)        # 16dc8 <g_1427>
    7606:	8b 05 bc f7 00 00    	mov    0xf7bc(%rip),%eax        # 16dc8 <g_1427>
    760c:	83 f8 04             	cmp    $0x4,%eax
    760f:	0f 85 c1 fb ff ff    	jne    71d6 <func_1+0xa21>
    7615:	e9 8c 00 00 00       	jmpq   76a6 <func_1+0xef1>
    761a:	48 8d 85 80 f5 ff ff 	lea    -0xa80(%rbp),%rax
    7621:	48 89 85 90 f5 ff ff 	mov    %rax,-0xa70(%rbp)
    7628:	48 8d 85 90 f5 ff ff 	lea    -0xa70(%rbp),%rax
    762f:	48 89 85 e0 f5 ff ff 	mov    %rax,-0xa20(%rbp)
    7636:	48 c7 85 e8 f5 ff ff 	movq   $0x0,-0xa18(%rbp)
    763d:	00 00 00 00 
    7641:	c7 85 0c f5 ff ff 00 	movl   $0x0,-0xaf4(%rbp)
    7648:	00 00 00 
    764b:	eb 1e                	jmp    766b <func_1+0xeb6>
    764d:	8b 85 0c f5 ff ff    	mov    -0xaf4(%rbp),%eax
    7653:	48 98                	cltq   
    7655:	48 8d 15 3c 11 01 00 	lea    0x1113c(%rip),%rdx        # 18798 <g_281>
    765c:	48 89 94 c5 d0 fb ff 	mov    %rdx,-0x430(%rbp,%rax,8)
    7663:	ff 
    7664:	83 85 0c f5 ff ff 01 	addl   $0x1,-0xaf4(%rbp)
    766b:	83 bd 0c f5 ff ff 00 	cmpl   $0x0,-0xaf4(%rbp)
    7672:	7e d9                	jle    764d <func_1+0xe98>
    7674:	48 8b 85 c8 f5 ff ff 	mov    -0xa38(%rbp),%rax
    767b:	48 89 85 d0 fb ff ff 	mov    %rax,-0x430(%rbp)
    7682:	48 8b 05 af 0c 01 00 	mov    0x10caf(%rip),%rax        # 18338 <g_1647>
    7689:	48 8b 95 d8 f5 ff ff 	mov    -0xa28(%rbp),%rdx
    7690:	48 89 10             	mov    %rdx,(%rax)
    7693:	80 85 f3 f4 ff ff 01 	addb   $0x1,-0xb0d(%rbp)
    769a:	48 8b 05 5f f8 00 00 	mov    0xf85f(%rip),%rax        # 16f00 <g_1651>
    76a1:	e9 ff 00 00 00       	jmpq   77a5 <func_1+0xff0>
    76a6:	48 8b 05 5b f8 00 00 	mov    0xf85b(%rip),%rax        # 16f08 <g_1652>
    76ad:	e9 f3 00 00 00       	jmpq   77a5 <func_1+0xff0>
    76b2:	80 85 f5 f4 ff ff 01 	addb   $0x1,-0xb0b(%rbp)
    76b9:	8b 05 69 d9 00 00    	mov    0xd969(%rip),%eax        # 15028 <g_3>
    76bf:	48 98                	cltq   
    76c1:	be 04 00 00 00       	mov    $0x4,%esi
    76c6:	48 89 c7             	mov    %rax,%rdi
    76c9:	e8 da e1 ff ff       	callq  58a8 <safe_sub_func_int64_t_s_s>
    76ce:	89 05 54 d9 00 00    	mov    %eax,0xd954(%rip)        # 15028 <g_3>
    76d4:	8b 05 4e d9 00 00    	mov    0xd94e(%rip),%eax        # 15028 <g_3>
    76da:	83 f8 e8             	cmp    $0xffffffe8,%eax
    76dd:	0f 8c de f1 ff ff    	jl     68c1 <func_1+0x10c>
    76e3:	eb 07                	jmp    76ec <func_1+0xf37>
    76e5:	90                   	nop
    76e6:	eb 04                	jmp    76ec <func_1+0xf37>
    76e8:	90                   	nop
    76e9:	eb 01                	jmp    76ec <func_1+0xf37>
    76eb:	90                   	nop
    76ec:	8b 05 22 f8 00 00    	mov    0xf822(%rip),%eax        # 16f14 <g_1668>
    76f2:	48 8d 05 b7 06 01 00 	lea    0x106b7(%rip),%rax        # 17db0 <g_141>
    76f9:	48 89 05 40 0c 01 00 	mov    %rax,0x10c40(%rip)        # 18340 <g_1667>
    7700:	48 8b 05 39 0c 01 00 	mov    0x10c39(%rip),%rax        # 18340 <g_1667>
    7707:	48 39 85 b0 f5 ff ff 	cmp    %rax,-0xa50(%rbp)
    770e:	0f 95 c0             	setne  %al
    7711:	0f b6 d0             	movzbl %al,%edx
    7714:	8b 85 00 f5 ff ff    	mov    -0xb00(%rbp),%eax
    771a:	39 c2                	cmp    %eax,%edx
    771c:	0f 9d c0             	setge  %al
    771f:	0f b6 d0             	movzbl %al,%edx
    7722:	8b 05 88 10 01 00    	mov    0x11088(%rip),%eax        # 187b0 <g_476>
    7728:	83 e0 7f             	and    $0x7f,%eax
    772b:	0f b6 c8             	movzbl %al,%ecx
    772e:	48 8b 05 4b 08 01 00 	mov    0x1084b(%rip),%rax        # 17f80 <g_1082>
    7735:	0f b7 00             	movzwl (%rax),%eax
    7738:	66 85 c0             	test   %ax,%ax
    773b:	0f 95 c0             	setne  %al
    773e:	0f b6 c0             	movzbl %al,%eax
    7741:	39 85 30 f5 ff ff    	cmp    %eax,-0xad0(%rbp)
    7747:	0f 96 c0             	setbe  %al
    774a:	0f b6 c0             	movzbl %al,%eax
    774d:	21 c8                	and    %ecx,%eax
    774f:	48 98                	cltq   
    7751:	25 8f 00 00 00       	and    $0x8f,%eax
    7756:	48 89 c1             	mov    %rax,%rcx
    7759:	48 8b 85 58 f5 ff ff 	mov    -0xaa8(%rbp),%rax
    7760:	48 09 c8             	or     %rcx,%rax
    7763:	48 39 c2             	cmp    %rax,%rdx
    7766:	75 08                	jne    7770 <func_1+0xfbb>
    7768:	8b 85 00 f5 ff ff    	mov    -0xb00(%rbp),%eax
    776e:	85 c0                	test   %eax,%eax
    7770:	be 0e 00 00 00       	mov    $0xe,%esi
    7775:	bf 01 00 00 00       	mov    $0x1,%edi
    777a:	e8 c9 e6 ff ff       	callq  5e48 <safe_rshift_func_uint16_t_u_s>
    777f:	8b 85 70 fb ff ff    	mov    -0x490(%rbp),%eax
    7785:	89 c2                	mov    %eax,%edx
    7787:	8b 05 8f e3 00 00    	mov    0xe38f(%rip),%eax        # 15b1c <g_155>
    778d:	39 c2                	cmp    %eax,%edx
    778f:	0f 95 c2             	setne  %dl
    7792:	48 8b 05 9f 0a 01 00 	mov    0x10a9f(%rip),%rax        # 18238 <g_1570>
    7799:	0f b6 d2             	movzbl %dl,%edx
    779c:	89 10                	mov    %edx,(%rax)
    779e:	48 8b 05 13 f0 00 00 	mov    0xf013(%rip),%rax        # 167b8 <g_695+0x18>
    77a5:	48 8b 5d c8          	mov    -0x38(%rbp),%rbx
    77a9:	64 48 33 1c 25 28 00 	xor    %fs:0x28,%rbx
    77b0:	00 00 
    77b2:	74 05                	je     77b9 <func_1+0x1004>
    77b4:	e8 b7 d8 ff ff       	callq  5070 <__stack_chk_fail@plt>
    77b9:	48 81 c4 e8 0a 00 00 	add    $0xae8,%rsp
    77c0:	5b                   	pop    %rbx
    77c1:	41 5c                	pop    %r12
    77c3:	41 5d                	pop    %r13
    77c5:	41 5e                	pop    %r14
    77c7:	41 5f                	pop    %r15
    77c9:	5d                   	pop    %rbp
    77ca:	c3                   	retq   

00000000000077cb <func_8>:
    77cb:	f3 0f 1e fa          	endbr64 
    77cf:	55                   	push   %rbp
    77d0:	48 89 e5             	mov    %rsp,%rbp
    77d3:	41 56                	push   %r14
    77d5:	41 55                	push   %r13
    77d7:	41 54                	push   %r12
    77d9:	53                   	push   %rbx
    77da:	48 81 ec 50 08 00 00 	sub    $0x850,%rsp
    77e1:	48 89 bd 98 f7 ff ff 	mov    %rdi,-0x868(%rbp)
    77e8:	64 48 8b 04 25 28 00 	mov    %fs:0x28,%rax
    77ef:	00 00 
    77f1:	48 89 45 d8          	mov    %rax,-0x28(%rbp)
    77f5:	31 c0                	xor    %eax,%eax
    77f7:	66 c7 85 70 f8 ff ff 	movw   $0x32e3,-0x790(%rbp)
    77fe:	e3 32 
    7800:	66 c7 85 72 f8 ff ff 	movw   $0x32e3,-0x78e(%rbp)
    7807:	e3 32 
    7809:	66 c7 85 74 f8 ff ff 	movw   $0x32e3,-0x78c(%rbp)
    7810:	e3 32 
    7812:	66 c7 85 76 f8 ff ff 	movw   $0x32e3,-0x78a(%rbp)
    7819:	e3 32 
    781b:	66 c7 85 78 f8 ff ff 	movw   $0x32e3,-0x788(%rbp)
    7822:	e3 32 
    7824:	66 c7 85 7a f8 ff ff 	movw   $0x32e3,-0x786(%rbp)
    782b:	e3 32 
    782d:	66 c7 85 7c f8 ff ff 	movw   $0x32e3,-0x784(%rbp)
    7834:	e3 32 
    7836:	66 c7 85 7e f8 ff ff 	movw   $0x32e3,-0x782(%rbp)
    783d:	e3 32 
    783f:	66 c7 85 80 f8 ff ff 	movw   $0x32e3,-0x780(%rbp)
    7846:	e3 32 
    7848:	c7 85 ac f7 ff ff 01 	movl   $0x1,-0x854(%rbp)
    784f:	00 00 00 
    7852:	c6 85 a8 f7 ff ff d1 	movb   $0xd1,-0x858(%rbp)
    7859:	48 8d 05 98 ef 00 00 	lea    0xef98(%rip),%rax        # 167f8 <g_862+0x18>
    7860:	48 89 85 00 f8 ff ff 	mov    %rax,-0x800(%rbp)
    7867:	c7 85 bc f7 ff ff 71 	movl   $0x5106f971,-0x844(%rbp)
    786e:	f9 06 51 
    7871:	48 c7 85 08 f8 ff ff 	movq   $0x0,-0x7f8(%rbp)
    7878:	00 00 00 00 
    787c:	48 8d 05 01 ef 00 00 	lea    0xef01(%rip),%rax        # 16784 <g_492>
    7883:	48 89 85 10 f8 ff ff 	mov    %rax,-0x7f0(%rbp)
    788a:	c7 85 c0 f7 ff ff 06 	movl   $0x6,-0x840(%rbp)
    7891:	00 00 00 
    7894:	48 8d 05 e5 ee 00 00 	lea    0xeee5(%rip),%rax        # 16780 <g_490>
    789b:	48 89 85 e0 f7 ff ff 	mov    %rax,-0x820(%rbp)
    78a2:	48 8d 85 e0 f7 ff ff 	lea    -0x820(%rbp),%rax
    78a9:	48 89 85 18 f8 ff ff 	mov    %rax,-0x7e8(%rbp)
    78b0:	48 8d 85 d0 f8 ff ff 	lea    -0x730(%rbp),%rax
    78b7:	48 8d 15 62 f6 00 00 	lea    0xf662(%rip),%rdx        # 16f20 <g_1668+0xc>
    78be:	b9 e0 00 00 00       	mov    $0xe0,%ecx
    78c3:	48 89 c7             	mov    %rax,%rdi
    78c6:	48 89 d6             	mov    %rdx,%rsi
    78c9:	f3 48 a5             	rep movsq %ds:(%rsi),%es:(%rdi)
    78cc:	48 8d 85 d0 f8 ff ff 	lea    -0x730(%rbp),%rax
    78d3:	48 83 c0 78          	add    $0x78,%rax
    78d7:	48 89 85 20 f8 ff ff 	mov    %rax,-0x7e0(%rbp)
    78de:	c7 85 c4 f7 ff ff ca 	movl   $0xb6a5d4ca,-0x83c(%rbp)
    78e5:	d4 a5 b6 
    78e8:	48 8d 05 99 0e 01 00 	lea    0x10e99(%rip),%rax        # 18788 <g_133>
    78ef:	48 89 85 28 f8 ff ff 	mov    %rax,-0x7d8(%rbp)
    78f6:	c6 85 a9 f7 ff ff ff 	movb   $0xff,-0x857(%rbp)
    78fd:	c7 85 c8 f7 ff ff 00 	movl   $0x0,-0x838(%rbp)
    7904:	00 00 00 
    7907:	c7 85 cc f7 ff ff 01 	movl   $0x1,-0x834(%rbp)
    790e:	00 00 00 
    7911:	c7 85 d0 f7 ff ff 09 	movl   $0xc07c5309,-0x830(%rbp)
    7918:	53 7c c0 
    791b:	c7 85 d4 f7 ff ff ff 	movl   $0xffffffff,-0x82c(%rbp)
    7922:	ff ff ff 
    7925:	c7 85 d8 f7 ff ff d7 	movl   $0xcbee6ed7,-0x828(%rbp)
    792c:	6e ee cb 
    792f:	c7 85 dc f7 ff ff fb 	movl   $0xfffffffb,-0x824(%rbp)
    7936:	ff ff ff 
    7939:	48 b8 6c 39 1d 53 4b 	movabs $0xa7e5574b531d396c,%rax
    7940:	57 e5 a7 
    7943:	48 89 85 30 f8 ff ff 	mov    %rax,-0x7d0(%rbp)
    794a:	48 c7 85 38 f8 ff ff 	movq   $0x0,-0x7c8(%rbp)
    7951:	00 00 00 00 
    7955:	48 8d 05 0c 0f 01 00 	lea    0x10f0c(%rip),%rax        # 18868 <g_1302>
    795c:	48 89 85 e8 f7 ff ff 	mov    %rax,-0x818(%rbp)
    7963:	48 8d 85 e8 f7 ff ff 	lea    -0x818(%rbp),%rax
    796a:	48 89 85 40 f8 ff ff 	mov    %rax,-0x7c0(%rbp)
    7971:	48 c7 85 f0 f7 ff ff 	movq   $0x0,-0x810(%rbp)
    7978:	00 00 00 00 
    797c:	48 8d 85 f0 f7 ff ff 	lea    -0x810(%rbp),%rax
    7983:	48 89 85 48 f8 ff ff 	mov    %rax,-0x7b8(%rbp)
    798a:	c7 85 b0 f7 ff ff 00 	movl   $0x0,-0x850(%rbp)
    7991:	00 00 00 
    7994:	eb 1a                	jmp    79b0 <func_8+0x1e5>
    7996:	8b 85 b0 f7 ff ff    	mov    -0x850(%rbp),%eax
    799c:	48 98                	cltq   
    799e:	c7 84 85 90 f8 ff ff 	movl   $0x6,-0x770(%rbp,%rax,4)
    79a5:	06 00 00 00 
    79a9:	83 85 b0 f7 ff ff 01 	addl   $0x1,-0x850(%rbp)
    79b0:	83 bd b0 f7 ff ff 07 	cmpl   $0x7,-0x850(%rbp)
    79b7:	7e dd                	jle    7996 <func_8+0x1cb>
    79b9:	c7 05 8d d6 00 00 00 	movl   $0x0,0xd68d(%rip)        # 15050 <g_12+0x10>
    79c0:	00 00 00 
    79c3:	e9 20 04 00 00       	jmpq   7de8 <func_8+0x61d>
    79c8:	48 b8 a4 1c a4 1c a4 	movabs $0x1ca41ca41ca41ca4,%rax
    79cf:	1c a4 1c 
    79d2:	48 89 45 d0          	mov    %rax,-0x30(%rbp)
    79d6:	c6 85 aa f7 ff ff 76 	movb   $0x76,-0x856(%rbp)
    79dd:	c7 05 7d d6 00 00 07 	movl   $0x7,0xd67d(%rip)        # 15064 <g_17>
    79e4:	00 00 00 
    79e7:	e9 d0 03 00 00       	jmpq   7dbc <func_8+0x5f1>
    79ec:	c6 85 ab f7 ff ff 07 	movb   $0x7,-0x855(%rbp)
    79f3:	48 8d 05 ae 03 01 00 	lea    0x103ae(%rip),%rax        # 17da8 <g_10>
    79fa:	48 89 85 50 f8 ff ff 	mov    %rax,-0x7b0(%rbp)
    7a01:	48 c7 85 f8 f7 ff ff 	movq   $0x0,-0x808(%rbp)
    7a08:	00 00 00 00 
    7a0c:	48 8d 85 f8 f7 ff ff 	lea    -0x808(%rbp),%rax
    7a13:	48 89 85 58 f8 ff ff 	mov    %rax,-0x7a8(%rbp)
    7a1a:	48 8d 05 eb d9 00 00 	lea    0xd9eb(%rip),%rax        # 1540c <g_100>
    7a21:	48 89 85 60 f8 ff ff 	mov    %rax,-0x7a0(%rbp)
    7a28:	8b 05 32 d6 00 00    	mov    0xd632(%rip),%eax        # 15060 <g_16>
    7a2e:	48 8b 05 73 03 01 00 	mov    0x10373(%rip),%rax        # 17da8 <g_10>
    7a35:	48 8b 00             	mov    (%rax),%rax
    7a38:	8b 00                	mov    (%rax),%eax
    7a3a:	85 c0                	test   %eax,%eax
    7a3c:	0f 84 5b 01 00 00    	je     7b9d <func_8+0x3d2>
    7a42:	48 8d 05 3b d6 00 00 	lea    0xd63b(%rip),%rax        # 15084 <g_48>
    7a49:	48 89 85 68 f8 ff ff 	mov    %rax,-0x798(%rbp)
    7a50:	c7 85 b4 f7 ff ff 00 	movl   $0x0,-0x84c(%rbp)
    7a57:	00 00 00 
    7a5a:	eb 46                	jmp    7aa2 <func_8+0x2d7>
    7a5c:	c7 85 b8 f7 ff ff 00 	movl   $0x0,-0x848(%rbp)
    7a63:	00 00 00 
    7a66:	eb 2a                	jmp    7a92 <func_8+0x2c7>
    7a68:	8b 85 b8 f7 ff ff    	mov    -0x848(%rbp),%eax
    7a6e:	48 63 d0             	movslq %eax,%rdx
    7a71:	8b 85 b4 f7 ff ff    	mov    -0x84c(%rbp),%eax
    7a77:	48 98                	cltq   
    7a79:	48 01 d0             	add    %rdx,%rax
    7a7c:	48 8d 15 ed d5 00 00 	lea    0xd5ed(%rip),%rdx        # 15070 <g_29>
    7a83:	48 89 94 c5 b0 f8 ff 	mov    %rdx,-0x750(%rbp,%rax,8)
    7a8a:	ff 
    7a8b:	83 85 b8 f7 ff ff 01 	addl   $0x1,-0x848(%rbp)
    7a92:	83 bd b8 f7 ff ff 00 	cmpl   $0x0,-0x848(%rbp)
    7a99:	7e cd                	jle    7a68 <func_8+0x29d>
    7a9b:	83 85 b4 f7 ff ff 01 	addl   $0x1,-0x84c(%rbp)
    7aa2:	83 bd b4 f7 ff ff 03 	cmpl   $0x3,-0x84c(%rbp)
    7aa9:	7e b1                	jle    7a5c <func_8+0x291>
    7aab:	48 8b 85 98 f7 ff ff 	mov    -0x868(%rbp),%rax
    7ab2:	48 8b 00             	mov    (%rax),%rax
    7ab5:	8b 00                	mov    (%rax),%eax
    7ab7:	88 85 ab f7 ff ff    	mov    %al,-0x855(%rbp)
    7abd:	0f be 9d ab f7 ff ff 	movsbl -0x855(%rbp),%ebx
    7ac4:	8b 85 ac f7 ff ff    	mov    -0x854(%rbp),%eax
    7aca:	4c 63 e0             	movslq %eax,%r12
    7acd:	8b 05 91 d5 00 00    	mov    0xd591(%rip),%eax        # 15064 <g_17>
    7ad3:	89 c7                	mov    %eax,%edi
    7ad5:	e8 47 03 00 00       	callq  7e21 <func_22>
    7ada:	4c 89 e6             	mov    %r12,%rsi
    7add:	48 89 c7             	mov    %rax,%rdi
    7ae0:	e8 cf de ff ff       	callq  59b4 <safe_mod_func_int64_t_s_s>
    7ae5:	89 de                	mov    %ebx,%esi
    7ae7:	89 c7                	mov    %eax,%edi
    7ae9:	e8 11 dc ff ff       	callq  56ff <safe_div_func_int32_t_s_s>
    7aee:	89 85 ac f7 ff ff    	mov    %eax,-0x854(%rbp)
    7af4:	c7 05 82 d5 00 00 89 	movl   $0x89,0xd582(%rip)        # 15080 <g_46>
    7afb:	00 00 00 
    7afe:	8b 15 3c d5 00 00    	mov    0xd53c(%rip),%edx        # 15040 <g_12>
    7b04:	48 8b 85 50 f8 ff ff 	mov    -0x7b0(%rbp),%rax
    7b0b:	48 8b 00             	mov    (%rax),%rax
    7b0e:	48 8b 00             	mov    (%rax),%rax
    7b11:	8b 00                	mov    (%rax),%eax
    7b13:	21 d0                	and    %edx,%eax
    7b15:	89 c7                	mov    %eax,%edi
    7b17:	e8 05 03 00 00       	callq  7e21 <func_22>
    7b1c:	0f b6 c0             	movzbl %al,%eax
    7b1f:	be 89 00 00 00       	mov    $0x89,%esi
    7b24:	89 c7                	mov    %eax,%edi
    7b26:	e8 2f e0 ff ff       	callq  5b5a <safe_add_func_uint8_t_u_u>
    7b2b:	0f b6 c0             	movzbl %al,%eax
    7b2e:	89 c7                	mov    %eax,%edi
    7b30:	e8 ec 02 00 00       	callq  7e21 <func_22>
    7b35:	48 8b 95 68 f8 ff ff 	mov    -0x798(%rbp),%rdx
    7b3c:	8b 12                	mov    (%rdx),%edx
    7b3e:	31 c2                	xor    %eax,%edx
    7b40:	48 8b 85 68 f8 ff ff 	mov    -0x798(%rbp),%rax
    7b47:	89 10                	mov    %edx,(%rax)
    7b49:	48 8b 85 68 f8 ff ff 	mov    -0x798(%rbp),%rax
    7b50:	8b 00                	mov    (%rax),%eax
    7b52:	89 c7                	mov    %eax,%edi
    7b54:	e8 c8 02 00 00       	callq  7e21 <func_22>
    7b59:	bf 01 00 00 00       	mov    $0x1,%edi
    7b5e:	e8 86 2b 00 00       	callq  a6e9 <func_42>
    7b63:	49 89 c4             	mov    %rax,%r12
    7b66:	48 8b 85 50 f8 ff ff 	mov    -0x7b0(%rbp),%rax
    7b6d:	48 89 c6             	mov    %rax,%rsi
    7b70:	bf 01 00 00 00       	mov    $0x1,%edi
    7b75:	e8 f4 2a 00 00       	callq  a66e <func_35>
    7b7a:	48 89 c1             	mov    %rax,%rcx
    7b7d:	8b 05 f5 d4 00 00    	mov    0xd4f5(%rip),%eax        # 15078 <g_29+0x8>
    7b83:	98                   	cwtl   
    7b84:	48 8b 1d 55 02 01 00 	mov    0x10255(%rip),%rbx        # 17de0 <g_251>
    7b8b:	4c 89 e2             	mov    %r12,%rdx
    7b8e:	48 89 ce             	mov    %rcx,%rsi
    7b91:	89 c7                	mov    %eax,%edi
    7b93:	e8 a4 02 00 00       	callq  7e3c <func_31>
    7b98:	48 89 03             	mov    %rax,(%rbx)
    7b9b:	eb 0f                	jmp    7bac <func_8+0x3e1>
    7b9d:	48 8b 05 2c 02 01 00 	mov    0x1022c(%rip),%rax        # 17dd0 <g_180>
    7ba4:	8b 95 ac f7 ff ff    	mov    -0x854(%rbp),%edx
    7baa:	89 10                	mov    %edx,(%rax)
    7bac:	0f b6 45 d3          	movzbl -0x2d(%rbp),%eax
    7bb0:	0f b6 d8             	movzbl %al,%ebx
    7bb3:	0f b6 95 a8 f7 ff ff 	movzbl -0x858(%rbp),%edx
    7bba:	48 8b 85 58 f8 ff ff 	mov    -0x7a8(%rbp),%rax
    7bc1:	48 8d 0d 50 0c 01 00 	lea    0x10c50(%rip),%rcx        # 18818 <g_1099>
    7bc8:	48 89 08             	mov    %rcx,(%rax)
    7bcb:	80 bd a8 f7 ff ff 00 	cmpb   $0x0,-0x858(%rbp)
    7bd2:	0f 95 c0             	setne  %al
    7bd5:	0f b6 c0             	movzbl %al,%eax
    7bd8:	89 d6                	mov    %edx,%esi
    7bda:	89 c7                	mov    %eax,%edi
    7bdc:	e8 97 df ff ff       	callq  5b78 <safe_sub_func_uint8_t_u_u>
    7be1:	44 0f b6 f0          	movzbl %al,%r14d
    7be5:	0f b6 45 d3          	movzbl -0x2d(%rbp),%eax
    7be9:	44 0f b6 e0          	movzbl %al,%r12d
    7bed:	0f b7 05 9c e3 00 00 	movzwl 0xe39c(%rip),%eax        # 15f90 <g_426>
    7bf4:	44 0f b6 e8          	movzbl %al,%r13d
    7bf8:	8b 05 72 d4 00 00    	mov    0xd472(%rip),%eax        # 15070 <g_29>
    7bfe:	85 c0                	test   %eax,%eax
    7c00:	74 43                	je     7c45 <func_8+0x47a>
    7c02:	48 83 bd 00 f8 ff ff 	cmpq   $0x0,-0x800(%rbp)
    7c09:	00 
    7c0a:	0f 95 c0             	setne  %al
    7c0d:	0f b6 c0             	movzbl %al,%eax
    7c10:	48 be 5c d4 43 5d 8f 	movabs $0x7c39688f5d43d45c,%rsi
    7c17:	68 39 7c 
    7c1a:	48 89 c7             	mov    %rax,%rdi
    7c1d:	e8 29 e4 ff ff       	callq  604b <safe_sub_func_uint64_t_u_u>
    7c22:	48 8b 85 50 f8 ff ff 	mov    -0x7b0(%rbp),%rax
    7c29:	48 8b 00             	mov    (%rax),%rax
    7c2c:	48 8b 00             	mov    (%rax),%rax
    7c2f:	8b 10                	mov    (%rax),%edx
    7c31:	0f b6 45 d3          	movzbl -0x2d(%rbp),%eax
    7c35:	0f b6 c0             	movzbl %al,%eax
    7c38:	21 d0                	and    %edx,%eax
    7c3a:	85 c0                	test   %eax,%eax
    7c3c:	74 07                	je     7c45 <func_8+0x47a>
    7c3e:	b8 01 00 00 00       	mov    $0x1,%eax
    7c43:	eb 05                	jmp    7c4a <func_8+0x47f>
    7c45:	b8 00 00 00 00       	mov    $0x0,%eax
    7c4a:	0f b6 c0             	movzbl %al,%eax
    7c4d:	44 89 ee             	mov    %r13d,%esi
    7c50:	89 c7                	mov    %eax,%edi
    7c52:	e8 3c df ff ff       	callq  5b93 <safe_mul_func_uint8_t_u_u>
    7c57:	0f b6 c0             	movzbl %al,%eax
    7c5a:	48 be 5c 59 51 c1 b8 	movabs $0xa46581b8c151595c,%rsi
    7c61:	81 65 a4 
    7c64:	48 89 c7             	mov    %rax,%rdi
    7c67:	e8 14 e4 ff ff       	callq  6080 <safe_mod_func_uint64_t_u_u>
    7c6c:	89 c2                	mov    %eax,%edx
    7c6e:	0f b6 45 d3          	movzbl -0x2d(%rbp),%eax
    7c72:	0f b6 c0             	movzbl %al,%eax
    7c75:	09 d0                	or     %edx,%eax
    7c77:	98                   	cwtl   
    7c78:	be 31 cc ff ff       	mov    $0xffffcc31,%esi
    7c7d:	89 c7                	mov    %eax,%edi
    7c7f:	e8 d1 d7 ff ff       	callq  5455 <safe_div_func_int16_t_s_s>
    7c84:	89 c2                	mov    %eax,%edx
    7c86:	48 8b 85 60 f8 ff ff 	mov    -0x7a0(%rbp),%rax
    7c8d:	88 10                	mov    %dl,(%rax)
    7c8f:	48 8b 85 60 f8 ff ff 	mov    -0x7a0(%rbp),%rax
    7c96:	0f b6 00             	movzbl (%rax),%eax
    7c99:	0f be d0             	movsbl %al,%edx
    7c9c:	0f b6 85 a8 f7 ff ff 	movzbl -0x858(%rbp),%eax
    7ca3:	0f be c0             	movsbl %al,%eax
    7ca6:	89 d6                	mov    %edx,%esi
    7ca8:	89 c7                	mov    %eax,%edi
    7caa:	e8 63 d5 ff ff       	callq  5212 <safe_mul_func_int8_t_s_s>
    7caf:	0f be c0             	movsbl %al,%eax
    7cb2:	be 74 58 00 00       	mov    $0x5874,%esi
    7cb7:	89 c7                	mov    %eax,%edi
    7cb9:	e8 37 d7 ff ff       	callq  53f5 <safe_mul_func_int16_t_s_s>
    7cbe:	98                   	cwtl   
    7cbf:	44 89 e6             	mov    %r12d,%esi
    7cc2:	89 c7                	mov    %eax,%edi
    7cc4:	e8 8c d7 ff ff       	callq  5455 <safe_div_func_int16_t_s_s>
    7cc9:	0f be c0             	movsbl %al,%eax
    7ccc:	89 c7                	mov    %eax,%edi
    7cce:	e8 ec d4 ff ff       	callq  51bf <safe_unary_minus_func_int8_t_s>
    7cd3:	0f be c0             	movsbl %al,%eax
    7cd6:	41 39 c6             	cmp    %eax,%r14d
    7cd9:	0f 9e c0             	setle  %al
    7cdc:	0f b6 c0             	movzbl %al,%eax
    7cdf:	89 de                	mov    %ebx,%esi
    7ce1:	89 c7                	mov    %eax,%edi
    7ce3:	e8 1d d9 ff ff       	callq  5605 <safe_sub_func_int32_t_s_s>
    7ce8:	85 c0                	test   %eax,%eax
    7cea:	74 1a                	je     7d06 <func_8+0x53b>
    7cec:	48 8b 85 50 f8 ff ff 	mov    -0x7b0(%rbp),%rax
    7cf3:	48 8b 00             	mov    (%rax),%rax
    7cf6:	48 8b 00             	mov    (%rax),%rax
    7cf9:	8b 00                	mov    (%rax),%eax
    7cfb:	85 c0                	test   %eax,%eax
    7cfd:	74 07                	je     7d06 <func_8+0x53b>
    7cff:	ba 01 00 00 00       	mov    $0x1,%edx
    7d04:	eb 05                	jmp    7d0b <func_8+0x540>
    7d06:	ba 00 00 00 00       	mov    $0x0,%edx
    7d0b:	48 8b 05 be 00 01 00 	mov    0x100be(%rip),%rax        # 17dd0 <g_180>
    7d12:	89 10                	mov    %edx,(%rax)
    7d14:	be fe ff ff ff       	mov    $0xfffffffe,%esi
    7d19:	bf 01 00 00 00       	mov    $0x1,%edi
    7d1e:	e8 cf d4 ff ff       	callq  51f2 <safe_sub_func_int8_t_s_s>
    7d23:	0f b6 45 d2          	movzbl -0x2e(%rbp),%eax
    7d27:	3c 01                	cmp    $0x1,%al
    7d29:	0f 96 c0             	setbe  %al
    7d2c:	0f b6 d0             	movzbl %al,%edx
    7d2f:	8b 05 7f e2 00 00    	mov    0xe27f(%rip),%eax        # 15fb4 <g_433+0x14>
    7d35:	48 98                	cltq   
    7d37:	48 89 d6             	mov    %rdx,%rsi
    7d3a:	48 89 c7             	mov    %rax,%rdi
    7d3d:	e8 09 e3 ff ff       	callq  604b <safe_sub_func_uint64_t_u_u>
    7d42:	48 89 c2             	mov    %rax,%rdx
    7d45:	48 8b 85 60 f8 ff ff 	mov    -0x7a0(%rbp),%rax
    7d4c:	0f b6 00             	movzbl (%rax),%eax
    7d4f:	21 c2                	and    %eax,%edx
    7d51:	48 8b 85 60 f8 ff ff 	mov    -0x7a0(%rbp),%rax
    7d58:	88 10                	mov    %dl,(%rax)
    7d5a:	48 8b 85 60 f8 ff ff 	mov    -0x7a0(%rbp),%rax
    7d61:	0f b6 00             	movzbl (%rax),%eax
    7d64:	0f b6 c0             	movzbl %al,%eax
    7d67:	83 e0 63             	and    $0x63,%eax
    7d6a:	48 89 c2             	mov    %rax,%rdx
    7d6d:	8b 05 f9 e1 00 00    	mov    0xe1f9(%rip),%eax        # 15f6c <g_315+0xc>
    7d73:	48 98                	cltq   
    7d75:	48 31 d0             	xor    %rdx,%rax
    7d78:	48 89 c6             	mov    %rax,%rsi
    7d7b:	bf 01 00 00 00       	mov    $0x1,%edi
    7d80:	e8 2f dc ff ff       	callq  59b4 <safe_mod_func_int64_t_s_s>
    7d85:	80 bd aa f7 ff ff 00 	cmpb   $0x0,-0x856(%rbp)
    7d8c:	74 06                	je     7d94 <func_8+0x5c9>
    7d8e:	0f b6 45 d1          	movzbl -0x2f(%rbp),%eax
    7d92:	84 c0                	test   %al,%al
    7d94:	0f b6 45 d3          	movzbl -0x2d(%rbp),%eax
    7d98:	0f b6 c0             	movzbl %al,%eax
    7d9b:	be 01 00 00 00       	mov    $0x1,%esi
    7da0:	89 c7                	mov    %eax,%edi
    7da2:	e8 0f d8 ff ff       	callq  55b6 <safe_add_func_int32_t_s_s>
    7da7:	89 85 ac f7 ff ff    	mov    %eax,-0x854(%rbp)
    7dad:	8b 05 b1 d2 00 00    	mov    0xd2b1(%rip),%eax        # 15064 <g_17>
    7db3:	83 e8 01             	sub    $0x1,%eax
    7db6:	89 05 a8 d2 00 00    	mov    %eax,0xd2a8(%rip)        # 15064 <g_17>
    7dbc:	8b 05 a2 d2 00 00    	mov    0xd2a2(%rip),%eax        # 15064 <g_17>
    7dc2:	85 c0                	test   %eax,%eax
    7dc4:	0f 89 22 fc ff ff    	jns    79ec <func_8+0x221>
    7dca:	8b 05 80 d2 00 00    	mov    0xd280(%rip),%eax        # 15050 <g_12+0x10>
    7dd0:	0f b6 c0             	movzbl %al,%eax
    7dd3:	be 07 00 00 00       	mov    $0x7,%esi
    7dd8:	89 c7                	mov    %eax,%edi
    7dda:	e8 7b dd ff ff       	callq  5b5a <safe_add_func_uint8_t_u_u>
    7ddf:	0f b6 c0             	movzbl %al,%eax
    7de2:	89 05 68 d2 00 00    	mov    %eax,0xd268(%rip)        # 15050 <g_12+0x10>
    7de8:	8b 05 62 d2 00 00    	mov    0xd262(%rip),%eax        # 15050 <g_12+0x10>
    7dee:	83 f8 04             	cmp    $0x4,%eax
    7df1:	0f 8e d1 fb ff ff    	jle    79c8 <func_8+0x1fd>
    7df7:	8b 85 d8 f7 ff ff    	mov    -0x828(%rbp),%eax
    7dfd:	48 8b 4d d8          	mov    -0x28(%rbp),%rcx
    7e01:	64 48 33 0c 25 28 00 	xor    %fs:0x28,%rcx
    7e08:	00 00 
    7e0a:	74 05                	je     7e11 <func_8+0x646>
    7e0c:	e8 5f d2 ff ff       	callq  5070 <__stack_chk_fail@plt>
    7e11:	48 81 c4 50 08 00 00 	add    $0x850,%rsp
    7e18:	5b                   	pop    %rbx
    7e19:	41 5c                	pop    %r12
    7e1b:	41 5d                	pop    %r13
    7e1d:	41 5e                	pop    %r14
    7e1f:	5d                   	pop    %rbp
    7e20:	c3                   	retq   

0000000000007e21 <func_22>:
    7e21:	f3 0f 1e fa          	endbr64 
    7e25:	55                   	push   %rbp
    7e26:	48 89 e5             	mov    %rsp,%rbp
    7e29:	89 7d ec             	mov    %edi,-0x14(%rbp)
    7e2c:	c7 45 fc ff ff ff ff 	movl   $0xffffffff,-0x4(%rbp)
    7e33:	83 45 fc 01          	addl   $0x1,-0x4(%rbp)
    7e37:	8b 45 fc             	mov    -0x4(%rbp),%eax
    7e3a:	5d                   	pop    %rbp
    7e3b:	c3                   	retq   

0000000000007e3c <func_31>:
    7e3c:	f3 0f 1e fa          	endbr64 
    7e40:	55                   	push   %rbp
    7e41:	48 89 e5             	mov    %rsp,%rbp
    7e44:	41 56                	push   %r14
    7e46:	41 55                	push   %r13
    7e48:	41 54                	push   %r12
    7e4a:	53                   	push   %rbx
    7e4b:	48 81 ec 00 10 00 00 	sub    $0x1000,%rsp
    7e52:	48 83 0c 24 00       	orq    $0x0,(%rsp)
    7e57:	48 81 ec 80 01 00 00 	sub    $0x180,%rsp
    7e5e:	89 f8                	mov    %edi,%eax
    7e60:	48 89 b5 70 ee ff ff 	mov    %rsi,-0x1190(%rbp)
    7e67:	48 89 95 68 ee ff ff 	mov    %rdx,-0x1198(%rbp)
    7e6e:	66 89 85 7c ee ff ff 	mov    %ax,-0x1184(%rbp)
    7e75:	64 48 8b 04 25 28 00 	mov    %fs:0x28,%rax
    7e7c:	00 00 
    7e7e:	48 89 45 d8          	mov    %rax,-0x28(%rbp)
    7e82:	31 c0                	xor    %eax,%eax
    7e84:	48 c7 85 18 ef ff ff 	movq   $0x0,-0x10e8(%rbp)
    7e8b:	00 00 00 00 
    7e8f:	48 8d 05 0a ff 00 00 	lea    0xff0a(%rip),%rax        # 17da0 <g_11>
    7e96:	48 89 85 60 ef ff ff 	mov    %rax,-0x10a0(%rbp)
    7e9d:	48 c7 85 68 ef ff ff 	movq   $0x0,-0x1098(%rbp)
    7ea4:	00 00 00 00 
    7ea8:	66 c7 85 e0 f1 ff ff 	movw   $0xf87e,-0xe20(%rbp)
    7eaf:	7e f8 
    7eb1:	66 c7 85 e2 f1 ff ff 	movw   $0x1,-0xe1e(%rbp)
    7eb8:	01 00 
    7eba:	66 c7 85 e4 f1 ff ff 	movw   $0xf87e,-0xe1c(%rbp)
    7ec1:	7e f8 
    7ec3:	66 c7 85 e6 f1 ff ff 	movw   $0xf3c6,-0xe1a(%rbp)
    7eca:	c6 f3 
    7ecc:	66 c7 85 e8 f1 ff ff 	movw   $0x5e63,-0xe18(%rbp)
    7ed3:	63 5e 
    7ed5:	66 c7 85 ea f1 ff ff 	movw   $0x5e63,-0xe16(%rbp)
    7edc:	63 5e 
    7ede:	66 c7 85 ec f1 ff ff 	movw   $0xf3c6,-0xe14(%rbp)
    7ee5:	c6 f3 
    7ee7:	66 c7 85 ee f1 ff ff 	movw   $0xf87e,-0xe12(%rbp)
    7eee:	7e f8 
    7ef0:	66 c7 85 f0 f1 ff ff 	movw   $0x1,-0xe10(%rbp)
    7ef7:	01 00 
    7ef9:	66 c7 85 f2 f1 ff ff 	movw   $0xf87e,-0xe0e(%rbp)
    7f00:	7e f8 
    7f02:	66 c7 85 f4 f1 ff ff 	movw   $0xf3c6,-0xe0c(%rbp)
    7f09:	c6 f3 
    7f0b:	66 c7 85 f6 f1 ff ff 	movw   $0x5e63,-0xe0a(%rbp)
    7f12:	63 5e 
    7f14:	66 c7 85 f8 f1 ff ff 	movw   $0x5e63,-0xe08(%rbp)
    7f1b:	63 5e 
    7f1d:	66 c7 85 fa f1 ff ff 	movw   $0xf3c6,-0xe06(%rbp)
    7f24:	c6 f3 
    7f26:	66 c7 85 fc f1 ff ff 	movw   $0xf87e,-0xe04(%rbp)
    7f2d:	7e f8 
    7f2f:	66 c7 85 fe f1 ff ff 	movw   $0x1,-0xe02(%rbp)
    7f36:	01 00 
    7f38:	66 c7 85 00 f2 ff ff 	movw   $0xf87e,-0xe00(%rbp)
    7f3f:	7e f8 
    7f41:	66 c7 85 02 f2 ff ff 	movw   $0xf3c6,-0xdfe(%rbp)
    7f48:	c6 f3 
    7f4a:	66 c7 85 04 f2 ff ff 	movw   $0x5e63,-0xdfc(%rbp)
    7f51:	63 5e 
    7f53:	66 c7 85 06 f2 ff ff 	movw   $0x5e63,-0xdfa(%rbp)
    7f5a:	63 5e 
    7f5c:	66 c7 85 08 f2 ff ff 	movw   $0xf3c6,-0xdf8(%rbp)
    7f63:	c6 f3 
    7f65:	66 c7 85 0a f2 ff ff 	movw   $0xf87e,-0xdf6(%rbp)
    7f6c:	7e f8 
    7f6e:	66 c7 85 0c f2 ff ff 	movw   $0x1,-0xdf4(%rbp)
    7f75:	01 00 
    7f77:	66 c7 85 0e f2 ff ff 	movw   $0xf87e,-0xdf2(%rbp)
    7f7e:	7e f8 
    7f80:	66 c7 85 10 f2 ff ff 	movw   $0xf3c6,-0xdf0(%rbp)
    7f87:	c6 f3 
    7f89:	66 c7 85 12 f2 ff ff 	movw   $0x5e63,-0xdee(%rbp)
    7f90:	63 5e 
    7f92:	66 c7 85 14 f2 ff ff 	movw   $0x5e63,-0xdec(%rbp)
    7f99:	63 5e 
    7f9b:	66 c7 85 16 f2 ff ff 	movw   $0xf3c6,-0xdea(%rbp)
    7fa2:	c6 f3 
    7fa4:	66 c7 85 18 f2 ff ff 	movw   $0xf87e,-0xde8(%rbp)
    7fab:	7e f8 
    7fad:	66 c7 85 1a f2 ff ff 	movw   $0x1,-0xde6(%rbp)
    7fb4:	01 00 
    7fb6:	66 c7 85 1c f2 ff ff 	movw   $0xf87e,-0xde4(%rbp)
    7fbd:	7e f8 
    7fbf:	66 c7 85 1e f2 ff ff 	movw   $0xf3c6,-0xde2(%rbp)
    7fc6:	c6 f3 
    7fc8:	66 c7 85 20 f2 ff ff 	movw   $0x5e63,-0xde0(%rbp)
    7fcf:	63 5e 
    7fd1:	66 c7 85 22 f2 ff ff 	movw   $0x5e63,-0xdde(%rbp)
    7fd8:	63 5e 
    7fda:	66 c7 85 24 f2 ff ff 	movw   $0xf3c6,-0xddc(%rbp)
    7fe1:	c6 f3 
    7fe3:	66 c7 85 26 f2 ff ff 	movw   $0xf87e,-0xdda(%rbp)
    7fea:	7e f8 
    7fec:	66 c7 85 28 f2 ff ff 	movw   $0x1,-0xdd8(%rbp)
    7ff3:	01 00 
    7ff5:	66 c7 85 2a f2 ff ff 	movw   $0xf87e,-0xdd6(%rbp)
    7ffc:	7e f8 
    7ffe:	66 c7 85 2c f2 ff ff 	movw   $0xf3c6,-0xdd4(%rbp)
    8005:	c6 f3 
    8007:	66 c7 85 2e f2 ff ff 	movw   $0x5e63,-0xdd2(%rbp)
    800e:	63 5e 
    8010:	66 c7 85 30 f2 ff ff 	movw   $0x5e63,-0xdd0(%rbp)
    8017:	63 5e 
    8019:	66 c7 85 32 f2 ff ff 	movw   $0xf3c6,-0xdce(%rbp)
    8020:	c6 f3 
    8022:	66 c7 85 34 f2 ff ff 	movw   $0xf87e,-0xdcc(%rbp)
    8029:	7e f8 
    802b:	66 c7 85 36 f2 ff ff 	movw   $0x1,-0xdca(%rbp)
    8032:	01 00 
    8034:	66 c7 85 38 f2 ff ff 	movw   $0xf87e,-0xdc8(%rbp)
    803b:	7e f8 
    803d:	66 c7 85 3a f2 ff ff 	movw   $0xf3c6,-0xdc6(%rbp)
    8044:	c6 f3 
    8046:	66 c7 85 3c f2 ff ff 	movw   $0x5e63,-0xdc4(%rbp)
    804d:	63 5e 
    804f:	66 c7 85 3e f2 ff ff 	movw   $0x5e63,-0xdc2(%rbp)
    8056:	63 5e 
    8058:	66 c7 85 40 f2 ff ff 	movw   $0xf3c6,-0xdc0(%rbp)
    805f:	c6 f3 
    8061:	66 c7 85 42 f2 ff ff 	movw   $0xf87e,-0xdbe(%rbp)
    8068:	7e f8 
    806a:	66 c7 85 44 f2 ff ff 	movw   $0x1,-0xdbc(%rbp)
    8071:	01 00 
    8073:	66 c7 85 46 f2 ff ff 	movw   $0xf87e,-0xdba(%rbp)
    807a:	7e f8 
    807c:	66 c7 85 48 f2 ff ff 	movw   $0xf3c6,-0xdb8(%rbp)
    8083:	c6 f3 
    8085:	66 c7 85 4a f2 ff ff 	movw   $0x5e63,-0xdb6(%rbp)
    808c:	63 5e 
    808e:	66 c7 85 4c f2 ff ff 	movw   $0x5e63,-0xdb4(%rbp)
    8095:	63 5e 
    8097:	66 c7 85 4e f2 ff ff 	movw   $0xf3c6,-0xdb2(%rbp)
    809e:	c6 f3 
    80a0:	66 c7 85 50 f2 ff ff 	movw   $0xf87e,-0xdb0(%rbp)
    80a7:	7e f8 
    80a9:	66 c7 85 52 f2 ff ff 	movw   $0x1,-0xdae(%rbp)
    80b0:	01 00 
    80b2:	66 c7 85 54 f2 ff ff 	movw   $0xf87e,-0xdac(%rbp)
    80b9:	7e f8 
    80bb:	66 c7 85 56 f2 ff ff 	movw   $0xf3c6,-0xdaa(%rbp)
    80c2:	c6 f3 
    80c4:	66 c7 85 58 f2 ff ff 	movw   $0x5e63,-0xda8(%rbp)
    80cb:	63 5e 
    80cd:	66 c7 85 5a f2 ff ff 	movw   $0x5e63,-0xda6(%rbp)
    80d4:	63 5e 
    80d6:	66 c7 85 5c f2 ff ff 	movw   $0xf3c6,-0xda4(%rbp)
    80dd:	c6 f3 
    80df:	48 c7 85 70 ef ff ff 	movq   $0x0,-0x1090(%rbp)
    80e6:	00 00 00 00 
    80ea:	48 8d 05 67 fd 00 00 	lea    0xfd67(%rip),%rax        # 17e58 <g_456>
    80f1:	48 89 85 20 ef ff ff 	mov    %rax,-0x10e0(%rbp)
    80f8:	c7 85 d4 ee ff ff f6 	movl   $0xfffffff6,-0x112c(%rbp)
    80ff:	ff ff ff 
    8102:	48 b8 79 97 90 1d 3b 	movabs $0x1bb6ca3b1d909779,%rax
    8109:	ca b6 1b 
    810c:	48 89 85 78 ef ff ff 	mov    %rax,-0x1088(%rbp)
    8113:	48 8d 85 e0 f2 ff ff 	lea    -0xd20(%rbp),%rax
    811a:	48 8d 15 1f 89 00 00 	lea    0x891f(%rip),%rdx        # 10a40 <g_905+0x9b0>
    8121:	b9 24 00 00 00       	mov    $0x24,%ecx
    8126:	48 89 c7             	mov    %rax,%rdi
    8129:	48 89 d6             	mov    %rdx,%rsi
    812c:	f3 48 a5             	rep movsq %ds:(%rsi),%es:(%rdi)
    812f:	c7 85 d8 ee ff ff 03 	movl   $0x3,-0x1128(%rbp)
    8136:	00 00 00 
    8139:	c7 85 dc ee ff ff 03 	movl   $0x3b22fe03,-0x1124(%rbp)
    8140:	fe 22 3b 
    8143:	c7 85 98 ee ff ff 05 	movl   $0x5,-0x1168(%rbp)
    814a:	00 00 00 
    814d:	c7 85 9c ee ff ff 00 	movl   $0x0,-0x1164(%rbp)
    8154:	00 00 00 
    8157:	c7 85 e0 ee ff ff 28 	movl   $0xa6394228,-0x1120(%rbp)
    815e:	42 39 a6 
    8161:	c7 85 a0 ee ff ff 08 	movl   $0x8,-0x1160(%rbp)
    8168:	00 00 00 
    816b:	c7 85 a4 ee ff ff e4 	movl   $0xb79f83e4,-0x115c(%rbp)
    8172:	83 9f b7 
    8175:	c7 85 e0 f0 ff ff df 	movl   $0x4998f7df,-0xf20(%rbp)
    817c:	f7 98 49 
    817f:	c7 85 e4 f0 ff ff df 	movl   $0x4998f7df,-0xf1c(%rbp)
    8186:	f7 98 49 
    8189:	c7 85 e8 f0 ff ff df 	movl   $0x4998f7df,-0xf18(%rbp)
    8190:	f7 98 49 
    8193:	c7 85 ec f0 ff ff df 	movl   $0x4998f7df,-0xf14(%rbp)
    819a:	f7 98 49 
    819d:	c7 85 f0 f0 ff ff df 	movl   $0x4998f7df,-0xf10(%rbp)
    81a4:	f7 98 49 
    81a7:	c7 85 f4 f0 ff ff df 	movl   $0x4998f7df,-0xf0c(%rbp)
    81ae:	f7 98 49 
    81b1:	c7 85 f8 f0 ff ff df 	movl   $0x4998f7df,-0xf08(%rbp)
    81b8:	f7 98 49 
    81bb:	c7 85 fc f0 ff ff df 	movl   $0x4998f7df,-0xf04(%rbp)
    81c2:	f7 98 49 
    81c5:	c7 85 00 f1 ff ff df 	movl   $0x4998f7df,-0xf00(%rbp)
    81cc:	f7 98 49 
    81cf:	66 c7 85 8e ee ff ff 	movw   $0xffff,-0x1172(%rbp)
    81d6:	ff ff 
    81d8:	48 8d 05 3b d9 00 00 	lea    0xd93b(%rip),%rax        # 15b1a <g_132>
    81df:	48 89 85 28 ef ff ff 	mov    %rax,-0x10d8(%rbp)
    81e6:	48 8d 85 28 ef ff ff 	lea    -0x10d8(%rbp),%rax
    81ed:	48 89 85 00 f4 ff ff 	mov    %rax,-0xc00(%rbp)
    81f4:	48 8d 85 28 ef ff ff 	lea    -0x10d8(%rbp),%rax
    81fb:	48 89 85 08 f4 ff ff 	mov    %rax,-0xbf8(%rbp)
    8202:	48 8d 85 28 ef ff ff 	lea    -0x10d8(%rbp),%rax
    8209:	48 89 85 10 f4 ff ff 	mov    %rax,-0xbf0(%rbp)
    8210:	48 8d 85 28 ef ff ff 	lea    -0x10d8(%rbp),%rax
    8217:	48 89 85 18 f4 ff ff 	mov    %rax,-0xbe8(%rbp)
    821e:	48 8d 85 28 ef ff ff 	lea    -0x10d8(%rbp),%rax
    8225:	48 89 85 20 f4 ff ff 	mov    %rax,-0xbe0(%rbp)
    822c:	48 8d 85 28 ef ff ff 	lea    -0x10d8(%rbp),%rax
    8233:	48 89 85 28 f4 ff ff 	mov    %rax,-0xbd8(%rbp)
    823a:	48 8d 85 28 ef ff ff 	lea    -0x10d8(%rbp),%rax
    8241:	48 89 85 30 f4 ff ff 	mov    %rax,-0xbd0(%rbp)
    8248:	48 8d 85 28 ef ff ff 	lea    -0x10d8(%rbp),%rax
    824f:	48 89 85 38 f4 ff ff 	mov    %rax,-0xbc8(%rbp)
    8256:	48 c7 85 40 f4 ff ff 	movq   $0x0,-0xbc0(%rbp)
    825d:	00 00 00 00 
    8261:	48 c7 85 48 f4 ff ff 	movq   $0x0,-0xbb8(%rbp)
    8268:	00 00 00 00 
    826c:	48 8d 85 28 ef ff ff 	lea    -0x10d8(%rbp),%rax
    8273:	48 89 85 50 f4 ff ff 	mov    %rax,-0xbb0(%rbp)
    827a:	48 c7 85 58 f4 ff ff 	movq   $0x0,-0xba8(%rbp)
    8281:	00 00 00 00 
    8285:	48 8d 85 28 ef ff ff 	lea    -0x10d8(%rbp),%rax
    828c:	48 89 85 60 f4 ff ff 	mov    %rax,-0xba0(%rbp)
    8293:	48 8d 85 28 ef ff ff 	lea    -0x10d8(%rbp),%rax
    829a:	48 89 85 68 f4 ff ff 	mov    %rax,-0xb98(%rbp)
    82a1:	48 8d 85 28 ef ff ff 	lea    -0x10d8(%rbp),%rax
    82a8:	48 89 85 70 f4 ff ff 	mov    %rax,-0xb90(%rbp)
    82af:	48 c7 85 78 f4 ff ff 	movq   $0x0,-0xb88(%rbp)
    82b6:	00 00 00 00 
    82ba:	48 8d 85 28 ef ff ff 	lea    -0x10d8(%rbp),%rax
    82c1:	48 89 85 80 f4 ff ff 	mov    %rax,-0xb80(%rbp)
    82c8:	48 8d 85 28 ef ff ff 	lea    -0x10d8(%rbp),%rax
    82cf:	48 89 85 88 f4 ff ff 	mov    %rax,-0xb78(%rbp)
    82d6:	48 8d 85 28 ef ff ff 	lea    -0x10d8(%rbp),%rax
    82dd:	48 89 85 90 f4 ff ff 	mov    %rax,-0xb70(%rbp)
    82e4:	48 c7 85 98 f4 ff ff 	movq   $0x0,-0xb68(%rbp)
    82eb:	00 00 00 00 
    82ef:	48 8d 85 28 ef ff ff 	lea    -0x10d8(%rbp),%rax
    82f6:	48 89 85 a0 f4 ff ff 	mov    %rax,-0xb60(%rbp)
    82fd:	48 8d 85 28 ef ff ff 	lea    -0x10d8(%rbp),%rax
    8304:	48 89 85 a8 f4 ff ff 	mov    %rax,-0xb58(%rbp)
    830b:	48 c7 85 b0 f4 ff ff 	movq   $0x0,-0xb50(%rbp)
    8312:	00 00 00 00 
    8316:	48 8d 85 28 ef ff ff 	lea    -0x10d8(%rbp),%rax
    831d:	48 89 85 b8 f4 ff ff 	mov    %rax,-0xb48(%rbp)
    8324:	48 8d 85 28 ef ff ff 	lea    -0x10d8(%rbp),%rax
    832b:	48 89 85 c0 f4 ff ff 	mov    %rax,-0xb40(%rbp)
    8332:	48 8d 85 28 ef ff ff 	lea    -0x10d8(%rbp),%rax
    8339:	48 89 85 c8 f4 ff ff 	mov    %rax,-0xb38(%rbp)
    8340:	48 8d 85 28 ef ff ff 	lea    -0x10d8(%rbp),%rax
    8347:	48 89 85 d0 f4 ff ff 	mov    %rax,-0xb30(%rbp)
    834e:	48 8d 85 28 ef ff ff 	lea    -0x10d8(%rbp),%rax
    8355:	48 89 85 d8 f4 ff ff 	mov    %rax,-0xb28(%rbp)
    835c:	48 c7 85 e0 f4 ff ff 	movq   $0x0,-0xb20(%rbp)
    8363:	00 00 00 00 
    8367:	48 c7 85 e8 f4 ff ff 	movq   $0x0,-0xb18(%rbp)
    836e:	00 00 00 00 
    8372:	48 8d 85 28 ef ff ff 	lea    -0x10d8(%rbp),%rax
    8379:	48 89 85 f0 f4 ff ff 	mov    %rax,-0xb10(%rbp)
    8380:	48 8d 85 28 ef ff ff 	lea    -0x10d8(%rbp),%rax
    8387:	48 89 85 f8 f4 ff ff 	mov    %rax,-0xb08(%rbp)
    838e:	48 8d 85 28 ef ff ff 	lea    -0x10d8(%rbp),%rax
    8395:	48 89 85 00 f5 ff ff 	mov    %rax,-0xb00(%rbp)
    839c:	48 c7 85 08 f5 ff ff 	movq   $0x0,-0xaf8(%rbp)
    83a3:	00 00 00 00 
    83a7:	48 8d 85 28 ef ff ff 	lea    -0x10d8(%rbp),%rax
    83ae:	48 89 85 10 f5 ff ff 	mov    %rax,-0xaf0(%rbp)
    83b5:	48 8d 85 28 ef ff ff 	lea    -0x10d8(%rbp),%rax
    83bc:	48 89 85 18 f5 ff ff 	mov    %rax,-0xae8(%rbp)
    83c3:	48 c7 85 20 f5 ff ff 	movq   $0x0,-0xae0(%rbp)
    83ca:	00 00 00 00 
    83ce:	48 8d 85 28 ef ff ff 	lea    -0x10d8(%rbp),%rax
    83d5:	48 89 85 28 f5 ff ff 	mov    %rax,-0xad8(%rbp)
    83dc:	48 8d 85 28 ef ff ff 	lea    -0x10d8(%rbp),%rax
    83e3:	48 89 85 30 f5 ff ff 	mov    %rax,-0xad0(%rbp)
    83ea:	48 8d 85 28 ef ff ff 	lea    -0x10d8(%rbp),%rax
    83f1:	48 89 85 38 f5 ff ff 	mov    %rax,-0xac8(%rbp)
    83f8:	48 8d 85 28 ef ff ff 	lea    -0x10d8(%rbp),%rax
    83ff:	48 89 85 40 f5 ff ff 	mov    %rax,-0xac0(%rbp)
    8406:	48 8d 85 28 ef ff ff 	lea    -0x10d8(%rbp),%rax
    840d:	48 89 85 48 f5 ff ff 	mov    %rax,-0xab8(%rbp)
    8414:	48 8d 85 28 ef ff ff 	lea    -0x10d8(%rbp),%rax
    841b:	48 89 85 50 f5 ff ff 	mov    %rax,-0xab0(%rbp)
    8422:	48 8d 85 28 ef ff ff 	lea    -0x10d8(%rbp),%rax
    8429:	48 89 85 58 f5 ff ff 	mov    %rax,-0xaa8(%rbp)
    8430:	48 c7 85 60 f5 ff ff 	movq   $0x0,-0xaa0(%rbp)
    8437:	00 00 00 00 
    843b:	48 8d 85 28 ef ff ff 	lea    -0x10d8(%rbp),%rax
    8442:	48 89 85 68 f5 ff ff 	mov    %rax,-0xa98(%rbp)
    8449:	48 8d 85 28 ef ff ff 	lea    -0x10d8(%rbp),%rax
    8450:	48 89 85 70 f5 ff ff 	mov    %rax,-0xa90(%rbp)
    8457:	48 8d 85 28 ef ff ff 	lea    -0x10d8(%rbp),%rax
    845e:	48 89 85 78 f5 ff ff 	mov    %rax,-0xa88(%rbp)
    8465:	48 8d 85 28 ef ff ff 	lea    -0x10d8(%rbp),%rax
    846c:	48 89 85 80 f5 ff ff 	mov    %rax,-0xa80(%rbp)
    8473:	48 8d 85 28 ef ff ff 	lea    -0x10d8(%rbp),%rax
    847a:	48 89 85 88 f5 ff ff 	mov    %rax,-0xa78(%rbp)
    8481:	48 c7 85 90 f5 ff ff 	movq   $0x0,-0xa70(%rbp)
    8488:	00 00 00 00 
    848c:	48 8d 85 28 ef ff ff 	lea    -0x10d8(%rbp),%rax
    8493:	48 89 85 98 f5 ff ff 	mov    %rax,-0xa68(%rbp)
    849a:	48 8d 85 28 ef ff ff 	lea    -0x10d8(%rbp),%rax
    84a1:	48 89 85 a0 f5 ff ff 	mov    %rax,-0xa60(%rbp)
    84a8:	48 8d 85 28 ef ff ff 	lea    -0x10d8(%rbp),%rax
    84af:	48 89 85 a8 f5 ff ff 	mov    %rax,-0xa58(%rbp)
    84b6:	48 8d 85 28 ef ff ff 	lea    -0x10d8(%rbp),%rax
    84bd:	48 89 85 b0 f5 ff ff 	mov    %rax,-0xa50(%rbp)
    84c4:	48 8d 85 28 ef ff ff 	lea    -0x10d8(%rbp),%rax
    84cb:	48 89 85 b8 f5 ff ff 	mov    %rax,-0xa48(%rbp)
    84d2:	48 c7 85 c0 f5 ff ff 	movq   $0x0,-0xa40(%rbp)
    84d9:	00 00 00 00 
    84dd:	48 8d 85 28 ef ff ff 	lea    -0x10d8(%rbp),%rax
    84e4:	48 89 85 c8 f5 ff ff 	mov    %rax,-0xa38(%rbp)
    84eb:	48 8d 85 28 ef ff ff 	lea    -0x10d8(%rbp),%rax
    84f2:	48 89 85 d0 f5 ff ff 	mov    %rax,-0xa30(%rbp)
    84f9:	48 8d 85 28 ef ff ff 	lea    -0x10d8(%rbp),%rax
    8500:	48 89 85 d8 f5 ff ff 	mov    %rax,-0xa28(%rbp)
    8507:	48 8d 85 28 ef ff ff 	lea    -0x10d8(%rbp),%rax
    850e:	48 89 85 e0 f5 ff ff 	mov    %rax,-0xa20(%rbp)
    8515:	48 c7 85 e8 f5 ff ff 	movq   $0x0,-0xa18(%rbp)
    851c:	00 00 00 00 
    8520:	48 c7 85 f0 f5 ff ff 	movq   $0x0,-0xa10(%rbp)
    8527:	00 00 00 00 
    852b:	48 8d 85 28 ef ff ff 	lea    -0x10d8(%rbp),%rax
    8532:	48 89 85 f8 f5 ff ff 	mov    %rax,-0xa08(%rbp)
    8539:	48 c7 85 00 f6 ff ff 	movq   $0x0,-0xa00(%rbp)
    8540:	00 00 00 00 
    8544:	48 8d 85 28 ef ff ff 	lea    -0x10d8(%rbp),%rax
    854b:	48 89 85 08 f6 ff ff 	mov    %rax,-0x9f8(%rbp)
    8552:	48 c7 85 10 f6 ff ff 	movq   $0x0,-0x9f0(%rbp)
    8559:	00 00 00 00 
    855d:	48 c7 85 18 f6 ff ff 	movq   $0x0,-0x9e8(%rbp)
    8564:	00 00 00 00 
    8568:	48 8d 85 28 ef ff ff 	lea    -0x10d8(%rbp),%rax
    856f:	48 89 85 20 f6 ff ff 	mov    %rax,-0x9e0(%rbp)
    8576:	48 c7 85 28 f6 ff ff 	movq   $0x0,-0x9d8(%rbp)
    857d:	00 00 00 00 
    8581:	48 8d 85 28 ef ff ff 	lea    -0x10d8(%rbp),%rax
    8588:	48 89 85 30 f6 ff ff 	mov    %rax,-0x9d0(%rbp)
    858f:	48 c7 85 38 f6 ff ff 	movq   $0x0,-0x9c8(%rbp)
    8596:	00 00 00 00 
    859a:	48 8d 85 28 ef ff ff 	lea    -0x10d8(%rbp),%rax
    85a1:	48 89 85 40 f6 ff ff 	mov    %rax,-0x9c0(%rbp)
    85a8:	48 8d 85 28 ef ff ff 	lea    -0x10d8(%rbp),%rax
    85af:	48 89 85 48 f6 ff ff 	mov    %rax,-0x9b8(%rbp)
    85b6:	48 8d 85 28 ef ff ff 	lea    -0x10d8(%rbp),%rax
    85bd:	48 89 85 50 f6 ff ff 	mov    %rax,-0x9b0(%rbp)
    85c4:	48 8d 85 28 ef ff ff 	lea    -0x10d8(%rbp),%rax
    85cb:	48 89 85 58 f6 ff ff 	mov    %rax,-0x9a8(%rbp)
    85d2:	48 8d 85 28 ef ff ff 	lea    -0x10d8(%rbp),%rax
    85d9:	48 89 85 60 f6 ff ff 	mov    %rax,-0x9a0(%rbp)
    85e0:	48 8d 85 28 ef ff ff 	lea    -0x10d8(%rbp),%rax
    85e7:	48 89 85 68 f6 ff ff 	mov    %rax,-0x998(%rbp)
    85ee:	48 8d 85 28 ef ff ff 	lea    -0x10d8(%rbp),%rax
    85f5:	48 89 85 70 f6 ff ff 	mov    %rax,-0x990(%rbp)
    85fc:	48 8d 85 28 ef ff ff 	lea    -0x10d8(%rbp),%rax
    8603:	48 89 85 78 f6 ff ff 	mov    %rax,-0x988(%rbp)
    860a:	48 8d 85 28 ef ff ff 	lea    -0x10d8(%rbp),%rax
    8611:	48 89 85 80 f6 ff ff 	mov    %rax,-0x980(%rbp)
    8618:	48 c7 85 88 f6 ff ff 	movq   $0x0,-0x978(%rbp)
    861f:	00 00 00 00 
    8623:	48 8d 85 28 ef ff ff 	lea    -0x10d8(%rbp),%rax
    862a:	48 89 85 90 f6 ff ff 	mov    %rax,-0x970(%rbp)
    8631:	48 8d 85 28 ef ff ff 	lea    -0x10d8(%rbp),%rax
    8638:	48 89 85 98 f6 ff ff 	mov    %rax,-0x968(%rbp)
    863f:	48 8d 85 28 ef ff ff 	lea    -0x10d8(%rbp),%rax
    8646:	48 89 85 a0 f6 ff ff 	mov    %rax,-0x960(%rbp)
    864d:	48 8d 85 28 ef ff ff 	lea    -0x10d8(%rbp),%rax
    8654:	48 89 85 a8 f6 ff ff 	mov    %rax,-0x958(%rbp)
    865b:	48 8d 85 28 ef ff ff 	lea    -0x10d8(%rbp),%rax
    8662:	48 89 85 b0 f6 ff ff 	mov    %rax,-0x950(%rbp)
    8669:	48 8d 85 28 ef ff ff 	lea    -0x10d8(%rbp),%rax
    8670:	48 89 85 b8 f6 ff ff 	mov    %rax,-0x948(%rbp)
    8677:	48 c7 85 c0 f6 ff ff 	movq   $0x0,-0x940(%rbp)
    867e:	00 00 00 00 
    8682:	48 8d 85 28 ef ff ff 	lea    -0x10d8(%rbp),%rax
    8689:	48 89 85 c8 f6 ff ff 	mov    %rax,-0x938(%rbp)
    8690:	48 8d 85 28 ef ff ff 	lea    -0x10d8(%rbp),%rax
    8697:	48 89 85 d0 f6 ff ff 	mov    %rax,-0x930(%rbp)
    869e:	48 c7 85 d8 f6 ff ff 	movq   $0x0,-0x928(%rbp)
    86a5:	00 00 00 00 
    86a9:	48 8d 85 28 ef ff ff 	lea    -0x10d8(%rbp),%rax
    86b0:	48 89 85 e0 f6 ff ff 	mov    %rax,-0x920(%rbp)
    86b7:	48 8d 85 28 ef ff ff 	lea    -0x10d8(%rbp),%rax
    86be:	48 89 85 e8 f6 ff ff 	mov    %rax,-0x918(%rbp)
    86c5:	48 c7 85 f0 f6 ff ff 	movq   $0x0,-0x910(%rbp)
    86cc:	00 00 00 00 
    86d0:	48 c7 85 f8 f6 ff ff 	movq   $0x0,-0x908(%rbp)
    86d7:	00 00 00 00 
    86db:	48 8d 85 28 ef ff ff 	lea    -0x10d8(%rbp),%rax
    86e2:	48 89 85 00 f7 ff ff 	mov    %rax,-0x900(%rbp)
    86e9:	48 c7 85 08 f7 ff ff 	movq   $0x0,-0x8f8(%rbp)
    86f0:	00 00 00 00 
    86f4:	48 c7 85 10 f7 ff ff 	movq   $0x0,-0x8f0(%rbp)
    86fb:	00 00 00 00 
    86ff:	48 8d 85 28 ef ff ff 	lea    -0x10d8(%rbp),%rax
    8706:	48 89 85 18 f7 ff ff 	mov    %rax,-0x8e8(%rbp)
    870d:	48 c7 85 20 f7 ff ff 	movq   $0x0,-0x8e0(%rbp)
    8714:	00 00 00 00 
    8718:	48 8d 85 28 ef ff ff 	lea    -0x10d8(%rbp),%rax
    871f:	48 89 85 28 f7 ff ff 	mov    %rax,-0x8d8(%rbp)
    8726:	48 8d 85 28 ef ff ff 	lea    -0x10d8(%rbp),%rax
    872d:	48 89 85 30 f7 ff ff 	mov    %rax,-0x8d0(%rbp)
    8734:	48 8d 85 28 ef ff ff 	lea    -0x10d8(%rbp),%rax
    873b:	48 89 85 38 f7 ff ff 	mov    %rax,-0x8c8(%rbp)
    8742:	48 c7 85 40 f7 ff ff 	movq   $0x0,-0x8c0(%rbp)
    8749:	00 00 00 00 
    874d:	48 8d 85 28 ef ff ff 	lea    -0x10d8(%rbp),%rax
    8754:	48 89 85 48 f7 ff ff 	mov    %rax,-0x8b8(%rbp)
    875b:	48 8d 85 28 ef ff ff 	lea    -0x10d8(%rbp),%rax
    8762:	48 89 85 50 f7 ff ff 	mov    %rax,-0x8b0(%rbp)
    8769:	48 c7 85 58 f7 ff ff 	movq   $0x0,-0x8a8(%rbp)
    8770:	00 00 00 00 
    8774:	48 8d 85 28 ef ff ff 	lea    -0x10d8(%rbp),%rax
    877b:	48 89 85 60 f7 ff ff 	mov    %rax,-0x8a0(%rbp)
    8782:	48 c7 85 68 f7 ff ff 	movq   $0x0,-0x898(%rbp)
    8789:	00 00 00 00 
    878d:	48 8d 85 28 ef ff ff 	lea    -0x10d8(%rbp),%rax
    8794:	48 89 85 70 f7 ff ff 	mov    %rax,-0x890(%rbp)
    879b:	48 8d 85 28 ef ff ff 	lea    -0x10d8(%rbp),%rax
    87a2:	48 89 85 78 f7 ff ff 	mov    %rax,-0x888(%rbp)
    87a9:	48 8d 85 28 ef ff ff 	lea    -0x10d8(%rbp),%rax
    87b0:	48 89 85 80 f7 ff ff 	mov    %rax,-0x880(%rbp)
    87b7:	48 c7 85 88 f7 ff ff 	movq   $0x0,-0x878(%rbp)
    87be:	00 00 00 00 
    87c2:	48 8d 85 28 ef ff ff 	lea    -0x10d8(%rbp),%rax
    87c9:	48 89 85 90 f7 ff ff 	mov    %rax,-0x870(%rbp)
    87d0:	48 8d 85 28 ef ff ff 	lea    -0x10d8(%rbp),%rax
    87d7:	48 89 85 98 f7 ff ff 	mov    %rax,-0x868(%rbp)
    87de:	48 8d 85 28 ef ff ff 	lea    -0x10d8(%rbp),%rax
    87e5:	48 89 85 a0 f7 ff ff 	mov    %rax,-0x860(%rbp)
    87ec:	48 8d 85 28 ef ff ff 	lea    -0x10d8(%rbp),%rax
    87f3:	48 89 85 a8 f7 ff ff 	mov    %rax,-0x858(%rbp)
    87fa:	48 8d 85 28 ef ff ff 	lea    -0x10d8(%rbp),%rax
    8801:	48 89 85 b0 f7 ff ff 	mov    %rax,-0x850(%rbp)
    8808:	48 8d 85 28 ef ff ff 	lea    -0x10d8(%rbp),%rax
    880f:	48 89 85 b8 f7 ff ff 	mov    %rax,-0x848(%rbp)
    8816:	48 8d 85 28 ef ff ff 	lea    -0x10d8(%rbp),%rax
    881d:	48 89 85 c0 f7 ff ff 	mov    %rax,-0x840(%rbp)
    8824:	48 8d 85 28 ef ff ff 	lea    -0x10d8(%rbp),%rax
    882b:	48 89 85 c8 f7 ff ff 	mov    %rax,-0x838(%rbp)
    8832:	48 8d 85 28 ef ff ff 	lea    -0x10d8(%rbp),%rax
    8839:	48 89 85 d0 f7 ff ff 	mov    %rax,-0x830(%rbp)
    8840:	48 8d 85 28 ef ff ff 	lea    -0x10d8(%rbp),%rax
    8847:	48 89 85 d8 f7 ff ff 	mov    %rax,-0x828(%rbp)
    884e:	48 8d 85 28 ef ff ff 	lea    -0x10d8(%rbp),%rax
    8855:	48 89 85 e0 f7 ff ff 	mov    %rax,-0x820(%rbp)
    885c:	48 8d 85 28 ef ff ff 	lea    -0x10d8(%rbp),%rax
    8863:	48 89 85 e8 f7 ff ff 	mov    %rax,-0x818(%rbp)
    886a:	48 8d 85 28 ef ff ff 	lea    -0x10d8(%rbp),%rax
    8871:	48 89 85 f0 f7 ff ff 	mov    %rax,-0x810(%rbp)
    8878:	48 8d 85 28 ef ff ff 	lea    -0x10d8(%rbp),%rax
    887f:	48 89 85 f8 f7 ff ff 	mov    %rax,-0x808(%rbp)
    8886:	48 8d 85 28 ef ff ff 	lea    -0x10d8(%rbp),%rax
    888d:	48 89 85 00 f8 ff ff 	mov    %rax,-0x800(%rbp)
    8894:	48 8d 85 28 ef ff ff 	lea    -0x10d8(%rbp),%rax
    889b:	48 89 85 08 f8 ff ff 	mov    %rax,-0x7f8(%rbp)
    88a2:	48 8d 85 28 ef ff ff 	lea    -0x10d8(%rbp),%rax
    88a9:	48 89 85 10 f8 ff ff 	mov    %rax,-0x7f0(%rbp)
    88b0:	48 c7 85 18 f8 ff ff 	movq   $0x0,-0x7e8(%rbp)
    88b7:	00 00 00 00 
    88bb:	48 c7 85 20 f8 ff ff 	movq   $0x0,-0x7e0(%rbp)
    88c2:	00 00 00 00 
    88c6:	48 c7 85 28 f8 ff ff 	movq   $0x0,-0x7d8(%rbp)
    88cd:	00 00 00 00 
    88d1:	48 c7 85 30 f8 ff ff 	movq   $0x0,-0x7d0(%rbp)
    88d8:	00 00 00 00 
    88dc:	48 c7 85 38 f8 ff ff 	movq   $0x0,-0x7c8(%rbp)
    88e3:	00 00 00 00 
    88e7:	48 8d 85 28 ef ff ff 	lea    -0x10d8(%rbp),%rax
    88ee:	48 89 85 40 f8 ff ff 	mov    %rax,-0x7c0(%rbp)
    88f5:	48 8d 85 28 ef ff ff 	lea    -0x10d8(%rbp),%rax
    88fc:	48 89 85 48 f8 ff ff 	mov    %rax,-0x7b8(%rbp)
    8903:	48 8d 85 28 ef ff ff 	lea    -0x10d8(%rbp),%rax
    890a:	48 89 85 50 f8 ff ff 	mov    %rax,-0x7b0(%rbp)
    8911:	48 8d 85 28 ef ff ff 	lea    -0x10d8(%rbp),%rax
    8918:	48 89 85 58 f8 ff ff 	mov    %rax,-0x7a8(%rbp)
    891f:	48 8d 85 28 ef ff ff 	lea    -0x10d8(%rbp),%rax
    8926:	48 89 85 60 f8 ff ff 	mov    %rax,-0x7a0(%rbp)
    892d:	48 8d 85 28 ef ff ff 	lea    -0x10d8(%rbp),%rax
    8934:	48 89 85 68 f8 ff ff 	mov    %rax,-0x798(%rbp)
    893b:	48 c7 85 70 f8 ff ff 	movq   $0x0,-0x790(%rbp)
    8942:	00 00 00 00 
    8946:	48 c7 85 78 f8 ff ff 	movq   $0x0,-0x788(%rbp)
    894d:	00 00 00 00 
    8951:	48 8d 85 28 ef ff ff 	lea    -0x10d8(%rbp),%rax
    8958:	48 89 85 80 f8 ff ff 	mov    %rax,-0x780(%rbp)
    895f:	48 8d 85 28 ef ff ff 	lea    -0x10d8(%rbp),%rax
    8966:	48 89 85 88 f8 ff ff 	mov    %rax,-0x778(%rbp)
    896d:	48 c7 85 90 f8 ff ff 	movq   $0x0,-0x770(%rbp)
    8974:	00 00 00 00 
    8978:	48 8d 85 28 ef ff ff 	lea    -0x10d8(%rbp),%rax
    897f:	48 89 85 98 f8 ff ff 	mov    %rax,-0x768(%rbp)
    8986:	48 8d 85 28 ef ff ff 	lea    -0x10d8(%rbp),%rax
    898d:	48 89 85 a0 f8 ff ff 	mov    %rax,-0x760(%rbp)
    8994:	48 8d 85 28 ef ff ff 	lea    -0x10d8(%rbp),%rax
    899b:	48 89 85 a8 f8 ff ff 	mov    %rax,-0x758(%rbp)
    89a2:	48 8d 85 28 ef ff ff 	lea    -0x10d8(%rbp),%rax
    89a9:	48 89 85 b0 f8 ff ff 	mov    %rax,-0x750(%rbp)
    89b0:	48 8d 85 28 ef ff ff 	lea    -0x10d8(%rbp),%rax
    89b7:	48 89 85 b8 f8 ff ff 	mov    %rax,-0x748(%rbp)
    89be:	48 8d 85 28 ef ff ff 	lea    -0x10d8(%rbp),%rax
    89c5:	48 89 85 c0 f8 ff ff 	mov    %rax,-0x740(%rbp)
    89cc:	48 8d 85 28 ef ff ff 	lea    -0x10d8(%rbp),%rax
    89d3:	48 89 85 c8 f8 ff ff 	mov    %rax,-0x738(%rbp)
    89da:	48 8d 85 28 ef ff ff 	lea    -0x10d8(%rbp),%rax
    89e1:	48 89 85 d0 f8 ff ff 	mov    %rax,-0x730(%rbp)
    89e8:	48 c7 85 d8 f8 ff ff 	movq   $0x0,-0x728(%rbp)
    89ef:	00 00 00 00 
    89f3:	48 8d 85 28 ef ff ff 	lea    -0x10d8(%rbp),%rax
    89fa:	48 89 85 e0 f8 ff ff 	mov    %rax,-0x720(%rbp)
    8a01:	48 8d 85 28 ef ff ff 	lea    -0x10d8(%rbp),%rax
    8a08:	48 89 85 e8 f8 ff ff 	mov    %rax,-0x718(%rbp)
    8a0f:	48 8d 85 28 ef ff ff 	lea    -0x10d8(%rbp),%rax
    8a16:	48 89 85 f0 f8 ff ff 	mov    %rax,-0x710(%rbp)
    8a1d:	48 8d 85 28 ef ff ff 	lea    -0x10d8(%rbp),%rax
    8a24:	48 89 85 f8 f8 ff ff 	mov    %rax,-0x708(%rbp)
    8a2b:	48 c7 85 00 f9 ff ff 	movq   $0x0,-0x700(%rbp)
    8a32:	00 00 00 00 
    8a36:	48 8d 85 28 ef ff ff 	lea    -0x10d8(%rbp),%rax
    8a3d:	48 89 85 08 f9 ff ff 	mov    %rax,-0x6f8(%rbp)
    8a44:	48 c7 85 10 f9 ff ff 	movq   $0x0,-0x6f0(%rbp)
    8a4b:	00 00 00 00 
    8a4f:	48 8d 85 28 ef ff ff 	lea    -0x10d8(%rbp),%rax
    8a56:	48 89 85 18 f9 ff ff 	mov    %rax,-0x6e8(%rbp)
    8a5d:	48 8d 85 28 ef ff ff 	lea    -0x10d8(%rbp),%rax
    8a64:	48 89 85 20 f9 ff ff 	mov    %rax,-0x6e0(%rbp)
    8a6b:	48 8d 85 28 ef ff ff 	lea    -0x10d8(%rbp),%rax
    8a72:	48 89 85 28 f9 ff ff 	mov    %rax,-0x6d8(%rbp)
    8a79:	48 8d 85 28 ef ff ff 	lea    -0x10d8(%rbp),%rax
    8a80:	48 89 85 30 f9 ff ff 	mov    %rax,-0x6d0(%rbp)
    8a87:	48 8d 85 28 ef ff ff 	lea    -0x10d8(%rbp),%rax
    8a8e:	48 89 85 38 f9 ff ff 	mov    %rax,-0x6c8(%rbp)
    8a95:	48 8d 85 40 f1 ff ff 	lea    -0xec0(%rbp),%rax
    8a9c:	48 83 c0 08          	add    $0x8,%rax
    8aa0:	48 89 85 80 ef ff ff 	mov    %rax,-0x1080(%rbp)
    8aa7:	48 8d 05 02 f3 00 00 	lea    0xf302(%rip),%rax        # 17db0 <g_141>
    8aae:	48 89 85 30 ef ff ff 	mov    %rax,-0x10d0(%rbp)
    8ab5:	48 8d 85 30 ef ff ff 	lea    -0x10d0(%rbp),%rax
    8abc:	48 89 85 88 ef ff ff 	mov    %rax,-0x1078(%rbp)
    8ac3:	48 8d 05 e6 f3 00 00 	lea    0xf3e6(%rip),%rax        # 17eb0 <g_648>
    8aca:	48 89 85 38 ef ff ff 	mov    %rax,-0x10c8(%rbp)
    8ad1:	48 8d 85 38 ef ff ff 	lea    -0x10c8(%rbp),%rax
    8ad8:	48 89 85 40 ef ff ff 	mov    %rax,-0x10c0(%rbp)
    8adf:	48 8d 85 40 ef ff ff 	lea    -0x10c0(%rbp),%rax
    8ae6:	48 89 85 90 ef ff ff 	mov    %rax,-0x1070(%rbp)
    8aed:	c7 85 e4 ee ff ff 73 	movl   $0x15348173,-0x111c(%rbp)
    8af4:	81 34 15 
    8af7:	c6 85 8b ee ff ff 01 	movb   $0x1,-0x1175(%rbp)
    8afe:	c7 85 60 f2 ff ff 7f 	movl   $0x601f4d7f,-0xda0(%rbp)
    8b05:	4d 1f 60 
    8b08:	c7 85 64 f2 ff ff 7f 	movl   $0x601f4d7f,-0xd9c(%rbp)
    8b0f:	4d 1f 60 
    8b12:	c7 85 68 f2 ff ff 09 	movl   $0x9,-0xd98(%rbp)
    8b19:	00 00 00 
    8b1c:	c7 85 6c f2 ff ff 78 	movl   $0xff3b0f78,-0xd94(%rbp)
    8b23:	0f 3b ff 
    8b26:	c7 85 70 f2 ff ff 09 	movl   $0x9,-0xd90(%rbp)
    8b2d:	00 00 00 
    8b30:	c7 85 74 f2 ff ff 7f 	movl   $0x601f4d7f,-0xd8c(%rbp)
    8b37:	4d 1f 60 
    8b3a:	c7 85 78 f2 ff ff 7f 	movl   $0x601f4d7f,-0xd88(%rbp)
    8b41:	4d 1f 60 
    8b44:	c7 85 7c f2 ff ff 09 	movl   $0x9,-0xd84(%rbp)
    8b4b:	00 00 00 
    8b4e:	c7 85 80 f2 ff ff 06 	movl   $0x6,-0xd80(%rbp)
    8b55:	00 00 00 
    8b58:	c7 85 84 f2 ff ff 09 	movl   $0x9,-0xd7c(%rbp)
    8b5f:	00 00 00 
    8b62:	c7 85 88 f2 ff ff 09 	movl   $0x9,-0xd78(%rbp)
    8b69:	00 00 00 
    8b6c:	c7 85 8c f2 ff ff 06 	movl   $0x6,-0xd74(%rbp)
    8b73:	00 00 00 
    8b76:	c7 85 90 f2 ff ff 01 	movl   $0x1,-0xd70(%rbp)
    8b7d:	00 00 00 
    8b80:	c7 85 94 f2 ff ff 06 	movl   $0x6,-0xd6c(%rbp)
    8b87:	00 00 00 
    8b8a:	c7 85 98 f2 ff ff 09 	movl   $0x9,-0xd68(%rbp)
    8b91:	00 00 00 
    8b94:	c7 85 9c f2 ff ff 09 	movl   $0x9,-0xd64(%rbp)
    8b9b:	00 00 00 
    8b9e:	c7 85 a0 f2 ff ff 09 	movl   $0x9,-0xd60(%rbp)
    8ba5:	00 00 00 
    8ba8:	c7 85 a4 f2 ff ff 01 	movl   $0x1,-0xd5c(%rbp)
    8baf:	00 00 00 
    8bb2:	c7 85 a8 f2 ff ff 78 	movl   $0xff3b0f78,-0xd58(%rbp)
    8bb9:	0f 3b ff 
    8bbc:	c7 85 ac f2 ff ff 78 	movl   $0xff3b0f78,-0xd54(%rbp)
    8bc3:	0f 3b ff 
    8bc6:	c7 85 b0 f2 ff ff 01 	movl   $0x1,-0xd50(%rbp)
    8bcd:	00 00 00 
    8bd0:	c7 85 b4 f2 ff ff 09 	movl   $0x9,-0xd4c(%rbp)
    8bd7:	00 00 00 
    8bda:	c7 85 b8 f2 ff ff 01 	movl   $0x1,-0xd48(%rbp)
    8be1:	00 00 00 
    8be4:	c7 85 bc f2 ff ff 78 	movl   $0xff3b0f78,-0xd44(%rbp)
    8beb:	0f 3b ff 
    8bee:	c7 85 c0 f2 ff ff 06 	movl   $0x6,-0xd40(%rbp)
    8bf5:	00 00 00 
    8bf8:	c7 85 c4 f2 ff ff 01 	movl   $0x1,-0xd3c(%rbp)
    8bff:	00 00 00 
    8c02:	c7 85 c8 f2 ff ff 06 	movl   $0x6,-0xd38(%rbp)
    8c09:	00 00 00 
    8c0c:	c7 85 cc f2 ff ff 09 	movl   $0x9,-0xd34(%rbp)
    8c13:	00 00 00 
    8c16:	c7 85 d0 f2 ff ff 09 	movl   $0x9,-0xd30(%rbp)
    8c1d:	00 00 00 
    8c20:	c7 85 d4 f2 ff ff 06 	movl   $0x6,-0xd2c(%rbp)
    8c27:	00 00 00 
    8c2a:	c7 85 d8 f2 ff ff 01 	movl   $0x1,-0xd28(%rbp)
    8c31:	00 00 00 
    8c34:	c7 85 dc f2 ff ff 06 	movl   $0x6,-0xd24(%rbp)
    8c3b:	00 00 00 
    8c3e:	c7 85 e8 ee ff ff 00 	movl   $0x0,-0x1118(%rbp)
    8c45:	00 00 00 
    8c48:	c7 85 ec ee ff ff 3a 	movl   $0xe74a5c3a,-0x1114(%rbp)
    8c4f:	5c 4a e7 
    8c52:	c7 85 f0 ee ff ff ff 	movl   $0xffffffff,-0x1110(%rbp)
    8c59:	ff ff ff 
    8c5c:	c7 85 a8 ee ff ff 01 	movl   $0x1,-0x1158(%rbp)
    8c63:	00 00 00 
    8c66:	c7 85 ac ee ff ff 00 	movl   $0x0,-0x1154(%rbp)
    8c6d:	00 00 00 
    8c70:	eb 22                	jmp    8c94 <func_31+0xe58>
    8c72:	8b 85 ac ee ff ff    	mov    -0x1154(%rbp),%eax
    8c78:	48 98                	cltq   
    8c7a:	48 8d 95 e0 f2 ff ff 	lea    -0xd20(%rbp),%rdx
    8c81:	48 83 c2 18          	add    $0x18,%rdx
    8c85:	48 89 94 c5 40 f1 ff 	mov    %rdx,-0xec0(%rbp,%rax,8)
    8c8c:	ff 
    8c8d:	83 85 ac ee ff ff 01 	addl   $0x1,-0x1154(%rbp)
    8c94:	83 bd ac ee ff ff 05 	cmpl   $0x5,-0x1154(%rbp)
    8c9b:	7e d5                	jle    8c72 <func_31+0xe36>
    8c9d:	c7 85 ac ee ff ff 00 	movl   $0x0,-0x1154(%rbp)
    8ca4:	00 00 00 
    8ca7:	eb 1b                	jmp    8cc4 <func_31+0xe88>
    8ca9:	8b 85 ac ee ff ff    	mov    -0x1154(%rbp),%eax
    8caf:	48 98                	cltq   
    8cb1:	48 c7 84 c5 80 f0 ff 	movq   $0x5,-0xf80(%rbp,%rax,8)
    8cb8:	ff 05 00 00 00 
    8cbd:	83 85 ac ee ff ff 01 	addl   $0x1,-0x1154(%rbp)
    8cc4:	83 bd ac ee ff ff 00 	cmpl   $0x0,-0x1154(%rbp)
    8ccb:	7e dc                	jle    8ca9 <func_31+0xe6d>
    8ccd:	c7 05 a9 c3 00 00 fe 	movl   $0xfffffffe,0xc3a9(%rip)        # 15080 <g_46>
    8cd4:	ff ff ff 
    8cd7:	e9 24 18 00 00       	jmpq   a500 <func_31+0x26c4>
    8cdc:	48 8d 05 95 c3 00 00 	lea    0xc395(%rip),%rax        # 15078 <g_29+0x8>
    8ce3:	48 89 85 48 ef ff ff 	mov    %rax,-0x10b8(%rbp)
    8cea:	48 8d 05 9f d2 00 00 	lea    0xd29f(%rip),%rax        # 15f90 <g_426>
    8cf1:	48 89 85 98 ef ff ff 	mov    %rax,-0x1068(%rbp)
    8cf8:	c7 85 90 f0 ff ff fd 	movl   $0xfffffffd,-0xf70(%rbp)
    8cff:	ff ff ff 
    8d02:	c7 85 94 f0 ff ff fd 	movl   $0xfffffffd,-0xf6c(%rbp)
    8d09:	ff ff ff 
    8d0c:	c7 85 98 f0 ff ff fd 	movl   $0xfffffffd,-0xf68(%rbp)
    8d13:	ff ff ff 
    8d16:	c7 85 9c f0 ff ff fd 	movl   $0xfffffffd,-0xf64(%rbp)
    8d1d:	ff ff ff 
    8d20:	c7 85 f4 ee ff ff f0 	movl   $0x5f52c4f0,-0x110c(%rbp)
    8d27:	c4 52 5f 
    8d2a:	c7 85 f8 ee ff ff 08 	movl   $0x8,-0x1108(%rbp)
    8d31:	00 00 00 
    8d34:	c7 85 fc ee ff ff e3 	movl   $0x294f59e3,-0x1104(%rbp)
    8d3b:	59 4f 29 
    8d3e:	c7 85 00 ef ff ff cc 	movl   $0xd51c37cc,-0x1100(%rbp)
    8d45:	37 1c d5 
    8d48:	48 8d 85 30 ef ff ff 	lea    -0x10d0(%rbp),%rax
    8d4f:	48 89 85 a0 ef ff ff 	mov    %rax,-0x1060(%rbp)
    8d56:	48 8d 85 40 f1 ff ff 	lea    -0xec0(%rbp),%rax
    8d5d:	48 83 c0 20          	add    $0x20,%rax
    8d61:	48 89 85 a8 ef ff ff 	mov    %rax,-0x1058(%rbp)
    8d68:	48 c7 85 b0 ef ff ff 	movq   $0x0,-0x1050(%rbp)
    8d6f:	00 00 00 00 
    8d73:	48 b8 ab 1f b6 e5 37 	movabs $0x62ee5137e5b61fab,%rax
    8d7a:	51 ee 62 
    8d7d:	48 89 85 70 f1 ff ff 	mov    %rax,-0xe90(%rbp)
    8d84:	48 89 85 78 f1 ff ff 	mov    %rax,-0xe88(%rbp)
    8d8b:	48 89 85 80 f1 ff ff 	mov    %rax,-0xe80(%rbp)
    8d92:	48 89 85 88 f1 ff ff 	mov    %rax,-0xe78(%rbp)
    8d99:	48 89 85 90 f1 ff ff 	mov    %rax,-0xe70(%rbp)
    8da0:	48 89 85 98 f1 ff ff 	mov    %rax,-0xe68(%rbp)
    8da7:	66 c7 85 90 ee ff ff 	movw   $0x5024,-0x1170(%rbp)
    8dae:	24 50 
    8db0:	c7 85 04 ef ff ff f9 	movl   $0xfffffff9,-0x10fc(%rbp)
    8db7:	ff ff ff 
    8dba:	66 c7 85 7c f0 ff ff 	movw   $0xffff,-0xf84(%rbp)
    8dc1:	ff ff 
    8dc3:	66 c7 85 7e f0 ff ff 	movw   $0xffff,-0xf82(%rbp)
    8dca:	ff ff 
    8dcc:	48 8d 05 4d da 00 00 	lea    0xda4d(%rip),%rax        # 16820 <g_1000>
    8dd3:	48 89 85 50 ef ff ff 	mov    %rax,-0x10b0(%rbp)
    8dda:	48 8d 05 39 cd 00 00 	lea    0xcd39(%rip),%rax        # 15b1a <g_132>
    8de1:	48 89 85 b8 ef ff ff 	mov    %rax,-0x1048(%rbp)
    8de8:	c7 85 b0 ee ff ff 00 	movl   $0x0,-0x1150(%rbp)
    8def:	00 00 00 
    8df2:	eb 42                	jmp    8e36 <func_31+0xffa>
    8df4:	c7 85 b4 ee ff ff 00 	movl   $0x0,-0x114c(%rbp)
    8dfb:	00 00 00 
    8dfe:	eb 26                	jmp    8e26 <func_31+0xfea>
    8e00:	8b 85 b4 ee ff ff    	mov    -0x114c(%rbp),%eax
    8e06:	48 63 d0             	movslq %eax,%rdx
    8e09:	8b 85 b0 ee ff ff    	mov    -0x1150(%rbp),%eax
    8e0f:	48 98                	cltq   
    8e11:	48 01 d0             	add    %rdx,%rax
    8e14:	c7 84 85 88 f0 ff ff 	movl   $0x5,-0xf78(%rbp,%rax,4)
    8e1b:	05 00 00 00 
    8e1f:	83 85 b4 ee ff ff 01 	addl   $0x1,-0x114c(%rbp)
    8e26:	83 bd b4 ee ff ff 00 	cmpl   $0x0,-0x114c(%rbp)
    8e2d:	7e d1                	jle    8e00 <func_31+0xfc4>
    8e2f:	83 85 b0 ee ff ff 01 	addl   $0x1,-0x1150(%rbp)
    8e36:	83 bd b0 ee ff ff 01 	cmpl   $0x1,-0x1150(%rbp)
    8e3d:	7e b5                	jle    8df4 <func_31+0xfb8>
    8e3f:	c7 85 b0 ee ff ff 00 	movl   $0x0,-0x1150(%rbp)
    8e46:	00 00 00 
    8e49:	eb 7b                	jmp    8ec6 <func_31+0x108a>
    8e4b:	c7 85 b4 ee ff ff 00 	movl   $0x0,-0x114c(%rbp)
    8e52:	00 00 00 
    8e55:	eb 5f                	jmp    8eb6 <func_31+0x107a>
    8e57:	c7 85 b8 ee ff ff 00 	movl   $0x0,-0x1148(%rbp)
    8e5e:	00 00 00 
    8e61:	eb 43                	jmp    8ea6 <func_31+0x106a>
    8e63:	8b 85 b8 ee ff ff    	mov    -0x1148(%rbp),%eax
    8e69:	48 63 c8             	movslq %eax,%rcx
    8e6c:	8b 85 b0 ee ff ff    	mov    -0x1150(%rbp),%eax
    8e72:	48 63 d0             	movslq %eax,%rdx
    8e75:	8b 85 b4 ee ff ff    	mov    -0x114c(%rbp),%eax
    8e7b:	48 98                	cltq   
    8e7d:	48 01 c2             	add    %rax,%rdx
    8e80:	48 89 d0             	mov    %rdx,%rax
    8e83:	48 01 c0             	add    %rax,%rax
    8e86:	48 01 d0             	add    %rdx,%rax
    8e89:	48 01 c0             	add    %rax,%rax
    8e8c:	48 8d 5d e0          	lea    -0x20(%rbp),%rbx
    8e90:	48 01 d8             	add    %rbx,%rax
    8e93:	48 01 c8             	add    %rcx,%rax
    8e96:	48 2d d0 0e 00 00    	sub    $0xed0,%rax
    8e9c:	c6 00 ff             	movb   $0xff,(%rax)
    8e9f:	83 85 b8 ee ff ff 01 	addl   $0x1,-0x1148(%rbp)
    8ea6:	83 bd b8 ee ff ff 05 	cmpl   $0x5,-0x1148(%rbp)
    8ead:	7e b4                	jle    8e63 <func_31+0x1027>
    8eaf:	83 85 b4 ee ff ff 01 	addl   $0x1,-0x114c(%rbp)
    8eb6:	83 bd b4 ee ff ff 00 	cmpl   $0x0,-0x114c(%rbp)
    8ebd:	7e 98                	jle    8e57 <func_31+0x101b>
    8ebf:	83 85 b0 ee ff ff 01 	addl   $0x1,-0x1150(%rbp)
    8ec6:	83 bd b0 ee ff ff 06 	cmpl   $0x6,-0x1150(%rbp)
    8ecd:	0f 8e 78 ff ff ff    	jle    8e4b <func_31+0x100f>
    8ed3:	48 8b 05 ce ee 00 00 	mov    0xeece(%rip),%rax        # 17da8 <g_10>
    8eda:	48 8b 10             	mov    (%rax),%rdx
    8edd:	48 8b 85 48 ef ff ff 	mov    -0x10b8(%rbp),%rax
    8ee4:	8b 12                	mov    (%rdx),%edx
    8ee6:	89 10                	mov    %edx,(%rax)
    8ee8:	c7 05 92 c1 00 00 17 	movl   $0x17,0xc192(%rip)        # 15084 <g_48>
    8eef:	00 00 00 
    8ef2:	e9 3c 0b 00 00       	jmpq   9a33 <func_31+0x1bf7>
    8ef7:	66 c7 85 94 ee ff ff 	movw   $0x6046,-0x116c(%rbp)
    8efe:	46 60 
    8f00:	48 8d 05 79 c1 00 00 	lea    0xc179(%rip),%rax        # 15080 <g_46>
    8f07:	48 89 85 60 f0 ff ff 	mov    %rax,-0xfa0(%rbp)
    8f0e:	48 8d 05 83 c1 00 00 	lea    0xc183(%rip),%rax        # 15098 <g_64+0x8>
    8f15:	48 89 85 68 f0 ff ff 	mov    %rax,-0xf98(%rbp)
    8f1c:	c7 85 10 ef ff ff 04 	movl   $0x4,-0x10f0(%rbp)
    8f23:	00 00 00 
    8f26:	66 c7 85 8c ee ff ff 	movw   $0x8af7,-0x1174(%rbp)
    8f2d:	f7 8a 
    8f2f:	48 8d 05 6a ee 00 00 	lea    0xee6a(%rip),%rax        # 17da0 <g_11>
    8f36:	48 89 85 40 f9 ff ff 	mov    %rax,-0x6c0(%rbp)
    8f3d:	48 8d 05 74 ee 00 00 	lea    0xee74(%rip),%rax        # 17db8 <g_149>
    8f44:	48 89 85 48 f9 ff ff 	mov    %rax,-0x6b8(%rbp)
    8f4b:	48 c7 85 50 f9 ff ff 	movq   $0x0,-0x6b0(%rbp)
    8f52:	00 00 00 00 
    8f56:	48 c7 85 58 f9 ff ff 	movq   $0x0,-0x6a8(%rbp)
    8f5d:	00 00 00 00 
    8f61:	48 8d 05 50 ee 00 00 	lea    0xee50(%rip),%rax        # 17db8 <g_149>
    8f68:	48 89 85 60 f9 ff ff 	mov    %rax,-0x6a0(%rbp)
    8f6f:	48 c7 85 68 f9 ff ff 	movq   $0x0,-0x698(%rbp)
    8f76:	00 00 00 00 
    8f7a:	48 8d 85 48 ef ff ff 	lea    -0x10b8(%rbp),%rax
    8f81:	48 89 85 70 f9 ff ff 	mov    %rax,-0x690(%rbp)
    8f88:	48 c7 85 78 f9 ff ff 	movq   $0x0,-0x688(%rbp)
    8f8f:	00 00 00 00 
    8f93:	48 8d 05 1e ee 00 00 	lea    0xee1e(%rip),%rax        # 17db8 <g_149>
    8f9a:	48 89 85 80 f9 ff ff 	mov    %rax,-0x680(%rbp)
    8fa1:	48 c7 85 88 f9 ff ff 	movq   $0x0,-0x678(%rbp)
    8fa8:	00 00 00 00 
    8fac:	48 c7 85 90 f9 ff ff 	movq   $0x0,-0x670(%rbp)
    8fb3:	00 00 00 00 
    8fb7:	48 8d 05 fa ed 00 00 	lea    0xedfa(%rip),%rax        # 17db8 <g_149>
    8fbe:	48 89 85 98 f9 ff ff 	mov    %rax,-0x668(%rbp)
    8fc5:	48 8d 05 d4 ed 00 00 	lea    0xedd4(%rip),%rax        # 17da0 <g_11>
    8fcc:	48 89 85 a0 f9 ff ff 	mov    %rax,-0x660(%rbp)
    8fd3:	48 8d 85 48 ef ff ff 	lea    -0x10b8(%rbp),%rax
    8fda:	48 89 85 a8 f9 ff ff 	mov    %rax,-0x658(%rbp)
    8fe1:	48 8d 85 48 ef ff ff 	lea    -0x10b8(%rbp),%rax
    8fe8:	48 89 85 b0 f9 ff ff 	mov    %rax,-0x650(%rbp)
    8fef:	48 8d 05 c2 ed 00 00 	lea    0xedc2(%rip),%rax        # 17db8 <g_149>
    8ff6:	48 89 85 b8 f9 ff ff 	mov    %rax,-0x648(%rbp)
    8ffd:	48 c7 85 c0 f9 ff ff 	movq   $0x0,-0x640(%rbp)
    9004:	00 00 00 00 
    9008:	48 8d 05 a9 ed 00 00 	lea    0xeda9(%rip),%rax        # 17db8 <g_149>
    900f:	48 89 85 c8 f9 ff ff 	mov    %rax,-0x638(%rbp)
    9016:	48 c7 85 d0 f9 ff ff 	movq   $0x0,-0x630(%rbp)
    901d:	00 00 00 00 
    9021:	48 8d 85 48 ef ff ff 	lea    -0x10b8(%rbp),%rax
    9028:	48 89 85 d8 f9 ff ff 	mov    %rax,-0x628(%rbp)
    902f:	48 8d 85 18 ef ff ff 	lea    -0x10e8(%rbp),%rax
    9036:	48 89 85 e0 f9 ff ff 	mov    %rax,-0x620(%rbp)
    903d:	48 8d 85 48 ef ff ff 	lea    -0x10b8(%rbp),%rax
    9044:	48 89 85 e8 f9 ff ff 	mov    %rax,-0x618(%rbp)
    904b:	48 c7 85 f0 f9 ff ff 	movq   $0x0,-0x610(%rbp)
    9052:	00 00 00 00 
    9056:	48 8d 85 48 ef ff ff 	lea    -0x10b8(%rbp),%rax
    905d:	48 89 85 f8 f9 ff ff 	mov    %rax,-0x608(%rbp)
    9064:	48 c7 85 00 fa ff ff 	movq   $0x0,-0x600(%rbp)
    906b:	00 00 00 00 
    906f:	48 c7 85 08 fa ff ff 	movq   $0x0,-0x5f8(%rbp)
    9076:	00 00 00 00 
    907a:	48 8d 85 18 ef ff ff 	lea    -0x10e8(%rbp),%rax
    9081:	48 89 85 10 fa ff ff 	mov    %rax,-0x5f0(%rbp)
    9088:	48 8d 05 29 ed 00 00 	lea    0xed29(%rip),%rax        # 17db8 <g_149>
    908f:	48 89 85 18 fa ff ff 	mov    %rax,-0x5e8(%rbp)
    9096:	48 8d 05 1b ed 00 00 	lea    0xed1b(%rip),%rax        # 17db8 <g_149>
    909d:	48 89 85 20 fa ff ff 	mov    %rax,-0x5e0(%rbp)
    90a4:	48 8d 85 48 ef ff ff 	lea    -0x10b8(%rbp),%rax
    90ab:	48 89 85 28 fa ff ff 	mov    %rax,-0x5d8(%rbp)
    90b2:	48 c7 85 30 fa ff ff 	movq   $0x0,-0x5d0(%rbp)
    90b9:	00 00 00 00 
    90bd:	48 c7 85 38 fa ff ff 	movq   $0x0,-0x5c8(%rbp)
    90c4:	00 00 00 00 
    90c8:	48 8d 05 e9 ec 00 00 	lea    0xece9(%rip),%rax        # 17db8 <g_149>
    90cf:	48 89 85 40 fa ff ff 	mov    %rax,-0x5c0(%rbp)
    90d6:	48 c7 85 48 fa ff ff 	movq   $0x0,-0x5b8(%rbp)
    90dd:	00 00 00 00 
    90e1:	48 8d 85 48 ef ff ff 	lea    -0x10b8(%rbp),%rax
    90e8:	48 89 85 50 fa ff ff 	mov    %rax,-0x5b0(%rbp)
    90ef:	48 8d 85 48 ef ff ff 	lea    -0x10b8(%rbp),%rax
    90f6:	48 89 85 58 fa ff ff 	mov    %rax,-0x5a8(%rbp)
    90fd:	48 8d 05 b4 ec 00 00 	lea    0xecb4(%rip),%rax        # 17db8 <g_149>
    9104:	48 89 85 60 fa ff ff 	mov    %rax,-0x5a0(%rbp)
    910b:	48 8d 85 48 ef ff ff 	lea    -0x10b8(%rbp),%rax
    9112:	48 89 85 68 fa ff ff 	mov    %rax,-0x598(%rbp)
    9119:	48 8d 85 18 ef ff ff 	lea    -0x10e8(%rbp),%rax
    9120:	48 89 85 70 fa ff ff 	mov    %rax,-0x590(%rbp)
    9127:	48 8d 85 48 ef ff ff 	lea    -0x10b8(%rbp),%rax
    912e:	48 89 85 78 fa ff ff 	mov    %rax,-0x588(%rbp)
    9135:	48 c7 85 80 fa ff ff 	movq   $0x0,-0x580(%rbp)
    913c:	00 00 00 00 
    9140:	48 8d 85 48 ef ff ff 	lea    -0x10b8(%rbp),%rax
    9147:	48 89 85 88 fa ff ff 	mov    %rax,-0x578(%rbp)
    914e:	48 8d 85 48 ef ff ff 	lea    -0x10b8(%rbp),%rax
    9155:	48 89 85 90 fa ff ff 	mov    %rax,-0x570(%rbp)
    915c:	48 c7 85 98 fa ff ff 	movq   $0x0,-0x568(%rbp)
    9163:	00 00 00 00 
    9167:	48 8d 05 32 ec 00 00 	lea    0xec32(%rip),%rax        # 17da0 <g_11>
    916e:	48 89 85 a0 fa ff ff 	mov    %rax,-0x560(%rbp)
    9175:	48 8d 85 48 ef ff ff 	lea    -0x10b8(%rbp),%rax
    917c:	48 89 85 a8 fa ff ff 	mov    %rax,-0x558(%rbp)
    9183:	48 8d 05 16 ec 00 00 	lea    0xec16(%rip),%rax        # 17da0 <g_11>
    918a:	48 89 85 b0 fa ff ff 	mov    %rax,-0x550(%rbp)
    9191:	48 c7 85 b8 fa ff ff 	movq   $0x0,-0x548(%rbp)
    9198:	00 00 00 00 
    919c:	48 8d 85 48 ef ff ff 	lea    -0x10b8(%rbp),%rax
    91a3:	48 89 85 c0 fa ff ff 	mov    %rax,-0x540(%rbp)
    91aa:	48 8d 85 48 ef ff ff 	lea    -0x10b8(%rbp),%rax
    91b1:	48 89 85 c8 fa ff ff 	mov    %rax,-0x538(%rbp)
    91b8:	48 c7 85 d0 fa ff ff 	movq   $0x0,-0x530(%rbp)
    91bf:	00 00 00 00 
    91c3:	48 8d 85 48 ef ff ff 	lea    -0x10b8(%rbp),%rax
    91ca:	48 89 85 d8 fa ff ff 	mov    %rax,-0x528(%rbp)
    91d1:	48 8d 85 18 ef ff ff 	lea    -0x10e8(%rbp),%rax
    91d8:	48 89 85 e0 fa ff ff 	mov    %rax,-0x520(%rbp)
    91df:	48 8d 85 48 ef ff ff 	lea    -0x10b8(%rbp),%rax
    91e6:	48 89 85 e8 fa ff ff 	mov    %rax,-0x518(%rbp)
    91ed:	48 8d 05 c4 eb 00 00 	lea    0xebc4(%rip),%rax        # 17db8 <g_149>
    91f4:	48 89 85 f0 fa ff ff 	mov    %rax,-0x510(%rbp)
    91fb:	48 8d 85 48 ef ff ff 	lea    -0x10b8(%rbp),%rax
    9202:	48 89 85 f8 fa ff ff 	mov    %rax,-0x508(%rbp)
    9209:	48 8d 85 48 ef ff ff 	lea    -0x10b8(%rbp),%rax
    9210:	48 89 85 00 fb ff ff 	mov    %rax,-0x500(%rbp)
    9217:	48 c7 85 08 fb ff ff 	movq   $0x0,-0x4f8(%rbp)
    921e:	00 00 00 00 
    9222:	48 8d 05 8f eb 00 00 	lea    0xeb8f(%rip),%rax        # 17db8 <g_149>
    9229:	48 89 85 10 fb ff ff 	mov    %rax,-0x4f0(%rbp)
    9230:	48 c7 85 18 fb ff ff 	movq   $0x0,-0x4e8(%rbp)
    9237:	00 00 00 00 
    923b:	48 c7 85 20 fb ff ff 	movq   $0x0,-0x4e0(%rbp)
    9242:	00 00 00 00 
    9246:	48 8d 85 48 ef ff ff 	lea    -0x10b8(%rbp),%rax
    924d:	48 89 85 28 fb ff ff 	mov    %rax,-0x4d8(%rbp)
    9254:	48 8d 05 5d eb 00 00 	lea    0xeb5d(%rip),%rax        # 17db8 <g_149>
    925b:	48 89 85 30 fb ff ff 	mov    %rax,-0x4d0(%rbp)
    9262:	48 8d 05 4f eb 00 00 	lea    0xeb4f(%rip),%rax        # 17db8 <g_149>
    9269:	48 89 85 38 fb ff ff 	mov    %rax,-0x4c8(%rbp)
    9270:	48 8d 85 18 ef ff ff 	lea    -0x10e8(%rbp),%rax
    9277:	48 89 85 40 fb ff ff 	mov    %rax,-0x4c0(%rbp)
    927e:	48 c7 85 48 fb ff ff 	movq   $0x0,-0x4b8(%rbp)
    9285:	00 00 00 00 
    9289:	48 c7 85 50 fb ff ff 	movq   $0x0,-0x4b0(%rbp)
    9290:	00 00 00 00 
    9294:	48 8d 85 48 ef ff ff 	lea    -0x10b8(%rbp),%rax
    929b:	48 89 85 58 fb ff ff 	mov    %rax,-0x4a8(%rbp)
    92a2:	48 8d 05 f7 ea 00 00 	lea    0xeaf7(%rip),%rax        # 17da0 <g_11>
    92a9:	48 89 85 60 fb ff ff 	mov    %rax,-0x4a0(%rbp)
    92b0:	48 8d 05 01 eb 00 00 	lea    0xeb01(%rip),%rax        # 17db8 <g_149>
    92b7:	48 89 85 68 fb ff ff 	mov    %rax,-0x498(%rbp)
    92be:	48 8d 05 db ea 00 00 	lea    0xeadb(%rip),%rax        # 17da0 <g_11>
    92c5:	48 89 85 70 fb ff ff 	mov    %rax,-0x490(%rbp)
    92cc:	48 8d 05 e5 ea 00 00 	lea    0xeae5(%rip),%rax        # 17db8 <g_149>
    92d3:	48 89 85 78 fb ff ff 	mov    %rax,-0x488(%rbp)
    92da:	48 8d 05 bf ea 00 00 	lea    0xeabf(%rip),%rax        # 17da0 <g_11>
    92e1:	48 89 85 80 fb ff ff 	mov    %rax,-0x480(%rbp)
    92e8:	48 c7 85 88 fb ff ff 	movq   $0x0,-0x478(%rbp)
    92ef:	00 00 00 00 
    92f3:	48 8d 05 a6 ea 00 00 	lea    0xeaa6(%rip),%rax        # 17da0 <g_11>
    92fa:	48 89 85 90 fb ff ff 	mov    %rax,-0x470(%rbp)
    9301:	48 8d 85 48 ef ff ff 	lea    -0x10b8(%rbp),%rax
    9308:	48 89 85 98 fb ff ff 	mov    %rax,-0x468(%rbp)
    930f:	48 c7 85 a0 fb ff ff 	movq   $0x0,-0x460(%rbp)
    9316:	00 00 00 00 
    931a:	48 c7 85 a8 fb ff ff 	movq   $0x0,-0x458(%rbp)
    9321:	00 00 00 00 
    9325:	48 c7 85 b0 fb ff ff 	movq   $0x0,-0x450(%rbp)
    932c:	00 00 00 00 
    9330:	48 8d 85 48 ef ff ff 	lea    -0x10b8(%rbp),%rax
    9337:	48 89 85 b8 fb ff ff 	mov    %rax,-0x448(%rbp)
    933e:	48 8d 05 73 ea 00 00 	lea    0xea73(%rip),%rax        # 17db8 <g_149>
    9345:	48 89 85 c0 fb ff ff 	mov    %rax,-0x440(%rbp)
    934c:	48 8d 85 48 ef ff ff 	lea    -0x10b8(%rbp),%rax
    9353:	48 89 85 c8 fb ff ff 	mov    %rax,-0x438(%rbp)
    935a:	48 8d 85 48 ef ff ff 	lea    -0x10b8(%rbp),%rax
    9361:	48 89 85 d0 fb ff ff 	mov    %rax,-0x430(%rbp)
    9368:	48 c7 85 d8 fb ff ff 	movq   $0x0,-0x428(%rbp)
    936f:	00 00 00 00 
    9373:	48 8d 85 48 ef ff ff 	lea    -0x10b8(%rbp),%rax
    937a:	48 89 85 e0 fb ff ff 	mov    %rax,-0x420(%rbp)
    9381:	48 c7 85 e8 fb ff ff 	movq   $0x0,-0x418(%rbp)
    9388:	00 00 00 00 
    938c:	48 8d 85 48 ef ff ff 	lea    -0x10b8(%rbp),%rax
    9393:	48 89 85 f0 fb ff ff 	mov    %rax,-0x410(%rbp)
    939a:	48 8d 85 48 ef ff ff 	lea    -0x10b8(%rbp),%rax
    93a1:	48 89 85 f8 fb ff ff 	mov    %rax,-0x408(%rbp)
    93a8:	48 8d 05 09 ea 00 00 	lea    0xea09(%rip),%rax        # 17db8 <g_149>
    93af:	48 89 85 00 fc ff ff 	mov    %rax,-0x400(%rbp)
    93b6:	48 8d 85 48 ef ff ff 	lea    -0x10b8(%rbp),%rax
    93bd:	48 89 85 08 fc ff ff 	mov    %rax,-0x3f8(%rbp)
    93c4:	48 c7 85 10 fc ff ff 	movq   $0x0,-0x3f0(%rbp)
    93cb:	00 00 00 00 
    93cf:	48 c7 85 18 fc ff ff 	movq   $0x0,-0x3e8(%rbp)
    93d6:	00 00 00 00 
    93da:	48 c7 85 20 fc ff ff 	movq   $0x0,-0x3e0(%rbp)
    93e1:	00 00 00 00 
    93e5:	48 8d 85 48 ef ff ff 	lea    -0x10b8(%rbp),%rax
    93ec:	48 89 85 28 fc ff ff 	mov    %rax,-0x3d8(%rbp)
    93f3:	48 8d 05 a6 e9 00 00 	lea    0xe9a6(%rip),%rax        # 17da0 <g_11>
    93fa:	48 89 85 30 fc ff ff 	mov    %rax,-0x3d0(%rbp)
    9401:	48 c7 85 38 fc ff ff 	movq   $0x0,-0x3c8(%rbp)
    9408:	00 00 00 00 
    940c:	48 8d 05 8d e9 00 00 	lea    0xe98d(%rip),%rax        # 17da0 <g_11>
    9413:	48 89 85 40 fc ff ff 	mov    %rax,-0x3c0(%rbp)
    941a:	48 8d 05 97 e9 00 00 	lea    0xe997(%rip),%rax        # 17db8 <g_149>
    9421:	48 89 85 48 fc ff ff 	mov    %rax,-0x3b8(%rbp)
    9428:	48 8d 05 71 e9 00 00 	lea    0xe971(%rip),%rax        # 17da0 <g_11>
    942f:	48 89 85 50 fc ff ff 	mov    %rax,-0x3b0(%rbp)
    9436:	48 8d 05 7b e9 00 00 	lea    0xe97b(%rip),%rax        # 17db8 <g_149>
    943d:	48 89 85 58 fc ff ff 	mov    %rax,-0x3a8(%rbp)
    9444:	48 8d 05 55 e9 00 00 	lea    0xe955(%rip),%rax        # 17da0 <g_11>
    944b:	48 89 85 60 fc ff ff 	mov    %rax,-0x3a0(%rbp)
    9452:	48 8d 85 48 ef ff ff 	lea    -0x10b8(%rbp),%rax
    9459:	48 89 85 68 fc ff ff 	mov    %rax,-0x398(%rbp)
    9460:	48 c7 85 70 fc ff ff 	movq   $0x0,-0x390(%rbp)
    9467:	00 00 00 00 
    946b:	48 c7 85 78 fc ff ff 	movq   $0x0,-0x388(%rbp)
    9472:	00 00 00 00 
    9476:	48 8d 85 18 ef ff ff 	lea    -0x10e8(%rbp),%rax
    947d:	48 89 85 80 fc ff ff 	mov    %rax,-0x380(%rbp)
    9484:	48 8d 05 2d e9 00 00 	lea    0xe92d(%rip),%rax        # 17db8 <g_149>
    948b:	48 89 85 88 fc ff ff 	mov    %rax,-0x378(%rbp)
    9492:	48 8d 05 1f e9 00 00 	lea    0xe91f(%rip),%rax        # 17db8 <g_149>
    9499:	48 89 85 90 fc ff ff 	mov    %rax,-0x370(%rbp)
    94a0:	48 8d 85 48 ef ff ff 	lea    -0x10b8(%rbp),%rax
    94a7:	48 89 85 98 fc ff ff 	mov    %rax,-0x368(%rbp)
    94ae:	48 c7 85 a0 fc ff ff 	movq   $0x0,-0x360(%rbp)
    94b5:	00 00 00 00 
    94b9:	48 c7 85 a8 fc ff ff 	movq   $0x0,-0x358(%rbp)
    94c0:	00 00 00 00 
    94c4:	48 8d 05 ed e8 00 00 	lea    0xe8ed(%rip),%rax        # 17db8 <g_149>
    94cb:	48 89 85 b0 fc ff ff 	mov    %rax,-0x350(%rbp)
    94d2:	48 c7 85 b8 fc ff ff 	movq   $0x0,-0x348(%rbp)
    94d9:	00 00 00 00 
    94dd:	48 8d 85 48 ef ff ff 	lea    -0x10b8(%rbp),%rax
    94e4:	48 89 85 c0 fc ff ff 	mov    %rax,-0x340(%rbp)
    94eb:	48 8d 85 48 ef ff ff 	lea    -0x10b8(%rbp),%rax
    94f2:	48 89 85 c8 fc ff ff 	mov    %rax,-0x338(%rbp)
    94f9:	48 8d 05 b8 e8 00 00 	lea    0xe8b8(%rip),%rax        # 17db8 <g_149>
    9500:	48 89 85 d0 fc ff ff 	mov    %rax,-0x330(%rbp)
    9507:	48 8d 85 48 ef ff ff 	lea    -0x10b8(%rbp),%rax
    950e:	48 89 85 d8 fc ff ff 	mov    %rax,-0x328(%rbp)
    9515:	48 8d 85 18 ef ff ff 	lea    -0x10e8(%rbp),%rax
    951c:	48 89 85 e0 fc ff ff 	mov    %rax,-0x320(%rbp)
    9523:	48 8d 85 48 ef ff ff 	lea    -0x10b8(%rbp),%rax
    952a:	48 89 85 e8 fc ff ff 	mov    %rax,-0x318(%rbp)
    9531:	48 c7 85 f0 fc ff ff 	movq   $0x0,-0x310(%rbp)
    9538:	00 00 00 00 
    953c:	48 8d 85 48 ef ff ff 	lea    -0x10b8(%rbp),%rax
    9543:	48 89 85 f8 fc ff ff 	mov    %rax,-0x308(%rbp)
    954a:	48 8d 85 48 ef ff ff 	lea    -0x10b8(%rbp),%rax
    9551:	48 89 85 00 fd ff ff 	mov    %rax,-0x300(%rbp)
    9558:	48 c7 85 08 fd ff ff 	movq   $0x0,-0x2f8(%rbp)
    955f:	00 00 00 00 
    9563:	48 8d 05 36 e8 00 00 	lea    0xe836(%rip),%rax        # 17da0 <g_11>
    956a:	48 89 85 10 fd ff ff 	mov    %rax,-0x2f0(%rbp)
    9571:	48 8d 85 48 ef ff ff 	lea    -0x10b8(%rbp),%rax
    9578:	48 89 85 18 fd ff ff 	mov    %rax,-0x2e8(%rbp)
    957f:	48 8d 05 1a e8 00 00 	lea    0xe81a(%rip),%rax        # 17da0 <g_11>
    9586:	48 89 85 20 fd ff ff 	mov    %rax,-0x2e0(%rbp)
    958d:	48 c7 85 28 fd ff ff 	movq   $0x0,-0x2d8(%rbp)
    9594:	00 00 00 00 
    9598:	48 8d 85 48 ef ff ff 	lea    -0x10b8(%rbp),%rax
    959f:	48 89 85 30 fd ff ff 	mov    %rax,-0x2d0(%rbp)
    95a6:	48 8d 85 48 ef ff ff 	lea    -0x10b8(%rbp),%rax
    95ad:	48 89 85 38 fd ff ff 	mov    %rax,-0x2c8(%rbp)
    95b4:	48 c7 85 40 fd ff ff 	movq   $0x0,-0x2c0(%rbp)
    95bb:	00 00 00 00 
    95bf:	48 8d 85 48 ef ff ff 	lea    -0x10b8(%rbp),%rax
    95c6:	48 89 85 48 fd ff ff 	mov    %rax,-0x2b8(%rbp)
    95cd:	48 8d 85 18 ef ff ff 	lea    -0x10e8(%rbp),%rax
    95d4:	48 89 85 50 fd ff ff 	mov    %rax,-0x2b0(%rbp)
    95db:	48 8d 85 48 ef ff ff 	lea    -0x10b8(%rbp),%rax
    95e2:	48 89 85 58 fd ff ff 	mov    %rax,-0x2a8(%rbp)
    95e9:	48 8d 05 c8 e7 00 00 	lea    0xe7c8(%rip),%rax        # 17db8 <g_149>
    95f0:	48 89 85 60 fd ff ff 	mov    %rax,-0x2a0(%rbp)
    95f7:	48 8d 85 48 ef ff ff 	lea    -0x10b8(%rbp),%rax
    95fe:	48 89 85 68 fd ff ff 	mov    %rax,-0x298(%rbp)
    9605:	48 8d 85 48 ef ff ff 	lea    -0x10b8(%rbp),%rax
    960c:	48 89 85 70 fd ff ff 	mov    %rax,-0x290(%rbp)
    9613:	48 c7 85 78 fd ff ff 	movq   $0x0,-0x288(%rbp)
    961a:	00 00 00 00 
    961e:	48 8d 05 93 e7 00 00 	lea    0xe793(%rip),%rax        # 17db8 <g_149>
    9625:	48 89 85 80 fd ff ff 	mov    %rax,-0x280(%rbp)
    962c:	48 c7 85 88 fd ff ff 	movq   $0x0,-0x278(%rbp)
    9633:	00 00 00 00 
    9637:	48 c7 85 90 fd ff ff 	movq   $0x0,-0x270(%rbp)
    963e:	00 00 00 00 
    9642:	48 8d 85 48 ef ff ff 	lea    -0x10b8(%rbp),%rax
    9649:	48 89 85 98 fd ff ff 	mov    %rax,-0x268(%rbp)
    9650:	48 8d 05 61 e7 00 00 	lea    0xe761(%rip),%rax        # 17db8 <g_149>
    9657:	48 89 85 a0 fd ff ff 	mov    %rax,-0x260(%rbp)
    965e:	48 8d 05 53 e7 00 00 	lea    0xe753(%rip),%rax        # 17db8 <g_149>
    9665:	48 89 85 a8 fd ff ff 	mov    %rax,-0x258(%rbp)
    966c:	48 8d 85 18 ef ff ff 	lea    -0x10e8(%rbp),%rax
    9673:	48 89 85 b0 fd ff ff 	mov    %rax,-0x250(%rbp)
    967a:	48 c7 85 b8 fd ff ff 	movq   $0x0,-0x248(%rbp)
    9681:	00 00 00 00 
    9685:	48 c7 85 c0 fd ff ff 	movq   $0x0,-0x240(%rbp)
    968c:	00 00 00 00 
    9690:	48 8d 85 48 ef ff ff 	lea    -0x10b8(%rbp),%rax
    9697:	48 89 85 c8 fd ff ff 	mov    %rax,-0x238(%rbp)
    969e:	48 8d 05 fb e6 00 00 	lea    0xe6fb(%rip),%rax        # 17da0 <g_11>
    96a5:	48 89 85 d0 fd ff ff 	mov    %rax,-0x230(%rbp)
    96ac:	48 8d 05 05 e7 00 00 	lea    0xe705(%rip),%rax        # 17db8 <g_149>
    96b3:	48 89 85 d8 fd ff ff 	mov    %rax,-0x228(%rbp)
    96ba:	48 8d 05 df e6 00 00 	lea    0xe6df(%rip),%rax        # 17da0 <g_11>
    96c1:	48 89 85 e0 fd ff ff 	mov    %rax,-0x220(%rbp)
    96c8:	48 8d 05 e9 e6 00 00 	lea    0xe6e9(%rip),%rax        # 17db8 <g_149>
    96cf:	48 89 85 e8 fd ff ff 	mov    %rax,-0x218(%rbp)
    96d6:	48 8d 05 c3 e6 00 00 	lea    0xe6c3(%rip),%rax        # 17da0 <g_11>
    96dd:	48 89 85 f0 fd ff ff 	mov    %rax,-0x210(%rbp)
    96e4:	48 c7 85 f8 fd ff ff 	movq   $0x0,-0x208(%rbp)
    96eb:	00 00 00 00 
    96ef:	48 8d 05 aa e6 00 00 	lea    0xe6aa(%rip),%rax        # 17da0 <g_11>
    96f6:	48 89 85 00 fe ff ff 	mov    %rax,-0x200(%rbp)
    96fd:	48 8d 85 48 ef ff ff 	lea    -0x10b8(%rbp),%rax
    9704:	48 89 85 08 fe ff ff 	mov    %rax,-0x1f8(%rbp)
    970b:	48 c7 85 10 fe ff ff 	movq   $0x0,-0x1f0(%rbp)
    9712:	00 00 00 00 
    9716:	48 c7 85 18 fe ff ff 	movq   $0x0,-0x1e8(%rbp)
    971d:	00 00 00 00 
    9721:	48 c7 85 20 fe ff ff 	movq   $0x0,-0x1e0(%rbp)
    9728:	00 00 00 00 
    972c:	48 8d 85 48 ef ff ff 	lea    -0x10b8(%rbp),%rax
    9733:	48 89 85 28 fe ff ff 	mov    %rax,-0x1d8(%rbp)
    973a:	48 8d 05 77 e6 00 00 	lea    0xe677(%rip),%rax        # 17db8 <g_149>
    9741:	48 89 85 30 fe ff ff 	mov    %rax,-0x1d0(%rbp)
    9748:	48 8d 85 48 ef ff ff 	lea    -0x10b8(%rbp),%rax
    974f:	48 89 85 38 fe ff ff 	mov    %rax,-0x1c8(%rbp)
    9756:	48 8d 85 48 ef ff ff 	lea    -0x10b8(%rbp),%rax
    975d:	48 89 85 40 fe ff ff 	mov    %rax,-0x1c0(%rbp)
    9764:	48 c7 85 48 fe ff ff 	movq   $0x0,-0x1b8(%rbp)
    976b:	00 00 00 00 
    976f:	48 8d 85 48 ef ff ff 	lea    -0x10b8(%rbp),%rax
    9776:	48 89 85 50 fe ff ff 	mov    %rax,-0x1b0(%rbp)
    977d:	48 c7 85 58 fe ff ff 	movq   $0x0,-0x1a8(%rbp)
    9784:	00 00 00 00 
    9788:	48 8d 85 48 ef ff ff 	lea    -0x10b8(%rbp),%rax
    978f:	48 89 85 60 fe ff ff 	mov    %rax,-0x1a0(%rbp)
    9796:	48 8d 85 48 ef ff ff 	lea    -0x10b8(%rbp),%rax
    979d:	48 89 85 68 fe ff ff 	mov    %rax,-0x198(%rbp)
    97a4:	48 8d 05 0d e6 00 00 	lea    0xe60d(%rip),%rax        # 17db8 <g_149>
    97ab:	48 89 85 70 fe ff ff 	mov    %rax,-0x190(%rbp)
    97b2:	48 8d 85 48 ef ff ff 	lea    -0x10b8(%rbp),%rax
    97b9:	48 89 85 78 fe ff ff 	mov    %rax,-0x188(%rbp)
    97c0:	48 c7 85 80 fe ff ff 	movq   $0x0,-0x180(%rbp)
    97c7:	00 00 00 00 
    97cb:	48 c7 85 88 fe ff ff 	movq   $0x0,-0x178(%rbp)
    97d2:	00 00 00 00 
    97d6:	48 c7 85 90 fe ff ff 	movq   $0x0,-0x170(%rbp)
    97dd:	00 00 00 00 
    97e1:	48 8d 85 48 ef ff ff 	lea    -0x10b8(%rbp),%rax
    97e8:	48 89 85 98 fe ff ff 	mov    %rax,-0x168(%rbp)
    97ef:	48 8d 05 aa e5 00 00 	lea    0xe5aa(%rip),%rax        # 17da0 <g_11>
    97f6:	48 89 85 a0 fe ff ff 	mov    %rax,-0x160(%rbp)
    97fd:	48 c7 85 a8 fe ff ff 	movq   $0x0,-0x158(%rbp)
    9804:	00 00 00 00 
    9808:	48 8d 05 91 e5 00 00 	lea    0xe591(%rip),%rax        # 17da0 <g_11>
    980f:	48 89 85 b0 fe ff ff 	mov    %rax,-0x150(%rbp)
    9816:	48 8d 05 9b e5 00 00 	lea    0xe59b(%rip),%rax        # 17db8 <g_149>
    981d:	48 89 85 b8 fe ff ff 	mov    %rax,-0x148(%rbp)
    9824:	48 8d 05 75 e5 00 00 	lea    0xe575(%rip),%rax        # 17da0 <g_11>
    982b:	48 89 85 c0 fe ff ff 	mov    %rax,-0x140(%rbp)
    9832:	48 8d 05 7f e5 00 00 	lea    0xe57f(%rip),%rax        # 17db8 <g_149>
    9839:	48 89 85 c8 fe ff ff 	mov    %rax,-0x138(%rbp)
    9840:	48 8d 05 59 e5 00 00 	lea    0xe559(%rip),%rax        # 17da0 <g_11>
    9847:	48 89 85 d0 fe ff ff 	mov    %rax,-0x130(%rbp)
    984e:	48 8d 85 48 ef ff ff 	lea    -0x10b8(%rbp),%rax
    9855:	48 89 85 d8 fe ff ff 	mov    %rax,-0x128(%rbp)
    985c:	48 c7 85 e0 fe ff ff 	movq   $0x0,-0x120(%rbp)
    9863:	00 00 00 00 
    9867:	48 c7 85 e8 fe ff ff 	movq   $0x0,-0x118(%rbp)
    986e:	00 00 00 00 
    9872:	48 8d 85 18 ef ff ff 	lea    -0x10e8(%rbp),%rax
    9879:	48 89 85 f0 fe ff ff 	mov    %rax,-0x110(%rbp)
    9880:	48 8d 05 31 e5 00 00 	lea    0xe531(%rip),%rax        # 17db8 <g_149>
    9887:	48 89 85 f8 fe ff ff 	mov    %rax,-0x108(%rbp)
    988e:	48 8d 05 23 e5 00 00 	lea    0xe523(%rip),%rax        # 17db8 <g_149>
    9895:	48 89 85 00 ff ff ff 	mov    %rax,-0x100(%rbp)
    989c:	48 8d 85 48 ef ff ff 	lea    -0x10b8(%rbp),%rax
    98a3:	48 89 85 08 ff ff ff 	mov    %rax,-0xf8(%rbp)
    98aa:	48 c7 85 10 ff ff ff 	movq   $0x0,-0xf0(%rbp)
    98b1:	00 00 00 00 
    98b5:	48 c7 85 18 ff ff ff 	movq   $0x0,-0xe8(%rbp)
    98bc:	00 00 00 00 
    98c0:	48 8d 05 f1 e4 00 00 	lea    0xe4f1(%rip),%rax        # 17db8 <g_149>
    98c7:	48 89 85 20 ff ff ff 	mov    %rax,-0xe0(%rbp)
    98ce:	48 c7 85 28 ff ff ff 	movq   $0x0,-0xd8(%rbp)
    98d5:	00 00 00 00 
    98d9:	48 8d 85 48 ef ff ff 	lea    -0x10b8(%rbp),%rax
    98e0:	48 89 85 30 ff ff ff 	mov    %rax,-0xd0(%rbp)
    98e7:	48 8d 85 48 ef ff ff 	lea    -0x10b8(%rbp),%rax
    98ee:	48 89 85 38 ff ff ff 	mov    %rax,-0xc8(%rbp)
    98f5:	48 8d 05 bc e4 00 00 	lea    0xe4bc(%rip),%rax        # 17db8 <g_149>
    98fc:	48 89 85 40 ff ff ff 	mov    %rax,-0xc0(%rbp)
    9903:	48 8d 85 48 ef ff ff 	lea    -0x10b8(%rbp),%rax
    990a:	48 89 85 48 ff ff ff 	mov    %rax,-0xb8(%rbp)
    9911:	48 8d 85 18 ef ff ff 	lea    -0x10e8(%rbp),%rax
    9918:	48 89 85 50 ff ff ff 	mov    %rax,-0xb0(%rbp)
    991f:	48 8d 85 48 ef ff ff 	lea    -0x10b8(%rbp),%rax
    9926:	48 89 85 58 ff ff ff 	mov    %rax,-0xa8(%rbp)
    992d:	48 c7 85 60 ff ff ff 	movq   $0x0,-0xa0(%rbp)
    9934:	00 00 00 00 
    9938:	48 8d 85 48 ef ff ff 	lea    -0x10b8(%rbp),%rax
    993f:	48 89 85 68 ff ff ff 	mov    %rax,-0x98(%rbp)
    9946:	48 8d 85 48 ef ff ff 	lea    -0x10b8(%rbp),%rax
    994d:	48 89 85 70 ff ff ff 	mov    %rax,-0x90(%rbp)
    9954:	48 c7 85 78 ff ff ff 	movq   $0x0,-0x88(%rbp)
    995b:	00 00 00 00 
    995f:	48 8d 05 3a e4 00 00 	lea    0xe43a(%rip),%rax        # 17da0 <g_11>
    9966:	48 89 45 80          	mov    %rax,-0x80(%rbp)
    996a:	48 8d 85 48 ef ff ff 	lea    -0x10b8(%rbp),%rax
    9971:	48 89 45 88          	mov    %rax,-0x78(%rbp)
    9975:	48 8d 05 24 e4 00 00 	lea    0xe424(%rip),%rax        # 17da0 <g_11>
    997c:	48 89 45 90          	mov    %rax,-0x70(%rbp)
    9980:	48 c7 45 98 00 00 00 	movq   $0x0,-0x68(%rbp)
    9987:	00 
    9988:	48 8d 85 48 ef ff ff 	lea    -0x10b8(%rbp),%rax
    998f:	48 89 45 a0          	mov    %rax,-0x60(%rbp)
    9993:	48 8d 85 48 ef ff ff 	lea    -0x10b8(%rbp),%rax
    999a:	48 89 45 a8          	mov    %rax,-0x58(%rbp)
    999e:	48 c7 45 b0 00 00 00 	movq   $0x0,-0x50(%rbp)
    99a5:	00 
    99a6:	48 8d 85 48 ef ff ff 	lea    -0x10b8(%rbp),%rax
    99ad:	48 89 45 b8          	mov    %rax,-0x48(%rbp)
    99b1:	48 8d 85 18 ef ff ff 	lea    -0x10e8(%rbp),%rax
    99b8:	48 89 45 c0          	mov    %rax,-0x40(%rbp)
    99bc:	48 8d 85 48 ef ff ff 	lea    -0x10b8(%rbp),%rax
    99c3:	48 89 45 c8          	mov    %rax,-0x38(%rbp)
    99c7:	48 8d 05 e2 e3 00 00 	lea    0xe3e2(%rip),%rax        # 17db0 <g_141>
    99ce:	48 89 85 58 ef ff ff 	mov    %rax,-0x10a8(%rbp)
    99d5:	48 8d 85 58 ef ff ff 	lea    -0x10a8(%rbp),%rax
    99dc:	48 89 85 70 f0 ff ff 	mov    %rax,-0xf90(%rbp)
    99e3:	66 c7 85 96 ee ff ff 	movw   $0x0,-0x116a(%rbp)
    99ea:	00 00 
    99ec:	c7 85 bc ee ff ff 00 	movl   $0x0,-0x1144(%rbp)
    99f3:	00 00 00 
    99f6:	eb 1a                	jmp    9a12 <func_31+0x1bd6>
    99f8:	8b 85 bc ee ff ff    	mov    -0x1144(%rbp),%eax
    99fe:	48 98                	cltq   
    9a00:	c7 84 85 a0 f1 ff ff 	movl   $0xe16f4f5c,-0xe60(%rbp,%rax,4)
    9a07:	5c 4f 6f e1 
    9a0b:	83 85 bc ee ff ff 01 	addl   $0x1,-0x1144(%rbp)
    9a12:	83 bd bc ee ff ff 09 	cmpl   $0x9,-0x1144(%rbp)
    9a19:	7e dd                	jle    99f8 <func_31+0x1bbc>
    9a1b:	8b 05 63 b6 00 00    	mov    0xb663(%rip),%eax        # 15084 <g_48>
    9a21:	be 07 00 00 00       	mov    $0x7,%esi
    9a26:	89 c7                	mov    %eax,%edi
    9a28:	e8 d8 bb ff ff       	callq  5605 <safe_sub_func_int32_t_s_s>
    9a2d:	89 05 51 b6 00 00    	mov    %eax,0xb651(%rip)        # 15084 <g_48>
    9a33:	8b 05 4b b6 00 00    	mov    0xb64b(%rip),%eax        # 15084 <g_48>
    9a39:	83 f8 f0             	cmp    $0xfffffff0,%eax
    9a3c:	0f 85 b5 f4 ff ff    	jne    8ef7 <func_31+0x10bb>
    9a42:	48 8b 85 80 f5 ff ff 	mov    -0xa80(%rbp),%rax
    9a49:	48 85 c0             	test   %rax,%rax
    9a4c:	0f 95 c3             	setne  %bl
    9a4f:	8b 05 ab cd 00 00    	mov    0xcdab(%rip),%eax        # 16800 <g_904>
    9a55:	0f b7 85 7c ee ff ff 	movzwl -0x1184(%rbp),%eax
    9a5c:	0f b7 d0             	movzwl %ax,%edx
    9a5f:	0f b7 85 7c ee ff ff 	movzwl -0x1184(%rbp),%eax
    9a66:	0f b7 c0             	movzwl %ax,%eax
    9a69:	89 d6                	mov    %edx,%esi
    9a6b:	89 c7                	mov    %eax,%edi
    9a6d:	e8 1c c3 ff ff       	callq  5d8e <safe_div_func_uint16_t_u_u>
    9a72:	66 85 c0             	test   %ax,%ax
    9a75:	75 7a                	jne    9af1 <func_31+0x1cb5>
    9a77:	48 8b 85 60 ef ff ff 	mov    -0x10a0(%rbp),%rax
    9a7e:	48 8b 00             	mov    (%rax),%rax
    9a81:	8b 00                	mov    (%rax),%eax
    9a83:	89 c6                	mov    %eax,%esi
    9a85:	bf ff ff 00 00       	mov    $0xffff,%edi
    9a8a:	e8 b9 c3 ff ff       	callq  5e48 <safe_rshift_func_uint16_t_u_s>
    9a8f:	0f b7 d0             	movzwl %ax,%edx
    9a92:	48 8b 05 af c4 00 00 	mov    0xc4af(%rip),%rax        # 15f48 <g_286>
    9a99:	48 39 c2             	cmp    %rax,%rdx
    9a9c:	0f 9c c0             	setl   %al
    9a9f:	0f b6 d0             	movzbl %al,%edx
    9aa2:	48 8b 85 60 ef ff ff 	mov    -0x10a0(%rbp),%rax
    9aa9:	48 8b 00             	mov    (%rax),%rax
    9aac:	8b 00                	mov    (%rax),%eax
    9aae:	39 c2                	cmp    %eax,%edx
    9ab0:	0f 95 c0             	setne  %al
    9ab3:	0f b6 d0             	movzbl %al,%edx
    9ab6:	48 8b 85 68 ee ff ff 	mov    -0x1198(%rbp),%rax
    9abd:	8b 00                	mov    (%rax),%eax
    9abf:	39 c2                	cmp    %eax,%edx
    9ac1:	0f 9e c0             	setle  %al
    9ac4:	0f b6 d0             	movzbl %al,%edx
    9ac7:	0f bf 85 7c ee ff ff 	movswl -0x1184(%rbp),%eax
    9ace:	39 c2                	cmp    %eax,%edx
    9ad0:	0f 9f c0             	setg   %al
    9ad3:	0f b6 c0             	movzbl %al,%eax
    9ad6:	be 00 00 00 00       	mov    $0x0,%esi
    9adb:	89 c7                	mov    %eax,%edi
    9add:	e8 ab c1 ff ff       	callq  5c8d <safe_rshift_func_uint8_t_u_s>
    9ae2:	0f b6 c0             	movzbl %al,%eax
    9ae5:	be 05 00 00 00       	mov    $0x5,%esi
    9aea:	89 c7                	mov    %eax,%edi
    9aec:	e8 72 ba ff ff       	callq  5563 <safe_rshift_func_int16_t_s_u>
    9af1:	ba 01 00 00 00       	mov    $0x1,%edx
    9af6:	0f b7 05 af ec 00 00 	movzwl 0xecaf(%rip),%eax        # 187ac <g_372>
    9afd:	0f b7 c0             	movzwl %ax,%eax
    9b00:	39 c2                	cmp    %eax,%edx
    9b02:	0f 95 c2             	setne  %dl
    9b05:	48 8b 85 30 ef ff ff 	mov    -0x10d0(%rbp),%rax
    9b0c:	48 8b 00             	mov    (%rax),%rax
    9b0f:	0f b6 d2             	movzbl %dl,%edx
    9b12:	48 89 10             	mov    %rdx,(%rax)
    9b15:	48 8b 00             	mov    (%rax),%rax
    9b18:	48 89 c2             	mov    %rax,%rdx
    9b1b:	48 b8 1b d5 c4 d2 1d 	movabs $0xa8826c1dd2c4d51b,%rax
    9b22:	6c 82 a8 
    9b25:	48 21 d0             	and    %rdx,%rax
    9b28:	48 85 c0             	test   %rax,%rax
    9b2b:	48 8b 85 a0 ef ff ff 	mov    -0x1060(%rbp),%rax
    9b32:	48 3b 85 88 ef ff ff 	cmp    -0x1078(%rbp),%rax
    9b39:	0f 95 c0             	setne  %al
    9b3c:	0f b6 c0             	movzbl %al,%eax
    9b3f:	f7 d0                	not    %eax
    9b41:	48 98                	cltq   
    9b43:	48 be 26 d0 ca be c7 	movabs $0x579c55c7becad026,%rsi
    9b4a:	55 9c 57 
    9b4d:	48 89 c7             	mov    %rax,%rdi
    9b50:	e8 a2 be ff ff       	callq  59f7 <safe_div_func_int64_t_s_s>
    9b55:	0f be c0             	movsbl %al,%eax
    9b58:	89 c7                	mov    %eax,%edi
    9b5a:	e8 60 b6 ff ff       	callq  51bf <safe_unary_minus_func_int8_t_s>
    9b5f:	89 c2                	mov    %eax,%edx
    9b61:	48 8b 85 80 ef ff ff 	mov    -0x1080(%rbp),%rax
    9b68:	48 8b 00             	mov    (%rax),%rax
    9b6b:	48 0f be d2          	movsbq %dl,%rdx
    9b6f:	48 89 10             	mov    %rdx,(%rax)
    9b72:	48 8b 85 a8 ef ff ff 	mov    -0x1058(%rbp),%rax
    9b79:	48 3b 85 80 ef ff ff 	cmp    -0x1080(%rbp),%rax
    9b80:	0f 95 c0             	setne  %al
    9b83:	0f b6 c0             	movzbl %al,%eax
    9b86:	66 89 05 b3 c3 00 00 	mov    %ax,0xc3b3(%rip)        # 15f40 <g_231>
    9b8d:	0f b7 05 ac c3 00 00 	movzwl 0xc3ac(%rip),%eax        # 15f40 <g_231>
    9b94:	0f bf d0             	movswl %ax,%edx
    9b97:	48 8b 85 48 ef ff ff 	mov    -0x10b8(%rbp),%rax
    9b9e:	8b 00                	mov    (%rax),%eax
    9ba0:	39 c2                	cmp    %eax,%edx
    9ba2:	0f 9e c0             	setle  %al
    9ba5:	09 d8                	or     %ebx,%eax
    9ba7:	84 c0                	test   %al,%al
    9ba9:	0f 84 f4 04 00 00    	je     a0a3 <func_31+0x2267>
    9baf:	48 c7 85 a0 f1 ff ff 	movq   $0xfffffffffffffffe,-0xe60(%rbp)
    9bb6:	fe ff ff ff 
    9bba:	48 c7 85 a8 f1 ff ff 	movq   $0xfffffffffffffffe,-0xe58(%rbp)
    9bc1:	fe ff ff ff 
    9bc5:	48 c7 85 b0 f1 ff ff 	movq   $0xfffffffffffffffe,-0xe50(%rbp)
    9bcc:	fe ff ff ff 
    9bd0:	48 c7 85 b8 f1 ff ff 	movq   $0xfffffffffffffffe,-0xe48(%rbp)
    9bd7:	fe ff ff ff 
    9bdb:	48 c7 85 c0 f1 ff ff 	movq   $0xfffffffffffffffe,-0xe40(%rbp)
    9be2:	fe ff ff ff 
    9be6:	48 c7 85 c8 f1 ff ff 	movq   $0xfffffffffffffffe,-0xe38(%rbp)
    9bed:	fe ff ff ff 
    9bf1:	48 c7 85 d0 f1 ff ff 	movq   $0xfffffffffffffffe,-0xe30(%rbp)
    9bf8:	fe ff ff ff 
    9bfc:	48 c7 85 d8 f1 ff ff 	movq   $0xfffffffffffffffe,-0xe28(%rbp)
    9c03:	fe ff ff ff 
    9c07:	c7 85 08 ef ff ff 8e 	movl   $0xd70638e,-0x10f8(%rbp)
    9c0e:	63 70 0d 
    9c11:	66 c7 85 8e ee ff ff 	movw   $0x0,-0x1172(%rbp)
    9c18:	00 00 
    9c1a:	e9 60 04 00 00       	jmpq   a07f <func_31+0x2243>
    9c1f:	66 c7 85 92 ee ff ff 	movw   $0xc984,-0x116e(%rbp)
    9c26:	84 c9 
    9c28:	c7 85 0c ef ff ff 54 	movl   $0xec22154,-0x10f4(%rbp)
    9c2f:	21 c2 0e 
    9c32:	c7 85 c0 ee ff ff 00 	movl   $0x0,-0x1140(%rbp)
    9c39:	00 00 00 
    9c3c:	eb 1e                	jmp    9c5c <func_31+0x1e20>
    9c3e:	8b 85 c0 ee ff ff    	mov    -0x1140(%rbp),%eax
    9c44:	48 98                	cltq   
    9c46:	48 8d 15 db be 00 00 	lea    0xbedb(%rip),%rdx        # 15b28 <g_202>
    9c4d:	48 89 94 c5 a0 f0 ff 	mov    %rdx,-0xf60(%rbp,%rax,8)
    9c54:	ff 
    9c55:	83 85 c0 ee ff ff 01 	addl   $0x1,-0x1140(%rbp)
    9c5c:	83 bd c0 ee ff ff 02 	cmpl   $0x2,-0x1140(%rbp)
    9c63:	7e d9                	jle    9c3e <func_31+0x1e02>
    9c65:	0f b7 85 7c ee ff ff 	movzwl -0x1184(%rbp),%eax
    9c6c:	0f b6 d8             	movzbl %al,%ebx
    9c6f:	44 0f bf a5 7c ee ff 	movswl -0x1184(%rbp),%r12d
    9c76:	ff 
    9c77:	be 0e 00 00 00       	mov    $0xe,%esi
    9c7c:	bf ff ff 00 00       	mov    $0xffff,%edi
    9c81:	e8 80 c1 ff ff       	callq  5e06 <safe_lshift_func_uint16_t_u_u>
    9c86:	0f b7 c0             	movzwl %ax,%eax
    9c89:	89 85 0c ef ff ff    	mov    %eax,-0x10f4(%rbp)
    9c8f:	8b 85 0c ef ff ff    	mov    -0x10f4(%rbp),%eax
    9c95:	0f be c0             	movsbl %al,%eax
    9c98:	be 04 00 00 00       	mov    $0x4,%esi
    9c9d:	89 c7                	mov    %eax,%edi
    9c9f:	e8 c8 b6 ff ff       	callq  536c <safe_rshift_func_int8_t_s_u>
    9ca4:	84 c0                	test   %al,%al
    9ca6:	48 8b 05 9b c2 00 00 	mov    0xc29b(%rip),%rax        # 15f48 <g_286>
    9cad:	48 85 c0             	test   %rax,%rax
    9cb0:	74 07                	je     9cb9 <func_31+0x1e7d>
    9cb2:	ba 02 00 00 00       	mov    $0x2,%edx
    9cb7:	eb 05                	jmp    9cbe <func_31+0x1e82>
    9cb9:	ba 03 00 00 00       	mov    $0x3,%edx
    9cbe:	0f b7 05 cb c2 00 00 	movzwl 0xc2cb(%rip),%eax        # 15f90 <g_426>
    9cc5:	0f b7 c0             	movzwl %ax,%eax
    9cc8:	89 d6                	mov    %edx,%esi
    9cca:	89 c7                	mov    %eax,%edi
    9ccc:	e8 6c c0 ff ff       	callq  5d3d <safe_mul_func_uint16_t_u_u>
    9cd1:	0f b7 d0             	movzwl %ax,%edx
    9cd4:	0f bf 85 7c ee ff ff 	movswl -0x1184(%rbp),%eax
    9cdb:	39 c2                	cmp    %eax,%edx
    9cdd:	0f 9c c0             	setl   %al
    9ce0:	0f b6 d0             	movzbl %al,%edx
    9ce3:	0f b6 05 9a ca 00 00 	movzbl 0xca9a(%rip),%eax        # 16784 <g_492>
    9cea:	0f b6 c0             	movzbl %al,%eax
    9ced:	39 c2                	cmp    %eax,%edx
    9cef:	0f 95 c0             	setne  %al
    9cf2:	0f b6 c0             	movzbl %al,%eax
    9cf5:	44 89 e6             	mov    %r12d,%esi
    9cf8:	89 c7                	mov    %eax,%edi
    9cfa:	e8 93 b7 ff ff       	callq  5492 <safe_lshift_func_int16_t_s_s>
    9cff:	98                   	cwtl   
    9d00:	be 0a 00 00 00       	mov    $0xa,%esi
    9d05:	89 c7                	mov    %eax,%edi
    9d07:	e8 57 b8 ff ff       	callq  5563 <safe_rshift_func_int16_t_s_u>
    9d0c:	98                   	cwtl   
    9d0d:	83 e0 30             	and    $0x30,%eax
    9d10:	89 c2                	mov    %eax,%edx
    9d12:	0f b6 05 67 ca 00 00 	movzbl 0xca67(%rip),%eax        # 16780 <g_490>
    9d19:	0f b6 c0             	movzbl %al,%eax
    9d1c:	89 d6                	mov    %edx,%esi
    9d1e:	89 c7                	mov    %eax,%edi
    9d20:	e8 d0 b6 ff ff       	callq  53f5 <safe_mul_func_int16_t_s_s>
    9d25:	48 8b 85 a0 f0 ff ff 	mov    -0xf60(%rbp),%rax
    9d2c:	48 8d 15 f5 bd 00 00 	lea    0xbdf5(%rip),%rdx        # 15b28 <g_202>
    9d33:	48 39 d0             	cmp    %rdx,%rax
    9d36:	0f 95 c0             	setne  %al
    9d39:	0f b6 c0             	movzbl %al,%eax
    9d3c:	89 de                	mov    %ebx,%esi
    9d3e:	89 c7                	mov    %eax,%edi
    9d40:	e8 4e be ff ff       	callq  5b93 <safe_mul_func_uint8_t_u_u>
    9d45:	bf a1 a6 c0 5a       	mov    $0x5ac0a6a1,%edi
    9d4a:	e8 9a 09 00 00       	callq  a6e9 <func_42>
    9d4f:	48 89 85 68 ee ff ff 	mov    %rax,-0x1198(%rbp)
    9d56:	48 8b 05 fb e0 00 00 	mov    0xe0fb(%rip),%rax        # 17e58 <g_456>
    9d5d:	8b 00                	mov    (%rax),%eax
    9d5f:	be f1 60 4c 3f       	mov    $0x3f4c60f1,%esi
    9d64:	89 c7                	mov    %eax,%edi
    9d66:	e8 92 c1 ff ff       	callq  5efd <safe_mod_func_uint32_t_u_u>
    9d6b:	0f be c0             	movsbl %al,%eax
    9d6e:	be 8c ff ff ff       	mov    $0xffffff8c,%esi
    9d73:	89 c7                	mov    %eax,%edi
    9d75:	e8 78 b4 ff ff       	callq  51f2 <safe_sub_func_int8_t_s_s>
    9d7a:	66 83 bd 7c ee ff ff 	cmpw   $0x0,-0x1184(%rbp)
    9d81:	00 
    9d82:	74 07                	je     9d8b <func_31+0x1f4f>
    9d84:	b8 01 00 00 00       	mov    $0x1,%eax
    9d89:	eb 05                	jmp    9d90 <func_31+0x1f54>
    9d8b:	b8 00 00 00 00       	mov    $0x0,%eax
    9d90:	89 c7                	mov    %eax,%edi
    9d92:	e8 0f c1 ff ff       	callq  5ea6 <safe_unary_minus_func_uint32_t_u>
    9d97:	89 c2                	mov    %eax,%edx
    9d99:	0f bf 85 7c ee ff ff 	movswl -0x1184(%rbp),%eax
    9da0:	89 d6                	mov    %edx,%esi
    9da2:	89 c7                	mov    %eax,%edi
    9da4:	e8 81 b7 ff ff       	callq  552a <safe_rshift_func_int16_t_s_s>
    9da9:	ba 01 00 00 00       	mov    $0x1,%edx
    9dae:	0f b7 85 92 ee ff ff 	movzwl -0x116e(%rbp),%eax
    9db5:	39 c2                	cmp    %eax,%edx
    9db7:	7f 0e                	jg     9dc7 <func_31+0x1f8b>
    9db9:	8b 05 0d c2 00 00    	mov    0xc20d(%rip),%eax        # 15fcc <g_447+0xc>
    9dbf:	85 c0                	test   %eax,%eax
    9dc1:	0f 84 28 02 00 00    	je     9fef <func_31+0x21b3>
    9dc7:	48 c7 85 08 f0 ff ff 	movq   $0x0,-0xff8(%rbp)
    9dce:	00 00 00 00 
    9dd2:	48 8d 85 20 ef ff ff 	lea    -0x10e0(%rbp),%rax
    9dd9:	48 89 85 10 f0 ff ff 	mov    %rax,-0xff0(%rbp)
    9de0:	48 8d 85 40 f9 ff ff 	lea    -0x6c0(%rbp),%rax
    9de7:	48 8d 15 72 6d 00 00 	lea    0x6d72(%rip),%rdx        # 10b60 <g_905+0xad0>
    9dee:	b9 64 00 00 00       	mov    $0x64,%ecx
    9df3:	48 89 c7             	mov    %rax,%rdi
    9df6:	48 89 d6             	mov    %rdx,%rsi
    9df9:	f3 48 a5             	rep movsq %ds:(%rsi),%es:(%rdi)
    9dfc:	48 8d 85 c0 f0 ff ff 	lea    -0xf40(%rbp),%rax
    9e03:	48 89 85 18 f0 ff ff 	mov    %rax,-0xfe8(%rbp)
    9e0a:	c7 85 c4 ee ff ff 00 	movl   $0x0,-0x113c(%rbp)
    9e11:	00 00 00 
    9e14:	eb 4a                	jmp    9e60 <func_31+0x2024>
    9e16:	c7 85 c8 ee ff ff 00 	movl   $0x0,-0x1138(%rbp)
    9e1d:	00 00 00 
    9e20:	eb 2e                	jmp    9e50 <func_31+0x2014>
    9e22:	8b 85 c8 ee ff ff    	mov    -0x1138(%rbp),%eax
    9e28:	48 98                	cltq   
    9e2a:	8b 95 c4 ee ff ff    	mov    -0x113c(%rbp),%edx
    9e30:	48 63 d2             	movslq %edx,%rdx
    9e33:	48 c1 e2 02          	shl    $0x2,%rdx
    9e37:	48 01 d0             	add    %rdx,%rax
    9e3a:	48 8d 15 0f c1 00 00 	lea    0xc10f(%rip),%rdx        # 15f50 <g_296>
    9e41:	48 89 94 c5 c0 f0 ff 	mov    %rdx,-0xf40(%rbp,%rax,8)
    9e48:	ff 
    9e49:	83 85 c8 ee ff ff 01 	addl   $0x1,-0x1138(%rbp)
    9e50:	83 bd c8 ee ff ff 03 	cmpl   $0x3,-0x1138(%rbp)
    9e57:	7e c9                	jle    9e22 <func_31+0x1fe6>
    9e59:	83 85 c4 ee ff ff 01 	addl   $0x1,-0x113c(%rbp)
    9e60:	83 bd c4 ee ff ff 00 	cmpl   $0x0,-0x113c(%rbp)
    9e67:	7e ad                	jle    9e16 <func_31+0x1fda>
    9e69:	48 8b 85 48 ef ff ff 	mov    -0x10b8(%rbp),%rax
    9e70:	8b 18                	mov    (%rax),%ebx
    9e72:	b8 ff ff ff ff       	mov    $0xffffffff,%eax
    9e77:	44 0f b7 e0          	movzwl %ax,%r12d
    9e7b:	8b 85 74 fa ff ff    	mov    -0x58c(%rbp),%eax
    9e81:	41 89 c6             	mov    %eax,%r14d
    9e84:	0f b7 95 90 ee ff ff 	movzwl -0x1170(%rbp),%edx
    9e8b:	0f b7 85 7c ee ff ff 	movzwl -0x1184(%rbp),%eax
    9e92:	0f be c0             	movsbl %al,%eax
    9e95:	89 d6                	mov    %edx,%esi
    9e97:	89 c7                	mov    %eax,%edi
    9e99:	e8 ce b4 ff ff       	callq  536c <safe_rshift_func_int8_t_s_u>
    9e9e:	0f bf 95 7c ee ff ff 	movswl -0x1184(%rbp),%edx
    9ea5:	8b 8d 00 fb ff ff    	mov    -0x500(%rbp),%ecx
    9eab:	0f bf 85 7c ee ff ff 	movswl -0x1184(%rbp),%eax
    9eb2:	39 c1                	cmp    %eax,%ecx
    9eb4:	0f 95 c0             	setne  %al
    9eb7:	0f b6 c0             	movzbl %al,%eax
    9eba:	39 c2                	cmp    %eax,%edx
    9ebc:	0f 95 c0             	setne  %al
    9ebf:	0f b6 d0             	movzbl %al,%edx
    9ec2:	0f bf 85 7c ee ff ff 	movswl -0x1184(%rbp),%eax
    9ec9:	39 c2                	cmp    %eax,%edx
    9ecb:	0f 9c c0             	setl   %al
    9ece:	88 85 23 f1 ff ff    	mov    %al,-0xedd(%rbp)
    9ed4:	0f b7 85 7c ee ff ff 	movzwl -0x1184(%rbp),%eax
    9edb:	44 0f b7 e8          	movzwl %ax,%r13d
    9edf:	0f b7 85 7c ee ff ff 	movzwl -0x1184(%rbp),%eax
    9ee6:	0f b7 c0             	movzwl %ax,%eax
    9ee9:	48 8b 95 10 f0 ff ff 	mov    -0xff0(%rbp),%rdx
    9ef0:	48 8d 0d 61 df 00 00 	lea    0xdf61(%rip),%rcx        # 17e58 <g_456>
    9ef7:	48 89 0a             	mov    %rcx,(%rdx)
    9efa:	89 c6                	mov    %eax,%esi
    9efc:	bf 01 00 00 00       	mov    $0x1,%edi
    9f01:	e8 f9 bd ff ff       	callq  5cff <safe_add_func_uint16_t_u_u>
    9f06:	0f b7 c0             	movzwl %ax,%eax
    9f09:	44 89 ee             	mov    %r13d,%esi
    9f0c:	89 c7                	mov    %eax,%edi
    9f0e:	e8 ec bd ff ff       	callq  5cff <safe_add_func_uint16_t_u_u>
    9f13:	0f be c0             	movsbl %al,%eax
    9f16:	44 89 f6             	mov    %r14d,%esi
    9f19:	89 c7                	mov    %eax,%edi
    9f1b:	e8 ce b3 ff ff       	callq  52ee <safe_lshift_func_int8_t_s_u>
    9f20:	84 c0                	test   %al,%al
    9f22:	74 12                	je     9f36 <func_31+0x20fa>
    9f24:	0f b6 05 a5 c8 00 00 	movzbl 0xc8a5(%rip),%eax        # 167d0 <g_821>
    9f2b:	84 c0                	test   %al,%al
    9f2d:	74 07                	je     9f36 <func_31+0x20fa>
    9f2f:	ba 01 00 00 00       	mov    $0x1,%edx
    9f34:	eb 05                	jmp    9f3b <func_31+0x20ff>
    9f36:	ba 00 00 00 00       	mov    $0x0,%edx
    9f3b:	8b 05 db c8 00 00    	mov    0xc8db(%rip),%eax        # 1681c <g_974+0xc>
    9f41:	39 c2                	cmp    %eax,%edx
    9f43:	0f 95 c2             	setne  %dl
    9f46:	48 8b 85 a0 ef ff ff 	mov    -0x1060(%rbp),%rax
    9f4d:	48 8b 00             	mov    (%rax),%rax
    9f50:	48 8b 00             	mov    (%rax),%rax
    9f53:	0f b6 d2             	movzbl %dl,%edx
    9f56:	48 89 10             	mov    %rdx,(%rax)
    9f59:	48 8b 10             	mov    (%rax),%rdx
    9f5c:	0f b6 05 25 c8 00 00 	movzbl 0xc825(%rip),%eax        # 16788 <g_605>
    9f63:	83 e0 7f             	and    $0x7f,%eax
    9f66:	0f b6 c0             	movzbl %al,%eax
    9f69:	48 39 c2             	cmp    %rax,%rdx
    9f6c:	0f 9f c0             	setg   %al
    9f6f:	0f b6 c0             	movzbl %al,%eax
    9f72:	be 9e ff ff ff       	mov    $0xffffff9e,%esi
    9f77:	89 c7                	mov    %eax,%edi
    9f79:	e8 b3 b2 ff ff       	callq  5231 <safe_mod_func_int8_t_s_s>
    9f7e:	0f be c0             	movsbl %al,%eax
    9f81:	89 c6                	mov    %eax,%esi
    9f83:	bf 09 00 00 00       	mov    $0x9,%edi
    9f88:	e8 a4 b2 ff ff       	callq  5231 <safe_mod_func_int8_t_s_s>
    9f8d:	48 0f be c0          	movsbq %al,%rax
    9f91:	48 89 c7             	mov    %rax,%rdi
    9f94:	e8 80 c0 ff ff       	callq  6019 <safe_unary_minus_func_uint64_t_u>
    9f99:	48 85 c0             	test   %rax,%rax
    9f9c:	74 07                	je     9fa5 <func_31+0x2169>
    9f9e:	b8 01 00 00 00       	mov    $0x1,%eax
    9fa3:	eb 05                	jmp    9faa <func_31+0x216e>
    9fa5:	b8 00 00 00 00       	mov    $0x0,%eax
    9faa:	0f b7 c0             	movzwl %ax,%eax
    9fad:	44 89 e6             	mov    %r12d,%esi
    9fb0:	89 c7                	mov    %eax,%edi
    9fb2:	e8 a5 bd ff ff       	callq  5d5c <safe_mod_func_uint16_t_u_u>
    9fb7:	0f b6 c0             	movzbl %al,%eax
    9fba:	89 de                	mov    %ebx,%esi
    9fbc:	89 c7                	mov    %eax,%edi
    9fbe:	e8 42 bc ff ff       	callq  5c05 <safe_lshift_func_uint8_t_u_s>
    9fc3:	0f b6 c0             	movzbl %al,%eax
    9fc6:	89 85 0c ef ff ff    	mov    %eax,-0x10f4(%rbp)
    9fcc:	48 8b 85 18 f0 ff ff 	mov    -0xfe8(%rbp),%rax
    9fd3:	48 8d 15 d2 e7 00 00 	lea    0xe7d2(%rip),%rdx        # 187ac <g_372>
    9fda:	48 89 10             	mov    %rdx,(%rax)
    9fdd:	48 8b 05 dc dd 00 00 	mov    0xdddc(%rip),%rax        # 17dc0 <g_148>
    9fe4:	48 8b 00             	mov    (%rax),%rax
    9fe7:	8b 00                	mov    (%rax),%eax
    9fe9:	85 c0                	test   %eax,%eax
    9feb:	74 1b                	je     a008 <func_31+0x21cc>
    9fed:	eb 76                	jmp    a065 <func_31+0x2229>
    9fef:	48 8b 85 70 ee ff ff 	mov    -0x1190(%rbp),%rax
    9ff6:	48 8b 00             	mov    (%rax),%rax
    9ff9:	48 8b 00             	mov    (%rax),%rax
    9ffc:	8b 00                	mov    (%rax),%eax
    9ffe:	85 c0                	test   %eax,%eax
    a000:	0f 85 89 00 00 00    	jne    a08f <func_31+0x2253>
    a006:	eb 01                	jmp    a009 <func_31+0x21cd>
    a008:	90                   	nop
    a009:	48 8b 05 a0 dd 00 00 	mov    0xdda0(%rip),%rax        # 17db0 <g_141>
    a010:	48 8b 00             	mov    (%rax),%rax
    a013:	48 85 c0             	test   %rax,%rax
    a016:	74 42                	je     a05a <func_31+0x221e>
    a018:	48 8b 85 68 ee ff ff 	mov    -0x1198(%rbp),%rax
    a01f:	8b 18                	mov    (%rax),%ebx
    a021:	be 02 00 00 00       	mov    $0x2,%esi
    a026:	bf b5 ff ff ff       	mov    $0xffffffb5,%edi
    a02b:	e8 71 b2 ff ff       	callq  52a1 <safe_lshift_func_int8_t_s_s>
    a030:	0f be c0             	movsbl %al,%eax
    a033:	39 c3                	cmp    %eax,%ebx
    a035:	0f 95 c2             	setne  %dl
    a038:	48 8b 85 a0 ef ff ff 	mov    -0x1060(%rbp),%rax
    a03f:	48 8b 00             	mov    (%rax),%rax
    a042:	48 8b 00             	mov    (%rax),%rax
    a045:	0f b6 d2             	movzbl %dl,%edx
    a048:	48 89 10             	mov    %rdx,(%rax)
    a04b:	48 8b 00             	mov    (%rax),%rax
    a04e:	48 85 c0             	test   %rax,%rax
    a051:	74 07                	je     a05a <func_31+0x221e>
    a053:	b8 01 00 00 00       	mov    $0x1,%eax
    a058:	eb 05                	jmp    a05f <func_31+0x2223>
    a05a:	b8 00 00 00 00       	mov    $0x0,%eax
    a05f:	89 85 08 ef ff ff    	mov    %eax,-0x10f8(%rbp)
    a065:	0f bf 85 8e ee ff ff 	movswl -0x1172(%rbp),%eax
    a06c:	be 01 00 00 00       	mov    $0x1,%esi
    a071:	89 c7                	mov    %eax,%edi
    a073:	e8 3e b5 ff ff       	callq  55b6 <safe_add_func_int32_t_s_s>
    a078:	66 89 85 8e ee ff ff 	mov    %ax,-0x1172(%rbp)
    a07f:	66 83 bd 8e ee ff ff 	cmpw   $0xe,-0x1172(%rbp)
    a086:	0e 
    a087:	0f 8f 92 fb ff ff    	jg     9c1f <func_31+0x1de3>
    a08d:	eb 01                	jmp    a090 <func_31+0x2254>
    a08f:	90                   	nop
    a090:	48 8b 05 b9 de 00 00 	mov    0xdeb9(%rip),%rax        # 17f50 <g_980+0x10>
    a097:	48 89 05 aa de 00 00 	mov    %rax,0xdeaa(%rip)        # 17f48 <g_980+0x8>
    a09e:	e9 3e 02 00 00       	jmpq   a2e1 <func_31+0x24a5>
    a0a3:	48 8d 05 d6 c6 00 00 	lea    0xc6d6(%rip),%rax        # 16780 <g_490>
    a0aa:	48 89 85 c0 ef ff ff 	mov    %rax,-0x1040(%rbp)
    a0b1:	48 8d 05 58 c7 00 00 	lea    0xc758(%rip),%rax        # 16810 <g_974>
    a0b8:	48 89 85 c8 ef ff ff 	mov    %rax,-0x1038(%rbp)
    a0bf:	48 c7 85 d0 ef ff ff 	movq   $0x0,-0x1030(%rbp)
    a0c6:	00 00 00 00 
    a0ca:	48 8d 85 98 ee ff ff 	lea    -0x1168(%rbp),%rax
    a0d1:	48 89 85 d8 ef ff ff 	mov    %rax,-0x1028(%rbp)
    a0d8:	48 8d 05 f1 c6 00 00 	lea    0xc6f1(%rip),%rax        # 167d0 <g_821>
    a0df:	48 89 85 e0 ef ff ff 	mov    %rax,-0x1020(%rbp)
    a0e6:	48 c7 85 e8 ef ff ff 	movq   $0x0,-0x1018(%rbp)
    a0ed:	00 00 00 00 
    a0f1:	48 8d 85 50 ef ff ff 	lea    -0x10b0(%rbp),%rax
    a0f8:	48 89 85 f0 ef ff ff 	mov    %rax,-0x1010(%rbp)
    a0ff:	48 8d 05 7e af 00 00 	lea    0xaf7e(%rip),%rax        # 15084 <g_48>
    a106:	48 89 85 f8 ef ff ff 	mov    %rax,-0x1008(%rbp)
    a10d:	48 8d 85 9c ee ff ff 	lea    -0x1164(%rbp),%rax
    a114:	48 89 85 00 f0 ff ff 	mov    %rax,-0x1000(%rbp)
    a11b:	c7 85 cc ee ff ff 00 	movl   $0x0,-0x1134(%rbp)
    a122:	00 00 00 
    a125:	eb 1e                	jmp    a145 <func_31+0x2309>
    a127:	8b 85 cc ee ff ff    	mov    -0x1134(%rbp),%eax
    a12d:	48 98                	cltq   
    a12f:	48 8d 15 3a af 00 00 	lea    0xaf3a(%rip),%rdx        # 15070 <g_29>
    a136:	48 89 94 c5 40 f9 ff 	mov    %rdx,-0x6c0(%rbp,%rax,8)
    a13d:	ff 
    a13e:	83 85 cc ee ff ff 01 	addl   $0x1,-0x1134(%rbp)
    a145:	83 bd cc ee ff ff 02 	cmpl   $0x2,-0x1134(%rbp)
    a14c:	7e d9                	jle    a127 <func_31+0x22eb>
    a14e:	c7 85 cc ee ff ff 00 	movl   $0x0,-0x1134(%rbp)
    a155:	00 00 00 
    a158:	eb 1a                	jmp    a174 <func_31+0x2338>
    a15a:	8b 85 cc ee ff ff    	mov    -0x1134(%rbp),%eax
    a160:	48 98                	cltq   
    a162:	c7 84 85 a0 f1 ff ff 	movl   $0x5d6d07a3,-0xe60(%rbp,%rax,4)
    a169:	a3 07 6d 5d 
    a16d:	83 85 cc ee ff ff 01 	addl   $0x1,-0x1134(%rbp)
    a174:	83 bd cc ee ff ff 00 	cmpl   $0x0,-0x1134(%rbp)
    a17b:	7e dd                	jle    a15a <func_31+0x231e>
    a17d:	83 85 04 ef ff ff 01 	addl   $0x1,-0x10fc(%rbp)
    a184:	48 8b 85 c8 ef ff ff 	mov    -0x1038(%rbp),%rax
    a18b:	8b 00                	mov    (%rax),%eax
    a18d:	83 f8 2b             	cmp    $0x2b,%eax
    a190:	0f 95 c2             	setne  %dl
    a193:	48 8b 85 48 ef ff ff 	mov    -0x10b8(%rbp),%rax
    a19a:	0f b6 d2             	movzbl %dl,%edx
    a19d:	89 10                	mov    %edx,(%rax)
    a19f:	48 8b 85 d8 ef ff ff 	mov    -0x1028(%rbp),%rax
    a1a6:	8b 00                	mov    (%rax),%eax
    a1a8:	85 c0                	test   %eax,%eax
    a1aa:	0f 85 5f 03 00 00    	jne    a50f <func_31+0x26d3>
    a1b0:	48 8b 05 41 c6 00 00 	mov    0xc641(%rip),%rax        # 167f8 <g_862+0x18>
    a1b7:	0f bf d8             	movswl %ax,%ebx
    a1ba:	0f b6 05 27 c6 00 00 	movzbl 0xc627(%rip),%eax        # 167e8 <g_862+0x8>
    a1c1:	44 0f b6 e0          	movzbl %al,%r12d
    a1c5:	48 8b 95 50 ef ff ff 	mov    -0x10b0(%rbp),%rdx
    a1cc:	48 8b 85 f0 ef ff ff 	mov    -0x1010(%rbp),%rax
    a1d3:	48 89 10             	mov    %rdx,(%rax)
    a1d6:	48 8b 85 f0 ef ff ff 	mov    -0x1010(%rbp),%rax
    a1dd:	48 8b 00             	mov    (%rax),%rax
    a1e0:	48 85 c0             	test   %rax,%rax
    a1e3:	0f 95 c0             	setne  %al
    a1e6:	0f b6 d0             	movzbl %al,%edx
    a1e9:	48 8b 85 f8 ef ff ff 	mov    -0x1008(%rbp),%rax
    a1f0:	89 10                	mov    %edx,(%rax)
    a1f2:	48 8b 85 60 ef ff ff 	mov    -0x10a0(%rbp),%rax
    a1f9:	48 8b 00             	mov    (%rax),%rax
    a1fc:	8b 00                	mov    (%rax),%eax
    a1fe:	0f b7 c0             	movzwl %ax,%eax
    a201:	be 01 00 00 00       	mov    $0x1,%esi
    a206:	89 c7                	mov    %eax,%edi
    a208:	e8 6d bc ff ff       	callq  5e7a <safe_rshift_func_uint16_t_u_u>
    a20d:	44 0f b7 e8          	movzwl %ax,%r13d
    a211:	8b 85 a0 f1 ff ff    	mov    -0xe60(%rbp),%eax
    a217:	41 89 c6             	mov    %eax,%r14d
    a21a:	8b 05 fc c5 00 00    	mov    0xc5fc(%rip),%eax        # 1681c <g_974+0xc>
    a220:	48 8b 15 91 c5 00 00 	mov    0xc591(%rip),%rdx        # 167b8 <g_695+0x18>
    a227:	89 c6                	mov    %eax,%esi
    a229:	bf 01 00 00 00       	mov    $0x1,%edi
    a22e:	e8 30 b3 ff ff       	callq  5563 <safe_rshift_func_int16_t_s_u>
    a233:	48 0f bf c0          	movswq %ax,%rax
    a237:	48 89 c7             	mov    %rax,%rdi
    a23a:	e8 72 30 00 00       	callq  d2b1 <func_72>
    a23f:	48 8d 85 88 f0 ff ff 	lea    -0xf78(%rbp),%rax
    a246:	48 83 c0 04          	add    $0x4,%rax
    a24a:	48 39 85 00 f0 ff ff 	cmp    %rax,-0x1000(%rbp)
    a251:	0f 95 c0             	setne  %al
    a254:	0f b6 c0             	movzbl %al,%eax
    a257:	44 89 f6             	mov    %r14d,%esi
    a25a:	89 c7                	mov    %eax,%edi
    a25c:	e8 2c ba ff ff       	callq  5c8d <safe_rshift_func_uint8_t_u_s>
    a261:	0f b6 c0             	movzbl %al,%eax
    a264:	66 0b 85 7c ee ff ff 	or     -0x1184(%rbp),%ax
    a26b:	89 c2                	mov    %eax,%edx
    a26d:	48 8b 85 98 ef ff ff 	mov    -0x1068(%rbp),%rax
    a274:	66 89 10             	mov    %dx,(%rax)
    a277:	48 8b 85 98 ef ff ff 	mov    -0x1068(%rbp),%rax
    a27e:	0f b7 00             	movzwl (%rax),%eax
    a281:	0f b7 c0             	movzwl %ax,%eax
    a284:	8b 15 66 c5 00 00    	mov    0xc566(%rip),%edx        # 167f0 <g_862+0x10>
    a28a:	81 e2 ff ff ff 7f    	and    $0x7fffffff,%edx
    a290:	39 d0                	cmp    %edx,%eax
    a292:	0f 9d c0             	setge  %al
    a295:	0f b6 c0             	movzbl %al,%eax
    a298:	41 39 c5             	cmp    %eax,%r13d
    a29b:	0f 95 c0             	setne  %al
    a29e:	0f b6 c0             	movzbl %al,%eax
    a2a1:	44 89 e6             	mov    %r12d,%esi
    a2a4:	89 c7                	mov    %eax,%edi
    a2a6:	e8 e8 b8 ff ff       	callq  5b93 <safe_mul_func_uint8_t_u_u>
    a2ab:	0f b6 c0             	movzbl %al,%eax
    a2ae:	89 de                	mov    %ebx,%esi
    a2b0:	89 c7                	mov    %eax,%edi
    a2b2:	e8 9e b1 ff ff       	callq  5455 <safe_div_func_int16_t_s_s>
    a2b7:	66 85 c0             	test   %ax,%ax
    a2ba:	74 14                	je     a2d0 <func_31+0x2494>
    a2bc:	48 8b 85 68 ee ff ff 	mov    -0x1198(%rbp),%rax
    a2c3:	8b 10                	mov    (%rax),%edx
    a2c5:	48 8b 85 c0 ef ff ff 	mov    -0x1040(%rbp),%rax
    a2cc:	89 10                	mov    %edx,(%rax)
    a2ce:	eb 11                	jmp    a2e1 <func_31+0x24a5>
    a2d0:	48 8b 05 a1 dc 00 00 	mov    0xdca1(%rip),%rax        # 17f78 <g_1011>
    a2d7:	48 8d 15 a2 bc 00 00 	lea    0xbca2(%rip),%rdx        # 15f80 <g_316>
    a2de:	48 89 10             	mov    %rdx,(%rax)
    a2e1:	c6 05 58 bc 00 00 00 	movb   $0x0,0xbc58(%rip)        # 15f40 <g_231>
    a2e8:	e9 e6 01 00 00       	jmpq   a4d3 <func_31+0x2697>
    a2ed:	66 c7 85 a0 f1 ff ff 	movw   $0x1,-0xe60(%rbp)
    a2f4:	01 00 
    a2f6:	66 c7 85 a2 f1 ff ff 	movw   $0x1,-0xe5e(%rbp)
    a2fd:	01 00 
    a2ff:	66 c7 85 a4 f1 ff ff 	movw   $0xe21b,-0xe5c(%rbp)
    a306:	1b e2 
    a308:	66 c7 85 a6 f1 ff ff 	movw   $0x1,-0xe5a(%rbp)
    a30f:	01 00 
    a311:	66 c7 85 a8 f1 ff ff 	movw   $0x1,-0xe58(%rbp)
    a318:	01 00 
    a31a:	66 c7 85 aa f1 ff ff 	movw   $0xe21b,-0xe56(%rbp)
    a321:	1b e2 
    a323:	66 c7 85 ac f1 ff ff 	movw   $0x1,-0xe54(%rbp)
    a32a:	01 00 
    a32c:	66 c7 85 ae f1 ff ff 	movw   $0x1,-0xe52(%rbp)
    a333:	01 00 
    a335:	66 c7 85 b0 f1 ff ff 	movw   $0xe21b,-0xe50(%rbp)
    a33c:	1b e2 
    a33e:	66 c7 85 b2 f1 ff ff 	movw   $0x1,-0xe4e(%rbp)
    a345:	01 00 
    a347:	66 c7 85 b4 f1 ff ff 	movw   $0x1,-0xe4c(%rbp)
    a34e:	01 00 
    a350:	66 c7 85 b6 f1 ff ff 	movw   $0xe21b,-0xe4a(%rbp)
    a357:	1b e2 
    a359:	66 c7 85 b8 f1 ff ff 	movw   $0x1,-0xe48(%rbp)
    a360:	01 00 
    a362:	66 c7 85 ba f1 ff ff 	movw   $0x1,-0xe46(%rbp)
    a369:	01 00 
    a36b:	48 8d 85 e0 f0 ff ff 	lea    -0xf20(%rbp),%rax
    a372:	48 83 c0 04          	add    $0x4,%rax
    a376:	48 89 85 20 f0 ff ff 	mov    %rax,-0xfe0(%rbp)
    a37d:	48 8d 85 e0 f0 ff ff 	lea    -0xf20(%rbp),%rax
    a384:	48 83 c0 0c          	add    $0xc,%rax
    a388:	48 89 85 28 f0 ff ff 	mov    %rax,-0xfd8(%rbp)
    a38f:	48 8d 05 da ac 00 00 	lea    0xacda(%rip),%rax        # 15070 <g_29>
    a396:	48 89 85 30 f0 ff ff 	mov    %rax,-0xfd0(%rbp)
    a39d:	48 8d 85 a0 ee ff ff 	lea    -0x1160(%rbp),%rax
    a3a4:	48 89 85 38 f0 ff ff 	mov    %rax,-0xfc8(%rbp)
    a3ab:	48 8d 85 a4 ee ff ff 	lea    -0x115c(%rbp),%rax
    a3b2:	48 89 85 40 f0 ff ff 	mov    %rax,-0xfc0(%rbp)
    a3b9:	48 8d 85 e0 f0 ff ff 	lea    -0xf20(%rbp),%rax
    a3c0:	48 83 c0 0c          	add    $0xc,%rax
    a3c4:	48 89 85 40 f9 ff ff 	mov    %rax,-0x6c0(%rbp)
    a3cb:	48 8d 85 e0 f0 ff ff 	lea    -0xf20(%rbp),%rax
    a3d2:	48 83 c0 0c          	add    $0xc,%rax
    a3d6:	48 89 85 48 f9 ff ff 	mov    %rax,-0x6b8(%rbp)
    a3dd:	48 8d 85 e0 f0 ff ff 	lea    -0xf20(%rbp),%rax
    a3e4:	48 83 c0 0c          	add    $0xc,%rax
    a3e8:	48 89 85 50 f9 ff ff 	mov    %rax,-0x6b0(%rbp)
    a3ef:	48 8d 85 e0 f0 ff ff 	lea    -0xf20(%rbp),%rax
    a3f6:	48 83 c0 0c          	add    $0xc,%rax
    a3fa:	48 89 85 58 f9 ff ff 	mov    %rax,-0x6a8(%rbp)
    a401:	48 8d 85 e0 f0 ff ff 	lea    -0xf20(%rbp),%rax
    a408:	48 83 c0 0c          	add    $0xc,%rax
    a40c:	48 89 85 60 f9 ff ff 	mov    %rax,-0x6a0(%rbp)
    a413:	48 8d 85 e0 f0 ff ff 	lea    -0xf20(%rbp),%rax
    a41a:	48 83 c0 0c          	add    $0xc,%rax
    a41e:	48 89 85 68 f9 ff ff 	mov    %rax,-0x698(%rbp)
    a425:	48 8d 85 e0 f0 ff ff 	lea    -0xf20(%rbp),%rax
    a42c:	48 83 c0 0c          	add    $0xc,%rax
    a430:	48 89 85 70 f9 ff ff 	mov    %rax,-0x690(%rbp)
    a437:	48 8d 05 32 da 00 00 	lea    0xda32(%rip),%rax        # 17e70 <g_455+0x10>
    a43e:	48 89 85 48 f0 ff ff 	mov    %rax,-0xfb8(%rbp)
    a445:	48 8d 05 ce b6 00 00 	lea    0xb6ce(%rip),%rax        # 15b1a <g_132>
    a44c:	48 89 85 50 f0 ff ff 	mov    %rax,-0xfb0(%rbp)
    a453:	48 8d 85 40 f1 ff ff 	lea    -0xec0(%rbp),%rax
    a45a:	48 83 c0 10          	add    $0x10,%rax
    a45e:	48 89 85 58 f0 ff ff 	mov    %rax,-0xfa8(%rbp)
    a465:	c7 85 d0 ee ff ff 00 	movl   $0x0,-0x1130(%rbp)
    a46c:	00 00 00 
    a46f:	eb 21                	jmp    a492 <func_31+0x2656>
    a471:	8b 85 d0 ee ff ff    	mov    -0x1130(%rbp),%eax
    a477:	48 98                	cltq   
    a479:	48 b9 0a 15 2a 95 37 	movabs $0x66040137952a150a,%rcx
    a480:	01 04 66 
    a483:	48 89 8c c5 c0 f0 ff 	mov    %rcx,-0xf40(%rbp,%rax,8)
    a48a:	ff 
    a48b:	83 85 d0 ee ff ff 01 	addl   $0x1,-0x1130(%rbp)
    a492:	83 bd d0 ee ff ff 01 	cmpl   $0x1,-0x1130(%rbp)
    a499:	7e d6                	jle    a471 <func_31+0x2635>
    a49b:	80 85 8b ee ff ff 01 	addb   $0x1,-0x1175(%rbp)
    a4a2:	8b 85 d0 f2 ff ff    	mov    -0xd30(%rbp),%eax
    a4a8:	83 e8 01             	sub    $0x1,%eax
    a4ab:	89 85 d0 f2 ff ff    	mov    %eax,-0xd30(%rbp)
    a4b1:	48 8b 95 48 ef ff ff 	mov    -0x10b8(%rbp),%rdx
    a4b8:	48 8b 85 48 ef ff ff 	mov    -0x10b8(%rbp),%rax
    a4bf:	8b 12                	mov    (%rdx),%edx
    a4c1:	89 10                	mov    %edx,(%rax)
    a4c3:	0f b6 05 76 ba 00 00 	movzbl 0xba76(%rip),%eax        # 15f40 <g_231>
    a4ca:	83 e8 01             	sub    $0x1,%eax
    a4cd:	88 05 6d ba 00 00    	mov    %al,0xba6d(%rip)        # 15f40 <g_231>
    a4d3:	0f b6 05 66 ba 00 00 	movzbl 0xba66(%rip),%eax        # 15f40 <g_231>
    a4da:	84 c0                	test   %al,%al
    a4dc:	0f 89 0b fe ff ff    	jns    a2ed <func_31+0x24b1>
    a4e2:	8b 05 98 ab 00 00    	mov    0xab98(%rip),%eax        # 15080 <g_46>
    a4e8:	0f b7 c0             	movzwl %ax,%eax
    a4eb:	be 03 00 00 00       	mov    $0x3,%esi
    a4f0:	89 c7                	mov    %eax,%edi
    a4f2:	e8 08 b8 ff ff       	callq  5cff <safe_add_func_uint16_t_u_u>
    a4f7:	0f b7 c0             	movzwl %ax,%eax
    a4fa:	89 05 80 ab 00 00    	mov    %eax,0xab80(%rip)        # 15080 <g_46>
    a500:	8b 05 7a ab 00 00    	mov    0xab7a(%rip),%eax        # 15080 <g_46>
    a506:	83 f8 0a             	cmp    $0xa,%eax
    a509:	0f 8f cd e7 ff ff    	jg     8cdc <func_31+0xea0>
    a50f:	8b 05 63 c3 00 00    	mov    0xc363(%rip),%eax        # 16878 <g_1135>
    a515:	48 8b 85 60 ef ff ff 	mov    -0x10a0(%rbp),%rax
    a51c:	48 8b 00             	mov    (%rax),%rax
    a51f:	8b 00                	mov    (%rax),%eax
    a521:	48 98                	cltq   
    a523:	25 fa 00 00 00       	and    $0xfa,%eax
    a528:	48 89 c2             	mov    %rax,%rdx
    a52b:	48 8b 85 60 ef ff ff 	mov    -0x10a0(%rbp),%rax
    a532:	48 8b 00             	mov    (%rax),%rax
    a535:	8b 00                	mov    (%rax),%eax
    a537:	48 98                	cltq   
    a539:	48 89 d6             	mov    %rdx,%rsi
    a53c:	48 89 c7             	mov    %rax,%rdi
    a53f:	e8 b3 b4 ff ff       	callq  59f7 <safe_div_func_int64_t_s_s>
    a544:	44 0f bf a5 7c ee ff 	movswl -0x1184(%rbp),%r12d
    a54b:	ff 
    a54c:	8b 85 f0 ee ff ff    	mov    -0x1110(%rbp),%eax
    a552:	0f b7 d8             	movzwl %ax,%ebx
    a555:	8b 05 55 e2 00 00    	mov    0xe255(%rip),%eax        # 187b0 <g_476>
    a55b:	83 e0 7f             	and    $0x7f,%eax
    a55e:	0f b6 d0             	movzbl %al,%edx
    a561:	0f b7 85 7c ee ff ff 	movzwl -0x1184(%rbp),%eax
    a568:	0f be c0             	movsbl %al,%eax
    a56b:	89 d6                	mov    %edx,%esi
    a56d:	89 c7                	mov    %eax,%edi
    a56f:	e8 c1 ad ff ff       	callq  5335 <safe_rshift_func_int8_t_s_s>
    a574:	66 98                	cbtw   
    a576:	0f b7 c0             	movzwl %ax,%eax
    a579:	89 de                	mov    %ebx,%esi
    a57b:	89 c7                	mov    %eax,%edi
    a57d:	e8 7d b7 ff ff       	callq  5cff <safe_add_func_uint16_t_u_u>
    a582:	0f bf d0             	movswl %ax,%edx
    a585:	0f bf 85 7c ee ff ff 	movswl -0x1184(%rbp),%eax
    a58c:	89 d6                	mov    %edx,%esi
    a58e:	89 c7                	mov    %eax,%edi
    a590:	e8 81 ae ff ff       	callq  5416 <safe_mod_func_int16_t_s_s>
    a595:	48 0f bf d0          	movswq %ax,%rdx
    a599:	48 8b 05 b8 c2 00 00 	mov    0xc2b8(%rip),%rax        # 16858 <g_1043+0x18>
    a5a0:	48 39 c2             	cmp    %rax,%rdx
    a5a3:	0f 95 c0             	setne  %al
    a5a6:	0f b6 c0             	movzbl %al,%eax
    a5a9:	41 39 c4             	cmp    %eax,%r12d
    a5ac:	0f 9d c0             	setge  %al
    a5af:	0f b6 c0             	movzbl %al,%eax
    a5b2:	48 8b 1d 07 d8 00 00 	mov    0xd807(%rip),%rbx        # 17dc0 <g_148>
    a5b9:	0f b7 0d c4 c1 00 00 	movzwl 0xc1c4(%rip),%ecx        # 16784 <g_492>
    a5c0:	48 8b 95 68 ee ff ff 	mov    -0x1198(%rbp),%rdx
    a5c7:	48 8b b5 68 ee ff ff 	mov    -0x1198(%rbp),%rsi
    a5ce:	89 c7                	mov    %eax,%edi
    a5d0:	e8 3e 30 00 00       	callq  d613 <func_74>
    a5d5:	48 89 03             	mov    %rax,(%rbx)
    a5d8:	c7 05 aa c1 00 00 f8 	movl   $0xfffffff8,0xc1aa(%rip)        # 1678c <g_606>
    a5df:	ff ff ff 
    a5e2:	eb 51                	jmp    a635 <func_31+0x27f9>
    a5e4:	c7 85 14 ef ff ff 07 	movl   $0x7,-0x10ec(%rbp)
    a5eb:	00 00 00 
    a5ee:	48 8b 85 70 ee ff ff 	mov    -0x1190(%rbp),%rax
    a5f5:	48 8b 00             	mov    (%rax),%rax
    a5f8:	48 8b 00             	mov    (%rax),%rax
    a5fb:	8b 00                	mov    (%rax),%eax
    a5fd:	85 c0                	test   %eax,%eax
    a5ff:	75 41                	jne    a642 <func_31+0x2806>
    a601:	48 8b 85 70 ee ff ff 	mov    -0x1190(%rbp),%rax
    a608:	48 8b 00             	mov    (%rax),%rax
    a60b:	48 8b 00             	mov    (%rax),%rax
    a60e:	8b 00                	mov    (%rax),%eax
    a610:	31 85 14 ef ff ff    	xor    %eax,-0x10ec(%rbp)
    a616:	83 ad a8 ee ff ff 01 	subl   $0x1,-0x1158(%rbp)
    a61d:	8b 05 69 c1 00 00    	mov    0xc169(%rip),%eax        # 1678c <g_606>
    a623:	be 03 00 00 00       	mov    $0x3,%esi
    a628:	89 c7                	mov    %eax,%edi
    a62a:	e8 89 b8 ff ff       	callq  5eb8 <safe_add_func_uint32_t_u_u>
    a62f:	89 05 57 c1 00 00    	mov    %eax,0xc157(%rip)        # 1678c <g_606>
    a635:	8b 05 51 c1 00 00    	mov    0xc151(%rip),%eax        # 1678c <g_606>
    a63b:	83 f8 fd             	cmp    $0xfffffffd,%eax
    a63e:	75 a4                	jne    a5e4 <func_31+0x27a8>
    a640:	eb 01                	jmp    a643 <func_31+0x2807>
    a642:	90                   	nop
    a643:	48 8b 85 70 ef ff ff 	mov    -0x1090(%rbp),%rax
    a64a:	48 8b 4d d8          	mov    -0x28(%rbp),%rcx
    a64e:	64 48 33 0c 25 28 00 	xor    %fs:0x28,%rcx
    a655:	00 00 
    a657:	74 05                	je     a65e <func_31+0x2822>
    a659:	e8 12 aa ff ff       	callq  5070 <__stack_chk_fail@plt>
    a65e:	48 81 c4 80 11 00 00 	add    $0x1180,%rsp
    a665:	5b                   	pop    %rbx
    a666:	41 5c                	pop    %r12
    a668:	41 5d                	pop    %r13
    a66a:	41 5e                	pop    %r14
    a66c:	5d                   	pop    %rbp
    a66d:	c3                   	retq   

000000000000a66e <func_35>:
    a66e:	f3 0f 1e fa          	endbr64 
    a672:	55                   	push   %rbp
    a673:	48 89 e5             	mov    %rsp,%rbp
    a676:	48 83 ec 50          	sub    $0x50,%rsp
    a67a:	89 7d bc             	mov    %edi,-0x44(%rbp)
    a67d:	48 89 75 b0          	mov    %rsi,-0x50(%rbp)
    a681:	64 48 8b 04 25 28 00 	mov    %fs:0x28,%rax
    a688:	00 00 
    a68a:	48 89 45 f8          	mov    %rax,-0x8(%rbp)
    a68e:	31 c0                	xor    %eax,%eax
    a690:	c7 45 c8 00 00 00 00 	movl   $0x0,-0x38(%rbp)
    a697:	c7 45 cc 01 00 00 00 	movl   $0x1,-0x34(%rbp)
    a69e:	c7 45 c4 00 00 00 00 	movl   $0x0,-0x3c(%rbp)
    a6a5:	eb 15                	jmp    a6bc <func_35+0x4e>
    a6a7:	8b 45 c4             	mov    -0x3c(%rbp),%eax
    a6aa:	48 98                	cltq   
    a6ac:	48 8d 15 f5 d6 00 00 	lea    0xd6f5(%rip),%rdx        # 17da8 <g_10>
    a6b3:	48 89 54 c5 d0       	mov    %rdx,-0x30(%rbp,%rax,8)
    a6b8:	83 45 c4 01          	addl   $0x1,-0x3c(%rbp)
    a6bc:	83 7d c4 04          	cmpl   $0x4,-0x3c(%rbp)
    a6c0:	7e e5                	jle    a6a7 <func_35+0x39>
    a6c2:	8b 45 c8             	mov    -0x38(%rbp),%eax
    a6c5:	89 c7                	mov    %eax,%edi
    a6c7:	e8 55 d7 ff ff       	callq  7e21 <func_22>
    a6cc:	89 45 cc             	mov    %eax,-0x34(%rbp)
    a6cf:	48 8b 45 d8          	mov    -0x28(%rbp),%rax
    a6d3:	48 8b 4d f8          	mov    -0x8(%rbp),%rcx
    a6d7:	64 48 33 0c 25 28 00 	xor    %fs:0x28,%rcx
    a6de:	00 00 
    a6e0:	74 05                	je     a6e7 <func_35+0x79>
    a6e2:	e8 89 a9 ff ff       	callq  5070 <__stack_chk_fail@plt>
    a6e7:	c9                   	leaveq 
    a6e8:	c3                   	retq   

000000000000a6e9 <func_42>:
    a6e9:	f3 0f 1e fa          	endbr64 
    a6ed:	55                   	push   %rbp
    a6ee:	48 89 e5             	mov    %rsp,%rbp
    a6f1:	48 81 ec 20 02 00 00 	sub    $0x220,%rsp
    a6f8:	89 bd ec fd ff ff    	mov    %edi,-0x214(%rbp)
    a6fe:	64 48 8b 04 25 28 00 	mov    %fs:0x28,%rax
    a705:	00 00 
    a707:	48 89 45 f8          	mov    %rax,-0x8(%rbp)
    a70b:	31 c0                	xor    %eax,%eax
    a70d:	48 8d 05 94 d6 00 00 	lea    0xd694(%rip),%rax        # 17da8 <g_10>
    a714:	48 89 85 f8 fd ff ff 	mov    %rax,-0x208(%rbp)
    a71b:	48 8d 85 00 fe ff ff 	lea    -0x200(%rbp),%rax
    a722:	48 8d 15 57 67 00 00 	lea    0x6757(%rip),%rdx        # 10e80 <g_905+0xdf0>
    a729:	b9 3f 00 00 00       	mov    $0x3f,%ecx
    a72e:	48 89 c7             	mov    %rax,%rdi
    a731:	48 89 d6             	mov    %rdx,%rsi
    a734:	f3 48 a5             	rep movsq %ds:(%rsi),%es:(%rdi)
    a737:	48 8b 85 f8 fd ff ff 	mov    -0x208(%rbp),%rax
    a73e:	48 8d 15 5b d6 00 00 	lea    0xd65b(%rip),%rdx        # 17da0 <g_11>
    a745:	48 89 10             	mov    %rdx,(%rax)
    a748:	48 8b 85 f8 fd ff ff 	mov    -0x208(%rbp),%rax
    a74f:	48 8b 00             	mov    (%rax),%rax
    a752:	48 8d 15 47 d6 00 00 	lea    0xd647(%rip),%rdx        # 17da0 <g_11>
    a759:	48 39 d0             	cmp    %rdx,%rax
    a75c:	0f 95 c0             	setne  %al
    a75f:	0f b6 d0             	movzbl %al,%edx
    a762:	8b 85 ac fe ff ff    	mov    -0x154(%rbp),%eax
    a768:	31 d0                	xor    %edx,%eax
    a76a:	89 85 ac fe ff ff    	mov    %eax,-0x154(%rbp)
    a770:	bf 05 00 00 00       	mov    $0x5,%edi
    a775:	e8 6f b5 ff ff       	callq  5ce9 <safe_unary_minus_func_uint16_t_u>
    a77a:	8b 95 ac fe ff ff    	mov    -0x154(%rbp),%edx
    a780:	0f b7 c0             	movzwl %ax,%eax
    a783:	21 d0                	and    %edx,%eax
    a785:	89 85 ac fe ff ff    	mov    %eax,-0x154(%rbp)
    a78b:	48 8b 85 f8 fd ff ff 	mov    -0x208(%rbp),%rax
    a792:	48 8b 00             	mov    (%rax),%rax
    a795:	48 8b 00             	mov    (%rax),%rax
    a798:	48 8b 4d f8          	mov    -0x8(%rbp),%rcx
    a79c:	64 48 33 0c 25 28 00 	xor    %fs:0x28,%rcx
    a7a3:	00 00 
    a7a5:	74 05                	je     a7ac <func_42+0xc3>
    a7a7:	e8 c4 a8 ff ff       	callq  5070 <__stack_chk_fail@plt>
    a7ac:	c9                   	leaveq 
    a7ad:	c3                   	retq   

000000000000a7ae <func_69>:
    a7ae:	f3 0f 1e fa          	endbr64 
    a7b2:	55                   	push   %rbp
    a7b3:	48 89 e5             	mov    %rsp,%rbp
    a7b6:	41 57                	push   %r15
    a7b8:	41 56                	push   %r14
    a7ba:	41 55                	push   %r13
    a7bc:	41 54                	push   %r12
    a7be:	53                   	push   %rbx
    a7bf:	48 81 ec 00 10 00 00 	sub    $0x1000,%rsp
    a7c6:	48 83 0c 24 00       	orq    $0x0,(%rsp)
    a7cb:	48 81 ec 58 04 00 00 	sub    $0x458,%rsp
    a7d2:	89 fa                	mov    %edi,%edx
    a7d4:	89 f0                	mov    %esi,%eax
    a7d6:	88 95 8c eb ff ff    	mov    %dl,-0x1474(%rbp)
    a7dc:	88 85 88 eb ff ff    	mov    %al,-0x1478(%rbp)
    a7e2:	64 48 8b 04 25 28 00 	mov    %fs:0x28,%rax
    a7e9:	00 00 
    a7eb:	48 89 45 c8          	mov    %rax,-0x38(%rbp)
    a7ef:	31 c0                	xor    %eax,%eax
    a7f1:	48 8d 05 a0 a8 00 00 	lea    0xa8a0(%rip),%rax        # 15098 <g_64+0x8>
    a7f8:	48 89 85 00 ec ff ff 	mov    %rax,-0x1400(%rbp)
    a7ff:	48 8d 85 00 ec ff ff 	lea    -0x1400(%rbp),%rax
    a806:	48 89 85 38 ec ff ff 	mov    %rax,-0x13c8(%rbp)
    a80d:	c7 85 a8 eb ff ff e2 	movl   $0x3e3aa3e2,-0x1458(%rbp)
    a814:	a3 3a 3e 
    a817:	c7 85 ac eb ff ff 00 	movl   $0x0,-0x1454(%rbp)
    a81e:	00 00 00 
    a821:	c7 85 b0 eb ff ff c5 	movl   $0xc86b15c5,-0x1450(%rbp)
    a828:	15 6b c8 
    a82b:	c7 85 b4 eb ff ff 50 	movl   $0x168d5a50,-0x144c(%rbp)
    a832:	5a 8d 16 
    a835:	48 c7 85 40 ec ff ff 	movq   $0xffffffffffffffff,-0x13c0(%rbp)
    a83c:	ff ff ff ff 
    a840:	48 8d 05 79 d5 00 00 	lea    0xd579(%rip),%rax        # 17dc0 <g_148>
    a847:	48 89 85 08 ec ff ff 	mov    %rax,-0x13f8(%rbp)
    a84e:	c6 85 9c eb ff ff 9a 	movb   $0x9a,-0x1464(%rbp)
    a855:	48 8d 05 ec b6 00 00 	lea    0xb6ec(%rip),%rax        # 15f48 <g_286>
    a85c:	48 89 85 10 ec ff ff 	mov    %rax,-0x13f0(%rbp)
    a863:	48 8d 05 a2 ab 00 00 	lea    0xaba2(%rip),%rax        # 1540c <g_100>
    a86a:	48 89 85 48 ec ff ff 	mov    %rax,-0x13b8(%rbp)
    a871:	48 c7 85 50 ec ff ff 	movq   $0x0,-0x13b0(%rbp)
    a878:	00 00 00 00 
    a87c:	48 8d 05 97 b2 00 00 	lea    0xb297(%rip),%rax        # 15b1a <g_132>
    a883:	48 89 85 e0 ed ff ff 	mov    %rax,-0x1220(%rbp)
    a88a:	48 c7 85 e8 ed ff ff 	movq   $0x0,-0x1218(%rbp)
    a891:	00 00 00 00 
    a895:	48 8d 05 7e b2 00 00 	lea    0xb27e(%rip),%rax        # 15b1a <g_132>
    a89c:	48 89 85 f0 ed ff ff 	mov    %rax,-0x1210(%rbp)
    a8a3:	48 8d 05 70 b2 00 00 	lea    0xb270(%rip),%rax        # 15b1a <g_132>
    a8aa:	48 89 85 f8 ed ff ff 	mov    %rax,-0x1208(%rbp)
    a8b1:	48 8d 05 62 b2 00 00 	lea    0xb262(%rip),%rax        # 15b1a <g_132>
    a8b8:	48 89 85 00 ee ff ff 	mov    %rax,-0x1200(%rbp)
    a8bf:	48 8d 05 54 b2 00 00 	lea    0xb254(%rip),%rax        # 15b1a <g_132>
    a8c6:	48 89 85 08 ee ff ff 	mov    %rax,-0x11f8(%rbp)
    a8cd:	48 8d 05 46 b2 00 00 	lea    0xb246(%rip),%rax        # 15b1a <g_132>
    a8d4:	48 89 85 10 ee ff ff 	mov    %rax,-0x11f0(%rbp)
    a8db:	48 8d 05 38 b2 00 00 	lea    0xb238(%rip),%rax        # 15b1a <g_132>
    a8e2:	48 89 85 18 ee ff ff 	mov    %rax,-0x11e8(%rbp)
    a8e9:	48 8d 05 2a b2 00 00 	lea    0xb22a(%rip),%rax        # 15b1a <g_132>
    a8f0:	48 89 85 20 ee ff ff 	mov    %rax,-0x11e0(%rbp)
    a8f7:	48 8d 05 1c b2 00 00 	lea    0xb21c(%rip),%rax        # 15b1a <g_132>
    a8fe:	48 89 85 28 ee ff ff 	mov    %rax,-0x11d8(%rbp)
    a905:	48 8d 05 0e b2 00 00 	lea    0xb20e(%rip),%rax        # 15b1a <g_132>
    a90c:	48 89 85 30 ee ff ff 	mov    %rax,-0x11d0(%rbp)
    a913:	48 8d 05 00 b2 00 00 	lea    0xb200(%rip),%rax        # 15b1a <g_132>
    a91a:	48 89 85 38 ee ff ff 	mov    %rax,-0x11c8(%rbp)
    a921:	48 8d 05 f2 b1 00 00 	lea    0xb1f2(%rip),%rax        # 15b1a <g_132>
    a928:	48 89 85 40 ee ff ff 	mov    %rax,-0x11c0(%rbp)
    a92f:	48 c7 85 48 ee ff ff 	movq   $0x0,-0x11b8(%rbp)
    a936:	00 00 00 00 
    a93a:	48 8d 05 d9 b1 00 00 	lea    0xb1d9(%rip),%rax        # 15b1a <g_132>
    a941:	48 89 85 50 ee ff ff 	mov    %rax,-0x11b0(%rbp)
    a948:	48 8d 05 cb b1 00 00 	lea    0xb1cb(%rip),%rax        # 15b1a <g_132>
    a94f:	48 89 85 58 ee ff ff 	mov    %rax,-0x11a8(%rbp)
    a956:	48 c7 85 60 ee ff ff 	movq   $0x0,-0x11a0(%rbp)
    a95d:	00 00 00 00 
    a961:	48 8d 05 b2 b1 00 00 	lea    0xb1b2(%rip),%rax        # 15b1a <g_132>
    a968:	48 89 85 68 ee ff ff 	mov    %rax,-0x1198(%rbp)
    a96f:	48 8d 05 1a b6 00 00 	lea    0xb61a(%rip),%rax        # 15f90 <g_426>
    a976:	48 89 85 58 ec ff ff 	mov    %rax,-0x13a8(%rbp)
    a97d:	c7 85 cc eb ff ff 01 	movl   $0x1,-0x1434(%rbp)
    a984:	00 00 00 
    a987:	48 8d 05 f6 bd 00 00 	lea    0xbdf6(%rip),%rax        # 16784 <g_492>
    a98e:	48 89 85 60 ec ff ff 	mov    %rax,-0x13a0(%rbp)
    a995:	66 c7 85 a0 eb ff ff 	movw   $0x8,-0x1460(%rbp)
    a99c:	08 00 
    a99e:	66 c7 85 a2 eb ff ff 	movw   $0xfff9,-0x145e(%rbp)
    a9a5:	f9 ff 
    a9a7:	c7 85 d0 eb ff ff 00 	movl   $0x0,-0x1430(%rbp)
    a9ae:	00 00 00 
    a9b1:	c7 85 d4 eb ff ff 99 	movl   $0x35350a99,-0x142c(%rbp)
    a9b8:	0a 35 35 
    a9bb:	c7 85 b8 eb ff ff 00 	movl   $0x0,-0x1448(%rbp)
    a9c2:	00 00 00 
    a9c5:	eb 1a                	jmp    a9e1 <func_69+0x233>
    a9c7:	8b 85 b8 eb ff ff    	mov    -0x1448(%rbp),%eax
    a9cd:	48 98                	cltq   
    a9cf:	c7 84 85 48 ed ff ff 	movl   $0x38103768,-0x12b8(%rbp,%rax,4)
    a9d6:	68 37 10 38 
    a9da:	83 85 b8 eb ff ff 01 	addl   $0x1,-0x1448(%rbp)
    a9e1:	83 bd b8 eb ff ff 01 	cmpl   $0x1,-0x1448(%rbp)
    a9e8:	7e dd                	jle    a9c7 <func_69+0x219>
    a9ea:	c7 85 b8 eb ff ff 00 	movl   $0x0,-0x1448(%rbp)
    a9f1:	00 00 00 
    a9f4:	eb 1e                	jmp    aa14 <func_69+0x266>
    a9f6:	8b 85 b8 eb ff ff    	mov    -0x1448(%rbp),%eax
    a9fc:	48 98                	cltq   
    a9fe:	48 8d 15 a3 dd 00 00 	lea    0xdda3(%rip),%rdx        # 187a8 <g_362>
    aa05:	48 89 94 c5 50 ed ff 	mov    %rdx,-0x12b0(%rbp,%rax,8)
    aa0c:	ff 
    aa0d:	83 85 b8 eb ff ff 01 	addl   $0x1,-0x1448(%rbp)
    aa14:	83 bd b8 eb ff ff 01 	cmpl   $0x1,-0x1448(%rbp)
    aa1b:	7e d9                	jle    a9f6 <func_69+0x248>
    aa1d:	8b 05 61 b5 00 00    	mov    0xb561(%rip),%eax        # 15f84 <g_384>
    aa23:	48 8b 85 38 ec ff ff 	mov    -0x13c8(%rbp),%rax
    aa2a:	48 8d 15 6f a6 00 00 	lea    0xa66f(%rip),%rdx        # 150a0 <g_64+0x10>
    aa31:	48 89 10             	mov    %rdx,(%rax)
    aa34:	48 8b 85 38 ec ff ff 	mov    -0x13c8(%rbp),%rax
    aa3b:	48 8b 00             	mov    (%rax),%rax
    aa3e:	48 8d 15 53 a6 00 00 	lea    0xa653(%rip),%rdx        # 15098 <g_64+0x8>
    aa45:	48 39 d0             	cmp    %rdx,%rax
    aa48:	0f 95 c0             	setne  %al
    aa4b:	0f b6 d0             	movzbl %al,%edx
    aa4e:	0f be 85 8c eb ff ff 	movsbl -0x1474(%rbp),%eax
    aa55:	39 c2                	cmp    %eax,%edx
    aa57:	0f 8f 34 01 00 00    	jg     ab91 <func_69+0x3e3>
    aa5d:	48 8d 05 3c d3 00 00 	lea    0xd33c(%rip),%rax        # 17da0 <g_11>
    aa64:	48 89 85 e8 ec ff ff 	mov    %rax,-0x1318(%rbp)
    aa6b:	48 8d 05 4e d3 00 00 	lea    0xd34e(%rip),%rax        # 17dc0 <g_148>
    aa72:	48 89 85 f0 ec ff ff 	mov    %rax,-0x1310(%rbp)
    aa79:	48 c7 85 f8 ec ff ff 	movq   $0x0,-0x1308(%rbp)
    aa80:	00 00 00 00 
    aa84:	48 8d 05 81 a9 00 00 	lea    0xa981(%rip),%rax        # 1540c <g_100>
    aa8b:	48 89 85 00 ed ff ff 	mov    %rax,-0x1300(%rbp)
    aa92:	8b 85 a8 eb ff ff    	mov    -0x1458(%rbp),%eax
    aa98:	85 c0                	test   %eax,%eax
    aa9a:	75 0a                	jne    aaa6 <func_69+0x2f8>
    aa9c:	8b 05 92 b4 00 00    	mov    0xb492(%rip),%eax        # 15f34 <g_230+0x14>
    aaa2:	85 c0                	test   %eax,%eax
    aaa4:	75 07                	jne    aaad <func_69+0x2ff>
    aaa6:	b8 01 00 00 00       	mov    $0x1,%eax
    aaab:	eb 05                	jmp    aab2 <func_69+0x304>
    aaad:	b8 00 00 00 00       	mov    $0x0,%eax
    aab2:	0f be d0             	movsbl %al,%edx
    aab5:	0f b7 05 6c b0 00 00 	movzwl 0xb06c(%rip),%eax        # 15b28 <g_202>
    aabc:	0f be c0             	movsbl %al,%eax
    aabf:	89 d6                	mov    %edx,%esi
    aac1:	89 c7                	mov    %eax,%edi
    aac3:	e8 a2 a7 ff ff       	callq  526a <safe_div_func_int8_t_s_s>
    aac8:	48 8b 85 e8 ec ff ff 	mov    -0x1318(%rbp),%rax
    aacf:	48 8b 00             	mov    (%rax),%rax
    aad2:	8b 00                	mov    (%rax),%eax
    aad4:	89 c2                	mov    %eax,%edx
    aad6:	80 bd 88 eb ff ff 12 	cmpb   $0x12,-0x1478(%rbp)
    aadd:	0f 9e c0             	setle  %al
    aae0:	21 d0                	and    %edx,%eax
    aae2:	0f b6 d8             	movzbl %al,%ebx
    aae5:	48 8b 85 00 ed ff ff 	mov    -0x1300(%rbp),%rax
    aaec:	0f b6 00             	movzbl (%rax),%eax
    aaef:	8d 50 01             	lea    0x1(%rax),%edx
    aaf2:	48 8b 85 00 ed ff ff 	mov    -0x1300(%rbp),%rax
    aaf9:	88 10                	mov    %dl,(%rax)
    aafb:	48 8b 85 00 ed ff ff 	mov    -0x1300(%rbp),%rax
    ab02:	0f b6 00             	movzbl (%rax),%eax
    ab05:	0f b6 d0             	movzbl %al,%edx
    ab08:	48 8b 85 f0 ec ff ff 	mov    -0x1310(%rbp),%rax
    ab0f:	48 8b 8d e8 ec ff ff 	mov    -0x1318(%rbp),%rcx
    ab16:	48 89 08             	mov    %rcx,(%rax)
    ab19:	48 8b 85 f0 ec ff ff 	mov    -0x1310(%rbp),%rax
    ab20:	48 8b 08             	mov    (%rax),%rcx
    ab23:	48 8b 05 ae d2 00 00 	mov    0xd2ae(%rip),%rax        # 17dd8 <g_252>
    ab2a:	48 8b 00             	mov    (%rax),%rax
    ab2d:	48 39 c1             	cmp    %rax,%rcx
    ab30:	0f 95 c0             	setne  %al
    ab33:	0f b6 c0             	movzbl %al,%eax
    ab36:	89 d6                	mov    %edx,%esi
    ab38:	89 c7                	mov    %eax,%edi
    ab3a:	e8 54 b0 ff ff       	callq  5b93 <safe_mul_func_uint8_t_u_u>
    ab3f:	0f b6 c0             	movzbl %al,%eax
    ab42:	89 de                	mov    %ebx,%esi
    ab44:	89 c7                	mov    %eax,%edi
    ab46:	e8 48 b0 ff ff       	callq  5b93 <safe_mul_func_uint8_t_u_u>
    ab4b:	0f b6 d0             	movzbl %al,%edx
    ab4e:	48 8b 05 5b d2 00 00 	mov    0xd25b(%rip),%rax        # 17db0 <g_141>
    ab55:	48 8b 00             	mov    (%rax),%rax
    ab58:	48 89 d6             	mov    %rdx,%rsi
    ab5b:	48 89 c7             	mov    %rax,%rdi
    ab5e:	e8 de ac ff ff       	callq  5841 <safe_add_func_int64_t_s_s>
    ab63:	0f b7 c0             	movzwl %ax,%eax
    ab66:	be 01 00 00 00       	mov    $0x1,%esi
    ab6b:	89 c7                	mov    %eax,%edi
    ab6d:	e8 8d b1 ff ff       	callq  5cff <safe_add_func_uint16_t_u_u>
    ab72:	b8 01 00 00 00       	mov    $0x1,%eax
    ab77:	21 85 ac eb ff ff    	and    %eax,-0x1454(%rbp)
    ab7d:	48 8b 05 1c d2 00 00 	mov    0xd21c(%rip),%rax        # 17da0 <g_11>
    ab84:	8b 00                	mov    (%rax),%eax
    ab86:	89 85 ac eb ff ff    	mov    %eax,-0x1454(%rbp)
    ab8c:	e9 5d 0b 00 00       	jmpq   b6ee <func_69+0xf40>
    ab91:	c6 85 30 ec ff ff 01 	movb   $0x1,-0x13d0(%rbp)
    ab98:	48 8d 05 11 d2 00 00 	lea    0xd211(%rip),%rax        # 17db0 <g_141>
    ab9f:	48 89 85 68 ec ff ff 	mov    %rax,-0x1398(%rbp)
    aba6:	48 8d 85 40 f8 ff ff 	lea    -0x7c0(%rbp),%rax
    abad:	48 8d 15 6c ca 00 00 	lea    0xca6c(%rip),%rdx        # 17620 <g_1668+0x70c>
    abb4:	b9 f0 00 00 00       	mov    $0xf0,%ecx
    abb9:	48 89 c7             	mov    %rax,%rdi
    abbc:	48 89 d6             	mov    %rdx,%rsi
    abbf:	f3 48 a5             	rep movsq %ds:(%rsi),%es:(%rdi)
    abc2:	66 c7 85 a4 eb ff ff 	movw   $0xffff,-0x145c(%rbp)
    abc9:	ff ff 
    abcb:	48 c7 85 70 ec ff ff 	movq   $0x0,-0x1390(%rbp)
    abd2:	00 00 00 00 
    abd6:	48 8d 05 3b af 00 00 	lea    0xaf3b(%rip),%rax        # 15b18 <g_126>
    abdd:	48 89 85 78 ec ff ff 	mov    %rax,-0x1388(%rbp)
    abe4:	48 8d 05 a5 b3 00 00 	lea    0xb3a5(%rip),%rax        # 15f90 <g_426>
    abeb:	48 89 85 80 ec ff ff 	mov    %rax,-0x1380(%rbp)
    abf2:	c6 85 9d eb ff ff 0f 	movb   $0xf,-0x1463(%rbp)
    abf9:	48 8d 85 a8 eb ff ff 	lea    -0x1458(%rbp),%rax
    ac00:	48 89 85 88 ec ff ff 	mov    %rax,-0x1378(%rbp)
    ac07:	0f b6 85 30 ec ff ff 	movzbl -0x13d0(%rbp),%eax
    ac0e:	44 0f be e8          	movsbl %al,%r13d
    ac12:	80 bd 8c eb ff ff 00 	cmpb   $0x0,-0x1474(%rbp)
    ac19:	0f 84 43 01 00 00    	je     ad62 <func_69+0x5b4>
    ac1f:	48 8b 05 22 b3 00 00 	mov    0xb322(%rip),%rax        # 15f48 <g_286>
    ac26:	0f b6 d8             	movzbl %al,%ebx
    ac29:	8b 85 a8 eb ff ff    	mov    -0x1458(%rbp),%eax
    ac2f:	85 c0                	test   %eax,%eax
    ac31:	0f 84 fa 00 00 00    	je     ad31 <func_69+0x583>
    ac37:	44 0f b6 a5 9d eb ff 	movzbl -0x1463(%rbp),%r12d
    ac3e:	ff 
    ac3f:	8b 85 ac eb ff ff    	mov    -0x1454(%rbp),%eax
    ac45:	0f b7 d0             	movzwl %ax,%edx
    ac48:	80 bd 88 eb ff ff ff 	cmpb   $0xff,-0x1478(%rbp)
    ac4f:	0f 9c c0             	setl   %al
    ac52:	0f b6 c8             	movzbl %al,%ecx
    ac55:	48 8b 85 78 ec ff ff 	mov    -0x1388(%rbp),%rax
    ac5c:	0f b7 00             	movzwl (%rax),%eax
    ac5f:	89 c6                	mov    %eax,%esi
    ac61:	89 c8                	mov    %ecx,%eax
    ac63:	31 f0                	xor    %esi,%eax
    ac65:	89 c1                	mov    %eax,%ecx
    ac67:	48 8b 85 78 ec ff ff 	mov    -0x1388(%rbp),%rax
    ac6e:	66 89 08             	mov    %cx,(%rax)
    ac71:	48 8b 85 78 ec ff ff 	mov    -0x1388(%rbp),%rax
    ac78:	0f b7 08             	movzwl (%rax),%ecx
    ac7b:	48 8b 85 80 ec ff ff 	mov    -0x1380(%rbp),%rax
    ac82:	0f b7 00             	movzwl (%rax),%eax
    ac85:	09 c1                	or     %eax,%ecx
    ac87:	48 8b 85 80 ec ff ff 	mov    -0x1380(%rbp),%rax
    ac8e:	66 89 08             	mov    %cx,(%rax)
    ac91:	48 8b 85 80 ec ff ff 	mov    -0x1380(%rbp),%rax
    ac98:	0f b7 00             	movzwl (%rax),%eax
    ac9b:	0f b7 c0             	movzwl %ax,%eax
    ac9e:	89 d6                	mov    %edx,%esi
    aca0:	89 c7                	mov    %eax,%edi
    aca2:	e8 b5 b0 ff ff       	callq  5d5c <safe_mod_func_uint16_t_u_u>
    aca7:	48 8b 15 ea a3 00 00 	mov    0xa3ea(%rip),%rdx        # 15098 <g_64+0x8>
    acae:	0f b6 85 30 ec ff ff 	movzbl -0x13d0(%rbp),%eax
    acb5:	48 0f be c0          	movsbq %al,%rax
    acb9:	48 21 d0             	and    %rdx,%rax
    acbc:	48 89 05 d5 a3 00 00 	mov    %rax,0xa3d5(%rip)        # 15098 <g_64+0x8>
    acc3:	48 8b 05 ce a3 00 00 	mov    0xa3ce(%rip),%rax        # 15098 <g_64+0x8>
    acca:	48 ba a9 bf 7f 90 4b 	movabs $0x7ce6a74b907fbfa9,%rdx
    acd1:	a7 e6 7c 
    acd4:	48 39 d0             	cmp    %rdx,%rax
    acd7:	77 09                	ja     ace2 <func_69+0x534>
    acd9:	83 bd ac eb ff ff 00 	cmpl   $0x0,-0x1454(%rbp)
    ace0:	74 07                	je     ace9 <func_69+0x53b>
    ace2:	b8 01 00 00 00       	mov    $0x1,%eax
    ace7:	eb 05                	jmp    acee <func_69+0x540>
    ace9:	b8 00 00 00 00       	mov    $0x0,%eax
    acee:	44 89 e6             	mov    %r12d,%esi
    acf1:	89 c7                	mov    %eax,%edi
    acf3:	e8 d4 a9 ff ff       	callq  56cc <safe_mod_func_int32_t_s_s>
    acf8:	89 c1                	mov    %eax,%ecx
    acfa:	0f b7 05 7f b2 00 00 	movzwl 0xb27f(%rip),%eax        # 15f80 <g_316>
    ad01:	66 85 c0             	test   %ax,%ax
    ad04:	0f 95 c0             	setne  %al
    ad07:	0f b6 d0             	movzbl %al,%edx
    ad0a:	0f b6 05 fb a6 00 00 	movzbl 0xa6fb(%rip),%eax        # 1540c <g_100>
    ad11:	0f b6 c0             	movzbl %al,%eax
    ad14:	39 c2                	cmp    %eax,%edx
    ad16:	0f 95 c0             	setne  %al
    ad19:	0f b6 c0             	movzbl %al,%eax
    ad1c:	89 ce                	mov    %ecx,%esi
    ad1e:	89 c7                	mov    %eax,%edi
    ad20:	e8 00 b2 ff ff       	callq  5f25 <safe_div_func_uint32_t_u_u>
    ad25:	83 f8 ff             	cmp    $0xffffffff,%eax
    ad28:	74 07                	je     ad31 <func_69+0x583>
    ad2a:	b8 01 00 00 00       	mov    $0x1,%eax
    ad2f:	eb 05                	jmp    ad36 <func_69+0x588>
    ad31:	b8 00 00 00 00       	mov    $0x0,%eax
    ad36:	89 c6                	mov    %eax,%esi
    ad38:	bf 00 00 00 00       	mov    $0x0,%edi
    ad3d:	e8 76 b1 ff ff       	callq  5eb8 <safe_add_func_uint32_t_u_u>
    ad42:	0f b6 c0             	movzbl %al,%eax
    ad45:	89 de                	mov    %ebx,%esi
    ad47:	89 c7                	mov    %eax,%edi
    ad49:	e8 0c ae ff ff       	callq  5b5a <safe_add_func_uint8_t_u_u>
    ad4e:	0f b6 d0             	movzbl %al,%edx
    ad51:	8b 05 0d a3 00 00    	mov    0xa30d(%rip),%eax        # 15064 <g_17>
    ad57:	39 c2                	cmp    %eax,%edx
    ad59:	7d 07                	jge    ad62 <func_69+0x5b4>
    ad5b:	ba 01 00 00 00       	mov    $0x1,%edx
    ad60:	eb 05                	jmp    ad67 <func_69+0x5b9>
    ad62:	ba 00 00 00 00       	mov    $0x0,%edx
    ad67:	0f be 85 88 eb ff ff 	movsbl -0x1478(%rbp),%eax
    ad6e:	39 c2                	cmp    %eax,%edx
    ad70:	75 12                	jne    ad84 <func_69+0x5d6>
    ad72:	80 bd 8c eb ff ff 00 	cmpb   $0x0,-0x1474(%rbp)
    ad79:	75 09                	jne    ad84 <func_69+0x5d6>
    ad7b:	83 bd b0 eb ff ff 00 	cmpl   $0x0,-0x1450(%rbp)
    ad82:	74 07                	je     ad8b <func_69+0x5dd>
    ad84:	ba 01 00 00 00       	mov    $0x1,%edx
    ad89:	eb 05                	jmp    ad90 <func_69+0x5e2>
    ad8b:	ba 00 00 00 00       	mov    $0x0,%edx
    ad90:	48 8b 85 88 ec ff ff 	mov    -0x1378(%rbp),%rax
    ad97:	89 10                	mov    %edx,(%rax)
    ad99:	48 8b 85 88 ec ff ff 	mov    -0x1378(%rbp),%rax
    ada0:	8b 00                	mov    (%rax),%eax
    ada2:	41 39 c5             	cmp    %eax,%r13d
    ada5:	0f 9c c0             	setl   %al
    ada8:	0f b6 d0             	movzbl %al,%edx
    adab:	8b 85 4c ed ff ff    	mov    -0x12b4(%rbp),%eax
    adb1:	31 d0                	xor    %edx,%eax
    adb3:	89 85 4c ed ff ff    	mov    %eax,-0x12b4(%rbp)
    adb9:	66 c7 05 ce b1 00 00 	movw   $0x0,0xb1ce(%rip)        # 15f90 <g_426>
    adc0:	00 00 
    adc2:	e9 16 09 00 00       	jmpq   b6dd <func_69+0xf2f>
    adc7:	48 c7 85 90 ec ff ff 	movq   $0x0,-0x1370(%rbp)
    adce:	00 00 00 00 
    add2:	66 c7 85 80 ed ff ff 	movw   $0xfffe,-0x1280(%rbp)
    add9:	fe ff 
    addb:	66 c7 85 82 ed ff ff 	movw   $0xfffe,-0x127e(%rbp)
    ade2:	fe ff 
    ade4:	66 c7 85 84 ed ff ff 	movw   $0xfffe,-0x127c(%rbp)
    adeb:	fe ff 
    aded:	66 c7 85 86 ed ff ff 	movw   $0xfffe,-0x127a(%rbp)
    adf4:	fe ff 
    adf6:	66 c7 85 88 ed ff ff 	movw   $0xfffe,-0x1278(%rbp)
    adfd:	fe ff 
    adff:	66 c7 85 8a ed ff ff 	movw   $0xfffe,-0x1276(%rbp)
    ae06:	fe ff 
    ae08:	66 c7 85 8c ed ff ff 	movw   $0xfffe,-0x1274(%rbp)
    ae0f:	fe ff 
    ae11:	c7 85 d8 eb ff ff 48 	movl   $0x2da2db48,-0x1428(%rbp)
    ae18:	db a2 2d 
    ae1b:	48 8d 85 30 ec ff ff 	lea    -0x13d0(%rbp),%rax
    ae22:	48 89 85 70 ee ff ff 	mov    %rax,-0x1190(%rbp)
    ae29:	48 8d 85 30 ec ff ff 	lea    -0x13d0(%rbp),%rax
    ae30:	48 89 85 78 ee ff ff 	mov    %rax,-0x1188(%rbp)
    ae37:	48 8d 85 30 ec ff ff 	lea    -0x13d0(%rbp),%rax
    ae3e:	48 89 85 80 ee ff ff 	mov    %rax,-0x1180(%rbp)
    ae45:	48 8d 85 30 ec ff ff 	lea    -0x13d0(%rbp),%rax
    ae4c:	48 89 85 88 ee ff ff 	mov    %rax,-0x1178(%rbp)
    ae53:	c7 85 dc eb ff ff 3a 	movl   $0x5721d53a,-0x1424(%rbp)
    ae5a:	d5 21 57 
    ae5d:	66 c7 85 a0 ed ff ff 	movw   $0x8133,-0x1260(%rbp)
    ae64:	33 81 
    ae66:	66 c7 85 a2 ed ff ff 	movw   $0x8133,-0x125e(%rbp)
    ae6d:	33 81 
    ae6f:	66 c7 85 a4 ed ff ff 	movw   $0x8133,-0x125c(%rbp)
    ae76:	33 81 
    ae78:	66 c7 85 a6 ed ff ff 	movw   $0x8133,-0x125a(%rbp)
    ae7f:	33 81 
    ae81:	66 c7 85 a8 ed ff ff 	movw   $0x8133,-0x1258(%rbp)
    ae88:	33 81 
    ae8a:	66 c7 85 aa ed ff ff 	movw   $0x8133,-0x1256(%rbp)
    ae91:	33 81 
    ae93:	66 c7 85 ac ed ff ff 	movw   $0x8133,-0x1254(%rbp)
    ae9a:	33 81 
    ae9c:	66 c7 85 ae ed ff ff 	movw   $0x8133,-0x1252(%rbp)
    aea3:	33 81 
    aea5:	66 c7 85 b0 ed ff ff 	movw   $0x8133,-0x1250(%rbp)
    aeac:	33 81 
    aeae:	66 c7 85 b2 ed ff ff 	movw   $0x8133,-0x124e(%rbp)
    aeb5:	33 81 
    aeb7:	c7 85 bc eb ff ff 00 	movl   $0x0,-0x1444(%rbp)
    aebe:	00 00 00 
    aec1:	eb 1e                	jmp    aee1 <func_69+0x733>
    aec3:	8b 85 bc eb ff ff    	mov    -0x1444(%rbp),%eax
    aec9:	48 98                	cltq   
    aecb:	48 8d 15 56 ac 00 00 	lea    0xac56(%rip),%rdx        # 15b28 <g_202>
    aed2:	48 89 94 c5 00 f0 ff 	mov    %rdx,-0x1000(%rbp,%rax,8)
    aed9:	ff 
    aeda:	83 85 bc eb ff ff 01 	addl   $0x1,-0x1444(%rbp)
    aee1:	83 bd bc eb ff ff 07 	cmpl   $0x7,-0x1444(%rbp)
    aee8:	7e d9                	jle    aec3 <func_69+0x715>
    aeea:	48 8b 85 28 f0 ff ff 	mov    -0xfd8(%rbp),%rax
    aef1:	48 39 85 90 ec ff ff 	cmp    %rax,-0x1370(%rbp)
    aef8:	0f 95 c0             	setne  %al
    aefb:	0f b6 d8             	movzbl %al,%ebx
    aefe:	48 8b 85 28 f0 ff ff 	mov    -0xfd8(%rbp),%rax
    af05:	48 85 c0             	test   %rax,%rax
    af08:	0f 95 c0             	setne  %al
    af0b:	0f b6 d0             	movzbl %al,%edx
    af0e:	0f b7 85 8c ed ff ff 	movzwl -0x1274(%rbp),%eax
    af15:	0f b7 c0             	movzwl %ax,%eax
    af18:	89 d6                	mov    %edx,%esi
    af1a:	89 c7                	mov    %eax,%edi
    af1c:	e8 1c ae ff ff       	callq  5d3d <safe_mul_func_uint16_t_u_u>
    af21:	0f b7 c0             	movzwl %ax,%eax
    af24:	39 c3                	cmp    %eax,%ebx
    af26:	48 8b 05 93 a8 00 00 	mov    0xa893(%rip),%rax        # 157c0 <g_102+0x3a0>
    af2d:	0f b6 d8             	movzbl %al,%ebx
    af30:	44 8b a5 b4 eb ff ff 	mov    -0x144c(%rbp),%r12d
    af37:	0f be 95 88 eb ff ff 	movsbl -0x1478(%rbp),%edx
    af3e:	0f b7 85 80 ed ff ff 	movzwl -0x1280(%rbp),%eax
    af45:	0f b7 c0             	movzwl %ax,%eax
    af48:	89 d6                	mov    %edx,%esi
    af4a:	89 c7                	mov    %eax,%edi
    af4c:	e8 65 a6 ff ff       	callq  55b6 <safe_add_func_int32_t_s_s>
    af51:	f7 d0                	not    %eax
    af53:	c1 e8 1f             	shr    $0x1f,%eax
    af56:	0f b6 d0             	movzbl %al,%edx
    af59:	0f b7 85 82 ed ff ff 	movzwl -0x127e(%rbp),%eax
    af60:	0f b7 c0             	movzwl %ax,%eax
    af63:	39 c2                	cmp    %eax,%edx
    af65:	0f 95 c0             	setne  %al
    af68:	0f b6 d0             	movzbl %al,%edx
    af6b:	0f b6 05 a8 ab 00 00 	movzbl 0xaba8(%rip),%eax        # 15b1a <g_132>
    af72:	0f be c0             	movsbl %al,%eax
    af75:	39 c2                	cmp    %eax,%edx
    af77:	0f 95 c0             	setne  %al
    af7a:	0f b6 d0             	movzbl %al,%edx
    af7d:	8b 05 ed a0 00 00    	mov    0xa0ed(%rip),%eax        # 15070 <g_29>
    af83:	39 c2                	cmp    %eax,%edx
    af85:	0f 95 c0             	setne  %al
    af88:	0f b6 c0             	movzbl %al,%eax
    af8b:	44 89 e6             	mov    %r12d,%esi
    af8e:	89 c7                	mov    %eax,%edi
    af90:	e8 70 a6 ff ff       	callq  5605 <safe_sub_func_int32_t_s_s>
    af95:	88 05 71 a4 00 00    	mov    %al,0xa471(%rip)        # 1540c <g_100>
    af9b:	0f b6 05 6a a4 00 00 	movzbl 0xa46a(%rip),%eax        # 1540c <g_100>
    afa2:	0f b6 c0             	movzbl %al,%eax
    afa5:	89 de                	mov    %ebx,%esi
    afa7:	89 c7                	mov    %eax,%edi
    afa9:	e8 e5 ab ff ff       	callq  5b93 <safe_mul_func_uint8_t_u_u>
    afae:	0f b7 85 8a ed ff ff 	movzwl -0x1276(%rbp),%eax
    afb5:	0f b7 d0             	movzwl %ax,%edx
    afb8:	8b 85 a8 eb ff ff    	mov    -0x1458(%rbp),%eax
    afbe:	39 c2                	cmp    %eax,%edx
    afc0:	0f 95 c0             	setne  %al
    afc3:	0f b6 c0             	movzbl %al,%eax
    afc6:	be a0 cb 76 19       	mov    $0x1976cba0,%esi
    afcb:	89 c7                	mov    %eax,%edi
    afcd:	e8 e4 a5 ff ff       	callq  55b6 <safe_add_func_int32_t_s_s>
    afd2:	0f b7 95 8c ed ff ff 	movzwl -0x1274(%rbp),%edx
    afd9:	0f b7 d2             	movzwl %dx,%edx
    afdc:	39 d0                	cmp    %edx,%eax
    afde:	80 bd 88 eb ff ff 00 	cmpb   $0x0,-0x1478(%rbp)
    afe5:	74 07                	je     afee <func_69+0x840>
    afe7:	b8 01 00 00 00       	mov    $0x1,%eax
    afec:	eb 05                	jmp    aff3 <func_69+0x845>
    afee:	b8 00 00 00 00       	mov    $0x0,%eax
    aff3:	83 f8 01             	cmp    $0x1,%eax
    aff6:	b8 a6 64 44 7a       	mov    $0x7a4464a6,%eax
    affb:	31 85 d8 eb ff ff    	xor    %eax,-0x1428(%rbp)
    b001:	66 c7 05 0e ab 00 00 	movw   $0x0,0xab0e(%rip)        # 15b18 <g_126>
    b008:	00 00 
    b00a:	e9 f4 04 00 00       	jmpq   b503 <func_69+0xd55>
    b00f:	48 8d 05 6e b7 00 00 	lea    0xb76e(%rip),%rax        # 16784 <g_492>
    b016:	48 89 85 98 ec ff ff 	mov    %rax,-0x1368(%rbp)
    b01d:	48 8d 05 94 cd 00 00 	lea    0xcd94(%rip),%rax        # 17db8 <g_149>
    b024:	48 89 85 a0 ec ff ff 	mov    %rax,-0x1360(%rbp)
    b02b:	c6 05 da a3 00 00 00 	movb   $0x0,0xa3da(%rip)        # 1540c <g_100>
    b032:	e9 46 03 00 00       	jmpq   b37d <func_69+0xbcf>
    b037:	48 8d 85 70 ee ff ff 	lea    -0x1190(%rbp),%rax
    b03e:	48 83 c0 18          	add    $0x18,%rax
    b042:	48 89 85 a8 ec ff ff 	mov    %rax,-0x1358(%rbp)
    b049:	48 c7 85 b0 ec ff ff 	movq   $0x0,-0x1350(%rbp)
    b050:	00 00 00 00 
    b054:	48 8d 05 b1 a3 00 00 	lea    0xa3b1(%rip),%rax        # 1540c <g_100>
    b05b:	48 89 85 00 f2 ff ff 	mov    %rax,-0xe00(%rbp)
    b062:	48 8d 05 a3 a3 00 00 	lea    0xa3a3(%rip),%rax        # 1540c <g_100>
    b069:	48 89 85 08 f2 ff ff 	mov    %rax,-0xdf8(%rbp)
    b070:	48 8d 05 95 a3 00 00 	lea    0xa395(%rip),%rax        # 1540c <g_100>
    b077:	48 89 85 10 f2 ff ff 	mov    %rax,-0xdf0(%rbp)
    b07e:	48 8d 05 87 a3 00 00 	lea    0xa387(%rip),%rax        # 1540c <g_100>
    b085:	48 89 85 18 f2 ff ff 	mov    %rax,-0xde8(%rbp)
    b08c:	48 8d 05 79 a3 00 00 	lea    0xa379(%rip),%rax        # 1540c <g_100>
    b093:	48 89 85 20 f2 ff ff 	mov    %rax,-0xde0(%rbp)
    b09a:	48 8d 05 6b a3 00 00 	lea    0xa36b(%rip),%rax        # 1540c <g_100>
    b0a1:	48 89 85 28 f2 ff ff 	mov    %rax,-0xdd8(%rbp)
    b0a8:	48 8d 05 5d a3 00 00 	lea    0xa35d(%rip),%rax        # 1540c <g_100>
    b0af:	48 89 85 30 f2 ff ff 	mov    %rax,-0xdd0(%rbp)
    b0b6:	48 8d 05 4f a3 00 00 	lea    0xa34f(%rip),%rax        # 1540c <g_100>
    b0bd:	48 89 85 38 f2 ff ff 	mov    %rax,-0xdc8(%rbp)
    b0c4:	48 8d 05 41 a3 00 00 	lea    0xa341(%rip),%rax        # 1540c <g_100>
    b0cb:	48 89 85 40 f2 ff ff 	mov    %rax,-0xdc0(%rbp)
    b0d2:	48 8d 05 67 ae 00 00 	lea    0xae67(%rip),%rax        # 15f40 <g_231>
    b0d9:	48 89 85 b8 ec ff ff 	mov    %rax,-0x1348(%rbp)
    b0e0:	48 8d 05 33 aa 00 00 	lea    0xaa33(%rip),%rax        # 15b1a <g_132>
    b0e7:	48 89 85 c0 ec ff ff 	mov    %rax,-0x1340(%rbp)
    b0ee:	c7 85 e8 eb ff ff a8 	movl   $0x53c8e1a8,-0x1418(%rbp)
    b0f5:	e1 c8 53 
    b0f8:	0f be 9d 8c eb ff ff 	movsbl -0x1474(%rbp),%ebx
    b0ff:	44 8b 25 62 ae 00 00 	mov    0xae62(%rip),%r12d        # 15f68 <g_315+0x8>
    b106:	0f b6 85 88 eb ff ff 	movzbl -0x1478(%rbp),%eax
    b10d:	0f b6 c0             	movzbl %al,%eax
    b110:	be ff 00 00 00       	mov    $0xff,%esi
    b115:	89 c7                	mov    %eax,%edi
    b117:	e8 77 aa ff ff       	callq  5b93 <safe_mul_func_uint8_t_u_u>
    b11c:	0f be c0             	movsbl %al,%eax
    b11f:	44 89 e6             	mov    %r12d,%esi
    b122:	89 c7                	mov    %eax,%edi
    b124:	e8 0c a2 ff ff       	callq  5335 <safe_rshift_func_int8_t_s_s>
    b129:	0f be c0             	movsbl %al,%eax
    b12c:	be 05 00 00 00       	mov    $0x5,%esi
    b131:	89 c7                	mov    %eax,%edi
    b133:	e8 b6 a1 ff ff       	callq  52ee <safe_lshift_func_int8_t_s_u>
    b138:	ba dc e7 db bd       	mov    $0xbddbe7dc,%edx
    b13d:	48 8b 85 c0 ec ff ff 	mov    -0x1340(%rbp),%rax
    b144:	0f b6 00             	movzbl (%rax),%eax
    b147:	09 c2                	or     %eax,%edx
    b149:	48 8b 85 c0 ec ff ff 	mov    -0x1340(%rbp),%rax
    b150:	88 10                	mov    %dl,(%rax)
    b152:	48 8b 85 c0 ec ff ff 	mov    -0x1340(%rbp),%rax
    b159:	0f b6 00             	movzbl (%rax),%eax
    b15c:	0f be c0             	movsbl %al,%eax
    b15f:	89 de                	mov    %ebx,%esi
    b161:	89 c7                	mov    %eax,%edi
    b163:	e8 6c a0 ff ff       	callq  51d4 <safe_add_func_int8_t_s_s>
    b168:	0f be d0             	movsbl %al,%edx
    b16b:	8b 05 ff ad 00 00    	mov    0xadff(%rip),%eax        # 15f70 <g_315+0x10>
    b171:	89 c6                	mov    %eax,%esi
    b173:	48 8b 05 f6 cc 00 00 	mov    0xccf6(%rip),%rax        # 17e70 <g_455+0x10>
    b17a:	48 85 c0             	test   %rax,%rax
    b17d:	74 48                	je     b1c7 <func_69+0xa19>
    b17f:	8b 05 a7 a9 00 00    	mov    0xa9a7(%rip),%eax        # 15b2c <g_211>
    b185:	48 8b 8d 88 ee ff ff 	mov    -0x1178(%rbp),%rcx
    b18c:	48 8b 85 a8 ec ff ff 	mov    -0x1358(%rbp),%rax
    b193:	48 89 08             	mov    %rcx,(%rax)
    b196:	48 8b 85 a8 ec ff ff 	mov    -0x1358(%rbp),%rax
    b19d:	48 8b 00             	mov    (%rax),%rax
    b1a0:	48 8d 0d 73 a9 00 00 	lea    0xa973(%rip),%rcx        # 15b1a <g_132>
    b1a7:	48 39 c8             	cmp    %rcx,%rax
    b1aa:	0f 95 c0             	setne  %al
    b1ad:	0f b6 c0             	movzbl %al,%eax
    b1b0:	89 05 2a ae 00 00    	mov    %eax,0xae2a(%rip)        # 15fe0 <g_461>
    b1b6:	8b 05 24 ae 00 00    	mov    0xae24(%rip),%eax        # 15fe0 <g_461>
    b1bc:	85 c0                	test   %eax,%eax
    b1be:	74 07                	je     b1c7 <func_69+0xa19>
    b1c0:	b8 01 00 00 00       	mov    $0x1,%eax
    b1c5:	eb 05                	jmp    b1cc <func_69+0xa1e>
    b1c7:	b8 00 00 00 00       	mov    $0x0,%eax
    b1cc:	09 f0                	or     %esi,%eax
    b1ce:	98                   	cwtl   
    b1cf:	89 d6                	mov    %edx,%esi
    b1d1:	89 c7                	mov    %eax,%edi
    b1d3:	e8 52 a3 ff ff       	callq  552a <safe_rshift_func_int16_t_s_s>
    b1d8:	98                   	cwtl   
    b1d9:	be 08 00 00 00       	mov    $0x8,%esi
    b1de:	89 c7                	mov    %eax,%edi
    b1e0:	e8 7e a3 ff ff       	callq  5563 <safe_rshift_func_int16_t_s_u>
    b1e5:	98                   	cwtl   
    b1e6:	39 85 b4 eb ff ff    	cmp    %eax,-0x144c(%rbp)
    b1ec:	0f 97 c0             	seta   %al
    b1ef:	0f b6 d0             	movzbl %al,%edx
    b1f2:	0f b7 05 97 ad 00 00 	movzwl 0xad97(%rip),%eax        # 15f90 <g_426>
    b1f9:	0f b7 c0             	movzwl %ax,%eax
    b1fc:	48 98                	cltq   
    b1fe:	0f b7 84 45 80 ed ff 	movzwl -0x1280(%rbp,%rax,2),%eax
    b205:	ff 
    b206:	0f b7 c0             	movzwl %ax,%eax
    b209:	89 d6                	mov    %edx,%esi
    b20b:	89 c7                	mov    %eax,%edi
    b20d:	e8 2b ab ff ff       	callq  5d3d <safe_mul_func_uint16_t_u_u>
    b212:	0f b7 d0             	movzwl %ax,%edx
    b215:	48 8b 05 7c 9e 00 00 	mov    0x9e7c(%rip),%rax        # 15098 <g_64+0x8>
    b21c:	48 39 c2             	cmp    %rax,%rdx
    b21f:	0f 95 c0             	setne  %al
    b222:	0f b6 d0             	movzbl %al,%edx
    b225:	48 8b 85 88 ec ff ff 	mov    -0x1378(%rbp),%rax
    b22c:	89 10                	mov    %edx,(%rax)
    b22e:	c7 05 70 d5 00 00 02 	movl   $0x2,0xd570(%rip)        # 187a8 <g_362>
    b235:	00 00 00 
    b238:	e9 22 01 00 00       	jmpq   b35f <func_69+0xbb1>
    b23d:	c6 85 9e eb ff ff 03 	movb   $0x3,-0x1462(%rbp)
    b244:	8b 9d d8 eb ff ff    	mov    -0x1428(%rbp),%ebx
    b24a:	8b 05 60 d5 00 00    	mov    0xd560(%rip),%eax        # 187b0 <g_476>
    b250:	0f b6 85 9e eb ff ff 	movzbl -0x1462(%rbp),%eax
    b257:	89 85 e8 eb ff ff    	mov    %eax,-0x1418(%rbp)
    b25d:	8b 85 e8 eb ff ff    	mov    -0x1418(%rbp),%eax
    b263:	98                   	cwtl   
    b264:	be 09 00 00 00       	mov    $0x9,%esi
    b269:	89 c7                	mov    %eax,%edi
    b26b:	e8 f3 a2 ff ff       	callq  5563 <safe_rshift_func_int16_t_s_u>
    b270:	48 8b 05 11 ad 00 00 	mov    0xad11(%rip),%rax        # 15f88 <g_421>
    b277:	48 83 f8 ff          	cmp    $0xffffffffffffffff,%rax
    b27b:	0f b7 85 8c ed ff ff 	movzwl -0x1274(%rbp),%eax
    b282:	0f b6 c0             	movzbl %al,%eax
    b285:	be 00 00 00 00       	mov    $0x0,%esi
    b28a:	89 c7                	mov    %eax,%edi
    b28c:	e8 74 a9 ff ff       	callq  5c05 <safe_lshift_func_uint8_t_u_s>
    b291:	89 c2                	mov    %eax,%edx
    b293:	48 8b 05 16 cb 00 00 	mov    0xcb16(%rip),%rax        # 17db0 <g_141>
    b29a:	0f b6 d2             	movzbl %dl,%edx
    b29d:	48 89 10             	mov    %rdx,(%rax)
    b2a0:	48 8b 10             	mov    (%rax),%rdx
    b2a3:	0f b7 05 e6 ac 00 00 	movzwl 0xace6(%rip),%eax        # 15f90 <g_426>
    b2aa:	0f b7 c0             	movzwl %ax,%eax
    b2ad:	48 98                	cltq   
    b2af:	0f b7 84 45 80 ed ff 	movzwl -0x1280(%rbp,%rax,2),%eax
    b2b6:	ff 
    b2b7:	0f b7 c0             	movzwl %ax,%eax
    b2ba:	48 21 d0             	and    %rdx,%rax
    b2bd:	48 89 05 0c af 00 00 	mov    %rax,0xaf0c(%rip)        # 161d0 <g_483+0x1d0>
    b2c4:	48 8b 05 05 af 00 00 	mov    0xaf05(%rip),%rax        # 161d0 <g_483+0x1d0>
    b2cb:	41 89 c4             	mov    %eax,%r12d
    b2ce:	48 0f be 95 8c eb ff 	movsbq -0x1474(%rbp),%rdx
    b2d5:	ff 
    b2d6:	0f b6 05 a7 ac 00 00 	movzbl 0xaca7(%rip),%eax        # 15f84 <g_384>
    b2dd:	0f be c8             	movsbl %al,%ecx
    b2e0:	8b 85 a8 eb ff ff    	mov    -0x1458(%rbp),%eax
    b2e6:	39 c1                	cmp    %eax,%ecx
    b2e8:	0f 9f c0             	setg   %al
    b2eb:	0f b6 c0             	movzbl %al,%eax
    b2ee:	48 89 d6             	mov    %rdx,%rsi
    b2f1:	48 89 c7             	mov    %rax,%rdi
    b2f4:	e8 35 ad ff ff       	callq  602e <safe_add_func_uint64_t_u_u>
    b2f9:	48 0f be 95 8c eb ff 	movsbq -0x1474(%rbp),%rdx
    b300:	ff 
    b301:	48 39 d0             	cmp    %rdx,%rax
    b304:	0f 93 c0             	setae  %al
    b307:	0f b6 c0             	movzbl %al,%eax
    b30a:	be 06 00 00 00       	mov    $0x6,%esi
    b30f:	89 c7                	mov    %eax,%edi
    b311:	e8 56 a0 ff ff       	callq  536c <safe_rshift_func_int8_t_s_u>
    b316:	0f be c0             	movsbl %al,%eax
    b319:	44 31 e0             	xor    %r12d,%eax
    b31c:	be 05 00 00 00       	mov    $0x5,%esi
    b321:	89 c7                	mov    %eax,%edi
    b323:	e8 90 ab ff ff       	callq  5eb8 <safe_add_func_uint32_t_u_u>
    b328:	89 de                	mov    %ebx,%esi
    b32a:	89 c7                	mov    %eax,%edi
    b32c:	e8 cc ab ff ff       	callq  5efd <safe_mod_func_uint32_t_u_u>
    b331:	85 c0                	test   %eax,%eax
    b333:	75 07                	jne    b33c <func_69+0xb8e>
    b335:	80 bd 88 eb ff ff 00 	cmpb   $0x0,-0x1478(%rbp)
    b33c:	48 8b 05 8d ca 00 00 	mov    0xca8d(%rip),%rax        # 17dd0 <g_180>
    b343:	0f be 85 8c eb ff ff 	movsbl -0x1474(%rbp),%eax
    b34a:	89 85 4c ed ff ff    	mov    %eax,-0x12b4(%rbp)
    b350:	8b 05 52 d4 00 00    	mov    0xd452(%rip),%eax        # 187a8 <g_362>
    b356:	83 e8 01             	sub    $0x1,%eax
    b359:	89 05 49 d4 00 00    	mov    %eax,0xd449(%rip)        # 187a8 <g_362>
    b35f:	8b 05 43 d4 00 00    	mov    0xd443(%rip),%eax        # 187a8 <g_362>
    b365:	85 c0                	test   %eax,%eax
    b367:	0f 89 d0 fe ff ff    	jns    b23d <func_69+0xa8f>
    b36d:	0f b6 05 98 a0 00 00 	movzbl 0xa098(%rip),%eax        # 1540c <g_100>
    b374:	83 c0 01             	add    $0x1,%eax
    b377:	88 05 8f a0 00 00    	mov    %al,0xa08f(%rip)        # 1540c <g_100>
    b37d:	0f b6 05 88 a0 00 00 	movzbl 0xa088(%rip),%eax        # 1540c <g_100>
    b384:	3c 02                	cmp    $0x2,%al
    b386:	0f 86 ab fc ff ff    	jbe    b037 <func_69+0x889>
    b38c:	48 83 bd 40 ec ff ff 	cmpq   $0x0,-0x13c0(%rbp)
    b393:	00 
    b394:	0f 85 7c 01 00 00    	jne    b516 <func_69+0xd68>
    b39a:	48 8b 85 98 ec ff ff 	mov    -0x1368(%rbp),%rax
    b3a1:	0f b7 15 dc b3 00 00 	movzwl 0xb3dc(%rip),%edx        # 16784 <g_492>
    b3a8:	66 89 10             	mov    %dx,(%rax)
    b3ab:	48 8b 95 58 ed ff ff 	mov    -0x12a8(%rbp),%rdx
    b3b2:	8b 85 dc eb ff ff    	mov    -0x1424(%rbp),%eax
    b3b8:	0f be c0             	movsbl %al,%eax
    b3bb:	48 8b 8d 98 ec ff ff 	mov    -0x1368(%rbp),%rcx
    b3c2:	0f b7 09             	movzwl (%rcx),%ecx
    b3c5:	be 00 00 00 00       	mov    $0x0,%esi
    b3ca:	89 c7                	mov    %eax,%edi
    b3cc:	e8 42 22 00 00       	callq  d613 <func_74>
    b3d1:	48 8b 95 a0 ec ff ff 	mov    -0x1360(%rbp),%rdx
    b3d8:	48 89 02             	mov    %rax,(%rdx)
    b3db:	c7 85 48 ed ff ff 09 	movl   $0x9,-0x12b8(%rbp)
    b3e2:	00 00 00 
    b3e5:	8b 95 48 ed ff ff    	mov    -0x12b8(%rbp),%edx
    b3eb:	48 8b 85 88 ec ff ff 	mov    -0x1378(%rbp),%rax
    b3f2:	89 10                	mov    %edx,(%rax)
    b3f4:	c6 85 30 ec ff ff 01 	movb   $0x1,-0x13d0(%rbp)
    b3fb:	e9 e3 00 00 00       	jmpq   b4e3 <func_69+0xd35>
    b400:	c7 85 e0 eb ff ff a0 	movl   $0x7b4690a0,-0x1420(%rbp)
    b407:	90 46 7b 
    b40a:	c7 85 e4 eb ff ff 7b 	movl   $0x238b327b,-0x141c(%rbp)
    b411:	32 8b 23 
    b414:	48 8b 05 6d ab 00 00 	mov    0xab6d(%rip),%rax        # 15f88 <g_421>
    b41b:	89 c3                	mov    %eax,%ebx
    b41d:	0f b7 05 e4 9f 00 00 	movzwl 0x9fe4(%rip),%eax        # 15408 <g_93>
    b424:	0f be c0             	movsbl %al,%eax
    b427:	89 c6                	mov    %eax,%esi
    b429:	bf 05 00 00 00       	mov    $0x5,%edi
    b42e:	e8 df 9d ff ff       	callq  5212 <safe_mul_func_int8_t_s_s>
    b433:	66 98                	cbtw   
    b435:	0f b7 c0             	movzwl %ax,%eax
    b438:	89 de                	mov    %ebx,%esi
    b43a:	89 c7                	mov    %eax,%edi
    b43c:	e8 7d a9 ff ff       	callq  5dbe <safe_lshift_func_uint16_t_u_s>
    b441:	98                   	cwtl   
    b442:	be 07 00 00 00       	mov    $0x7,%esi
    b447:	89 c7                	mov    %eax,%edi
    b449:	e8 44 a0 ff ff       	callq  5492 <safe_lshift_func_int16_t_s_s>
    b44e:	98                   	cwtl   
    b44f:	be f9 ff ff ff       	mov    $0xfffffff9,%esi
    b454:	89 c7                	mov    %eax,%edi
    b456:	e8 ca aa ff ff       	callq  5f25 <safe_div_func_uint32_t_u_u>
    b45b:	39 85 b4 eb ff ff    	cmp    %eax,-0x144c(%rbp)
    b461:	0f 92 c0             	setb   %al
    b464:	0f b6 c0             	movzbl %al,%eax
    b467:	be 09 00 00 00       	mov    $0x9,%esi
    b46c:	89 c7                	mov    %eax,%edi
    b46e:	e8 d5 a9 ff ff       	callq  5e48 <safe_rshift_func_uint16_t_u_s>
    b473:	83 85 e0 eb ff ff 01 	addl   $0x1,-0x1420(%rbp)
    b47a:	8b 85 e0 eb ff ff    	mov    -0x1420(%rbp),%eax
    b480:	0f b6 d8             	movzbl %al,%ebx
    b483:	48 0f be 85 88 eb ff 	movsbq -0x1478(%rbp),%rax
    b48a:	ff 
    b48b:	48 89 c6             	mov    %rax,%rsi
    b48e:	48 bf a4 70 72 6f e4 	movabs $0x3aad7ae46f7270a4,%rdi
    b495:	7a ad 3a 
    b498:	e8 a4 a3 ff ff       	callq  5841 <safe_add_func_int64_t_s_s>
    b49d:	48 c7 c0 ff ff ff ff 	mov    $0xffffffffffffffff,%rax
    b4a4:	0f b6 c0             	movzbl %al,%eax
    b4a7:	89 de                	mov    %ebx,%esi
    b4a9:	89 c7                	mov    %eax,%edi
    b4ab:	e8 2b a7 ff ff       	callq  5bdb <safe_div_func_uint8_t_u_u>
    b4b0:	0f b6 d0             	movzbl %al,%edx
    b4b3:	8b 05 97 9b 00 00    	mov    0x9b97(%rip),%eax        # 15050 <g_12+0x10>
    b4b9:	31 c2                	xor    %eax,%edx
    b4bb:	0f be 85 8c eb ff ff 	movsbl -0x1474(%rbp),%eax
    b4c2:	39 c2                	cmp    %eax,%edx
    b4c4:	0f 9d c2             	setge  %dl
    b4c7:	48 8b 05 02 c9 00 00 	mov    0xc902(%rip),%rax        # 17dd0 <g_180>
    b4ce:	0f b6 d2             	movzbl %dl,%edx
    b4d1:	89 10                	mov    %edx,(%rax)
    b4d3:	0f b6 85 30 ec ff ff 	movzbl -0x13d0(%rbp),%eax
    b4da:	83 c0 01             	add    $0x1,%eax
    b4dd:	88 85 30 ec ff ff    	mov    %al,-0x13d0(%rbp)
    b4e3:	0f b6 85 30 ec ff ff 	movzbl -0x13d0(%rbp),%eax
    b4ea:	3c 04                	cmp    $0x4,%al
    b4ec:	0f 8e 0e ff ff ff    	jle    b400 <func_69+0xc52>
    b4f2:	0f b7 05 1f a6 00 00 	movzwl 0xa61f(%rip),%eax        # 15b18 <g_126>
    b4f9:	83 c0 01             	add    $0x1,%eax
    b4fc:	66 89 05 15 a6 00 00 	mov    %ax,0xa615(%rip)        # 15b18 <g_126>
    b503:	0f b7 05 0e a6 00 00 	movzwl 0xa60e(%rip),%eax        # 15b18 <g_126>
    b50a:	66 83 f8 02          	cmp    $0x2,%ax
    b50e:	0f 86 fb fa ff ff    	jbe    b00f <func_69+0x861>
    b514:	eb 01                	jmp    b517 <func_69+0xd69>
    b516:	90                   	nop
    b517:	c7 85 b4 eb ff ff 00 	movl   $0x0,-0x144c(%rbp)
    b51e:	00 00 00 
    b521:	e9 99 01 00 00       	jmpq   b6bf <func_69+0xf11>
    b526:	48 8d 05 43 9b 00 00 	lea    0x9b43(%rip),%rax        # 15070 <g_29>
    b52d:	48 89 85 c8 ec ff ff 	mov    %rax,-0x1338(%rbp)
    b534:	48 8d 05 45 b2 00 00 	lea    0xb245(%rip),%rax        # 16780 <g_490>
    b53b:	48 89 85 d0 ec ff ff 	mov    %rax,-0x1330(%rbp)
    b542:	c7 85 c0 eb ff ff 00 	movl   $0x0,-0x1440(%rbp)
    b549:	00 00 00 
    b54c:	eb 19                	jmp    b567 <func_69+0xdb9>
    b54e:	8b 85 c0 eb ff ff    	mov    -0x1440(%rbp),%eax
    b554:	48 98                	cltq   
    b556:	66 c7 84 45 00 f2 ff 	movw   $0x1,-0xe00(%rbp,%rax,2)
    b55d:	ff 01 00 
    b560:	83 85 c0 eb ff ff 01 	addl   $0x1,-0x1440(%rbp)
    b567:	83 bd c0 eb ff ff 07 	cmpl   $0x7,-0x1440(%rbp)
    b56e:	7e de                	jle    b54e <func_69+0xda0>
    b570:	80 bd 8c eb ff ff 00 	cmpb   $0x0,-0x1474(%rbp)
    b577:	0f 85 83 00 00 00    	jne    b600 <func_69+0xe52>
    b57d:	48 8b 05 04 aa 00 00 	mov    0xaa04(%rip),%rax        # 15f88 <g_421>
    b584:	48 89 c3             	mov    %rax,%rbx
    b587:	48 8b 85 38 ec ff ff 	mov    -0x13c8(%rbp),%rax
    b58e:	48 8d 15 03 9b 00 00 	lea    0x9b03(%rip),%rdx        # 15098 <g_64+0x8>
    b595:	48 89 10             	mov    %rdx,(%rax)
    b598:	48 8b 05 b9 c8 00 00 	mov    0xc8b9(%rip),%rax        # 17e58 <g_456>
    b59f:	c7 00 01 00 00 00    	movl   $0x1,(%rax)
    b5a5:	ba 01 00 00 00       	mov    $0x1,%edx
    b5aa:	0f be 85 8c eb ff ff 	movsbl -0x1474(%rbp),%eax
    b5b1:	39 c2                	cmp    %eax,%edx
    b5b3:	0f 95 c0             	setne  %al
    b5b6:	0f b6 d0             	movzbl %al,%edx
    b5b9:	48 8b 85 88 ec ff ff 	mov    -0x1378(%rbp),%rax
    b5c0:	8b 00                	mov    (%rax),%eax
    b5c2:	0f b6 c0             	movzbl %al,%eax
    b5c5:	89 d6                	mov    %edx,%esi
    b5c7:	89 c7                	mov    %eax,%edi
    b5c9:	e8 f0 a6 ff ff       	callq  5cbe <safe_rshift_func_uint8_t_u_u>
    b5ce:	ba 01 00 00 00       	mov    $0x1,%edx
    b5d3:	48 8b 05 d6 c7 00 00 	mov    0xc7d6(%rip),%rax        # 17db0 <g_141>
    b5da:	48 8b 08             	mov    (%rax),%rcx
    b5dd:	48 63 d2             	movslq %edx,%rdx
    b5e0:	48 8b 05 c9 c7 00 00 	mov    0xc7c9(%rip),%rax        # 17db0 <g_141>
    b5e7:	48 31 ca             	xor    %rcx,%rdx
    b5ea:	48 89 10             	mov    %rdx,(%rax)
    b5ed:	48 8b 00             	mov    (%rax),%rax
    b5f0:	48 89 de             	mov    %rbx,%rsi
    b5f3:	48 89 c7             	mov    %rax,%rdi
    b5f6:	e8 ad a2 ff ff       	callq  58a8 <safe_sub_func_int64_t_s_s>
    b5fb:	48 85 c0             	test   %rax,%rax
    b5fe:	74 07                	je     b607 <func_69+0xe59>
    b600:	ba 01 00 00 00       	mov    $0x1,%edx
    b605:	eb 05                	jmp    b60c <func_69+0xe5e>
    b607:	ba 00 00 00 00       	mov    $0x0,%edx
    b60c:	48 8b 85 c8 ec ff ff 	mov    -0x1338(%rbp),%rax
    b613:	8b 00                	mov    (%rax),%eax
    b615:	21 c2                	and    %eax,%edx
    b617:	48 8b 85 c8 ec ff ff 	mov    -0x1338(%rbp),%rax
    b61e:	89 10                	mov    %edx,(%rax)
    b620:	48 8b 85 c8 ec ff ff 	mov    -0x1338(%rbp),%rax
    b627:	8b 00                	mov    (%rax),%eax
    b629:	89 85 d8 eb ff ff    	mov    %eax,-0x1428(%rbp)
    b62f:	c6 85 88 eb ff ff 02 	movb   $0x2,-0x1478(%rbp)
    b636:	eb 77                	jmp    b6af <func_69+0xf01>
    b638:	48 8d 85 48 ed ff ff 	lea    -0x12b8(%rbp),%rax
    b63f:	48 89 85 d8 ec ff ff 	mov    %rax,-0x1328(%rbp)
    b646:	c6 05 bf 9d 00 00 01 	movb   $0x1,0x9dbf(%rip)        # 1540c <g_100>
    b64d:	eb 45                	jmp    b694 <func_69+0xee6>
    b64f:	48 8d 05 62 c7 00 00 	lea    0xc762(%rip),%rax        # 17db8 <g_149>
    b656:	48 89 85 e0 ec ff ff 	mov    %rax,-0x1320(%rbp)
    b65d:	48 c7 85 d8 ec ff ff 	movq   $0x0,-0x1328(%rbp)
    b664:	00 00 00 00 
    b668:	48 8b 85 e0 ec ff ff 	mov    -0x1320(%rbp),%rax
    b66f:	48 8b 95 d8 ec ff ff 	mov    -0x1328(%rbp),%rdx
    b676:	48 89 10             	mov    %rdx,(%rax)
    b679:	48 c7 85 d0 ec ff ff 	movq   $0x0,-0x1330(%rbp)
    b680:	00 00 00 00 
    b684:	0f b6 05 81 9d 00 00 	movzbl 0x9d81(%rip),%eax        # 1540c <g_100>
    b68b:	83 c0 01             	add    $0x1,%eax
    b68e:	88 05 78 9d 00 00    	mov    %al,0x9d78(%rip)        # 1540c <g_100>
    b694:	0f b6 05 71 9d 00 00 	movzbl 0x9d71(%rip),%eax        # 1540c <g_100>
    b69b:	3c 07                	cmp    $0x7,%al
    b69d:	76 b0                	jbe    b64f <func_69+0xea1>
    b69f:	0f b6 85 88 eb ff ff 	movzbl -0x1478(%rbp),%eax
    b6a6:	83 e8 01             	sub    $0x1,%eax
    b6a9:	88 85 88 eb ff ff    	mov    %al,-0x1478(%rbp)
    b6af:	80 bd 88 eb ff ff 00 	cmpb   $0x0,-0x1478(%rbp)
    b6b6:	79 80                	jns    b638 <func_69+0xe8a>
    b6b8:	83 85 b4 eb ff ff 01 	addl   $0x1,-0x144c(%rbp)
    b6bf:	83 bd b4 eb ff ff 02 	cmpl   $0x2,-0x144c(%rbp)
    b6c6:	0f 86 5a fe ff ff    	jbe    b526 <func_69+0xd78>
    b6cc:	0f b7 05 bd a8 00 00 	movzwl 0xa8bd(%rip),%eax        # 15f90 <g_426>
    b6d3:	83 c0 01             	add    $0x1,%eax
    b6d6:	66 89 05 b3 a8 00 00 	mov    %ax,0xa8b3(%rip)        # 15f90 <g_426>
    b6dd:	0f b7 05 ac a8 00 00 	movzwl 0xa8ac(%rip),%eax        # 15f90 <g_426>
    b6e4:	66 83 f8 04          	cmp    $0x4,%ax
    b6e8:	0f 86 d9 f6 ff ff    	jbe    adc7 <func_69+0x619>
    b6ee:	0f be 9d 88 eb ff ff 	movsbl -0x1478(%rbp),%ebx
    b6f5:	0f b6 05 90 9b 00 00 	movzbl 0x9b90(%rip),%eax        # 1528c <g_90+0x1cc>
    b6fc:	44 0f be e0          	movsbl %al,%r12d
    b700:	48 8b 05 a9 c6 00 00 	mov    0xc6a9(%rip),%rax        # 17db0 <g_141>
    b707:	48 8b 00             	mov    (%rax),%rax
    b70a:	89 85 84 eb ff ff    	mov    %eax,-0x147c(%rbp)
    b710:	66 0f be 85 88 eb ff 	movsbw -0x1478(%rbp),%ax
    b717:	ff 
    b718:	44 0f b7 e8          	movzwl %ax,%r13d
    b71c:	48 8b 85 10 ec ff ff 	mov    -0x13f0(%rbp),%rax
    b723:	48 c7 00 00 00 00 00 	movq   $0x0,(%rax)
    b72a:	be 06 00 00 00       	mov    $0x6,%esi
    b72f:	bf f6 00 00 00       	mov    $0xf6,%edi
    b734:	e8 13 a5 ff ff       	callq  5c4c <safe_lshift_func_uint8_t_u_u>
    b739:	48 8b 95 48 ec ff ff 	mov    -0x13b8(%rbp),%rdx
    b740:	88 02                	mov    %al,(%rdx)
    b742:	48 8b 85 48 ec ff ff 	mov    -0x13b8(%rbp),%rax
    b749:	0f b6 00             	movzbl (%rax),%eax
    b74c:	88 85 80 eb ff ff    	mov    %al,-0x1480(%rbp)
    b752:	48 8b 85 08 ec ff ff 	mov    -0x13f8(%rbp),%rax
    b759:	48 8b 00             	mov    (%rax),%rax
    b75c:	48 8b 00             	mov    (%rax),%rax
    b75f:	8b 00                	mov    (%rax),%eax
    b761:	44 0f bf f0          	movswl %ax,%r14d
    b765:	48 8b 85 58 ec ff ff 	mov    -0x13a8(%rbp),%rax
    b76c:	66 c7 00 00 00       	movw   $0x0,(%rax)
    b771:	0f b6 85 88 eb ff ff 	movzbl -0x1478(%rbp),%eax
    b778:	c0 e8 07             	shr    $0x7,%al
    b77b:	44 0f b6 f8          	movzbl %al,%r15d
    b77f:	48 8b 85 08 ec ff ff 	mov    -0x13f8(%rbp),%rax
    b786:	48 8b 00             	mov    (%rax),%rax
    b789:	48 8b 00             	mov    (%rax),%rax
    b78c:	8b 00                	mov    (%rax),%eax
    b78e:	98                   	cwtl   
    b78f:	be 09 00 00 00       	mov    $0x9,%esi
    b794:	89 c7                	mov    %eax,%edi
    b796:	e8 46 9d ff ff       	callq  54e1 <safe_lshift_func_int16_t_s_u>
    b79b:	8b 95 4c ed ff ff    	mov    -0x12b4(%rbp),%edx
    b7a1:	98                   	cwtl   
    b7a2:	31 d0                	xor    %edx,%eax
    b7a4:	89 85 4c ed ff ff    	mov    %eax,-0x12b4(%rbp)
    b7aa:	8b 85 4c ed ff ff    	mov    -0x12b4(%rbp),%eax
    b7b0:	0f be c0             	movsbl %al,%eax
    b7b3:	44 89 fe             	mov    %r15d,%esi
    b7b6:	89 c7                	mov    %eax,%edi
    b7b8:	e8 35 9a ff ff       	callq  51f2 <safe_sub_func_int8_t_s_s>
    b7bd:	0f be c0             	movsbl %al,%eax
    b7c0:	be 00 00 00 00       	mov    $0x0,%esi
    b7c5:	89 c7                	mov    %eax,%edi
    b7c7:	e8 08 9a ff ff       	callq  51d4 <safe_add_func_int8_t_s_s>
    b7cc:	0f be d0             	movsbl %al,%edx
    b7cf:	48 8b 85 08 ec ff ff 	mov    -0x13f8(%rbp),%rax
    b7d6:	48 8b 00             	mov    (%rax),%rax
    b7d9:	48 8b 00             	mov    (%rax),%rax
    b7dc:	8b 00                	mov    (%rax),%eax
    b7de:	09 c2                	or     %eax,%edx
    b7e0:	0f be 85 88 eb ff ff 	movsbl -0x1478(%rbp),%eax
    b7e7:	39 c2                	cmp    %eax,%edx
    b7e9:	0f 95 c0             	setne  %al
    b7ec:	0f b6 c0             	movzbl %al,%eax
    b7ef:	44 89 f6             	mov    %r14d,%esi
    b7f2:	89 c7                	mov    %eax,%edi
    b7f4:	e8 1d 9c ff ff       	callq  5416 <safe_mod_func_int16_t_s_s>
    b7f9:	66 85 c0             	test   %ax,%ax
    b7fc:	74 10                	je     b80e <func_69+0x1060>
    b7fe:	83 bd cc eb ff ff 00 	cmpl   $0x0,-0x1434(%rbp)
    b805:	74 07                	je     b80e <func_69+0x1060>
    b807:	b8 01 00 00 00       	mov    $0x1,%eax
    b80c:	eb 05                	jmp    b813 <func_69+0x1065>
    b80e:	b8 00 00 00 00       	mov    $0x0,%eax
    b813:	0f b6 c0             	movzbl %al,%eax
    b816:	be 83 00 00 00       	mov    $0x83,%esi
    b81b:	89 c7                	mov    %eax,%edi
    b81d:	e8 b9 a3 ff ff       	callq  5bdb <safe_div_func_uint8_t_u_u>
    b822:	0f b6 d0             	movzbl %al,%edx
    b825:	48 8b 85 08 ec ff ff 	mov    -0x13f8(%rbp),%rax
    b82c:	48 8b 00             	mov    (%rax),%rax
    b82f:	48 8b 00             	mov    (%rax),%rax
    b832:	8b 00                	mov    (%rax),%eax
    b834:	89 d6                	mov    %edx,%esi
    b836:	89 c7                	mov    %eax,%edi
    b838:	e8 8f 9e ff ff       	callq  56cc <safe_mod_func_int32_t_s_s>
    b83d:	83 f8 ff             	cmp    $0xffffffff,%eax
    b840:	74 13                	je     b855 <func_69+0x10a7>
    b842:	48 8b 85 08 ec ff ff 	mov    -0x13f8(%rbp),%rax
    b849:	48 8b 00             	mov    (%rax),%rax
    b84c:	48 8b 00             	mov    (%rax),%rax
    b84f:	8b 00                	mov    (%rax),%eax
    b851:	85 c0                	test   %eax,%eax
    b853:	74 07                	je     b85c <func_69+0x10ae>
    b855:	b8 01 00 00 00       	mov    $0x1,%eax
    b85a:	eb 05                	jmp    b861 <func_69+0x10b3>
    b85c:	b8 00 00 00 00       	mov    $0x0,%eax
    b861:	89 c2                	mov    %eax,%edx
    b863:	48 8b 85 60 ec ff ff 	mov    -0x13a0(%rbp),%rax
    b86a:	88 10                	mov    %dl,(%rax)
    b86c:	48 8b 85 60 ec ff ff 	mov    -0x13a0(%rbp),%rax
    b873:	0f b6 00             	movzbl (%rax),%eax
    b876:	38 85 80 eb ff ff    	cmp    %al,-0x1480(%rbp)
    b87c:	48 8b 05 3d 9f 00 00 	mov    0x9f3d(%rip),%rax        # 157c0 <g_102+0x3a0>
    b883:	0f b7 c0             	movzwl %ax,%eax
    b886:	44 89 ee             	mov    %r13d,%esi
    b889:	89 c7                	mov    %eax,%edi
    b88b:	e8 8f a4 ff ff       	callq  5d1f <safe_sub_func_uint16_t_u_u>
    b890:	0f be c0             	movsbl %al,%eax
    b893:	be 01 00 00 00       	mov    $0x1,%esi
    b898:	89 c7                	mov    %eax,%edi
    b89a:	e8 92 99 ff ff       	callq  5231 <safe_mod_func_int8_t_s_s>
    b89f:	0f be c0             	movsbl %al,%eax
    b8a2:	0b 85 84 eb ff ff    	or     -0x147c(%rbp),%eax
    b8a8:	89 c6                	mov    %eax,%esi
    b8aa:	bf 00 00 00 00       	mov    $0x0,%edi
    b8af:	e8 51 9d ff ff       	callq  5605 <safe_sub_func_int32_t_s_s>
    b8b4:	bf 01 00 00 00       	mov    $0x1,%edi
    b8b9:	e8 58 9f ff ff       	callq  5816 <safe_unary_minus_func_int64_t_s>
    b8be:	44 89 e6             	mov    %r12d,%esi
    b8c1:	bf 00 00 00 00       	mov    $0x0,%edi
    b8c6:	e8 47 99 ff ff       	callq  5212 <safe_mul_func_int8_t_s_s>
    b8cb:	0f be c0             	movsbl %al,%eax
    b8ce:	89 de                	mov    %ebx,%esi
    b8d0:	89 c7                	mov    %eax,%edi
    b8d2:	e8 ca 99 ff ff       	callq  52a1 <safe_lshift_func_int8_t_s_s>
    b8d7:	84 c0                	test   %al,%al
    b8d9:	0f 84 70 18 00 00    	je     d14f <func_69+0x29a1>
    b8df:	48 8b 05 ca c4 00 00 	mov    0xc4ca(%rip),%rax        # 17db0 <g_141>
    b8e6:	48 8b 00             	mov    (%rax),%rax
    b8e9:	48 85 c0             	test   %rax,%rax
    b8ec:	0f 84 5d 18 00 00    	je     d14f <func_69+0x29a1>
    b8f2:	48 8d 05 8b ae 00 00 	lea    0xae8b(%rip),%rax        # 16784 <g_492>
    b8f9:	48 89 85 18 ec ff ff 	mov    %rax,-0x13e8(%rbp)
    b900:	48 8d 85 18 ec ff ff 	lea    -0x13e8(%rbp),%rax
    b907:	48 89 85 08 ed ff ff 	mov    %rax,-0x12f8(%rbp)
    b90e:	c7 85 ec eb ff ff f6 	movl   $0xfffffff6,-0x1414(%rbp)
    b915:	ff ff ff 
    b918:	48 b8 00 69 ad 33 5e 	movabs $0xce98a5e33ad6900,%rax
    b91f:	8a e9 0c 
    b922:	48 89 85 a0 ed ff ff 	mov    %rax,-0x1260(%rbp)
    b929:	48 c7 85 a8 ed ff ff 	movq   $0x1,-0x1258(%rbp)
    b930:	01 00 00 00 
    b934:	48 89 85 b0 ed ff ff 	mov    %rax,-0x1250(%rbp)
    b93b:	48 89 85 b8 ed ff ff 	mov    %rax,-0x1248(%rbp)
    b942:	48 c7 85 c0 ed ff ff 	movq   $0x1,-0x1240(%rbp)
    b949:	01 00 00 00 
    b94d:	48 89 85 c8 ed ff ff 	mov    %rax,-0x1238(%rbp)
    b954:	48 89 85 d0 ed ff ff 	mov    %rax,-0x1230(%rbp)
    b95b:	48 8d 05 22 ae 00 00 	lea    0xae22(%rip),%rax        # 16784 <g_492>
    b962:	48 89 85 20 ec ff ff 	mov    %rax,-0x13e0(%rbp)
    b969:	48 8d 85 20 ec ff ff 	lea    -0x13e0(%rbp),%rax
    b970:	48 89 85 10 ed ff ff 	mov    %rax,-0x12f0(%rbp)
    b977:	48 8d 85 a8 eb ff ff 	lea    -0x1458(%rbp),%rax
    b97e:	48 89 85 00 f2 ff ff 	mov    %rax,-0xe00(%rbp)
    b985:	48 8d 85 a8 eb ff ff 	lea    -0x1458(%rbp),%rax
    b98c:	48 89 85 08 f2 ff ff 	mov    %rax,-0xdf8(%rbp)
    b993:	48 8d 85 a8 eb ff ff 	lea    -0x1458(%rbp),%rax
    b99a:	48 89 85 10 f2 ff ff 	mov    %rax,-0xdf0(%rbp)
    b9a1:	48 8d 85 a8 eb ff ff 	lea    -0x1458(%rbp),%rax
    b9a8:	48 89 85 18 f2 ff ff 	mov    %rax,-0xde8(%rbp)
    b9af:	48 8d 85 a8 eb ff ff 	lea    -0x1458(%rbp),%rax
    b9b6:	48 89 85 20 f2 ff ff 	mov    %rax,-0xde0(%rbp)
    b9bd:	48 8d 05 bc ad 00 00 	lea    0xadbc(%rip),%rax        # 16780 <g_490>
    b9c4:	48 89 85 28 f2 ff ff 	mov    %rax,-0xdd8(%rbp)
    b9cb:	48 8d 05 ae ad 00 00 	lea    0xadae(%rip),%rax        # 16780 <g_490>
    b9d2:	48 89 85 30 f2 ff ff 	mov    %rax,-0xdd0(%rbp)
    b9d9:	48 8d 05 a0 ad 00 00 	lea    0xada0(%rip),%rax        # 16780 <g_490>
    b9e0:	48 89 85 38 f2 ff ff 	mov    %rax,-0xdc8(%rbp)
    b9e7:	48 8d 05 92 ad 00 00 	lea    0xad92(%rip),%rax        # 16780 <g_490>
    b9ee:	48 89 85 40 f2 ff ff 	mov    %rax,-0xdc0(%rbp)
    b9f5:	48 8d 05 84 ad 00 00 	lea    0xad84(%rip),%rax        # 16780 <g_490>
    b9fc:	48 89 85 48 f2 ff ff 	mov    %rax,-0xdb8(%rbp)
    ba03:	48 8d 85 a8 eb ff ff 	lea    -0x1458(%rbp),%rax
    ba0a:	48 89 85 50 f2 ff ff 	mov    %rax,-0xdb0(%rbp)
    ba11:	48 8d 85 a8 eb ff ff 	lea    -0x1458(%rbp),%rax
    ba18:	48 89 85 58 f2 ff ff 	mov    %rax,-0xda8(%rbp)
    ba1f:	48 8d 85 a8 eb ff ff 	lea    -0x1458(%rbp),%rax
    ba26:	48 89 85 60 f2 ff ff 	mov    %rax,-0xda0(%rbp)
    ba2d:	48 8d 85 a8 eb ff ff 	lea    -0x1458(%rbp),%rax
    ba34:	48 89 85 68 f2 ff ff 	mov    %rax,-0xd98(%rbp)
    ba3b:	48 8d 85 a8 eb ff ff 	lea    -0x1458(%rbp),%rax
    ba42:	48 89 85 70 f2 ff ff 	mov    %rax,-0xd90(%rbp)
    ba49:	48 8d 05 30 ad 00 00 	lea    0xad30(%rip),%rax        # 16780 <g_490>
    ba50:	48 89 85 78 f2 ff ff 	mov    %rax,-0xd88(%rbp)
    ba57:	48 8d 05 22 ad 00 00 	lea    0xad22(%rip),%rax        # 16780 <g_490>
    ba5e:	48 89 85 80 f2 ff ff 	mov    %rax,-0xd80(%rbp)
    ba65:	48 8d 05 14 ad 00 00 	lea    0xad14(%rip),%rax        # 16780 <g_490>
    ba6c:	48 89 85 88 f2 ff ff 	mov    %rax,-0xd78(%rbp)
    ba73:	48 8d 05 06 ad 00 00 	lea    0xad06(%rip),%rax        # 16780 <g_490>
    ba7a:	48 89 85 90 f2 ff ff 	mov    %rax,-0xd70(%rbp)
    ba81:	48 8d 05 f8 ac 00 00 	lea    0xacf8(%rip),%rax        # 16780 <g_490>
    ba88:	48 89 85 98 f2 ff ff 	mov    %rax,-0xd68(%rbp)
    ba8f:	48 8d 85 a8 eb ff ff 	lea    -0x1458(%rbp),%rax
    ba96:	48 89 85 a0 f2 ff ff 	mov    %rax,-0xd60(%rbp)
    ba9d:	48 8d 85 a8 eb ff ff 	lea    -0x1458(%rbp),%rax
    baa4:	48 89 85 a8 f2 ff ff 	mov    %rax,-0xd58(%rbp)
    baab:	48 8d 85 a8 eb ff ff 	lea    -0x1458(%rbp),%rax
    bab2:	48 89 85 b0 f2 ff ff 	mov    %rax,-0xd50(%rbp)
    bab9:	48 8d 85 a8 eb ff ff 	lea    -0x1458(%rbp),%rax
    bac0:	48 89 85 b8 f2 ff ff 	mov    %rax,-0xd48(%rbp)
    bac7:	48 8d 85 a8 eb ff ff 	lea    -0x1458(%rbp),%rax
    bace:	48 89 85 c0 f2 ff ff 	mov    %rax,-0xd40(%rbp)
    bad5:	48 8d 05 a4 ac 00 00 	lea    0xaca4(%rip),%rax        # 16780 <g_490>
    badc:	48 89 85 c8 f2 ff ff 	mov    %rax,-0xd38(%rbp)
    bae3:	48 8d 05 96 ac 00 00 	lea    0xac96(%rip),%rax        # 16780 <g_490>
    baea:	48 89 85 d0 f2 ff ff 	mov    %rax,-0xd30(%rbp)
    baf1:	48 8d 05 88 ac 00 00 	lea    0xac88(%rip),%rax        # 16780 <g_490>
    baf8:	48 89 85 d8 f2 ff ff 	mov    %rax,-0xd28(%rbp)
    baff:	48 8d 05 7a ac 00 00 	lea    0xac7a(%rip),%rax        # 16780 <g_490>
    bb06:	48 89 85 e0 f2 ff ff 	mov    %rax,-0xd20(%rbp)
    bb0d:	48 8d 05 6c ac 00 00 	lea    0xac6c(%rip),%rax        # 16780 <g_490>
    bb14:	48 89 85 e8 f2 ff ff 	mov    %rax,-0xd18(%rbp)
    bb1b:	48 8d 85 a8 eb ff ff 	lea    -0x1458(%rbp),%rax
    bb22:	48 89 85 f0 f2 ff ff 	mov    %rax,-0xd10(%rbp)
    bb29:	48 8d 85 a8 eb ff ff 	lea    -0x1458(%rbp),%rax
    bb30:	48 89 85 f8 f2 ff ff 	mov    %rax,-0xd08(%rbp)
    bb37:	48 8d 85 a8 eb ff ff 	lea    -0x1458(%rbp),%rax
    bb3e:	48 89 85 00 f3 ff ff 	mov    %rax,-0xd00(%rbp)
    bb45:	48 8d 85 a8 eb ff ff 	lea    -0x1458(%rbp),%rax
    bb4c:	48 89 85 08 f3 ff ff 	mov    %rax,-0xcf8(%rbp)
    bb53:	48 8d 85 a8 eb ff ff 	lea    -0x1458(%rbp),%rax
    bb5a:	48 89 85 10 f3 ff ff 	mov    %rax,-0xcf0(%rbp)
    bb61:	48 8d 05 18 ac 00 00 	lea    0xac18(%rip),%rax        # 16780 <g_490>
    bb68:	48 89 85 18 f3 ff ff 	mov    %rax,-0xce8(%rbp)
    bb6f:	48 8d 05 0a ac 00 00 	lea    0xac0a(%rip),%rax        # 16780 <g_490>
    bb76:	48 89 85 20 f3 ff ff 	mov    %rax,-0xce0(%rbp)
    bb7d:	48 8d 05 fc ab 00 00 	lea    0xabfc(%rip),%rax        # 16780 <g_490>
    bb84:	48 89 85 28 f3 ff ff 	mov    %rax,-0xcd8(%rbp)
    bb8b:	48 8d 05 ee ab 00 00 	lea    0xabee(%rip),%rax        # 16780 <g_490>
    bb92:	48 89 85 30 f3 ff ff 	mov    %rax,-0xcd0(%rbp)
    bb99:	48 8d 05 e0 ab 00 00 	lea    0xabe0(%rip),%rax        # 16780 <g_490>
    bba0:	48 89 85 38 f3 ff ff 	mov    %rax,-0xcc8(%rbp)
    bba7:	48 8d 85 a8 eb ff ff 	lea    -0x1458(%rbp),%rax
    bbae:	48 89 85 40 f3 ff ff 	mov    %rax,-0xcc0(%rbp)
    bbb5:	48 8d 85 a8 eb ff ff 	lea    -0x1458(%rbp),%rax
    bbbc:	48 89 85 48 f3 ff ff 	mov    %rax,-0xcb8(%rbp)
    bbc3:	48 8d 85 a8 eb ff ff 	lea    -0x1458(%rbp),%rax
    bbca:	48 89 85 50 f3 ff ff 	mov    %rax,-0xcb0(%rbp)
    bbd1:	48 8d 85 a8 eb ff ff 	lea    -0x1458(%rbp),%rax
    bbd8:	48 89 85 58 f3 ff ff 	mov    %rax,-0xca8(%rbp)
    bbdf:	48 8d 85 a8 eb ff ff 	lea    -0x1458(%rbp),%rax
    bbe6:	48 89 85 60 f3 ff ff 	mov    %rax,-0xca0(%rbp)
    bbed:	48 8d 05 8c ab 00 00 	lea    0xab8c(%rip),%rax        # 16780 <g_490>
    bbf4:	48 89 85 68 f3 ff ff 	mov    %rax,-0xc98(%rbp)
    bbfb:	48 8d 05 7e ab 00 00 	lea    0xab7e(%rip),%rax        # 16780 <g_490>
    bc02:	48 89 85 70 f3 ff ff 	mov    %rax,-0xc90(%rbp)
    bc09:	48 8d 05 70 ab 00 00 	lea    0xab70(%rip),%rax        # 16780 <g_490>
    bc10:	48 89 85 78 f3 ff ff 	mov    %rax,-0xc88(%rbp)
    bc17:	48 8d 05 62 ab 00 00 	lea    0xab62(%rip),%rax        # 16780 <g_490>
    bc1e:	48 89 85 80 f3 ff ff 	mov    %rax,-0xc80(%rbp)
    bc25:	48 8d 05 54 ab 00 00 	lea    0xab54(%rip),%rax        # 16780 <g_490>
    bc2c:	48 89 85 88 f3 ff ff 	mov    %rax,-0xc78(%rbp)
    bc33:	48 8d 85 a8 eb ff ff 	lea    -0x1458(%rbp),%rax
    bc3a:	48 89 85 90 f3 ff ff 	mov    %rax,-0xc70(%rbp)
    bc41:	48 8d 85 a8 eb ff ff 	lea    -0x1458(%rbp),%rax
    bc48:	48 89 85 98 f3 ff ff 	mov    %rax,-0xc68(%rbp)
    bc4f:	48 8d 85 a8 eb ff ff 	lea    -0x1458(%rbp),%rax
    bc56:	48 89 85 a0 f3 ff ff 	mov    %rax,-0xc60(%rbp)
    bc5d:	48 8d 85 a8 eb ff ff 	lea    -0x1458(%rbp),%rax
    bc64:	48 89 85 a8 f3 ff ff 	mov    %rax,-0xc58(%rbp)
    bc6b:	48 8d 85 a8 eb ff ff 	lea    -0x1458(%rbp),%rax
    bc72:	48 89 85 b0 f3 ff ff 	mov    %rax,-0xc50(%rbp)
    bc79:	48 8d 05 00 ab 00 00 	lea    0xab00(%rip),%rax        # 16780 <g_490>
    bc80:	48 89 85 b8 f3 ff ff 	mov    %rax,-0xc48(%rbp)
    bc87:	48 8d 05 f2 aa 00 00 	lea    0xaaf2(%rip),%rax        # 16780 <g_490>
    bc8e:	48 89 85 c0 f3 ff ff 	mov    %rax,-0xc40(%rbp)
    bc95:	48 8d 05 e4 aa 00 00 	lea    0xaae4(%rip),%rax        # 16780 <g_490>
    bc9c:	48 89 85 c8 f3 ff ff 	mov    %rax,-0xc38(%rbp)
    bca3:	48 8d 05 d6 aa 00 00 	lea    0xaad6(%rip),%rax        # 16780 <g_490>
    bcaa:	48 89 85 d0 f3 ff ff 	mov    %rax,-0xc30(%rbp)
    bcb1:	48 8d 05 c8 aa 00 00 	lea    0xaac8(%rip),%rax        # 16780 <g_490>
    bcb8:	48 89 85 d8 f3 ff ff 	mov    %rax,-0xc28(%rbp)
    bcbf:	48 8d 85 a8 eb ff ff 	lea    -0x1458(%rbp),%rax
    bcc6:	48 89 85 e0 f3 ff ff 	mov    %rax,-0xc20(%rbp)
    bccd:	48 8d 85 a8 eb ff ff 	lea    -0x1458(%rbp),%rax
    bcd4:	48 89 85 e8 f3 ff ff 	mov    %rax,-0xc18(%rbp)
    bcdb:	48 8d 85 a8 eb ff ff 	lea    -0x1458(%rbp),%rax
    bce2:	48 89 85 f0 f3 ff ff 	mov    %rax,-0xc10(%rbp)
    bce9:	48 8d 85 a8 eb ff ff 	lea    -0x1458(%rbp),%rax
    bcf0:	48 89 85 f8 f3 ff ff 	mov    %rax,-0xc08(%rbp)
    bcf7:	48 8d 85 a8 eb ff ff 	lea    -0x1458(%rbp),%rax
    bcfe:	48 89 85 00 f4 ff ff 	mov    %rax,-0xc00(%rbp)
    bd05:	48 8d 05 74 aa 00 00 	lea    0xaa74(%rip),%rax        # 16780 <g_490>
    bd0c:	48 89 85 08 f4 ff ff 	mov    %rax,-0xbf8(%rbp)
    bd13:	48 8d 05 66 aa 00 00 	lea    0xaa66(%rip),%rax        # 16780 <g_490>
    bd1a:	48 89 85 10 f4 ff ff 	mov    %rax,-0xbf0(%rbp)
    bd21:	48 8d 05 58 aa 00 00 	lea    0xaa58(%rip),%rax        # 16780 <g_490>
    bd28:	48 89 85 18 f4 ff ff 	mov    %rax,-0xbe8(%rbp)
    bd2f:	48 8d 05 4a aa 00 00 	lea    0xaa4a(%rip),%rax        # 16780 <g_490>
    bd36:	48 89 85 20 f4 ff ff 	mov    %rax,-0xbe0(%rbp)
    bd3d:	48 8d 05 3c aa 00 00 	lea    0xaa3c(%rip),%rax        # 16780 <g_490>
    bd44:	48 89 85 28 f4 ff ff 	mov    %rax,-0xbd8(%rbp)
    bd4b:	48 8d 85 a8 eb ff ff 	lea    -0x1458(%rbp),%rax
    bd52:	48 89 85 30 f4 ff ff 	mov    %rax,-0xbd0(%rbp)
    bd59:	48 8d 85 a8 eb ff ff 	lea    -0x1458(%rbp),%rax
    bd60:	48 89 85 38 f4 ff ff 	mov    %rax,-0xbc8(%rbp)
    bd67:	48 8d 85 a8 eb ff ff 	lea    -0x1458(%rbp),%rax
    bd6e:	48 89 85 40 f4 ff ff 	mov    %rax,-0xbc0(%rbp)
    bd75:	48 8d 85 a8 eb ff ff 	lea    -0x1458(%rbp),%rax
    bd7c:	48 89 85 48 f4 ff ff 	mov    %rax,-0xbb8(%rbp)
    bd83:	48 8d 85 a8 eb ff ff 	lea    -0x1458(%rbp),%rax
    bd8a:	48 89 85 50 f4 ff ff 	mov    %rax,-0xbb0(%rbp)
    bd91:	48 8d 05 e8 a9 00 00 	lea    0xa9e8(%rip),%rax        # 16780 <g_490>
    bd98:	48 89 85 58 f4 ff ff 	mov    %rax,-0xba8(%rbp)
    bd9f:	48 8d 05 da a9 00 00 	lea    0xa9da(%rip),%rax        # 16780 <g_490>
    bda6:	48 89 85 60 f4 ff ff 	mov    %rax,-0xba0(%rbp)
    bdad:	48 8d 05 cc a9 00 00 	lea    0xa9cc(%rip),%rax        # 16780 <g_490>
    bdb4:	48 89 85 68 f4 ff ff 	mov    %rax,-0xb98(%rbp)
    bdbb:	48 8d 05 be a9 00 00 	lea    0xa9be(%rip),%rax        # 16780 <g_490>
    bdc2:	48 89 85 70 f4 ff ff 	mov    %rax,-0xb90(%rbp)
    bdc9:	48 8d 05 b0 a9 00 00 	lea    0xa9b0(%rip),%rax        # 16780 <g_490>
    bdd0:	48 89 85 78 f4 ff ff 	mov    %rax,-0xb88(%rbp)
    bdd7:	48 8d 85 a8 eb ff ff 	lea    -0x1458(%rbp),%rax
    bdde:	48 89 85 80 f4 ff ff 	mov    %rax,-0xb80(%rbp)
    bde5:	48 8d 85 a8 eb ff ff 	lea    -0x1458(%rbp),%rax
    bdec:	48 89 85 88 f4 ff ff 	mov    %rax,-0xb78(%rbp)
    bdf3:	48 8d 85 a8 eb ff ff 	lea    -0x1458(%rbp),%rax
    bdfa:	48 89 85 90 f4 ff ff 	mov    %rax,-0xb70(%rbp)
    be01:	48 8d 85 a8 eb ff ff 	lea    -0x1458(%rbp),%rax
    be08:	48 89 85 98 f4 ff ff 	mov    %rax,-0xb68(%rbp)
    be0f:	48 8d 85 a8 eb ff ff 	lea    -0x1458(%rbp),%rax
    be16:	48 89 85 a0 f4 ff ff 	mov    %rax,-0xb60(%rbp)
    be1d:	48 8d 05 5c a9 00 00 	lea    0xa95c(%rip),%rax        # 16780 <g_490>
    be24:	48 89 85 a8 f4 ff ff 	mov    %rax,-0xb58(%rbp)
    be2b:	48 8d 05 4e a9 00 00 	lea    0xa94e(%rip),%rax        # 16780 <g_490>
    be32:	48 89 85 b0 f4 ff ff 	mov    %rax,-0xb50(%rbp)
    be39:	48 8d 05 40 a9 00 00 	lea    0xa940(%rip),%rax        # 16780 <g_490>
    be40:	48 89 85 b8 f4 ff ff 	mov    %rax,-0xb48(%rbp)
    be47:	48 8d 05 32 a9 00 00 	lea    0xa932(%rip),%rax        # 16780 <g_490>
    be4e:	48 89 85 c0 f4 ff ff 	mov    %rax,-0xb40(%rbp)
    be55:	48 8d 05 24 a9 00 00 	lea    0xa924(%rip),%rax        # 16780 <g_490>
    be5c:	48 89 85 c8 f4 ff ff 	mov    %rax,-0xb38(%rbp)
    be63:	48 8d 85 a8 eb ff ff 	lea    -0x1458(%rbp),%rax
    be6a:	48 89 85 d0 f4 ff ff 	mov    %rax,-0xb30(%rbp)
    be71:	48 8d 85 a8 eb ff ff 	lea    -0x1458(%rbp),%rax
    be78:	48 89 85 d8 f4 ff ff 	mov    %rax,-0xb28(%rbp)
    be7f:	48 8d 85 a8 eb ff ff 	lea    -0x1458(%rbp),%rax
    be86:	48 89 85 e0 f4 ff ff 	mov    %rax,-0xb20(%rbp)
    be8d:	48 8d 85 a8 eb ff ff 	lea    -0x1458(%rbp),%rax
    be94:	48 89 85 e8 f4 ff ff 	mov    %rax,-0xb18(%rbp)
    be9b:	48 8d 85 a8 eb ff ff 	lea    -0x1458(%rbp),%rax
    bea2:	48 89 85 f0 f4 ff ff 	mov    %rax,-0xb10(%rbp)
    bea9:	48 8d 05 d0 a8 00 00 	lea    0xa8d0(%rip),%rax        # 16780 <g_490>
    beb0:	48 89 85 f8 f4 ff ff 	mov    %rax,-0xb08(%rbp)
    beb7:	48 8d 05 c2 a8 00 00 	lea    0xa8c2(%rip),%rax        # 16780 <g_490>
    bebe:	48 89 85 00 f5 ff ff 	mov    %rax,-0xb00(%rbp)
    bec5:	48 8d 05 b4 a8 00 00 	lea    0xa8b4(%rip),%rax        # 16780 <g_490>
    becc:	48 89 85 08 f5 ff ff 	mov    %rax,-0xaf8(%rbp)
    bed3:	48 8d 05 a6 a8 00 00 	lea    0xa8a6(%rip),%rax        # 16780 <g_490>
    beda:	48 89 85 10 f5 ff ff 	mov    %rax,-0xaf0(%rbp)
    bee1:	48 8d 05 98 a8 00 00 	lea    0xa898(%rip),%rax        # 16780 <g_490>
    bee8:	48 89 85 18 f5 ff ff 	mov    %rax,-0xae8(%rbp)
    beef:	48 8d 85 a8 eb ff ff 	lea    -0x1458(%rbp),%rax
    bef6:	48 89 85 20 f5 ff ff 	mov    %rax,-0xae0(%rbp)
    befd:	48 8d 85 a8 eb ff ff 	lea    -0x1458(%rbp),%rax
    bf04:	48 89 85 28 f5 ff ff 	mov    %rax,-0xad8(%rbp)
    bf0b:	48 8d 85 a8 eb ff ff 	lea    -0x1458(%rbp),%rax
    bf12:	48 89 85 30 f5 ff ff 	mov    %rax,-0xad0(%rbp)
    bf19:	48 8d 85 a8 eb ff ff 	lea    -0x1458(%rbp),%rax
    bf20:	48 89 85 38 f5 ff ff 	mov    %rax,-0xac8(%rbp)
    bf27:	48 8d 85 a8 eb ff ff 	lea    -0x1458(%rbp),%rax
    bf2e:	48 89 85 40 f5 ff ff 	mov    %rax,-0xac0(%rbp)
    bf35:	48 8d 05 44 a8 00 00 	lea    0xa844(%rip),%rax        # 16780 <g_490>
    bf3c:	48 89 85 48 f5 ff ff 	mov    %rax,-0xab8(%rbp)
    bf43:	48 8d 05 36 a8 00 00 	lea    0xa836(%rip),%rax        # 16780 <g_490>
    bf4a:	48 89 85 50 f5 ff ff 	mov    %rax,-0xab0(%rbp)
    bf51:	48 8d 05 28 a8 00 00 	lea    0xa828(%rip),%rax        # 16780 <g_490>
    bf58:	48 89 85 58 f5 ff ff 	mov    %rax,-0xaa8(%rbp)
    bf5f:	48 8d 05 1a a8 00 00 	lea    0xa81a(%rip),%rax        # 16780 <g_490>
    bf66:	48 89 85 60 f5 ff ff 	mov    %rax,-0xaa0(%rbp)
    bf6d:	48 8d 05 0c a8 00 00 	lea    0xa80c(%rip),%rax        # 16780 <g_490>
    bf74:	48 89 85 68 f5 ff ff 	mov    %rax,-0xa98(%rbp)
    bf7b:	48 8d 85 a8 eb ff ff 	lea    -0x1458(%rbp),%rax
    bf82:	48 89 85 70 f5 ff ff 	mov    %rax,-0xa90(%rbp)
    bf89:	48 8d 85 a8 eb ff ff 	lea    -0x1458(%rbp),%rax
    bf90:	48 89 85 78 f5 ff ff 	mov    %rax,-0xa88(%rbp)
    bf97:	48 8d 85 a8 eb ff ff 	lea    -0x1458(%rbp),%rax
    bf9e:	48 89 85 80 f5 ff ff 	mov    %rax,-0xa80(%rbp)
    bfa5:	48 8d 85 a8 eb ff ff 	lea    -0x1458(%rbp),%rax
    bfac:	48 89 85 88 f5 ff ff 	mov    %rax,-0xa78(%rbp)
    bfb3:	48 8d 85 a8 eb ff ff 	lea    -0x1458(%rbp),%rax
    bfba:	48 89 85 90 f5 ff ff 	mov    %rax,-0xa70(%rbp)
    bfc1:	48 8d 05 b8 a7 00 00 	lea    0xa7b8(%rip),%rax        # 16780 <g_490>
    bfc8:	48 89 85 98 f5 ff ff 	mov    %rax,-0xa68(%rbp)
    bfcf:	48 8d 05 aa a7 00 00 	lea    0xa7aa(%rip),%rax        # 16780 <g_490>
    bfd6:	48 89 85 a0 f5 ff ff 	mov    %rax,-0xa60(%rbp)
    bfdd:	48 8d 05 9c a7 00 00 	lea    0xa79c(%rip),%rax        # 16780 <g_490>
    bfe4:	48 89 85 a8 f5 ff ff 	mov    %rax,-0xa58(%rbp)
    bfeb:	48 8d 05 8e a7 00 00 	lea    0xa78e(%rip),%rax        # 16780 <g_490>
    bff2:	48 89 85 b0 f5 ff ff 	mov    %rax,-0xa50(%rbp)
    bff9:	48 8d 05 80 a7 00 00 	lea    0xa780(%rip),%rax        # 16780 <g_490>
    c000:	48 89 85 b8 f5 ff ff 	mov    %rax,-0xa48(%rbp)
    c007:	48 8d 85 a8 eb ff ff 	lea    -0x1458(%rbp),%rax
    c00e:	48 89 85 c0 f5 ff ff 	mov    %rax,-0xa40(%rbp)
    c015:	48 8d 85 a8 eb ff ff 	lea    -0x1458(%rbp),%rax
    c01c:	48 89 85 c8 f5 ff ff 	mov    %rax,-0xa38(%rbp)
    c023:	48 8d 85 a8 eb ff ff 	lea    -0x1458(%rbp),%rax
    c02a:	48 89 85 d0 f5 ff ff 	mov    %rax,-0xa30(%rbp)
    c031:	48 8d 85 a8 eb ff ff 	lea    -0x1458(%rbp),%rax
    c038:	48 89 85 d8 f5 ff ff 	mov    %rax,-0xa28(%rbp)
    c03f:	48 8d 85 a8 eb ff ff 	lea    -0x1458(%rbp),%rax
    c046:	48 89 85 e0 f5 ff ff 	mov    %rax,-0xa20(%rbp)
    c04d:	48 8d 05 2c a7 00 00 	lea    0xa72c(%rip),%rax        # 16780 <g_490>
    c054:	48 89 85 e8 f5 ff ff 	mov    %rax,-0xa18(%rbp)
    c05b:	48 8d 05 1e a7 00 00 	lea    0xa71e(%rip),%rax        # 16780 <g_490>
    c062:	48 89 85 f0 f5 ff ff 	mov    %rax,-0xa10(%rbp)
    c069:	48 8d 05 10 a7 00 00 	lea    0xa710(%rip),%rax        # 16780 <g_490>
    c070:	48 89 85 f8 f5 ff ff 	mov    %rax,-0xa08(%rbp)
    c077:	48 8d 05 02 a7 00 00 	lea    0xa702(%rip),%rax        # 16780 <g_490>
    c07e:	48 89 85 00 f6 ff ff 	mov    %rax,-0xa00(%rbp)
    c085:	48 8d 05 f4 a6 00 00 	lea    0xa6f4(%rip),%rax        # 16780 <g_490>
    c08c:	48 89 85 08 f6 ff ff 	mov    %rax,-0x9f8(%rbp)
    c093:	48 8d 85 a8 eb ff ff 	lea    -0x1458(%rbp),%rax
    c09a:	48 89 85 10 f6 ff ff 	mov    %rax,-0x9f0(%rbp)
    c0a1:	48 8d 85 a8 eb ff ff 	lea    -0x1458(%rbp),%rax
    c0a8:	48 89 85 18 f6 ff ff 	mov    %rax,-0x9e8(%rbp)
    c0af:	48 8d 85 a8 eb ff ff 	lea    -0x1458(%rbp),%rax
    c0b6:	48 89 85 20 f6 ff ff 	mov    %rax,-0x9e0(%rbp)
    c0bd:	48 8d 85 a8 eb ff ff 	lea    -0x1458(%rbp),%rax
    c0c4:	48 89 85 28 f6 ff ff 	mov    %rax,-0x9d8(%rbp)
    c0cb:	48 8d 85 a8 eb ff ff 	lea    -0x1458(%rbp),%rax
    c0d2:	48 89 85 30 f6 ff ff 	mov    %rax,-0x9d0(%rbp)
    c0d9:	48 8d 05 a0 a6 00 00 	lea    0xa6a0(%rip),%rax        # 16780 <g_490>
    c0e0:	48 89 85 38 f6 ff ff 	mov    %rax,-0x9c8(%rbp)
    c0e7:	48 8d 05 92 a6 00 00 	lea    0xa692(%rip),%rax        # 16780 <g_490>
    c0ee:	48 89 85 40 f6 ff ff 	mov    %rax,-0x9c0(%rbp)
    c0f5:	48 8d 05 84 a6 00 00 	lea    0xa684(%rip),%rax        # 16780 <g_490>
    c0fc:	48 89 85 48 f6 ff ff 	mov    %rax,-0x9b8(%rbp)
    c103:	48 8d 05 76 a6 00 00 	lea    0xa676(%rip),%rax        # 16780 <g_490>
    c10a:	48 89 85 50 f6 ff ff 	mov    %rax,-0x9b0(%rbp)
    c111:	48 8d 05 68 a6 00 00 	lea    0xa668(%rip),%rax        # 16780 <g_490>
    c118:	48 89 85 58 f6 ff ff 	mov    %rax,-0x9a8(%rbp)
    c11f:	48 8d 85 a8 eb ff ff 	lea    -0x1458(%rbp),%rax
    c126:	48 89 85 60 f6 ff ff 	mov    %rax,-0x9a0(%rbp)
    c12d:	48 8d 85 a8 eb ff ff 	lea    -0x1458(%rbp),%rax
    c134:	48 89 85 68 f6 ff ff 	mov    %rax,-0x998(%rbp)
    c13b:	48 8d 85 a8 eb ff ff 	lea    -0x1458(%rbp),%rax
    c142:	48 89 85 70 f6 ff ff 	mov    %rax,-0x990(%rbp)
    c149:	48 8d 85 a8 eb ff ff 	lea    -0x1458(%rbp),%rax
    c150:	48 89 85 78 f6 ff ff 	mov    %rax,-0x988(%rbp)
    c157:	48 8d 85 a8 eb ff ff 	lea    -0x1458(%rbp),%rax
    c15e:	48 89 85 80 f6 ff ff 	mov    %rax,-0x980(%rbp)
    c165:	48 8d 05 14 a6 00 00 	lea    0xa614(%rip),%rax        # 16780 <g_490>
    c16c:	48 89 85 88 f6 ff ff 	mov    %rax,-0x978(%rbp)
    c173:	48 8d 05 06 a6 00 00 	lea    0xa606(%rip),%rax        # 16780 <g_490>
    c17a:	48 89 85 90 f6 ff ff 	mov    %rax,-0x970(%rbp)
    c181:	48 8d 05 f8 a5 00 00 	lea    0xa5f8(%rip),%rax        # 16780 <g_490>
    c188:	48 89 85 98 f6 ff ff 	mov    %rax,-0x968(%rbp)
    c18f:	48 8d 05 ea a5 00 00 	lea    0xa5ea(%rip),%rax        # 16780 <g_490>
    c196:	48 89 85 a0 f6 ff ff 	mov    %rax,-0x960(%rbp)
    c19d:	48 8d 05 dc a5 00 00 	lea    0xa5dc(%rip),%rax        # 16780 <g_490>
    c1a4:	48 89 85 a8 f6 ff ff 	mov    %rax,-0x958(%rbp)
    c1ab:	48 8d 85 a8 eb ff ff 	lea    -0x1458(%rbp),%rax
    c1b2:	48 89 85 b0 f6 ff ff 	mov    %rax,-0x950(%rbp)
    c1b9:	48 8d 85 a8 eb ff ff 	lea    -0x1458(%rbp),%rax
    c1c0:	48 89 85 b8 f6 ff ff 	mov    %rax,-0x948(%rbp)
    c1c7:	48 8d 85 a8 eb ff ff 	lea    -0x1458(%rbp),%rax
    c1ce:	48 89 85 c0 f6 ff ff 	mov    %rax,-0x940(%rbp)
    c1d5:	48 8d 85 a8 eb ff ff 	lea    -0x1458(%rbp),%rax
    c1dc:	48 89 85 c8 f6 ff ff 	mov    %rax,-0x938(%rbp)
    c1e3:	48 8d 85 a8 eb ff ff 	lea    -0x1458(%rbp),%rax
    c1ea:	48 89 85 d0 f6 ff ff 	mov    %rax,-0x930(%rbp)
    c1f1:	48 8d 05 88 a5 00 00 	lea    0xa588(%rip),%rax        # 16780 <g_490>
    c1f8:	48 89 85 d8 f6 ff ff 	mov    %rax,-0x928(%rbp)
    c1ff:	48 8d 05 7a a5 00 00 	lea    0xa57a(%rip),%rax        # 16780 <g_490>
    c206:	48 89 85 e0 f6 ff ff 	mov    %rax,-0x920(%rbp)
    c20d:	48 8d 05 6c a5 00 00 	lea    0xa56c(%rip),%rax        # 16780 <g_490>
    c214:	48 89 85 e8 f6 ff ff 	mov    %rax,-0x918(%rbp)
    c21b:	48 8d 05 5e a5 00 00 	lea    0xa55e(%rip),%rax        # 16780 <g_490>
    c222:	48 89 85 f0 f6 ff ff 	mov    %rax,-0x910(%rbp)
    c229:	48 8d 05 50 a5 00 00 	lea    0xa550(%rip),%rax        # 16780 <g_490>
    c230:	48 89 85 f8 f6 ff ff 	mov    %rax,-0x908(%rbp)
    c237:	48 8d 85 a8 eb ff ff 	lea    -0x1458(%rbp),%rax
    c23e:	48 89 85 00 f7 ff ff 	mov    %rax,-0x900(%rbp)
    c245:	48 8d 85 a8 eb ff ff 	lea    -0x1458(%rbp),%rax
    c24c:	48 89 85 08 f7 ff ff 	mov    %rax,-0x8f8(%rbp)
    c253:	48 8d 85 a8 eb ff ff 	lea    -0x1458(%rbp),%rax
    c25a:	48 89 85 10 f7 ff ff 	mov    %rax,-0x8f0(%rbp)
    c261:	48 8d 85 a8 eb ff ff 	lea    -0x1458(%rbp),%rax
    c268:	48 89 85 18 f7 ff ff 	mov    %rax,-0x8e8(%rbp)
    c26f:	48 8d 85 a8 eb ff ff 	lea    -0x1458(%rbp),%rax
    c276:	48 89 85 20 f7 ff ff 	mov    %rax,-0x8e0(%rbp)
    c27d:	48 8d 05 fc a4 00 00 	lea    0xa4fc(%rip),%rax        # 16780 <g_490>
    c284:	48 89 85 28 f7 ff ff 	mov    %rax,-0x8d8(%rbp)
    c28b:	48 8d 05 ee a4 00 00 	lea    0xa4ee(%rip),%rax        # 16780 <g_490>
    c292:	48 89 85 30 f7 ff ff 	mov    %rax,-0x8d0(%rbp)
    c299:	48 8d 05 e0 a4 00 00 	lea    0xa4e0(%rip),%rax        # 16780 <g_490>
    c2a0:	48 89 85 38 f7 ff ff 	mov    %rax,-0x8c8(%rbp)
    c2a7:	48 8d 05 d2 a4 00 00 	lea    0xa4d2(%rip),%rax        # 16780 <g_490>
    c2ae:	48 89 85 40 f7 ff ff 	mov    %rax,-0x8c0(%rbp)
    c2b5:	48 8d 05 c4 a4 00 00 	lea    0xa4c4(%rip),%rax        # 16780 <g_490>
    c2bc:	48 89 85 48 f7 ff ff 	mov    %rax,-0x8b8(%rbp)
    c2c3:	48 8d 85 a8 eb ff ff 	lea    -0x1458(%rbp),%rax
    c2ca:	48 89 85 50 f7 ff ff 	mov    %rax,-0x8b0(%rbp)
    c2d1:	48 8d 85 a8 eb ff ff 	lea    -0x1458(%rbp),%rax
    c2d8:	48 89 85 58 f7 ff ff 	mov    %rax,-0x8a8(%rbp)
    c2df:	48 8d 85 a8 eb ff ff 	lea    -0x1458(%rbp),%rax
    c2e6:	48 89 85 60 f7 ff ff 	mov    %rax,-0x8a0(%rbp)
    c2ed:	48 8d 85 a8 eb ff ff 	lea    -0x1458(%rbp),%rax
    c2f4:	48 89 85 68 f7 ff ff 	mov    %rax,-0x898(%rbp)
    c2fb:	48 8d 85 a8 eb ff ff 	lea    -0x1458(%rbp),%rax
    c302:	48 89 85 70 f7 ff ff 	mov    %rax,-0x890(%rbp)
    c309:	48 8d 05 70 a4 00 00 	lea    0xa470(%rip),%rax        # 16780 <g_490>
    c310:	48 89 85 78 f7 ff ff 	mov    %rax,-0x888(%rbp)
    c317:	48 8d 05 62 a4 00 00 	lea    0xa462(%rip),%rax        # 16780 <g_490>
    c31e:	48 89 85 80 f7 ff ff 	mov    %rax,-0x880(%rbp)
    c325:	48 8d 05 54 a4 00 00 	lea    0xa454(%rip),%rax        # 16780 <g_490>
    c32c:	48 89 85 88 f7 ff ff 	mov    %rax,-0x878(%rbp)
    c333:	48 8d 05 46 a4 00 00 	lea    0xa446(%rip),%rax        # 16780 <g_490>
    c33a:	48 89 85 90 f7 ff ff 	mov    %rax,-0x870(%rbp)
    c341:	48 8d 05 38 a4 00 00 	lea    0xa438(%rip),%rax        # 16780 <g_490>
    c348:	48 89 85 98 f7 ff ff 	mov    %rax,-0x868(%rbp)
    c34f:	48 8d 85 a8 eb ff ff 	lea    -0x1458(%rbp),%rax
    c356:	48 89 85 a0 f7 ff ff 	mov    %rax,-0x860(%rbp)
    c35d:	48 8d 85 a8 eb ff ff 	lea    -0x1458(%rbp),%rax
    c364:	48 89 85 a8 f7 ff ff 	mov    %rax,-0x858(%rbp)
    c36b:	48 8d 85 a8 eb ff ff 	lea    -0x1458(%rbp),%rax
    c372:	48 89 85 b0 f7 ff ff 	mov    %rax,-0x850(%rbp)
    c379:	48 8d 85 a8 eb ff ff 	lea    -0x1458(%rbp),%rax
    c380:	48 89 85 b8 f7 ff ff 	mov    %rax,-0x848(%rbp)
    c387:	48 8d 85 a8 eb ff ff 	lea    -0x1458(%rbp),%rax
    c38e:	48 89 85 c0 f7 ff ff 	mov    %rax,-0x840(%rbp)
    c395:	48 8d 05 e4 a3 00 00 	lea    0xa3e4(%rip),%rax        # 16780 <g_490>
    c39c:	48 89 85 c8 f7 ff ff 	mov    %rax,-0x838(%rbp)
    c3a3:	48 8d 05 d6 a3 00 00 	lea    0xa3d6(%rip),%rax        # 16780 <g_490>
    c3aa:	48 89 85 d0 f7 ff ff 	mov    %rax,-0x830(%rbp)
    c3b1:	48 8d 05 c8 a3 00 00 	lea    0xa3c8(%rip),%rax        # 16780 <g_490>
    c3b8:	48 89 85 d8 f7 ff ff 	mov    %rax,-0x828(%rbp)
    c3bf:	48 8d 05 ba a3 00 00 	lea    0xa3ba(%rip),%rax        # 16780 <g_490>
    c3c6:	48 89 85 e0 f7 ff ff 	mov    %rax,-0x820(%rbp)
    c3cd:	48 8d 05 ac a3 00 00 	lea    0xa3ac(%rip),%rax        # 16780 <g_490>
    c3d4:	48 89 85 e8 f7 ff ff 	mov    %rax,-0x818(%rbp)
    c3db:	48 8d 85 a8 eb ff ff 	lea    -0x1458(%rbp),%rax
    c3e2:	48 89 85 f0 f7 ff ff 	mov    %rax,-0x810(%rbp)
    c3e9:	48 8d 85 a8 eb ff ff 	lea    -0x1458(%rbp),%rax
    c3f0:	48 89 85 f8 f7 ff ff 	mov    %rax,-0x808(%rbp)
    c3f7:	48 8d 85 a8 eb ff ff 	lea    -0x1458(%rbp),%rax
    c3fe:	48 89 85 00 f8 ff ff 	mov    %rax,-0x800(%rbp)
    c405:	48 8d 85 a8 eb ff ff 	lea    -0x1458(%rbp),%rax
    c40c:	48 89 85 08 f8 ff ff 	mov    %rax,-0x7f8(%rbp)
    c413:	48 8d 85 a8 eb ff ff 	lea    -0x1458(%rbp),%rax
    c41a:	48 89 85 10 f8 ff ff 	mov    %rax,-0x7f0(%rbp)
    c421:	48 8d 05 58 a3 00 00 	lea    0xa358(%rip),%rax        # 16780 <g_490>
    c428:	48 89 85 18 f8 ff ff 	mov    %rax,-0x7e8(%rbp)
    c42f:	48 8d 05 4a a3 00 00 	lea    0xa34a(%rip),%rax        # 16780 <g_490>
    c436:	48 89 85 20 f8 ff ff 	mov    %rax,-0x7e0(%rbp)
    c43d:	48 8d 05 3c a3 00 00 	lea    0xa33c(%rip),%rax        # 16780 <g_490>
    c444:	48 89 85 28 f8 ff ff 	mov    %rax,-0x7d8(%rbp)
    c44b:	48 8d 05 2e a3 00 00 	lea    0xa32e(%rip),%rax        # 16780 <g_490>
    c452:	48 89 85 30 f8 ff ff 	mov    %rax,-0x7d0(%rbp)
    c459:	48 8d 05 20 a3 00 00 	lea    0xa320(%rip),%rax        # 16780 <g_490>
    c460:	48 89 85 38 f8 ff ff 	mov    %rax,-0x7c8(%rbp)
    c467:	c6 85 9f eb ff ff ff 	movb   $0xff,-0x1461(%rbp)
    c46e:	48 8d 05 e3 b9 00 00 	lea    0xb9e3(%rip),%rax        # 17e58 <g_456>
    c475:	48 89 85 18 ed ff ff 	mov    %rax,-0x12e8(%rbp)
    c47c:	c7 85 f0 eb ff ff 00 	movl   $0x0,-0x1410(%rbp)
    c483:	00 00 00 
    c486:	48 8d 85 10 ec ff ff 	lea    -0x13f0(%rbp),%rax
    c48d:	48 89 85 20 ed ff ff 	mov    %rax,-0x12e0(%rbp)
    c494:	8b 85 ec eb ff ff    	mov    -0x1414(%rbp),%eax
    c49a:	0f bf d8             	movswl %ax,%ebx
    c49d:	8b 05 11 c3 00 00    	mov    0xc311(%rip),%eax        # 187b4 <g_572>
    c4a3:	44 8b 25 c6 8b 00 00 	mov    0x8bc6(%rip),%r12d        # 15070 <g_29>
    c4aa:	0f b6 05 f7 9a 00 00 	movzbl 0x9af7(%rip),%eax        # 15fa8 <g_433+0x8>
    c4b1:	88 85 84 eb ff ff    	mov    %al,-0x147c(%rbp)
    c4b7:	0f b7 05 d2 9a 00 00 	movzwl 0x9ad2(%rip),%eax        # 15f90 <g_426>
    c4be:	44 0f b7 e8          	movzwl %ax,%r13d
    c4c2:	48 8b 85 c0 ed ff ff 	mov    -0x1240(%rbp),%rax
    c4c9:	89 85 80 eb ff ff    	mov    %eax,-0x1480(%rbp)
    c4cf:	8b 85 ec eb ff ff    	mov    -0x1414(%rbp),%eax
    c4d5:	98                   	cwtl   
    c4d6:	be 0d 00 00 00       	mov    $0xd,%esi
    c4db:	89 c7                	mov    %eax,%edi
    c4dd:	e8 48 90 ff ff       	callq  552a <safe_rshift_func_int16_t_s_s>
    c4e2:	41 89 c7             	mov    %eax,%r15d
    c4e5:	8b 85 ec eb ff ff    	mov    -0x1414(%rbp),%eax
    c4eb:	44 0f be f0          	movsbl %al,%r14d
    c4ef:	48 8b 85 38 ec ff ff 	mov    -0x13c8(%rbp),%rax
    c4f6:	48 8b 00             	mov    (%rax),%rax
    c4f9:	48 8b 08             	mov    (%rax),%rcx
    c4fc:	8b 85 ec eb ff ff    	mov    -0x1414(%rbp),%eax
    c502:	48 63 d0             	movslq %eax,%rdx
    c505:	48 8b 85 38 ec ff ff 	mov    -0x13c8(%rbp),%rax
    c50c:	48 8b 00             	mov    (%rax),%rax
    c50f:	48 09 ca             	or     %rcx,%rdx
    c512:	48 89 10             	mov    %rdx,(%rax)
    c515:	48 8b 10             	mov    (%rax),%rdx
    c518:	8b 05 66 8b 00 00    	mov    0x8b66(%rip),%eax        # 15084 <g_48>
    c51e:	48 98                	cltq   
    c520:	48 39 c2             	cmp    %rax,%rdx
    c523:	0f 92 c0             	setb   %al
    c526:	0f b6 d0             	movzbl %al,%edx
    c529:	66 0f be 85 88 eb ff 	movsbw -0x1478(%rbp),%ax
    c530:	ff 
    c531:	31 d0                	xor    %edx,%eax
    c533:	98                   	cwtl   
    c534:	be 08 00 00 00       	mov    $0x8,%esi
    c539:	89 c7                	mov    %eax,%edi
    c53b:	e8 ea 8f ff ff       	callq  552a <safe_rshift_func_int16_t_s_s>
    c540:	0f be c0             	movsbl %al,%eax
    c543:	44 89 f6             	mov    %r14d,%esi
    c546:	89 c7                	mov    %eax,%edi
    c548:	e8 a5 8c ff ff       	callq  51f2 <safe_sub_func_int8_t_s_s>
    c54d:	83 c8 e6             	or     $0xffffffe6,%eax
    c550:	88 85 8c eb ff ff    	mov    %al,-0x1474(%rbp)
    c556:	0f be 85 8c eb ff ff 	movsbl -0x1474(%rbp),%eax
    c55d:	be ff ff ff ff       	mov    $0xffffffff,%esi
    c562:	89 c7                	mov    %eax,%edi
    c564:	e8 6b 8c ff ff       	callq  51d4 <safe_add_func_int8_t_s_s>
    c569:	66 98                	cbtw   
    c56b:	66 41 39 c7          	cmp    %ax,%r15w
    c56f:	0f 9d c0             	setge  %al
    c572:	0f b6 c0             	movzbl %al,%eax
    c575:	8b b5 80 eb ff ff    	mov    -0x1480(%rbp),%esi
    c57b:	89 c7                	mov    %eax,%edi
    c57d:	e8 1f 8d ff ff       	callq  52a1 <safe_lshift_func_int8_t_s_s>
    c582:	66 98                	cbtw   
    c584:	0f b7 c0             	movzwl %ax,%eax
    c587:	44 89 ee             	mov    %r13d,%esi
    c58a:	89 c7                	mov    %eax,%edi
    c58c:	e8 fd 97 ff ff       	callq  5d8e <safe_div_func_uint16_t_u_u>
    c591:	48 8b 05 b8 b8 00 00 	mov    0xb8b8(%rip),%rax        # 17e50 <g_331>
    c598:	48 8b 10             	mov    (%rax),%rdx
    c59b:	48 8b 85 08 ec ff ff 	mov    -0x13f8(%rbp),%rax
    c5a2:	48 8b 00             	mov    (%rax),%rax
    c5a5:	48 39 c2             	cmp    %rax,%rdx
    c5a8:	0f 95 c0             	setne  %al
    c5ab:	0f b6 d0             	movzbl %al,%edx
    c5ae:	8b 85 ec eb ff ff    	mov    -0x1414(%rbp),%eax
    c5b4:	0f be c0             	movsbl %al,%eax
    c5b7:	89 d6                	mov    %edx,%esi
    c5b9:	89 c7                	mov    %eax,%edi
    c5bb:	e8 75 8d ff ff       	callq  5335 <safe_rshift_func_int8_t_s_s>
    c5c0:	38 85 84 eb ff ff    	cmp    %al,-0x147c(%rbp)
    c5c6:	0f 95 c0             	setne  %al
    c5c9:	0f b6 c0             	movzbl %al,%eax
    c5cc:	44 89 e6             	mov    %r12d,%esi
    c5cf:	89 c7                	mov    %eax,%edi
    c5d1:	e8 54 8f ff ff       	callq  552a <safe_rshift_func_int16_t_s_s>
    c5d6:	0f bf d0             	movswl %ax,%edx
    c5d9:	48 8b 05 d0 b7 00 00 	mov    0xb7d0(%rip),%rax        # 17db0 <g_141>
    c5e0:	48 8b 00             	mov    (%rax),%rax
    c5e3:	09 d0                	or     %edx,%eax
    c5e5:	48 8b 95 08 ed ff ff 	mov    -0x12f8(%rbp),%rdx
    c5ec:	48 8d 0d 91 a1 00 00 	lea    0xa191(%rip),%rcx        # 16784 <g_492>
    c5f3:	48 89 0a             	mov    %rcx,(%rdx)
    c5f6:	89 c6                	mov    %eax,%esi
    c5f8:	bf 01 00 00 00       	mov    $0x1,%edi
    c5fd:	e8 90 8e ff ff       	callq  5492 <safe_lshift_func_int16_t_s_s>
    c602:	b8 00 00 00 00       	mov    $0x0,%eax
    c607:	0f b6 c0             	movzbl %al,%eax
    c60a:	89 c7                	mov    %eax,%edi
    c60c:	e8 34 95 ff ff       	callq  5b45 <safe_unary_minus_func_uint8_t_u>
    c611:	80 bd 8c eb ff ff 00 	cmpb   $0x0,-0x1474(%rbp)
    c618:	75 0b                	jne    c625 <func_69+0x1e77>
    c61a:	0f b6 05 93 c1 00 00 	movzbl 0xc193(%rip),%eax        # 187b4 <g_572>
    c621:	84 c0                	test   %al,%al
    c623:	74 07                	je     c62c <func_69+0x1e7e>
    c625:	b8 01 00 00 00       	mov    $0x1,%eax
    c62a:	eb 05                	jmp    c631 <func_69+0x1e83>
    c62c:	b8 00 00 00 00       	mov    $0x0,%eax
    c631:	0f b6 c0             	movzbl %al,%eax
    c634:	be 03 00 00 00       	mov    $0x3,%esi
    c639:	89 c7                	mov    %eax,%edi
    c63b:	e8 c5 95 ff ff       	callq  5c05 <safe_lshift_func_uint8_t_u_s>
    c640:	8b 05 36 99 00 00    	mov    0x9936(%rip),%eax        # 15f7c <g_315+0x1c>
    c646:	98                   	cwtl   
    c647:	be f6 ff ff ff       	mov    $0xfffffff6,%esi
    c64c:	89 c7                	mov    %eax,%edi
    c64e:	e8 80 8d ff ff       	callq  53d3 <safe_sub_func_int16_t_s_s>
    c653:	98                   	cwtl   
    c654:	89 de                	mov    %ebx,%esi
    c656:	89 c7                	mov    %eax,%edi
    c658:	e8 98 8d ff ff       	callq  53f5 <safe_mul_func_int16_t_s_s>
    c65d:	0f bf d0             	movswl %ax,%edx
    c660:	8b 85 a8 eb ff ff    	mov    -0x1458(%rbp),%eax
    c666:	21 d0                	and    %edx,%eax
    c668:	89 85 a8 eb ff ff    	mov    %eax,-0x1458(%rbp)
    c66e:	8b 05 44 c1 00 00    	mov    0xc144(%rip),%eax        # 187b8 <g_597>
    c674:	0f b6 85 88 eb ff ff 	movzbl -0x1478(%rbp),%eax
    c67b:	0f b6 d8             	movzbl %al,%ebx
    c67e:	48 8b 85 08 ed ff ff 	mov    -0x12f8(%rbp),%rax
    c685:	48 8b 10             	mov    (%rax),%rdx
    c688:	48 8b 85 10 ed ff ff 	mov    -0x12f0(%rbp),%rax
    c68f:	48 c7 00 00 00 00 00 	movq   $0x0,(%rax)
    c696:	48 8b 85 10 ed ff ff 	mov    -0x12f0(%rbp),%rax
    c69d:	48 8b 00             	mov    (%rax),%rax
    c6a0:	48 39 c2             	cmp    %rax,%rdx
    c6a3:	48 8b 85 a0 ed ff ff 	mov    -0x1260(%rbp),%rax
    c6aa:	0f bf d0             	movswl %ax,%edx
    c6ad:	48 8b 05 fc b6 00 00 	mov    0xb6fc(%rip),%rax        # 17db0 <g_141>
    c6b4:	48 8b 00             	mov    (%rax),%rax
    c6b7:	48 83 f8 f9          	cmp    $0xfffffffffffffff9,%rax
    c6bb:	0f 97 c0             	seta   %al
    c6be:	0f b6 c0             	movzbl %al,%eax
    c6c1:	89 d6                	mov    %edx,%esi
    c6c3:	89 c7                	mov    %eax,%edi
    c6c5:	e8 2b 8d ff ff       	callq  53f5 <safe_mul_func_int16_t_s_s>
    c6ca:	89 de                	mov    %ebx,%esi
    c6cc:	bf 00 00 00 00       	mov    $0x0,%edi
    c6d1:	e8 84 94 ff ff       	callq  5b5a <safe_add_func_uint8_t_u_u>
    c6d6:	0f b6 c0             	movzbl %al,%eax
    c6d9:	25 38 8b 00 00       	and    $0x8b38,%eax
    c6de:	89 c6                	mov    %eax,%esi
    c6e0:	bf f6 ff ff ff       	mov    $0xfffffff6,%edi
    c6e5:	e8 e2 8f ff ff       	callq  56cc <safe_mod_func_int32_t_s_s>
    c6ea:	0f be 95 88 eb ff ff 	movsbl -0x1478(%rbp),%edx
    c6f1:	39 d0                	cmp    %edx,%eax
    c6f3:	0f 9f c0             	setg   %al
    c6f6:	0f b6 d0             	movzbl %al,%edx
    c6f9:	0f be 85 88 eb ff ff 	movsbl -0x1478(%rbp),%eax
    c700:	89 d6                	mov    %edx,%esi
    c702:	89 c7                	mov    %eax,%edi
    c704:	e8 1c 98 ff ff       	callq  5f25 <safe_div_func_uint32_t_u_u>
    c709:	8b 95 d0 eb ff ff    	mov    -0x1430(%rbp),%edx
    c70f:	39 d0                	cmp    %edx,%eax
    c711:	0f 93 c0             	setae  %al
    c714:	0f b6 d0             	movzbl %al,%edx
    c717:	0f be 85 8c eb ff ff 	movsbl -0x1474(%rbp),%eax
    c71e:	39 c2                	cmp    %eax,%edx
    c720:	0f 95 c0             	setne  %al
    c723:	0f b6 c0             	movzbl %al,%eax
    c726:	21 85 ac eb ff ff    	and    %eax,-0x1454(%rbp)
    c72c:	8b 85 ac eb ff ff    	mov    -0x1454(%rbp),%eax
    c732:	89 85 48 ed ff ff    	mov    %eax,-0x12b8(%rbp)
    c738:	66 c7 05 ff 97 00 00 	movw   $0x0,0x97ff(%rip)        # 15f40 <g_231>
    c73f:	00 00 
    c741:	e9 f3 09 00 00       	jmpq   d139 <func_69+0x298b>
    c746:	48 8d 85 08 ec ff ff 	lea    -0x13f8(%rbp),%rax
    c74d:	48 89 85 00 f0 ff ff 	mov    %rax,-0x1000(%rbp)
    c754:	48 8d 85 08 ec ff ff 	lea    -0x13f8(%rbp),%rax
    c75b:	48 89 85 08 f0 ff ff 	mov    %rax,-0xff8(%rbp)
    c762:	48 c7 85 10 f0 ff ff 	movq   $0x0,-0xff0(%rbp)
    c769:	00 00 00 00 
    c76d:	48 8d 85 08 ec ff ff 	lea    -0x13f8(%rbp),%rax
    c774:	48 89 85 18 f0 ff ff 	mov    %rax,-0xfe8(%rbp)
    c77b:	48 8d 85 08 ec ff ff 	lea    -0x13f8(%rbp),%rax
    c782:	48 89 85 20 f0 ff ff 	mov    %rax,-0xfe0(%rbp)
    c789:	48 8d 85 08 ec ff ff 	lea    -0x13f8(%rbp),%rax
    c790:	48 89 85 28 f0 ff ff 	mov    %rax,-0xfd8(%rbp)
    c797:	48 c7 85 30 f0 ff ff 	movq   $0x0,-0xfd0(%rbp)
    c79e:	00 00 00 00 
    c7a2:	48 8d 85 08 ec ff ff 	lea    -0x13f8(%rbp),%rax
    c7a9:	48 89 85 38 f0 ff ff 	mov    %rax,-0xfc8(%rbp)
    c7b0:	48 8d 85 08 ec ff ff 	lea    -0x13f8(%rbp),%rax
    c7b7:	48 89 85 40 f0 ff ff 	mov    %rax,-0xfc0(%rbp)
    c7be:	48 8d 85 08 ec ff ff 	lea    -0x13f8(%rbp),%rax
    c7c5:	48 89 85 48 f0 ff ff 	mov    %rax,-0xfb8(%rbp)
    c7cc:	48 8d 85 08 ec ff ff 	lea    -0x13f8(%rbp),%rax
    c7d3:	48 89 85 50 f0 ff ff 	mov    %rax,-0xfb0(%rbp)
    c7da:	48 c7 85 58 f0 ff ff 	movq   $0x0,-0xfa8(%rbp)
    c7e1:	00 00 00 00 
    c7e5:	48 8d 85 08 ec ff ff 	lea    -0x13f8(%rbp),%rax
    c7ec:	48 89 85 60 f0 ff ff 	mov    %rax,-0xfa0(%rbp)
    c7f3:	48 8d 85 08 ec ff ff 	lea    -0x13f8(%rbp),%rax
    c7fa:	48 89 85 68 f0 ff ff 	mov    %rax,-0xf98(%rbp)
    c801:	48 c7 85 70 f0 ff ff 	movq   $0x0,-0xf90(%rbp)
    c808:	00 00 00 00 
    c80c:	48 8d 85 08 ec ff ff 	lea    -0x13f8(%rbp),%rax
    c813:	48 89 85 78 f0 ff ff 	mov    %rax,-0xf88(%rbp)
    c81a:	48 8d 85 08 ec ff ff 	lea    -0x13f8(%rbp),%rax
    c821:	48 89 85 80 f0 ff ff 	mov    %rax,-0xf80(%rbp)
    c828:	48 8d 85 08 ec ff ff 	lea    -0x13f8(%rbp),%rax
    c82f:	48 89 85 88 f0 ff ff 	mov    %rax,-0xf78(%rbp)
    c836:	48 c7 85 90 f0 ff ff 	movq   $0x0,-0xf70(%rbp)
    c83d:	00 00 00 00 
    c841:	48 8d 85 08 ec ff ff 	lea    -0x13f8(%rbp),%rax
    c848:	48 89 85 98 f0 ff ff 	mov    %rax,-0xf68(%rbp)
    c84f:	48 8d 85 08 ec ff ff 	lea    -0x13f8(%rbp),%rax
    c856:	48 89 85 a0 f0 ff ff 	mov    %rax,-0xf60(%rbp)
    c85d:	48 8d 85 08 ec ff ff 	lea    -0x13f8(%rbp),%rax
    c864:	48 89 85 a8 f0 ff ff 	mov    %rax,-0xf58(%rbp)
    c86b:	48 8d 85 08 ec ff ff 	lea    -0x13f8(%rbp),%rax
    c872:	48 89 85 b0 f0 ff ff 	mov    %rax,-0xf50(%rbp)
    c879:	48 c7 85 b8 f0 ff ff 	movq   $0x0,-0xf48(%rbp)
    c880:	00 00 00 00 
    c884:	48 8d 85 08 ec ff ff 	lea    -0x13f8(%rbp),%rax
    c88b:	48 89 85 c0 f0 ff ff 	mov    %rax,-0xf40(%rbp)
    c892:	48 c7 85 c8 f0 ff ff 	movq   $0x0,-0xf38(%rbp)
    c899:	00 00 00 00 
    c89d:	48 8d 85 08 ec ff ff 	lea    -0x13f8(%rbp),%rax
    c8a4:	48 89 85 d0 f0 ff ff 	mov    %rax,-0xf30(%rbp)
    c8ab:	48 8d 85 08 ec ff ff 	lea    -0x13f8(%rbp),%rax
    c8b2:	48 89 85 d8 f0 ff ff 	mov    %rax,-0xf28(%rbp)
    c8b9:	48 8d 85 08 ec ff ff 	lea    -0x13f8(%rbp),%rax
    c8c0:	48 89 85 e0 f0 ff ff 	mov    %rax,-0xf20(%rbp)
    c8c7:	48 8d 85 08 ec ff ff 	lea    -0x13f8(%rbp),%rax
    c8ce:	48 89 85 e8 f0 ff ff 	mov    %rax,-0xf18(%rbp)
    c8d5:	48 8d 85 08 ec ff ff 	lea    -0x13f8(%rbp),%rax
    c8dc:	48 89 85 f0 f0 ff ff 	mov    %rax,-0xf10(%rbp)
    c8e3:	48 c7 85 f8 f0 ff ff 	movq   $0x0,-0xf08(%rbp)
    c8ea:	00 00 00 00 
    c8ee:	48 8d 85 08 ec ff ff 	lea    -0x13f8(%rbp),%rax
    c8f5:	48 89 85 00 f1 ff ff 	mov    %rax,-0xf00(%rbp)
    c8fc:	48 c7 85 08 f1 ff ff 	movq   $0x0,-0xef8(%rbp)
    c903:	00 00 00 00 
    c907:	48 8d 85 08 ec ff ff 	lea    -0x13f8(%rbp),%rax
    c90e:	48 89 85 10 f1 ff ff 	mov    %rax,-0xef0(%rbp)
    c915:	48 8d 85 08 ec ff ff 	lea    -0x13f8(%rbp),%rax
    c91c:	48 89 85 18 f1 ff ff 	mov    %rax,-0xee8(%rbp)
    c923:	48 8d 85 08 ec ff ff 	lea    -0x13f8(%rbp),%rax
    c92a:	48 89 85 20 f1 ff ff 	mov    %rax,-0xee0(%rbp)
    c931:	48 8d 85 08 ec ff ff 	lea    -0x13f8(%rbp),%rax
    c938:	48 89 85 28 f1 ff ff 	mov    %rax,-0xed8(%rbp)
    c93f:	48 8d 85 08 ec ff ff 	lea    -0x13f8(%rbp),%rax
    c946:	48 89 85 30 f1 ff ff 	mov    %rax,-0xed0(%rbp)
    c94d:	48 8d 85 08 ec ff ff 	lea    -0x13f8(%rbp),%rax
    c954:	48 89 85 38 f1 ff ff 	mov    %rax,-0xec8(%rbp)
    c95b:	48 8d 85 08 ec ff ff 	lea    -0x13f8(%rbp),%rax
    c962:	48 89 85 40 f1 ff ff 	mov    %rax,-0xec0(%rbp)
    c969:	48 8d 85 08 ec ff ff 	lea    -0x13f8(%rbp),%rax
    c970:	48 89 85 48 f1 ff ff 	mov    %rax,-0xeb8(%rbp)
    c977:	48 8d 85 08 ec ff ff 	lea    -0x13f8(%rbp),%rax
    c97e:	48 89 85 50 f1 ff ff 	mov    %rax,-0xeb0(%rbp)
    c985:	48 8d 85 08 ec ff ff 	lea    -0x13f8(%rbp),%rax
    c98c:	48 89 85 58 f1 ff ff 	mov    %rax,-0xea8(%rbp)
    c993:	48 8d 85 08 ec ff ff 	lea    -0x13f8(%rbp),%rax
    c99a:	48 89 85 60 f1 ff ff 	mov    %rax,-0xea0(%rbp)
    c9a1:	48 8d 85 08 ec ff ff 	lea    -0x13f8(%rbp),%rax
    c9a8:	48 89 85 68 f1 ff ff 	mov    %rax,-0xe98(%rbp)
    c9af:	48 8d 85 08 ec ff ff 	lea    -0x13f8(%rbp),%rax
    c9b6:	48 89 85 70 f1 ff ff 	mov    %rax,-0xe90(%rbp)
    c9bd:	48 8d 85 08 ec ff ff 	lea    -0x13f8(%rbp),%rax
    c9c4:	48 89 85 78 f1 ff ff 	mov    %rax,-0xe88(%rbp)
    c9cb:	48 8d 85 08 ec ff ff 	lea    -0x13f8(%rbp),%rax
    c9d2:	48 89 85 80 f1 ff ff 	mov    %rax,-0xe80(%rbp)
    c9d9:	48 8d 85 08 ec ff ff 	lea    -0x13f8(%rbp),%rax
    c9e0:	48 89 85 88 f1 ff ff 	mov    %rax,-0xe78(%rbp)
    c9e7:	48 8d 85 08 ec ff ff 	lea    -0x13f8(%rbp),%rax
    c9ee:	48 89 85 90 f1 ff ff 	mov    %rax,-0xe70(%rbp)
    c9f5:	48 8d 85 08 ec ff ff 	lea    -0x13f8(%rbp),%rax
    c9fc:	48 89 85 98 f1 ff ff 	mov    %rax,-0xe68(%rbp)
    ca03:	48 8d 85 08 ec ff ff 	lea    -0x13f8(%rbp),%rax
    ca0a:	48 89 85 a0 f1 ff ff 	mov    %rax,-0xe60(%rbp)
    ca11:	48 8d 85 08 ec ff ff 	lea    -0x13f8(%rbp),%rax
    ca18:	48 89 85 a8 f1 ff ff 	mov    %rax,-0xe58(%rbp)
    ca1f:	48 c7 85 b0 f1 ff ff 	movq   $0x0,-0xe50(%rbp)
    ca26:	00 00 00 00 
    ca2a:	48 8d 85 08 ec ff ff 	lea    -0x13f8(%rbp),%rax
    ca31:	48 89 85 b8 f1 ff ff 	mov    %rax,-0xe48(%rbp)
    ca38:	48 8d 85 08 ec ff ff 	lea    -0x13f8(%rbp),%rax
    ca3f:	48 89 85 c0 f1 ff ff 	mov    %rax,-0xe40(%rbp)
    ca46:	48 8d 85 08 ec ff ff 	lea    -0x13f8(%rbp),%rax
    ca4d:	48 89 85 c8 f1 ff ff 	mov    %rax,-0xe38(%rbp)
    ca54:	48 8d 85 08 ec ff ff 	lea    -0x13f8(%rbp),%rax
    ca5b:	48 89 85 d0 f1 ff ff 	mov    %rax,-0xe30(%rbp)
    ca62:	48 8d 85 08 ec ff ff 	lea    -0x13f8(%rbp),%rax
    ca69:	48 89 85 d8 f1 ff ff 	mov    %rax,-0xe28(%rbp)
    ca70:	48 8d 85 08 ec ff ff 	lea    -0x13f8(%rbp),%rax
    ca77:	48 89 85 e0 f1 ff ff 	mov    %rax,-0xe20(%rbp)
    ca7e:	48 c7 85 e8 f1 ff ff 	movq   $0x0,-0xe18(%rbp)
    ca85:	00 00 00 00 
    ca89:	48 8d 85 08 ec ff ff 	lea    -0x13f8(%rbp),%rax
    ca90:	48 89 85 f0 f1 ff ff 	mov    %rax,-0xe10(%rbp)
    ca97:	48 8d 85 40 f8 ff ff 	lea    -0x7c0(%rbp),%rax
    ca9e:	48 8d 15 db 45 00 00 	lea    0x45db(%rip),%rdx        # 11080 <g_905+0xff0>
    caa5:	b9 f0 00 00 00       	mov    $0xf0,%ecx
    caaa:	48 89 c7             	mov    %rax,%rdi
    caad:	48 89 d6             	mov    %rdx,%rsi
    cab0:	f3 48 a5             	rep movsq %ds:(%rsi),%es:(%rdi)
    cab3:	48 8d 85 70 ee ff ff 	lea    -0x1190(%rbp),%rax
    caba:	48 8d 15 3f 4d 00 00 	lea    0x4d3f(%rip),%rdx        # 11800 <g_905+0x1770>
    cac1:	b9 32 00 00 00       	mov    $0x32,%ecx
    cac6:	48 89 c7             	mov    %rax,%rdi
    cac9:	48 89 d6             	mov    %rdx,%rsi
    cacc:	f3 48 a5             	rep movsq %ds:(%rsi),%es:(%rdi)
    cacf:	48 8d 85 00 ec ff ff 	lea    -0x1400(%rbp),%rax
    cad6:	48 89 85 28 ed ff ff 	mov    %rax,-0x12d8(%rbp)
    cadd:	48 8d 85 40 f8 ff ff 	lea    -0x7c0(%rbp),%rax
    cae4:	48 05 20 01 00 00    	add    $0x120,%rax
    caea:	48 89 85 28 ec ff ff 	mov    %rax,-0x13d8(%rbp)
    caf1:	48 8d 85 28 ec ff ff 	lea    -0x13d8(%rbp),%rax
    caf8:	48 89 85 30 ec ff ff 	mov    %rax,-0x13d0(%rbp)
    caff:	48 8d 85 30 ec ff ff 	lea    -0x13d0(%rbp),%rax
    cb06:	48 89 85 30 ed ff ff 	mov    %rax,-0x12d0(%rbp)
    cb0d:	48 8d 05 14 90 00 00 	lea    0x9014(%rip),%rax        # 15b28 <g_202>
    cb14:	48 89 85 38 ed ff ff 	mov    %rax,-0x12c8(%rbp)
    cb1b:	66 c7 05 60 9c 00 00 	movw   $0x0,0x9c60(%rip)        # 16784 <g_492>
    cb22:	00 00 
    cb24:	e9 b6 01 00 00       	jmpq   ccdf <func_69+0x2531>
    cb29:	48 c7 85 40 ed ff ff 	movq   $0x7,-0x12c0(%rbp)
    cb30:	07 00 00 00 
    cb34:	c7 85 f8 eb ff ff 4b 	movl   $0xc35a764b,-0x1408(%rbp)
    cb3b:	76 5a c3 
    cb3e:	80 bd 9f eb ff ff 00 	cmpb   $0x0,-0x1461(%rbp)
    cb45:	0f 84 ff 00 00 00    	je     cc4a <func_69+0x249c>
    cb4b:	0f b7 05 3e 94 00 00 	movzwl 0x943e(%rip),%eax        # 15f90 <g_426>
    cb52:	0f b7 c0             	movzwl %ax,%eax
    cb55:	be 00 00 00 00       	mov    $0x0,%esi
    cb5a:	89 c7                	mov    %eax,%edi
    cb5c:	e8 19 93 ff ff       	callq  5e7a <safe_rshift_func_uint16_t_u_u>
    cb61:	48 83 bd 40 ed ff ff 	cmpq   $0x0,-0x12c0(%rbp)
    cb68:	00 
    cb69:	75 6e                	jne    cbd9 <func_69+0x242b>
    cb6b:	0f b7 05 0e 94 00 00 	movzwl 0x940e(%rip),%eax        # 15f80 <g_316>
    cb72:	48 8b 05 47 b2 00 00 	mov    0xb247(%rip),%rax        # 17dc0 <g_148>
    cb79:	48 8b 00             	mov    (%rax),%rax
    cb7c:	8b 00                	mov    (%rax),%eax
    cb7e:	85 c0                	test   %eax,%eax
    cb80:	74 36                	je     cbb8 <func_69+0x240a>
    cb82:	48 0f be 95 8c eb ff 	movsbq -0x1474(%rbp),%rdx
    cb89:	ff 
    cb8a:	48 8b 05 1f b2 00 00 	mov    0xb21f(%rip),%rax        # 17db0 <g_141>
    cb91:	48 8b 00             	mov    (%rax),%rax
    cb94:	48 89 d6             	mov    %rdx,%rsi
    cb97:	48 89 c7             	mov    %rax,%rdi
    cb9a:	e8 a2 8c ff ff       	callq  5841 <safe_add_func_int64_t_s_s>
    cb9f:	48 89 c2             	mov    %rax,%rdx
    cba2:	48 8b 05 af b2 00 00 	mov    0xb2af(%rip),%rax        # 17e58 <g_456>
    cba9:	89 10                	mov    %edx,(%rax)
    cbab:	8b 00                	mov    (%rax),%eax
    cbad:	85 c0                	test   %eax,%eax
    cbaf:	74 07                	je     cbb8 <func_69+0x240a>
    cbb1:	b8 01 00 00 00       	mov    $0x1,%eax
    cbb6:	eb 05                	jmp    cbbd <func_69+0x240f>
    cbb8:	b8 00 00 00 00       	mov    $0x0,%eax
    cbbd:	0f b7 d0             	movzwl %ax,%edx
    cbc0:	66 0f be 85 88 eb ff 	movsbw -0x1478(%rbp),%ax
    cbc7:	ff 
    cbc8:	0f b7 c0             	movzwl %ax,%eax
    cbcb:	89 d6                	mov    %edx,%esi
    cbcd:	89 c7                	mov    %eax,%edi
    cbcf:	e8 4b 91 ff ff       	callq  5d1f <safe_sub_func_uint16_t_u_u>
    cbd4:	66 85 c0             	test   %ax,%ax
    cbd7:	74 07                	je     cbe0 <func_69+0x2432>
    cbd9:	b8 01 00 00 00       	mov    $0x1,%eax
    cbde:	eb 05                	jmp    cbe5 <func_69+0x2437>
    cbe0:	b8 00 00 00 00       	mov    $0x0,%eax
    cbe5:	48 98                	cltq   
    cbe7:	48 39 85 40 ed ff ff 	cmp    %rax,-0x12c0(%rbp)
    cbee:	0f 9d c0             	setge  %al
    cbf1:	0f b6 d0             	movzbl %al,%edx
    cbf4:	48 8b 85 48 ec ff ff 	mov    -0x13b8(%rbp),%rax
    cbfb:	0f b6 00             	movzbl (%rax),%eax
    cbfe:	89 c1                	mov    %eax,%ecx
    cc00:	89 d0                	mov    %edx,%eax
    cc02:	31 c8                	xor    %ecx,%eax
    cc04:	89 c2                	mov    %eax,%edx
    cc06:	48 8b 85 48 ec ff ff 	mov    -0x13b8(%rbp),%rax
    cc0d:	88 10                	mov    %dl,(%rax)
    cc0f:	0f b6 05 f6 87 00 00 	movzbl 0x87f6(%rip),%eax        # 1540c <g_100>
    cc16:	84 c0                	test   %al,%al
    cc18:	74 12                	je     cc2c <func_69+0x247e>
    cc1a:	0f b6 05 6b 9b 00 00 	movzbl 0x9b6b(%rip),%eax        # 1678c <g_606>
    cc21:	84 c0                	test   %al,%al
    cc23:	74 07                	je     cc2c <func_69+0x247e>
    cc25:	b8 01 00 00 00       	mov    $0x1,%eax
    cc2a:	eb 05                	jmp    cc31 <func_69+0x2483>
    cc2c:	b8 00 00 00 00       	mov    $0x0,%eax
    cc31:	48 63 d0             	movslq %eax,%rdx
    cc34:	48 8b 05 75 b1 00 00 	mov    0xb175(%rip),%rax        # 17db0 <g_141>
    cc3b:	48 8b 00             	mov    (%rax),%rax
    cc3e:	48 39 c2             	cmp    %rax,%rdx
    cc41:	74 07                	je     cc4a <func_69+0x249c>
    cc43:	ba 01 00 00 00       	mov    $0x1,%edx
    cc48:	eb 05                	jmp    cc4f <func_69+0x24a1>
    cc4a:	ba 00 00 00 00       	mov    $0x0,%edx
    cc4f:	0f be 85 8c eb ff ff 	movsbl -0x1474(%rbp),%eax
    cc56:	39 c2                	cmp    %eax,%edx
    cc58:	0f 95 c0             	setne  %al
    cc5b:	0f b6 c0             	movzbl %al,%eax
    cc5e:	48 8b 95 40 ed ff ff 	mov    -0x12c0(%rbp),%rdx
    cc65:	48 89 d6             	mov    %rdx,%rsi
    cc68:	48 89 c7             	mov    %rax,%rdi
    cc6b:	e8 87 8d ff ff       	callq  59f7 <safe_div_func_int64_t_s_s>
    cc70:	09 85 f8 eb ff ff    	or     %eax,-0x1408(%rbp)
    cc76:	0f be 95 8c eb ff ff 	movsbl -0x1474(%rbp),%edx
    cc7d:	c7 85 f8 eb ff ff 3c 	movl   $0xe3832b3c,-0x1408(%rbp)
    cc84:	2b 83 e3 
    cc87:	8b 85 f8 eb ff ff    	mov    -0x1408(%rbp),%eax
    cc8d:	89 d6                	mov    %edx,%esi
    cc8f:	89 c7                	mov    %eax,%edi
    cc91:	e8 20 89 ff ff       	callq  55b6 <safe_add_func_int32_t_s_s>
    cc96:	48 63 d0             	movslq %eax,%rdx
    cc99:	48 8b 85 20 f1 ff ff 	mov    -0xee0(%rbp),%rax
    cca0:	48 85 c0             	test   %rax,%rax
    cca3:	0f 95 c0             	setne  %al
    cca6:	0f b6 c0             	movzbl %al,%eax
    cca9:	48 89 d6             	mov    %rdx,%rsi
    ccac:	48 89 c7             	mov    %rax,%rdi
    ccaf:	e8 8d 8b ff ff       	callq  5841 <safe_add_func_int64_t_s_s>
    ccb4:	89 05 da 9a 00 00    	mov    %eax,0x9ada(%rip)        # 16794 <g_635>
    ccba:	48 8b 85 08 ec ff ff 	mov    -0x13f8(%rbp),%rax
    ccc1:	48 8b 00             	mov    (%rax),%rax
    ccc4:	48 8b 00             	mov    (%rax),%rax
    ccc7:	48 89 85 b8 f5 ff ff 	mov    %rax,-0xa48(%rbp)
    ccce:	0f b7 05 af 9a 00 00 	movzwl 0x9aaf(%rip),%eax        # 16784 <g_492>
    ccd5:	83 c0 01             	add    $0x1,%eax
    ccd8:	66 89 05 a5 9a 00 00 	mov    %ax,0x9aa5(%rip)        # 16784 <g_492>
    ccdf:	0f b7 05 9e 9a 00 00 	movzwl 0x9a9e(%rip),%eax        # 16784 <g_492>
    cce6:	66 83 f8 0d          	cmp    $0xd,%ax
    ccea:	0f 8e 39 fe ff ff    	jle    cb29 <func_69+0x237b>
    ccf0:	48 8b 85 b8 ee ff ff 	mov    -0x1148(%rbp),%rax
    ccf7:	48 83 c0 01          	add    $0x1,%rax
    ccfb:	48 89 85 b8 ee ff ff 	mov    %rax,-0x1148(%rbp)
    cd02:	c7 05 74 9a 00 00 fe 	movl   $0xfffffffe,0x9a74(%rip)        # 16780 <g_490>
    cd09:	ff ff ff 
    cd0c:	e9 39 03 00 00       	jmpq   d04a <func_69+0x289c>
    cd11:	66 c7 85 80 ed ff ff 	movw   $0xfdfd,-0x1280(%rbp)
    cd18:	fd fd 
    cd1a:	c6 85 82 ed ff ff f7 	movb   $0xf7,-0x127e(%rbp)
    cd21:	66 c7 85 83 ed ff ff 	movw   $0xf7a1,-0x127d(%rbp)
    cd28:	a1 f7 
    cd2a:	c6 85 85 ed ff ff f7 	movb   $0xf7,-0x127b(%rbp)
    cd31:	66 c7 85 86 ed ff ff 	movw   $0x16f7,-0x127a(%rbp)
    cd38:	f7 16 
    cd3a:	c6 85 88 ed ff ff b6 	movb   $0xb6,-0x1278(%rbp)
    cd41:	66 c7 85 89 ed ff ff 	movw   $0x16a1,-0x1277(%rbp)
    cd48:	a1 16 
    cd4a:	c6 85 8b ed ff ff a1 	movb   $0xa1,-0x1275(%rbp)
    cd51:	66 c7 85 8c ed ff ff 	movw   $0xf7fd,-0x1274(%rbp)
    cd58:	fd f7 
    cd5a:	c6 85 8e ed ff ff b6 	movb   $0xb6,-0x1272(%rbp)
    cd61:	66 c7 85 8f ed ff ff 	movw   $0xfdfd,-0x1271(%rbp)
    cd68:	fd fd 
    cd6a:	c6 85 91 ed ff ff f7 	movb   $0xf7,-0x126f(%rbp)
    cd71:	66 c7 85 92 ed ff ff 	movw   $0xf7a1,-0x126e(%rbp)
    cd78:	a1 f7 
    cd7a:	c6 85 94 ed ff ff f7 	movb   $0xf7,-0x126c(%rbp)
    cd81:	66 c7 85 95 ed ff ff 	movw   $0x16f7,-0x126b(%rbp)
    cd88:	f7 16 
    cd8a:	c6 85 97 ed ff ff b6 	movb   $0xb6,-0x1269(%rbp)
    cd91:	66 c7 85 98 ed ff ff 	movw   $0x16a1,-0x1268(%rbp)
    cd98:	a1 16 
    cd9a:	c6 85 9a ed ff ff a1 	movb   $0xa1,-0x1266(%rbp)
    cda1:	66 c7 85 9b ed ff ff 	movw   $0xf7fd,-0x1265(%rbp)
    cda8:	fd f7 
    cdaa:	c6 85 9d ed ff ff b6 	movb   $0xb6,-0x1263(%rbp)
    cdb1:	48 8b 85 28 ed ff ff 	mov    -0x12d8(%rbp),%rax
    cdb8:	48 89 05 01 ba 00 00 	mov    %rax,0xba01(%rip)        # 187c0 <g_643>
    cdbf:	c6 05 be 99 00 00 00 	movb   $0x0,0x99be(%rip)        # 16784 <g_492>
    cdc6:	e9 61 02 00 00       	jmpq   d02c <func_69+0x287e>
    cdcb:	c7 85 c4 eb ff ff 00 	movl   $0x0,-0x143c(%rbp)
    cdd2:	00 00 00 
    cdd5:	eb 1e                	jmp    cdf5 <func_69+0x2647>
    cdd7:	8b 85 c4 eb ff ff    	mov    -0x143c(%rbp),%eax
    cddd:	48 98                	cltq   
    cddf:	48 8d 15 a6 99 00 00 	lea    0x99a6(%rip),%rdx        # 1678c <g_606>
    cde6:	48 89 94 c5 60 ed ff 	mov    %rdx,-0x12a0(%rbp,%rax,8)
    cded:	ff 
    cdee:	83 85 c4 eb ff ff 01 	addl   $0x1,-0x143c(%rbp)
    cdf5:	83 bd c4 eb ff ff 02 	cmpl   $0x2,-0x143c(%rbp)
    cdfc:	7e d9                	jle    cdd7 <func_69+0x2629>
    cdfe:	0f b6 05 15 8d 00 00 	movzbl 0x8d15(%rip),%eax        # 15b1a <g_132>
    ce05:	66 98                	cbtw   
    ce07:	0f b7 d0             	movzwl %ax,%edx
    ce0a:	0f b6 05 73 99 00 00 	movzbl 0x9973(%rip),%eax        # 16784 <g_492>
    ce11:	0f b6 c0             	movzbl %al,%eax
    ce14:	48 98                	cltq   
    ce16:	48 8d 0c 85 00 00 00 	lea    0x0(,%rax,4),%rcx
    ce1d:	00 
    ce1e:	48 8d 05 4b 82 00 00 	lea    0x824b(%rip),%rax        # 15070 <g_29>
    ce25:	8b 04 01             	mov    (%rcx,%rax,1),%eax
    ce28:	0f b7 c0             	movzwl %ax,%eax
    ce2b:	89 d6                	mov    %edx,%esi
    ce2d:	89 c7                	mov    %eax,%edi
    ce2f:	e8 09 8f ff ff       	callq  5d3d <safe_mul_func_uint16_t_u_u>
    ce34:	0f b6 15 49 99 00 00 	movzbl 0x9949(%rip),%edx        # 16784 <g_492>
    ce3b:	0f b6 d2             	movzbl %dl,%edx
    ce3e:	0f b7 c0             	movzwl %ax,%eax
    ce41:	48 63 d2             	movslq %edx,%rdx
    ce44:	48 8d 0c 95 00 00 00 	lea    0x0(,%rdx,4),%rcx
    ce4b:	00 
    ce4c:	48 8d 15 1d 82 00 00 	lea    0x821d(%rip),%rdx        # 15070 <g_29>
    ce53:	89 04 11             	mov    %eax,(%rcx,%rdx,1)
    ce56:	48 8b 05 7b b0 00 00 	mov    0xb07b(%rip),%rax        # 17ed8 <g_649>
    ce5d:	48 8b 95 68 ed ff ff 	mov    -0x1298(%rbp),%rdx
    ce64:	48 89 10             	mov    %rdx,(%rax)
    ce67:	c7 85 b0 eb ff ff 00 	movl   $0x0,-0x1450(%rbp)
    ce6e:	00 00 00 
    ce71:	e9 99 01 00 00       	jmpq   d00f <func_69+0x2861>
    ce76:	c7 85 f4 eb ff ff 00 	movl   $0x0,-0x140c(%rbp)
    ce7d:	00 00 00 
    ce80:	0f b6 05 fd 98 00 00 	movzbl 0x98fd(%rip),%eax        # 16784 <g_492>
    ce87:	0f b6 c0             	movzbl %al,%eax
    ce8a:	48 63 d0             	movslq %eax,%rdx
    ce8d:	48 8d 0c 95 00 00 00 	lea    0x0(,%rdx,4),%rcx
    ce94:	00 
    ce95:	48 8d 15 d4 81 00 00 	lea    0x81d4(%rip),%rdx        # 15070 <g_29>
    ce9c:	c7 04 11 ab 32 ff 5e 	movl   $0x5eff32ab,(%rcx,%rdx,1)
    cea3:	48 98                	cltq   
    cea5:	48 8d 14 85 00 00 00 	lea    0x0(,%rax,4),%rdx
    ceac:	00 
    cead:	48 8d 05 bc 81 00 00 	lea    0x81bc(%rip),%rax        # 15070 <g_29>
    ceb4:	8b 04 02             	mov    (%rdx,%rax,1),%eax
    ceb7:	88 85 89 ed ff ff    	mov    %al,-0x1277(%rbp)
    cebd:	0f be 9d 88 eb ff ff 	movsbl -0x1478(%rbp),%ebx
    cec4:	0f b6 05 b9 98 00 00 	movzbl 0x98b9(%rip),%eax        # 16784 <g_492>
    cecb:	0f b6 c0             	movzbl %al,%eax
    cece:	48 98                	cltq   
    ced0:	48 8d 14 85 00 00 00 	lea    0x0(,%rax,4),%rdx
    ced7:	00 
    ced8:	48 8d 05 91 81 00 00 	lea    0x8191(%rip),%rax        # 15070 <g_29>
    cedf:	44 8b 24 02          	mov    (%rdx,%rax,1),%r12d
    cee3:	48 83 bd 18 ed ff ff 	cmpq   $0x0,-0x12e8(%rbp)
    ceea:	00 
    ceeb:	0f 95 c0             	setne  %al
    ceee:	44 0f b6 f8          	movzbl %al,%r15d
    cef2:	48 8b 05 7f 96 00 00 	mov    0x967f(%rip),%rax        # 16578 <g_483+0x578>
    cef9:	48 85 c0             	test   %rax,%rax
    cefc:	74 68                	je     cf66 <func_69+0x27b8>
    cefe:	0f b6 85 89 ed ff ff 	movzbl -0x1277(%rbp),%eax
    cf05:	44 0f b6 e8          	movzbl %al,%r13d
    cf09:	8b 05 1d 8c 00 00    	mov    0x8c1d(%rip),%eax        # 15b2c <g_211>
    cf0f:	83 e0 7f             	and    $0x7f,%eax
    cf12:	44 0f b6 f0          	movzbl %al,%r14d
    cf16:	0f be 95 8c eb ff ff 	movsbl -0x1474(%rbp),%edx
    cf1d:	0f b7 05 f4 8b 00 00 	movzwl 0x8bf4(%rip),%eax        # 15b18 <g_126>
    cf24:	0f be c0             	movsbl %al,%eax
    cf27:	89 d6                	mov    %edx,%esi
    cf29:	89 c7                	mov    %eax,%edi
    cf2b:	e8 c2 82 ff ff       	callq  51f2 <safe_sub_func_int8_t_s_s>
    cf30:	0f be c0             	movsbl %al,%eax
    cf33:	44 89 f6             	mov    %r14d,%esi
    cf36:	89 c7                	mov    %eax,%edi
    cf38:	e8 ed 85 ff ff       	callq  552a <safe_rshift_func_int16_t_s_s>
    cf3d:	48 0f bf c0          	movswq %ax,%rax
    cf41:	4c 89 ee             	mov    %r13,%rsi
    cf44:	48 89 c7             	mov    %rax,%rdi
    cf47:	e8 ff 90 ff ff       	callq  604b <safe_sub_func_uint64_t_u_u>
    cf4c:	0f be c0             	movsbl %al,%eax
    cf4f:	be 09 00 00 00       	mov    $0x9,%esi
    cf54:	89 c7                	mov    %eax,%edi
    cf56:	e8 97 82 ff ff       	callq  51f2 <safe_sub_func_int8_t_s_s>
    cf5b:	84 c0                	test   %al,%al
    cf5d:	74 07                	je     cf66 <func_69+0x27b8>
    cf5f:	b8 01 00 00 00       	mov    $0x1,%eax
    cf64:	eb 05                	jmp    cf6b <func_69+0x27bd>
    cf66:	b8 00 00 00 00       	mov    $0x0,%eax
    cf6b:	0d 8b fb d1 31       	or     $0x31d1fb8b,%eax
    cf70:	35 a3 5b ec 66       	xor    $0x66ec5ba3,%eax
    cf75:	41 39 c7             	cmp    %eax,%r15d
    cf78:	0f 9f c0             	setg   %al
    cf7b:	44 0f b6 e8          	movzbl %al,%r13d
    cf7f:	0f be 85 8c eb ff ff 	movsbl -0x1474(%rbp),%eax
    cf86:	89 c6                	mov    %eax,%esi
    cf88:	bf 53 ef 34 a5       	mov    $0xa534ef53,%edi
    cf8d:	e8 6d 87 ff ff       	callq  56ff <safe_div_func_int32_t_s_s>
    cf92:	85 c0                	test   %eax,%eax
    cf94:	74 10                	je     cfa6 <func_69+0x27f8>
    cf96:	80 bd 88 eb ff ff 00 	cmpb   $0x0,-0x1478(%rbp)
    cf9d:	74 07                	je     cfa6 <func_69+0x27f8>
    cf9f:	b8 01 00 00 00       	mov    $0x1,%eax
    cfa4:	eb 05                	jmp    cfab <func_69+0x27fd>
    cfa6:	b8 00 00 00 00       	mov    $0x0,%eax
    cfab:	0f b6 c0             	movzbl %al,%eax
    cfae:	44 89 ee             	mov    %r13d,%esi
    cfb1:	89 c7                	mov    %eax,%edi
    cfb3:	e8 4d 8c ff ff       	callq  5c05 <safe_lshift_func_uint8_t_u_s>
    cfb8:	0f b6 c0             	movzbl %al,%eax
    cfbb:	44 89 e6             	mov    %r12d,%esi
    cfbe:	89 c7                	mov    %eax,%edi
    cfc0:	e8 f9 8d ff ff       	callq  5dbe <safe_lshift_func_uint16_t_u_s>
    cfc5:	89 c2                	mov    %eax,%edx
    cfc7:	48 8b 85 38 ec ff ff 	mov    -0x13c8(%rbp),%rax
    cfce:	48 8b 00             	mov    (%rax),%rax
    cfd1:	0f b7 d2             	movzwl %dx,%edx
    cfd4:	48 89 10             	mov    %rdx,(%rax)
    cfd7:	48 8b 10             	mov    (%rax),%rdx
    cfda:	48 0f be 85 88 eb ff 	movsbq -0x1478(%rbp),%rax
    cfe1:	ff 
    cfe2:	48 39 c2             	cmp    %rax,%rdx
    cfe5:	0f 93 c0             	setae  %al
    cfe8:	89 c2                	mov    %eax,%edx
    cfea:	0f b6 05 29 8b 00 00 	movzbl 0x8b29(%rip),%eax        # 15b1a <g_132>
    cff1:	21 d0                	and    %edx,%eax
    cff3:	0f b6 c0             	movzbl %al,%eax
    cff6:	89 de                	mov    %ebx,%esi
    cff8:	89 c7                	mov    %eax,%edi
    cffa:	e8 bf 8c ff ff       	callq  5cbe <safe_rshift_func_uint8_t_u_u>
    cfff:	0f b6 c0             	movzbl %al,%eax
    d002:	89 85 f0 eb ff ff    	mov    %eax,-0x1410(%rbp)
    d008:	83 85 b0 eb ff ff 01 	addl   $0x1,-0x1450(%rbp)
    d00f:	83 bd b0 eb ff ff 01 	cmpl   $0x1,-0x1450(%rbp)
    d016:	0f 86 5a fe ff ff    	jbe    ce76 <func_69+0x26c8>
    d01c:	0f b6 05 61 97 00 00 	movzbl 0x9761(%rip),%eax        # 16784 <g_492>
    d023:	83 c0 01             	add    $0x1,%eax
    d026:	88 05 58 97 00 00    	mov    %al,0x9758(%rip)        # 16784 <g_492>
    d02c:	0f b6 05 51 97 00 00 	movzbl 0x9751(%rip),%eax        # 16784 <g_492>
    d033:	3c 03                	cmp    $0x3,%al
    d035:	0f 86 90 fd ff ff    	jbe    cdcb <func_69+0x261d>
    d03b:	8b 05 3f 97 00 00    	mov    0x973f(%rip),%eax        # 16780 <g_490>
    d041:	83 c0 01             	add    $0x1,%eax
    d044:	89 05 36 97 00 00    	mov    %eax,0x9736(%rip)        # 16780 <g_490>
    d04a:	8b 05 30 97 00 00    	mov    0x9730(%rip),%eax        # 16780 <g_490>
    d050:	83 f8 0b             	cmp    $0xb,%eax
    d053:	0f 8e b8 fc ff ff    	jle    cd11 <func_69+0x2563>
    d059:	48 8b 95 30 ec ff ff 	mov    -0x13d0(%rbp),%rdx
    d060:	48 8b 85 30 ed ff ff 	mov    -0x12d0(%rbp),%rax
    d067:	48 89 10             	mov    %rdx,(%rax)
    d06a:	48 8b 85 30 ed ff ff 	mov    -0x12d0(%rbp),%rax
    d071:	48 8b 00             	mov    (%rax),%rax
    d074:	48 39 85 20 ed ff ff 	cmp    %rax,-0x12e0(%rbp)
    d07b:	0f 95 c0             	setne  %al
    d07e:	0f b6 d0             	movzbl %al,%edx
    d081:	48 8b 85 08 ec ff ff 	mov    -0x13f8(%rbp),%rax
    d088:	48 8b 00             	mov    (%rax),%rax
    d08b:	48 8b 00             	mov    (%rax),%rax
    d08e:	8b 00                	mov    (%rax),%eax
    d090:	98                   	cwtl   
    d091:	89 d6                	mov    %edx,%esi
    d093:	89 c7                	mov    %eax,%edi
    d095:	e8 5b 83 ff ff       	callq  53f5 <safe_mul_func_int16_t_s_s>
    d09a:	0f bf d8             	movswl %ax,%ebx
    d09d:	0f be 85 8c eb ff ff 	movsbl -0x1474(%rbp),%eax
    d0a4:	89 c6                	mov    %eax,%esi
    d0a6:	bf 01 00 00 00       	mov    $0x1,%edi
    d0ab:	e8 81 81 ff ff       	callq  5231 <safe_mod_func_int8_t_s_s>
    d0b0:	0f be c0             	movsbl %al,%eax
    d0b3:	09 c3                	or     %eax,%ebx
    d0b5:	89 da                	mov    %ebx,%edx
    d0b7:	0f be 85 88 eb ff ff 	movsbl -0x1478(%rbp),%eax
    d0be:	39 c2                	cmp    %eax,%edx
    d0c0:	0f 9d c0             	setge  %al
    d0c3:	0f b6 d0             	movzbl %al,%edx
    d0c6:	48 8b 85 38 ed ff ff 	mov    -0x12c8(%rbp),%rax
    d0cd:	0f b7 00             	movzwl (%rax),%eax
    d0d0:	31 c2                	xor    %eax,%edx
    d0d2:	48 8b 85 38 ed ff ff 	mov    -0x12c8(%rbp),%rax
    d0d9:	66 89 10             	mov    %dx,(%rax)
    d0dc:	48 0f be 85 88 eb ff 	movsbq -0x1478(%rbp),%rax
    d0e3:	ff 
    d0e4:	be 2d 03 52 cf       	mov    $0xcf52032d,%esi
    d0e9:	48 89 c7             	mov    %rax,%rdi
    d0ec:	e8 3d 8f ff ff       	callq  602e <safe_add_func_uint64_t_u_u>
    d0f1:	48 3d 42 77 00 00    	cmp    $0x7742,%rax
    d0f7:	0f 97 c0             	seta   %al
    d0fa:	0f b6 d0             	movzbl %al,%edx
    d0fd:	48 8b 85 08 ec ff ff 	mov    -0x13f8(%rbp),%rax
    d104:	48 8b 00             	mov    (%rax),%rax
    d107:	48 8b 00             	mov    (%rax),%rax
    d10a:	8b 00                	mov    (%rax),%eax
    d10c:	39 c2                	cmp    %eax,%edx
    d10e:	0f 9c c0             	setl   %al
    d111:	0f b6 c0             	movzbl %al,%eax
    d114:	89 85 d4 eb ff ff    	mov    %eax,-0x142c(%rbp)
    d11a:	0f b7 05 1f 8e 00 00 	movzwl 0x8e1f(%rip),%eax        # 15f40 <g_231>
    d121:	48 0f bf c0          	movswq %ax,%rax
    d125:	be 02 00 00 00       	mov    $0x2,%esi
    d12a:	48 89 c7             	mov    %rax,%rdi
    d12d:	e8 0f 87 ff ff       	callq  5841 <safe_add_func_int64_t_s_s>
    d132:	66 89 05 07 8e 00 00 	mov    %ax,0x8e07(%rip)        # 15f40 <g_231>
    d139:	0f b7 05 00 8e 00 00 	movzwl 0x8e00(%rip),%eax        # 15f40 <g_231>
    d140:	66 83 f8 18          	cmp    $0x18,%ax
    d144:	0f 8e fc f5 ff ff    	jle    c746 <func_69+0x1f98>
    d14a:	e9 2b 01 00 00       	jmpq   d27a <func_69+0x2acc>
    d14f:	66 c7 85 00 f2 ff ff 	movw   $0x58ff,-0xe00(%rbp)
    d156:	ff 58 
    d158:	66 c7 85 02 f2 ff ff 	movw   $0x58ff,-0xdfe(%rbp)
    d15f:	ff 58 
    d161:	66 c7 85 04 f2 ff ff 	movw   $0x58ff,-0xdfc(%rbp)
    d168:	ff 58 
    d16a:	66 c7 85 06 f2 ff ff 	movw   $0x58ff,-0xdfa(%rbp)
    d171:	ff 58 
    d173:	66 c7 85 08 f2 ff ff 	movw   $0x58ff,-0xdf8(%rbp)
    d17a:	ff 58 
    d17c:	66 c7 85 a6 eb ff ff 	movw   $0xf25f,-0x145a(%rbp)
    d183:	5f f2 
    d185:	c7 85 fc eb ff ff 01 	movl   $0x1,-0x1404(%rbp)
    d18c:	00 00 00 
    d18f:	c7 85 c8 eb ff ff 00 	movl   $0x0,-0x1438(%rbp)
    d196:	00 00 00 
    d199:	eb 1a                	jmp    d1b5 <func_69+0x2a07>
    d19b:	8b 85 c8 eb ff ff    	mov    -0x1438(%rbp),%eax
    d1a1:	48 98                	cltq   
    d1a3:	c7 84 85 40 f8 ff ff 	movl   $0x5313e89f,-0x7c0(%rbp,%rax,4)
    d1aa:	9f e8 13 53 
    d1ae:	83 85 c8 eb ff ff 01 	addl   $0x1,-0x1438(%rbp)
    d1b5:	83 bd c8 eb ff ff 07 	cmpl   $0x7,-0x1438(%rbp)
    d1bc:	7e dd                	jle    d19b <func_69+0x29ed>
    d1be:	48 8b 85 08 ec ff ff 	mov    -0x13f8(%rbp),%rax
    d1c5:	48 8b 00             	mov    (%rax),%rax
    d1c8:	48 8b 00             	mov    (%rax),%rax
    d1cb:	8b 00                	mov    (%rax),%eax
    d1cd:	48 63 d0             	movslq %eax,%rdx
    d1d0:	48 8b 85 08 ec ff ff 	mov    -0x13f8(%rbp),%rax
    d1d7:	48 8b 00             	mov    (%rax),%rax
    d1da:	48 8b 00             	mov    (%rax),%rax
    d1dd:	8b 00                	mov    (%rax),%eax
    d1df:	48 98                	cltq   
    d1e1:	48 89 d6             	mov    %rdx,%rsi
    d1e4:	48 89 c7             	mov    %rax,%rdi
    d1e7:	e8 55 86 ff ff       	callq  5841 <safe_add_func_int64_t_s_s>
    d1ec:	8b 05 66 4e 00 00    	mov    0x4e66(%rip),%eax        # 12058 <l_701.4622+0x18>
    d1f2:	85 c0                	test   %eax,%eax
    d1f4:	0f 9f c0             	setg   %al
    d1f7:	0f b6 c0             	movzbl %al,%eax
    d1fa:	89 c6                	mov    %eax,%esi
    d1fc:	bf f7 ff 00 00       	mov    $0xfff7,%edi
    d201:	e8 42 8c ff ff       	callq  5e48 <safe_rshift_func_uint16_t_u_s>
    d206:	48 8b 05 ab 95 00 00 	mov    0x95ab(%rip),%rax        # 167b8 <g_695+0x18>
    d20d:	0f b7 85 08 f2 ff ff 	movzwl -0xdf8(%rbp),%eax
    d214:	0f b7 d0             	movzwl %ax,%edx
    d217:	0f be 85 8c eb ff ff 	movsbl -0x1474(%rbp),%eax
    d21e:	89 d6                	mov    %edx,%esi
    d220:	89 c7                	mov    %eax,%edi
    d222:	e8 a9 8c ff ff       	callq  5ed0 <safe_sub_func_uint32_t_u_u>
    d227:	0f be c0             	movsbl %al,%eax
    d22a:	be 00 00 00 00       	mov    $0x0,%esi
    d22f:	89 c7                	mov    %eax,%edi
    d231:	e8 9e 7f ff ff       	callq  51d4 <safe_add_func_int8_t_s_s>
    d236:	84 c0                	test   %al,%al
    d238:	0f 95 c0             	setne  %al
    d23b:	0f b6 c0             	movzbl %al,%eax
    d23e:	be 04 00 00 00       	mov    $0x4,%esi
    d243:	89 c7                	mov    %eax,%edi
    d245:	e8 eb 80 ff ff       	callq  5335 <safe_rshift_func_int8_t_s_s>
    d24a:	be fa ff ff ff       	mov    $0xfffffffa,%esi
    d24f:	bf 00 00 00 00       	mov    $0x0,%edi
    d254:	e8 bd 81 ff ff       	callq  5416 <safe_mod_func_int16_t_s_s>
    d259:	0f bf d0             	movswl %ax,%edx
    d25c:	8b 85 58 f8 ff ff    	mov    -0x7a8(%rbp),%eax
    d262:	39 c2                	cmp    %eax,%edx
    d264:	0f 97 c0             	seta   %al
    d267:	0f b6 c0             	movzbl %al,%eax
    d26a:	89 c7                	mov    %eax,%edi
    d26c:	e8 4e 7f ff ff       	callq  51bf <safe_unary_minus_func_int8_t_s>
    d271:	0f be c0             	movsbl %al,%eax
    d274:	89 85 fc eb ff ff    	mov    %eax,-0x1404(%rbp)
    d27a:	48 8b 85 08 ec ff ff 	mov    -0x13f8(%rbp),%rax
    d281:	48 8b 00             	mov    (%rax),%rax
    d284:	48 8b 00             	mov    (%rax),%rax
    d287:	8b 00                	mov    (%rax),%eax
    d289:	48 98                	cltq   
    d28b:	48 8b 5d c8          	mov    -0x38(%rbp),%rbx
    d28f:	64 48 33 1c 25 28 00 	xor    %fs:0x28,%rbx
    d296:	00 00 
    d298:	74 05                	je     d29f <func_69+0x2af1>
    d29a:	e8 d1 7d ff ff       	callq  5070 <__stack_chk_fail@plt>
    d29f:	48 81 c4 58 14 00 00 	add    $0x1458,%rsp
    d2a6:	5b                   	pop    %rbx
    d2a7:	41 5c                	pop    %r12
    d2a9:	41 5d                	pop    %r13
    d2ab:	41 5e                	pop    %r14
    d2ad:	41 5f                	pop    %r15
    d2af:	5d                   	pop    %rbp
    d2b0:	c3                   	retq   

000000000000d2b1 <func_72>:
    d2b1:	f3 0f 1e fa          	endbr64 
    d2b5:	55                   	push   %rbp
    d2b6:	48 89 e5             	mov    %rsp,%rbp
    d2b9:	53                   	push   %rbx
    d2ba:	48 81 ec 08 01 00 00 	sub    $0x108,%rsp
    d2c1:	48 89 bd f8 fe ff ff 	mov    %rdi,-0x108(%rbp)
    d2c8:	64 48 8b 04 25 28 00 	mov    %fs:0x28,%rax
    d2cf:	00 00 
    d2d1:	48 89 45 e8          	mov    %rax,-0x18(%rbp)
    d2d5:	31 c0                	xor    %eax,%eax
    d2d7:	c6 85 0f ff ff ff d2 	movb   $0xd2,-0xf1(%rbp)
    d2de:	48 8d 05 35 88 00 00 	lea    0x8835(%rip),%rax        # 15b1a <g_132>
    d2e5:	48 89 85 18 ff ff ff 	mov    %rax,-0xe8(%rbp)
    d2ec:	48 8d 85 18 ff ff ff 	lea    -0xe8(%rbp),%rax
    d2f3:	48 89 85 20 ff ff ff 	mov    %rax,-0xe0(%rbp)
    d2fa:	66 c7 85 50 ff ff ff 	movw   $0x997b,-0xb0(%rbp)
    d301:	7b 99 
    d303:	66 c7 85 52 ff ff ff 	movw   $0x804,-0xae(%rbp)
    d30a:	04 08 
    d30c:	66 c7 85 54 ff ff ff 	movw   $0x5fb,-0xac(%rbp)
    d313:	fb 05 
    d315:	66 c7 85 56 ff ff ff 	movw   $0x5e6e,-0xaa(%rbp)
    d31c:	6e 5e 
    d31e:	66 c7 85 58 ff ff ff 	movw   $0x56e,-0xa8(%rbp)
    d325:	6e 05 
    d327:	66 c7 85 5a ff ff ff 	movw   $0x8fb,-0xa6(%rbp)
    d32e:	fb 08 
    d330:	66 c7 85 5c ff ff ff 	movw   $0x9904,-0xa4(%rbp)
    d337:	04 99 
    d339:	66 c7 85 5e ff ff ff 	movw   $0x997b,-0xa2(%rbp)
    d340:	7b 99 
    d342:	66 c7 85 60 ff ff ff 	movw   $0x804,-0xa0(%rbp)
    d349:	04 08 
    d34b:	66 c7 85 62 ff ff ff 	movw   $0x5fb,-0x9e(%rbp)
    d352:	fb 05 
    d354:	66 c7 85 64 ff ff ff 	movw   $0x5e6e,-0x9c(%rbp)
    d35b:	6e 5e 
    d35d:	66 c7 85 66 ff ff ff 	movw   $0x56e,-0x9a(%rbp)
    d364:	6e 05 
    d366:	66 c7 85 68 ff ff ff 	movw   $0x8fb,-0x98(%rbp)
    d36d:	fb 08 
    d36f:	66 c7 85 6a ff ff ff 	movw   $0x9904,-0x96(%rbp)
    d376:	04 99 
    d378:	66 c7 85 6c ff ff ff 	movw   $0x997b,-0x94(%rbp)
    d37f:	7b 99 
    d381:	66 c7 85 6e ff ff ff 	movw   $0x804,-0x92(%rbp)
    d388:	04 08 
    d38a:	66 c7 85 70 ff ff ff 	movw   $0x5fb,-0x90(%rbp)
    d391:	fb 05 
    d393:	66 c7 85 72 ff ff ff 	movw   $0x5e6e,-0x8e(%rbp)
    d39a:	6e 5e 
    d39c:	66 c7 85 74 ff ff ff 	movw   $0x56e,-0x8c(%rbp)
    d3a3:	6e 05 
    d3a5:	66 c7 85 76 ff ff ff 	movw   $0x8fb,-0x8a(%rbp)
    d3ac:	fb 08 
    d3ae:	66 c7 85 78 ff ff ff 	movw   $0x9904,-0x88(%rbp)
    d3b5:	04 99 
    d3b7:	66 c7 85 7a ff ff ff 	movw   $0x997b,-0x86(%rbp)
    d3be:	7b 99 
    d3c0:	66 c7 85 7c ff ff ff 	movw   $0x804,-0x84(%rbp)
    d3c7:	04 08 
    d3c9:	66 c7 85 7e ff ff ff 	movw   $0x5fb,-0x82(%rbp)
    d3d0:	fb 05 
    d3d2:	66 c7 45 80 6e 5e    	movw   $0x5e6e,-0x80(%rbp)
    d3d8:	66 c7 45 82 6e 05    	movw   $0x56e,-0x7e(%rbp)
    d3de:	66 c7 45 84 fb 08    	movw   $0x8fb,-0x7c(%rbp)
    d3e4:	66 c7 45 86 04 99    	movw   $0x9904,-0x7a(%rbp)
    d3ea:	66 c7 45 88 7b 99    	movw   $0x997b,-0x78(%rbp)
    d3f0:	66 c7 45 8a 04 08    	movw   $0x804,-0x76(%rbp)
    d3f6:	66 c7 45 8c fb 05    	movw   $0x5fb,-0x74(%rbp)
    d3fc:	66 c7 45 8e 6e 5e    	movw   $0x5e6e,-0x72(%rbp)
    d402:	66 c7 45 90 6e 05    	movw   $0x56e,-0x70(%rbp)
    d408:	66 c7 45 92 fb 08    	movw   $0x8fb,-0x6e(%rbp)
    d40e:	66 c7 45 94 04 99    	movw   $0x9904,-0x6c(%rbp)
    d414:	66 c7 45 96 7b 99    	movw   $0x997b,-0x6a(%rbp)
    d41a:	66 c7 45 98 04 08    	movw   $0x804,-0x68(%rbp)
    d420:	66 c7 45 9a fb 05    	movw   $0x5fb,-0x66(%rbp)
    d426:	66 c7 45 9c 6e 5e    	movw   $0x5e6e,-0x64(%rbp)
    d42c:	66 c7 45 9e 6e 05    	movw   $0x56e,-0x62(%rbp)
    d432:	66 c7 45 a0 fb 08    	movw   $0x8fb,-0x60(%rbp)
    d438:	66 c7 45 a2 04 99    	movw   $0x9904,-0x5e(%rbp)
    d43e:	66 c7 45 a4 7b 99    	movw   $0x997b,-0x5c(%rbp)
    d444:	66 c7 45 a6 04 08    	movw   $0x804,-0x5a(%rbp)
    d44a:	66 c7 45 a8 fb 05    	movw   $0x5fb,-0x58(%rbp)
    d450:	66 c7 45 aa 6e 5e    	movw   $0x5e6e,-0x56(%rbp)
    d456:	66 c7 45 ac 6e 5e    	movw   $0x5e6e,-0x54(%rbp)
    d45c:	66 c7 45 ae ff dd    	movw   $0xddff,-0x52(%rbp)
    d462:	66 c7 45 b0 7b 05    	movw   $0x57b,-0x50(%rbp)
    d468:	66 c7 45 b2 c6 05    	movw   $0x5c6,-0x4e(%rbp)
    d46e:	66 c7 45 b4 7b dd    	movw   $0xdd7b,-0x4c(%rbp)
    d474:	66 c7 45 b6 ff 5e    	movw   $0x5eff,-0x4a(%rbp)
    d47a:	66 c7 45 b8 04 ff    	movw   $0xff04,-0x48(%rbp)
    d480:	66 c7 45 ba 04 5e    	movw   $0x5e04,-0x46(%rbp)
    d486:	66 c7 45 bc ff dd    	movw   $0xddff,-0x44(%rbp)
    d48c:	66 c7 45 be 7b 05    	movw   $0x57b,-0x42(%rbp)
    d492:	66 c7 45 c0 c6 05    	movw   $0x5c6,-0x40(%rbp)
    d498:	66 c7 45 c2 7b dd    	movw   $0xdd7b,-0x3e(%rbp)
    d49e:	66 c7 45 c4 ff 5e    	movw   $0x5eff,-0x3c(%rbp)
    d4a4:	66 c7 45 c6 04 ff    	movw   $0xff04,-0x3a(%rbp)
    d4aa:	66 c7 45 c8 04 5e    	movw   $0x5e04,-0x38(%rbp)
    d4b0:	66 c7 45 ca ff dd    	movw   $0xddff,-0x36(%rbp)
    d4b6:	66 c7 45 cc 7b 05    	movw   $0x57b,-0x34(%rbp)
    d4bc:	66 c7 45 ce c6 05    	movw   $0x5c6,-0x32(%rbp)
    d4c2:	66 c7 45 d0 7b dd    	movw   $0xdd7b,-0x30(%rbp)
    d4c8:	66 c7 45 d2 ff 5e    	movw   $0x5eff,-0x2e(%rbp)
    d4ce:	66 c7 45 d4 04 ff    	movw   $0xff04,-0x2c(%rbp)
    d4d4:	66 c7 45 d6 04 5e    	movw   $0x5e04,-0x2a(%rbp)
    d4da:	66 c7 45 d8 ff dd    	movw   $0xddff,-0x28(%rbp)
    d4e0:	66 c7 45 da 7b 05    	movw   $0x57b,-0x26(%rbp)
    d4e6:	66 c7 45 dc c6 05    	movw   $0x5c6,-0x24(%rbp)
    d4ec:	66 c7 45 de 7b dd    	movw   $0xdd7b,-0x22(%rbp)
    d4f2:	48 8d 05 97 7b 00 00 	lea    0x7b97(%rip),%rax        # 15090 <g_64>
    d4f9:	48 89 85 28 ff ff ff 	mov    %rax,-0xd8(%rbp)
    d500:	c7 85 14 ff ff ff 01 	movl   $0x1,-0xec(%rbp)
    d507:	00 00 00 
    d50a:	c7 85 10 ff ff ff 00 	movl   $0x0,-0xf0(%rbp)
    d511:	00 00 00 
    d514:	eb 1e                	jmp    d534 <func_72+0x283>
    d516:	8b 85 10 ff ff ff    	mov    -0xf0(%rbp),%eax
    d51c:	48 98                	cltq   
    d51e:	48 8d 15 f5 85 00 00 	lea    0x85f5(%rip),%rdx        # 15b1a <g_132>
    d525:	48 89 94 c5 30 ff ff 	mov    %rdx,-0xd0(%rbp,%rax,8)
    d52c:	ff 
    d52d:	83 85 10 ff ff ff 01 	addl   $0x1,-0xf0(%rbp)
    d534:	83 bd 10 ff ff ff 03 	cmpl   $0x3,-0xf0(%rbp)
    d53b:	7e d9                	jle    d516 <func_72+0x265>
    d53d:	48 8b 05 7c a8 00 00 	mov    0xa87c(%rip),%rax        # 17dc0 <g_148>
    d544:	48 8b 00             	mov    (%rax),%rax
    d547:	8b 00                	mov    (%rax),%eax
    d549:	88 85 0f ff ff ff    	mov    %al,-0xf1(%rbp)
    d54f:	8b 05 57 b2 00 00    	mov    0xb257(%rip),%eax        # 187ac <g_372>
    d555:	0f b6 9d 54 ff ff ff 	movzbl -0xac(%rbp),%ebx
    d55c:	8b 15 f2 7a 00 00    	mov    0x7af2(%rip),%edx        # 15054 <g_12+0x14>
    d562:	0f b6 85 54 ff ff ff 	movzbl -0xac(%rbp),%eax
    d569:	0f be c0             	movsbl %al,%eax
    d56c:	39 c2                	cmp    %eax,%edx
    d56e:	0f 95 c0             	setne  %al
    d571:	0f b6 c0             	movzbl %al,%eax
    d574:	be 06 00 00 00       	mov    $0x6,%esi
    d579:	89 c7                	mov    %eax,%edi
    d57b:	e8 cc 86 ff ff       	callq  5c4c <safe_lshift_func_uint8_t_u_u>
    d580:	0f be d0             	movsbl %al,%edx
    d583:	8b 05 b7 7a 00 00    	mov    0x7ab7(%rip),%eax        # 15040 <g_12>
    d589:	0f be c0             	movsbl %al,%eax
    d58c:	89 d6                	mov    %edx,%esi
    d58e:	89 c7                	mov    %eax,%edi
    d590:	e8 9c 7c ff ff       	callq  5231 <safe_mod_func_int8_t_s_s>
    d595:	38 c3                	cmp    %al,%bl
    d597:	48 8b 95 30 ff ff ff 	mov    -0xd0(%rbp),%rdx
    d59e:	48 8b 85 20 ff ff ff 	mov    -0xe0(%rbp),%rax
    d5a5:	48 89 10             	mov    %rdx,(%rax)
    d5a8:	be 01 00 00 00       	mov    $0x1,%esi
    d5ad:	bf 00 00 00 00       	mov    $0x0,%edi
    d5b2:	e8 b5 7d ff ff       	callq  536c <safe_rshift_func_int8_t_s_u>
    d5b7:	0f b6 55 ab          	movzbl -0x55(%rbp),%edx
    d5bb:	38 d0                	cmp    %dl,%al
    d5bd:	0f 9c c0             	setl   %al
    d5c0:	0f b6 d0             	movzbl %al,%edx
    d5c3:	48 8b 85 28 ff ff ff 	mov    -0xd8(%rbp),%rax
    d5ca:	48 89 10             	mov    %rdx,(%rax)
    d5cd:	0f b6 85 54 ff ff ff 	movzbl -0xac(%rbp),%eax
    d5d4:	48 0f be c0          	movsbq %al,%rax
    d5d8:	83 e0 6e             	and    $0x6e,%eax
    d5db:	48 39 85 f8 fe ff ff 	cmp    %rax,-0x108(%rbp)
    d5e2:	0f 95 c0             	setne  %al
    d5e5:	0f b6 c0             	movzbl %al,%eax
    d5e8:	21 85 14 ff ff ff    	and    %eax,-0xec(%rbp)
    d5ee:	b8 00 00 00 00       	mov    $0x0,%eax
    d5f3:	b0 01                	mov    $0x1,%al
    d5f5:	48 8b 4d e8          	mov    -0x18(%rbp),%rcx
    d5f9:	64 48 33 0c 25 28 00 	xor    %fs:0x28,%rcx
    d600:	00 00 
    d602:	74 05                	je     d609 <func_72+0x358>
    d604:	e8 67 7a ff ff       	callq  5070 <__stack_chk_fail@plt>
    d609:	48 81 c4 08 01 00 00 	add    $0x108,%rsp
    d610:	5b                   	pop    %rbx
    d611:	5d                   	pop    %rbp
    d612:	c3                   	retq   

000000000000d613 <func_74>:
    d613:	f3 0f 1e fa          	endbr64 
    d617:	55                   	push   %rbp
    d618:	48 89 e5             	mov    %rsp,%rbp
    d61b:	48 81 ec 20 02 00 00 	sub    $0x220,%rsp
    d622:	89 f8                	mov    %edi,%eax
    d624:	48 89 b5 f0 fd ff ff 	mov    %rsi,-0x210(%rbp)
    d62b:	48 89 95 e8 fd ff ff 	mov    %rdx,-0x218(%rbp)
    d632:	66 89 8d fa fd ff ff 	mov    %cx,-0x206(%rbp)
    d639:	88 85 fc fd ff ff    	mov    %al,-0x204(%rbp)
    d63f:	64 48 8b 04 25 28 00 	mov    %fs:0x28,%rax
    d646:	00 00 
    d648:	48 89 45 f8          	mov    %rax,-0x8(%rbp)
    d64c:	31 c0                	xor    %eax,%eax
    d64e:	c7 85 04 fe ff ff 11 	movl   $0xa27d7711,-0x1fc(%rbp)
    d655:	77 7d a2 
    d658:	48 c7 85 10 fe ff ff 	movq   $0x0,-0x1f0(%rbp)
    d65f:	00 00 00 00 
    d663:	48 8d 05 b0 84 00 00 	lea    0x84b0(%rip),%rax        # 15b1a <g_132>
    d66a:	48 89 85 18 fe ff ff 	mov    %rax,-0x1e8(%rbp)
    d671:	c7 85 08 fe ff ff 00 	movl   $0x0,-0x1f8(%rbp)
    d678:	00 00 00 
    d67b:	66 c7 85 02 fe ff ff 	movw   $0xfffb,-0x1fe(%rbp)
    d682:	fb ff 
    d684:	c7 85 0c fe ff ff 3a 	movl   $0x6958433a,-0x1f4(%rbp)
    d68b:	43 58 69 
    d68e:	48 8d 05 b3 83 00 00 	lea    0x83b3(%rip),%rax        # 15a48 <g_102+0x628>
    d695:	48 89 85 20 fe ff ff 	mov    %rax,-0x1e0(%rbp)
    d69c:	48 8d 05 1d a7 00 00 	lea    0xa71d(%rip),%rax        # 17dc0 <g_148>
    d6a3:	48 89 85 70 fe ff ff 	mov    %rax,-0x190(%rbp)
    d6aa:	48 8d 05 0f a7 00 00 	lea    0xa70f(%rip),%rax        # 17dc0 <g_148>
    d6b1:	48 89 85 78 fe ff ff 	mov    %rax,-0x188(%rbp)
    d6b8:	48 8d 05 e9 a6 00 00 	lea    0xa6e9(%rip),%rax        # 17da8 <g_10>
    d6bf:	48 89 85 80 fe ff ff 	mov    %rax,-0x180(%rbp)
    d6c6:	48 8d 05 f3 a6 00 00 	lea    0xa6f3(%rip),%rax        # 17dc0 <g_148>
    d6cd:	48 89 85 88 fe ff ff 	mov    %rax,-0x178(%rbp)
    d6d4:	48 8d 05 e5 a6 00 00 	lea    0xa6e5(%rip),%rax        # 17dc0 <g_148>
    d6db:	48 89 85 90 fe ff ff 	mov    %rax,-0x170(%rbp)
    d6e2:	48 8d 05 bf a6 00 00 	lea    0xa6bf(%rip),%rax        # 17da8 <g_10>
    d6e9:	48 89 85 98 fe ff ff 	mov    %rax,-0x168(%rbp)
    d6f0:	48 8d 05 c9 a6 00 00 	lea    0xa6c9(%rip),%rax        # 17dc0 <g_148>
    d6f7:	48 89 85 a0 fe ff ff 	mov    %rax,-0x160(%rbp)
    d6fe:	48 8d 05 bb a6 00 00 	lea    0xa6bb(%rip),%rax        # 17dc0 <g_148>
    d705:	48 89 85 a8 fe ff ff 	mov    %rax,-0x158(%rbp)
    d70c:	48 8d 85 70 fe ff ff 	lea    -0x190(%rbp),%rax
    d713:	48 83 c0 08          	add    $0x8,%rax
    d717:	48 89 85 28 fe ff ff 	mov    %rax,-0x1d8(%rbp)
    d71e:	48 8d 85 b0 fe ff ff 	lea    -0x150(%rbp),%rax
    d725:	48 8d 15 74 42 00 00 	lea    0x4274(%rip),%rdx        # 119a0 <g_905+0x1910>
    d72c:	b9 28 00 00 00       	mov    $0x28,%ecx
    d731:	48 89 c7             	mov    %rax,%rdi
    d734:	48 89 d6             	mov    %rdx,%rsi
    d737:	f3 48 a5             	rep movsq %ds:(%rsi),%es:(%rdi)
    d73a:	48 89 f2             	mov    %rsi,%rdx
    d73d:	48 89 f8             	mov    %rdi,%rax
    d740:	8b 0a                	mov    (%rdx),%ecx
    d742:	89 08                	mov    %ecx,(%rax)
    d744:	48 8d 40 04          	lea    0x4(%rax),%rax
    d748:	48 8d 52 04          	lea    0x4(%rdx),%rdx
    d74c:	48 b8 66 e9 1f b1 91 	movabs $0xdcd0fb91b11fe966,%rax
    d753:	fb d0 dc 
    d756:	48 89 85 30 fe ff ff 	mov    %rax,-0x1d0(%rbp)
    d75d:	48 b8 25 98 2e 0a b8 	movabs $0xb2715fb80a2e9825,%rax
    d764:	5f 71 b2 
    d767:	48 89 85 38 fe ff ff 	mov    %rax,-0x1c8(%rbp)
    d76e:	48 8d 05 b3 78 00 00 	lea    0x78b3(%rip),%rax        # 15028 <g_3>
    d775:	48 89 85 40 fe ff ff 	mov    %rax,-0x1c0(%rbp)
    d77c:	48 8d 05 a5 78 00 00 	lea    0x78a5(%rip),%rax        # 15028 <g_3>
    d783:	48 89 85 48 fe ff ff 	mov    %rax,-0x1b8(%rbp)
    d78a:	48 8d 05 97 78 00 00 	lea    0x7897(%rip),%rax        # 15028 <g_3>
    d791:	48 89 85 50 fe ff ff 	mov    %rax,-0x1b0(%rbp)
    d798:	48 8d 05 89 78 00 00 	lea    0x7889(%rip),%rax        # 15028 <g_3>
    d79f:	48 89 85 58 fe ff ff 	mov    %rax,-0x1a8(%rbp)
    d7a6:	48 8d 05 7b 78 00 00 	lea    0x787b(%rip),%rax        # 15028 <g_3>
    d7ad:	48 89 85 60 fe ff ff 	mov    %rax,-0x1a0(%rbp)
    d7b4:	48 8b 05 0d a6 00 00 	mov    0xa60d(%rip),%rax        # 17dc8 <g_159>
    d7bb:	8b 95 04 fe ff ff    	mov    -0x1fc(%rbp),%edx
    d7c1:	89 10                	mov    %edx,(%rax)
    d7c3:	48 8b 85 f0 fd ff ff 	mov    -0x210(%rbp),%rax
    d7ca:	48 8b 75 f8          	mov    -0x8(%rbp),%rsi
    d7ce:	64 48 33 34 25 28 00 	xor    %fs:0x28,%rsi
    d7d5:	00 00 
    d7d7:	74 05                	je     d7de <func_74+0x1cb>
    d7d9:	e8 92 78 ff ff       	callq  5070 <__stack_chk_fail@plt>
    d7de:	c9                   	leaveq 
    d7df:	c3                   	retq   

000000000000d7e0 <func_79>:
    d7e0:	f3 0f 1e fa          	endbr64 
    d7e4:	55                   	push   %rbp
    d7e5:	48 89 e5             	mov    %rsp,%rbp
    d7e8:	41 54                	push   %r12
    d7ea:	53                   	push   %rbx
    d7eb:	48 81 ec e0 00 00 00 	sub    $0xe0,%rsp
    d7f2:	89 bd 1c ff ff ff    	mov    %edi,-0xe4(%rbp)
    d7f8:	66 89 b5 1a ff ff ff 	mov    %si,-0xe6(%rbp)
    d7ff:	48 89 95 10 ff ff ff 	mov    %rdx,-0xf0(%rbp)
    d806:	89 c8                	mov    %ecx,%eax
    d808:	66 89 85 18 ff ff ff 	mov    %ax,-0xe8(%rbp)
    d80f:	64 48 8b 04 25 28 00 	mov    %fs:0x28,%rax
    d816:	00 00 
    d818:	48 89 45 e8          	mov    %rax,-0x18(%rbp)
    d81c:	31 c0                	xor    %eax,%eax
    d81e:	c6 45 a0 f6          	movb   $0xf6,-0x60(%rbp)
    d822:	c6 45 a1 1b          	movb   $0x1b,-0x5f(%rbp)
    d826:	c6 45 a2 f6          	movb   $0xf6,-0x5e(%rbp)
    d82a:	c6 45 a3 20          	movb   $0x20,-0x5d(%rbp)
    d82e:	c6 45 a4 28          	movb   $0x28,-0x5c(%rbp)
    d832:	c6 45 a5 20          	movb   $0x20,-0x5b(%rbp)
    d836:	c6 45 a6 f6          	movb   $0xf6,-0x5a(%rbp)
    d83a:	c6 45 a7 1b          	movb   $0x1b,-0x59(%rbp)
    d83e:	c6 45 a8 f6          	movb   $0xf6,-0x58(%rbp)
    d842:	c6 45 a9 20          	movb   $0x20,-0x57(%rbp)
    d846:	c6 45 aa 28          	movb   $0x28,-0x56(%rbp)
    d84a:	c6 45 ab 20          	movb   $0x20,-0x55(%rbp)
    d84e:	c6 45 ac f6          	movb   $0xf6,-0x54(%rbp)
    d852:	c6 45 ad 1b          	movb   $0x1b,-0x53(%rbp)
    d856:	c6 45 ae f6          	movb   $0xf6,-0x52(%rbp)
    d85a:	c6 45 af 20          	movb   $0x20,-0x51(%rbp)
    d85e:	c6 45 b0 28          	movb   $0x28,-0x50(%rbp)
    d862:	c6 45 b1 20          	movb   $0x20,-0x4f(%rbp)
    d866:	c6 45 b2 f6          	movb   $0xf6,-0x4e(%rbp)
    d86a:	c6 45 b3 1b          	movb   $0x1b,-0x4d(%rbp)
    d86e:	c6 45 b4 f6          	movb   $0xf6,-0x4c(%rbp)
    d872:	c6 45 b5 20          	movb   $0x20,-0x4b(%rbp)
    d876:	c6 45 b6 28          	movb   $0x28,-0x4a(%rbp)
    d87a:	c6 45 b7 20          	movb   $0x20,-0x49(%rbp)
    d87e:	c6 45 b8 f6          	movb   $0xf6,-0x48(%rbp)
    d882:	c6 45 b9 1b          	movb   $0x1b,-0x47(%rbp)
    d886:	c6 45 ba f6          	movb   $0xf6,-0x46(%rbp)
    d88a:	c6 45 bb 20          	movb   $0x20,-0x45(%rbp)
    d88e:	c6 45 bc 28          	movb   $0x28,-0x44(%rbp)
    d892:	c6 45 bd 20          	movb   $0x20,-0x43(%rbp)
    d896:	c7 85 2c ff ff ff f6 	movl   $0xfffffff6,-0xd4(%rbp)
    d89d:	ff ff ff 
    d8a0:	48 c7 45 c0 00 00 00 	movq   $0x0,-0x40(%rbp)
    d8a7:	00 
    d8a8:	48 c7 45 c8 00 00 00 	movq   $0x0,-0x38(%rbp)
    d8af:	00 
    d8b0:	48 c7 45 d0 00 00 00 	movq   $0x0,-0x30(%rbp)
    d8b7:	00 
    d8b8:	48 c7 45 d8 00 00 00 	movq   $0x0,-0x28(%rbp)
    d8bf:	00 
    d8c0:	48 c7 45 e0 00 00 00 	movq   $0x0,-0x20(%rbp)
    d8c7:	00 
    d8c8:	48 8d 45 c0          	lea    -0x40(%rbp),%rax
    d8cc:	48 83 c0 10          	add    $0x10,%rax
    d8d0:	48 89 85 30 ff ff ff 	mov    %rax,-0xd0(%rbp)
    d8d7:	48 8d 85 30 ff ff ff 	lea    -0xd0(%rbp),%rax
    d8de:	48 89 85 48 ff ff ff 	mov    %rax,-0xb8(%rbp)
    d8e5:	48 8d 05 2e 82 00 00 	lea    0x822e(%rip),%rax        # 15b1a <g_132>
    d8ec:	48 89 85 50 ff ff ff 	mov    %rax,-0xb0(%rbp)
    d8f3:	48 8d 05 c6 7e 00 00 	lea    0x7ec6(%rip),%rax        # 157c0 <g_102+0x3a0>
    d8fa:	48 89 85 38 ff ff ff 	mov    %rax,-0xc8(%rbp)
    d901:	48 c7 85 58 ff ff ff 	movq   $0x0,-0xa8(%rbp)
    d908:	00 00 00 00 
    d90c:	48 c7 85 40 ff ff ff 	movq   $0x0,-0xc0(%rbp)
    d913:	00 00 00 00 
    d917:	48 8d 05 5a 27 00 00 	lea    0x275a(%rip),%rax        # 10078 <g_146+0x18>
    d91e:	48 89 85 60 ff ff ff 	mov    %rax,-0xa0(%rbp)
    d925:	48 8d 05 f0 81 00 00 	lea    0x81f0(%rip),%rax        # 15b1c <g_155>
    d92c:	48 89 85 68 ff ff ff 	mov    %rax,-0x98(%rbp)
    d933:	c7 85 28 ff ff ff 00 	movl   $0x0,-0xd8(%rbp)
    d93a:	00 00 00 
    d93d:	eb 1e                	jmp    d95d <func_79+0x17d>
    d93f:	8b 85 28 ff ff ff    	mov    -0xd8(%rbp),%eax
    d945:	48 98                	cltq   
    d947:	48 8d 15 ca 81 00 00 	lea    0x81ca(%rip),%rdx        # 15b18 <g_126>
    d94e:	48 89 94 c5 70 ff ff 	mov    %rdx,-0x90(%rbp,%rax,8)
    d955:	ff 
    d956:	83 85 28 ff ff ff 01 	addl   $0x1,-0xd8(%rbp)
    d95d:	83 bd 28 ff ff ff 00 	cmpl   $0x0,-0xd8(%rbp)
    d964:	7e d9                	jle    d93f <func_79+0x15f>
    d966:	c7 85 28 ff ff ff 00 	movl   $0x0,-0xd8(%rbp)
    d96d:	00 00 00 
    d970:	eb 1b                	jmp    d98d <func_79+0x1ad>
    d972:	8b 85 28 ff ff ff    	mov    -0xd8(%rbp),%eax
    d978:	48 98                	cltq   
    d97a:	48 8d 95 38 ff ff ff 	lea    -0xc8(%rbp),%rdx
    d981:	48 89 54 c5 80       	mov    %rdx,-0x80(%rbp,%rax,8)
    d986:	83 85 28 ff ff ff 01 	addl   $0x1,-0xd8(%rbp)
    d98d:	83 bd 28 ff ff ff 01 	cmpl   $0x1,-0xd8(%rbp)
    d994:	7e dc                	jle    d972 <func_79+0x192>
    d996:	c7 85 28 ff ff ff 00 	movl   $0x0,-0xd8(%rbp)
    d99d:	00 00 00 
    d9a0:	eb 1b                	jmp    d9bd <func_79+0x1dd>
    d9a2:	8b 85 28 ff ff ff    	mov    -0xd8(%rbp),%eax
    d9a8:	48 98                	cltq   
    d9aa:	48 8d 95 40 ff ff ff 	lea    -0xc0(%rbp),%rdx
    d9b1:	48 89 54 c5 90       	mov    %rdx,-0x70(%rbp,%rax,8)
    d9b6:	83 85 28 ff ff ff 01 	addl   $0x1,-0xd8(%rbp)
    d9bd:	83 bd 28 ff ff ff 01 	cmpl   $0x1,-0xd8(%rbp)
    d9c4:	7e dc                	jle    d9a2 <func_79+0x1c2>
    d9c6:	c7 85 28 ff ff ff 00 	movl   $0x0,-0xd8(%rbp)
    d9cd:	00 00 00 
    d9d0:	eb 1b                	jmp    d9ed <func_79+0x20d>
    d9d2:	8b 85 28 ff ff ff    	mov    -0xd8(%rbp),%eax
    d9d8:	48 98                	cltq   
    d9da:	48 c7 84 c5 78 ff ff 	movq   $0x0,-0x88(%rbp,%rax,8)
    d9e1:	ff 00 00 00 00 
    d9e6:	83 85 28 ff ff ff 01 	addl   $0x1,-0xd8(%rbp)
    d9ed:	83 bd 28 ff ff ff 00 	cmpl   $0x0,-0xd8(%rbp)
    d9f4:	7e dc                	jle    d9d2 <func_79+0x1f2>
    d9f6:	0f b6 45 ab          	movzbl -0x55(%rbp),%eax
    d9fa:	0f b6 c0             	movzbl %al,%eax
    d9fd:	09 85 2c ff ff ff    	or     %eax,-0xd4(%rbp)
    da03:	0f b6 45 ab          	movzbl -0x55(%rbp),%eax
    da07:	0f b6 c0             	movzbl %al,%eax
    da0a:	8b 95 2c ff ff ff    	mov    -0xd4(%rbp),%edx
    da10:	89 d6                	mov    %edx,%esi
    da12:	89 c7                	mov    %eax,%edi
    da14:	e8 e6 7c ff ff       	callq  56ff <safe_div_func_int32_t_s_s>
    da19:	0f b6 c0             	movzbl %al,%eax
    da1c:	be 06 00 00 00       	mov    $0x6,%esi
    da21:	89 c7                	mov    %eax,%edi
    da23:	e8 24 82 ff ff       	callq  5c4c <safe_lshift_func_uint8_t_u_u>
    da28:	0f b6 c0             	movzbl %al,%eax
    da2b:	89 85 1c ff ff ff    	mov    %eax,-0xe4(%rbp)
    da31:	48 8b 85 48 ff ff ff 	mov    -0xb8(%rbp),%rax
    da38:	48 8d 15 61 a3 00 00 	lea    0xa361(%rip),%rdx        # 17da0 <g_11>
    da3f:	48 89 10             	mov    %rdx,(%rax)
    da42:	48 8b 85 48 ff ff ff 	mov    -0xb8(%rbp),%rax
    da49:	48 8b 00             	mov    (%rax),%rax
    da4c:	48 8d 15 4d a3 00 00 	lea    0xa34d(%rip),%rdx        # 17da0 <g_11>
    da53:	48 39 d0             	cmp    %rdx,%rax
    da56:	0f 95 c0             	setne  %al
    da59:	0f b6 c0             	movzbl %al,%eax
    da5c:	48 39 85 10 ff ff ff 	cmp    %rax,-0xf0(%rbp)
    da63:	0f 95 c0             	setne  %al
    da66:	44 0f b6 e0          	movzbl %al,%r12d
    da6a:	8b 05 10 76 00 00    	mov    0x7610(%rip),%eax        # 15080 <g_46>
    da70:	48 63 d8             	movslq %eax,%rbx
    da73:	0f b7 05 9e 80 00 00 	movzwl 0x809e(%rip),%eax        # 15b18 <g_126>
    da7a:	83 e8 01             	sub    $0x1,%eax
    da7d:	66 89 05 94 80 00 00 	mov    %ax,0x8094(%rip)        # 15b18 <g_126>
    da84:	8b 05 f6 75 00 00    	mov    0x75f6(%rip),%eax        # 15080 <g_46>
    da8a:	3d fb 00 00 00       	cmp    $0xfb,%eax
    da8f:	48 8b 05 0a a3 00 00 	mov    0xa30a(%rip),%rax        # 17da0 <g_11>
    da96:	8b 00                	mov    (%rax),%eax
    da98:	89 c2                	mov    %eax,%edx
    da9a:	48 8b 85 10 ff ff ff 	mov    -0xf0(%rbp),%rax
    daa1:	21 d0                	and    %edx,%eax
    daa3:	0f b6 c0             	movzbl %al,%eax
    daa6:	be 01 00 00 00       	mov    $0x1,%esi
    daab:	89 c7                	mov    %eax,%edi
    daad:	e8 0c 82 ff ff       	callq  5cbe <safe_rshift_func_uint8_t_u_u>
    dab2:	84 c0                	test   %al,%al
    dab4:	0f 94 c0             	sete   %al
    dab7:	0f b6 d0             	movzbl %al,%edx
    daba:	48 8b 05 e7 a2 00 00 	mov    0xa2e7(%rip),%rax        # 17da8 <g_10>
    dac1:	48 8b 00             	mov    (%rax),%rax
    dac4:	8b 00                	mov    (%rax),%eax
    dac6:	39 c2                	cmp    %eax,%edx
    dac8:	48 8b 05 59 7e 00 00 	mov    0x7e59(%rip),%rax        # 15928 <g_102+0x508>
    dacf:	48 89 de             	mov    %rbx,%rsi
    dad2:	48 89 c7             	mov    %rax,%rdi
    dad5:	e8 ce 7d ff ff       	callq  58a8 <safe_sub_func_int64_t_s_s>
    dada:	98                   	cwtl   
    dadb:	be 04 00 00 00       	mov    $0x4,%esi
    dae0:	89 c7                	mov    %eax,%edi
    dae2:	e8 7c 7a ff ff       	callq  5563 <safe_rshift_func_int16_t_s_u>
    dae7:	0f bf d0             	movswl %ax,%edx
    daea:	8b 05 80 75 00 00    	mov    0x7580(%rip),%eax        # 15070 <g_29>
    daf0:	21 d0                	and    %edx,%eax
    daf2:	41 39 c4             	cmp    %eax,%r12d
    daf5:	7f 0a                	jg     db01 <func_79+0x321>
    daf7:	8b 05 43 75 00 00    	mov    0x7543(%rip),%eax        # 15040 <g_12>
    dafd:	85 c0                	test   %eax,%eax
    daff:	74 07                	je     db08 <func_79+0x328>
    db01:	b8 01 00 00 00       	mov    $0x1,%eax
    db06:	eb 05                	jmp    db0d <func_79+0x32d>
    db08:	b8 00 00 00 00       	mov    $0x0,%eax
    db0d:	0f be c0             	movsbl %al,%eax
    db10:	be ec ff ff ff       	mov    $0xffffffec,%esi
    db15:	89 c7                	mov    %eax,%edi
    db17:	e8 f6 76 ff ff       	callq  5212 <safe_mul_func_int8_t_s_s>
    db1c:	0f be d0             	movsbl %al,%edx
    db1f:	8b 05 63 ac 00 00    	mov    0xac63(%rip),%eax        # 18788 <g_133>
    db25:	21 d0                	and    %edx,%eax
    db27:	89 05 5b ac 00 00    	mov    %eax,0xac5b(%rip)        # 18788 <g_133>
    db2d:	0f b6 05 e6 7f 00 00 	movzbl 0x7fe6(%rip),%eax        # 15b1a <g_132>
    db34:	0f b6 d8             	movzbl %al,%ebx
    db37:	48 8b 05 62 75 00 00 	mov    0x7562(%rip),%rax        # 150a0 <g_64+0x10>
    db3e:	0f bf d0             	movswl %ax,%edx
    db41:	0f bf 85 18 ff ff ff 	movswl -0xe8(%rbp),%eax
    db48:	89 d6                	mov    %edx,%esi
    db4a:	89 c7                	mov    %eax,%edi
    db4c:	e8 a4 78 ff ff       	callq  53f5 <safe_mul_func_int16_t_s_s>
    db51:	0f bf d0             	movswl %ax,%edx
    db54:	48 8b 85 68 ff ff ff 	mov    -0x98(%rbp),%rax
    db5b:	89 10                	mov    %edx,(%rax)
    db5d:	48 8b 45 c8          	mov    -0x38(%rbp),%rax
    db61:	48 8d 15 1c 75 00 00 	lea    0x751c(%rip),%rdx        # 15084 <g_48>
    db68:	48 39 d0             	cmp    %rdx,%rax
    db6b:	0f 95 c0             	setne  %al
    db6e:	89 c2                	mov    %eax,%edx
    db70:	48 8b 85 48 ff ff ff 	mov    -0xb8(%rbp),%rax
    db77:	48 8b 00             	mov    (%rax),%rax
    db7a:	48 8b 00             	mov    (%rax),%rax
    db7d:	8b 00                	mov    (%rax),%eax
    db7f:	31 d0                	xor    %edx,%eax
    db81:	0f b6 c0             	movzbl %al,%eax
    db84:	89 de                	mov    %ebx,%esi
    db86:	89 c7                	mov    %eax,%edi
    db88:	e8 eb 7f ff ff       	callq  5b78 <safe_sub_func_uint8_t_u_u>
    db8d:	48 8d 05 04 7c 00 00 	lea    0x7c04(%rip),%rax        # 15798 <g_102+0x378>
    db94:	48 89 85 60 ff ff ff 	mov    %rax,-0xa0(%rbp)
    db9b:	48 8b 85 38 ff ff ff 	mov    -0xc8(%rbp),%rax
    dba2:	48 89 05 07 a2 00 00 	mov    %rax,0xa207(%rip)        # 17db0 <g_141>
    dba9:	48 8b 05 00 a2 00 00 	mov    0xa200(%rip),%rax        # 17db0 <g_141>
    dbb0:	48 8d 15 e1 7b 00 00 	lea    0x7be1(%rip),%rdx        # 15798 <g_102+0x378>
    dbb7:	48 39 d0             	cmp    %rdx,%rax
    dbba:	0f 95 c2             	setne  %dl
    dbbd:	48 8b 85 38 ff ff ff 	mov    -0xc8(%rbp),%rax
    dbc4:	0f b6 d2             	movzbl %dl,%edx
    dbc7:	48 89 10             	mov    %rdx,(%rax)
    dbca:	48 8b 10             	mov    (%rax),%rdx
    dbcd:	48 8b 85 48 ff ff ff 	mov    -0xb8(%rbp),%rax
    dbd4:	48 8b 00             	mov    (%rax),%rax
    dbd7:	48 89 05 e2 a1 00 00 	mov    %rax,0xa1e2(%rip)        # 17dc0 <g_148>
    dbde:	48 8b 05 db a1 00 00 	mov    0xa1db(%rip),%rax        # 17dc0 <g_148>
    dbe5:	48 8d 0d b4 a1 00 00 	lea    0xa1b4(%rip),%rcx        # 17da0 <g_11>
    dbec:	48 39 c8             	cmp    %rcx,%rax
    dbef:	0f 95 c0             	setne  %al
    dbf2:	0f b6 c0             	movzbl %al,%eax
    dbf5:	48 39 c2             	cmp    %rax,%rdx
    dbf8:	0f 95 c0             	setne  %al
    dbfb:	f7 d0                	not    %eax
    dbfd:	0f be d0             	movsbl %al,%edx
    dc00:	48 8b 85 30 ff ff ff 	mov    -0xd0(%rbp),%rax
    dc07:	48 8b 00             	mov    (%rax),%rax
    dc0a:	8b 00                	mov    (%rax),%eax
    dc0c:	0f be c0             	movsbl %al,%eax
    dc0f:	89 d6                	mov    %edx,%esi
    dc11:	89 c7                	mov    %eax,%edi
    dc13:	e8 da 75 ff ff       	callq  51f2 <safe_sub_func_int8_t_s_s>
    dc18:	48 0f be c0          	movsbq %al,%rax
    dc1c:	0f b7 95 1a ff ff ff 	movzwl -0xe6(%rbp),%edx
    dc23:	0f b7 ca             	movzwl %dx,%ecx
    dc26:	8b 95 1c ff ff ff    	mov    -0xe4(%rbp),%edx
    dc2c:	83 f2 04             	xor    $0x4,%edx
    dc2f:	48 63 d2             	movslq %edx,%rdx
    dc32:	48 09 ca             	or     %rcx,%rdx
    dc35:	48 39 d0             	cmp    %rdx,%rax
    dc38:	0f 92 c0             	setb   %al
    dc3b:	0f b6 c0             	movzbl %al,%eax
    dc3e:	39 85 1c ff ff ff    	cmp    %eax,-0xe4(%rbp)
    dc44:	0f 9e c0             	setle  %al
    dc47:	0f b6 c0             	movzbl %al,%eax
    dc4a:	89 85 1c ff ff ff    	mov    %eax,-0xe4(%rbp)
    dc50:	48 8d 05 2d 74 00 00 	lea    0x742d(%rip),%rax        # 15084 <g_48>
    dc57:	48 8b 5d e8          	mov    -0x18(%rbp),%rbx
    dc5b:	64 48 33 1c 25 28 00 	xor    %fs:0x28,%rbx
    dc62:	00 00 
    dc64:	74 05                	je     dc6b <func_79+0x48b>
    dc66:	e8 05 74 ff ff       	callq  5070 <__stack_chk_fail@plt>
    dc6b:	48 81 c4 e0 00 00 00 	add    $0xe0,%rsp
    dc72:	5b                   	pop    %rbx
    dc73:	41 5c                	pop    %r12
    dc75:	5d                   	pop    %rbp
    dc76:	c3                   	retq   

000000000000dc77 <main>:
    dc77:	f3 0f 1e fa          	endbr64 
    dc7b:	55                   	push   %rbp
    dc7c:	48 89 e5             	mov    %rsp,%rbp
    dc7f:	48 83 ec 20          	sub    $0x20,%rsp
    dc83:	89 7d ec             	mov    %edi,-0x14(%rbp)
    dc86:	48 89 75 e0          	mov    %rsi,-0x20(%rbp)
    dc8a:	c7 45 fc 00 00 00 00 	movl   $0x0,-0x4(%rbp)
    dc91:	83 7d ec 02          	cmpl   $0x2,-0x14(%rbp)
    dc95:	74 25                	je     dcbc <main+0x45>
    dc97:	48 8b 45 e0          	mov    -0x20(%rbp),%rax
    dc9b:	48 83 c0 08          	add    $0x8,%rax
    dc9f:	48 8b 00             	mov    (%rax),%rax
    dca2:	48 8d 35 3b 3e 00 00 	lea    0x3e3b(%rip),%rsi        # 11ae4 <g_905+0x1a54>
    dca9:	48 89 c7             	mov    %rax,%rdi
    dcac:	e8 df 73 ff ff       	callq  5090 <strcmp@plt>
    dcb1:	85 c0                	test   %eax,%eax
    dcb3:	74 07                	je     dcbc <main+0x45>
    dcb5:	c7 45 fc 01 00 00 00 	movl   $0x1,-0x4(%rbp)
    dcbc:	e8 c8 74 ff ff       	callq  5189 <platform_main_begin>
    dcc1:	e8 d2 88 ff ff       	callq  6598 <crc32_gentab>
    dcc6:	e8 ea 8a ff ff       	callq  67b5 <func_1>
    dccb:	8b 05 53 73 00 00    	mov    0x7353(%rip),%eax        # 15024 <g_2>
    dcd1:	48 98                	cltq   
    dcd3:	8b 55 fc             	mov    -0x4(%rbp),%edx
    dcd6:	48 8d 35 09 3e 00 00 	lea    0x3e09(%rip),%rsi        # 11ae6 <g_905+0x1a56>
    dcdd:	48 89 c7             	mov    %rax,%rdi
    dce0:	e8 0e 8a ff ff       	callq  66f3 <transparent_crc>
    dce5:	8b 05 3d 73 00 00    	mov    0x733d(%rip),%eax        # 15028 <g_3>
    dceb:	48 98                	cltq   
    dced:	8b 55 fc             	mov    -0x4(%rbp),%edx
    dcf0:	48 8d 35 f3 3d 00 00 	lea    0x3df3(%rip),%rsi        # 11aea <g_905+0x1a5a>
    dcf7:	48 89 c7             	mov    %rax,%rdi
    dcfa:	e8 f4 89 ff ff       	callq  66f3 <transparent_crc>
    dcff:	c7 45 f0 00 00 00 00 	movl   $0x0,-0x10(%rbp)
    dd06:	eb 6a                	jmp    dd72 <main+0xfb>
    dd08:	c7 45 f4 00 00 00 00 	movl   $0x0,-0xc(%rbp)
    dd0f:	eb 57                	jmp    dd68 <main+0xf1>
    dd11:	8b 45 f4             	mov    -0xc(%rbp),%eax
    dd14:	48 63 d0             	movslq %eax,%rdx
    dd17:	8b 45 f0             	mov    -0x10(%rbp),%eax
    dd1a:	48 98                	cltq   
    dd1c:	48 01 d0             	add    %rdx,%rax
    dd1f:	48 8d 14 85 00 00 00 	lea    0x0(,%rax,4),%rdx
    dd26:	00 
    dd27:	48 8d 05 12 73 00 00 	lea    0x7312(%rip),%rax        # 15040 <g_12>
    dd2e:	8b 04 02             	mov    (%rdx,%rax,1),%eax
    dd31:	48 98                	cltq   
    dd33:	8b 55 fc             	mov    -0x4(%rbp),%edx
    dd36:	48 8d 35 b1 3d 00 00 	lea    0x3db1(%rip),%rsi        # 11aee <g_905+0x1a5e>
    dd3d:	48 89 c7             	mov    %rax,%rdi
    dd40:	e8 ae 89 ff ff       	callq  66f3 <transparent_crc>
    dd45:	83 7d fc 00          	cmpl   $0x0,-0x4(%rbp)
    dd49:	74 19                	je     dd64 <main+0xed>
    dd4b:	8b 55 f4             	mov    -0xc(%rbp),%edx
    dd4e:	8b 45 f0             	mov    -0x10(%rbp),%eax
    dd51:	89 c6                	mov    %eax,%esi
    dd53:	48 8d 3d 9f 3d 00 00 	lea    0x3d9f(%rip),%rdi        # 11af9 <g_905+0x1a69>
    dd5a:	b8 00 00 00 00       	mov    $0x0,%eax
    dd5f:	e8 1c 73 ff ff       	callq  5080 <printf@plt>
    dd64:	83 45 f4 01          	addl   $0x1,-0xc(%rbp)
    dd68:	83 7d f4 00          	cmpl   $0x0,-0xc(%rbp)
    dd6c:	7e a3                	jle    dd11 <main+0x9a>
    dd6e:	83 45 f0 01          	addl   $0x1,-0x10(%rbp)
    dd72:	83 7d f0 07          	cmpl   $0x7,-0x10(%rbp)
    dd76:	7e 90                	jle    dd08 <main+0x91>
    dd78:	8b 05 e2 72 00 00    	mov    0x72e2(%rip),%eax        # 15060 <g_16>
    dd7e:	48 98                	cltq   
    dd80:	8b 55 fc             	mov    -0x4(%rbp),%edx
    dd83:	48 8d 35 81 3d 00 00 	lea    0x3d81(%rip),%rsi        # 11b0b <g_905+0x1a7b>
    dd8a:	48 89 c7             	mov    %rax,%rdi
    dd8d:	e8 61 89 ff ff       	callq  66f3 <transparent_crc>
    dd92:	8b 05 cc 72 00 00    	mov    0x72cc(%rip),%eax        # 15064 <g_17>
    dd98:	48 98                	cltq   
    dd9a:	8b 55 fc             	mov    -0x4(%rbp),%edx
    dd9d:	48 8d 35 6c 3d 00 00 	lea    0x3d6c(%rip),%rsi        # 11b10 <g_905+0x1a80>
    dda4:	48 89 c7             	mov    %rax,%rdi
    dda7:	e8 47 89 ff ff       	callq  66f3 <transparent_crc>
    ddac:	c7 45 f0 00 00 00 00 	movl   $0x0,-0x10(%rbp)
    ddb3:	eb 4b                	jmp    de00 <main+0x189>
    ddb5:	8b 45 f0             	mov    -0x10(%rbp),%eax
    ddb8:	48 98                	cltq   
    ddba:	48 8d 14 85 00 00 00 	lea    0x0(,%rax,4),%rdx
    ddc1:	00 
    ddc2:	48 8d 05 a7 72 00 00 	lea    0x72a7(%rip),%rax        # 15070 <g_29>
    ddc9:	8b 04 02             	mov    (%rdx,%rax,1),%eax
    ddcc:	48 98                	cltq   
    ddce:	8b 55 fc             	mov    -0x4(%rbp),%edx
    ddd1:	48 8d 35 3d 3d 00 00 	lea    0x3d3d(%rip),%rsi        # 11b15 <g_905+0x1a85>
    ddd8:	48 89 c7             	mov    %rax,%rdi
    dddb:	e8 13 89 ff ff       	callq  66f3 <transparent_crc>
    dde0:	83 7d fc 00          	cmpl   $0x0,-0x4(%rbp)
    dde4:	74 16                	je     ddfc <main+0x185>
    dde6:	8b 45 f0             	mov    -0x10(%rbp),%eax
    dde9:	89 c6                	mov    %eax,%esi
    ddeb:	48 8d 3d 2b 3d 00 00 	lea    0x3d2b(%rip),%rdi        # 11b1d <g_905+0x1a8d>
    ddf2:	b8 00 00 00 00       	mov    $0x0,%eax
    ddf7:	e8 84 72 ff ff       	callq  5080 <printf@plt>
    ddfc:	83 45 f0 01          	addl   $0x1,-0x10(%rbp)
    de00:	83 7d f0 03          	cmpl   $0x3,-0x10(%rbp)
    de04:	7e af                	jle    ddb5 <main+0x13e>
    de06:	8b 05 74 72 00 00    	mov    0x7274(%rip),%eax        # 15080 <g_46>
    de0c:	48 98                	cltq   
    de0e:	8b 55 fc             	mov    -0x4(%rbp),%edx
    de11:	48 8d 35 13 3d 00 00 	lea    0x3d13(%rip),%rsi        # 11b2b <g_905+0x1a9b>
    de18:	48 89 c7             	mov    %rax,%rdi
    de1b:	e8 d3 88 ff ff       	callq  66f3 <transparent_crc>
    de20:	8b 05 5e 72 00 00    	mov    0x725e(%rip),%eax        # 15084 <g_48>
    de26:	48 98                	cltq   
    de28:	8b 55 fc             	mov    -0x4(%rbp),%edx
    de2b:	48 8d 35 fe 3c 00 00 	lea    0x3cfe(%rip),%rsi        # 11b30 <g_905+0x1aa0>
    de32:	48 89 c7             	mov    %rax,%rdi
    de35:	e8 b9 88 ff ff       	callq  66f3 <transparent_crc>
    de3a:	c7 45 f0 00 00 00 00 	movl   $0x0,-0x10(%rbp)
    de41:	eb 4a                	jmp    de8d <main+0x216>
    de43:	8b 45 f0             	mov    -0x10(%rbp),%eax
    de46:	48 98                	cltq   
    de48:	48 8d 14 c5 00 00 00 	lea    0x0(,%rax,8),%rdx
    de4f:	00 
    de50:	48 8d 05 39 72 00 00 	lea    0x7239(%rip),%rax        # 15090 <g_64>
    de57:	48 8b 04 02          	mov    (%rdx,%rax,1),%rax
    de5b:	8b 55 fc             	mov    -0x4(%rbp),%edx
    de5e:	48 8d 35 d0 3c 00 00 	lea    0x3cd0(%rip),%rsi        # 11b35 <g_905+0x1aa5>
    de65:	48 89 c7             	mov    %rax,%rdi
    de68:	e8 86 88 ff ff       	callq  66f3 <transparent_crc>
    de6d:	83 7d fc 00          	cmpl   $0x0,-0x4(%rbp)
    de71:	74 16                	je     de89 <main+0x212>
    de73:	8b 45 f0             	mov    -0x10(%rbp),%eax
    de76:	89 c6                	mov    %eax,%esi
    de78:	48 8d 3d 9e 3c 00 00 	lea    0x3c9e(%rip),%rdi        # 11b1d <g_905+0x1a8d>
    de7f:	b8 00 00 00 00       	mov    $0x0,%eax
    de84:	e8 f7 71 ff ff       	callq  5080 <printf@plt>
    de89:	83 45 f0 01          	addl   $0x1,-0x10(%rbp)
    de8d:	83 7d f0 02          	cmpl   $0x2,-0x10(%rbp)
    de91:	7e b0                	jle    de43 <main+0x1cc>
    de93:	c7 45 f0 00 00 00 00 	movl   $0x0,-0x10(%rbp)
    de9a:	e9 ad 00 00 00       	jmpq   df4c <main+0x2d5>
    de9f:	c7 45 f4 00 00 00 00 	movl   $0x0,-0xc(%rbp)
    dea6:	e9 93 00 00 00       	jmpq   df3e <main+0x2c7>
    deab:	c7 45 f8 00 00 00 00 	movl   $0x0,-0x8(%rbp)
    deb2:	eb 7c                	jmp    df30 <main+0x2b9>
    deb4:	8b 45 f8             	mov    -0x8(%rbp),%eax
    deb7:	48 63 f0             	movslq %eax,%rsi
    deba:	8b 45 f0             	mov    -0x10(%rbp),%eax
    debd:	48 63 d0             	movslq %eax,%rdx
    dec0:	8b 45 f4             	mov    -0xc(%rbp),%eax
    dec3:	48 63 c8             	movslq %eax,%rcx
    dec6:	48 89 d0             	mov    %rdx,%rax
    dec9:	48 c1 e0 04          	shl    $0x4,%rax
    decd:	48 29 d0             	sub    %rdx,%rax
    ded0:	48 01 c0             	add    %rax,%rax
    ded3:	48 89 ca             	mov    %rcx,%rdx
    ded6:	48 01 d2             	add    %rdx,%rdx
    ded9:	48 01 ca             	add    %rcx,%rdx
    dedc:	48 01 d0             	add    %rdx,%rax
    dedf:	48 01 f0             	add    %rsi,%rax
    dee2:	48 8d 14 85 00 00 00 	lea    0x0(,%rax,4),%rdx
    dee9:	00 
    deea:	48 8d 05 cf 71 00 00 	lea    0x71cf(%rip),%rax        # 150c0 <g_90>
    def1:	0f b6 04 02          	movzbl (%rdx,%rax,1),%eax
    def5:	0f b6 c0             	movzbl %al,%eax
    def8:	8b 55 fc             	mov    -0x4(%rbp),%edx
    defb:	48 8d 35 3b 3c 00 00 	lea    0x3c3b(%rip),%rsi        # 11b3d <g_905+0x1aad>
    df02:	48 89 c7             	mov    %rax,%rdi
    df05:	e8 e9 87 ff ff       	callq  66f3 <transparent_crc>
    df0a:	83 7d fc 00          	cmpl   $0x0,-0x4(%rbp)
    df0e:	74 1c                	je     df2c <main+0x2b5>
    df10:	8b 4d f8             	mov    -0x8(%rbp),%ecx
    df13:	8b 55 f4             	mov    -0xc(%rbp),%edx
    df16:	8b 45 f0             	mov    -0x10(%rbp),%eax
    df19:	89 c6                	mov    %eax,%esi
    df1b:	48 8d 3d 2c 3c 00 00 	lea    0x3c2c(%rip),%rdi        # 11b4e <g_905+0x1abe>
    df22:	b8 00 00 00 00       	mov    $0x0,%eax
    df27:	e8 54 71 ff ff       	callq  5080 <printf@plt>
    df2c:	83 45 f8 01          	addl   $0x1,-0x8(%rbp)
    df30:	83 7d f8 02          	cmpl   $0x2,-0x8(%rbp)
    df34:	0f 8e 7a ff ff ff    	jle    deb4 <main+0x23d>
    df3a:	83 45 f4 01          	addl   $0x1,-0xc(%rbp)
    df3e:	83 7d f4 09          	cmpl   $0x9,-0xc(%rbp)
    df42:	0f 8e 63 ff ff ff    	jle    deab <main+0x234>
    df48:	83 45 f0 01          	addl   $0x1,-0x10(%rbp)
    df4c:	83 7d f0 06          	cmpl   $0x6,-0x10(%rbp)
    df50:	0f 8e 49 ff ff ff    	jle    de9f <main+0x228>
    df56:	0f b7 05 ab 74 00 00 	movzwl 0x74ab(%rip),%eax        # 15408 <g_93>
    df5d:	0f b7 c0             	movzwl %ax,%eax
    df60:	8b 55 fc             	mov    -0x4(%rbp),%edx
    df63:	48 8d 35 fa 3b 00 00 	lea    0x3bfa(%rip),%rsi        # 11b64 <g_905+0x1ad4>
    df6a:	48 89 c7             	mov    %rax,%rdi
    df6d:	e8 81 87 ff ff       	callq  66f3 <transparent_crc>
    df72:	0f b6 05 93 74 00 00 	movzbl 0x7493(%rip),%eax        # 1540c <g_100>
    df79:	0f b6 c0             	movzbl %al,%eax
    df7c:	8b 55 fc             	mov    -0x4(%rbp),%edx
    df7f:	48 8d 35 e6 3b 00 00 	lea    0x3be6(%rip),%rsi        # 11b6c <g_905+0x1adc>
    df86:	48 89 c7             	mov    %rax,%rdi
    df89:	e8 65 87 ff ff       	callq  66f3 <transparent_crc>
    df8e:	c7 45 f0 00 00 00 00 	movl   $0x0,-0x10(%rbp)
    df95:	e9 ba 00 00 00       	jmpq   e054 <main+0x3dd>
    df9a:	c7 45 f4 00 00 00 00 	movl   $0x0,-0xc(%rbp)
    dfa1:	e9 a0 00 00 00       	jmpq   e046 <main+0x3cf>
    dfa6:	c7 45 f8 00 00 00 00 	movl   $0x0,-0x8(%rbp)
    dfad:	e9 86 00 00 00       	jmpq   e038 <main+0x3c1>
    dfb2:	8b 45 f8             	mov    -0x8(%rbp),%eax
    dfb5:	48 63 f0             	movslq %eax,%rsi
    dfb8:	8b 45 f0             	mov    -0x10(%rbp),%eax
    dfbb:	48 63 d0             	movslq %eax,%rdx
    dfbe:	8b 45 f4             	mov    -0xc(%rbp),%eax
    dfc1:	48 63 c8             	movslq %eax,%rcx
    dfc4:	48 89 d0             	mov    %rdx,%rax
    dfc7:	48 01 c0             	add    %rax,%rax
    dfca:	48 01 d0             	add    %rdx,%rax
    dfcd:	48 8d 14 c5 00 00 00 	lea    0x0(,%rax,8),%rdx
    dfd4:	00 
    dfd5:	48 01 d0             	add    %rdx,%rax
    dfd8:	48 89 ca             	mov    %rcx,%rdx
    dfdb:	48 c1 e2 03          	shl    $0x3,%rdx
    dfdf:	48 01 ca             	add    %rcx,%rdx
    dfe2:	48 01 d0             	add    %rdx,%rax
    dfe5:	48 01 f0             	add    %rsi,%rax
    dfe8:	48 8d 14 c5 00 00 00 	lea    0x0(,%rax,8),%rdx
    dfef:	00 
    dff0:	48 8d 05 29 74 00 00 	lea    0x7429(%rip),%rax        # 15420 <g_102>
    dff7:	48 8b 04 02          	mov    (%rdx,%rax,1),%rax
    dffb:	48 89 c1             	mov    %rax,%rcx
    dffe:	8b 45 fc             	mov    -0x4(%rbp),%eax
    e001:	89 c2                	mov    %eax,%edx
    e003:	48 8d 35 68 3b 00 00 	lea    0x3b68(%rip),%rsi        # 11b72 <g_905+0x1ae2>
    e00a:	48 89 cf             	mov    %rcx,%rdi
    e00d:	e8 e1 86 ff ff       	callq  66f3 <transparent_crc>
    e012:	83 7d fc 00          	cmpl   $0x0,-0x4(%rbp)
    e016:	74 1c                	je     e034 <main+0x3bd>
    e018:	8b 4d f8             	mov    -0x8(%rbp),%ecx
    e01b:	8b 55 f4             	mov    -0xc(%rbp),%edx
    e01e:	8b 45 f0             	mov    -0x10(%rbp),%eax
    e021:	89 c6                	mov    %eax,%esi
    e023:	48 8d 3d 24 3b 00 00 	lea    0x3b24(%rip),%rdi        # 11b4e <g_905+0x1abe>
    e02a:	b8 00 00 00 00       	mov    $0x0,%eax
    e02f:	e8 4c 70 ff ff       	callq  5080 <printf@plt>
    e034:	83 45 f8 01          	addl   $0x1,-0x8(%rbp)
    e038:	83 7d f8 08          	cmpl   $0x8,-0x8(%rbp)
    e03c:	0f 8e 70 ff ff ff    	jle    dfb2 <main+0x33b>
    e042:	83 45 f4 01          	addl   $0x1,-0xc(%rbp)
    e046:	83 7d f4 02          	cmpl   $0x2,-0xc(%rbp)
    e04a:	0f 8e 56 ff ff ff    	jle    dfa6 <main+0x32f>
    e050:	83 45 f0 01          	addl   $0x1,-0x10(%rbp)
    e054:	83 7d f0 07          	cmpl   $0x7,-0x10(%rbp)
    e058:	0f 8e 3c ff ff ff    	jle    df9a <main+0x323>
    e05e:	c7 45 f0 00 00 00 00 	movl   $0x0,-0x10(%rbp)
    e065:	eb 4a                	jmp    e0b1 <main+0x43a>
    e067:	8b 45 f0             	mov    -0x10(%rbp),%eax
    e06a:	48 98                	cltq   
    e06c:	48 8d 14 c5 00 00 00 	lea    0x0(,%rax,8),%rdx
    e073:	00 
    e074:	48 8d 05 65 7a 00 00 	lea    0x7a65(%rip),%rax        # 15ae0 <g_119>
    e07b:	48 8b 04 02          	mov    (%rdx,%rax,1),%rax
    e07f:	8b 55 fc             	mov    -0x4(%rbp),%edx
    e082:	48 8d 35 f8 3a 00 00 	lea    0x3af8(%rip),%rsi        # 11b81 <g_905+0x1af1>
    e089:	48 89 c7             	mov    %rax,%rdi
    e08c:	e8 62 86 ff ff       	callq  66f3 <transparent_crc>
    e091:	83 7d fc 00          	cmpl   $0x0,-0x4(%rbp)
    e095:	74 16                	je     e0ad <main+0x436>
    e097:	8b 45 f0             	mov    -0x10(%rbp),%eax
    e09a:	89 c6                	mov    %eax,%esi
    e09c:	48 8d 3d 7a 3a 00 00 	lea    0x3a7a(%rip),%rdi        # 11b1d <g_905+0x1a8d>
    e0a3:	b8 00 00 00 00       	mov    $0x0,%eax
    e0a8:	e8 d3 6f ff ff       	callq  5080 <printf@plt>
    e0ad:	83 45 f0 01          	addl   $0x1,-0x10(%rbp)
    e0b1:	83 7d f0 06          	cmpl   $0x6,-0x10(%rbp)
    e0b5:	7e b0                	jle    e067 <main+0x3f0>
    e0b7:	0f b7 05 5a 7a 00 00 	movzwl 0x7a5a(%rip),%eax        # 15b18 <g_126>
    e0be:	0f b7 c0             	movzwl %ax,%eax
    e0c1:	8b 55 fc             	mov    -0x4(%rbp),%edx
    e0c4:	48 8d 35 c2 3a 00 00 	lea    0x3ac2(%rip),%rsi        # 11b8d <g_905+0x1afd>
    e0cb:	48 89 c7             	mov    %rax,%rdi
    e0ce:	e8 20 86 ff ff       	callq  66f3 <transparent_crc>
    e0d3:	0f b6 05 40 7a 00 00 	movzbl 0x7a40(%rip),%eax        # 15b1a <g_132>
    e0da:	48 0f be c0          	movsbq %al,%rax
    e0de:	8b 55 fc             	mov    -0x4(%rbp),%edx
    e0e1:	48 8d 35 ab 3a 00 00 	lea    0x3aab(%rip),%rsi        # 11b93 <g_905+0x1b03>
    e0e8:	48 89 c7             	mov    %rax,%rdi
    e0eb:	e8 03 86 ff ff       	callq  66f3 <transparent_crc>
    e0f0:	8b 05 92 a6 00 00    	mov    0xa692(%rip),%eax        # 18788 <g_133>
    e0f6:	89 c1                	mov    %eax,%ecx
    e0f8:	8b 45 fc             	mov    -0x4(%rbp),%eax
    e0fb:	89 c2                	mov    %eax,%edx
    e0fd:	48 8d 35 95 3a 00 00 	lea    0x3a95(%rip),%rsi        # 11b99 <g_905+0x1b09>
    e104:	48 89 cf             	mov    %rcx,%rdi
    e107:	e8 e7 85 ff ff       	callq  66f3 <transparent_crc>
    e10c:	c7 45 f0 00 00 00 00 	movl   $0x0,-0x10(%rbp)
    e113:	eb 4f                	jmp    e164 <main+0x4ed>
    e115:	8b 45 f0             	mov    -0x10(%rbp),%eax
    e118:	48 98                	cltq   
    e11a:	48 8d 14 c5 00 00 00 	lea    0x0(,%rax,8),%rdx
    e121:	00 
    e122:	48 8d 05 37 1f 00 00 	lea    0x1f37(%rip),%rax        # 10060 <g_146>
    e129:	48 8b 04 02          	mov    (%rdx,%rax,1),%rax
    e12d:	48 89 c1             	mov    %rax,%rcx
    e130:	8b 45 fc             	mov    -0x4(%rbp),%eax
    e133:	89 c2                	mov    %eax,%edx
    e135:	48 8d 35 63 3a 00 00 	lea    0x3a63(%rip),%rsi        # 11b9f <g_905+0x1b0f>
    e13c:	48 89 cf             	mov    %rcx,%rdi
    e13f:	e8 af 85 ff ff       	callq  66f3 <transparent_crc>
    e144:	83 7d fc 00          	cmpl   $0x0,-0x4(%rbp)
    e148:	74 16                	je     e160 <main+0x4e9>
    e14a:	8b 45 f0             	mov    -0x10(%rbp),%eax
    e14d:	89 c6                	mov    %eax,%esi
    e14f:	48 8d 3d c7 39 00 00 	lea    0x39c7(%rip),%rdi        # 11b1d <g_905+0x1a8d>
    e156:	b8 00 00 00 00       	mov    $0x0,%eax
    e15b:	e8 20 6f ff ff       	callq  5080 <printf@plt>
    e160:	83 45 f0 01          	addl   $0x1,-0x10(%rbp)
    e164:	83 7d f0 03          	cmpl   $0x3,-0x10(%rbp)
    e168:	7e ab                	jle    e115 <main+0x49e>
    e16a:	8b 05 ac 79 00 00    	mov    0x79ac(%rip),%eax        # 15b1c <g_155>
    e170:	89 c1                	mov    %eax,%ecx
    e172:	8b 45 fc             	mov    -0x4(%rbp),%eax
    e175:	89 c2                	mov    %eax,%edx
    e177:	48 8d 35 2a 3a 00 00 	lea    0x3a2a(%rip),%rsi        # 11ba8 <g_905+0x1b18>
    e17e:	48 89 cf             	mov    %rcx,%rdi
    e181:	e8 6d 85 ff ff       	callq  66f3 <transparent_crc>
    e186:	48 8b 05 93 79 00 00 	mov    0x7993(%rip),%rax        # 15b20 <g_172>
    e18d:	8b 55 fc             	mov    -0x4(%rbp),%edx
    e190:	48 8d 35 17 3a 00 00 	lea    0x3a17(%rip),%rsi        # 11bae <g_905+0x1b1e>
    e197:	48 89 c7             	mov    %rax,%rdi
    e19a:	e8 54 85 ff ff       	callq  66f3 <transparent_crc>
    e19f:	0f b7 05 82 79 00 00 	movzwl 0x7982(%rip),%eax        # 15b28 <g_202>
    e1a6:	48 0f bf c0          	movswq %ax,%rax
    e1aa:	8b 55 fc             	mov    -0x4(%rbp),%edx
    e1ad:	48 8d 35 03 3a 00 00 	lea    0x3a03(%rip),%rsi        # 11bb7 <g_905+0x1b27>
    e1b4:	48 89 c7             	mov    %rax,%rdi
    e1b7:	e8 37 85 ff ff       	callq  66f3 <transparent_crc>
    e1bc:	8b 05 6a 79 00 00    	mov    0x796a(%rip),%eax        # 15b2c <g_211>
    e1c2:	83 e0 7f             	and    $0x7f,%eax
    e1c5:	0f b6 c0             	movzbl %al,%eax
    e1c8:	8b 55 fc             	mov    -0x4(%rbp),%edx
    e1cb:	48 8d 35 eb 39 00 00 	lea    0x39eb(%rip),%rsi        # 11bbd <g_905+0x1b2d>
    e1d2:	48 89 c7             	mov    %rax,%rdi
    e1d5:	e8 19 85 ff ff       	callq  66f3 <transparent_crc>
    e1da:	c7 45 f0 00 00 00 00 	movl   $0x0,-0x10(%rbp)
    e1e1:	e9 b7 00 00 00       	jmpq   e29d <main+0x626>
    e1e6:	c7 45 f4 00 00 00 00 	movl   $0x0,-0xc(%rbp)
    e1ed:	e9 9d 00 00 00       	jmpq   e28f <main+0x618>
    e1f2:	c7 45 f8 00 00 00 00 	movl   $0x0,-0x8(%rbp)
    e1f9:	e9 83 00 00 00       	jmpq   e281 <main+0x60a>
    e1fe:	8b 45 f8             	mov    -0x8(%rbp),%eax
    e201:	48 63 f0             	movslq %eax,%rsi
    e204:	8b 45 f0             	mov    -0x10(%rbp),%eax
    e207:	48 98                	cltq   
    e209:	8b 55 f4             	mov    -0xc(%rbp),%edx
    e20c:	48 63 ca             	movslq %edx,%rcx
    e20f:	48 89 c2             	mov    %rax,%rdx
    e212:	48 c1 e2 04          	shl    $0x4,%rdx
    e216:	48 29 c2             	sub    %rax,%rdx
    e219:	48 8d 04 12          	lea    (%rdx,%rdx,1),%rax
    e21d:	48 89 c2             	mov    %rax,%rdx
    e220:	48 89 c8             	mov    %rcx,%rax
    e223:	48 01 c0             	add    %rax,%rax
    e226:	48 01 c8             	add    %rcx,%rax
    e229:	48 01 c0             	add    %rax,%rax
    e22c:	48 01 d0             	add    %rdx,%rax
    e22f:	48 01 f0             	add    %rsi,%rax
    e232:	48 8d 14 85 00 00 00 	lea    0x0(,%rax,4),%rdx
    e239:	00 
    e23a:	48 8d 05 ff 78 00 00 	lea    0x78ff(%rip),%rax        # 15b40 <g_221>
    e241:	0f b6 04 02          	movzbl (%rdx,%rax,1),%eax
    e245:	48 0f be c0          	movsbq %al,%rax
    e249:	8b 55 fc             	mov    -0x4(%rbp),%edx
    e24c:	48 8d 35 73 39 00 00 	lea    0x3973(%rip),%rsi        # 11bc6 <g_905+0x1b36>
    e253:	48 89 c7             	mov    %rax,%rdi
    e256:	e8 98 84 ff ff       	callq  66f3 <transparent_crc>
    e25b:	83 7d fc 00          	cmpl   $0x0,-0x4(%rbp)
    e25f:	74 1c                	je     e27d <main+0x606>
    e261:	8b 4d f8             	mov    -0x8(%rbp),%ecx
    e264:	8b 55 f4             	mov    -0xc(%rbp),%edx
    e267:	8b 45 f0             	mov    -0x10(%rbp),%eax
    e26a:	89 c6                	mov    %eax,%esi
    e26c:	48 8d 3d db 38 00 00 	lea    0x38db(%rip),%rdi        # 11b4e <g_905+0x1abe>
    e273:	b8 00 00 00 00       	mov    $0x0,%eax
    e278:	e8 03 6e ff ff       	callq  5080 <printf@plt>
    e27d:	83 45 f8 01          	addl   $0x1,-0x8(%rbp)
    e281:	83 7d f8 05          	cmpl   $0x5,-0x8(%rbp)
    e285:	0f 8e 73 ff ff ff    	jle    e1fe <main+0x587>
    e28b:	83 45 f4 01          	addl   $0x1,-0xc(%rbp)
    e28f:	83 7d f4 04          	cmpl   $0x4,-0xc(%rbp)
    e293:	0f 8e 59 ff ff ff    	jle    e1f2 <main+0x57b>
    e299:	83 45 f0 01          	addl   $0x1,-0x10(%rbp)
    e29d:	83 7d f0 07          	cmpl   $0x7,-0x10(%rbp)
    e2a1:	0f 8e 3f ff ff ff    	jle    e1e6 <main+0x56f>
    e2a7:	0f b6 05 52 7c 00 00 	movzbl 0x7c52(%rip),%eax        # 15f00 <g_226>
    e2ae:	48 0f be c0          	movsbq %al,%rax
    e2b2:	8b 55 fc             	mov    -0x4(%rbp),%edx
    e2b5:	48 8d 35 1c 39 00 00 	lea    0x391c(%rip),%rsi        # 11bd8 <g_905+0x1b48>
    e2bc:	48 89 c7             	mov    %rax,%rdi
    e2bf:	e8 2f 84 ff ff       	callq  66f3 <transparent_crc>
    e2c4:	0f b7 05 55 7c 00 00 	movzwl 0x7c55(%rip),%eax        # 15f20 <g_230>
    e2cb:	48 0f bf c0          	movswq %ax,%rax
    e2cf:	8b 55 fc             	mov    -0x4(%rbp),%edx
    e2d2:	48 8d 35 08 39 00 00 	lea    0x3908(%rip),%rsi        # 11be1 <g_905+0x1b51>
    e2d9:	48 89 c7             	mov    %rax,%rdi
    e2dc:	e8 12 84 ff ff       	callq  66f3 <transparent_crc>
    e2e1:	8b 05 3d 7c 00 00    	mov    0x7c3d(%rip),%eax        # 15f24 <g_230+0x4>
    e2e7:	48 98                	cltq   
    e2e9:	8b 55 fc             	mov    -0x4(%rbp),%edx
    e2ec:	48 8d 35 f7 38 00 00 	lea    0x38f7(%rip),%rsi        # 11bea <g_905+0x1b5a>
    e2f3:	48 89 c7             	mov    %rax,%rdi
    e2f6:	e8 f8 83 ff ff       	callq  66f3 <transparent_crc>
    e2fb:	0f b6 05 26 7c 00 00 	movzbl 0x7c26(%rip),%eax        # 15f28 <g_230+0x8>
    e302:	48 0f be c0          	movsbq %al,%rax
    e306:	8b 55 fc             	mov    -0x4(%rbp),%edx
    e309:	48 8d 35 e3 38 00 00 	lea    0x38e3(%rip),%rsi        # 11bf3 <g_905+0x1b63>
    e310:	48 89 c7             	mov    %rax,%rdi
    e313:	e8 db 83 ff ff       	callq  66f3 <transparent_crc>
    e318:	8b 05 0e 7c 00 00    	mov    0x7c0e(%rip),%eax        # 15f2c <g_230+0xc>
    e31e:	89 c1                	mov    %eax,%ecx
    e320:	8b 45 fc             	mov    -0x4(%rbp),%eax
    e323:	89 c2                	mov    %eax,%edx
    e325:	48 8d 35 d0 38 00 00 	lea    0x38d0(%rip),%rsi        # 11bfc <g_905+0x1b6c>
    e32c:	48 89 cf             	mov    %rcx,%rdi
    e32f:	e8 bf 83 ff ff       	callq  66f3 <transparent_crc>
    e334:	48 8b 05 f5 7b 00 00 	mov    0x7bf5(%rip),%rax        # 15f30 <g_230+0x10>
    e33b:	25 ff ff ff 7f       	and    $0x7fffffff,%eax
    e340:	89 c1                	mov    %eax,%ecx
    e342:	8b 45 fc             	mov    -0x4(%rbp),%eax
    e345:	89 c2                	mov    %eax,%edx
    e347:	48 8d 35 b7 38 00 00 	lea    0x38b7(%rip),%rsi        # 11c05 <g_905+0x1b75>
    e34e:	48 89 cf             	mov    %rcx,%rdi
    e351:	e8 9d 83 ff ff       	callq  66f3 <transparent_crc>
    e356:	8b 05 d8 7b 00 00    	mov    0x7bd8(%rip),%eax        # 15f34 <g_230+0x14>
    e35c:	48 98                	cltq   
    e35e:	8b 55 fc             	mov    -0x4(%rbp),%edx
    e361:	48 8d 35 a6 38 00 00 	lea    0x38a6(%rip),%rsi        # 11c0e <g_905+0x1b7e>
    e368:	48 89 c7             	mov    %rax,%rdi
    e36b:	e8 83 83 ff ff       	callq  66f3 <transparent_crc>
    e370:	48 8b 05 c1 7b 00 00 	mov    0x7bc1(%rip),%rax        # 15f38 <g_230+0x18>
    e377:	48 89 c1             	mov    %rax,%rcx
    e37a:	8b 45 fc             	mov    -0x4(%rbp),%eax
    e37d:	89 c2                	mov    %eax,%edx
    e37f:	48 8d 35 91 38 00 00 	lea    0x3891(%rip),%rsi        # 11c17 <g_905+0x1b87>
    e386:	48 89 cf             	mov    %rcx,%rdi
    e389:	e8 65 83 ff ff       	callq  66f3 <transparent_crc>
    e38e:	48 8b 05 b3 7b 00 00 	mov    0x7bb3(%rip),%rax        # 15f48 <g_286>
    e395:	48 89 c1             	mov    %rax,%rcx
    e398:	8b 45 fc             	mov    -0x4(%rbp),%eax
    e39b:	89 c2                	mov    %eax,%edx
    e39d:	48 8d 35 7c 38 00 00 	lea    0x387c(%rip),%rsi        # 11c20 <g_905+0x1b90>
    e3a4:	48 89 cf             	mov    %rcx,%rdi
    e3a7:	e8 47 83 ff ff       	callq  66f3 <transparent_crc>
    e3ac:	0f b7 05 9d 7b 00 00 	movzwl 0x7b9d(%rip),%eax        # 15f50 <g_296>
    e3b3:	0f b7 c0             	movzwl %ax,%eax
    e3b6:	8b 55 fc             	mov    -0x4(%rbp),%edx
    e3b9:	48 8d 35 66 38 00 00 	lea    0x3866(%rip),%rsi        # 11c26 <g_905+0x1b96>
    e3c0:	48 89 c7             	mov    %rax,%rdi
    e3c3:	e8 2b 83 ff ff       	callq  66f3 <transparent_crc>
    e3c8:	c7 45 f0 00 00 00 00 	movl   $0x0,-0x10(%rbp)
    e3cf:	eb 4b                	jmp    e41c <main+0x7a5>
    e3d1:	8b 45 f0             	mov    -0x10(%rbp),%eax
    e3d4:	48 98                	cltq   
    e3d6:	48 8d 14 85 00 00 00 	lea    0x0(,%rax,4),%rdx
    e3dd:	00 
    e3de:	48 8d 05 7b 7b 00 00 	lea    0x7b7b(%rip),%rax        # 15f60 <g_315>
    e3e5:	8b 04 02             	mov    (%rdx,%rax,1),%eax
    e3e8:	48 98                	cltq   
    e3ea:	8b 55 fc             	mov    -0x4(%rbp),%edx
    e3ed:	48 8d 35 3b 38 00 00 	lea    0x383b(%rip),%rsi        # 11c2f <g_905+0x1b9f>
    e3f4:	48 89 c7             	mov    %rax,%rdi
    e3f7:	e8 f7 82 ff ff       	callq  66f3 <transparent_crc>
    e3fc:	83 7d fc 00          	cmpl   $0x0,-0x4(%rbp)
    e400:	74 16                	je     e418 <main+0x7a1>
    e402:	8b 45 f0             	mov    -0x10(%rbp),%eax
    e405:	89 c6                	mov    %eax,%esi
    e407:	48 8d 3d 0f 37 00 00 	lea    0x370f(%rip),%rdi        # 11b1d <g_905+0x1a8d>
    e40e:	b8 00 00 00 00       	mov    $0x0,%eax
    e413:	e8 68 6c ff ff       	callq  5080 <printf@plt>
    e418:	83 45 f0 01          	addl   $0x1,-0x10(%rbp)
    e41c:	83 7d f0 07          	cmpl   $0x7,-0x10(%rbp)
    e420:	7e af                	jle    e3d1 <main+0x75a>
    e422:	0f b7 05 57 7b 00 00 	movzwl 0x7b57(%rip),%eax        # 15f80 <g_316>
    e429:	48 0f bf c0          	movswq %ax,%rax
    e42d:	8b 55 fc             	mov    -0x4(%rbp),%edx
    e430:	48 8d 35 01 38 00 00 	lea    0x3801(%rip),%rsi        # 11c38 <g_905+0x1ba8>
    e437:	48 89 c7             	mov    %rax,%rdi
    e43a:	e8 b4 82 ff ff       	callq  66f3 <transparent_crc>
    e43f:	0f b7 05 3a 7b 00 00 	movzwl 0x7b3a(%rip),%eax        # 15f80 <g_316>
    e446:	0f b7 c0             	movzwl %ax,%eax
    e449:	8b 55 fc             	mov    -0x4(%rbp),%edx
    e44c:	48 8d 35 ee 37 00 00 	lea    0x37ee(%rip),%rsi        # 11c41 <g_905+0x1bb1>
    e453:	48 89 c7             	mov    %rax,%rdi
    e456:	e8 98 82 ff ff       	callq  66f3 <transparent_crc>
    e45b:	0f b6 05 1e 7b 00 00 	movzbl 0x7b1e(%rip),%eax        # 15f80 <g_316>
    e462:	0f b6 c0             	movzbl %al,%eax
    e465:	8b 55 fc             	mov    -0x4(%rbp),%edx
    e468:	48 8d 35 db 37 00 00 	lea    0x37db(%rip),%rsi        # 11c4a <g_905+0x1bba>
    e46f:	48 89 c7             	mov    %rax,%rdi
    e472:	e8 7c 82 ff ff       	callq  66f3 <transparent_crc>
    e477:	8b 05 2b a3 00 00    	mov    0xa32b(%rip),%eax        # 187a8 <g_362>
    e47d:	48 98                	cltq   
    e47f:	8b 55 fc             	mov    -0x4(%rbp),%edx
    e482:	48 8d 35 ca 37 00 00 	lea    0x37ca(%rip),%rsi        # 11c53 <g_905+0x1bc3>
    e489:	48 89 c7             	mov    %rax,%rdi
    e48c:	e8 62 82 ff ff       	callq  66f3 <transparent_crc>
    e491:	0f b7 05 14 a3 00 00 	movzwl 0xa314(%rip),%eax        # 187ac <g_372>
    e498:	0f b7 c0             	movzwl %ax,%eax
    e49b:	8b 55 fc             	mov    -0x4(%rbp),%edx
    e49e:	48 8d 35 b4 37 00 00 	lea    0x37b4(%rip),%rsi        # 11c59 <g_905+0x1bc9>
    e4a5:	48 89 c7             	mov    %rax,%rdi
    e4a8:	e8 46 82 ff ff       	callq  66f3 <transparent_crc>
    e4ad:	0f b6 05 d4 1b 00 00 	movzbl 0x1bd4(%rip),%eax        # 10088 <g_383>
    e4b4:	48 0f be c0          	movsbq %al,%rax
    e4b8:	8b 55 fc             	mov    -0x4(%rbp),%edx
    e4bb:	48 8d 35 a0 37 00 00 	lea    0x37a0(%rip),%rsi        # 11c62 <g_905+0x1bd2>
    e4c2:	48 89 c7             	mov    %rax,%rdi
    e4c5:	e8 29 82 ff ff       	callq  66f3 <transparent_crc>
    e4ca:	0f b6 05 b3 7a 00 00 	movzbl 0x7ab3(%rip),%eax        # 15f84 <g_384>
    e4d1:	48 0f be c0          	movsbq %al,%rax
    e4d5:	8b 55 fc             	mov    -0x4(%rbp),%edx
    e4d8:	48 8d 35 8c 37 00 00 	lea    0x378c(%rip),%rsi        # 11c6b <g_905+0x1bdb>
    e4df:	48 89 c7             	mov    %rax,%rdi
    e4e2:	e8 0c 82 ff ff       	callq  66f3 <transparent_crc>
    e4e7:	48 8b 05 9a 7a 00 00 	mov    0x7a9a(%rip),%rax        # 15f88 <g_421>
    e4ee:	8b 55 fc             	mov    -0x4(%rbp),%edx
    e4f1:	48 8d 35 7c 37 00 00 	lea    0x377c(%rip),%rsi        # 11c74 <g_905+0x1be4>
    e4f8:	48 89 c7             	mov    %rax,%rdi
    e4fb:	e8 f3 81 ff ff       	callq  66f3 <transparent_crc>
    e500:	0f b7 05 89 7a 00 00 	movzwl 0x7a89(%rip),%eax        # 15f90 <g_426>
    e507:	0f b7 c0             	movzwl %ax,%eax
    e50a:	8b 55 fc             	mov    -0x4(%rbp),%edx
    e50d:	48 8d 35 66 37 00 00 	lea    0x3766(%rip),%rsi        # 11c7a <g_905+0x1bea>
    e514:	48 89 c7             	mov    %rax,%rdi
    e517:	e8 d7 81 ff ff       	callq  66f3 <transparent_crc>
    e51c:	0f b7 05 7d 7a 00 00 	movzwl 0x7a7d(%rip),%eax        # 15fa0 <g_433>
    e523:	48 0f bf c0          	movswq %ax,%rax
    e527:	8b 55 fc             	mov    -0x4(%rbp),%edx
    e52a:	48 8d 35 4f 37 00 00 	lea    0x374f(%rip),%rsi        # 11c80 <g_905+0x1bf0>
    e531:	48 89 c7             	mov    %rax,%rdi
    e534:	e8 ba 81 ff ff       	callq  66f3 <transparent_crc>
    e539:	8b 05 65 7a 00 00    	mov    0x7a65(%rip),%eax        # 15fa4 <g_433+0x4>
    e53f:	48 98                	cltq   
    e541:	8b 55 fc             	mov    -0x4(%rbp),%edx
    e544:	48 8d 35 3e 37 00 00 	lea    0x373e(%rip),%rsi        # 11c89 <g_905+0x1bf9>
    e54b:	48 89 c7             	mov    %rax,%rdi
    e54e:	e8 a0 81 ff ff       	callq  66f3 <transparent_crc>
    e553:	0f b6 05 4e 7a 00 00 	movzbl 0x7a4e(%rip),%eax        # 15fa8 <g_433+0x8>
    e55a:	48 0f be c0          	movsbq %al,%rax
    e55e:	8b 55 fc             	mov    -0x4(%rbp),%edx
    e561:	48 8d 35 2a 37 00 00 	lea    0x372a(%rip),%rsi        # 11c92 <g_905+0x1c02>
    e568:	48 89 c7             	mov    %rax,%rdi
    e56b:	e8 83 81 ff ff       	callq  66f3 <transparent_crc>
    e570:	8b 05 36 7a 00 00    	mov    0x7a36(%rip),%eax        # 15fac <g_433+0xc>
    e576:	89 c1                	mov    %eax,%ecx
    e578:	8b 45 fc             	mov    -0x4(%rbp),%eax
    e57b:	89 c2                	mov    %eax,%edx
    e57d:	48 8d 35 17 37 00 00 	lea    0x3717(%rip),%rsi        # 11c9b <g_905+0x1c0b>
    e584:	48 89 cf             	mov    %rcx,%rdi
    e587:	e8 67 81 ff ff       	callq  66f3 <transparent_crc>
    e58c:	48 8b 05 1d 7a 00 00 	mov    0x7a1d(%rip),%rax        # 15fb0 <g_433+0x10>
    e593:	25 ff ff ff 7f       	and    $0x7fffffff,%eax
    e598:	89 c1                	mov    %eax,%ecx
    e59a:	8b 45 fc             	mov    -0x4(%rbp),%eax
    e59d:	89 c2                	mov    %eax,%edx
    e59f:	48 8d 35 fe 36 00 00 	lea    0x36fe(%rip),%rsi        # 11ca4 <g_905+0x1c14>
    e5a6:	48 89 cf             	mov    %rcx,%rdi
    e5a9:	e8 45 81 ff ff       	callq  66f3 <transparent_crc>
    e5ae:	8b 05 00 7a 00 00    	mov    0x7a00(%rip),%eax        # 15fb4 <g_433+0x14>
    e5b4:	48 98                	cltq   
    e5b6:	8b 55 fc             	mov    -0x4(%rbp),%edx
    e5b9:	48 8d 35 ed 36 00 00 	lea    0x36ed(%rip),%rsi        # 11cad <g_905+0x1c1d>
    e5c0:	48 89 c7             	mov    %rax,%rdi
    e5c3:	e8 2b 81 ff ff       	callq  66f3 <transparent_crc>
    e5c8:	48 8b 05 e9 79 00 00 	mov    0x79e9(%rip),%rax        # 15fb8 <g_433+0x18>
    e5cf:	48 89 c1             	mov    %rax,%rcx
    e5d2:	8b 45 fc             	mov    -0x4(%rbp),%eax
    e5d5:	89 c2                	mov    %eax,%edx
    e5d7:	48 8d 35 d8 36 00 00 	lea    0x36d8(%rip),%rsi        # 11cb6 <g_905+0x1c26>
    e5de:	48 89 cf             	mov    %rcx,%rdi
    e5e1:	e8 0d 81 ff ff       	callq  66f3 <transparent_crc>
    e5e6:	0f b7 05 d3 79 00 00 	movzwl 0x79d3(%rip),%eax        # 15fc0 <g_447>
    e5ed:	48 0f bf c0          	movswq %ax,%rax
    e5f1:	8b 55 fc             	mov    -0x4(%rbp),%edx
    e5f4:	48 8d 35 c4 36 00 00 	lea    0x36c4(%rip),%rsi        # 11cbf <g_905+0x1c2f>
    e5fb:	48 89 c7             	mov    %rax,%rdi
    e5fe:	e8 f0 80 ff ff       	callq  66f3 <transparent_crc>
    e603:	8b 05 bb 79 00 00    	mov    0x79bb(%rip),%eax        # 15fc4 <g_447+0x4>
    e609:	48 98                	cltq   
    e60b:	8b 55 fc             	mov    -0x4(%rbp),%edx
    e60e:	48 8d 35 b3 36 00 00 	lea    0x36b3(%rip),%rsi        # 11cc8 <g_905+0x1c38>
    e615:	48 89 c7             	mov    %rax,%rdi
    e618:	e8 d6 80 ff ff       	callq  66f3 <transparent_crc>
    e61d:	0f b6 05 a4 79 00 00 	movzbl 0x79a4(%rip),%eax        # 15fc8 <g_447+0x8>
    e624:	48 0f be c0          	movsbq %al,%rax
    e628:	8b 55 fc             	mov    -0x4(%rbp),%edx
    e62b:	48 8d 35 9f 36 00 00 	lea    0x369f(%rip),%rsi        # 11cd1 <g_905+0x1c41>
    e632:	48 89 c7             	mov    %rax,%rdi
    e635:	e8 b9 80 ff ff       	callq  66f3 <transparent_crc>
    e63a:	8b 05 8c 79 00 00    	mov    0x798c(%rip),%eax        # 15fcc <g_447+0xc>
    e640:	89 c1                	mov    %eax,%ecx
    e642:	8b 45 fc             	mov    -0x4(%rbp),%eax
    e645:	89 c2                	mov    %eax,%edx
    e647:	48 8d 35 8c 36 00 00 	lea    0x368c(%rip),%rsi        # 11cda <g_905+0x1c4a>
    e64e:	48 89 cf             	mov    %rcx,%rdi
    e651:	e8 9d 80 ff ff       	callq  66f3 <transparent_crc>
    e656:	48 8b 05 73 79 00 00 	mov    0x7973(%rip),%rax        # 15fd0 <g_447+0x10>
    e65d:	25 ff ff ff 7f       	and    $0x7fffffff,%eax
    e662:	89 c1                	mov    %eax,%ecx
    e664:	8b 45 fc             	mov    -0x4(%rbp),%eax
    e667:	89 c2                	mov    %eax,%edx
    e669:	48 8d 35 73 36 00 00 	lea    0x3673(%rip),%rsi        # 11ce3 <g_905+0x1c53>
    e670:	48 89 cf             	mov    %rcx,%rdi
    e673:	e8 7b 80 ff ff       	callq  66f3 <transparent_crc>
    e678:	8b 05 56 79 00 00    	mov    0x7956(%rip),%eax        # 15fd4 <g_447+0x14>
    e67e:	48 98                	cltq   
    e680:	8b 55 fc             	mov    -0x4(%rbp),%edx
    e683:	48 8d 35 62 36 00 00 	lea    0x3662(%rip),%rsi        # 11cec <g_905+0x1c5c>
    e68a:	48 89 c7             	mov    %rax,%rdi
    e68d:	e8 61 80 ff ff       	callq  66f3 <transparent_crc>
    e692:	48 8b 05 3f 79 00 00 	mov    0x793f(%rip),%rax        # 15fd8 <g_447+0x18>
    e699:	48 89 c1             	mov    %rax,%rcx
    e69c:	8b 45 fc             	mov    -0x4(%rbp),%eax
    e69f:	89 c2                	mov    %eax,%edx
    e6a1:	48 8d 35 4d 36 00 00 	lea    0x364d(%rip),%rsi        # 11cf5 <g_905+0x1c65>
    e6a8:	48 89 cf             	mov    %rcx,%rdi
    e6ab:	e8 43 80 ff ff       	callq  66f3 <transparent_crc>
    e6b0:	8b 05 2a 79 00 00    	mov    0x792a(%rip),%eax        # 15fe0 <g_461>
    e6b6:	89 c1                	mov    %eax,%ecx
    e6b8:	8b 45 fc             	mov    -0x4(%rbp),%eax
    e6bb:	89 c2                	mov    %eax,%edx
    e6bd:	48 8d 35 3a 36 00 00 	lea    0x363a(%rip),%rsi        # 11cfe <g_905+0x1c6e>
    e6c4:	48 89 cf             	mov    %rcx,%rdi
    e6c7:	e8 27 80 ff ff       	callq  66f3 <transparent_crc>
    e6cc:	8b 05 de a0 00 00    	mov    0xa0de(%rip),%eax        # 187b0 <g_476>
    e6d2:	83 e0 7f             	and    $0x7f,%eax
    e6d5:	0f b6 c0             	movzbl %al,%eax
    e6d8:	8b 55 fc             	mov    -0x4(%rbp),%edx
    e6db:	48 8d 35 22 36 00 00 	lea    0x3622(%rip),%rsi        # 11d04 <g_905+0x1c74>
    e6e2:	48 89 c7             	mov    %rax,%rdi
    e6e5:	e8 09 80 ff ff       	callq  66f3 <transparent_crc>
    e6ea:	c7 45 f0 00 00 00 00 	movl   $0x0,-0x10(%rbp)
    e6f1:	e9 b8 00 00 00       	jmpq   e7ae <main+0xb37>
    e6f6:	c7 45 f4 00 00 00 00 	movl   $0x0,-0xc(%rbp)
    e6fd:	e9 9e 00 00 00       	jmpq   e7a0 <main+0xb29>
    e702:	c7 45 f8 00 00 00 00 	movl   $0x0,-0x8(%rbp)
    e709:	e9 84 00 00 00       	jmpq   e792 <main+0xb1b>
    e70e:	8b 45 f8             	mov    -0x8(%rbp),%eax
    e711:	48 63 f0             	movslq %eax,%rsi
    e714:	8b 45 f0             	mov    -0x10(%rbp),%eax
    e717:	48 98                	cltq   
    e719:	8b 55 f4             	mov    -0xc(%rbp),%edx
    e71c:	48 63 ca             	movslq %edx,%rcx
    e71f:	48 89 c2             	mov    %rax,%rdx
    e722:	48 c1 e2 04          	shl    $0x4,%rdx
    e726:	48 29 c2             	sub    %rax,%rdx
    e729:	48 8d 04 12          	lea    (%rdx,%rdx,1),%rax
    e72d:	48 89 c2             	mov    %rax,%rdx
    e730:	48 89 c8             	mov    %rcx,%rax
    e733:	48 01 c0             	add    %rax,%rax
    e736:	48 01 c8             	add    %rcx,%rax
    e739:	48 01 c0             	add    %rax,%rax
    e73c:	48 01 d0             	add    %rdx,%rax
    e73f:	48 01 f0             	add    %rsi,%rax
    e742:	48 8d 14 c5 00 00 00 	lea    0x0(,%rax,8),%rdx
    e749:	00 
    e74a:	48 8d 05 af 78 00 00 	lea    0x78af(%rip),%rax        # 16000 <g_483>
    e751:	48 8b 04 02          	mov    (%rdx,%rax,1),%rax
    e755:	48 89 c1             	mov    %rax,%rcx
    e758:	8b 45 fc             	mov    -0x4(%rbp),%eax
    e75b:	89 c2                	mov    %eax,%edx
    e75d:	48 8d 35 a9 35 00 00 	lea    0x35a9(%rip),%rsi        # 11d0d <g_905+0x1c7d>
    e764:	48 89 cf             	mov    %rcx,%rdi
    e767:	e8 87 7f ff ff       	callq  66f3 <transparent_crc>
    e76c:	83 7d fc 00          	cmpl   $0x0,-0x4(%rbp)
    e770:	74 1c                	je     e78e <main+0xb17>
    e772:	8b 4d f8             	mov    -0x8(%rbp),%ecx
    e775:	8b 55 f4             	mov    -0xc(%rbp),%edx
    e778:	8b 45 f0             	mov    -0x10(%rbp),%eax
    e77b:	89 c6                	mov    %eax,%esi
    e77d:	48 8d 3d ca 33 00 00 	lea    0x33ca(%rip),%rdi        # 11b4e <g_905+0x1abe>
    e784:	b8 00 00 00 00       	mov    $0x0,%eax
    e789:	e8 f2 68 ff ff       	callq  5080 <printf@plt>
    e78e:	83 45 f8 01          	addl   $0x1,-0x8(%rbp)
    e792:	83 7d f8 05          	cmpl   $0x5,-0x8(%rbp)
    e796:	0f 8e 72 ff ff ff    	jle    e70e <main+0xa97>
    e79c:	83 45 f4 01          	addl   $0x1,-0xc(%rbp)
    e7a0:	83 7d f4 04          	cmpl   $0x4,-0xc(%rbp)
    e7a4:	0f 8e 58 ff ff ff    	jle    e702 <main+0xa8b>
    e7aa:	83 45 f0 01          	addl   $0x1,-0x10(%rbp)
    e7ae:	83 7d f0 07          	cmpl   $0x7,-0x10(%rbp)
    e7b2:	0f 8e 3e ff ff ff    	jle    e6f6 <main+0xa7f>
    e7b8:	0f b6 05 c1 7f 00 00 	movzbl 0x7fc1(%rip),%eax        # 16780 <g_490>
    e7bf:	0f b6 c0             	movzbl %al,%eax
    e7c2:	8b 55 fc             	mov    -0x4(%rbp),%edx
    e7c5:	48 8d 35 50 35 00 00 	lea    0x3550(%rip),%rsi        # 11d1c <g_905+0x1c8c>
    e7cc:	48 89 c7             	mov    %rax,%rdi
    e7cf:	e8 1f 7f ff ff       	callq  66f3 <transparent_crc>
    e7d4:	0f b7 05 a9 7f 00 00 	movzwl 0x7fa9(%rip),%eax        # 16784 <g_492>
    e7db:	48 0f bf c0          	movswq %ax,%rax
    e7df:	8b 55 fc             	mov    -0x4(%rbp),%edx
    e7e2:	48 8d 35 3c 35 00 00 	lea    0x353c(%rip),%rsi        # 11d25 <g_905+0x1c95>
    e7e9:	48 89 c7             	mov    %rax,%rdi
    e7ec:	e8 02 7f ff ff       	callq  66f3 <transparent_crc>
    e7f1:	0f b7 05 8c 7f 00 00 	movzwl 0x7f8c(%rip),%eax        # 16784 <g_492>
    e7f8:	0f b7 c0             	movzwl %ax,%eax
    e7fb:	8b 55 fc             	mov    -0x4(%rbp),%edx
    e7fe:	48 8d 35 29 35 00 00 	lea    0x3529(%rip),%rsi        # 11d2e <g_905+0x1c9e>
    e805:	48 89 c7             	mov    %rax,%rdi
    e808:	e8 e6 7e ff ff       	callq  66f3 <transparent_crc>
    e80d:	0f b6 05 70 7f 00 00 	movzbl 0x7f70(%rip),%eax        # 16784 <g_492>
    e814:	0f b6 c0             	movzbl %al,%eax
    e817:	8b 55 fc             	mov    -0x4(%rbp),%edx
    e81a:	48 8d 35 16 35 00 00 	lea    0x3516(%rip),%rsi        # 11d37 <g_905+0x1ca7>
    e821:	48 89 c7             	mov    %rax,%rdi
    e824:	e8 ca 7e ff ff       	callq  66f3 <transparent_crc>
    e829:	0f b6 05 84 9f 00 00 	movzbl 0x9f84(%rip),%eax        # 187b4 <g_572>
    e830:	48 0f be c0          	movsbq %al,%rax
    e834:	8b 55 fc             	mov    -0x4(%rbp),%edx
    e837:	48 8d 35 02 35 00 00 	lea    0x3502(%rip),%rsi        # 11d40 <g_905+0x1cb0>
    e83e:	48 89 c7             	mov    %rax,%rdi
    e841:	e8 ad 7e ff ff       	callq  66f3 <transparent_crc>
    e846:	8b 05 6c 9f 00 00    	mov    0x9f6c(%rip),%eax        # 187b8 <g_597>
    e84c:	83 e0 7f             	and    $0x7f,%eax
    e84f:	0f b6 c0             	movzbl %al,%eax
    e852:	8b 55 fc             	mov    -0x4(%rbp),%edx
    e855:	48 8d 35 ed 34 00 00 	lea    0x34ed(%rip),%rsi        # 11d49 <g_905+0x1cb9>
    e85c:	48 89 c7             	mov    %rax,%rdi
    e85f:	e8 8f 7e ff ff       	callq  66f3 <transparent_crc>
    e864:	0f b6 05 1d 7f 00 00 	movzbl 0x7f1d(%rip),%eax        # 16788 <g_605>
    e86b:	83 e0 7f             	and    $0x7f,%eax
    e86e:	0f b6 c0             	movzbl %al,%eax
    e871:	8b 55 fc             	mov    -0x4(%rbp),%edx
    e874:	48 8d 35 d7 34 00 00 	lea    0x34d7(%rip),%rsi        # 11d52 <g_905+0x1cc2>
    e87b:	48 89 c7             	mov    %rax,%rdi
    e87e:	e8 70 7e ff ff       	callq  66f3 <transparent_crc>
    e883:	0f b6 05 02 7f 00 00 	movzbl 0x7f02(%rip),%eax        # 1678c <g_606>
    e88a:	0f b6 c0             	movzbl %al,%eax
    e88d:	8b 55 fc             	mov    -0x4(%rbp),%edx
    e890:	48 8d 35 c4 34 00 00 	lea    0x34c4(%rip),%rsi        # 11d5b <g_905+0x1ccb>
    e897:	48 89 c7             	mov    %rax,%rdi
    e89a:	e8 54 7e ff ff       	callq  66f3 <transparent_crc>
    e89f:	0f b6 05 ea 7e 00 00 	movzbl 0x7eea(%rip),%eax        # 16790 <g_623>
    e8a6:	83 e0 7f             	and    $0x7f,%eax
    e8a9:	0f b6 c0             	movzbl %al,%eax
    e8ac:	8b 55 fc             	mov    -0x4(%rbp),%edx
    e8af:	48 8d 35 ae 34 00 00 	lea    0x34ae(%rip),%rsi        # 11d64 <g_905+0x1cd4>
    e8b6:	48 89 c7             	mov    %rax,%rdi
    e8b9:	e8 35 7e ff ff       	callq  66f3 <transparent_crc>
    e8be:	8b 05 d0 7e 00 00    	mov    0x7ed0(%rip),%eax        # 16794 <g_635>
    e8c4:	48 98                	cltq   
    e8c6:	8b 55 fc             	mov    -0x4(%rbp),%edx
    e8c9:	48 8d 35 9d 34 00 00 	lea    0x349d(%rip),%rsi        # 11d6d <g_905+0x1cdd>
    e8d0:	48 89 c7             	mov    %rax,%rdi
    e8d3:	e8 1b 7e ff ff       	callq  66f3 <transparent_crc>
    e8d8:	c7 45 f0 00 00 00 00 	movl   $0x0,-0x10(%rbp)
    e8df:	eb 69                	jmp    e94a <main+0xcd3>
    e8e1:	c7 45 f4 00 00 00 00 	movl   $0x0,-0xc(%rbp)
    e8e8:	eb 56                	jmp    e940 <main+0xcc9>
    e8ea:	8b 45 f4             	mov    -0xc(%rbp),%eax
    e8ed:	48 63 d0             	movslq %eax,%rdx
    e8f0:	8b 45 f0             	mov    -0x10(%rbp),%eax
    e8f3:	48 98                	cltq   
    e8f5:	48 01 d0             	add    %rdx,%rax
    e8f8:	48 8d 14 c5 00 00 00 	lea    0x0(,%rax,8),%rdx
    e8ff:	00 
    e900:	48 8d 05 99 7e 00 00 	lea    0x7e99(%rip),%rax        # 167a0 <g_695>
    e907:	48 8b 04 02          	mov    (%rdx,%rax,1),%rax
    e90b:	8b 55 fc             	mov    -0x4(%rbp),%edx
    e90e:	48 8d 35 5e 34 00 00 	lea    0x345e(%rip),%rsi        # 11d73 <g_905+0x1ce3>
    e915:	48 89 c7             	mov    %rax,%rdi
    e918:	e8 d6 7d ff ff       	callq  66f3 <transparent_crc>
    e91d:	83 7d fc 00          	cmpl   $0x0,-0x4(%rbp)
    e921:	74 19                	je     e93c <main+0xcc5>
    e923:	8b 55 f4             	mov    -0xc(%rbp),%edx
    e926:	8b 45 f0             	mov    -0x10(%rbp),%eax
    e929:	89 c6                	mov    %eax,%esi
    e92b:	48 8d 3d c7 31 00 00 	lea    0x31c7(%rip),%rdi        # 11af9 <g_905+0x1a69>
    e932:	b8 00 00 00 00       	mov    $0x0,%eax
    e937:	e8 44 67 ff ff       	callq  5080 <printf@plt>
    e93c:	83 45 f4 01          	addl   $0x1,-0xc(%rbp)
    e940:	83 7d f4 00          	cmpl   $0x0,-0xc(%rbp)
    e944:	7e a4                	jle    e8ea <main+0xc73>
    e946:	83 45 f0 01          	addl   $0x1,-0x10(%rbp)
    e94a:	83 7d f0 04          	cmpl   $0x4,-0x10(%rbp)
    e94e:	7e 91                	jle    e8e1 <main+0xc6a>
    e950:	c7 45 f0 00 00 00 00 	movl   $0x0,-0x10(%rbp)
    e957:	eb 3a                	jmp    e993 <main+0xd1c>
    e959:	b8 ff ff ff ff       	mov    $0xffffffff,%eax
    e95e:	0f b7 c0             	movzwl %ax,%eax
    e961:	8b 55 fc             	mov    -0x4(%rbp),%edx
    e964:	48 8d 35 17 34 00 00 	lea    0x3417(%rip),%rsi        # 11d82 <g_905+0x1cf2>
    e96b:	48 89 c7             	mov    %rax,%rdi
    e96e:	e8 80 7d ff ff       	callq  66f3 <transparent_crc>
    e973:	83 7d fc 00          	cmpl   $0x0,-0x4(%rbp)
    e977:	74 16                	je     e98f <main+0xd18>
    e979:	8b 45 f0             	mov    -0x10(%rbp),%eax
    e97c:	89 c6                	mov    %eax,%esi
    e97e:	48 8d 3d 98 31 00 00 	lea    0x3198(%rip),%rdi        # 11b1d <g_905+0x1a8d>
    e985:	b8 00 00 00 00       	mov    $0x0,%eax
    e98a:	e8 f1 66 ff ff       	callq  5080 <printf@plt>
    e98f:	83 45 f0 01          	addl   $0x1,-0x10(%rbp)
    e993:	83 7d f0 00          	cmpl   $0x0,-0x10(%rbp)
    e997:	7e c0                	jle    e959 <main+0xce2>
    e999:	48 8b 05 28 7e 00 00 	mov    0x7e28(%rip),%rax        # 167c8 <g_775>
    e9a0:	48 89 c1             	mov    %rax,%rcx
    e9a3:	8b 45 fc             	mov    -0x4(%rbp),%eax
    e9a6:	89 c2                	mov    %eax,%edx
    e9a8:	48 8d 35 dc 33 00 00 	lea    0x33dc(%rip),%rsi        # 11d8b <g_905+0x1cfb>
    e9af:	48 89 cf             	mov    %rcx,%rdi
    e9b2:	e8 3c 7d ff ff       	callq  66f3 <transparent_crc>
    e9b7:	0f b6 05 12 7e 00 00 	movzbl 0x7e12(%rip),%eax        # 167d0 <g_821>
    e9be:	0f b6 c0             	movzbl %al,%eax
    e9c1:	8b 55 fc             	mov    -0x4(%rbp),%edx
    e9c4:	48 8d 35 c6 33 00 00 	lea    0x33c6(%rip),%rsi        # 11d91 <g_905+0x1d01>
    e9cb:	48 89 c7             	mov    %rax,%rdi
    e9ce:	e8 20 7d ff ff       	callq  66f3 <transparent_crc>
    e9d3:	0f b6 05 fa 7d 00 00 	movzbl 0x7dfa(%rip),%eax        # 167d4 <g_839>
    e9da:	48 0f be c0          	movsbq %al,%rax
    e9de:	8b 55 fc             	mov    -0x4(%rbp),%edx
    e9e1:	48 8d 35 b2 33 00 00 	lea    0x33b2(%rip),%rsi        # 11d9a <g_905+0x1d0a>
    e9e8:	48 89 c7             	mov    %rax,%rdi
    e9eb:	e8 03 7d ff ff       	callq  66f3 <transparent_crc>
    e9f0:	0f b7 05 e9 7d 00 00 	movzwl 0x7de9(%rip),%eax        # 167e0 <g_862>
    e9f7:	48 0f bf c0          	movswq %ax,%rax
    e9fb:	8b 55 fc             	mov    -0x4(%rbp),%edx
    e9fe:	48 8d 35 9e 33 00 00 	lea    0x339e(%rip),%rsi        # 11da3 <g_905+0x1d13>
    ea05:	48 89 c7             	mov    %rax,%rdi
    ea08:	e8 e6 7c ff ff       	callq  66f3 <transparent_crc>
    ea0d:	8b 05 d1 7d 00 00    	mov    0x7dd1(%rip),%eax        # 167e4 <g_862+0x4>
    ea13:	48 98                	cltq   
    ea15:	8b 55 fc             	mov    -0x4(%rbp),%edx
    ea18:	48 8d 35 8d 33 00 00 	lea    0x338d(%rip),%rsi        # 11dac <g_905+0x1d1c>
    ea1f:	48 89 c7             	mov    %rax,%rdi
    ea22:	e8 cc 7c ff ff       	callq  66f3 <transparent_crc>
    ea27:	0f b6 05 ba 7d 00 00 	movzbl 0x7dba(%rip),%eax        # 167e8 <g_862+0x8>
    ea2e:	48 0f be c0          	movsbq %al,%rax
    ea32:	8b 55 fc             	mov    -0x4(%rbp),%edx
    ea35:	48 8d 35 79 33 00 00 	lea    0x3379(%rip),%rsi        # 11db5 <g_905+0x1d25>
    ea3c:	48 89 c7             	mov    %rax,%rdi
    ea3f:	e8 af 7c ff ff       	callq  66f3 <transparent_crc>
    ea44:	8b 05 a2 7d 00 00    	mov    0x7da2(%rip),%eax        # 167ec <g_862+0xc>
    ea4a:	89 c1                	mov    %eax,%ecx
    ea4c:	8b 45 fc             	mov    -0x4(%rbp),%eax
    ea4f:	89 c2                	mov    %eax,%edx
    ea51:	48 8d 35 66 33 00 00 	lea    0x3366(%rip),%rsi        # 11dbe <g_905+0x1d2e>
    ea58:	48 89 cf             	mov    %rcx,%rdi
    ea5b:	e8 93 7c ff ff       	callq  66f3 <transparent_crc>
    ea60:	8b 05 8a 7d 00 00    	mov    0x7d8a(%rip),%eax        # 167f0 <g_862+0x10>
    ea66:	25 ff ff ff 7f       	and    $0x7fffffff,%eax
    ea6b:	89 c1                	mov    %eax,%ecx
    ea6d:	8b 45 fc             	mov    -0x4(%rbp),%eax
    ea70:	89 c2                	mov    %eax,%edx
    ea72:	48 8d 35 4e 33 00 00 	lea    0x334e(%rip),%rsi        # 11dc7 <g_905+0x1d37>
    ea79:	48 89 cf             	mov    %rcx,%rdi
    ea7c:	e8 72 7c ff ff       	callq  66f3 <transparent_crc>
    ea81:	8b 05 6d 7d 00 00    	mov    0x7d6d(%rip),%eax        # 167f4 <g_862+0x14>
    ea87:	48 98                	cltq   
    ea89:	8b 55 fc             	mov    -0x4(%rbp),%edx
    ea8c:	48 8d 35 3d 33 00 00 	lea    0x333d(%rip),%rsi        # 11dd0 <g_905+0x1d40>
    ea93:	48 89 c7             	mov    %rax,%rdi
    ea96:	e8 58 7c ff ff       	callq  66f3 <transparent_crc>
    ea9b:	48 8b 05 56 7d 00 00 	mov    0x7d56(%rip),%rax        # 167f8 <g_862+0x18>
    eaa2:	48 89 c1             	mov    %rax,%rcx
    eaa5:	8b 45 fc             	mov    -0x4(%rbp),%eax
    eaa8:	89 c2                	mov    %eax,%edx
    eaaa:	48 8d 35 28 33 00 00 	lea    0x3328(%rip),%rsi        # 11dd9 <g_905+0x1d49>
    eab1:	48 89 cf             	mov    %rcx,%rdi
    eab4:	e8 3a 7c ff ff       	callq  66f3 <transparent_crc>
    eab9:	0f b6 05 40 7d 00 00 	movzbl 0x7d40(%rip),%eax        # 16800 <g_904>
    eac0:	0f b6 c0             	movzbl %al,%eax
    eac3:	8b 55 fc             	mov    -0x4(%rbp),%edx
    eac6:	48 8d 35 15 33 00 00 	lea    0x3315(%rip),%rsi        # 11de2 <g_905+0x1d52>
    eacd:	48 89 c7             	mov    %rax,%rdi
    ead0:	e8 1e 7c ff ff       	callq  66f3 <transparent_crc>
    ead5:	b8 04 00 00 00       	mov    $0x4,%eax
    eada:	0f b6 c0             	movzbl %al,%eax
    eadd:	8b 55 fc             	mov    -0x4(%rbp),%edx
    eae0:	48 8d 35 04 33 00 00 	lea    0x3304(%rip),%rsi        # 11deb <g_905+0x1d5b>
    eae7:	48 89 c7             	mov    %rax,%rdi
    eaea:	e8 04 7c ff ff       	callq  66f3 <transparent_crc>
    eaef:	0f b6 05 0e 7d 00 00 	movzbl 0x7d0e(%rip),%eax        # 16804 <g_945>
    eaf6:	83 e0 7f             	and    $0x7f,%eax
    eaf9:	0f b6 c0             	movzbl %al,%eax
    eafc:	8b 55 fc             	mov    -0x4(%rbp),%edx
    eaff:	48 8d 35 ee 32 00 00 	lea    0x32ee(%rip),%rsi        # 11df4 <g_905+0x1d64>
    eb06:	48 89 c7             	mov    %rax,%rdi
    eb09:	e8 e5 7b ff ff       	callq  66f3 <transparent_crc>
    eb0e:	c7 45 f0 00 00 00 00 	movl   $0x0,-0x10(%rbp)
    eb15:	eb 4b                	jmp    eb62 <main+0xeeb>
    eb17:	8b 45 f0             	mov    -0x10(%rbp),%eax
    eb1a:	48 98                	cltq   
    eb1c:	48 8d 14 85 00 00 00 	lea    0x0(,%rax,4),%rdx
    eb23:	00 
    eb24:	48 8d 05 e5 7c 00 00 	lea    0x7ce5(%rip),%rax        # 16810 <g_974>
    eb2b:	8b 04 02             	mov    (%rdx,%rax,1),%eax
    eb2e:	48 98                	cltq   
    eb30:	8b 55 fc             	mov    -0x4(%rbp),%edx
    eb33:	48 8d 35 c3 32 00 00 	lea    0x32c3(%rip),%rsi        # 11dfd <g_905+0x1d6d>
    eb3a:	48 89 c7             	mov    %rax,%rdi
    eb3d:	e8 b1 7b ff ff       	callq  66f3 <transparent_crc>
    eb42:	83 7d fc 00          	cmpl   $0x0,-0x4(%rbp)
    eb46:	74 16                	je     eb5e <main+0xee7>
    eb48:	8b 45 f0             	mov    -0x10(%rbp),%eax
    eb4b:	89 c6                	mov    %eax,%esi
    eb4d:	48 8d 3d c9 2f 00 00 	lea    0x2fc9(%rip),%rdi        # 11b1d <g_905+0x1a8d>
    eb54:	b8 00 00 00 00       	mov    $0x0,%eax
    eb59:	e8 22 65 ff ff       	callq  5080 <printf@plt>
    eb5e:	83 45 f0 01          	addl   $0x1,-0x10(%rbp)
    eb62:	83 7d f0 03          	cmpl   $0x3,-0x10(%rbp)
    eb66:	7e af                	jle    eb17 <main+0xea0>
    eb68:	0f b7 05 b1 7c 00 00 	movzwl 0x7cb1(%rip),%eax        # 16820 <g_1000>
    eb6f:	0f b7 c0             	movzwl %ax,%eax
    eb72:	8b 55 fc             	mov    -0x4(%rbp),%edx
    eb75:	48 8d 35 8a 32 00 00 	lea    0x328a(%rip),%rsi        # 11e06 <g_905+0x1d76>
    eb7c:	48 89 c7             	mov    %rax,%rdi
    eb7f:	e8 6f 7b ff ff       	callq  66f3 <transparent_crc>
    eb84:	0f b7 05 b5 7c 00 00 	movzwl 0x7cb5(%rip),%eax        # 16840 <g_1043>
    eb8b:	48 0f bf c0          	movswq %ax,%rax
    eb8f:	8b 55 fc             	mov    -0x4(%rbp),%edx
    eb92:	48 8d 35 77 32 00 00 	lea    0x3277(%rip),%rsi        # 11e10 <g_905+0x1d80>
    eb99:	48 89 c7             	mov    %rax,%rdi
    eb9c:	e8 52 7b ff ff       	callq  66f3 <transparent_crc>
    eba1:	8b 05 9d 7c 00 00    	mov    0x7c9d(%rip),%eax        # 16844 <g_1043+0x4>
    eba7:	48 98                	cltq   
    eba9:	8b 55 fc             	mov    -0x4(%rbp),%edx
    ebac:	48 8d 35 67 32 00 00 	lea    0x3267(%rip),%rsi        # 11e1a <g_905+0x1d8a>
    ebb3:	48 89 c7             	mov    %rax,%rdi
    ebb6:	e8 38 7b ff ff       	callq  66f3 <transparent_crc>
    ebbb:	0f b6 05 86 7c 00 00 	movzbl 0x7c86(%rip),%eax        # 16848 <g_1043+0x8>
    ebc2:	48 0f be c0          	movsbq %al,%rax
    ebc6:	8b 55 fc             	mov    -0x4(%rbp),%edx
    ebc9:	48 8d 35 54 32 00 00 	lea    0x3254(%rip),%rsi        # 11e24 <g_905+0x1d94>
    ebd0:	48 89 c7             	mov    %rax,%rdi
    ebd3:	e8 1b 7b ff ff       	callq  66f3 <transparent_crc>
    ebd8:	8b 05 6e 7c 00 00    	mov    0x7c6e(%rip),%eax        # 1684c <g_1043+0xc>
    ebde:	89 c1                	mov    %eax,%ecx
    ebe0:	8b 45 fc             	mov    -0x4(%rbp),%eax
    ebe3:	89 c2                	mov    %eax,%edx
    ebe5:	48 8d 35 42 32 00 00 	lea    0x3242(%rip),%rsi        # 11e2e <g_905+0x1d9e>
    ebec:	48 89 cf             	mov    %rcx,%rdi
    ebef:	e8 ff 7a ff ff       	callq  66f3 <transparent_crc>
    ebf4:	8b 05 56 7c 00 00    	mov    0x7c56(%rip),%eax        # 16850 <g_1043+0x10>
    ebfa:	25 ff ff ff 7f       	and    $0x7fffffff,%eax
    ebff:	89 c1                	mov    %eax,%ecx
    ec01:	8b 45 fc             	mov    -0x4(%rbp),%eax
    ec04:	89 c2                	mov    %eax,%edx
    ec06:	48 8d 35 2b 32 00 00 	lea    0x322b(%rip),%rsi        # 11e38 <g_905+0x1da8>
    ec0d:	48 89 cf             	mov    %rcx,%rdi
    ec10:	e8 de 7a ff ff       	callq  66f3 <transparent_crc>
    ec15:	8b 05 39 7c 00 00    	mov    0x7c39(%rip),%eax        # 16854 <g_1043+0x14>
    ec1b:	48 98                	cltq   
    ec1d:	8b 55 fc             	mov    -0x4(%rbp),%edx
    ec20:	48 8d 35 1b 32 00 00 	lea    0x321b(%rip),%rsi        # 11e42 <g_905+0x1db2>
    ec27:	48 89 c7             	mov    %rax,%rdi
    ec2a:	e8 c4 7a ff ff       	callq  66f3 <transparent_crc>
    ec2f:	48 8b 05 22 7c 00 00 	mov    0x7c22(%rip),%rax        # 16858 <g_1043+0x18>
    ec36:	48 89 c1             	mov    %rax,%rcx
    ec39:	8b 45 fc             	mov    -0x4(%rbp),%eax
    ec3c:	89 c2                	mov    %eax,%edx
    ec3e:	48 8d 35 07 32 00 00 	lea    0x3207(%rip),%rsi        # 11e4c <g_905+0x1dbc>
    ec45:	48 89 cf             	mov    %rcx,%rdi
    ec48:	e8 a6 7a ff ff       	callq  66f3 <transparent_crc>
    ec4d:	48 8b 05 0c 7c 00 00 	mov    0x7c0c(%rip),%rax        # 16860 <g_1055>
    ec54:	8b 55 fc             	mov    -0x4(%rbp),%edx
    ec57:	48 8d 35 f8 31 00 00 	lea    0x31f8(%rip),%rsi        # 11e56 <g_905+0x1dc6>
    ec5e:	48 89 c7             	mov    %rax,%rdi
    ec61:	e8 8d 7a ff ff       	callq  66f3 <transparent_crc>
    ec66:	8b 05 fc 7b 00 00    	mov    0x7bfc(%rip),%eax        # 16868 <g_1102>
    ec6c:	48 98                	cltq   
    ec6e:	8b 55 fc             	mov    -0x4(%rbp),%edx
    ec71:	48 8d 35 e5 31 00 00 	lea    0x31e5(%rip),%rsi        # 11e5d <g_905+0x1dcd>
    ec78:	48 89 c7             	mov    %rax,%rdi
    ec7b:	e8 73 7a ff ff       	callq  66f3 <transparent_crc>
    ec80:	48 8b 05 e9 7b 00 00 	mov    0x7be9(%rip),%rax        # 16870 <g_1110>
    ec87:	8b 55 fc             	mov    -0x4(%rbp),%edx
    ec8a:	48 8d 35 d3 31 00 00 	lea    0x31d3(%rip),%rsi        # 11e64 <g_905+0x1dd4>
    ec91:	48 89 c7             	mov    %rax,%rdi
    ec94:	e8 5a 7a ff ff       	callq  66f3 <transparent_crc>
    ec99:	8b 05 d9 7b 00 00    	mov    0x7bd9(%rip),%eax        # 16878 <g_1135>
    ec9f:	83 e0 7f             	and    $0x7f,%eax
    eca2:	0f b6 c0             	movzbl %al,%eax
    eca5:	8b 55 fc             	mov    -0x4(%rbp),%edx
    eca8:	48 8d 35 bf 31 00 00 	lea    0x31bf(%rip),%rsi        # 11e6e <g_905+0x1dde>
    ecaf:	48 89 c7             	mov    %rax,%rdi
    ecb2:	e8 3c 7a ff ff       	callq  66f3 <transparent_crc>
    ecb7:	0f b7 05 be 7b 00 00 	movzwl 0x7bbe(%rip),%eax        # 1687c <g_1194>
    ecbe:	0f b7 c0             	movzwl %ax,%eax
    ecc1:	8b 55 fc             	mov    -0x4(%rbp),%edx
    ecc4:	48 8d 35 ad 31 00 00 	lea    0x31ad(%rip),%rsi        # 11e78 <g_905+0x1de8>
    eccb:	48 89 c7             	mov    %rax,%rdi
    ecce:	e8 20 7a ff ff       	callq  66f3 <transparent_crc>
    ecd3:	c7 45 f0 00 00 00 00 	movl   $0x0,-0x10(%rbp)
    ecda:	e9 ae 00 00 00       	jmpq   ed8d <main+0x1116>
    ecdf:	c7 45 f4 00 00 00 00 	movl   $0x0,-0xc(%rbp)
    ece6:	e9 94 00 00 00       	jmpq   ed7f <main+0x1108>
    eceb:	c7 45 f8 00 00 00 00 	movl   $0x0,-0x8(%rbp)
    ecf2:	eb 7d                	jmp    ed71 <main+0x10fa>
    ecf4:	8b 45 f8             	mov    -0x8(%rbp),%eax
    ecf7:	48 63 f0             	movslq %eax,%rsi
    ecfa:	8b 45 f0             	mov    -0x10(%rbp),%eax
    ecfd:	48 63 d0             	movslq %eax,%rdx
    ed00:	8b 45 f4             	mov    -0xc(%rbp),%eax
    ed03:	48 63 c8             	movslq %eax,%rcx
    ed06:	48 89 d0             	mov    %rdx,%rax
    ed09:	48 c1 e0 03          	shl    $0x3,%rax
    ed0d:	48 01 d0             	add    %rdx,%rax
    ed10:	48 01 c0             	add    %rax,%rax
    ed13:	48 89 ca             	mov    %rcx,%rdx
    ed16:	48 c1 e2 03          	shl    $0x3,%rdx
    ed1a:	48 01 ca             	add    %rcx,%rdx
    ed1d:	48 01 d0             	add    %rdx,%rax
    ed20:	48 01 f0             	add    %rsi,%rax
    ed23:	48 8d 14 85 00 00 00 	lea    0x0(,%rax,4),%rdx
    ed2a:	00 
    ed2b:	48 8d 05 4e 7b 00 00 	lea    0x7b4e(%rip),%rax        # 16880 <g_1203>
    ed32:	0f b7 04 02          	movzwl (%rdx,%rax,1),%eax
    ed36:	0f b7 c0             	movzwl %ax,%eax
    ed39:	8b 55 fc             	mov    -0x4(%rbp),%edx
    ed3c:	48 8d 35 3f 31 00 00 	lea    0x313f(%rip),%rsi        # 11e82 <g_905+0x1df2>
    ed43:	48 89 c7             	mov    %rax,%rdi
    ed46:	e8 a8 79 ff ff       	callq  66f3 <transparent_crc>
    ed4b:	83 7d fc 00          	cmpl   $0x0,-0x4(%rbp)
    ed4f:	74 1c                	je     ed6d <main+0x10f6>
    ed51:	8b 4d f8             	mov    -0x8(%rbp),%ecx
    ed54:	8b 55 f4             	mov    -0xc(%rbp),%edx
    ed57:	8b 45 f0             	mov    -0x10(%rbp),%eax
    ed5a:	89 c6                	mov    %eax,%esi
    ed5c:	48 8d 3d eb 2d 00 00 	lea    0x2deb(%rip),%rdi        # 11b4e <g_905+0x1abe>
    ed63:	b8 00 00 00 00       	mov    $0x0,%eax
    ed68:	e8 13 63 ff ff       	callq  5080 <printf@plt>
    ed6d:	83 45 f8 01          	addl   $0x1,-0x8(%rbp)
    ed71:	83 7d f8 08          	cmpl   $0x8,-0x8(%rbp)
    ed75:	0f 8e 79 ff ff ff    	jle    ecf4 <main+0x107d>
    ed7b:	83 45 f4 01          	addl   $0x1,-0xc(%rbp)
    ed7f:	83 7d f4 01          	cmpl   $0x1,-0xc(%rbp)
    ed83:	0f 8e 62 ff ff ff    	jle    eceb <main+0x1074>
    ed89:	83 45 f0 01          	addl   $0x1,-0x10(%rbp)
    ed8d:	83 7d f0 05          	cmpl   $0x5,-0x10(%rbp)
    ed91:	0f 8e 48 ff ff ff    	jle    ecdf <main+0x1068>
    ed97:	0f b7 05 92 7c 00 00 	movzwl 0x7c92(%rip),%eax        # 16a30 <g_1204>
    ed9e:	0f b7 c0             	movzwl %ax,%eax
    eda1:	8b 55 fc             	mov    -0x4(%rbp),%edx
    eda4:	48 8d 35 ea 30 00 00 	lea    0x30ea(%rip),%rsi        # 11e95 <g_905+0x1e05>
    edab:	48 89 c7             	mov    %rax,%rdi
    edae:	e8 40 79 ff ff       	callq  66f3 <transparent_crc>
    edb3:	0f b7 05 66 9a 00 00 	movzwl 0x9a66(%rip),%eax        # 18820 <g_1205>
    edba:	0f b7 c0             	movzwl %ax,%eax
    edbd:	8b 55 fc             	mov    -0x4(%rbp),%edx
    edc0:	48 8d 35 d8 30 00 00 	lea    0x30d8(%rip),%rsi        # 11e9f <g_905+0x1e0f>
    edc7:	48 89 c7             	mov    %rax,%rdi
    edca:	e8 24 79 ff ff       	callq  66f3 <transparent_crc>
    edcf:	0f b7 05 5e 7c 00 00 	movzwl 0x7c5e(%rip),%eax        # 16a34 <g_1206>
    edd6:	0f b7 c0             	movzwl %ax,%eax
    edd9:	8b 55 fc             	mov    -0x4(%rbp),%edx
    eddc:	48 8d 35 c6 30 00 00 	lea    0x30c6(%rip),%rsi        # 11ea9 <g_905+0x1e19>
    ede3:	48 89 c7             	mov    %rax,%rdi
    ede6:	e8 08 79 ff ff       	callq  66f3 <transparent_crc>
    edeb:	0f b7 05 46 7c 00 00 	movzwl 0x7c46(%rip),%eax        # 16a38 <g_1207>
    edf2:	0f b7 c0             	movzwl %ax,%eax
    edf5:	8b 55 fc             	mov    -0x4(%rbp),%edx
    edf8:	48 8d 35 b4 30 00 00 	lea    0x30b4(%rip),%rsi        # 11eb3 <g_905+0x1e23>
    edff:	48 89 c7             	mov    %rax,%rdi
    ee02:	e8 ec 78 ff ff       	callq  66f3 <transparent_crc>
    ee07:	c7 45 f0 00 00 00 00 	movl   $0x0,-0x10(%rbp)
    ee0e:	eb 4d                	jmp    ee5d <main+0x11e6>
    ee10:	8b 45 f0             	mov    -0x10(%rbp),%eax
    ee13:	48 98                	cltq   
    ee15:	48 8d 14 85 00 00 00 	lea    0x0(,%rax,4),%rdx
    ee1c:	00 
    ee1d:	48 8d 05 1c 9a 00 00 	lea    0x9a1c(%rip),%rax        # 18840 <g_1208>
    ee24:	0f b7 04 02          	movzwl (%rdx,%rax,1),%eax
    ee28:	0f b7 c0             	movzwl %ax,%eax
    ee2b:	8b 55 fc             	mov    -0x4(%rbp),%edx
    ee2e:	48 8d 35 88 30 00 00 	lea    0x3088(%rip),%rsi        # 11ebd <g_905+0x1e2d>
    ee35:	48 89 c7             	mov    %rax,%rdi
    ee38:	e8 b6 78 ff ff       	callq  66f3 <transparent_crc>
    ee3d:	83 7d fc 00          	cmpl   $0x0,-0x4(%rbp)
    ee41:	74 16                	je     ee59 <main+0x11e2>
    ee43:	8b 45 f0             	mov    -0x10(%rbp),%eax
    ee46:	89 c6                	mov    %eax,%esi
    ee48:	48 8d 3d ce 2c 00 00 	lea    0x2cce(%rip),%rdi        # 11b1d <g_905+0x1a8d>
    ee4f:	b8 00 00 00 00       	mov    $0x0,%eax
    ee54:	e8 27 62 ff ff       	callq  5080 <printf@plt>
    ee59:	83 45 f0 01          	addl   $0x1,-0x10(%rbp)
    ee5d:	83 7d f0 09          	cmpl   $0x9,-0x10(%rbp)
    ee61:	7e ad                	jle    ee10 <main+0x1199>
    ee63:	0f b7 05 d2 7b 00 00 	movzwl 0x7bd2(%rip),%eax        # 16a3c <g_1209>
    ee6a:	0f b7 c0             	movzwl %ax,%eax
    ee6d:	8b 55 fc             	mov    -0x4(%rbp),%edx
    ee70:	48 8d 35 53 30 00 00 	lea    0x3053(%rip),%rsi        # 11eca <g_905+0x1e3a>
    ee77:	48 89 c7             	mov    %rax,%rdi
    ee7a:	e8 74 78 ff ff       	callq  66f3 <transparent_crc>
    ee7f:	0f b7 05 ba 7b 00 00 	movzwl 0x7bba(%rip),%eax        # 16a40 <g_1210>
    ee86:	0f b7 c0             	movzwl %ax,%eax
    ee89:	8b 55 fc             	mov    -0x4(%rbp),%edx
    ee8c:	48 8d 35 41 30 00 00 	lea    0x3041(%rip),%rsi        # 11ed4 <g_905+0x1e44>
    ee93:	48 89 c7             	mov    %rax,%rdi
    ee96:	e8 58 78 ff ff       	callq  66f3 <transparent_crc>
    ee9b:	0f b7 05 a2 7b 00 00 	movzwl 0x7ba2(%rip),%eax        # 16a44 <g_1211>
    eea2:	0f b7 c0             	movzwl %ax,%eax
    eea5:	8b 55 fc             	mov    -0x4(%rbp),%edx
    eea8:	48 8d 35 2f 30 00 00 	lea    0x302f(%rip),%rsi        # 11ede <g_905+0x1e4e>
    eeaf:	48 89 c7             	mov    %rax,%rdi
    eeb2:	e8 3c 78 ff ff       	callq  66f3 <transparent_crc>
    eeb7:	c7 45 f0 00 00 00 00 	movl   $0x0,-0x10(%rbp)
    eebe:	eb 4d                	jmp    ef0d <main+0x1296>
    eec0:	8b 45 f0             	mov    -0x10(%rbp),%eax
    eec3:	48 98                	cltq   
    eec5:	48 8d 14 85 00 00 00 	lea    0x0(,%rax,4),%rdx
    eecc:	00 
    eecd:	48 8d 05 7c 7b 00 00 	lea    0x7b7c(%rip),%rax        # 16a50 <g_1212>
    eed4:	0f b7 04 02          	movzwl (%rdx,%rax,1),%eax
    eed8:	0f b7 c0             	movzwl %ax,%eax
    eedb:	8b 55 fc             	mov    -0x4(%rbp),%edx
    eede:	48 8d 35 03 30 00 00 	lea    0x3003(%rip),%rsi        # 11ee8 <g_905+0x1e58>
    eee5:	48 89 c7             	mov    %rax,%rdi
    eee8:	e8 06 78 ff ff       	callq  66f3 <transparent_crc>
    eeed:	83 7d fc 00          	cmpl   $0x0,-0x4(%rbp)
    eef1:	74 16                	je     ef09 <main+0x1292>
    eef3:	8b 45 f0             	mov    -0x10(%rbp),%eax
    eef6:	89 c6                	mov    %eax,%esi
    eef8:	48 8d 3d 1e 2c 00 00 	lea    0x2c1e(%rip),%rdi        # 11b1d <g_905+0x1a8d>
    eeff:	b8 00 00 00 00       	mov    $0x0,%eax
    ef04:	e8 77 61 ff ff       	callq  5080 <printf@plt>
    ef09:	83 45 f0 01          	addl   $0x1,-0x10(%rbp)
    ef0d:	83 7d f0 03          	cmpl   $0x3,-0x10(%rbp)
    ef11:	7e ad                	jle    eec0 <main+0x1249>
    ef13:	0f b7 05 46 7b 00 00 	movzwl 0x7b46(%rip),%eax        # 16a60 <g_1215>
    ef1a:	0f b7 c0             	movzwl %ax,%eax
    ef1d:	8b 55 fc             	mov    -0x4(%rbp),%edx
    ef20:	48 8d 35 ce 2f 00 00 	lea    0x2fce(%rip),%rsi        # 11ef5 <g_905+0x1e65>
    ef27:	48 89 c7             	mov    %rax,%rdi
    ef2a:	e8 c4 77 ff ff       	callq  66f3 <transparent_crc>
    ef2f:	0f b7 05 2e 7b 00 00 	movzwl 0x7b2e(%rip),%eax        # 16a64 <g_1255>
    ef36:	0f b7 c0             	movzwl %ax,%eax
    ef39:	8b 55 fc             	mov    -0x4(%rbp),%edx
    ef3c:	48 8d 35 bc 2f 00 00 	lea    0x2fbc(%rip),%rsi        # 11eff <g_905+0x1e6f>
    ef43:	48 89 c7             	mov    %rax,%rdi
    ef46:	e8 a8 77 ff ff       	callq  66f3 <transparent_crc>
    ef4b:	0f b6 05 16 7b 00 00 	movzbl 0x7b16(%rip),%eax        # 16a68 <g_1304>
    ef52:	48 0f be c0          	movsbq %al,%rax
    ef56:	8b 55 fc             	mov    -0x4(%rbp),%edx
    ef59:	48 8d 35 a9 2f 00 00 	lea    0x2fa9(%rip),%rsi        # 11f09 <g_905+0x1e79>
    ef60:	48 89 c7             	mov    %rax,%rdi
    ef63:	e8 8b 77 ff ff       	callq  66f3 <transparent_crc>
    ef68:	c7 45 f0 00 00 00 00 	movl   $0x0,-0x10(%rbp)
    ef6f:	e9 a2 00 00 00       	jmpq   f016 <main+0x139f>
    ef74:	c7 45 f4 00 00 00 00 	movl   $0x0,-0xc(%rbp)
    ef7b:	e9 88 00 00 00       	jmpq   f008 <main+0x1391>
    ef80:	c7 45 f8 00 00 00 00 	movl   $0x0,-0x8(%rbp)
    ef87:	eb 75                	jmp    effe <main+0x1387>
    ef89:	8b 45 f8             	mov    -0x8(%rbp),%eax
    ef8c:	48 63 f0             	movslq %eax,%rsi
    ef8f:	8b 45 f0             	mov    -0x10(%rbp),%eax
    ef92:	48 98                	cltq   
    ef94:	8b 55 f4             	mov    -0xc(%rbp),%edx
    ef97:	48 63 ca             	movslq %edx,%rcx
    ef9a:	48 89 c2             	mov    %rax,%rdx
    ef9d:	48 c1 e2 04          	shl    $0x4,%rdx
    efa1:	48 29 c2             	sub    %rax,%rdx
    efa4:	48 89 c8             	mov    %rcx,%rax
    efa7:	48 01 c0             	add    %rax,%rax
    efaa:	48 01 c8             	add    %rcx,%rax
    efad:	48 01 d0             	add    %rdx,%rax
    efb0:	48 01 f0             	add    %rsi,%rax
    efb3:	48 8d 14 c5 00 00 00 	lea    0x0(,%rax,8),%rdx
    efba:	00 
    efbb:	48 8d 05 be 7a 00 00 	lea    0x7abe(%rip),%rax        # 16a80 <g_1426>
    efc2:	48 8b 04 02          	mov    (%rdx,%rax,1),%rax
    efc6:	8b 55 fc             	mov    -0x4(%rbp),%edx
    efc9:	48 8d 35 43 2f 00 00 	lea    0x2f43(%rip),%rsi        # 11f13 <g_905+0x1e83>
    efd0:	48 89 c7             	mov    %rax,%rdi
    efd3:	e8 1b 77 ff ff       	callq  66f3 <transparent_crc>
    efd8:	83 7d fc 00          	cmpl   $0x0,-0x4(%rbp)
    efdc:	74 1c                	je     effa <main+0x1383>
    efde:	8b 4d f8             	mov    -0x8(%rbp),%ecx
    efe1:	8b 55 f4             	mov    -0xc(%rbp),%edx
    efe4:	8b 45 f0             	mov    -0x10(%rbp),%eax
    efe7:	89 c6                	mov    %eax,%esi
    efe9:	48 8d 3d 5e 2b 00 00 	lea    0x2b5e(%rip),%rdi        # 11b4e <g_905+0x1abe>
    eff0:	b8 00 00 00 00       	mov    $0x0,%eax
    eff5:	e8 86 60 ff ff       	callq  5080 <printf@plt>
    effa:	83 45 f8 01          	addl   $0x1,-0x8(%rbp)
    effe:	83 7d f8 02          	cmpl   $0x2,-0x8(%rbp)
    f002:	7e 85                	jle    ef89 <main+0x1312>
    f004:	83 45 f4 01          	addl   $0x1,-0xc(%rbp)
    f008:	83 7d f4 04          	cmpl   $0x4,-0xc(%rbp)
    f00c:	0f 8e 6e ff ff ff    	jle    ef80 <main+0x1309>
    f012:	83 45 f0 01          	addl   $0x1,-0x10(%rbp)
    f016:	83 7d f0 06          	cmpl   $0x6,-0x10(%rbp)
    f01a:	0f 8e 54 ff ff ff    	jle    ef74 <main+0x12fd>
    f020:	0f b6 05 a1 7d 00 00 	movzbl 0x7da1(%rip),%eax        # 16dc8 <g_1427>
    f027:	0f b6 c0             	movzbl %al,%eax
    f02a:	8b 55 fc             	mov    -0x4(%rbp),%edx
    f02d:	48 8d 35 f2 2e 00 00 	lea    0x2ef2(%rip),%rsi        # 11f26 <g_905+0x1e96>
    f034:	48 89 c7             	mov    %rax,%rdi
    f037:	e8 b7 76 ff ff       	callq  66f3 <transparent_crc>
    f03c:	0f b6 05 35 98 00 00 	movzbl 0x9835(%rip),%eax        # 18878 <g_1560>
    f043:	48 0f be c0          	movsbq %al,%rax
    f047:	8b 55 fc             	mov    -0x4(%rbp),%edx
    f04a:	48 8d 35 df 2e 00 00 	lea    0x2edf(%rip),%rsi        # 11f30 <g_905+0x1ea0>
    f051:	48 89 c7             	mov    %rax,%rdi
    f054:	e8 9a 76 ff ff       	callq  66f3 <transparent_crc>
    f059:	48 8b 05 70 7d 00 00 	mov    0x7d70(%rip),%rax        # 16dd0 <g_1575>
    f060:	8b 55 fc             	mov    -0x4(%rbp),%edx
    f063:	48 8d 35 cd 2e 00 00 	lea    0x2ecd(%rip),%rsi        # 11f37 <g_905+0x1ea7>
    f06a:	48 89 c7             	mov    %rax,%rdi
    f06d:	e8 81 76 ff ff       	callq  66f3 <transparent_crc>
    f072:	0f b7 05 5f 7d 00 00 	movzwl 0x7d5f(%rip),%eax        # 16dd8 <g_1606>
    f079:	0f b7 c0             	movzwl %ax,%eax
    f07c:	8b 55 fc             	mov    -0x4(%rbp),%edx
    f07f:	48 8d 35 bb 2e 00 00 	lea    0x2ebb(%rip),%rsi        # 11f41 <g_905+0x1eb1>
    f086:	48 89 c7             	mov    %rax,%rdi
    f089:	e8 65 76 ff ff       	callq  66f3 <transparent_crc>
    f08e:	0f b7 05 4b 7d 00 00 	movzwl 0x7d4b(%rip),%eax        # 16de0 <g_1632>
    f095:	48 0f bf c0          	movswq %ax,%rax
    f099:	8b 55 fc             	mov    -0x4(%rbp),%edx
    f09c:	48 8d 35 a8 2e 00 00 	lea    0x2ea8(%rip),%rsi        # 11f4b <g_905+0x1ebb>
    f0a3:	48 89 c7             	mov    %rax,%rdi
    f0a6:	e8 48 76 ff ff       	callq  66f3 <transparent_crc>
    f0ab:	8b 05 33 7d 00 00    	mov    0x7d33(%rip),%eax        # 16de4 <g_1632+0x4>
    f0b1:	48 98                	cltq   
    f0b3:	8b 55 fc             	mov    -0x4(%rbp),%edx
    f0b6:	48 8d 35 98 2e 00 00 	lea    0x2e98(%rip),%rsi        # 11f55 <g_905+0x1ec5>
    f0bd:	48 89 c7             	mov    %rax,%rdi
    f0c0:	e8 2e 76 ff ff       	callq  66f3 <transparent_crc>
    f0c5:	0f b6 05 1c 7d 00 00 	movzbl 0x7d1c(%rip),%eax        # 16de8 <g_1632+0x8>
    f0cc:	48 0f be c0          	movsbq %al,%rax
    f0d0:	8b 55 fc             	mov    -0x4(%rbp),%edx
    f0d3:	48 8d 35 85 2e 00 00 	lea    0x2e85(%rip),%rsi        # 11f5f <g_905+0x1ecf>
    f0da:	48 89 c7             	mov    %rax,%rdi
    f0dd:	e8 11 76 ff ff       	callq  66f3 <transparent_crc>
    f0e2:	8b 05 04 7d 00 00    	mov    0x7d04(%rip),%eax        # 16dec <g_1632+0xc>
    f0e8:	89 c1                	mov    %eax,%ecx
    f0ea:	8b 45 fc             	mov    -0x4(%rbp),%eax
    f0ed:	89 c2                	mov    %eax,%edx
    f0ef:	48 8d 35 73 2e 00 00 	lea    0x2e73(%rip),%rsi        # 11f69 <g_905+0x1ed9>
    f0f6:	48 89 cf             	mov    %rcx,%rdi
    f0f9:	e8 f5 75 ff ff       	callq  66f3 <transparent_crc>
    f0fe:	8b 05 ec 7c 00 00    	mov    0x7cec(%rip),%eax        # 16df0 <g_1632+0x10>
    f104:	25 ff ff ff 7f       	and    $0x7fffffff,%eax
    f109:	89 c1                	mov    %eax,%ecx
    f10b:	8b 45 fc             	mov    -0x4(%rbp),%eax
    f10e:	89 c2                	mov    %eax,%edx
    f110:	48 8d 35 5c 2e 00 00 	lea    0x2e5c(%rip),%rsi        # 11f73 <g_905+0x1ee3>
    f117:	48 89 cf             	mov    %rcx,%rdi
    f11a:	e8 d4 75 ff ff       	callq  66f3 <transparent_crc>
    f11f:	8b 05 cf 7c 00 00    	mov    0x7ccf(%rip),%eax        # 16df4 <g_1632+0x14>
    f125:	48 98                	cltq   
    f127:	8b 55 fc             	mov    -0x4(%rbp),%edx
    f12a:	48 8d 35 4c 2e 00 00 	lea    0x2e4c(%rip),%rsi        # 11f7d <g_905+0x1eed>
    f131:	48 89 c7             	mov    %rax,%rdi
    f134:	e8 ba 75 ff ff       	callq  66f3 <transparent_crc>
    f139:	48 8b 05 b8 7c 00 00 	mov    0x7cb8(%rip),%rax        # 16df8 <g_1632+0x18>
    f140:	48 89 c1             	mov    %rax,%rcx
    f143:	8b 45 fc             	mov    -0x4(%rbp),%eax
    f146:	89 c2                	mov    %eax,%edx
    f148:	48 8d 35 38 2e 00 00 	lea    0x2e38(%rip),%rsi        # 11f87 <g_905+0x1ef7>
    f14f:	48 89 cf             	mov    %rcx,%rdi
    f152:	e8 9c 75 ff ff       	callq  66f3 <transparent_crc>
    f157:	48 8b 05 a2 7c 00 00 	mov    0x7ca2(%rip),%rax        # 16e00 <g_1633>
    f15e:	8b 55 fc             	mov    -0x4(%rbp),%edx
    f161:	48 8d 35 29 2e 00 00 	lea    0x2e29(%rip),%rsi        # 11f91 <g_905+0x1f01>
    f168:	48 89 c7             	mov    %rax,%rdi
    f16b:	e8 83 75 ff ff       	callq  66f3 <transparent_crc>
    f170:	c7 45 f0 00 00 00 00 	movl   $0x0,-0x10(%rbp)
    f177:	e9 92 00 00 00       	jmpq   f20e <main+0x1597>
    f17c:	c7 45 f4 00 00 00 00 	movl   $0x0,-0xc(%rbp)
    f183:	eb 7b                	jmp    f200 <main+0x1589>
    f185:	c7 45 f8 00 00 00 00 	movl   $0x0,-0x8(%rbp)
    f18c:	eb 68                	jmp    f1f6 <main+0x157f>
    f18e:	8b 45 f8             	mov    -0x8(%rbp),%eax
    f191:	48 98                	cltq   
    f193:	8b 55 f0             	mov    -0x10(%rbp),%edx
    f196:	48 63 ca             	movslq %edx,%rcx
    f199:	8b 55 f4             	mov    -0xc(%rbp),%edx
    f19c:	48 63 d2             	movslq %edx,%rdx
    f19f:	48 01 c9             	add    %rcx,%rcx
    f1a2:	48 01 ca             	add    %rcx,%rdx
    f1a5:	48 01 d2             	add    %rdx,%rdx
    f1a8:	48 01 d0             	add    %rdx,%rax
    f1ab:	48 8d 14 c5 00 00 00 	lea    0x0(,%rax,8),%rdx
    f1b2:	00 
    f1b3:	48 8d 05 66 7c 00 00 	lea    0x7c66(%rip),%rax        # 16e20 <g_1639>
    f1ba:	48 8b 04 02          	mov    (%rdx,%rax,1),%rax
    f1be:	8b 55 fc             	mov    -0x4(%rbp),%edx
    f1c1:	48 8d 35 d3 2d 00 00 	lea    0x2dd3(%rip),%rsi        # 11f9b <g_905+0x1f0b>
    f1c8:	48 89 c7             	mov    %rax,%rdi
    f1cb:	e8 23 75 ff ff       	callq  66f3 <transparent_crc>
    f1d0:	83 7d fc 00          	cmpl   $0x0,-0x4(%rbp)
    f1d4:	74 1c                	je     f1f2 <main+0x157b>
    f1d6:	8b 4d f8             	mov    -0x8(%rbp),%ecx
    f1d9:	8b 55 f4             	mov    -0xc(%rbp),%edx
    f1dc:	8b 45 f0             	mov    -0x10(%rbp),%eax
    f1df:	89 c6                	mov    %eax,%esi
    f1e1:	48 8d 3d 66 29 00 00 	lea    0x2966(%rip),%rdi        # 11b4e <g_905+0x1abe>
    f1e8:	b8 00 00 00 00       	mov    $0x0,%eax
    f1ed:	e8 8e 5e ff ff       	callq  5080 <printf@plt>
    f1f2:	83 45 f8 01          	addl   $0x1,-0x8(%rbp)
    f1f6:	83 7d f8 01          	cmpl   $0x1,-0x8(%rbp)
    f1fa:	7e 92                	jle    f18e <main+0x1517>
    f1fc:	83 45 f4 01          	addl   $0x1,-0xc(%rbp)
    f200:	83 7d f4 01          	cmpl   $0x1,-0xc(%rbp)
    f204:	0f 8e 7b ff ff ff    	jle    f185 <main+0x150e>
    f20a:	83 45 f0 01          	addl   $0x1,-0x10(%rbp)
    f20e:	83 7d f0 06          	cmpl   $0x6,-0x10(%rbp)
    f212:	0f 8e 64 ff ff ff    	jle    f17c <main+0x1505>
    f218:	48 8b 05 e1 7c 00 00 	mov    0x7ce1(%rip),%rax        # 16f00 <g_1651>
    f21f:	8b 55 fc             	mov    -0x4(%rbp),%edx
    f222:	48 8d 35 85 2d 00 00 	lea    0x2d85(%rip),%rsi        # 11fae <g_905+0x1f1e>
    f229:	48 89 c7             	mov    %rax,%rdi
    f22c:	e8 c2 74 ff ff       	callq  66f3 <transparent_crc>
    f231:	48 8b 05 d0 7c 00 00 	mov    0x7cd0(%rip),%rax        # 16f08 <g_1652>
    f238:	8b 55 fc             	mov    -0x4(%rbp),%edx
    f23b:	48 8d 35 76 2d 00 00 	lea    0x2d76(%rip),%rsi        # 11fb8 <g_905+0x1f28>
    f242:	48 89 c7             	mov    %rax,%rdi
    f245:	e8 a9 74 ff ff       	callq  66f3 <transparent_crc>
    f24a:	8b 05 c0 7c 00 00    	mov    0x7cc0(%rip),%eax        # 16f10 <g_1658>
    f250:	48 98                	cltq   
    f252:	8b 55 fc             	mov    -0x4(%rbp),%edx
    f255:	48 8d 35 66 2d 00 00 	lea    0x2d66(%rip),%rsi        # 11fc2 <g_905+0x1f32>
    f25c:	48 89 c7             	mov    %rax,%rdi
    f25f:	e8 8f 74 ff ff       	callq  66f3 <transparent_crc>
    f264:	0f b6 05 a9 7c 00 00 	movzbl 0x7ca9(%rip),%eax        # 16f14 <g_1668>
    f26b:	48 0f be c0          	movsbq %al,%rax
    f26f:	8b 55 fc             	mov    -0x4(%rbp),%edx
    f272:	48 8d 35 50 2d 00 00 	lea    0x2d50(%rip),%rsi        # 11fc9 <g_905+0x1f39>
    f279:	48 89 c7             	mov    %rax,%rdi
    f27c:	e8 72 74 ff ff       	callq  66f3 <transparent_crc>
    f281:	8b 05 99 5d 00 00    	mov    0x5d99(%rip),%eax        # 15020 <crc32_context>
    f287:	f7 d0                	not    %eax
    f289:	89 c2                	mov    %eax,%edx
    f28b:	8b 45 fc             	mov    -0x4(%rbp),%eax
    f28e:	89 c6                	mov    %eax,%esi
    f290:	89 d7                	mov    %edx,%edi
    f292:	e8 fd 5e ff ff       	callq  5194 <platform_main_end>
    f297:	b8 00 00 00 00       	mov    $0x0,%eax
    f29c:	c9                   	leaveq 
    f29d:	c3                   	retq   
    f29e:	66 90                	xchg   %ax,%ax

000000000000f2a0 <__libc_csu_init>:
    f2a0:	f3 0f 1e fa          	endbr64 
    f2a4:	41 57                	push   %r15
    f2a6:	4c 8d 3d 63 53 00 00 	lea    0x5363(%rip),%r15        # 14610 <__frame_dummy_init_array_entry>
    f2ad:	41 56                	push   %r14
    f2af:	49 89 d6             	mov    %rdx,%r14
    f2b2:	41 55                	push   %r13
    f2b4:	49 89 f5             	mov    %rsi,%r13
    f2b7:	41 54                	push   %r12
    f2b9:	41 89 fc             	mov    %edi,%r12d
    f2bc:	55                   	push   %rbp
    f2bd:	48 8d 2d 54 53 00 00 	lea    0x5354(%rip),%rbp        # 14618 <__do_global_dtors_aux_fini_array_entry>
    f2c4:	53                   	push   %rbx
    f2c5:	4c 29 fd             	sub    %r15,%rbp
    f2c8:	48 83 ec 08          	sub    $0x8,%rsp
    f2cc:	e8 2f 5d ff ff       	callq  5000 <_init>
    f2d1:	48 c1 fd 03          	sar    $0x3,%rbp
    f2d5:	74 1f                	je     f2f6 <__libc_csu_init+0x56>
    f2d7:	31 db                	xor    %ebx,%ebx
    f2d9:	0f 1f 80 00 00 00 00 	nopl   0x0(%rax)
    f2e0:	4c 89 f2             	mov    %r14,%rdx
    f2e3:	4c 89 ee             	mov    %r13,%rsi
    f2e6:	44 89 e7             	mov    %r12d,%edi
    f2e9:	41 ff 14 df          	callq  *(%r15,%rbx,8)
    f2ed:	48 83 c3 01          	add    $0x1,%rbx
    f2f1:	48 39 dd             	cmp    %rbx,%rbp
    f2f4:	75 ea                	jne    f2e0 <__libc_csu_init+0x40>
    f2f6:	48 83 c4 08          	add    $0x8,%rsp
    f2fa:	5b                   	pop    %rbx
    f2fb:	5d                   	pop    %rbp
    f2fc:	41 5c                	pop    %r12
    f2fe:	41 5d                	pop    %r13
    f300:	41 5e                	pop    %r14
    f302:	41 5f                	pop    %r15
    f304:	c3                   	retq   
    f305:	66 66 2e 0f 1f 84 00 	data16 nopw %cs:0x0(%rax,%rax,1)
    f30c:	00 00 00 00 

000000000000f310 <__libc_csu_fini>:
    f310:	f3 0f 1e fa          	endbr64 
    f314:	c3                   	retq   
