


Disassembly of section .text:

00000000000080a0 <_start>:
    80a0:	f3 0f 1e fa          	endbr64 
    80a4:	31 ed                	xor    %ebp,%ebp
    80a6:	49 89 d1             	mov    %rdx,%r9
    80a9:	5e                   	pop    %rsi
    80aa:	48 89 e2             	mov    %rsp,%rdx
    80ad:	48 83 e4 f0          	and    $0xfffffffffffffff0,%rsp
    80b1:	50                   	push   %rax
    80b2:	54                   	push   %rsp
    80b3:	4c 8d 05 66 a6 00 00 	lea    0xa666(%rip),%r8        # 12720 <__libc_csu_fini>
    80ba:	48 8d 0d ef a5 00 00 	lea    0xa5ef(%rip),%rcx        # 126b0 <__libc_csu_init>
    80c1:	48 8d 3d 54 65 00 00 	lea    0x6554(%rip),%rdi        # e61c <main>
    80c8:	ff 15 12 ef 00 00    	callq  *0xef12(%rip)        # 16fe0 <__libc_start_main@GLIBC_2.2.5>
    80ce:	f4                   	hlt    
    80cf:	90                   	nop

00000000000080d0 <deregister_tm_clones>:
    80d0:	48 8d 3d e9 35 01 00 	lea    0x135e9(%rip),%rdi        # 1b6c0 <__TMC_END__>
    80d7:	48 8d 05 e2 35 01 00 	lea    0x135e2(%rip),%rax        # 1b6c0 <__TMC_END__>
    80de:	48 39 f8             	cmp    %rdi,%rax
    80e1:	74 15                	je     80f8 <deregister_tm_clones+0x28>
    80e3:	48 8b 05 ee ee 00 00 	mov    0xeeee(%rip),%rax        # 16fd8 <_ITM_deregisterTMCloneTable>
    80ea:	48 85 c0             	test   %rax,%rax
    80ed:	74 09                	je     80f8 <deregister_tm_clones+0x28>
    80ef:	ff e0                	jmpq   *%rax
    80f1:	0f 1f 80 00 00 00 00 	nopl   0x0(%rax)
    80f8:	c3                   	retq   
    80f9:	0f 1f 80 00 00 00 00 	nopl   0x0(%rax)

0000000000008100 <register_tm_clones>:
    8100:	48 8d 3d b9 35 01 00 	lea    0x135b9(%rip),%rdi        # 1b6c0 <__TMC_END__>
    8107:	48 8d 35 b2 35 01 00 	lea    0x135b2(%rip),%rsi        # 1b6c0 <__TMC_END__>
    810e:	48 29 fe             	sub    %rdi,%rsi
    8111:	48 89 f0             	mov    %rsi,%rax
    8114:	48 c1 ee 3f          	shr    $0x3f,%rsi
    8118:	48 c1 f8 03          	sar    $0x3,%rax
    811c:	48 01 c6             	add    %rax,%rsi
    811f:	48 d1 fe             	sar    %rsi
    8122:	74 14                	je     8138 <register_tm_clones+0x38>
    8124:	48 8b 05 c5 ee 00 00 	mov    0xeec5(%rip),%rax        # 16ff0 <_ITM_registerTMCloneTable>
    812b:	48 85 c0             	test   %rax,%rax
    812e:	74 08                	je     8138 <register_tm_clones+0x38>
    8130:	ff e0                	jmpq   *%rax
    8132:	66 0f 1f 44 00 00    	nopw   0x0(%rax,%rax,1)
    8138:	c3                   	retq   
    8139:	0f 1f 80 00 00 00 00 	nopl   0x0(%rax)

0000000000008140 <__do_global_dtors_aux>:
    8140:	f3 0f 1e fa          	endbr64 
    8144:	80 3d 75 35 01 00 00 	cmpb   $0x0,0x13575(%rip)        # 1b6c0 <__TMC_END__>
    814b:	75 2b                	jne    8178 <__do_global_dtors_aux+0x38>
    814d:	55                   	push   %rbp
    814e:	48 83 3d a2 ee 00 00 	cmpq   $0x0,0xeea2(%rip)        # 16ff8 <__cxa_finalize@GLIBC_2.2.5>
    8155:	00 
    8156:	48 89 e5             	mov    %rsp,%rbp
    8159:	74 0c                	je     8167 <__do_global_dtors_aux+0x27>
    815b:	48 8b 3d a6 ee 00 00 	mov    0xeea6(%rip),%rdi        # 17008 <__dso_handle>
    8162:	e8 f9 fe ff ff       	callq  8060 <__cxa_finalize@plt>
    8167:	e8 64 ff ff ff       	callq  80d0 <deregister_tm_clones>
    816c:	c6 05 4d 35 01 00 01 	movb   $0x1,0x1354d(%rip)        # 1b6c0 <__TMC_END__>
    8173:	5d                   	pop    %rbp
    8174:	c3                   	retq   
    8175:	0f 1f 00             	nopl   (%rax)
    8178:	c3                   	retq   
    8179:	0f 1f 80 00 00 00 00 	nopl   0x0(%rax)

0000000000008180 <frame_dummy>:
    8180:	f3 0f 1e fa          	endbr64 
    8184:	e9 77 ff ff ff       	jmpq   8100 <register_tm_clones>

0000000000008189 <platform_main_begin>:
    8189:	f3 0f 1e fa          	endbr64 
    818d:	55                   	push   %rbp
    818e:	48 89 e5             	mov    %rsp,%rbp
    8191:	90                   	nop
    8192:	5d                   	pop    %rbp
    8193:	c3                   	retq   

0000000000008194 <platform_main_end>:
    8194:	f3 0f 1e fa          	endbr64 
    8198:	55                   	push   %rbp
    8199:	48 89 e5             	mov    %rsp,%rbp
    819c:	48 83 ec 10          	sub    $0x10,%rsp
    81a0:	89 7d fc             	mov    %edi,-0x4(%rbp)
    81a3:	89 75 f8             	mov    %esi,-0x8(%rbp)
    81a6:	8b 45 fc             	mov    -0x4(%rbp),%eax
    81a9:	89 c6                	mov    %eax,%esi
    81ab:	48 8d 3d 6e ae 00 00 	lea    0xae6e(%rip),%rdi        # 13020 <_IO_stdin_used+0x20>
    81b2:	b8 00 00 00 00       	mov    $0x0,%eax
    81b7:	e8 c4 fe ff ff       	callq  8080 <printf@plt>
    81bc:	90                   	nop
    81bd:	c9                   	leaveq 
    81be:	c3                   	retq   

00000000000081bf <safe_unary_minus_func_int8_t_s>:
    81bf:	f3 0f 1e fa          	endbr64 
    81c3:	55                   	push   %rbp
    81c4:	48 89 e5             	mov    %rsp,%rbp
    81c7:	89 f8                	mov    %edi,%eax
    81c9:	88 45 fc             	mov    %al,-0x4(%rbp)
    81cc:	0f b6 45 fc          	movzbl -0x4(%rbp),%eax
    81d0:	f7 d8                	neg    %eax
    81d2:	5d                   	pop    %rbp
    81d3:	c3                   	retq   

00000000000081d4 <safe_add_func_int8_t_s_s>:
    81d4:	f3 0f 1e fa          	endbr64 
    81d8:	55                   	push   %rbp
    81d9:	48 89 e5             	mov    %rsp,%rbp
    81dc:	89 fa                	mov    %edi,%edx
    81de:	89 f0                	mov    %esi,%eax
    81e0:	88 55 fc             	mov    %dl,-0x4(%rbp)
    81e3:	88 45 f8             	mov    %al,-0x8(%rbp)
    81e6:	0f b6 55 fc          	movzbl -0x4(%rbp),%edx
    81ea:	0f b6 45 f8          	movzbl -0x8(%rbp),%eax
    81ee:	01 d0                	add    %edx,%eax
    81f0:	5d                   	pop    %rbp
    81f1:	c3                   	retq   

00000000000081f2 <safe_sub_func_int8_t_s_s>:
    81f2:	f3 0f 1e fa          	endbr64 
    81f6:	55                   	push   %rbp
    81f7:	48 89 e5             	mov    %rsp,%rbp
    81fa:	89 fa                	mov    %edi,%edx
    81fc:	89 f0                	mov    %esi,%eax
    81fe:	88 55 fc             	mov    %dl,-0x4(%rbp)
    8201:	88 45 f8             	mov    %al,-0x8(%rbp)
    8204:	0f b6 55 fc          	movzbl -0x4(%rbp),%edx
    8208:	0f b6 45 f8          	movzbl -0x8(%rbp),%eax
    820c:	29 c2                	sub    %eax,%edx
    820e:	89 d0                	mov    %edx,%eax
    8210:	5d                   	pop    %rbp
    8211:	c3                   	retq   

0000000000008212 <safe_mul_func_int8_t_s_s>:
    8212:	f3 0f 1e fa          	endbr64 
    8216:	55                   	push   %rbp
    8217:	48 89 e5             	mov    %rsp,%rbp
    821a:	89 fa                	mov    %edi,%edx
    821c:	89 f0                	mov    %esi,%eax
    821e:	88 55 fc             	mov    %dl,-0x4(%rbp)
    8221:	88 45 f8             	mov    %al,-0x8(%rbp)
    8224:	0f b6 45 fc          	movzbl -0x4(%rbp),%eax
    8228:	0f b6 55 f8          	movzbl -0x8(%rbp),%edx
    822c:	0f af c2             	imul   %edx,%eax
    822f:	5d                   	pop    %rbp
    8230:	c3                   	retq   

0000000000008231 <safe_mod_func_int8_t_s_s>:
    8231:	f3 0f 1e fa          	endbr64 
    8235:	55                   	push   %rbp
    8236:	48 89 e5             	mov    %rsp,%rbp
    8239:	89 fa                	mov    %edi,%edx
    823b:	89 f0                	mov    %esi,%eax
    823d:	88 55 fc             	mov    %dl,-0x4(%rbp)
    8240:	88 45 f8             	mov    %al,-0x8(%rbp)
    8243:	80 7d f8 00          	cmpb   $0x0,-0x8(%rbp)
    8247:	74 1b                	je     8264 <safe_mod_func_int8_t_s_s+0x33>
    8249:	80 7d fc 80          	cmpb   $0x80,-0x4(%rbp)
    824d:	75 06                	jne    8255 <safe_mod_func_int8_t_s_s+0x24>
    824f:	80 7d f8 ff          	cmpb   $0xff,-0x8(%rbp)
    8253:	74 0f                	je     8264 <safe_mod_func_int8_t_s_s+0x33>
    8255:	0f be 45 fc          	movsbl -0x4(%rbp),%eax
    8259:	0f be 4d f8          	movsbl -0x8(%rbp),%ecx
    825d:	99                   	cltd   
    825e:	f7 f9                	idiv   %ecx
    8260:	89 d0                	mov    %edx,%eax
    8262:	eb 04                	jmp    8268 <safe_mod_func_int8_t_s_s+0x37>
    8264:	0f b6 45 fc          	movzbl -0x4(%rbp),%eax
    8268:	5d                   	pop    %rbp
    8269:	c3                   	retq   

000000000000826a <safe_div_func_int8_t_s_s>:
    826a:	f3 0f 1e fa          	endbr64 
    826e:	55                   	push   %rbp
    826f:	48 89 e5             	mov    %rsp,%rbp
    8272:	89 fa                	mov    %edi,%edx
    8274:	89 f0                	mov    %esi,%eax
    8276:	88 55 fc             	mov    %dl,-0x4(%rbp)
    8279:	88 45 f8             	mov    %al,-0x8(%rbp)
    827c:	80 7d f8 00          	cmpb   $0x0,-0x8(%rbp)
    8280:	74 19                	je     829b <safe_div_func_int8_t_s_s+0x31>
    8282:	80 7d fc 80          	cmpb   $0x80,-0x4(%rbp)
    8286:	75 06                	jne    828e <safe_div_func_int8_t_s_s+0x24>
    8288:	80 7d f8 ff          	cmpb   $0xff,-0x8(%rbp)
    828c:	74 0d                	je     829b <safe_div_func_int8_t_s_s+0x31>
    828e:	0f be 45 fc          	movsbl -0x4(%rbp),%eax
    8292:	0f be 4d f8          	movsbl -0x8(%rbp),%ecx
    8296:	99                   	cltd   
    8297:	f7 f9                	idiv   %ecx
    8299:	eb 04                	jmp    829f <safe_div_func_int8_t_s_s+0x35>
    829b:	0f b6 45 fc          	movzbl -0x4(%rbp),%eax
    829f:	5d                   	pop    %rbp
    82a0:	c3                   	retq   

00000000000082a1 <safe_lshift_func_int8_t_s_s>:
    82a1:	f3 0f 1e fa          	endbr64 
    82a5:	55                   	push   %rbp
    82a6:	48 89 e5             	mov    %rsp,%rbp
    82a9:	89 f8                	mov    %edi,%eax
    82ab:	89 75 f8             	mov    %esi,-0x8(%rbp)
    82ae:	88 45 fc             	mov    %al,-0x4(%rbp)
    82b1:	80 7d fc 00          	cmpb   $0x0,-0x4(%rbp)
    82b5:	78 31                	js     82e8 <safe_lshift_func_int8_t_s_s+0x47>
    82b7:	83 7d f8 00          	cmpl   $0x0,-0x8(%rbp)
    82bb:	78 2b                	js     82e8 <safe_lshift_func_int8_t_s_s+0x47>
    82bd:	83 7d f8 1f          	cmpl   $0x1f,-0x8(%rbp)
    82c1:	7f 25                	jg     82e8 <safe_lshift_func_int8_t_s_s+0x47>
    82c3:	0f be 55 fc          	movsbl -0x4(%rbp),%edx
    82c7:	8b 45 f8             	mov    -0x8(%rbp),%eax
    82ca:	be 7f 00 00 00       	mov    $0x7f,%esi
    82cf:	89 c1                	mov    %eax,%ecx
    82d1:	d3 fe                	sar    %cl,%esi
    82d3:	89 f0                	mov    %esi,%eax
    82d5:	39 c2                	cmp    %eax,%edx
    82d7:	7f 0f                	jg     82e8 <safe_lshift_func_int8_t_s_s+0x47>
    82d9:	0f be 55 fc          	movsbl -0x4(%rbp),%edx
    82dd:	8b 45 f8             	mov    -0x8(%rbp),%eax
    82e0:	89 c1                	mov    %eax,%ecx
    82e2:	d3 e2                	shl    %cl,%edx
    82e4:	89 d0                	mov    %edx,%eax
    82e6:	eb 04                	jmp    82ec <safe_lshift_func_int8_t_s_s+0x4b>
    82e8:	0f b6 45 fc          	movzbl -0x4(%rbp),%eax
    82ec:	5d                   	pop    %rbp
    82ed:	c3                   	retq   

00000000000082ee <safe_lshift_func_int8_t_s_u>:
    82ee:	f3 0f 1e fa          	endbr64 
    82f2:	55                   	push   %rbp
    82f3:	48 89 e5             	mov    %rsp,%rbp
    82f6:	89 f8                	mov    %edi,%eax
    82f8:	89 75 f8             	mov    %esi,-0x8(%rbp)
    82fb:	88 45 fc             	mov    %al,-0x4(%rbp)
    82fe:	80 7d fc 00          	cmpb   $0x0,-0x4(%rbp)
    8302:	78 2b                	js     832f <safe_lshift_func_int8_t_s_u+0x41>
    8304:	83 7d f8 1f          	cmpl   $0x1f,-0x8(%rbp)
    8308:	77 25                	ja     832f <safe_lshift_func_int8_t_s_u+0x41>
    830a:	0f be 55 fc          	movsbl -0x4(%rbp),%edx
    830e:	8b 45 f8             	mov    -0x8(%rbp),%eax
    8311:	be 7f 00 00 00       	mov    $0x7f,%esi
    8316:	89 c1                	mov    %eax,%ecx
    8318:	d3 fe                	sar    %cl,%esi
    831a:	89 f0                	mov    %esi,%eax
    831c:	39 c2                	cmp    %eax,%edx
    831e:	7f 0f                	jg     832f <safe_lshift_func_int8_t_s_u+0x41>
    8320:	0f be 55 fc          	movsbl -0x4(%rbp),%edx
    8324:	8b 45 f8             	mov    -0x8(%rbp),%eax
    8327:	89 c1                	mov    %eax,%ecx
    8329:	d3 e2                	shl    %cl,%edx
    832b:	89 d0                	mov    %edx,%eax
    832d:	eb 04                	jmp    8333 <safe_lshift_func_int8_t_s_u+0x45>
    832f:	0f b6 45 fc          	movzbl -0x4(%rbp),%eax
    8333:	5d                   	pop    %rbp
    8334:	c3                   	retq   

0000000000008335 <safe_rshift_func_int8_t_s_s>:
    8335:	f3 0f 1e fa          	endbr64 
    8339:	55                   	push   %rbp
    833a:	48 89 e5             	mov    %rsp,%rbp
    833d:	89 f8                	mov    %edi,%eax
    833f:	89 75 f8             	mov    %esi,-0x8(%rbp)
    8342:	88 45 fc             	mov    %al,-0x4(%rbp)
    8345:	80 7d fc 00          	cmpb   $0x0,-0x4(%rbp)
    8349:	78 1b                	js     8366 <safe_rshift_func_int8_t_s_s+0x31>
    834b:	83 7d f8 00          	cmpl   $0x0,-0x8(%rbp)
    834f:	78 15                	js     8366 <safe_rshift_func_int8_t_s_s+0x31>
    8351:	83 7d f8 1f          	cmpl   $0x1f,-0x8(%rbp)
    8355:	7f 0f                	jg     8366 <safe_rshift_func_int8_t_s_s+0x31>
    8357:	0f be 55 fc          	movsbl -0x4(%rbp),%edx
    835b:	8b 45 f8             	mov    -0x8(%rbp),%eax
    835e:	89 c1                	mov    %eax,%ecx
    8360:	d3 fa                	sar    %cl,%edx
    8362:	89 d0                	mov    %edx,%eax
    8364:	eb 04                	jmp    836a <safe_rshift_func_int8_t_s_s+0x35>
    8366:	0f b6 45 fc          	movzbl -0x4(%rbp),%eax
    836a:	5d                   	pop    %rbp
    836b:	c3                   	retq   

000000000000836c <safe_rshift_func_int8_t_s_u>:
    836c:	f3 0f 1e fa          	endbr64 
    8370:	55                   	push   %rbp
    8371:	48 89 e5             	mov    %rsp,%rbp
    8374:	89 f8                	mov    %edi,%eax
    8376:	89 75 f8             	mov    %esi,-0x8(%rbp)
    8379:	88 45 fc             	mov    %al,-0x4(%rbp)
    837c:	80 7d fc 00          	cmpb   $0x0,-0x4(%rbp)
    8380:	78 15                	js     8397 <safe_rshift_func_int8_t_s_u+0x2b>
    8382:	83 7d f8 1f          	cmpl   $0x1f,-0x8(%rbp)
    8386:	77 0f                	ja     8397 <safe_rshift_func_int8_t_s_u+0x2b>
    8388:	0f be 55 fc          	movsbl -0x4(%rbp),%edx
    838c:	8b 45 f8             	mov    -0x8(%rbp),%eax
    838f:	89 c1                	mov    %eax,%ecx
    8391:	d3 fa                	sar    %cl,%edx
    8393:	89 d0                	mov    %edx,%eax
    8395:	eb 04                	jmp    839b <safe_rshift_func_int8_t_s_u+0x2f>
    8397:	0f b6 45 fc          	movzbl -0x4(%rbp),%eax
    839b:	5d                   	pop    %rbp
    839c:	c3                   	retq   

000000000000839d <safe_unary_minus_func_int16_t_s>:
    839d:	f3 0f 1e fa          	endbr64 
    83a1:	55                   	push   %rbp
    83a2:	48 89 e5             	mov    %rsp,%rbp
    83a5:	89 f8                	mov    %edi,%eax
    83a7:	66 89 45 fc          	mov    %ax,-0x4(%rbp)
    83ab:	0f b7 45 fc          	movzwl -0x4(%rbp),%eax
    83af:	f7 d8                	neg    %eax
    83b1:	5d                   	pop    %rbp
    83b2:	c3                   	retq   

00000000000083b3 <safe_add_func_int16_t_s_s>:
    83b3:	f3 0f 1e fa          	endbr64 
    83b7:	55                   	push   %rbp
    83b8:	48 89 e5             	mov    %rsp,%rbp
    83bb:	89 fa                	mov    %edi,%edx
    83bd:	89 f0                	mov    %esi,%eax
    83bf:	66 89 55 fc          	mov    %dx,-0x4(%rbp)
    83c3:	66 89 45 f8          	mov    %ax,-0x8(%rbp)
    83c7:	0f b7 55 fc          	movzwl -0x4(%rbp),%edx
    83cb:	0f b7 45 f8          	movzwl -0x8(%rbp),%eax
    83cf:	01 d0                	add    %edx,%eax
    83d1:	5d                   	pop    %rbp
    83d2:	c3                   	retq   

00000000000083d3 <safe_sub_func_int16_t_s_s>:
    83d3:	f3 0f 1e fa          	endbr64 
    83d7:	55                   	push   %rbp
    83d8:	48 89 e5             	mov    %rsp,%rbp
    83db:	89 fa                	mov    %edi,%edx
    83dd:	89 f0                	mov    %esi,%eax
    83df:	66 89 55 fc          	mov    %dx,-0x4(%rbp)
    83e3:	66 89 45 f8          	mov    %ax,-0x8(%rbp)
    83e7:	0f b7 55 fc          	movzwl -0x4(%rbp),%edx
    83eb:	0f b7 45 f8          	movzwl -0x8(%rbp),%eax
    83ef:	29 c2                	sub    %eax,%edx
    83f1:	89 d0                	mov    %edx,%eax
    83f3:	5d                   	pop    %rbp
    83f4:	c3                   	retq   

00000000000083f5 <safe_mul_func_int16_t_s_s>:
    83f5:	f3 0f 1e fa          	endbr64 
    83f9:	55                   	push   %rbp
    83fa:	48 89 e5             	mov    %rsp,%rbp
    83fd:	89 fa                	mov    %edi,%edx
    83ff:	89 f0                	mov    %esi,%eax
    8401:	66 89 55 fc          	mov    %dx,-0x4(%rbp)
    8405:	66 89 45 f8          	mov    %ax,-0x8(%rbp)
    8409:	0f b7 55 fc          	movzwl -0x4(%rbp),%edx
    840d:	0f b7 45 f8          	movzwl -0x8(%rbp),%eax
    8411:	0f af c2             	imul   %edx,%eax
    8414:	5d                   	pop    %rbp
    8415:	c3                   	retq   

0000000000008416 <safe_mod_func_int16_t_s_s>:
    8416:	f3 0f 1e fa          	endbr64 
    841a:	55                   	push   %rbp
    841b:	48 89 e5             	mov    %rsp,%rbp
    841e:	89 fa                	mov    %edi,%edx
    8420:	89 f0                	mov    %esi,%eax
    8422:	66 89 55 fc          	mov    %dx,-0x4(%rbp)
    8426:	66 89 45 f8          	mov    %ax,-0x8(%rbp)
    842a:	66 83 7d f8 00       	cmpw   $0x0,-0x8(%rbp)
    842f:	74 1e                	je     844f <safe_mod_func_int16_t_s_s+0x39>
    8431:	66 81 7d fc 00 80    	cmpw   $0x8000,-0x4(%rbp)
    8437:	75 07                	jne    8440 <safe_mod_func_int16_t_s_s+0x2a>
    8439:	66 83 7d f8 ff       	cmpw   $0xffff,-0x8(%rbp)
    843e:	74 0f                	je     844f <safe_mod_func_int16_t_s_s+0x39>
    8440:	0f bf 45 fc          	movswl -0x4(%rbp),%eax
    8444:	0f bf 4d f8          	movswl -0x8(%rbp),%ecx
    8448:	99                   	cltd   
    8449:	f7 f9                	idiv   %ecx
    844b:	89 d0                	mov    %edx,%eax
    844d:	eb 04                	jmp    8453 <safe_mod_func_int16_t_s_s+0x3d>
    844f:	0f b7 45 fc          	movzwl -0x4(%rbp),%eax
    8453:	5d                   	pop    %rbp
    8454:	c3                   	retq   

0000000000008455 <safe_div_func_int16_t_s_s>:
    8455:	f3 0f 1e fa          	endbr64 
    8459:	55                   	push   %rbp
    845a:	48 89 e5             	mov    %rsp,%rbp
    845d:	89 fa                	mov    %edi,%edx
    845f:	89 f0                	mov    %esi,%eax
    8461:	66 89 55 fc          	mov    %dx,-0x4(%rbp)
    8465:	66 89 45 f8          	mov    %ax,-0x8(%rbp)
    8469:	66 83 7d f8 00       	cmpw   $0x0,-0x8(%rbp)
    846e:	74 1c                	je     848c <safe_div_func_int16_t_s_s+0x37>
    8470:	66 81 7d fc 00 80    	cmpw   $0x8000,-0x4(%rbp)
    8476:	75 07                	jne    847f <safe_div_func_int16_t_s_s+0x2a>
    8478:	66 83 7d f8 ff       	cmpw   $0xffff,-0x8(%rbp)
    847d:	74 0d                	je     848c <safe_div_func_int16_t_s_s+0x37>
    847f:	0f bf 45 fc          	movswl -0x4(%rbp),%eax
    8483:	0f bf 4d f8          	movswl -0x8(%rbp),%ecx
    8487:	99                   	cltd   
    8488:	f7 f9                	idiv   %ecx
    848a:	eb 04                	jmp    8490 <safe_div_func_int16_t_s_s+0x3b>
    848c:	0f b7 45 fc          	movzwl -0x4(%rbp),%eax
    8490:	5d                   	pop    %rbp
    8491:	c3                   	retq   

0000000000008492 <safe_lshift_func_int16_t_s_s>:
    8492:	f3 0f 1e fa          	endbr64 
    8496:	55                   	push   %rbp
    8497:	48 89 e5             	mov    %rsp,%rbp
    849a:	89 f8                	mov    %edi,%eax
    849c:	89 75 f8             	mov    %esi,-0x8(%rbp)
    849f:	66 89 45 fc          	mov    %ax,-0x4(%rbp)
    84a3:	66 83 7d fc 00       	cmpw   $0x0,-0x4(%rbp)
    84a8:	78 31                	js     84db <safe_lshift_func_int16_t_s_s+0x49>
    84aa:	83 7d f8 00          	cmpl   $0x0,-0x8(%rbp)
    84ae:	78 2b                	js     84db <safe_lshift_func_int16_t_s_s+0x49>
    84b0:	83 7d f8 1f          	cmpl   $0x1f,-0x8(%rbp)
    84b4:	7f 25                	jg     84db <safe_lshift_func_int16_t_s_s+0x49>
    84b6:	0f bf 55 fc          	movswl -0x4(%rbp),%edx
    84ba:	8b 45 f8             	mov    -0x8(%rbp),%eax
    84bd:	be ff 7f 00 00       	mov    $0x7fff,%esi
    84c2:	89 c1                	mov    %eax,%ecx
    84c4:	d3 fe                	sar    %cl,%esi
    84c6:	89 f0                	mov    %esi,%eax
    84c8:	39 c2                	cmp    %eax,%edx
    84ca:	7f 0f                	jg     84db <safe_lshift_func_int16_t_s_s+0x49>
    84cc:	0f bf 55 fc          	movswl -0x4(%rbp),%edx
    84d0:	8b 45 f8             	mov    -0x8(%rbp),%eax
    84d3:	89 c1                	mov    %eax,%ecx
    84d5:	d3 e2                	shl    %cl,%edx
    84d7:	89 d0                	mov    %edx,%eax
    84d9:	eb 04                	jmp    84df <safe_lshift_func_int16_t_s_s+0x4d>
    84db:	0f b7 45 fc          	movzwl -0x4(%rbp),%eax
    84df:	5d                   	pop    %rbp
    84e0:	c3                   	retq   

00000000000084e1 <safe_lshift_func_int16_t_s_u>:
    84e1:	f3 0f 1e fa          	endbr64 
    84e5:	55                   	push   %rbp
    84e6:	48 89 e5             	mov    %rsp,%rbp
    84e9:	89 f8                	mov    %edi,%eax
    84eb:	89 75 f8             	mov    %esi,-0x8(%rbp)
    84ee:	66 89 45 fc          	mov    %ax,-0x4(%rbp)
    84f2:	66 83 7d fc 00       	cmpw   $0x0,-0x4(%rbp)
    84f7:	78 2b                	js     8524 <safe_lshift_func_int16_t_s_u+0x43>
    84f9:	83 7d f8 1f          	cmpl   $0x1f,-0x8(%rbp)
    84fd:	77 25                	ja     8524 <safe_lshift_func_int16_t_s_u+0x43>
    84ff:	0f bf 55 fc          	movswl -0x4(%rbp),%edx
    8503:	8b 45 f8             	mov    -0x8(%rbp),%eax
    8506:	be ff 7f 00 00       	mov    $0x7fff,%esi
    850b:	89 c1                	mov    %eax,%ecx
    850d:	d3 fe                	sar    %cl,%esi
    850f:	89 f0                	mov    %esi,%eax
    8511:	39 c2                	cmp    %eax,%edx
    8513:	7f 0f                	jg     8524 <safe_lshift_func_int16_t_s_u+0x43>
    8515:	0f bf 55 fc          	movswl -0x4(%rbp),%edx
    8519:	8b 45 f8             	mov    -0x8(%rbp),%eax
    851c:	89 c1                	mov    %eax,%ecx
    851e:	d3 e2                	shl    %cl,%edx
    8520:	89 d0                	mov    %edx,%eax
    8522:	eb 04                	jmp    8528 <safe_lshift_func_int16_t_s_u+0x47>
    8524:	0f b7 45 fc          	movzwl -0x4(%rbp),%eax
    8528:	5d                   	pop    %rbp
    8529:	c3                   	retq   

000000000000852a <safe_rshift_func_int16_t_s_s>:
    852a:	f3 0f 1e fa          	endbr64 
    852e:	55                   	push   %rbp
    852f:	48 89 e5             	mov    %rsp,%rbp
    8532:	89 f8                	mov    %edi,%eax
    8534:	89 75 f8             	mov    %esi,-0x8(%rbp)
    8537:	66 89 45 fc          	mov    %ax,-0x4(%rbp)
    853b:	66 83 7d fc 00       	cmpw   $0x0,-0x4(%rbp)
    8540:	78 1b                	js     855d <safe_rshift_func_int16_t_s_s+0x33>
    8542:	83 7d f8 00          	cmpl   $0x0,-0x8(%rbp)
    8546:	78 15                	js     855d <safe_rshift_func_int16_t_s_s+0x33>
    8548:	83 7d f8 1f          	cmpl   $0x1f,-0x8(%rbp)
    854c:	7f 0f                	jg     855d <safe_rshift_func_int16_t_s_s+0x33>
    854e:	0f bf 55 fc          	movswl -0x4(%rbp),%edx
    8552:	8b 45 f8             	mov    -0x8(%rbp),%eax
    8555:	89 c1                	mov    %eax,%ecx
    8557:	d3 fa                	sar    %cl,%edx
    8559:	89 d0                	mov    %edx,%eax
    855b:	eb 04                	jmp    8561 <safe_rshift_func_int16_t_s_s+0x37>
    855d:	0f b7 45 fc          	movzwl -0x4(%rbp),%eax
    8561:	5d                   	pop    %rbp
    8562:	c3                   	retq   

0000000000008563 <safe_rshift_func_int16_t_s_u>:
    8563:	f3 0f 1e fa          	endbr64 
    8567:	55                   	push   %rbp
    8568:	48 89 e5             	mov    %rsp,%rbp
    856b:	89 f8                	mov    %edi,%eax
    856d:	89 75 f8             	mov    %esi,-0x8(%rbp)
    8570:	66 89 45 fc          	mov    %ax,-0x4(%rbp)
    8574:	66 83 7d fc 00       	cmpw   $0x0,-0x4(%rbp)
    8579:	78 15                	js     8590 <safe_rshift_func_int16_t_s_u+0x2d>
    857b:	83 7d f8 1f          	cmpl   $0x1f,-0x8(%rbp)
    857f:	77 0f                	ja     8590 <safe_rshift_func_int16_t_s_u+0x2d>
    8581:	0f bf 55 fc          	movswl -0x4(%rbp),%edx
    8585:	8b 45 f8             	mov    -0x8(%rbp),%eax
    8588:	89 c1                	mov    %eax,%ecx
    858a:	d3 fa                	sar    %cl,%edx
    858c:	89 d0                	mov    %edx,%eax
    858e:	eb 04                	jmp    8594 <safe_rshift_func_int16_t_s_u+0x31>
    8590:	0f b7 45 fc          	movzwl -0x4(%rbp),%eax
    8594:	5d                   	pop    %rbp
    8595:	c3                   	retq   

0000000000008596 <safe_unary_minus_func_int32_t_s>:
    8596:	f3 0f 1e fa          	endbr64 
    859a:	55                   	push   %rbp
    859b:	48 89 e5             	mov    %rsp,%rbp
    859e:	89 7d fc             	mov    %edi,-0x4(%rbp)
    85a1:	81 7d fc 00 00 00 80 	cmpl   $0x80000000,-0x4(%rbp)
    85a8:	74 07                	je     85b1 <safe_unary_minus_func_int32_t_s+0x1b>
    85aa:	8b 45 fc             	mov    -0x4(%rbp),%eax
    85ad:	f7 d8                	neg    %eax
    85af:	eb 03                	jmp    85b4 <safe_unary_minus_func_int32_t_s+0x1e>
    85b1:	8b 45 fc             	mov    -0x4(%rbp),%eax
    85b4:	5d                   	pop    %rbp
    85b5:	c3                   	retq   

00000000000085b6 <safe_add_func_int32_t_s_s>:
    85b6:	f3 0f 1e fa          	endbr64 
    85ba:	55                   	push   %rbp
    85bb:	48 89 e5             	mov    %rsp,%rbp
    85be:	89 7d fc             	mov    %edi,-0x4(%rbp)
    85c1:	89 75 f8             	mov    %esi,-0x8(%rbp)
    85c4:	83 7d fc 00          	cmpl   $0x0,-0x4(%rbp)
    85c8:	7e 13                	jle    85dd <safe_add_func_int32_t_s_s+0x27>
    85ca:	83 7d f8 00          	cmpl   $0x0,-0x8(%rbp)
    85ce:	7e 0d                	jle    85dd <safe_add_func_int32_t_s_s+0x27>
    85d0:	b8 ff ff ff 7f       	mov    $0x7fffffff,%eax
    85d5:	2b 45 f8             	sub    -0x8(%rbp),%eax
    85d8:	39 45 fc             	cmp    %eax,-0x4(%rbp)
    85db:	7f 23                	jg     8600 <safe_add_func_int32_t_s_s+0x4a>
    85dd:	83 7d fc 00          	cmpl   $0x0,-0x4(%rbp)
    85e1:	79 13                	jns    85f6 <safe_add_func_int32_t_s_s+0x40>
    85e3:	83 7d f8 00          	cmpl   $0x0,-0x8(%rbp)
    85e7:	79 0d                	jns    85f6 <safe_add_func_int32_t_s_s+0x40>
    85e9:	b8 00 00 00 80       	mov    $0x80000000,%eax
    85ee:	2b 45 f8             	sub    -0x8(%rbp),%eax
    85f1:	39 45 fc             	cmp    %eax,-0x4(%rbp)
    85f4:	7c 0a                	jl     8600 <safe_add_func_int32_t_s_s+0x4a>
    85f6:	8b 55 fc             	mov    -0x4(%rbp),%edx
    85f9:	8b 45 f8             	mov    -0x8(%rbp),%eax
    85fc:	01 d0                	add    %edx,%eax
    85fe:	eb 03                	jmp    8603 <safe_add_func_int32_t_s_s+0x4d>
    8600:	8b 45 fc             	mov    -0x4(%rbp),%eax
    8603:	5d                   	pop    %rbp
    8604:	c3                   	retq   

0000000000008605 <safe_sub_func_int32_t_s_s>:
    8605:	f3 0f 1e fa          	endbr64 
    8609:	55                   	push   %rbp
    860a:	48 89 e5             	mov    %rsp,%rbp
    860d:	89 7d fc             	mov    %edi,-0x4(%rbp)
    8610:	89 75 f8             	mov    %esi,-0x8(%rbp)
    8613:	8b 45 fc             	mov    -0x4(%rbp),%eax
    8616:	33 45 f8             	xor    -0x8(%rbp),%eax
    8619:	89 c2                	mov    %eax,%edx
    861b:	8b 45 fc             	mov    -0x4(%rbp),%eax
    861e:	33 45 f8             	xor    -0x8(%rbp),%eax
    8621:	25 00 00 00 80       	and    $0x80000000,%eax
    8626:	33 45 fc             	xor    -0x4(%rbp),%eax
    8629:	2b 45 f8             	sub    -0x8(%rbp),%eax
    862c:	33 45 f8             	xor    -0x8(%rbp),%eax
    862f:	21 d0                	and    %edx,%eax
    8631:	85 c0                	test   %eax,%eax
    8633:	78 08                	js     863d <safe_sub_func_int32_t_s_s+0x38>
    8635:	8b 45 fc             	mov    -0x4(%rbp),%eax
    8638:	2b 45 f8             	sub    -0x8(%rbp),%eax
    863b:	eb 03                	jmp    8640 <safe_sub_func_int32_t_s_s+0x3b>
    863d:	8b 45 fc             	mov    -0x4(%rbp),%eax
    8640:	5d                   	pop    %rbp
    8641:	c3                   	retq   

0000000000008642 <safe_mul_func_int32_t_s_s>:
    8642:	f3 0f 1e fa          	endbr64 
    8646:	55                   	push   %rbp
    8647:	48 89 e5             	mov    %rsp,%rbp
    864a:	89 7d fc             	mov    %edi,-0x4(%rbp)
    864d:	89 75 f8             	mov    %esi,-0x8(%rbp)
    8650:	83 7d fc 00          	cmpl   $0x0,-0x4(%rbp)
    8654:	7e 14                	jle    866a <safe_mul_func_int32_t_s_s+0x28>
    8656:	83 7d f8 00          	cmpl   $0x0,-0x8(%rbp)
    865a:	7e 0e                	jle    866a <safe_mul_func_int32_t_s_s+0x28>
    865c:	b8 ff ff ff 7f       	mov    $0x7fffffff,%eax
    8661:	99                   	cltd   
    8662:	f7 7d f8             	idivl  -0x8(%rbp)
    8665:	39 45 fc             	cmp    %eax,-0x4(%rbp)
    8668:	7f 5d                	jg     86c7 <safe_mul_func_int32_t_s_s+0x85>
    866a:	83 7d fc 00          	cmpl   $0x0,-0x4(%rbp)
    866e:	7e 14                	jle    8684 <safe_mul_func_int32_t_s_s+0x42>
    8670:	83 7d f8 00          	cmpl   $0x0,-0x8(%rbp)
    8674:	7f 0e                	jg     8684 <safe_mul_func_int32_t_s_s+0x42>
    8676:	b8 00 00 00 80       	mov    $0x80000000,%eax
    867b:	99                   	cltd   
    867c:	f7 7d fc             	idivl  -0x4(%rbp)
    867f:	39 45 f8             	cmp    %eax,-0x8(%rbp)
    8682:	7c 43                	jl     86c7 <safe_mul_func_int32_t_s_s+0x85>
    8684:	83 7d fc 00          	cmpl   $0x0,-0x4(%rbp)
    8688:	7f 14                	jg     869e <safe_mul_func_int32_t_s_s+0x5c>
    868a:	83 7d f8 00          	cmpl   $0x0,-0x8(%rbp)
    868e:	7e 0e                	jle    869e <safe_mul_func_int32_t_s_s+0x5c>
    8690:	b8 00 00 00 80       	mov    $0x80000000,%eax
    8695:	99                   	cltd   
    8696:	f7 7d f8             	idivl  -0x8(%rbp)
    8699:	39 45 fc             	cmp    %eax,-0x4(%rbp)
    869c:	7c 29                	jl     86c7 <safe_mul_func_int32_t_s_s+0x85>
    869e:	83 7d fc 00          	cmpl   $0x0,-0x4(%rbp)
    86a2:	7f 1a                	jg     86be <safe_mul_func_int32_t_s_s+0x7c>
    86a4:	83 7d f8 00          	cmpl   $0x0,-0x8(%rbp)
    86a8:	7f 14                	jg     86be <safe_mul_func_int32_t_s_s+0x7c>
    86aa:	83 7d fc 00          	cmpl   $0x0,-0x4(%rbp)
    86ae:	74 0e                	je     86be <safe_mul_func_int32_t_s_s+0x7c>
    86b0:	b8 ff ff ff 7f       	mov    $0x7fffffff,%eax
    86b5:	99                   	cltd   
    86b6:	f7 7d fc             	idivl  -0x4(%rbp)
    86b9:	39 45 f8             	cmp    %eax,-0x8(%rbp)
    86bc:	7c 09                	jl     86c7 <safe_mul_func_int32_t_s_s+0x85>
    86be:	8b 45 fc             	mov    -0x4(%rbp),%eax
    86c1:	0f af 45 f8          	imul   -0x8(%rbp),%eax
    86c5:	eb 03                	jmp    86ca <safe_mul_func_int32_t_s_s+0x88>
    86c7:	8b 45 fc             	mov    -0x4(%rbp),%eax
    86ca:	5d                   	pop    %rbp
    86cb:	c3                   	retq   

00000000000086cc <safe_mod_func_int32_t_s_s>:
    86cc:	f3 0f 1e fa          	endbr64 
    86d0:	55                   	push   %rbp
    86d1:	48 89 e5             	mov    %rsp,%rbp
    86d4:	89 7d fc             	mov    %edi,-0x4(%rbp)
    86d7:	89 75 f8             	mov    %esi,-0x8(%rbp)
    86da:	83 7d f8 00          	cmpl   $0x0,-0x8(%rbp)
    86de:	74 1a                	je     86fa <safe_mod_func_int32_t_s_s+0x2e>
    86e0:	81 7d fc 00 00 00 80 	cmpl   $0x80000000,-0x4(%rbp)
    86e7:	75 06                	jne    86ef <safe_mod_func_int32_t_s_s+0x23>
    86e9:	83 7d f8 ff          	cmpl   $0xffffffff,-0x8(%rbp)
    86ed:	74 0b                	je     86fa <safe_mod_func_int32_t_s_s+0x2e>
    86ef:	8b 45 fc             	mov    -0x4(%rbp),%eax
    86f2:	99                   	cltd   
    86f3:	f7 7d f8             	idivl  -0x8(%rbp)
    86f6:	89 d0                	mov    %edx,%eax
    86f8:	eb 03                	jmp    86fd <safe_mod_func_int32_t_s_s+0x31>
    86fa:	8b 45 fc             	mov    -0x4(%rbp),%eax
    86fd:	5d                   	pop    %rbp
    86fe:	c3                   	retq   

00000000000086ff <safe_div_func_int32_t_s_s>:
    86ff:	f3 0f 1e fa          	endbr64 
    8703:	55                   	push   %rbp
    8704:	48 89 e5             	mov    %rsp,%rbp
    8707:	89 7d fc             	mov    %edi,-0x4(%rbp)
    870a:	89 75 f8             	mov    %esi,-0x8(%rbp)
    870d:	83 7d f8 00          	cmpl   $0x0,-0x8(%rbp)
    8711:	74 18                	je     872b <safe_div_func_int32_t_s_s+0x2c>
    8713:	81 7d fc 00 00 00 80 	cmpl   $0x80000000,-0x4(%rbp)
    871a:	75 06                	jne    8722 <safe_div_func_int32_t_s_s+0x23>
    871c:	83 7d f8 ff          	cmpl   $0xffffffff,-0x8(%rbp)
    8720:	74 09                	je     872b <safe_div_func_int32_t_s_s+0x2c>
    8722:	8b 45 fc             	mov    -0x4(%rbp),%eax
    8725:	99                   	cltd   
    8726:	f7 7d f8             	idivl  -0x8(%rbp)
    8729:	eb 03                	jmp    872e <safe_div_func_int32_t_s_s+0x2f>
    872b:	8b 45 fc             	mov    -0x4(%rbp),%eax
    872e:	5d                   	pop    %rbp
    872f:	c3                   	retq   

0000000000008730 <safe_lshift_func_int32_t_s_s>:
    8730:	f3 0f 1e fa          	endbr64 
    8734:	55                   	push   %rbp
    8735:	48 89 e5             	mov    %rsp,%rbp
    8738:	89 7d fc             	mov    %edi,-0x4(%rbp)
    873b:	89 75 f8             	mov    %esi,-0x8(%rbp)
    873e:	83 7d fc 00          	cmpl   $0x0,-0x4(%rbp)
    8742:	78 2d                	js     8771 <safe_lshift_func_int32_t_s_s+0x41>
    8744:	83 7d f8 00          	cmpl   $0x0,-0x8(%rbp)
    8748:	78 27                	js     8771 <safe_lshift_func_int32_t_s_s+0x41>
    874a:	83 7d f8 1f          	cmpl   $0x1f,-0x8(%rbp)
    874e:	7f 21                	jg     8771 <safe_lshift_func_int32_t_s_s+0x41>
    8750:	8b 45 f8             	mov    -0x8(%rbp),%eax
    8753:	ba ff ff ff 7f       	mov    $0x7fffffff,%edx
    8758:	89 c1                	mov    %eax,%ecx
    875a:	d3 fa                	sar    %cl,%edx
    875c:	89 d0                	mov    %edx,%eax
    875e:	39 45 fc             	cmp    %eax,-0x4(%rbp)
    8761:	7f 0e                	jg     8771 <safe_lshift_func_int32_t_s_s+0x41>
    8763:	8b 45 f8             	mov    -0x8(%rbp),%eax
    8766:	8b 55 fc             	mov    -0x4(%rbp),%edx
    8769:	89 c1                	mov    %eax,%ecx
    876b:	d3 e2                	shl    %cl,%edx
    876d:	89 d0                	mov    %edx,%eax
    876f:	eb 03                	jmp    8774 <safe_lshift_func_int32_t_s_s+0x44>
    8771:	8b 45 fc             	mov    -0x4(%rbp),%eax
    8774:	5d                   	pop    %rbp
    8775:	c3                   	retq   

0000000000008776 <safe_lshift_func_int32_t_s_u>:
    8776:	f3 0f 1e fa          	endbr64 
    877a:	55                   	push   %rbp
    877b:	48 89 e5             	mov    %rsp,%rbp
    877e:	89 7d fc             	mov    %edi,-0x4(%rbp)
    8781:	89 75 f8             	mov    %esi,-0x8(%rbp)
    8784:	83 7d fc 00          	cmpl   $0x0,-0x4(%rbp)
    8788:	78 27                	js     87b1 <safe_lshift_func_int32_t_s_u+0x3b>
    878a:	83 7d f8 1f          	cmpl   $0x1f,-0x8(%rbp)
    878e:	77 21                	ja     87b1 <safe_lshift_func_int32_t_s_u+0x3b>
    8790:	8b 45 f8             	mov    -0x8(%rbp),%eax
    8793:	ba ff ff ff 7f       	mov    $0x7fffffff,%edx
    8798:	89 c1                	mov    %eax,%ecx
    879a:	d3 fa                	sar    %cl,%edx
    879c:	89 d0                	mov    %edx,%eax
    879e:	39 45 fc             	cmp    %eax,-0x4(%rbp)
    87a1:	7f 0e                	jg     87b1 <safe_lshift_func_int32_t_s_u+0x3b>
    87a3:	8b 45 f8             	mov    -0x8(%rbp),%eax
    87a6:	8b 55 fc             	mov    -0x4(%rbp),%edx
    87a9:	89 c1                	mov    %eax,%ecx
    87ab:	d3 e2                	shl    %cl,%edx
    87ad:	89 d0                	mov    %edx,%eax
    87af:	eb 03                	jmp    87b4 <safe_lshift_func_int32_t_s_u+0x3e>
    87b1:	8b 45 fc             	mov    -0x4(%rbp),%eax
    87b4:	5d                   	pop    %rbp
    87b5:	c3                   	retq   

00000000000087b6 <safe_rshift_func_int32_t_s_s>:
    87b6:	f3 0f 1e fa          	endbr64 
    87ba:	55                   	push   %rbp
    87bb:	48 89 e5             	mov    %rsp,%rbp
    87be:	89 7d fc             	mov    %edi,-0x4(%rbp)
    87c1:	89 75 f8             	mov    %esi,-0x8(%rbp)
    87c4:	83 7d fc 00          	cmpl   $0x0,-0x4(%rbp)
    87c8:	78 1a                	js     87e4 <safe_rshift_func_int32_t_s_s+0x2e>
    87ca:	83 7d f8 00          	cmpl   $0x0,-0x8(%rbp)
    87ce:	78 14                	js     87e4 <safe_rshift_func_int32_t_s_s+0x2e>
    87d0:	83 7d f8 1f          	cmpl   $0x1f,-0x8(%rbp)
    87d4:	7f 0e                	jg     87e4 <safe_rshift_func_int32_t_s_s+0x2e>
    87d6:	8b 45 f8             	mov    -0x8(%rbp),%eax
    87d9:	8b 55 fc             	mov    -0x4(%rbp),%edx
    87dc:	89 c1                	mov    %eax,%ecx
    87de:	d3 fa                	sar    %cl,%edx
    87e0:	89 d0                	mov    %edx,%eax
    87e2:	eb 03                	jmp    87e7 <safe_rshift_func_int32_t_s_s+0x31>
    87e4:	8b 45 fc             	mov    -0x4(%rbp),%eax
    87e7:	5d                   	pop    %rbp
    87e8:	c3                   	retq   

00000000000087e9 <safe_rshift_func_int32_t_s_u>:
    87e9:	f3 0f 1e fa          	endbr64 
    87ed:	55                   	push   %rbp
    87ee:	48 89 e5             	mov    %rsp,%rbp
    87f1:	89 7d fc             	mov    %edi,-0x4(%rbp)
    87f4:	89 75 f8             	mov    %esi,-0x8(%rbp)
    87f7:	83 7d fc 00          	cmpl   $0x0,-0x4(%rbp)
    87fb:	78 14                	js     8811 <safe_rshift_func_int32_t_s_u+0x28>
    87fd:	83 7d f8 1f          	cmpl   $0x1f,-0x8(%rbp)
    8801:	77 0e                	ja     8811 <safe_rshift_func_int32_t_s_u+0x28>
    8803:	8b 45 f8             	mov    -0x8(%rbp),%eax
    8806:	8b 55 fc             	mov    -0x4(%rbp),%edx
    8809:	89 c1                	mov    %eax,%ecx
    880b:	d3 fa                	sar    %cl,%edx
    880d:	89 d0                	mov    %edx,%eax
    880f:	eb 03                	jmp    8814 <safe_rshift_func_int32_t_s_u+0x2b>
    8811:	8b 45 fc             	mov    -0x4(%rbp),%eax
    8814:	5d                   	pop    %rbp
    8815:	c3                   	retq   

0000000000008816 <safe_unary_minus_func_int64_t_s>:
    8816:	f3 0f 1e fa          	endbr64 
    881a:	55                   	push   %rbp
    881b:	48 89 e5             	mov    %rsp,%rbp
    881e:	48 89 7d f8          	mov    %rdi,-0x8(%rbp)
    8822:	48 b8 00 00 00 00 00 	movabs $0x8000000000000000,%rax
    8829:	00 00 80 
    882c:	48 39 45 f8          	cmp    %rax,-0x8(%rbp)
    8830:	74 09                	je     883b <safe_unary_minus_func_int64_t_s+0x25>
    8832:	48 8b 45 f8          	mov    -0x8(%rbp),%rax
    8836:	48 f7 d8             	neg    %rax
    8839:	eb 04                	jmp    883f <safe_unary_minus_func_int64_t_s+0x29>
    883b:	48 8b 45 f8          	mov    -0x8(%rbp),%rax
    883f:	5d                   	pop    %rbp
    8840:	c3                   	retq   

0000000000008841 <safe_add_func_int64_t_s_s>:
    8841:	f3 0f 1e fa          	endbr64 
    8845:	55                   	push   %rbp
    8846:	48 89 e5             	mov    %rsp,%rbp
    8849:	48 89 7d f8          	mov    %rdi,-0x8(%rbp)
    884d:	48 89 75 f0          	mov    %rsi,-0x10(%rbp)
    8851:	48 83 7d f8 00       	cmpq   $0x0,-0x8(%rbp)
    8856:	7e 1b                	jle    8873 <safe_add_func_int64_t_s_s+0x32>
    8858:	48 83 7d f0 00       	cmpq   $0x0,-0x10(%rbp)
    885d:	7e 14                	jle    8873 <safe_add_func_int64_t_s_s+0x32>
    885f:	48 b8 ff ff ff ff ff 	movabs $0x7fffffffffffffff,%rax
    8866:	ff ff 7f 
    8869:	48 2b 45 f0          	sub    -0x10(%rbp),%rax
    886d:	48 39 45 f8          	cmp    %rax,-0x8(%rbp)
    8871:	7f 2f                	jg     88a2 <safe_add_func_int64_t_s_s+0x61>
    8873:	48 83 7d f8 00       	cmpq   $0x0,-0x8(%rbp)
    8878:	79 1b                	jns    8895 <safe_add_func_int64_t_s_s+0x54>
    887a:	48 83 7d f0 00       	cmpq   $0x0,-0x10(%rbp)
    887f:	79 14                	jns    8895 <safe_add_func_int64_t_s_s+0x54>
    8881:	48 b8 00 00 00 00 00 	movabs $0x8000000000000000,%rax
    8888:	00 00 80 
    888b:	48 2b 45 f0          	sub    -0x10(%rbp),%rax
    888f:	48 39 45 f8          	cmp    %rax,-0x8(%rbp)
    8893:	7c 0d                	jl     88a2 <safe_add_func_int64_t_s_s+0x61>
    8895:	48 8b 55 f8          	mov    -0x8(%rbp),%rdx
    8899:	48 8b 45 f0          	mov    -0x10(%rbp),%rax
    889d:	48 01 d0             	add    %rdx,%rax
    88a0:	eb 04                	jmp    88a6 <safe_add_func_int64_t_s_s+0x65>
    88a2:	48 8b 45 f8          	mov    -0x8(%rbp),%rax
    88a6:	5d                   	pop    %rbp
    88a7:	c3                   	retq   

00000000000088a8 <safe_sub_func_int64_t_s_s>:
    88a8:	f3 0f 1e fa          	endbr64 
    88ac:	55                   	push   %rbp
    88ad:	48 89 e5             	mov    %rsp,%rbp
    88b0:	48 89 7d f8          	mov    %rdi,-0x8(%rbp)
    88b4:	48 89 75 f0          	mov    %rsi,-0x10(%rbp)
    88b8:	48 8b 45 f8          	mov    -0x8(%rbp),%rax
    88bc:	48 33 45 f0          	xor    -0x10(%rbp),%rax
    88c0:	48 89 c2             	mov    %rax,%rdx
    88c3:	48 8b 45 f8          	mov    -0x8(%rbp),%rax
    88c7:	48 33 45 f0          	xor    -0x10(%rbp),%rax
    88cb:	48 b9 00 00 00 00 00 	movabs $0x8000000000000000,%rcx
    88d2:	00 00 80 
    88d5:	48 21 c8             	and    %rcx,%rax
    88d8:	48 33 45 f8          	xor    -0x8(%rbp),%rax
    88dc:	48 2b 45 f0          	sub    -0x10(%rbp),%rax
    88e0:	48 33 45 f0          	xor    -0x10(%rbp),%rax
    88e4:	48 21 d0             	and    %rdx,%rax
    88e7:	48 85 c0             	test   %rax,%rax
    88ea:	78 0a                	js     88f6 <safe_sub_func_int64_t_s_s+0x4e>
    88ec:	48 8b 45 f8          	mov    -0x8(%rbp),%rax
    88f0:	48 2b 45 f0          	sub    -0x10(%rbp),%rax
    88f4:	eb 04                	jmp    88fa <safe_sub_func_int64_t_s_s+0x52>
    88f6:	48 8b 45 f8          	mov    -0x8(%rbp),%rax
    88fa:	5d                   	pop    %rbp
    88fb:	c3                   	retq   

00000000000088fc <safe_mul_func_int64_t_s_s>:
    88fc:	f3 0f 1e fa          	endbr64 
    8900:	55                   	push   %rbp
    8901:	48 89 e5             	mov    %rsp,%rbp
    8904:	48 89 7d f8          	mov    %rdi,-0x8(%rbp)
    8908:	48 89 75 f0          	mov    %rsi,-0x10(%rbp)
    890c:	48 83 7d f8 00       	cmpq   $0x0,-0x8(%rbp)
    8911:	7e 1d                	jle    8930 <safe_mul_func_int64_t_s_s+0x34>
    8913:	48 83 7d f0 00       	cmpq   $0x0,-0x10(%rbp)
    8918:	7e 16                	jle    8930 <safe_mul_func_int64_t_s_s+0x34>
    891a:	48 b8 ff ff ff ff ff 	movabs $0x7fffffffffffffff,%rax
    8921:	ff ff 7f 
    8924:	48 99                	cqto   
    8926:	48 f7 7d f0          	idivq  -0x10(%rbp)
    892a:	48 39 45 f8          	cmp    %rax,-0x8(%rbp)
    892e:	7f 7e                	jg     89ae <safe_mul_func_int64_t_s_s+0xb2>
    8930:	48 83 7d f8 00       	cmpq   $0x0,-0x8(%rbp)
    8935:	7e 1d                	jle    8954 <safe_mul_func_int64_t_s_s+0x58>
    8937:	48 83 7d f0 00       	cmpq   $0x0,-0x10(%rbp)
    893c:	7f 16                	jg     8954 <safe_mul_func_int64_t_s_s+0x58>
    893e:	48 b8 00 00 00 00 00 	movabs $0x8000000000000000,%rax
    8945:	00 00 80 
    8948:	48 99                	cqto   
    894a:	48 f7 7d f8          	idivq  -0x8(%rbp)
    894e:	48 39 45 f0          	cmp    %rax,-0x10(%rbp)
    8952:	7c 5a                	jl     89ae <safe_mul_func_int64_t_s_s+0xb2>
    8954:	48 83 7d f8 00       	cmpq   $0x0,-0x8(%rbp)
    8959:	7f 1d                	jg     8978 <safe_mul_func_int64_t_s_s+0x7c>
    895b:	48 83 7d f0 00       	cmpq   $0x0,-0x10(%rbp)
    8960:	7e 16                	jle    8978 <safe_mul_func_int64_t_s_s+0x7c>
    8962:	48 b8 00 00 00 00 00 	movabs $0x8000000000000000,%rax
    8969:	00 00 80 
    896c:	48 99                	cqto   
    896e:	48 f7 7d f0          	idivq  -0x10(%rbp)
    8972:	48 39 45 f8          	cmp    %rax,-0x8(%rbp)
    8976:	7c 36                	jl     89ae <safe_mul_func_int64_t_s_s+0xb2>
    8978:	48 83 7d f8 00       	cmpq   $0x0,-0x8(%rbp)
    897d:	7f 24                	jg     89a3 <safe_mul_func_int64_t_s_s+0xa7>
    897f:	48 83 7d f0 00       	cmpq   $0x0,-0x10(%rbp)
    8984:	7f 1d                	jg     89a3 <safe_mul_func_int64_t_s_s+0xa7>
    8986:	48 83 7d f8 00       	cmpq   $0x0,-0x8(%rbp)
    898b:	74 16                	je     89a3 <safe_mul_func_int64_t_s_s+0xa7>
    898d:	48 b8 ff ff ff ff ff 	movabs $0x7fffffffffffffff,%rax
    8994:	ff ff 7f 
    8997:	48 99                	cqto   
    8999:	48 f7 7d f8          	idivq  -0x8(%rbp)
    899d:	48 39 45 f0          	cmp    %rax,-0x10(%rbp)
    89a1:	7c 0b                	jl     89ae <safe_mul_func_int64_t_s_s+0xb2>
    89a3:	48 8b 45 f8          	mov    -0x8(%rbp),%rax
    89a7:	48 0f af 45 f0       	imul   -0x10(%rbp),%rax
    89ac:	eb 04                	jmp    89b2 <safe_mul_func_int64_t_s_s+0xb6>
    89ae:	48 8b 45 f8          	mov    -0x8(%rbp),%rax
    89b2:	5d                   	pop    %rbp
    89b3:	c3                   	retq   

00000000000089b4 <safe_mod_func_int64_t_s_s>:
    89b4:	f3 0f 1e fa          	endbr64 
    89b8:	55                   	push   %rbp
    89b9:	48 89 e5             	mov    %rsp,%rbp
    89bc:	48 89 7d f8          	mov    %rdi,-0x8(%rbp)
    89c0:	48 89 75 f0          	mov    %rsi,-0x10(%rbp)
    89c4:	48 83 7d f0 00       	cmpq   $0x0,-0x10(%rbp)
    89c9:	74 26                	je     89f1 <safe_mod_func_int64_t_s_s+0x3d>
    89cb:	48 b8 00 00 00 00 00 	movabs $0x8000000000000000,%rax
    89d2:	00 00 80 
    89d5:	48 39 45 f8          	cmp    %rax,-0x8(%rbp)
    89d9:	75 07                	jne    89e2 <safe_mod_func_int64_t_s_s+0x2e>
    89db:	48 83 7d f0 ff       	cmpq   $0xffffffffffffffff,-0x10(%rbp)
    89e0:	74 0f                	je     89f1 <safe_mod_func_int64_t_s_s+0x3d>
    89e2:	48 8b 45 f8          	mov    -0x8(%rbp),%rax
    89e6:	48 99                	cqto   
    89e8:	48 f7 7d f0          	idivq  -0x10(%rbp)
    89ec:	48 89 d0             	mov    %rdx,%rax
    89ef:	eb 04                	jmp    89f5 <safe_mod_func_int64_t_s_s+0x41>
    89f1:	48 8b 45 f8          	mov    -0x8(%rbp),%rax
    89f5:	5d                   	pop    %rbp
    89f6:	c3                   	retq   

00000000000089f7 <safe_div_func_int64_t_s_s>:
    89f7:	f3 0f 1e fa          	endbr64 
    89fb:	55                   	push   %rbp
    89fc:	48 89 e5             	mov    %rsp,%rbp
    89ff:	48 89 7d f8          	mov    %rdi,-0x8(%rbp)
    8a03:	48 89 75 f0          	mov    %rsi,-0x10(%rbp)
    8a07:	48 83 7d f0 00       	cmpq   $0x0,-0x10(%rbp)
    8a0c:	74 23                	je     8a31 <safe_div_func_int64_t_s_s+0x3a>
    8a0e:	48 b8 00 00 00 00 00 	movabs $0x8000000000000000,%rax
    8a15:	00 00 80 
    8a18:	48 39 45 f8          	cmp    %rax,-0x8(%rbp)
    8a1c:	75 07                	jne    8a25 <safe_div_func_int64_t_s_s+0x2e>
    8a1e:	48 83 7d f0 ff       	cmpq   $0xffffffffffffffff,-0x10(%rbp)
    8a23:	74 0c                	je     8a31 <safe_div_func_int64_t_s_s+0x3a>
    8a25:	48 8b 45 f8          	mov    -0x8(%rbp),%rax
    8a29:	48 99                	cqto   
    8a2b:	48 f7 7d f0          	idivq  -0x10(%rbp)
    8a2f:	eb 04                	jmp    8a35 <safe_div_func_int64_t_s_s+0x3e>
    8a31:	48 8b 45 f8          	mov    -0x8(%rbp),%rax
    8a35:	5d                   	pop    %rbp
    8a36:	c3                   	retq   

0000000000008a37 <safe_lshift_func_int64_t_s_s>:
    8a37:	f3 0f 1e fa          	endbr64 
    8a3b:	55                   	push   %rbp
    8a3c:	48 89 e5             	mov    %rsp,%rbp
    8a3f:	48 89 7d f8          	mov    %rdi,-0x8(%rbp)
    8a43:	89 75 f4             	mov    %esi,-0xc(%rbp)
    8a46:	48 83 7d f8 00       	cmpq   $0x0,-0x8(%rbp)
    8a4b:	78 38                	js     8a85 <safe_lshift_func_int64_t_s_s+0x4e>
    8a4d:	83 7d f4 00          	cmpl   $0x0,-0xc(%rbp)
    8a51:	78 32                	js     8a85 <safe_lshift_func_int64_t_s_s+0x4e>
    8a53:	83 7d f4 1f          	cmpl   $0x1f,-0xc(%rbp)
    8a57:	7f 2c                	jg     8a85 <safe_lshift_func_int64_t_s_s+0x4e>
    8a59:	8b 45 f4             	mov    -0xc(%rbp),%eax
    8a5c:	48 ba ff ff ff ff ff 	movabs $0x7fffffffffffffff,%rdx
    8a63:	ff ff 7f 
    8a66:	89 c1                	mov    %eax,%ecx
    8a68:	48 d3 fa             	sar    %cl,%rdx
    8a6b:	48 89 d0             	mov    %rdx,%rax
    8a6e:	48 39 45 f8          	cmp    %rax,-0x8(%rbp)
    8a72:	7f 11                	jg     8a85 <safe_lshift_func_int64_t_s_s+0x4e>
    8a74:	8b 45 f4             	mov    -0xc(%rbp),%eax
    8a77:	48 8b 55 f8          	mov    -0x8(%rbp),%rdx
    8a7b:	89 c1                	mov    %eax,%ecx
    8a7d:	48 d3 e2             	shl    %cl,%rdx
    8a80:	48 89 d0             	mov    %rdx,%rax
    8a83:	eb 04                	jmp    8a89 <safe_lshift_func_int64_t_s_s+0x52>
    8a85:	48 8b 45 f8          	mov    -0x8(%rbp),%rax
    8a89:	5d                   	pop    %rbp
    8a8a:	c3                   	retq   

0000000000008a8b <safe_lshift_func_int64_t_s_u>:
    8a8b:	f3 0f 1e fa          	endbr64 
    8a8f:	55                   	push   %rbp
    8a90:	48 89 e5             	mov    %rsp,%rbp
    8a93:	48 89 7d f8          	mov    %rdi,-0x8(%rbp)
    8a97:	89 75 f4             	mov    %esi,-0xc(%rbp)
    8a9a:	48 83 7d f8 00       	cmpq   $0x0,-0x8(%rbp)
    8a9f:	78 32                	js     8ad3 <safe_lshift_func_int64_t_s_u+0x48>
    8aa1:	83 7d f4 1f          	cmpl   $0x1f,-0xc(%rbp)
    8aa5:	77 2c                	ja     8ad3 <safe_lshift_func_int64_t_s_u+0x48>
    8aa7:	8b 45 f4             	mov    -0xc(%rbp),%eax
    8aaa:	48 ba ff ff ff ff ff 	movabs $0x7fffffffffffffff,%rdx
    8ab1:	ff ff 7f 
    8ab4:	89 c1                	mov    %eax,%ecx
    8ab6:	48 d3 fa             	sar    %cl,%rdx
    8ab9:	48 89 d0             	mov    %rdx,%rax
    8abc:	48 39 45 f8          	cmp    %rax,-0x8(%rbp)
    8ac0:	7f 11                	jg     8ad3 <safe_lshift_func_int64_t_s_u+0x48>
    8ac2:	8b 45 f4             	mov    -0xc(%rbp),%eax
    8ac5:	48 8b 55 f8          	mov    -0x8(%rbp),%rdx
    8ac9:	89 c1                	mov    %eax,%ecx
    8acb:	48 d3 e2             	shl    %cl,%rdx
    8ace:	48 89 d0             	mov    %rdx,%rax
    8ad1:	eb 04                	jmp    8ad7 <safe_lshift_func_int64_t_s_u+0x4c>
    8ad3:	48 8b 45 f8          	mov    -0x8(%rbp),%rax
    8ad7:	5d                   	pop    %rbp
    8ad8:	c3                   	retq   

0000000000008ad9 <safe_rshift_func_int64_t_s_s>:
    8ad9:	f3 0f 1e fa          	endbr64 
    8add:	55                   	push   %rbp
    8ade:	48 89 e5             	mov    %rsp,%rbp
    8ae1:	48 89 7d f8          	mov    %rdi,-0x8(%rbp)
    8ae5:	89 75 f4             	mov    %esi,-0xc(%rbp)
    8ae8:	48 83 7d f8 00       	cmpq   $0x0,-0x8(%rbp)
    8aed:	78 1d                	js     8b0c <safe_rshift_func_int64_t_s_s+0x33>
    8aef:	83 7d f4 00          	cmpl   $0x0,-0xc(%rbp)
    8af3:	78 17                	js     8b0c <safe_rshift_func_int64_t_s_s+0x33>
    8af5:	83 7d f4 1f          	cmpl   $0x1f,-0xc(%rbp)
    8af9:	7f 11                	jg     8b0c <safe_rshift_func_int64_t_s_s+0x33>
    8afb:	8b 45 f4             	mov    -0xc(%rbp),%eax
    8afe:	48 8b 55 f8          	mov    -0x8(%rbp),%rdx
    8b02:	89 c1                	mov    %eax,%ecx
    8b04:	48 d3 fa             	sar    %cl,%rdx
    8b07:	48 89 d0             	mov    %rdx,%rax
    8b0a:	eb 04                	jmp    8b10 <safe_rshift_func_int64_t_s_s+0x37>
    8b0c:	48 8b 45 f8          	mov    -0x8(%rbp),%rax
    8b10:	5d                   	pop    %rbp
    8b11:	c3                   	retq   

0000000000008b12 <safe_rshift_func_int64_t_s_u>:
    8b12:	f3 0f 1e fa          	endbr64 
    8b16:	55                   	push   %rbp
    8b17:	48 89 e5             	mov    %rsp,%rbp
    8b1a:	48 89 7d f8          	mov    %rdi,-0x8(%rbp)
    8b1e:	89 75 f4             	mov    %esi,-0xc(%rbp)
    8b21:	48 83 7d f8 00       	cmpq   $0x0,-0x8(%rbp)
    8b26:	78 17                	js     8b3f <safe_rshift_func_int64_t_s_u+0x2d>
    8b28:	83 7d f4 1f          	cmpl   $0x1f,-0xc(%rbp)
    8b2c:	77 11                	ja     8b3f <safe_rshift_func_int64_t_s_u+0x2d>
    8b2e:	8b 45 f4             	mov    -0xc(%rbp),%eax
    8b31:	48 8b 55 f8          	mov    -0x8(%rbp),%rdx
    8b35:	89 c1                	mov    %eax,%ecx
    8b37:	48 d3 fa             	sar    %cl,%rdx
    8b3a:	48 89 d0             	mov    %rdx,%rax
    8b3d:	eb 04                	jmp    8b43 <safe_rshift_func_int64_t_s_u+0x31>
    8b3f:	48 8b 45 f8          	mov    -0x8(%rbp),%rax
    8b43:	5d                   	pop    %rbp
    8b44:	c3                   	retq   

0000000000008b45 <safe_unary_minus_func_uint8_t_u>:
    8b45:	f3 0f 1e fa          	endbr64 
    8b49:	55                   	push   %rbp
    8b4a:	48 89 e5             	mov    %rsp,%rbp
    8b4d:	89 f8                	mov    %edi,%eax
    8b4f:	88 45 fc             	mov    %al,-0x4(%rbp)
    8b52:	0f b6 45 fc          	movzbl -0x4(%rbp),%eax
    8b56:	f7 d8                	neg    %eax
    8b58:	5d                   	pop    %rbp
    8b59:	c3                   	retq   

0000000000008b5a <safe_add_func_uint8_t_u_u>:
    8b5a:	f3 0f 1e fa          	endbr64 
    8b5e:	55                   	push   %rbp
    8b5f:	48 89 e5             	mov    %rsp,%rbp
    8b62:	89 fa                	mov    %edi,%edx
    8b64:	89 f0                	mov    %esi,%eax
    8b66:	88 55 fc             	mov    %dl,-0x4(%rbp)
    8b69:	88 45 f8             	mov    %al,-0x8(%rbp)
    8b6c:	0f b6 55 fc          	movzbl -0x4(%rbp),%edx
    8b70:	0f b6 45 f8          	movzbl -0x8(%rbp),%eax
    8b74:	01 d0                	add    %edx,%eax
    8b76:	5d                   	pop    %rbp
    8b77:	c3                   	retq   

0000000000008b78 <safe_sub_func_uint8_t_u_u>:
    8b78:	f3 0f 1e fa          	endbr64 
    8b7c:	55                   	push   %rbp
    8b7d:	48 89 e5             	mov    %rsp,%rbp
    8b80:	89 fa                	mov    %edi,%edx
    8b82:	89 f0                	mov    %esi,%eax
    8b84:	88 55 fc             	mov    %dl,-0x4(%rbp)
    8b87:	88 45 f8             	mov    %al,-0x8(%rbp)
    8b8a:	0f b6 45 fc          	movzbl -0x4(%rbp),%eax
    8b8e:	2a 45 f8             	sub    -0x8(%rbp),%al
    8b91:	5d                   	pop    %rbp
    8b92:	c3                   	retq   

0000000000008b93 <safe_mul_func_uint8_t_u_u>:
    8b93:	f3 0f 1e fa          	endbr64 
    8b97:	55                   	push   %rbp
    8b98:	48 89 e5             	mov    %rsp,%rbp
    8b9b:	89 fa                	mov    %edi,%edx
    8b9d:	89 f0                	mov    %esi,%eax
    8b9f:	88 55 fc             	mov    %dl,-0x4(%rbp)
    8ba2:	88 45 f8             	mov    %al,-0x8(%rbp)
    8ba5:	0f b6 45 fc          	movzbl -0x4(%rbp),%eax
    8ba9:	f6 65 f8             	mulb   -0x8(%rbp)
    8bac:	5d                   	pop    %rbp
    8bad:	c3                   	retq   

0000000000008bae <safe_mod_func_uint8_t_u_u>:
    8bae:	f3 0f 1e fa          	endbr64 
    8bb2:	55                   	push   %rbp
    8bb3:	48 89 e5             	mov    %rsp,%rbp
    8bb6:	89 fa                	mov    %edi,%edx
    8bb8:	89 f0                	mov    %esi,%eax
    8bba:	88 55 fc             	mov    %dl,-0x4(%rbp)
    8bbd:	88 45 f8             	mov    %al,-0x8(%rbp)
    8bc0:	80 7d f8 00          	cmpb   $0x0,-0x8(%rbp)
    8bc4:	74 0f                	je     8bd5 <safe_mod_func_uint8_t_u_u+0x27>
    8bc6:	0f b6 45 fc          	movzbl -0x4(%rbp),%eax
    8bca:	0f b6 c0             	movzbl %al,%eax
    8bcd:	f6 75 f8             	divb   -0x8(%rbp)
    8bd0:	0f b6 c4             	movzbl %ah,%eax
    8bd3:	eb 04                	jmp    8bd9 <safe_mod_func_uint8_t_u_u+0x2b>
    8bd5:	0f b6 45 fc          	movzbl -0x4(%rbp),%eax
    8bd9:	5d                   	pop    %rbp
    8bda:	c3                   	retq   

0000000000008bdb <safe_div_func_uint8_t_u_u>:
    8bdb:	f3 0f 1e fa          	endbr64 
    8bdf:	55                   	push   %rbp
    8be0:	48 89 e5             	mov    %rsp,%rbp
    8be3:	89 fa                	mov    %edi,%edx
    8be5:	89 f0                	mov    %esi,%eax
    8be7:	88 55 fc             	mov    %dl,-0x4(%rbp)
    8bea:	88 45 f8             	mov    %al,-0x8(%rbp)
    8bed:	80 7d f8 00          	cmpb   $0x0,-0x8(%rbp)
    8bf1:	74 0c                	je     8bff <safe_div_func_uint8_t_u_u+0x24>
    8bf3:	0f b6 45 fc          	movzbl -0x4(%rbp),%eax
    8bf7:	0f b6 c0             	movzbl %al,%eax
    8bfa:	f6 75 f8             	divb   -0x8(%rbp)
    8bfd:	eb 04                	jmp    8c03 <safe_div_func_uint8_t_u_u+0x28>
    8bff:	0f b6 45 fc          	movzbl -0x4(%rbp),%eax
    8c03:	5d                   	pop    %rbp
    8c04:	c3                   	retq   

0000000000008c05 <safe_lshift_func_uint8_t_u_s>:
    8c05:	f3 0f 1e fa          	endbr64 
    8c09:	55                   	push   %rbp
    8c0a:	48 89 e5             	mov    %rsp,%rbp
    8c0d:	89 f8                	mov    %edi,%eax
    8c0f:	89 75 f8             	mov    %esi,-0x8(%rbp)
    8c12:	88 45 fc             	mov    %al,-0x4(%rbp)
    8c15:	83 7d f8 00          	cmpl   $0x0,-0x8(%rbp)
    8c19:	78 2b                	js     8c46 <safe_lshift_func_uint8_t_u_s+0x41>
    8c1b:	83 7d f8 1f          	cmpl   $0x1f,-0x8(%rbp)
    8c1f:	7f 25                	jg     8c46 <safe_lshift_func_uint8_t_u_s+0x41>
    8c21:	0f b6 55 fc          	movzbl -0x4(%rbp),%edx
    8c25:	8b 45 f8             	mov    -0x8(%rbp),%eax
    8c28:	be ff 00 00 00       	mov    $0xff,%esi
    8c2d:	89 c1                	mov    %eax,%ecx
    8c2f:	d3 fe                	sar    %cl,%esi
    8c31:	89 f0                	mov    %esi,%eax
    8c33:	39 c2                	cmp    %eax,%edx
    8c35:	7f 0f                	jg     8c46 <safe_lshift_func_uint8_t_u_s+0x41>
    8c37:	0f b6 55 fc          	movzbl -0x4(%rbp),%edx
    8c3b:	8b 45 f8             	mov    -0x8(%rbp),%eax
    8c3e:	89 c1                	mov    %eax,%ecx
    8c40:	d3 e2                	shl    %cl,%edx
    8c42:	89 d0                	mov    %edx,%eax
    8c44:	eb 04                	jmp    8c4a <safe_lshift_func_uint8_t_u_s+0x45>
    8c46:	0f b6 45 fc          	movzbl -0x4(%rbp),%eax
    8c4a:	5d                   	pop    %rbp
    8c4b:	c3                   	retq   

0000000000008c4c <safe_lshift_func_uint8_t_u_u>:
    8c4c:	f3 0f 1e fa          	endbr64 
    8c50:	55                   	push   %rbp
    8c51:	48 89 e5             	mov    %rsp,%rbp
    8c54:	89 f8                	mov    %edi,%eax
    8c56:	89 75 f8             	mov    %esi,-0x8(%rbp)
    8c59:	88 45 fc             	mov    %al,-0x4(%rbp)
    8c5c:	83 7d f8 1f          	cmpl   $0x1f,-0x8(%rbp)
    8c60:	77 25                	ja     8c87 <safe_lshift_func_uint8_t_u_u+0x3b>
    8c62:	0f b6 55 fc          	movzbl -0x4(%rbp),%edx
    8c66:	8b 45 f8             	mov    -0x8(%rbp),%eax
    8c69:	be ff 00 00 00       	mov    $0xff,%esi
    8c6e:	89 c1                	mov    %eax,%ecx
    8c70:	d3 fe                	sar    %cl,%esi
    8c72:	89 f0                	mov    %esi,%eax
    8c74:	39 c2                	cmp    %eax,%edx
    8c76:	7f 0f                	jg     8c87 <safe_lshift_func_uint8_t_u_u+0x3b>
    8c78:	0f b6 55 fc          	movzbl -0x4(%rbp),%edx
    8c7c:	8b 45 f8             	mov    -0x8(%rbp),%eax
    8c7f:	89 c1                	mov    %eax,%ecx
    8c81:	d3 e2                	shl    %cl,%edx
    8c83:	89 d0                	mov    %edx,%eax
    8c85:	eb 04                	jmp    8c8b <safe_lshift_func_uint8_t_u_u+0x3f>
    8c87:	0f b6 45 fc          	movzbl -0x4(%rbp),%eax
    8c8b:	5d                   	pop    %rbp
    8c8c:	c3                   	retq   

0000000000008c8d <safe_rshift_func_uint8_t_u_s>:
    8c8d:	f3 0f 1e fa          	endbr64 
    8c91:	55                   	push   %rbp
    8c92:	48 89 e5             	mov    %rsp,%rbp
    8c95:	89 f8                	mov    %edi,%eax
    8c97:	89 75 f8             	mov    %esi,-0x8(%rbp)
    8c9a:	88 45 fc             	mov    %al,-0x4(%rbp)
    8c9d:	83 7d f8 00          	cmpl   $0x0,-0x8(%rbp)
    8ca1:	78 15                	js     8cb8 <safe_rshift_func_uint8_t_u_s+0x2b>
    8ca3:	83 7d f8 1f          	cmpl   $0x1f,-0x8(%rbp)
    8ca7:	7f 0f                	jg     8cb8 <safe_rshift_func_uint8_t_u_s+0x2b>
    8ca9:	0f b6 55 fc          	movzbl -0x4(%rbp),%edx
    8cad:	8b 45 f8             	mov    -0x8(%rbp),%eax
    8cb0:	89 c1                	mov    %eax,%ecx
    8cb2:	d3 fa                	sar    %cl,%edx
    8cb4:	89 d0                	mov    %edx,%eax
    8cb6:	eb 04                	jmp    8cbc <safe_rshift_func_uint8_t_u_s+0x2f>
    8cb8:	0f b6 45 fc          	movzbl -0x4(%rbp),%eax
    8cbc:	5d                   	pop    %rbp
    8cbd:	c3                   	retq   

0000000000008cbe <safe_rshift_func_uint8_t_u_u>:
    8cbe:	f3 0f 1e fa          	endbr64 
    8cc2:	55                   	push   %rbp
    8cc3:	48 89 e5             	mov    %rsp,%rbp
    8cc6:	89 f8                	mov    %edi,%eax
    8cc8:	89 75 f8             	mov    %esi,-0x8(%rbp)
    8ccb:	88 45 fc             	mov    %al,-0x4(%rbp)
    8cce:	83 7d f8 1f          	cmpl   $0x1f,-0x8(%rbp)
    8cd2:	77 0f                	ja     8ce3 <safe_rshift_func_uint8_t_u_u+0x25>
    8cd4:	0f b6 55 fc          	movzbl -0x4(%rbp),%edx
    8cd8:	8b 45 f8             	mov    -0x8(%rbp),%eax
    8cdb:	89 c1                	mov    %eax,%ecx
    8cdd:	d3 fa                	sar    %cl,%edx
    8cdf:	89 d0                	mov    %edx,%eax
    8ce1:	eb 04                	jmp    8ce7 <safe_rshift_func_uint8_t_u_u+0x29>
    8ce3:	0f b6 45 fc          	movzbl -0x4(%rbp),%eax
    8ce7:	5d                   	pop    %rbp
    8ce8:	c3                   	retq   

0000000000008ce9 <safe_unary_minus_func_uint16_t_u>:
    8ce9:	f3 0f 1e fa          	endbr64 
    8ced:	55                   	push   %rbp
    8cee:	48 89 e5             	mov    %rsp,%rbp
    8cf1:	89 f8                	mov    %edi,%eax
    8cf3:	66 89 45 fc          	mov    %ax,-0x4(%rbp)
    8cf7:	0f b7 45 fc          	movzwl -0x4(%rbp),%eax
    8cfb:	f7 d8                	neg    %eax
    8cfd:	5d                   	pop    %rbp
    8cfe:	c3                   	retq   

0000000000008cff <safe_add_func_uint16_t_u_u>:
    8cff:	f3 0f 1e fa          	endbr64 
    8d03:	55                   	push   %rbp
    8d04:	48 89 e5             	mov    %rsp,%rbp
    8d07:	89 fa                	mov    %edi,%edx
    8d09:	89 f0                	mov    %esi,%eax
    8d0b:	66 89 55 fc          	mov    %dx,-0x4(%rbp)
    8d0f:	66 89 45 f8          	mov    %ax,-0x8(%rbp)
    8d13:	0f b7 55 fc          	movzwl -0x4(%rbp),%edx
    8d17:	0f b7 45 f8          	movzwl -0x8(%rbp),%eax
    8d1b:	01 d0                	add    %edx,%eax
    8d1d:	5d                   	pop    %rbp
    8d1e:	c3                   	retq   

0000000000008d1f <safe_sub_func_uint16_t_u_u>:
    8d1f:	f3 0f 1e fa          	endbr64 
    8d23:	55                   	push   %rbp
    8d24:	48 89 e5             	mov    %rsp,%rbp
    8d27:	89 fa                	mov    %edi,%edx
    8d29:	89 f0                	mov    %esi,%eax
    8d2b:	66 89 55 fc          	mov    %dx,-0x4(%rbp)
    8d2f:	66 89 45 f8          	mov    %ax,-0x8(%rbp)
    8d33:	0f b7 45 fc          	movzwl -0x4(%rbp),%eax
    8d37:	66 2b 45 f8          	sub    -0x8(%rbp),%ax
    8d3b:	5d                   	pop    %rbp
    8d3c:	c3                   	retq   

0000000000008d3d <safe_mul_func_uint16_t_u_u>:
    8d3d:	f3 0f 1e fa          	endbr64 
    8d41:	55                   	push   %rbp
    8d42:	48 89 e5             	mov    %rsp,%rbp
    8d45:	89 fa                	mov    %edi,%edx
    8d47:	89 f0                	mov    %esi,%eax
    8d49:	66 89 55 fc          	mov    %dx,-0x4(%rbp)
    8d4d:	66 89 45 f8          	mov    %ax,-0x8(%rbp)
    8d51:	0f b7 45 fc          	movzwl -0x4(%rbp),%eax
    8d55:	66 0f af 45 f8       	imul   -0x8(%rbp),%ax
    8d5a:	5d                   	pop    %rbp
    8d5b:	c3                   	retq   

0000000000008d5c <safe_mod_func_uint16_t_u_u>:
    8d5c:	f3 0f 1e fa          	endbr64 
    8d60:	55                   	push   %rbp
    8d61:	48 89 e5             	mov    %rsp,%rbp
    8d64:	89 fa                	mov    %edi,%edx
    8d66:	89 f0                	mov    %esi,%eax
    8d68:	66 89 55 fc          	mov    %dx,-0x4(%rbp)
    8d6c:	66 89 45 f8          	mov    %ax,-0x8(%rbp)
    8d70:	66 83 7d f8 00       	cmpw   $0x0,-0x8(%rbp)
    8d75:	74 11                	je     8d88 <safe_mod_func_uint16_t_u_u+0x2c>
    8d77:	0f b7 45 fc          	movzwl -0x4(%rbp),%eax
    8d7b:	ba 00 00 00 00       	mov    $0x0,%edx
    8d80:	66 f7 75 f8          	divw   -0x8(%rbp)
    8d84:	89 d0                	mov    %edx,%eax
    8d86:	eb 04                	jmp    8d8c <safe_mod_func_uint16_t_u_u+0x30>
    8d88:	0f b7 45 fc          	movzwl -0x4(%rbp),%eax
    8d8c:	5d                   	pop    %rbp
    8d8d:	c3                   	retq   

0000000000008d8e <safe_div_func_uint16_t_u_u>:
    8d8e:	f3 0f 1e fa          	endbr64 
    8d92:	55                   	push   %rbp
    8d93:	48 89 e5             	mov    %rsp,%rbp
    8d96:	89 fa                	mov    %edi,%edx
    8d98:	89 f0                	mov    %esi,%eax
    8d9a:	66 89 55 fc          	mov    %dx,-0x4(%rbp)
    8d9e:	66 89 45 f8          	mov    %ax,-0x8(%rbp)
    8da2:	66 83 7d f8 00       	cmpw   $0x0,-0x8(%rbp)
    8da7:	74 0f                	je     8db8 <safe_div_func_uint16_t_u_u+0x2a>
    8da9:	0f b7 45 fc          	movzwl -0x4(%rbp),%eax
    8dad:	ba 00 00 00 00       	mov    $0x0,%edx
    8db2:	66 f7 75 f8          	divw   -0x8(%rbp)
    8db6:	eb 04                	jmp    8dbc <safe_div_func_uint16_t_u_u+0x2e>
    8db8:	0f b7 45 fc          	movzwl -0x4(%rbp),%eax
    8dbc:	5d                   	pop    %rbp
    8dbd:	c3                   	retq   

0000000000008dbe <safe_lshift_func_uint16_t_u_s>:
    8dbe:	f3 0f 1e fa          	endbr64 
    8dc2:	55                   	push   %rbp
    8dc3:	48 89 e5             	mov    %rsp,%rbp
    8dc6:	89 f8                	mov    %edi,%eax
    8dc8:	89 75 f8             	mov    %esi,-0x8(%rbp)
    8dcb:	66 89 45 fc          	mov    %ax,-0x4(%rbp)
    8dcf:	83 7d f8 00          	cmpl   $0x0,-0x8(%rbp)
    8dd3:	78 2b                	js     8e00 <safe_lshift_func_uint16_t_u_s+0x42>
    8dd5:	83 7d f8 1f          	cmpl   $0x1f,-0x8(%rbp)
    8dd9:	7f 25                	jg     8e00 <safe_lshift_func_uint16_t_u_s+0x42>
    8ddb:	0f b7 55 fc          	movzwl -0x4(%rbp),%edx
    8ddf:	8b 45 f8             	mov    -0x8(%rbp),%eax
    8de2:	be ff ff 00 00       	mov    $0xffff,%esi
    8de7:	89 c1                	mov    %eax,%ecx
    8de9:	d3 fe                	sar    %cl,%esi
    8deb:	89 f0                	mov    %esi,%eax
    8ded:	39 c2                	cmp    %eax,%edx
    8def:	7f 0f                	jg     8e00 <safe_lshift_func_uint16_t_u_s+0x42>
    8df1:	0f b7 55 fc          	movzwl -0x4(%rbp),%edx
    8df5:	8b 45 f8             	mov    -0x8(%rbp),%eax
    8df8:	89 c1                	mov    %eax,%ecx
    8dfa:	d3 e2                	shl    %cl,%edx
    8dfc:	89 d0                	mov    %edx,%eax
    8dfe:	eb 04                	jmp    8e04 <safe_lshift_func_uint16_t_u_s+0x46>
    8e00:	0f b7 45 fc          	movzwl -0x4(%rbp),%eax
    8e04:	5d                   	pop    %rbp
    8e05:	c3                   	retq   

0000000000008e06 <safe_lshift_func_uint16_t_u_u>:
    8e06:	f3 0f 1e fa          	endbr64 
    8e0a:	55                   	push   %rbp
    8e0b:	48 89 e5             	mov    %rsp,%rbp
    8e0e:	89 f8                	mov    %edi,%eax
    8e10:	89 75 f8             	mov    %esi,-0x8(%rbp)
    8e13:	66 89 45 fc          	mov    %ax,-0x4(%rbp)
    8e17:	83 7d f8 1f          	cmpl   $0x1f,-0x8(%rbp)
    8e1b:	77 25                	ja     8e42 <safe_lshift_func_uint16_t_u_u+0x3c>
    8e1d:	0f b7 55 fc          	movzwl -0x4(%rbp),%edx
    8e21:	8b 45 f8             	mov    -0x8(%rbp),%eax
    8e24:	be ff ff 00 00       	mov    $0xffff,%esi
    8e29:	89 c1                	mov    %eax,%ecx
    8e2b:	d3 fe                	sar    %cl,%esi
    8e2d:	89 f0                	mov    %esi,%eax
    8e2f:	39 c2                	cmp    %eax,%edx
    8e31:	7f 0f                	jg     8e42 <safe_lshift_func_uint16_t_u_u+0x3c>
    8e33:	0f b7 55 fc          	movzwl -0x4(%rbp),%edx
    8e37:	8b 45 f8             	mov    -0x8(%rbp),%eax
    8e3a:	89 c1                	mov    %eax,%ecx
    8e3c:	d3 e2                	shl    %cl,%edx
    8e3e:	89 d0                	mov    %edx,%eax
    8e40:	eb 04                	jmp    8e46 <safe_lshift_func_uint16_t_u_u+0x40>
    8e42:	0f b7 45 fc          	movzwl -0x4(%rbp),%eax
    8e46:	5d                   	pop    %rbp
    8e47:	c3                   	retq   

0000000000008e48 <safe_rshift_func_uint16_t_u_s>:
    8e48:	f3 0f 1e fa          	endbr64 
    8e4c:	55                   	push   %rbp
    8e4d:	48 89 e5             	mov    %rsp,%rbp
    8e50:	89 f8                	mov    %edi,%eax
    8e52:	89 75 f8             	mov    %esi,-0x8(%rbp)
    8e55:	66 89 45 fc          	mov    %ax,-0x4(%rbp)
    8e59:	83 7d f8 00          	cmpl   $0x0,-0x8(%rbp)
    8e5d:	78 15                	js     8e74 <safe_rshift_func_uint16_t_u_s+0x2c>
    8e5f:	83 7d f8 1f          	cmpl   $0x1f,-0x8(%rbp)
    8e63:	7f 0f                	jg     8e74 <safe_rshift_func_uint16_t_u_s+0x2c>
    8e65:	0f b7 55 fc          	movzwl -0x4(%rbp),%edx
    8e69:	8b 45 f8             	mov    -0x8(%rbp),%eax
    8e6c:	89 c1                	mov    %eax,%ecx
    8e6e:	d3 fa                	sar    %cl,%edx
    8e70:	89 d0                	mov    %edx,%eax
    8e72:	eb 04                	jmp    8e78 <safe_rshift_func_uint16_t_u_s+0x30>
    8e74:	0f b7 45 fc          	movzwl -0x4(%rbp),%eax
    8e78:	5d                   	pop    %rbp
    8e79:	c3                   	retq   

0000000000008e7a <safe_rshift_func_uint16_t_u_u>:
    8e7a:	f3 0f 1e fa          	endbr64 
    8e7e:	55                   	push   %rbp
    8e7f:	48 89 e5             	mov    %rsp,%rbp
    8e82:	89 f8                	mov    %edi,%eax
    8e84:	89 75 f8             	mov    %esi,-0x8(%rbp)
    8e87:	66 89 45 fc          	mov    %ax,-0x4(%rbp)
    8e8b:	83 7d f8 1f          	cmpl   $0x1f,-0x8(%rbp)
    8e8f:	77 0f                	ja     8ea0 <safe_rshift_func_uint16_t_u_u+0x26>
    8e91:	0f b7 55 fc          	movzwl -0x4(%rbp),%edx
    8e95:	8b 45 f8             	mov    -0x8(%rbp),%eax
    8e98:	89 c1                	mov    %eax,%ecx
    8e9a:	d3 fa                	sar    %cl,%edx
    8e9c:	89 d0                	mov    %edx,%eax
    8e9e:	eb 04                	jmp    8ea4 <safe_rshift_func_uint16_t_u_u+0x2a>
    8ea0:	0f b7 45 fc          	movzwl -0x4(%rbp),%eax
    8ea4:	5d                   	pop    %rbp
    8ea5:	c3                   	retq   

0000000000008ea6 <safe_unary_minus_func_uint32_t_u>:
    8ea6:	f3 0f 1e fa          	endbr64 
    8eaa:	55                   	push   %rbp
    8eab:	48 89 e5             	mov    %rsp,%rbp
    8eae:	89 7d fc             	mov    %edi,-0x4(%rbp)
    8eb1:	8b 45 fc             	mov    -0x4(%rbp),%eax
    8eb4:	f7 d8                	neg    %eax
    8eb6:	5d                   	pop    %rbp
    8eb7:	c3                   	retq   

0000000000008eb8 <safe_add_func_uint32_t_u_u>:
    8eb8:	f3 0f 1e fa          	endbr64 
    8ebc:	55                   	push   %rbp
    8ebd:	48 89 e5             	mov    %rsp,%rbp
    8ec0:	89 7d fc             	mov    %edi,-0x4(%rbp)
    8ec3:	89 75 f8             	mov    %esi,-0x8(%rbp)
    8ec6:	8b 55 fc             	mov    -0x4(%rbp),%edx
    8ec9:	8b 45 f8             	mov    -0x8(%rbp),%eax
    8ecc:	01 d0                	add    %edx,%eax
    8ece:	5d                   	pop    %rbp
    8ecf:	c3                   	retq   

0000000000008ed0 <safe_sub_func_uint32_t_u_u>:
    8ed0:	f3 0f 1e fa          	endbr64 
    8ed4:	55                   	push   %rbp
    8ed5:	48 89 e5             	mov    %rsp,%rbp
    8ed8:	89 7d fc             	mov    %edi,-0x4(%rbp)
    8edb:	89 75 f8             	mov    %esi,-0x8(%rbp)
    8ede:	8b 45 fc             	mov    -0x4(%rbp),%eax
    8ee1:	2b 45 f8             	sub    -0x8(%rbp),%eax
    8ee4:	5d                   	pop    %rbp
    8ee5:	c3                   	retq   

0000000000008ee6 <safe_mul_func_uint32_t_u_u>:
    8ee6:	f3 0f 1e fa          	endbr64 
    8eea:	55                   	push   %rbp
    8eeb:	48 89 e5             	mov    %rsp,%rbp
    8eee:	89 7d fc             	mov    %edi,-0x4(%rbp)
    8ef1:	89 75 f8             	mov    %esi,-0x8(%rbp)
    8ef4:	8b 45 fc             	mov    -0x4(%rbp),%eax
    8ef7:	0f af 45 f8          	imul   -0x8(%rbp),%eax
    8efb:	5d                   	pop    %rbp
    8efc:	c3                   	retq   

0000000000008efd <safe_mod_func_uint32_t_u_u>:
    8efd:	f3 0f 1e fa          	endbr64 
    8f01:	55                   	push   %rbp
    8f02:	48 89 e5             	mov    %rsp,%rbp
    8f05:	89 7d fc             	mov    %edi,-0x4(%rbp)
    8f08:	89 75 f8             	mov    %esi,-0x8(%rbp)
    8f0b:	83 7d f8 00          	cmpl   $0x0,-0x8(%rbp)
    8f0f:	74 0f                	je     8f20 <safe_mod_func_uint32_t_u_u+0x23>
    8f11:	8b 45 fc             	mov    -0x4(%rbp),%eax
    8f14:	ba 00 00 00 00       	mov    $0x0,%edx
    8f19:	f7 75 f8             	divl   -0x8(%rbp)
    8f1c:	89 d0                	mov    %edx,%eax
    8f1e:	eb 03                	jmp    8f23 <safe_mod_func_uint32_t_u_u+0x26>
    8f20:	8b 45 fc             	mov    -0x4(%rbp),%eax
    8f23:	5d                   	pop    %rbp
    8f24:	c3                   	retq   

0000000000008f25 <safe_div_func_uint32_t_u_u>:
    8f25:	f3 0f 1e fa          	endbr64 
    8f29:	55                   	push   %rbp
    8f2a:	48 89 e5             	mov    %rsp,%rbp
    8f2d:	89 7d fc             	mov    %edi,-0x4(%rbp)
    8f30:	89 75 f8             	mov    %esi,-0x8(%rbp)
    8f33:	83 7d f8 00          	cmpl   $0x0,-0x8(%rbp)
    8f37:	74 0d                	je     8f46 <safe_div_func_uint32_t_u_u+0x21>
    8f39:	8b 45 fc             	mov    -0x4(%rbp),%eax
    8f3c:	ba 00 00 00 00       	mov    $0x0,%edx
    8f41:	f7 75 f8             	divl   -0x8(%rbp)
    8f44:	eb 03                	jmp    8f49 <safe_div_func_uint32_t_u_u+0x24>
    8f46:	8b 45 fc             	mov    -0x4(%rbp),%eax
    8f49:	5d                   	pop    %rbp
    8f4a:	c3                   	retq   

0000000000008f4b <safe_lshift_func_uint32_t_u_s>:
    8f4b:	f3 0f 1e fa          	endbr64 
    8f4f:	55                   	push   %rbp
    8f50:	48 89 e5             	mov    %rsp,%rbp
    8f53:	89 7d fc             	mov    %edi,-0x4(%rbp)
    8f56:	89 75 f8             	mov    %esi,-0x8(%rbp)
    8f59:	83 7d f8 00          	cmpl   $0x0,-0x8(%rbp)
    8f5d:	78 27                	js     8f86 <safe_lshift_func_uint32_t_u_s+0x3b>
    8f5f:	83 7d f8 1f          	cmpl   $0x1f,-0x8(%rbp)
    8f63:	7f 21                	jg     8f86 <safe_lshift_func_uint32_t_u_s+0x3b>
    8f65:	8b 45 f8             	mov    -0x8(%rbp),%eax
    8f68:	ba ff ff ff ff       	mov    $0xffffffff,%edx
    8f6d:	89 c1                	mov    %eax,%ecx
    8f6f:	d3 ea                	shr    %cl,%edx
    8f71:	89 d0                	mov    %edx,%eax
    8f73:	39 45 fc             	cmp    %eax,-0x4(%rbp)
    8f76:	77 0e                	ja     8f86 <safe_lshift_func_uint32_t_u_s+0x3b>
    8f78:	8b 45 f8             	mov    -0x8(%rbp),%eax
    8f7b:	8b 55 fc             	mov    -0x4(%rbp),%edx
    8f7e:	89 c1                	mov    %eax,%ecx
    8f80:	d3 e2                	shl    %cl,%edx
    8f82:	89 d0                	mov    %edx,%eax
    8f84:	eb 03                	jmp    8f89 <safe_lshift_func_uint32_t_u_s+0x3e>
    8f86:	8b 45 fc             	mov    -0x4(%rbp),%eax
    8f89:	5d                   	pop    %rbp
    8f8a:	c3                   	retq   

0000000000008f8b <safe_lshift_func_uint32_t_u_u>:
    8f8b:	f3 0f 1e fa          	endbr64 
    8f8f:	55                   	push   %rbp
    8f90:	48 89 e5             	mov    %rsp,%rbp
    8f93:	89 7d fc             	mov    %edi,-0x4(%rbp)
    8f96:	89 75 f8             	mov    %esi,-0x8(%rbp)
    8f99:	83 7d f8 1f          	cmpl   $0x1f,-0x8(%rbp)
    8f9d:	77 21                	ja     8fc0 <safe_lshift_func_uint32_t_u_u+0x35>
    8f9f:	8b 45 f8             	mov    -0x8(%rbp),%eax
    8fa2:	ba ff ff ff ff       	mov    $0xffffffff,%edx
    8fa7:	89 c1                	mov    %eax,%ecx
    8fa9:	d3 ea                	shr    %cl,%edx
    8fab:	89 d0                	mov    %edx,%eax
    8fad:	39 45 fc             	cmp    %eax,-0x4(%rbp)
    8fb0:	77 0e                	ja     8fc0 <safe_lshift_func_uint32_t_u_u+0x35>
    8fb2:	8b 45 f8             	mov    -0x8(%rbp),%eax
    8fb5:	8b 55 fc             	mov    -0x4(%rbp),%edx
    8fb8:	89 c1                	mov    %eax,%ecx
    8fba:	d3 e2                	shl    %cl,%edx
    8fbc:	89 d0                	mov    %edx,%eax
    8fbe:	eb 03                	jmp    8fc3 <safe_lshift_func_uint32_t_u_u+0x38>
    8fc0:	8b 45 fc             	mov    -0x4(%rbp),%eax
    8fc3:	5d                   	pop    %rbp
    8fc4:	c3                   	retq   

0000000000008fc5 <safe_rshift_func_uint32_t_u_s>:
    8fc5:	f3 0f 1e fa          	endbr64 
    8fc9:	55                   	push   %rbp
    8fca:	48 89 e5             	mov    %rsp,%rbp
    8fcd:	89 7d fc             	mov    %edi,-0x4(%rbp)
    8fd0:	89 75 f8             	mov    %esi,-0x8(%rbp)
    8fd3:	83 7d f8 00          	cmpl   $0x0,-0x8(%rbp)
    8fd7:	78 14                	js     8fed <safe_rshift_func_uint32_t_u_s+0x28>
    8fd9:	83 7d f8 1f          	cmpl   $0x1f,-0x8(%rbp)
    8fdd:	7f 0e                	jg     8fed <safe_rshift_func_uint32_t_u_s+0x28>
    8fdf:	8b 45 f8             	mov    -0x8(%rbp),%eax
    8fe2:	8b 55 fc             	mov    -0x4(%rbp),%edx
    8fe5:	89 c1                	mov    %eax,%ecx
    8fe7:	d3 ea                	shr    %cl,%edx
    8fe9:	89 d0                	mov    %edx,%eax
    8feb:	eb 03                	jmp    8ff0 <safe_rshift_func_uint32_t_u_s+0x2b>
    8fed:	8b 45 fc             	mov    -0x4(%rbp),%eax
    8ff0:	5d                   	pop    %rbp
    8ff1:	c3                   	retq   

0000000000008ff2 <safe_rshift_func_uint32_t_u_u>:
    8ff2:	f3 0f 1e fa          	endbr64 
    8ff6:	55                   	push   %rbp
    8ff7:	48 89 e5             	mov    %rsp,%rbp
    8ffa:	89 7d fc             	mov    %edi,-0x4(%rbp)
    8ffd:	89 75 f8             	mov    %esi,-0x8(%rbp)
    9000:	83 7d f8 1f          	cmpl   $0x1f,-0x8(%rbp)
    9004:	77 0e                	ja     9014 <safe_rshift_func_uint32_t_u_u+0x22>
    9006:	8b 45 f8             	mov    -0x8(%rbp),%eax
    9009:	8b 55 fc             	mov    -0x4(%rbp),%edx
    900c:	89 c1                	mov    %eax,%ecx
    900e:	d3 ea                	shr    %cl,%edx
    9010:	89 d0                	mov    %edx,%eax
    9012:	eb 03                	jmp    9017 <safe_rshift_func_uint32_t_u_u+0x25>
    9014:	8b 45 fc             	mov    -0x4(%rbp),%eax
    9017:	5d                   	pop    %rbp
    9018:	c3                   	retq   

0000000000009019 <safe_unary_minus_func_uint64_t_u>:
    9019:	f3 0f 1e fa          	endbr64 
    901d:	55                   	push   %rbp
    901e:	48 89 e5             	mov    %rsp,%rbp
    9021:	48 89 7d f8          	mov    %rdi,-0x8(%rbp)
    9025:	48 8b 45 f8          	mov    -0x8(%rbp),%rax
    9029:	48 f7 d8             	neg    %rax
    902c:	5d                   	pop    %rbp
    902d:	c3                   	retq   

000000000000902e <safe_add_func_uint64_t_u_u>:
    902e:	f3 0f 1e fa          	endbr64 
    9032:	55                   	push   %rbp
    9033:	48 89 e5             	mov    %rsp,%rbp
    9036:	48 89 7d f8          	mov    %rdi,-0x8(%rbp)
    903a:	48 89 75 f0          	mov    %rsi,-0x10(%rbp)
    903e:	48 8b 55 f8          	mov    -0x8(%rbp),%rdx
    9042:	48 8b 45 f0          	mov    -0x10(%rbp),%rax
    9046:	48 01 d0             	add    %rdx,%rax
    9049:	5d                   	pop    %rbp
    904a:	c3                   	retq   

000000000000904b <safe_sub_func_uint64_t_u_u>:
    904b:	f3 0f 1e fa          	endbr64 
    904f:	55                   	push   %rbp
    9050:	48 89 e5             	mov    %rsp,%rbp
    9053:	48 89 7d f8          	mov    %rdi,-0x8(%rbp)
    9057:	48 89 75 f0          	mov    %rsi,-0x10(%rbp)
    905b:	48 8b 45 f8          	mov    -0x8(%rbp),%rax
    905f:	48 2b 45 f0          	sub    -0x10(%rbp),%rax
    9063:	5d                   	pop    %rbp
    9064:	c3                   	retq   

0000000000009065 <safe_mul_func_uint64_t_u_u>:
    9065:	f3 0f 1e fa          	endbr64 
    9069:	55                   	push   %rbp
    906a:	48 89 e5             	mov    %rsp,%rbp
    906d:	48 89 7d f8          	mov    %rdi,-0x8(%rbp)
    9071:	48 89 75 f0          	mov    %rsi,-0x10(%rbp)
    9075:	48 8b 45 f8          	mov    -0x8(%rbp),%rax
    9079:	48 0f af 45 f0       	imul   -0x10(%rbp),%rax
    907e:	5d                   	pop    %rbp
    907f:	c3                   	retq   

0000000000009080 <safe_mod_func_uint64_t_u_u>:
    9080:	f3 0f 1e fa          	endbr64 
    9084:	55                   	push   %rbp
    9085:	48 89 e5             	mov    %rsp,%rbp
    9088:	48 89 7d f8          	mov    %rdi,-0x8(%rbp)
    908c:	48 89 75 f0          	mov    %rsi,-0x10(%rbp)
    9090:	48 83 7d f0 00       	cmpq   $0x0,-0x10(%rbp)
    9095:	74 12                	je     90a9 <safe_mod_func_uint64_t_u_u+0x29>
    9097:	48 8b 45 f8          	mov    -0x8(%rbp),%rax
    909b:	ba 00 00 00 00       	mov    $0x0,%edx
    90a0:	48 f7 75 f0          	divq   -0x10(%rbp)
    90a4:	48 89 d0             	mov    %rdx,%rax
    90a7:	eb 04                	jmp    90ad <safe_mod_func_uint64_t_u_u+0x2d>
    90a9:	48 8b 45 f8          	mov    -0x8(%rbp),%rax
    90ad:	5d                   	pop    %rbp
    90ae:	c3                   	retq   

00000000000090af <safe_div_func_uint64_t_u_u>:
    90af:	f3 0f 1e fa          	endbr64 
    90b3:	55                   	push   %rbp
    90b4:	48 89 e5             	mov    %rsp,%rbp
    90b7:	48 89 7d f8          	mov    %rdi,-0x8(%rbp)
    90bb:	48 89 75 f0          	mov    %rsi,-0x10(%rbp)
    90bf:	48 83 7d f0 00       	cmpq   $0x0,-0x10(%rbp)
    90c4:	74 0f                	je     90d5 <safe_div_func_uint64_t_u_u+0x26>
    90c6:	48 8b 45 f8          	mov    -0x8(%rbp),%rax
    90ca:	ba 00 00 00 00       	mov    $0x0,%edx
    90cf:	48 f7 75 f0          	divq   -0x10(%rbp)
    90d3:	eb 04                	jmp    90d9 <safe_div_func_uint64_t_u_u+0x2a>
    90d5:	48 8b 45 f8          	mov    -0x8(%rbp),%rax
    90d9:	5d                   	pop    %rbp
    90da:	c3                   	retq   

00000000000090db <safe_lshift_func_uint64_t_u_s>:
    90db:	f3 0f 1e fa          	endbr64 
    90df:	55                   	push   %rbp
    90e0:	48 89 e5             	mov    %rsp,%rbp
    90e3:	48 89 7d f8          	mov    %rdi,-0x8(%rbp)
    90e7:	89 75 f4             	mov    %esi,-0xc(%rbp)
    90ea:	83 7d f4 00          	cmpl   $0x0,-0xc(%rbp)
    90ee:	78 2f                	js     911f <safe_lshift_func_uint64_t_u_s+0x44>
    90f0:	83 7d f4 1f          	cmpl   $0x1f,-0xc(%rbp)
    90f4:	7f 29                	jg     911f <safe_lshift_func_uint64_t_u_s+0x44>
    90f6:	8b 45 f4             	mov    -0xc(%rbp),%eax
    90f9:	48 c7 c2 ff ff ff ff 	mov    $0xffffffffffffffff,%rdx
    9100:	89 c1                	mov    %eax,%ecx
    9102:	48 d3 ea             	shr    %cl,%rdx
    9105:	48 89 d0             	mov    %rdx,%rax
    9108:	48 39 45 f8          	cmp    %rax,-0x8(%rbp)
    910c:	77 11                	ja     911f <safe_lshift_func_uint64_t_u_s+0x44>
    910e:	8b 45 f4             	mov    -0xc(%rbp),%eax
    9111:	48 8b 55 f8          	mov    -0x8(%rbp),%rdx
    9115:	89 c1                	mov    %eax,%ecx
    9117:	48 d3 e2             	shl    %cl,%rdx
    911a:	48 89 d0             	mov    %rdx,%rax
    911d:	eb 04                	jmp    9123 <safe_lshift_func_uint64_t_u_s+0x48>
    911f:	48 8b 45 f8          	mov    -0x8(%rbp),%rax
    9123:	5d                   	pop    %rbp
    9124:	c3                   	retq   

0000000000009125 <safe_lshift_func_uint64_t_u_u>:
    9125:	f3 0f 1e fa          	endbr64 
    9129:	55                   	push   %rbp
    912a:	48 89 e5             	mov    %rsp,%rbp
    912d:	48 89 7d f8          	mov    %rdi,-0x8(%rbp)
    9131:	89 75 f4             	mov    %esi,-0xc(%rbp)
    9134:	83 7d f4 1f          	cmpl   $0x1f,-0xc(%rbp)
    9138:	77 29                	ja     9163 <safe_lshift_func_uint64_t_u_u+0x3e>
    913a:	8b 45 f4             	mov    -0xc(%rbp),%eax
    913d:	48 c7 c2 ff ff ff ff 	mov    $0xffffffffffffffff,%rdx
    9144:	89 c1                	mov    %eax,%ecx
    9146:	48 d3 ea             	shr    %cl,%rdx
    9149:	48 89 d0             	mov    %rdx,%rax
    914c:	48 39 45 f8          	cmp    %rax,-0x8(%rbp)
    9150:	77 11                	ja     9163 <safe_lshift_func_uint64_t_u_u+0x3e>
    9152:	8b 45 f4             	mov    -0xc(%rbp),%eax
    9155:	48 8b 55 f8          	mov    -0x8(%rbp),%rdx
    9159:	89 c1                	mov    %eax,%ecx
    915b:	48 d3 e2             	shl    %cl,%rdx
    915e:	48 89 d0             	mov    %rdx,%rax
    9161:	eb 04                	jmp    9167 <safe_lshift_func_uint64_t_u_u+0x42>
    9163:	48 8b 45 f8          	mov    -0x8(%rbp),%rax
    9167:	5d                   	pop    %rbp
    9168:	c3                   	retq   

0000000000009169 <safe_rshift_func_uint64_t_u_s>:
    9169:	f3 0f 1e fa          	endbr64 
    916d:	55                   	push   %rbp
    916e:	48 89 e5             	mov    %rsp,%rbp
    9171:	48 89 7d f8          	mov    %rdi,-0x8(%rbp)
    9175:	89 75 f4             	mov    %esi,-0xc(%rbp)
    9178:	83 7d f4 00          	cmpl   $0x0,-0xc(%rbp)
    917c:	78 17                	js     9195 <safe_rshift_func_uint64_t_u_s+0x2c>
    917e:	83 7d f4 1f          	cmpl   $0x1f,-0xc(%rbp)
    9182:	7f 11                	jg     9195 <safe_rshift_func_uint64_t_u_s+0x2c>
    9184:	8b 45 f4             	mov    -0xc(%rbp),%eax
    9187:	48 8b 55 f8          	mov    -0x8(%rbp),%rdx
    918b:	89 c1                	mov    %eax,%ecx
    918d:	48 d3 ea             	shr    %cl,%rdx
    9190:	48 89 d0             	mov    %rdx,%rax
    9193:	eb 04                	jmp    9199 <safe_rshift_func_uint64_t_u_s+0x30>
    9195:	48 8b 45 f8          	mov    -0x8(%rbp),%rax
    9199:	5d                   	pop    %rbp
    919a:	c3                   	retq   

000000000000919b <safe_rshift_func_uint64_t_u_u>:
    919b:	f3 0f 1e fa          	endbr64 
    919f:	55                   	push   %rbp
    91a0:	48 89 e5             	mov    %rsp,%rbp
    91a3:	48 89 7d f8          	mov    %rdi,-0x8(%rbp)
    91a7:	89 75 f4             	mov    %esi,-0xc(%rbp)
    91aa:	83 7d f4 1f          	cmpl   $0x1f,-0xc(%rbp)
    91ae:	77 11                	ja     91c1 <safe_rshift_func_uint64_t_u_u+0x26>
    91b0:	8b 45 f4             	mov    -0xc(%rbp),%eax
    91b3:	48 8b 55 f8          	mov    -0x8(%rbp),%rdx
    91b7:	89 c1                	mov    %eax,%ecx
    91b9:	48 d3 ea             	shr    %cl,%rdx
    91bc:	48 89 d0             	mov    %rdx,%rax
    91bf:	eb 04                	jmp    91c5 <safe_rshift_func_uint64_t_u_u+0x2a>
    91c1:	48 8b 45 f8          	mov    -0x8(%rbp),%rax
    91c5:	5d                   	pop    %rbp
    91c6:	c3                   	retq   

00000000000091c7 <safe_add_func_float_f_f>:
    91c7:	f3 0f 1e fa          	endbr64 
    91cb:	55                   	push   %rbp
    91cc:	48 89 e5             	mov    %rsp,%rbp
    91cf:	f3 0f 11 45 fc       	movss  %xmm0,-0x4(%rbp)
    91d4:	f3 0f 11 4d f8       	movss  %xmm1,-0x8(%rbp)
    91d9:	f3 0f 10 4d fc       	movss  -0x4(%rbp),%xmm1
    91de:	f3 0f 10 05 46 b4 00 	movss  0xb446(%rip),%xmm0        # 1462c <g_2031+0x1584>
    91e5:	00 
    91e6:	f3 0f 59 c8          	mulss  %xmm0,%xmm1
    91ea:	f3 0f 10 55 f8       	movss  -0x8(%rbp),%xmm2
    91ef:	f3 0f 10 05 35 b4 00 	movss  0xb435(%rip),%xmm0        # 1462c <g_2031+0x1584>
    91f6:	00 
    91f7:	f3 0f 59 c2          	mulss  %xmm2,%xmm0
    91fb:	f3 0f 58 c1          	addss  %xmm1,%xmm0
    91ff:	f3 0f 10 0d 29 b4 00 	movss  0xb429(%rip),%xmm1        # 14630 <g_2031+0x1588>
    9206:	00 
    9207:	0f 54 c1             	andps  %xmm1,%xmm0
    920a:	0f 2f 05 2f b4 00 00 	comiss 0xb42f(%rip),%xmm0        # 14640 <g_2031+0x1598>
    9211:	76 07                	jbe    921a <safe_add_func_float_f_f+0x53>
    9213:	f3 0f 10 45 fc       	movss  -0x4(%rbp),%xmm0
    9218:	eb 0a                	jmp    9224 <safe_add_func_float_f_f+0x5d>
    921a:	f3 0f 10 45 fc       	movss  -0x4(%rbp),%xmm0
    921f:	f3 0f 58 45 f8       	addss  -0x8(%rbp),%xmm0
    9224:	5d                   	pop    %rbp
    9225:	c3                   	retq   

0000000000009226 <safe_sub_func_float_f_f>:
    9226:	f3 0f 1e fa          	endbr64 
    922a:	55                   	push   %rbp
    922b:	48 89 e5             	mov    %rsp,%rbp
    922e:	f3 0f 11 45 fc       	movss  %xmm0,-0x4(%rbp)
    9233:	f3 0f 11 4d f8       	movss  %xmm1,-0x8(%rbp)
    9238:	f3 0f 10 4d fc       	movss  -0x4(%rbp),%xmm1
    923d:	f3 0f 10 05 e7 b3 00 	movss  0xb3e7(%rip),%xmm0        # 1462c <g_2031+0x1584>
    9244:	00 
    9245:	f3 0f 59 c1          	mulss  %xmm1,%xmm0
    9249:	f3 0f 10 55 f8       	movss  -0x8(%rbp),%xmm2
    924e:	f3 0f 10 0d d6 b3 00 	movss  0xb3d6(%rip),%xmm1        # 1462c <g_2031+0x1584>
    9255:	00 
    9256:	f3 0f 59 ca          	mulss  %xmm2,%xmm1
    925a:	f3 0f 5c c1          	subss  %xmm1,%xmm0
    925e:	f3 0f 10 0d ca b3 00 	movss  0xb3ca(%rip),%xmm1        # 14630 <g_2031+0x1588>
    9265:	00 
    9266:	0f 54 c1             	andps  %xmm1,%xmm0
    9269:	0f 2f 05 d0 b3 00 00 	comiss 0xb3d0(%rip),%xmm0        # 14640 <g_2031+0x1598>
    9270:	76 07                	jbe    9279 <safe_sub_func_float_f_f+0x53>
    9272:	f3 0f 10 45 fc       	movss  -0x4(%rbp),%xmm0
    9277:	eb 0a                	jmp    9283 <safe_sub_func_float_f_f+0x5d>
    9279:	f3 0f 10 45 fc       	movss  -0x4(%rbp),%xmm0
    927e:	f3 0f 5c 45 f8       	subss  -0x8(%rbp),%xmm0
    9283:	5d                   	pop    %rbp
    9284:	c3                   	retq   

0000000000009285 <safe_mul_func_float_f_f>:
    9285:	f3 0f 1e fa          	endbr64 
    9289:	55                   	push   %rbp
    928a:	48 89 e5             	mov    %rsp,%rbp
    928d:	f3 0f 11 45 fc       	movss  %xmm0,-0x4(%rbp)
    9292:	f3 0f 11 4d f8       	movss  %xmm1,-0x8(%rbp)
    9297:	f3 0f 10 4d fc       	movss  -0x4(%rbp),%xmm1
    929c:	f3 0f 10 05 a0 b3 00 	movss  0xb3a0(%rip),%xmm0        # 14644 <g_2031+0x159c>
    92a3:	00 
    92a4:	f3 0f 59 c8          	mulss  %xmm0,%xmm1
    92a8:	f3 0f 10 55 f8       	movss  -0x8(%rbp),%xmm2
    92ad:	f3 0f 10 05 93 b3 00 	movss  0xb393(%rip),%xmm0        # 14648 <g_2031+0x15a0>
    92b4:	00 
    92b5:	f3 0f 59 c2          	mulss  %xmm2,%xmm0
    92b9:	f3 0f 59 c1          	mulss  %xmm1,%xmm0
    92bd:	f3 0f 10 0d 6b b3 00 	movss  0xb36b(%rip),%xmm1        # 14630 <g_2031+0x1588>
    92c4:	00 
    92c5:	0f 54 c1             	andps  %xmm1,%xmm0
    92c8:	0f 2f 05 7d b3 00 00 	comiss 0xb37d(%rip),%xmm0        # 1464c <g_2031+0x15a4>
    92cf:	76 07                	jbe    92d8 <safe_mul_func_float_f_f+0x53>
    92d1:	f3 0f 10 45 fc       	movss  -0x4(%rbp),%xmm0
    92d6:	eb 0a                	jmp    92e2 <safe_mul_func_float_f_f+0x5d>
    92d8:	f3 0f 10 45 fc       	movss  -0x4(%rbp),%xmm0
    92dd:	f3 0f 59 45 f8       	mulss  -0x8(%rbp),%xmm0
    92e2:	5d                   	pop    %rbp
    92e3:	c3                   	retq   

00000000000092e4 <safe_div_func_float_f_f>:
    92e4:	f3 0f 1e fa          	endbr64 
    92e8:	55                   	push   %rbp
    92e9:	48 89 e5             	mov    %rsp,%rbp
    92ec:	f3 0f 11 45 fc       	movss  %xmm0,-0x4(%rbp)
    92f1:	f3 0f 11 4d f8       	movss  %xmm1,-0x8(%rbp)
    92f6:	f3 0f 10 45 f8       	movss  -0x8(%rbp),%xmm0
    92fb:	f3 0f 10 0d 2d b3 00 	movss  0xb32d(%rip),%xmm1        # 14630 <g_2031+0x1588>
    9302:	00 
    9303:	0f 54 c8             	andps  %xmm0,%xmm1
    9306:	f3 0f 10 05 42 b3 00 	movss  0xb342(%rip),%xmm0        # 14650 <g_2031+0x15a8>
    930d:	00 
    930e:	0f 2f c1             	comiss %xmm1,%xmm0
    9311:	0f 97 c0             	seta   %al
    9314:	83 f0 01             	xor    $0x1,%eax
    9317:	84 c0                	test   %al,%al
    9319:	75 56                	jne    9371 <safe_div_func_float_f_f+0x8d>
    931b:	66 0f ef c0          	pxor   %xmm0,%xmm0
    931f:	0f 2e 45 f8          	ucomiss -0x8(%rbp),%xmm0
    9323:	7a 0a                	jp     932f <safe_div_func_float_f_f+0x4b>
    9325:	66 0f ef c0          	pxor   %xmm0,%xmm0
    9329:	0f 2e 45 f8          	ucomiss -0x8(%rbp),%xmm0
    932d:	74 4e                	je     937d <safe_div_func_float_f_f+0x99>
    932f:	f3 0f 10 4d fc       	movss  -0x4(%rbp),%xmm1
    9334:	f3 0f 10 05 18 b3 00 	movss  0xb318(%rip),%xmm0        # 14654 <g_2031+0x15ac>
    933b:	00 
    933c:	f3 0f 59 c1          	mulss  %xmm1,%xmm0
    9340:	f3 0f 10 55 f8       	movss  -0x8(%rbp),%xmm2
    9345:	f3 0f 10 0d 0b b3 00 	movss  0xb30b(%rip),%xmm1        # 14658 <g_2031+0x15b0>
    934c:	00 
    934d:	f3 0f 59 ca          	mulss  %xmm2,%xmm1
    9351:	f3 0f 5e c1          	divss  %xmm1,%xmm0
    9355:	f3 0f 10 0d d3 b2 00 	movss  0xb2d3(%rip),%xmm1        # 14630 <g_2031+0x1588>
    935c:	00 
    935d:	0f 54 c1             	andps  %xmm1,%xmm0
    9360:	0f 2f 05 f5 b2 00 00 	comiss 0xb2f5(%rip),%xmm0        # 1465c <g_2031+0x15b4>
    9367:	0f 97 c0             	seta   %al
    936a:	83 f0 01             	xor    $0x1,%eax
    936d:	84 c0                	test   %al,%al
    936f:	74 0c                	je     937d <safe_div_func_float_f_f+0x99>
    9371:	f3 0f 10 45 fc       	movss  -0x4(%rbp),%xmm0
    9376:	f3 0f 5e 45 f8       	divss  -0x8(%rbp),%xmm0
    937b:	eb 05                	jmp    9382 <safe_div_func_float_f_f+0x9e>
    937d:	f3 0f 10 45 fc       	movss  -0x4(%rbp),%xmm0
    9382:	5d                   	pop    %rbp
    9383:	c3                   	retq   

0000000000009384 <safe_add_func_double_f_f>:
    9384:	f3 0f 1e fa          	endbr64 
    9388:	55                   	push   %rbp
    9389:	48 89 e5             	mov    %rsp,%rbp
    938c:	f2 0f 11 45 f8       	movsd  %xmm0,-0x8(%rbp)
    9391:	f2 0f 11 4d f0       	movsd  %xmm1,-0x10(%rbp)
    9396:	f2 0f 10 4d f8       	movsd  -0x8(%rbp),%xmm1
    939b:	f2 0f 10 05 bd b2 00 	movsd  0xb2bd(%rip),%xmm0        # 14660 <g_2031+0x15b8>
    93a2:	00 
    93a3:	f2 0f 59 c8          	mulsd  %xmm0,%xmm1
    93a7:	f2 0f 10 55 f0       	movsd  -0x10(%rbp),%xmm2
    93ac:	f2 0f 10 05 ac b2 00 	movsd  0xb2ac(%rip),%xmm0        # 14660 <g_2031+0x15b8>
    93b3:	00 
    93b4:	f2 0f 59 c2          	mulsd  %xmm2,%xmm0
    93b8:	f2 0f 58 c1          	addsd  %xmm1,%xmm0
    93bc:	f3 0f 7e 0d ac b2 00 	movq   0xb2ac(%rip),%xmm1        # 14670 <g_2031+0x15c8>
    93c3:	00 
    93c4:	66 0f 54 c1          	andpd  %xmm1,%xmm0
    93c8:	66 0f 2f 05 b0 b2 00 	comisd 0xb2b0(%rip),%xmm0        # 14680 <g_2031+0x15d8>
    93cf:	00 
    93d0:	76 07                	jbe    93d9 <safe_add_func_double_f_f+0x55>
    93d2:	f2 0f 10 45 f8       	movsd  -0x8(%rbp),%xmm0
    93d7:	eb 0a                	jmp    93e3 <safe_add_func_double_f_f+0x5f>
    93d9:	f2 0f 10 45 f8       	movsd  -0x8(%rbp),%xmm0
    93de:	f2 0f 58 45 f0       	addsd  -0x10(%rbp),%xmm0
    93e3:	5d                   	pop    %rbp
    93e4:	c3                   	retq   

00000000000093e5 <safe_sub_func_double_f_f>:
    93e5:	f3 0f 1e fa          	endbr64 
    93e9:	55                   	push   %rbp
    93ea:	48 89 e5             	mov    %rsp,%rbp
    93ed:	f2 0f 11 45 f8       	movsd  %xmm0,-0x8(%rbp)
    93f2:	f2 0f 11 4d f0       	movsd  %xmm1,-0x10(%rbp)
    93f7:	f2 0f 10 4d f8       	movsd  -0x8(%rbp),%xmm1
    93fc:	f2 0f 10 05 5c b2 00 	movsd  0xb25c(%rip),%xmm0        # 14660 <g_2031+0x15b8>
    9403:	00 
    9404:	f2 0f 59 c1          	mulsd  %xmm1,%xmm0
    9408:	f2 0f 10 55 f0       	movsd  -0x10(%rbp),%xmm2
    940d:	f2 0f 10 0d 4b b2 00 	movsd  0xb24b(%rip),%xmm1        # 14660 <g_2031+0x15b8>
    9414:	00 
    9415:	f2 0f 59 ca          	mulsd  %xmm2,%xmm1
    9419:	f2 0f 5c c1          	subsd  %xmm1,%xmm0
    941d:	f3 0f 7e 0d 4b b2 00 	movq   0xb24b(%rip),%xmm1        # 14670 <g_2031+0x15c8>
    9424:	00 
    9425:	66 0f 54 c1          	andpd  %xmm1,%xmm0
    9429:	66 0f 2f 05 4f b2 00 	comisd 0xb24f(%rip),%xmm0        # 14680 <g_2031+0x15d8>
    9430:	00 
    9431:	76 07                	jbe    943a <safe_sub_func_double_f_f+0x55>
    9433:	f2 0f 10 45 f8       	movsd  -0x8(%rbp),%xmm0
    9438:	eb 0a                	jmp    9444 <safe_sub_func_double_f_f+0x5f>
    943a:	f2 0f 10 45 f8       	movsd  -0x8(%rbp),%xmm0
    943f:	f2 0f 5c 45 f0       	subsd  -0x10(%rbp),%xmm0
    9444:	5d                   	pop    %rbp
    9445:	c3                   	retq   

0000000000009446 <safe_mul_func_double_f_f>:
    9446:	f3 0f 1e fa          	endbr64 
    944a:	55                   	push   %rbp
    944b:	48 89 e5             	mov    %rsp,%rbp
    944e:	f2 0f 11 45 f8       	movsd  %xmm0,-0x8(%rbp)
    9453:	f2 0f 11 4d f0       	movsd  %xmm1,-0x10(%rbp)
    9458:	f2 0f 10 4d f8       	movsd  -0x8(%rbp),%xmm1
    945d:	f2 0f 10 05 23 b2 00 	movsd  0xb223(%rip),%xmm0        # 14688 <g_2031+0x15e0>
    9464:	00 
    9465:	f2 0f 59 c8          	mulsd  %xmm0,%xmm1
    9469:	f2 0f 10 55 f0       	movsd  -0x10(%rbp),%xmm2
    946e:	f2 0f 10 05 1a b2 00 	movsd  0xb21a(%rip),%xmm0        # 14690 <g_2031+0x15e8>
    9475:	00 
    9476:	f2 0f 59 c2          	mulsd  %xmm2,%xmm0
    947a:	f2 0f 59 c1          	mulsd  %xmm1,%xmm0
    947e:	f3 0f 7e 0d ea b1 00 	movq   0xb1ea(%rip),%xmm1        # 14670 <g_2031+0x15c8>
    9485:	00 
    9486:	66 0f 54 c1          	andpd  %xmm1,%xmm0
    948a:	66 0f 2f 05 06 b2 00 	comisd 0xb206(%rip),%xmm0        # 14698 <g_2031+0x15f0>
    9491:	00 
    9492:	76 07                	jbe    949b <safe_mul_func_double_f_f+0x55>
    9494:	f2 0f 10 45 f8       	movsd  -0x8(%rbp),%xmm0
    9499:	eb 0a                	jmp    94a5 <safe_mul_func_double_f_f+0x5f>
    949b:	f2 0f 10 45 f8       	movsd  -0x8(%rbp),%xmm0
    94a0:	f2 0f 59 45 f0       	mulsd  -0x10(%rbp),%xmm0
    94a5:	5d                   	pop    %rbp
    94a6:	c3                   	retq   

00000000000094a7 <safe_div_func_double_f_f>:
    94a7:	f3 0f 1e fa          	endbr64 
    94ab:	55                   	push   %rbp
    94ac:	48 89 e5             	mov    %rsp,%rbp
    94af:	f2 0f 11 45 f8       	movsd  %xmm0,-0x8(%rbp)
    94b4:	f2 0f 11 4d f0       	movsd  %xmm1,-0x10(%rbp)
    94b9:	f2 0f 10 45 f0       	movsd  -0x10(%rbp),%xmm0
    94be:	f3 0f 7e 0d aa b1 00 	movq   0xb1aa(%rip),%xmm1        # 14670 <g_2031+0x15c8>
    94c5:	00 
    94c6:	66 0f 54 c8          	andpd  %xmm0,%xmm1
    94ca:	f2 0f 10 05 ce b1 00 	movsd  0xb1ce(%rip),%xmm0        # 146a0 <g_2031+0x15f8>
    94d1:	00 
    94d2:	66 0f 2f c1          	comisd %xmm1,%xmm0
    94d6:	0f 97 c0             	seta   %al
    94d9:	83 f0 01             	xor    $0x1,%eax
    94dc:	84 c0                	test   %al,%al
    94de:	75 5a                	jne    953a <safe_div_func_double_f_f+0x93>
    94e0:	66 0f ef c0          	pxor   %xmm0,%xmm0
    94e4:	66 0f 2e 45 f0       	ucomisd -0x10(%rbp),%xmm0
    94e9:	7a 0b                	jp     94f6 <safe_div_func_double_f_f+0x4f>
    94eb:	66 0f ef c0          	pxor   %xmm0,%xmm0
    94ef:	66 0f 2e 45 f0       	ucomisd -0x10(%rbp),%xmm0
    94f4:	74 50                	je     9546 <safe_div_func_double_f_f+0x9f>
    94f6:	f2 0f 10 4d f8       	movsd  -0x8(%rbp),%xmm1
    94fb:	f2 0f 10 05 a5 b1 00 	movsd  0xb1a5(%rip),%xmm0        # 146a8 <g_2031+0x1600>
    9502:	00 
    9503:	f2 0f 59 c1          	mulsd  %xmm1,%xmm0
    9507:	f2 0f 10 55 f0       	movsd  -0x10(%rbp),%xmm2
    950c:	f2 0f 10 0d 9c b1 00 	movsd  0xb19c(%rip),%xmm1        # 146b0 <g_2031+0x1608>
    9513:	00 
    9514:	f2 0f 59 ca          	mulsd  %xmm2,%xmm1
    9518:	f2 0f 5e c1          	divsd  %xmm1,%xmm0
    951c:	f3 0f 7e 0d 4c b1 00 	movq   0xb14c(%rip),%xmm1        # 14670 <g_2031+0x15c8>
    9523:	00 
    9524:	66 0f 54 c1          	andpd  %xmm1,%xmm0
    9528:	66 0f 2f 05 88 b1 00 	comisd 0xb188(%rip),%xmm0        # 146b8 <g_2031+0x1610>
    952f:	00 
    9530:	0f 97 c0             	seta   %al
    9533:	83 f0 01             	xor    $0x1,%eax
    9536:	84 c0                	test   %al,%al
    9538:	74 0c                	je     9546 <safe_div_func_double_f_f+0x9f>
    953a:	f2 0f 10 45 f8       	movsd  -0x8(%rbp),%xmm0
    953f:	f2 0f 5e 45 f0       	divsd  -0x10(%rbp),%xmm0
    9544:	eb 05                	jmp    954b <safe_div_func_double_f_f+0xa4>
    9546:	f2 0f 10 45 f8       	movsd  -0x8(%rbp),%xmm0
    954b:	5d                   	pop    %rbp
    954c:	c3                   	retq   

000000000000954d <safe_convert_func_float_to_int32_t>:
    954d:	f3 0f 1e fa          	endbr64 
    9551:	55                   	push   %rbp
    9552:	48 89 e5             	mov    %rsp,%rbp
    9555:	f3 0f 11 45 fc       	movss  %xmm0,-0x4(%rbp)
    955a:	f3 0f 10 05 5e b1 00 	movss  0xb15e(%rip),%xmm0        # 146c0 <g_2031+0x1618>
    9561:	00 
    9562:	0f 2f 45 fc          	comiss -0x4(%rbp),%xmm0
    9566:	0f 93 c0             	setae  %al
    9569:	83 f0 01             	xor    $0x1,%eax
    956c:	84 c0                	test   %al,%al
    956e:	74 21                	je     9591 <safe_convert_func_float_to_int32_t+0x44>
    9570:	f3 0f 10 45 fc       	movss  -0x4(%rbp),%xmm0
    9575:	0f 2f 05 48 b1 00 00 	comiss 0xb148(%rip),%xmm0        # 146c4 <g_2031+0x161c>
    957c:	0f 93 c0             	setae  %al
    957f:	83 f0 01             	xor    $0x1,%eax
    9582:	84 c0                	test   %al,%al
    9584:	74 0b                	je     9591 <safe_convert_func_float_to_int32_t+0x44>
    9586:	f3 0f 10 45 fc       	movss  -0x4(%rbp),%xmm0
    958b:	f3 0f 2c c0          	cvttss2si %xmm0,%eax
    958f:	eb 05                	jmp    9596 <safe_convert_func_float_to_int32_t+0x49>
    9591:	b8 ff ff ff 7f       	mov    $0x7fffffff,%eax
    9596:	5d                   	pop    %rbp
    9597:	c3                   	retq   

0000000000009598 <crc32_gentab>:
    9598:	f3 0f 1e fa          	endbr64 
    959c:	55                   	push   %rbp
    959d:	48 89 e5             	mov    %rsp,%rbp
    95a0:	c7 45 fc 20 83 b8 ed 	movl   $0xedb88320,-0x4(%rbp)
    95a7:	c7 45 f4 00 00 00 00 	movl   $0x0,-0xc(%rbp)
    95ae:	eb 51                	jmp    9601 <crc32_gentab+0x69>
    95b0:	8b 45 f4             	mov    -0xc(%rbp),%eax
    95b3:	89 45 f0             	mov    %eax,-0x10(%rbp)
    95b6:	c7 45 f8 08 00 00 00 	movl   $0x8,-0x8(%rbp)
    95bd:	eb 1e                	jmp    95dd <crc32_gentab+0x45>
    95bf:	8b 45 f0             	mov    -0x10(%rbp),%eax
    95c2:	83 e0 01             	and    $0x1,%eax
    95c5:	85 c0                	test   %eax,%eax
    95c7:	74 0d                	je     95d6 <crc32_gentab+0x3e>
    95c9:	8b 45 f0             	mov    -0x10(%rbp),%eax
    95cc:	d1 e8                	shr    %eax
    95ce:	33 45 fc             	xor    -0x4(%rbp),%eax
    95d1:	89 45 f0             	mov    %eax,-0x10(%rbp)
    95d4:	eb 03                	jmp    95d9 <crc32_gentab+0x41>
    95d6:	d1 6d f0             	shrl   -0x10(%rbp)
    95d9:	83 6d f8 01          	subl   $0x1,-0x8(%rbp)
    95dd:	83 7d f8 00          	cmpl   $0x0,-0x8(%rbp)
    95e1:	7f dc                	jg     95bf <crc32_gentab+0x27>
    95e3:	8b 45 f4             	mov    -0xc(%rbp),%eax
    95e6:	48 98                	cltq   
    95e8:	48 8d 0c 85 00 00 00 	lea    0x0(,%rax,4),%rcx
    95ef:	00 
    95f0:	48 8d 15 e9 20 01 00 	lea    0x120e9(%rip),%rdx        # 1b6e0 <crc32_tab>
    95f7:	8b 45 f0             	mov    -0x10(%rbp),%eax
    95fa:	89 04 11             	mov    %eax,(%rcx,%rdx,1)
    95fd:	83 45 f4 01          	addl   $0x1,-0xc(%rbp)
    9601:	81 7d f4 ff 00 00 00 	cmpl   $0xff,-0xc(%rbp)
    9608:	7e a6                	jle    95b0 <crc32_gentab+0x18>
    960a:	90                   	nop
    960b:	90                   	nop
    960c:	5d                   	pop    %rbp
    960d:	c3                   	retq   

000000000000960e <crc32_byte>:
    960e:	f3 0f 1e fa          	endbr64 
    9612:	55                   	push   %rbp
    9613:	48 89 e5             	mov    %rsp,%rbp
    9616:	89 f8                	mov    %edi,%eax
    9618:	88 45 fc             	mov    %al,-0x4(%rbp)
    961b:	8b 05 ff d9 00 00    	mov    0xd9ff(%rip),%eax        # 17020 <crc32_context>
    9621:	c1 e8 08             	shr    $0x8,%eax
    9624:	89 c1                	mov    %eax,%ecx
    9626:	0f b6 55 fc          	movzbl -0x4(%rbp),%edx
    962a:	8b 05 f0 d9 00 00    	mov    0xd9f0(%rip),%eax        # 17020 <crc32_context>
    9630:	31 d0                	xor    %edx,%eax
    9632:	0f b6 c0             	movzbl %al,%eax
    9635:	89 c0                	mov    %eax,%eax
    9637:	48 8d 14 85 00 00 00 	lea    0x0(,%rax,4),%rdx
    963e:	00 
    963f:	48 8d 05 9a 20 01 00 	lea    0x1209a(%rip),%rax        # 1b6e0 <crc32_tab>
    9646:	8b 04 02             	mov    (%rdx,%rax,1),%eax
    9649:	31 c8                	xor    %ecx,%eax
    964b:	89 05 cf d9 00 00    	mov    %eax,0xd9cf(%rip)        # 17020 <crc32_context>
    9651:	90                   	nop
    9652:	5d                   	pop    %rbp
    9653:	c3                   	retq   

0000000000009654 <crc32_8bytes>:
    9654:	f3 0f 1e fa          	endbr64 
    9658:	55                   	push   %rbp
    9659:	48 89 e5             	mov    %rsp,%rbp
    965c:	48 83 ec 08          	sub    $0x8,%rsp
    9660:	48 89 7d f8          	mov    %rdi,-0x8(%rbp)
    9664:	48 8b 45 f8          	mov    -0x8(%rbp),%rax
    9668:	0f b6 c0             	movzbl %al,%eax
    966b:	89 c7                	mov    %eax,%edi
    966d:	e8 9c ff ff ff       	callq  960e <crc32_byte>
    9672:	48 8b 45 f8          	mov    -0x8(%rbp),%rax
    9676:	48 c1 e8 08          	shr    $0x8,%rax
    967a:	0f b6 c0             	movzbl %al,%eax
    967d:	89 c7                	mov    %eax,%edi
    967f:	e8 8a ff ff ff       	callq  960e <crc32_byte>
    9684:	48 8b 45 f8          	mov    -0x8(%rbp),%rax
    9688:	48 c1 e8 10          	shr    $0x10,%rax
    968c:	0f b6 c0             	movzbl %al,%eax
    968f:	89 c7                	mov    %eax,%edi
    9691:	e8 78 ff ff ff       	callq  960e <crc32_byte>
    9696:	48 8b 45 f8          	mov    -0x8(%rbp),%rax
    969a:	48 c1 e8 18          	shr    $0x18,%rax
    969e:	0f b6 c0             	movzbl %al,%eax
    96a1:	89 c7                	mov    %eax,%edi
    96a3:	e8 66 ff ff ff       	callq  960e <crc32_byte>
    96a8:	48 8b 45 f8          	mov    -0x8(%rbp),%rax
    96ac:	48 c1 e8 20          	shr    $0x20,%rax
    96b0:	0f b6 c0             	movzbl %al,%eax
    96b3:	89 c7                	mov    %eax,%edi
    96b5:	e8 54 ff ff ff       	callq  960e <crc32_byte>
    96ba:	48 8b 45 f8          	mov    -0x8(%rbp),%rax
    96be:	48 c1 e8 28          	shr    $0x28,%rax
    96c2:	0f b6 c0             	movzbl %al,%eax
    96c5:	89 c7                	mov    %eax,%edi
    96c7:	e8 42 ff ff ff       	callq  960e <crc32_byte>
    96cc:	48 8b 45 f8          	mov    -0x8(%rbp),%rax
    96d0:	48 c1 e8 30          	shr    $0x30,%rax
    96d4:	0f b6 c0             	movzbl %al,%eax
    96d7:	89 c7                	mov    %eax,%edi
    96d9:	e8 30 ff ff ff       	callq  960e <crc32_byte>
    96de:	48 8b 45 f8          	mov    -0x8(%rbp),%rax
    96e2:	48 c1 e8 38          	shr    $0x38,%rax
    96e6:	0f b6 c0             	movzbl %al,%eax
    96e9:	89 c7                	mov    %eax,%edi
    96eb:	e8 1e ff ff ff       	callq  960e <crc32_byte>
    96f0:	90                   	nop
    96f1:	c9                   	leaveq 
    96f2:	c3                   	retq   

00000000000096f3 <transparent_crc>:
    96f3:	f3 0f 1e fa          	endbr64 
    96f7:	55                   	push   %rbp
    96f8:	48 89 e5             	mov    %rsp,%rbp
    96fb:	48 83 ec 20          	sub    $0x20,%rsp
    96ff:	48 89 7d f8          	mov    %rdi,-0x8(%rbp)
    9703:	48 89 75 f0          	mov    %rsi,-0x10(%rbp)
    9707:	89 55 ec             	mov    %edx,-0x14(%rbp)
    970a:	48 8b 45 f8          	mov    -0x8(%rbp),%rax
    970e:	48 89 c7             	mov    %rax,%rdi
    9711:	e8 3e ff ff ff       	callq  9654 <crc32_8bytes>
    9716:	83 7d ec 00          	cmpl   $0x0,-0x14(%rbp)
    971a:	74 22                	je     973e <transparent_crc+0x4b>
    971c:	8b 05 fe d8 00 00    	mov    0xd8fe(%rip),%eax        # 17020 <crc32_context>
    9722:	f7 d0                	not    %eax
    9724:	89 c2                	mov    %eax,%edx
    9726:	48 8b 45 f0          	mov    -0x10(%rbp),%rax
    972a:	48 89 c6             	mov    %rax,%rsi
    972d:	48 8d 3d fc 98 00 00 	lea    0x98fc(%rip),%rdi        # 13030 <_IO_stdin_used+0x30>
    9734:	b8 00 00 00 00       	mov    $0x0,%eax
    9739:	e8 42 e9 ff ff       	callq  8080 <printf@plt>
    973e:	90                   	nop
    973f:	c9                   	leaveq 
    9740:	c3                   	retq   

0000000000009741 <transparent_crc_bytes>:
    9741:	f3 0f 1e fa          	endbr64 
    9745:	55                   	push   %rbp
    9746:	48 89 e5             	mov    %rsp,%rbp
    9749:	48 83 ec 30          	sub    $0x30,%rsp
    974d:	48 89 7d e8          	mov    %rdi,-0x18(%rbp)
    9751:	89 75 e4             	mov    %esi,-0x1c(%rbp)
    9754:	48 89 55 d8          	mov    %rdx,-0x28(%rbp)
    9758:	89 4d e0             	mov    %ecx,-0x20(%rbp)
    975b:	c7 45 fc 00 00 00 00 	movl   $0x0,-0x4(%rbp)
    9762:	eb 1e                	jmp    9782 <transparent_crc_bytes+0x41>
    9764:	8b 45 fc             	mov    -0x4(%rbp),%eax
    9767:	48 63 d0             	movslq %eax,%rdx
    976a:	48 8b 45 e8          	mov    -0x18(%rbp),%rax
    976e:	48 01 d0             	add    %rdx,%rax
    9771:	0f b6 00             	movzbl (%rax),%eax
    9774:	0f b6 c0             	movzbl %al,%eax
    9777:	89 c7                	mov    %eax,%edi
    9779:	e8 90 fe ff ff       	callq  960e <crc32_byte>
    977e:	83 45 fc 01          	addl   $0x1,-0x4(%rbp)
    9782:	8b 45 fc             	mov    -0x4(%rbp),%eax
    9785:	3b 45 e4             	cmp    -0x1c(%rbp),%eax
    9788:	7c da                	jl     9764 <transparent_crc_bytes+0x23>
    978a:	83 7d e0 00          	cmpl   $0x0,-0x20(%rbp)
    978e:	74 22                	je     97b2 <transparent_crc_bytes+0x71>
    9790:	8b 05 8a d8 00 00    	mov    0xd88a(%rip),%eax        # 17020 <crc32_context>
    9796:	f7 d0                	not    %eax
    9798:	89 c2                	mov    %eax,%edx
    979a:	48 8b 45 d8          	mov    -0x28(%rbp),%rax
    979e:	48 89 c6             	mov    %rax,%rsi
    97a1:	48 8d 3d 88 98 00 00 	lea    0x9888(%rip),%rdi        # 13030 <_IO_stdin_used+0x30>
    97a8:	b8 00 00 00 00       	mov    $0x0,%eax
    97ad:	e8 ce e8 ff ff       	callq  8080 <printf@plt>
    97b2:	90                   	nop
    97b3:	c9                   	leaveq 
    97b4:	c3                   	retq   

00000000000097b5 <func_1>:
    97b5:	f3 0f 1e fa          	endbr64 
    97b9:	55                   	push   %rbp
    97ba:	48 89 e5             	mov    %rsp,%rbp
    97bd:	41 57                	push   %r15
    97bf:	41 56                	push   %r14
    97c1:	41 55                	push   %r13
    97c3:	41 54                	push   %r12
    97c5:	53                   	push   %rbx
    97c6:	48 81 ec d8 03 00 00 	sub    $0x3d8,%rsp
    97cd:	64 48 8b 04 25 28 00 	mov    %fs:0x28,%rax
    97d4:	00 00 
    97d6:	48 89 45 c8          	mov    %rax,-0x38(%rbp)
    97da:	31 c0                	xor    %eax,%eax
    97dc:	c7 85 50 fc ff ff 20 	movl   $0xffaf0720,-0x3b0(%rbp)
    97e3:	07 af ff 
    97e6:	48 8d 05 3b d8 00 00 	lea    0xd83b(%rip),%rax        # 17028 <g_6>
    97ed:	48 89 85 60 fc ff ff 	mov    %rax,-0x3a0(%rbp)
    97f4:	48 8d 05 2d d8 00 00 	lea    0xd82d(%rip),%rax        # 17028 <g_6>
    97fb:	48 89 85 d0 fc ff ff 	mov    %rax,-0x330(%rbp)
    9802:	48 8d 05 1f d8 00 00 	lea    0xd81f(%rip),%rax        # 17028 <g_6>
    9809:	48 89 85 d8 fc ff ff 	mov    %rax,-0x328(%rbp)
    9810:	48 8d 05 11 d8 00 00 	lea    0xd811(%rip),%rax        # 17028 <g_6>
    9817:	48 89 85 e0 fc ff ff 	mov    %rax,-0x320(%rbp)
    981e:	48 8d 05 03 d8 00 00 	lea    0xd803(%rip),%rax        # 17028 <g_6>
    9825:	48 89 85 e8 fc ff ff 	mov    %rax,-0x318(%rbp)
    982c:	48 8d 05 f5 d7 00 00 	lea    0xd7f5(%rip),%rax        # 17028 <g_6>
    9833:	48 89 85 f0 fc ff ff 	mov    %rax,-0x310(%rbp)
    983a:	48 8d 05 e7 d7 00 00 	lea    0xd7e7(%rip),%rax        # 17028 <g_6>
    9841:	48 89 85 f8 fc ff ff 	mov    %rax,-0x308(%rbp)
    9848:	48 8d 05 d9 d7 00 00 	lea    0xd7d9(%rip),%rax        # 17028 <g_6>
    984f:	48 89 85 00 fd ff ff 	mov    %rax,-0x300(%rbp)
    9856:	48 8d 05 cb d7 00 00 	lea    0xd7cb(%rip),%rax        # 17028 <g_6>
    985d:	48 89 85 08 fd ff ff 	mov    %rax,-0x2f8(%rbp)
    9864:	48 8d 05 b9 d7 00 00 	lea    0xd7b9(%rip),%rax        # 17024 <g_2>
    986b:	48 89 85 10 fd ff ff 	mov    %rax,-0x2f0(%rbp)
    9872:	48 8d 05 af d7 00 00 	lea    0xd7af(%rip),%rax        # 17028 <g_6>
    9879:	48 89 85 18 fd ff ff 	mov    %rax,-0x2e8(%rbp)
    9880:	48 8d 05 9d d7 00 00 	lea    0xd79d(%rip),%rax        # 17024 <g_2>
    9887:	48 89 85 20 fd ff ff 	mov    %rax,-0x2e0(%rbp)
    988e:	48 8d 05 8f d7 00 00 	lea    0xd78f(%rip),%rax        # 17024 <g_2>
    9895:	48 89 85 28 fd ff ff 	mov    %rax,-0x2d8(%rbp)
    989c:	48 8d 05 85 d7 00 00 	lea    0xd785(%rip),%rax        # 17028 <g_6>
    98a3:	48 89 85 30 fd ff ff 	mov    %rax,-0x2d0(%rbp)
    98aa:	48 8d 05 73 d7 00 00 	lea    0xd773(%rip),%rax        # 17024 <g_2>
    98b1:	48 89 85 38 fd ff ff 	mov    %rax,-0x2c8(%rbp)
    98b8:	48 8d 05 65 d7 00 00 	lea    0xd765(%rip),%rax        # 17024 <g_2>
    98bf:	48 89 85 40 fd ff ff 	mov    %rax,-0x2c0(%rbp)
    98c6:	48 8d 05 5b d7 00 00 	lea    0xd75b(%rip),%rax        # 17028 <g_6>
    98cd:	48 89 85 48 fd ff ff 	mov    %rax,-0x2b8(%rbp)
    98d4:	48 8d 05 4d d7 00 00 	lea    0xd74d(%rip),%rax        # 17028 <g_6>
    98db:	48 89 85 50 fd ff ff 	mov    %rax,-0x2b0(%rbp)
    98e2:	48 8d 05 3b d7 00 00 	lea    0xd73b(%rip),%rax        # 17024 <g_2>
    98e9:	48 89 85 58 fd ff ff 	mov    %rax,-0x2a8(%rbp)
    98f0:	48 8d 05 2d d7 00 00 	lea    0xd72d(%rip),%rax        # 17024 <g_2>
    98f7:	48 89 85 60 fd ff ff 	mov    %rax,-0x2a0(%rbp)
    98fe:	48 8d 05 23 d7 00 00 	lea    0xd723(%rip),%rax        # 17028 <g_6>
    9905:	48 89 85 68 fd ff ff 	mov    %rax,-0x298(%rbp)
    990c:	48 8d 05 11 d7 00 00 	lea    0xd711(%rip),%rax        # 17024 <g_2>
    9913:	48 89 85 70 fd ff ff 	mov    %rax,-0x290(%rbp)
    991a:	48 8d 05 03 d7 00 00 	lea    0xd703(%rip),%rax        # 17024 <g_2>
    9921:	48 89 85 78 fd ff ff 	mov    %rax,-0x288(%rbp)
    9928:	48 8d 05 f9 d6 00 00 	lea    0xd6f9(%rip),%rax        # 17028 <g_6>
    992f:	48 89 85 80 fd ff ff 	mov    %rax,-0x280(%rbp)
    9936:	48 8d 05 e7 d6 00 00 	lea    0xd6e7(%rip),%rax        # 17024 <g_2>
    993d:	48 89 85 88 fd ff ff 	mov    %rax,-0x278(%rbp)
    9944:	c7 85 4c fc ff ff f9 	movl   $0xfffffff9,-0x3b4(%rbp)
    994b:	ff ff ff 
    994e:	48 8d 85 d0 fc ff ff 	lea    -0x330(%rbp),%rax
    9955:	48 83 c0 10          	add    $0x10,%rax
    9959:	48 89 85 68 fc ff ff 	mov    %rax,-0x398(%rbp)
    9960:	48 8d 85 90 fd ff ff 	lea    -0x270(%rbp),%rax
    9967:	48 8d 15 d2 ed 00 00 	lea    0xedd2(%rip),%rdx        # 18740 <g_2160+0x1a>
    996e:	b9 46 00 00 00       	mov    $0x46,%ecx
    9973:	48 89 c7             	mov    %rax,%rdi
    9976:	48 89 d6             	mov    %rdx,%rsi
    9979:	f3 48 a5             	rep movsq %ds:(%rsi),%es:(%rdi)
    997c:	48 8d 05 c5 d8 00 00 	lea    0xd8c5(%rip),%rax        # 17248 <g_191>
    9983:	48 89 85 70 fc ff ff 	mov    %rax,-0x390(%rbp)
    998a:	48 8d 05 d3 de 00 00 	lea    0xded3(%rip),%rax        # 17864 <g_526+0x564>
    9991:	48 89 85 78 fc ff ff 	mov    %rax,-0x388(%rbp)
    9998:	48 8d 05 15 ea 00 00 	lea    0xea15(%rip),%rax        # 183b4 <g_1318+0x14>
    999f:	48 89 85 80 fc ff ff 	mov    %rax,-0x380(%rbp)
    99a6:	48 8d 05 93 1c 01 00 	lea    0x11c93(%rip),%rax        # 1b640 <g_2154+0xc0>
    99ad:	48 89 85 58 fc ff ff 	mov    %rax,-0x3a8(%rbp)
    99b4:	c6 85 4b fc ff ff 01 	movb   $0x1,-0x3b5(%rbp)
    99bb:	48 c7 85 88 fc ff ff 	movq   $0x0,-0x378(%rbp)
    99c2:	00 00 00 00 
    99c6:	c7 85 54 fc ff ff 02 	movl   $0x2,-0x3ac(%rbp)
    99cd:	00 00 00 
    99d0:	c7 05 4a d6 00 00 08 	movl   $0x8,0xd64a(%rip)        # 17024 <g_2>
    99d7:	00 00 00 
    99da:	e9 8f 00 00 00       	jmpq   9a6e <func_1+0x2b9>
    99df:	48 8d 05 3e d6 00 00 	lea    0xd63e(%rip),%rax        # 17024 <g_2>
    99e6:	48 89 85 90 fc ff ff 	mov    %rax,-0x370(%rbp)
    99ed:	48 8d 05 34 d6 00 00 	lea    0xd634(%rip),%rax        # 17028 <g_6>
    99f4:	48 89 85 98 fc ff ff 	mov    %rax,-0x368(%rbp)
    99fb:	48 8d 05 26 d6 00 00 	lea    0xd626(%rip),%rax        # 17028 <g_6>
    9a02:	48 89 85 a0 fc ff ff 	mov    %rax,-0x360(%rbp)
    9a09:	48 8d 05 14 d6 00 00 	lea    0xd614(%rip),%rax        # 17024 <g_2>
    9a10:	48 89 85 a8 fc ff ff 	mov    %rax,-0x358(%rbp)
    9a17:	48 8d 05 0a d6 00 00 	lea    0xd60a(%rip),%rax        # 17028 <g_6>
    9a1e:	48 89 85 b0 fc ff ff 	mov    %rax,-0x350(%rbp)
    9a25:	48 8d 05 fc d5 00 00 	lea    0xd5fc(%rip),%rax        # 17028 <g_6>
    9a2c:	48 89 85 b8 fc ff ff 	mov    %rax,-0x348(%rbp)
    9a33:	48 8d 05 ea d5 00 00 	lea    0xd5ea(%rip),%rax        # 17024 <g_2>
    9a3a:	48 89 85 c0 fc ff ff 	mov    %rax,-0x340(%rbp)
    9a41:	83 ad 50 fc ff ff 01 	subl   $0x1,-0x3b0(%rbp)
    9a48:	83 bd 50 fc ff ff 00 	cmpl   $0x0,-0x3b0(%rbp)
    9a4f:	74 05                	je     9a56 <func_1+0x2a1>
    9a51:	e9 7a ff ff ff       	jmpq   99d0 <func_1+0x21b>
    9a56:	8b 05 c8 d5 00 00    	mov    0xd5c8(%rip),%eax        # 17024 <g_2>
    9a5c:	be 06 00 00 00       	mov    $0x6,%esi
    9a61:	89 c7                	mov    %eax,%edi
    9a63:	e8 68 f4 ff ff       	callq  8ed0 <safe_sub_func_uint32_t_u_u>
    9a68:	89 05 b6 d5 00 00    	mov    %eax,0xd5b6(%rip)        # 17024 <g_2>
    9a6e:	8b 05 b0 d5 00 00    	mov    0xd5b0(%rip),%eax        # 17024 <g_2>
    9a74:	85 c0                	test   %eax,%eax
    9a76:	0f 8e 63 ff ff ff    	jle    99df <func_1+0x22a>
    9a7c:	0f b7 05 a9 d5 00 00 	movzwl 0xd5a9(%rip),%eax        # 1702c <g_13>
    9a83:	83 c0 01             	add    $0x1,%eax
    9a86:	66 89 05 9f d5 00 00 	mov    %ax,0xd59f(%rip)        # 1702c <g_13>
    9a8d:	48 8b 85 60 fc ff ff 	mov    -0x3a0(%rbp),%rax
    9a94:	8b 00                	mov    (%rax),%eax
    9a96:	44 0f be f8          	movsbl %al,%r15d
    9a9a:	8b 05 18 eb 00 00    	mov    0xeb18(%rip),%eax        # 185b8 <g_1892+0x18>
    9aa0:	98                   	cwtl   
    9aa1:	89 85 3c fc ff ff    	mov    %eax,-0x3c4(%rbp)
    9aa7:	8b 1d 8f e8 00 00    	mov    0xe88f(%rip),%ebx        # 1833c <g_1122+0x1c>
    9aad:	89 9d 38 fc ff ff    	mov    %ebx,-0x3c8(%rbp)
    9ab3:	48 8b 85 78 fc ff ff 	mov    -0x388(%rbp),%rax
    9aba:	8b 00                	mov    (%rax),%eax
    9abc:	89 85 34 fc ff ff    	mov    %eax,-0x3cc(%rbp)
    9ac2:	8b 05 fc e0 00 00    	mov    0xe0fc(%rip),%eax        # 17bc4 <g_771+0x4>
    9ac8:	0f b6 d0             	movzbl %al,%edx
    9acb:	89 95 30 fc ff ff    	mov    %edx,-0x3d0(%rbp)
    9ad1:	48 8b 85 60 fc ff ff 	mov    -0x3a0(%rbp),%rax
    9ad8:	8b 38                	mov    (%rax),%edi
    9ada:	89 bd 2c fc ff ff    	mov    %edi,-0x3d4(%rbp)
    9ae0:	4c 8b 8d 38 ff ff ff 	mov    -0xc8(%rbp),%r9
    9ae7:	4c 89 8d 20 fc ff ff 	mov    %r9,-0x3e0(%rbp)
    9aee:	0f b7 05 6f e1 00 00 	movzwl 0xe16f(%rip),%eax        # 17c64 <g_825+0x24>
    9af5:	c1 e0 07             	shl    $0x7,%eax
    9af8:	66 c1 f8 07          	sar    $0x7,%ax
    9afc:	4c 0f bf d0          	movswq %ax,%r10
    9b00:	4c 89 95 18 fc ff ff 	mov    %r10,-0x3e8(%rbp)
    9b07:	48 8b 85 60 fc ff ff 	mov    -0x3a0(%rbp),%rax
    9b0e:	8b 00                	mov    (%rax),%eax
    9b10:	44 0f be d8          	movsbl %al,%r11d
    9b14:	44 89 9d 28 fc ff ff 	mov    %r11d,-0x3d8(%rbp)
    9b1b:	8b 05 f3 e0 00 00    	mov    0xe0f3(%rip),%eax        # 17c14 <g_823+0x14>
    9b21:	89 85 14 fc ff ff    	mov    %eax,-0x3ec(%rbp)
    9b27:	48 8b 85 60 fc ff ff 	mov    -0x3a0(%rbp),%rax
    9b2e:	44 8b 30             	mov    (%rax),%r14d
    9b31:	44 89 b5 10 fc ff ff 	mov    %r14d,-0x3f0(%rbp)
    9b38:	48 8b 05 29 f9 00 00 	mov    0xf929(%rip),%rax        # 19468 <g_156>
    9b3f:	44 8b 20             	mov    (%rax),%r12d
    9b42:	44 89 a5 0c fc ff ff 	mov    %r12d,-0x3f4(%rbp)
    9b49:	0f b7 05 24 dd 00 00 	movzwl 0xdd24(%rip),%eax        # 17874 <g_526+0x574>
    9b50:	c1 e0 07             	shl    $0x7,%eax
    9b53:	66 c1 f8 07          	sar    $0x7,%ax
    9b57:	44 0f b6 e8          	movzbl %al,%r13d
    9b5b:	44 89 ad 08 fc ff ff 	mov    %r13d,-0x3f8(%rbp)
    9b62:	8b 05 30 e1 00 00    	mov    0xe130(%rip),%eax        # 17c98 <g_827+0x18>
    9b68:	44 0f bf f0          	movswl %ax,%r14d
    9b6c:	0f b7 05 b9 d4 00 00 	movzwl 0xd4b9(%rip),%eax        # 1702c <g_13>
    9b73:	44 0f b7 e8          	movzwl %ax,%r13d
    9b77:	48 8b 85 60 fc ff ff 	mov    -0x3a0(%rbp),%rax
    9b7e:	8b 00                	mov    (%rax),%eax
    9b80:	44 0f bf e0          	movswl %ax,%r12d
    9b84:	0f b7 05 a1 d4 00 00 	movzwl 0xd4a1(%rip),%eax        # 1702c <g_13>
    9b8b:	0f b6 d8             	movzbl %al,%ebx
    9b8e:	8b 05 94 d4 00 00    	mov    0xd494(%rip),%eax        # 17028 <g_6>
    9b94:	0f b6 c0             	movzbl %al,%eax
    9b97:	48 8d 15 86 d4 00 00 	lea    0xd486(%rip),%rdx        # 17024 <g_2>
    9b9e:	89 c6                	mov    %eax,%esi
    9ba0:	48 8d 3d 81 d4 00 00 	lea    0xd481(%rip),%rdi        # 17028 <g_6>
    9ba7:	e8 eb 48 00 00       	callq  e497 <func_66>
    9bac:	48 89 c1             	mov    %rax,%rcx
    9baf:	8b 85 4c fc ff ff    	mov    -0x3b4(%rbp),%eax
    9bb5:	89 da                	mov    %ebx,%edx
    9bb7:	89 c6                	mov    %eax,%esi
    9bb9:	48 89 cf             	mov    %rcx,%rdi
    9bbc:	e8 8b 44 00 00       	callq  e04c <func_62>
    9bc1:	48 89 c2             	mov    %rax,%rdx
    9bc4:	48 8b 85 68 fc ff ff 	mov    -0x398(%rbp),%rax
    9bcb:	48 89 10             	mov    %rdx,(%rax)
    9bce:	48 8b 85 68 fc ff ff 	mov    -0x398(%rbp),%rax
    9bd5:	48 8b 00             	mov    (%rax),%rax
    9bd8:	48 85 c0             	test   %rax,%rax
    9bdb:	0f 94 c0             	sete   %al
    9bde:	0f b6 f0             	movzbl %al,%esi
    9be1:	8b 05 41 d4 00 00    	mov    0xd441(%rip),%eax        # 17028 <g_6>
    9be7:	48 98                	cltq   
    9be9:	45 89 e8             	mov    %r13d,%r8d
    9bec:	44 89 e1             	mov    %r12d,%ecx
    9bef:	48 8d 15 92 d6 00 00 	lea    0xd692(%rip),%rdx        # 17288 <g_341>
    9bf6:	48 89 c7             	mov    %rax,%rdi
    9bf9:	e8 04 21 00 00       	callq  bd02 <func_56>
    9bfe:	48 89 c2             	mov    %rax,%rdx
    9c01:	48 8b 85 60 fc ff ff 	mov    -0x3a0(%rbp),%rax
    9c08:	8b 00                	mov    (%rax),%eax
    9c0a:	98                   	cwtl   
    9c0b:	44 8b 85 08 fc ff ff 	mov    -0x3f8(%rbp),%r8d
    9c12:	44 89 f1             	mov    %r14d,%ecx
    9c15:	48 8d 35 0c d4 00 00 	lea    0xd40c(%rip),%rsi        # 17028 <g_6>
    9c1c:	89 c7                	mov    %eax,%edi
    9c1e:	e8 7f 1e 00 00       	callq  baa2 <func_50>
    9c23:	44 8b 85 14 fc ff ff 	mov    -0x3ec(%rbp),%r8d
    9c2a:	48 8d 0d f7 d3 00 00 	lea    0xd3f7(%rip),%rcx        # 17028 <g_6>
    9c31:	8b 95 10 fc ff ff    	mov    -0x3f0(%rbp),%edx
    9c37:	8b b5 0c fc ff ff    	mov    -0x3f4(%rbp),%esi
    9c3d:	89 c7                	mov    %eax,%edi
    9c3f:	e8 31 1e 00 00       	callq  ba75 <func_44>
    9c44:	0f b6 c0             	movzbl %al,%eax
    9c47:	be 07 00 00 00       	mov    $0x7,%esi
    9c4c:	89 c7                	mov    %eax,%edi
    9c4e:	e8 f9 ef ff ff       	callq  8c4c <safe_lshift_func_uint8_t_u_u>
    9c53:	8b 05 cb d3 00 00    	mov    0xd3cb(%rip),%eax        # 17024 <g_2>
    9c59:	98                   	cwtl   
    9c5a:	be 00 00 00 00       	mov    $0x0,%esi
    9c5f:	89 c7                	mov    %eax,%edi
    9c61:	e8 4d e7 ff ff       	callq  83b3 <safe_add_func_int16_t_s_s>
    9c66:	98                   	cwtl   
    9c67:	4c 8b 85 20 fc ff ff 	mov    -0x3e0(%rbp),%r8
    9c6e:	48 8b 8d 18 fc ff ff 	mov    -0x3e8(%rbp),%rcx
    9c75:	8b 95 28 fc ff ff    	mov    -0x3d8(%rbp),%edx
    9c7b:	48 8d 35 a2 d3 00 00 	lea    0xd3a2(%rip),%rsi        # 17024 <g_2>
    9c82:	89 c7                	mov    %eax,%edi
    9c84:	e8 4b 15 00 00       	callq  b1d4 <func_34>
    9c89:	48 8b 85 68 fc ff ff 	mov    -0x398(%rbp),%rax
    9c90:	48 8b 00             	mov    (%rax),%rax
    9c93:	48 85 c0             	test   %rax,%rax
    9c96:	0f 94 c0             	sete   %al
    9c99:	89 c2                	mov    %eax,%edx
    9c9b:	48 8b 85 70 fc ff ff 	mov    -0x390(%rbp),%rax
    9ca2:	88 10                	mov    %dl,(%rax)
    9ca4:	8b b5 2c fc ff ff    	mov    -0x3d4(%rbp),%esi
    9caa:	bf 01 00 00 00       	mov    $0x1,%edi
    9caf:	e8 18 ea ff ff       	callq  86cc <safe_mod_func_int32_t_s_s>
    9cb4:	98                   	cwtl   
    9cb5:	48 8b 95 78 fc ff ff 	mov    -0x388(%rbp),%rdx
    9cbc:	8b 8d 34 fc ff ff    	mov    -0x3cc(%rbp),%ecx
    9cc2:	8b b5 30 fc ff ff    	mov    -0x3d0(%rbp),%esi
    9cc8:	89 c7                	mov    %eax,%edi
    9cca:	e8 09 14 00 00       	callq  b0d8 <func_26>
    9ccf:	98                   	cwtl   
    9cd0:	8b b5 38 fc ff ff    	mov    -0x3c8(%rbp),%esi
    9cd6:	89 c7                	mov    %eax,%edi
    9cd8:	e8 b5 e7 ff ff       	callq  8492 <safe_lshift_func_int16_t_s_s>
    9cdd:	48 8b 85 80 fc ff ff 	mov    -0x380(%rbp),%rax
    9ce4:	48 89 c6             	mov    %rax,%rsi
    9ce7:	bf 14 00 00 00       	mov    $0x14,%edi
    9cec:	e8 b5 0c 00 00       	callq  a9a6 <func_21>
    9cf1:	0f b7 c0             	movzwl %ax,%eax
    9cf4:	8b b5 3c fc ff ff    	mov    -0x3c4(%rbp),%esi
    9cfa:	89 c7                	mov    %eax,%edi
    9cfc:	e8 39 00 00 00       	callq  9d3a <func_18>
    9d01:	0f be c0             	movsbl %al,%eax
    9d04:	44 89 fe             	mov    %r15d,%esi
    9d07:	89 c7                	mov    %eax,%edi
    9d09:	e8 04 e5 ff ff       	callq  8212 <safe_mul_func_int8_t_s_s>
    9d0e:	8b 85 4c fc ff ff    	mov    -0x3b4(%rbp),%eax
    9d14:	48 8b 5d c8          	mov    -0x38(%rbp),%rbx
    9d18:	64 48 33 1c 25 28 00 	xor    %fs:0x28,%rbx
    9d1f:	00 00 
    9d21:	74 05                	je     9d28 <func_1+0x573>
    9d23:	e8 48 e3 ff ff       	callq  8070 <__stack_chk_fail@plt>
    9d28:	48 81 c4 d8 03 00 00 	add    $0x3d8,%rsp
    9d2f:	5b                   	pop    %rbx
    9d30:	41 5c                	pop    %r12
    9d32:	41 5d                	pop    %r13
    9d34:	41 5e                	pop    %r14
    9d36:	41 5f                	pop    %r15
    9d38:	5d                   	pop    %rbp
    9d39:	c3                   	retq   

0000000000009d3a <func_18>:
    9d3a:	f3 0f 1e fa          	endbr64 
    9d3e:	55                   	push   %rbp
    9d3f:	48 89 e5             	mov    %rsp,%rbp
    9d42:	41 56                	push   %r14
    9d44:	41 55                	push   %r13
    9d46:	41 54                	push   %r12
    9d48:	53                   	push   %rbx
    9d49:	48 81 ec a0 0b 00 00 	sub    $0xba0,%rsp
    9d50:	89 fa                	mov    %edi,%edx
    9d52:	89 f0                	mov    %esi,%eax
    9d54:	66 89 95 4c f4 ff ff 	mov    %dx,-0xbb4(%rbp)
    9d5b:	66 89 85 48 f4 ff ff 	mov    %ax,-0xbb8(%rbp)
    9d62:	64 48 8b 04 25 28 00 	mov    %fs:0x28,%rax
    9d69:	00 00 
    9d6b:	48 89 45 d8          	mov    %rax,-0x28(%rbp)
    9d6f:	31 c0                	xor    %eax,%eax
    9d71:	48 c7 85 b8 f4 ff ff 	movq   $0x0,-0xb48(%rbp)
    9d78:	00 00 00 00 
    9d7c:	48 8d 05 e3 e6 00 00 	lea    0xe6e3(%rip),%rax        # 18466 <g_1503>
    9d83:	48 89 85 98 f4 ff ff 	mov    %rax,-0xb68(%rbp)
    9d8a:	48 8d 05 17 93 00 00 	lea    0x9317(%rip),%rax        # 130a8 <g_2031>
    9d91:	48 89 85 90 f4 ff ff 	mov    %rax,-0xb70(%rbp)
    9d98:	48 8d 05 91 0f 01 00 	lea    0x10f91(%rip),%rax        # 1ad30 <g_1563>
    9d9f:	48 89 85 60 f4 ff ff 	mov    %rax,-0xba0(%rbp)
    9da6:	48 8d 85 60 f4 ff ff 	lea    -0xba0(%rbp),%rax
    9dad:	48 89 85 a0 f4 ff ff 	mov    %rax,-0xb60(%rbp)
    9db4:	48 8d 05 b4 e6 00 00 	lea    0xe6b4(%rip),%rax        # 1846f <g_1518>
    9dbb:	48 89 85 a8 f4 ff ff 	mov    %rax,-0xb58(%rbp)
    9dc2:	c7 85 58 f4 ff ff 2e 	movl   $0x97b3892e,-0xba8(%rbp)
    9dc9:	89 b3 97 
    9dcc:	c7 85 54 f4 ff ff ff 	movl   $0xffffffff,-0xbac(%rbp)
    9dd3:	ff ff ff 
    9dd6:	48 8d 05 f3 d4 00 00 	lea    0xd4f3(%rip),%rax        # 172d0 <g_422>
    9ddd:	48 89 85 68 f4 ff ff 	mov    %rax,-0xb98(%rbp)
    9de4:	48 8d 85 68 f4 ff ff 	lea    -0xb98(%rbp),%rax
    9deb:	48 89 85 10 f5 ff ff 	mov    %rax,-0xaf0(%rbp)
    9df2:	48 8d 85 68 f4 ff ff 	lea    -0xb98(%rbp),%rax
    9df9:	48 89 85 18 f5 ff ff 	mov    %rax,-0xae8(%rbp)
    9e00:	48 8d 85 68 f4 ff ff 	lea    -0xb98(%rbp),%rax
    9e07:	48 89 85 20 f5 ff ff 	mov    %rax,-0xae0(%rbp)
    9e0e:	48 8d 85 68 f4 ff ff 	lea    -0xb98(%rbp),%rax
    9e15:	48 89 85 28 f5 ff ff 	mov    %rax,-0xad8(%rbp)
    9e1c:	48 8d 85 68 f4 ff ff 	lea    -0xb98(%rbp),%rax
    9e23:	48 89 85 30 f5 ff ff 	mov    %rax,-0xad0(%rbp)
    9e2a:	48 c7 85 b0 f4 ff ff 	movq   $0x0,-0xb50(%rbp)
    9e31:	00 00 00 00 
    9e35:	c7 85 5c f4 ff ff 00 	movl   $0x0,-0xba4(%rbp)
    9e3c:	00 00 00 
    9e3f:	eb 1e                	jmp    9e5f <func_18+0x125>
    9e41:	8b 85 5c f4 ff ff    	mov    -0xba4(%rbp),%eax
    9e47:	48 98                	cltq   
    9e49:	48 8d 15 f8 d3 00 00 	lea    0xd3f8(%rip),%rdx        # 17248 <g_191>
    9e50:	48 89 94 c5 d0 f4 ff 	mov    %rdx,-0xb30(%rbp,%rax,8)
    9e57:	ff 
    9e58:	83 85 5c f4 ff ff 01 	addl   $0x1,-0xba4(%rbp)
    9e5f:	83 bd 5c f4 ff ff 03 	cmpl   $0x3,-0xba4(%rbp)
    9e66:	7e d9                	jle    9e41 <func_18+0x107>
    9e68:	c7 85 5c f4 ff ff 00 	movl   $0x0,-0xba4(%rbp)
    9e6f:	00 00 00 
    9e72:	eb 1a                	jmp    9e8e <func_18+0x154>
    9e74:	8b 85 5c f4 ff ff    	mov    -0xba4(%rbp),%eax
    9e7a:	48 98                	cltq   
    9e7c:	c7 84 85 f0 f4 ff ff 	movl   $0xfffffff6,-0xb10(%rbp,%rax,4)
    9e83:	f6 ff ff ff 
    9e87:	83 85 5c f4 ff ff 01 	addl   $0x1,-0xba4(%rbp)
    9e8e:	83 bd 5c f4 ff ff 07 	cmpl   $0x7,-0xba4(%rbp)
    9e95:	7e dd                	jle    9e74 <func_18+0x13a>
    9e97:	c7 85 5c f4 ff ff 00 	movl   $0x0,-0xba4(%rbp)
    9e9e:	00 00 00 
    9ea1:	eb 1e                	jmp    9ec1 <func_18+0x187>
    9ea3:	8b 85 5c f4 ff ff    	mov    -0xba4(%rbp),%eax
    9ea9:	48 98                	cltq   
    9eab:	48 8d 15 42 e5 00 00 	lea    0xe542(%rip),%rdx        # 183f4 <g_1435+0x14>
    9eb2:	48 89 94 c5 c0 f4 ff 	mov    %rdx,-0xb40(%rbp,%rax,8)
    9eb9:	ff 
    9eba:	83 85 5c f4 ff ff 01 	addl   $0x1,-0xba4(%rbp)
    9ec1:	83 bd 5c f4 ff ff 01 	cmpl   $0x1,-0xba4(%rbp)
    9ec8:	7e d9                	jle    9ea3 <func_18+0x169>
    9eca:	48 c7 c6 fd ff ff ff 	mov    $0xfffffffffffffffd,%rsi
    9ed1:	bf 00 00 00 00       	mov    $0x0,%edi
    9ed6:	e8 d9 ea ff ff       	callq  89b4 <safe_mod_func_int64_t_s_s>
    9edb:	88 05 67 d3 00 00    	mov    %al,0xd367(%rip)        # 17248 <g_191>
    9ee1:	0f b7 85 4c f4 ff ff 	movzwl -0xbb4(%rbp),%eax
    9ee8:	0f b6 d8             	movzbl %al,%ebx
    9eeb:	0f b7 85 48 f4 ff ff 	movzwl -0xbb8(%rbp),%eax
    9ef2:	44 0f b6 f0          	movzbl %al,%r14d
    9ef6:	44 0f bf ad 48 f4 ff 	movswl -0xbb8(%rbp),%r13d
    9efd:	ff 
    9efe:	4c 8b a5 c8 f4 ff ff 	mov    -0xb38(%rbp),%r12
    9f05:	8b 85 00 f5 ff ff    	mov    -0xb00(%rbp),%eax
    9f0b:	0f b6 c8             	movzbl %al,%ecx
    9f0e:	48 8b 05 23 fc 00 00 	mov    0xfc23(%rip),%rax        # 19b38 <g_305>
    9f15:	48 8b 00             	mov    (%rax),%rax
    9f18:	48 8d 95 f0 f4 ff ff 	lea    -0xb10(%rbp),%rdx
    9f1f:	48 83 c2 10          	add    $0x10,%rdx
    9f23:	89 ce                	mov    %ecx,%esi
    9f25:	48 89 c7             	mov    %rax,%rdi
    9f28:	e8 6a 45 00 00       	callq  e497 <func_66>
    9f2d:	48 89 85 90 f4 ff ff 	mov    %rax,-0xb70(%rbp)
    9f34:	48 8b 85 98 f4 ff ff 	mov    -0xb68(%rbp),%rax
    9f3b:	0f b7 10             	movzwl (%rax),%edx
    9f3e:	0f b7 85 4c f4 ff ff 	movzwl -0xbb4(%rbp),%eax
    9f45:	21 c2                	and    %eax,%edx
    9f47:	48 8b 85 98 f4 ff ff 	mov    -0xb68(%rbp),%rax
    9f4e:	66 89 10             	mov    %dx,(%rax)
    9f51:	48 8b 85 98 f4 ff ff 	mov    -0xb68(%rbp),%rax
    9f58:	0f b7 00             	movzwl (%rax),%eax
    9f5b:	98                   	cwtl   
    9f5c:	48 8b b5 90 f4 ff ff 	mov    -0xb70(%rbp),%rsi
    9f63:	45 89 f0             	mov    %r14d,%r8d
    9f66:	44 89 e9             	mov    %r13d,%ecx
    9f69:	4c 89 e2             	mov    %r12,%rdx
    9f6c:	89 c7                	mov    %eax,%edi
    9f6e:	e8 2f 1b 00 00       	callq  baa2 <func_50>
    9f73:	48 8d 05 f6 0c 01 00 	lea    0x10cf6(%rip),%rax        # 1ac70 <g_1241>
    9f7a:	48 39 85 a0 f4 ff ff 	cmp    %rax,-0xb60(%rbp)
    9f81:	0f 94 c0             	sete   %al
    9f84:	0f b6 c0             	movzbl %al,%eax
    9f87:	89 de                	mov    %ebx,%esi
    9f89:	89 c7                	mov    %eax,%edi
    9f8b:	e8 03 ec ff ff       	callq  8b93 <safe_mul_func_uint8_t_u_u>
    9f90:	c7 85 f4 f4 ff ff 01 	movl   $0x1,-0xb0c(%rbp)
    9f97:	00 00 00 
    9f9a:	48 8d 05 3d e3 00 00 	lea    0xe33d(%rip),%rax        # 182de <g_891>
    9fa1:	48 89 85 88 f4 ff ff 	mov    %rax,-0xb78(%rbp)
    9fa8:	48 8b 05 81 fb 00 00 	mov    0xfb81(%rip),%rax        # 19b30 <g_302>
    9faf:	48 8b 95 88 f4 ff ff 	mov    -0xb78(%rbp),%rdx
    9fb6:	48 89 10             	mov    %rdx,(%rax)
    9fb9:	44 0f b7 a5 4c f4 ff 	movzwl -0xbb4(%rbp),%r12d
    9fc0:	ff 
    9fc1:	48 8b 85 90 f4 ff ff 	mov    -0xb70(%rbp),%rax
    9fc8:	8b 18                	mov    (%rax),%ebx
    9fca:	be 0a 00 00 00       	mov    $0xa,%esi
    9fcf:	bf 6c b2 ff ff       	mov    $0xffffb26c,%edi
    9fd4:	e8 08 e5 ff ff       	callq  84e1 <safe_lshift_func_int16_t_s_u>
    9fd9:	66 39 85 48 f4 ff ff 	cmp    %ax,-0xbb8(%rbp)
    9fe0:	0f 9e c0             	setle  %al
    9fe3:	0f b6 c0             	movzbl %al,%eax
    9fe6:	39 85 58 f4 ff ff    	cmp    %eax,-0xba8(%rbp)
    9fec:	0f 96 c0             	setbe  %al
    9fef:	0f b6 d0             	movzbl %al,%edx
    9ff2:	0f bf 85 48 f4 ff ff 	movswl -0xbb8(%rbp),%eax
    9ff9:	39 c2                	cmp    %eax,%edx
    9ffb:	0f 94 c0             	sete   %al
    9ffe:	0f b6 c0             	movzbl %al,%eax
    a001:	89 de                	mov    %ebx,%esi
    a003:	89 c7                	mov    %eax,%edi
    a005:	e8 f5 e6 ff ff       	callq  86ff <safe_div_func_int32_t_s_s>
    a00a:	89 c6                	mov    %eax,%esi
    a00c:	bf 00 00 00 00       	mov    $0x0,%edi
    a011:	e8 64 ee ff ff       	callq  8e7a <safe_rshift_func_uint16_t_u_u>
    a016:	be 00 00 00 00       	mov    $0x0,%esi
    a01b:	bf 01 00 00 00       	mov    $0x1,%edi
    a020:	e8 ed e1 ff ff       	callq  8212 <safe_mul_func_int8_t_s_s>
    a025:	3c 09                	cmp    $0x9,%al
    a027:	0f 9f c0             	setg   %al
    a02a:	0f b6 c0             	movzbl %al,%eax
    a02d:	41 39 c4             	cmp    %eax,%r12d
    a030:	0f 9d c0             	setge  %al
    a033:	0f b6 c0             	movzbl %al,%eax
    a036:	be 00 00 00 00       	mov    $0x0,%esi
    a03b:	89 c7                	mov    %eax,%edi
    a03d:	e8 b3 e3 ff ff       	callq  83f5 <safe_mul_func_int16_t_s_s>
    a042:	89 c2                	mov    %eax,%edx
    a044:	0f b7 05 99 e4 00 00 	movzwl 0xe499(%rip),%eax        # 184e4 <g_1570+0x24>
    a04b:	c1 e0 07             	shl    $0x7,%eax
    a04e:	66 c1 f8 07          	sar    $0x7,%ax
    a052:	66 39 c2             	cmp    %ax,%dx
    a055:	7f 11                	jg     a068 <func_18+0x32e>
    a057:	66 83 bd 48 f4 ff ff 	cmpw   $0x0,-0xbb8(%rbp)
    a05e:	00 
    a05f:	74 07                	je     a068 <func_18+0x32e>
    a061:	b8 01 00 00 00       	mov    $0x1,%eax
    a066:	eb 05                	jmp    a06d <func_18+0x333>
    a068:	b8 00 00 00 00       	mov    $0x0,%eax
    a06d:	09 85 54 f4 ff ff    	or     %eax,-0xbac(%rbp)
    a073:	8b 85 54 f4 ff ff    	mov    -0xbac(%rbp),%eax
    a079:	0f b6 d0             	movzbl %al,%edx
    a07c:	48 83 bd a8 f4 ff ff 	cmpq   $0x0,-0xb58(%rbp)
    a083:	00 
    a084:	0f 94 c0             	sete   %al
    a087:	0f b6 c0             	movzbl %al,%eax
    a08a:	89 d6                	mov    %edx,%esi
    a08c:	89 c7                	mov    %eax,%edi
    a08e:	e8 1b eb ff ff       	callq  8bae <safe_mod_func_uint8_t_u_u>
    a093:	0f b6 c0             	movzbl %al,%eax
    a096:	48 be c6 2a f9 6c 23 	movabs $0x54f437236cf92ac6,%rsi
    a09d:	37 f4 54 
    a0a0:	48 89 c7             	mov    %rax,%rdi
    a0a3:	e8 07 f0 ff ff       	callq  90af <safe_div_func_uint64_t_u_u>
    a0a8:	0f b7 95 4c f4 ff ff 	movzwl -0xbb4(%rbp),%edx
    a0af:	48 8b 05 aa 14 01 00 	mov    0x114aa(%rip),%rax        # 1b560 <g_2119>
    a0b6:	8b 08                	mov    (%rax),%ecx
    a0b8:	0f b7 d2             	movzwl %dx,%edx
    a0bb:	21 ca                	and    %ecx,%edx
    a0bd:	89 10                	mov    %edx,(%rax)
    a0bf:	48 8b 85 28 f5 ff ff 	mov    -0xad8(%rbp),%rax
    a0c6:	48 85 c0             	test   %rax,%rax
    a0c9:	0f 95 c0             	setne  %al
    a0cc:	0f b6 c0             	movzbl %al,%eax
    a0cf:	09 85 54 f4 ff ff    	or     %eax,-0xbac(%rbp)
    a0d5:	c7 05 05 e3 00 00 00 	movl   $0x0,0xe305(%rip)        # 183e4 <g_1435+0x4>
    a0dc:	00 00 00 
    a0df:	e9 88 08 00 00       	jmpq   a96c <func_18+0xc32>
    a0e4:	c7 85 40 f5 ff ff 56 	movl   $0xe5cd9f56,-0xac0(%rbp)
    a0eb:	9f cd e5 
    a0ee:	c7 85 44 f5 ff ff 56 	movl   $0xe5cd9f56,-0xabc(%rbp)
    a0f5:	9f cd e5 
    a0f8:	c7 85 48 f5 ff ff 56 	movl   $0xe5cd9f56,-0xab8(%rbp)
    a0ff:	9f cd e5 
    a102:	c7 85 4c f5 ff ff 56 	movl   $0xe5cd9f56,-0xab4(%rbp)
    a109:	9f cd e5 
    a10c:	c7 85 50 f5 ff ff 56 	movl   $0xe5cd9f56,-0xab0(%rbp)
    a113:	9f cd e5 
    a116:	c7 85 54 f5 ff ff 56 	movl   $0xe5cd9f56,-0xaac(%rbp)
    a11d:	9f cd e5 
    a120:	c7 85 58 f5 ff ff 56 	movl   $0xe5cd9f56,-0xaa8(%rbp)
    a127:	9f cd e5 
    a12a:	c7 85 5c f5 ff ff 56 	movl   $0xe5cd9f56,-0xaa4(%rbp)
    a131:	9f cd e5 
    a134:	c7 85 60 f5 ff ff 56 	movl   $0xe5cd9f56,-0xaa0(%rbp)
    a13b:	9f cd e5 
    a13e:	c7 85 64 f5 ff ff 56 	movl   $0xe5cd9f56,-0xa9c(%rbp)
    a145:	9f cd e5 
    a148:	48 8d 85 70 f5 ff ff 	lea    -0xa90(%rbp),%rax
    a14f:	48 8d 15 2a e8 00 00 	lea    0xe82a(%rip),%rdx        # 18980 <g_2160+0x25a>
    a156:	b9 5a 00 00 00       	mov    $0x5a,%ecx
    a15b:	48 89 c7             	mov    %rax,%rdi
    a15e:	48 89 d6             	mov    %rdx,%rsi
    a161:	f3 48 a5             	rep movsq %ds:(%rsi),%es:(%rdi)
    a164:	c7 85 50 f4 ff ff fd 	movl   $0xfffffffd,-0xbb0(%rbp)
    a16b:	ff ff ff 
    a16e:	48 c7 85 70 f4 ff ff 	movq   $0x0,-0xb90(%rbp)
    a175:	00 00 00 00 
    a179:	48 8d 05 f8 13 01 00 	lea    0x113f8(%rip),%rax        # 1b578 <g_2142+0x8>
    a180:	48 89 85 78 f4 ff ff 	mov    %rax,-0xb88(%rbp)
    a187:	48 8d 05 8e dc 00 00 	lea    0xdc8e(%rip),%rax        # 17e1c <g_830+0xdc>
    a18e:	48 89 85 80 f4 ff ff 	mov    %rax,-0xb80(%rbp)
    a195:	48 8d 05 18 d1 00 00 	lea    0xd118(%rip),%rax        # 172b4 <g_377+0x14>
    a19c:	48 89 85 40 f8 ff ff 	mov    %rax,-0x7c0(%rbp)
    a1a3:	48 8d 05 ea da 00 00 	lea    0xdaea(%rip),%rax        # 17c94 <g_827+0x14>
    a1aa:	48 89 85 48 f8 ff ff 	mov    %rax,-0x7b8(%rbp)
    a1b1:	48 c7 85 50 f8 ff ff 	movq   $0x0,-0x7b0(%rbp)
    a1b8:	00 00 00 00 
    a1bc:	48 8d 05 61 ce 00 00 	lea    0xce61(%rip),%rax        # 17024 <g_2>
    a1c3:	48 89 85 58 f8 ff ff 	mov    %rax,-0x7a8(%rbp)
    a1ca:	48 8d 05 e3 d0 00 00 	lea    0xd0e3(%rip),%rax        # 172b4 <g_377+0x14>
    a1d1:	48 89 85 60 f8 ff ff 	mov    %rax,-0x7a0(%rbp)
    a1d8:	48 8d 05 75 da 00 00 	lea    0xda75(%rip),%rax        # 17c54 <g_825+0x14>
    a1df:	48 89 85 68 f8 ff ff 	mov    %rax,-0x798(%rbp)
    a1e6:	48 c7 85 70 f8 ff ff 	movq   $0x0,-0x790(%rbp)
    a1ed:	00 00 00 00 
    a1f1:	48 8d 05 dc d9 00 00 	lea    0xd9dc(%rip),%rax        # 17bd4 <g_771+0x14>
    a1f8:	48 89 85 78 f8 ff ff 	mov    %rax,-0x788(%rbp)
    a1ff:	48 8d 85 f0 f4 ff ff 	lea    -0xb10(%rbp),%rax
    a206:	48 83 c0 10          	add    $0x10,%rax
    a20a:	48 89 85 80 f8 ff ff 	mov    %rax,-0x780(%rbp)
    a211:	48 8d 05 7c e2 00 00 	lea    0xe27c(%rip),%rax        # 18494 <g_1555+0x14>
    a218:	48 89 85 88 f8 ff ff 	mov    %rax,-0x778(%rbp)
    a21f:	48 c7 85 90 f8 ff ff 	movq   $0x0,-0x770(%rbp)
    a226:	00 00 00 00 
    a22a:	48 8d 05 83 e3 00 00 	lea    0xe383(%rip),%rax        # 185b4 <g_1892+0x14>
    a231:	48 89 85 98 f8 ff ff 	mov    %rax,-0x768(%rbp)
    a238:	48 c7 85 a0 f8 ff ff 	movq   $0x0,-0x760(%rbp)
    a23f:	00 00 00 00 
    a243:	48 c7 85 a8 f8 ff ff 	movq   $0x0,-0x758(%rbp)
    a24a:	00 00 00 00 
    a24e:	48 8d 05 5f e3 00 00 	lea    0xe35f(%rip),%rax        # 185b4 <g_1892+0x14>
    a255:	48 89 85 b0 f8 ff ff 	mov    %rax,-0x750(%rbp)
    a25c:	48 c7 85 b8 f8 ff ff 	movq   $0x0,-0x748(%rbp)
    a263:	00 00 00 00 
    a267:	48 c7 85 c0 f8 ff ff 	movq   $0x0,-0x740(%rbp)
    a26e:	00 00 00 00 
    a272:	48 c7 85 c8 f8 ff ff 	movq   $0x0,-0x738(%rbp)
    a279:	00 00 00 00 
    a27d:	48 8d 05 50 d9 00 00 	lea    0xd950(%rip),%rax        # 17bd4 <g_771+0x14>
    a284:	48 89 85 d0 f8 ff ff 	mov    %rax,-0x730(%rbp)
    a28b:	48 c7 85 d8 f8 ff ff 	movq   $0x0,-0x728(%rbp)
    a292:	00 00 00 00 
    a296:	48 8d 05 b7 d9 00 00 	lea    0xd9b7(%rip),%rax        # 17c54 <g_825+0x14>
    a29d:	48 89 85 e0 f8 ff ff 	mov    %rax,-0x720(%rbp)
    a2a4:	48 8d 05 09 d0 00 00 	lea    0xd009(%rip),%rax        # 172b4 <g_377+0x14>
    a2ab:	48 89 85 e8 f8 ff ff 	mov    %rax,-0x718(%rbp)
    a2b2:	48 8d 05 6b cd 00 00 	lea    0xcd6b(%rip),%rax        # 17024 <g_2>
    a2b9:	48 89 85 f0 f8 ff ff 	mov    %rax,-0x710(%rbp)
    a2c0:	48 c7 85 f8 f8 ff ff 	movq   $0x0,-0x708(%rbp)
    a2c7:	00 00 00 00 
    a2cb:	48 8d 05 02 d9 00 00 	lea    0xd902(%rip),%rax        # 17bd4 <g_771+0x14>
    a2d2:	48 89 85 00 f9 ff ff 	mov    %rax,-0x700(%rbp)
    a2d9:	48 8d 05 f4 d9 00 00 	lea    0xd9f4(%rip),%rax        # 17cd4 <g_828+0x14>
    a2e0:	48 89 85 08 f9 ff ff 	mov    %rax,-0x6f8(%rbp)
    a2e7:	48 8d 05 c6 cf 00 00 	lea    0xcfc6(%rip),%rax        # 172b4 <g_377+0x14>
    a2ee:	48 89 85 10 f9 ff ff 	mov    %rax,-0x6f0(%rbp)
    a2f5:	48 8d 05 28 cd 00 00 	lea    0xcd28(%rip),%rax        # 17024 <g_2>
    a2fc:	48 89 85 18 f9 ff ff 	mov    %rax,-0x6e8(%rbp)
    a303:	48 8d 05 ca ce 00 00 	lea    0xceca(%rip),%rax        # 171d4 <g_91+0x74>
    a30a:	48 89 85 20 f9 ff ff 	mov    %rax,-0x6e0(%rbp)
    a311:	48 8d 85 f0 f4 ff ff 	lea    -0xb10(%rbp),%rax
    a318:	48 83 c0 10          	add    $0x10,%rax
    a31c:	48 89 85 28 f9 ff ff 	mov    %rax,-0x6d8(%rbp)
    a323:	48 8d 05 ca e0 00 00 	lea    0xe0ca(%rip),%rax        # 183f4 <g_1435+0x14>
    a32a:	48 89 85 30 f9 ff ff 	mov    %rax,-0x6d0(%rbp)
    a331:	48 c7 85 38 f9 ff ff 	movq   $0x0,-0x6c8(%rbp)
    a338:	00 00 00 00 
    a33c:	48 8d 05 91 d9 00 00 	lea    0xd991(%rip),%rax        # 17cd4 <g_828+0x14>
    a343:	48 89 85 40 f9 ff ff 	mov    %rax,-0x6c0(%rbp)
    a34a:	48 c7 85 48 f9 ff ff 	movq   $0x0,-0x6b8(%rbp)
    a351:	00 00 00 00 
    a355:	48 8d 05 d8 df 00 00 	lea    0xdfd8(%rip),%rax        # 18334 <g_1122+0x14>
    a35c:	48 89 85 50 f9 ff ff 	mov    %rax,-0x6b0(%rbp)
    a363:	48 8d 05 2a d9 00 00 	lea    0xd92a(%rip),%rax        # 17c94 <g_827+0x14>
    a36a:	48 89 85 58 f9 ff ff 	mov    %rax,-0x6a8(%rbp)
    a371:	48 8d 05 3c cf 00 00 	lea    0xcf3c(%rip),%rax        # 172b4 <g_377+0x14>
    a378:	48 89 85 60 f9 ff ff 	mov    %rax,-0x6a0(%rbp)
    a37f:	48 8d 05 2e e2 00 00 	lea    0xe22e(%rip),%rax        # 185b4 <g_1892+0x14>
    a386:	48 89 85 68 f9 ff ff 	mov    %rax,-0x698(%rbp)
    a38d:	48 8d 05 c0 d8 00 00 	lea    0xd8c0(%rip),%rax        # 17c54 <g_825+0x14>
    a394:	48 89 85 70 f9 ff ff 	mov    %rax,-0x690(%rbp)
    a39b:	48 8d 05 d2 da 00 00 	lea    0xdad2(%rip),%rax        # 17e74 <g_831+0x14>
    a3a2:	48 89 85 78 f9 ff ff 	mov    %rax,-0x688(%rbp)
    a3a9:	48 8d 05 24 ce 00 00 	lea    0xce24(%rip),%rax        # 171d4 <g_91+0x74>
    a3b0:	48 89 85 80 f9 ff ff 	mov    %rax,-0x680(%rbp)
    a3b7:	48 8d 05 b6 da 00 00 	lea    0xdab6(%rip),%rax        # 17e74 <g_831+0x14>
    a3be:	48 89 85 88 f9 ff ff 	mov    %rax,-0x678(%rbp)
    a3c5:	48 8d 05 08 e1 00 00 	lea    0xe108(%rip),%rax        # 184d4 <g_1570+0x14>
    a3cc:	48 89 85 90 f9 ff ff 	mov    %rax,-0x670(%rbp)
    a3d3:	48 8d 05 5a df 00 00 	lea    0xdf5a(%rip),%rax        # 18334 <g_1122+0x14>
    a3da:	48 89 85 98 f9 ff ff 	mov    %rax,-0x668(%rbp)
    a3e1:	48 8d 05 ec e0 00 00 	lea    0xe0ec(%rip),%rax        # 184d4 <g_1570+0x14>
    a3e8:	48 89 85 a0 f9 ff ff 	mov    %rax,-0x660(%rbp)
    a3ef:	48 8d 05 7e da 00 00 	lea    0xda7e(%rip),%rax        # 17e74 <g_831+0x14>
    a3f6:	48 89 85 a8 f9 ff ff 	mov    %rax,-0x658(%rbp)
    a3fd:	48 8d 05 d0 cd 00 00 	lea    0xcdd0(%rip),%rax        # 171d4 <g_91+0x74>
    a404:	48 89 85 b0 f9 ff ff 	mov    %rax,-0x650(%rbp)
    a40b:	48 8d 05 02 d8 00 00 	lea    0xd802(%rip),%rax        # 17c14 <g_823+0x14>
    a412:	48 89 85 b8 f9 ff ff 	mov    %rax,-0x648(%rbp)
    a419:	48 8d 05 14 df 00 00 	lea    0xdf14(%rip),%rax        # 18334 <g_1122+0x14>
    a420:	48 89 85 c0 f9 ff ff 	mov    %rax,-0x640(%rbp)
    a427:	48 8d 05 a6 d8 00 00 	lea    0xd8a6(%rip),%rax        # 17cd4 <g_828+0x14>
    a42e:	48 89 85 c8 f9 ff ff 	mov    %rax,-0x638(%rbp)
    a435:	48 8d 05 78 e1 00 00 	lea    0xe178(%rip),%rax        # 185b4 <g_1892+0x14>
    a43c:	48 89 85 d0 f9 ff ff 	mov    %rax,-0x630(%rbp)
    a443:	48 8d 05 aa df 00 00 	lea    0xdfaa(%rip),%rax        # 183f4 <g_1435+0x14>
    a44a:	48 89 85 d8 f9 ff ff 	mov    %rax,-0x628(%rbp)
    a451:	48 8d 05 7c d7 00 00 	lea    0xd77c(%rip),%rax        # 17bd4 <g_771+0x14>
    a458:	48 89 85 e0 f9 ff ff 	mov    %rax,-0x620(%rbp)
    a45f:	48 c7 85 e8 f9 ff ff 	movq   $0x0,-0x618(%rbp)
    a466:	00 00 00 00 
    a46a:	48 c7 85 f0 f9 ff ff 	movq   $0x0,-0x610(%rbp)
    a471:	00 00 00 00 
    a475:	48 8d 05 d8 d7 00 00 	lea    0xd7d8(%rip),%rax        # 17c54 <g_825+0x14>
    a47c:	48 89 85 f8 f9 ff ff 	mov    %rax,-0x608(%rbp)
    a483:	48 8d 85 f0 f4 ff ff 	lea    -0xb10(%rbp),%rax
    a48a:	48 83 c0 10          	add    $0x10,%rax
    a48e:	48 89 85 00 fa ff ff 	mov    %rax,-0x600(%rbp)
    a495:	48 8d 05 18 e1 00 00 	lea    0xe118(%rip),%rax        # 185b4 <g_1892+0x14>
    a49c:	48 89 85 08 fa ff ff 	mov    %rax,-0x5f8(%rbp)
    a4a3:	48 c7 85 10 fa ff ff 	movq   $0x0,-0x5f0(%rbp)
    a4aa:	00 00 00 00 
    a4ae:	48 8d 05 ff cd 00 00 	lea    0xcdff(%rip),%rax        # 172b4 <g_377+0x14>
    a4b5:	48 89 85 18 fa ff ff 	mov    %rax,-0x5e8(%rbp)
    a4bc:	48 8d 05 11 d7 00 00 	lea    0xd711(%rip),%rax        # 17bd4 <g_771+0x14>
    a4c3:	48 89 85 20 fa ff ff 	mov    %rax,-0x5e0(%rbp)
    a4ca:	48 8d 05 93 d3 00 00 	lea    0xd393(%rip),%rax        # 17864 <g_526+0x564>
    a4d1:	48 89 85 28 fa ff ff 	mov    %rax,-0x5d8(%rbp)
    a4d8:	48 c7 85 30 fa ff ff 	movq   $0x0,-0x5d0(%rbp)
    a4df:	00 00 00 00 
    a4e3:	48 8d 05 4a de 00 00 	lea    0xde4a(%rip),%rax        # 18334 <g_1122+0x14>
    a4ea:	48 89 85 38 fa ff ff 	mov    %rax,-0x5c8(%rbp)
    a4f1:	48 8d 05 3c de 00 00 	lea    0xde3c(%rip),%rax        # 18334 <g_1122+0x14>
    a4f8:	48 89 85 40 fa ff ff 	mov    %rax,-0x5c0(%rbp)
    a4ff:	48 c7 85 48 fa ff ff 	movq   $0x0,-0x5b8(%rbp)
    a506:	00 00 00 00 
    a50a:	48 8d 05 53 d3 00 00 	lea    0xd353(%rip),%rax        # 17864 <g_526+0x564>
    a511:	48 89 85 50 fa ff ff 	mov    %rax,-0x5b0(%rbp)
    a518:	48 8d 05 35 d7 00 00 	lea    0xd735(%rip),%rax        # 17c54 <g_825+0x14>
    a51f:	48 89 85 58 fa ff ff 	mov    %rax,-0x5a8(%rbp)
    a526:	48 8d 05 a7 df 00 00 	lea    0xdfa7(%rip),%rax        # 184d4 <g_1570+0x14>
    a52d:	48 89 85 60 fa ff ff 	mov    %rax,-0x5a0(%rbp)
    a534:	48 c7 85 68 fa ff ff 	movq   $0x0,-0x598(%rbp)
    a53b:	00 00 00 00 
    a53f:	48 c7 85 70 fa ff ff 	movq   $0x0,-0x590(%rbp)
    a546:	00 00 00 00 
    a54a:	48 8d 05 83 df 00 00 	lea    0xdf83(%rip),%rax        # 184d4 <g_1570+0x14>
    a551:	48 89 85 78 fa ff ff 	mov    %rax,-0x588(%rbp)
    a558:	48 8d 05 75 cc 00 00 	lea    0xcc75(%rip),%rax        # 171d4 <g_91+0x74>
    a55f:	48 89 85 80 fa ff ff 	mov    %rax,-0x580(%rbp)
    a566:	48 8d 05 47 cd 00 00 	lea    0xcd47(%rip),%rax        # 172b4 <g_377+0x14>
    a56d:	48 89 85 88 fa ff ff 	mov    %rax,-0x578(%rbp)
    a574:	48 8d 05 39 cd 00 00 	lea    0xcd39(%rip),%rax        # 172b4 <g_377+0x14>
    a57b:	48 89 85 90 fa ff ff 	mov    %rax,-0x570(%rbp)
    a582:	48 8d 05 4b cc 00 00 	lea    0xcc4b(%rip),%rax        # 171d4 <g_91+0x74>
    a589:	48 89 85 98 fa ff ff 	mov    %rax,-0x568(%rbp)
    a590:	48 8d 05 1d cd 00 00 	lea    0xcd1d(%rip),%rax        # 172b4 <g_377+0x14>
    a597:	48 89 85 a0 fa ff ff 	mov    %rax,-0x560(%rbp)
    a59e:	48 c7 85 a8 fa ff ff 	movq   $0x0,-0x558(%rbp)
    a5a5:	00 00 00 00 
    a5a9:	48 8d 05 78 ca 00 00 	lea    0xca78(%rip),%rax        # 17028 <g_6>
    a5b0:	48 89 85 b0 fa ff ff 	mov    %rax,-0x550(%rbp)
    a5b7:	48 8d 05 f6 df 00 00 	lea    0xdff6(%rip),%rax        # 185b4 <g_1892+0x14>
    a5be:	48 89 85 b8 fa ff ff 	mov    %rax,-0x548(%rbp)
    a5c5:	48 8d 05 08 d6 00 00 	lea    0xd608(%rip),%rax        # 17bd4 <g_771+0x14>
    a5cc:	48 89 85 c0 fa ff ff 	mov    %rax,-0x540(%rbp)
    a5d3:	48 8d 05 fa de 00 00 	lea    0xdefa(%rip),%rax        # 184d4 <g_1570+0x14>
    a5da:	48 89 85 c8 fa ff ff 	mov    %rax,-0x538(%rbp)
    a5e1:	48 8d 05 ec cb 00 00 	lea    0xcbec(%rip),%rax        # 171d4 <g_91+0x74>
    a5e8:	48 89 85 d0 fa ff ff 	mov    %rax,-0x530(%rbp)
    a5ef:	48 c7 85 d8 fa ff ff 	movq   $0x0,-0x528(%rbp)
    a5f6:	00 00 00 00 
    a5fa:	48 8d 05 63 d2 00 00 	lea    0xd263(%rip),%rax        # 17864 <g_526+0x564>
    a601:	48 89 85 e0 fa ff ff 	mov    %rax,-0x520(%rbp)
    a608:	48 8d 05 05 d6 00 00 	lea    0xd605(%rip),%rax        # 17c14 <g_823+0x14>
    a60f:	48 89 85 e8 fa ff ff 	mov    %rax,-0x518(%rbp)
    a616:	48 8d 05 b7 d6 00 00 	lea    0xd6b7(%rip),%rax        # 17cd4 <g_828+0x14>
    a61d:	48 89 85 f0 fa ff ff 	mov    %rax,-0x510(%rbp)
    a624:	48 c7 85 f8 fa ff ff 	movq   $0x0,-0x508(%rbp)
    a62b:	00 00 00 00 
    a62f:	48 8d 05 de d5 00 00 	lea    0xd5de(%rip),%rax        # 17c14 <g_823+0x14>
    a636:	48 89 85 00 fb ff ff 	mov    %rax,-0x500(%rbp)
    a63d:	48 8d 05 90 de 00 00 	lea    0xde90(%rip),%rax        # 184d4 <g_1570+0x14>
    a644:	48 89 85 08 fb ff ff 	mov    %rax,-0x4f8(%rbp)
    a64b:	48 8d 05 12 d2 00 00 	lea    0xd212(%rip),%rax        # 17864 <g_526+0x564>
    a652:	48 89 85 10 fb ff ff 	mov    %rax,-0x4f0(%rbp)
    a659:	48 c7 85 18 fb ff ff 	movq   $0x0,-0x4e8(%rbp)
    a660:	00 00 00 00 
    a664:	48 8d 85 f0 f4 ff ff 	lea    -0xb10(%rbp),%rax
    a66b:	48 83 c0 10          	add    $0x10,%rax
    a66f:	48 89 85 20 fb ff ff 	mov    %rax,-0x4e0(%rbp)
    a676:	48 c7 85 28 fb ff ff 	movq   $0x0,-0x4d8(%rbp)
    a67d:	00 00 00 00 
    a681:	48 8d 05 dc d1 00 00 	lea    0xd1dc(%rip),%rax        # 17864 <g_526+0x564>
    a688:	48 89 85 30 fb ff ff 	mov    %rax,-0x4d0(%rbp)
    a68f:	48 8d 05 ce d1 00 00 	lea    0xd1ce(%rip),%rax        # 17864 <g_526+0x564>
    a696:	48 89 85 38 fb ff ff 	mov    %rax,-0x4c8(%rbp)
    a69d:	48 8d 05 c0 d1 00 00 	lea    0xd1c0(%rip),%rax        # 17864 <g_526+0x564>
    a6a4:	48 89 85 40 fb ff ff 	mov    %rax,-0x4c0(%rbp)
    a6ab:	48 8d 05 02 cc 00 00 	lea    0xcc02(%rip),%rax        # 172b4 <g_377+0x14>
    a6b2:	48 89 85 48 fb ff ff 	mov    %rax,-0x4b8(%rbp)
    a6b9:	48 8d 05 a4 d1 00 00 	lea    0xd1a4(%rip),%rax        # 17864 <g_526+0x564>
    a6c0:	48 89 85 50 fb ff ff 	mov    %rax,-0x4b0(%rbp)
    a6c7:	48 c7 85 58 fb ff ff 	movq   $0x0,-0x4a8(%rbp)
    a6ce:	00 00 00 00 
    a6d2:	48 8d 05 4f c9 00 00 	lea    0xc94f(%rip),%rax        # 17028 <g_6>
    a6d9:	48 89 85 60 fb ff ff 	mov    %rax,-0x4a0(%rbp)
    a6e0:	48 c7 85 68 fb ff ff 	movq   $0x0,-0x498(%rbp)
    a6e7:	00 00 00 00 
    a6eb:	48 8d 05 72 d1 00 00 	lea    0xd172(%rip),%rax        # 17864 <g_526+0x564>
    a6f2:	48 89 85 70 fb ff ff 	mov    %rax,-0x490(%rbp)
    a6f9:	48 8d 05 b4 cb 00 00 	lea    0xcbb4(%rip),%rax        # 172b4 <g_377+0x14>
    a700:	48 89 85 78 fb ff ff 	mov    %rax,-0x488(%rbp)
    a707:	48 8d 05 86 dd 00 00 	lea    0xdd86(%rip),%rax        # 18494 <g_1555+0x14>
    a70e:	48 89 85 80 fb ff ff 	mov    %rax,-0x480(%rbp)
    a715:	48 c7 85 88 fb ff ff 	movq   $0x0,-0x478(%rbp)
    a71c:	00 00 00 00 
    a720:	48 c7 85 90 fb ff ff 	movq   $0x0,-0x470(%rbp)
    a727:	00 00 00 00 
    a72b:	48 8d 05 f6 c8 00 00 	lea    0xc8f6(%rip),%rax        # 17028 <g_6>
    a732:	48 89 85 98 fb ff ff 	mov    %rax,-0x468(%rbp)
    a739:	48 8d 05 14 d5 00 00 	lea    0xd514(%rip),%rax        # 17c54 <g_825+0x14>
    a740:	48 89 85 a0 fb ff ff 	mov    %rax,-0x460(%rbp)
    a747:	48 8d 05 16 d1 00 00 	lea    0xd116(%rip),%rax        # 17864 <g_526+0x564>
    a74e:	48 89 85 a8 fb ff ff 	mov    %rax,-0x458(%rbp)
    a755:	48 8d 05 c8 c8 00 00 	lea    0xc8c8(%rip),%rax        # 17024 <g_2>
    a75c:	48 89 85 b0 fb ff ff 	mov    %rax,-0x450(%rbp)
    a763:	48 8d 05 6a ca 00 00 	lea    0xca6a(%rip),%rax        # 171d4 <g_91+0x74>
    a76a:	48 89 85 b8 fb ff ff 	mov    %rax,-0x448(%rbp)
    a771:	48 c7 85 c0 fb ff ff 	movq   $0x0,-0x440(%rbp)
    a778:	00 00 00 00 
    a77c:	48 8d 05 31 de 00 00 	lea    0xde31(%rip),%rax        # 185b4 <g_1892+0x14>
    a783:	48 89 85 c8 fb ff ff 	mov    %rax,-0x438(%rbp)
    a78a:	48 c7 85 d0 fb ff ff 	movq   $0x0,-0x430(%rbp)
    a791:	00 00 00 00 
    a795:	48 8d 05 38 d5 00 00 	lea    0xd538(%rip),%rax        # 17cd4 <g_828+0x14>
    a79c:	48 89 85 d8 fb ff ff 	mov    %rax,-0x428(%rbp)
    a7a3:	48 8d 05 ea dc 00 00 	lea    0xdcea(%rip),%rax        # 18494 <g_1555+0x14>
    a7aa:	48 89 85 e0 fb ff ff 	mov    %rax,-0x420(%rbp)
    a7b1:	48 c7 85 e8 fb ff ff 	movq   $0x0,-0x418(%rbp)
    a7b8:	00 00 00 00 
    a7bc:	48 8d 05 61 c8 00 00 	lea    0xc861(%rip),%rax        # 17024 <g_2>
    a7c3:	48 89 85 f0 fb ff ff 	mov    %rax,-0x410(%rbp)
    a7ca:	48 8d 05 93 d0 00 00 	lea    0xd093(%rip),%rax        # 17864 <g_526+0x564>
    a7d1:	48 89 85 f8 fb ff ff 	mov    %rax,-0x408(%rbp)
    a7d8:	48 8d 05 15 dc 00 00 	lea    0xdc15(%rip),%rax        # 183f4 <g_1435+0x14>
    a7df:	48 89 85 00 fc ff ff 	mov    %rax,-0x400(%rbp)
    a7e6:	48 8d 05 e7 d4 00 00 	lea    0xd4e7(%rip),%rax        # 17cd4 <g_828+0x14>
    a7ed:	48 89 85 08 fc ff ff 	mov    %rax,-0x3f8(%rbp)
    a7f4:	48 c7 85 10 fc ff ff 	movq   $0x0,-0x3f0(%rbp)
    a7fb:	00 00 00 00 
    a7ff:	48 8d 05 5e d0 00 00 	lea    0xd05e(%rip),%rax        # 17864 <g_526+0x564>
    a806:	48 89 85 18 fc ff ff 	mov    %rax,-0x3e8(%rbp)
    a80d:	48 8d 05 a0 dd 00 00 	lea    0xdda0(%rip),%rax        # 185b4 <g_1892+0x14>
    a814:	48 89 85 20 fc ff ff 	mov    %rax,-0x3e0(%rbp)
    a81b:	48 8d 05 52 d6 00 00 	lea    0xd652(%rip),%rax        # 17e74 <g_831+0x14>
    a822:	48 89 85 28 fc ff ff 	mov    %rax,-0x3d8(%rbp)
    a829:	48 8d 05 34 d0 00 00 	lea    0xd034(%rip),%rax        # 17864 <g_526+0x564>
    a830:	48 89 85 30 fc ff ff 	mov    %rax,-0x3d0(%rbp)
    a837:	48 8d 05 26 d0 00 00 	lea    0xd026(%rip),%rax        # 17864 <g_526+0x564>
    a83e:	48 89 85 38 fc ff ff 	mov    %rax,-0x3c8(%rbp)
    a845:	8b 05 d9 c7 00 00    	mov    0xc7d9(%rip),%eax        # 17024 <g_2>
    a84b:	85 c0                	test   %eax,%eax
    a84d:	74 05                	je     a854 <func_18+0xb1a>
    a84f:	e9 65 f7 ff ff       	jmpq   9fb9 <func_18+0x27f>
    a854:	0f b6 05 49 de 00 00 	movzbl 0xde49(%rip),%eax        # 186a4 <g_1918>
    a85b:	0f b6 d8             	movzbl %al,%ebx
    a85e:	0f b7 85 4c f4 ff ff 	movzwl -0xbb4(%rbp),%eax
    a865:	0f bf d0             	movswl %ax,%edx
    a868:	0f bf 85 48 f4 ff ff 	movswl -0xbb8(%rbp),%eax
    a86f:	89 d6                	mov    %edx,%esi
    a871:	89 c7                	mov    %eax,%edi
    a873:	e8 3b db ff ff       	callq  83b3 <safe_add_func_int16_t_s_s>
    a878:	98                   	cwtl   
    a879:	be d9 0e 00 00       	mov    $0xed9,%esi
    a87e:	89 c7                	mov    %eax,%edi
    a880:	e8 4e db ff ff       	callq  83d3 <safe_sub_func_int16_t_s_s>
    a885:	0f bf d0             	movswl %ax,%edx
    a888:	8b 85 60 f5 ff ff    	mov    -0xaa0(%rbp),%eax
    a88e:	31 d0                	xor    %edx,%eax
    a890:	89 85 50 f4 ff ff    	mov    %eax,-0xbb0(%rbp)
    a896:	83 bd 50 f4 ff ff 00 	cmpl   $0x0,-0xbb0(%rbp)
    a89d:	75 2c                	jne    a8cb <func_18+0xb91>
    a89f:	48 8b 15 d2 0c 01 00 	mov    0x10cd2(%rip),%rdx        # 1b578 <g_2142+0x8>
    a8a6:	48 8b 85 78 f4 ff ff 	mov    -0xb88(%rbp),%rax
    a8ad:	48 89 10             	mov    %rdx,(%rax)
    a8b0:	48 8b 85 78 f4 ff ff 	mov    -0xb88(%rbp),%rax
    a8b7:	48 8b 00             	mov    (%rax),%rax
    a8ba:	48 39 85 b0 f4 ff ff 	cmp    %rax,-0xb50(%rbp)
    a8c1:	0f 95 c0             	setne  %al
    a8c4:	0f b6 c0             	movzbl %al,%eax
    a8c7:	85 c0                	test   %eax,%eax
    a8c9:	78 07                	js     a8d2 <func_18+0xb98>
    a8cb:	b8 01 00 00 00       	mov    $0x1,%eax
    a8d0:	eb 05                	jmp    a8d7 <func_18+0xb9d>
    a8d2:	b8 00 00 00 00       	mov    $0x0,%eax
    a8d7:	0f be c0             	movsbl %al,%eax
    a8da:	be ff ff ff ff       	mov    $0xffffffff,%esi
    a8df:	89 c7                	mov    %eax,%edi
    a8e1:	e8 2c d9 ff ff       	callq  8212 <safe_mul_func_int8_t_s_s>
    a8e6:	0f be d0             	movsbl %al,%edx
    a8e9:	0f b7 85 48 f4 ff ff 	movzwl -0xbb8(%rbp),%eax
    a8f0:	0f be c0             	movsbl %al,%eax
    a8f3:	4c 8b 25 76 eb 00 00 	mov    0xeb76(%rip),%r12        # 19470 <g_245>
    a8fa:	89 d6                	mov    %edx,%esi
    a8fc:	89 c7                	mov    %eax,%edi
    a8fe:	e8 0f d9 ff ff       	callq  8212 <safe_mul_func_int8_t_s_s>
    a903:	41 88 04 24          	mov    %al,(%r12)
    a907:	48 8b 05 32 f2 00 00 	mov    0xf232(%rip),%rax        # 19b40 <g_340>
    a90e:	8b 05 90 c9 00 00    	mov    0xc990(%rip),%eax        # 172a4 <g_377+0x4>
    a914:	85 c0                	test   %eax,%eax
    a916:	0f 95 c0             	setne  %al
    a919:	0f b6 c0             	movzbl %al,%eax
    a91c:	89 de                	mov    %ebx,%esi
    a91e:	89 c7                	mov    %eax,%edi
    a920:	e8 6e e2 ff ff       	callq  8b93 <safe_mul_func_uint8_t_u_u>
    a925:	0f b6 d0             	movzbl %al,%edx
    a928:	8b 05 5e da 00 00    	mov    0xda5e(%rip),%eax        # 1838c <g_1311+0x4>
    a92e:	39 c2                	cmp    %eax,%edx
    a930:	0f 97 c0             	seta   %al
    a933:	0f b6 d0             	movzbl %al,%edx
    a936:	48 8b 85 80 f4 ff ff 	mov    -0xb80(%rbp),%rax
    a93d:	89 10                	mov    %edx,(%rax)
    a93f:	48 8b 85 80 f4 ff ff 	mov    -0xb80(%rbp),%rax
    a946:	8b 00                	mov    (%rax),%eax
    a948:	89 85 00 f5 ff ff    	mov    %eax,-0xb00(%rbp)
    a94e:	8b 05 90 da 00 00    	mov    0xda90(%rip),%eax        # 183e4 <g_1435+0x4>
    a954:	0f b7 c0             	movzwl %ax,%eax
    a957:	be 01 00 00 00       	mov    $0x1,%esi
    a95c:	89 c7                	mov    %eax,%edi
    a95e:	e8 9c e3 ff ff       	callq  8cff <safe_add_func_uint16_t_u_u>
    a963:	0f b7 c0             	movzwl %ax,%eax
    a966:	89 05 78 da 00 00    	mov    %eax,0xda78(%rip)        # 183e4 <g_1435+0x4>
    a96c:	8b 05 72 da 00 00    	mov    0xda72(%rip),%eax        # 183e4 <g_1435+0x4>
    a972:	83 f8 1a             	cmp    $0x1a,%eax
    a975:	0f 86 69 f7 ff ff    	jbe    a0e4 <func_18+0x3aa>
    a97b:	0f b7 85 48 f4 ff ff 	movzwl -0xbb8(%rbp),%eax
    a982:	48 8b 5d d8          	mov    -0x28(%rbp),%rbx
    a986:	64 48 33 1c 25 28 00 	xor    %fs:0x28,%rbx
    a98d:	00 00 
    a98f:	74 05                	je     a996 <func_18+0xc5c>
    a991:	e8 da d6 ff ff       	callq  8070 <__stack_chk_fail@plt>
    a996:	48 81 c4 a0 0b 00 00 	add    $0xba0,%rsp
    a99d:	5b                   	pop    %rbx
    a99e:	41 5c                	pop    %r12
    a9a0:	41 5d                	pop    %r13
    a9a2:	41 5e                	pop    %r14
    a9a4:	5d                   	pop    %rbp
    a9a5:	c3                   	retq   

000000000000a9a6 <func_21>:
    a9a6:	f3 0f 1e fa          	endbr64 
    a9aa:	55                   	push   %rbp
    a9ab:	48 89 e5             	mov    %rsp,%rbp
    a9ae:	41 55                	push   %r13
    a9b0:	41 54                	push   %r12
    a9b2:	53                   	push   %rbx
    a9b3:	48 81 ec 08 09 00 00 	sub    $0x908,%rsp
    a9ba:	89 f8                	mov    %edi,%eax
    a9bc:	48 89 b5 e0 f6 ff ff 	mov    %rsi,-0x920(%rbp)
    a9c3:	88 85 ec f6 ff ff    	mov    %al,-0x914(%rbp)
    a9c9:	64 48 8b 04 25 28 00 	mov    %fs:0x28,%rax
    a9d0:	00 00 
    a9d2:	48 89 45 d8          	mov    %rax,-0x28(%rbp)
    a9d6:	31 c0                	xor    %eax,%eax
    a9d8:	48 8d 05 51 03 01 00 	lea    0x10351(%rip),%rax        # 1ad30 <g_1563>
    a9df:	48 89 85 50 f7 ff ff 	mov    %rax,-0x8b0(%rbp)
    a9e6:	c7 85 f8 f6 ff ff fc 	movl   $0xfffffffc,-0x908(%rbp)
    a9ed:	ff ff ff 
    a9f0:	c7 85 fc f6 ff ff 04 	movl   $0x4,-0x904(%rbp)
    a9f7:	00 00 00 
    a9fa:	48 8d 05 27 11 01 00 	lea    0x11127(%rip),%rax        # 1bb28 <g_975>
    aa01:	48 89 85 58 f7 ff ff 	mov    %rax,-0x8a8(%rbp)
    aa08:	48 8d 05 a5 d9 00 00 	lea    0xd9a5(%rip),%rax        # 183b4 <g_1318+0x14>
    aa0f:	48 89 85 60 f7 ff ff 	mov    %rax,-0x8a0(%rbp)
    aa16:	48 8d 05 cb f2 00 00 	lea    0xf2cb(%rip),%rax        # 19ce8 <g_663+0x148>
    aa1d:	48 89 85 68 f7 ff ff 	mov    %rax,-0x898(%rbp)
    aa24:	48 c7 85 70 f7 ff ff 	movq   $0x0,-0x890(%rbp)
    aa2b:	00 00 00 00 
    aa2f:	48 8d 05 32 86 00 00 	lea    0x8632(%rip),%rax        # 13068 <g_1784>
    aa36:	48 89 85 78 f7 ff ff 	mov    %rax,-0x888(%rbp)
    aa3d:	c7 85 08 f7 ff ff ff 	movl   $0xffffffff,-0x8f8(%rbp)
    aa44:	ff ff ff 
    aa47:	48 8d 05 1a 01 01 00 	lea    0x1011a(%rip),%rax        # 1ab68 <g_1091>
    aa4e:	48 89 85 40 f7 ff ff 	mov    %rax,-0x8c0(%rbp)
    aa55:	48 8d 85 40 f7 ff ff 	lea    -0x8c0(%rbp),%rax
    aa5c:	48 89 85 48 f7 ff ff 	mov    %rax,-0x8b8(%rbp)
    aa63:	48 8d 85 48 f7 ff ff 	lea    -0x8b8(%rbp),%rax
    aa6a:	48 89 85 20 f8 ff ff 	mov    %rax,-0x7e0(%rbp)
    aa71:	48 8d 85 48 f7 ff ff 	lea    -0x8b8(%rbp),%rax
    aa78:	48 89 85 28 f8 ff ff 	mov    %rax,-0x7d8(%rbp)
    aa7f:	48 8d 85 48 f7 ff ff 	lea    -0x8b8(%rbp),%rax
    aa86:	48 89 85 30 f8 ff ff 	mov    %rax,-0x7d0(%rbp)
    aa8d:	48 8d 85 48 f7 ff ff 	lea    -0x8b8(%rbp),%rax
    aa94:	48 89 85 38 f8 ff ff 	mov    %rax,-0x7c8(%rbp)
    aa9b:	48 8d 85 48 f7 ff ff 	lea    -0x8b8(%rbp),%rax
    aaa2:	48 89 85 40 f8 ff ff 	mov    %rax,-0x7c0(%rbp)
    aaa9:	48 8d 85 48 f7 ff ff 	lea    -0x8b8(%rbp),%rax
    aab0:	48 89 85 48 f8 ff ff 	mov    %rax,-0x7b8(%rbp)
    aab7:	c7 85 0c f7 ff ff 2e 	movl   $0x85a19d2e,-0x8f4(%rbp)
    aabe:	9d a1 85 
    aac1:	c7 85 10 f7 ff ff ff 	movl   $0xffffffff,-0x8f0(%rbp)
    aac8:	ff ff ff 
    aacb:	c7 85 14 f7 ff ff 44 	movl   $0x905fe844,-0x8ec(%rbp)
    aad2:	e8 5f 90 
    aad5:	c7 85 18 f7 ff ff ff 	movl   $0xffffffff,-0x8e8(%rbp)
    aadc:	ff ff ff 
    aadf:	c7 85 1c f7 ff ff 23 	movl   $0xa4d70d23,-0x8e4(%rbp)
    aae6:	0d d7 a4 
    aae9:	c7 85 20 f7 ff ff f3 	movl   $0x2ba24ff3,-0x8e0(%rbp)
    aaf0:	4f a2 2b 
    aaf3:	c7 85 24 f7 ff ff 3b 	movl   $0xd53c4f3b,-0x8dc(%rbp)
    aafa:	4f 3c d5 
    aafd:	c7 85 28 f7 ff ff 00 	movl   $0x0,-0x8d8(%rbp)
    ab04:	00 00 00 
    ab07:	c7 85 2c f7 ff ff 84 	movl   $0xf3376584,-0x8d4(%rbp)
    ab0e:	65 37 f3 
    ab11:	c7 85 30 f7 ff ff fe 	movl   $0xfffffffe,-0x8d0(%rbp)
    ab18:	ff ff ff 
    ab1b:	c7 85 34 f7 ff ff ff 	movl   $0xffffffff,-0x8cc(%rbp)
    ab22:	ff ff ff 
    ab25:	c6 85 f2 f6 ff ff 3c 	movb   $0x3c,-0x90e(%rbp)
    ab2c:	48 b8 d4 02 46 e2 47 	movabs $0x3b889147e24602d4,%rax
    ab33:	91 88 3b 
    ab36:	48 89 85 50 f8 ff ff 	mov    %rax,-0x7b0(%rbp)
    ab3d:	48 89 85 58 f8 ff ff 	mov    %rax,-0x7a8(%rbp)
    ab44:	48 89 85 60 f8 ff ff 	mov    %rax,-0x7a0(%rbp)
    ab4b:	48 89 85 68 f8 ff ff 	mov    %rax,-0x798(%rbp)
    ab52:	48 89 85 70 f8 ff ff 	mov    %rax,-0x790(%rbp)
    ab59:	48 89 85 78 f8 ff ff 	mov    %rax,-0x788(%rbp)
    ab60:	48 89 85 80 f8 ff ff 	mov    %rax,-0x780(%rbp)
    ab67:	48 8d 05 12 85 00 00 	lea    0x8512(%rip),%rax        # 13080 <g_1934>
    ab6e:	48 89 85 80 f7 ff ff 	mov    %rax,-0x880(%rbp)
    ab75:	c7 85 38 f7 ff ff 73 	movl   $0x58bf6d73,-0x8c8(%rbp)
    ab7c:	6d bf 58 
    ab7f:	c7 85 00 f7 ff ff 00 	movl   $0x0,-0x900(%rbp)
    ab86:	00 00 00 
    ab89:	eb 1e                	jmp    aba9 <func_21+0x203>
    ab8b:	8b 85 00 f7 ff ff    	mov    -0x900(%rbp),%eax
    ab91:	48 98                	cltq   
    ab93:	48 8d 15 cc d8 00 00 	lea    0xd8cc(%rip),%rdx        # 18466 <g_1503>
    ab9a:	48 89 94 c5 d0 f7 ff 	mov    %rdx,-0x830(%rbp,%rax,8)
    aba1:	ff 
    aba2:	83 85 00 f7 ff ff 01 	addl   $0x1,-0x900(%rbp)
    aba9:	83 bd 00 f7 ff ff 01 	cmpl   $0x1,-0x900(%rbp)
    abb0:	7e d9                	jle    ab8b <func_21+0x1e5>
    abb2:	c7 85 00 f7 ff ff 00 	movl   $0x0,-0x900(%rbp)
    abb9:	00 00 00 
    abbc:	eb 53                	jmp    ac11 <func_21+0x26b>
    abbe:	c7 85 04 f7 ff ff 00 	movl   $0x0,-0x8fc(%rbp)
    abc5:	00 00 00 
    abc8:	eb 37                	jmp    ac01 <func_21+0x25b>
    abca:	8b 85 04 f7 ff ff    	mov    -0x8fc(%rbp),%eax
    abd0:	48 63 c8             	movslq %eax,%rcx
    abd3:	8b 85 00 f7 ff ff    	mov    -0x900(%rbp),%eax
    abd9:	48 63 d0             	movslq %eax,%rdx
    abdc:	48 89 d0             	mov    %rdx,%rax
    abdf:	48 01 c0             	add    %rax,%rax
    abe2:	48 01 d0             	add    %rdx,%rax
    abe5:	48 01 c0             	add    %rax,%rax
    abe8:	48 01 c8             	add    %rcx,%rax
    abeb:	48 8d 15 36 0f 01 00 	lea    0x10f36(%rip),%rdx        # 1bb28 <g_975>
    abf2:	48 89 94 c5 d0 f8 ff 	mov    %rdx,-0x730(%rbp,%rax,8)
    abf9:	ff 
    abfa:	83 85 04 f7 ff ff 01 	addl   $0x1,-0x8fc(%rbp)
    ac01:	83 bd 04 f7 ff ff 05 	cmpl   $0x5,-0x8fc(%rbp)
    ac08:	7e c0                	jle    abca <func_21+0x224>
    ac0a:	83 85 00 f7 ff ff 01 	addl   $0x1,-0x900(%rbp)
    ac11:	83 bd 00 f7 ff ff 01 	cmpl   $0x1,-0x900(%rbp)
    ac18:	7e a4                	jle    abbe <func_21+0x218>
    ac1a:	c7 85 00 f7 ff ff 00 	movl   $0x0,-0x900(%rbp)
    ac21:	00 00 00 
    ac24:	eb 1a                	jmp    ac40 <func_21+0x29a>
    ac26:	8b 85 00 f7 ff ff    	mov    -0x900(%rbp),%eax
    ac2c:	48 98                	cltq   
    ac2e:	c7 84 85 e0 f7 ff ff 	movl   $0x262c513a,-0x820(%rbp,%rax,4)
    ac35:	3a 51 2c 26 
    ac39:	83 85 00 f7 ff ff 01 	addl   $0x1,-0x900(%rbp)
    ac40:	83 bd 00 f7 ff ff 04 	cmpl   $0x4,-0x900(%rbp)
    ac47:	7e dd                	jle    ac26 <func_21+0x280>
    ac49:	c7 85 00 f7 ff ff 00 	movl   $0x0,-0x900(%rbp)
    ac50:	00 00 00 
    ac53:	eb 14                	jmp    ac69 <func_21+0x2c3>
    ac55:	8b 85 00 f7 ff ff    	mov    -0x900(%rbp),%eax
    ac5b:	48 98                	cltq   
    ac5d:	c6 44 05 cf 03       	movb   $0x3,-0x31(%rbp,%rax,1)
    ac62:	83 85 00 f7 ff ff 01 	addl   $0x1,-0x900(%rbp)
    ac69:	83 bd 00 f7 ff ff 08 	cmpl   $0x8,-0x900(%rbp)
    ac70:	7e e3                	jle    ac55 <func_21+0x2af>
    ac72:	b8 00 00 00 00       	mov    $0x0,%eax
    ac77:	0f b6 d8             	movzbl %al,%ebx
    ac7a:	8b 85 fc f6 ff ff    	mov    -0x904(%rbp),%eax
    ac80:	44 0f b6 e0          	movzbl %al,%r12d
    ac84:	48 83 bd 50 f7 ff ff 	cmpq   $0x0,-0x8b0(%rbp)
    ac8b:	00 
    ac8c:	8b 05 2a d7 00 00    	mov    0xd72a(%rip),%eax        # 183bc <g_1318+0x1c>
    ac92:	0f bf d0             	movswl %ax,%edx
    ac95:	c7 85 f8 f6 ff ff a7 	movl   $0x32a7,-0x908(%rbp)
    ac9c:	32 00 00 
    ac9f:	48 8b 05 a2 ee 00 00 	mov    0xeea2(%rip),%rax        # 19b48 <g_521>
    aca6:	48 8b 00             	mov    (%rax),%rax
    aca9:	8b 8d fc f6 ff ff    	mov    -0x904(%rbp),%ecx
    acaf:	89 08                	mov    %ecx,(%rax)
    acb1:	48 8b 85 00 f9 ff ff 	mov    -0x700(%rbp),%rax
    acb8:	48 89 85 f0 f8 ff ff 	mov    %rax,-0x710(%rbp)
    acbf:	48 8b b5 f0 f8 ff ff 	mov    -0x710(%rbp),%rsi
    acc6:	48 8b 05 93 ff 00 00 	mov    0xff93(%rip),%rax        # 1ac60 <g_1236>
    accd:	48 8b 8d 58 f7 ff ff 	mov    -0x8a8(%rbp),%rcx
    acd4:	48 89 08             	mov    %rcx,(%rax)
    acd7:	48 8b 00             	mov    (%rax),%rax
    acda:	48 39 c6             	cmp    %rax,%rsi
    acdd:	48 8d 05 7c cb 00 00 	lea    0xcb7c(%rip),%rax        # 17860 <g_526+0x560>
    ace4:	0f b7 00             	movzwl (%rax),%eax
    ace7:	0f bf c8             	movswl %ax,%ecx
    acea:	0f b6 85 ec f6 ff ff 	movzbl -0x914(%rbp),%eax
    acf1:	83 f0 01             	xor    $0x1,%eax
    acf4:	0f be f0             	movsbl %al,%esi
    acf7:	8b 05 27 d6 00 00    	mov    0xd627(%rip),%eax        # 18324 <g_1122+0x4>
    acfd:	39 c6                	cmp    %eax,%esi
    acff:	0f 93 c0             	setae  %al
    ad02:	0f b6 c0             	movzbl %al,%eax
    ad05:	39 c1                	cmp    %eax,%ecx
    ad07:	7e 07                	jle    ad10 <func_21+0x36a>
    ad09:	b8 01 00 00 00       	mov    $0x1,%eax
    ad0e:	eb 05                	jmp    ad15 <func_21+0x36f>
    ad10:	b8 00 00 00 00       	mov    $0x0,%eax
    ad15:	98                   	cwtl   
    ad16:	89 d6                	mov    %edx,%esi
    ad18:	89 c7                	mov    %eax,%edi
    ad1a:	e8 f7 d6 ff ff       	callq  8416 <safe_mod_func_int16_t_s_s>
    ad1f:	0f b6 85 ec f6 ff ff 	movzbl -0x914(%rbp),%eax
    ad26:	f7 d0                	not    %eax
    ad28:	c0 e8 07             	shr    $0x7,%al
    ad2b:	0f b6 c0             	movzbl %al,%eax
    ad2e:	44 89 e6             	mov    %r12d,%esi
    ad31:	89 c7                	mov    %eax,%edi
    ad33:	e8 a3 de ff ff       	callq  8bdb <safe_div_func_uint8_t_u_u>
    ad38:	48 8b 95 60 f7 ff ff 	mov    -0x8a0(%rbp),%rdx
    ad3f:	48 8d 85 f8 f6 ff ff 	lea    -0x908(%rbp),%rax
    ad46:	89 de                	mov    %ebx,%esi
    ad48:	48 89 c7             	mov    %rax,%rdi
    ad4b:	e8 47 37 00 00       	callq  e497 <func_66>
    ad50:	48 8b 95 68 f7 ff ff 	mov    -0x898(%rbp),%rdx
    ad57:	48 89 02             	mov    %rax,(%rdx)
    ad5a:	c7 05 e0 ce 00 00 00 	movl   $0x0,0xcee0(%rip)        # 17c44 <g_825+0x4>
    ad61:	00 00 00 
    ad64:	e9 30 03 00 00       	jmpq   b099 <func_21+0x6f3>
    ad69:	48 c7 85 88 f7 ff ff 	movq   $0x0,-0x878(%rbp)
    ad70:	00 00 00 00 
    ad74:	48 8d 05 4f c5 00 00 	lea    0xc54f(%rip),%rax        # 172ca <g_401>
    ad7b:	48 89 85 90 f7 ff ff 	mov    %rax,-0x870(%rbp)
    ad82:	48 8d 85 30 f9 ff ff 	lea    -0x6d0(%rbp),%rax
    ad89:	48 8d 15 d0 de 00 00 	lea    0xded0(%rip),%rdx        # 18c60 <g_2160+0x53a>
    ad90:	b9 d2 00 00 00       	mov    $0xd2,%ecx
    ad95:	48 89 c7             	mov    %rax,%rdi
    ad98:	48 89 d6             	mov    %rdx,%rsi
    ad9b:	f3 48 a5             	rep movsq %ds:(%rsi),%es:(%rdi)
    ad9e:	c7 85 3c f7 ff ff f9 	movl   $0xd8321f9,-0x8c4(%rbp)
    ada5:	21 83 0d 
    ada8:	48 8d 05 39 ce 00 00 	lea    0xce39(%rip),%rax        # 17be8 <g_795>
    adaf:	48 89 85 98 f7 ff ff 	mov    %rax,-0x868(%rbp)
    adb6:	48 8d 85 fc f6 ff ff 	lea    -0x904(%rbp),%rax
    adbd:	48 89 85 a0 f7 ff ff 	mov    %rax,-0x860(%rbp)
    adc4:	48 8d 05 1d f3 00 00 	lea    0xf31d(%rip),%rax        # 1a0e8 <g_742>
    adcb:	48 89 85 90 f8 ff ff 	mov    %rax,-0x770(%rbp)
    add2:	48 8d 05 0f f3 00 00 	lea    0xf30f(%rip),%rax        # 1a0e8 <g_742>
    add9:	48 89 85 98 f8 ff ff 	mov    %rax,-0x768(%rbp)
    ade0:	48 8d 05 01 f3 00 00 	lea    0xf301(%rip),%rax        # 1a0e8 <g_742>
    ade7:	48 89 85 a0 f8 ff ff 	mov    %rax,-0x760(%rbp)
    adee:	48 8d 05 f3 f2 00 00 	lea    0xf2f3(%rip),%rax        # 1a0e8 <g_742>
    adf5:	48 89 85 a8 f8 ff ff 	mov    %rax,-0x758(%rbp)
    adfc:	48 8d 05 e5 f2 00 00 	lea    0xf2e5(%rip),%rax        # 1a0e8 <g_742>
    ae03:	48 89 85 b0 f8 ff ff 	mov    %rax,-0x750(%rbp)
    ae0a:	48 8d 05 d7 f2 00 00 	lea    0xf2d7(%rip),%rax        # 1a0e8 <g_742>
    ae11:	48 89 85 b8 f8 ff ff 	mov    %rax,-0x748(%rbp)
    ae18:	48 8d 05 c9 f2 00 00 	lea    0xf2c9(%rip),%rax        # 1a0e8 <g_742>
    ae1f:	48 89 85 c0 f8 ff ff 	mov    %rax,-0x740(%rbp)
    ae26:	48 c7 85 a8 f7 ff ff 	movq   $0x0,-0x858(%rbp)
    ae2d:	00 00 00 00 
    ae31:	48 c7 85 b0 f7 ff ff 	movq   $0x0,-0x850(%rbp)
    ae38:	00 00 00 00 
    ae3c:	48 8d 05 75 d5 00 00 	lea    0xd575(%rip),%rax        # 183b8 <g_1318+0x18>
    ae43:	48 89 85 b8 f7 ff ff 	mov    %rax,-0x848(%rbp)
    ae4a:	c7 85 00 f8 ff ff 08 	movl   $0x8,-0x800(%rbp)
    ae51:	00 00 00 
    ae54:	c7 85 04 f8 ff ff 08 	movl   $0x8,-0x7fc(%rbp)
    ae5b:	00 00 00 
    ae5e:	c7 85 08 f8 ff ff 08 	movl   $0x8,-0x7f8(%rbp)
    ae65:	00 00 00 
    ae68:	c7 85 0c f8 ff ff 08 	movl   $0x8,-0x7f4(%rbp)
    ae6f:	00 00 00 
    ae72:	c7 85 10 f8 ff ff 08 	movl   $0x8,-0x7f0(%rbp)
    ae79:	00 00 00 
    ae7c:	c7 85 14 f8 ff ff 08 	movl   $0x8,-0x7ec(%rbp)
    ae83:	00 00 00 
    ae86:	c7 85 18 f8 ff ff 08 	movl   $0x8,-0x7e8(%rbp)
    ae8d:	00 00 00 
    ae90:	66 c7 85 f4 f6 ff ff 	movw   $0xc11c,-0x90c(%rbp)
    ae97:	1c c1 
    ae99:	66 c7 85 f6 f6 ff ff 	movw   $0x6230,-0x90a(%rbp)
    aea0:	30 62 
    aea2:	c6 85 f3 f6 ff ff 01 	movb   $0x1,-0x90d(%rbp)
    aea9:	48 8d 05 10 c8 00 00 	lea    0xc810(%rip),%rax        # 176c0 <g_526+0x3c0>
    aeb0:	48 89 85 c0 f7 ff ff 	mov    %rax,-0x840(%rbp)
    aeb7:	48 b8 08 cd 44 7f e0 	movabs $0x5ed862e07f44cd08,%rax
    aebe:	62 d8 5e 
    aec1:	48 89 85 c8 f7 ff ff 	mov    %rax,-0x838(%rbp)
    aec8:	66 0f be 85 ec f6 ff 	movsbw -0x914(%rbp),%ax
    aecf:	ff 
    aed0:	0f b7 d8             	movzwl %ax,%ebx
    aed3:	48 8b 85 60 f7 ff ff 	mov    -0x8a0(%rbp),%rax
    aeda:	8b 00                	mov    (%rax),%eax
    aedc:	44 0f b6 e0          	movzbl %al,%r12d
    aee0:	66 c7 05 43 c1 00 00 	movw   $0x9187,0xc143(%rip)        # 1702c <g_13>
    aee7:	87 91 
    aee9:	0f be 85 ec f6 ff ff 	movsbl -0x914(%rbp),%eax
    aef0:	0d 87 91 00 00       	or     $0x9187,%eax
    aef5:	41 89 c5             	mov    %eax,%r13d
    aef8:	80 bd ec f6 ff ff 00 	cmpb   $0x0,-0x914(%rbp)
    aeff:	74 51                	je     af52 <func_21+0x5ac>
    af01:	48 8b 05 18 d6 00 00 	mov    0xd618(%rip),%rax        # 18520 <g_1734+0x20>
    af08:	48 c1 e0 1b          	shl    $0x1b,%rax
    af0c:	48 c1 f8 33          	sar    $0x33,%rax
    af10:	66 85 c0             	test   %ax,%ax
    af13:	0f 94 c0             	sete   %al
    af16:	0f b6 d0             	movzbl %al,%edx
    af19:	0f be 85 ec f6 ff ff 	movsbl -0x914(%rbp),%eax
    af20:	09 c2                	or     %eax,%edx
    af22:	8b 05 f4 cd 00 00    	mov    0xcdf4(%rip),%eax        # 17d1c <g_829+0x1c>
    af28:	39 c2                	cmp    %eax,%edx
    af2a:	0f 9f c0             	setg   %al
    af2d:	0f b6 c0             	movzbl %al,%eax
    af30:	48 89 c7             	mov    %rax,%rdi
    af33:	e8 de d8 ff ff       	callq  8816 <safe_unary_minus_func_int64_t_s>
    af38:	0f b7 c0             	movzwl %ax,%eax
    af3b:	be 0b 00 00 00       	mov    $0xb,%esi
    af40:	89 c7                	mov    %eax,%edi
    af42:	e8 bf de ff ff       	callq  8e06 <safe_lshift_func_uint16_t_u_u>
    af47:	0f b7 c0             	movzwl %ax,%eax
    af4a:	25 09 1d 00 00       	and    $0x1d09,%eax
    af4f:	48 85 c0             	test   %rax,%rax
    af52:	80 bd ec f6 ff ff 01 	cmpb   $0x1,-0x914(%rbp)
    af59:	0f 9e c0             	setle  %al
    af5c:	0f b6 d0             	movzbl %al,%edx
    af5f:	0f be 85 ec f6 ff ff 	movsbl -0x914(%rbp),%eax
    af66:	39 c2                	cmp    %eax,%edx
    af68:	0f 95 c2             	setne  %dl
    af6b:	48 8b 05 fe e4 00 00 	mov    0xe4fe(%rip),%rax        # 19470 <g_245>
    af72:	88 10                	mov    %dl,(%rax)
    af74:	0f b6 00             	movzbl (%rax),%eax
    af77:	38 85 ec f6 ff ff    	cmp    %al,-0x914(%rbp)
    af7d:	0f 9f c0             	setg   %al
    af80:	89 c2                	mov    %eax,%edx
    af82:	48 8b 85 90 f7 ff ff 	mov    -0x870(%rbp),%rax
    af89:	88 10                	mov    %dl,(%rax)
    af8b:	48 8b 85 90 f7 ff ff 	mov    -0x870(%rbp),%rax
    af92:	0f b6 00             	movzbl (%rax),%eax
    af95:	0f b6 c0             	movzbl %al,%eax
    af98:	be fd 00 00 00       	mov    $0xfd,%esi
    af9d:	89 c7                	mov    %eax,%edi
    af9f:	e8 ef db ff ff       	callq  8b93 <safe_mul_func_uint8_t_u_u>
    afa4:	84 c0                	test   %al,%al
    afa6:	75 09                	jne    afb1 <func_21+0x60b>
    afa8:	80 bd ec f6 ff ff 00 	cmpb   $0x0,-0x914(%rbp)
    afaf:	74 07                	je     afb8 <func_21+0x612>
    afb1:	b8 01 00 00 00       	mov    $0x1,%eax
    afb6:	eb 05                	jmp    afbd <func_21+0x617>
    afb8:	b8 00 00 00 00       	mov    $0x0,%eax
    afbd:	44 39 e8             	cmp    %r13d,%eax
    afc0:	0f 9d c0             	setge  %al
    afc3:	0f b6 c0             	movzbl %al,%eax
    afc6:	be c3 ea 00 00       	mov    $0xeac3,%esi
    afcb:	89 c7                	mov    %eax,%edi
    afcd:	e8 bc dd ff ff       	callq  8d8e <safe_div_func_uint16_t_u_u>
    afd2:	0f b6 c0             	movzbl %al,%eax
    afd5:	44 89 e6             	mov    %r12d,%esi
    afd8:	89 c7                	mov    %eax,%edi
    afda:	e8 cf db ff ff       	callq  8bae <safe_mod_func_uint8_t_u_u>
    afdf:	0f b6 c0             	movzbl %al,%eax
    afe2:	89 85 3c f7 ff ff    	mov    %eax,-0x8c4(%rbp)
    afe8:	8b 95 3c f7 ff ff    	mov    -0x8c4(%rbp),%edx
    afee:	8b 05 70 ce 00 00    	mov    0xce70(%rip),%eax        # 17e64 <g_831+0x4>
    aff4:	39 c2                	cmp    %eax,%edx
    aff6:	74 32                	je     b02a <func_21+0x684>
    aff8:	0f b6 05 b2 cb 00 00 	movzbl 0xcbb2(%rip),%eax        # 17bb1 <g_583>
    afff:	0f b6 c0             	movzbl %al,%eax
    b002:	0f b6 15 a9 cb 00 00 	movzbl 0xcba9(%rip),%edx        # 17bb2 <g_583+0x1>
    b009:	0f b6 d2             	movzbl %dl,%edx
    b00c:	83 e2 1f             	and    $0x1f,%edx
    b00f:	48 c1 e2 08          	shl    $0x8,%rdx
    b013:	48 09 d0             	or     %rdx,%rax
    b016:	48 c1 e0 33          	shl    $0x33,%rax
    b01a:	48 c1 f8 33          	sar    $0x33,%rax
    b01e:	66 85 c0             	test   %ax,%ax
    b021:	74 07                	je     b02a <func_21+0x684>
    b023:	ba 01 00 00 00       	mov    $0x1,%edx
    b028:	eb 05                	jmp    b02f <func_21+0x689>
    b02a:	ba 00 00 00 00       	mov    $0x0,%edx
    b02f:	48 8b 85 98 f7 ff ff 	mov    -0x868(%rbp),%rax
    b036:	0f b7 00             	movzwl (%rax),%eax
    b039:	89 c1                	mov    %eax,%ecx
    b03b:	89 d0                	mov    %edx,%eax
    b03d:	31 c8                	xor    %ecx,%eax
    b03f:	89 c2                	mov    %eax,%edx
    b041:	48 8b 85 98 f7 ff ff 	mov    -0x868(%rbp),%rax
    b048:	66 89 10             	mov    %dx,(%rax)
    b04b:	48 8b 85 98 f7 ff ff 	mov    -0x868(%rbp),%rax
    b052:	0f b7 00             	movzwl (%rax),%eax
    b055:	0f b7 c0             	movzwl %ax,%eax
    b058:	89 de                	mov    %ebx,%esi
    b05a:	89 c7                	mov    %eax,%edi
    b05c:	e8 fb dc ff ff       	callq  8d5c <safe_mod_func_uint16_t_u_u>
    b061:	0f b7 d0             	movzwl %ax,%edx
    b064:	48 8b 85 60 f7 ff ff 	mov    -0x8a0(%rbp),%rax
    b06b:	89 10                	mov    %edx,(%rax)
    b06d:	48 8b 85 60 f7 ff ff 	mov    -0x8a0(%rbp),%rax
    b074:	8b 10                	mov    (%rax),%edx
    b076:	48 8b 85 a0 f7 ff ff 	mov    -0x860(%rbp),%rax
    b07d:	8b 00                	mov    (%rax),%eax
    b07f:	21 c2                	and    %eax,%edx
    b081:	48 8b 85 a0 f7 ff ff 	mov    -0x860(%rbp),%rax
    b088:	89 10                	mov    %edx,(%rax)
    b08a:	8b 05 b4 cb 00 00    	mov    0xcbb4(%rip),%eax        # 17c44 <g_825+0x4>
    b090:	83 c0 01             	add    $0x1,%eax
    b093:	89 05 ab cb 00 00    	mov    %eax,0xcbab(%rip)        # 17c44 <g_825+0x4>
    b099:	8b 05 a5 cb 00 00    	mov    0xcba5(%rip),%eax        # 17c44 <g_825+0x4>
    b09f:	83 f8 08             	cmp    $0x8,%eax
    b0a2:	0f 86 c1 fc ff ff    	jbe    ad69 <func_21+0x3c3>
    b0a8:	0f b7 05 f5 cb 00 00 	movzwl 0xcbf5(%rip),%eax        # 17ca4 <g_827+0x24>
    b0af:	c1 e0 07             	shl    $0x7,%eax
    b0b2:	66 c1 f8 07          	sar    $0x7,%ax
    b0b6:	48 8b 5d d8          	mov    -0x28(%rbp),%rbx
    b0ba:	64 48 33 1c 25 28 00 	xor    %fs:0x28,%rbx
    b0c1:	00 00 
    b0c3:	74 05                	je     b0ca <func_21+0x724>
    b0c5:	e8 a6 cf ff ff       	callq  8070 <__stack_chk_fail@plt>
    b0ca:	48 81 c4 08 09 00 00 	add    $0x908,%rsp
    b0d1:	5b                   	pop    %rbx
    b0d2:	41 5c                	pop    %r12
    b0d4:	41 5d                	pop    %r13
    b0d6:	5d                   	pop    %rbp
    b0d7:	c3                   	retq   

000000000000b0d8 <func_26>:
    b0d8:	f3 0f 1e fa          	endbr64 
    b0dc:	55                   	push   %rbp
    b0dd:	48 89 e5             	mov    %rsp,%rbp
    b0e0:	48 81 ec 30 01 00 00 	sub    $0x130,%rsp
    b0e7:	89 f8                	mov    %edi,%eax
    b0e9:	48 89 95 e0 fe ff ff 	mov    %rdx,-0x120(%rbp)
    b0f0:	89 8d dc fe ff ff    	mov    %ecx,-0x124(%rbp)
    b0f6:	66 89 85 ec fe ff ff 	mov    %ax,-0x114(%rbp)
    b0fd:	89 f0                	mov    %esi,%eax
    b0ff:	88 85 e8 fe ff ff    	mov    %al,-0x118(%rbp)
    b105:	64 48 8b 04 25 28 00 	mov    %fs:0x28,%rax
    b10c:	00 00 
    b10e:	48 89 45 f8          	mov    %rax,-0x8(%rbp)
    b112:	31 c0                	xor    %eax,%eax
    b114:	48 8d 85 00 ff ff ff 	lea    -0x100(%rbp),%rax
    b11b:	48 8d 15 9e 7f 00 00 	lea    0x7f9e(%rip),%rdx        # 130c0 <g_2031+0x18>
    b122:	b9 1e 00 00 00       	mov    $0x1e,%ecx
    b127:	48 89 c7             	mov    %rax,%rdi
    b12a:	48 89 d6             	mov    %rdx,%rsi
    b12d:	f3 48 a5             	rep movsq %ds:(%rsi),%es:(%rdi)
    b130:	48 89 f2             	mov    %rsi,%rdx
    b133:	48 89 f8             	mov    %rdi,%rax
    b136:	8b 0a                	mov    (%rdx),%ecx
    b138:	89 08                	mov    %ecx,(%rax)
    b13a:	48 8d 40 04          	lea    0x4(%rax),%rax
    b13e:	48 8d 52 04          	lea    0x4(%rdx),%rdx
    b142:	0f b6 0a             	movzbl (%rdx),%ecx
    b145:	88 08                	mov    %cl,(%rax)
    b147:	48 8d 40 01          	lea    0x1(%rax),%rax
    b14b:	48 8d 52 01          	lea    0x1(%rdx),%rdx
    b14f:	c7 85 f4 fe ff ff ff 	movl   $0xffffffff,-0x10c(%rbp)
    b156:	ff ff ff 
    b159:	c7 85 f0 fe ff ff 00 	movl   $0x0,-0x110(%rbp)
    b160:	00 00 00 
    b163:	eb 1e                	jmp    b183 <func_26+0xab>
    b165:	8b 85 f0 fe ff ff    	mov    -0x110(%rbp),%eax
    b16b:	48 98                	cltq   
    b16d:	48 8d 15 b0 be 00 00 	lea    0xbeb0(%rip),%rdx        # 17024 <g_2>
    b174:	48 89 94 c5 f8 fe ff 	mov    %rdx,-0x108(%rbp,%rax,8)
    b17b:	ff 
    b17c:	83 85 f0 fe ff ff 01 	addl   $0x1,-0x110(%rbp)
    b183:	83 bd f0 fe ff ff 00 	cmpl   $0x0,-0x110(%rbp)
    b18a:	7e d9                	jle    b165 <func_26+0x8d>
    b18c:	48 8b 05 4d fc 00 00 	mov    0xfc4d(%rip),%rax        # 1ade0 <g_1736>
    b193:	8b 15 8a d3 00 00    	mov    0xd38a(%rip),%edx        # 18523 <g_1734+0x23>
    b199:	89 10                	mov    %edx,(%rax)
    b19b:	0f b7 15 85 d3 00 00 	movzwl 0xd385(%rip),%edx        # 18527 <g_1734+0x27>
    b1a2:	66 89 50 04          	mov    %dx,0x4(%rax)
    b1a6:	0f b6 15 7c d3 00 00 	movzbl 0xd37c(%rip),%edx        # 18529 <g_1734+0x29>
    b1ad:	88 50 06             	mov    %dl,0x6(%rax)
    b1b0:	83 85 f4 fe ff ff 01 	addl   $0x1,-0x10c(%rbp)
    b1b7:	0f b7 85 ec fe ff ff 	movzwl -0x114(%rbp),%eax
    b1be:	48 8b 7d f8          	mov    -0x8(%rbp),%rdi
    b1c2:	64 48 33 3c 25 28 00 	xor    %fs:0x28,%rdi
    b1c9:	00 00 
    b1cb:	74 05                	je     b1d2 <func_26+0xfa>
    b1cd:	e8 9e ce ff ff       	callq  8070 <__stack_chk_fail@plt>
    b1d2:	c9                   	leaveq 
    b1d3:	c3                   	retq   

000000000000b1d4 <func_34>:
    b1d4:	f3 0f 1e fa          	endbr64 
    b1d8:	55                   	push   %rbp
    b1d9:	48 89 e5             	mov    %rsp,%rbp
    b1dc:	48 81 ec 50 05 00 00 	sub    $0x550,%rsp
    b1e3:	89 bd cc fa ff ff    	mov    %edi,-0x534(%rbp)
    b1e9:	48 89 b5 c0 fa ff ff 	mov    %rsi,-0x540(%rbp)
    b1f0:	89 d0                	mov    %edx,%eax
    b1f2:	48 89 8d b8 fa ff ff 	mov    %rcx,-0x548(%rbp)
    b1f9:	4c 89 85 b0 fa ff ff 	mov    %r8,-0x550(%rbp)
    b200:	88 85 c8 fa ff ff    	mov    %al,-0x538(%rbp)
    b206:	64 48 8b 04 25 28 00 	mov    %fs:0x28,%rax
    b20d:	00 00 
    b20f:	48 89 45 f8          	mov    %rax,-0x8(%rbp)
    b213:	31 c0                	xor    %eax,%eax
    b215:	48 8d 05 24 09 01 00 	lea    0x10924(%rip),%rax        # 1bb40 <g_1092>
    b21c:	48 89 85 08 fb ff ff 	mov    %rax,-0x4f8(%rbp)
    b223:	c7 85 e4 fa ff ff 00 	movl   $0x0,-0x51c(%rbp)
    b22a:	00 00 00 
    b22d:	48 8d 85 a0 fe ff ff 	lea    -0x160(%rbp),%rax
    b234:	48 8d 15 c5 e0 00 00 	lea    0xe0c5(%rip),%rdx        # 19300 <g_2160+0xbda>
    b23b:	b9 2a 00 00 00       	mov    $0x2a,%ecx
    b240:	48 89 c7             	mov    %rax,%rdi
    b243:	48 89 d6             	mov    %rdx,%rsi
    b246:	f3 48 a5             	rep movsq %ds:(%rsi),%es:(%rdi)
    b249:	48 8d 95 e0 fb ff ff 	lea    -0x420(%rbp),%rdx
    b250:	b8 00 00 00 00       	mov    $0x0,%eax
    b255:	b9 0e 00 00 00       	mov    $0xe,%ecx
    b25a:	48 89 d7             	mov    %rdx,%rdi
    b25d:	f3 48 ab             	rep stos %rax,%es:(%rdi)
    b260:	c7 85 e8 fa ff ff 0a 	movl   $0xf537340a,-0x518(%rbp)
    b267:	34 37 f5 
    b26a:	c6 85 d1 fa ff ff c8 	movb   $0xc8,-0x52f(%rbp)
    b271:	c7 85 50 fb ff ff f8 	movl   $0x39a6c5f8,-0x4b0(%rbp)
    b278:	c5 a6 39 
    b27b:	c7 85 54 fb ff ff f8 	movl   $0x39a6c5f8,-0x4ac(%rbp)
    b282:	c5 a6 39 
    b285:	c7 85 58 fb ff ff f8 	movl   $0x39a6c5f8,-0x4a8(%rbp)
    b28c:	c5 a6 39 
    b28f:	c7 85 5c fb ff ff f8 	movl   $0x39a6c5f8,-0x4a4(%rbp)
    b296:	c5 a6 39 
    b299:	48 8d 05 b8 08 01 00 	lea    0x108b8(%rip),%rax        # 1bb58 <g_1261>
    b2a0:	48 89 85 10 fb ff ff 	mov    %rax,-0x4f0(%rbp)
    b2a7:	48 8d 05 0e c0 00 00 	lea    0xc00e(%rip),%rax        # 172bc <g_377+0x1c>
    b2ae:	48 89 85 50 fc ff ff 	mov    %rax,-0x3b0(%rbp)
    b2b5:	48 8d 05 80 d0 00 00 	lea    0xd080(%rip),%rax        # 1833c <g_1122+0x1c>
    b2bc:	48 89 85 58 fc ff ff 	mov    %rax,-0x3a8(%rbp)
    b2c3:	48 8d 05 72 d0 00 00 	lea    0xd072(%rip),%rax        # 1833c <g_1122+0x1c>
    b2ca:	48 89 85 60 fc ff ff 	mov    %rax,-0x3a0(%rbp)
    b2d1:	48 8d 05 e4 bf 00 00 	lea    0xbfe4(%rip),%rax        # 172bc <g_377+0x1c>
    b2d8:	48 89 85 68 fc ff ff 	mov    %rax,-0x398(%rbp)
    b2df:	48 8d 05 d6 bf 00 00 	lea    0xbfd6(%rip),%rax        # 172bc <g_377+0x1c>
    b2e6:	48 89 85 70 fc ff ff 	mov    %rax,-0x390(%rbp)
    b2ed:	48 8d 05 48 d0 00 00 	lea    0xd048(%rip),%rax        # 1833c <g_1122+0x1c>
    b2f4:	48 89 85 78 fc ff ff 	mov    %rax,-0x388(%rbp)
    b2fb:	48 8d 05 3a d0 00 00 	lea    0xd03a(%rip),%rax        # 1833c <g_1122+0x1c>
    b302:	48 89 85 80 fc ff ff 	mov    %rax,-0x380(%rbp)
    b309:	48 8d 05 ac bf 00 00 	lea    0xbfac(%rip),%rax        # 172bc <g_377+0x1c>
    b310:	48 89 85 88 fc ff ff 	mov    %rax,-0x378(%rbp)
    b317:	48 8d 05 9e bf 00 00 	lea    0xbf9e(%rip),%rax        # 172bc <g_377+0x1c>
    b31e:	48 89 85 90 fc ff ff 	mov    %rax,-0x370(%rbp)
    b325:	48 8d 05 10 d0 00 00 	lea    0xd010(%rip),%rax        # 1833c <g_1122+0x1c>
    b32c:	48 89 85 98 fc ff ff 	mov    %rax,-0x368(%rbp)
    b333:	48 8d 05 82 bf 00 00 	lea    0xbf82(%rip),%rax        # 172bc <g_377+0x1c>
    b33a:	48 89 85 a0 fc ff ff 	mov    %rax,-0x360(%rbp)
    b341:	48 8d 05 74 bf 00 00 	lea    0xbf74(%rip),%rax        # 172bc <g_377+0x1c>
    b348:	48 89 85 a8 fc ff ff 	mov    %rax,-0x358(%rbp)
    b34f:	48 8d 05 e6 cf 00 00 	lea    0xcfe6(%rip),%rax        # 1833c <g_1122+0x1c>
    b356:	48 89 85 b0 fc ff ff 	mov    %rax,-0x350(%rbp)
    b35d:	48 8d 05 d8 cf 00 00 	lea    0xcfd8(%rip),%rax        # 1833c <g_1122+0x1c>
    b364:	48 89 85 b8 fc ff ff 	mov    %rax,-0x348(%rbp)
    b36b:	48 8d 05 4a bf 00 00 	lea    0xbf4a(%rip),%rax        # 172bc <g_377+0x1c>
    b372:	48 89 85 c0 fc ff ff 	mov    %rax,-0x340(%rbp)
    b379:	48 8d 05 3c bf 00 00 	lea    0xbf3c(%rip),%rax        # 172bc <g_377+0x1c>
    b380:	48 89 85 c8 fc ff ff 	mov    %rax,-0x338(%rbp)
    b387:	48 8d 05 ae cf 00 00 	lea    0xcfae(%rip),%rax        # 1833c <g_1122+0x1c>
    b38e:	48 89 85 d0 fc ff ff 	mov    %rax,-0x330(%rbp)
    b395:	48 8d 05 a0 cf 00 00 	lea    0xcfa0(%rip),%rax        # 1833c <g_1122+0x1c>
    b39c:	48 89 85 d8 fc ff ff 	mov    %rax,-0x328(%rbp)
    b3a3:	48 8d 05 12 bf 00 00 	lea    0xbf12(%rip),%rax        # 172bc <g_377+0x1c>
    b3aa:	48 89 85 e0 fc ff ff 	mov    %rax,-0x320(%rbp)
    b3b1:	48 8d 05 04 bf 00 00 	lea    0xbf04(%rip),%rax        # 172bc <g_377+0x1c>
    b3b8:	48 89 85 e8 fc ff ff 	mov    %rax,-0x318(%rbp)
    b3bf:	c7 85 d4 fa ff ff 06 	movl   $0xeac64f06,-0x52c(%rbp)
    b3c6:	4f c6 ea 
    b3c9:	66 c7 85 d2 fa ff ff 	movw   $0xcb25,-0x52e(%rbp)
    b3d0:	25 cb 
    b3d2:	48 8d 05 8f f7 00 00 	lea    0xf78f(%rip),%rax        # 1ab68 <g_1091>
    b3d9:	48 89 85 00 fb ff ff 	mov    %rax,-0x500(%rbp)
    b3e0:	48 8d 85 00 fb ff ff 	lea    -0x500(%rbp),%rax
    b3e7:	48 89 85 18 fb ff ff 	mov    %rax,-0x4e8(%rbp)
    b3ee:	66 c7 85 f0 fc ff ff 	movw   $0xfffd,-0x310(%rbp)
    b3f5:	fd ff 
    b3f7:	66 c7 85 f2 fc ff ff 	movw   $0x84e6,-0x30e(%rbp)
    b3fe:	e6 84 
    b400:	66 c7 85 f4 fc ff ff 	movw   $0x8,-0x30c(%rbp)
    b407:	08 00 
    b409:	66 c7 85 f6 fc ff ff 	movw   $0xfffd,-0x30a(%rbp)
    b410:	fd ff 
    b412:	66 c7 85 f8 fc ff ff 	movw   $0xfffd,-0x308(%rbp)
    b419:	fd ff 
    b41b:	66 c7 85 fa fc ff ff 	movw   $0x8,-0x306(%rbp)
    b422:	08 00 
    b424:	66 c7 85 fc fc ff ff 	movw   $0x84e6,-0x304(%rbp)
    b42b:	e6 84 
    b42d:	66 c7 85 fe fc ff ff 	movw   $0xfffd,-0x302(%rbp)
    b434:	fd ff 
    b436:	66 c7 85 00 fd ff ff 	movw   $0x3074,-0x300(%rbp)
    b43d:	74 30 
    b43f:	66 c7 85 02 fd ff ff 	movw   $0x84e6,-0x2fe(%rbp)
    b446:	e6 84 
    b448:	66 c7 85 04 fd ff ff 	movw   $0xfffd,-0x2fc(%rbp)
    b44f:	fd ff 
    b451:	66 c7 85 06 fd ff ff 	movw   $0x3074,-0x2fa(%rbp)
    b458:	74 30 
    b45a:	66 c7 85 08 fd ff ff 	movw   $0xfffd,-0x2f8(%rbp)
    b461:	fd ff 
    b463:	66 c7 85 0a fd ff ff 	movw   $0xfffd,-0x2f6(%rbp)
    b46a:	fd ff 
    b46c:	66 c7 85 0c fd ff ff 	movw   $0xfffd,-0x2f4(%rbp)
    b473:	fd ff 
    b475:	66 c7 85 0e fd ff ff 	movw   $0xfffd,-0x2f2(%rbp)
    b47c:	fd ff 
    b47e:	66 c7 85 10 fd ff ff 	movw   $0xfffd,-0x2f0(%rbp)
    b485:	fd ff 
    b487:	66 c7 85 12 fd ff ff 	movw   $0xfffd,-0x2ee(%rbp)
    b48e:	fd ff 
    b490:	66 c7 85 14 fd ff ff 	movw   $0xfffd,-0x2ec(%rbp)
    b497:	fd ff 
    b499:	66 c7 85 16 fd ff ff 	movw   $0xfffd,-0x2ea(%rbp)
    b4a0:	fd ff 
    b4a2:	66 c7 85 18 fd ff ff 	movw   $0x3074,-0x2e8(%rbp)
    b4a9:	74 30 
    b4ab:	66 c7 85 1a fd ff ff 	movw   $0xfffd,-0x2e6(%rbp)
    b4b2:	fd ff 
    b4b4:	66 c7 85 1c fd ff ff 	movw   $0x84e6,-0x2e4(%rbp)
    b4bb:	e6 84 
    b4bd:	66 c7 85 1e fd ff ff 	movw   $0x3074,-0x2e2(%rbp)
    b4c4:	74 30 
    b4c6:	66 c7 85 20 fd ff ff 	movw   $0xfffd,-0x2e0(%rbp)
    b4cd:	fd ff 
    b4cf:	66 c7 85 22 fd ff ff 	movw   $0x84e6,-0x2de(%rbp)
    b4d6:	e6 84 
    b4d8:	66 c7 85 24 fd ff ff 	movw   $0x8,-0x2dc(%rbp)
    b4df:	08 00 
    b4e1:	66 c7 85 26 fd ff ff 	movw   $0xfffd,-0x2da(%rbp)
    b4e8:	fd ff 
    b4ea:	66 c7 85 28 fd ff ff 	movw   $0xfffd,-0x2d8(%rbp)
    b4f1:	fd ff 
    b4f3:	66 c7 85 2a fd ff ff 	movw   $0x8,-0x2d6(%rbp)
    b4fa:	08 00 
    b4fc:	66 c7 85 2c fd ff ff 	movw   $0x84e6,-0x2d4(%rbp)
    b503:	e6 84 
    b505:	66 c7 85 2e fd ff ff 	movw   $0xfffd,-0x2d2(%rbp)
    b50c:	fd ff 
    b50e:	66 c7 85 30 fd ff ff 	movw   $0x3074,-0x2d0(%rbp)
    b515:	74 30 
    b517:	66 c7 85 32 fd ff ff 	movw   $0x84e6,-0x2ce(%rbp)
    b51e:	e6 84 
    b520:	66 c7 85 34 fd ff ff 	movw   $0xfffd,-0x2cc(%rbp)
    b527:	fd ff 
    b529:	66 c7 85 36 fd ff ff 	movw   $0x3074,-0x2ca(%rbp)
    b530:	74 30 
    b532:	66 c7 85 38 fd ff ff 	movw   $0xfffd,-0x2c8(%rbp)
    b539:	fd ff 
    b53b:	66 c7 85 3a fd ff ff 	movw   $0xfffd,-0x2c6(%rbp)
    b542:	fd ff 
    b544:	66 c7 85 3c fd ff ff 	movw   $0xfffd,-0x2c4(%rbp)
    b54b:	fd ff 
    b54d:	66 c7 85 3e fd ff ff 	movw   $0xfffd,-0x2c2(%rbp)
    b554:	fd ff 
    b556:	66 c7 85 40 fd ff ff 	movw   $0xfffd,-0x2c0(%rbp)
    b55d:	fd ff 
    b55f:	66 c7 85 42 fd ff ff 	movw   $0xfffd,-0x2be(%rbp)
    b566:	fd ff 
    b568:	66 c7 85 44 fd ff ff 	movw   $0xfffd,-0x2bc(%rbp)
    b56f:	fd ff 
    b571:	66 c7 85 46 fd ff ff 	movw   $0xfffd,-0x2ba(%rbp)
    b578:	fd ff 
    b57a:	66 c7 85 48 fd ff ff 	movw   $0x3074,-0x2b8(%rbp)
    b581:	74 30 
    b583:	66 c7 85 4a fd ff ff 	movw   $0xfffd,-0x2b6(%rbp)
    b58a:	fd ff 
    b58c:	66 c7 85 4c fd ff ff 	movw   $0x84e6,-0x2b4(%rbp)
    b593:	e6 84 
    b595:	66 c7 85 4e fd ff ff 	movw   $0x3074,-0x2b2(%rbp)
    b59c:	74 30 
    b59e:	66 c7 85 50 fd ff ff 	movw   $0xfffd,-0x2b0(%rbp)
    b5a5:	fd ff 
    b5a7:	66 c7 85 52 fd ff ff 	movw   $0x84e6,-0x2ae(%rbp)
    b5ae:	e6 84 
    b5b0:	66 c7 85 54 fd ff ff 	movw   $0x8,-0x2ac(%rbp)
    b5b7:	08 00 
    b5b9:	66 c7 85 56 fd ff ff 	movw   $0xfffd,-0x2aa(%rbp)
    b5c0:	fd ff 
    b5c2:	66 c7 85 58 fd ff ff 	movw   $0xfffd,-0x2a8(%rbp)
    b5c9:	fd ff 
    b5cb:	66 c7 85 5a fd ff ff 	movw   $0x8,-0x2a6(%rbp)
    b5d2:	08 00 
    b5d4:	66 c7 85 5c fd ff ff 	movw   $0x84e6,-0x2a4(%rbp)
    b5db:	e6 84 
    b5dd:	66 c7 85 5e fd ff ff 	movw   $0xfffd,-0x2a2(%rbp)
    b5e4:	fd ff 
    b5e6:	66 c7 85 60 fd ff ff 	movw   $0x3074,-0x2a0(%rbp)
    b5ed:	74 30 
    b5ef:	66 c7 85 62 fd ff ff 	movw   $0x84e6,-0x29e(%rbp)
    b5f6:	e6 84 
    b5f8:	66 c7 85 64 fd ff ff 	movw   $0xfffd,-0x29c(%rbp)
    b5ff:	fd ff 
    b601:	66 c7 85 66 fd ff ff 	movw   $0x3074,-0x29a(%rbp)
    b608:	74 30 
    b60a:	66 c7 85 68 fd ff ff 	movw   $0xfffd,-0x298(%rbp)
    b611:	fd ff 
    b613:	66 c7 85 6a fd ff ff 	movw   $0xfffd,-0x296(%rbp)
    b61a:	fd ff 
    b61c:	66 c7 85 6c fd ff ff 	movw   $0xfffd,-0x294(%rbp)
    b623:	fd ff 
    b625:	66 c7 85 6e fd ff ff 	movw   $0xfffd,-0x292(%rbp)
    b62c:	fd ff 
    b62e:	66 c7 85 70 fd ff ff 	movw   $0xfffd,-0x290(%rbp)
    b635:	fd ff 
    b637:	66 c7 85 72 fd ff ff 	movw   $0xfffd,-0x28e(%rbp)
    b63e:	fd ff 
    b640:	66 c7 85 74 fd ff ff 	movw   $0xfffd,-0x28c(%rbp)
    b647:	fd ff 
    b649:	66 c7 85 76 fd ff ff 	movw   $0xfffd,-0x28a(%rbp)
    b650:	fd ff 
    b652:	66 c7 85 78 fd ff ff 	movw   $0x3074,-0x288(%rbp)
    b659:	74 30 
    b65b:	66 c7 85 7a fd ff ff 	movw   $0xfffd,-0x286(%rbp)
    b662:	fd ff 
    b664:	66 c7 85 7c fd ff ff 	movw   $0x84e6,-0x284(%rbp)
    b66b:	e6 84 
    b66d:	66 c7 85 7e fd ff ff 	movw   $0x3074,-0x282(%rbp)
    b674:	74 30 
    b676:	66 c7 85 80 fd ff ff 	movw   $0xfffd,-0x280(%rbp)
    b67d:	fd ff 
    b67f:	66 c7 85 82 fd ff ff 	movw   $0x84e6,-0x27e(%rbp)
    b686:	e6 84 
    b688:	66 c7 85 84 fd ff ff 	movw   $0x8,-0x27c(%rbp)
    b68f:	08 00 
    b691:	66 c7 85 86 fd ff ff 	movw   $0xfffd,-0x27a(%rbp)
    b698:	fd ff 
    b69a:	66 c7 85 88 fd ff ff 	movw   $0xfffd,-0x278(%rbp)
    b6a1:	fd ff 
    b6a3:	66 c7 85 8a fd ff ff 	movw   $0x8,-0x276(%rbp)
    b6aa:	08 00 
    b6ac:	66 c7 85 8c fd ff ff 	movw   $0x84e6,-0x274(%rbp)
    b6b3:	e6 84 
    b6b5:	66 c7 85 8e fd ff ff 	movw   $0xfffd,-0x272(%rbp)
    b6bc:	fd ff 
    b6be:	66 c7 85 90 fd ff ff 	movw   $0x3074,-0x270(%rbp)
    b6c5:	74 30 
    b6c7:	66 c7 85 92 fd ff ff 	movw   $0x84e6,-0x26e(%rbp)
    b6ce:	e6 84 
    b6d0:	66 c7 85 94 fd ff ff 	movw   $0xfffd,-0x26c(%rbp)
    b6d7:	fd ff 
    b6d9:	66 c7 85 96 fd ff ff 	movw   $0x3074,-0x26a(%rbp)
    b6e0:	74 30 
    b6e2:	66 c7 85 98 fd ff ff 	movw   $0xfffd,-0x268(%rbp)
    b6e9:	fd ff 
    b6eb:	66 c7 85 9a fd ff ff 	movw   $0xfffd,-0x266(%rbp)
    b6f2:	fd ff 
    b6f4:	66 c7 85 9c fd ff ff 	movw   $0xfffd,-0x264(%rbp)
    b6fb:	fd ff 
    b6fd:	66 c7 85 9e fd ff ff 	movw   $0xfffd,-0x262(%rbp)
    b704:	fd ff 
    b706:	66 c7 85 a0 fd ff ff 	movw   $0xfffd,-0x260(%rbp)
    b70d:	fd ff 
    b70f:	66 c7 85 a2 fd ff ff 	movw   $0xfffd,-0x25e(%rbp)
    b716:	fd ff 
    b718:	66 c7 85 a4 fd ff ff 	movw   $0xfffd,-0x25c(%rbp)
    b71f:	fd ff 
    b721:	66 c7 85 a6 fd ff ff 	movw   $0xfffd,-0x25a(%rbp)
    b728:	fd ff 
    b72a:	66 c7 85 a8 fd ff ff 	movw   $0x3074,-0x258(%rbp)
    b731:	74 30 
    b733:	66 c7 85 aa fd ff ff 	movw   $0xfffd,-0x256(%rbp)
    b73a:	fd ff 
    b73c:	66 c7 85 ac fd ff ff 	movw   $0x84e6,-0x254(%rbp)
    b743:	e6 84 
    b745:	66 c7 85 ae fd ff ff 	movw   $0x3074,-0x252(%rbp)
    b74c:	74 30 
    b74e:	48 8d 05 6b ba 00 00 	lea    0xba6b(%rip),%rax        # 171c0 <g_91+0x60>
    b755:	48 89 85 20 fb ff ff 	mov    %rax,-0x4e0(%rbp)
    b75c:	48 8d 05 51 bb 00 00 	lea    0xbb51(%rip),%rax        # 172b4 <g_377+0x14>
    b763:	48 89 85 28 fb ff ff 	mov    %rax,-0x4d8(%rbp)
    b76a:	c7 85 ec fa ff ff 1c 	movl   $0x5639241c,-0x514(%rbp)
    b771:	24 39 56 
    b774:	c7 85 d8 fa ff ff 00 	movl   $0x0,-0x528(%rbp)
    b77b:	00 00 00 
    b77e:	eb 1e                	jmp    b79e <func_34+0x5ca>
    b780:	8b 85 d8 fa ff ff    	mov    -0x528(%rbp),%eax
    b786:	48 98                	cltq   
    b788:	48 8d 15 45 ba 00 00 	lea    0xba45(%rip),%rdx        # 171d4 <g_91+0x74>
    b78f:	48 89 94 c5 a0 fb ff 	mov    %rdx,-0x460(%rbp,%rax,8)
    b796:	ff 
    b797:	83 85 d8 fa ff ff 01 	addl   $0x1,-0x528(%rbp)
    b79e:	83 bd d8 fa ff ff 06 	cmpl   $0x6,-0x528(%rbp)
    b7a5:	7e d9                	jle    b780 <func_34+0x5ac>
    b7a7:	c7 05 c3 c6 00 00 00 	movl   $0x0,0xc6c3(%rip)        # 17e74 <g_831+0x14>
    b7ae:	00 00 00 
    b7b1:	e9 8a 02 00 00       	jmpq   ba40 <func_34+0x86c>
    b7b6:	c7 85 f0 fa ff ff 04 	movl   $0x4,-0x510(%rbp)
    b7bd:	00 00 00 
    b7c0:	48 8d 05 d9 ba 00 00 	lea    0xbad9(%rip),%rax        # 172a0 <g_377>
    b7c7:	48 89 85 b0 fd ff ff 	mov    %rax,-0x250(%rbp)
    b7ce:	48 8d 05 cb ba 00 00 	lea    0xbacb(%rip),%rax        # 172a0 <g_377>
    b7d5:	48 89 85 b8 fd ff ff 	mov    %rax,-0x248(%rbp)
    b7dc:	48 8d 05 9d c4 00 00 	lea    0xc49d(%rip),%rax        # 17c80 <g_827>
    b7e3:	48 89 85 c0 fd ff ff 	mov    %rax,-0x240(%rbp)
    b7ea:	48 8d 05 af ba 00 00 	lea    0xbaaf(%rip),%rax        # 172a0 <g_377>
    b7f1:	48 89 85 c8 fd ff ff 	mov    %rax,-0x238(%rbp)
    b7f8:	48 8d 05 a1 ba 00 00 	lea    0xbaa1(%rip),%rax        # 172a0 <g_377>
    b7ff:	48 89 85 d0 fd ff ff 	mov    %rax,-0x230(%rbp)
    b806:	48 8d 05 73 c4 00 00 	lea    0xc473(%rip),%rax        # 17c80 <g_827>
    b80d:	48 89 85 d8 fd ff ff 	mov    %rax,-0x228(%rbp)
    b814:	48 8d 05 85 ba 00 00 	lea    0xba85(%rip),%rax        # 172a0 <g_377>
    b81b:	48 89 85 e0 fd ff ff 	mov    %rax,-0x220(%rbp)
    b822:	48 8d 05 77 ba 00 00 	lea    0xba77(%rip),%rax        # 172a0 <g_377>
    b829:	48 89 85 e8 fd ff ff 	mov    %rax,-0x218(%rbp)
    b830:	48 8d 05 49 c4 00 00 	lea    0xc449(%rip),%rax        # 17c80 <g_827>
    b837:	48 89 85 f0 fd ff ff 	mov    %rax,-0x210(%rbp)
    b83e:	48 8d 05 5b ba 00 00 	lea    0xba5b(%rip),%rax        # 172a0 <g_377>
    b845:	48 89 85 f8 fd ff ff 	mov    %rax,-0x208(%rbp)
    b84c:	48 8d 05 4d ba 00 00 	lea    0xba4d(%rip),%rax        # 172a0 <g_377>
    b853:	48 89 85 00 fe ff ff 	mov    %rax,-0x200(%rbp)
    b85a:	48 c7 85 08 fe ff ff 	movq   $0x0,-0x1f8(%rbp)
    b861:	00 00 00 00 
    b865:	48 8d 05 14 c4 00 00 	lea    0xc414(%rip),%rax        # 17c80 <g_827>
    b86c:	48 89 85 10 fe ff ff 	mov    %rax,-0x1f0(%rbp)
    b873:	48 8d 05 06 c4 00 00 	lea    0xc406(%rip),%rax        # 17c80 <g_827>
    b87a:	48 89 85 18 fe ff ff 	mov    %rax,-0x1e8(%rbp)
    b881:	48 c7 85 20 fe ff ff 	movq   $0x0,-0x1e0(%rbp)
    b888:	00 00 00 00 
    b88c:	48 8d 05 ed c3 00 00 	lea    0xc3ed(%rip),%rax        # 17c80 <g_827>
    b893:	48 89 85 28 fe ff ff 	mov    %rax,-0x1d8(%rbp)
    b89a:	48 8d 05 df c3 00 00 	lea    0xc3df(%rip),%rax        # 17c80 <g_827>
    b8a1:	48 89 85 30 fe ff ff 	mov    %rax,-0x1d0(%rbp)
    b8a8:	48 c7 85 38 fe ff ff 	movq   $0x0,-0x1c8(%rbp)
    b8af:	00 00 00 00 
    b8b3:	48 8d 05 c6 c3 00 00 	lea    0xc3c6(%rip),%rax        # 17c80 <g_827>
    b8ba:	48 89 85 40 fe ff ff 	mov    %rax,-0x1c0(%rbp)
    b8c1:	48 8d 05 b8 c3 00 00 	lea    0xc3b8(%rip),%rax        # 17c80 <g_827>
    b8c8:	48 89 85 48 fe ff ff 	mov    %rax,-0x1b8(%rbp)
    b8cf:	48 c7 85 50 fe ff ff 	movq   $0x0,-0x1b0(%rbp)
    b8d6:	00 00 00 00 
    b8da:	48 8d 05 9f c3 00 00 	lea    0xc39f(%rip),%rax        # 17c80 <g_827>
    b8e1:	48 89 85 58 fe ff ff 	mov    %rax,-0x1a8(%rbp)
    b8e8:	48 8d 05 91 c3 00 00 	lea    0xc391(%rip),%rax        # 17c80 <g_827>
    b8ef:	48 89 85 60 fe ff ff 	mov    %rax,-0x1a0(%rbp)
    b8f6:	48 c7 85 68 fe ff ff 	movq   $0x0,-0x198(%rbp)
    b8fd:	00 00 00 00 
    b901:	48 8d 05 78 c3 00 00 	lea    0xc378(%rip),%rax        # 17c80 <g_827>
    b908:	48 89 85 70 fe ff ff 	mov    %rax,-0x190(%rbp)
    b90f:	48 8d 05 6a c3 00 00 	lea    0xc36a(%rip),%rax        # 17c80 <g_827>
    b916:	48 89 85 78 fe ff ff 	mov    %rax,-0x188(%rbp)
    b91d:	48 c7 85 80 fe ff ff 	movq   $0x0,-0x180(%rbp)
    b924:	00 00 00 00 
    b928:	48 8d 05 51 c3 00 00 	lea    0xc351(%rip),%rax        # 17c80 <g_827>
    b92f:	48 89 85 88 fe ff ff 	mov    %rax,-0x178(%rbp)
    b936:	48 8d 05 43 c3 00 00 	lea    0xc343(%rip),%rax        # 17c80 <g_827>
    b93d:	48 89 85 90 fe ff ff 	mov    %rax,-0x170(%rbp)
    b944:	48 c7 85 98 fe ff ff 	movq   $0x0,-0x168(%rbp)
    b94b:	00 00 00 00 
    b94f:	c7 85 f4 fa ff ff a2 	movl   $0xef13f1a2,-0x50c(%rbp)
    b956:	f1 13 ef 
    b959:	c7 85 f8 fa ff ff ff 	movl   $0xffffffff,-0x508(%rbp)
    b960:	ff ff ff 
    b963:	c7 85 fc fa ff ff 01 	movl   $0x1,-0x504(%rbp)
    b96a:	00 00 00 
    b96d:	48 8d 05 74 c2 00 00 	lea    0xc274(%rip),%rax        # 17be8 <g_795>
    b974:	48 89 85 30 fb ff ff 	mov    %rax,-0x4d0(%rbp)
    b97b:	48 c7 85 38 fb ff ff 	movq   $0x0,-0x4c8(%rbp)
    b982:	00 00 00 00 
    b986:	48 c7 85 40 fb ff ff 	movq   $0x0,-0x4c0(%rbp)
    b98d:	00 00 00 00 
    b991:	48 c7 85 48 fb ff ff 	movq   $0x0,-0x4b8(%rbp)
    b998:	00 00 00 00 
    b99c:	c7 85 dc fa ff ff 00 	movl   $0x0,-0x524(%rbp)
    b9a3:	00 00 00 
    b9a6:	eb 1a                	jmp    b9c2 <func_34+0x7ee>
    b9a8:	8b 85 dc fa ff ff    	mov    -0x524(%rbp),%eax
    b9ae:	48 98                	cltq   
    b9b0:	c7 84 85 80 fb ff ff 	movl   $0xfffffff9,-0x480(%rbp,%rax,4)
    b9b7:	f9 ff ff ff 
    b9bb:	83 85 dc fa ff ff 01 	addl   $0x1,-0x524(%rbp)
    b9c2:	83 bd dc fa ff ff 06 	cmpl   $0x6,-0x524(%rbp)
    b9c9:	7e dd                	jle    b9a8 <func_34+0x7d4>
    b9cb:	c7 85 dc fa ff ff 00 	movl   $0x0,-0x524(%rbp)
    b9d2:	00 00 00 
    b9d5:	eb 42                	jmp    ba19 <func_34+0x845>
    b9d7:	c7 85 e0 fa ff ff 00 	movl   $0x0,-0x520(%rbp)
    b9de:	00 00 00 
    b9e1:	eb 26                	jmp    ba09 <func_34+0x835>
    b9e3:	8b 85 e0 fa ff ff    	mov    -0x520(%rbp),%eax
    b9e9:	48 63 d0             	movslq %eax,%rdx
    b9ec:	8b 85 dc fa ff ff    	mov    -0x524(%rbp),%eax
    b9f2:	48 98                	cltq   
    b9f4:	48 01 d0             	add    %rdx,%rax
    b9f7:	c7 84 85 60 fb ff ff 	movl   $0x3,-0x4a0(%rbp,%rax,4)
    b9fe:	03 00 00 00 
    ba02:	83 85 e0 fa ff ff 01 	addl   $0x1,-0x520(%rbp)
    ba09:	83 bd e0 fa ff ff 00 	cmpl   $0x0,-0x520(%rbp)
    ba10:	7e d1                	jle    b9e3 <func_34+0x80f>
    ba12:	83 85 dc fa ff ff 01 	addl   $0x1,-0x524(%rbp)
    ba19:	83 bd dc fa ff ff 04 	cmpl   $0x4,-0x524(%rbp)
    ba20:	7e b5                	jle    b9d7 <func_34+0x803>
    ba22:	8b 05 4c c4 00 00    	mov    0xc44c(%rip),%eax        # 17e74 <g_831+0x14>
    ba28:	0f be c0             	movsbl %al,%eax
    ba2b:	be 01 00 00 00       	mov    $0x1,%esi
    ba30:	89 c7                	mov    %eax,%edi
    ba32:	e8 bb c7 ff ff       	callq  81f2 <safe_sub_func_int8_t_s_s>
    ba37:	0f be c0             	movsbl %al,%eax
    ba3a:	89 05 34 c4 00 00    	mov    %eax,0xc434(%rip)        # 17e74 <g_831+0x14>
    ba40:	8b 05 2e c4 00 00    	mov    0xc42e(%rip),%eax        # 17e74 <g_831+0x14>
    ba46:	83 f8 fb             	cmp    $0xfffffffb,%eax
    ba49:	0f 8c 67 fd ff ff    	jl     b7b6 <func_34+0x5e2>
    ba4f:	83 85 ec fa ff ff 01 	addl   $0x1,-0x514(%rbp)
    ba56:	48 8b 85 28 fb ff ff 	mov    -0x4d8(%rbp),%rax
    ba5d:	8b 00                	mov    (%rax),%eax
    ba5f:	48 8b 75 f8          	mov    -0x8(%rbp),%rsi
    ba63:	64 48 33 34 25 28 00 	xor    %fs:0x28,%rsi
    ba6a:	00 00 
    ba6c:	74 05                	je     ba73 <func_34+0x89f>
    ba6e:	e8 fd c5 ff ff       	callq  8070 <__stack_chk_fail@plt>
    ba73:	c9                   	leaveq 
    ba74:	c3                   	retq   

000000000000ba75 <func_44>:
    ba75:	f3 0f 1e fa          	endbr64 
    ba79:	55                   	push   %rbp
    ba7a:	48 89 e5             	mov    %rsp,%rbp
    ba7d:	89 7d ec             	mov    %edi,-0x14(%rbp)
    ba80:	89 75 e8             	mov    %esi,-0x18(%rbp)
    ba83:	89 55 e4             	mov    %edx,-0x1c(%rbp)
    ba86:	48 89 4d d8          	mov    %rcx,-0x28(%rbp)
    ba8a:	44 89 45 e0          	mov    %r8d,-0x20(%rbp)
    ba8e:	48 b8 77 4f ac ed 82 	movabs $0x8406cd82edac4f77,%rax
    ba95:	cd 06 84 
    ba98:	48 89 45 f8          	mov    %rax,-0x8(%rbp)
    ba9c:	48 8b 45 f8          	mov    -0x8(%rbp),%rax
    baa0:	5d                   	pop    %rbp
    baa1:	c3                   	retq   

000000000000baa2 <func_50>:
    baa2:	f3 0f 1e fa          	endbr64 
    baa6:	55                   	push   %rbp
    baa7:	48 89 e5             	mov    %rsp,%rbp
    baaa:	41 54                	push   %r12
    baac:	53                   	push   %rbx
    baad:	48 83 c4 80          	add    $0xffffffffffffff80,%rsp
    bab1:	48 89 75 80          	mov    %rsi,-0x80(%rbp)
    bab5:	48 89 95 78 ff ff ff 	mov    %rdx,-0x88(%rbp)
    babc:	89 c8                	mov    %ecx,%eax
    babe:	44 89 c1             	mov    %r8d,%ecx
    bac1:	89 fa                	mov    %edi,%edx
    bac3:	66 89 55 8c          	mov    %dx,-0x74(%rbp)
    bac7:	66 89 45 88          	mov    %ax,-0x78(%rbp)
    bacb:	89 c8                	mov    %ecx,%eax
    bacd:	88 85 74 ff ff ff    	mov    %al,-0x8c(%rbp)
    bad3:	64 48 8b 04 25 28 00 	mov    %fs:0x28,%rax
    bada:	00 00 
    badc:	48 89 45 e8          	mov    %rax,-0x18(%rbp)
    bae0:	31 c0                	xor    %eax,%eax
    bae2:	c7 45 9c 23 69 1c 32 	movl   $0x321c6923,-0x64(%rbp)
    bae9:	48 8d 05 50 00 01 00 	lea    0x10050(%rip),%rax        # 1bb40 <g_1092>
    baf0:	48 89 45 b8          	mov    %rax,-0x48(%rbp)
    baf4:	48 c7 45 c0 02 00 00 	movq   $0x2,-0x40(%rbp)
    bafb:	00 
    bafc:	c7 45 94 c8 aa 5f d2 	movl   $0xd25faac8,-0x6c(%rbp)
    bb03:	c7 45 a0 ff ff ff ff 	movl   $0xffffffff,-0x60(%rbp)
    bb0a:	c7 45 a4 14 3a b8 57 	movl   $0x57b83a14,-0x5c(%rbp)
    bb11:	c7 45 90 00 00 00 00 	movl   $0x0,-0x70(%rbp)
    bb18:	48 c7 45 a8 00 00 00 	movq   $0x0,-0x58(%rbp)
    bb1f:	00 
    bb20:	48 8d 45 a8          	lea    -0x58(%rbp),%rax
    bb24:	48 89 45 b0          	mov    %rax,-0x50(%rbp)
    bb28:	48 8d 45 b0          	lea    -0x50(%rbp),%rax
    bb2c:	48 89 45 c8          	mov    %rax,-0x38(%rbp)
    bb30:	48 c7 45 d0 00 00 00 	movq   $0x0,-0x30(%rbp)
    bb37:	00 
    bb38:	48 8d 05 09 b7 00 00 	lea    0xb709(%rip),%rax        # 17248 <g_191>
    bb3f:	48 89 45 d8          	mov    %rax,-0x28(%rbp)
    bb43:	c7 45 98 00 00 00 00 	movl   $0x0,-0x68(%rbp)
    bb4a:	eb 15                	jmp    bb61 <func_50+0xbf>
    bb4c:	8b 45 98             	mov    -0x68(%rbp),%eax
    bb4f:	48 98                	cltq   
    bb51:	48 8d 15 10 f0 00 00 	lea    0xf010(%rip),%rdx        # 1ab68 <g_1091>
    bb58:	48 89 54 c5 e0       	mov    %rdx,-0x20(%rbp,%rax,8)
    bb5d:	83 45 98 01          	addl   $0x1,-0x68(%rbp)
    bb61:	83 7d 98 00          	cmpl   $0x0,-0x68(%rbp)
    bb65:	7e e5                	jle    bb4c <func_50+0xaa>
    bb67:	66 83 7d 88 00       	cmpw   $0x0,-0x78(%rbp)
    bb6c:	79 74                	jns    bbe2 <func_50+0x140>
    bb6e:	48 8b 45 b8          	mov    -0x48(%rbp),%rax
    bb72:	48 89 05 ef ef 00 00 	mov    %rax,0xefef(%rip)        # 1ab68 <g_1091>
    bb79:	48 8b 05 e8 ef 00 00 	mov    0xefe8(%rip),%rax        # 1ab68 <g_1091>
    bb80:	48 8d 15 b9 ff 00 00 	lea    0xffb9(%rip),%rdx        # 1bb40 <g_1092>
    bb87:	48 39 d0             	cmp    %rdx,%rax
    bb8a:	0f 95 c0             	setne  %al
    bb8d:	44 0f b6 e0          	movzbl %al,%r12d
    bb91:	0f bf 5d 88          	movswl -0x78(%rbp),%ebx
    bb95:	48 8b 05 ac e7 00 00 	mov    0xe7ac(%rip),%rax        # 1a348 <g_905>
    bb9c:	8b 00                	mov    (%rax),%eax
    bb9e:	89 c2                	mov    %eax,%edx
    bba0:	0f b6 85 74 ff ff ff 	movzbl -0x8c(%rbp),%eax
    bba7:	09 45 94             	or     %eax,-0x6c(%rbp)
    bbaa:	8b 45 94             	mov    -0x6c(%rbp),%eax
    bbad:	89 45 a0             	mov    %eax,-0x60(%rbp)
    bbb0:	8b 45 a0             	mov    -0x60(%rbp),%eax
    bbb3:	89 d6                	mov    %edx,%esi
    bbb5:	89 c7                	mov    %eax,%edi
    bbb7:	e8 fc d2 ff ff       	callq  8eb8 <safe_add_func_uint32_t_u_u>
    bbbc:	98                   	cwtl   
    bbbd:	89 de                	mov    %ebx,%esi
    bbbf:	89 c7                	mov    %eax,%edi
    bbc1:	e8 50 c8 ff ff       	callq  8416 <safe_mod_func_int16_t_s_s>
    bbc6:	48 0f bf c0          	movswq %ax,%rax
    bbca:	48 23 45 c0          	and    -0x40(%rbp),%rax
    bbce:	49 39 c4             	cmp    %rax,%r12
    bbd1:	0f 97 c2             	seta   %dl
    bbd4:	48 8b 05 95 d8 00 00 	mov    0xd895(%rip),%rax        # 19470 <g_245>
    bbdb:	88 10                	mov    %dl,(%rax)
    bbdd:	0f b6 00             	movzbl (%rax),%eax
    bbe0:	84 c0                	test   %al,%al
    bbe2:	0f b6 05 76 b5 00 00 	movzbl 0xb576(%rip),%eax        # 1715f <g_88+0x6>
    bbe9:	83 e0 78             	and    $0x78,%eax
    bbec:	3c 08                	cmp    $0x8,%al
    bbee:	0f 94 c0             	sete   %al
    bbf1:	0f b6 c0             	movzbl %al,%eax
    bbf4:	be 73 31 d3 a1       	mov    $0xa1d33173,%esi
    bbf9:	89 c7                	mov    %eax,%edi
    bbfb:	e8 b8 d2 ff ff       	callq  8eb8 <safe_add_func_uint32_t_u_u>
    bc00:	0f b7 05 59 bc 00 00 	movzwl 0xbc59(%rip),%eax        # 17860 <g_526+0x560>
    bc07:	8b 45 9c             	mov    -0x64(%rbp),%eax
    bc0a:	0f b7 c0             	movzwl %ax,%eax
    bc0d:	be 00 00 00 00       	mov    $0x0,%esi
    bc12:	89 c7                	mov    %eax,%edi
    bc14:	e8 06 d1 ff ff       	callq  8d1f <safe_sub_func_uint16_t_u_u>
    bc19:	0f b7 c0             	movzwl %ax,%eax
    bc1c:	09 45 a4             	or     %eax,-0x5c(%rbp)
    bc1f:	83 7d 9c 00          	cmpl   $0x0,-0x64(%rbp)
    bc23:	75 0a                	jne    bc2f <func_50+0x18d>
    bc25:	8b 05 cd c7 00 00    	mov    0xc7cd(%rip),%eax        # 183f8 <g_1435+0x18>
    bc2b:	85 c0                	test   %eax,%eax
    bc2d:	eb 01                	jmp    bc30 <func_50+0x18e>
    bc2f:	90                   	nop
    bc30:	0f b6 9d 74 ff ff ff 	movzbl -0x8c(%rbp),%ebx
    bc37:	83 7d a4 00          	cmpl   $0x0,-0x5c(%rbp)
    bc3b:	7e 2d                	jle    bc6a <func_50+0x1c8>
    bc3d:	0f b6 85 74 ff ff ff 	movzbl -0x8c(%rbp),%eax
    bc44:	0f be c0             	movsbl %al,%eax
    bc47:	8b 15 27 c7 00 00    	mov    0xc727(%rip),%edx        # 18374 <g_1267+0x14>
    bc4d:	89 c6                	mov    %eax,%esi
    bc4f:	bf ff ff ff ff       	mov    $0xffffffff,%edi
    bc54:	e8 99 c5 ff ff       	callq  81f2 <safe_sub_func_int8_t_s_s>
    bc59:	0f be c0             	movsbl %al,%eax
    bc5c:	89 05 a6 c7 00 00    	mov    %eax,0xc7a6(%rip)        # 18408 <g_1452>
    bc62:	8b 05 a0 c7 00 00    	mov    0xc7a0(%rip),%eax        # 18408 <g_1452>
    bc68:	85 c0                	test   %eax,%eax
    bc6a:	be f9 ff ff ff       	mov    $0xfffffff9,%esi
    bc6f:	bf 43 00 00 00       	mov    $0x43,%edi
    bc74:	e8 99 c5 ff ff       	callq  8212 <safe_mul_func_int8_t_s_s>
    bc79:	48 8b 55 d8          	mov    -0x28(%rbp),%rdx
    bc7d:	0f b6 12             	movzbl (%rdx),%edx
    bc80:	21 d0                	and    %edx,%eax
    bc82:	89 c2                	mov    %eax,%edx
    bc84:	48 8b 45 d8          	mov    -0x28(%rbp),%rax
    bc88:	88 10                	mov    %dl,(%rax)
    bc8a:	8b 45 94             	mov    -0x6c(%rbp),%eax
    bc8d:	0f be d0             	movsbl %al,%edx
    bc90:	8b 45 a4             	mov    -0x5c(%rbp),%eax
    bc93:	0f be c0             	movsbl %al,%eax
    bc96:	89 d6                	mov    %edx,%esi
    bc98:	89 c7                	mov    %eax,%edi
    bc9a:	e8 cb c5 ff ff       	callq  826a <safe_div_func_int8_t_s_s>
    bc9f:	0f be d0             	movsbl %al,%edx
    bca2:	8b 05 38 bf 00 00    	mov    0xbf38(%rip),%eax        # 17be0 <g_771+0x20>
    bca8:	39 c2                	cmp    %eax,%edx
    bcaa:	0f 95 c0             	setne  %al
    bcad:	0f b6 c0             	movzbl %al,%eax
    bcb0:	48 89 de             	mov    %rbx,%rsi
    bcb3:	48 89 c7             	mov    %rax,%rdi
    bcb6:	e8 ed cb ff ff       	callq  88a8 <safe_sub_func_int64_t_s_s>
    bcbb:	48 85 c0             	test   %rax,%rax
    bcbe:	74 11                	je     bcd1 <func_50+0x22f>
    bcc0:	48 8b 45 80          	mov    -0x80(%rbp),%rax
    bcc4:	8b 00                	mov    (%rax),%eax
    bcc6:	85 c0                	test   %eax,%eax
    bcc8:	74 07                	je     bcd1 <func_50+0x22f>
    bcca:	b8 01 00 00 00       	mov    $0x1,%eax
    bccf:	eb 05                	jmp    bcd6 <func_50+0x234>
    bcd1:	b8 00 00 00 00       	mov    $0x0,%eax
    bcd6:	89 45 94             	mov    %eax,-0x6c(%rbp)
    bcd9:	48 8b 05 68 de 00 00 	mov    0xde68(%rip),%rax        # 19b48 <g_521>
    bce0:	48 8b 00             	mov    (%rax),%rax
    bce3:	8b 00                	mov    (%rax),%eax
    bce5:	48 8b 4d e8          	mov    -0x18(%rbp),%rcx
    bce9:	64 48 33 0c 25 28 00 	xor    %fs:0x28,%rcx
    bcf0:	00 00 
    bcf2:	74 05                	je     bcf9 <func_50+0x257>
    bcf4:	e8 77 c3 ff ff       	callq  8070 <__stack_chk_fail@plt>
    bcf9:	48 83 ec 80          	sub    $0xffffffffffffff80,%rsp
    bcfd:	5b                   	pop    %rbx
    bcfe:	41 5c                	pop    %r12
    bd00:	5d                   	pop    %rbp
    bd01:	c3                   	retq   

000000000000bd02 <func_56>:
    bd02:	f3 0f 1e fa          	endbr64 
    bd06:	55                   	push   %rbp
    bd07:	48 89 e5             	mov    %rsp,%rbp
    bd0a:	41 57                	push   %r15
    bd0c:	41 56                	push   %r14
    bd0e:	41 55                	push   %r13
    bd10:	41 54                	push   %r12
    bd12:	53                   	push   %rbx
    bd13:	48 81 ec c8 0e 00 00 	sub    $0xec8,%rsp
    bd1a:	48 89 bd 48 f1 ff ff 	mov    %rdi,-0xeb8(%rbp)
    bd21:	48 89 95 38 f1 ff ff 	mov    %rdx,-0xec8(%rbp)
    bd28:	89 c8                	mov    %ecx,%eax
    bd2a:	44 89 85 34 f1 ff ff 	mov    %r8d,-0xecc(%rbp)
    bd31:	89 f2                	mov    %esi,%edx
    bd33:	66 89 95 44 f1 ff ff 	mov    %dx,-0xebc(%rbp)
    bd3a:	66 89 85 40 f1 ff ff 	mov    %ax,-0xec0(%rbp)
    bd41:	64 48 8b 04 25 28 00 	mov    %fs:0x28,%rax
    bd48:	00 00 
    bd4a:	48 89 45 c8          	mov    %rax,-0x38(%rbp)
    bd4e:	31 c0                	xor    %eax,%eax
    bd50:	48 c7 85 d0 f1 ff ff 	movq   $0x0,-0xe30(%rbp)
    bd57:	00 00 00 00 
    bd5b:	c7 85 70 f1 ff ff 66 	movl   $0xc4bb6a66,-0xe90(%rbp)
    bd62:	6a bb c4 
    bd65:	48 8d 05 a4 fd 00 00 	lea    0xfda4(%rip),%rax        # 1bb10 <g_523>
    bd6c:	48 89 85 90 f1 ff ff 	mov    %rax,-0xe70(%rbp)
    bd73:	48 8d 05 d6 ed 00 00 	lea    0xedd6(%rip),%rax        # 1ab50 <g_1006>
    bd7a:	48 89 85 98 f1 ff ff 	mov    %rax,-0xe68(%rbp)
    bd81:	48 8d 85 98 f1 ff ff 	lea    -0xe68(%rbp),%rax
    bd88:	48 89 85 d8 f1 ff ff 	mov    %rax,-0xe28(%rbp)
    bd8f:	48 8d 05 d2 de 00 00 	lea    0xded2(%rip),%rax        # 19c68 <g_663+0xc8>
    bd96:	48 89 85 a0 f1 ff ff 	mov    %rax,-0xe60(%rbp)
    bd9d:	c7 85 74 f1 ff ff 00 	movl   $0x0,-0xe8c(%rbp)
    bda4:	00 00 00 
    bda7:	66 c7 85 54 f1 ff ff 	movw   $0xab0d,-0xeac(%rbp)
    bdae:	0d ab 
    bdb0:	48 8d 05 89 fd 00 00 	lea    0xfd89(%rip),%rax        # 1bb40 <g_1092>
    bdb7:	48 89 85 a8 f1 ff ff 	mov    %rax,-0xe58(%rbp)
    bdbe:	c7 85 64 f1 ff ff 00 	movl   $0x0,-0xe9c(%rbp)
    bdc5:	00 00 00 
    bdc8:	eb 1e                	jmp    bde8 <func_56+0xe6>
    bdca:	8b 85 64 f1 ff ff    	mov    -0xe9c(%rbp),%eax
    bdd0:	48 98                	cltq   
    bdd2:	48 8d 95 a0 f1 ff ff 	lea    -0xe60(%rbp),%rdx
    bdd9:	48 89 94 c5 00 f3 ff 	mov    %rdx,-0xd00(%rbp,%rax,8)
    bde0:	ff 
    bde1:	83 85 64 f1 ff ff 01 	addl   $0x1,-0xe9c(%rbp)
    bde8:	83 bd 64 f1 ff ff 08 	cmpl   $0x8,-0xe9c(%rbp)
    bdef:	7e d9                	jle    bdca <func_56+0xc8>
    bdf1:	c7 05 d9 be 00 00 f0 	movl   $0xfffffff0,0xbed9(%rip)        # 17cd4 <g_828+0x14>
    bdf8:	ff ff ff 
    bdfb:	90                   	nop
    bdfc:	8b 05 d2 be 00 00    	mov    0xbed2(%rip),%eax        # 17cd4 <g_828+0x14>
    be02:	83 f8 ef             	cmp    $0xffffffef,%eax
    be05:	7c 0c                	jl     be13 <func_56+0x111>
    be07:	48 8b 85 d0 f1 ff ff 	mov    -0xe30(%rbp),%rax
    be0e:	e9 13 22 00 00       	jmpq   e026 <func_56+0x2324>
    be13:	c7 05 f3 fc 00 00 05 	movl   $0x5,0xfcf3(%rip)        # 1bb10 <g_523>
    be1a:	00 00 00 
    be1d:	e9 eb 21 00 00       	jmpq   e00d <func_56+0x230b>
    be22:	48 c7 85 e0 f1 ff ff 	movq   $0x0,-0xe20(%rbp)
    be29:	00 00 00 00 
    be2d:	48 8d 05 24 ed 00 00 	lea    0xed24(%rip),%rax        # 1ab58 <g_1010>
    be34:	48 89 85 b0 f1 ff ff 	mov    %rax,-0xe50(%rbp)
    be3b:	48 8d 85 b0 f1 ff ff 	lea    -0xe50(%rbp),%rax
    be42:	48 89 85 e8 f1 ff ff 	mov    %rax,-0xe18(%rbp)
    be49:	48 8d 05 e0 dc 00 00 	lea    0xdce0(%rip),%rax        # 19b30 <g_302>
    be50:	48 89 85 f0 f1 ff ff 	mov    %rax,-0xe10(%rbp)
    be57:	c7 85 b0 f2 ff ff 15 	movl   $0x222c1d15,-0xd50(%rbp)
    be5e:	1d 2c 22 
    be61:	c7 85 b4 f2 ff ff 15 	movl   $0x222c1d15,-0xd4c(%rbp)
    be68:	1d 2c 22 
    be6b:	c7 85 b8 f2 ff ff 15 	movl   $0x222c1d15,-0xd48(%rbp)
    be72:	1d 2c 22 
    be75:	c7 85 bc f2 ff ff 15 	movl   $0x222c1d15,-0xd44(%rbp)
    be7c:	1d 2c 22 
    be7f:	c7 85 c0 f2 ff ff 15 	movl   $0x222c1d15,-0xd40(%rbp)
    be86:	1d 2c 22 
    be89:	66 c7 85 56 f1 ff ff 	movw   $0x1,-0xeaa(%rbp)
    be90:	01 00 
    be92:	48 c7 85 f8 f1 ff ff 	movq   $0x0,-0xe08(%rbp)
    be99:	00 00 00 00 
    be9d:	48 8d 05 6c fc 00 00 	lea    0xfc6c(%rip),%rax        # 1bb10 <g_523>
    bea4:	48 89 85 b8 f1 ff ff 	mov    %rax,-0xe48(%rbp)
    beab:	c7 05 67 bd 00 00 fd 	movl   $0xfffffffd,0xbd67(%rip)        # 17c1c <g_823+0x1c>
    beb2:	ff ff ff 
    beb5:	e9 4f 05 00 00       	jmpq   c409 <func_56+0x707>
    beba:	66 c7 85 52 f1 ff ff 	movw   $0x0,-0xeae(%rbp)
    bec1:	00 00 
    bec3:	48 b8 04 dd ad be 0d 	movabs $0x1850db0dbeaddd04,%rax
    beca:	db 50 18 
    becd:	48 89 85 60 f2 ff ff 	mov    %rax,-0xda0(%rbp)
    bed4:	48 c7 85 68 f2 ff ff 	movq   $0x0,-0xd98(%rbp)
    bedb:	00 00 00 00 
    bedf:	48 c7 85 c8 f1 ff ff 	movq   $0x0,-0xe38(%rbp)
    bee6:	00 00 00 00 
    beea:	48 8d 85 c8 f1 ff ff 	lea    -0xe38(%rbp),%rax
    bef1:	48 89 85 70 f2 ff ff 	mov    %rax,-0xd90(%rbp)
    bef8:	48 8d 05 45 bd 00 00 	lea    0xbd45(%rip),%rax        # 17c44 <g_825+0x4>
    beff:	48 89 85 78 f2 ff ff 	mov    %rax,-0xd88(%rbp)
    bf06:	c7 85 e0 f7 ff ff fb 	movl   $0xfffffffb,-0x820(%rbp)
    bf0d:	ff ff ff 
    bf10:	c7 85 e4 f7 ff ff fb 	movl   $0xfffffffb,-0x81c(%rbp)
    bf17:	ff ff ff 
    bf1a:	c7 85 e8 f7 ff ff fb 	movl   $0xfffffffb,-0x818(%rbp)
    bf21:	ff ff ff 
    bf24:	c7 85 ec f7 ff ff fb 	movl   $0xfffffffb,-0x814(%rbp)
    bf2b:	ff ff ff 
    bf2e:	c7 85 f0 f7 ff ff fb 	movl   $0xfffffffb,-0x810(%rbp)
    bf35:	ff ff ff 
    bf38:	c7 85 f4 f7 ff ff fb 	movl   $0xfffffffb,-0x80c(%rbp)
    bf3f:	ff ff ff 
    bf42:	c7 85 f8 f7 ff ff fb 	movl   $0xfffffffb,-0x808(%rbp)
    bf49:	ff ff ff 
    bf4c:	c7 85 fc f7 ff ff fb 	movl   $0xfffffffb,-0x804(%rbp)
    bf53:	ff ff ff 
    bf56:	c7 85 00 f8 ff ff fb 	movl   $0xfffffffb,-0x800(%rbp)
    bf5d:	ff ff ff 
    bf60:	c7 85 04 f8 ff ff fb 	movl   $0xfffffffb,-0x7fc(%rbp)
    bf67:	ff ff ff 
    bf6a:	c7 85 08 f8 ff ff fb 	movl   $0xfffffffb,-0x7f8(%rbp)
    bf71:	ff ff ff 
    bf74:	c7 85 0c f8 ff ff fb 	movl   $0xfffffffb,-0x7f4(%rbp)
    bf7b:	ff ff ff 
    bf7e:	c7 85 10 f8 ff ff fb 	movl   $0xfffffffb,-0x7f0(%rbp)
    bf85:	ff ff ff 
    bf88:	c7 85 14 f8 ff ff fb 	movl   $0xfffffffb,-0x7ec(%rbp)
    bf8f:	ff ff ff 
    bf92:	c7 85 18 f8 ff ff fb 	movl   $0xfffffffb,-0x7e8(%rbp)
    bf99:	ff ff ff 
    bf9c:	c7 85 1c f8 ff ff fb 	movl   $0xfffffffb,-0x7e4(%rbp)
    bfa3:	ff ff ff 
    bfa6:	c7 85 20 f8 ff ff fb 	movl   $0xfffffffb,-0x7e0(%rbp)
    bfad:	ff ff ff 
    bfb0:	c7 85 24 f8 ff ff fb 	movl   $0xfffffffb,-0x7dc(%rbp)
    bfb7:	ff ff ff 
    bfba:	c7 85 28 f8 ff ff fb 	movl   $0xfffffffb,-0x7d8(%rbp)
    bfc1:	ff ff ff 
    bfc4:	c7 85 2c f8 ff ff fb 	movl   $0xfffffffb,-0x7d4(%rbp)
    bfcb:	ff ff ff 
    bfce:	c7 85 30 f8 ff ff fb 	movl   $0xfffffffb,-0x7d0(%rbp)
    bfd5:	ff ff ff 
    bfd8:	c7 85 34 f8 ff ff fb 	movl   $0xfffffffb,-0x7cc(%rbp)
    bfdf:	ff ff ff 
    bfe2:	c7 85 38 f8 ff ff fb 	movl   $0xfffffffb,-0x7c8(%rbp)
    bfe9:	ff ff ff 
    bfec:	c7 85 3c f8 ff ff fb 	movl   $0xfffffffb,-0x7c4(%rbp)
    bff3:	ff ff ff 
    bff6:	c7 85 40 f8 ff ff fb 	movl   $0xfffffffb,-0x7c0(%rbp)
    bffd:	ff ff ff 
    c000:	c7 85 44 f8 ff ff fb 	movl   $0xfffffffb,-0x7bc(%rbp)
    c007:	ff ff ff 
    c00a:	c7 85 48 f8 ff ff fb 	movl   $0xfffffffb,-0x7b8(%rbp)
    c011:	ff ff ff 
    c014:	c7 85 4c f8 ff ff fb 	movl   $0xfffffffb,-0x7b4(%rbp)
    c01b:	ff ff ff 
    c01e:	c7 85 f0 f3 ff ff 83 	movl   $0x99fb6283,-0xc10(%rbp)
    c025:	62 fb 99 
    c028:	c7 85 f4 f3 ff ff 83 	movl   $0x99fb6283,-0xc0c(%rbp)
    c02f:	62 fb 99 
    c032:	c7 85 f8 f3 ff ff 83 	movl   $0x99fb6283,-0xc08(%rbp)
    c039:	62 fb 99 
    c03c:	c7 85 fc f3 ff ff 83 	movl   $0x99fb6283,-0xc04(%rbp)
    c043:	62 fb 99 
    c046:	48 8b 05 3b d4 00 00 	mov    0xd43b(%rip),%rax        # 19488 <g_297>
    c04d:	48 8b 95 d0 f1 ff ff 	mov    -0xe30(%rbp),%rdx
    c054:	48 89 10             	mov    %rdx,(%rax)
    c057:	48 8b 85 38 f1 ff ff 	mov    -0xec8(%rbp),%rax
    c05e:	8b 00                	mov    (%rax),%eax
    c060:	85 c0                	test   %eax,%eax
    c062:	74 29                	je     c08d <func_56+0x38b>
    c064:	48 c7 05 99 bb 00 00 	movq   $0xfffffffffffffff8,0xbb99(%rip)        # 17c08 <g_823+0x8>
    c06b:	f8 ff ff ff 
    c06f:	90                   	nop
    c070:	48 8b 05 91 bb 00 00 	mov    0xbb91(%rip),%rax        # 17c08 <g_823+0x8>
    c077:	48 83 f8 19          	cmp    $0x19,%rax
    c07b:	0f 86 29 01 00 00    	jbe    c1aa <func_56+0x4a8>
    c081:	48 8b 85 38 f1 ff ff 	mov    -0xec8(%rbp),%rax
    c088:	e9 99 1f 00 00       	jmpq   e026 <func_56+0x2324>
    c08d:	48 b8 6a be 92 0c 1f 	movabs $0xab177b1f0c92be6a,%rax
    c094:	7b 17 ab 
    c097:	48 89 85 80 f2 ff ff 	mov    %rax,-0xd80(%rbp)
    c09e:	48 8d 05 33 b2 00 00 	lea    0xb233(%rip),%rax        # 172d8 <g_439>
    c0a5:	48 89 85 88 f2 ff ff 	mov    %rax,-0xd78(%rbp)
    c0ac:	48 c7 85 90 f2 ff ff 	movq   $0x0,-0xd70(%rbp)
    c0b3:	00 00 00 00 
    c0b7:	48 8d 05 12 b2 00 00 	lea    0xb212(%rip),%rax        # 172d0 <g_422>
    c0be:	48 89 85 98 f2 ff ff 	mov    %rax,-0xd68(%rbp)
    c0c5:	48 8b 05 9c eb 00 00 	mov    0xeb9c(%rip),%rax        # 1ac68 <g_1242>
    c0cc:	48 8b 10             	mov    (%rax),%rdx
    c0cf:	48 8b 85 90 f2 ff ff 	mov    -0xd70(%rbp),%rax
    c0d6:	48 89 05 7b fa 00 00 	mov    %rax,0xfa7b(%rip)        # 1bb58 <g_1261>
    c0dd:	48 8b 05 74 fa 00 00 	mov    0xfa74(%rip),%rax        # 1bb58 <g_1261>
    c0e4:	48 39 c2             	cmp    %rax,%rdx
    c0e7:	75 14                	jne    c0fd <func_56+0x3fb>
    c0e9:	48 8b 85 38 f1 ff ff 	mov    -0xec8(%rbp),%rax
    c0f0:	8b 00                	mov    (%rax),%eax
    c0f2:	85 c0                	test   %eax,%eax
    c0f4:	74 07                	je     c0fd <func_56+0x3fb>
    c0f6:	bb 01 00 00 00       	mov    $0x1,%ebx
    c0fb:	eb 05                	jmp    c102 <func_56+0x400>
    c0fd:	bb 00 00 00 00       	mov    $0x0,%ebx
    c102:	0f b7 85 44 f1 ff ff 	movzwl -0xebc(%rbp),%eax
    c109:	89 c1                	mov    %eax,%ecx
    c10b:	48 83 bd e8 f1 ff ff 	cmpq   $0x0,-0xe18(%rbp)
    c112:	00 
    c113:	0f 94 c0             	sete   %al
    c116:	0f b6 d0             	movzbl %al,%edx
    c119:	48 8b 85 88 f2 ff ff 	mov    -0xd78(%rbp),%rax
    c120:	48 89 10             	mov    %rdx,(%rax)
    c123:	48 8b 85 88 f2 ff ff 	mov    -0xd78(%rbp),%rax
    c12a:	48 8b 00             	mov    (%rax),%rax
    c12d:	31 c8                	xor    %ecx,%eax
    c12f:	89 c2                	mov    %eax,%edx
    c131:	48 8b 85 48 f1 ff ff 	mov    -0xeb8(%rbp),%rax
    c138:	31 d0                	xor    %edx,%eax
    c13a:	0f be d0             	movsbl %al,%edx
    c13d:	48 83 bd e0 f1 ff ff 	cmpq   $0x0,-0xe20(%rbp)
    c144:	00 
    c145:	0f 94 c0             	sete   %al
    c148:	0f b6 c0             	movzbl %al,%eax
    c14b:	48 39 85 80 f2 ff ff 	cmp    %rax,-0xd80(%rbp)
    c152:	0f 92 c0             	setb   %al
    c155:	0f b6 c0             	movzbl %al,%eax
    c158:	89 d6                	mov    %edx,%esi
    c15a:	89 c7                	mov    %eax,%edi
    c15c:	e8 d0 c0 ff ff       	callq  8231 <safe_mod_func_int8_t_s_s>
    c161:	0f be d0             	movsbl %al,%edx
    c164:	48 8b 85 98 f2 ff ff 	mov    -0xd68(%rbp),%rax
    c16b:	48 8b 08             	mov    (%rax),%rcx
    c16e:	48 63 c3             	movslq %ebx,%rax
    c171:	48 21 c1             	and    %rax,%rcx
    c174:	48 8b 85 98 f2 ff ff 	mov    -0xd68(%rbp),%rax
    c17b:	48 89 08             	mov    %rcx,(%rax)
    c17e:	48 8b 85 98 f2 ff ff 	mov    -0xd68(%rbp),%rax
    c185:	48 8b 00             	mov    (%rax),%rax
    c188:	48 89 c1             	mov    %rax,%rcx
    c18b:	48 8b 05 d6 bc 00 00 	mov    0xbcd6(%rip),%rax        # 17e68 <g_831+0x8>
    c192:	48 39 c1             	cmp    %rax,%rcx
    c195:	0f 97 c0             	seta   %al
    c198:	0f b6 c0             	movzbl %al,%eax
    c19b:	39 c2                	cmp    %eax,%edx
    c19d:	0f 9e c0             	setle  %al
    c1a0:	0f b6 c0             	movzbl %al,%eax
    c1a3:	66 31 85 52 f1 ff ff 	xor    %ax,-0xeae(%rbp)
    c1aa:	8b 05 dc c1 00 00    	mov    0xc1dc(%rip),%eax        # 1838c <g_1311+0x4>
    c1b0:	89 c0                	mov    %eax,%eax
    c1b2:	48 89 85 28 f1 ff ff 	mov    %rax,-0xed8(%rbp)
    c1b9:	0f b7 85 40 f1 ff ff 	movzwl -0xec0(%rbp),%eax
    c1c0:	0f b6 d8             	movzbl %al,%ebx
    c1c3:	48 8b 85 60 f2 ff ff 	mov    -0xda0(%rbp),%rax
    c1ca:	44 0f be e0          	movsbl %al,%r12d
    c1ce:	4c 0f bf ad 40 f1 ff 	movswq -0xec0(%rbp),%r13
    c1d5:	ff 
    c1d6:	0f b7 85 40 f1 ff ff 	movzwl -0xec0(%rbp),%eax
    c1dd:	44 0f b6 f0          	movzbl %al,%r14d
    c1e1:	8b 05 d1 b0 00 00    	mov    0xb0d1(%rip),%eax        # 172b8 <g_377+0x18>
    c1e7:	89 c0                	mov    %eax,%eax
    c1e9:	48 89 85 20 f1 ff ff 	mov    %rax,-0xee0(%rbp)
    c1f0:	44 0f bf bd 52 f1 ff 	movswl -0xeae(%rbp),%r15d
    c1f7:	ff 
    c1f8:	8b 05 26 ae 00 00    	mov    0xae26(%rip),%eax        # 17024 <g_2>
    c1fe:	89 85 30 f1 ff ff    	mov    %eax,-0xed0(%rbp)
    c204:	48 8b 85 60 f2 ff ff 	mov    -0xda0(%rbp),%rax
    c20b:	89 85 1c f1 ff ff    	mov    %eax,-0xee4(%rbp)
    c211:	8b 05 45 ba 00 00    	mov    0xba45(%rip),%eax        # 17c5c <g_825+0x1c>
    c217:	0f b6 c0             	movzbl %al,%eax
    c21a:	48 8b 95 70 f2 ff ff 	mov    -0xd90(%rbp),%rdx
    c221:	48 c7 02 00 00 00 00 	movq   $0x0,(%rdx)
    c228:	89 c6                	mov    %eax,%esi
    c22a:	bf 01 00 00 00       	mov    $0x1,%edi
    c22f:	e8 44 c9 ff ff       	callq  8b78 <safe_sub_func_uint8_t_u_u>
    c234:	48 0f bf 85 52 f1 ff 	movswq -0xeae(%rbp),%rax
    c23b:	ff 
    c23c:	89 c2                	mov    %eax,%edx
    c23e:	0f b7 05 3f bc 00 00 	movzwl 0xbc3f(%rip),%eax        # 17e84 <g_831+0x24>
    c245:	c1 e0 07             	shl    $0x7,%eax
    c248:	66 c1 f8 07          	sar    $0x7,%ax
    c24c:	48 0f bf c0          	movswq %ax,%rax
    c250:	48 39 c2             	cmp    %rax,%rdx
    c253:	0f 93 c0             	setae  %al
    c256:	0f b6 d0             	movzbl %al,%edx
    c259:	48 8b 85 60 f2 ff ff 	mov    -0xda0(%rbp),%rax
    c260:	0f b6 c0             	movzbl %al,%eax
    c263:	89 d6                	mov    %edx,%esi
    c265:	89 c7                	mov    %eax,%edi
    c267:	e8 27 c9 ff ff       	callq  8b93 <safe_mul_func_uint8_t_u_u>
    c26c:	0f b6 c0             	movzbl %al,%eax
    c26f:	f7 d0                	not    %eax
    c271:	0b 85 34 f1 ff ff    	or     -0xecc(%rbp),%eax
    c277:	85 c0                	test   %eax,%eax
    c279:	75 0a                	jne    c285 <func_56+0x583>
    c27b:	48 83 bd 60 f2 ff ff 	cmpq   $0x0,-0xda0(%rbp)
    c282:	00 
    c283:	74 07                	je     c28c <func_56+0x58a>
    c285:	b8 01 00 00 00       	mov    $0x1,%eax
    c28a:	eb 05                	jmp    c291 <func_56+0x58f>
    c28c:	b8 00 00 00 00       	mov    $0x0,%eax
    c291:	0f be c0             	movsbl %al,%eax
    c294:	be 23 00 00 00       	mov    $0x23,%esi
    c299:	89 c7                	mov    %eax,%edi
    c29b:	e8 52 bf ff ff       	callq  81f2 <safe_sub_func_int8_t_s_s>
    c2a0:	0f be c0             	movsbl %al,%eax
    c2a3:	8b b5 1c f1 ff ff    	mov    -0xee4(%rbp),%esi
    c2a9:	89 c7                	mov    %eax,%edi
    c2ab:	e8 f1 bf ff ff       	callq  82a1 <safe_lshift_func_int8_t_s_s>
    c2b0:	0f be c0             	movsbl %al,%eax
    c2b3:	8b b5 30 f1 ff ff    	mov    -0xed0(%rbp),%esi
    c2b9:	89 c7                	mov    %eax,%edi
    c2bb:	e8 a3 c2 ff ff       	callq  8563 <safe_rshift_func_int16_t_s_u>
    c2c0:	0f b7 c0             	movzwl %ax,%eax
    c2c3:	44 89 fe             	mov    %r15d,%esi
    c2c6:	89 c7                	mov    %eax,%edi
    c2c8:	e8 f1 ca ff ff       	callq  8dbe <safe_lshift_func_uint16_t_u_s>
    c2cd:	0f b6 c0             	movzbl %al,%eax
    c2d0:	be 00 00 00 00       	mov    $0x0,%esi
    c2d5:	89 c7                	mov    %eax,%edi
    c2d7:	e8 29 c9 ff ff       	callq  8c05 <safe_lshift_func_uint8_t_u_s>
    c2dc:	48 83 bd d8 f1 ff ff 	cmpq   $0x0,-0xe28(%rbp)
    c2e3:	00 
    c2e4:	0f 95 c0             	setne  %al
    c2e7:	0f b6 c0             	movzbl %al,%eax
    c2ea:	48 8b b5 20 f1 ff ff 	mov    -0xee0(%rbp),%rsi
    c2f1:	48 89 c7             	mov    %rax,%rdi
    c2f4:	e8 af c5 ff ff       	callq  88a8 <safe_sub_func_int64_t_s_s>
    c2f9:	0f b6 c0             	movzbl %al,%eax
    c2fc:	44 89 f6             	mov    %r14d,%esi
    c2ff:	89 c7                	mov    %eax,%edi
    c301:	e8 54 c8 ff ff       	callq  8b5a <safe_add_func_uint8_t_u_u>
    c306:	0f b6 c0             	movzbl %al,%eax
    c309:	be f2 2b 76 b5       	mov    $0xb5762bf2,%esi
    c30e:	89 c7                	mov    %eax,%edi
    c310:	e8 b7 c3 ff ff       	callq  86cc <safe_mod_func_int32_t_s_s>
    c315:	4c 89 ee             	mov    %r13,%rsi
    c318:	bf 01 00 00 00       	mov    $0x1,%edi
    c31d:	e8 1f c5 ff ff       	callq  8841 <safe_add_func_int64_t_s_s>
    c322:	0f be c0             	movsbl %al,%eax
    c325:	44 89 e6             	mov    %r12d,%esi
    c328:	89 c7                	mov    %eax,%edi
    c32a:	e8 a5 be ff ff       	callq  81d4 <safe_add_func_int8_t_s_s>
    c32f:	48 8b 05 5a aa 00 00 	mov    0xaa5a(%rip),%rax        # 16d90 <l_1276.4524+0x10>
    c336:	48 39 85 f0 f1 ff ff 	cmp    %rax,-0xe10(%rbp)
    c33d:	0f 94 c0             	sete   %al
    c340:	0f b6 d0             	movzbl %al,%edx
    c343:	48 8b 85 90 f1 ff ff 	mov    -0xe70(%rbp),%rax
    c34a:	48 85 c0             	test   %rax,%rax
    c34d:	0f 94 c0             	sete   %al
    c350:	0f b6 c0             	movzbl %al,%eax
    c353:	89 d6                	mov    %edx,%esi
    c355:	89 c7                	mov    %eax,%edi
    c357:	e8 1c c8 ff ff       	callq  8b78 <safe_sub_func_uint8_t_u_u>
    c35c:	0f b6 d0             	movzbl %al,%edx
    c35f:	48 8b 85 78 f2 ff ff 	mov    -0xd88(%rbp),%rax
    c366:	89 10                	mov    %edx,(%rax)
    c368:	c7 85 fc f7 ff ff ff 	movl   $0xffffffff,-0x804(%rbp)
    c36f:	ff ff ff 
    c372:	8b 85 fc f7 ff ff    	mov    -0x804(%rbp),%eax
    c378:	48 98                	cltq   
    c37a:	48 39 85 48 f1 ff ff 	cmp    %rax,-0xeb8(%rbp)
    c381:	0f 97 c0             	seta   %al
    c384:	0f b6 c0             	movzbl %al,%eax
    c387:	89 de                	mov    %ebx,%esi
    c389:	89 c7                	mov    %eax,%edi
    c38b:	e8 ca c7 ff ff       	callq  8b5a <safe_add_func_uint8_t_u_u>
    c390:	0f b6 d0             	movzbl %al,%edx
    c393:	0f bf 85 52 f1 ff ff 	movswl -0xeae(%rbp),%eax
    c39a:	31 d0                	xor    %edx,%eax
    c39c:	48 98                	cltq   
    c39e:	48 8b b5 28 f1 ff ff 	mov    -0xed8(%rbp),%rsi
    c3a5:	48 89 c7             	mov    %rax,%rdi
    c3a8:	e8 07 c6 ff ff       	callq  89b4 <safe_mod_func_int64_t_s_s>
    c3ad:	be 04 00 00 00       	mov    $0x4,%esi
    c3b2:	48 bf 46 b4 97 b3 f8 	movabs $0xb6f5b5f8b397b446,%rdi
    c3b9:	b5 f5 b6 
    c3bc:	e8 80 c4 ff ff       	callq  8841 <safe_add_func_int64_t_s_s>
    c3c1:	0f b7 95 44 f1 ff ff 	movzwl -0xebc(%rbp),%edx
    c3c8:	0f b7 d2             	movzwl %dx,%edx
    c3cb:	48 21 d0             	and    %rdx,%rax
    c3ce:	48 3d 4d b1 00 00    	cmp    $0xb14d,%rax
    c3d4:	0f 9e c0             	setle  %al
    c3d7:	0f b6 c0             	movzbl %al,%eax
    c3da:	89 c7                	mov    %eax,%edi
    c3dc:	e8 de bd ff ff       	callq  81bf <safe_unary_minus_func_int8_t_s>
    c3e1:	c7 85 f4 f3 ff ff 00 	movl   $0x0,-0xc0c(%rbp)
    c3e8:	00 00 00 
    c3eb:	48 8b 05 6e d0 00 00 	mov    0xd06e(%rip),%rax        # 19460 <g_90>
    c3f2:	8b 95 f4 f3 ff ff    	mov    -0xc0c(%rbp),%edx
    c3f8:	89 10                	mov    %edx,(%rax)
    c3fa:	8b 05 1c b8 00 00    	mov    0xb81c(%rip),%eax        # 17c1c <g_823+0x1c>
    c400:	83 c0 01             	add    $0x1,%eax
    c403:	89 05 13 b8 00 00    	mov    %eax,0xb813(%rip)        # 17c1c <g_823+0x1c>
    c409:	8b 05 0d b8 00 00    	mov    0xb80d(%rip),%eax        # 17c1c <g_823+0x1c>
    c40f:	83 f8 11             	cmp    $0x11,%eax
    c412:	0f 8f a2 fa ff ff    	jg     beba <func_56+0x1b8>
    c418:	48 8d 05 41 b4 00 00 	lea    0xb441(%rip),%rax        # 17860 <g_526+0x560>
    c41f:	0f b7 10             	movzwl (%rax),%edx
    c422:	0f b6 05 2f ad 00 00 	movzbl 0xad2f(%rip),%eax        # 17158 <g_85>
    c429:	66 98                	cbtw   
    c42b:	66 39 c2             	cmp    %ax,%dx
    c42e:	0f 8d af 00 00 00    	jge    c4e3 <func_56+0x7e1>
    c434:	48 c7 85 c0 f1 ff ff 	movq   $0x0,-0xe40(%rbp)
    c43b:	00 00 00 00 
    c43f:	48 8d 85 c0 f1 ff ff 	lea    -0xe40(%rbp),%rax
    c446:	48 89 85 48 f2 ff ff 	mov    %rax,-0xdb8(%rbp)
    c44d:	48 8d 05 24 d0 00 00 	lea    0xd024(%rip),%rax        # 19478 <g_289>
    c454:	48 89 85 c8 f1 ff ff 	mov    %rax,-0xe38(%rbp)
    c45b:	48 8d 85 c8 f1 ff ff 	lea    -0xe38(%rbp),%rax
    c462:	48 89 85 50 f2 ff ff 	mov    %rax,-0xdb0(%rbp)
    c469:	c7 85 8c f1 ff ff 08 	movl   $0x8,-0xe74(%rbp)
    c470:	00 00 00 
    c473:	48 8b 05 b6 d6 00 00 	mov    0xd6b6(%rip),%rax        # 19b30 <g_302>
    c47a:	48 c7 00 00 00 00 00 	movq   $0x0,(%rax)
    c481:	48 8b 05 00 e8 00 00 	mov    0xe800(%rip),%rax        # 1ac88 <g_1315>
    c488:	48 8b 95 48 f2 ff ff 	mov    -0xdb8(%rbp),%rdx
    c48f:	48 89 10             	mov    %rdx,(%rax)
    c492:	48 8b 85 38 f1 ff ff 	mov    -0xec8(%rbp),%rax
    c499:	8b 00                	mov    (%rax),%eax
    c49b:	85 c0                	test   %eax,%eax
    c49d:	0f 85 52 1b 00 00    	jne    dff5 <func_56+0x22f3>
    c4a3:	be 01 00 00 00       	mov    $0x1,%esi
    c4a8:	bf 2c 36 ea 61       	mov    $0x61ea362c,%edi
    c4ad:	e8 53 c1 ff ff       	callq  8605 <safe_sub_func_int32_t_s_s>
    c4b2:	85 c0                	test   %eax,%eax
    c4b4:	74 19                	je     c4cf <func_56+0x7cd>
    c4b6:	48 8d 05 a3 b3 00 00 	lea    0xb3a3(%rip),%rax        # 17860 <g_526+0x560>
    c4bd:	0f b7 00             	movzwl (%rax),%eax
    c4c0:	66 89 85 40 f1 ff ff 	mov    %ax,-0xec0(%rbp)
    c4c7:	66 83 bd 40 f1 ff ff 	cmpw   $0x0,-0xec0(%rbp)
    c4ce:	00 
    c4cf:	48 8b 85 38 f1 ff ff 	mov    -0xec8(%rbp),%rax
    c4d6:	8b 00                	mov    (%rax),%eax
    c4d8:	31 85 8c f1 ff ff    	xor    %eax,-0xe74(%rbp)
    c4de:	e9 ad 1a 00 00       	jmpq   df90 <func_56+0x228e>
    c4e3:	48 8d 05 42 ab 00 00 	lea    0xab42(%rip),%rax        # 1702c <g_13>
    c4ea:	48 89 85 00 f2 ff ff 	mov    %rax,-0xe00(%rbp)
    c4f1:	66 c7 85 58 f1 ff ff 	movw   $0xac12,-0xea8(%rbp)
    c4f8:	12 ac 
    c4fa:	48 c7 85 d0 f2 ff ff 	movq   $0x0,-0xd30(%rbp)
    c501:	00 00 00 00 
    c505:	48 c7 85 d8 f2 ff ff 	movq   $0x0,-0xd28(%rbp)
    c50c:	00 00 00 00 
    c510:	48 c7 85 e0 f2 ff ff 	movq   $0x0,-0xd20(%rbp)
    c517:	00 00 00 00 
    c51b:	48 c7 85 e8 f2 ff ff 	movq   $0x0,-0xd18(%rbp)
    c522:	00 00 00 00 
    c526:	48 c7 85 f0 f2 ff ff 	movq   $0x0,-0xd10(%rbp)
    c52d:	00 00 00 00 
    c531:	c7 85 5c f1 ff ff 01 	movl   $0x1,-0xea4(%rbp)
    c538:	00 00 00 
    c53b:	c7 85 60 f1 ff ff 01 	movl   $0x1,-0xea0(%rbp)
    c542:	00 00 00 
    c545:	c7 85 78 f1 ff ff 02 	movl   $0x2,-0xe88(%rbp)
    c54c:	00 00 00 
    c54f:	c7 85 68 f1 ff ff 00 	movl   $0x0,-0xe98(%rbp)
    c556:	00 00 00 
    c559:	48 8d 85 f0 f3 ff ff 	lea    -0xc10(%rbp),%rax
    c560:	48 8d 15 59 6c 00 00 	lea    0x6c59(%rip),%rdx        # 131c0 <g_2031+0x118>
    c567:	b9 7e 00 00 00       	mov    $0x7e,%ecx
    c56c:	48 89 c7             	mov    %rax,%rdi
    c56f:	48 89 d6             	mov    %rdx,%rsi
    c572:	f3 48 a5             	rep movsq %ds:(%rsi),%es:(%rdi)
    c575:	48 8d 85 90 f1 ff ff 	lea    -0xe70(%rbp),%rax
    c57c:	48 89 85 c0 f1 ff ff 	mov    %rax,-0xe40(%rbp)
    c583:	48 8d 85 c0 f1 ff ff 	lea    -0xe40(%rbp),%rax
    c58a:	48 89 85 c8 f1 ff ff 	mov    %rax,-0xe38(%rbp)
    c591:	0f b6 05 57 bd 00 00 	movzbl 0xbd57(%rip),%eax        # 182ef <g_907+0x3>
    c598:	c0 e8 03             	shr    $0x3,%al
    c59b:	0f b6 c0             	movzbl %al,%eax
    c59e:	0f b6 15 4b bd 00 00 	movzbl 0xbd4b(%rip),%edx        # 182f0 <g_907+0x4>
    c5a5:	48 c1 e2 05          	shl    $0x5,%rdx
    c5a9:	48 09 c2             	or     %rax,%rdx
    c5ac:	0f b6 05 3e bd 00 00 	movzbl 0xbd3e(%rip),%eax        # 182f1 <g_907+0x5>
    c5b3:	48 c1 e0 0d          	shl    $0xd,%rax
    c5b7:	48 09 c2             	or     %rax,%rdx
    c5ba:	0f b6 05 31 bd 00 00 	movzbl 0xbd31(%rip),%eax        # 182f2 <g_907+0x6>
    c5c1:	83 e0 07             	and    $0x7,%eax
    c5c4:	48 c1 e0 15          	shl    $0x15,%rax
    c5c8:	48 09 d0             	or     %rdx,%rax
    c5cb:	0f b7 d8             	movzwl %ax,%ebx
    c5ce:	48 8b 85 48 f1 ff ff 	mov    -0xeb8(%rbp),%rax
    c5d5:	44 0f bf e0          	movswl %ax,%r12d
    c5d9:	48 8b 85 00 f2 ff ff 	mov    -0xe00(%rbp),%rax
    c5e0:	0f b7 00             	movzwl (%rax),%eax
    c5e3:	89 c2                	mov    %eax,%edx
    c5e5:	48 83 bd 38 f1 ff ff 	cmpq   $0x0,-0xec8(%rbp)
    c5ec:	00 
    c5ed:	0f 95 c0             	setne  %al
    c5f0:	0f b6 c0             	movzbl %al,%eax
    c5f3:	21 d0                	and    %edx,%eax
    c5f5:	89 c2                	mov    %eax,%edx
    c5f7:	48 8b 85 00 f2 ff ff 	mov    -0xe00(%rbp),%rax
    c5fe:	66 89 10             	mov    %dx,(%rax)
    c601:	48 8b 85 48 f1 ff ff 	mov    -0xeb8(%rbp),%rax
    c608:	44 0f be e8          	movsbl %al,%r13d
    c60c:	44 0f bf b5 58 f1 ff 	movswl -0xea8(%rbp),%r14d
    c613:	ff 
    c614:	44 0f bf bd 58 f1 ff 	movswl -0xea8(%rbp),%r15d
    c61b:	ff 
    c61c:	8b 05 f2 b6 00 00    	mov    0xb6f2(%rip),%eax        # 17d14 <g_829+0x14>
    c622:	89 85 28 f1 ff ff    	mov    %eax,-0xed8(%rbp)
    c628:	8b 05 e2 f4 00 00    	mov    0xf4e2(%rip),%eax        # 1bb10 <g_523>
    c62e:	98                   	cwtl   
    c62f:	89 85 20 f1 ff ff    	mov    %eax,-0xee0(%rbp)
    c635:	66 83 bd 40 f1 ff ff 	cmpw   $0x0,-0xec0(%rbp)
    c63c:	00 
    c63d:	0f 84 e5 00 00 00    	je     c728 <func_56+0xa26>
    c643:	48 8b 85 38 f1 ff ff 	mov    -0xec8(%rbp),%rax
    c64a:	8b 00                	mov    (%rax),%eax
    c64c:	89 85 30 f1 ff ff    	mov    %eax,-0xed0(%rbp)
    c652:	8b 05 1c bd 00 00    	mov    0xbd1c(%rip),%eax        # 18374 <g_1267+0x14>
    c658:	0f bf 85 58 f1 ff ff 	movswl -0xea8(%rbp),%eax
    c65f:	89 85 1c f1 ff ff    	mov    %eax,-0xee4(%rbp)
    c665:	48 8b 05 ec e4 00 00 	mov    0xe4ec(%rip),%rax        # 1ab58 <g_1010>
    c66c:	48 8b 00             	mov    (%rax),%rax
    c66f:	0f b6 10             	movzbl (%rax),%edx
    c672:	48 8b 05 df e4 00 00 	mov    0xe4df(%rip),%rax        # 1ab58 <g_1010>
    c679:	48 8b 00             	mov    (%rax),%rax
    c67c:	83 ca 04             	or     $0x4,%edx
    c67f:	88 10                	mov    %dl,(%rax)
    c681:	8b 05 d1 b5 00 00    	mov    0xb5d1(%rip),%eax        # 17c58 <g_825+0x18>
    c687:	85 c0                	test   %eax,%eax
    c689:	75 0e                	jne    c699 <func_56+0x997>
    c68b:	48 8b 05 de cd 00 00 	mov    0xcdde(%rip),%rax        # 19470 <g_245>
    c692:	0f b6 00             	movzbl (%rax),%eax
    c695:	84 c0                	test   %al,%al
    c697:	74 07                	je     c6a0 <func_56+0x99e>
    c699:	b8 01 00 00 00       	mov    $0x1,%eax
    c69e:	eb 05                	jmp    c6a5 <func_56+0x9a3>
    c6a0:	b8 00 00 00 00       	mov    $0x0,%eax
    c6a5:	48 98                	cltq   
    c6a7:	83 e0 01             	and    $0x1,%eax
    c6aa:	48 89 c2             	mov    %rax,%rdx
    c6ad:	0f b7 85 44 f1 ff ff 	movzwl -0xebc(%rbp),%eax
    c6b4:	0f b7 c0             	movzwl %ax,%eax
    c6b7:	48 39 c2             	cmp    %rax,%rdx
    c6ba:	0f 9c c0             	setl   %al
    c6bd:	0f b6 d0             	movzbl %al,%edx
    c6c0:	48 8b 85 00 f2 ff ff 	mov    -0xe00(%rbp),%rax
    c6c7:	66 89 10             	mov    %dx,(%rax)
    c6ca:	48 8b 85 00 f2 ff ff 	mov    -0xe00(%rbp),%rax
    c6d1:	0f b7 00             	movzwl (%rax),%eax
    c6d4:	0f b7 c0             	movzwl %ax,%eax
    c6d7:	be 01 00 00 00       	mov    $0x1,%esi
    c6dc:	89 c7                	mov    %eax,%edi
    c6de:	e8 5a c6 ff ff       	callq  8d3d <safe_mul_func_uint16_t_u_u>
    c6e3:	0f b7 c0             	movzwl %ax,%eax
    c6e6:	8b b5 1c f1 ff ff    	mov    -0xee4(%rbp),%esi
    c6ec:	89 c7                	mov    %eax,%edi
    c6ee:	e8 55 c7 ff ff       	callq  8e48 <safe_rshift_func_uint16_t_u_s>
    c6f3:	0f b7 d0             	movzwl %ax,%edx
    c6f6:	0f b6 05 73 b4 00 00 	movzbl 0xb473(%rip),%eax        # 17b70 <g_529>
    c6fd:	0f be c0             	movsbl %al,%eax
    c700:	39 c2                	cmp    %eax,%edx
    c702:	74 07                	je     c70b <func_56+0xa09>
    c704:	b8 fd ff ff ff       	mov    $0xfffffffd,%eax
    c709:	eb 05                	jmp    c710 <func_56+0xa0e>
    c70b:	b8 fc ff ff ff       	mov    $0xfffffffc,%eax
    c710:	8b b5 30 f1 ff ff    	mov    -0xed0(%rbp),%esi
    c716:	89 c7                	mov    %eax,%edi
    c718:	e8 b3 c7 ff ff       	callq  8ed0 <safe_sub_func_uint32_t_u_u>
    c71d:	85 c0                	test   %eax,%eax
    c71f:	74 07                	je     c728 <func_56+0xa26>
    c721:	b8 01 00 00 00       	mov    $0x1,%eax
    c726:	eb 05                	jmp    c72d <func_56+0xa2b>
    c728:	b8 00 00 00 00       	mov    $0x0,%eax
    c72d:	83 f8 04             	cmp    $0x4,%eax
    c730:	0f 94 c0             	sete   %al
    c733:	0f b6 c0             	movzbl %al,%eax
    c736:	8b b5 20 f1 ff ff    	mov    -0xee0(%rbp),%esi
    c73c:	89 c7                	mov    %eax,%edi
    c73e:	e8 b2 bc ff ff       	callq  83f5 <safe_mul_func_int16_t_s_s>
    c743:	66 c7 05 9c b4 00 00 	movw   $0x1,0xb49c(%rip)        # 17be8 <g_795>
    c74a:	01 00 
    c74c:	0f b7 05 95 b4 00 00 	movzwl 0xb495(%rip),%eax        # 17be8 <g_795>
    c753:	66 35 22 4d          	xor    $0x4d22,%ax
    c757:	0f b7 c0             	movzwl %ax,%eax
    c75a:	48 39 85 48 f1 ff ff 	cmp    %rax,-0xeb8(%rbp)
    c761:	0f 95 c0             	setne  %al
    c764:	0f b6 c0             	movzbl %al,%eax
    c767:	8b b5 28 f1 ff ff    	mov    -0xed8(%rbp),%esi
    c76d:	89 c7                	mov    %eax,%edi
    c76f:	e8 d8 c4 ff ff       	callq  8c4c <safe_lshift_func_uint8_t_u_u>
    c774:	44 89 fe             	mov    %r15d,%esi
    c777:	bf 00 00 00 00       	mov    $0x0,%edi
    c77c:	e8 60 bd ff ff       	callq  84e1 <safe_lshift_func_int16_t_s_u>
    c781:	44 89 f6             	mov    %r14d,%esi
    c784:	bf 01 00 00 00       	mov    $0x1,%edi
    c789:	e8 88 bc ff ff       	callq  8416 <safe_mod_func_int16_t_s_s>
    c78e:	66 85 c0             	test   %ax,%ax
    c791:	75 0a                	jne    c79d <func_56+0xa9b>
    c793:	8b 05 cb aa 00 00    	mov    0xaacb(%rip),%eax        # 17264 <g_320+0x4>
    c799:	85 c0                	test   %eax,%eax
    c79b:	74 07                	je     c7a4 <func_56+0xaa2>
    c79d:	b8 01 00 00 00       	mov    $0x1,%eax
    c7a2:	eb 05                	jmp    c7a9 <func_56+0xaa7>
    c7a4:	b8 00 00 00 00       	mov    $0x0,%eax
    c7a9:	0f be c0             	movsbl %al,%eax
    c7ac:	44 89 ee             	mov    %r13d,%esi
    c7af:	89 c7                	mov    %eax,%edi
    c7b1:	e8 1e ba ff ff       	callq  81d4 <safe_add_func_int8_t_s_s>
    c7b6:	84 c0                	test   %al,%al
    c7b8:	75 07                	jne    c7c1 <func_56+0xabf>
    c7ba:	83 bd 34 f1 ff ff 00 	cmpl   $0x0,-0xecc(%rbp)
    c7c1:	be 08 00 00 00       	mov    $0x8,%esi
    c7c6:	bf 00 00 00 00       	mov    $0x0,%edi
    c7cb:	e8 27 c2 ff ff       	callq  89f7 <safe_div_func_int64_t_s_s>
    c7d0:	98                   	cwtl   
    c7d1:	44 89 e6             	mov    %r12d,%esi
    c7d4:	89 c7                	mov    %eax,%edi
    c7d6:	e8 f8 bb ff ff       	callq  83d3 <safe_sub_func_int16_t_s_s>
    c7db:	0f b7 c0             	movzwl %ax,%eax
    c7de:	89 de                	mov    %ebx,%esi
    c7e0:	89 c7                	mov    %eax,%edi
    c7e2:	e8 18 c5 ff ff       	callq  8cff <safe_add_func_uint16_t_u_u>
    c7e7:	48 8b 85 38 f1 ff ff 	mov    -0xec8(%rbp),%rax
    c7ee:	c7 00 00 00 00 00    	movl   $0x0,(%rax)
    c7f4:	66 83 bd 58 f1 ff ff 	cmpw   $0x0,-0xea8(%rbp)
    c7fb:	00 
    c7fc:	0f 84 b4 04 00 00    	je     ccb6 <func_56+0xfb4>
    c802:	48 8d 05 4b b0 00 00 	lea    0xb04b(%rip),%rax        # 17854 <g_526+0x554>
    c809:	48 89 85 20 f2 ff ff 	mov    %rax,-0xde0(%rbp)
    c810:	48 8d 05 15 a8 00 00 	lea    0xa815(%rip),%rax        # 1702c <g_13>
    c817:	48 89 85 28 f2 ff ff 	mov    %rax,-0xdd8(%rbp)
    c81e:	c7 85 80 f1 ff ff 01 	movl   $0x1,-0xe80(%rbp)
    c825:	00 00 00 
    c828:	c7 85 84 f1 ff ff fc 	movl   $0xfffffffc,-0xe7c(%rbp)
    c82f:	ff ff ff 
    c832:	48 8d 85 5c f1 ff ff 	lea    -0xea4(%rbp),%rax
    c839:	48 89 85 30 f2 ff ff 	mov    %rax,-0xdd0(%rbp)
    c840:	be 06 00 00 00       	mov    $0x6,%esi
    c845:	bf 00 00 00 00       	mov    $0x0,%edi
    c84a:	e8 f9 c5 ff ff       	callq  8e48 <safe_rshift_func_uint16_t_u_s>
    c84f:	98                   	cwtl   
    c850:	be 01 00 00 00       	mov    $0x1,%esi
    c855:	89 c7                	mov    %eax,%edi
    c857:	e8 36 bc ff ff       	callq  8492 <safe_lshift_func_int16_t_s_s>
    c85c:	0f bf d0             	movswl %ax,%edx
    c85f:	48 8b 85 20 f2 ff ff 	mov    -0xde0(%rbp),%rax
    c866:	89 10                	mov    %edx,(%rax)
    c868:	48 8b 85 20 f2 ff ff 	mov    -0xde0(%rbp),%rax
    c86f:	8b 00                	mov    (%rax),%eax
    c871:	be 02 33 56 dc       	mov    $0xdc563302,%esi
    c876:	89 c7                	mov    %eax,%edi
    c878:	e8 80 c6 ff ff       	callq  8efd <safe_mod_func_uint32_t_u_u>
    c87d:	89 c2                	mov    %eax,%edx
    c87f:	48 8b 85 38 f1 ff ff 	mov    -0xec8(%rbp),%rax
    c886:	89 10                	mov    %edx,(%rax)
    c888:	66 c7 05 57 b3 00 00 	movw   $0x0,0xb357(%rip)        # 17be8 <g_795>
    c88f:	00 00 
    c891:	e9 0b 04 00 00       	jmpq   cca1 <func_56+0xf9f>
    c896:	c7 85 88 f1 ff ff f8 	movl   $0xfffffff8,-0xe78(%rbp)
    c89d:	ff ff ff 
    c8a0:	48 8d 85 a8 f1 ff ff 	lea    -0xe58(%rbp),%rax
    c8a7:	48 89 85 50 f3 ff ff 	mov    %rax,-0xcb0(%rbp)
    c8ae:	48 8d 85 a8 f1 ff ff 	lea    -0xe58(%rbp),%rax
    c8b5:	48 89 85 58 f3 ff ff 	mov    %rax,-0xca8(%rbp)
    c8bc:	48 8d 85 a8 f1 ff ff 	lea    -0xe58(%rbp),%rax
    c8c3:	48 89 85 60 f3 ff ff 	mov    %rax,-0xca0(%rbp)
    c8ca:	48 8d 85 a8 f1 ff ff 	lea    -0xe58(%rbp),%rax
    c8d1:	48 89 85 68 f3 ff ff 	mov    %rax,-0xc98(%rbp)
    c8d8:	48 8d 85 a8 f1 ff ff 	lea    -0xe58(%rbp),%rax
    c8df:	48 89 85 70 f3 ff ff 	mov    %rax,-0xc90(%rbp)
    c8e6:	48 8d 85 a8 f1 ff ff 	lea    -0xe58(%rbp),%rax
    c8ed:	48 89 85 78 f3 ff ff 	mov    %rax,-0xc88(%rbp)
    c8f4:	48 8d 85 a8 f1 ff ff 	lea    -0xe58(%rbp),%rax
    c8fb:	48 89 85 80 f3 ff ff 	mov    %rax,-0xc80(%rbp)
    c902:	48 8d 85 a8 f1 ff ff 	lea    -0xe58(%rbp),%rax
    c909:	48 89 85 88 f3 ff ff 	mov    %rax,-0xc78(%rbp)
    c910:	48 8d 85 a8 f1 ff ff 	lea    -0xe58(%rbp),%rax
    c917:	48 89 85 90 f3 ff ff 	mov    %rax,-0xc70(%rbp)
    c91e:	c7 85 6c f1 ff ff 00 	movl   $0x0,-0xe94(%rbp)
    c925:	00 00 00 
    c928:	eb 19                	jmp    c943 <func_56+0xc41>
    c92a:	8b 85 6c f1 ff ff    	mov    -0xe94(%rbp),%eax
    c930:	48 98                	cltq   
    c932:	66 c7 84 45 a6 f2 ff 	movw   $0xffff,-0xd5a(%rbp,%rax,2)
    c939:	ff ff ff 
    c93c:	83 85 6c f1 ff ff 01 	addl   $0x1,-0xe94(%rbp)
    c943:	83 bd 6c f1 ff ff 04 	cmpl   $0x4,-0xe94(%rbp)
    c94a:	7e de                	jle    c92a <func_56+0xc28>
    c94c:	0f b7 85 ac f2 ff ff 	movzwl -0xd54(%rbp),%eax
    c953:	66 85 c0             	test   %ax,%ax
    c956:	0f 84 2b 03 00 00    	je     cc87 <func_56+0xf85>
    c95c:	48 8d 85 b0 f1 ff ff 	lea    -0xe50(%rbp),%rax
    c963:	48 89 85 40 f2 ff ff 	mov    %rax,-0xdc0(%rbp)
    c96a:	48 c7 85 a0 f3 ff ff 	movq   $0x0,-0xc60(%rbp)
    c971:	00 00 00 00 
    c975:	48 c7 85 a8 f3 ff ff 	movq   $0x0,-0xc58(%rbp)
    c97c:	00 00 00 00 
    c980:	48 c7 85 b0 f3 ff ff 	movq   $0x0,-0xc50(%rbp)
    c987:	00 00 00 00 
    c98b:	48 c7 85 b8 f3 ff ff 	movq   $0x0,-0xc48(%rbp)
    c992:	00 00 00 00 
    c996:	48 c7 85 c0 f3 ff ff 	movq   $0x0,-0xc40(%rbp)
    c99d:	00 00 00 00 
    c9a1:	48 c7 85 c8 f3 ff ff 	movq   $0x0,-0xc38(%rbp)
    c9a8:	00 00 00 00 
    c9ac:	48 c7 85 d0 f3 ff ff 	movq   $0x0,-0xc30(%rbp)
    c9b3:	00 00 00 00 
    c9b7:	48 c7 85 d8 f3 ff ff 	movq   $0x0,-0xc28(%rbp)
    c9be:	00 00 00 00 
    c9c2:	48 c7 85 e0 f3 ff ff 	movq   $0x0,-0xc20(%rbp)
    c9c9:	00 00 00 00 
    c9cd:	c7 85 e0 f7 ff ff 66 	movl   $0x23b8c866,-0x820(%rbp)
    c9d4:	c8 b8 23 
    c9d7:	c7 85 e4 f7 ff ff 52 	movl   $0xc0592a52,-0x81c(%rbp)
    c9de:	2a 59 c0 
    c9e1:	c7 85 e8 f7 ff ff 66 	movl   $0x23b8c866,-0x818(%rbp)
    c9e8:	c8 b8 23 
    c9eb:	c7 85 ec f7 ff ff 52 	movl   $0xc0592a52,-0x814(%rbp)
    c9f2:	2a 59 c0 
    c9f5:	c7 85 f0 f7 ff ff 66 	movl   $0x23b8c866,-0x810(%rbp)
    c9fc:	c8 b8 23 
    c9ff:	c7 85 f4 f7 ff ff 52 	movl   $0xc0592a52,-0x80c(%rbp)
    ca06:	2a 59 c0 
    ca09:	c7 85 f8 f7 ff ff 66 	movl   $0x23b8c866,-0x808(%rbp)
    ca10:	c8 b8 23 
    ca13:	c7 85 fc f7 ff ff 52 	movl   $0xc0592a52,-0x804(%rbp)
    ca1a:	2a 59 c0 
    ca1d:	c7 85 00 f8 ff ff 66 	movl   $0x23b8c866,-0x800(%rbp)
    ca24:	c8 b8 23 
    ca27:	c7 85 04 f8 ff ff 52 	movl   $0xc0592a52,-0x7fc(%rbp)
    ca2e:	2a 59 c0 
    ca31:	c7 85 08 f8 ff ff 66 	movl   $0x23b8c866,-0x7f8(%rbp)
    ca38:	c8 b8 23 
    ca3b:	c7 85 0c f8 ff ff 52 	movl   $0xc0592a52,-0x7f4(%rbp)
    ca42:	2a 59 c0 
    ca45:	c7 85 10 f8 ff ff 66 	movl   $0x23b8c866,-0x7f0(%rbp)
    ca4c:	c8 b8 23 
    ca4f:	c7 85 14 f8 ff ff 52 	movl   $0xc0592a52,-0x7ec(%rbp)
    ca56:	2a 59 c0 
    ca59:	c7 85 18 f8 ff ff 66 	movl   $0x23b8c866,-0x7e8(%rbp)
    ca60:	c8 b8 23 
    ca63:	c7 85 1c f8 ff ff 52 	movl   $0xc0592a52,-0x7e4(%rbp)
    ca6a:	2a 59 c0 
    ca6d:	c7 85 20 f8 ff ff 66 	movl   $0x23b8c866,-0x7e0(%rbp)
    ca74:	c8 b8 23 
    ca77:	c7 85 24 f8 ff ff 52 	movl   $0xc0592a52,-0x7dc(%rbp)
    ca7e:	2a 59 c0 
    ca81:	c7 85 28 f8 ff ff 66 	movl   $0x23b8c866,-0x7d8(%rbp)
    ca88:	c8 b8 23 
    ca8b:	c7 85 2c f8 ff ff 52 	movl   $0xc0592a52,-0x7d4(%rbp)
    ca92:	2a 59 c0 
    ca95:	c7 85 30 f8 ff ff 66 	movl   $0x23b8c866,-0x7d0(%rbp)
    ca9c:	c8 b8 23 
    ca9f:	c7 85 34 f8 ff ff 52 	movl   $0xc0592a52,-0x7cc(%rbp)
    caa6:	2a 59 c0 
    caa9:	c7 85 38 f8 ff ff 66 	movl   $0x23b8c866,-0x7c8(%rbp)
    cab0:	c8 b8 23 
    cab3:	c7 85 3c f8 ff ff 52 	movl   $0xc0592a52,-0x7c4(%rbp)
    caba:	2a 59 c0 
    cabd:	c7 85 40 f8 ff ff 66 	movl   $0x23b8c866,-0x7c0(%rbp)
    cac4:	c8 b8 23 
    cac7:	c7 85 44 f8 ff ff 52 	movl   $0xc0592a52,-0x7bc(%rbp)
    cace:	2a 59 c0 
    cad1:	c7 85 48 f8 ff ff 66 	movl   $0x23b8c866,-0x7b8(%rbp)
    cad8:	c8 b8 23 
    cadb:	c7 85 4c f8 ff ff 52 	movl   $0xc0592a52,-0x7b4(%rbp)
    cae2:	2a 59 c0 
    cae5:	c7 85 50 f8 ff ff 66 	movl   $0x23b8c866,-0x7b0(%rbp)
    caec:	c8 b8 23 
    caef:	c7 85 54 f8 ff ff 52 	movl   $0xc0592a52,-0x7ac(%rbp)
    caf6:	2a 59 c0 
    caf9:	c7 85 58 f8 ff ff 66 	movl   $0x23b8c866,-0x7a8(%rbp)
    cb00:	c8 b8 23 
    cb03:	c7 85 5c f8 ff ff 52 	movl   $0xc0592a52,-0x7a4(%rbp)
    cb0a:	2a 59 c0 
    cb0d:	c7 85 60 f8 ff ff 66 	movl   $0x23b8c866,-0x7a0(%rbp)
    cb14:	c8 b8 23 
    cb17:	c7 85 64 f8 ff ff 52 	movl   $0xc0592a52,-0x79c(%rbp)
    cb1e:	2a 59 c0 
    cb21:	c7 85 68 f8 ff ff 66 	movl   $0x23b8c866,-0x798(%rbp)
    cb28:	c8 b8 23 
    cb2b:	c7 85 6c f8 ff ff 52 	movl   $0xc0592a52,-0x794(%rbp)
    cb32:	2a 59 c0 
    cb35:	c7 85 70 f8 ff ff 66 	movl   $0x23b8c866,-0x790(%rbp)
    cb3c:	c8 b8 23 
    cb3f:	c7 85 74 f8 ff ff 52 	movl   $0xc0592a52,-0x78c(%rbp)
    cb46:	2a 59 c0 
    cb49:	c7 85 78 f8 ff ff 66 	movl   $0x23b8c866,-0x788(%rbp)
    cb50:	c8 b8 23 
    cb53:	c7 85 7c f8 ff ff 52 	movl   $0xc0592a52,-0x784(%rbp)
    cb5a:	2a 59 c0 
    cb5d:	48 8b 85 40 f2 ff ff 	mov    -0xdc0(%rbp),%rax
    cb64:	48 89 05 2d e1 00 00 	mov    %rax,0xe12d(%rip)        # 1ac98 <g_1363>
    cb6b:	48 8b 15 26 e1 00 00 	mov    0xe126(%rip),%rdx        # 1ac98 <g_1363>
    cb72:	48 8d 85 b0 f1 ff ff 	lea    -0xe50(%rbp),%rax
    cb79:	48 39 c2             	cmp    %rax,%rdx
    cb7c:	0f 95 c3             	setne  %bl
    cb7f:	83 bd 80 f1 ff ff 00 	cmpl   $0x0,-0xe80(%rbp)
    cb86:	0f 9f c0             	setg   %al
    cb89:	0f b6 c0             	movzbl %al,%eax
    cb8c:	be 0e 00 00 00       	mov    $0xe,%esi
    cb91:	89 c7                	mov    %eax,%edi
    cb93:	e8 b0 c2 ff ff       	callq  8e48 <safe_rshift_func_uint16_t_u_s>
    cb98:	0f b7 05 25 b8 00 00 	movzwl 0xb825(%rip),%eax        # 183c4 <g_1318+0x24>
    cb9f:	c1 e0 07             	shl    $0x7,%eax
    cba2:	66 c1 f8 07          	sar    $0x7,%ax
    cba6:	48 0f bf d0          	movswq %ax,%rdx
    cbaa:	48 0f bf 85 58 f1 ff 	movswq -0xea8(%rbp),%rax
    cbb1:	ff 
    cbb2:	48 89 d6             	mov    %rdx,%rsi
    cbb5:	48 89 c7             	mov    %rax,%rdi
    cbb8:	e8 f7 bd ff ff       	callq  89b4 <safe_mod_func_int64_t_s_s>
    cbbd:	48 89 c2             	mov    %rax,%rdx
    cbc0:	0f b6 05 3f a6 00 00 	movzbl 0xa63f(%rip),%eax        # 17206 <g_138+0x6>
    cbc7:	01 c0                	add    %eax,%eax
    cbc9:	c0 f8 04             	sar    $0x4,%al
    cbcc:	48 0f be c0          	movsbq %al,%rax
    cbd0:	48 39 c2             	cmp    %rax,%rdx
    cbd3:	0f 9f c0             	setg   %al
    cbd6:	09 d8                	or     %ebx,%eax
    cbd8:	0f b6 d0             	movzbl %al,%edx
    cbdb:	48 8b 85 38 f1 ff ff 	mov    -0xec8(%rbp),%rax
    cbe2:	89 10                	mov    %edx,(%rax)
    cbe4:	48 8b 85 38 f1 ff ff 	mov    -0xec8(%rbp),%rax
    cbeb:	8b 00                	mov    (%rax),%eax
    cbed:	85 c0                	test   %eax,%eax
    cbef:	74 16                	je     cc07 <func_56+0xf05>
    cbf1:	0f b7 05 f0 af 00 00 	movzwl 0xaff0(%rip),%eax        # 17be8 <g_795>
    cbf8:	83 c0 01             	add    $0x1,%eax
    cbfb:	66 89 05 e6 af 00 00 	mov    %ax,0xafe6(%rip)        # 17be8 <g_795>
    cc02:	e9 9a 00 00 00       	jmpq   cca1 <func_56+0xf9f>
    cc07:	48 8b 85 38 f1 ff ff 	mov    -0xec8(%rbp),%rax
    cc0e:	8b 00                	mov    (%rax),%eax
    cc10:	85 c0                	test   %eax,%eax
    cc12:	0f 85 78 13 00 00    	jne    df90 <func_56+0x228e>
    cc18:	0f b7 85 54 f1 ff ff 	movzwl -0xeac(%rbp),%eax
    cc1f:	83 e8 01             	sub    $0x1,%eax
    cc22:	66 89 85 54 f1 ff ff 	mov    %ax,-0xeac(%rbp)
    cc29:	0f b7 85 ac f2 ff ff 	movzwl -0xd54(%rbp),%eax
    cc30:	98                   	cwtl   
    cc31:	48 8b 95 a8 f1 ff ff 	mov    -0xe58(%rbp),%rdx
    cc38:	48 89 95 f8 f1 ff ff 	mov    %rdx,-0xe08(%rbp)
    cc3f:	48 8b 95 38 f1 ff ff 	mov    -0xec8(%rbp),%rdx
    cc46:	8b 12                	mov    (%rdx),%edx
    cc48:	89 d1                	mov    %edx,%ecx
    cc4a:	81 c9 75 ac bc c4    	or     $0xc4bcac75,%ecx
    cc50:	48 8b 95 38 f1 ff ff 	mov    -0xec8(%rbp),%rdx
    cc57:	89 0a                	mov    %ecx,(%rdx)
    cc59:	89 c6                	mov    %eax,%esi
    cc5b:	bf 00 00 00 00       	mov    $0x0,%edi
    cc60:	e8 2d b8 ff ff       	callq  8492 <safe_lshift_func_int16_t_s_s>
    cc65:	98                   	cwtl   
    cc66:	89 85 84 f1 ff ff    	mov    %eax,-0xe7c(%rbp)
    cc6c:	8b 85 84 f1 ff ff    	mov    -0xe7c(%rbp),%eax
    cc72:	09 85 80 f1 ff ff    	or     %eax,-0xe80(%rbp)
    cc78:	48 8b 05 61 d4 00 00 	mov    0xd461(%rip),%rax        # 1a0e0 <g_709>
    cc7f:	48 8b 00             	mov    (%rax),%rax
    cc82:	e9 9f 13 00 00       	jmpq   e026 <func_56+0x2324>
    cc87:	48 8d 85 60 f1 ff ff 	lea    -0xea0(%rbp),%rax
    cc8e:	48 89 85 38 f2 ff ff 	mov    %rax,-0xdc8(%rbp)
    cc95:	48 8b 85 38 f1 ff ff 	mov    -0xec8(%rbp),%rax
    cc9c:	e9 85 13 00 00       	jmpq   e026 <func_56+0x2324>
    cca1:	0f b7 05 40 af 00 00 	movzwl 0xaf40(%rip),%eax        # 17be8 <g_795>
    cca8:	66 85 c0             	test   %ax,%ax
    ccab:	0f 84 e5 fb ff ff    	je     c896 <func_56+0xb94>
    ccb1:	e9 da 12 00 00       	jmpq   df90 <func_56+0x228e>
    ccb6:	66 c7 85 5a f1 ff ff 	movw   $0xffff,-0xea6(%rbp)
    ccbd:	ff ff 
    ccbf:	48 c7 85 08 f2 ff ff 	movq   $0x0,-0xdf8(%rbp)
    ccc6:	00 00 00 00 
    ccca:	48 8d 05 77 ee 00 00 	lea    0xee77(%rip),%rax        # 1bb48 <g_1118>
    ccd1:	48 89 85 a0 f3 ff ff 	mov    %rax,-0xc60(%rbp)
    ccd8:	48 8d 05 69 ee 00 00 	lea    0xee69(%rip),%rax        # 1bb48 <g_1118>
    ccdf:	48 89 85 a8 f3 ff ff 	mov    %rax,-0xc58(%rbp)
    cce6:	48 8d 05 5b ee 00 00 	lea    0xee5b(%rip),%rax        # 1bb48 <g_1118>
    cced:	48 89 85 b0 f3 ff ff 	mov    %rax,-0xc50(%rbp)
    ccf4:	48 8d 05 4d ee 00 00 	lea    0xee4d(%rip),%rax        # 1bb48 <g_1118>
    ccfb:	48 89 85 b8 f3 ff ff 	mov    %rax,-0xc48(%rbp)
    cd02:	48 8d 05 3f ee 00 00 	lea    0xee3f(%rip),%rax        # 1bb48 <g_1118>
    cd09:	48 89 85 c0 f3 ff ff 	mov    %rax,-0xc40(%rbp)
    cd10:	48 8d 05 31 ee 00 00 	lea    0xee31(%rip),%rax        # 1bb48 <g_1118>
    cd17:	48 89 85 c8 f3 ff ff 	mov    %rax,-0xc38(%rbp)
    cd1e:	48 8d 05 23 ee 00 00 	lea    0xee23(%rip),%rax        # 1bb48 <g_1118>
    cd25:	48 89 85 d0 f3 ff ff 	mov    %rax,-0xc30(%rbp)
    cd2c:	48 8d 05 15 ee 00 00 	lea    0xee15(%rip),%rax        # 1bb48 <g_1118>
    cd33:	48 89 85 d8 f3 ff ff 	mov    %rax,-0xc28(%rbp)
    cd3a:	48 8d 05 07 ee 00 00 	lea    0xee07(%rip),%rax        # 1bb48 <g_1118>
    cd41:	48 89 85 e0 f3 ff ff 	mov    %rax,-0xc20(%rbp)
    cd48:	48 8d 85 a0 f3 ff ff 	lea    -0xc60(%rbp),%rax
    cd4f:	48 83 c0 18          	add    $0x18,%rax
    cd53:	48 89 85 e0 f7 ff ff 	mov    %rax,-0x820(%rbp)
    cd5a:	48 8d 85 a0 f3 ff ff 	lea    -0xc60(%rbp),%rax
    cd61:	48 83 c0 30          	add    $0x30,%rax
    cd65:	48 89 85 e8 f7 ff ff 	mov    %rax,-0x818(%rbp)
    cd6c:	48 8d 85 a0 f3 ff ff 	lea    -0xc60(%rbp),%rax
    cd73:	48 83 c0 18          	add    $0x18,%rax
    cd77:	48 89 85 f0 f7 ff ff 	mov    %rax,-0x810(%rbp)
    cd7e:	48 8d 85 a0 f3 ff ff 	lea    -0xc60(%rbp),%rax
    cd85:	48 83 c0 18          	add    $0x18,%rax
    cd89:	48 89 85 f8 f7 ff ff 	mov    %rax,-0x808(%rbp)
    cd90:	48 8d 85 a0 f3 ff ff 	lea    -0xc60(%rbp),%rax
    cd97:	48 83 c0 30          	add    $0x30,%rax
    cd9b:	48 89 85 00 f8 ff ff 	mov    %rax,-0x800(%rbp)
    cda2:	48 8d 85 a0 f3 ff ff 	lea    -0xc60(%rbp),%rax
    cda9:	48 83 c0 30          	add    $0x30,%rax
    cdad:	48 89 85 08 f8 ff ff 	mov    %rax,-0x7f8(%rbp)
    cdb4:	48 c7 85 10 f8 ff ff 	movq   $0x0,-0x7f0(%rbp)
    cdbb:	00 00 00 00 
    cdbf:	48 8d 85 a0 f3 ff ff 	lea    -0xc60(%rbp),%rax
    cdc6:	48 83 c0 30          	add    $0x30,%rax
    cdca:	48 89 85 18 f8 ff ff 	mov    %rax,-0x7e8(%rbp)
    cdd1:	48 8d 85 a0 f3 ff ff 	lea    -0xc60(%rbp),%rax
    cdd8:	48 83 c0 30          	add    $0x30,%rax
    cddc:	48 89 85 20 f8 ff ff 	mov    %rax,-0x7e0(%rbp)
    cde3:	48 8d 85 a0 f3 ff ff 	lea    -0xc60(%rbp),%rax
    cdea:	48 83 c0 18          	add    $0x18,%rax
    cdee:	48 89 85 28 f8 ff ff 	mov    %rax,-0x7d8(%rbp)
    cdf5:	48 8d 85 a0 f3 ff ff 	lea    -0xc60(%rbp),%rax
    cdfc:	48 83 c0 18          	add    $0x18,%rax
    ce00:	48 89 85 30 f8 ff ff 	mov    %rax,-0x7d0(%rbp)
    ce07:	48 8d 85 a0 f3 ff ff 	lea    -0xc60(%rbp),%rax
    ce0e:	48 83 c0 30          	add    $0x30,%rax
    ce12:	48 89 85 38 f8 ff ff 	mov    %rax,-0x7c8(%rbp)
    ce19:	48 8d 85 a0 f3 ff ff 	lea    -0xc60(%rbp),%rax
    ce20:	48 83 c0 18          	add    $0x18,%rax
    ce24:	48 89 85 40 f8 ff ff 	mov    %rax,-0x7c0(%rbp)
    ce2b:	48 8d 85 a0 f3 ff ff 	lea    -0xc60(%rbp),%rax
    ce32:	48 83 c0 30          	add    $0x30,%rax
    ce36:	48 89 85 48 f8 ff ff 	mov    %rax,-0x7b8(%rbp)
    ce3d:	48 8d 85 a0 f3 ff ff 	lea    -0xc60(%rbp),%rax
    ce44:	48 83 c0 18          	add    $0x18,%rax
    ce48:	48 89 85 50 f8 ff ff 	mov    %rax,-0x7b0(%rbp)
    ce4f:	48 8d 85 a0 f3 ff ff 	lea    -0xc60(%rbp),%rax
    ce56:	48 83 c0 18          	add    $0x18,%rax
    ce5a:	48 89 85 58 f8 ff ff 	mov    %rax,-0x7a8(%rbp)
    ce61:	48 8d 85 a0 f3 ff ff 	lea    -0xc60(%rbp),%rax
    ce68:	48 83 c0 30          	add    $0x30,%rax
    ce6c:	48 89 85 60 f8 ff ff 	mov    %rax,-0x7a0(%rbp)
    ce73:	48 8d 85 a0 f3 ff ff 	lea    -0xc60(%rbp),%rax
    ce7a:	48 83 c0 30          	add    $0x30,%rax
    ce7e:	48 89 85 68 f8 ff ff 	mov    %rax,-0x798(%rbp)
    ce85:	48 c7 85 70 f8 ff ff 	movq   $0x0,-0x790(%rbp)
    ce8c:	00 00 00 00 
    ce90:	48 8d 85 a0 f3 ff ff 	lea    -0xc60(%rbp),%rax
    ce97:	48 83 c0 30          	add    $0x30,%rax
    ce9b:	48 89 85 78 f8 ff ff 	mov    %rax,-0x788(%rbp)
    cea2:	48 8d 85 a0 f3 ff ff 	lea    -0xc60(%rbp),%rax
    cea9:	48 83 c0 30          	add    $0x30,%rax
    cead:	48 89 85 80 f8 ff ff 	mov    %rax,-0x780(%rbp)
    ceb4:	48 8d 85 a0 f3 ff ff 	lea    -0xc60(%rbp),%rax
    cebb:	48 83 c0 18          	add    $0x18,%rax
    cebf:	48 89 85 88 f8 ff ff 	mov    %rax,-0x778(%rbp)
    cec6:	48 8d 85 a0 f3 ff ff 	lea    -0xc60(%rbp),%rax
    cecd:	48 83 c0 18          	add    $0x18,%rax
    ced1:	48 89 85 90 f8 ff ff 	mov    %rax,-0x770(%rbp)
    ced8:	48 8d 85 a0 f3 ff ff 	lea    -0xc60(%rbp),%rax
    cedf:	48 83 c0 30          	add    $0x30,%rax
    cee3:	48 89 85 98 f8 ff ff 	mov    %rax,-0x768(%rbp)
    ceea:	48 8d 85 a0 f3 ff ff 	lea    -0xc60(%rbp),%rax
    cef1:	48 83 c0 18          	add    $0x18,%rax
    cef5:	48 89 85 a0 f8 ff ff 	mov    %rax,-0x760(%rbp)
    cefc:	48 8d 85 a0 f3 ff ff 	lea    -0xc60(%rbp),%rax
    cf03:	48 83 c0 30          	add    $0x30,%rax
    cf07:	48 89 85 a8 f8 ff ff 	mov    %rax,-0x758(%rbp)
    cf0e:	48 8d 85 a0 f3 ff ff 	lea    -0xc60(%rbp),%rax
    cf15:	48 83 c0 18          	add    $0x18,%rax
    cf19:	48 89 85 b0 f8 ff ff 	mov    %rax,-0x750(%rbp)
    cf20:	48 8d 85 a0 f3 ff ff 	lea    -0xc60(%rbp),%rax
    cf27:	48 83 c0 18          	add    $0x18,%rax
    cf2b:	48 89 85 b8 f8 ff ff 	mov    %rax,-0x748(%rbp)
    cf32:	48 8d 85 a0 f3 ff ff 	lea    -0xc60(%rbp),%rax
    cf39:	48 83 c0 30          	add    $0x30,%rax
    cf3d:	48 89 85 c0 f8 ff ff 	mov    %rax,-0x740(%rbp)
    cf44:	48 8d 85 a0 f3 ff ff 	lea    -0xc60(%rbp),%rax
    cf4b:	48 83 c0 30          	add    $0x30,%rax
    cf4f:	48 89 85 c8 f8 ff ff 	mov    %rax,-0x738(%rbp)
    cf56:	48 c7 85 d0 f8 ff ff 	movq   $0x0,-0x730(%rbp)
    cf5d:	00 00 00 00 
    cf61:	48 8d 85 a0 f3 ff ff 	lea    -0xc60(%rbp),%rax
    cf68:	48 83 c0 30          	add    $0x30,%rax
    cf6c:	48 89 85 d8 f8 ff ff 	mov    %rax,-0x728(%rbp)
    cf73:	48 8d 85 a0 f3 ff ff 	lea    -0xc60(%rbp),%rax
    cf7a:	48 83 c0 30          	add    $0x30,%rax
    cf7e:	48 89 85 e0 f8 ff ff 	mov    %rax,-0x720(%rbp)
    cf85:	48 8d 85 a0 f3 ff ff 	lea    -0xc60(%rbp),%rax
    cf8c:	48 83 c0 18          	add    $0x18,%rax
    cf90:	48 89 85 e8 f8 ff ff 	mov    %rax,-0x718(%rbp)
    cf97:	48 8d 85 a0 f3 ff ff 	lea    -0xc60(%rbp),%rax
    cf9e:	48 83 c0 18          	add    $0x18,%rax
    cfa2:	48 89 85 f0 f8 ff ff 	mov    %rax,-0x710(%rbp)
    cfa9:	48 8d 85 a0 f3 ff ff 	lea    -0xc60(%rbp),%rax
    cfb0:	48 83 c0 30          	add    $0x30,%rax
    cfb4:	48 89 85 f8 f8 ff ff 	mov    %rax,-0x708(%rbp)
    cfbb:	48 8d 85 a0 f3 ff ff 	lea    -0xc60(%rbp),%rax
    cfc2:	48 83 c0 18          	add    $0x18,%rax
    cfc6:	48 89 85 00 f9 ff ff 	mov    %rax,-0x700(%rbp)
    cfcd:	48 8d 85 a0 f3 ff ff 	lea    -0xc60(%rbp),%rax
    cfd4:	48 83 c0 30          	add    $0x30,%rax
    cfd8:	48 89 85 08 f9 ff ff 	mov    %rax,-0x6f8(%rbp)
    cfdf:	48 8d 85 a0 f3 ff ff 	lea    -0xc60(%rbp),%rax
    cfe6:	48 83 c0 18          	add    $0x18,%rax
    cfea:	48 89 85 10 f9 ff ff 	mov    %rax,-0x6f0(%rbp)
    cff1:	48 8d 85 a0 f3 ff ff 	lea    -0xc60(%rbp),%rax
    cff8:	48 83 c0 18          	add    $0x18,%rax
    cffc:	48 89 85 18 f9 ff ff 	mov    %rax,-0x6e8(%rbp)
    d003:	48 8d 85 a0 f3 ff ff 	lea    -0xc60(%rbp),%rax
    d00a:	48 83 c0 30          	add    $0x30,%rax
    d00e:	48 89 85 20 f9 ff ff 	mov    %rax,-0x6e0(%rbp)
    d015:	48 8d 85 a0 f3 ff ff 	lea    -0xc60(%rbp),%rax
    d01c:	48 83 c0 30          	add    $0x30,%rax
    d020:	48 89 85 28 f9 ff ff 	mov    %rax,-0x6d8(%rbp)
    d027:	48 c7 85 30 f9 ff ff 	movq   $0x0,-0x6d0(%rbp)
    d02e:	00 00 00 00 
    d032:	48 8d 85 a0 f3 ff ff 	lea    -0xc60(%rbp),%rax
    d039:	48 83 c0 30          	add    $0x30,%rax
    d03d:	48 89 85 38 f9 ff ff 	mov    %rax,-0x6c8(%rbp)
    d044:	48 8d 85 a0 f3 ff ff 	lea    -0xc60(%rbp),%rax
    d04b:	48 83 c0 30          	add    $0x30,%rax
    d04f:	48 89 85 40 f9 ff ff 	mov    %rax,-0x6c0(%rbp)
    d056:	48 8d 85 a0 f3 ff ff 	lea    -0xc60(%rbp),%rax
    d05d:	48 83 c0 18          	add    $0x18,%rax
    d061:	48 89 85 48 f9 ff ff 	mov    %rax,-0x6b8(%rbp)
    d068:	48 8d 85 a0 f3 ff ff 	lea    -0xc60(%rbp),%rax
    d06f:	48 83 c0 18          	add    $0x18,%rax
    d073:	48 89 85 50 f9 ff ff 	mov    %rax,-0x6b0(%rbp)
    d07a:	48 8d 85 a0 f3 ff ff 	lea    -0xc60(%rbp),%rax
    d081:	48 83 c0 30          	add    $0x30,%rax
    d085:	48 89 85 58 f9 ff ff 	mov    %rax,-0x6a8(%rbp)
    d08c:	48 8d 85 a0 f3 ff ff 	lea    -0xc60(%rbp),%rax
    d093:	48 83 c0 18          	add    $0x18,%rax
    d097:	48 89 85 60 f9 ff ff 	mov    %rax,-0x6a0(%rbp)
    d09e:	48 8d 85 a0 f3 ff ff 	lea    -0xc60(%rbp),%rax
    d0a5:	48 83 c0 30          	add    $0x30,%rax
    d0a9:	48 89 85 68 f9 ff ff 	mov    %rax,-0x698(%rbp)
    d0b0:	48 8d 85 a0 f3 ff ff 	lea    -0xc60(%rbp),%rax
    d0b7:	48 83 c0 18          	add    $0x18,%rax
    d0bb:	48 89 85 70 f9 ff ff 	mov    %rax,-0x690(%rbp)
    d0c2:	48 8d 85 a0 f3 ff ff 	lea    -0xc60(%rbp),%rax
    d0c9:	48 83 c0 18          	add    $0x18,%rax
    d0cd:	48 89 85 78 f9 ff ff 	mov    %rax,-0x688(%rbp)
    d0d4:	48 8d 85 a0 f3 ff ff 	lea    -0xc60(%rbp),%rax
    d0db:	48 83 c0 30          	add    $0x30,%rax
    d0df:	48 89 85 80 f9 ff ff 	mov    %rax,-0x680(%rbp)
    d0e6:	48 8d 85 a0 f3 ff ff 	lea    -0xc60(%rbp),%rax
    d0ed:	48 83 c0 30          	add    $0x30,%rax
    d0f1:	48 89 85 88 f9 ff ff 	mov    %rax,-0x678(%rbp)
    d0f8:	48 c7 85 90 f9 ff ff 	movq   $0x0,-0x670(%rbp)
    d0ff:	00 00 00 00 
    d103:	48 8d 85 a0 f3 ff ff 	lea    -0xc60(%rbp),%rax
    d10a:	48 83 c0 30          	add    $0x30,%rax
    d10e:	48 89 85 98 f9 ff ff 	mov    %rax,-0x668(%rbp)
    d115:	48 8d 85 a0 f3 ff ff 	lea    -0xc60(%rbp),%rax
    d11c:	48 83 c0 30          	add    $0x30,%rax
    d120:	48 89 85 a0 f9 ff ff 	mov    %rax,-0x660(%rbp)
    d127:	48 8d 85 a0 f3 ff ff 	lea    -0xc60(%rbp),%rax
    d12e:	48 83 c0 18          	add    $0x18,%rax
    d132:	48 89 85 a8 f9 ff ff 	mov    %rax,-0x658(%rbp)
    d139:	48 8d 85 a0 f3 ff ff 	lea    -0xc60(%rbp),%rax
    d140:	48 83 c0 18          	add    $0x18,%rax
    d144:	48 89 85 b0 f9 ff ff 	mov    %rax,-0x650(%rbp)
    d14b:	48 8d 85 a0 f3 ff ff 	lea    -0xc60(%rbp),%rax
    d152:	48 83 c0 30          	add    $0x30,%rax
    d156:	48 89 85 b8 f9 ff ff 	mov    %rax,-0x648(%rbp)
    d15d:	48 8d 85 a0 f3 ff ff 	lea    -0xc60(%rbp),%rax
    d164:	48 83 c0 18          	add    $0x18,%rax
    d168:	48 89 85 c0 f9 ff ff 	mov    %rax,-0x640(%rbp)
    d16f:	48 8d 85 a0 f3 ff ff 	lea    -0xc60(%rbp),%rax
    d176:	48 83 c0 30          	add    $0x30,%rax
    d17a:	48 89 85 c8 f9 ff ff 	mov    %rax,-0x638(%rbp)
    d181:	48 8d 85 a0 f3 ff ff 	lea    -0xc60(%rbp),%rax
    d188:	48 83 c0 18          	add    $0x18,%rax
    d18c:	48 89 85 d0 f9 ff ff 	mov    %rax,-0x630(%rbp)
    d193:	48 8d 85 a0 f3 ff ff 	lea    -0xc60(%rbp),%rax
    d19a:	48 83 c0 18          	add    $0x18,%rax
    d19e:	48 89 85 d8 f9 ff ff 	mov    %rax,-0x628(%rbp)
    d1a5:	48 8d 85 a0 f3 ff ff 	lea    -0xc60(%rbp),%rax
    d1ac:	48 83 c0 30          	add    $0x30,%rax
    d1b0:	48 89 85 e0 f9 ff ff 	mov    %rax,-0x620(%rbp)
    d1b7:	48 8d 85 a0 f3 ff ff 	lea    -0xc60(%rbp),%rax
    d1be:	48 83 c0 30          	add    $0x30,%rax
    d1c2:	48 89 85 e8 f9 ff ff 	mov    %rax,-0x618(%rbp)
    d1c9:	48 c7 85 f0 f9 ff ff 	movq   $0x0,-0x610(%rbp)
    d1d0:	00 00 00 00 
    d1d4:	48 8d 85 a0 f3 ff ff 	lea    -0xc60(%rbp),%rax
    d1db:	48 83 c0 30          	add    $0x30,%rax
    d1df:	48 89 85 f8 f9 ff ff 	mov    %rax,-0x608(%rbp)
    d1e6:	48 8d 85 a0 f3 ff ff 	lea    -0xc60(%rbp),%rax
    d1ed:	48 83 c0 30          	add    $0x30,%rax
    d1f1:	48 89 85 00 fa ff ff 	mov    %rax,-0x600(%rbp)
    d1f8:	48 8d 85 a0 f3 ff ff 	lea    -0xc60(%rbp),%rax
    d1ff:	48 83 c0 18          	add    $0x18,%rax
    d203:	48 89 85 08 fa ff ff 	mov    %rax,-0x5f8(%rbp)
    d20a:	48 8d 85 a0 f3 ff ff 	lea    -0xc60(%rbp),%rax
    d211:	48 83 c0 18          	add    $0x18,%rax
    d215:	48 89 85 10 fa ff ff 	mov    %rax,-0x5f0(%rbp)
    d21c:	48 8d 85 a0 f3 ff ff 	lea    -0xc60(%rbp),%rax
    d223:	48 83 c0 30          	add    $0x30,%rax
    d227:	48 89 85 18 fa ff ff 	mov    %rax,-0x5e8(%rbp)
    d22e:	48 8d 85 a0 f3 ff ff 	lea    -0xc60(%rbp),%rax
    d235:	48 83 c0 18          	add    $0x18,%rax
    d239:	48 89 85 20 fa ff ff 	mov    %rax,-0x5e0(%rbp)
    d240:	48 8d 85 a0 f3 ff ff 	lea    -0xc60(%rbp),%rax
    d247:	48 83 c0 30          	add    $0x30,%rax
    d24b:	48 89 85 28 fa ff ff 	mov    %rax,-0x5d8(%rbp)
    d252:	48 8d 85 a0 f3 ff ff 	lea    -0xc60(%rbp),%rax
    d259:	48 83 c0 18          	add    $0x18,%rax
    d25d:	48 89 85 30 fa ff ff 	mov    %rax,-0x5d0(%rbp)
    d264:	48 8d 85 a0 f3 ff ff 	lea    -0xc60(%rbp),%rax
    d26b:	48 83 c0 18          	add    $0x18,%rax
    d26f:	48 89 85 38 fa ff ff 	mov    %rax,-0x5c8(%rbp)
    d276:	48 8d 85 a0 f3 ff ff 	lea    -0xc60(%rbp),%rax
    d27d:	48 83 c0 30          	add    $0x30,%rax
    d281:	48 89 85 40 fa ff ff 	mov    %rax,-0x5c0(%rbp)
    d288:	48 8d 85 a0 f3 ff ff 	lea    -0xc60(%rbp),%rax
    d28f:	48 83 c0 30          	add    $0x30,%rax
    d293:	48 89 85 48 fa ff ff 	mov    %rax,-0x5b8(%rbp)
    d29a:	48 c7 85 50 fa ff ff 	movq   $0x0,-0x5b0(%rbp)
    d2a1:	00 00 00 00 
    d2a5:	48 8d 85 a0 f3 ff ff 	lea    -0xc60(%rbp),%rax
    d2ac:	48 83 c0 30          	add    $0x30,%rax
    d2b0:	48 89 85 58 fa ff ff 	mov    %rax,-0x5a8(%rbp)
    d2b7:	48 8d 85 a0 f3 ff ff 	lea    -0xc60(%rbp),%rax
    d2be:	48 83 c0 30          	add    $0x30,%rax
    d2c2:	48 89 85 60 fa ff ff 	mov    %rax,-0x5a0(%rbp)
    d2c9:	48 8d 85 a0 f3 ff ff 	lea    -0xc60(%rbp),%rax
    d2d0:	48 83 c0 18          	add    $0x18,%rax
    d2d4:	48 89 85 68 fa ff ff 	mov    %rax,-0x598(%rbp)
    d2db:	48 8d 85 a0 f3 ff ff 	lea    -0xc60(%rbp),%rax
    d2e2:	48 83 c0 18          	add    $0x18,%rax
    d2e6:	48 89 85 70 fa ff ff 	mov    %rax,-0x590(%rbp)
    d2ed:	48 8d 85 a0 f3 ff ff 	lea    -0xc60(%rbp),%rax
    d2f4:	48 83 c0 30          	add    $0x30,%rax
    d2f8:	48 89 85 78 fa ff ff 	mov    %rax,-0x588(%rbp)
    d2ff:	48 8d 85 a0 f3 ff ff 	lea    -0xc60(%rbp),%rax
    d306:	48 83 c0 18          	add    $0x18,%rax
    d30a:	48 89 85 80 fa ff ff 	mov    %rax,-0x580(%rbp)
    d311:	48 8d 85 a0 f3 ff ff 	lea    -0xc60(%rbp),%rax
    d318:	48 83 c0 30          	add    $0x30,%rax
    d31c:	48 89 85 88 fa ff ff 	mov    %rax,-0x578(%rbp)
    d323:	48 8d 85 a0 f3 ff ff 	lea    -0xc60(%rbp),%rax
    d32a:	48 83 c0 18          	add    $0x18,%rax
    d32e:	48 89 85 90 fa ff ff 	mov    %rax,-0x570(%rbp)
    d335:	48 8d 85 a0 f3 ff ff 	lea    -0xc60(%rbp),%rax
    d33c:	48 83 c0 18          	add    $0x18,%rax
    d340:	48 89 85 98 fa ff ff 	mov    %rax,-0x568(%rbp)
    d347:	48 8d 85 a0 f3 ff ff 	lea    -0xc60(%rbp),%rax
    d34e:	48 83 c0 30          	add    $0x30,%rax
    d352:	48 89 85 a0 fa ff ff 	mov    %rax,-0x560(%rbp)
    d359:	48 8d 85 a0 f3 ff ff 	lea    -0xc60(%rbp),%rax
    d360:	48 83 c0 30          	add    $0x30,%rax
    d364:	48 89 85 a8 fa ff ff 	mov    %rax,-0x558(%rbp)
    d36b:	48 c7 85 b0 fa ff ff 	movq   $0x0,-0x550(%rbp)
    d372:	00 00 00 00 
    d376:	48 8d 85 a0 f3 ff ff 	lea    -0xc60(%rbp),%rax
    d37d:	48 83 c0 30          	add    $0x30,%rax
    d381:	48 89 85 b8 fa ff ff 	mov    %rax,-0x548(%rbp)
    d388:	48 8d 85 a0 f3 ff ff 	lea    -0xc60(%rbp),%rax
    d38f:	48 83 c0 30          	add    $0x30,%rax
    d393:	48 89 85 c0 fa ff ff 	mov    %rax,-0x540(%rbp)
    d39a:	48 8d 85 a0 f3 ff ff 	lea    -0xc60(%rbp),%rax
    d3a1:	48 83 c0 18          	add    $0x18,%rax
    d3a5:	48 89 85 c8 fa ff ff 	mov    %rax,-0x538(%rbp)
    d3ac:	48 8d 85 a0 f3 ff ff 	lea    -0xc60(%rbp),%rax
    d3b3:	48 83 c0 18          	add    $0x18,%rax
    d3b7:	48 89 85 d0 fa ff ff 	mov    %rax,-0x530(%rbp)
    d3be:	48 8d 85 a0 f3 ff ff 	lea    -0xc60(%rbp),%rax
    d3c5:	48 83 c0 30          	add    $0x30,%rax
    d3c9:	48 89 85 d8 fa ff ff 	mov    %rax,-0x528(%rbp)
    d3d0:	48 8d 85 a0 f3 ff ff 	lea    -0xc60(%rbp),%rax
    d3d7:	48 83 c0 18          	add    $0x18,%rax
    d3db:	48 89 85 e0 fa ff ff 	mov    %rax,-0x520(%rbp)
    d3e2:	48 8d 85 a0 f3 ff ff 	lea    -0xc60(%rbp),%rax
    d3e9:	48 83 c0 30          	add    $0x30,%rax
    d3ed:	48 89 85 e8 fa ff ff 	mov    %rax,-0x518(%rbp)
    d3f4:	48 8d 85 a0 f3 ff ff 	lea    -0xc60(%rbp),%rax
    d3fb:	48 83 c0 18          	add    $0x18,%rax
    d3ff:	48 89 85 f0 fa ff ff 	mov    %rax,-0x510(%rbp)
    d406:	48 8d 85 a0 f3 ff ff 	lea    -0xc60(%rbp),%rax
    d40d:	48 83 c0 18          	add    $0x18,%rax
    d411:	48 89 85 f8 fa ff ff 	mov    %rax,-0x508(%rbp)
    d418:	48 8d 85 a0 f3 ff ff 	lea    -0xc60(%rbp),%rax
    d41f:	48 83 c0 30          	add    $0x30,%rax
    d423:	48 89 85 00 fb ff ff 	mov    %rax,-0x500(%rbp)
    d42a:	48 8d 85 a0 f3 ff ff 	lea    -0xc60(%rbp),%rax
    d431:	48 83 c0 30          	add    $0x30,%rax
    d435:	48 89 85 08 fb ff ff 	mov    %rax,-0x4f8(%rbp)
    d43c:	48 c7 85 10 fb ff ff 	movq   $0x0,-0x4f0(%rbp)
    d443:	00 00 00 00 
    d447:	48 8d 85 a0 f3 ff ff 	lea    -0xc60(%rbp),%rax
    d44e:	48 83 c0 30          	add    $0x30,%rax
    d452:	48 89 85 18 fb ff ff 	mov    %rax,-0x4e8(%rbp)
    d459:	48 8d 85 a0 f3 ff ff 	lea    -0xc60(%rbp),%rax
    d460:	48 83 c0 30          	add    $0x30,%rax
    d464:	48 89 85 20 fb ff ff 	mov    %rax,-0x4e0(%rbp)
    d46b:	48 8d 85 a0 f3 ff ff 	lea    -0xc60(%rbp),%rax
    d472:	48 83 c0 18          	add    $0x18,%rax
    d476:	48 89 85 28 fb ff ff 	mov    %rax,-0x4d8(%rbp)
    d47d:	48 8d 85 a0 f3 ff ff 	lea    -0xc60(%rbp),%rax
    d484:	48 83 c0 18          	add    $0x18,%rax
    d488:	48 89 85 30 fb ff ff 	mov    %rax,-0x4d0(%rbp)
    d48f:	48 8d 85 a0 f3 ff ff 	lea    -0xc60(%rbp),%rax
    d496:	48 83 c0 30          	add    $0x30,%rax
    d49a:	48 89 85 38 fb ff ff 	mov    %rax,-0x4c8(%rbp)
    d4a1:	48 8d 85 a0 f3 ff ff 	lea    -0xc60(%rbp),%rax
    d4a8:	48 83 c0 18          	add    $0x18,%rax
    d4ac:	48 89 85 40 fb ff ff 	mov    %rax,-0x4c0(%rbp)
    d4b3:	48 8d 85 a0 f3 ff ff 	lea    -0xc60(%rbp),%rax
    d4ba:	48 83 c0 30          	add    $0x30,%rax
    d4be:	48 89 85 48 fb ff ff 	mov    %rax,-0x4b8(%rbp)
    d4c5:	48 8d 85 a0 f3 ff ff 	lea    -0xc60(%rbp),%rax
    d4cc:	48 83 c0 18          	add    $0x18,%rax
    d4d0:	48 89 85 50 fb ff ff 	mov    %rax,-0x4b0(%rbp)
    d4d7:	48 8d 85 a0 f3 ff ff 	lea    -0xc60(%rbp),%rax
    d4de:	48 83 c0 18          	add    $0x18,%rax
    d4e2:	48 89 85 58 fb ff ff 	mov    %rax,-0x4a8(%rbp)
    d4e9:	48 8d 85 a0 f3 ff ff 	lea    -0xc60(%rbp),%rax
    d4f0:	48 83 c0 30          	add    $0x30,%rax
    d4f4:	48 89 85 60 fb ff ff 	mov    %rax,-0x4a0(%rbp)
    d4fb:	48 8d 85 a0 f3 ff ff 	lea    -0xc60(%rbp),%rax
    d502:	48 83 c0 30          	add    $0x30,%rax
    d506:	48 89 85 68 fb ff ff 	mov    %rax,-0x498(%rbp)
    d50d:	48 c7 85 70 fb ff ff 	movq   $0x0,-0x490(%rbp)
    d514:	00 00 00 00 
    d518:	48 8d 85 a0 f3 ff ff 	lea    -0xc60(%rbp),%rax
    d51f:	48 83 c0 30          	add    $0x30,%rax
    d523:	48 89 85 78 fb ff ff 	mov    %rax,-0x488(%rbp)
    d52a:	48 8d 85 a0 f3 ff ff 	lea    -0xc60(%rbp),%rax
    d531:	48 83 c0 30          	add    $0x30,%rax
    d535:	48 89 85 80 fb ff ff 	mov    %rax,-0x480(%rbp)
    d53c:	48 8d 85 a0 f3 ff ff 	lea    -0xc60(%rbp),%rax
    d543:	48 83 c0 18          	add    $0x18,%rax
    d547:	48 89 85 88 fb ff ff 	mov    %rax,-0x478(%rbp)
    d54e:	48 8d 85 a0 f3 ff ff 	lea    -0xc60(%rbp),%rax
    d555:	48 83 c0 18          	add    $0x18,%rax
    d559:	48 89 85 90 fb ff ff 	mov    %rax,-0x470(%rbp)
    d560:	48 8d 85 a0 f3 ff ff 	lea    -0xc60(%rbp),%rax
    d567:	48 83 c0 30          	add    $0x30,%rax
    d56b:	48 89 85 98 fb ff ff 	mov    %rax,-0x468(%rbp)
    d572:	48 8d 85 a0 f3 ff ff 	lea    -0xc60(%rbp),%rax
    d579:	48 83 c0 18          	add    $0x18,%rax
    d57d:	48 89 85 a0 fb ff ff 	mov    %rax,-0x460(%rbp)
    d584:	48 8d 85 a0 f3 ff ff 	lea    -0xc60(%rbp),%rax
    d58b:	48 83 c0 30          	add    $0x30,%rax
    d58f:	48 89 85 a8 fb ff ff 	mov    %rax,-0x458(%rbp)
    d596:	48 8d 85 a0 f3 ff ff 	lea    -0xc60(%rbp),%rax
    d59d:	48 83 c0 18          	add    $0x18,%rax
    d5a1:	48 89 85 b0 fb ff ff 	mov    %rax,-0x450(%rbp)
    d5a8:	48 8d 85 a0 f3 ff ff 	lea    -0xc60(%rbp),%rax
    d5af:	48 83 c0 18          	add    $0x18,%rax
    d5b3:	48 89 85 b8 fb ff ff 	mov    %rax,-0x448(%rbp)
    d5ba:	48 8d 85 a0 f3 ff ff 	lea    -0xc60(%rbp),%rax
    d5c1:	48 83 c0 30          	add    $0x30,%rax
    d5c5:	48 89 85 c0 fb ff ff 	mov    %rax,-0x440(%rbp)
    d5cc:	48 8d 85 a0 f3 ff ff 	lea    -0xc60(%rbp),%rax
    d5d3:	48 83 c0 30          	add    $0x30,%rax
    d5d7:	48 89 85 c8 fb ff ff 	mov    %rax,-0x438(%rbp)
    d5de:	48 c7 85 d0 fb ff ff 	movq   $0x0,-0x430(%rbp)
    d5e5:	00 00 00 00 
    d5e9:	48 8d 85 a0 f3 ff ff 	lea    -0xc60(%rbp),%rax
    d5f0:	48 83 c0 30          	add    $0x30,%rax
    d5f4:	48 89 85 d8 fb ff ff 	mov    %rax,-0x428(%rbp)
    d5fb:	48 8d 85 a0 f3 ff ff 	lea    -0xc60(%rbp),%rax
    d602:	48 83 c0 30          	add    $0x30,%rax
    d606:	48 89 85 e0 fb ff ff 	mov    %rax,-0x420(%rbp)
    d60d:	48 8d 85 a0 f3 ff ff 	lea    -0xc60(%rbp),%rax
    d614:	48 83 c0 18          	add    $0x18,%rax
    d618:	48 89 85 e8 fb ff ff 	mov    %rax,-0x418(%rbp)
    d61f:	48 8d 85 a0 f3 ff ff 	lea    -0xc60(%rbp),%rax
    d626:	48 83 c0 18          	add    $0x18,%rax
    d62a:	48 89 85 f0 fb ff ff 	mov    %rax,-0x410(%rbp)
    d631:	48 8d 85 a0 f3 ff ff 	lea    -0xc60(%rbp),%rax
    d638:	48 83 c0 30          	add    $0x30,%rax
    d63c:	48 89 85 f8 fb ff ff 	mov    %rax,-0x408(%rbp)
    d643:	48 8d 85 a0 f3 ff ff 	lea    -0xc60(%rbp),%rax
    d64a:	48 83 c0 18          	add    $0x18,%rax
    d64e:	48 89 85 00 fc ff ff 	mov    %rax,-0x400(%rbp)
    d655:	48 8d 85 a0 f3 ff ff 	lea    -0xc60(%rbp),%rax
    d65c:	48 83 c0 30          	add    $0x30,%rax
    d660:	48 89 85 08 fc ff ff 	mov    %rax,-0x3f8(%rbp)
    d667:	48 8d 85 a0 f3 ff ff 	lea    -0xc60(%rbp),%rax
    d66e:	48 83 c0 18          	add    $0x18,%rax
    d672:	48 89 85 10 fc ff ff 	mov    %rax,-0x3f0(%rbp)
    d679:	48 8d 85 a0 f3 ff ff 	lea    -0xc60(%rbp),%rax
    d680:	48 83 c0 18          	add    $0x18,%rax
    d684:	48 89 85 18 fc ff ff 	mov    %rax,-0x3e8(%rbp)
    d68b:	48 8d 85 a0 f3 ff ff 	lea    -0xc60(%rbp),%rax
    d692:	48 83 c0 30          	add    $0x30,%rax
    d696:	48 89 85 20 fc ff ff 	mov    %rax,-0x3e0(%rbp)
    d69d:	48 8d 85 a0 f3 ff ff 	lea    -0xc60(%rbp),%rax
    d6a4:	48 83 c0 30          	add    $0x30,%rax
    d6a8:	48 89 85 28 fc ff ff 	mov    %rax,-0x3d8(%rbp)
    d6af:	48 c7 85 30 fc ff ff 	movq   $0x0,-0x3d0(%rbp)
    d6b6:	00 00 00 00 
    d6ba:	48 8d 85 a0 f3 ff ff 	lea    -0xc60(%rbp),%rax
    d6c1:	48 83 c0 30          	add    $0x30,%rax
    d6c5:	48 89 85 38 fc ff ff 	mov    %rax,-0x3c8(%rbp)
    d6cc:	48 8d 85 a0 f3 ff ff 	lea    -0xc60(%rbp),%rax
    d6d3:	48 83 c0 30          	add    $0x30,%rax
    d6d7:	48 89 85 40 fc ff ff 	mov    %rax,-0x3c0(%rbp)
    d6de:	48 8d 85 a0 f3 ff ff 	lea    -0xc60(%rbp),%rax
    d6e5:	48 83 c0 18          	add    $0x18,%rax
    d6e9:	48 89 85 48 fc ff ff 	mov    %rax,-0x3b8(%rbp)
    d6f0:	48 8d 85 a0 f3 ff ff 	lea    -0xc60(%rbp),%rax
    d6f7:	48 83 c0 18          	add    $0x18,%rax
    d6fb:	48 89 85 50 fc ff ff 	mov    %rax,-0x3b0(%rbp)
    d702:	48 8d 85 a0 f3 ff ff 	lea    -0xc60(%rbp),%rax
    d709:	48 83 c0 30          	add    $0x30,%rax
    d70d:	48 89 85 58 fc ff ff 	mov    %rax,-0x3a8(%rbp)
    d714:	48 8d 85 a0 f3 ff ff 	lea    -0xc60(%rbp),%rax
    d71b:	48 83 c0 18          	add    $0x18,%rax
    d71f:	48 89 85 60 fc ff ff 	mov    %rax,-0x3a0(%rbp)
    d726:	48 8d 85 a0 f3 ff ff 	lea    -0xc60(%rbp),%rax
    d72d:	48 83 c0 30          	add    $0x30,%rax
    d731:	48 89 85 68 fc ff ff 	mov    %rax,-0x398(%rbp)
    d738:	48 8d 85 a0 f3 ff ff 	lea    -0xc60(%rbp),%rax
    d73f:	48 83 c0 18          	add    $0x18,%rax
    d743:	48 89 85 70 fc ff ff 	mov    %rax,-0x390(%rbp)
    d74a:	48 8d 85 a0 f3 ff ff 	lea    -0xc60(%rbp),%rax
    d751:	48 83 c0 18          	add    $0x18,%rax
    d755:	48 89 85 78 fc ff ff 	mov    %rax,-0x388(%rbp)
    d75c:	48 8d 85 a0 f3 ff ff 	lea    -0xc60(%rbp),%rax
    d763:	48 83 c0 30          	add    $0x30,%rax
    d767:	48 89 85 80 fc ff ff 	mov    %rax,-0x380(%rbp)
    d76e:	48 8d 85 a0 f3 ff ff 	lea    -0xc60(%rbp),%rax
    d775:	48 83 c0 30          	add    $0x30,%rax
    d779:	48 89 85 88 fc ff ff 	mov    %rax,-0x378(%rbp)
    d780:	48 c7 85 90 fc ff ff 	movq   $0x0,-0x370(%rbp)
    d787:	00 00 00 00 
    d78b:	48 8d 85 a0 f3 ff ff 	lea    -0xc60(%rbp),%rax
    d792:	48 83 c0 30          	add    $0x30,%rax
    d796:	48 89 85 98 fc ff ff 	mov    %rax,-0x368(%rbp)
    d79d:	48 8d 85 a0 f3 ff ff 	lea    -0xc60(%rbp),%rax
    d7a4:	48 83 c0 30          	add    $0x30,%rax
    d7a8:	48 89 85 a0 fc ff ff 	mov    %rax,-0x360(%rbp)
    d7af:	48 8d 85 a0 f3 ff ff 	lea    -0xc60(%rbp),%rax
    d7b6:	48 83 c0 18          	add    $0x18,%rax
    d7ba:	48 89 85 a8 fc ff ff 	mov    %rax,-0x358(%rbp)
    d7c1:	48 8d 85 a0 f3 ff ff 	lea    -0xc60(%rbp),%rax
    d7c8:	48 83 c0 18          	add    $0x18,%rax
    d7cc:	48 89 85 b0 fc ff ff 	mov    %rax,-0x350(%rbp)
    d7d3:	48 8d 85 a0 f3 ff ff 	lea    -0xc60(%rbp),%rax
    d7da:	48 83 c0 30          	add    $0x30,%rax
    d7de:	48 89 85 b8 fc ff ff 	mov    %rax,-0x348(%rbp)
    d7e5:	48 8d 85 a0 f3 ff ff 	lea    -0xc60(%rbp),%rax
    d7ec:	48 83 c0 18          	add    $0x18,%rax
    d7f0:	48 89 85 c0 fc ff ff 	mov    %rax,-0x340(%rbp)
    d7f7:	48 8d 85 a0 f3 ff ff 	lea    -0xc60(%rbp),%rax
    d7fe:	48 83 c0 30          	add    $0x30,%rax
    d802:	48 89 85 c8 fc ff ff 	mov    %rax,-0x338(%rbp)
    d809:	48 8d 85 a0 f3 ff ff 	lea    -0xc60(%rbp),%rax
    d810:	48 83 c0 18          	add    $0x18,%rax
    d814:	48 89 85 d0 fc ff ff 	mov    %rax,-0x330(%rbp)
    d81b:	48 8d 85 a0 f3 ff ff 	lea    -0xc60(%rbp),%rax
    d822:	48 83 c0 18          	add    $0x18,%rax
    d826:	48 89 85 d8 fc ff ff 	mov    %rax,-0x328(%rbp)
    d82d:	48 8d 85 a0 f3 ff ff 	lea    -0xc60(%rbp),%rax
    d834:	48 83 c0 30          	add    $0x30,%rax
    d838:	48 89 85 e0 fc ff ff 	mov    %rax,-0x320(%rbp)
    d83f:	48 8d 85 a0 f3 ff ff 	lea    -0xc60(%rbp),%rax
    d846:	48 83 c0 30          	add    $0x30,%rax
    d84a:	48 89 85 e8 fc ff ff 	mov    %rax,-0x318(%rbp)
    d851:	48 c7 85 f0 fc ff ff 	movq   $0x0,-0x310(%rbp)
    d858:	00 00 00 00 
    d85c:	48 8d 85 a0 f3 ff ff 	lea    -0xc60(%rbp),%rax
    d863:	48 83 c0 30          	add    $0x30,%rax
    d867:	48 89 85 f8 fc ff ff 	mov    %rax,-0x308(%rbp)
    d86e:	48 8d 85 a0 f3 ff ff 	lea    -0xc60(%rbp),%rax
    d875:	48 83 c0 30          	add    $0x30,%rax
    d879:	48 89 85 00 fd ff ff 	mov    %rax,-0x300(%rbp)
    d880:	48 8d 85 a0 f3 ff ff 	lea    -0xc60(%rbp),%rax
    d887:	48 83 c0 18          	add    $0x18,%rax
    d88b:	48 89 85 08 fd ff ff 	mov    %rax,-0x2f8(%rbp)
    d892:	48 8d 85 a0 f3 ff ff 	lea    -0xc60(%rbp),%rax
    d899:	48 83 c0 18          	add    $0x18,%rax
    d89d:	48 89 85 10 fd ff ff 	mov    %rax,-0x2f0(%rbp)
    d8a4:	48 8d 85 a0 f3 ff ff 	lea    -0xc60(%rbp),%rax
    d8ab:	48 83 c0 30          	add    $0x30,%rax
    d8af:	48 89 85 18 fd ff ff 	mov    %rax,-0x2e8(%rbp)
    d8b6:	48 8d 85 a0 f3 ff ff 	lea    -0xc60(%rbp),%rax
    d8bd:	48 83 c0 18          	add    $0x18,%rax
    d8c1:	48 89 85 20 fd ff ff 	mov    %rax,-0x2e0(%rbp)
    d8c8:	48 8d 85 a0 f3 ff ff 	lea    -0xc60(%rbp),%rax
    d8cf:	48 83 c0 30          	add    $0x30,%rax
    d8d3:	48 89 85 28 fd ff ff 	mov    %rax,-0x2d8(%rbp)
    d8da:	48 8d 85 a0 f3 ff ff 	lea    -0xc60(%rbp),%rax
    d8e1:	48 83 c0 18          	add    $0x18,%rax
    d8e5:	48 89 85 30 fd ff ff 	mov    %rax,-0x2d0(%rbp)
    d8ec:	48 8d 85 a0 f3 ff ff 	lea    -0xc60(%rbp),%rax
    d8f3:	48 83 c0 18          	add    $0x18,%rax
    d8f7:	48 89 85 38 fd ff ff 	mov    %rax,-0x2c8(%rbp)
    d8fe:	48 8d 85 a0 f3 ff ff 	lea    -0xc60(%rbp),%rax
    d905:	48 83 c0 30          	add    $0x30,%rax
    d909:	48 89 85 40 fd ff ff 	mov    %rax,-0x2c0(%rbp)
    d910:	48 8d 85 a0 f3 ff ff 	lea    -0xc60(%rbp),%rax
    d917:	48 83 c0 30          	add    $0x30,%rax
    d91b:	48 89 85 48 fd ff ff 	mov    %rax,-0x2b8(%rbp)
    d922:	48 c7 85 50 fd ff ff 	movq   $0x0,-0x2b0(%rbp)
    d929:	00 00 00 00 
    d92d:	48 8d 85 a0 f3 ff ff 	lea    -0xc60(%rbp),%rax
    d934:	48 83 c0 30          	add    $0x30,%rax
    d938:	48 89 85 58 fd ff ff 	mov    %rax,-0x2a8(%rbp)
    d93f:	48 8d 85 a0 f3 ff ff 	lea    -0xc60(%rbp),%rax
    d946:	48 83 c0 30          	add    $0x30,%rax
    d94a:	48 89 85 60 fd ff ff 	mov    %rax,-0x2a0(%rbp)
    d951:	48 8d 85 a0 f3 ff ff 	lea    -0xc60(%rbp),%rax
    d958:	48 83 c0 18          	add    $0x18,%rax
    d95c:	48 89 85 68 fd ff ff 	mov    %rax,-0x298(%rbp)
    d963:	48 8d 85 a0 f3 ff ff 	lea    -0xc60(%rbp),%rax
    d96a:	48 83 c0 18          	add    $0x18,%rax
    d96e:	48 89 85 70 fd ff ff 	mov    %rax,-0x290(%rbp)
    d975:	48 8d 85 a0 f3 ff ff 	lea    -0xc60(%rbp),%rax
    d97c:	48 83 c0 30          	add    $0x30,%rax
    d980:	48 89 85 78 fd ff ff 	mov    %rax,-0x288(%rbp)
    d987:	48 8d 85 a0 f3 ff ff 	lea    -0xc60(%rbp),%rax
    d98e:	48 83 c0 18          	add    $0x18,%rax
    d992:	48 89 85 80 fd ff ff 	mov    %rax,-0x280(%rbp)
    d999:	48 8d 85 a0 f3 ff ff 	lea    -0xc60(%rbp),%rax
    d9a0:	48 83 c0 30          	add    $0x30,%rax
    d9a4:	48 89 85 88 fd ff ff 	mov    %rax,-0x278(%rbp)
    d9ab:	48 8d 85 a0 f3 ff ff 	lea    -0xc60(%rbp),%rax
    d9b2:	48 83 c0 18          	add    $0x18,%rax
    d9b6:	48 89 85 90 fd ff ff 	mov    %rax,-0x270(%rbp)
    d9bd:	48 8d 85 a0 f3 ff ff 	lea    -0xc60(%rbp),%rax
    d9c4:	48 83 c0 18          	add    $0x18,%rax
    d9c8:	48 89 85 98 fd ff ff 	mov    %rax,-0x268(%rbp)
    d9cf:	48 8d 85 a0 f3 ff ff 	lea    -0xc60(%rbp),%rax
    d9d6:	48 83 c0 30          	add    $0x30,%rax
    d9da:	48 89 85 a0 fd ff ff 	mov    %rax,-0x260(%rbp)
    d9e1:	48 8d 85 a0 f3 ff ff 	lea    -0xc60(%rbp),%rax
    d9e8:	48 83 c0 18          	add    $0x18,%rax
    d9ec:	48 89 85 a8 fd ff ff 	mov    %rax,-0x258(%rbp)
    d9f3:	48 8d 85 a0 f3 ff ff 	lea    -0xc60(%rbp),%rax
    d9fa:	48 83 c0 30          	add    $0x30,%rax
    d9fe:	48 89 85 b0 fd ff ff 	mov    %rax,-0x250(%rbp)
    da05:	48 8d 85 a0 f3 ff ff 	lea    -0xc60(%rbp),%rax
    da0c:	48 83 c0 18          	add    $0x18,%rax
    da10:	48 89 85 b8 fd ff ff 	mov    %rax,-0x248(%rbp)
    da17:	48 8d 85 a0 f3 ff ff 	lea    -0xc60(%rbp),%rax
    da1e:	48 83 c0 18          	add    $0x18,%rax
    da22:	48 89 85 c0 fd ff ff 	mov    %rax,-0x240(%rbp)
    da29:	48 c7 85 c8 fd ff ff 	movq   $0x0,-0x238(%rbp)
    da30:	00 00 00 00 
    da34:	48 c7 85 d0 fd ff ff 	movq   $0x0,-0x230(%rbp)
    da3b:	00 00 00 00 
    da3f:	48 8d 85 a0 f3 ff ff 	lea    -0xc60(%rbp),%rax
    da46:	48 83 c0 18          	add    $0x18,%rax
    da4a:	48 89 85 d8 fd ff ff 	mov    %rax,-0x228(%rbp)
    da51:	48 c7 85 e0 fd ff ff 	movq   $0x0,-0x220(%rbp)
    da58:	00 00 00 00 
    da5c:	48 8d 85 a0 f3 ff ff 	lea    -0xc60(%rbp),%rax
    da63:	48 83 c0 18          	add    $0x18,%rax
    da67:	48 89 85 e8 fd ff ff 	mov    %rax,-0x218(%rbp)
    da6e:	48 c7 85 f0 fd ff ff 	movq   $0x0,-0x210(%rbp)
    da75:	00 00 00 00 
    da79:	48 c7 85 f8 fd ff ff 	movq   $0x0,-0x208(%rbp)
    da80:	00 00 00 00 
    da84:	48 8d 85 a0 f3 ff ff 	lea    -0xc60(%rbp),%rax
    da8b:	48 83 c0 18          	add    $0x18,%rax
    da8f:	48 89 85 00 fe ff ff 	mov    %rax,-0x200(%rbp)
    da96:	48 8d 85 a0 f3 ff ff 	lea    -0xc60(%rbp),%rax
    da9d:	48 83 c0 18          	add    $0x18,%rax
    daa1:	48 89 85 08 fe ff ff 	mov    %rax,-0x1f8(%rbp)
    daa8:	48 8d 85 a0 f3 ff ff 	lea    -0xc60(%rbp),%rax
    daaf:	48 83 c0 30          	add    $0x30,%rax
    dab3:	48 89 85 10 fe ff ff 	mov    %rax,-0x1f0(%rbp)
    daba:	48 8d 85 a0 f3 ff ff 	lea    -0xc60(%rbp),%rax
    dac1:	48 83 c0 18          	add    $0x18,%rax
    dac5:	48 89 85 18 fe ff ff 	mov    %rax,-0x1e8(%rbp)
    dacc:	48 8d 85 a0 f3 ff ff 	lea    -0xc60(%rbp),%rax
    dad3:	48 83 c0 18          	add    $0x18,%rax
    dad7:	48 89 85 20 fe ff ff 	mov    %rax,-0x1e0(%rbp)
    dade:	48 c7 85 28 fe ff ff 	movq   $0x0,-0x1d8(%rbp)
    dae5:	00 00 00 00 
    dae9:	48 c7 85 30 fe ff ff 	movq   $0x0,-0x1d0(%rbp)
    daf0:	00 00 00 00 
    daf4:	48 8d 85 a0 f3 ff ff 	lea    -0xc60(%rbp),%rax
    dafb:	48 83 c0 18          	add    $0x18,%rax
    daff:	48 89 85 38 fe ff ff 	mov    %rax,-0x1c8(%rbp)
    db06:	48 c7 85 40 fe ff ff 	movq   $0x0,-0x1c0(%rbp)
    db0d:	00 00 00 00 
    db11:	48 8d 85 a0 f3 ff ff 	lea    -0xc60(%rbp),%rax
    db18:	48 83 c0 18          	add    $0x18,%rax
    db1c:	48 89 85 48 fe ff ff 	mov    %rax,-0x1b8(%rbp)
    db23:	48 c7 85 50 fe ff ff 	movq   $0x0,-0x1b0(%rbp)
    db2a:	00 00 00 00 
    db2e:	48 c7 85 58 fe ff ff 	movq   $0x0,-0x1a8(%rbp)
    db35:	00 00 00 00 
    db39:	48 8d 85 a0 f3 ff ff 	lea    -0xc60(%rbp),%rax
    db40:	48 83 c0 18          	add    $0x18,%rax
    db44:	48 89 85 60 fe ff ff 	mov    %rax,-0x1a0(%rbp)
    db4b:	48 8d 85 a0 f3 ff ff 	lea    -0xc60(%rbp),%rax
    db52:	48 83 c0 18          	add    $0x18,%rax
    db56:	48 89 85 68 fe ff ff 	mov    %rax,-0x198(%rbp)
    db5d:	48 8d 85 a0 f3 ff ff 	lea    -0xc60(%rbp),%rax
    db64:	48 83 c0 30          	add    $0x30,%rax
    db68:	48 89 85 70 fe ff ff 	mov    %rax,-0x190(%rbp)
    db6f:	48 8d 85 a0 f3 ff ff 	lea    -0xc60(%rbp),%rax
    db76:	48 83 c0 18          	add    $0x18,%rax
    db7a:	48 89 85 78 fe ff ff 	mov    %rax,-0x188(%rbp)
    db81:	48 8d 85 a0 f3 ff ff 	lea    -0xc60(%rbp),%rax
    db88:	48 83 c0 18          	add    $0x18,%rax
    db8c:	48 89 85 80 fe ff ff 	mov    %rax,-0x180(%rbp)
    db93:	48 c7 85 88 fe ff ff 	movq   $0x0,-0x178(%rbp)
    db9a:	00 00 00 00 
    db9e:	48 c7 85 90 fe ff ff 	movq   $0x0,-0x170(%rbp)
    dba5:	00 00 00 00 
    dba9:	48 8d 85 a0 f3 ff ff 	lea    -0xc60(%rbp),%rax
    dbb0:	48 83 c0 18          	add    $0x18,%rax
    dbb4:	48 89 85 98 fe ff ff 	mov    %rax,-0x168(%rbp)
    dbbb:	48 c7 85 a0 fe ff ff 	movq   $0x0,-0x160(%rbp)
    dbc2:	00 00 00 00 
    dbc6:	48 8d 85 a0 f3 ff ff 	lea    -0xc60(%rbp),%rax
    dbcd:	48 83 c0 18          	add    $0x18,%rax
    dbd1:	48 89 85 a8 fe ff ff 	mov    %rax,-0x158(%rbp)
    dbd8:	48 c7 85 b0 fe ff ff 	movq   $0x0,-0x150(%rbp)
    dbdf:	00 00 00 00 
    dbe3:	48 c7 85 b8 fe ff ff 	movq   $0x0,-0x148(%rbp)
    dbea:	00 00 00 00 
    dbee:	48 8d 85 a0 f3 ff ff 	lea    -0xc60(%rbp),%rax
    dbf5:	48 83 c0 18          	add    $0x18,%rax
    dbf9:	48 89 85 c0 fe ff ff 	mov    %rax,-0x140(%rbp)
    dc00:	48 8d 85 a0 f3 ff ff 	lea    -0xc60(%rbp),%rax
    dc07:	48 83 c0 18          	add    $0x18,%rax
    dc0b:	48 89 85 c8 fe ff ff 	mov    %rax,-0x138(%rbp)
    dc12:	48 8d 85 a0 f3 ff ff 	lea    -0xc60(%rbp),%rax
    dc19:	48 83 c0 30          	add    $0x30,%rax
    dc1d:	48 89 85 d0 fe ff ff 	mov    %rax,-0x130(%rbp)
    dc24:	48 8d 85 a0 f3 ff ff 	lea    -0xc60(%rbp),%rax
    dc2b:	48 83 c0 18          	add    $0x18,%rax
    dc2f:	48 89 85 d8 fe ff ff 	mov    %rax,-0x128(%rbp)
    dc36:	48 8d 85 a0 f3 ff ff 	lea    -0xc60(%rbp),%rax
    dc3d:	48 83 c0 18          	add    $0x18,%rax
    dc41:	48 89 85 e0 fe ff ff 	mov    %rax,-0x120(%rbp)
    dc48:	48 c7 85 e8 fe ff ff 	movq   $0x0,-0x118(%rbp)
    dc4f:	00 00 00 00 
    dc53:	48 c7 85 f0 fe ff ff 	movq   $0x0,-0x110(%rbp)
    dc5a:	00 00 00 00 
    dc5e:	48 8d 85 a0 f3 ff ff 	lea    -0xc60(%rbp),%rax
    dc65:	48 83 c0 18          	add    $0x18,%rax
    dc69:	48 89 85 f8 fe ff ff 	mov    %rax,-0x108(%rbp)
    dc70:	48 c7 85 00 ff ff ff 	movq   $0x0,-0x100(%rbp)
    dc77:	00 00 00 00 
    dc7b:	48 8d 85 a0 f3 ff ff 	lea    -0xc60(%rbp),%rax
    dc82:	48 83 c0 18          	add    $0x18,%rax
    dc86:	48 89 85 08 ff ff ff 	mov    %rax,-0xf8(%rbp)
    dc8d:	48 c7 85 10 ff ff ff 	movq   $0x0,-0xf0(%rbp)
    dc94:	00 00 00 00 
    dc98:	48 c7 85 18 ff ff ff 	movq   $0x0,-0xe8(%rbp)
    dc9f:	00 00 00 00 
    dca3:	48 8d 85 a0 f3 ff ff 	lea    -0xc60(%rbp),%rax
    dcaa:	48 83 c0 18          	add    $0x18,%rax
    dcae:	48 89 85 20 ff ff ff 	mov    %rax,-0xe0(%rbp)
    dcb5:	48 8d 85 a0 f3 ff ff 	lea    -0xc60(%rbp),%rax
    dcbc:	48 83 c0 18          	add    $0x18,%rax
    dcc0:	48 89 85 28 ff ff ff 	mov    %rax,-0xd8(%rbp)
    dcc7:	48 8d 85 a0 f3 ff ff 	lea    -0xc60(%rbp),%rax
    dcce:	48 83 c0 30          	add    $0x30,%rax
    dcd2:	48 89 85 30 ff ff ff 	mov    %rax,-0xd0(%rbp)
    dcd9:	48 8d 85 a0 f3 ff ff 	lea    -0xc60(%rbp),%rax
    dce0:	48 83 c0 18          	add    $0x18,%rax
    dce4:	48 89 85 38 ff ff ff 	mov    %rax,-0xc8(%rbp)
    dceb:	48 8d 85 a0 f3 ff ff 	lea    -0xc60(%rbp),%rax
    dcf2:	48 83 c0 18          	add    $0x18,%rax
    dcf6:	48 89 85 40 ff ff ff 	mov    %rax,-0xc0(%rbp)
    dcfd:	48 c7 85 48 ff ff ff 	movq   $0x0,-0xb8(%rbp)
    dd04:	00 00 00 00 
    dd08:	48 c7 85 50 ff ff ff 	movq   $0x0,-0xb0(%rbp)
    dd0f:	00 00 00 00 
    dd13:	48 8d 85 a0 f3 ff ff 	lea    -0xc60(%rbp),%rax
    dd1a:	48 83 c0 18          	add    $0x18,%rax
    dd1e:	48 89 85 58 ff ff ff 	mov    %rax,-0xa8(%rbp)
    dd25:	48 c7 85 60 ff ff ff 	movq   $0x0,-0xa0(%rbp)
    dd2c:	00 00 00 00 
    dd30:	48 8d 85 a0 f3 ff ff 	lea    -0xc60(%rbp),%rax
    dd37:	48 83 c0 18          	add    $0x18,%rax
    dd3b:	48 89 85 68 ff ff ff 	mov    %rax,-0x98(%rbp)
    dd42:	48 c7 85 70 ff ff ff 	movq   $0x0,-0x90(%rbp)
    dd49:	00 00 00 00 
    dd4d:	48 c7 85 78 ff ff ff 	movq   $0x0,-0x88(%rbp)
    dd54:	00 00 00 00 
    dd58:	48 8d 85 a0 f3 ff ff 	lea    -0xc60(%rbp),%rax
    dd5f:	48 83 c0 18          	add    $0x18,%rax
    dd63:	48 89 45 80          	mov    %rax,-0x80(%rbp)
    dd67:	48 8d 85 a0 f3 ff ff 	lea    -0xc60(%rbp),%rax
    dd6e:	48 83 c0 18          	add    $0x18,%rax
    dd72:	48 89 45 88          	mov    %rax,-0x78(%rbp)
    dd76:	48 8d 85 a0 f3 ff ff 	lea    -0xc60(%rbp),%rax
    dd7d:	48 83 c0 30          	add    $0x30,%rax
    dd81:	48 89 45 90          	mov    %rax,-0x70(%rbp)
    dd85:	48 8d 85 a0 f3 ff ff 	lea    -0xc60(%rbp),%rax
    dd8c:	48 83 c0 18          	add    $0x18,%rax
    dd90:	48 89 45 98          	mov    %rax,-0x68(%rbp)
    dd94:	48 8d 85 a0 f3 ff ff 	lea    -0xc60(%rbp),%rax
    dd9b:	48 83 c0 18          	add    $0x18,%rax
    dd9f:	48 89 45 a0          	mov    %rax,-0x60(%rbp)
    dda3:	48 c7 45 a8 00 00 00 	movq   $0x0,-0x58(%rbp)
    ddaa:	00 
    ddab:	48 c7 45 b0 00 00 00 	movq   $0x0,-0x50(%rbp)
    ddb2:	00 
    ddb3:	48 8d 85 a0 f3 ff ff 	lea    -0xc60(%rbp),%rax
    ddba:	48 83 c0 18          	add    $0x18,%rax
    ddbe:	48 89 45 b8          	mov    %rax,-0x48(%rbp)
    ddc2:	c7 05 e8 94 00 00 00 	movl   $0x0,0x94e8(%rip)        # 172b4 <g_377+0x14>
    ddc9:	00 00 00 
    ddcc:	e9 a2 01 00 00       	jmpq   df73 <func_56+0x2271>
    ddd1:	48 8d 85 c8 f1 ff ff 	lea    -0xe38(%rbp),%rax
    ddd8:	48 89 85 10 f2 ff ff 	mov    %rax,-0xdf0(%rbp)
    dddf:	c7 85 7c f1 ff ff 06 	movl   $0x6,-0xe84(%rbp)
    dde6:	00 00 00 
    dde9:	48 8d 05 b8 94 00 00 	lea    0x94b8(%rip),%rax        # 172a8 <g_377+0x8>
    ddf0:	48 89 85 18 f2 ff ff 	mov    %rax,-0xde8(%rbp)
    ddf7:	b8 79 01 00 00       	mov    $0x179,%eax
    ddfc:	41 89 c4             	mov    %eax,%r12d
    ddff:	66 83 bd 5a f1 ff ff 	cmpw   $0x0,-0xea6(%rbp)
    de06:	00 
    de07:	0f 85 ca 00 00 00    	jne    ded7 <func_56+0x21d5>
    de0d:	8b 05 89 9e 00 00    	mov    0x9e89(%rip),%eax        # 17c9c <g_827+0x1c>
    de13:	48 63 d8             	movslq %eax,%rbx
    de16:	48 8b 85 48 f1 ff ff 	mov    -0xeb8(%rbp),%rax
    de1d:	0f be c0             	movsbl %al,%eax
    de20:	be 00 00 00 00       	mov    $0x0,%esi
    de25:	89 c7                	mov    %eax,%edi
    de27:	e8 75 a4 ff ff       	callq  82a1 <safe_lshift_func_int8_t_s_s>
    de2c:	3c f8                	cmp    $0xf8,%al
    de2e:	0f 9d c0             	setge  %al
    de31:	0f b6 c0             	movzbl %al,%eax
    de34:	be 01 00 00 00       	mov    $0x1,%esi
    de39:	89 c7                	mov    %eax,%edi
    de3b:	e8 76 a7 ff ff       	callq  85b6 <safe_add_func_int32_t_s_s>
    de40:	98                   	cwtl   
    de41:	89 c7                	mov    %eax,%edi
    de43:	e8 55 a5 ff ff       	callq  839d <safe_unary_minus_func_int16_t_s>
    de48:	89 c2                	mov    %eax,%edx
    de4a:	8b 85 7c f1 ff ff    	mov    -0xe84(%rbp),%eax
    de50:	21 d0                	and    %edx,%eax
    de52:	0f b6 c0             	movzbl %al,%eax
    de55:	be c4 00 00 00       	mov    $0xc4,%esi
    de5a:	89 c7                	mov    %eax,%edi
    de5c:	e8 17 ad ff ff       	callq  8b78 <safe_sub_func_uint8_t_u_u>
    de61:	48 8b 95 38 f1 ff ff 	mov    -0xec8(%rbp),%rdx
    de68:	8b 12                	mov    (%rdx),%edx
    de6a:	0f b6 c0             	movzbl %al,%eax
    de6d:	09 c2                	or     %eax,%edx
    de6f:	48 8b 85 38 f1 ff ff 	mov    -0xec8(%rbp),%rax
    de76:	89 10                	mov    %edx,(%rax)
    de78:	48 8b 85 38 f1 ff ff 	mov    -0xec8(%rbp),%rax
    de7f:	8b 00                	mov    (%rax),%eax
    de81:	21 85 68 f1 ff ff    	and    %eax,-0xe98(%rbp)
    de87:	0f b7 85 44 f1 ff ff 	movzwl -0xebc(%rbp),%eax
    de8e:	0f b7 c0             	movzwl %ax,%eax
    de91:	39 85 68 f1 ff ff    	cmp    %eax,-0xe98(%rbp)
    de97:	0f 95 c0             	setne  %al
    de9a:	0f b6 d0             	movzbl %al,%edx
    de9d:	0f b6 05 2b a5 00 00 	movzbl 0xa52b(%rip),%eax        # 183cf <g_1405>
    dea4:	0f b6 c0             	movzbl %al,%eax
    dea7:	89 d6                	mov    %edx,%esi
    dea9:	89 c7                	mov    %eax,%edi
    deab:	e8 c8 ac ff ff       	callq  8b78 <safe_sub_func_uint8_t_u_u>
    deb0:	0f b6 d0             	movzbl %al,%edx
    deb3:	48 8b 85 18 f2 ff ff 	mov    -0xde8(%rbp),%rax
    deba:	48 89 10             	mov    %rdx,(%rax)
    debd:	48 8b 85 18 f2 ff ff 	mov    -0xde8(%rbp),%rax
    dec4:	48 8b 00             	mov    (%rax),%rax
    dec7:	8b 15 f7 9d 00 00    	mov    0x9df7(%rip),%edx        # 17cc4 <g_828+0x4>
    decd:	89 d2                	mov    %edx,%edx
    decf:	48 31 d0             	xor    %rdx,%rax
    ded2:	48 39 c3             	cmp    %rax,%rbx
    ded5:	76 07                	jbe    dede <func_56+0x21dc>
    ded7:	b8 01 00 00 00       	mov    $0x1,%eax
    dedc:	eb 05                	jmp    dee3 <func_56+0x21e1>
    dede:	b8 00 00 00 00       	mov    $0x0,%eax
    dee3:	48 98                	cltq   
    dee5:	48 33 85 48 f1 ff ff 	xor    -0xeb8(%rbp),%rax
    deec:	8b 15 a6 9d 00 00    	mov    0x9da6(%rip),%edx        # 17c98 <g_827+0x18>
    def2:	89 d2                	mov    %edx,%edx
    def4:	48 39 d0             	cmp    %rdx,%rax
    def7:	48 8d 05 62 99 00 00 	lea    0x9962(%rip),%rax        # 17860 <g_526+0x560>
    defe:	0f b7 00             	movzwl (%rax),%eax
    df01:	0f bf d8             	movswl %ax,%ebx
    df04:	48 8b 95 c8 f1 ff ff 	mov    -0xe38(%rbp),%rdx
    df0b:	48 8b 85 10 f2 ff ff 	mov    -0xdf0(%rbp),%rax
    df12:	48 89 10             	mov    %rdx,(%rax)
    df15:	48 8b 85 10 f2 ff ff 	mov    -0xdf0(%rbp),%rax
    df1c:	48 8b 00             	mov    (%rax),%rax
    df1f:	48 85 c0             	test   %rax,%rax
    df22:	0f 95 c0             	setne  %al
    df25:	0f b6 c0             	movzbl %al,%eax
    df28:	89 c6                	mov    %eax,%esi
    df2a:	bf 0c 00 00 00       	mov    $0xc,%edi
    df2f:	e8 01 a4 ff ff       	callq  8335 <safe_rshift_func_int8_t_s_s>
    df34:	66 98                	cbtw   
    df36:	0f b7 c0             	movzwl %ax,%eax
    df39:	89 de                	mov    %ebx,%esi
    df3b:	89 c7                	mov    %eax,%edi
    df3d:	e8 06 af ff ff       	callq  8e48 <safe_rshift_func_uint16_t_u_s>
    df42:	0f b7 c0             	movzwl %ax,%eax
    df45:	44 89 e6             	mov    %r12d,%esi
    df48:	89 c7                	mov    %eax,%edi
    df4a:	e8 2b af ff ff       	callq  8e7a <safe_rshift_func_uint16_t_u_u>
    df4f:	0f b7 c0             	movzwl %ax,%eax
    df52:	89 85 5c f1 ff ff    	mov    %eax,-0xea4(%rbp)
    df58:	8b 05 56 93 00 00    	mov    0x9356(%rip),%eax        # 172b4 <g_377+0x14>
    df5e:	48 98                	cltq   
    df60:	be 08 00 00 00       	mov    $0x8,%esi
    df65:	48 89 c7             	mov    %rax,%rdi
    df68:	e8 de b0 ff ff       	callq  904b <safe_sub_func_uint64_t_u_u>
    df6d:	89 05 41 93 00 00    	mov    %eax,0x9341(%rip)        # 172b4 <g_377+0x14>
    df73:	8b 05 3b 93 00 00    	mov    0x933b(%rip),%eax        # 172b4 <g_377+0x14>
    df79:	83 f8 fe             	cmp    $0xfffffffe,%eax
    df7c:	0f 8d 4f fe ff ff    	jge    ddd1 <func_56+0x20cf>
    df82:	48 8d 05 bf db 00 00 	lea    0xdbbf(%rip),%rax        # 1bb48 <g_1118>
    df89:	48 89 05 28 cd 00 00 	mov    %rax,0xcd28(%rip)        # 1acb8 <g_1418+0x18>
    df90:	48 8b 15 c1 c3 00 00 	mov    0xc3c1(%rip),%rdx        # 1a358 <g_958>
    df97:	48 8b 85 a0 f1 ff ff 	mov    -0xe60(%rbp),%rax
    df9e:	48 8b 12             	mov    (%rdx),%rdx
    dfa1:	48 89 10             	mov    %rdx,(%rax)
    dfa4:	c7 05 8a a3 00 00 f7 	movl   $0xfffffff7,0xa38a(%rip)        # 18338 <g_1122+0x18>
    dfab:	ff ff ff 
    dfae:	eb 3a                	jmp    dfea <func_56+0x22e8>
    dfb0:	48 8d 85 b8 f1 ff ff 	lea    -0xe48(%rbp),%rax
    dfb7:	48 89 85 58 f2 ff ff 	mov    %rax,-0xda8(%rbp)
    dfbe:	48 8b 95 b8 f1 ff ff 	mov    -0xe48(%rbp),%rdx
    dfc5:	48 8b 85 58 f2 ff ff 	mov    -0xda8(%rbp),%rax
    dfcc:	48 89 10             	mov    %rdx,(%rax)
    dfcf:	8b 05 63 a3 00 00    	mov    0xa363(%rip),%eax        # 18338 <g_1122+0x18>
    dfd5:	89 c0                	mov    %eax,%eax
    dfd7:	be 04 00 00 00       	mov    $0x4,%esi
    dfdc:	48 89 c7             	mov    %rax,%rdi
    dfdf:	e8 4a b0 ff ff       	callq  902e <safe_add_func_uint64_t_u_u>
    dfe4:	89 05 4e a3 00 00    	mov    %eax,0xa34e(%rip)        # 18338 <g_1122+0x18>
    dfea:	8b 05 48 a3 00 00    	mov    0xa348(%rip),%eax        # 18338 <g_1122+0x18>
    dff0:	83 f8 2c             	cmp    $0x2c,%eax
    dff3:	77 bb                	ja     dfb0 <func_56+0x22ae>
    dff5:	8b 05 15 db 00 00    	mov    0xdb15(%rip),%eax        # 1bb10 <g_523>
    dffb:	be 03 00 00 00       	mov    $0x3,%esi
    e000:	89 c7                	mov    %eax,%edi
    e002:	e8 fe a5 ff ff       	callq  8605 <safe_sub_func_int32_t_s_s>
    e007:	89 05 03 db 00 00    	mov    %eax,0xdb03(%rip)        # 1bb10 <g_523>
    e00d:	8b 05 fd da 00 00    	mov    0xdafd(%rip),%eax        # 1bb10 <g_523>
    e013:	83 f8 eb             	cmp    $0xffffffeb,%eax
    e016:	0f 8d 06 de ff ff    	jge    be22 <func_56+0x120>
    e01c:	48 8b 05 5d b4 00 00 	mov    0xb45d(%rip),%rax        # 19480 <g_288>
    e023:	48 8b 00             	mov    (%rax),%rax
    e026:	48 8b 5d c8          	mov    -0x38(%rbp),%rbx
    e02a:	64 48 33 1c 25 28 00 	xor    %fs:0x28,%rbx
    e031:	00 00 
    e033:	74 05                	je     e03a <func_56+0x2338>
    e035:	e8 36 a0 ff ff       	callq  8070 <__stack_chk_fail@plt>
    e03a:	48 81 c4 c8 0e 00 00 	add    $0xec8,%rsp
    e041:	5b                   	pop    %rbx
    e042:	41 5c                	pop    %r12
    e044:	41 5d                	pop    %r13
    e046:	41 5e                	pop    %r14
    e048:	41 5f                	pop    %r15
    e04a:	5d                   	pop    %rbp
    e04b:	c3                   	retq   

000000000000e04c <func_62>:
    e04c:	f3 0f 1e fa          	endbr64 
    e050:	55                   	push   %rbp
    e051:	48 89 e5             	mov    %rsp,%rbp
    e054:	48 81 ec 00 05 00 00 	sub    $0x500,%rsp
    e05b:	48 89 bd 08 fb ff ff 	mov    %rdi,-0x4f8(%rbp)
    e062:	89 b5 04 fb ff ff    	mov    %esi,-0x4fc(%rbp)
    e068:	89 d0                	mov    %edx,%eax
    e06a:	88 85 00 fb ff ff    	mov    %al,-0x500(%rbp)
    e070:	64 48 8b 04 25 28 00 	mov    %fs:0x28,%rax
    e077:	00 00 
    e079:	48 89 45 f8          	mov    %rax,-0x8(%rbp)
    e07d:	31 c0                	xor    %eax,%eax
    e07f:	48 8d 05 4e 91 00 00 	lea    0x914e(%rip),%rax        # 171d4 <g_91+0x74>
    e086:	48 89 85 48 fb ff ff 	mov    %rax,-0x4b8(%rbp)
    e08d:	c7 85 30 fb ff ff 64 	movl   $0x7513d964,-0x4d0(%rbp)
    e094:	d9 13 75 
    e097:	c7 85 34 fb ff ff d3 	movl   $0xef253ad3,-0x4cc(%rbp)
    e09e:	3a 25 ef 
    e0a1:	c7 85 38 fb ff ff 52 	movl   $0x61af4752,-0x4c8(%rbp)
    e0a8:	47 af 61 
    e0ab:	c7 85 20 fb ff ff ac 	movl   $0xf9d8aeac,-0x4e0(%rbp)
    e0b2:	ae d8 f9 
    e0b5:	c7 85 3c fb ff ff ff 	movl   $0xffffffff,-0x4c4(%rbp)
    e0bc:	ff ff ff 
    e0bf:	c7 85 40 fb ff ff 36 	movl   $0x28c20b36,-0x4c0(%rbp)
    e0c6:	0b c2 28 
    e0c9:	48 8d 85 60 fe ff ff 	lea    -0x1a0(%rbp),%rax
    e0d0:	48 8d 15 e9 54 00 00 	lea    0x54e9(%rip),%rdx        # 135c0 <g_2031+0x518>
    e0d7:	b9 32 00 00 00       	mov    $0x32,%ecx
    e0dc:	48 89 c7             	mov    %rax,%rdi
    e0df:	48 89 d6             	mov    %rdx,%rsi
    e0e2:	f3 48 a5             	rep movsq %ds:(%rsi),%es:(%rdi)
    e0e5:	48 c7 85 60 fb ff ff 	movq   $0x0,-0x4a0(%rbp)
    e0ec:	00 00 00 00 
    e0f0:	c7 85 44 fb ff ff f3 	movl   $0xf69492f3,-0x4bc(%rbp)
    e0f7:	92 94 f6 
    e0fa:	48 8d 05 b7 91 00 00 	lea    0x91b7(%rip),%rax        # 172b8 <g_377+0x18>
    e101:	48 89 85 68 fb ff ff 	mov    %rax,-0x498(%rbp)
    e108:	66 c7 85 1a fb ff ff 	movw   $0x7bf4,-0x4e6(%rbp)
    e10f:	f4 7b 
    e111:	48 8d 85 d0 fb ff ff 	lea    -0x430(%rbp),%rax
    e118:	48 83 c0 10          	add    $0x10,%rax
    e11c:	48 89 85 70 fb ff ff 	mov    %rax,-0x490(%rbp)
    e123:	48 8d 05 2e 90 00 00 	lea    0x902e(%rip),%rax        # 17158 <g_85>
    e12a:	48 89 85 78 fb ff ff 	mov    %rax,-0x488(%rbp)
    e131:	48 8d 05 d8 d9 00 00 	lea    0xd9d8(%rip),%rax        # 1bb10 <g_523>
    e138:	48 89 85 50 fb ff ff 	mov    %rax,-0x4b0(%rbp)
    e13f:	48 8d 85 50 fb ff ff 	lea    -0x4b0(%rbp),%rax
    e146:	48 89 85 80 fb ff ff 	mov    %rax,-0x480(%rbp)
    e14d:	48 8d 05 ec 9a 00 00 	lea    0x9aec(%rip),%rax        # 17c40 <g_825>
    e154:	48 89 85 88 fb ff ff 	mov    %rax,-0x478(%rbp)
    e15b:	48 8d 85 48 fb ff ff 	lea    -0x4b8(%rbp),%rax
    e162:	48 89 85 58 fb ff ff 	mov    %rax,-0x4a8(%rbp)
    e169:	48 8d 85 58 fb ff ff 	lea    -0x4a8(%rbp),%rax
    e170:	48 89 85 90 fb ff ff 	mov    %rax,-0x470(%rbp)
    e177:	66 c7 85 1c fb ff ff 	movw   $0xfffb,-0x4e4(%rbp)
    e17e:	fb ff 
    e180:	c7 85 60 fc ff ff cf 	movl   $0xea408ccf,-0x3a0(%rbp)
    e187:	8c 40 ea 
    e18a:	c7 85 64 fc ff ff cf 	movl   $0xea408ccf,-0x39c(%rbp)
    e191:	8c 40 ea 
    e194:	c7 85 68 fc ff ff cf 	movl   $0xea408ccf,-0x398(%rbp)
    e19b:	8c 40 ea 
    e19e:	c7 85 6c fc ff ff cf 	movl   $0xea408ccf,-0x394(%rbp)
    e1a5:	8c 40 ea 
    e1a8:	c7 85 70 fc ff ff cf 	movl   $0xea408ccf,-0x390(%rbp)
    e1af:	8c 40 ea 
    e1b2:	c7 85 74 fc ff ff cf 	movl   $0xea408ccf,-0x38c(%rbp)
    e1b9:	8c 40 ea 
    e1bc:	c7 85 78 fc ff ff cf 	movl   $0xea408ccf,-0x388(%rbp)
    e1c3:	8c 40 ea 
    e1c6:	c7 85 7c fc ff ff cf 	movl   $0xea408ccf,-0x384(%rbp)
    e1cd:	8c 40 ea 
    e1d0:	c7 85 80 fc ff ff cf 	movl   $0xea408ccf,-0x380(%rbp)
    e1d7:	8c 40 ea 
    e1da:	c7 85 84 fc ff ff cf 	movl   $0xea408ccf,-0x37c(%rbp)
    e1e1:	8c 40 ea 
    e1e4:	c7 85 88 fc ff ff cf 	movl   $0xea408ccf,-0x378(%rbp)
    e1eb:	8c 40 ea 
    e1ee:	c7 85 8c fc ff ff cf 	movl   $0xea408ccf,-0x374(%rbp)
    e1f5:	8c 40 ea 
    e1f8:	c7 85 90 fc ff ff cf 	movl   $0xea408ccf,-0x370(%rbp)
    e1ff:	8c 40 ea 
    e202:	c7 85 94 fc ff ff cf 	movl   $0xea408ccf,-0x36c(%rbp)
    e209:	8c 40 ea 
    e20c:	c7 85 98 fc ff ff cf 	movl   $0xea408ccf,-0x368(%rbp)
    e213:	8c 40 ea 
    e216:	c7 85 9c fc ff ff cf 	movl   $0xea408ccf,-0x364(%rbp)
    e21d:	8c 40 ea 
    e220:	c7 85 a0 fc ff ff cf 	movl   $0xea408ccf,-0x360(%rbp)
    e227:	8c 40 ea 
    e22a:	c7 85 a4 fc ff ff cf 	movl   $0xea408ccf,-0x35c(%rbp)
    e231:	8c 40 ea 
    e234:	c7 85 a8 fc ff ff cf 	movl   $0xea408ccf,-0x358(%rbp)
    e23b:	8c 40 ea 
    e23e:	c7 85 ac fc ff ff cf 	movl   $0xea408ccf,-0x354(%rbp)
    e245:	8c 40 ea 
    e248:	c7 85 b0 fc ff ff cf 	movl   $0xea408ccf,-0x350(%rbp)
    e24f:	8c 40 ea 
    e252:	c7 85 b4 fc ff ff cf 	movl   $0xea408ccf,-0x34c(%rbp)
    e259:	8c 40 ea 
    e25c:	c7 85 b8 fc ff ff cf 	movl   $0xea408ccf,-0x348(%rbp)
    e263:	8c 40 ea 
    e266:	c7 85 bc fc ff ff cf 	movl   $0xea408ccf,-0x344(%rbp)
    e26d:	8c 40 ea 
    e270:	c7 85 c0 fc ff ff cf 	movl   $0xea408ccf,-0x340(%rbp)
    e277:	8c 40 ea 
    e27a:	c7 85 c4 fc ff ff cf 	movl   $0xea408ccf,-0x33c(%rbp)
    e281:	8c 40 ea 
    e284:	c7 85 c8 fc ff ff cf 	movl   $0xea408ccf,-0x338(%rbp)
    e28b:	8c 40 ea 
    e28e:	c7 85 cc fc ff ff cf 	movl   $0xea408ccf,-0x334(%rbp)
    e295:	8c 40 ea 
    e298:	c7 85 d0 fc ff ff cf 	movl   $0xea408ccf,-0x330(%rbp)
    e29f:	8c 40 ea 
    e2a2:	c7 85 d4 fc ff ff cf 	movl   $0xea408ccf,-0x32c(%rbp)
    e2a9:	8c 40 ea 
    e2ac:	c7 85 d8 fc ff ff cf 	movl   $0xea408ccf,-0x328(%rbp)
    e2b3:	8c 40 ea 
    e2b6:	c7 85 dc fc ff ff cf 	movl   $0xea408ccf,-0x324(%rbp)
    e2bd:	8c 40 ea 
    e2c0:	66 c7 85 1e fb ff ff 	movw   $0xde84,-0x4e2(%rbp)
    e2c7:	84 de 
    e2c9:	48 8d 05 58 d8 00 00 	lea    0xd858(%rip),%rax        # 1bb28 <g_975>
    e2d0:	48 89 85 98 fb ff ff 	mov    %rax,-0x468(%rbp)
    e2d7:	48 8d 85 20 fb ff ff 	lea    -0x4e0(%rbp),%rax
    e2de:	48 89 85 a0 fb ff ff 	mov    %rax,-0x460(%rbp)
    e2e5:	48 8d 05 c8 8f 00 00 	lea    0x8fc8(%rip),%rax        # 172b4 <g_377+0x14>
    e2ec:	48 89 85 a8 fb ff ff 	mov    %rax,-0x458(%rbp)
    e2f3:	48 8d 85 50 fb ff ff 	lea    -0x4b0(%rbp),%rax
    e2fa:	48 89 85 b0 fb ff ff 	mov    %rax,-0x450(%rbp)
    e301:	48 8d 85 e0 fc ff ff 	lea    -0x320(%rbp),%rax
    e308:	48 8d 15 51 54 00 00 	lea    0x5451(%rip),%rdx        # 13760 <g_2031+0x6b8>
    e30f:	b9 30 00 00 00       	mov    $0x30,%ecx
    e314:	48 89 c7             	mov    %rax,%rdi
    e317:	48 89 d6             	mov    %rdx,%rsi
    e31a:	f3 48 a5             	rep movsq %ds:(%rsi),%es:(%rdi)
    e31d:	48 c7 85 b8 fb ff ff 	movq   $0xfffffffffffffffe,-0x448(%rbp)
    e324:	fe ff ff ff 
    e328:	48 8d 05 39 c8 00 00 	lea    0xc839(%rip),%rax        # 1ab68 <g_1091>
    e32f:	48 89 85 c0 fb ff ff 	mov    %rax,-0x440(%rbp)
    e336:	c7 85 f0 fb ff ff 10 	movl   $0xdf9a0210,-0x410(%rbp)
    e33d:	02 9a df 
    e340:	c7 85 f4 fb ff ff 10 	movl   $0xdf9a0210,-0x40c(%rbp)
    e347:	02 9a df 
    e34a:	c7 85 f8 fb ff ff 10 	movl   $0xdf9a0210,-0x408(%rbp)
    e351:	02 9a df 
    e354:	c7 85 fc fb ff ff 10 	movl   $0xdf9a0210,-0x404(%rbp)
    e35b:	02 9a df 
    e35e:	c7 85 00 fc ff ff 10 	movl   $0xdf9a0210,-0x400(%rbp)
    e365:	02 9a df 
    e368:	c7 85 04 fc ff ff 10 	movl   $0xdf9a0210,-0x3fc(%rbp)
    e36f:	02 9a df 
    e372:	c7 85 08 fc ff ff 10 	movl   $0xdf9a0210,-0x3f8(%rbp)
    e379:	02 9a df 
    e37c:	c7 85 0c fc ff ff 10 	movl   $0xdf9a0210,-0x3f4(%rbp)
    e383:	02 9a df 
    e386:	c7 85 10 fc ff ff 10 	movl   $0xdf9a0210,-0x3f0(%rbp)
    e38d:	02 9a df 
    e390:	c7 85 14 fc ff ff 10 	movl   $0xdf9a0210,-0x3ec(%rbp)
    e397:	02 9a df 
    e39a:	c7 85 18 fc ff ff 10 	movl   $0xdf9a0210,-0x3e8(%rbp)
    e3a1:	02 9a df 
    e3a4:	c7 85 1c fc ff ff 10 	movl   $0xdf9a0210,-0x3e4(%rbp)
    e3ab:	02 9a df 
    e3ae:	48 8d 05 b3 c7 00 00 	lea    0xc7b3(%rip),%rax        # 1ab68 <g_1091>
    e3b5:	48 89 85 c8 fb ff ff 	mov    %rax,-0x438(%rbp)
    e3bc:	c7 85 24 fb ff ff 00 	movl   $0x0,-0x4dc(%rbp)
    e3c3:	00 00 00 
    e3c6:	eb 1e                	jmp    e3e6 <func_62+0x39a>
    e3c8:	8b 85 24 fb ff ff    	mov    -0x4dc(%rbp),%eax
    e3ce:	48 98                	cltq   
    e3d0:	48 8d 15 59 b7 00 00 	lea    0xb759(%rip),%rdx        # 19b30 <g_302>
    e3d7:	48 89 94 c5 d0 fb ff 	mov    %rdx,-0x430(%rbp,%rax,8)
    e3de:	ff 
    e3df:	83 85 24 fb ff ff 01 	addl   $0x1,-0x4dc(%rbp)
    e3e6:	83 bd 24 fb ff ff 02 	cmpl   $0x2,-0x4dc(%rbp)
    e3ed:	7e d9                	jle    e3c8 <func_62+0x37c>
    e3ef:	c7 85 24 fb ff ff 00 	movl   $0x0,-0x4dc(%rbp)
    e3f6:	00 00 00 
    e3f9:	eb 73                	jmp    e46e <func_62+0x422>
    e3fb:	c7 85 28 fb ff ff 00 	movl   $0x0,-0x4d8(%rbp)
    e402:	00 00 00 
    e405:	eb 57                	jmp    e45e <func_62+0x412>
    e407:	c7 85 2c fb ff ff 00 	movl   $0x0,-0x4d4(%rbp)
    e40e:	00 00 00 
    e411:	eb 3b                	jmp    e44e <func_62+0x402>
    e413:	8b 85 2c fb ff ff    	mov    -0x4d4(%rbp),%eax
    e419:	48 63 c8             	movslq %eax,%rcx
    e41c:	8b 85 24 fb ff ff    	mov    -0x4dc(%rbp),%eax
    e422:	48 63 d0             	movslq %eax,%rdx
    e425:	8b 85 28 fb ff ff    	mov    -0x4d8(%rbp),%eax
    e42b:	48 98                	cltq   
    e42d:	48 01 c2             	add    %rax,%rdx
    e430:	48 89 d0             	mov    %rdx,%rax
    e433:	48 01 c0             	add    %rax,%rax
    e436:	48 01 d0             	add    %rdx,%rax
    e439:	48 01 c8             	add    %rcx,%rax
    e43c:	c7 84 85 20 fc ff ff 	movl   $0xb77d6978,-0x3e0(%rbp,%rax,4)
    e443:	78 69 7d b7 
    e447:	83 85 2c fb ff ff 01 	addl   $0x1,-0x4d4(%rbp)
    e44e:	83 bd 2c fb ff ff 02 	cmpl   $0x2,-0x4d4(%rbp)
    e455:	7e bc                	jle    e413 <func_62+0x3c7>
    e457:	83 85 28 fb ff ff 01 	addl   $0x1,-0x4d8(%rbp)
    e45e:	83 bd 28 fb ff ff 00 	cmpl   $0x0,-0x4d8(%rbp)
    e465:	7e a0                	jle    e407 <func_62+0x3bb>
    e467:	83 85 24 fb ff ff 01 	addl   $0x1,-0x4dc(%rbp)
    e46e:	83 bd 24 fb ff ff 04 	cmpl   $0x4,-0x4dc(%rbp)
    e475:	7e 84                	jle    e3fb <func_62+0x3af>
    e477:	48 8b 05 02 b0 00 00 	mov    0xb002(%rip),%rax        # 19480 <g_288>
    e47e:	48 8b 00             	mov    (%rax),%rax
    e481:	48 8b 75 f8          	mov    -0x8(%rbp),%rsi
    e485:	64 48 33 34 25 28 00 	xor    %fs:0x28,%rsi
    e48c:	00 00 
    e48e:	74 05                	je     e495 <func_62+0x449>
    e490:	e8 db 9b ff ff       	callq  8070 <__stack_chk_fail@plt>
    e495:	c9                   	leaveq 
    e496:	c3                   	retq   

000000000000e497 <func_66>:
    e497:	f3 0f 1e fa          	endbr64 
    e49b:	55                   	push   %rbp
    e49c:	48 89 e5             	mov    %rsp,%rbp
    e49f:	41 55                	push   %r13
    e4a1:	41 54                	push   %r12
    e4a3:	53                   	push   %rbx
    e4a4:	48 83 ec 48          	sub    $0x48,%rsp
    e4a8:	48 89 7d b0          	mov    %rdi,-0x50(%rbp)
    e4ac:	89 f0                	mov    %esi,%eax
    e4ae:	48 89 55 a0          	mov    %rdx,-0x60(%rbp)
    e4b2:	88 45 ac             	mov    %al,-0x54(%rbp)
    e4b5:	48 8d 05 74 8b 00 00 	lea    0x8b74(%rip),%rax        # 17030 <g_77>
    e4bc:	48 89 45 c8          	mov    %rax,-0x38(%rbp)
    e4c0:	c7 45 c0 ff ff ff ff 	movl   $0xffffffff,-0x40(%rbp)
    e4c7:	48 8d 05 8a 8c 00 00 	lea    0x8c8a(%rip),%rax        # 17158 <g_85>
    e4ce:	48 89 45 d0          	mov    %rax,-0x30(%rbp)
    e4d2:	c7 45 c4 fa ff ff ff 	movl   $0xfffffffa,-0x3c(%rbp)
    e4d9:	48 c7 45 d8 00 00 00 	movq   $0x0,-0x28(%rbp)
    e4e0:	00 
    e4e1:	48 8d 05 ec 8c 00 00 	lea    0x8cec(%rip),%rax        # 171d4 <g_91+0x74>
    e4e8:	48 89 45 e0          	mov    %rax,-0x20(%rbp)
    e4ec:	44 0f b6 65 ac       	movzbl -0x54(%rbp),%r12d
    e4f1:	8b 45 c4             	mov    -0x3c(%rbp),%eax
    e4f4:	0f b7 d0             	movzwl %ax,%edx
    e4f7:	0f b6 05 5e 8c 00 00 	movzbl 0x8c5e(%rip),%eax        # 1715c <g_88+0x3>
    e4fe:	c0 e8 03             	shr    $0x3,%al
    e501:	0f b6 c0             	movzbl %al,%eax
    e504:	0f b6 0d 52 8c 00 00 	movzbl 0x8c52(%rip),%ecx        # 1715d <g_88+0x4>
    e50b:	48 c1 e1 05          	shl    $0x5,%rcx
    e50f:	48 09 c1             	or     %rax,%rcx
    e512:	0f b6 05 45 8c 00 00 	movzbl 0x8c45(%rip),%eax        # 1715e <g_88+0x5>
    e519:	48 c1 e0 0d          	shl    $0xd,%rax
    e51d:	48 09 c1             	or     %rax,%rcx
    e520:	0f b6 05 38 8c 00 00 	movzbl 0x8c38(%rip),%eax        # 1715f <g_88+0x6>
    e527:	83 e0 07             	and    $0x7,%eax
    e52a:	48 c1 e0 15          	shl    $0x15,%rax
    e52e:	48 09 c8             	or     %rcx,%rax
    e531:	39 45 c4             	cmp    %eax,-0x3c(%rbp)
    e534:	0f 9d c0             	setge  %al
    e537:	0f b6 c0             	movzbl %al,%eax
    e53a:	89 d6                	mov    %edx,%esi
    e53c:	89 c7                	mov    %eax,%edi
    e53e:	e8 4b a8 ff ff       	callq  8d8e <safe_div_func_uint16_t_u_u>
    e543:	83 c8 01             	or     $0x1,%eax
    e546:	89 c2                	mov    %eax,%edx
    e548:	0f b6 45 ac          	movzbl -0x54(%rbp),%eax
    e54c:	66 39 c2             	cmp    %ax,%dx
    e54f:	76 08                	jbe    e559 <func_66+0xc2>
    e551:	41 bd 1f 1c 00 00    	mov    $0x1c1f,%r13d
    e557:	eb 06                	jmp    e55f <func_66+0xc8>
    e559:	41 bd 1e 1c 00 00    	mov    $0x1c1e,%r13d
    e55f:	8b 45 c0             	mov    -0x40(%rbp),%eax
    e562:	48 63 d8             	movslq %eax,%rbx
    e565:	be 06 00 00 00       	mov    $0x6,%esi
    e56a:	bf d9 52 00 00       	mov    $0x52d9,%edi
    e56f:	e8 b6 9f ff ff       	callq  852a <safe_rshift_func_int16_t_s_s>
    e574:	48 0f bf c0          	movswq %ax,%rax
    e578:	48 89 de             	mov    %rbx,%rsi
    e57b:	48 89 c7             	mov    %rax,%rdi
    e57e:	e8 fd aa ff ff       	callq  9080 <safe_mod_func_uint64_t_u_u>
    e583:	89 05 c7 8a 00 00    	mov    %eax,0x8ac7(%rip)        # 17050 <g_83+0x10>
    e589:	8b 05 c1 8a 00 00    	mov    0x8ac1(%rip),%eax        # 17050 <g_83+0x10>
    e58f:	8b 15 8f 8a 00 00    	mov    0x8a8f(%rip),%edx        # 17024 <g_2>
    e595:	39 d0                	cmp    %edx,%eax
    e597:	0f 97 c0             	seta   %al
    e59a:	89 c2                	mov    %eax,%edx
    e59c:	48 8b 45 d0          	mov    -0x30(%rbp),%rax
    e5a0:	88 10                	mov    %dl,(%rax)
    e5a2:	48 8b 45 d0          	mov    -0x30(%rbp),%rax
    e5a6:	0f b6 00             	movzbl (%rax),%eax
    e5a9:	0f b6 d0             	movzbl %al,%edx
    e5ac:	48 8b 45 c8          	mov    -0x38(%rbp),%rax
    e5b0:	48 8b 00             	mov    (%rax),%rax
    e5b3:	48 83 f0 fd          	xor    $0xfffffffffffffffd,%rax
    e5b7:	48 89 c1             	mov    %rax,%rcx
    e5ba:	48 8b 45 c8          	mov    -0x38(%rbp),%rax
    e5be:	48 89 08             	mov    %rcx,(%rax)
    e5c1:	48 8b 45 c8          	mov    -0x38(%rbp),%rax
    e5c5:	48 8b 00             	mov    (%rax),%rax
    e5c8:	83 f0 40             	xor    $0x40,%eax
    e5cb:	0f b6 c0             	movzbl %al,%eax
    e5ce:	89 d6                	mov    %edx,%esi
    e5d0:	89 c7                	mov    %eax,%edi
    e5d2:	e8 bc a5 ff ff       	callq  8b93 <safe_mul_func_uint8_t_u_u>
    e5d7:	0f b6 c0             	movzbl %al,%eax
    e5da:	44 89 ee             	mov    %r13d,%esi
    e5dd:	89 c7                	mov    %eax,%edi
    e5df:	e8 1b a7 ff ff       	callq  8cff <safe_add_func_uint16_t_u_u>
    e5e4:	44 31 e0             	xor    %r12d,%eax
    e5e7:	0f bf d0             	movswl %ax,%edx
    e5ea:	0f b6 45 ac          	movzbl -0x54(%rbp),%eax
    e5ee:	89 d6                	mov    %edx,%esi
    e5f0:	89 c7                	mov    %eax,%edi
    e5f2:	e8 bc 9d ff ff       	callq  83b3 <safe_add_func_int16_t_s_s>
    e5f7:	89 c2                	mov    %eax,%edx
    e5f9:	48 8b 05 60 ae 00 00 	mov    0xae60(%rip),%rax        # 19460 <g_90>
    e600:	0f bf d2             	movswl %dx,%edx
    e603:	89 10                	mov    %edx,(%rax)
    e605:	48 8b 45 b0          	mov    -0x50(%rbp),%rax
    e609:	48 89 45 e0          	mov    %rax,-0x20(%rbp)
    e60d:	48 8b 45 a0          	mov    -0x60(%rbp),%rax
    e611:	48 83 c4 48          	add    $0x48,%rsp
    e615:	5b                   	pop    %rbx
    e616:	41 5c                	pop    %r12
    e618:	41 5d                	pop    %r13
    e61a:	5d                   	pop    %rbp
    e61b:	c3                   	retq   

000000000000e61c <main>:
    e61c:	f3 0f 1e fa          	endbr64 
    e620:	55                   	push   %rbp
    e621:	48 89 e5             	mov    %rsp,%rbp
    e624:	48 83 ec 20          	sub    $0x20,%rsp
    e628:	89 7d ec             	mov    %edi,-0x14(%rbp)
    e62b:	48 89 75 e0          	mov    %rsi,-0x20(%rbp)
    e62f:	c7 45 fc 00 00 00 00 	movl   $0x0,-0x4(%rbp)
    e636:	83 7d ec 02          	cmpl   $0x2,-0x14(%rbp)
    e63a:	75 25                	jne    e661 <main+0x45>
    e63c:	48 8b 45 e0          	mov    -0x20(%rbp),%rax
    e640:	48 83 c0 08          	add    $0x8,%rax
    e644:	48 8b 00             	mov    (%rax),%rax
    e647:	48 8d 35 92 52 00 00 	lea    0x5292(%rip),%rsi        # 138e0 <g_2031+0x838>
    e64e:	48 89 c7             	mov    %rax,%rdi
    e651:	e8 3a 9a ff ff       	callq  8090 <strcmp@plt>
    e656:	85 c0                	test   %eax,%eax
    e658:	75 07                	jne    e661 <main+0x45>
    e65a:	c7 45 fc 01 00 00 00 	movl   $0x1,-0x4(%rbp)
    e661:	e8 23 9b ff ff       	callq  8189 <platform_main_begin>
    e666:	e8 2d af ff ff       	callq  9598 <crc32_gentab>
    e66b:	e8 45 b1 ff ff       	callq  97b5 <func_1>
    e670:	8b 05 ae 89 00 00    	mov    0x89ae(%rip),%eax        # 17024 <g_2>
    e676:	48 98                	cltq   
    e678:	8b 55 fc             	mov    -0x4(%rbp),%edx
    e67b:	48 8d 35 60 52 00 00 	lea    0x5260(%rip),%rsi        # 138e2 <g_2031+0x83a>
    e682:	48 89 c7             	mov    %rax,%rdi
    e685:	e8 69 b0 ff ff       	callq  96f3 <transparent_crc>
    e68a:	8b 05 98 89 00 00    	mov    0x8998(%rip),%eax        # 17028 <g_6>
    e690:	48 98                	cltq   
    e692:	8b 55 fc             	mov    -0x4(%rbp),%edx
    e695:	48 8d 35 4a 52 00 00 	lea    0x524a(%rip),%rsi        # 138e6 <g_2031+0x83e>
    e69c:	48 89 c7             	mov    %rax,%rdi
    e69f:	e8 4f b0 ff ff       	callq  96f3 <transparent_crc>
    e6a4:	0f b7 05 81 89 00 00 	movzwl 0x8981(%rip),%eax        # 1702c <g_13>
    e6ab:	0f b7 c0             	movzwl %ax,%eax
    e6ae:	8b 55 fc             	mov    -0x4(%rbp),%edx
    e6b1:	48 8d 35 32 52 00 00 	lea    0x5232(%rip),%rsi        # 138ea <g_2031+0x842>
    e6b8:	48 89 c7             	mov    %rax,%rdi
    e6bb:	e8 33 b0 ff ff       	callq  96f3 <transparent_crc>
    e6c0:	48 8b 05 69 89 00 00 	mov    0x8969(%rip),%rax        # 17030 <g_77>
    e6c7:	48 89 c1             	mov    %rax,%rcx
    e6ca:	8b 45 fc             	mov    -0x4(%rbp),%eax
    e6cd:	89 c2                	mov    %eax,%edx
    e6cf:	48 8d 35 19 52 00 00 	lea    0x5219(%rip),%rsi        # 138ef <g_2031+0x847>
    e6d6:	48 89 cf             	mov    %rcx,%rdi
    e6d9:	e8 15 b0 ff ff       	callq  96f3 <transparent_crc>
    e6de:	c7 45 f0 00 00 00 00 	movl   $0x0,-0x10(%rbp)
    e6e5:	e9 ae 00 00 00       	jmpq   e798 <main+0x17c>
    e6ea:	c7 45 f4 00 00 00 00 	movl   $0x0,-0xc(%rbp)
    e6f1:	e9 94 00 00 00       	jmpq   e78a <main+0x16e>
    e6f6:	c7 45 f8 00 00 00 00 	movl   $0x0,-0x8(%rbp)
    e6fd:	eb 7d                	jmp    e77c <main+0x160>
    e6ff:	8b 45 f8             	mov    -0x8(%rbp),%eax
    e702:	48 63 f0             	movslq %eax,%rsi
    e705:	8b 45 f0             	mov    -0x10(%rbp),%eax
    e708:	48 63 d0             	movslq %eax,%rdx
    e70b:	8b 45 f4             	mov    -0xc(%rbp),%eax
    e70e:	48 63 c8             	movslq %eax,%rcx
    e711:	48 89 d0             	mov    %rdx,%rax
    e714:	48 c1 e0 03          	shl    $0x3,%rax
    e718:	48 29 d0             	sub    %rdx,%rax
    e71b:	48 01 c0             	add    %rax,%rax
    e71e:	48 89 ca             	mov    %rcx,%rdx
    e721:	48 c1 e2 03          	shl    $0x3,%rdx
    e725:	48 29 ca             	sub    %rcx,%rdx
    e728:	48 01 d0             	add    %rdx,%rax
    e72b:	48 01 f0             	add    %rsi,%rax
    e72e:	48 8d 14 85 00 00 00 	lea    0x0(,%rax,4),%rdx
    e735:	00 
    e736:	48 8d 05 03 89 00 00 	lea    0x8903(%rip),%rax        # 17040 <g_83>
    e73d:	8b 04 02             	mov    (%rdx,%rax,1),%eax
    e740:	89 c1                	mov    %eax,%ecx
    e742:	8b 45 fc             	mov    -0x4(%rbp),%eax
    e745:	89 c2                	mov    %eax,%edx
    e747:	48 8d 35 a6 51 00 00 	lea    0x51a6(%rip),%rsi        # 138f4 <g_2031+0x84c>
    e74e:	48 89 cf             	mov    %rcx,%rdi
    e751:	e8 9d af ff ff       	callq  96f3 <transparent_crc>
    e756:	83 7d fc 00          	cmpl   $0x0,-0x4(%rbp)
    e75a:	74 1c                	je     e778 <main+0x15c>
    e75c:	8b 4d f8             	mov    -0x8(%rbp),%ecx
    e75f:	8b 55 f4             	mov    -0xc(%rbp),%edx
    e762:	8b 45 f0             	mov    -0x10(%rbp),%eax
    e765:	89 c6                	mov    %eax,%esi
    e767:	48 8d 3d 94 51 00 00 	lea    0x5194(%rip),%rdi        # 13902 <g_2031+0x85a>
    e76e:	b8 00 00 00 00       	mov    $0x0,%eax
    e773:	e8 08 99 ff ff       	callq  8080 <printf@plt>
    e778:	83 45 f8 01          	addl   $0x1,-0x8(%rbp)
    e77c:	83 7d f8 06          	cmpl   $0x6,-0x8(%rbp)
    e780:	0f 8e 79 ff ff ff    	jle    e6ff <main+0xe3>
    e786:	83 45 f4 01          	addl   $0x1,-0xc(%rbp)
    e78a:	83 7d f4 01          	cmpl   $0x1,-0xc(%rbp)
    e78e:	0f 8e 62 ff ff ff    	jle    e6f6 <main+0xda>
    e794:	83 45 f0 01          	addl   $0x1,-0x10(%rbp)
    e798:	83 7d f0 04          	cmpl   $0x4,-0x10(%rbp)
    e79c:	0f 8e 48 ff ff ff    	jle    e6ea <main+0xce>
    e7a2:	0f b6 05 af 89 00 00 	movzbl 0x89af(%rip),%eax        # 17158 <g_85>
    e7a9:	48 0f be c0          	movsbq %al,%rax
    e7ad:	8b 55 fc             	mov    -0x4(%rbp),%edx
    e7b0:	48 8d 35 61 51 00 00 	lea    0x5161(%rip),%rsi        # 13918 <g_2031+0x870>
    e7b7:	48 89 c7             	mov    %rax,%rdi
    e7ba:	e8 34 af ff ff       	callq  96f3 <transparent_crc>
    e7bf:	0f b6 05 93 89 00 00 	movzbl 0x8993(%rip),%eax        # 17159 <g_88>
    e7c6:	0f b6 c0             	movzbl %al,%eax
    e7c9:	0f b6 15 8a 89 00 00 	movzbl 0x898a(%rip),%edx        # 1715a <g_88+0x1>
    e7d0:	0f b6 d2             	movzbl %dl,%edx
    e7d3:	83 e2 1f             	and    $0x1f,%edx
    e7d6:	48 c1 e2 08          	shl    $0x8,%rdx
    e7da:	48 09 d0             	or     %rdx,%rax
    e7dd:	48 c1 e0 33          	shl    $0x33,%rax
    e7e1:	48 c1 f8 33          	sar    $0x33,%rax
    e7e5:	48 0f bf c0          	movswq %ax,%rax
    e7e9:	8b 55 fc             	mov    -0x4(%rbp),%edx
    e7ec:	48 8d 35 2a 51 00 00 	lea    0x512a(%rip),%rsi        # 1391d <g_2031+0x875>
    e7f3:	48 89 c7             	mov    %rax,%rdi
    e7f6:	e8 f8 ae ff ff       	callq  96f3 <transparent_crc>
    e7fb:	0f b6 05 58 89 00 00 	movzbl 0x8958(%rip),%eax        # 1715a <g_88+0x1>
    e802:	c0 e8 05             	shr    $0x5,%al
    e805:	0f b6 c0             	movzbl %al,%eax
    e808:	0f b6 15 4c 89 00 00 	movzbl 0x894c(%rip),%edx        # 1715b <g_88+0x2>
    e80f:	0f b6 d2             	movzbl %dl,%edx
    e812:	48 c1 e2 03          	shl    $0x3,%rdx
    e816:	48 09 c2             	or     %rax,%rdx
    e819:	0f b6 05 3c 89 00 00 	movzbl 0x893c(%rip),%eax        # 1715c <g_88+0x3>
    e820:	0f b6 c0             	movzbl %al,%eax
    e823:	83 e0 07             	and    $0x7,%eax
    e826:	48 c1 e0 0b          	shl    $0xb,%rax
    e82a:	48 09 d0             	or     %rdx,%rax
    e82d:	48 c1 e0 32          	shl    $0x32,%rax
    e831:	48 c1 f8 32          	sar    $0x32,%rax
    e835:	48 0f bf c0          	movswq %ax,%rax
    e839:	8b 55 fc             	mov    -0x4(%rbp),%edx
    e83c:	48 8d 35 e2 50 00 00 	lea    0x50e2(%rip),%rsi        # 13925 <g_2031+0x87d>
    e843:	48 89 c7             	mov    %rax,%rdi
    e846:	e8 a8 ae ff ff       	callq  96f3 <transparent_crc>
    e84b:	0f b6 05 0a 89 00 00 	movzbl 0x890a(%rip),%eax        # 1715c <g_88+0x3>
    e852:	c0 e8 03             	shr    $0x3,%al
    e855:	0f b6 c0             	movzbl %al,%eax
    e858:	0f b6 15 fe 88 00 00 	movzbl 0x88fe(%rip),%edx        # 1715d <g_88+0x4>
    e85f:	48 c1 e2 05          	shl    $0x5,%rdx
    e863:	48 09 c2             	or     %rax,%rdx
    e866:	0f b6 05 f1 88 00 00 	movzbl 0x88f1(%rip),%eax        # 1715e <g_88+0x5>
    e86d:	48 c1 e0 0d          	shl    $0xd,%rax
    e871:	48 09 c2             	or     %rax,%rdx
    e874:	0f b6 05 e4 88 00 00 	movzbl 0x88e4(%rip),%eax        # 1715f <g_88+0x6>
    e87b:	83 e0 07             	and    $0x7,%eax
    e87e:	48 c1 e0 15          	shl    $0x15,%rax
    e882:	48 09 d0             	or     %rdx,%rax
    e885:	89 c1                	mov    %eax,%ecx
    e887:	8b 45 fc             	mov    -0x4(%rbp),%eax
    e88a:	89 c2                	mov    %eax,%edx
    e88c:	48 8d 35 9a 50 00 00 	lea    0x509a(%rip),%rsi        # 1392d <g_2031+0x885>
    e893:	48 89 cf             	mov    %rcx,%rdi
    e896:	e8 58 ae ff ff       	callq  96f3 <transparent_crc>
    e89b:	0f b6 05 bd 88 00 00 	movzbl 0x88bd(%rip),%eax        # 1715f <g_88+0x6>
    e8a2:	01 c0                	add    %eax,%eax
    e8a4:	c0 f8 04             	sar    $0x4,%al
    e8a7:	48 0f be c0          	movsbq %al,%rax
    e8ab:	8b 55 fc             	mov    -0x4(%rbp),%edx
    e8ae:	48 8d 35 80 50 00 00 	lea    0x5080(%rip),%rsi        # 13935 <g_2031+0x88d>
    e8b5:	48 89 c7             	mov    %rax,%rdi
    e8b8:	e8 36 ae ff ff       	callq  96f3 <transparent_crc>
    e8bd:	c7 45 f0 00 00 00 00 	movl   $0x0,-0x10(%rbp)
    e8c4:	e9 8d 00 00 00       	jmpq   e956 <main+0x33a>
    e8c9:	c7 45 f4 00 00 00 00 	movl   $0x0,-0xc(%rbp)
    e8d0:	eb 7a                	jmp    e94c <main+0x330>
    e8d2:	c7 45 f8 00 00 00 00 	movl   $0x0,-0x8(%rbp)
    e8d9:	eb 67                	jmp    e942 <main+0x326>
    e8db:	8b 45 f8             	mov    -0x8(%rbp),%eax
    e8de:	48 63 d0             	movslq %eax,%rdx
    e8e1:	8b 45 f4             	mov    -0xc(%rbp),%eax
    e8e4:	48 98                	cltq   
    e8e6:	8b 4d f0             	mov    -0x10(%rbp),%ecx
    e8e9:	48 63 c9             	movslq %ecx,%rcx
    e8ec:	48 c1 e1 02          	shl    $0x2,%rcx
    e8f0:	48 01 ca             	add    %rcx,%rdx
    e8f3:	48 01 d0             	add    %rdx,%rax
    e8f6:	48 8d 14 85 00 00 00 	lea    0x0(,%rax,4),%rdx
    e8fd:	00 
    e8fe:	48 8d 05 5b 88 00 00 	lea    0x885b(%rip),%rax        # 17160 <g_91>
    e905:	8b 04 02             	mov    (%rdx,%rax,1),%eax
    e908:	48 98                	cltq   
    e90a:	8b 55 fc             	mov    -0x4(%rbp),%edx
    e90d:	48 8d 35 29 50 00 00 	lea    0x5029(%rip),%rsi        # 1393d <g_2031+0x895>
    e914:	48 89 c7             	mov    %rax,%rdi
    e917:	e8 d7 ad ff ff       	callq  96f3 <transparent_crc>
    e91c:	83 7d fc 00          	cmpl   $0x0,-0x4(%rbp)
    e920:	74 1c                	je     e93e <main+0x322>
    e922:	8b 4d f8             	mov    -0x8(%rbp),%ecx
    e925:	8b 55 f4             	mov    -0xc(%rbp),%edx
    e928:	8b 45 f0             	mov    -0x10(%rbp),%eax
    e92b:	89 c6                	mov    %eax,%esi
    e92d:	48 8d 3d ce 4f 00 00 	lea    0x4fce(%rip),%rdi        # 13902 <g_2031+0x85a>
    e934:	b8 00 00 00 00       	mov    $0x0,%eax
    e939:	e8 42 97 ff ff       	callq  8080 <printf@plt>
    e93e:	83 45 f8 01          	addl   $0x1,-0x8(%rbp)
    e942:	83 7d f8 00          	cmpl   $0x0,-0x8(%rbp)
    e946:	7e 93                	jle    e8db <main+0x2bf>
    e948:	83 45 f4 01          	addl   $0x1,-0xc(%rbp)
    e94c:	83 7d f4 03          	cmpl   $0x3,-0xc(%rbp)
    e950:	7e 80                	jle    e8d2 <main+0x2b6>
    e952:	83 45 f0 01          	addl   $0x1,-0x10(%rbp)
    e956:	83 7d f0 09          	cmpl   $0x9,-0x10(%rbp)
    e95a:	0f 8e 69 ff ff ff    	jle    e8c9 <main+0x2ad>
    e960:	0f b6 05 99 88 00 00 	movzbl 0x8899(%rip),%eax        # 17200 <g_138>
    e967:	0f b6 c0             	movzbl %al,%eax
    e96a:	0f b6 15 90 88 00 00 	movzbl 0x8890(%rip),%edx        # 17201 <g_138+0x1>
    e971:	0f b6 d2             	movzbl %dl,%edx
    e974:	83 e2 1f             	and    $0x1f,%edx
    e977:	48 c1 e2 08          	shl    $0x8,%rdx
    e97b:	48 09 d0             	or     %rdx,%rax
    e97e:	48 c1 e0 33          	shl    $0x33,%rax
    e982:	48 c1 f8 33          	sar    $0x33,%rax
    e986:	48 0f bf c0          	movswq %ax,%rax
    e98a:	8b 55 fc             	mov    -0x4(%rbp),%edx
    e98d:	48 8d 35 b7 4f 00 00 	lea    0x4fb7(%rip),%rsi        # 1394b <g_2031+0x8a3>
    e994:	48 89 c7             	mov    %rax,%rdi
    e997:	e8 57 ad ff ff       	callq  96f3 <transparent_crc>
    e99c:	0f b6 05 5e 88 00 00 	movzbl 0x885e(%rip),%eax        # 17201 <g_138+0x1>
    e9a3:	c0 e8 05             	shr    $0x5,%al
    e9a6:	0f b6 c0             	movzbl %al,%eax
    e9a9:	0f b6 15 52 88 00 00 	movzbl 0x8852(%rip),%edx        # 17202 <g_138+0x2>
    e9b0:	0f b6 d2             	movzbl %dl,%edx
    e9b3:	48 c1 e2 03          	shl    $0x3,%rdx
    e9b7:	48 09 c2             	or     %rax,%rdx
    e9ba:	0f b6 05 42 88 00 00 	movzbl 0x8842(%rip),%eax        # 17203 <g_138+0x3>
    e9c1:	0f b6 c0             	movzbl %al,%eax
    e9c4:	83 e0 07             	and    $0x7,%eax
    e9c7:	48 c1 e0 0b          	shl    $0xb,%rax
    e9cb:	48 09 d0             	or     %rdx,%rax
    e9ce:	48 c1 e0 32          	shl    $0x32,%rax
    e9d2:	48 c1 f8 32          	sar    $0x32,%rax
    e9d6:	48 0f bf c0          	movswq %ax,%rax
    e9da:	8b 55 fc             	mov    -0x4(%rbp),%edx
    e9dd:	48 8d 35 70 4f 00 00 	lea    0x4f70(%rip),%rsi        # 13954 <g_2031+0x8ac>
    e9e4:	48 89 c7             	mov    %rax,%rdi
    e9e7:	e8 07 ad ff ff       	callq  96f3 <transparent_crc>
    e9ec:	0f b6 05 10 88 00 00 	movzbl 0x8810(%rip),%eax        # 17203 <g_138+0x3>
    e9f3:	c0 e8 03             	shr    $0x3,%al
    e9f6:	0f b6 c0             	movzbl %al,%eax
    e9f9:	0f b6 15 04 88 00 00 	movzbl 0x8804(%rip),%edx        # 17204 <g_138+0x4>
    ea00:	48 c1 e2 05          	shl    $0x5,%rdx
    ea04:	48 09 c2             	or     %rax,%rdx
    ea07:	0f b6 05 f7 87 00 00 	movzbl 0x87f7(%rip),%eax        # 17205 <g_138+0x5>
    ea0e:	48 c1 e0 0d          	shl    $0xd,%rax
    ea12:	48 09 c2             	or     %rax,%rdx
    ea15:	0f b6 05 ea 87 00 00 	movzbl 0x87ea(%rip),%eax        # 17206 <g_138+0x6>
    ea1c:	83 e0 07             	and    $0x7,%eax
    ea1f:	48 c1 e0 15          	shl    $0x15,%rax
    ea23:	48 09 d0             	or     %rdx,%rax
    ea26:	89 c1                	mov    %eax,%ecx
    ea28:	8b 45 fc             	mov    -0x4(%rbp),%eax
    ea2b:	89 c2                	mov    %eax,%edx
    ea2d:	48 8d 35 29 4f 00 00 	lea    0x4f29(%rip),%rsi        # 1395d <g_2031+0x8b5>
    ea34:	48 89 cf             	mov    %rcx,%rdi
    ea37:	e8 b7 ac ff ff       	callq  96f3 <transparent_crc>
    ea3c:	0f b6 05 c3 87 00 00 	movzbl 0x87c3(%rip),%eax        # 17206 <g_138+0x6>
    ea43:	01 c0                	add    %eax,%eax
    ea45:	c0 f8 04             	sar    $0x4,%al
    ea48:	48 0f be c0          	movsbq %al,%rax
    ea4c:	8b 55 fc             	mov    -0x4(%rbp),%edx
    ea4f:	48 8d 35 10 4f 00 00 	lea    0x4f10(%rip),%rsi        # 13966 <g_2031+0x8be>
    ea56:	48 89 c7             	mov    %rax,%rdi
    ea59:	e8 95 ac ff ff       	callq  96f3 <transparent_crc>
    ea5e:	0f b6 05 ef 45 00 00 	movzbl 0x45ef(%rip),%eax        # 13054 <g_148>
    ea65:	0f b6 c0             	movzbl %al,%eax
    ea68:	0f b6 15 e6 45 00 00 	movzbl 0x45e6(%rip),%edx        # 13055 <g_148+0x1>
    ea6f:	0f b6 d2             	movzbl %dl,%edx
    ea72:	83 e2 1f             	and    $0x1f,%edx
    ea75:	48 c1 e2 08          	shl    $0x8,%rdx
    ea79:	48 09 d0             	or     %rdx,%rax
    ea7c:	48 c1 e0 33          	shl    $0x33,%rax
    ea80:	48 c1 f8 33          	sar    $0x33,%rax
    ea84:	48 0f bf c0          	movswq %ax,%rax
    ea88:	8b 55 fc             	mov    -0x4(%rbp),%edx
    ea8b:	48 8d 35 dd 4e 00 00 	lea    0x4edd(%rip),%rsi        # 1396f <g_2031+0x8c7>
    ea92:	48 89 c7             	mov    %rax,%rdi
    ea95:	e8 59 ac ff ff       	callq  96f3 <transparent_crc>
    ea9a:	0f b6 05 b4 45 00 00 	movzbl 0x45b4(%rip),%eax        # 13055 <g_148+0x1>
    eaa1:	c0 e8 05             	shr    $0x5,%al
    eaa4:	0f b6 c0             	movzbl %al,%eax
    eaa7:	0f b6 15 a8 45 00 00 	movzbl 0x45a8(%rip),%edx        # 13056 <g_148+0x2>
    eaae:	0f b6 d2             	movzbl %dl,%edx
    eab1:	48 c1 e2 03          	shl    $0x3,%rdx
    eab5:	48 09 c2             	or     %rax,%rdx
    eab8:	0f b6 05 98 45 00 00 	movzbl 0x4598(%rip),%eax        # 13057 <g_148+0x3>
    eabf:	0f b6 c0             	movzbl %al,%eax
    eac2:	83 e0 07             	and    $0x7,%eax
    eac5:	48 c1 e0 0b          	shl    $0xb,%rax
    eac9:	48 09 d0             	or     %rdx,%rax
    eacc:	48 c1 e0 32          	shl    $0x32,%rax
    ead0:	48 c1 f8 32          	sar    $0x32,%rax
    ead4:	48 0f bf c0          	movswq %ax,%rax
    ead8:	8b 55 fc             	mov    -0x4(%rbp),%edx
    eadb:	48 8d 35 96 4e 00 00 	lea    0x4e96(%rip),%rsi        # 13978 <g_2031+0x8d0>
    eae2:	48 89 c7             	mov    %rax,%rdi
    eae5:	e8 09 ac ff ff       	callq  96f3 <transparent_crc>
    eaea:	b8 87 09 00 00       	mov    $0x987,%eax
    eaef:	89 c1                	mov    %eax,%ecx
    eaf1:	8b 45 fc             	mov    -0x4(%rbp),%eax
    eaf4:	89 c2                	mov    %eax,%edx
    eaf6:	48 8d 35 84 4e 00 00 	lea    0x4e84(%rip),%rsi        # 13981 <g_2031+0x8d9>
    eafd:	48 89 cf             	mov    %rcx,%rdi
    eb00:	e8 ee ab ff ff       	callq  96f3 <transparent_crc>
    eb05:	b8 fe ff ff ff       	mov    $0xfffffffe,%eax
    eb0a:	48 0f be c0          	movsbq %al,%rax
    eb0e:	8b 55 fc             	mov    -0x4(%rbp),%edx
    eb11:	48 8d 35 72 4e 00 00 	lea    0x4e72(%rip),%rsi        # 1398a <g_2031+0x8e2>
    eb18:	48 89 c7             	mov    %rax,%rdi
    eb1b:	e8 d3 ab ff ff       	callq  96f3 <transparent_crc>
    eb20:	8b 05 e2 86 00 00    	mov    0x86e2(%rip),%eax        # 17208 <g_157>
    eb26:	89 c1                	mov    %eax,%ecx
    eb28:	8b 45 fc             	mov    -0x4(%rbp),%eax
    eb2b:	89 c2                	mov    %eax,%edx
    eb2d:	48 8d 35 5f 4e 00 00 	lea    0x4e5f(%rip),%rsi        # 13993 <g_2031+0x8eb>
    eb34:	48 89 cf             	mov    %rcx,%rdi
    eb37:	e8 b7 ab ff ff       	callq  96f3 <transparent_crc>
    eb3c:	48 8b 05 cd 86 00 00 	mov    0x86cd(%rip),%rax        # 17210 <g_172>
    eb43:	8b 55 fc             	mov    -0x4(%rbp),%edx
    eb46:	48 8d 35 4c 4e 00 00 	lea    0x4e4c(%rip),%rsi        # 13999 <g_2031+0x8f1>
    eb4d:	48 89 c7             	mov    %rax,%rdi
    eb50:	e8 9e ab ff ff       	callq  96f3 <transparent_crc>
    eb55:	0f b6 05 bc 86 00 00 	movzbl 0x86bc(%rip),%eax        # 17218 <g_174>
    eb5c:	48 0f be c0          	movsbq %al,%rax
    eb60:	8b 55 fc             	mov    -0x4(%rbp),%edx
    eb63:	48 8d 35 35 4e 00 00 	lea    0x4e35(%rip),%rsi        # 1399f <g_2031+0x8f7>
    eb6a:	48 89 c7             	mov    %rax,%rdi
    eb6d:	e8 81 ab ff ff       	callq  96f3 <transparent_crc>
    eb72:	8b 05 a8 86 00 00    	mov    0x86a8(%rip),%eax        # 17220 <g_180>
    eb78:	89 c1                	mov    %eax,%ecx
    eb7a:	8b 45 fc             	mov    -0x4(%rbp),%eax
    eb7d:	89 c2                	mov    %eax,%edx
    eb7f:	48 8d 35 1f 4e 00 00 	lea    0x4e1f(%rip),%rsi        # 139a5 <g_2031+0x8fd>
    eb86:	48 89 cf             	mov    %rcx,%rdi
    eb89:	e8 65 ab ff ff       	callq  96f3 <transparent_crc>
    eb8e:	8b 05 90 86 00 00    	mov    0x8690(%rip),%eax        # 17224 <g_180+0x4>
    eb94:	89 c1                	mov    %eax,%ecx
    eb96:	8b 45 fc             	mov    -0x4(%rbp),%eax
    eb99:	89 c2                	mov    %eax,%edx
    eb9b:	48 8d 35 0c 4e 00 00 	lea    0x4e0c(%rip),%rsi        # 139ae <g_2031+0x906>
    eba2:	48 89 cf             	mov    %rcx,%rdi
    eba5:	e8 49 ab ff ff       	callq  96f3 <transparent_crc>
    ebaa:	48 8b 05 77 86 00 00 	mov    0x8677(%rip),%rax        # 17228 <g_180+0x8>
    ebb1:	8b 55 fc             	mov    -0x4(%rbp),%edx
    ebb4:	48 8d 35 fc 4d 00 00 	lea    0x4dfc(%rip),%rsi        # 139b7 <g_2031+0x90f>
    ebbb:	48 89 c7             	mov    %rax,%rdi
    ebbe:	e8 30 ab ff ff       	callq  96f3 <transparent_crc>
    ebc3:	0f b7 05 66 86 00 00 	movzwl 0x8666(%rip),%eax        # 17230 <g_180+0x10>
    ebca:	48 0f bf c0          	movswq %ax,%rax
    ebce:	8b 55 fc             	mov    -0x4(%rbp),%edx
    ebd1:	48 8d 35 e8 4d 00 00 	lea    0x4de8(%rip),%rsi        # 139c0 <g_2031+0x918>
    ebd8:	48 89 c7             	mov    %rax,%rdi
    ebdb:	e8 13 ab ff ff       	callq  96f3 <transparent_crc>
    ebe0:	8b 05 4e 86 00 00    	mov    0x864e(%rip),%eax        # 17234 <g_180+0x14>
    ebe6:	48 98                	cltq   
    ebe8:	8b 55 fc             	mov    -0x4(%rbp),%edx
    ebeb:	48 8d 35 d7 4d 00 00 	lea    0x4dd7(%rip),%rsi        # 139c9 <g_2031+0x921>
    ebf2:	48 89 c7             	mov    %rax,%rdi
    ebf5:	e8 f9 aa ff ff       	callq  96f3 <transparent_crc>
    ebfa:	8b 05 38 86 00 00    	mov    0x8638(%rip),%eax        # 17238 <g_180+0x18>
    ec00:	89 c1                	mov    %eax,%ecx
    ec02:	8b 45 fc             	mov    -0x4(%rbp),%eax
    ec05:	89 c2                	mov    %eax,%edx
    ec07:	48 8d 35 c4 4d 00 00 	lea    0x4dc4(%rip),%rsi        # 139d2 <g_2031+0x92a>
    ec0e:	48 89 cf             	mov    %rcx,%rdi
    ec11:	e8 dd aa ff ff       	callq  96f3 <transparent_crc>
    ec16:	8b 05 20 86 00 00    	mov    0x8620(%rip),%eax        # 1723c <g_180+0x1c>
    ec1c:	48 98                	cltq   
    ec1e:	8b 55 fc             	mov    -0x4(%rbp),%edx
    ec21:	48 8d 35 b3 4d 00 00 	lea    0x4db3(%rip),%rsi        # 139db <g_2031+0x933>
    ec28:	48 89 c7             	mov    %rax,%rdi
    ec2b:	e8 c3 aa ff ff       	callq  96f3 <transparent_crc>
    ec30:	8b 05 0a 86 00 00    	mov    0x860a(%rip),%eax        # 17240 <g_180+0x20>
    ec36:	48 98                	cltq   
    ec38:	8b 55 fc             	mov    -0x4(%rbp),%edx
    ec3b:	48 8d 35 a2 4d 00 00 	lea    0x4da2(%rip),%rsi        # 139e4 <g_2031+0x93c>
    ec42:	48 89 c7             	mov    %rax,%rdi
    ec45:	e8 a9 aa ff ff       	callq  96f3 <transparent_crc>
    ec4a:	48 8b 05 ef 85 00 00 	mov    0x85ef(%rip),%rax        # 17240 <g_180+0x20>
    ec51:	48 c1 e0 17          	shl    $0x17,%rax
    ec55:	48 c1 f8 37          	sar    $0x37,%rax
    ec59:	48 0f bf c0          	movswq %ax,%rax
    ec5d:	8b 55 fc             	mov    -0x4(%rbp),%edx
    ec60:	48 8d 35 86 4d 00 00 	lea    0x4d86(%rip),%rsi        # 139ed <g_2031+0x945>
    ec67:	48 89 c7             	mov    %rax,%rdi
    ec6a:	e8 84 aa ff ff       	callq  96f3 <transparent_crc>
    ec6f:	0f b6 05 d2 85 00 00 	movzbl 0x85d2(%rip),%eax        # 17248 <g_191>
    ec76:	0f b6 c0             	movzbl %al,%eax
    ec79:	8b 55 fc             	mov    -0x4(%rbp),%edx
    ec7c:	48 8d 35 73 4d 00 00 	lea    0x4d73(%rip),%rsi        # 139f6 <g_2031+0x94e>
    ec83:	48 89 c7             	mov    %rax,%rdi
    ec86:	e8 68 aa ff ff       	callq  96f3 <transparent_crc>
    ec8b:	0f b6 05 b7 85 00 00 	movzbl 0x85b7(%rip),%eax        # 17249 <g_192>
    ec92:	0f b6 c0             	movzbl %al,%eax
    ec95:	0f b6 15 ae 85 00 00 	movzbl 0x85ae(%rip),%edx        # 1724a <g_192+0x1>
    ec9c:	0f b6 d2             	movzbl %dl,%edx
    ec9f:	83 e2 1f             	and    $0x1f,%edx
    eca2:	48 c1 e2 08          	shl    $0x8,%rdx
    eca6:	48 09 d0             	or     %rdx,%rax
    eca9:	48 c1 e0 33          	shl    $0x33,%rax
    ecad:	48 c1 f8 33          	sar    $0x33,%rax
    ecb1:	48 0f bf c0          	movswq %ax,%rax
    ecb5:	8b 55 fc             	mov    -0x4(%rbp),%edx
    ecb8:	48 8d 35 3d 4d 00 00 	lea    0x4d3d(%rip),%rsi        # 139fc <g_2031+0x954>
    ecbf:	48 89 c7             	mov    %rax,%rdi
    ecc2:	e8 2c aa ff ff       	callq  96f3 <transparent_crc>
    ecc7:	0f b6 05 7c 85 00 00 	movzbl 0x857c(%rip),%eax        # 1724a <g_192+0x1>
    ecce:	c0 e8 05             	shr    $0x5,%al
    ecd1:	0f b6 c0             	movzbl %al,%eax
    ecd4:	0f b6 15 70 85 00 00 	movzbl 0x8570(%rip),%edx        # 1724b <g_192+0x2>
    ecdb:	0f b6 d2             	movzbl %dl,%edx
    ecde:	48 c1 e2 03          	shl    $0x3,%rdx
    ece2:	48 09 c2             	or     %rax,%rdx
    ece5:	0f b6 05 60 85 00 00 	movzbl 0x8560(%rip),%eax        # 1724c <g_192+0x3>
    ecec:	0f b6 c0             	movzbl %al,%eax
    ecef:	83 e0 07             	and    $0x7,%eax
    ecf2:	48 c1 e0 0b          	shl    $0xb,%rax
    ecf6:	48 09 d0             	or     %rdx,%rax
    ecf9:	48 c1 e0 32          	shl    $0x32,%rax
    ecfd:	48 c1 f8 32          	sar    $0x32,%rax
    ed01:	48 0f bf c0          	movswq %ax,%rax
    ed05:	8b 55 fc             	mov    -0x4(%rbp),%edx
    ed08:	48 8d 35 f6 4c 00 00 	lea    0x4cf6(%rip),%rsi        # 13a05 <g_2031+0x95d>
    ed0f:	48 89 c7             	mov    %rax,%rdi
    ed12:	e8 dc a9 ff ff       	callq  96f3 <transparent_crc>
    ed17:	0f b6 05 2e 85 00 00 	movzbl 0x852e(%rip),%eax        # 1724c <g_192+0x3>
    ed1e:	c0 e8 03             	shr    $0x3,%al
    ed21:	0f b6 c0             	movzbl %al,%eax
    ed24:	0f b6 15 22 85 00 00 	movzbl 0x8522(%rip),%edx        # 1724d <g_192+0x4>
    ed2b:	0f b6 d2             	movzbl %dl,%edx
    ed2e:	48 c1 e2 05          	shl    $0x5,%rdx
    ed32:	48 09 c2             	or     %rax,%rdx
    ed35:	0f b6 05 12 85 00 00 	movzbl 0x8512(%rip),%eax        # 1724e <g_192+0x5>
    ed3c:	0f b6 c0             	movzbl %al,%eax
    ed3f:	48 c1 e0 0d          	shl    $0xd,%rax
    ed43:	48 09 c2             	or     %rax,%rdx
    ed46:	0f b6 05 02 85 00 00 	movzbl 0x8502(%rip),%eax        # 1724f <g_192+0x6>
    ed4d:	0f b6 c0             	movzbl %al,%eax
    ed50:	83 e0 07             	and    $0x7,%eax
    ed53:	48 c1 e0 15          	shl    $0x15,%rax
    ed57:	48 09 d0             	or     %rdx,%rax
    ed5a:	89 c1                	mov    %eax,%ecx
    ed5c:	8b 45 fc             	mov    -0x4(%rbp),%eax
    ed5f:	89 c2                	mov    %eax,%edx
    ed61:	48 8d 35 a6 4c 00 00 	lea    0x4ca6(%rip),%rsi        # 13a0e <g_2031+0x966>
    ed68:	48 89 cf             	mov    %rcx,%rdi
    ed6b:	e8 83 a9 ff ff       	callq  96f3 <transparent_crc>
    ed70:	0f b6 05 d8 84 00 00 	movzbl 0x84d8(%rip),%eax        # 1724f <g_192+0x6>
    ed77:	01 c0                	add    %eax,%eax
    ed79:	c0 f8 04             	sar    $0x4,%al
    ed7c:	48 0f be c0          	movsbq %al,%rax
    ed80:	8b 55 fc             	mov    -0x4(%rbp),%edx
    ed83:	48 8d 35 8d 4c 00 00 	lea    0x4c8d(%rip),%rsi        # 13a17 <g_2031+0x96f>
    ed8a:	48 89 c7             	mov    %rax,%rdi
    ed8d:	e8 61 a9 ff ff       	callq  96f3 <transparent_crc>
    ed92:	0f b6 05 b7 84 00 00 	movzbl 0x84b7(%rip),%eax        # 17250 <g_203>
    ed99:	0f b6 c0             	movzbl %al,%eax
    ed9c:	0f b6 15 ae 84 00 00 	movzbl 0x84ae(%rip),%edx        # 17251 <g_203+0x1>
    eda3:	0f b6 d2             	movzbl %dl,%edx
    eda6:	83 e2 1f             	and    $0x1f,%edx
    eda9:	48 c1 e2 08          	shl    $0x8,%rdx
    edad:	48 09 d0             	or     %rdx,%rax
    edb0:	48 c1 e0 33          	shl    $0x33,%rax
    edb4:	48 c1 f8 33          	sar    $0x33,%rax
    edb8:	48 0f bf c0          	movswq %ax,%rax
    edbc:	8b 55 fc             	mov    -0x4(%rbp),%edx
    edbf:	48 8d 35 5a 4c 00 00 	lea    0x4c5a(%rip),%rsi        # 13a20 <g_2031+0x978>
    edc6:	48 89 c7             	mov    %rax,%rdi
    edc9:	e8 25 a9 ff ff       	callq  96f3 <transparent_crc>
    edce:	0f b6 05 7c 84 00 00 	movzbl 0x847c(%rip),%eax        # 17251 <g_203+0x1>
    edd5:	c0 e8 05             	shr    $0x5,%al
    edd8:	0f b6 c0             	movzbl %al,%eax
    eddb:	0f b6 15 70 84 00 00 	movzbl 0x8470(%rip),%edx        # 17252 <g_203+0x2>
    ede2:	0f b6 d2             	movzbl %dl,%edx
    ede5:	48 c1 e2 03          	shl    $0x3,%rdx
    ede9:	48 09 c2             	or     %rax,%rdx
    edec:	0f b6 05 60 84 00 00 	movzbl 0x8460(%rip),%eax        # 17253 <g_203+0x3>
    edf3:	0f b6 c0             	movzbl %al,%eax
    edf6:	83 e0 07             	and    $0x7,%eax
    edf9:	48 c1 e0 0b          	shl    $0xb,%rax
    edfd:	48 09 d0             	or     %rdx,%rax
    ee00:	48 c1 e0 32          	shl    $0x32,%rax
    ee04:	48 c1 f8 32          	sar    $0x32,%rax
    ee08:	48 0f bf c0          	movswq %ax,%rax
    ee0c:	8b 55 fc             	mov    -0x4(%rbp),%edx
    ee0f:	48 8d 35 13 4c 00 00 	lea    0x4c13(%rip),%rsi        # 13a29 <g_2031+0x981>
    ee16:	48 89 c7             	mov    %rax,%rdi
    ee19:	e8 d5 a8 ff ff       	callq  96f3 <transparent_crc>
    ee1e:	0f b6 05 2e 84 00 00 	movzbl 0x842e(%rip),%eax        # 17253 <g_203+0x3>
    ee25:	c0 e8 03             	shr    $0x3,%al
    ee28:	0f b6 c0             	movzbl %al,%eax
    ee2b:	0f b6 15 22 84 00 00 	movzbl 0x8422(%rip),%edx        # 17254 <g_203+0x4>
    ee32:	48 c1 e2 05          	shl    $0x5,%rdx
    ee36:	48 09 c2             	or     %rax,%rdx
    ee39:	0f b6 05 15 84 00 00 	movzbl 0x8415(%rip),%eax        # 17255 <g_203+0x5>
    ee40:	48 c1 e0 0d          	shl    $0xd,%rax
    ee44:	48 09 c2             	or     %rax,%rdx
    ee47:	0f b6 05 08 84 00 00 	movzbl 0x8408(%rip),%eax        # 17256 <g_203+0x6>
    ee4e:	83 e0 07             	and    $0x7,%eax
    ee51:	48 c1 e0 15          	shl    $0x15,%rax
    ee55:	48 09 d0             	or     %rdx,%rax
    ee58:	89 c1                	mov    %eax,%ecx
    ee5a:	8b 45 fc             	mov    -0x4(%rbp),%eax
    ee5d:	89 c2                	mov    %eax,%edx
    ee5f:	48 8d 35 cc 4b 00 00 	lea    0x4bcc(%rip),%rsi        # 13a32 <g_2031+0x98a>
    ee66:	48 89 cf             	mov    %rcx,%rdi
    ee69:	e8 85 a8 ff ff       	callq  96f3 <transparent_crc>
    ee6e:	0f b6 05 e1 83 00 00 	movzbl 0x83e1(%rip),%eax        # 17256 <g_203+0x6>
    ee75:	01 c0                	add    %eax,%eax
    ee77:	c0 f8 04             	sar    $0x4,%al
    ee7a:	48 0f be c0          	movsbq %al,%rax
    ee7e:	8b 55 fc             	mov    -0x4(%rbp),%edx
    ee81:	48 8d 35 b3 4b 00 00 	lea    0x4bb3(%rip),%rsi        # 13a3b <g_2031+0x993>
    ee88:	48 89 c7             	mov    %rax,%rdi
    ee8b:	e8 63 a8 ff ff       	callq  96f3 <transparent_crc>
    ee90:	8b 05 ca 83 00 00    	mov    0x83ca(%rip),%eax        # 17260 <g_320>
    ee96:	89 c1                	mov    %eax,%ecx
    ee98:	8b 45 fc             	mov    -0x4(%rbp),%eax
    ee9b:	89 c2                	mov    %eax,%edx
    ee9d:	48 8d 35 a0 4b 00 00 	lea    0x4ba0(%rip),%rsi        # 13a44 <g_2031+0x99c>
    eea4:	48 89 cf             	mov    %rcx,%rdi
    eea7:	e8 47 a8 ff ff       	callq  96f3 <transparent_crc>
    eeac:	8b 05 b2 83 00 00    	mov    0x83b2(%rip),%eax        # 17264 <g_320+0x4>
    eeb2:	89 c1                	mov    %eax,%ecx
    eeb4:	8b 45 fc             	mov    -0x4(%rbp),%eax
    eeb7:	89 c2                	mov    %eax,%edx
    eeb9:	48 8d 35 8d 4b 00 00 	lea    0x4b8d(%rip),%rsi        # 13a4d <g_2031+0x9a5>
    eec0:	48 89 cf             	mov    %rcx,%rdi
    eec3:	e8 2b a8 ff ff       	callq  96f3 <transparent_crc>
    eec8:	48 8b 05 99 83 00 00 	mov    0x8399(%rip),%rax        # 17268 <g_320+0x8>
    eecf:	8b 55 fc             	mov    -0x4(%rbp),%edx
    eed2:	48 8d 35 7d 4b 00 00 	lea    0x4b7d(%rip),%rsi        # 13a56 <g_2031+0x9ae>
    eed9:	48 89 c7             	mov    %rax,%rdi
    eedc:	e8 12 a8 ff ff       	callq  96f3 <transparent_crc>
    eee1:	0f b7 05 88 83 00 00 	movzwl 0x8388(%rip),%eax        # 17270 <g_320+0x10>
    eee8:	48 0f bf c0          	movswq %ax,%rax
    eeec:	8b 55 fc             	mov    -0x4(%rbp),%edx
    eeef:	48 8d 35 69 4b 00 00 	lea    0x4b69(%rip),%rsi        # 13a5f <g_2031+0x9b7>
    eef6:	48 89 c7             	mov    %rax,%rdi
    eef9:	e8 f5 a7 ff ff       	callq  96f3 <transparent_crc>
    eefe:	8b 05 70 83 00 00    	mov    0x8370(%rip),%eax        # 17274 <g_320+0x14>
    ef04:	48 98                	cltq   
    ef06:	8b 55 fc             	mov    -0x4(%rbp),%edx
    ef09:	48 8d 35 58 4b 00 00 	lea    0x4b58(%rip),%rsi        # 13a68 <g_2031+0x9c0>
    ef10:	48 89 c7             	mov    %rax,%rdi
    ef13:	e8 db a7 ff ff       	callq  96f3 <transparent_crc>
    ef18:	8b 05 5a 83 00 00    	mov    0x835a(%rip),%eax        # 17278 <g_320+0x18>
    ef1e:	89 c1                	mov    %eax,%ecx
    ef20:	8b 45 fc             	mov    -0x4(%rbp),%eax
    ef23:	89 c2                	mov    %eax,%edx
    ef25:	48 8d 35 45 4b 00 00 	lea    0x4b45(%rip),%rsi        # 13a71 <g_2031+0x9c9>
    ef2c:	48 89 cf             	mov    %rcx,%rdi
    ef2f:	e8 bf a7 ff ff       	callq  96f3 <transparent_crc>
    ef34:	8b 05 42 83 00 00    	mov    0x8342(%rip),%eax        # 1727c <g_320+0x1c>
    ef3a:	48 98                	cltq   
    ef3c:	8b 55 fc             	mov    -0x4(%rbp),%edx
    ef3f:	48 8d 35 34 4b 00 00 	lea    0x4b34(%rip),%rsi        # 13a7a <g_2031+0x9d2>
    ef46:	48 89 c7             	mov    %rax,%rdi
    ef49:	e8 a5 a7 ff ff       	callq  96f3 <transparent_crc>
    ef4e:	8b 05 2c 83 00 00    	mov    0x832c(%rip),%eax        # 17280 <g_320+0x20>
    ef54:	48 98                	cltq   
    ef56:	8b 55 fc             	mov    -0x4(%rbp),%edx
    ef59:	48 8d 35 23 4b 00 00 	lea    0x4b23(%rip),%rsi        # 13a83 <g_2031+0x9db>
    ef60:	48 89 c7             	mov    %rax,%rdi
    ef63:	e8 8b a7 ff ff       	callq  96f3 <transparent_crc>
    ef68:	48 8b 05 11 83 00 00 	mov    0x8311(%rip),%rax        # 17280 <g_320+0x20>
    ef6f:	48 c1 e0 17          	shl    $0x17,%rax
    ef73:	48 c1 f8 37          	sar    $0x37,%rax
    ef77:	48 0f bf c0          	movswq %ax,%rax
    ef7b:	8b 55 fc             	mov    -0x4(%rbp),%edx
    ef7e:	48 8d 35 07 4b 00 00 	lea    0x4b07(%rip),%rsi        # 13a8c <g_2031+0x9e4>
    ef85:	48 89 c7             	mov    %rax,%rdi
    ef88:	e8 66 a7 ff ff       	callq  96f3 <transparent_crc>
    ef8d:	8b 05 f5 82 00 00    	mov    0x82f5(%rip),%eax        # 17288 <g_341>
    ef93:	48 98                	cltq   
    ef95:	8b 55 fc             	mov    -0x4(%rbp),%edx
    ef98:	48 8d 35 f6 4a 00 00 	lea    0x4af6(%rip),%rsi        # 13a95 <g_2031+0x9ed>
    ef9f:	48 89 c7             	mov    %rax,%rdi
    efa2:	e8 4c a7 ff ff       	callq  96f3 <transparent_crc>
    efa7:	b8 00 00 00 00       	mov    $0x0,%eax
    efac:	89 c1                	mov    %eax,%ecx
    efae:	8b 45 fc             	mov    -0x4(%rbp),%eax
    efb1:	89 c2                	mov    %eax,%edx
    efb3:	48 8d 35 e1 4a 00 00 	lea    0x4ae1(%rip),%rsi        # 13a9b <g_2031+0x9f3>
    efba:	48 89 cf             	mov    %rcx,%rdi
    efbd:	e8 31 a7 ff ff       	callq  96f3 <transparent_crc>
    efc2:	b8 00 00 00 00       	mov    $0x0,%eax
    efc7:	48 98                	cltq   
    efc9:	8b 55 fc             	mov    -0x4(%rbp),%edx
    efcc:	48 8d 35 d1 4a 00 00 	lea    0x4ad1(%rip),%rsi        # 13aa4 <g_2031+0x9fc>
    efd3:	48 89 c7             	mov    %rax,%rdi
    efd6:	e8 18 a7 ff ff       	callq  96f3 <transparent_crc>
    efdb:	8b 05 bf 82 00 00    	mov    0x82bf(%rip),%eax        # 172a0 <g_377>
    efe1:	89 c1                	mov    %eax,%ecx
    efe3:	8b 45 fc             	mov    -0x4(%rbp),%eax
    efe6:	89 c2                	mov    %eax,%edx
    efe8:	48 8d 35 be 4a 00 00 	lea    0x4abe(%rip),%rsi        # 13aad <g_2031+0xa05>
    efef:	48 89 cf             	mov    %rcx,%rdi
    eff2:	e8 fc a6 ff ff       	callq  96f3 <transparent_crc>
    eff7:	8b 05 a7 82 00 00    	mov    0x82a7(%rip),%eax        # 172a4 <g_377+0x4>
    effd:	89 c1                	mov    %eax,%ecx
    efff:	8b 45 fc             	mov    -0x4(%rbp),%eax
    f002:	89 c2                	mov    %eax,%edx
    f004:	48 8d 35 ab 4a 00 00 	lea    0x4aab(%rip),%rsi        # 13ab6 <g_2031+0xa0e>
    f00b:	48 89 cf             	mov    %rcx,%rdi
    f00e:	e8 e0 a6 ff ff       	callq  96f3 <transparent_crc>
    f013:	48 8b 05 8e 82 00 00 	mov    0x828e(%rip),%rax        # 172a8 <g_377+0x8>
    f01a:	8b 55 fc             	mov    -0x4(%rbp),%edx
    f01d:	48 8d 35 9b 4a 00 00 	lea    0x4a9b(%rip),%rsi        # 13abf <g_2031+0xa17>
    f024:	48 89 c7             	mov    %rax,%rdi
    f027:	e8 c7 a6 ff ff       	callq  96f3 <transparent_crc>
    f02c:	0f b7 05 7d 82 00 00 	movzwl 0x827d(%rip),%eax        # 172b0 <g_377+0x10>
    f033:	48 0f bf c0          	movswq %ax,%rax
    f037:	8b 55 fc             	mov    -0x4(%rbp),%edx
    f03a:	48 8d 35 87 4a 00 00 	lea    0x4a87(%rip),%rsi        # 13ac8 <g_2031+0xa20>
    f041:	48 89 c7             	mov    %rax,%rdi
    f044:	e8 aa a6 ff ff       	callq  96f3 <transparent_crc>
    f049:	8b 05 65 82 00 00    	mov    0x8265(%rip),%eax        # 172b4 <g_377+0x14>
    f04f:	48 98                	cltq   
    f051:	8b 55 fc             	mov    -0x4(%rbp),%edx
    f054:	48 8d 35 76 4a 00 00 	lea    0x4a76(%rip),%rsi        # 13ad1 <g_2031+0xa29>
    f05b:	48 89 c7             	mov    %rax,%rdi
    f05e:	e8 90 a6 ff ff       	callq  96f3 <transparent_crc>
    f063:	8b 05 4f 82 00 00    	mov    0x824f(%rip),%eax        # 172b8 <g_377+0x18>
    f069:	89 c1                	mov    %eax,%ecx
    f06b:	8b 45 fc             	mov    -0x4(%rbp),%eax
    f06e:	89 c2                	mov    %eax,%edx
    f070:	48 8d 35 63 4a 00 00 	lea    0x4a63(%rip),%rsi        # 13ada <g_2031+0xa32>
    f077:	48 89 cf             	mov    %rcx,%rdi
    f07a:	e8 74 a6 ff ff       	callq  96f3 <transparent_crc>
    f07f:	8b 05 37 82 00 00    	mov    0x8237(%rip),%eax        # 172bc <g_377+0x1c>
    f085:	48 98                	cltq   
    f087:	8b 55 fc             	mov    -0x4(%rbp),%edx
    f08a:	48 8d 35 52 4a 00 00 	lea    0x4a52(%rip),%rsi        # 13ae3 <g_2031+0xa3b>
    f091:	48 89 c7             	mov    %rax,%rdi
    f094:	e8 5a a6 ff ff       	callq  96f3 <transparent_crc>
    f099:	8b 05 21 82 00 00    	mov    0x8221(%rip),%eax        # 172c0 <g_377+0x20>
    f09f:	48 98                	cltq   
    f0a1:	8b 55 fc             	mov    -0x4(%rbp),%edx
    f0a4:	48 8d 35 41 4a 00 00 	lea    0x4a41(%rip),%rsi        # 13aec <g_2031+0xa44>
    f0ab:	48 89 c7             	mov    %rax,%rdi
    f0ae:	e8 40 a6 ff ff       	callq  96f3 <transparent_crc>
    f0b3:	0f b7 05 0a 82 00 00 	movzwl 0x820a(%rip),%eax        # 172c4 <g_377+0x24>
    f0ba:	c1 e0 07             	shl    $0x7,%eax
    f0bd:	66 c1 f8 07          	sar    $0x7,%ax
    f0c1:	48 0f bf c0          	movswq %ax,%rax
    f0c5:	8b 55 fc             	mov    -0x4(%rbp),%edx
    f0c8:	48 8d 35 26 4a 00 00 	lea    0x4a26(%rip),%rsi        # 13af5 <g_2031+0xa4d>
    f0cf:	48 89 c7             	mov    %rax,%rdi
    f0d2:	e8 1c a6 ff ff       	callq  96f3 <transparent_crc>
    f0d7:	0f b6 05 ea 81 00 00 	movzbl 0x81ea(%rip),%eax        # 172c8 <g_395>
    f0de:	48 0f be c0          	movsbq %al,%rax
    f0e2:	8b 55 fc             	mov    -0x4(%rbp),%edx
    f0e5:	48 8d 35 12 4a 00 00 	lea    0x4a12(%rip),%rsi        # 13afe <g_2031+0xa56>
    f0ec:	48 89 c7             	mov    %rax,%rdi
    f0ef:	e8 ff a5 ff ff       	callq  96f3 <transparent_crc>
    f0f4:	0f b6 05 ce 81 00 00 	movzbl 0x81ce(%rip),%eax        # 172c9 <g_399>
    f0fb:	48 0f be c0          	movsbq %al,%rax
    f0ff:	8b 55 fc             	mov    -0x4(%rbp),%edx
    f102:	48 8d 35 fb 49 00 00 	lea    0x49fb(%rip),%rsi        # 13b04 <g_2031+0xa5c>
    f109:	48 89 c7             	mov    %rax,%rdi
    f10c:	e8 e2 a5 ff ff       	callq  96f3 <transparent_crc>
    f111:	0f b6 05 b2 81 00 00 	movzbl 0x81b2(%rip),%eax        # 172ca <g_401>
    f118:	0f b6 c0             	movzbl %al,%eax
    f11b:	8b 55 fc             	mov    -0x4(%rbp),%edx
    f11e:	48 8d 35 e5 49 00 00 	lea    0x49e5(%rip),%rsi        # 13b0a <g_2031+0xa62>
    f125:	48 89 c7             	mov    %rax,%rdi
    f128:	e8 c6 a5 ff ff       	callq  96f3 <transparent_crc>
    f12d:	0f b6 05 2c 3f 00 00 	movzbl 0x3f2c(%rip),%eax        # 13060 <g_404>
    f134:	0f b6 c0             	movzbl %al,%eax
    f137:	0f b6 15 23 3f 00 00 	movzbl 0x3f23(%rip),%edx        # 13061 <g_404+0x1>
    f13e:	0f b6 d2             	movzbl %dl,%edx
    f141:	83 e2 1f             	and    $0x1f,%edx
    f144:	48 c1 e2 08          	shl    $0x8,%rdx
    f148:	48 09 d0             	or     %rdx,%rax
    f14b:	48 c1 e0 33          	shl    $0x33,%rax
    f14f:	48 c1 f8 33          	sar    $0x33,%rax
    f153:	48 0f bf c0          	movswq %ax,%rax
    f157:	8b 55 fc             	mov    -0x4(%rbp),%edx
    f15a:	48 8d 35 af 49 00 00 	lea    0x49af(%rip),%rsi        # 13b10 <g_2031+0xa68>
    f161:	48 89 c7             	mov    %rax,%rdi
    f164:	e8 8a a5 ff ff       	callq  96f3 <transparent_crc>
    f169:	0f b6 05 f1 3e 00 00 	movzbl 0x3ef1(%rip),%eax        # 13061 <g_404+0x1>
    f170:	c0 e8 05             	shr    $0x5,%al
    f173:	0f b6 c0             	movzbl %al,%eax
    f176:	0f b6 15 e5 3e 00 00 	movzbl 0x3ee5(%rip),%edx        # 13062 <g_404+0x2>
    f17d:	0f b6 d2             	movzbl %dl,%edx
    f180:	48 c1 e2 03          	shl    $0x3,%rdx
    f184:	48 09 c2             	or     %rax,%rdx
    f187:	0f b6 05 d5 3e 00 00 	movzbl 0x3ed5(%rip),%eax        # 13063 <g_404+0x3>
    f18e:	0f b6 c0             	movzbl %al,%eax
    f191:	83 e0 07             	and    $0x7,%eax
    f194:	48 c1 e0 0b          	shl    $0xb,%rax
    f198:	48 09 d0             	or     %rdx,%rax
    f19b:	48 c1 e0 32          	shl    $0x32,%rax
    f19f:	48 c1 f8 32          	sar    $0x32,%rax
    f1a3:	48 0f bf c0          	movswq %ax,%rax
    f1a7:	8b 55 fc             	mov    -0x4(%rbp),%edx
    f1aa:	48 8d 35 68 49 00 00 	lea    0x4968(%rip),%rsi        # 13b19 <g_2031+0xa71>
    f1b1:	48 89 c7             	mov    %rax,%rdi
    f1b4:	e8 3a a5 ff ff       	callq  96f3 <transparent_crc>
    f1b9:	b8 79 01 00 00       	mov    $0x179,%eax
    f1be:	89 c1                	mov    %eax,%ecx
    f1c0:	8b 45 fc             	mov    -0x4(%rbp),%eax
    f1c3:	89 c2                	mov    %eax,%edx
    f1c5:	48 8d 35 56 49 00 00 	lea    0x4956(%rip),%rsi        # 13b22 <g_2031+0xa7a>
    f1cc:	48 89 cf             	mov    %rcx,%rdi
    f1cf:	e8 1f a5 ff ff       	callq  96f3 <transparent_crc>
    f1d4:	b8 03 00 00 00       	mov    $0x3,%eax
    f1d9:	48 0f be c0          	movsbq %al,%rax
    f1dd:	8b 55 fc             	mov    -0x4(%rbp),%edx
    f1e0:	48 8d 35 44 49 00 00 	lea    0x4944(%rip),%rsi        # 13b2b <g_2031+0xa83>
    f1e7:	48 89 c7             	mov    %rax,%rdi
    f1ea:	e8 04 a5 ff ff       	callq  96f3 <transparent_crc>
    f1ef:	48 8b 05 da 80 00 00 	mov    0x80da(%rip),%rax        # 172d0 <g_422>
    f1f6:	48 89 c1             	mov    %rax,%rcx
    f1f9:	8b 45 fc             	mov    -0x4(%rbp),%eax
    f1fc:	89 c2                	mov    %eax,%edx
    f1fe:	48 8d 35 2f 49 00 00 	lea    0x492f(%rip),%rsi        # 13b34 <g_2031+0xa8c>
    f205:	48 89 cf             	mov    %rcx,%rdi
    f208:	e8 e6 a4 ff ff       	callq  96f3 <transparent_crc>
    f20d:	48 8b 05 c4 80 00 00 	mov    0x80c4(%rip),%rax        # 172d8 <g_439>
    f214:	48 89 c1             	mov    %rax,%rcx
    f217:	8b 45 fc             	mov    -0x4(%rbp),%eax
    f21a:	89 c2                	mov    %eax,%edx
    f21c:	48 8d 35 17 49 00 00 	lea    0x4917(%rip),%rsi        # 13b3a <g_2031+0xa92>
    f223:	48 89 cf             	mov    %rcx,%rdi
    f226:	e8 c8 a4 ff ff       	callq  96f3 <transparent_crc>
    f22b:	0f b6 05 ae 80 00 00 	movzbl 0x80ae(%rip),%eax        # 172e0 <g_464>
    f232:	0f b6 c0             	movzbl %al,%eax
    f235:	0f b6 15 a5 80 00 00 	movzbl 0x80a5(%rip),%edx        # 172e1 <g_464+0x1>
    f23c:	0f b6 d2             	movzbl %dl,%edx
    f23f:	83 e2 1f             	and    $0x1f,%edx
    f242:	48 c1 e2 08          	shl    $0x8,%rdx
    f246:	48 09 d0             	or     %rdx,%rax
    f249:	48 c1 e0 33          	shl    $0x33,%rax
    f24d:	48 c1 f8 33          	sar    $0x33,%rax
    f251:	48 0f bf c0          	movswq %ax,%rax
    f255:	8b 55 fc             	mov    -0x4(%rbp),%edx
    f258:	48 8d 35 e1 48 00 00 	lea    0x48e1(%rip),%rsi        # 13b40 <g_2031+0xa98>
    f25f:	48 89 c7             	mov    %rax,%rdi
    f262:	e8 8c a4 ff ff       	callq  96f3 <transparent_crc>
    f267:	0f b6 05 73 80 00 00 	movzbl 0x8073(%rip),%eax        # 172e1 <g_464+0x1>
    f26e:	c0 e8 05             	shr    $0x5,%al
    f271:	0f b6 c0             	movzbl %al,%eax
    f274:	0f b6 15 67 80 00 00 	movzbl 0x8067(%rip),%edx        # 172e2 <g_464+0x2>
    f27b:	0f b6 d2             	movzbl %dl,%edx
    f27e:	48 c1 e2 03          	shl    $0x3,%rdx
    f282:	48 09 c2             	or     %rax,%rdx
    f285:	0f b6 05 57 80 00 00 	movzbl 0x8057(%rip),%eax        # 172e3 <g_464+0x3>
    f28c:	0f b6 c0             	movzbl %al,%eax
    f28f:	83 e0 07             	and    $0x7,%eax
    f292:	48 c1 e0 0b          	shl    $0xb,%rax
    f296:	48 09 d0             	or     %rdx,%rax
    f299:	48 c1 e0 32          	shl    $0x32,%rax
    f29d:	48 c1 f8 32          	sar    $0x32,%rax
    f2a1:	48 0f bf c0          	movswq %ax,%rax
    f2a5:	8b 55 fc             	mov    -0x4(%rbp),%edx
    f2a8:	48 8d 35 9a 48 00 00 	lea    0x489a(%rip),%rsi        # 13b49 <g_2031+0xaa1>
    f2af:	48 89 c7             	mov    %rax,%rdi
    f2b2:	e8 3c a4 ff ff       	callq  96f3 <transparent_crc>
    f2b7:	0f b6 05 25 80 00 00 	movzbl 0x8025(%rip),%eax        # 172e3 <g_464+0x3>
    f2be:	c0 e8 03             	shr    $0x3,%al
    f2c1:	0f b6 c0             	movzbl %al,%eax
    f2c4:	0f b6 15 19 80 00 00 	movzbl 0x8019(%rip),%edx        # 172e4 <g_464+0x4>
    f2cb:	48 c1 e2 05          	shl    $0x5,%rdx
    f2cf:	48 09 c2             	or     %rax,%rdx
    f2d2:	0f b6 05 0c 80 00 00 	movzbl 0x800c(%rip),%eax        # 172e5 <g_464+0x5>
    f2d9:	48 c1 e0 0d          	shl    $0xd,%rax
    f2dd:	48 09 c2             	or     %rax,%rdx
    f2e0:	0f b6 05 ff 7f 00 00 	movzbl 0x7fff(%rip),%eax        # 172e6 <g_464+0x6>
    f2e7:	83 e0 07             	and    $0x7,%eax
    f2ea:	48 c1 e0 15          	shl    $0x15,%rax
    f2ee:	48 09 d0             	or     %rdx,%rax
    f2f1:	89 c1                	mov    %eax,%ecx
    f2f3:	8b 45 fc             	mov    -0x4(%rbp),%eax
    f2f6:	89 c2                	mov    %eax,%edx
    f2f8:	48 8d 35 53 48 00 00 	lea    0x4853(%rip),%rsi        # 13b52 <g_2031+0xaaa>
    f2ff:	48 89 cf             	mov    %rcx,%rdi
    f302:	e8 ec a3 ff ff       	callq  96f3 <transparent_crc>
    f307:	0f b6 05 d8 7f 00 00 	movzbl 0x7fd8(%rip),%eax        # 172e6 <g_464+0x6>
    f30e:	01 c0                	add    %eax,%eax
    f310:	c0 f8 04             	sar    $0x4,%al
    f313:	48 0f be c0          	movsbq %al,%rax
    f317:	8b 55 fc             	mov    -0x4(%rbp),%edx
    f31a:	48 8d 35 3a 48 00 00 	lea    0x483a(%rip),%rsi        # 13b5b <g_2031+0xab3>
    f321:	48 89 c7             	mov    %rax,%rdi
    f324:	e8 ca a3 ff ff       	callq  96f3 <transparent_crc>
    f329:	8b 05 e1 c7 00 00    	mov    0xc7e1(%rip),%eax        # 1bb10 <g_523>
    f32f:	89 c1                	mov    %eax,%ecx
    f331:	8b 45 fc             	mov    -0x4(%rbp),%eax
    f334:	89 c2                	mov    %eax,%edx
    f336:	48 8d 35 27 48 00 00 	lea    0x4827(%rip),%rsi        # 13b64 <g_2031+0xabc>
    f33d:	48 89 cf             	mov    %rcx,%rdi
    f340:	e8 ae a3 ff ff       	callq  96f3 <transparent_crc>
    f345:	8b 05 c5 c7 00 00    	mov    0xc7c5(%rip),%eax        # 1bb10 <g_523>
    f34b:	48 98                	cltq   
    f34d:	8b 55 fc             	mov    -0x4(%rbp),%edx
    f350:	48 8d 35 16 48 00 00 	lea    0x4816(%rip),%rsi        # 13b6d <g_2031+0xac5>
    f357:	48 89 c7             	mov    %rax,%rdi
    f35a:	e8 94 a3 ff ff       	callq  96f3 <transparent_crc>
    f35f:	c7 45 f0 00 00 00 00 	movl   $0x0,-0x10(%rbp)
    f366:	e9 b4 02 00 00       	jmpq   f61f <main+0x1003>
    f36b:	c7 45 f4 00 00 00 00 	movl   $0x0,-0xc(%rbp)
    f372:	e9 9a 02 00 00       	jmpq   f611 <main+0xff5>
    f377:	8b 45 f4             	mov    -0xc(%rbp),%eax
    f37a:	48 63 d0             	movslq %eax,%rdx
    f37d:	8b 45 f0             	mov    -0x10(%rbp),%eax
    f380:	48 63 c8             	movslq %eax,%rcx
    f383:	48 89 d0             	mov    %rdx,%rax
    f386:	48 c1 e0 02          	shl    $0x2,%rax
    f38a:	48 01 d0             	add    %rdx,%rax
    f38d:	48 c1 e0 03          	shl    $0x3,%rax
    f391:	48 69 d1 68 01 00 00 	imul   $0x168,%rcx,%rdx
    f398:	48 01 c2             	add    %rax,%rdx
    f39b:	48 8d 05 5e 7f 00 00 	lea    0x7f5e(%rip),%rax        # 17300 <g_526>
    f3a2:	48 01 d0             	add    %rdx,%rax
    f3a5:	8b 00                	mov    (%rax),%eax
    f3a7:	89 c1                	mov    %eax,%ecx
    f3a9:	8b 45 fc             	mov    -0x4(%rbp),%eax
    f3ac:	89 c2                	mov    %eax,%edx
    f3ae:	48 8d 35 c1 47 00 00 	lea    0x47c1(%rip),%rsi        # 13b76 <g_2031+0xace>
    f3b5:	48 89 cf             	mov    %rcx,%rdi
    f3b8:	e8 36 a3 ff ff       	callq  96f3 <transparent_crc>
    f3bd:	8b 45 f4             	mov    -0xc(%rbp),%eax
    f3c0:	48 63 d0             	movslq %eax,%rdx
    f3c3:	8b 45 f0             	mov    -0x10(%rbp),%eax
    f3c6:	48 63 c8             	movslq %eax,%rcx
    f3c9:	48 89 d0             	mov    %rdx,%rax
    f3cc:	48 c1 e0 02          	shl    $0x2,%rax
    f3d0:	48 01 d0             	add    %rdx,%rax
    f3d3:	48 c1 e0 03          	shl    $0x3,%rax
    f3d7:	48 69 d1 68 01 00 00 	imul   $0x168,%rcx,%rdx
    f3de:	48 01 c2             	add    %rax,%rdx
    f3e1:	48 8d 05 1c 7f 00 00 	lea    0x7f1c(%rip),%rax        # 17304 <g_526+0x4>
    f3e8:	48 01 d0             	add    %rdx,%rax
    f3eb:	8b 00                	mov    (%rax),%eax
    f3ed:	89 c1                	mov    %eax,%ecx
    f3ef:	8b 45 fc             	mov    -0x4(%rbp),%eax
    f3f2:	89 c2                	mov    %eax,%edx
    f3f4:	48 8d 35 8a 47 00 00 	lea    0x478a(%rip),%rsi        # 13b85 <g_2031+0xadd>
    f3fb:	48 89 cf             	mov    %rcx,%rdi
    f3fe:	e8 f0 a2 ff ff       	callq  96f3 <transparent_crc>
    f403:	8b 45 f4             	mov    -0xc(%rbp),%eax
    f406:	48 63 d0             	movslq %eax,%rdx
    f409:	8b 45 f0             	mov    -0x10(%rbp),%eax
    f40c:	48 63 c8             	movslq %eax,%rcx
    f40f:	48 89 d0             	mov    %rdx,%rax
    f412:	48 c1 e0 02          	shl    $0x2,%rax
    f416:	48 01 d0             	add    %rdx,%rax
    f419:	48 c1 e0 03          	shl    $0x3,%rax
    f41d:	48 69 d1 68 01 00 00 	imul   $0x168,%rcx,%rdx
    f424:	48 01 c2             	add    %rax,%rdx
    f427:	48 8d 05 da 7e 00 00 	lea    0x7eda(%rip),%rax        # 17308 <g_526+0x8>
    f42e:	48 01 d0             	add    %rdx,%rax
    f431:	48 8b 00             	mov    (%rax),%rax
    f434:	8b 55 fc             	mov    -0x4(%rbp),%edx
    f437:	48 8d 35 56 47 00 00 	lea    0x4756(%rip),%rsi        # 13b94 <g_2031+0xaec>
    f43e:	48 89 c7             	mov    %rax,%rdi
    f441:	e8 ad a2 ff ff       	callq  96f3 <transparent_crc>
    f446:	8b 45 f4             	mov    -0xc(%rbp),%eax
    f449:	48 63 d0             	movslq %eax,%rdx
    f44c:	8b 45 f0             	mov    -0x10(%rbp),%eax
    f44f:	48 63 c8             	movslq %eax,%rcx
    f452:	48 89 d0             	mov    %rdx,%rax
    f455:	48 c1 e0 02          	shl    $0x2,%rax
    f459:	48 01 d0             	add    %rdx,%rax
    f45c:	48 c1 e0 03          	shl    $0x3,%rax
    f460:	48 69 d1 68 01 00 00 	imul   $0x168,%rcx,%rdx
    f467:	48 01 c2             	add    %rax,%rdx
    f46a:	48 8d 05 9f 7e 00 00 	lea    0x7e9f(%rip),%rax        # 17310 <g_526+0x10>
    f471:	48 01 d0             	add    %rdx,%rax
    f474:	0f b7 00             	movzwl (%rax),%eax
    f477:	48 0f bf c0          	movswq %ax,%rax
    f47b:	8b 55 fc             	mov    -0x4(%rbp),%edx
    f47e:	48 8d 35 1e 47 00 00 	lea    0x471e(%rip),%rsi        # 13ba3 <g_2031+0xafb>
    f485:	48 89 c7             	mov    %rax,%rdi
    f488:	e8 66 a2 ff ff       	callq  96f3 <transparent_crc>
    f48d:	8b 45 f4             	mov    -0xc(%rbp),%eax
    f490:	48 63 d0             	movslq %eax,%rdx
    f493:	8b 45 f0             	mov    -0x10(%rbp),%eax
    f496:	48 63 c8             	movslq %eax,%rcx
    f499:	48 89 d0             	mov    %rdx,%rax
    f49c:	48 c1 e0 02          	shl    $0x2,%rax
    f4a0:	48 01 d0             	add    %rdx,%rax
    f4a3:	48 c1 e0 03          	shl    $0x3,%rax
    f4a7:	48 69 d1 68 01 00 00 	imul   $0x168,%rcx,%rdx
    f4ae:	48 01 c2             	add    %rax,%rdx
    f4b1:	48 8d 05 5c 7e 00 00 	lea    0x7e5c(%rip),%rax        # 17314 <g_526+0x14>
    f4b8:	48 01 d0             	add    %rdx,%rax
    f4bb:	8b 00                	mov    (%rax),%eax
    f4bd:	48 98                	cltq   
    f4bf:	8b 55 fc             	mov    -0x4(%rbp),%edx
    f4c2:	48 8d 35 e9 46 00 00 	lea    0x46e9(%rip),%rsi        # 13bb2 <g_2031+0xb0a>
    f4c9:	48 89 c7             	mov    %rax,%rdi
    f4cc:	e8 22 a2 ff ff       	callq  96f3 <transparent_crc>
    f4d1:	8b 45 f4             	mov    -0xc(%rbp),%eax
    f4d4:	48 63 d0             	movslq %eax,%rdx
    f4d7:	8b 45 f0             	mov    -0x10(%rbp),%eax
    f4da:	48 63 c8             	movslq %eax,%rcx
    f4dd:	48 89 d0             	mov    %rdx,%rax
    f4e0:	48 c1 e0 02          	shl    $0x2,%rax
    f4e4:	48 01 d0             	add    %rdx,%rax
    f4e7:	48 c1 e0 03          	shl    $0x3,%rax
    f4eb:	48 69 d1 68 01 00 00 	imul   $0x168,%rcx,%rdx
    f4f2:	48 01 c2             	add    %rax,%rdx
    f4f5:	48 8d 05 1c 7e 00 00 	lea    0x7e1c(%rip),%rax        # 17318 <g_526+0x18>
    f4fc:	48 01 d0             	add    %rdx,%rax
    f4ff:	8b 00                	mov    (%rax),%eax
    f501:	89 c1                	mov    %eax,%ecx
    f503:	8b 45 fc             	mov    -0x4(%rbp),%eax
    f506:	89 c2                	mov    %eax,%edx
    f508:	48 8d 35 b2 46 00 00 	lea    0x46b2(%rip),%rsi        # 13bc1 <g_2031+0xb19>
    f50f:	48 89 cf             	mov    %rcx,%rdi
    f512:	e8 dc a1 ff ff       	callq  96f3 <transparent_crc>
    f517:	8b 45 f4             	mov    -0xc(%rbp),%eax
    f51a:	48 63 d0             	movslq %eax,%rdx
    f51d:	8b 45 f0             	mov    -0x10(%rbp),%eax
    f520:	48 63 c8             	movslq %eax,%rcx
    f523:	48 89 d0             	mov    %rdx,%rax
    f526:	48 c1 e0 02          	shl    $0x2,%rax
    f52a:	48 01 d0             	add    %rdx,%rax
    f52d:	48 c1 e0 03          	shl    $0x3,%rax
    f531:	48 69 d1 68 01 00 00 	imul   $0x168,%rcx,%rdx
    f538:	48 01 c2             	add    %rax,%rdx
    f53b:	48 8d 05 da 7d 00 00 	lea    0x7dda(%rip),%rax        # 1731c <g_526+0x1c>
    f542:	48 01 d0             	add    %rdx,%rax
    f545:	8b 00                	mov    (%rax),%eax
    f547:	48 98                	cltq   
    f549:	8b 55 fc             	mov    -0x4(%rbp),%edx
    f54c:	48 8d 35 7d 46 00 00 	lea    0x467d(%rip),%rsi        # 13bd0 <g_2031+0xb28>
    f553:	48 89 c7             	mov    %rax,%rdi
    f556:	e8 98 a1 ff ff       	callq  96f3 <transparent_crc>
    f55b:	8b 45 f4             	mov    -0xc(%rbp),%eax
    f55e:	48 63 d0             	movslq %eax,%rdx
    f561:	8b 45 f0             	mov    -0x10(%rbp),%eax
    f564:	48 63 c8             	movslq %eax,%rcx
    f567:	48 89 d0             	mov    %rdx,%rax
    f56a:	48 c1 e0 02          	shl    $0x2,%rax
    f56e:	48 01 d0             	add    %rdx,%rax
    f571:	48 c1 e0 03          	shl    $0x3,%rax
    f575:	48 69 d1 68 01 00 00 	imul   $0x168,%rcx,%rdx
    f57c:	48 01 c2             	add    %rax,%rdx
    f57f:	48 8d 05 9a 7d 00 00 	lea    0x7d9a(%rip),%rax        # 17320 <g_526+0x20>
    f586:	48 01 d0             	add    %rdx,%rax
    f589:	8b 00                	mov    (%rax),%eax
    f58b:	48 98                	cltq   
    f58d:	8b 55 fc             	mov    -0x4(%rbp),%edx
    f590:	48 8d 35 48 46 00 00 	lea    0x4648(%rip),%rsi        # 13bdf <g_2031+0xb37>
    f597:	48 89 c7             	mov    %rax,%rdi
    f59a:	e8 54 a1 ff ff       	callq  96f3 <transparent_crc>
    f59f:	8b 45 f4             	mov    -0xc(%rbp),%eax
    f5a2:	48 63 d0             	movslq %eax,%rdx
    f5a5:	8b 45 f0             	mov    -0x10(%rbp),%eax
    f5a8:	48 63 c8             	movslq %eax,%rcx
    f5ab:	48 89 d0             	mov    %rdx,%rax
    f5ae:	48 c1 e0 02          	shl    $0x2,%rax
    f5b2:	48 01 d0             	add    %rdx,%rax
    f5b5:	48 c1 e0 03          	shl    $0x3,%rax
    f5b9:	48 69 d1 68 01 00 00 	imul   $0x168,%rcx,%rdx
    f5c0:	48 01 c2             	add    %rax,%rdx
    f5c3:	48 8d 05 56 7d 00 00 	lea    0x7d56(%rip),%rax        # 17320 <g_526+0x20>
    f5ca:	48 01 d0             	add    %rdx,%rax
    f5cd:	0f b7 40 04          	movzwl 0x4(%rax),%eax
    f5d1:	c1 e0 07             	shl    $0x7,%eax
    f5d4:	66 c1 f8 07          	sar    $0x7,%ax
    f5d8:	48 0f bf c0          	movswq %ax,%rax
    f5dc:	8b 55 fc             	mov    -0x4(%rbp),%edx
    f5df:	48 8d 35 08 46 00 00 	lea    0x4608(%rip),%rsi        # 13bee <g_2031+0xb46>
    f5e6:	48 89 c7             	mov    %rax,%rdi
    f5e9:	e8 05 a1 ff ff       	callq  96f3 <transparent_crc>
    f5ee:	83 7d fc 00          	cmpl   $0x0,-0x4(%rbp)
    f5f2:	74 19                	je     f60d <main+0xff1>
    f5f4:	8b 55 f4             	mov    -0xc(%rbp),%edx
    f5f7:	8b 45 f0             	mov    -0x10(%rbp),%eax
    f5fa:	89 c6                	mov    %eax,%esi
    f5fc:	48 8d 3d fa 45 00 00 	lea    0x45fa(%rip),%rdi        # 13bfd <g_2031+0xb55>
    f603:	b8 00 00 00 00       	mov    $0x0,%eax
    f608:	e8 73 8a ff ff       	callq  8080 <printf@plt>
    f60d:	83 45 f4 01          	addl   $0x1,-0xc(%rbp)
    f611:	83 7d f4 08          	cmpl   $0x8,-0xc(%rbp)
    f615:	0f 8e 5c fd ff ff    	jle    f377 <main+0xd5b>
    f61b:	83 45 f0 01          	addl   $0x1,-0x10(%rbp)
    f61f:	83 7d f0 05          	cmpl   $0x5,-0x10(%rbp)
    f623:	0f 8e 42 fd ff ff    	jle    f36b <main+0xd4f>
    f629:	0f b6 05 40 85 00 00 	movzbl 0x8540(%rip),%eax        # 17b70 <g_529>
    f630:	48 0f be c0          	movsbq %al,%rax
    f634:	8b 55 fc             	mov    -0x4(%rbp),%edx
    f637:	48 8d 35 d1 45 00 00 	lea    0x45d1(%rip),%rsi        # 13c0f <g_2031+0xb67>
    f63e:	48 89 c7             	mov    %rax,%rdi
    f641:	e8 ad a0 ff ff       	callq  96f3 <transparent_crc>
    f646:	c7 45 f0 00 00 00 00 	movl   $0x0,-0x10(%rbp)
    f64d:	e9 7c 01 00 00       	jmpq   f7ce <main+0x11b2>
    f652:	8b 45 f0             	mov    -0x10(%rbp),%eax
    f655:	48 63 d0             	movslq %eax,%rdx
    f658:	48 89 d0             	mov    %rdx,%rax
    f65b:	48 c1 e0 03          	shl    $0x3,%rax
    f65f:	48 29 d0             	sub    %rdx,%rax
    f662:	48 89 c2             	mov    %rax,%rdx
    f665:	48 8d 05 14 85 00 00 	lea    0x8514(%rip),%rax        # 17b80 <g_537>
    f66c:	0f b6 0c 02          	movzbl (%rdx,%rax,1),%ecx
    f670:	0f b6 c9             	movzbl %cl,%ecx
    f673:	0f b6 44 02 01       	movzbl 0x1(%rdx,%rax,1),%eax
    f678:	0f b6 c0             	movzbl %al,%eax
    f67b:	83 e0 1f             	and    $0x1f,%eax
    f67e:	48 c1 e0 08          	shl    $0x8,%rax
    f682:	48 09 c8             	or     %rcx,%rax
    f685:	48 c1 e0 33          	shl    $0x33,%rax
    f689:	48 c1 f8 33          	sar    $0x33,%rax
    f68d:	48 0f bf c0          	movswq %ax,%rax
    f691:	8b 55 fc             	mov    -0x4(%rbp),%edx
    f694:	48 8d 35 7a 45 00 00 	lea    0x457a(%rip),%rsi        # 13c15 <g_2031+0xb6d>
    f69b:	48 89 c7             	mov    %rax,%rdi
    f69e:	e8 50 a0 ff ff       	callq  96f3 <transparent_crc>
    f6a3:	8b 45 f0             	mov    -0x10(%rbp),%eax
    f6a6:	48 63 d0             	movslq %eax,%rdx
    f6a9:	48 89 d0             	mov    %rdx,%rax
    f6ac:	48 c1 e0 03          	shl    $0x3,%rax
    f6b0:	48 29 d0             	sub    %rdx,%rax
    f6b3:	48 89 c2             	mov    %rax,%rdx
    f6b6:	48 8d 05 c3 84 00 00 	lea    0x84c3(%rip),%rax        # 17b80 <g_537>
    f6bd:	0f b6 4c 02 01       	movzbl 0x1(%rdx,%rax,1),%ecx
    f6c2:	c0 e9 05             	shr    $0x5,%cl
    f6c5:	0f b6 c9             	movzbl %cl,%ecx
    f6c8:	0f b6 74 02 02       	movzbl 0x2(%rdx,%rax,1),%esi
    f6cd:	40 0f b6 f6          	movzbl %sil,%esi
    f6d1:	48 c1 e6 03          	shl    $0x3,%rsi
    f6d5:	48 09 f1             	or     %rsi,%rcx
    f6d8:	0f b6 44 02 03       	movzbl 0x3(%rdx,%rax,1),%eax
    f6dd:	0f b6 c0             	movzbl %al,%eax
    f6e0:	83 e0 07             	and    $0x7,%eax
    f6e3:	48 c1 e0 0b          	shl    $0xb,%rax
    f6e7:	48 09 c8             	or     %rcx,%rax
    f6ea:	48 c1 e0 32          	shl    $0x32,%rax
    f6ee:	48 c1 f8 32          	sar    $0x32,%rax
    f6f2:	48 0f bf c0          	movswq %ax,%rax
    f6f6:	8b 55 fc             	mov    -0x4(%rbp),%edx
    f6f9:	48 8d 35 21 45 00 00 	lea    0x4521(%rip),%rsi        # 13c21 <g_2031+0xb79>
    f700:	48 89 c7             	mov    %rax,%rdi
    f703:	e8 eb 9f ff ff       	callq  96f3 <transparent_crc>
    f708:	8b 45 f0             	mov    -0x10(%rbp),%eax
    f70b:	48 63 d0             	movslq %eax,%rdx
    f70e:	48 89 d0             	mov    %rdx,%rax
    f711:	48 c1 e0 03          	shl    $0x3,%rax
    f715:	48 29 d0             	sub    %rdx,%rax
    f718:	48 89 c2             	mov    %rax,%rdx
    f71b:	48 8d 05 5e 84 00 00 	lea    0x845e(%rip),%rax        # 17b80 <g_537>
    f722:	0f b6 4c 02 03       	movzbl 0x3(%rdx,%rax,1),%ecx
    f727:	c0 e9 03             	shr    $0x3,%cl
    f72a:	0f b6 c9             	movzbl %cl,%ecx
    f72d:	0f b6 74 02 04       	movzbl 0x4(%rdx,%rax,1),%esi
    f732:	40 0f b6 f6          	movzbl %sil,%esi
    f736:	48 c1 e6 05          	shl    $0x5,%rsi
    f73a:	48 09 ce             	or     %rcx,%rsi
    f73d:	0f b6 4c 02 05       	movzbl 0x5(%rdx,%rax,1),%ecx
    f742:	0f b6 c9             	movzbl %cl,%ecx
    f745:	48 c1 e1 0d          	shl    $0xd,%rcx
    f749:	48 09 f1             	or     %rsi,%rcx
    f74c:	0f b6 44 02 06       	movzbl 0x6(%rdx,%rax,1),%eax
    f751:	0f b6 c0             	movzbl %al,%eax
    f754:	83 e0 07             	and    $0x7,%eax
    f757:	48 c1 e0 15          	shl    $0x15,%rax
    f75b:	48 09 c8             	or     %rcx,%rax
    f75e:	89 c1                	mov    %eax,%ecx
    f760:	8b 45 fc             	mov    -0x4(%rbp),%eax
    f763:	89 c2                	mov    %eax,%edx
    f765:	48 8d 35 c1 44 00 00 	lea    0x44c1(%rip),%rsi        # 13c2d <g_2031+0xb85>
    f76c:	48 89 cf             	mov    %rcx,%rdi
    f76f:	e8 7f 9f ff ff       	callq  96f3 <transparent_crc>
    f774:	8b 45 f0             	mov    -0x10(%rbp),%eax
    f777:	48 63 d0             	movslq %eax,%rdx
    f77a:	48 89 d0             	mov    %rdx,%rax
    f77d:	48 c1 e0 03          	shl    $0x3,%rax
    f781:	48 29 d0             	sub    %rdx,%rax
    f784:	48 89 c2             	mov    %rax,%rdx
    f787:	48 8d 05 f2 83 00 00 	lea    0x83f2(%rip),%rax        # 17b80 <g_537>
    f78e:	0f b6 44 02 06       	movzbl 0x6(%rdx,%rax,1),%eax
    f793:	01 c0                	add    %eax,%eax
    f795:	c0 f8 04             	sar    $0x4,%al
    f798:	48 0f be c0          	movsbq %al,%rax
    f79c:	8b 55 fc             	mov    -0x4(%rbp),%edx
    f79f:	48 8d 35 93 44 00 00 	lea    0x4493(%rip),%rsi        # 13c39 <g_2031+0xb91>
    f7a6:	48 89 c7             	mov    %rax,%rdi
    f7a9:	e8 45 9f ff ff       	callq  96f3 <transparent_crc>
    f7ae:	83 7d fc 00          	cmpl   $0x0,-0x4(%rbp)
    f7b2:	74 16                	je     f7ca <main+0x11ae>
    f7b4:	8b 45 f0             	mov    -0x10(%rbp),%eax
    f7b7:	89 c6                	mov    %eax,%esi
    f7b9:	48 8d 3d 85 44 00 00 	lea    0x4485(%rip),%rdi        # 13c45 <g_2031+0xb9d>
    f7c0:	b8 00 00 00 00       	mov    $0x0,%eax
    f7c5:	e8 b6 88 ff ff       	callq  8080 <printf@plt>
    f7ca:	83 45 f0 01          	addl   $0x1,-0x10(%rbp)
    f7ce:	83 7d f0 06          	cmpl   $0x6,-0x10(%rbp)
    f7d2:	0f 8e 7a fe ff ff    	jle    f652 <main+0x1036>
    f7d8:	0f b6 05 d2 83 00 00 	movzbl 0x83d2(%rip),%eax        # 17bb1 <g_583>
    f7df:	0f b6 c0             	movzbl %al,%eax
    f7e2:	0f b6 15 c9 83 00 00 	movzbl 0x83c9(%rip),%edx        # 17bb2 <g_583+0x1>
    f7e9:	0f b6 d2             	movzbl %dl,%edx
    f7ec:	83 e2 1f             	and    $0x1f,%edx
    f7ef:	48 c1 e2 08          	shl    $0x8,%rdx
    f7f3:	48 09 d0             	or     %rdx,%rax
    f7f6:	48 c1 e0 33          	shl    $0x33,%rax
    f7fa:	48 c1 f8 33          	sar    $0x33,%rax
    f7fe:	48 0f bf c0          	movswq %ax,%rax
    f802:	8b 55 fc             	mov    -0x4(%rbp),%edx
    f805:	48 8d 35 47 44 00 00 	lea    0x4447(%rip),%rsi        # 13c53 <g_2031+0xbab>
    f80c:	48 89 c7             	mov    %rax,%rdi
    f80f:	e8 df 9e ff ff       	callq  96f3 <transparent_crc>
    f814:	0f b6 05 97 83 00 00 	movzbl 0x8397(%rip),%eax        # 17bb2 <g_583+0x1>
    f81b:	c0 e8 05             	shr    $0x5,%al
    f81e:	0f b6 c0             	movzbl %al,%eax
    f821:	0f b6 15 8b 83 00 00 	movzbl 0x838b(%rip),%edx        # 17bb3 <g_583+0x2>
    f828:	0f b6 d2             	movzbl %dl,%edx
    f82b:	48 c1 e2 03          	shl    $0x3,%rdx
    f82f:	48 09 c2             	or     %rax,%rdx
    f832:	0f b6 05 7b 83 00 00 	movzbl 0x837b(%rip),%eax        # 17bb4 <g_583+0x3>
    f839:	0f b6 c0             	movzbl %al,%eax
    f83c:	83 e0 07             	and    $0x7,%eax
    f83f:	48 c1 e0 0b          	shl    $0xb,%rax
    f843:	48 09 d0             	or     %rdx,%rax
    f846:	48 c1 e0 32          	shl    $0x32,%rax
    f84a:	48 c1 f8 32          	sar    $0x32,%rax
    f84e:	48 0f bf c0          	movswq %ax,%rax
    f852:	8b 55 fc             	mov    -0x4(%rbp),%edx
    f855:	48 8d 35 00 44 00 00 	lea    0x4400(%rip),%rsi        # 13c5c <g_2031+0xbb4>
    f85c:	48 89 c7             	mov    %rax,%rdi
    f85f:	e8 8f 9e ff ff       	callq  96f3 <transparent_crc>
    f864:	0f b6 05 49 83 00 00 	movzbl 0x8349(%rip),%eax        # 17bb4 <g_583+0x3>
    f86b:	c0 e8 03             	shr    $0x3,%al
    f86e:	0f b6 c0             	movzbl %al,%eax
    f871:	0f b6 15 3d 83 00 00 	movzbl 0x833d(%rip),%edx        # 17bb5 <g_583+0x4>
    f878:	0f b6 d2             	movzbl %dl,%edx
    f87b:	48 c1 e2 05          	shl    $0x5,%rdx
    f87f:	48 09 c2             	or     %rax,%rdx
    f882:	0f b6 05 2d 83 00 00 	movzbl 0x832d(%rip),%eax        # 17bb6 <g_583+0x5>
    f889:	0f b6 c0             	movzbl %al,%eax
    f88c:	48 c1 e0 0d          	shl    $0xd,%rax
    f890:	48 09 c2             	or     %rax,%rdx
    f893:	0f b6 05 1d 83 00 00 	movzbl 0x831d(%rip),%eax        # 17bb7 <g_583+0x6>
    f89a:	0f b6 c0             	movzbl %al,%eax
    f89d:	83 e0 07             	and    $0x7,%eax
    f8a0:	48 c1 e0 15          	shl    $0x15,%rax
    f8a4:	48 09 d0             	or     %rdx,%rax
    f8a7:	89 c1                	mov    %eax,%ecx
    f8a9:	8b 45 fc             	mov    -0x4(%rbp),%eax
    f8ac:	89 c2                	mov    %eax,%edx
    f8ae:	48 8d 35 b0 43 00 00 	lea    0x43b0(%rip),%rsi        # 13c65 <g_2031+0xbbd>
    f8b5:	48 89 cf             	mov    %rcx,%rdi
    f8b8:	e8 36 9e ff ff       	callq  96f3 <transparent_crc>
    f8bd:	0f b6 05 f3 82 00 00 	movzbl 0x82f3(%rip),%eax        # 17bb7 <g_583+0x6>
    f8c4:	01 c0                	add    %eax,%eax
    f8c6:	c0 f8 04             	sar    $0x4,%al
    f8c9:	48 0f be c0          	movsbq %al,%rax
    f8cd:	8b 55 fc             	mov    -0x4(%rbp),%edx
    f8d0:	48 8d 35 97 43 00 00 	lea    0x4397(%rip),%rsi        # 13c6e <g_2031+0xbc6>
    f8d7:	48 89 c7             	mov    %rax,%rdi
    f8da:	e8 14 9e ff ff       	callq  96f3 <transparent_crc>
    f8df:	0f b6 05 d2 82 00 00 	movzbl 0x82d2(%rip),%eax        # 17bb8 <g_584>
    f8e6:	0f b6 c0             	movzbl %al,%eax
    f8e9:	0f b6 15 c9 82 00 00 	movzbl 0x82c9(%rip),%edx        # 17bb9 <g_584+0x1>
    f8f0:	0f b6 d2             	movzbl %dl,%edx
    f8f3:	83 e2 1f             	and    $0x1f,%edx
    f8f6:	48 c1 e2 08          	shl    $0x8,%rdx
    f8fa:	48 09 d0             	or     %rdx,%rax
    f8fd:	48 c1 e0 33          	shl    $0x33,%rax
    f901:	48 c1 f8 33          	sar    $0x33,%rax
    f905:	48 0f bf c0          	movswq %ax,%rax
    f909:	8b 55 fc             	mov    -0x4(%rbp),%edx
    f90c:	48 8d 35 64 43 00 00 	lea    0x4364(%rip),%rsi        # 13c77 <g_2031+0xbcf>
    f913:	48 89 c7             	mov    %rax,%rdi
    f916:	e8 d8 9d ff ff       	callq  96f3 <transparent_crc>
    f91b:	0f b6 05 97 82 00 00 	movzbl 0x8297(%rip),%eax        # 17bb9 <g_584+0x1>
    f922:	c0 e8 05             	shr    $0x5,%al
    f925:	0f b6 c0             	movzbl %al,%eax
    f928:	0f b6 15 8b 82 00 00 	movzbl 0x828b(%rip),%edx        # 17bba <g_584+0x2>
    f92f:	0f b6 d2             	movzbl %dl,%edx
    f932:	48 c1 e2 03          	shl    $0x3,%rdx
    f936:	48 09 c2             	or     %rax,%rdx
    f939:	0f b6 05 7b 82 00 00 	movzbl 0x827b(%rip),%eax        # 17bbb <g_584+0x3>
    f940:	0f b6 c0             	movzbl %al,%eax
    f943:	83 e0 07             	and    $0x7,%eax
    f946:	48 c1 e0 0b          	shl    $0xb,%rax
    f94a:	48 09 d0             	or     %rdx,%rax
    f94d:	48 c1 e0 32          	shl    $0x32,%rax
    f951:	48 c1 f8 32          	sar    $0x32,%rax
    f955:	48 0f bf c0          	movswq %ax,%rax
    f959:	8b 55 fc             	mov    -0x4(%rbp),%edx
    f95c:	48 8d 35 1d 43 00 00 	lea    0x431d(%rip),%rsi        # 13c80 <g_2031+0xbd8>
    f963:	48 89 c7             	mov    %rax,%rdi
    f966:	e8 88 9d ff ff       	callq  96f3 <transparent_crc>
    f96b:	0f b6 05 49 82 00 00 	movzbl 0x8249(%rip),%eax        # 17bbb <g_584+0x3>
    f972:	c0 e8 03             	shr    $0x3,%al
    f975:	0f b6 c0             	movzbl %al,%eax
    f978:	0f b6 15 3d 82 00 00 	movzbl 0x823d(%rip),%edx        # 17bbc <g_584+0x4>
    f97f:	0f b6 d2             	movzbl %dl,%edx
    f982:	48 c1 e2 05          	shl    $0x5,%rdx
    f986:	48 09 c2             	or     %rax,%rdx
    f989:	0f b6 05 2d 82 00 00 	movzbl 0x822d(%rip),%eax        # 17bbd <g_584+0x5>
    f990:	0f b6 c0             	movzbl %al,%eax
    f993:	48 c1 e0 0d          	shl    $0xd,%rax
    f997:	48 09 c2             	or     %rax,%rdx
    f99a:	0f b6 05 1d 82 00 00 	movzbl 0x821d(%rip),%eax        # 17bbe <g_584+0x6>
    f9a1:	0f b6 c0             	movzbl %al,%eax
    f9a4:	83 e0 07             	and    $0x7,%eax
    f9a7:	48 c1 e0 15          	shl    $0x15,%rax
    f9ab:	48 09 d0             	or     %rdx,%rax
    f9ae:	89 c1                	mov    %eax,%ecx
    f9b0:	8b 45 fc             	mov    -0x4(%rbp),%eax
    f9b3:	89 c2                	mov    %eax,%edx
    f9b5:	48 8d 35 cd 42 00 00 	lea    0x42cd(%rip),%rsi        # 13c89 <g_2031+0xbe1>
    f9bc:	48 89 cf             	mov    %rcx,%rdi
    f9bf:	e8 2f 9d ff ff       	callq  96f3 <transparent_crc>
    f9c4:	0f b6 05 f3 81 00 00 	movzbl 0x81f3(%rip),%eax        # 17bbe <g_584+0x6>
    f9cb:	01 c0                	add    %eax,%eax
    f9cd:	c0 f8 04             	sar    $0x4,%al
    f9d0:	48 0f be c0          	movsbq %al,%rax
    f9d4:	8b 55 fc             	mov    -0x4(%rbp),%edx
    f9d7:	48 8d 35 b4 42 00 00 	lea    0x42b4(%rip),%rsi        # 13c92 <g_2031+0xbea>
    f9de:	48 89 c7             	mov    %rax,%rdi
    f9e1:	e8 0d 9d ff ff       	callq  96f3 <transparent_crc>
    f9e6:	8b 05 d4 81 00 00    	mov    0x81d4(%rip),%eax        # 17bc0 <g_771>
    f9ec:	89 c1                	mov    %eax,%ecx
    f9ee:	8b 45 fc             	mov    -0x4(%rbp),%eax
    f9f1:	89 c2                	mov    %eax,%edx
    f9f3:	48 8d 35 a1 42 00 00 	lea    0x42a1(%rip),%rsi        # 13c9b <g_2031+0xbf3>
    f9fa:	48 89 cf             	mov    %rcx,%rdi
    f9fd:	e8 f1 9c ff ff       	callq  96f3 <transparent_crc>
    fa02:	8b 05 bc 81 00 00    	mov    0x81bc(%rip),%eax        # 17bc4 <g_771+0x4>
    fa08:	89 c1                	mov    %eax,%ecx
    fa0a:	8b 45 fc             	mov    -0x4(%rbp),%eax
    fa0d:	89 c2                	mov    %eax,%edx
    fa0f:	48 8d 35 8e 42 00 00 	lea    0x428e(%rip),%rsi        # 13ca4 <g_2031+0xbfc>
    fa16:	48 89 cf             	mov    %rcx,%rdi
    fa19:	e8 d5 9c ff ff       	callq  96f3 <transparent_crc>
    fa1e:	48 8b 05 a3 81 00 00 	mov    0x81a3(%rip),%rax        # 17bc8 <g_771+0x8>
    fa25:	8b 55 fc             	mov    -0x4(%rbp),%edx
    fa28:	48 8d 35 7e 42 00 00 	lea    0x427e(%rip),%rsi        # 13cad <g_2031+0xc05>
    fa2f:	48 89 c7             	mov    %rax,%rdi
    fa32:	e8 bc 9c ff ff       	callq  96f3 <transparent_crc>
    fa37:	0f b7 05 92 81 00 00 	movzwl 0x8192(%rip),%eax        # 17bd0 <g_771+0x10>
    fa3e:	48 0f bf c0          	movswq %ax,%rax
    fa42:	8b 55 fc             	mov    -0x4(%rbp),%edx
    fa45:	48 8d 35 6a 42 00 00 	lea    0x426a(%rip),%rsi        # 13cb6 <g_2031+0xc0e>
    fa4c:	48 89 c7             	mov    %rax,%rdi
    fa4f:	e8 9f 9c ff ff       	callq  96f3 <transparent_crc>
    fa54:	8b 05 7a 81 00 00    	mov    0x817a(%rip),%eax        # 17bd4 <g_771+0x14>
    fa5a:	48 98                	cltq   
    fa5c:	8b 55 fc             	mov    -0x4(%rbp),%edx
    fa5f:	48 8d 35 59 42 00 00 	lea    0x4259(%rip),%rsi        # 13cbf <g_2031+0xc17>
    fa66:	48 89 c7             	mov    %rax,%rdi
    fa69:	e8 85 9c ff ff       	callq  96f3 <transparent_crc>
    fa6e:	8b 05 64 81 00 00    	mov    0x8164(%rip),%eax        # 17bd8 <g_771+0x18>
    fa74:	89 c1                	mov    %eax,%ecx
    fa76:	8b 45 fc             	mov    -0x4(%rbp),%eax
    fa79:	89 c2                	mov    %eax,%edx
    fa7b:	48 8d 35 46 42 00 00 	lea    0x4246(%rip),%rsi        # 13cc8 <g_2031+0xc20>
    fa82:	48 89 cf             	mov    %rcx,%rdi
    fa85:	e8 69 9c ff ff       	callq  96f3 <transparent_crc>
    fa8a:	8b 05 4c 81 00 00    	mov    0x814c(%rip),%eax        # 17bdc <g_771+0x1c>
    fa90:	48 98                	cltq   
    fa92:	8b 55 fc             	mov    -0x4(%rbp),%edx
    fa95:	48 8d 35 35 42 00 00 	lea    0x4235(%rip),%rsi        # 13cd1 <g_2031+0xc29>
    fa9c:	48 89 c7             	mov    %rax,%rdi
    fa9f:	e8 4f 9c ff ff       	callq  96f3 <transparent_crc>
    faa4:	8b 05 36 81 00 00    	mov    0x8136(%rip),%eax        # 17be0 <g_771+0x20>
    faaa:	48 98                	cltq   
    faac:	8b 55 fc             	mov    -0x4(%rbp),%edx
    faaf:	48 8d 35 24 42 00 00 	lea    0x4224(%rip),%rsi        # 13cda <g_2031+0xc32>
    fab6:	48 89 c7             	mov    %rax,%rdi
    fab9:	e8 35 9c ff ff       	callq  96f3 <transparent_crc>
    fabe:	0f b7 05 1f 81 00 00 	movzwl 0x811f(%rip),%eax        # 17be4 <g_771+0x24>
    fac5:	c1 e0 07             	shl    $0x7,%eax
    fac8:	66 c1 f8 07          	sar    $0x7,%ax
    facc:	48 0f bf c0          	movswq %ax,%rax
    fad0:	8b 55 fc             	mov    -0x4(%rbp),%edx
    fad3:	48 8d 35 09 42 00 00 	lea    0x4209(%rip),%rsi        # 13ce3 <g_2031+0xc3b>
    fada:	48 89 c7             	mov    %rax,%rdi
    fadd:	e8 11 9c ff ff       	callq  96f3 <transparent_crc>
    fae2:	0f b7 05 ff 80 00 00 	movzwl 0x80ff(%rip),%eax        # 17be8 <g_795>
    fae9:	0f b7 c0             	movzwl %ax,%eax
    faec:	8b 55 fc             	mov    -0x4(%rbp),%edx
    faef:	48 8d 35 f6 41 00 00 	lea    0x41f6(%rip),%rsi        # 13cec <g_2031+0xc44>
    faf6:	48 89 c7             	mov    %rax,%rdi
    faf9:	e8 f5 9b ff ff       	callq  96f3 <transparent_crc>
    fafe:	8b 05 fc 80 00 00    	mov    0x80fc(%rip),%eax        # 17c00 <g_823>
    fb04:	89 c1                	mov    %eax,%ecx
    fb06:	8b 45 fc             	mov    -0x4(%rbp),%eax
    fb09:	89 c2                	mov    %eax,%edx
    fb0b:	48 8d 35 e0 41 00 00 	lea    0x41e0(%rip),%rsi        # 13cf2 <g_2031+0xc4a>
    fb12:	48 89 cf             	mov    %rcx,%rdi
    fb15:	e8 d9 9b ff ff       	callq  96f3 <transparent_crc>
    fb1a:	8b 05 e4 80 00 00    	mov    0x80e4(%rip),%eax        # 17c04 <g_823+0x4>
    fb20:	89 c1                	mov    %eax,%ecx
    fb22:	8b 45 fc             	mov    -0x4(%rbp),%eax
    fb25:	89 c2                	mov    %eax,%edx
    fb27:	48 8d 35 cd 41 00 00 	lea    0x41cd(%rip),%rsi        # 13cfb <g_2031+0xc53>
    fb2e:	48 89 cf             	mov    %rcx,%rdi
    fb31:	e8 bd 9b ff ff       	callq  96f3 <transparent_crc>
    fb36:	48 8b 05 cb 80 00 00 	mov    0x80cb(%rip),%rax        # 17c08 <g_823+0x8>
    fb3d:	8b 55 fc             	mov    -0x4(%rbp),%edx
    fb40:	48 8d 35 bd 41 00 00 	lea    0x41bd(%rip),%rsi        # 13d04 <g_2031+0xc5c>
    fb47:	48 89 c7             	mov    %rax,%rdi
    fb4a:	e8 a4 9b ff ff       	callq  96f3 <transparent_crc>
    fb4f:	0f b7 05 ba 80 00 00 	movzwl 0x80ba(%rip),%eax        # 17c10 <g_823+0x10>
    fb56:	48 0f bf c0          	movswq %ax,%rax
    fb5a:	8b 55 fc             	mov    -0x4(%rbp),%edx
    fb5d:	48 8d 35 a9 41 00 00 	lea    0x41a9(%rip),%rsi        # 13d0d <g_2031+0xc65>
    fb64:	48 89 c7             	mov    %rax,%rdi
    fb67:	e8 87 9b ff ff       	callq  96f3 <transparent_crc>
    fb6c:	8b 05 a2 80 00 00    	mov    0x80a2(%rip),%eax        # 17c14 <g_823+0x14>
    fb72:	48 98                	cltq   
    fb74:	8b 55 fc             	mov    -0x4(%rbp),%edx
    fb77:	48 8d 35 98 41 00 00 	lea    0x4198(%rip),%rsi        # 13d16 <g_2031+0xc6e>
    fb7e:	48 89 c7             	mov    %rax,%rdi
    fb81:	e8 6d 9b ff ff       	callq  96f3 <transparent_crc>
    fb86:	8b 05 8c 80 00 00    	mov    0x808c(%rip),%eax        # 17c18 <g_823+0x18>
    fb8c:	89 c1                	mov    %eax,%ecx
    fb8e:	8b 45 fc             	mov    -0x4(%rbp),%eax
    fb91:	89 c2                	mov    %eax,%edx
    fb93:	48 8d 35 85 41 00 00 	lea    0x4185(%rip),%rsi        # 13d1f <g_2031+0xc77>
    fb9a:	48 89 cf             	mov    %rcx,%rdi
    fb9d:	e8 51 9b ff ff       	callq  96f3 <transparent_crc>
    fba2:	8b 05 74 80 00 00    	mov    0x8074(%rip),%eax        # 17c1c <g_823+0x1c>
    fba8:	48 98                	cltq   
    fbaa:	8b 55 fc             	mov    -0x4(%rbp),%edx
    fbad:	48 8d 35 74 41 00 00 	lea    0x4174(%rip),%rsi        # 13d28 <g_2031+0xc80>
    fbb4:	48 89 c7             	mov    %rax,%rdi
    fbb7:	e8 37 9b ff ff       	callq  96f3 <transparent_crc>
    fbbc:	8b 05 5e 80 00 00    	mov    0x805e(%rip),%eax        # 17c20 <g_823+0x20>
    fbc2:	48 98                	cltq   
    fbc4:	8b 55 fc             	mov    -0x4(%rbp),%edx
    fbc7:	48 8d 35 63 41 00 00 	lea    0x4163(%rip),%rsi        # 13d31 <g_2031+0xc89>
    fbce:	48 89 c7             	mov    %rax,%rdi
    fbd1:	e8 1d 9b ff ff       	callq  96f3 <transparent_crc>
    fbd6:	0f b7 05 47 80 00 00 	movzwl 0x8047(%rip),%eax        # 17c24 <g_823+0x24>
    fbdd:	c1 e0 07             	shl    $0x7,%eax
    fbe0:	66 c1 f8 07          	sar    $0x7,%ax
    fbe4:	48 0f bf c0          	movswq %ax,%rax
    fbe8:	8b 55 fc             	mov    -0x4(%rbp),%edx
    fbeb:	48 8d 35 48 41 00 00 	lea    0x4148(%rip),%rsi        # 13d3a <g_2031+0xc92>
    fbf2:	48 89 c7             	mov    %rax,%rdi
    fbf5:	e8 f9 9a ff ff       	callq  96f3 <transparent_crc>
    fbfa:	8b 05 40 80 00 00    	mov    0x8040(%rip),%eax        # 17c40 <g_825>
    fc00:	89 c1                	mov    %eax,%ecx
    fc02:	8b 45 fc             	mov    -0x4(%rbp),%eax
    fc05:	89 c2                	mov    %eax,%edx
    fc07:	48 8d 35 35 41 00 00 	lea    0x4135(%rip),%rsi        # 13d43 <g_2031+0xc9b>
    fc0e:	48 89 cf             	mov    %rcx,%rdi
    fc11:	e8 dd 9a ff ff       	callq  96f3 <transparent_crc>
    fc16:	8b 05 28 80 00 00    	mov    0x8028(%rip),%eax        # 17c44 <g_825+0x4>
    fc1c:	89 c1                	mov    %eax,%ecx
    fc1e:	8b 45 fc             	mov    -0x4(%rbp),%eax
    fc21:	89 c2                	mov    %eax,%edx
    fc23:	48 8d 35 22 41 00 00 	lea    0x4122(%rip),%rsi        # 13d4c <g_2031+0xca4>
    fc2a:	48 89 cf             	mov    %rcx,%rdi
    fc2d:	e8 c1 9a ff ff       	callq  96f3 <transparent_crc>
    fc32:	48 8b 05 0f 80 00 00 	mov    0x800f(%rip),%rax        # 17c48 <g_825+0x8>
    fc39:	8b 55 fc             	mov    -0x4(%rbp),%edx
    fc3c:	48 8d 35 12 41 00 00 	lea    0x4112(%rip),%rsi        # 13d55 <g_2031+0xcad>
    fc43:	48 89 c7             	mov    %rax,%rdi
    fc46:	e8 a8 9a ff ff       	callq  96f3 <transparent_crc>
    fc4b:	0f b7 05 fe 7f 00 00 	movzwl 0x7ffe(%rip),%eax        # 17c50 <g_825+0x10>
    fc52:	48 0f bf c0          	movswq %ax,%rax
    fc56:	8b 55 fc             	mov    -0x4(%rbp),%edx
    fc59:	48 8d 35 fe 40 00 00 	lea    0x40fe(%rip),%rsi        # 13d5e <g_2031+0xcb6>
    fc60:	48 89 c7             	mov    %rax,%rdi
    fc63:	e8 8b 9a ff ff       	callq  96f3 <transparent_crc>
    fc68:	8b 05 e6 7f 00 00    	mov    0x7fe6(%rip),%eax        # 17c54 <g_825+0x14>
    fc6e:	48 98                	cltq   
    fc70:	8b 55 fc             	mov    -0x4(%rbp),%edx
    fc73:	48 8d 35 ed 40 00 00 	lea    0x40ed(%rip),%rsi        # 13d67 <g_2031+0xcbf>
    fc7a:	48 89 c7             	mov    %rax,%rdi
    fc7d:	e8 71 9a ff ff       	callq  96f3 <transparent_crc>
    fc82:	8b 05 d0 7f 00 00    	mov    0x7fd0(%rip),%eax        # 17c58 <g_825+0x18>
    fc88:	89 c1                	mov    %eax,%ecx
    fc8a:	8b 45 fc             	mov    -0x4(%rbp),%eax
    fc8d:	89 c2                	mov    %eax,%edx
    fc8f:	48 8d 35 da 40 00 00 	lea    0x40da(%rip),%rsi        # 13d70 <g_2031+0xcc8>
    fc96:	48 89 cf             	mov    %rcx,%rdi
    fc99:	e8 55 9a ff ff       	callq  96f3 <transparent_crc>
    fc9e:	8b 05 b8 7f 00 00    	mov    0x7fb8(%rip),%eax        # 17c5c <g_825+0x1c>
    fca4:	48 98                	cltq   
    fca6:	8b 55 fc             	mov    -0x4(%rbp),%edx
    fca9:	48 8d 35 c9 40 00 00 	lea    0x40c9(%rip),%rsi        # 13d79 <g_2031+0xcd1>
    fcb0:	48 89 c7             	mov    %rax,%rdi
    fcb3:	e8 3b 9a ff ff       	callq  96f3 <transparent_crc>
    fcb8:	8b 05 a2 7f 00 00    	mov    0x7fa2(%rip),%eax        # 17c60 <g_825+0x20>
    fcbe:	48 98                	cltq   
    fcc0:	8b 55 fc             	mov    -0x4(%rbp),%edx
    fcc3:	48 8d 35 b8 40 00 00 	lea    0x40b8(%rip),%rsi        # 13d82 <g_2031+0xcda>
    fcca:	48 89 c7             	mov    %rax,%rdi
    fccd:	e8 21 9a ff ff       	callq  96f3 <transparent_crc>
    fcd2:	0f b7 05 8b 7f 00 00 	movzwl 0x7f8b(%rip),%eax        # 17c64 <g_825+0x24>
    fcd9:	c1 e0 07             	shl    $0x7,%eax
    fcdc:	66 c1 f8 07          	sar    $0x7,%ax
    fce0:	48 0f bf c0          	movswq %ax,%rax
    fce4:	8b 55 fc             	mov    -0x4(%rbp),%edx
    fce7:	48 8d 35 9d 40 00 00 	lea    0x409d(%rip),%rsi        # 13d8b <g_2031+0xce3>
    fcee:	48 89 c7             	mov    %rax,%rdi
    fcf1:	e8 fd 99 ff ff       	callq  96f3 <transparent_crc>
    fcf6:	8b 05 84 7f 00 00    	mov    0x7f84(%rip),%eax        # 17c80 <g_827>
    fcfc:	89 c1                	mov    %eax,%ecx
    fcfe:	8b 45 fc             	mov    -0x4(%rbp),%eax
    fd01:	89 c2                	mov    %eax,%edx
    fd03:	48 8d 35 8a 40 00 00 	lea    0x408a(%rip),%rsi        # 13d94 <g_2031+0xcec>
    fd0a:	48 89 cf             	mov    %rcx,%rdi
    fd0d:	e8 e1 99 ff ff       	callq  96f3 <transparent_crc>
    fd12:	8b 05 6c 7f 00 00    	mov    0x7f6c(%rip),%eax        # 17c84 <g_827+0x4>
    fd18:	89 c1                	mov    %eax,%ecx
    fd1a:	8b 45 fc             	mov    -0x4(%rbp),%eax
    fd1d:	89 c2                	mov    %eax,%edx
    fd1f:	48 8d 35 77 40 00 00 	lea    0x4077(%rip),%rsi        # 13d9d <g_2031+0xcf5>
    fd26:	48 89 cf             	mov    %rcx,%rdi
    fd29:	e8 c5 99 ff ff       	callq  96f3 <transparent_crc>
    fd2e:	48 8b 05 53 7f 00 00 	mov    0x7f53(%rip),%rax        # 17c88 <g_827+0x8>
    fd35:	8b 55 fc             	mov    -0x4(%rbp),%edx
    fd38:	48 8d 35 67 40 00 00 	lea    0x4067(%rip),%rsi        # 13da6 <g_2031+0xcfe>
    fd3f:	48 89 c7             	mov    %rax,%rdi
    fd42:	e8 ac 99 ff ff       	callq  96f3 <transparent_crc>
    fd47:	0f b7 05 42 7f 00 00 	movzwl 0x7f42(%rip),%eax        # 17c90 <g_827+0x10>
    fd4e:	48 0f bf c0          	movswq %ax,%rax
    fd52:	8b 55 fc             	mov    -0x4(%rbp),%edx
    fd55:	48 8d 35 53 40 00 00 	lea    0x4053(%rip),%rsi        # 13daf <g_2031+0xd07>
    fd5c:	48 89 c7             	mov    %rax,%rdi
    fd5f:	e8 8f 99 ff ff       	callq  96f3 <transparent_crc>
    fd64:	8b 05 2a 7f 00 00    	mov    0x7f2a(%rip),%eax        # 17c94 <g_827+0x14>
    fd6a:	48 98                	cltq   
    fd6c:	8b 55 fc             	mov    -0x4(%rbp),%edx
    fd6f:	48 8d 35 42 40 00 00 	lea    0x4042(%rip),%rsi        # 13db8 <g_2031+0xd10>
    fd76:	48 89 c7             	mov    %rax,%rdi
    fd79:	e8 75 99 ff ff       	callq  96f3 <transparent_crc>
    fd7e:	8b 05 14 7f 00 00    	mov    0x7f14(%rip),%eax        # 17c98 <g_827+0x18>
    fd84:	89 c1                	mov    %eax,%ecx
    fd86:	8b 45 fc             	mov    -0x4(%rbp),%eax
    fd89:	89 c2                	mov    %eax,%edx
    fd8b:	48 8d 35 2f 40 00 00 	lea    0x402f(%rip),%rsi        # 13dc1 <g_2031+0xd19>
    fd92:	48 89 cf             	mov    %rcx,%rdi
    fd95:	e8 59 99 ff ff       	callq  96f3 <transparent_crc>
    fd9a:	8b 05 fc 7e 00 00    	mov    0x7efc(%rip),%eax        # 17c9c <g_827+0x1c>
    fda0:	48 98                	cltq   
    fda2:	8b 55 fc             	mov    -0x4(%rbp),%edx
    fda5:	48 8d 35 1e 40 00 00 	lea    0x401e(%rip),%rsi        # 13dca <g_2031+0xd22>
    fdac:	48 89 c7             	mov    %rax,%rdi
    fdaf:	e8 3f 99 ff ff       	callq  96f3 <transparent_crc>
    fdb4:	8b 05 e6 7e 00 00    	mov    0x7ee6(%rip),%eax        # 17ca0 <g_827+0x20>
    fdba:	48 98                	cltq   
    fdbc:	8b 55 fc             	mov    -0x4(%rbp),%edx
    fdbf:	48 8d 35 0d 40 00 00 	lea    0x400d(%rip),%rsi        # 13dd3 <g_2031+0xd2b>
    fdc6:	48 89 c7             	mov    %rax,%rdi
    fdc9:	e8 25 99 ff ff       	callq  96f3 <transparent_crc>
    fdce:	0f b7 05 cf 7e 00 00 	movzwl 0x7ecf(%rip),%eax        # 17ca4 <g_827+0x24>
    fdd5:	c1 e0 07             	shl    $0x7,%eax
    fdd8:	66 c1 f8 07          	sar    $0x7,%ax
    fddc:	48 0f bf c0          	movswq %ax,%rax
    fde0:	8b 55 fc             	mov    -0x4(%rbp),%edx
    fde3:	48 8d 35 f2 3f 00 00 	lea    0x3ff2(%rip),%rsi        # 13ddc <g_2031+0xd34>
    fdea:	48 89 c7             	mov    %rax,%rdi
    fded:	e8 01 99 ff ff       	callq  96f3 <transparent_crc>
    fdf2:	8b 05 c8 7e 00 00    	mov    0x7ec8(%rip),%eax        # 17cc0 <g_828>
    fdf8:	89 c1                	mov    %eax,%ecx
    fdfa:	8b 45 fc             	mov    -0x4(%rbp),%eax
    fdfd:	89 c2                	mov    %eax,%edx
    fdff:	48 8d 35 df 3f 00 00 	lea    0x3fdf(%rip),%rsi        # 13de5 <g_2031+0xd3d>
    fe06:	48 89 cf             	mov    %rcx,%rdi
    fe09:	e8 e5 98 ff ff       	callq  96f3 <transparent_crc>
    fe0e:	8b 05 b0 7e 00 00    	mov    0x7eb0(%rip),%eax        # 17cc4 <g_828+0x4>
    fe14:	89 c1                	mov    %eax,%ecx
    fe16:	8b 45 fc             	mov    -0x4(%rbp),%eax
    fe19:	89 c2                	mov    %eax,%edx
    fe1b:	48 8d 35 cc 3f 00 00 	lea    0x3fcc(%rip),%rsi        # 13dee <g_2031+0xd46>
    fe22:	48 89 cf             	mov    %rcx,%rdi
    fe25:	e8 c9 98 ff ff       	callq  96f3 <transparent_crc>
    fe2a:	48 8b 05 97 7e 00 00 	mov    0x7e97(%rip),%rax        # 17cc8 <g_828+0x8>
    fe31:	8b 55 fc             	mov    -0x4(%rbp),%edx
    fe34:	48 8d 35 bc 3f 00 00 	lea    0x3fbc(%rip),%rsi        # 13df7 <g_2031+0xd4f>
    fe3b:	48 89 c7             	mov    %rax,%rdi
    fe3e:	e8 b0 98 ff ff       	callq  96f3 <transparent_crc>
    fe43:	0f b7 05 86 7e 00 00 	movzwl 0x7e86(%rip),%eax        # 17cd0 <g_828+0x10>
    fe4a:	48 0f bf c0          	movswq %ax,%rax
    fe4e:	8b 55 fc             	mov    -0x4(%rbp),%edx
    fe51:	48 8d 35 a8 3f 00 00 	lea    0x3fa8(%rip),%rsi        # 13e00 <g_2031+0xd58>
    fe58:	48 89 c7             	mov    %rax,%rdi
    fe5b:	e8 93 98 ff ff       	callq  96f3 <transparent_crc>
    fe60:	8b 05 6e 7e 00 00    	mov    0x7e6e(%rip),%eax        # 17cd4 <g_828+0x14>
    fe66:	48 98                	cltq   
    fe68:	8b 55 fc             	mov    -0x4(%rbp),%edx
    fe6b:	48 8d 35 97 3f 00 00 	lea    0x3f97(%rip),%rsi        # 13e09 <g_2031+0xd61>
    fe72:	48 89 c7             	mov    %rax,%rdi
    fe75:	e8 79 98 ff ff       	callq  96f3 <transparent_crc>
    fe7a:	8b 05 58 7e 00 00    	mov    0x7e58(%rip),%eax        # 17cd8 <g_828+0x18>
    fe80:	89 c1                	mov    %eax,%ecx
    fe82:	8b 45 fc             	mov    -0x4(%rbp),%eax
    fe85:	89 c2                	mov    %eax,%edx
    fe87:	48 8d 35 84 3f 00 00 	lea    0x3f84(%rip),%rsi        # 13e12 <g_2031+0xd6a>
    fe8e:	48 89 cf             	mov    %rcx,%rdi
    fe91:	e8 5d 98 ff ff       	callq  96f3 <transparent_crc>
    fe96:	8b 05 40 7e 00 00    	mov    0x7e40(%rip),%eax        # 17cdc <g_828+0x1c>
    fe9c:	48 98                	cltq   
    fe9e:	8b 55 fc             	mov    -0x4(%rbp),%edx
    fea1:	48 8d 35 73 3f 00 00 	lea    0x3f73(%rip),%rsi        # 13e1b <g_2031+0xd73>
    fea8:	48 89 c7             	mov    %rax,%rdi
    feab:	e8 43 98 ff ff       	callq  96f3 <transparent_crc>
    feb0:	8b 05 2a 7e 00 00    	mov    0x7e2a(%rip),%eax        # 17ce0 <g_828+0x20>
    feb6:	48 98                	cltq   
    feb8:	8b 55 fc             	mov    -0x4(%rbp),%edx
    febb:	48 8d 35 62 3f 00 00 	lea    0x3f62(%rip),%rsi        # 13e24 <g_2031+0xd7c>
    fec2:	48 89 c7             	mov    %rax,%rdi
    fec5:	e8 29 98 ff ff       	callq  96f3 <transparent_crc>
    feca:	0f b7 05 13 7e 00 00 	movzwl 0x7e13(%rip),%eax        # 17ce4 <g_828+0x24>
    fed1:	c1 e0 07             	shl    $0x7,%eax
    fed4:	66 c1 f8 07          	sar    $0x7,%ax
    fed8:	48 0f bf c0          	movswq %ax,%rax
    fedc:	8b 55 fc             	mov    -0x4(%rbp),%edx
    fedf:	48 8d 35 47 3f 00 00 	lea    0x3f47(%rip),%rsi        # 13e2d <g_2031+0xd85>
    fee6:	48 89 c7             	mov    %rax,%rdi
    fee9:	e8 05 98 ff ff       	callq  96f3 <transparent_crc>
    feee:	8b 05 0c 7e 00 00    	mov    0x7e0c(%rip),%eax        # 17d00 <g_829>
    fef4:	89 c1                	mov    %eax,%ecx
    fef6:	8b 45 fc             	mov    -0x4(%rbp),%eax
    fef9:	89 c2                	mov    %eax,%edx
    fefb:	48 8d 35 34 3f 00 00 	lea    0x3f34(%rip),%rsi        # 13e36 <g_2031+0xd8e>
    ff02:	48 89 cf             	mov    %rcx,%rdi
    ff05:	e8 e9 97 ff ff       	callq  96f3 <transparent_crc>
    ff0a:	8b 05 f4 7d 00 00    	mov    0x7df4(%rip),%eax        # 17d04 <g_829+0x4>
    ff10:	89 c1                	mov    %eax,%ecx
    ff12:	8b 45 fc             	mov    -0x4(%rbp),%eax
    ff15:	89 c2                	mov    %eax,%edx
    ff17:	48 8d 35 21 3f 00 00 	lea    0x3f21(%rip),%rsi        # 13e3f <g_2031+0xd97>
    ff1e:	48 89 cf             	mov    %rcx,%rdi
    ff21:	e8 cd 97 ff ff       	callq  96f3 <transparent_crc>
    ff26:	48 8b 05 db 7d 00 00 	mov    0x7ddb(%rip),%rax        # 17d08 <g_829+0x8>
    ff2d:	8b 55 fc             	mov    -0x4(%rbp),%edx
    ff30:	48 8d 35 11 3f 00 00 	lea    0x3f11(%rip),%rsi        # 13e48 <g_2031+0xda0>
    ff37:	48 89 c7             	mov    %rax,%rdi
    ff3a:	e8 b4 97 ff ff       	callq  96f3 <transparent_crc>
    ff3f:	0f b7 05 ca 7d 00 00 	movzwl 0x7dca(%rip),%eax        # 17d10 <g_829+0x10>
    ff46:	48 0f bf c0          	movswq %ax,%rax
    ff4a:	8b 55 fc             	mov    -0x4(%rbp),%edx
    ff4d:	48 8d 35 fd 3e 00 00 	lea    0x3efd(%rip),%rsi        # 13e51 <g_2031+0xda9>
    ff54:	48 89 c7             	mov    %rax,%rdi
    ff57:	e8 97 97 ff ff       	callq  96f3 <transparent_crc>
    ff5c:	8b 05 b2 7d 00 00    	mov    0x7db2(%rip),%eax        # 17d14 <g_829+0x14>
    ff62:	48 98                	cltq   
    ff64:	8b 55 fc             	mov    -0x4(%rbp),%edx
    ff67:	48 8d 35 ec 3e 00 00 	lea    0x3eec(%rip),%rsi        # 13e5a <g_2031+0xdb2>
    ff6e:	48 89 c7             	mov    %rax,%rdi
    ff71:	e8 7d 97 ff ff       	callq  96f3 <transparent_crc>
    ff76:	8b 05 9c 7d 00 00    	mov    0x7d9c(%rip),%eax        # 17d18 <g_829+0x18>
    ff7c:	89 c1                	mov    %eax,%ecx
    ff7e:	8b 45 fc             	mov    -0x4(%rbp),%eax
    ff81:	89 c2                	mov    %eax,%edx
    ff83:	48 8d 35 d9 3e 00 00 	lea    0x3ed9(%rip),%rsi        # 13e63 <g_2031+0xdbb>
    ff8a:	48 89 cf             	mov    %rcx,%rdi
    ff8d:	e8 61 97 ff ff       	callq  96f3 <transparent_crc>
    ff92:	8b 05 84 7d 00 00    	mov    0x7d84(%rip),%eax        # 17d1c <g_829+0x1c>
    ff98:	48 98                	cltq   
    ff9a:	8b 55 fc             	mov    -0x4(%rbp),%edx
    ff9d:	48 8d 35 c8 3e 00 00 	lea    0x3ec8(%rip),%rsi        # 13e6c <g_2031+0xdc4>
    ffa4:	48 89 c7             	mov    %rax,%rdi
    ffa7:	e8 47 97 ff ff       	callq  96f3 <transparent_crc>
    ffac:	8b 05 6e 7d 00 00    	mov    0x7d6e(%rip),%eax        # 17d20 <g_829+0x20>
    ffb2:	48 98                	cltq   
    ffb4:	8b 55 fc             	mov    -0x4(%rbp),%edx
    ffb7:	48 8d 35 b7 3e 00 00 	lea    0x3eb7(%rip),%rsi        # 13e75 <g_2031+0xdcd>
    ffbe:	48 89 c7             	mov    %rax,%rdi
    ffc1:	e8 2d 97 ff ff       	callq  96f3 <transparent_crc>
    ffc6:	0f b7 05 57 7d 00 00 	movzwl 0x7d57(%rip),%eax        # 17d24 <g_829+0x24>
    ffcd:	c1 e0 07             	shl    $0x7,%eax
    ffd0:	66 c1 f8 07          	sar    $0x7,%ax
    ffd4:	48 0f bf c0          	movswq %ax,%rax
    ffd8:	8b 55 fc             	mov    -0x4(%rbp),%edx
    ffdb:	48 8d 35 9c 3e 00 00 	lea    0x3e9c(%rip),%rsi        # 13e7e <g_2031+0xdd6>
    ffe2:	48 89 c7             	mov    %rax,%rdi
    ffe5:	e8 09 97 ff ff       	callq  96f3 <transparent_crc>
    ffea:	c7 45 f0 00 00 00 00 	movl   $0x0,-0x10(%rbp)
    fff1:	e9 10 02 00 00       	jmpq   10206 <main+0x1bea>
    fff6:	8b 45 f0             	mov    -0x10(%rbp),%eax
    fff9:	48 63 d0             	movslq %eax,%rdx
    fffc:	48 89 d0             	mov    %rdx,%rax
    ffff:	48 c1 e0 02          	shl    $0x2,%rax
   10003:	48 01 d0             	add    %rdx,%rax
   10006:	48 c1 e0 03          	shl    $0x3,%rax
   1000a:	48 89 c2             	mov    %rax,%rdx
   1000d:	48 8d 05 2c 7d 00 00 	lea    0x7d2c(%rip),%rax        # 17d40 <g_830>
   10014:	8b 04 02             	mov    (%rdx,%rax,1),%eax
   10017:	89 c1                	mov    %eax,%ecx
   10019:	8b 45 fc             	mov    -0x4(%rbp),%eax
   1001c:	89 c2                	mov    %eax,%edx
   1001e:	48 8d 35 62 3e 00 00 	lea    0x3e62(%rip),%rsi        # 13e87 <g_2031+0xddf>
   10025:	48 89 cf             	mov    %rcx,%rdi
   10028:	e8 c6 96 ff ff       	callq  96f3 <transparent_crc>
   1002d:	8b 45 f0             	mov    -0x10(%rbp),%eax
   10030:	48 63 d0             	movslq %eax,%rdx
   10033:	48 89 d0             	mov    %rdx,%rax
   10036:	48 c1 e0 02          	shl    $0x2,%rax
   1003a:	48 01 d0             	add    %rdx,%rax
   1003d:	48 c1 e0 03          	shl    $0x3,%rax
   10041:	48 89 c2             	mov    %rax,%rdx
   10044:	48 8d 05 f9 7c 00 00 	lea    0x7cf9(%rip),%rax        # 17d44 <g_830+0x4>
   1004b:	8b 04 02             	mov    (%rdx,%rax,1),%eax
   1004e:	89 c1                	mov    %eax,%ecx
   10050:	8b 45 fc             	mov    -0x4(%rbp),%eax
   10053:	89 c2                	mov    %eax,%edx
   10055:	48 8d 35 37 3e 00 00 	lea    0x3e37(%rip),%rsi        # 13e93 <g_2031+0xdeb>
   1005c:	48 89 cf             	mov    %rcx,%rdi
   1005f:	e8 8f 96 ff ff       	callq  96f3 <transparent_crc>
   10064:	8b 45 f0             	mov    -0x10(%rbp),%eax
   10067:	48 63 d0             	movslq %eax,%rdx
   1006a:	48 89 d0             	mov    %rdx,%rax
   1006d:	48 c1 e0 02          	shl    $0x2,%rax
   10071:	48 01 d0             	add    %rdx,%rax
   10074:	48 c1 e0 03          	shl    $0x3,%rax
   10078:	48 89 c2             	mov    %rax,%rdx
   1007b:	48 8d 05 c6 7c 00 00 	lea    0x7cc6(%rip),%rax        # 17d48 <g_830+0x8>
   10082:	48 8b 04 02          	mov    (%rdx,%rax,1),%rax
   10086:	8b 55 fc             	mov    -0x4(%rbp),%edx
   10089:	48 8d 35 0f 3e 00 00 	lea    0x3e0f(%rip),%rsi        # 13e9f <g_2031+0xdf7>
   10090:	48 89 c7             	mov    %rax,%rdi
   10093:	e8 5b 96 ff ff       	callq  96f3 <transparent_crc>
   10098:	8b 45 f0             	mov    -0x10(%rbp),%eax
   1009b:	48 63 d0             	movslq %eax,%rdx
   1009e:	48 89 d0             	mov    %rdx,%rax
   100a1:	48 c1 e0 02          	shl    $0x2,%rax
   100a5:	48 01 d0             	add    %rdx,%rax
   100a8:	48 c1 e0 03          	shl    $0x3,%rax
   100ac:	48 89 c2             	mov    %rax,%rdx
   100af:	48 8d 05 9a 7c 00 00 	lea    0x7c9a(%rip),%rax        # 17d50 <g_830+0x10>
   100b6:	0f b7 04 02          	movzwl (%rdx,%rax,1),%eax
   100ba:	48 0f bf c0          	movswq %ax,%rax
   100be:	8b 55 fc             	mov    -0x4(%rbp),%edx
   100c1:	48 8d 35 e3 3d 00 00 	lea    0x3de3(%rip),%rsi        # 13eab <g_2031+0xe03>
   100c8:	48 89 c7             	mov    %rax,%rdi
   100cb:	e8 23 96 ff ff       	callq  96f3 <transparent_crc>
   100d0:	8b 45 f0             	mov    -0x10(%rbp),%eax
   100d3:	48 63 d0             	movslq %eax,%rdx
   100d6:	48 89 d0             	mov    %rdx,%rax
   100d9:	48 c1 e0 02          	shl    $0x2,%rax
   100dd:	48 01 d0             	add    %rdx,%rax
   100e0:	48 c1 e0 03          	shl    $0x3,%rax
   100e4:	48 89 c2             	mov    %rax,%rdx
   100e7:	48 8d 05 66 7c 00 00 	lea    0x7c66(%rip),%rax        # 17d54 <g_830+0x14>
   100ee:	8b 04 02             	mov    (%rdx,%rax,1),%eax
   100f1:	48 98                	cltq   
   100f3:	8b 55 fc             	mov    -0x4(%rbp),%edx
   100f6:	48 8d 35 ba 3d 00 00 	lea    0x3dba(%rip),%rsi        # 13eb7 <g_2031+0xe0f>
   100fd:	48 89 c7             	mov    %rax,%rdi
   10100:	e8 ee 95 ff ff       	callq  96f3 <transparent_crc>
   10105:	8b 45 f0             	mov    -0x10(%rbp),%eax
   10108:	48 63 d0             	movslq %eax,%rdx
   1010b:	48 89 d0             	mov    %rdx,%rax
   1010e:	48 c1 e0 02          	shl    $0x2,%rax
   10112:	48 01 d0             	add    %rdx,%rax
   10115:	48 c1 e0 03          	shl    $0x3,%rax
   10119:	48 89 c2             	mov    %rax,%rdx
   1011c:	48 8d 05 35 7c 00 00 	lea    0x7c35(%rip),%rax        # 17d58 <g_830+0x18>
   10123:	8b 04 02             	mov    (%rdx,%rax,1),%eax
   10126:	89 c1                	mov    %eax,%ecx
   10128:	8b 45 fc             	mov    -0x4(%rbp),%eax
   1012b:	89 c2                	mov    %eax,%edx
   1012d:	48 8d 35 8f 3d 00 00 	lea    0x3d8f(%rip),%rsi        # 13ec3 <g_2031+0xe1b>
   10134:	48 89 cf             	mov    %rcx,%rdi
   10137:	e8 b7 95 ff ff       	callq  96f3 <transparent_crc>
   1013c:	8b 45 f0             	mov    -0x10(%rbp),%eax
   1013f:	48 63 d0             	movslq %eax,%rdx
   10142:	48 89 d0             	mov    %rdx,%rax
   10145:	48 c1 e0 02          	shl    $0x2,%rax
   10149:	48 01 d0             	add    %rdx,%rax
   1014c:	48 c1 e0 03          	shl    $0x3,%rax
   10150:	48 89 c2             	mov    %rax,%rdx
   10153:	48 8d 05 02 7c 00 00 	lea    0x7c02(%rip),%rax        # 17d5c <g_830+0x1c>
   1015a:	8b 04 02             	mov    (%rdx,%rax,1),%eax
   1015d:	48 98                	cltq   
   1015f:	8b 55 fc             	mov    -0x4(%rbp),%edx
   10162:	48 8d 35 66 3d 00 00 	lea    0x3d66(%rip),%rsi        # 13ecf <g_2031+0xe27>
   10169:	48 89 c7             	mov    %rax,%rdi
   1016c:	e8 82 95 ff ff       	callq  96f3 <transparent_crc>
   10171:	8b 45 f0             	mov    -0x10(%rbp),%eax
   10174:	48 63 d0             	movslq %eax,%rdx
   10177:	48 89 d0             	mov    %rdx,%rax
   1017a:	48 c1 e0 02          	shl    $0x2,%rax
   1017e:	48 01 d0             	add    %rdx,%rax
   10181:	48 c1 e0 03          	shl    $0x3,%rax
   10185:	48 89 c2             	mov    %rax,%rdx
   10188:	48 8d 05 d1 7b 00 00 	lea    0x7bd1(%rip),%rax        # 17d60 <g_830+0x20>
   1018f:	8b 04 02             	mov    (%rdx,%rax,1),%eax
   10192:	48 98                	cltq   
   10194:	8b 55 fc             	mov    -0x4(%rbp),%edx
   10197:	48 8d 35 3d 3d 00 00 	lea    0x3d3d(%rip),%rsi        # 13edb <g_2031+0xe33>
   1019e:	48 89 c7             	mov    %rax,%rdi
   101a1:	e8 4d 95 ff ff       	callq  96f3 <transparent_crc>
   101a6:	8b 45 f0             	mov    -0x10(%rbp),%eax
   101a9:	48 63 d0             	movslq %eax,%rdx
   101ac:	48 89 d0             	mov    %rdx,%rax
   101af:	48 c1 e0 02          	shl    $0x2,%rax
   101b3:	48 01 d0             	add    %rdx,%rax
   101b6:	48 c1 e0 03          	shl    $0x3,%rax
   101ba:	48 89 c2             	mov    %rax,%rdx
   101bd:	48 8d 05 9c 7b 00 00 	lea    0x7b9c(%rip),%rax        # 17d60 <g_830+0x20>
   101c4:	0f b7 44 02 04       	movzwl 0x4(%rdx,%rax,1),%eax
   101c9:	c1 e0 07             	shl    $0x7,%eax
   101cc:	66 c1 f8 07          	sar    $0x7,%ax
   101d0:	48 0f bf c0          	movswq %ax,%rax
   101d4:	8b 55 fc             	mov    -0x4(%rbp),%edx
   101d7:	48 8d 35 09 3d 00 00 	lea    0x3d09(%rip),%rsi        # 13ee7 <g_2031+0xe3f>
   101de:	48 89 c7             	mov    %rax,%rdi
   101e1:	e8 0d 95 ff ff       	callq  96f3 <transparent_crc>
   101e6:	83 7d fc 00          	cmpl   $0x0,-0x4(%rbp)
   101ea:	74 16                	je     10202 <main+0x1be6>
   101ec:	8b 45 f0             	mov    -0x10(%rbp),%eax
   101ef:	89 c6                	mov    %eax,%esi
   101f1:	48 8d 3d 4d 3a 00 00 	lea    0x3a4d(%rip),%rdi        # 13c45 <g_2031+0xb9d>
   101f8:	b8 00 00 00 00       	mov    $0x0,%eax
   101fd:	e8 7e 7e ff ff       	callq  8080 <printf@plt>
   10202:	83 45 f0 01          	addl   $0x1,-0x10(%rbp)
   10206:	83 7d f0 06          	cmpl   $0x6,-0x10(%rbp)
   1020a:	0f 8e e6 fd ff ff    	jle    fff6 <main+0x19da>
   10210:	8b 05 4a 7c 00 00    	mov    0x7c4a(%rip),%eax        # 17e60 <g_831>
   10216:	89 c1                	mov    %eax,%ecx
   10218:	8b 45 fc             	mov    -0x4(%rbp),%eax
   1021b:	89 c2                	mov    %eax,%edx
   1021d:	48 8d 35 cf 3c 00 00 	lea    0x3ccf(%rip),%rsi        # 13ef3 <g_2031+0xe4b>
   10224:	48 89 cf             	mov    %rcx,%rdi
   10227:	e8 c7 94 ff ff       	callq  96f3 <transparent_crc>
   1022c:	8b 05 32 7c 00 00    	mov    0x7c32(%rip),%eax        # 17e64 <g_831+0x4>
   10232:	89 c1                	mov    %eax,%ecx
   10234:	8b 45 fc             	mov    -0x4(%rbp),%eax
   10237:	89 c2                	mov    %eax,%edx
   10239:	48 8d 35 bc 3c 00 00 	lea    0x3cbc(%rip),%rsi        # 13efc <g_2031+0xe54>
   10240:	48 89 cf             	mov    %rcx,%rdi
   10243:	e8 ab 94 ff ff       	callq  96f3 <transparent_crc>
   10248:	48 8b 05 19 7c 00 00 	mov    0x7c19(%rip),%rax        # 17e68 <g_831+0x8>
   1024f:	8b 55 fc             	mov    -0x4(%rbp),%edx
   10252:	48 8d 35 ac 3c 00 00 	lea    0x3cac(%rip),%rsi        # 13f05 <g_2031+0xe5d>
   10259:	48 89 c7             	mov    %rax,%rdi
   1025c:	e8 92 94 ff ff       	callq  96f3 <transparent_crc>
   10261:	0f b7 05 08 7c 00 00 	movzwl 0x7c08(%rip),%eax        # 17e70 <g_831+0x10>
   10268:	48 0f bf c0          	movswq %ax,%rax
   1026c:	8b 55 fc             	mov    -0x4(%rbp),%edx
   1026f:	48 8d 35 98 3c 00 00 	lea    0x3c98(%rip),%rsi        # 13f0e <g_2031+0xe66>
   10276:	48 89 c7             	mov    %rax,%rdi
   10279:	e8 75 94 ff ff       	callq  96f3 <transparent_crc>
   1027e:	8b 05 f0 7b 00 00    	mov    0x7bf0(%rip),%eax        # 17e74 <g_831+0x14>
   10284:	48 98                	cltq   
   10286:	8b 55 fc             	mov    -0x4(%rbp),%edx
   10289:	48 8d 35 87 3c 00 00 	lea    0x3c87(%rip),%rsi        # 13f17 <g_2031+0xe6f>
   10290:	48 89 c7             	mov    %rax,%rdi
   10293:	e8 5b 94 ff ff       	callq  96f3 <transparent_crc>
   10298:	8b 05 da 7b 00 00    	mov    0x7bda(%rip),%eax        # 17e78 <g_831+0x18>
   1029e:	89 c1                	mov    %eax,%ecx
   102a0:	8b 45 fc             	mov    -0x4(%rbp),%eax
   102a3:	89 c2                	mov    %eax,%edx
   102a5:	48 8d 35 74 3c 00 00 	lea    0x3c74(%rip),%rsi        # 13f20 <g_2031+0xe78>
   102ac:	48 89 cf             	mov    %rcx,%rdi
   102af:	e8 3f 94 ff ff       	callq  96f3 <transparent_crc>
   102b4:	8b 05 c2 7b 00 00    	mov    0x7bc2(%rip),%eax        # 17e7c <g_831+0x1c>
   102ba:	48 98                	cltq   
   102bc:	8b 55 fc             	mov    -0x4(%rbp),%edx
   102bf:	48 8d 35 63 3c 00 00 	lea    0x3c63(%rip),%rsi        # 13f29 <g_2031+0xe81>
   102c6:	48 89 c7             	mov    %rax,%rdi
   102c9:	e8 25 94 ff ff       	callq  96f3 <transparent_crc>
   102ce:	8b 05 ac 7b 00 00    	mov    0x7bac(%rip),%eax        # 17e80 <g_831+0x20>
   102d4:	48 98                	cltq   
   102d6:	8b 55 fc             	mov    -0x4(%rbp),%edx
   102d9:	48 8d 35 52 3c 00 00 	lea    0x3c52(%rip),%rsi        # 13f32 <g_2031+0xe8a>
   102e0:	48 89 c7             	mov    %rax,%rdi
   102e3:	e8 0b 94 ff ff       	callq  96f3 <transparent_crc>
   102e8:	0f b7 05 95 7b 00 00 	movzwl 0x7b95(%rip),%eax        # 17e84 <g_831+0x24>
   102ef:	c1 e0 07             	shl    $0x7,%eax
   102f2:	66 c1 f8 07          	sar    $0x7,%ax
   102f6:	48 0f bf c0          	movswq %ax,%rax
   102fa:	8b 55 fc             	mov    -0x4(%rbp),%edx
   102fd:	48 8d 35 37 3c 00 00 	lea    0x3c37(%rip),%rsi        # 13f3b <g_2031+0xe93>
   10304:	48 89 c7             	mov    %rax,%rdi
   10307:	e8 e7 93 ff ff       	callq  96f3 <transparent_crc>
   1030c:	c7 45 f0 00 00 00 00 	movl   $0x0,-0x10(%rbp)
   10313:	e9 9d 00 00 00       	jmpq   103b5 <main+0x1d99>
   10318:	c7 45 f4 00 00 00 00 	movl   $0x0,-0xc(%rbp)
   1031f:	e9 83 00 00 00       	jmpq   103a7 <main+0x1d8b>
   10324:	c7 45 f8 00 00 00 00 	movl   $0x0,-0x8(%rbp)
   1032b:	eb 70                	jmp    1039d <main+0x1d81>
   1032d:	8b 45 f8             	mov    -0x8(%rbp),%eax
   10330:	48 63 f0             	movslq %eax,%rsi
   10333:	8b 45 f4             	mov    -0xc(%rbp),%eax
   10336:	48 63 c8             	movslq %eax,%rcx
   10339:	8b 45 f0             	mov    -0x10(%rbp),%eax
   1033c:	48 63 d0             	movslq %eax,%rdx
   1033f:	48 89 d0             	mov    %rdx,%rax
   10342:	48 c1 e0 02          	shl    $0x2,%rax
   10346:	48 01 d0             	add    %rdx,%rax
   10349:	48 01 c0             	add    %rax,%rax
   1034c:	48 01 f0             	add    %rsi,%rax
   1034f:	48 01 c8             	add    %rcx,%rax
   10352:	48 8d 14 c5 00 00 00 	lea    0x0(,%rax,8),%rdx
   10359:	00 
   1035a:	48 8d 05 3f 7b 00 00 	lea    0x7b3f(%rip),%rax        # 17ea0 <g_885>
   10361:	48 8b 04 02          	mov    (%rdx,%rax,1),%rax
   10365:	8b 55 fc             	mov    -0x4(%rbp),%edx
   10368:	48 8d 35 d5 3b 00 00 	lea    0x3bd5(%rip),%rsi        # 13f44 <g_2031+0xe9c>
   1036f:	48 89 c7             	mov    %rax,%rdi
   10372:	e8 7c 93 ff ff       	callq  96f3 <transparent_crc>
   10377:	83 7d fc 00          	cmpl   $0x0,-0x4(%rbp)
   1037b:	74 1c                	je     10399 <main+0x1d7d>
   1037d:	8b 4d f8             	mov    -0x8(%rbp),%ecx
   10380:	8b 55 f4             	mov    -0xc(%rbp),%edx
   10383:	8b 45 f0             	mov    -0x10(%rbp),%eax
   10386:	89 c6                	mov    %eax,%esi
   10388:	48 8d 3d 73 35 00 00 	lea    0x3573(%rip),%rdi        # 13902 <g_2031+0x85a>
   1038f:	b8 00 00 00 00       	mov    $0x0,%eax
   10394:	e8 e7 7c ff ff       	callq  8080 <printf@plt>
   10399:	83 45 f8 01          	addl   $0x1,-0x8(%rbp)
   1039d:	83 7d f8 00          	cmpl   $0x0,-0x8(%rbp)
   103a1:	7e 8a                	jle    1032d <main+0x1d11>
   103a3:	83 45 f4 01          	addl   $0x1,-0xc(%rbp)
   103a7:	83 7d f4 09          	cmpl   $0x9,-0xc(%rbp)
   103ab:	0f 8e 73 ff ff ff    	jle    10324 <main+0x1d08>
   103b1:	83 45 f0 01          	addl   $0x1,-0x10(%rbp)
   103b5:	83 7d f0 08          	cmpl   $0x8,-0x10(%rbp)
   103b9:	0f 8e 59 ff ff ff    	jle    10318 <main+0x1cfc>
   103bf:	c7 45 f0 00 00 00 00 	movl   $0x0,-0x10(%rbp)
   103c6:	e9 e8 01 00 00       	jmpq   105b3 <main+0x1f97>
   103cb:	c7 45 f4 00 00 00 00 	movl   $0x0,-0xc(%rbp)
   103d2:	e9 ce 01 00 00       	jmpq   105a5 <main+0x1f89>
   103d7:	8b 45 f4             	mov    -0xc(%rbp),%eax
   103da:	48 98                	cltq   
   103dc:	8b 55 f0             	mov    -0x10(%rbp),%edx
   103df:	48 63 ca             	movslq %edx,%rcx
   103e2:	48 89 c2             	mov    %rax,%rdx
   103e5:	48 c1 e2 03          	shl    $0x3,%rdx
   103e9:	48 29 c2             	sub    %rax,%rdx
   103ec:	48 89 c8             	mov    %rcx,%rax
   103ef:	48 c1 e0 03          	shl    $0x3,%rax
   103f3:	48 01 c8             	add    %rcx,%rax
   103f6:	48 c1 e0 02          	shl    $0x2,%rax
   103fa:	48 29 c8             	sub    %rcx,%rax
   103fd:	48 01 c2             	add    %rax,%rdx
   10400:	48 8d 05 79 7d 00 00 	lea    0x7d79(%rip),%rax        # 18180 <g_890>
   10407:	48 01 d0             	add    %rdx,%rax
   1040a:	0f b6 10             	movzbl (%rax),%edx
   1040d:	0f b6 d2             	movzbl %dl,%edx
   10410:	0f b6 40 01          	movzbl 0x1(%rax),%eax
   10414:	0f b6 c0             	movzbl %al,%eax
   10417:	83 e0 1f             	and    $0x1f,%eax
   1041a:	48 c1 e0 08          	shl    $0x8,%rax
   1041e:	48 09 d0             	or     %rdx,%rax
   10421:	48 c1 e0 33          	shl    $0x33,%rax
   10425:	48 c1 f8 33          	sar    $0x33,%rax
   10429:	48 0f bf c0          	movswq %ax,%rax
   1042d:	8b 55 fc             	mov    -0x4(%rbp),%edx
   10430:	48 8d 35 1c 3b 00 00 	lea    0x3b1c(%rip),%rsi        # 13f53 <g_2031+0xeab>
   10437:	48 89 c7             	mov    %rax,%rdi
   1043a:	e8 b4 92 ff ff       	callq  96f3 <transparent_crc>
   1043f:	8b 45 f4             	mov    -0xc(%rbp),%eax
   10442:	48 98                	cltq   
   10444:	8b 55 f0             	mov    -0x10(%rbp),%edx
   10447:	48 63 ca             	movslq %edx,%rcx
   1044a:	48 89 c2             	mov    %rax,%rdx
   1044d:	48 c1 e2 03          	shl    $0x3,%rdx
   10451:	48 29 c2             	sub    %rax,%rdx
   10454:	48 89 c8             	mov    %rcx,%rax
   10457:	48 c1 e0 03          	shl    $0x3,%rax
   1045b:	48 01 c8             	add    %rcx,%rax
   1045e:	48 c1 e0 02          	shl    $0x2,%rax
   10462:	48 29 c8             	sub    %rcx,%rax
   10465:	48 01 c2             	add    %rax,%rdx
   10468:	48 8d 05 11 7d 00 00 	lea    0x7d11(%rip),%rax        # 18180 <g_890>
   1046f:	48 01 d0             	add    %rdx,%rax
   10472:	0f b6 50 01          	movzbl 0x1(%rax),%edx
   10476:	c0 ea 05             	shr    $0x5,%dl
   10479:	0f b6 d2             	movzbl %dl,%edx
   1047c:	0f b6 48 02          	movzbl 0x2(%rax),%ecx
   10480:	0f b6 c9             	movzbl %cl,%ecx
   10483:	48 c1 e1 03          	shl    $0x3,%rcx
   10487:	48 09 ca             	or     %rcx,%rdx
   1048a:	0f b6 40 03          	movzbl 0x3(%rax),%eax
   1048e:	0f b6 c0             	movzbl %al,%eax
   10491:	83 e0 07             	and    $0x7,%eax
   10494:	48 c1 e0 0b          	shl    $0xb,%rax
   10498:	48 09 d0             	or     %rdx,%rax
   1049b:	48 c1 e0 32          	shl    $0x32,%rax
   1049f:	48 c1 f8 32          	sar    $0x32,%rax
   104a3:	48 0f bf c0          	movswq %ax,%rax
   104a7:	8b 55 fc             	mov    -0x4(%rbp),%edx
   104aa:	48 8d 35 b1 3a 00 00 	lea    0x3ab1(%rip),%rsi        # 13f62 <g_2031+0xeba>
   104b1:	48 89 c7             	mov    %rax,%rdi
   104b4:	e8 3a 92 ff ff       	callq  96f3 <transparent_crc>
   104b9:	8b 45 f4             	mov    -0xc(%rbp),%eax
   104bc:	48 98                	cltq   
   104be:	8b 55 f0             	mov    -0x10(%rbp),%edx
   104c1:	48 63 ca             	movslq %edx,%rcx
   104c4:	48 89 c2             	mov    %rax,%rdx
   104c7:	48 c1 e2 03          	shl    $0x3,%rdx
   104cb:	48 29 c2             	sub    %rax,%rdx
   104ce:	48 89 c8             	mov    %rcx,%rax
   104d1:	48 c1 e0 03          	shl    $0x3,%rax
   104d5:	48 01 c8             	add    %rcx,%rax
   104d8:	48 c1 e0 02          	shl    $0x2,%rax
   104dc:	48 29 c8             	sub    %rcx,%rax
   104df:	48 01 c2             	add    %rax,%rdx
   104e2:	48 8d 05 97 7c 00 00 	lea    0x7c97(%rip),%rax        # 18180 <g_890>
   104e9:	48 01 d0             	add    %rdx,%rax
   104ec:	0f b6 50 03          	movzbl 0x3(%rax),%edx
   104f0:	c0 ea 03             	shr    $0x3,%dl
   104f3:	0f b6 d2             	movzbl %dl,%edx
   104f6:	0f b6 48 04          	movzbl 0x4(%rax),%ecx
   104fa:	48 c1 e1 05          	shl    $0x5,%rcx
   104fe:	48 09 d1             	or     %rdx,%rcx
   10501:	0f b6 50 05          	movzbl 0x5(%rax),%edx
   10505:	48 c1 e2 0d          	shl    $0xd,%rdx
   10509:	48 09 ca             	or     %rcx,%rdx
   1050c:	0f b6 40 06          	movzbl 0x6(%rax),%eax
   10510:	83 e0 07             	and    $0x7,%eax
   10513:	48 c1 e0 15          	shl    $0x15,%rax
   10517:	48 09 d0             	or     %rdx,%rax
   1051a:	89 c1                	mov    %eax,%ecx
   1051c:	8b 45 fc             	mov    -0x4(%rbp),%eax
   1051f:	89 c2                	mov    %eax,%edx
   10521:	48 8d 35 49 3a 00 00 	lea    0x3a49(%rip),%rsi        # 13f71 <g_2031+0xec9>
   10528:	48 89 cf             	mov    %rcx,%rdi
   1052b:	e8 c3 91 ff ff       	callq  96f3 <transparent_crc>
   10530:	8b 45 f4             	mov    -0xc(%rbp),%eax
   10533:	48 98                	cltq   
   10535:	8b 55 f0             	mov    -0x10(%rbp),%edx
   10538:	48 63 ca             	movslq %edx,%rcx
   1053b:	48 89 c2             	mov    %rax,%rdx
   1053e:	48 c1 e2 03          	shl    $0x3,%rdx
   10542:	48 29 c2             	sub    %rax,%rdx
   10545:	48 89 c8             	mov    %rcx,%rax
   10548:	48 c1 e0 03          	shl    $0x3,%rax
   1054c:	48 01 c8             	add    %rcx,%rax
   1054f:	48 c1 e0 02          	shl    $0x2,%rax
   10553:	48 29 c8             	sub    %rcx,%rax
   10556:	48 01 c2             	add    %rax,%rdx
   10559:	48 8d 05 20 7c 00 00 	lea    0x7c20(%rip),%rax        # 18180 <g_890>
   10560:	48 01 d0             	add    %rdx,%rax
   10563:	0f b6 40 06          	movzbl 0x6(%rax),%eax
   10567:	01 c0                	add    %eax,%eax
   10569:	c0 f8 04             	sar    $0x4,%al
   1056c:	48 0f be c0          	movsbq %al,%rax
   10570:	8b 55 fc             	mov    -0x4(%rbp),%edx
   10573:	48 8d 35 06 3a 00 00 	lea    0x3a06(%rip),%rsi        # 13f80 <g_2031+0xed8>
   1057a:	48 89 c7             	mov    %rax,%rdi
   1057d:	e8 71 91 ff ff       	callq  96f3 <transparent_crc>
   10582:	83 7d fc 00          	cmpl   $0x0,-0x4(%rbp)
   10586:	74 19                	je     105a1 <main+0x1f85>
   10588:	8b 55 f4             	mov    -0xc(%rbp),%edx
   1058b:	8b 45 f0             	mov    -0x10(%rbp),%eax
   1058e:	89 c6                	mov    %eax,%esi
   10590:	48 8d 3d 66 36 00 00 	lea    0x3666(%rip),%rdi        # 13bfd <g_2031+0xb55>
   10597:	b8 00 00 00 00       	mov    $0x0,%eax
   1059c:	e8 df 7a ff ff       	callq  8080 <printf@plt>
   105a1:	83 45 f4 01          	addl   $0x1,-0xc(%rbp)
   105a5:	83 7d f4 04          	cmpl   $0x4,-0xc(%rbp)
   105a9:	0f 8e 28 fe ff ff    	jle    103d7 <main+0x1dbb>
   105af:	83 45 f0 01          	addl   $0x1,-0x10(%rbp)
   105b3:	83 7d f0 09          	cmpl   $0x9,-0x10(%rbp)
   105b7:	0f 8e 0e fe ff ff    	jle    103cb <main+0x1daf>
   105bd:	0f b6 05 1a 7d 00 00 	movzbl 0x7d1a(%rip),%eax        # 182de <g_891>
   105c4:	0f b6 c0             	movzbl %al,%eax
   105c7:	0f b6 15 11 7d 00 00 	movzbl 0x7d11(%rip),%edx        # 182df <g_891+0x1>
   105ce:	0f b6 d2             	movzbl %dl,%edx
   105d1:	83 e2 1f             	and    $0x1f,%edx
   105d4:	48 c1 e2 08          	shl    $0x8,%rdx
   105d8:	48 09 d0             	or     %rdx,%rax
   105db:	48 c1 e0 33          	shl    $0x33,%rax
   105df:	48 c1 f8 33          	sar    $0x33,%rax
   105e3:	48 0f bf c0          	movswq %ax,%rax
   105e7:	8b 55 fc             	mov    -0x4(%rbp),%edx
   105ea:	48 8d 35 9e 39 00 00 	lea    0x399e(%rip),%rsi        # 13f8f <g_2031+0xee7>
   105f1:	48 89 c7             	mov    %rax,%rdi
   105f4:	e8 fa 90 ff ff       	callq  96f3 <transparent_crc>
   105f9:	0f b6 05 df 7c 00 00 	movzbl 0x7cdf(%rip),%eax        # 182df <g_891+0x1>
   10600:	c0 e8 05             	shr    $0x5,%al
   10603:	0f b6 c0             	movzbl %al,%eax
   10606:	0f b6 15 d3 7c 00 00 	movzbl 0x7cd3(%rip),%edx        # 182e0 <g_891+0x2>
   1060d:	0f b6 d2             	movzbl %dl,%edx
   10610:	48 c1 e2 03          	shl    $0x3,%rdx
   10614:	48 09 c2             	or     %rax,%rdx
   10617:	0f b6 05 c3 7c 00 00 	movzbl 0x7cc3(%rip),%eax        # 182e1 <g_891+0x3>
   1061e:	0f b6 c0             	movzbl %al,%eax
   10621:	83 e0 07             	and    $0x7,%eax
   10624:	48 c1 e0 0b          	shl    $0xb,%rax
   10628:	48 09 d0             	or     %rdx,%rax
   1062b:	48 c1 e0 32          	shl    $0x32,%rax
   1062f:	48 c1 f8 32          	sar    $0x32,%rax
   10633:	48 0f bf c0          	movswq %ax,%rax
   10637:	8b 55 fc             	mov    -0x4(%rbp),%edx
   1063a:	48 8d 35 57 39 00 00 	lea    0x3957(%rip),%rsi        # 13f98 <g_2031+0xef0>
   10641:	48 89 c7             	mov    %rax,%rdi
   10644:	e8 aa 90 ff ff       	callq  96f3 <transparent_crc>
   10649:	0f b6 05 91 7c 00 00 	movzbl 0x7c91(%rip),%eax        # 182e1 <g_891+0x3>
   10650:	c0 e8 03             	shr    $0x3,%al
   10653:	0f b6 c0             	movzbl %al,%eax
   10656:	0f b6 15 85 7c 00 00 	movzbl 0x7c85(%rip),%edx        # 182e2 <g_891+0x4>
   1065d:	48 c1 e2 05          	shl    $0x5,%rdx
   10661:	48 09 c2             	or     %rax,%rdx
   10664:	0f b6 05 78 7c 00 00 	movzbl 0x7c78(%rip),%eax        # 182e3 <g_891+0x5>
   1066b:	48 c1 e0 0d          	shl    $0xd,%rax
   1066f:	48 09 c2             	or     %rax,%rdx
   10672:	0f b6 05 6b 7c 00 00 	movzbl 0x7c6b(%rip),%eax        # 182e4 <g_891+0x6>
   10679:	83 e0 07             	and    $0x7,%eax
   1067c:	48 c1 e0 15          	shl    $0x15,%rax
   10680:	48 09 d0             	or     %rdx,%rax
   10683:	89 c1                	mov    %eax,%ecx
   10685:	8b 45 fc             	mov    -0x4(%rbp),%eax
   10688:	89 c2                	mov    %eax,%edx
   1068a:	48 8d 35 10 39 00 00 	lea    0x3910(%rip),%rsi        # 13fa1 <g_2031+0xef9>
   10691:	48 89 cf             	mov    %rcx,%rdi
   10694:	e8 5a 90 ff ff       	callq  96f3 <transparent_crc>
   10699:	0f b6 05 44 7c 00 00 	movzbl 0x7c44(%rip),%eax        # 182e4 <g_891+0x6>
   106a0:	01 c0                	add    %eax,%eax
   106a2:	c0 f8 04             	sar    $0x4,%al
   106a5:	48 0f be c0          	movsbq %al,%rax
   106a9:	8b 55 fc             	mov    -0x4(%rbp),%edx
   106ac:	48 8d 35 f7 38 00 00 	lea    0x38f7(%rip),%rsi        # 13faa <g_2031+0xf02>
   106b3:	48 89 c7             	mov    %rax,%rdi
   106b6:	e8 38 90 ff ff       	callq  96f3 <transparent_crc>
   106bb:	b8 f6 ff ff ff       	mov    $0xfffffff6,%eax
   106c0:	0f b6 c0             	movzbl %al,%eax
   106c3:	8b 55 fc             	mov    -0x4(%rbp),%edx
   106c6:	48 8d 35 e6 38 00 00 	lea    0x38e6(%rip),%rsi        # 13fb3 <g_2031+0xf0b>
   106cd:	48 89 c7             	mov    %rax,%rdi
   106d0:	e8 1e 90 ff ff       	callq  96f3 <transparent_crc>
   106d5:	0f b6 05 09 7c 00 00 	movzbl 0x7c09(%rip),%eax        # 182e5 <g_906>
   106dc:	0f b6 c0             	movzbl %al,%eax
   106df:	0f b6 15 00 7c 00 00 	movzbl 0x7c00(%rip),%edx        # 182e6 <g_906+0x1>
   106e6:	0f b6 d2             	movzbl %dl,%edx
   106e9:	83 e2 1f             	and    $0x1f,%edx
   106ec:	48 c1 e2 08          	shl    $0x8,%rdx
   106f0:	48 09 d0             	or     %rdx,%rax
   106f3:	48 c1 e0 33          	shl    $0x33,%rax
   106f7:	48 c1 f8 33          	sar    $0x33,%rax
   106fb:	48 0f bf c0          	movswq %ax,%rax
   106ff:	8b 55 fc             	mov    -0x4(%rbp),%edx
   10702:	48 8d 35 b0 38 00 00 	lea    0x38b0(%rip),%rsi        # 13fb9 <g_2031+0xf11>
   10709:	48 89 c7             	mov    %rax,%rdi
   1070c:	e8 e2 8f ff ff       	callq  96f3 <transparent_crc>
   10711:	0f b6 05 ce 7b 00 00 	movzbl 0x7bce(%rip),%eax        # 182e6 <g_906+0x1>
   10718:	c0 e8 05             	shr    $0x5,%al
   1071b:	0f b6 c0             	movzbl %al,%eax
   1071e:	0f b6 15 c2 7b 00 00 	movzbl 0x7bc2(%rip),%edx        # 182e7 <g_906+0x2>
   10725:	0f b6 d2             	movzbl %dl,%edx
   10728:	48 c1 e2 03          	shl    $0x3,%rdx
   1072c:	48 09 c2             	or     %rax,%rdx
   1072f:	0f b6 05 b2 7b 00 00 	movzbl 0x7bb2(%rip),%eax        # 182e8 <g_906+0x3>
   10736:	0f b6 c0             	movzbl %al,%eax
   10739:	83 e0 07             	and    $0x7,%eax
   1073c:	48 c1 e0 0b          	shl    $0xb,%rax
   10740:	48 09 d0             	or     %rdx,%rax
   10743:	48 c1 e0 32          	shl    $0x32,%rax
   10747:	48 c1 f8 32          	sar    $0x32,%rax
   1074b:	48 0f bf c0          	movswq %ax,%rax
   1074f:	8b 55 fc             	mov    -0x4(%rbp),%edx
   10752:	48 8d 35 69 38 00 00 	lea    0x3869(%rip),%rsi        # 13fc2 <g_2031+0xf1a>
   10759:	48 89 c7             	mov    %rax,%rdi
   1075c:	e8 92 8f ff ff       	callq  96f3 <transparent_crc>
   10761:	0f b6 05 80 7b 00 00 	movzbl 0x7b80(%rip),%eax        # 182e8 <g_906+0x3>
   10768:	c0 e8 03             	shr    $0x3,%al
   1076b:	0f b6 c0             	movzbl %al,%eax
   1076e:	0f b6 15 74 7b 00 00 	movzbl 0x7b74(%rip),%edx        # 182e9 <g_906+0x4>
   10775:	48 c1 e2 05          	shl    $0x5,%rdx
   10779:	48 09 c2             	or     %rax,%rdx
   1077c:	0f b6 05 67 7b 00 00 	movzbl 0x7b67(%rip),%eax        # 182ea <g_906+0x5>
   10783:	48 c1 e0 0d          	shl    $0xd,%rax
   10787:	48 09 c2             	or     %rax,%rdx
   1078a:	0f b6 05 5a 7b 00 00 	movzbl 0x7b5a(%rip),%eax        # 182eb <g_906+0x6>
   10791:	83 e0 07             	and    $0x7,%eax
   10794:	48 c1 e0 15          	shl    $0x15,%rax
   10798:	48 09 d0             	or     %rdx,%rax
   1079b:	89 c1                	mov    %eax,%ecx
   1079d:	8b 45 fc             	mov    -0x4(%rbp),%eax
   107a0:	89 c2                	mov    %eax,%edx
   107a2:	48 8d 35 22 38 00 00 	lea    0x3822(%rip),%rsi        # 13fcb <g_2031+0xf23>
   107a9:	48 89 cf             	mov    %rcx,%rdi
   107ac:	e8 42 8f ff ff       	callq  96f3 <transparent_crc>
   107b1:	0f b6 05 33 7b 00 00 	movzbl 0x7b33(%rip),%eax        # 182eb <g_906+0x6>
   107b8:	01 c0                	add    %eax,%eax
   107ba:	c0 f8 04             	sar    $0x4,%al
   107bd:	48 0f be c0          	movsbq %al,%rax
   107c1:	8b 55 fc             	mov    -0x4(%rbp),%edx
   107c4:	48 8d 35 09 38 00 00 	lea    0x3809(%rip),%rsi        # 13fd4 <g_2031+0xf2c>
   107cb:	48 89 c7             	mov    %rax,%rdi
   107ce:	e8 20 8f ff ff       	callq  96f3 <transparent_crc>
   107d3:	0f b6 05 12 7b 00 00 	movzbl 0x7b12(%rip),%eax        # 182ec <g_907>
   107da:	0f b6 c0             	movzbl %al,%eax
   107dd:	0f b6 15 09 7b 00 00 	movzbl 0x7b09(%rip),%edx        # 182ed <g_907+0x1>
   107e4:	0f b6 d2             	movzbl %dl,%edx
   107e7:	83 e2 1f             	and    $0x1f,%edx
   107ea:	48 c1 e2 08          	shl    $0x8,%rdx
   107ee:	48 09 d0             	or     %rdx,%rax
   107f1:	48 c1 e0 33          	shl    $0x33,%rax
   107f5:	48 c1 f8 33          	sar    $0x33,%rax
   107f9:	48 0f bf c0          	movswq %ax,%rax
   107fd:	8b 55 fc             	mov    -0x4(%rbp),%edx
   10800:	48 8d 35 d6 37 00 00 	lea    0x37d6(%rip),%rsi        # 13fdd <g_2031+0xf35>
   10807:	48 89 c7             	mov    %rax,%rdi
   1080a:	e8 e4 8e ff ff       	callq  96f3 <transparent_crc>
   1080f:	0f b6 05 d7 7a 00 00 	movzbl 0x7ad7(%rip),%eax        # 182ed <g_907+0x1>
   10816:	c0 e8 05             	shr    $0x5,%al
   10819:	0f b6 c0             	movzbl %al,%eax
   1081c:	0f b6 15 cb 7a 00 00 	movzbl 0x7acb(%rip),%edx        # 182ee <g_907+0x2>
   10823:	0f b6 d2             	movzbl %dl,%edx
   10826:	48 c1 e2 03          	shl    $0x3,%rdx
   1082a:	48 09 c2             	or     %rax,%rdx
   1082d:	0f b6 05 bb 7a 00 00 	movzbl 0x7abb(%rip),%eax        # 182ef <g_907+0x3>
   10834:	0f b6 c0             	movzbl %al,%eax
   10837:	83 e0 07             	and    $0x7,%eax
   1083a:	48 c1 e0 0b          	shl    $0xb,%rax
   1083e:	48 09 d0             	or     %rdx,%rax
   10841:	48 c1 e0 32          	shl    $0x32,%rax
   10845:	48 c1 f8 32          	sar    $0x32,%rax
   10849:	48 0f bf c0          	movswq %ax,%rax
   1084d:	8b 55 fc             	mov    -0x4(%rbp),%edx
   10850:	48 8d 35 8f 37 00 00 	lea    0x378f(%rip),%rsi        # 13fe6 <g_2031+0xf3e>
   10857:	48 89 c7             	mov    %rax,%rdi
   1085a:	e8 94 8e ff ff       	callq  96f3 <transparent_crc>
   1085f:	0f b6 05 89 7a 00 00 	movzbl 0x7a89(%rip),%eax        # 182ef <g_907+0x3>
   10866:	c0 e8 03             	shr    $0x3,%al
   10869:	0f b6 c0             	movzbl %al,%eax
   1086c:	0f b6 15 7d 7a 00 00 	movzbl 0x7a7d(%rip),%edx        # 182f0 <g_907+0x4>
   10873:	48 c1 e2 05          	shl    $0x5,%rdx
   10877:	48 09 c2             	or     %rax,%rdx
   1087a:	0f b6 05 70 7a 00 00 	movzbl 0x7a70(%rip),%eax        # 182f1 <g_907+0x5>
   10881:	48 c1 e0 0d          	shl    $0xd,%rax
   10885:	48 09 c2             	or     %rax,%rdx
   10888:	0f b6 05 63 7a 00 00 	movzbl 0x7a63(%rip),%eax        # 182f2 <g_907+0x6>
   1088f:	83 e0 07             	and    $0x7,%eax
   10892:	48 c1 e0 15          	shl    $0x15,%rax
   10896:	48 09 d0             	or     %rdx,%rax
   10899:	89 c1                	mov    %eax,%ecx
   1089b:	8b 45 fc             	mov    -0x4(%rbp),%eax
   1089e:	89 c2                	mov    %eax,%edx
   108a0:	48 8d 35 48 37 00 00 	lea    0x3748(%rip),%rsi        # 13fef <g_2031+0xf47>
   108a7:	48 89 cf             	mov    %rcx,%rdi
   108aa:	e8 44 8e ff ff       	callq  96f3 <transparent_crc>
   108af:	0f b6 05 3c 7a 00 00 	movzbl 0x7a3c(%rip),%eax        # 182f2 <g_907+0x6>
   108b6:	01 c0                	add    %eax,%eax
   108b8:	c0 f8 04             	sar    $0x4,%al
   108bb:	48 0f be c0          	movsbq %al,%rax
   108bf:	8b 55 fc             	mov    -0x4(%rbp),%edx
   108c2:	48 8d 35 2f 37 00 00 	lea    0x372f(%rip),%rsi        # 13ff8 <g_2031+0xf50>
   108c9:	48 89 c7             	mov    %rax,%rdi
   108cc:	e8 22 8e ff ff       	callq  96f3 <transparent_crc>
   108d1:	0f b6 05 1b 7a 00 00 	movzbl 0x7a1b(%rip),%eax        # 182f3 <g_933>
   108d8:	0f b6 c0             	movzbl %al,%eax
   108db:	0f b6 15 12 7a 00 00 	movzbl 0x7a12(%rip),%edx        # 182f4 <g_933+0x1>
   108e2:	0f b6 d2             	movzbl %dl,%edx
   108e5:	83 e2 1f             	and    $0x1f,%edx
   108e8:	48 c1 e2 08          	shl    $0x8,%rdx
   108ec:	48 09 d0             	or     %rdx,%rax
   108ef:	48 c1 e0 33          	shl    $0x33,%rax
   108f3:	48 c1 f8 33          	sar    $0x33,%rax
   108f7:	48 0f bf c0          	movswq %ax,%rax
   108fb:	8b 55 fc             	mov    -0x4(%rbp),%edx
   108fe:	48 8d 35 fc 36 00 00 	lea    0x36fc(%rip),%rsi        # 14001 <g_2031+0xf59>
   10905:	48 89 c7             	mov    %rax,%rdi
   10908:	e8 e6 8d ff ff       	callq  96f3 <transparent_crc>
   1090d:	0f b6 05 e0 79 00 00 	movzbl 0x79e0(%rip),%eax        # 182f4 <g_933+0x1>
   10914:	c0 e8 05             	shr    $0x5,%al
   10917:	0f b6 c0             	movzbl %al,%eax
   1091a:	0f b6 15 d4 79 00 00 	movzbl 0x79d4(%rip),%edx        # 182f5 <g_933+0x2>
   10921:	0f b6 d2             	movzbl %dl,%edx
   10924:	48 c1 e2 03          	shl    $0x3,%rdx
   10928:	48 09 c2             	or     %rax,%rdx
   1092b:	0f b6 05 c4 79 00 00 	movzbl 0x79c4(%rip),%eax        # 182f6 <g_933+0x3>
   10932:	0f b6 c0             	movzbl %al,%eax
   10935:	83 e0 07             	and    $0x7,%eax
   10938:	48 c1 e0 0b          	shl    $0xb,%rax
   1093c:	48 09 d0             	or     %rdx,%rax
   1093f:	48 c1 e0 32          	shl    $0x32,%rax
   10943:	48 c1 f8 32          	sar    $0x32,%rax
   10947:	48 0f bf c0          	movswq %ax,%rax
   1094b:	8b 55 fc             	mov    -0x4(%rbp),%edx
   1094e:	48 8d 35 b5 36 00 00 	lea    0x36b5(%rip),%rsi        # 1400a <g_2031+0xf62>
   10955:	48 89 c7             	mov    %rax,%rdi
   10958:	e8 96 8d ff ff       	callq  96f3 <transparent_crc>
   1095d:	0f b6 05 92 79 00 00 	movzbl 0x7992(%rip),%eax        # 182f6 <g_933+0x3>
   10964:	c0 e8 03             	shr    $0x3,%al
   10967:	0f b6 c0             	movzbl %al,%eax
   1096a:	0f b6 15 86 79 00 00 	movzbl 0x7986(%rip),%edx        # 182f7 <g_933+0x4>
   10971:	0f b6 d2             	movzbl %dl,%edx
   10974:	48 c1 e2 05          	shl    $0x5,%rdx
   10978:	48 09 c2             	or     %rax,%rdx
   1097b:	0f b6 05 76 79 00 00 	movzbl 0x7976(%rip),%eax        # 182f8 <g_933+0x5>
   10982:	0f b6 c0             	movzbl %al,%eax
   10985:	48 c1 e0 0d          	shl    $0xd,%rax
   10989:	48 09 c2             	or     %rax,%rdx
   1098c:	0f b6 05 66 79 00 00 	movzbl 0x7966(%rip),%eax        # 182f9 <g_933+0x6>
   10993:	0f b6 c0             	movzbl %al,%eax
   10996:	83 e0 07             	and    $0x7,%eax
   10999:	48 c1 e0 15          	shl    $0x15,%rax
   1099d:	48 09 d0             	or     %rdx,%rax
   109a0:	89 c1                	mov    %eax,%ecx
   109a2:	8b 45 fc             	mov    -0x4(%rbp),%eax
   109a5:	89 c2                	mov    %eax,%edx
   109a7:	48 8d 35 65 36 00 00 	lea    0x3665(%rip),%rsi        # 14013 <g_2031+0xf6b>
   109ae:	48 89 cf             	mov    %rcx,%rdi
   109b1:	e8 3d 8d ff ff       	callq  96f3 <transparent_crc>
   109b6:	0f b6 05 3c 79 00 00 	movzbl 0x793c(%rip),%eax        # 182f9 <g_933+0x6>
   109bd:	01 c0                	add    %eax,%eax
   109bf:	c0 f8 04             	sar    $0x4,%al
   109c2:	48 0f be c0          	movsbq %al,%rax
   109c6:	8b 55 fc             	mov    -0x4(%rbp),%edx
   109c9:	48 8d 35 4c 36 00 00 	lea    0x364c(%rip),%rsi        # 1401c <g_2031+0xf74>
   109d0:	48 89 c7             	mov    %rax,%rdi
   109d3:	e8 1b 8d ff ff       	callq  96f3 <transparent_crc>
   109d8:	0f b6 05 1b 79 00 00 	movzbl 0x791b(%rip),%eax        # 182fa <g_956>
   109df:	0f b6 c0             	movzbl %al,%eax
   109e2:	0f b6 15 12 79 00 00 	movzbl 0x7912(%rip),%edx        # 182fb <g_956+0x1>
   109e9:	0f b6 d2             	movzbl %dl,%edx
   109ec:	83 e2 1f             	and    $0x1f,%edx
   109ef:	48 c1 e2 08          	shl    $0x8,%rdx
   109f3:	48 09 d0             	or     %rdx,%rax
   109f6:	48 c1 e0 33          	shl    $0x33,%rax
   109fa:	48 c1 f8 33          	sar    $0x33,%rax
   109fe:	48 0f bf c0          	movswq %ax,%rax
   10a02:	8b 55 fc             	mov    -0x4(%rbp),%edx
   10a05:	48 8d 35 19 36 00 00 	lea    0x3619(%rip),%rsi        # 14025 <g_2031+0xf7d>
   10a0c:	48 89 c7             	mov    %rax,%rdi
   10a0f:	e8 df 8c ff ff       	callq  96f3 <transparent_crc>
   10a14:	0f b6 05 e0 78 00 00 	movzbl 0x78e0(%rip),%eax        # 182fb <g_956+0x1>
   10a1b:	c0 e8 05             	shr    $0x5,%al
   10a1e:	0f b6 c0             	movzbl %al,%eax
   10a21:	0f b6 15 d4 78 00 00 	movzbl 0x78d4(%rip),%edx        # 182fc <g_956+0x2>
   10a28:	0f b6 d2             	movzbl %dl,%edx
   10a2b:	48 c1 e2 03          	shl    $0x3,%rdx
   10a2f:	48 09 c2             	or     %rax,%rdx
   10a32:	0f b6 05 c4 78 00 00 	movzbl 0x78c4(%rip),%eax        # 182fd <g_956+0x3>
   10a39:	0f b6 c0             	movzbl %al,%eax
   10a3c:	83 e0 07             	and    $0x7,%eax
   10a3f:	48 c1 e0 0b          	shl    $0xb,%rax
   10a43:	48 09 d0             	or     %rdx,%rax
   10a46:	48 c1 e0 32          	shl    $0x32,%rax
   10a4a:	48 c1 f8 32          	sar    $0x32,%rax
   10a4e:	48 0f bf c0          	movswq %ax,%rax
   10a52:	8b 55 fc             	mov    -0x4(%rbp),%edx
   10a55:	48 8d 35 d2 35 00 00 	lea    0x35d2(%rip),%rsi        # 1402e <g_2031+0xf86>
   10a5c:	48 89 c7             	mov    %rax,%rdi
   10a5f:	e8 8f 8c ff ff       	callq  96f3 <transparent_crc>
   10a64:	0f b6 05 92 78 00 00 	movzbl 0x7892(%rip),%eax        # 182fd <g_956+0x3>
   10a6b:	c0 e8 03             	shr    $0x3,%al
   10a6e:	0f b6 c0             	movzbl %al,%eax
   10a71:	0f b6 15 86 78 00 00 	movzbl 0x7886(%rip),%edx        # 182fe <g_956+0x4>
   10a78:	48 c1 e2 05          	shl    $0x5,%rdx
   10a7c:	48 09 c2             	or     %rax,%rdx
   10a7f:	0f b6 05 79 78 00 00 	movzbl 0x7879(%rip),%eax        # 182ff <g_956+0x5>
   10a86:	48 c1 e0 0d          	shl    $0xd,%rax
   10a8a:	48 09 c2             	or     %rax,%rdx
   10a8d:	0f b6 05 6c 78 00 00 	movzbl 0x786c(%rip),%eax        # 18300 <g_956+0x6>
   10a94:	83 e0 07             	and    $0x7,%eax
   10a97:	48 c1 e0 15          	shl    $0x15,%rax
   10a9b:	48 09 d0             	or     %rdx,%rax
   10a9e:	89 c1                	mov    %eax,%ecx
   10aa0:	8b 45 fc             	mov    -0x4(%rbp),%eax
   10aa3:	89 c2                	mov    %eax,%edx
   10aa5:	48 8d 35 8b 35 00 00 	lea    0x358b(%rip),%rsi        # 14037 <g_2031+0xf8f>
   10aac:	48 89 cf             	mov    %rcx,%rdi
   10aaf:	e8 3f 8c ff ff       	callq  96f3 <transparent_crc>
   10ab4:	0f b6 05 45 78 00 00 	movzbl 0x7845(%rip),%eax        # 18300 <g_956+0x6>
   10abb:	01 c0                	add    %eax,%eax
   10abd:	c0 f8 04             	sar    $0x4,%al
   10ac0:	48 0f be c0          	movsbq %al,%rax
   10ac4:	8b 55 fc             	mov    -0x4(%rbp),%edx
   10ac7:	48 8d 35 72 35 00 00 	lea    0x3572(%rip),%rsi        # 14040 <g_2031+0xf98>
   10ace:	48 89 c7             	mov    %rax,%rdi
   10ad1:	e8 1d 8c ff ff       	callq  96f3 <transparent_crc>
   10ad6:	8b 05 54 b0 00 00    	mov    0xb054(%rip),%eax        # 1bb30 <g_1002>
   10adc:	89 c1                	mov    %eax,%ecx
   10ade:	8b 45 fc             	mov    -0x4(%rbp),%eax
   10ae1:	89 c2                	mov    %eax,%edx
   10ae3:	48 8d 35 5f 35 00 00 	lea    0x355f(%rip),%rsi        # 14049 <g_2031+0xfa1>
   10aea:	48 89 cf             	mov    %rcx,%rdi
   10aed:	e8 01 8c ff ff       	callq  96f3 <transparent_crc>
   10af2:	8b 05 28 78 00 00    	mov    0x7828(%rip),%eax        # 18320 <g_1122>
   10af8:	89 c1                	mov    %eax,%ecx
   10afa:	8b 45 fc             	mov    -0x4(%rbp),%eax
   10afd:	89 c2                	mov    %eax,%edx
   10aff:	48 8d 35 4a 35 00 00 	lea    0x354a(%rip),%rsi        # 14050 <g_2031+0xfa8>
   10b06:	48 89 cf             	mov    %rcx,%rdi
   10b09:	e8 e5 8b ff ff       	callq  96f3 <transparent_crc>
   10b0e:	8b 05 10 78 00 00    	mov    0x7810(%rip),%eax        # 18324 <g_1122+0x4>
   10b14:	89 c1                	mov    %eax,%ecx
   10b16:	8b 45 fc             	mov    -0x4(%rbp),%eax
   10b19:	89 c2                	mov    %eax,%edx
   10b1b:	48 8d 35 38 35 00 00 	lea    0x3538(%rip),%rsi        # 1405a <g_2031+0xfb2>
   10b22:	48 89 cf             	mov    %rcx,%rdi
   10b25:	e8 c9 8b ff ff       	callq  96f3 <transparent_crc>
   10b2a:	48 8b 05 f7 77 00 00 	mov    0x77f7(%rip),%rax        # 18328 <g_1122+0x8>
   10b31:	8b 55 fc             	mov    -0x4(%rbp),%edx
   10b34:	48 8d 35 29 35 00 00 	lea    0x3529(%rip),%rsi        # 14064 <g_2031+0xfbc>
   10b3b:	48 89 c7             	mov    %rax,%rdi
   10b3e:	e8 b0 8b ff ff       	callq  96f3 <transparent_crc>
   10b43:	0f b7 05 e6 77 00 00 	movzwl 0x77e6(%rip),%eax        # 18330 <g_1122+0x10>
   10b4a:	48 0f bf c0          	movswq %ax,%rax
   10b4e:	8b 55 fc             	mov    -0x4(%rbp),%edx
   10b51:	48 8d 35 16 35 00 00 	lea    0x3516(%rip),%rsi        # 1406e <g_2031+0xfc6>
   10b58:	48 89 c7             	mov    %rax,%rdi
   10b5b:	e8 93 8b ff ff       	callq  96f3 <transparent_crc>
   10b60:	8b 05 ce 77 00 00    	mov    0x77ce(%rip),%eax        # 18334 <g_1122+0x14>
   10b66:	48 98                	cltq   
   10b68:	8b 55 fc             	mov    -0x4(%rbp),%edx
   10b6b:	48 8d 35 06 35 00 00 	lea    0x3506(%rip),%rsi        # 14078 <g_2031+0xfd0>
   10b72:	48 89 c7             	mov    %rax,%rdi
   10b75:	e8 79 8b ff ff       	callq  96f3 <transparent_crc>
   10b7a:	8b 05 b8 77 00 00    	mov    0x77b8(%rip),%eax        # 18338 <g_1122+0x18>
   10b80:	89 c1                	mov    %eax,%ecx
   10b82:	8b 45 fc             	mov    -0x4(%rbp),%eax
   10b85:	89 c2                	mov    %eax,%edx
   10b87:	48 8d 35 f4 34 00 00 	lea    0x34f4(%rip),%rsi        # 14082 <g_2031+0xfda>
   10b8e:	48 89 cf             	mov    %rcx,%rdi
   10b91:	e8 5d 8b ff ff       	callq  96f3 <transparent_crc>
   10b96:	8b 05 a0 77 00 00    	mov    0x77a0(%rip),%eax        # 1833c <g_1122+0x1c>
   10b9c:	48 98                	cltq   
   10b9e:	8b 55 fc             	mov    -0x4(%rbp),%edx
   10ba1:	48 8d 35 e4 34 00 00 	lea    0x34e4(%rip),%rsi        # 1408c <g_2031+0xfe4>
   10ba8:	48 89 c7             	mov    %rax,%rdi
   10bab:	e8 43 8b ff ff       	callq  96f3 <transparent_crc>
   10bb0:	8b 05 8a 77 00 00    	mov    0x778a(%rip),%eax        # 18340 <g_1122+0x20>
   10bb6:	48 98                	cltq   
   10bb8:	8b 55 fc             	mov    -0x4(%rbp),%edx
   10bbb:	48 8d 35 d4 34 00 00 	lea    0x34d4(%rip),%rsi        # 14096 <g_2031+0xfee>
   10bc2:	48 89 c7             	mov    %rax,%rdi
   10bc5:	e8 29 8b ff ff       	callq  96f3 <transparent_crc>
   10bca:	0f b7 05 73 77 00 00 	movzwl 0x7773(%rip),%eax        # 18344 <g_1122+0x24>
   10bd1:	c1 e0 07             	shl    $0x7,%eax
   10bd4:	66 c1 f8 07          	sar    $0x7,%ax
   10bd8:	48 0f bf c0          	movswq %ax,%rax
   10bdc:	8b 55 fc             	mov    -0x4(%rbp),%edx
   10bdf:	48 8d 35 ba 34 00 00 	lea    0x34ba(%rip),%rsi        # 140a0 <g_2031+0xff8>
   10be6:	48 89 c7             	mov    %rax,%rdi
   10be9:	e8 05 8b ff ff       	callq  96f3 <transparent_crc>
   10bee:	c7 45 f0 00 00 00 00 	movl   $0x0,-0x10(%rbp)
   10bf5:	e9 10 02 00 00       	jmpq   10e0a <main+0x27ee>
   10bfa:	8b 45 f0             	mov    -0x10(%rbp),%eax
   10bfd:	48 63 d0             	movslq %eax,%rdx
   10c00:	48 89 d0             	mov    %rdx,%rax
   10c03:	48 c1 e0 02          	shl    $0x2,%rax
   10c07:	48 01 d0             	add    %rdx,%rax
   10c0a:	48 c1 e0 03          	shl    $0x3,%rax
   10c0e:	48 89 c2             	mov    %rax,%rdx
   10c11:	48 8d 05 48 77 00 00 	lea    0x7748(%rip),%rax        # 18360 <g_1267>
   10c18:	8b 04 02             	mov    (%rdx,%rax,1),%eax
   10c1b:	89 c1                	mov    %eax,%ecx
   10c1d:	8b 45 fc             	mov    -0x4(%rbp),%eax
   10c20:	89 c2                	mov    %eax,%edx
   10c22:	48 8d 35 81 34 00 00 	lea    0x3481(%rip),%rsi        # 140aa <g_2031+0x1002>
   10c29:	48 89 cf             	mov    %rcx,%rdi
   10c2c:	e8 c2 8a ff ff       	callq  96f3 <transparent_crc>
   10c31:	8b 45 f0             	mov    -0x10(%rbp),%eax
   10c34:	48 63 d0             	movslq %eax,%rdx
   10c37:	48 89 d0             	mov    %rdx,%rax
   10c3a:	48 c1 e0 02          	shl    $0x2,%rax
   10c3e:	48 01 d0             	add    %rdx,%rax
   10c41:	48 c1 e0 03          	shl    $0x3,%rax
   10c45:	48 89 c2             	mov    %rax,%rdx
   10c48:	48 8d 05 15 77 00 00 	lea    0x7715(%rip),%rax        # 18364 <g_1267+0x4>
   10c4f:	8b 04 02             	mov    (%rdx,%rax,1),%eax
   10c52:	89 c1                	mov    %eax,%ecx
   10c54:	8b 45 fc             	mov    -0x4(%rbp),%eax
   10c57:	89 c2                	mov    %eax,%edx
   10c59:	48 8d 35 57 34 00 00 	lea    0x3457(%rip),%rsi        # 140b7 <g_2031+0x100f>
   10c60:	48 89 cf             	mov    %rcx,%rdi
   10c63:	e8 8b 8a ff ff       	callq  96f3 <transparent_crc>
   10c68:	8b 45 f0             	mov    -0x10(%rbp),%eax
   10c6b:	48 63 d0             	movslq %eax,%rdx
   10c6e:	48 89 d0             	mov    %rdx,%rax
   10c71:	48 c1 e0 02          	shl    $0x2,%rax
   10c75:	48 01 d0             	add    %rdx,%rax
   10c78:	48 c1 e0 03          	shl    $0x3,%rax
   10c7c:	48 89 c2             	mov    %rax,%rdx
   10c7f:	48 8d 05 e2 76 00 00 	lea    0x76e2(%rip),%rax        # 18368 <g_1267+0x8>
   10c86:	48 8b 04 02          	mov    (%rdx,%rax,1),%rax
   10c8a:	8b 55 fc             	mov    -0x4(%rbp),%edx
   10c8d:	48 8d 35 30 34 00 00 	lea    0x3430(%rip),%rsi        # 140c4 <g_2031+0x101c>
   10c94:	48 89 c7             	mov    %rax,%rdi
   10c97:	e8 57 8a ff ff       	callq  96f3 <transparent_crc>
   10c9c:	8b 45 f0             	mov    -0x10(%rbp),%eax
   10c9f:	48 63 d0             	movslq %eax,%rdx
   10ca2:	48 89 d0             	mov    %rdx,%rax
   10ca5:	48 c1 e0 02          	shl    $0x2,%rax
   10ca9:	48 01 d0             	add    %rdx,%rax
   10cac:	48 c1 e0 03          	shl    $0x3,%rax
   10cb0:	48 89 c2             	mov    %rax,%rdx
   10cb3:	48 8d 05 b6 76 00 00 	lea    0x76b6(%rip),%rax        # 18370 <g_1267+0x10>
   10cba:	0f b7 04 02          	movzwl (%rdx,%rax,1),%eax
   10cbe:	48 0f bf c0          	movswq %ax,%rax
   10cc2:	8b 55 fc             	mov    -0x4(%rbp),%edx
   10cc5:	48 8d 35 05 34 00 00 	lea    0x3405(%rip),%rsi        # 140d1 <g_2031+0x1029>
   10ccc:	48 89 c7             	mov    %rax,%rdi
   10ccf:	e8 1f 8a ff ff       	callq  96f3 <transparent_crc>
   10cd4:	8b 45 f0             	mov    -0x10(%rbp),%eax
   10cd7:	48 63 d0             	movslq %eax,%rdx
   10cda:	48 89 d0             	mov    %rdx,%rax
   10cdd:	48 c1 e0 02          	shl    $0x2,%rax
   10ce1:	48 01 d0             	add    %rdx,%rax
   10ce4:	48 c1 e0 03          	shl    $0x3,%rax
   10ce8:	48 89 c2             	mov    %rax,%rdx
   10ceb:	48 8d 05 82 76 00 00 	lea    0x7682(%rip),%rax        # 18374 <g_1267+0x14>
   10cf2:	8b 04 02             	mov    (%rdx,%rax,1),%eax
   10cf5:	48 98                	cltq   
   10cf7:	8b 55 fc             	mov    -0x4(%rbp),%edx
   10cfa:	48 8d 35 dd 33 00 00 	lea    0x33dd(%rip),%rsi        # 140de <g_2031+0x1036>
   10d01:	48 89 c7             	mov    %rax,%rdi
   10d04:	e8 ea 89 ff ff       	callq  96f3 <transparent_crc>
   10d09:	8b 45 f0             	mov    -0x10(%rbp),%eax
   10d0c:	48 63 d0             	movslq %eax,%rdx
   10d0f:	48 89 d0             	mov    %rdx,%rax
   10d12:	48 c1 e0 02          	shl    $0x2,%rax
   10d16:	48 01 d0             	add    %rdx,%rax
   10d19:	48 c1 e0 03          	shl    $0x3,%rax
   10d1d:	48 89 c2             	mov    %rax,%rdx
   10d20:	48 8d 05 51 76 00 00 	lea    0x7651(%rip),%rax        # 18378 <g_1267+0x18>
   10d27:	8b 04 02             	mov    (%rdx,%rax,1),%eax
   10d2a:	89 c1                	mov    %eax,%ecx
   10d2c:	8b 45 fc             	mov    -0x4(%rbp),%eax
   10d2f:	89 c2                	mov    %eax,%edx
   10d31:	48 8d 35 b3 33 00 00 	lea    0x33b3(%rip),%rsi        # 140eb <g_2031+0x1043>
   10d38:	48 89 cf             	mov    %rcx,%rdi
   10d3b:	e8 b3 89 ff ff       	callq  96f3 <transparent_crc>
   10d40:	8b 45 f0             	mov    -0x10(%rbp),%eax
   10d43:	48 63 d0             	movslq %eax,%rdx
   10d46:	48 89 d0             	mov    %rdx,%rax
   10d49:	48 c1 e0 02          	shl    $0x2,%rax
   10d4d:	48 01 d0             	add    %rdx,%rax
   10d50:	48 c1 e0 03          	shl    $0x3,%rax
   10d54:	48 89 c2             	mov    %rax,%rdx
   10d57:	48 8d 05 1e 76 00 00 	lea    0x761e(%rip),%rax        # 1837c <g_1267+0x1c>
   10d5e:	8b 04 02             	mov    (%rdx,%rax,1),%eax
   10d61:	48 98                	cltq   
   10d63:	8b 55 fc             	mov    -0x4(%rbp),%edx
   10d66:	48 8d 35 8b 33 00 00 	lea    0x338b(%rip),%rsi        # 140f8 <g_2031+0x1050>
   10d6d:	48 89 c7             	mov    %rax,%rdi
   10d70:	e8 7e 89 ff ff       	callq  96f3 <transparent_crc>
   10d75:	8b 45 f0             	mov    -0x10(%rbp),%eax
   10d78:	48 63 d0             	movslq %eax,%rdx
   10d7b:	48 89 d0             	mov    %rdx,%rax
   10d7e:	48 c1 e0 02          	shl    $0x2,%rax
   10d82:	48 01 d0             	add    %rdx,%rax
   10d85:	48 c1 e0 03          	shl    $0x3,%rax
   10d89:	48 89 c2             	mov    %rax,%rdx
   10d8c:	48 8d 05 ed 75 00 00 	lea    0x75ed(%rip),%rax        # 18380 <g_1267+0x20>
   10d93:	8b 04 02             	mov    (%rdx,%rax,1),%eax
   10d96:	48 98                	cltq   
   10d98:	8b 55 fc             	mov    -0x4(%rbp),%edx
   10d9b:	48 8d 35 63 33 00 00 	lea    0x3363(%rip),%rsi        # 14105 <g_2031+0x105d>
   10da2:	48 89 c7             	mov    %rax,%rdi
   10da5:	e8 49 89 ff ff       	callq  96f3 <transparent_crc>
   10daa:	8b 45 f0             	mov    -0x10(%rbp),%eax
   10dad:	48 63 d0             	movslq %eax,%rdx
   10db0:	48 89 d0             	mov    %rdx,%rax
   10db3:	48 c1 e0 02          	shl    $0x2,%rax
   10db7:	48 01 d0             	add    %rdx,%rax
   10dba:	48 c1 e0 03          	shl    $0x3,%rax
   10dbe:	48 89 c2             	mov    %rax,%rdx
   10dc1:	48 8d 05 b8 75 00 00 	lea    0x75b8(%rip),%rax        # 18380 <g_1267+0x20>
   10dc8:	48 8b 04 02          	mov    (%rdx,%rax,1),%rax
   10dcc:	48 c1 e0 17          	shl    $0x17,%rax
   10dd0:	48 c1 f8 37          	sar    $0x37,%rax
   10dd4:	48 0f bf c0          	movswq %ax,%rax
   10dd8:	8b 55 fc             	mov    -0x4(%rbp),%edx
   10ddb:	48 8d 35 30 33 00 00 	lea    0x3330(%rip),%rsi        # 14112 <g_2031+0x106a>
   10de2:	48 89 c7             	mov    %rax,%rdi
   10de5:	e8 09 89 ff ff       	callq  96f3 <transparent_crc>
   10dea:	83 7d fc 00          	cmpl   $0x0,-0x4(%rbp)
   10dee:	74 16                	je     10e06 <main+0x27ea>
   10df0:	8b 45 f0             	mov    -0x10(%rbp),%eax
   10df3:	89 c6                	mov    %eax,%esi
   10df5:	48 8d 3d 49 2e 00 00 	lea    0x2e49(%rip),%rdi        # 13c45 <g_2031+0xb9d>
   10dfc:	b8 00 00 00 00       	mov    $0x0,%eax
   10e01:	e8 7a 72 ff ff       	callq  8080 <printf@plt>
   10e06:	83 45 f0 01          	addl   $0x1,-0x10(%rbp)
   10e0a:	83 7d f0 00          	cmpl   $0x0,-0x10(%rbp)
   10e0e:	0f 8e e6 fd ff ff    	jle    10bfa <main+0x25de>
   10e14:	c7 45 f0 00 00 00 00 	movl   $0x0,-0x10(%rbp)
   10e1b:	eb 4d                	jmp    10e6a <main+0x284e>
   10e1d:	8b 45 f0             	mov    -0x10(%rbp),%eax
   10e20:	48 98                	cltq   
   10e22:	48 8d 14 85 00 00 00 	lea    0x0(,%rax,4),%rdx
   10e29:	00 
   10e2a:	48 8d 05 57 75 00 00 	lea    0x7557(%rip),%rax        # 18388 <g_1311>
   10e31:	8b 04 02             	mov    (%rdx,%rax,1),%eax
   10e34:	89 c1                	mov    %eax,%ecx
   10e36:	8b 45 fc             	mov    -0x4(%rbp),%eax
   10e39:	89 c2                	mov    %eax,%edx
   10e3b:	48 8d 35 dd 32 00 00 	lea    0x32dd(%rip),%rsi        # 1411f <g_2031+0x1077>
   10e42:	48 89 cf             	mov    %rcx,%rdi
   10e45:	e8 a9 88 ff ff       	callq  96f3 <transparent_crc>
   10e4a:	83 7d fc 00          	cmpl   $0x0,-0x4(%rbp)
   10e4e:	74 16                	je     10e66 <main+0x284a>
   10e50:	8b 45 f0             	mov    -0x10(%rbp),%eax
   10e53:	89 c6                	mov    %eax,%esi
   10e55:	48 8d 3d e9 2d 00 00 	lea    0x2de9(%rip),%rdi        # 13c45 <g_2031+0xb9d>
   10e5c:	b8 00 00 00 00       	mov    $0x0,%eax
   10e61:	e8 1a 72 ff ff       	callq  8080 <printf@plt>
   10e66:	83 45 f0 01          	addl   $0x1,-0x10(%rbp)
   10e6a:	83 7d f0 01          	cmpl   $0x1,-0x10(%rbp)
   10e6e:	7e ad                	jle    10e1d <main+0x2801>
   10e70:	8b 05 2a 75 00 00    	mov    0x752a(%rip),%eax        # 183a0 <g_1318>
   10e76:	89 c1                	mov    %eax,%ecx
   10e78:	8b 45 fc             	mov    -0x4(%rbp),%eax
   10e7b:	89 c2                	mov    %eax,%edx
   10e7d:	48 8d 35 a5 32 00 00 	lea    0x32a5(%rip),%rsi        # 14129 <g_2031+0x1081>
   10e84:	48 89 cf             	mov    %rcx,%rdi
   10e87:	e8 67 88 ff ff       	callq  96f3 <transparent_crc>
   10e8c:	8b 05 12 75 00 00    	mov    0x7512(%rip),%eax        # 183a4 <g_1318+0x4>
   10e92:	89 c1                	mov    %eax,%ecx
   10e94:	8b 45 fc             	mov    -0x4(%rbp),%eax
   10e97:	89 c2                	mov    %eax,%edx
   10e99:	48 8d 35 93 32 00 00 	lea    0x3293(%rip),%rsi        # 14133 <g_2031+0x108b>
   10ea0:	48 89 cf             	mov    %rcx,%rdi
   10ea3:	e8 4b 88 ff ff       	callq  96f3 <transparent_crc>
   10ea8:	48 8b 05 f9 74 00 00 	mov    0x74f9(%rip),%rax        # 183a8 <g_1318+0x8>
   10eaf:	8b 55 fc             	mov    -0x4(%rbp),%edx
   10eb2:	48 8d 35 84 32 00 00 	lea    0x3284(%rip),%rsi        # 1413d <g_2031+0x1095>
   10eb9:	48 89 c7             	mov    %rax,%rdi
   10ebc:	e8 32 88 ff ff       	callq  96f3 <transparent_crc>
   10ec1:	0f b7 05 e8 74 00 00 	movzwl 0x74e8(%rip),%eax        # 183b0 <g_1318+0x10>
   10ec8:	48 0f bf c0          	movswq %ax,%rax
   10ecc:	8b 55 fc             	mov    -0x4(%rbp),%edx
   10ecf:	48 8d 35 71 32 00 00 	lea    0x3271(%rip),%rsi        # 14147 <g_2031+0x109f>
   10ed6:	48 89 c7             	mov    %rax,%rdi
   10ed9:	e8 15 88 ff ff       	callq  96f3 <transparent_crc>
   10ede:	8b 05 d0 74 00 00    	mov    0x74d0(%rip),%eax        # 183b4 <g_1318+0x14>
   10ee4:	48 98                	cltq   
   10ee6:	8b 55 fc             	mov    -0x4(%rbp),%edx
   10ee9:	48 8d 35 61 32 00 00 	lea    0x3261(%rip),%rsi        # 14151 <g_2031+0x10a9>
   10ef0:	48 89 c7             	mov    %rax,%rdi
   10ef3:	e8 fb 87 ff ff       	callq  96f3 <transparent_crc>
   10ef8:	8b 05 ba 74 00 00    	mov    0x74ba(%rip),%eax        # 183b8 <g_1318+0x18>
   10efe:	89 c1                	mov    %eax,%ecx
   10f00:	8b 45 fc             	mov    -0x4(%rbp),%eax
   10f03:	89 c2                	mov    %eax,%edx
   10f05:	48 8d 35 4f 32 00 00 	lea    0x324f(%rip),%rsi        # 1415b <g_2031+0x10b3>
   10f0c:	48 89 cf             	mov    %rcx,%rdi
   10f0f:	e8 df 87 ff ff       	callq  96f3 <transparent_crc>
   10f14:	8b 05 a2 74 00 00    	mov    0x74a2(%rip),%eax        # 183bc <g_1318+0x1c>
   10f1a:	48 98                	cltq   
   10f1c:	8b 55 fc             	mov    -0x4(%rbp),%edx
   10f1f:	48 8d 35 3f 32 00 00 	lea    0x323f(%rip),%rsi        # 14165 <g_2031+0x10bd>
   10f26:	48 89 c7             	mov    %rax,%rdi
   10f29:	e8 c5 87 ff ff       	callq  96f3 <transparent_crc>
   10f2e:	8b 05 8c 74 00 00    	mov    0x748c(%rip),%eax        # 183c0 <g_1318+0x20>
   10f34:	48 98                	cltq   
   10f36:	8b 55 fc             	mov    -0x4(%rbp),%edx
   10f39:	48 8d 35 2f 32 00 00 	lea    0x322f(%rip),%rsi        # 1416f <g_2031+0x10c7>
   10f40:	48 89 c7             	mov    %rax,%rdi
   10f43:	e8 ab 87 ff ff       	callq  96f3 <transparent_crc>
   10f48:	0f b7 05 75 74 00 00 	movzwl 0x7475(%rip),%eax        # 183c4 <g_1318+0x24>
   10f4f:	c1 e0 07             	shl    $0x7,%eax
   10f52:	66 c1 f8 07          	sar    $0x7,%ax
   10f56:	48 0f bf c0          	movswq %ax,%rax
   10f5a:	8b 55 fc             	mov    -0x4(%rbp),%edx
   10f5d:	48 8d 35 15 32 00 00 	lea    0x3215(%rip),%rsi        # 14179 <g_2031+0x10d1>
   10f64:	48 89 c7             	mov    %rax,%rdi
   10f67:	e8 87 87 ff ff       	callq  96f3 <transparent_crc>
   10f6c:	0f b6 05 55 74 00 00 	movzbl 0x7455(%rip),%eax        # 183c8 <g_1365>
   10f73:	0f b6 c0             	movzbl %al,%eax
   10f76:	0f b6 15 4c 74 00 00 	movzbl 0x744c(%rip),%edx        # 183c9 <g_1365+0x1>
   10f7d:	0f b6 d2             	movzbl %dl,%edx
   10f80:	83 e2 1f             	and    $0x1f,%edx
   10f83:	48 c1 e2 08          	shl    $0x8,%rdx
   10f87:	48 09 d0             	or     %rdx,%rax
   10f8a:	48 c1 e0 33          	shl    $0x33,%rax
   10f8e:	48 c1 f8 33          	sar    $0x33,%rax
   10f92:	48 0f bf c0          	movswq %ax,%rax
   10f96:	8b 55 fc             	mov    -0x4(%rbp),%edx
   10f99:	48 8d 35 e3 31 00 00 	lea    0x31e3(%rip),%rsi        # 14183 <g_2031+0x10db>
   10fa0:	48 89 c7             	mov    %rax,%rdi
   10fa3:	e8 4b 87 ff ff       	callq  96f3 <transparent_crc>
   10fa8:	0f b6 05 1a 74 00 00 	movzbl 0x741a(%rip),%eax        # 183c9 <g_1365+0x1>
   10faf:	c0 e8 05             	shr    $0x5,%al
   10fb2:	0f b6 c0             	movzbl %al,%eax
   10fb5:	0f b6 15 0e 74 00 00 	movzbl 0x740e(%rip),%edx        # 183ca <g_1365+0x2>
   10fbc:	0f b6 d2             	movzbl %dl,%edx
   10fbf:	48 c1 e2 03          	shl    $0x3,%rdx
   10fc3:	48 09 c2             	or     %rax,%rdx
   10fc6:	0f b6 05 fe 73 00 00 	movzbl 0x73fe(%rip),%eax        # 183cb <g_1365+0x3>
   10fcd:	0f b6 c0             	movzbl %al,%eax
   10fd0:	83 e0 07             	and    $0x7,%eax
   10fd3:	48 c1 e0 0b          	shl    $0xb,%rax
   10fd7:	48 09 d0             	or     %rdx,%rax
   10fda:	48 c1 e0 32          	shl    $0x32,%rax
   10fde:	48 c1 f8 32          	sar    $0x32,%rax
   10fe2:	48 0f bf c0          	movswq %ax,%rax
   10fe6:	8b 55 fc             	mov    -0x4(%rbp),%edx
   10fe9:	48 8d 35 9d 31 00 00 	lea    0x319d(%rip),%rsi        # 1418d <g_2031+0x10e5>
   10ff0:	48 89 c7             	mov    %rax,%rdi
   10ff3:	e8 fb 86 ff ff       	callq  96f3 <transparent_crc>
   10ff8:	0f b6 05 cc 73 00 00 	movzbl 0x73cc(%rip),%eax        # 183cb <g_1365+0x3>
   10fff:	c0 e8 03             	shr    $0x3,%al
   11002:	0f b6 c0             	movzbl %al,%eax
   11005:	0f b6 15 c0 73 00 00 	movzbl 0x73c0(%rip),%edx        # 183cc <g_1365+0x4>
   1100c:	0f b6 d2             	movzbl %dl,%edx
   1100f:	48 c1 e2 05          	shl    $0x5,%rdx
   11013:	48 09 c2             	or     %rax,%rdx
   11016:	0f b6 05 b0 73 00 00 	movzbl 0x73b0(%rip),%eax        # 183cd <g_1365+0x5>
   1101d:	0f b6 c0             	movzbl %al,%eax
   11020:	48 c1 e0 0d          	shl    $0xd,%rax
   11024:	48 09 c2             	or     %rax,%rdx
   11027:	0f b6 05 a0 73 00 00 	movzbl 0x73a0(%rip),%eax        # 183ce <g_1365+0x6>
   1102e:	0f b6 c0             	movzbl %al,%eax
   11031:	83 e0 07             	and    $0x7,%eax
   11034:	48 c1 e0 15          	shl    $0x15,%rax
   11038:	48 09 d0             	or     %rdx,%rax
   1103b:	89 c1                	mov    %eax,%ecx
   1103d:	8b 45 fc             	mov    -0x4(%rbp),%eax
   11040:	89 c2                	mov    %eax,%edx
   11042:	48 8d 35 4e 31 00 00 	lea    0x314e(%rip),%rsi        # 14197 <g_2031+0x10ef>
   11049:	48 89 cf             	mov    %rcx,%rdi
   1104c:	e8 a2 86 ff ff       	callq  96f3 <transparent_crc>
   11051:	0f b6 05 76 73 00 00 	movzbl 0x7376(%rip),%eax        # 183ce <g_1365+0x6>
   11058:	01 c0                	add    %eax,%eax
   1105a:	c0 f8 04             	sar    $0x4,%al
   1105d:	48 0f be c0          	movsbq %al,%rax
   11061:	8b 55 fc             	mov    -0x4(%rbp),%edx
   11064:	48 8d 35 36 31 00 00 	lea    0x3136(%rip),%rsi        # 141a1 <g_2031+0x10f9>
   1106b:	48 89 c7             	mov    %rax,%rdi
   1106e:	e8 80 86 ff ff       	callq  96f3 <transparent_crc>
   11073:	0f b6 05 55 73 00 00 	movzbl 0x7355(%rip),%eax        # 183cf <g_1405>
   1107a:	48 0f be c0          	movsbq %al,%rax
   1107e:	8b 55 fc             	mov    -0x4(%rbp),%edx
   11081:	48 8d 35 23 31 00 00 	lea    0x3123(%rip),%rsi        # 141ab <g_2031+0x1103>
   11088:	48 89 c7             	mov    %rax,%rdi
   1108b:	e8 63 86 ff ff       	callq  96f3 <transparent_crc>
   11090:	8b 05 4a 73 00 00    	mov    0x734a(%rip),%eax        # 183e0 <g_1435>
   11096:	89 c1                	mov    %eax,%ecx
   11098:	8b 45 fc             	mov    -0x4(%rbp),%eax
   1109b:	89 c2                	mov    %eax,%edx
   1109d:	48 8d 35 0e 31 00 00 	lea    0x310e(%rip),%rsi        # 141b2 <g_2031+0x110a>
   110a4:	48 89 cf             	mov    %rcx,%rdi
   110a7:	e8 47 86 ff ff       	callq  96f3 <transparent_crc>
   110ac:	8b 05 32 73 00 00    	mov    0x7332(%rip),%eax        # 183e4 <g_1435+0x4>
   110b2:	89 c1                	mov    %eax,%ecx
   110b4:	8b 45 fc             	mov    -0x4(%rbp),%eax
   110b7:	89 c2                	mov    %eax,%edx
   110b9:	48 8d 35 fc 30 00 00 	lea    0x30fc(%rip),%rsi        # 141bc <g_2031+0x1114>
   110c0:	48 89 cf             	mov    %rcx,%rdi
   110c3:	e8 2b 86 ff ff       	callq  96f3 <transparent_crc>
   110c8:	48 8b 05 19 73 00 00 	mov    0x7319(%rip),%rax        # 183e8 <g_1435+0x8>
   110cf:	8b 55 fc             	mov    -0x4(%rbp),%edx
   110d2:	48 8d 35 ed 30 00 00 	lea    0x30ed(%rip),%rsi        # 141c6 <g_2031+0x111e>
   110d9:	48 89 c7             	mov    %rax,%rdi
   110dc:	e8 12 86 ff ff       	callq  96f3 <transparent_crc>
   110e1:	0f b7 05 08 73 00 00 	movzwl 0x7308(%rip),%eax        # 183f0 <g_1435+0x10>
   110e8:	48 0f bf c0          	movswq %ax,%rax
   110ec:	8b 55 fc             	mov    -0x4(%rbp),%edx
   110ef:	48 8d 35 da 30 00 00 	lea    0x30da(%rip),%rsi        # 141d0 <g_2031+0x1128>
   110f6:	48 89 c7             	mov    %rax,%rdi
   110f9:	e8 f5 85 ff ff       	callq  96f3 <transparent_crc>
   110fe:	8b 05 f0 72 00 00    	mov    0x72f0(%rip),%eax        # 183f4 <g_1435+0x14>
   11104:	48 98                	cltq   
   11106:	8b 55 fc             	mov    -0x4(%rbp),%edx
   11109:	48 8d 35 ca 30 00 00 	lea    0x30ca(%rip),%rsi        # 141da <g_2031+0x1132>
   11110:	48 89 c7             	mov    %rax,%rdi
   11113:	e8 db 85 ff ff       	callq  96f3 <transparent_crc>
   11118:	8b 05 da 72 00 00    	mov    0x72da(%rip),%eax        # 183f8 <g_1435+0x18>
   1111e:	89 c1                	mov    %eax,%ecx
   11120:	8b 45 fc             	mov    -0x4(%rbp),%eax
   11123:	89 c2                	mov    %eax,%edx
   11125:	48 8d 35 b8 30 00 00 	lea    0x30b8(%rip),%rsi        # 141e4 <g_2031+0x113c>
   1112c:	48 89 cf             	mov    %rcx,%rdi
   1112f:	e8 bf 85 ff ff       	callq  96f3 <transparent_crc>
   11134:	8b 05 c2 72 00 00    	mov    0x72c2(%rip),%eax        # 183fc <g_1435+0x1c>
   1113a:	48 98                	cltq   
   1113c:	8b 55 fc             	mov    -0x4(%rbp),%edx
   1113f:	48 8d 35 a8 30 00 00 	lea    0x30a8(%rip),%rsi        # 141ee <g_2031+0x1146>
   11146:	48 89 c7             	mov    %rax,%rdi
   11149:	e8 a5 85 ff ff       	callq  96f3 <transparent_crc>
   1114e:	8b 05 ac 72 00 00    	mov    0x72ac(%rip),%eax        # 18400 <g_1435+0x20>
   11154:	48 98                	cltq   
   11156:	8b 55 fc             	mov    -0x4(%rbp),%edx
   11159:	48 8d 35 98 30 00 00 	lea    0x3098(%rip),%rsi        # 141f8 <g_2031+0x1150>
   11160:	48 89 c7             	mov    %rax,%rdi
   11163:	e8 8b 85 ff ff       	callq  96f3 <transparent_crc>
   11168:	0f b7 05 95 72 00 00 	movzwl 0x7295(%rip),%eax        # 18404 <g_1435+0x24>
   1116f:	c1 e0 07             	shl    $0x7,%eax
   11172:	66 c1 f8 07          	sar    $0x7,%ax
   11176:	48 0f bf c0          	movswq %ax,%rax
   1117a:	8b 55 fc             	mov    -0x4(%rbp),%edx
   1117d:	48 8d 35 7e 30 00 00 	lea    0x307e(%rip),%rsi        # 14202 <g_2031+0x115a>
   11184:	48 89 c7             	mov    %rax,%rdi
   11187:	e8 67 85 ff ff       	callq  96f3 <transparent_crc>
   1118c:	c7 45 f0 00 00 00 00 	movl   $0x0,-0x10(%rbp)
   11193:	eb 4d                	jmp    111e2 <main+0x2bc6>
   11195:	8b 45 f0             	mov    -0x10(%rbp),%eax
   11198:	48 98                	cltq   
   1119a:	48 8d 14 85 00 00 00 	lea    0x0(,%rax,4),%rdx
   111a1:	00 
   111a2:	48 8d 05 5f 72 00 00 	lea    0x725f(%rip),%rax        # 18408 <g_1452>
   111a9:	8b 04 02             	mov    (%rdx,%rax,1),%eax
   111ac:	89 c1                	mov    %eax,%ecx
   111ae:	8b 45 fc             	mov    -0x4(%rbp),%eax
   111b1:	89 c2                	mov    %eax,%edx
   111b3:	48 8d 35 52 30 00 00 	lea    0x3052(%rip),%rsi        # 1420c <g_2031+0x1164>
   111ba:	48 89 cf             	mov    %rcx,%rdi
   111bd:	e8 31 85 ff ff       	callq  96f3 <transparent_crc>
   111c2:	83 7d fc 00          	cmpl   $0x0,-0x4(%rbp)
   111c6:	74 16                	je     111de <main+0x2bc2>
   111c8:	8b 45 f0             	mov    -0x10(%rbp),%eax
   111cb:	89 c6                	mov    %eax,%esi
   111cd:	48 8d 3d 71 2a 00 00 	lea    0x2a71(%rip),%rdi        # 13c45 <g_2031+0xb9d>
   111d4:	b8 00 00 00 00       	mov    $0x0,%eax
   111d9:	e8 a2 6e ff ff       	callq  8080 <printf@plt>
   111de:	83 45 f0 01          	addl   $0x1,-0x10(%rbp)
   111e2:	83 7d f0 00          	cmpl   $0x0,-0x10(%rbp)
   111e6:	7e ad                	jle    11195 <main+0x2b79>
   111e8:	c7 45 f0 00 00 00 00 	movl   $0x0,-0x10(%rbp)
   111ef:	e9 7c 01 00 00       	jmpq   11370 <main+0x2d54>
   111f4:	8b 45 f0             	mov    -0x10(%rbp),%eax
   111f7:	48 63 d0             	movslq %eax,%rdx
   111fa:	48 89 d0             	mov    %rdx,%rax
   111fd:	48 c1 e0 03          	shl    $0x3,%rax
   11201:	48 29 d0             	sub    %rdx,%rax
   11204:	48 89 c2             	mov    %rax,%rdx
   11207:	48 8d 05 12 72 00 00 	lea    0x7212(%rip),%rax        # 18420 <g_1472>
   1120e:	0f b6 0c 02          	movzbl (%rdx,%rax,1),%ecx
   11212:	0f b6 c9             	movzbl %cl,%ecx
   11215:	0f b6 44 02 01       	movzbl 0x1(%rdx,%rax,1),%eax
   1121a:	0f b6 c0             	movzbl %al,%eax
   1121d:	83 e0 1f             	and    $0x1f,%eax
   11220:	48 c1 e0 08          	shl    $0x8,%rax
   11224:	48 09 c8             	or     %rcx,%rax
   11227:	48 c1 e0 33          	shl    $0x33,%rax
   1122b:	48 c1 f8 33          	sar    $0x33,%rax
   1122f:	48 0f bf c0          	movswq %ax,%rax
   11233:	8b 55 fc             	mov    -0x4(%rbp),%edx
   11236:	48 8d 35 d9 2f 00 00 	lea    0x2fd9(%rip),%rsi        # 14216 <g_2031+0x116e>
   1123d:	48 89 c7             	mov    %rax,%rdi
   11240:	e8 ae 84 ff ff       	callq  96f3 <transparent_crc>
   11245:	8b 45 f0             	mov    -0x10(%rbp),%eax
   11248:	48 63 d0             	movslq %eax,%rdx
   1124b:	48 89 d0             	mov    %rdx,%rax
   1124e:	48 c1 e0 03          	shl    $0x3,%rax
   11252:	48 29 d0             	sub    %rdx,%rax
   11255:	48 89 c2             	mov    %rax,%rdx
   11258:	48 8d 05 c1 71 00 00 	lea    0x71c1(%rip),%rax        # 18420 <g_1472>
   1125f:	0f b6 4c 02 01       	movzbl 0x1(%rdx,%rax,1),%ecx
   11264:	c0 e9 05             	shr    $0x5,%cl
   11267:	0f b6 c9             	movzbl %cl,%ecx
   1126a:	0f b6 74 02 02       	movzbl 0x2(%rdx,%rax,1),%esi
   1126f:	40 0f b6 f6          	movzbl %sil,%esi
   11273:	48 c1 e6 03          	shl    $0x3,%rsi
   11277:	48 09 f1             	or     %rsi,%rcx
   1127a:	0f b6 44 02 03       	movzbl 0x3(%rdx,%rax,1),%eax
   1127f:	0f b6 c0             	movzbl %al,%eax
   11282:	83 e0 07             	and    $0x7,%eax
   11285:	48 c1 e0 0b          	shl    $0xb,%rax
   11289:	48 09 c8             	or     %rcx,%rax
   1128c:	48 c1 e0 32          	shl    $0x32,%rax
   11290:	48 c1 f8 32          	sar    $0x32,%rax
   11294:	48 0f bf c0          	movswq %ax,%rax
   11298:	8b 55 fc             	mov    -0x4(%rbp),%edx
   1129b:	48 8d 35 81 2f 00 00 	lea    0x2f81(%rip),%rsi        # 14223 <g_2031+0x117b>
   112a2:	48 89 c7             	mov    %rax,%rdi
   112a5:	e8 49 84 ff ff       	callq  96f3 <transparent_crc>
   112aa:	8b 45 f0             	mov    -0x10(%rbp),%eax
   112ad:	48 63 d0             	movslq %eax,%rdx
   112b0:	48 89 d0             	mov    %rdx,%rax
   112b3:	48 c1 e0 03          	shl    $0x3,%rax
   112b7:	48 29 d0             	sub    %rdx,%rax
   112ba:	48 89 c2             	mov    %rax,%rdx
   112bd:	48 8d 05 5c 71 00 00 	lea    0x715c(%rip),%rax        # 18420 <g_1472>
   112c4:	0f b6 4c 02 03       	movzbl 0x3(%rdx,%rax,1),%ecx
   112c9:	c0 e9 03             	shr    $0x3,%cl
   112cc:	0f b6 c9             	movzbl %cl,%ecx
   112cf:	0f b6 74 02 04       	movzbl 0x4(%rdx,%rax,1),%esi
   112d4:	40 0f b6 f6          	movzbl %sil,%esi
   112d8:	48 c1 e6 05          	shl    $0x5,%rsi
   112dc:	48 09 ce             	or     %rcx,%rsi
   112df:	0f b6 4c 02 05       	movzbl 0x5(%rdx,%rax,1),%ecx
   112e4:	0f b6 c9             	movzbl %cl,%ecx
   112e7:	48 c1 e1 0d          	shl    $0xd,%rcx
   112eb:	48 09 f1             	or     %rsi,%rcx
   112ee:	0f b6 44 02 06       	movzbl 0x6(%rdx,%rax,1),%eax
   112f3:	0f b6 c0             	movzbl %al,%eax
   112f6:	83 e0 07             	and    $0x7,%eax
   112f9:	48 c1 e0 15          	shl    $0x15,%rax
   112fd:	48 09 c8             	or     %rcx,%rax
   11300:	89 c1                	mov    %eax,%ecx
   11302:	8b 45 fc             	mov    -0x4(%rbp),%eax
   11305:	89 c2                	mov    %eax,%edx
   11307:	48 8d 35 22 2f 00 00 	lea    0x2f22(%rip),%rsi        # 14230 <g_2031+0x1188>
   1130e:	48 89 cf             	mov    %rcx,%rdi
   11311:	e8 dd 83 ff ff       	callq  96f3 <transparent_crc>
   11316:	8b 45 f0             	mov    -0x10(%rbp),%eax
   11319:	48 63 d0             	movslq %eax,%rdx
   1131c:	48 89 d0             	mov    %rdx,%rax
   1131f:	48 c1 e0 03          	shl    $0x3,%rax
   11323:	48 29 d0             	sub    %rdx,%rax
   11326:	48 89 c2             	mov    %rax,%rdx
   11329:	48 8d 05 f0 70 00 00 	lea    0x70f0(%rip),%rax        # 18420 <g_1472>
   11330:	0f b6 44 02 06       	movzbl 0x6(%rdx,%rax,1),%eax
   11335:	01 c0                	add    %eax,%eax
   11337:	c0 f8 04             	sar    $0x4,%al
   1133a:	48 0f be c0          	movsbq %al,%rax
   1133e:	8b 55 fc             	mov    -0x4(%rbp),%edx
   11341:	48 8d 35 f5 2e 00 00 	lea    0x2ef5(%rip),%rsi        # 1423d <g_2031+0x1195>
   11348:	48 89 c7             	mov    %rax,%rdi
   1134b:	e8 a3 83 ff ff       	callq  96f3 <transparent_crc>
   11350:	83 7d fc 00          	cmpl   $0x0,-0x4(%rbp)
   11354:	74 16                	je     1136c <main+0x2d50>
   11356:	8b 45 f0             	mov    -0x10(%rbp),%eax
   11359:	89 c6                	mov    %eax,%esi
   1135b:	48 8d 3d e3 28 00 00 	lea    0x28e3(%rip),%rdi        # 13c45 <g_2031+0xb9d>
   11362:	b8 00 00 00 00       	mov    $0x0,%eax
   11367:	e8 14 6d ff ff       	callq  8080 <printf@plt>
   1136c:	83 45 f0 01          	addl   $0x1,-0x10(%rbp)
   11370:	83 7d f0 09          	cmpl   $0x9,-0x10(%rbp)
   11374:	0f 8e 7a fe ff ff    	jle    111f4 <main+0x2bd8>
   1137a:	0f b7 05 e5 70 00 00 	movzwl 0x70e5(%rip),%eax        # 18466 <g_1503>
   11381:	48 0f bf c0          	movswq %ax,%rax
   11385:	8b 55 fc             	mov    -0x4(%rbp),%edx
   11388:	48 8d 35 bb 2e 00 00 	lea    0x2ebb(%rip),%rsi        # 1424a <g_2031+0x11a2>
   1138f:	48 89 c7             	mov    %rax,%rdi
   11392:	e8 5c 83 ff ff       	callq  96f3 <transparent_crc>
   11397:	0f b6 05 ca 70 00 00 	movzbl 0x70ca(%rip),%eax        # 18468 <g_1517>
   1139e:	0f b6 c0             	movzbl %al,%eax
   113a1:	0f b6 15 c1 70 00 00 	movzbl 0x70c1(%rip),%edx        # 18469 <g_1517+0x1>
   113a8:	0f b6 d2             	movzbl %dl,%edx
   113ab:	83 e2 1f             	and    $0x1f,%edx
   113ae:	48 c1 e2 08          	shl    $0x8,%rdx
   113b2:	48 09 d0             	or     %rdx,%rax
   113b5:	48 c1 e0 33          	shl    $0x33,%rax
   113b9:	48 c1 f8 33          	sar    $0x33,%rax
   113bd:	48 0f bf c0          	movswq %ax,%rax
   113c1:	8b 55 fc             	mov    -0x4(%rbp),%edx
   113c4:	48 8d 35 86 2e 00 00 	lea    0x2e86(%rip),%rsi        # 14251 <g_2031+0x11a9>
   113cb:	48 89 c7             	mov    %rax,%rdi
   113ce:	e8 20 83 ff ff       	callq  96f3 <transparent_crc>
   113d3:	0f b6 05 8f 70 00 00 	movzbl 0x708f(%rip),%eax        # 18469 <g_1517+0x1>
   113da:	c0 e8 05             	shr    $0x5,%al
   113dd:	0f b6 c0             	movzbl %al,%eax
   113e0:	0f b6 15 83 70 00 00 	movzbl 0x7083(%rip),%edx        # 1846a <g_1517+0x2>
   113e7:	0f b6 d2             	movzbl %dl,%edx
   113ea:	48 c1 e2 03          	shl    $0x3,%rdx
   113ee:	48 09 c2             	or     %rax,%rdx
   113f1:	0f b6 05 73 70 00 00 	movzbl 0x7073(%rip),%eax        # 1846b <g_1517+0x3>
   113f8:	0f b6 c0             	movzbl %al,%eax
   113fb:	83 e0 07             	and    $0x7,%eax
   113fe:	48 c1 e0 0b          	shl    $0xb,%rax
   11402:	48 09 d0             	or     %rdx,%rax
   11405:	48 c1 e0 32          	shl    $0x32,%rax
   11409:	48 c1 f8 32          	sar    $0x32,%rax
   1140d:	48 0f bf c0          	movswq %ax,%rax
   11411:	8b 55 fc             	mov    -0x4(%rbp),%edx
   11414:	48 8d 35 40 2e 00 00 	lea    0x2e40(%rip),%rsi        # 1425b <g_2031+0x11b3>
   1141b:	48 89 c7             	mov    %rax,%rdi
   1141e:	e8 d0 82 ff ff       	callq  96f3 <transparent_crc>
   11423:	0f b6 05 41 70 00 00 	movzbl 0x7041(%rip),%eax        # 1846b <g_1517+0x3>
   1142a:	c0 e8 03             	shr    $0x3,%al
   1142d:	0f b6 c0             	movzbl %al,%eax
   11430:	0f b6 15 35 70 00 00 	movzbl 0x7035(%rip),%edx        # 1846c <g_1517+0x4>
   11437:	48 c1 e2 05          	shl    $0x5,%rdx
   1143b:	48 09 c2             	or     %rax,%rdx
   1143e:	0f b6 05 28 70 00 00 	movzbl 0x7028(%rip),%eax        # 1846d <g_1517+0x5>
   11445:	48 c1 e0 0d          	shl    $0xd,%rax
   11449:	48 09 c2             	or     %rax,%rdx
   1144c:	0f b6 05 1b 70 00 00 	movzbl 0x701b(%rip),%eax        # 1846e <g_1517+0x6>
   11453:	83 e0 07             	and    $0x7,%eax
   11456:	48 c1 e0 15          	shl    $0x15,%rax
   1145a:	48 09 d0             	or     %rdx,%rax
   1145d:	89 c1                	mov    %eax,%ecx
   1145f:	8b 45 fc             	mov    -0x4(%rbp),%eax
   11462:	89 c2                	mov    %eax,%edx
   11464:	48 8d 35 fa 2d 00 00 	lea    0x2dfa(%rip),%rsi        # 14265 <g_2031+0x11bd>
   1146b:	48 89 cf             	mov    %rcx,%rdi
   1146e:	e8 80 82 ff ff       	callq  96f3 <transparent_crc>
   11473:	0f b6 05 f4 6f 00 00 	movzbl 0x6ff4(%rip),%eax        # 1846e <g_1517+0x6>
   1147a:	01 c0                	add    %eax,%eax
   1147c:	c0 f8 04             	sar    $0x4,%al
   1147f:	48 0f be c0          	movsbq %al,%rax
   11483:	8b 55 fc             	mov    -0x4(%rbp),%edx
   11486:	48 8d 35 e2 2d 00 00 	lea    0x2de2(%rip),%rsi        # 1426f <g_2031+0x11c7>
   1148d:	48 89 c7             	mov    %rax,%rdi
   11490:	e8 5e 82 ff ff       	callq  96f3 <transparent_crc>
   11495:	0f b6 05 d3 6f 00 00 	movzbl 0x6fd3(%rip),%eax        # 1846f <g_1518>
   1149c:	0f b6 c0             	movzbl %al,%eax
   1149f:	0f b6 15 ca 6f 00 00 	movzbl 0x6fca(%rip),%edx        # 18470 <g_1518+0x1>
   114a6:	0f b6 d2             	movzbl %dl,%edx
   114a9:	83 e2 1f             	and    $0x1f,%edx
   114ac:	48 c1 e2 08          	shl    $0x8,%rdx
   114b0:	48 09 d0             	or     %rdx,%rax
   114b3:	48 c1 e0 33          	shl    $0x33,%rax
   114b7:	48 c1 f8 33          	sar    $0x33,%rax
   114bb:	48 0f bf c0          	movswq %ax,%rax
   114bf:	8b 55 fc             	mov    -0x4(%rbp),%edx
   114c2:	48 8d 35 b0 2d 00 00 	lea    0x2db0(%rip),%rsi        # 14279 <g_2031+0x11d1>
   114c9:	48 89 c7             	mov    %rax,%rdi
   114cc:	e8 22 82 ff ff       	callq  96f3 <transparent_crc>
   114d1:	0f b6 05 98 6f 00 00 	movzbl 0x6f98(%rip),%eax        # 18470 <g_1518+0x1>
   114d8:	c0 e8 05             	shr    $0x5,%al
   114db:	0f b6 c0             	movzbl %al,%eax
   114de:	0f b6 15 8c 6f 00 00 	movzbl 0x6f8c(%rip),%edx        # 18471 <g_1518+0x2>
   114e5:	0f b6 d2             	movzbl %dl,%edx
   114e8:	48 c1 e2 03          	shl    $0x3,%rdx
   114ec:	48 09 c2             	or     %rax,%rdx
   114ef:	0f b6 05 7c 6f 00 00 	movzbl 0x6f7c(%rip),%eax        # 18472 <g_1518+0x3>
   114f6:	0f b6 c0             	movzbl %al,%eax
   114f9:	83 e0 07             	and    $0x7,%eax
   114fc:	48 c1 e0 0b          	shl    $0xb,%rax
   11500:	48 09 d0             	or     %rdx,%rax
   11503:	48 c1 e0 32          	shl    $0x32,%rax
   11507:	48 c1 f8 32          	sar    $0x32,%rax
   1150b:	48 0f bf c0          	movswq %ax,%rax
   1150f:	8b 55 fc             	mov    -0x4(%rbp),%edx
   11512:	48 8d 35 6a 2d 00 00 	lea    0x2d6a(%rip),%rsi        # 14283 <g_2031+0x11db>
   11519:	48 89 c7             	mov    %rax,%rdi
   1151c:	e8 d2 81 ff ff       	callq  96f3 <transparent_crc>
   11521:	0f b6 05 4a 6f 00 00 	movzbl 0x6f4a(%rip),%eax        # 18472 <g_1518+0x3>
   11528:	c0 e8 03             	shr    $0x3,%al
   1152b:	0f b6 c0             	movzbl %al,%eax
   1152e:	0f b6 15 3e 6f 00 00 	movzbl 0x6f3e(%rip),%edx        # 18473 <g_1518+0x4>
   11535:	48 c1 e2 05          	shl    $0x5,%rdx
   11539:	48 09 c2             	or     %rax,%rdx
   1153c:	0f b6 05 31 6f 00 00 	movzbl 0x6f31(%rip),%eax        # 18474 <g_1518+0x5>
   11543:	48 c1 e0 0d          	shl    $0xd,%rax
   11547:	48 09 c2             	or     %rax,%rdx
   1154a:	0f b6 05 24 6f 00 00 	movzbl 0x6f24(%rip),%eax        # 18475 <g_1518+0x6>
   11551:	83 e0 07             	and    $0x7,%eax
   11554:	48 c1 e0 15          	shl    $0x15,%rax
   11558:	48 09 d0             	or     %rdx,%rax
   1155b:	89 c1                	mov    %eax,%ecx
   1155d:	8b 45 fc             	mov    -0x4(%rbp),%eax
   11560:	89 c2                	mov    %eax,%edx
   11562:	48 8d 35 24 2d 00 00 	lea    0x2d24(%rip),%rsi        # 1428d <g_2031+0x11e5>
   11569:	48 89 cf             	mov    %rcx,%rdi
   1156c:	e8 82 81 ff ff       	callq  96f3 <transparent_crc>
   11571:	0f b6 05 fd 6e 00 00 	movzbl 0x6efd(%rip),%eax        # 18475 <g_1518+0x6>
   11578:	01 c0                	add    %eax,%eax
   1157a:	c0 f8 04             	sar    $0x4,%al
   1157d:	48 0f be c0          	movsbq %al,%rax
   11581:	8b 55 fc             	mov    -0x4(%rbp),%edx
   11584:	48 8d 35 0c 2d 00 00 	lea    0x2d0c(%rip),%rsi        # 14297 <g_2031+0x11ef>
   1158b:	48 89 c7             	mov    %rax,%rdi
   1158e:	e8 60 81 ff ff       	callq  96f3 <transparent_crc>
   11593:	0f b6 05 dc 6e 00 00 	movzbl 0x6edc(%rip),%eax        # 18476 <g_1519>
   1159a:	0f b6 c0             	movzbl %al,%eax
   1159d:	0f b6 15 d3 6e 00 00 	movzbl 0x6ed3(%rip),%edx        # 18477 <g_1519+0x1>
   115a4:	0f b6 d2             	movzbl %dl,%edx
   115a7:	83 e2 1f             	and    $0x1f,%edx
   115aa:	48 c1 e2 08          	shl    $0x8,%rdx
   115ae:	48 09 d0             	or     %rdx,%rax
   115b1:	48 c1 e0 33          	shl    $0x33,%rax
   115b5:	48 c1 f8 33          	sar    $0x33,%rax
   115b9:	48 0f bf c0          	movswq %ax,%rax
   115bd:	8b 55 fc             	mov    -0x4(%rbp),%edx
   115c0:	48 8d 35 da 2c 00 00 	lea    0x2cda(%rip),%rsi        # 142a1 <g_2031+0x11f9>
   115c7:	48 89 c7             	mov    %rax,%rdi
   115ca:	e8 24 81 ff ff       	callq  96f3 <transparent_crc>
   115cf:	0f b6 05 a1 6e 00 00 	movzbl 0x6ea1(%rip),%eax        # 18477 <g_1519+0x1>
   115d6:	c0 e8 05             	shr    $0x5,%al
   115d9:	0f b6 c0             	movzbl %al,%eax
   115dc:	0f b6 15 95 6e 00 00 	movzbl 0x6e95(%rip),%edx        # 18478 <g_1519+0x2>
   115e3:	0f b6 d2             	movzbl %dl,%edx
   115e6:	48 c1 e2 03          	shl    $0x3,%rdx
   115ea:	48 09 c2             	or     %rax,%rdx
   115ed:	0f b6 05 85 6e 00 00 	movzbl 0x6e85(%rip),%eax        # 18479 <g_1519+0x3>
   115f4:	0f b6 c0             	movzbl %al,%eax
   115f7:	83 e0 07             	and    $0x7,%eax
   115fa:	48 c1 e0 0b          	shl    $0xb,%rax
   115fe:	48 09 d0             	or     %rdx,%rax
   11601:	48 c1 e0 32          	shl    $0x32,%rax
   11605:	48 c1 f8 32          	sar    $0x32,%rax
   11609:	48 0f bf c0          	movswq %ax,%rax
   1160d:	8b 55 fc             	mov    -0x4(%rbp),%edx
   11610:	48 8d 35 94 2c 00 00 	lea    0x2c94(%rip),%rsi        # 142ab <g_2031+0x1203>
   11617:	48 89 c7             	mov    %rax,%rdi
   1161a:	e8 d4 80 ff ff       	callq  96f3 <transparent_crc>
   1161f:	0f b6 05 53 6e 00 00 	movzbl 0x6e53(%rip),%eax        # 18479 <g_1519+0x3>
   11626:	c0 e8 03             	shr    $0x3,%al
   11629:	0f b6 c0             	movzbl %al,%eax
   1162c:	0f b6 15 47 6e 00 00 	movzbl 0x6e47(%rip),%edx        # 1847a <g_1519+0x4>
   11633:	0f b6 d2             	movzbl %dl,%edx
   11636:	48 c1 e2 05          	shl    $0x5,%rdx
   1163a:	48 09 c2             	or     %rax,%rdx
   1163d:	0f b6 05 37 6e 00 00 	movzbl 0x6e37(%rip),%eax        # 1847b <g_1519+0x5>
   11644:	0f b6 c0             	movzbl %al,%eax
   11647:	48 c1 e0 0d          	shl    $0xd,%rax
   1164b:	48 09 c2             	or     %rax,%rdx
   1164e:	0f b6 05 27 6e 00 00 	movzbl 0x6e27(%rip),%eax        # 1847c <g_1519+0x6>
   11655:	0f b6 c0             	movzbl %al,%eax
   11658:	83 e0 07             	and    $0x7,%eax
   1165b:	48 c1 e0 15          	shl    $0x15,%rax
   1165f:	48 09 d0             	or     %rdx,%rax
   11662:	89 c1                	mov    %eax,%ecx
   11664:	8b 45 fc             	mov    -0x4(%rbp),%eax
   11667:	89 c2                	mov    %eax,%edx
   11669:	48 8d 35 45 2c 00 00 	lea    0x2c45(%rip),%rsi        # 142b5 <g_2031+0x120d>
   11670:	48 89 cf             	mov    %rcx,%rdi
   11673:	e8 7b 80 ff ff       	callq  96f3 <transparent_crc>
   11678:	0f b6 05 fd 6d 00 00 	movzbl 0x6dfd(%rip),%eax        # 1847c <g_1519+0x6>
   1167f:	01 c0                	add    %eax,%eax
   11681:	c0 f8 04             	sar    $0x4,%al
   11684:	48 0f be c0          	movsbq %al,%rax
   11688:	8b 55 fc             	mov    -0x4(%rbp),%edx
   1168b:	48 8d 35 2d 2c 00 00 	lea    0x2c2d(%rip),%rsi        # 142bf <g_2031+0x1217>
   11692:	48 89 c7             	mov    %rax,%rdi
   11695:	e8 59 80 ff ff       	callq  96f3 <transparent_crc>
   1169a:	8b 05 e0 6d 00 00    	mov    0x6de0(%rip),%eax        # 18480 <g_1555>
   116a0:	89 c1                	mov    %eax,%ecx
   116a2:	8b 45 fc             	mov    -0x4(%rbp),%eax
   116a5:	89 c2                	mov    %eax,%edx
   116a7:	48 8d 35 1b 2c 00 00 	lea    0x2c1b(%rip),%rsi        # 142c9 <g_2031+0x1221>
   116ae:	48 89 cf             	mov    %rcx,%rdi
   116b1:	e8 3d 80 ff ff       	callq  96f3 <transparent_crc>
   116b6:	8b 05 c8 6d 00 00    	mov    0x6dc8(%rip),%eax        # 18484 <g_1555+0x4>
   116bc:	89 c1                	mov    %eax,%ecx
   116be:	8b 45 fc             	mov    -0x4(%rbp),%eax
   116c1:	89 c2                	mov    %eax,%edx
   116c3:	48 8d 35 09 2c 00 00 	lea    0x2c09(%rip),%rsi        # 142d3 <g_2031+0x122b>
   116ca:	48 89 cf             	mov    %rcx,%rdi
   116cd:	e8 21 80 ff ff       	callq  96f3 <transparent_crc>
   116d2:	48 8b 05 af 6d 00 00 	mov    0x6daf(%rip),%rax        # 18488 <g_1555+0x8>
   116d9:	8b 55 fc             	mov    -0x4(%rbp),%edx
   116dc:	48 8d 35 fa 2b 00 00 	lea    0x2bfa(%rip),%rsi        # 142dd <g_2031+0x1235>
   116e3:	48 89 c7             	mov    %rax,%rdi
   116e6:	e8 08 80 ff ff       	callq  96f3 <transparent_crc>
   116eb:	0f b7 05 9e 6d 00 00 	movzwl 0x6d9e(%rip),%eax        # 18490 <g_1555+0x10>
   116f2:	48 0f bf c0          	movswq %ax,%rax
   116f6:	8b 55 fc             	mov    -0x4(%rbp),%edx
   116f9:	48 8d 35 e7 2b 00 00 	lea    0x2be7(%rip),%rsi        # 142e7 <g_2031+0x123f>
   11700:	48 89 c7             	mov    %rax,%rdi
   11703:	e8 eb 7f ff ff       	callq  96f3 <transparent_crc>
   11708:	8b 05 86 6d 00 00    	mov    0x6d86(%rip),%eax        # 18494 <g_1555+0x14>
   1170e:	48 98                	cltq   
   11710:	8b 55 fc             	mov    -0x4(%rbp),%edx
   11713:	48 8d 35 d7 2b 00 00 	lea    0x2bd7(%rip),%rsi        # 142f1 <g_2031+0x1249>
   1171a:	48 89 c7             	mov    %rax,%rdi
   1171d:	e8 d1 7f ff ff       	callq  96f3 <transparent_crc>
   11722:	8b 05 70 6d 00 00    	mov    0x6d70(%rip),%eax        # 18498 <g_1555+0x18>
   11728:	89 c1                	mov    %eax,%ecx
   1172a:	8b 45 fc             	mov    -0x4(%rbp),%eax
   1172d:	89 c2                	mov    %eax,%edx
   1172f:	48 8d 35 c5 2b 00 00 	lea    0x2bc5(%rip),%rsi        # 142fb <g_2031+0x1253>
   11736:	48 89 cf             	mov    %rcx,%rdi
   11739:	e8 b5 7f ff ff       	callq  96f3 <transparent_crc>
   1173e:	8b 05 58 6d 00 00    	mov    0x6d58(%rip),%eax        # 1849c <g_1555+0x1c>
   11744:	48 98                	cltq   
   11746:	8b 55 fc             	mov    -0x4(%rbp),%edx
   11749:	48 8d 35 b5 2b 00 00 	lea    0x2bb5(%rip),%rsi        # 14305 <g_2031+0x125d>
   11750:	48 89 c7             	mov    %rax,%rdi
   11753:	e8 9b 7f ff ff       	callq  96f3 <transparent_crc>
   11758:	8b 05 42 6d 00 00    	mov    0x6d42(%rip),%eax        # 184a0 <g_1555+0x20>
   1175e:	48 98                	cltq   
   11760:	8b 55 fc             	mov    -0x4(%rbp),%edx
   11763:	48 8d 35 a5 2b 00 00 	lea    0x2ba5(%rip),%rsi        # 1430f <g_2031+0x1267>
   1176a:	48 89 c7             	mov    %rax,%rdi
   1176d:	e8 81 7f ff ff       	callq  96f3 <transparent_crc>
   11772:	0f b7 05 2b 6d 00 00 	movzwl 0x6d2b(%rip),%eax        # 184a4 <g_1555+0x24>
   11779:	c1 e0 07             	shl    $0x7,%eax
   1177c:	66 c1 f8 07          	sar    $0x7,%ax
   11780:	48 0f bf c0          	movswq %ax,%rax
   11784:	8b 55 fc             	mov    -0x4(%rbp),%edx
   11787:	48 8d 35 8b 2b 00 00 	lea    0x2b8b(%rip),%rsi        # 14319 <g_2031+0x1271>
   1178e:	48 89 c7             	mov    %rax,%rdi
   11791:	e8 5d 7f ff ff       	callq  96f3 <transparent_crc>
   11796:	8b 05 24 6d 00 00    	mov    0x6d24(%rip),%eax        # 184c0 <g_1570>
   1179c:	89 c1                	mov    %eax,%ecx
   1179e:	8b 45 fc             	mov    -0x4(%rbp),%eax
   117a1:	89 c2                	mov    %eax,%edx
   117a3:	48 8d 35 79 2b 00 00 	lea    0x2b79(%rip),%rsi        # 14323 <g_2031+0x127b>
   117aa:	48 89 cf             	mov    %rcx,%rdi
   117ad:	e8 41 7f ff ff       	callq  96f3 <transparent_crc>
   117b2:	8b 05 0c 6d 00 00    	mov    0x6d0c(%rip),%eax        # 184c4 <g_1570+0x4>
   117b8:	89 c1                	mov    %eax,%ecx
   117ba:	8b 45 fc             	mov    -0x4(%rbp),%eax
   117bd:	89 c2                	mov    %eax,%edx
   117bf:	48 8d 35 67 2b 00 00 	lea    0x2b67(%rip),%rsi        # 1432d <g_2031+0x1285>
   117c6:	48 89 cf             	mov    %rcx,%rdi
   117c9:	e8 25 7f ff ff       	callq  96f3 <transparent_crc>
   117ce:	48 8b 05 f3 6c 00 00 	mov    0x6cf3(%rip),%rax        # 184c8 <g_1570+0x8>
   117d5:	8b 55 fc             	mov    -0x4(%rbp),%edx
   117d8:	48 8d 35 58 2b 00 00 	lea    0x2b58(%rip),%rsi        # 14337 <g_2031+0x128f>
   117df:	48 89 c7             	mov    %rax,%rdi
   117e2:	e8 0c 7f ff ff       	callq  96f3 <transparent_crc>
   117e7:	0f b7 05 e2 6c 00 00 	movzwl 0x6ce2(%rip),%eax        # 184d0 <g_1570+0x10>
   117ee:	48 0f bf c0          	movswq %ax,%rax
   117f2:	8b 55 fc             	mov    -0x4(%rbp),%edx
   117f5:	48 8d 35 45 2b 00 00 	lea    0x2b45(%rip),%rsi        # 14341 <g_2031+0x1299>
   117fc:	48 89 c7             	mov    %rax,%rdi
   117ff:	e8 ef 7e ff ff       	callq  96f3 <transparent_crc>
   11804:	8b 05 ca 6c 00 00    	mov    0x6cca(%rip),%eax        # 184d4 <g_1570+0x14>
   1180a:	48 98                	cltq   
   1180c:	8b 55 fc             	mov    -0x4(%rbp),%edx
   1180f:	48 8d 35 35 2b 00 00 	lea    0x2b35(%rip),%rsi        # 1434b <g_2031+0x12a3>
   11816:	48 89 c7             	mov    %rax,%rdi
   11819:	e8 d5 7e ff ff       	callq  96f3 <transparent_crc>
   1181e:	8b 05 b4 6c 00 00    	mov    0x6cb4(%rip),%eax        # 184d8 <g_1570+0x18>
   11824:	89 c1                	mov    %eax,%ecx
   11826:	8b 45 fc             	mov    -0x4(%rbp),%eax
   11829:	89 c2                	mov    %eax,%edx
   1182b:	48 8d 35 23 2b 00 00 	lea    0x2b23(%rip),%rsi        # 14355 <g_2031+0x12ad>
   11832:	48 89 cf             	mov    %rcx,%rdi
   11835:	e8 b9 7e ff ff       	callq  96f3 <transparent_crc>
   1183a:	8b 05 9c 6c 00 00    	mov    0x6c9c(%rip),%eax        # 184dc <g_1570+0x1c>
   11840:	48 98                	cltq   
   11842:	8b 55 fc             	mov    -0x4(%rbp),%edx
   11845:	48 8d 35 13 2b 00 00 	lea    0x2b13(%rip),%rsi        # 1435f <g_2031+0x12b7>
   1184c:	48 89 c7             	mov    %rax,%rdi
   1184f:	e8 9f 7e ff ff       	callq  96f3 <transparent_crc>
   11854:	8b 05 86 6c 00 00    	mov    0x6c86(%rip),%eax        # 184e0 <g_1570+0x20>
   1185a:	48 98                	cltq   
   1185c:	8b 55 fc             	mov    -0x4(%rbp),%edx
   1185f:	48 8d 35 03 2b 00 00 	lea    0x2b03(%rip),%rsi        # 14369 <g_2031+0x12c1>
   11866:	48 89 c7             	mov    %rax,%rdi
   11869:	e8 85 7e ff ff       	callq  96f3 <transparent_crc>
   1186e:	0f b7 05 6f 6c 00 00 	movzwl 0x6c6f(%rip),%eax        # 184e4 <g_1570+0x24>
   11875:	c1 e0 07             	shl    $0x7,%eax
   11878:	66 c1 f8 07          	sar    $0x7,%ax
   1187c:	48 0f bf c0          	movswq %ax,%rax
   11880:	8b 55 fc             	mov    -0x4(%rbp),%edx
   11883:	48 8d 35 e9 2a 00 00 	lea    0x2ae9(%rip),%rsi        # 14373 <g_2031+0x12cb>
   1188a:	48 89 c7             	mov    %rax,%rdi
   1188d:	e8 61 7e ff ff       	callq  96f3 <transparent_crc>
   11892:	0f b6 05 4f 6c 00 00 	movzbl 0x6c4f(%rip),%eax        # 184e8 <g_1580>
   11899:	0f b6 c0             	movzbl %al,%eax
   1189c:	0f b6 15 46 6c 00 00 	movzbl 0x6c46(%rip),%edx        # 184e9 <g_1580+0x1>
   118a3:	0f b6 d2             	movzbl %dl,%edx
   118a6:	83 e2 1f             	and    $0x1f,%edx
   118a9:	48 c1 e2 08          	shl    $0x8,%rdx
   118ad:	48 09 d0             	or     %rdx,%rax
   118b0:	48 c1 e0 33          	shl    $0x33,%rax
   118b4:	48 c1 f8 33          	sar    $0x33,%rax
   118b8:	48 0f bf c0          	movswq %ax,%rax
   118bc:	8b 55 fc             	mov    -0x4(%rbp),%edx
   118bf:	48 8d 35 b7 2a 00 00 	lea    0x2ab7(%rip),%rsi        # 1437d <g_2031+0x12d5>
   118c6:	48 89 c7             	mov    %rax,%rdi
   118c9:	e8 25 7e ff ff       	callq  96f3 <transparent_crc>
   118ce:	0f b6 05 14 6c 00 00 	movzbl 0x6c14(%rip),%eax        # 184e9 <g_1580+0x1>
   118d5:	c0 e8 05             	shr    $0x5,%al
   118d8:	0f b6 c0             	movzbl %al,%eax
   118db:	0f b6 15 08 6c 00 00 	movzbl 0x6c08(%rip),%edx        # 184ea <g_1580+0x2>
   118e2:	0f b6 d2             	movzbl %dl,%edx
   118e5:	48 c1 e2 03          	shl    $0x3,%rdx
   118e9:	48 09 c2             	or     %rax,%rdx
   118ec:	0f b6 05 f8 6b 00 00 	movzbl 0x6bf8(%rip),%eax        # 184eb <g_1580+0x3>
   118f3:	0f b6 c0             	movzbl %al,%eax
   118f6:	83 e0 07             	and    $0x7,%eax
   118f9:	48 c1 e0 0b          	shl    $0xb,%rax
   118fd:	48 09 d0             	or     %rdx,%rax
   11900:	48 c1 e0 32          	shl    $0x32,%rax
   11904:	48 c1 f8 32          	sar    $0x32,%rax
   11908:	48 0f bf c0          	movswq %ax,%rax
   1190c:	8b 55 fc             	mov    -0x4(%rbp),%edx
   1190f:	48 8d 35 71 2a 00 00 	lea    0x2a71(%rip),%rsi        # 14387 <g_2031+0x12df>
   11916:	48 89 c7             	mov    %rax,%rdi
   11919:	e8 d5 7d ff ff       	callq  96f3 <transparent_crc>
   1191e:	0f b6 05 c6 6b 00 00 	movzbl 0x6bc6(%rip),%eax        # 184eb <g_1580+0x3>
   11925:	c0 e8 03             	shr    $0x3,%al
   11928:	0f b6 c0             	movzbl %al,%eax
   1192b:	0f b6 15 ba 6b 00 00 	movzbl 0x6bba(%rip),%edx        # 184ec <g_1580+0x4>
   11932:	0f b6 d2             	movzbl %dl,%edx
   11935:	48 c1 e2 05          	shl    $0x5,%rdx
   11939:	48 09 c2             	or     %rax,%rdx
   1193c:	0f b6 05 aa 6b 00 00 	movzbl 0x6baa(%rip),%eax        # 184ed <g_1580+0x5>
   11943:	0f b6 c0             	movzbl %al,%eax
   11946:	48 c1 e0 0d          	shl    $0xd,%rax
   1194a:	48 09 c2             	or     %rax,%rdx
   1194d:	0f b6 05 9a 6b 00 00 	movzbl 0x6b9a(%rip),%eax        # 184ee <g_1580+0x6>
   11954:	0f b6 c0             	movzbl %al,%eax
   11957:	83 e0 07             	and    $0x7,%eax
   1195a:	48 c1 e0 15          	shl    $0x15,%rax
   1195e:	48 09 d0             	or     %rdx,%rax
   11961:	89 c1                	mov    %eax,%ecx
   11963:	8b 45 fc             	mov    -0x4(%rbp),%eax
   11966:	89 c2                	mov    %eax,%edx
   11968:	48 8d 35 22 2a 00 00 	lea    0x2a22(%rip),%rsi        # 14391 <g_2031+0x12e9>
   1196f:	48 89 cf             	mov    %rcx,%rdi
   11972:	e8 7c 7d ff ff       	callq  96f3 <transparent_crc>
   11977:	0f b6 05 70 6b 00 00 	movzbl 0x6b70(%rip),%eax        # 184ee <g_1580+0x6>
   1197e:	01 c0                	add    %eax,%eax
   11980:	c0 f8 04             	sar    $0x4,%al
   11983:	48 0f be c0          	movsbq %al,%rax
   11987:	8b 55 fc             	mov    -0x4(%rbp),%edx
   1198a:	48 8d 35 0a 2a 00 00 	lea    0x2a0a(%rip),%rsi        # 1439b <g_2031+0x12f3>
   11991:	48 89 c7             	mov    %rax,%rdi
   11994:	e8 5a 7d ff ff       	callq  96f3 <transparent_crc>
   11999:	c7 45 f0 00 00 00 00 	movl   $0x0,-0x10(%rbp)
   119a0:	e9 dc 01 00 00       	jmpq   11b81 <main+0x3565>
   119a5:	c7 45 f4 00 00 00 00 	movl   $0x0,-0xc(%rbp)
   119ac:	e9 c2 01 00 00       	jmpq   11b73 <main+0x3557>
   119b1:	8b 45 f4             	mov    -0xc(%rbp),%eax
   119b4:	48 98                	cltq   
   119b6:	8b 55 f0             	mov    -0x10(%rbp),%edx
   119b9:	48 63 ca             	movslq %edx,%rcx
   119bc:	48 89 c2             	mov    %rax,%rdx
   119bf:	48 c1 e2 03          	shl    $0x3,%rdx
   119c3:	48 29 c2             	sub    %rax,%rdx
   119c6:	48 89 c8             	mov    %rcx,%rax
   119c9:	48 c1 e0 03          	shl    $0x3,%rax
   119cd:	48 29 c8             	sub    %rcx,%rax
   119d0:	48 c1 e0 02          	shl    $0x2,%rax
   119d4:	48 01 c2             	add    %rax,%rdx
   119d7:	48 8d 05 22 6b 00 00 	lea    0x6b22(%rip),%rax        # 18500 <g_1734>
   119de:	48 01 d0             	add    %rdx,%rax
   119e1:	0f b6 10             	movzbl (%rax),%edx
   119e4:	0f b6 d2             	movzbl %dl,%edx
   119e7:	0f b6 40 01          	movzbl 0x1(%rax),%eax
   119eb:	0f b6 c0             	movzbl %al,%eax
   119ee:	83 e0 1f             	and    $0x1f,%eax
   119f1:	48 c1 e0 08          	shl    $0x8,%rax
   119f5:	48 09 d0             	or     %rdx,%rax
   119f8:	48 c1 e0 33          	shl    $0x33,%rax
   119fc:	48 c1 f8 33          	sar    $0x33,%rax
   11a00:	48 0f bf c0          	movswq %ax,%rax
   11a04:	8b 55 fc             	mov    -0x4(%rbp),%edx
   11a07:	48 8d 35 97 29 00 00 	lea    0x2997(%rip),%rsi        # 143a5 <g_2031+0x12fd>
   11a0e:	48 89 c7             	mov    %rax,%rdi
   11a11:	e8 dd 7c ff ff       	callq  96f3 <transparent_crc>
   11a16:	8b 45 f4             	mov    -0xc(%rbp),%eax
   11a19:	48 98                	cltq   
   11a1b:	8b 55 f0             	mov    -0x10(%rbp),%edx
   11a1e:	48 63 ca             	movslq %edx,%rcx
   11a21:	48 89 c2             	mov    %rax,%rdx
   11a24:	48 c1 e2 03          	shl    $0x3,%rdx
   11a28:	48 29 c2             	sub    %rax,%rdx
   11a2b:	48 89 c8             	mov    %rcx,%rax
   11a2e:	48 c1 e0 03          	shl    $0x3,%rax
   11a32:	48 29 c8             	sub    %rcx,%rax
   11a35:	48 c1 e0 02          	shl    $0x2,%rax
   11a39:	48 01 c2             	add    %rax,%rdx
   11a3c:	48 8d 05 bd 6a 00 00 	lea    0x6abd(%rip),%rax        # 18500 <g_1734>
   11a43:	48 01 d0             	add    %rdx,%rax
   11a46:	0f b6 50 01          	movzbl 0x1(%rax),%edx
   11a4a:	c0 ea 05             	shr    $0x5,%dl
   11a4d:	0f b6 d2             	movzbl %dl,%edx
   11a50:	0f b6 48 02          	movzbl 0x2(%rax),%ecx
   11a54:	0f b6 c9             	movzbl %cl,%ecx
   11a57:	48 c1 e1 03          	shl    $0x3,%rcx
   11a5b:	48 09 ca             	or     %rcx,%rdx
   11a5e:	0f b6 40 03          	movzbl 0x3(%rax),%eax
   11a62:	0f b6 c0             	movzbl %al,%eax
   11a65:	83 e0 07             	and    $0x7,%eax
   11a68:	48 c1 e0 0b          	shl    $0xb,%rax
   11a6c:	48 09 d0             	or     %rdx,%rax
   11a6f:	48 c1 e0 32          	shl    $0x32,%rax
   11a73:	48 c1 f8 32          	sar    $0x32,%rax
   11a77:	48 0f bf c0          	movswq %ax,%rax
   11a7b:	8b 55 fc             	mov    -0x4(%rbp),%edx
   11a7e:	48 8d 35 30 29 00 00 	lea    0x2930(%rip),%rsi        # 143b5 <g_2031+0x130d>
   11a85:	48 89 c7             	mov    %rax,%rdi
   11a88:	e8 66 7c ff ff       	callq  96f3 <transparent_crc>
   11a8d:	8b 45 f4             	mov    -0xc(%rbp),%eax
   11a90:	48 98                	cltq   
   11a92:	8b 55 f0             	mov    -0x10(%rbp),%edx
   11a95:	48 63 ca             	movslq %edx,%rcx
   11a98:	48 89 c2             	mov    %rax,%rdx
   11a9b:	48 c1 e2 03          	shl    $0x3,%rdx
   11a9f:	48 29 c2             	sub    %rax,%rdx
   11aa2:	48 89 c8             	mov    %rcx,%rax
   11aa5:	48 c1 e0 03          	shl    $0x3,%rax
   11aa9:	48 29 c8             	sub    %rcx,%rax
   11aac:	48 c1 e0 02          	shl    $0x2,%rax
   11ab0:	48 01 c2             	add    %rax,%rdx
   11ab3:	48 8d 05 46 6a 00 00 	lea    0x6a46(%rip),%rax        # 18500 <g_1734>
   11aba:	48 01 d0             	add    %rdx,%rax
   11abd:	0f b6 50 03          	movzbl 0x3(%rax),%edx
   11ac1:	c0 ea 03             	shr    $0x3,%dl
   11ac4:	0f b6 d2             	movzbl %dl,%edx
   11ac7:	0f b6 48 04          	movzbl 0x4(%rax),%ecx
   11acb:	48 c1 e1 05          	shl    $0x5,%rcx
   11acf:	48 09 d1             	or     %rdx,%rcx
   11ad2:	0f b6 50 05          	movzbl 0x5(%rax),%edx
   11ad6:	48 c1 e2 0d          	shl    $0xd,%rdx
   11ada:	48 09 ca             	or     %rcx,%rdx
   11add:	0f b6 40 06          	movzbl 0x6(%rax),%eax
   11ae1:	83 e0 07             	and    $0x7,%eax
   11ae4:	48 c1 e0 15          	shl    $0x15,%rax
   11ae8:	48 09 d0             	or     %rdx,%rax
   11aeb:	89 c1                	mov    %eax,%ecx
   11aed:	8b 45 fc             	mov    -0x4(%rbp),%eax
   11af0:	89 c2                	mov    %eax,%edx
   11af2:	48 8d 35 cc 28 00 00 	lea    0x28cc(%rip),%rsi        # 143c5 <g_2031+0x131d>
   11af9:	48 89 cf             	mov    %rcx,%rdi
   11afc:	e8 f2 7b ff ff       	callq  96f3 <transparent_crc>
   11b01:	8b 45 f4             	mov    -0xc(%rbp),%eax
   11b04:	48 98                	cltq   
   11b06:	8b 55 f0             	mov    -0x10(%rbp),%edx
   11b09:	48 63 ca             	movslq %edx,%rcx
   11b0c:	48 89 c2             	mov    %rax,%rdx
   11b0f:	48 c1 e2 03          	shl    $0x3,%rdx
   11b13:	48 29 c2             	sub    %rax,%rdx
   11b16:	48 89 c8             	mov    %rcx,%rax
   11b19:	48 c1 e0 03          	shl    $0x3,%rax
   11b1d:	48 29 c8             	sub    %rcx,%rax
   11b20:	48 c1 e0 02          	shl    $0x2,%rax
   11b24:	48 01 c2             	add    %rax,%rdx
   11b27:	48 8d 05 d2 69 00 00 	lea    0x69d2(%rip),%rax        # 18500 <g_1734>
   11b2e:	48 01 d0             	add    %rdx,%rax
   11b31:	0f b6 40 06          	movzbl 0x6(%rax),%eax
   11b35:	01 c0                	add    %eax,%eax
   11b37:	c0 f8 04             	sar    $0x4,%al
   11b3a:	48 0f be c0          	movsbq %al,%rax
   11b3e:	8b 55 fc             	mov    -0x4(%rbp),%edx
   11b41:	48 8d 35 8d 28 00 00 	lea    0x288d(%rip),%rsi        # 143d5 <g_2031+0x132d>
   11b48:	48 89 c7             	mov    %rax,%rdi
   11b4b:	e8 a3 7b ff ff       	callq  96f3 <transparent_crc>
   11b50:	83 7d fc 00          	cmpl   $0x0,-0x4(%rbp)
   11b54:	74 19                	je     11b6f <main+0x3553>
   11b56:	8b 55 f4             	mov    -0xc(%rbp),%edx
   11b59:	8b 45 f0             	mov    -0x10(%rbp),%eax
   11b5c:	89 c6                	mov    %eax,%esi
   11b5e:	48 8d 3d 98 20 00 00 	lea    0x2098(%rip),%rdi        # 13bfd <g_2031+0xb55>
   11b65:	b8 00 00 00 00       	mov    $0x0,%eax
   11b6a:	e8 11 65 ff ff       	callq  8080 <printf@plt>
   11b6f:	83 45 f4 01          	addl   $0x1,-0xc(%rbp)
   11b73:	83 7d f4 03          	cmpl   $0x3,-0xc(%rbp)
   11b77:	0f 8e 34 fe ff ff    	jle    119b1 <main+0x3395>
   11b7d:	83 45 f0 01          	addl   $0x1,-0x10(%rbp)
   11b81:	83 7d f0 02          	cmpl   $0x2,-0x10(%rbp)
   11b85:	0f 8e 1a fe ff ff    	jle    119a5 <main+0x3389>
   11b8b:	b8 00 00 00 00       	mov    $0x0,%eax
   11b90:	48 98                	cltq   
   11b92:	8b 55 fc             	mov    -0x4(%rbp),%edx
   11b95:	48 8d 35 49 28 00 00 	lea    0x2849(%rip),%rsi        # 143e5 <g_2031+0x133d>
   11b9c:	48 89 c7             	mov    %rax,%rdi
   11b9f:	e8 4f 7b ff ff       	callq  96f3 <transparent_crc>
   11ba4:	8b 05 b6 69 00 00    	mov    0x69b6(%rip),%eax        # 18560 <g_1795>
   11baa:	89 c1                	mov    %eax,%ecx
   11bac:	8b 45 fc             	mov    -0x4(%rbp),%eax
   11baf:	89 c2                	mov    %eax,%edx
   11bb1:	48 8d 35 34 28 00 00 	lea    0x2834(%rip),%rsi        # 143ec <g_2031+0x1344>
   11bb8:	48 89 cf             	mov    %rcx,%rdi
   11bbb:	e8 33 7b ff ff       	callq  96f3 <transparent_crc>
   11bc0:	8b 05 9e 69 00 00    	mov    0x699e(%rip),%eax        # 18564 <g_1795+0x4>
   11bc6:	89 c1                	mov    %eax,%ecx
   11bc8:	8b 45 fc             	mov    -0x4(%rbp),%eax
   11bcb:	89 c2                	mov    %eax,%edx
   11bcd:	48 8d 35 22 28 00 00 	lea    0x2822(%rip),%rsi        # 143f6 <g_2031+0x134e>
   11bd4:	48 89 cf             	mov    %rcx,%rdi
   11bd7:	e8 17 7b ff ff       	callq  96f3 <transparent_crc>
   11bdc:	48 8b 05 85 69 00 00 	mov    0x6985(%rip),%rax        # 18568 <g_1795+0x8>
   11be3:	8b 55 fc             	mov    -0x4(%rbp),%edx
   11be6:	48 8d 35 13 28 00 00 	lea    0x2813(%rip),%rsi        # 14400 <g_2031+0x1358>
   11bed:	48 89 c7             	mov    %rax,%rdi
   11bf0:	e8 fe 7a ff ff       	callq  96f3 <transparent_crc>
   11bf5:	0f b7 05 74 69 00 00 	movzwl 0x6974(%rip),%eax        # 18570 <g_1795+0x10>
   11bfc:	48 0f bf c0          	movswq %ax,%rax
   11c00:	8b 55 fc             	mov    -0x4(%rbp),%edx
   11c03:	48 8d 35 00 28 00 00 	lea    0x2800(%rip),%rsi        # 1440a <g_2031+0x1362>
   11c0a:	48 89 c7             	mov    %rax,%rdi
   11c0d:	e8 e1 7a ff ff       	callq  96f3 <transparent_crc>
   11c12:	8b 05 5c 69 00 00    	mov    0x695c(%rip),%eax        # 18574 <g_1795+0x14>
   11c18:	48 98                	cltq   
   11c1a:	8b 55 fc             	mov    -0x4(%rbp),%edx
   11c1d:	48 8d 35 f0 27 00 00 	lea    0x27f0(%rip),%rsi        # 14414 <g_2031+0x136c>
   11c24:	48 89 c7             	mov    %rax,%rdi
   11c27:	e8 c7 7a ff ff       	callq  96f3 <transparent_crc>
   11c2c:	8b 05 46 69 00 00    	mov    0x6946(%rip),%eax        # 18578 <g_1795+0x18>
   11c32:	89 c1                	mov    %eax,%ecx
   11c34:	8b 45 fc             	mov    -0x4(%rbp),%eax
   11c37:	89 c2                	mov    %eax,%edx
   11c39:	48 8d 35 de 27 00 00 	lea    0x27de(%rip),%rsi        # 1441e <g_2031+0x1376>
   11c40:	48 89 cf             	mov    %rcx,%rdi
   11c43:	e8 ab 7a ff ff       	callq  96f3 <transparent_crc>
   11c48:	8b 05 2e 69 00 00    	mov    0x692e(%rip),%eax        # 1857c <g_1795+0x1c>
   11c4e:	48 98                	cltq   
   11c50:	8b 55 fc             	mov    -0x4(%rbp),%edx
   11c53:	48 8d 35 ce 27 00 00 	lea    0x27ce(%rip),%rsi        # 14428 <g_2031+0x1380>
   11c5a:	48 89 c7             	mov    %rax,%rdi
   11c5d:	e8 91 7a ff ff       	callq  96f3 <transparent_crc>
   11c62:	8b 05 18 69 00 00    	mov    0x6918(%rip),%eax        # 18580 <g_1795+0x20>
   11c68:	48 98                	cltq   
   11c6a:	8b 55 fc             	mov    -0x4(%rbp),%edx
   11c6d:	48 8d 35 be 27 00 00 	lea    0x27be(%rip),%rsi        # 14432 <g_2031+0x138a>
   11c74:	48 89 c7             	mov    %rax,%rdi
   11c77:	e8 77 7a ff ff       	callq  96f3 <transparent_crc>
   11c7c:	48 8b 05 fd 68 00 00 	mov    0x68fd(%rip),%rax        # 18580 <g_1795+0x20>
   11c83:	48 c1 e0 17          	shl    $0x17,%rax
   11c87:	48 c1 f8 37          	sar    $0x37,%rax
   11c8b:	48 0f bf c0          	movswq %ax,%rax
   11c8f:	8b 55 fc             	mov    -0x4(%rbp),%edx
   11c92:	48 8d 35 a3 27 00 00 	lea    0x27a3(%rip),%rsi        # 1443c <g_2031+0x1394>
   11c99:	48 89 c7             	mov    %rax,%rdi
   11c9c:	e8 52 7a ff ff       	callq  96f3 <transparent_crc>
   11ca1:	8b 05 f9 68 00 00    	mov    0x68f9(%rip),%eax        # 185a0 <g_1892>
   11ca7:	89 c1                	mov    %eax,%ecx
   11ca9:	8b 45 fc             	mov    -0x4(%rbp),%eax
   11cac:	89 c2                	mov    %eax,%edx
   11cae:	48 8d 35 91 27 00 00 	lea    0x2791(%rip),%rsi        # 14446 <g_2031+0x139e>
   11cb5:	48 89 cf             	mov    %rcx,%rdi
   11cb8:	e8 36 7a ff ff       	callq  96f3 <transparent_crc>
   11cbd:	8b 05 e1 68 00 00    	mov    0x68e1(%rip),%eax        # 185a4 <g_1892+0x4>
   11cc3:	89 c1                	mov    %eax,%ecx
   11cc5:	8b 45 fc             	mov    -0x4(%rbp),%eax
   11cc8:	89 c2                	mov    %eax,%edx
   11cca:	48 8d 35 7f 27 00 00 	lea    0x277f(%rip),%rsi        # 14450 <g_2031+0x13a8>
   11cd1:	48 89 cf             	mov    %rcx,%rdi
   11cd4:	e8 1a 7a ff ff       	callq  96f3 <transparent_crc>
   11cd9:	48 8b 05 c8 68 00 00 	mov    0x68c8(%rip),%rax        # 185a8 <g_1892+0x8>
   11ce0:	8b 55 fc             	mov    -0x4(%rbp),%edx
   11ce3:	48 8d 35 70 27 00 00 	lea    0x2770(%rip),%rsi        # 1445a <g_2031+0x13b2>
   11cea:	48 89 c7             	mov    %rax,%rdi
   11ced:	e8 01 7a ff ff       	callq  96f3 <transparent_crc>
   11cf2:	0f b7 05 b7 68 00 00 	movzwl 0x68b7(%rip),%eax        # 185b0 <g_1892+0x10>
   11cf9:	48 0f bf c0          	movswq %ax,%rax
   11cfd:	8b 55 fc             	mov    -0x4(%rbp),%edx
   11d00:	48 8d 35 5d 27 00 00 	lea    0x275d(%rip),%rsi        # 14464 <g_2031+0x13bc>
   11d07:	48 89 c7             	mov    %rax,%rdi
   11d0a:	e8 e4 79 ff ff       	callq  96f3 <transparent_crc>
   11d0f:	8b 05 9f 68 00 00    	mov    0x689f(%rip),%eax        # 185b4 <g_1892+0x14>
   11d15:	48 98                	cltq   
   11d17:	8b 55 fc             	mov    -0x4(%rbp),%edx
   11d1a:	48 8d 35 4d 27 00 00 	lea    0x274d(%rip),%rsi        # 1446e <g_2031+0x13c6>
   11d21:	48 89 c7             	mov    %rax,%rdi
   11d24:	e8 ca 79 ff ff       	callq  96f3 <transparent_crc>
   11d29:	8b 05 89 68 00 00    	mov    0x6889(%rip),%eax        # 185b8 <g_1892+0x18>
   11d2f:	89 c1                	mov    %eax,%ecx
   11d31:	8b 45 fc             	mov    -0x4(%rbp),%eax
   11d34:	89 c2                	mov    %eax,%edx
   11d36:	48 8d 35 3b 27 00 00 	lea    0x273b(%rip),%rsi        # 14478 <g_2031+0x13d0>
   11d3d:	48 89 cf             	mov    %rcx,%rdi
   11d40:	e8 ae 79 ff ff       	callq  96f3 <transparent_crc>
   11d45:	8b 05 71 68 00 00    	mov    0x6871(%rip),%eax        # 185bc <g_1892+0x1c>
   11d4b:	48 98                	cltq   
   11d4d:	8b 55 fc             	mov    -0x4(%rbp),%edx
   11d50:	48 8d 35 2b 27 00 00 	lea    0x272b(%rip),%rsi        # 14482 <g_2031+0x13da>
   11d57:	48 89 c7             	mov    %rax,%rdi
   11d5a:	e8 94 79 ff ff       	callq  96f3 <transparent_crc>
   11d5f:	8b 05 5b 68 00 00    	mov    0x685b(%rip),%eax        # 185c0 <g_1892+0x20>
   11d65:	48 98                	cltq   
   11d67:	8b 55 fc             	mov    -0x4(%rbp),%edx
   11d6a:	48 8d 35 1b 27 00 00 	lea    0x271b(%rip),%rsi        # 1448c <g_2031+0x13e4>
   11d71:	48 89 c7             	mov    %rax,%rdi
   11d74:	e8 7a 79 ff ff       	callq  96f3 <transparent_crc>
   11d79:	0f b7 05 44 68 00 00 	movzwl 0x6844(%rip),%eax        # 185c4 <g_1892+0x24>
   11d80:	c1 e0 07             	shl    $0x7,%eax
   11d83:	66 c1 f8 07          	sar    $0x7,%ax
   11d87:	48 0f bf c0          	movswq %ax,%rax
   11d8b:	8b 55 fc             	mov    -0x4(%rbp),%edx
   11d8e:	48 8d 35 01 27 00 00 	lea    0x2701(%rip),%rsi        # 14496 <g_2031+0x13ee>
   11d95:	48 89 c7             	mov    %rax,%rdi
   11d98:	e8 56 79 ff ff       	callq  96f3 <transparent_crc>
   11d9d:	c7 45 f0 00 00 00 00 	movl   $0x0,-0x10(%rbp)
   11da4:	e9 d5 01 00 00       	jmpq   11f7e <main+0x3962>
   11da9:	c7 45 f4 00 00 00 00 	movl   $0x0,-0xc(%rbp)
   11db0:	e9 bb 01 00 00       	jmpq   11f70 <main+0x3954>
   11db5:	8b 45 f4             	mov    -0xc(%rbp),%eax
   11db8:	48 98                	cltq   
   11dba:	8b 55 f0             	mov    -0x10(%rbp),%edx
   11dbd:	48 63 ca             	movslq %edx,%rcx
   11dc0:	48 89 c2             	mov    %rax,%rdx
   11dc3:	48 c1 e2 03          	shl    $0x3,%rdx
   11dc7:	48 29 c2             	sub    %rax,%rdx
   11dca:	48 89 c8             	mov    %rcx,%rax
   11dcd:	48 c1 e0 06          	shl    $0x6,%rax
   11dd1:	48 29 c8             	sub    %rcx,%rax
   11dd4:	48 01 c2             	add    %rax,%rdx
   11dd7:	48 8d 05 02 68 00 00 	lea    0x6802(%rip),%rax        # 185e0 <g_1909>
   11dde:	48 01 d0             	add    %rdx,%rax
   11de1:	0f b6 10             	movzbl (%rax),%edx
   11de4:	0f b6 d2             	movzbl %dl,%edx
   11de7:	0f b6 40 01          	movzbl 0x1(%rax),%eax
   11deb:	0f b6 c0             	movzbl %al,%eax
   11dee:	83 e0 1f             	and    $0x1f,%eax
   11df1:	48 c1 e0 08          	shl    $0x8,%rax
   11df5:	48 09 d0             	or     %rdx,%rax
   11df8:	48 c1 e0 33          	shl    $0x33,%rax
   11dfc:	48 c1 f8 33          	sar    $0x33,%rax
   11e00:	48 0f bf c0          	movswq %ax,%rax
   11e04:	8b 55 fc             	mov    -0x4(%rbp),%edx
   11e07:	48 8d 35 92 26 00 00 	lea    0x2692(%rip),%rsi        # 144a0 <g_2031+0x13f8>
   11e0e:	48 89 c7             	mov    %rax,%rdi
   11e11:	e8 dd 78 ff ff       	callq  96f3 <transparent_crc>
   11e16:	8b 45 f4             	mov    -0xc(%rbp),%eax
   11e19:	48 98                	cltq   
   11e1b:	8b 55 f0             	mov    -0x10(%rbp),%edx
   11e1e:	48 63 ca             	movslq %edx,%rcx
   11e21:	48 89 c2             	mov    %rax,%rdx
   11e24:	48 c1 e2 03          	shl    $0x3,%rdx
   11e28:	48 29 c2             	sub    %rax,%rdx
   11e2b:	48 89 c8             	mov    %rcx,%rax
   11e2e:	48 c1 e0 06          	shl    $0x6,%rax
   11e32:	48 29 c8             	sub    %rcx,%rax
   11e35:	48 01 c2             	add    %rax,%rdx
   11e38:	48 8d 05 a1 67 00 00 	lea    0x67a1(%rip),%rax        # 185e0 <g_1909>
   11e3f:	48 01 d0             	add    %rdx,%rax
   11e42:	0f b6 50 01          	movzbl 0x1(%rax),%edx
   11e46:	c0 ea 05             	shr    $0x5,%dl
   11e49:	0f b6 d2             	movzbl %dl,%edx
   11e4c:	0f b6 48 02          	movzbl 0x2(%rax),%ecx
   11e50:	0f b6 c9             	movzbl %cl,%ecx
   11e53:	48 c1 e1 03          	shl    $0x3,%rcx
   11e57:	48 09 ca             	or     %rcx,%rdx
   11e5a:	0f b6 40 03          	movzbl 0x3(%rax),%eax
   11e5e:	0f b6 c0             	movzbl %al,%eax
   11e61:	83 e0 07             	and    $0x7,%eax
   11e64:	48 c1 e0 0b          	shl    $0xb,%rax
   11e68:	48 09 d0             	or     %rdx,%rax
   11e6b:	48 c1 e0 32          	shl    $0x32,%rax
   11e6f:	48 c1 f8 32          	sar    $0x32,%rax
   11e73:	48 0f bf c0          	movswq %ax,%rax
   11e77:	8b 55 fc             	mov    -0x4(%rbp),%edx
   11e7a:	48 8d 35 2f 26 00 00 	lea    0x262f(%rip),%rsi        # 144b0 <g_2031+0x1408>
   11e81:	48 89 c7             	mov    %rax,%rdi
   11e84:	e8 6a 78 ff ff       	callq  96f3 <transparent_crc>
   11e89:	8b 45 f4             	mov    -0xc(%rbp),%eax
   11e8c:	48 98                	cltq   
   11e8e:	8b 55 f0             	mov    -0x10(%rbp),%edx
   11e91:	48 63 ca             	movslq %edx,%rcx
   11e94:	48 89 c2             	mov    %rax,%rdx
   11e97:	48 c1 e2 03          	shl    $0x3,%rdx
   11e9b:	48 29 c2             	sub    %rax,%rdx
   11e9e:	48 89 c8             	mov    %rcx,%rax
   11ea1:	48 c1 e0 06          	shl    $0x6,%rax
   11ea5:	48 29 c8             	sub    %rcx,%rax
   11ea8:	48 01 c2             	add    %rax,%rdx
   11eab:	48 8d 05 2e 67 00 00 	lea    0x672e(%rip),%rax        # 185e0 <g_1909>
   11eb2:	48 01 d0             	add    %rdx,%rax
   11eb5:	0f b6 50 03          	movzbl 0x3(%rax),%edx
   11eb9:	c0 ea 03             	shr    $0x3,%dl
   11ebc:	0f b6 d2             	movzbl %dl,%edx
   11ebf:	0f b6 48 04          	movzbl 0x4(%rax),%ecx
   11ec3:	0f b6 c9             	movzbl %cl,%ecx
   11ec6:	48 c1 e1 05          	shl    $0x5,%rcx
   11eca:	48 09 d1             	or     %rdx,%rcx
   11ecd:	0f b6 50 05          	movzbl 0x5(%rax),%edx
   11ed1:	0f b6 d2             	movzbl %dl,%edx
   11ed4:	48 c1 e2 0d          	shl    $0xd,%rdx
   11ed8:	48 09 ca             	or     %rcx,%rdx
   11edb:	0f b6 40 06          	movzbl 0x6(%rax),%eax
   11edf:	0f b6 c0             	movzbl %al,%eax
   11ee2:	83 e0 07             	and    $0x7,%eax
   11ee5:	48 c1 e0 15          	shl    $0x15,%rax
   11ee9:	48 09 d0             	or     %rdx,%rax
   11eec:	89 c1                	mov    %eax,%ecx
   11eee:	8b 45 fc             	mov    -0x4(%rbp),%eax
   11ef1:	89 c2                	mov    %eax,%edx
   11ef3:	48 8d 35 c6 25 00 00 	lea    0x25c6(%rip),%rsi        # 144c0 <g_2031+0x1418>
   11efa:	48 89 cf             	mov    %rcx,%rdi
   11efd:	e8 f1 77 ff ff       	callq  96f3 <transparent_crc>
   11f02:	8b 45 f4             	mov    -0xc(%rbp),%eax
   11f05:	48 98                	cltq   
   11f07:	8b 55 f0             	mov    -0x10(%rbp),%edx
   11f0a:	48 63 ca             	movslq %edx,%rcx
   11f0d:	48 89 c2             	mov    %rax,%rdx
   11f10:	48 c1 e2 03          	shl    $0x3,%rdx
   11f14:	48 29 c2             	sub    %rax,%rdx
   11f17:	48 89 c8             	mov    %rcx,%rax
   11f1a:	48 c1 e0 06          	shl    $0x6,%rax
   11f1e:	48 29 c8             	sub    %rcx,%rax
   11f21:	48 01 c2             	add    %rax,%rdx
   11f24:	48 8d 05 b5 66 00 00 	lea    0x66b5(%rip),%rax        # 185e0 <g_1909>
   11f2b:	48 01 d0             	add    %rdx,%rax
   11f2e:	0f b6 40 06          	movzbl 0x6(%rax),%eax
   11f32:	01 c0                	add    %eax,%eax
   11f34:	c0 f8 04             	sar    $0x4,%al
   11f37:	48 0f be c0          	movsbq %al,%rax
   11f3b:	8b 55 fc             	mov    -0x4(%rbp),%edx
   11f3e:	48 8d 35 8b 25 00 00 	lea    0x258b(%rip),%rsi        # 144d0 <g_2031+0x1428>
   11f45:	48 89 c7             	mov    %rax,%rdi
   11f48:	e8 a6 77 ff ff       	callq  96f3 <transparent_crc>
   11f4d:	83 7d fc 00          	cmpl   $0x0,-0x4(%rbp)
   11f51:	74 19                	je     11f6c <main+0x3950>
   11f53:	8b 55 f4             	mov    -0xc(%rbp),%edx
   11f56:	8b 45 f0             	mov    -0x10(%rbp),%eax
   11f59:	89 c6                	mov    %eax,%esi
   11f5b:	48 8d 3d 9b 1c 00 00 	lea    0x1c9b(%rip),%rdi        # 13bfd <g_2031+0xb55>
   11f62:	b8 00 00 00 00       	mov    $0x0,%eax
   11f67:	e8 14 61 ff ff       	callq  8080 <printf@plt>
   11f6c:	83 45 f4 01          	addl   $0x1,-0xc(%rbp)
   11f70:	83 7d f4 08          	cmpl   $0x8,-0xc(%rbp)
   11f74:	0f 8e 3b fe ff ff    	jle    11db5 <main+0x3799>
   11f7a:	83 45 f0 01          	addl   $0x1,-0x10(%rbp)
   11f7e:	83 7d f0 02          	cmpl   $0x2,-0x10(%rbp)
   11f82:	0f 8e 21 fe ff ff    	jle    11da9 <main+0x378d>
   11f88:	0f b6 05 0e 67 00 00 	movzbl 0x670e(%rip),%eax        # 1869d <g_1910>
   11f8f:	0f b6 c0             	movzbl %al,%eax
   11f92:	0f b6 15 05 67 00 00 	movzbl 0x6705(%rip),%edx        # 1869e <g_1910+0x1>
   11f99:	0f b6 d2             	movzbl %dl,%edx
   11f9c:	83 e2 1f             	and    $0x1f,%edx
   11f9f:	48 c1 e2 08          	shl    $0x8,%rdx
   11fa3:	48 09 d0             	or     %rdx,%rax
   11fa6:	48 c1 e0 33          	shl    $0x33,%rax
   11faa:	48 c1 f8 33          	sar    $0x33,%rax
   11fae:	48 0f bf c0          	movswq %ax,%rax
   11fb2:	8b 55 fc             	mov    -0x4(%rbp),%edx
   11fb5:	48 8d 35 24 25 00 00 	lea    0x2524(%rip),%rsi        # 144e0 <g_2031+0x1438>
   11fbc:	48 89 c7             	mov    %rax,%rdi
   11fbf:	e8 2f 77 ff ff       	callq  96f3 <transparent_crc>
   11fc4:	0f b6 05 d3 66 00 00 	movzbl 0x66d3(%rip),%eax        # 1869e <g_1910+0x1>
   11fcb:	c0 e8 05             	shr    $0x5,%al
   11fce:	0f b6 c0             	movzbl %al,%eax
   11fd1:	0f b6 15 c7 66 00 00 	movzbl 0x66c7(%rip),%edx        # 1869f <g_1910+0x2>
   11fd8:	0f b6 d2             	movzbl %dl,%edx
   11fdb:	48 c1 e2 03          	shl    $0x3,%rdx
   11fdf:	48 09 c2             	or     %rax,%rdx
   11fe2:	0f b6 05 b7 66 00 00 	movzbl 0x66b7(%rip),%eax        # 186a0 <g_1910+0x3>
   11fe9:	0f b6 c0             	movzbl %al,%eax
   11fec:	83 e0 07             	and    $0x7,%eax
   11fef:	48 c1 e0 0b          	shl    $0xb,%rax
   11ff3:	48 09 d0             	or     %rdx,%rax
   11ff6:	48 c1 e0 32          	shl    $0x32,%rax
   11ffa:	48 c1 f8 32          	sar    $0x32,%rax
   11ffe:	48 0f bf c0          	movswq %ax,%rax
   12002:	8b 55 fc             	mov    -0x4(%rbp),%edx
   12005:	48 8d 35 de 24 00 00 	lea    0x24de(%rip),%rsi        # 144ea <g_2031+0x1442>
   1200c:	48 89 c7             	mov    %rax,%rdi
   1200f:	e8 df 76 ff ff       	callq  96f3 <transparent_crc>
   12014:	0f b6 05 85 66 00 00 	movzbl 0x6685(%rip),%eax        # 186a0 <g_1910+0x3>
   1201b:	c0 e8 03             	shr    $0x3,%al
   1201e:	0f b6 c0             	movzbl %al,%eax
   12021:	0f b6 15 79 66 00 00 	movzbl 0x6679(%rip),%edx        # 186a1 <g_1910+0x4>
   12028:	0f b6 d2             	movzbl %dl,%edx
   1202b:	48 c1 e2 05          	shl    $0x5,%rdx
   1202f:	48 09 c2             	or     %rax,%rdx
   12032:	0f b6 05 69 66 00 00 	movzbl 0x6669(%rip),%eax        # 186a2 <g_1910+0x5>
   12039:	0f b6 c0             	movzbl %al,%eax
   1203c:	48 c1 e0 0d          	shl    $0xd,%rax
   12040:	48 09 c2             	or     %rax,%rdx
   12043:	0f b6 05 59 66 00 00 	movzbl 0x6659(%rip),%eax        # 186a3 <g_1910+0x6>
   1204a:	0f b6 c0             	movzbl %al,%eax
   1204d:	83 e0 07             	and    $0x7,%eax
   12050:	48 c1 e0 15          	shl    $0x15,%rax
   12054:	48 09 d0             	or     %rdx,%rax
   12057:	89 c1                	mov    %eax,%ecx
   12059:	8b 45 fc             	mov    -0x4(%rbp),%eax
   1205c:	89 c2                	mov    %eax,%edx
   1205e:	48 8d 35 8f 24 00 00 	lea    0x248f(%rip),%rsi        # 144f4 <g_2031+0x144c>
   12065:	48 89 cf             	mov    %rcx,%rdi
   12068:	e8 86 76 ff ff       	callq  96f3 <transparent_crc>
   1206d:	0f b6 05 2f 66 00 00 	movzbl 0x662f(%rip),%eax        # 186a3 <g_1910+0x6>
   12074:	01 c0                	add    %eax,%eax
   12076:	c0 f8 04             	sar    $0x4,%al
   12079:	48 0f be c0          	movsbq %al,%rax
   1207d:	8b 55 fc             	mov    -0x4(%rbp),%edx
   12080:	48 8d 35 77 24 00 00 	lea    0x2477(%rip),%rsi        # 144fe <g_2031+0x1456>
   12087:	48 89 c7             	mov    %rax,%rdi
   1208a:	e8 64 76 ff ff       	callq  96f3 <transparent_crc>
   1208f:	0f b6 05 0e 66 00 00 	movzbl 0x660e(%rip),%eax        # 186a4 <g_1918>
   12096:	0f b6 c0             	movzbl %al,%eax
   12099:	8b 55 fc             	mov    -0x4(%rbp),%edx
   1209c:	48 8d 35 65 24 00 00 	lea    0x2465(%rip),%rsi        # 14508 <g_2031+0x1460>
   120a3:	48 89 c7             	mov    %rax,%rdi
   120a6:	e8 48 76 ff ff       	callq  96f3 <transparent_crc>
   120ab:	8b 05 cf 0f 00 00    	mov    0xfcf(%rip),%eax        # 13080 <g_1934>
   120b1:	89 c1                	mov    %eax,%ecx
   120b3:	8b 45 fc             	mov    -0x4(%rbp),%eax
   120b6:	89 c2                	mov    %eax,%edx
   120b8:	48 8d 35 50 24 00 00 	lea    0x2450(%rip),%rsi        # 1450f <g_2031+0x1467>
   120bf:	48 89 cf             	mov    %rcx,%rdi
   120c2:	e8 2c 76 ff ff       	callq  96f3 <transparent_crc>
   120c7:	b8 fe ff ff ff       	mov    $0xfffffffe,%eax
   120cc:	89 c1                	mov    %eax,%ecx
   120ce:	8b 45 fc             	mov    -0x4(%rbp),%eax
   120d1:	89 c2                	mov    %eax,%edx
   120d3:	48 8d 35 3f 24 00 00 	lea    0x243f(%rip),%rsi        # 14519 <g_2031+0x1471>
   120da:	48 89 cf             	mov    %rcx,%rdi
   120dd:	e8 11 76 ff ff       	callq  96f3 <transparent_crc>
   120e2:	48 b9 b2 39 9b 1a b0 	movabs $0x5bc300b01a9b39b2,%rcx
   120e9:	00 c3 5b 
   120ec:	8b 45 fc             	mov    -0x4(%rbp),%eax
   120ef:	89 c2                	mov    %eax,%edx
   120f1:	48 8d 35 2b 24 00 00 	lea    0x242b(%rip),%rsi        # 14523 <g_2031+0x147b>
   120f8:	48 89 cf             	mov    %rcx,%rdi
   120fb:	e8 f3 75 ff ff       	callq  96f3 <transparent_crc>
   12100:	0f b7 05 89 0f 00 00 	movzwl 0xf89(%rip),%eax        # 13090 <g_1934+0x10>
   12107:	48 0f bf c0          	movswq %ax,%rax
   1210b:	8b 55 fc             	mov    -0x4(%rbp),%edx
   1210e:	48 8d 35 18 24 00 00 	lea    0x2418(%rip),%rsi        # 1452d <g_2031+0x1485>
   12115:	48 89 c7             	mov    %rax,%rdi
   12118:	e8 d6 75 ff ff       	callq  96f3 <transparent_crc>
   1211d:	b8 c3 45 46 c6       	mov    $0xc64645c3,%eax
   12122:	48 98                	cltq   
   12124:	8b 55 fc             	mov    -0x4(%rbp),%edx
   12127:	48 8d 35 09 24 00 00 	lea    0x2409(%rip),%rsi        # 14537 <g_2031+0x148f>
   1212e:	48 89 c7             	mov    %rax,%rdi
   12131:	e8 bd 75 ff ff       	callq  96f3 <transparent_crc>
   12136:	b8 ff ff ff ff       	mov    $0xffffffff,%eax
   1213b:	89 c1                	mov    %eax,%ecx
   1213d:	8b 45 fc             	mov    -0x4(%rbp),%eax
   12140:	89 c2                	mov    %eax,%edx
   12142:	48 8d 35 f8 23 00 00 	lea    0x23f8(%rip),%rsi        # 14541 <g_2031+0x1499>
   12149:	48 89 cf             	mov    %rcx,%rdi
   1214c:	e8 a2 75 ff ff       	callq  96f3 <transparent_crc>
   12151:	b8 44 23 c4 0f       	mov    $0xfc42344,%eax
   12156:	48 98                	cltq   
   12158:	8b 55 fc             	mov    -0x4(%rbp),%edx
   1215b:	48 8d 35 e9 23 00 00 	lea    0x23e9(%rip),%rsi        # 1454b <g_2031+0x14a3>
   12162:	48 89 c7             	mov    %rax,%rdi
   12165:	e8 89 75 ff ff       	callq  96f3 <transparent_crc>
   1216a:	b8 fa ff ff ff       	mov    $0xfffffffa,%eax
   1216f:	48 98                	cltq   
   12171:	8b 55 fc             	mov    -0x4(%rbp),%edx
   12174:	48 8d 35 da 23 00 00 	lea    0x23da(%rip),%rsi        # 14555 <g_2031+0x14ad>
   1217b:	48 89 c7             	mov    %rax,%rdi
   1217e:	e8 70 75 ff ff       	callq  96f3 <transparent_crc>
   12183:	b8 fc ff ff ff       	mov    $0xfffffffc,%eax
   12188:	48 0f bf c0          	movswq %ax,%rax
   1218c:	8b 55 fc             	mov    -0x4(%rbp),%edx
   1218f:	48 8d 35 c9 23 00 00 	lea    0x23c9(%rip),%rsi        # 1455f <g_2031+0x14b7>
   12196:	48 89 c7             	mov    %rax,%rdi
   12199:	e8 55 75 ff ff       	callq  96f3 <transparent_crc>
   1219e:	c7 45 f0 00 00 00 00 	movl   $0x0,-0x10(%rbp)
   121a5:	e9 7c 01 00 00       	jmpq   12326 <main+0x3d0a>
   121aa:	8b 45 f0             	mov    -0x10(%rbp),%eax
   121ad:	48 63 d0             	movslq %eax,%rdx
   121b0:	48 89 d0             	mov    %rdx,%rax
   121b3:	48 c1 e0 03          	shl    $0x3,%rax
   121b7:	48 29 d0             	sub    %rdx,%rax
   121ba:	48 89 c2             	mov    %rax,%rdx
   121bd:	48 8d 05 fc 64 00 00 	lea    0x64fc(%rip),%rax        # 186c0 <g_1987>
   121c4:	0f b6 0c 02          	movzbl (%rdx,%rax,1),%ecx
   121c8:	0f b6 c9             	movzbl %cl,%ecx
   121cb:	0f b6 44 02 01       	movzbl 0x1(%rdx,%rax,1),%eax
   121d0:	0f b6 c0             	movzbl %al,%eax
   121d3:	83 e0 1f             	and    $0x1f,%eax
   121d6:	48 c1 e0 08          	shl    $0x8,%rax
   121da:	48 09 c8             	or     %rcx,%rax
   121dd:	48 c1 e0 33          	shl    $0x33,%rax
   121e1:	48 c1 f8 33          	sar    $0x33,%rax
   121e5:	48 0f bf c0          	movswq %ax,%rax
   121e9:	8b 55 fc             	mov    -0x4(%rbp),%edx
   121ec:	48 8d 35 76 23 00 00 	lea    0x2376(%rip),%rsi        # 14569 <g_2031+0x14c1>
   121f3:	48 89 c7             	mov    %rax,%rdi
   121f6:	e8 f8 74 ff ff       	callq  96f3 <transparent_crc>
   121fb:	8b 45 f0             	mov    -0x10(%rbp),%eax
   121fe:	48 63 d0             	movslq %eax,%rdx
   12201:	48 89 d0             	mov    %rdx,%rax
   12204:	48 c1 e0 03          	shl    $0x3,%rax
   12208:	48 29 d0             	sub    %rdx,%rax
   1220b:	48 89 c2             	mov    %rax,%rdx
   1220e:	48 8d 05 ab 64 00 00 	lea    0x64ab(%rip),%rax        # 186c0 <g_1987>
   12215:	0f b6 4c 02 01       	movzbl 0x1(%rdx,%rax,1),%ecx
   1221a:	c0 e9 05             	shr    $0x5,%cl
   1221d:	0f b6 c9             	movzbl %cl,%ecx
   12220:	0f b6 74 02 02       	movzbl 0x2(%rdx,%rax,1),%esi
   12225:	40 0f b6 f6          	movzbl %sil,%esi
   12229:	48 c1 e6 03          	shl    $0x3,%rsi
   1222d:	48 09 f1             	or     %rsi,%rcx
   12230:	0f b6 44 02 03       	movzbl 0x3(%rdx,%rax,1),%eax
   12235:	0f b6 c0             	movzbl %al,%eax
   12238:	83 e0 07             	and    $0x7,%eax
   1223b:	48 c1 e0 0b          	shl    $0xb,%rax
   1223f:	48 09 c8             	or     %rcx,%rax
   12242:	48 c1 e0 32          	shl    $0x32,%rax
   12246:	48 c1 f8 32          	sar    $0x32,%rax
   1224a:	48 0f bf c0          	movswq %ax,%rax
   1224e:	8b 55 fc             	mov    -0x4(%rbp),%edx
   12251:	48 8d 35 1e 23 00 00 	lea    0x231e(%rip),%rsi        # 14576 <g_2031+0x14ce>
   12258:	48 89 c7             	mov    %rax,%rdi
   1225b:	e8 93 74 ff ff       	callq  96f3 <transparent_crc>
   12260:	8b 45 f0             	mov    -0x10(%rbp),%eax
   12263:	48 63 d0             	movslq %eax,%rdx
   12266:	48 89 d0             	mov    %rdx,%rax
   12269:	48 c1 e0 03          	shl    $0x3,%rax
   1226d:	48 29 d0             	sub    %rdx,%rax
   12270:	48 89 c2             	mov    %rax,%rdx
   12273:	48 8d 05 46 64 00 00 	lea    0x6446(%rip),%rax        # 186c0 <g_1987>
   1227a:	0f b6 4c 02 03       	movzbl 0x3(%rdx,%rax,1),%ecx
   1227f:	c0 e9 03             	shr    $0x3,%cl
   12282:	0f b6 c9             	movzbl %cl,%ecx
   12285:	0f b6 74 02 04       	movzbl 0x4(%rdx,%rax,1),%esi
   1228a:	40 0f b6 f6          	movzbl %sil,%esi
   1228e:	48 c1 e6 05          	shl    $0x5,%rsi
   12292:	48 09 ce             	or     %rcx,%rsi
   12295:	0f b6 4c 02 05       	movzbl 0x5(%rdx,%rax,1),%ecx
   1229a:	0f b6 c9             	movzbl %cl,%ecx
   1229d:	48 c1 e1 0d          	shl    $0xd,%rcx
   122a1:	48 09 f1             	or     %rsi,%rcx
   122a4:	0f b6 44 02 06       	movzbl 0x6(%rdx,%rax,1),%eax
   122a9:	0f b6 c0             	movzbl %al,%eax
   122ac:	83 e0 07             	and    $0x7,%eax
   122af:	48 c1 e0 15          	shl    $0x15,%rax
   122b3:	48 09 c8             	or     %rcx,%rax
   122b6:	89 c1                	mov    %eax,%ecx
   122b8:	8b 45 fc             	mov    -0x4(%rbp),%eax
   122bb:	89 c2                	mov    %eax,%edx
   122bd:	48 8d 35 bf 22 00 00 	lea    0x22bf(%rip),%rsi        # 14583 <g_2031+0x14db>
   122c4:	48 89 cf             	mov    %rcx,%rdi
   122c7:	e8 27 74 ff ff       	callq  96f3 <transparent_crc>
   122cc:	8b 45 f0             	mov    -0x10(%rbp),%eax
   122cf:	48 63 d0             	movslq %eax,%rdx
   122d2:	48 89 d0             	mov    %rdx,%rax
   122d5:	48 c1 e0 03          	shl    $0x3,%rax
   122d9:	48 29 d0             	sub    %rdx,%rax
   122dc:	48 89 c2             	mov    %rax,%rdx
   122df:	48 8d 05 da 63 00 00 	lea    0x63da(%rip),%rax        # 186c0 <g_1987>
   122e6:	0f b6 44 02 06       	movzbl 0x6(%rdx,%rax,1),%eax
   122eb:	01 c0                	add    %eax,%eax
   122ed:	c0 f8 04             	sar    $0x4,%al
   122f0:	48 0f be c0          	movsbq %al,%rax
   122f4:	8b 55 fc             	mov    -0x4(%rbp),%edx
   122f7:	48 8d 35 92 22 00 00 	lea    0x2292(%rip),%rsi        # 14590 <g_2031+0x14e8>
   122fe:	48 89 c7             	mov    %rax,%rdi
   12301:	e8 ed 73 ff ff       	callq  96f3 <transparent_crc>
   12306:	83 7d fc 00          	cmpl   $0x0,-0x4(%rbp)
   1230a:	74 16                	je     12322 <main+0x3d06>
   1230c:	8b 45 f0             	mov    -0x10(%rbp),%eax
   1230f:	89 c6                	mov    %eax,%esi
   12311:	48 8d 3d 2d 19 00 00 	lea    0x192d(%rip),%rdi        # 13c45 <g_2031+0xb9d>
   12318:	b8 00 00 00 00       	mov    $0x0,%eax
   1231d:	e8 5e 5d ff ff       	callq  8080 <printf@plt>
   12322:	83 45 f0 01          	addl   $0x1,-0x10(%rbp)
   12326:	83 7d f0 09          	cmpl   $0x9,-0x10(%rbp)
   1232a:	0f 8e 7a fe ff ff    	jle    121aa <main+0x3b8e>
   12330:	0f b6 05 cf 63 00 00 	movzbl 0x63cf(%rip),%eax        # 18706 <g_1988>
   12337:	0f b6 c0             	movzbl %al,%eax
   1233a:	0f b6 15 c6 63 00 00 	movzbl 0x63c6(%rip),%edx        # 18707 <g_1988+0x1>
   12341:	0f b6 d2             	movzbl %dl,%edx
   12344:	83 e2 1f             	and    $0x1f,%edx
   12347:	48 c1 e2 08          	shl    $0x8,%rdx
   1234b:	48 09 d0             	or     %rdx,%rax
   1234e:	48 c1 e0 33          	shl    $0x33,%rax
   12352:	48 c1 f8 33          	sar    $0x33,%rax
   12356:	48 0f bf c0          	movswq %ax,%rax
   1235a:	8b 55 fc             	mov    -0x4(%rbp),%edx
   1235d:	48 8d 35 39 22 00 00 	lea    0x2239(%rip),%rsi        # 1459d <g_2031+0x14f5>
   12364:	48 89 c7             	mov    %rax,%rdi
   12367:	e8 87 73 ff ff       	callq  96f3 <transparent_crc>
   1236c:	0f b6 05 94 63 00 00 	movzbl 0x6394(%rip),%eax        # 18707 <g_1988+0x1>
   12373:	c0 e8 05             	shr    $0x5,%al
   12376:	0f b6 c0             	movzbl %al,%eax
   12379:	0f b6 15 88 63 00 00 	movzbl 0x6388(%rip),%edx        # 18708 <g_1988+0x2>
   12380:	0f b6 d2             	movzbl %dl,%edx
   12383:	48 c1 e2 03          	shl    $0x3,%rdx
   12387:	48 09 c2             	or     %rax,%rdx
   1238a:	0f b6 05 78 63 00 00 	movzbl 0x6378(%rip),%eax        # 18709 <g_1988+0x3>
   12391:	0f b6 c0             	movzbl %al,%eax
   12394:	83 e0 07             	and    $0x7,%eax
   12397:	48 c1 e0 0b          	shl    $0xb,%rax
   1239b:	48 09 d0             	or     %rdx,%rax
   1239e:	48 c1 e0 32          	shl    $0x32,%rax
   123a2:	48 c1 f8 32          	sar    $0x32,%rax
   123a6:	48 0f bf c0          	movswq %ax,%rax
   123aa:	8b 55 fc             	mov    -0x4(%rbp),%edx
   123ad:	48 8d 35 f3 21 00 00 	lea    0x21f3(%rip),%rsi        # 145a7 <g_2031+0x14ff>
   123b4:	48 89 c7             	mov    %rax,%rdi
   123b7:	e8 37 73 ff ff       	callq  96f3 <transparent_crc>
   123bc:	0f b6 05 46 63 00 00 	movzbl 0x6346(%rip),%eax        # 18709 <g_1988+0x3>
   123c3:	c0 e8 03             	shr    $0x3,%al
   123c6:	0f b6 c0             	movzbl %al,%eax
   123c9:	0f b6 15 3a 63 00 00 	movzbl 0x633a(%rip),%edx        # 1870a <g_1988+0x4>
   123d0:	0f b6 d2             	movzbl %dl,%edx
   123d3:	48 c1 e2 05          	shl    $0x5,%rdx
   123d7:	48 09 c2             	or     %rax,%rdx
   123da:	0f b6 05 2a 63 00 00 	movzbl 0x632a(%rip),%eax        # 1870b <g_1988+0x5>
   123e1:	0f b6 c0             	movzbl %al,%eax
   123e4:	48 c1 e0 0d          	shl    $0xd,%rax
   123e8:	48 09 c2             	or     %rax,%rdx
   123eb:	0f b6 05 1a 63 00 00 	movzbl 0x631a(%rip),%eax        # 1870c <g_1988+0x6>
   123f2:	0f b6 c0             	movzbl %al,%eax
   123f5:	83 e0 07             	and    $0x7,%eax
   123f8:	48 c1 e0 15          	shl    $0x15,%rax
   123fc:	48 09 d0             	or     %rdx,%rax
   123ff:	89 c1                	mov    %eax,%ecx
   12401:	8b 45 fc             	mov    -0x4(%rbp),%eax
   12404:	89 c2                	mov    %eax,%edx
   12406:	48 8d 35 a4 21 00 00 	lea    0x21a4(%rip),%rsi        # 145b1 <g_2031+0x1509>
   1240d:	48 89 cf             	mov    %rcx,%rdi
   12410:	e8 de 72 ff ff       	callq  96f3 <transparent_crc>
   12415:	0f b6 05 f0 62 00 00 	movzbl 0x62f0(%rip),%eax        # 1870c <g_1988+0x6>
   1241c:	01 c0                	add    %eax,%eax
   1241e:	c0 f8 04             	sar    $0x4,%al
   12421:	48 0f be c0          	movsbq %al,%rax
   12425:	8b 55 fc             	mov    -0x4(%rbp),%edx
   12428:	48 8d 35 8c 21 00 00 	lea    0x218c(%rip),%rsi        # 145bb <g_2031+0x1513>
   1242f:	48 89 c7             	mov    %rax,%rdi
   12432:	e8 bc 72 ff ff       	callq  96f3 <transparent_crc>
   12437:	b8 f7 ff ff ff       	mov    $0xfffffff7,%eax
   1243c:	48 98                	cltq   
   1243e:	8b 55 fc             	mov    -0x4(%rbp),%edx
   12441:	48 8d 35 7d 21 00 00 	lea    0x217d(%rip),%rsi        # 145c5 <g_2031+0x151d>
   12448:	48 89 c7             	mov    %rax,%rdi
   1244b:	e8 a3 72 ff ff       	callq  96f3 <transparent_crc>
   12450:	48 8b 05 b9 62 00 00 	mov    0x62b9(%rip),%rax        # 18710 <g_2072>
   12457:	48 89 c1             	mov    %rax,%rcx
   1245a:	8b 45 fc             	mov    -0x4(%rbp),%eax
   1245d:	89 c2                	mov    %eax,%edx
   1245f:	48 8d 35 66 21 00 00 	lea    0x2166(%rip),%rsi        # 145cc <g_2031+0x1524>
   12466:	48 89 cf             	mov    %rcx,%rdi
   12469:	e8 85 72 ff ff       	callq  96f3 <transparent_crc>
   1246e:	0f b6 05 a3 62 00 00 	movzbl 0x62a3(%rip),%eax        # 18718 <g_2097>
   12475:	0f b6 c0             	movzbl %al,%eax
   12478:	0f b6 15 9a 62 00 00 	movzbl 0x629a(%rip),%edx        # 18719 <g_2097+0x1>
   1247f:	0f b6 d2             	movzbl %dl,%edx
   12482:	83 e2 1f             	and    $0x1f,%edx
   12485:	48 c1 e2 08          	shl    $0x8,%rdx
   12489:	48 09 d0             	or     %rdx,%rax
   1248c:	48 c1 e0 33          	shl    $0x33,%rax
   12490:	48 c1 f8 33          	sar    $0x33,%rax
   12494:	48 0f bf c0          	movswq %ax,%rax
   12498:	8b 55 fc             	mov    -0x4(%rbp),%edx
   1249b:	48 8d 35 31 21 00 00 	lea    0x2131(%rip),%rsi        # 145d3 <g_2031+0x152b>
   124a2:	48 89 c7             	mov    %rax,%rdi
   124a5:	e8 49 72 ff ff       	callq  96f3 <transparent_crc>
   124aa:	0f b6 05 68 62 00 00 	movzbl 0x6268(%rip),%eax        # 18719 <g_2097+0x1>
   124b1:	c0 e8 05             	shr    $0x5,%al
   124b4:	0f b6 c0             	movzbl %al,%eax
   124b7:	0f b6 15 5c 62 00 00 	movzbl 0x625c(%rip),%edx        # 1871a <g_2097+0x2>
   124be:	0f b6 d2             	movzbl %dl,%edx
   124c1:	48 c1 e2 03          	shl    $0x3,%rdx
   124c5:	48 09 c2             	or     %rax,%rdx
   124c8:	0f b6 05 4c 62 00 00 	movzbl 0x624c(%rip),%eax        # 1871b <g_2097+0x3>
   124cf:	0f b6 c0             	movzbl %al,%eax
   124d2:	83 e0 07             	and    $0x7,%eax
   124d5:	48 c1 e0 0b          	shl    $0xb,%rax
   124d9:	48 09 d0             	or     %rdx,%rax
   124dc:	48 c1 e0 32          	shl    $0x32,%rax
   124e0:	48 c1 f8 32          	sar    $0x32,%rax
   124e4:	48 0f bf c0          	movswq %ax,%rax
   124e8:	8b 55 fc             	mov    -0x4(%rbp),%edx
   124eb:	48 8d 35 eb 20 00 00 	lea    0x20eb(%rip),%rsi        # 145dd <g_2031+0x1535>
   124f2:	48 89 c7             	mov    %rax,%rdi
   124f5:	e8 f9 71 ff ff       	callq  96f3 <transparent_crc>
   124fa:	0f b6 05 1a 62 00 00 	movzbl 0x621a(%rip),%eax        # 1871b <g_2097+0x3>
   12501:	c0 e8 03             	shr    $0x3,%al
   12504:	0f b6 c0             	movzbl %al,%eax
   12507:	0f b6 15 0e 62 00 00 	movzbl 0x620e(%rip),%edx        # 1871c <g_2097+0x4>
   1250e:	48 c1 e2 05          	shl    $0x5,%rdx
   12512:	48 09 c2             	or     %rax,%rdx
   12515:	0f b6 05 01 62 00 00 	movzbl 0x6201(%rip),%eax        # 1871d <g_2097+0x5>
   1251c:	48 c1 e0 0d          	shl    $0xd,%rax
   12520:	48 09 c2             	or     %rax,%rdx
   12523:	0f b6 05 f4 61 00 00 	movzbl 0x61f4(%rip),%eax        # 1871e <g_2097+0x6>
   1252a:	83 e0 07             	and    $0x7,%eax
   1252d:	48 c1 e0 15          	shl    $0x15,%rax
   12531:	48 09 d0             	or     %rdx,%rax
   12534:	89 c1                	mov    %eax,%ecx
   12536:	8b 45 fc             	mov    -0x4(%rbp),%eax
   12539:	89 c2                	mov    %eax,%edx
   1253b:	48 8d 35 a5 20 00 00 	lea    0x20a5(%rip),%rsi        # 145e7 <g_2031+0x153f>
   12542:	48 89 cf             	mov    %rcx,%rdi
   12545:	e8 a9 71 ff ff       	callq  96f3 <transparent_crc>
   1254a:	0f b6 05 cd 61 00 00 	movzbl 0x61cd(%rip),%eax        # 1871e <g_2097+0x6>
   12551:	01 c0                	add    %eax,%eax
   12553:	c0 f8 04             	sar    $0x4,%al
   12556:	48 0f be c0          	movsbq %al,%rax
   1255a:	8b 55 fc             	mov    -0x4(%rbp),%edx
   1255d:	48 8d 35 8d 20 00 00 	lea    0x208d(%rip),%rsi        # 145f1 <g_2031+0x1549>
   12564:	48 89 c7             	mov    %rax,%rdi
   12567:	e8 87 71 ff ff       	callq  96f3 <transparent_crc>
   1256c:	0f b6 05 ac 61 00 00 	movzbl 0x61ac(%rip),%eax        # 1871f <g_2099>
   12573:	0f b6 c0             	movzbl %al,%eax
   12576:	0f b6 15 a3 61 00 00 	movzbl 0x61a3(%rip),%edx        # 18720 <g_2099+0x1>
   1257d:	0f b6 d2             	movzbl %dl,%edx
   12580:	83 e2 1f             	and    $0x1f,%edx
   12583:	48 c1 e2 08          	shl    $0x8,%rdx
   12587:	48 09 d0             	or     %rdx,%rax
   1258a:	48 c1 e0 33          	shl    $0x33,%rax
   1258e:	48 c1 f8 33          	sar    $0x33,%rax
   12592:	48 0f bf c0          	movswq %ax,%rax
   12596:	8b 55 fc             	mov    -0x4(%rbp),%edx
   12599:	48 8d 35 5b 20 00 00 	lea    0x205b(%rip),%rsi        # 145fb <g_2031+0x1553>
   125a0:	48 89 c7             	mov    %rax,%rdi
   125a3:	e8 4b 71 ff ff       	callq  96f3 <transparent_crc>
   125a8:	0f b6 05 71 61 00 00 	movzbl 0x6171(%rip),%eax        # 18720 <g_2099+0x1>
   125af:	c0 e8 05             	shr    $0x5,%al
   125b2:	0f b6 c0             	movzbl %al,%eax
   125b5:	0f b6 15 65 61 00 00 	movzbl 0x6165(%rip),%edx        # 18721 <g_2099+0x2>
   125bc:	0f b6 d2             	movzbl %dl,%edx
   125bf:	48 c1 e2 03          	shl    $0x3,%rdx
   125c3:	48 09 c2             	or     %rax,%rdx
   125c6:	0f b6 05 55 61 00 00 	movzbl 0x6155(%rip),%eax        # 18722 <g_2099+0x3>
   125cd:	0f b6 c0             	movzbl %al,%eax
   125d0:	83 e0 07             	and    $0x7,%eax
   125d3:	48 c1 e0 0b          	shl    $0xb,%rax
   125d7:	48 09 d0             	or     %rdx,%rax
   125da:	48 c1 e0 32          	shl    $0x32,%rax
   125de:	48 c1 f8 32          	sar    $0x32,%rax
   125e2:	48 0f bf c0          	movswq %ax,%rax
   125e6:	8b 55 fc             	mov    -0x4(%rbp),%edx
   125e9:	48 8d 35 15 20 00 00 	lea    0x2015(%rip),%rsi        # 14605 <g_2031+0x155d>
   125f0:	48 89 c7             	mov    %rax,%rdi
   125f3:	e8 fb 70 ff ff       	callq  96f3 <transparent_crc>
   125f8:	0f b6 05 23 61 00 00 	movzbl 0x6123(%rip),%eax        # 18722 <g_2099+0x3>
   125ff:	c0 e8 03             	shr    $0x3,%al
   12602:	0f b6 c0             	movzbl %al,%eax
   12605:	0f b6 15 17 61 00 00 	movzbl 0x6117(%rip),%edx        # 18723 <g_2099+0x4>
   1260c:	48 c1 e2 05          	shl    $0x5,%rdx
   12610:	48 09 c2             	or     %rax,%rdx
   12613:	0f b6 05 0a 61 00 00 	movzbl 0x610a(%rip),%eax        # 18724 <g_2099+0x5>
   1261a:	48 c1 e0 0d          	shl    $0xd,%rax
   1261e:	48 09 c2             	or     %rax,%rdx
   12621:	0f b6 05 fd 60 00 00 	movzbl 0x60fd(%rip),%eax        # 18725 <g_2099+0x6>
   12628:	83 e0 07             	and    $0x7,%eax
   1262b:	48 c1 e0 15          	shl    $0x15,%rax
   1262f:	48 09 d0             	or     %rdx,%rax
   12632:	89 c1                	mov    %eax,%ecx
   12634:	8b 45 fc             	mov    -0x4(%rbp),%eax
   12637:	89 c2                	mov    %eax,%edx
   12639:	48 8d 35 cf 1f 00 00 	lea    0x1fcf(%rip),%rsi        # 1460f <g_2031+0x1567>
   12640:	48 89 cf             	mov    %rcx,%rdi
   12643:	e8 ab 70 ff ff       	callq  96f3 <transparent_crc>
   12648:	0f b6 05 d6 60 00 00 	movzbl 0x60d6(%rip),%eax        # 18725 <g_2099+0x6>
   1264f:	01 c0                	add    %eax,%eax
   12651:	c0 f8 04             	sar    $0x4,%al
   12654:	48 0f be c0          	movsbq %al,%rax
   12658:	8b 55 fc             	mov    -0x4(%rbp),%edx
   1265b:	48 8d 35 b7 1f 00 00 	lea    0x1fb7(%rip),%rsi        # 14619 <g_2031+0x1571>
   12662:	48 89 c7             	mov    %rax,%rdi
   12665:	e8 89 70 ff ff       	callq  96f3 <transparent_crc>
   1266a:	0f b7 05 b5 60 00 00 	movzwl 0x60b5(%rip),%eax        # 18726 <g_2160>
   12671:	0f b7 c0             	movzwl %ax,%eax
   12674:	8b 55 fc             	mov    -0x4(%rbp),%edx
   12677:	48 8d 35 a5 1f 00 00 	lea    0x1fa5(%rip),%rsi        # 14623 <g_2031+0x157b>
   1267e:	48 89 c7             	mov    %rax,%rdi
   12681:	e8 6d 70 ff ff       	callq  96f3 <transparent_crc>
   12686:	8b 05 94 49 00 00    	mov    0x4994(%rip),%eax        # 17020 <crc32_context>
   1268c:	f7 d0                	not    %eax
   1268e:	89 c2                	mov    %eax,%edx
   12690:	8b 45 fc             	mov    -0x4(%rbp),%eax
   12693:	89 c6                	mov    %eax,%esi
   12695:	89 d7                	mov    %edx,%edi
   12697:	e8 f8 5a ff ff       	callq  8194 <platform_main_end>
   1269c:	b8 00 00 00 00       	mov    $0x0,%eax
   126a1:	c9                   	leaveq 
   126a2:	c3                   	retq   
   126a3:	66 2e 0f 1f 84 00 00 	nopw   %cs:0x0(%rax,%rax,1)
   126aa:	00 00 00 
   126ad:	0f 1f 00             	nopl   (%rax)

00000000000126b0 <__libc_csu_init>:
   126b0:	f3 0f 1e fa          	endbr64 
   126b4:	41 57                	push   %r15
   126b6:	4c 8d 3d 53 46 00 00 	lea    0x4653(%rip),%r15        # 16d10 <__frame_dummy_init_array_entry>
   126bd:	41 56                	push   %r14
   126bf:	49 89 d6             	mov    %rdx,%r14
   126c2:	41 55                	push   %r13
   126c4:	49 89 f5             	mov    %rsi,%r13
   126c7:	41 54                	push   %r12
   126c9:	41 89 fc             	mov    %edi,%r12d
   126cc:	55                   	push   %rbp
   126cd:	48 8d 2d 44 46 00 00 	lea    0x4644(%rip),%rbp        # 16d18 <__do_global_dtors_aux_fini_array_entry>
   126d4:	53                   	push   %rbx
   126d5:	4c 29 fd             	sub    %r15,%rbp
   126d8:	48 83 ec 08          	sub    $0x8,%rsp
   126dc:	e8 1f 59 ff ff       	callq  8000 <_init>
   126e1:	48 c1 fd 03          	sar    $0x3,%rbp
   126e5:	74 1f                	je     12706 <__libc_csu_init+0x56>
   126e7:	31 db                	xor    %ebx,%ebx
   126e9:	0f 1f 80 00 00 00 00 	nopl   0x0(%rax)
   126f0:	4c 89 f2             	mov    %r14,%rdx
   126f3:	4c 89 ee             	mov    %r13,%rsi
   126f6:	44 89 e7             	mov    %r12d,%edi
   126f9:	41 ff 14 df          	callq  *(%r15,%rbx,8)
   126fd:	48 83 c3 01          	add    $0x1,%rbx
   12701:	48 39 dd             	cmp    %rbx,%rbp
   12704:	75 ea                	jne    126f0 <__libc_csu_init+0x40>
   12706:	48 83 c4 08          	add    $0x8,%rsp
   1270a:	5b                   	pop    %rbx
   1270b:	5d                   	pop    %rbp
   1270c:	41 5c                	pop    %r12
   1270e:	41 5d                	pop    %r13
   12710:	41 5e                	pop    %r14
   12712:	41 5f                	pop    %r15
   12714:	c3                   	retq   
   12715:	66 66 2e 0f 1f 84 00 	data16 nopw %cs:0x0(%rax,%rax,1)
   1271c:	00 00 00 00 

0000000000012720 <__libc_csu_fini>:
   12720:	f3 0f 1e fa          	endbr64 
   12724:	c3                   	retq   
