


Disassembly of section .text:

00000000000060a0 <_start>:
    60a0:	f3 0f 1e fa          	endbr64 
    60a4:	31 ed                	xor    %ebp,%ebp
    60a6:	49 89 d1             	mov    %rdx,%r9
    60a9:	5e                   	pop    %rsi
    60aa:	48 89 e2             	mov    %rsp,%rdx
    60ad:	48 83 e4 f0          	and    $0xfffffffffffffff0,%rsp
    60b1:	50                   	push   %rax
    60b2:	54                   	push   %rsp
    60b3:	4c 8d 05 26 9f 00 00 	lea    0x9f26(%rip),%r8        # ffe0 <__libc_csu_fini>
    60ba:	48 8d 0d af 9e 00 00 	lea    0x9eaf(%rip),%rcx        # ff70 <__libc_csu_init>
    60c1:	48 8d 3d 8a 96 00 00 	lea    0x968a(%rip),%rdi        # f752 <main>
    60c8:	ff 15 0a ef 00 00    	callq  *0xef0a(%rip)        # 14fd8 <__libc_start_main@GLIBC_2.2.5>
    60ce:	f4                   	hlt    
    60cf:	90                   	nop

00000000000060d0 <deregister_tm_clones>:
    60d0:	48 8d 3d e1 13 01 00 	lea    0x113e1(%rip),%rdi        # 174b8 <__TMC_END__>
    60d7:	48 8d 05 da 13 01 00 	lea    0x113da(%rip),%rax        # 174b8 <__TMC_END__>
    60de:	48 39 f8             	cmp    %rdi,%rax
    60e1:	74 15                	je     60f8 <deregister_tm_clones+0x28>
    60e3:	48 8b 05 e6 ee 00 00 	mov    0xeee6(%rip),%rax        # 14fd0 <_ITM_deregisterTMCloneTable>
    60ea:	48 85 c0             	test   %rax,%rax
    60ed:	74 09                	je     60f8 <deregister_tm_clones+0x28>
    60ef:	ff e0                	jmpq   *%rax
    60f1:	0f 1f 80 00 00 00 00 	nopl   0x0(%rax)
    60f8:	c3                   	retq   
    60f9:	0f 1f 80 00 00 00 00 	nopl   0x0(%rax)

0000000000006100 <register_tm_clones>:
    6100:	48 8d 3d b1 13 01 00 	lea    0x113b1(%rip),%rdi        # 174b8 <__TMC_END__>
    6107:	48 8d 35 aa 13 01 00 	lea    0x113aa(%rip),%rsi        # 174b8 <__TMC_END__>
    610e:	48 29 fe             	sub    %rdi,%rsi
    6111:	48 89 f0             	mov    %rsi,%rax
    6114:	48 c1 ee 3f          	shr    $0x3f,%rsi
    6118:	48 c1 f8 03          	sar    $0x3,%rax
    611c:	48 01 c6             	add    %rax,%rsi
    611f:	48 d1 fe             	sar    %rsi
    6122:	74 14                	je     6138 <register_tm_clones+0x38>
    6124:	48 8b 05 bd ee 00 00 	mov    0xeebd(%rip),%rax        # 14fe8 <_ITM_registerTMCloneTable>
    612b:	48 85 c0             	test   %rax,%rax
    612e:	74 08                	je     6138 <register_tm_clones+0x38>
    6130:	ff e0                	jmpq   *%rax
    6132:	66 0f 1f 44 00 00    	nopw   0x0(%rax,%rax,1)
    6138:	c3                   	retq   
    6139:	0f 1f 80 00 00 00 00 	nopl   0x0(%rax)

0000000000006140 <__do_global_dtors_aux>:
    6140:	f3 0f 1e fa          	endbr64 
    6144:	80 3d 75 13 01 00 00 	cmpb   $0x0,0x11375(%rip)        # 174c0 <completed.8061>
    614b:	75 2b                	jne    6178 <__do_global_dtors_aux+0x38>
    614d:	55                   	push   %rbp
    614e:	48 83 3d 9a ee 00 00 	cmpq   $0x0,0xee9a(%rip)        # 14ff0 <__cxa_finalize@GLIBC_2.2.5>
    6155:	00 
    6156:	48 89 e5             	mov    %rsp,%rbp
    6159:	74 0c                	je     6167 <__do_global_dtors_aux+0x27>
    615b:	48 8b 3d a6 ee 00 00 	mov    0xeea6(%rip),%rdi        # 15008 <__dso_handle>
    6162:	e8 f9 fe ff ff       	callq  6060 <__cxa_finalize@plt>
    6167:	e8 64 ff ff ff       	callq  60d0 <deregister_tm_clones>
    616c:	c6 05 4d 13 01 00 01 	movb   $0x1,0x1134d(%rip)        # 174c0 <completed.8061>
    6173:	5d                   	pop    %rbp
    6174:	c3                   	retq   
    6175:	0f 1f 00             	nopl   (%rax)
    6178:	c3                   	retq   
    6179:	0f 1f 80 00 00 00 00 	nopl   0x0(%rax)

0000000000006180 <frame_dummy>:
    6180:	f3 0f 1e fa          	endbr64 
    6184:	e9 77 ff ff ff       	jmpq   6100 <register_tm_clones>

0000000000006189 <platform_main_begin>:
    6189:	f3 0f 1e fa          	endbr64 
    618d:	55                   	push   %rbp
    618e:	48 89 e5             	mov    %rsp,%rbp
    6191:	90                   	nop
    6192:	5d                   	pop    %rbp
    6193:	c3                   	retq   

0000000000006194 <platform_main_end>:
    6194:	f3 0f 1e fa          	endbr64 
    6198:	55                   	push   %rbp
    6199:	48 89 e5             	mov    %rsp,%rbp
    619c:	48 83 ec 10          	sub    $0x10,%rsp
    61a0:	89 7d fc             	mov    %edi,-0x4(%rbp)
    61a3:	89 75 f8             	mov    %esi,-0x8(%rbp)
    61a6:	8b 45 fc             	mov    -0x4(%rbp),%eax
    61a9:	89 c6                	mov    %eax,%esi
    61ab:	48 8d 3d 6e 9e 00 00 	lea    0x9e6e(%rip),%rdi        # 10020 <_IO_stdin_used+0x20>
    61b2:	b8 00 00 00 00       	mov    $0x0,%eax
    61b7:	e8 c4 fe ff ff       	callq  6080 <printf@plt>
    61bc:	90                   	nop
    61bd:	c9                   	leaveq 
    61be:	c3                   	retq   

00000000000061bf <safe_unary_minus_func_int8_t_s>:
    61bf:	f3 0f 1e fa          	endbr64 
    61c3:	55                   	push   %rbp
    61c4:	48 89 e5             	mov    %rsp,%rbp
    61c7:	89 f8                	mov    %edi,%eax
    61c9:	88 45 fc             	mov    %al,-0x4(%rbp)
    61cc:	0f b6 45 fc          	movzbl -0x4(%rbp),%eax
    61d0:	f7 d8                	neg    %eax
    61d2:	5d                   	pop    %rbp
    61d3:	c3                   	retq   

00000000000061d4 <safe_add_func_int8_t_s_s>:
    61d4:	f3 0f 1e fa          	endbr64 
    61d8:	55                   	push   %rbp
    61d9:	48 89 e5             	mov    %rsp,%rbp
    61dc:	89 fa                	mov    %edi,%edx
    61de:	89 f0                	mov    %esi,%eax
    61e0:	88 55 fc             	mov    %dl,-0x4(%rbp)
    61e3:	88 45 f8             	mov    %al,-0x8(%rbp)
    61e6:	0f b6 55 fc          	movzbl -0x4(%rbp),%edx
    61ea:	0f b6 45 f8          	movzbl -0x8(%rbp),%eax
    61ee:	01 d0                	add    %edx,%eax
    61f0:	5d                   	pop    %rbp
    61f1:	c3                   	retq   

00000000000061f2 <safe_sub_func_int8_t_s_s>:
    61f2:	f3 0f 1e fa          	endbr64 
    61f6:	55                   	push   %rbp
    61f7:	48 89 e5             	mov    %rsp,%rbp
    61fa:	89 fa                	mov    %edi,%edx
    61fc:	89 f0                	mov    %esi,%eax
    61fe:	88 55 fc             	mov    %dl,-0x4(%rbp)
    6201:	88 45 f8             	mov    %al,-0x8(%rbp)
    6204:	0f b6 55 fc          	movzbl -0x4(%rbp),%edx
    6208:	0f b6 45 f8          	movzbl -0x8(%rbp),%eax
    620c:	29 c2                	sub    %eax,%edx
    620e:	89 d0                	mov    %edx,%eax
    6210:	5d                   	pop    %rbp
    6211:	c3                   	retq   

0000000000006212 <safe_mul_func_int8_t_s_s>:
    6212:	f3 0f 1e fa          	endbr64 
    6216:	55                   	push   %rbp
    6217:	48 89 e5             	mov    %rsp,%rbp
    621a:	89 fa                	mov    %edi,%edx
    621c:	89 f0                	mov    %esi,%eax
    621e:	88 55 fc             	mov    %dl,-0x4(%rbp)
    6221:	88 45 f8             	mov    %al,-0x8(%rbp)
    6224:	0f b6 45 fc          	movzbl -0x4(%rbp),%eax
    6228:	0f b6 55 f8          	movzbl -0x8(%rbp),%edx
    622c:	0f af c2             	imul   %edx,%eax
    622f:	5d                   	pop    %rbp
    6230:	c3                   	retq   

0000000000006231 <safe_mod_func_int8_t_s_s>:
    6231:	f3 0f 1e fa          	endbr64 
    6235:	55                   	push   %rbp
    6236:	48 89 e5             	mov    %rsp,%rbp
    6239:	89 fa                	mov    %edi,%edx
    623b:	89 f0                	mov    %esi,%eax
    623d:	88 55 fc             	mov    %dl,-0x4(%rbp)
    6240:	88 45 f8             	mov    %al,-0x8(%rbp)
    6243:	80 7d f8 00          	cmpb   $0x0,-0x8(%rbp)
    6247:	74 1b                	je     6264 <safe_mod_func_int8_t_s_s+0x33>
    6249:	80 7d fc 80          	cmpb   $0x80,-0x4(%rbp)
    624d:	75 06                	jne    6255 <safe_mod_func_int8_t_s_s+0x24>
    624f:	80 7d f8 ff          	cmpb   $0xff,-0x8(%rbp)
    6253:	74 0f                	je     6264 <safe_mod_func_int8_t_s_s+0x33>
    6255:	0f be 45 fc          	movsbl -0x4(%rbp),%eax
    6259:	0f be 4d f8          	movsbl -0x8(%rbp),%ecx
    625d:	99                   	cltd   
    625e:	f7 f9                	idiv   %ecx
    6260:	89 d0                	mov    %edx,%eax
    6262:	eb 04                	jmp    6268 <safe_mod_func_int8_t_s_s+0x37>
    6264:	0f b6 45 fc          	movzbl -0x4(%rbp),%eax
    6268:	5d                   	pop    %rbp
    6269:	c3                   	retq   

000000000000626a <safe_div_func_int8_t_s_s>:
    626a:	f3 0f 1e fa          	endbr64 
    626e:	55                   	push   %rbp
    626f:	48 89 e5             	mov    %rsp,%rbp
    6272:	89 fa                	mov    %edi,%edx
    6274:	89 f0                	mov    %esi,%eax
    6276:	88 55 fc             	mov    %dl,-0x4(%rbp)
    6279:	88 45 f8             	mov    %al,-0x8(%rbp)
    627c:	80 7d f8 00          	cmpb   $0x0,-0x8(%rbp)
    6280:	74 19                	je     629b <safe_div_func_int8_t_s_s+0x31>
    6282:	80 7d fc 80          	cmpb   $0x80,-0x4(%rbp)
    6286:	75 06                	jne    628e <safe_div_func_int8_t_s_s+0x24>
    6288:	80 7d f8 ff          	cmpb   $0xff,-0x8(%rbp)
    628c:	74 0d                	je     629b <safe_div_func_int8_t_s_s+0x31>
    628e:	0f be 45 fc          	movsbl -0x4(%rbp),%eax
    6292:	0f be 4d f8          	movsbl -0x8(%rbp),%ecx
    6296:	99                   	cltd   
    6297:	f7 f9                	idiv   %ecx
    6299:	eb 04                	jmp    629f <safe_div_func_int8_t_s_s+0x35>
    629b:	0f b6 45 fc          	movzbl -0x4(%rbp),%eax
    629f:	5d                   	pop    %rbp
    62a0:	c3                   	retq   

00000000000062a1 <safe_lshift_func_int8_t_s_s>:
    62a1:	f3 0f 1e fa          	endbr64 
    62a5:	55                   	push   %rbp
    62a6:	48 89 e5             	mov    %rsp,%rbp
    62a9:	89 f8                	mov    %edi,%eax
    62ab:	89 75 f8             	mov    %esi,-0x8(%rbp)
    62ae:	88 45 fc             	mov    %al,-0x4(%rbp)
    62b1:	80 7d fc 00          	cmpb   $0x0,-0x4(%rbp)
    62b5:	78 31                	js     62e8 <safe_lshift_func_int8_t_s_s+0x47>
    62b7:	83 7d f8 00          	cmpl   $0x0,-0x8(%rbp)
    62bb:	78 2b                	js     62e8 <safe_lshift_func_int8_t_s_s+0x47>
    62bd:	83 7d f8 1f          	cmpl   $0x1f,-0x8(%rbp)
    62c1:	7f 25                	jg     62e8 <safe_lshift_func_int8_t_s_s+0x47>
    62c3:	0f be 55 fc          	movsbl -0x4(%rbp),%edx
    62c7:	8b 45 f8             	mov    -0x8(%rbp),%eax
    62ca:	be 7f 00 00 00       	mov    $0x7f,%esi
    62cf:	89 c1                	mov    %eax,%ecx
    62d1:	d3 fe                	sar    %cl,%esi
    62d3:	89 f0                	mov    %esi,%eax
    62d5:	39 c2                	cmp    %eax,%edx
    62d7:	7f 0f                	jg     62e8 <safe_lshift_func_int8_t_s_s+0x47>
    62d9:	0f be 55 fc          	movsbl -0x4(%rbp),%edx
    62dd:	8b 45 f8             	mov    -0x8(%rbp),%eax
    62e0:	89 c1                	mov    %eax,%ecx
    62e2:	d3 e2                	shl    %cl,%edx
    62e4:	89 d0                	mov    %edx,%eax
    62e6:	eb 04                	jmp    62ec <safe_lshift_func_int8_t_s_s+0x4b>
    62e8:	0f b6 45 fc          	movzbl -0x4(%rbp),%eax
    62ec:	5d                   	pop    %rbp
    62ed:	c3                   	retq   

00000000000062ee <safe_lshift_func_int8_t_s_u>:
    62ee:	f3 0f 1e fa          	endbr64 
    62f2:	55                   	push   %rbp
    62f3:	48 89 e5             	mov    %rsp,%rbp
    62f6:	89 f8                	mov    %edi,%eax
    62f8:	89 75 f8             	mov    %esi,-0x8(%rbp)
    62fb:	88 45 fc             	mov    %al,-0x4(%rbp)
    62fe:	80 7d fc 00          	cmpb   $0x0,-0x4(%rbp)
    6302:	78 2b                	js     632f <safe_lshift_func_int8_t_s_u+0x41>
    6304:	83 7d f8 1f          	cmpl   $0x1f,-0x8(%rbp)
    6308:	77 25                	ja     632f <safe_lshift_func_int8_t_s_u+0x41>
    630a:	0f be 55 fc          	movsbl -0x4(%rbp),%edx
    630e:	8b 45 f8             	mov    -0x8(%rbp),%eax
    6311:	be 7f 00 00 00       	mov    $0x7f,%esi
    6316:	89 c1                	mov    %eax,%ecx
    6318:	d3 fe                	sar    %cl,%esi
    631a:	89 f0                	mov    %esi,%eax
    631c:	39 c2                	cmp    %eax,%edx
    631e:	7f 0f                	jg     632f <safe_lshift_func_int8_t_s_u+0x41>
    6320:	0f be 55 fc          	movsbl -0x4(%rbp),%edx
    6324:	8b 45 f8             	mov    -0x8(%rbp),%eax
    6327:	89 c1                	mov    %eax,%ecx
    6329:	d3 e2                	shl    %cl,%edx
    632b:	89 d0                	mov    %edx,%eax
    632d:	eb 04                	jmp    6333 <safe_lshift_func_int8_t_s_u+0x45>
    632f:	0f b6 45 fc          	movzbl -0x4(%rbp),%eax
    6333:	5d                   	pop    %rbp
    6334:	c3                   	retq   

0000000000006335 <safe_rshift_func_int8_t_s_s>:
    6335:	f3 0f 1e fa          	endbr64 
    6339:	55                   	push   %rbp
    633a:	48 89 e5             	mov    %rsp,%rbp
    633d:	89 f8                	mov    %edi,%eax
    633f:	89 75 f8             	mov    %esi,-0x8(%rbp)
    6342:	88 45 fc             	mov    %al,-0x4(%rbp)
    6345:	80 7d fc 00          	cmpb   $0x0,-0x4(%rbp)
    6349:	78 1b                	js     6366 <safe_rshift_func_int8_t_s_s+0x31>
    634b:	83 7d f8 00          	cmpl   $0x0,-0x8(%rbp)
    634f:	78 15                	js     6366 <safe_rshift_func_int8_t_s_s+0x31>
    6351:	83 7d f8 1f          	cmpl   $0x1f,-0x8(%rbp)
    6355:	7f 0f                	jg     6366 <safe_rshift_func_int8_t_s_s+0x31>
    6357:	0f be 55 fc          	movsbl -0x4(%rbp),%edx
    635b:	8b 45 f8             	mov    -0x8(%rbp),%eax
    635e:	89 c1                	mov    %eax,%ecx
    6360:	d3 fa                	sar    %cl,%edx
    6362:	89 d0                	mov    %edx,%eax
    6364:	eb 04                	jmp    636a <safe_rshift_func_int8_t_s_s+0x35>
    6366:	0f b6 45 fc          	movzbl -0x4(%rbp),%eax
    636a:	5d                   	pop    %rbp
    636b:	c3                   	retq   

000000000000636c <safe_rshift_func_int8_t_s_u>:
    636c:	f3 0f 1e fa          	endbr64 
    6370:	55                   	push   %rbp
    6371:	48 89 e5             	mov    %rsp,%rbp
    6374:	89 f8                	mov    %edi,%eax
    6376:	89 75 f8             	mov    %esi,-0x8(%rbp)
    6379:	88 45 fc             	mov    %al,-0x4(%rbp)
    637c:	80 7d fc 00          	cmpb   $0x0,-0x4(%rbp)
    6380:	78 15                	js     6397 <safe_rshift_func_int8_t_s_u+0x2b>
    6382:	83 7d f8 1f          	cmpl   $0x1f,-0x8(%rbp)
    6386:	77 0f                	ja     6397 <safe_rshift_func_int8_t_s_u+0x2b>
    6388:	0f be 55 fc          	movsbl -0x4(%rbp),%edx
    638c:	8b 45 f8             	mov    -0x8(%rbp),%eax
    638f:	89 c1                	mov    %eax,%ecx
    6391:	d3 fa                	sar    %cl,%edx
    6393:	89 d0                	mov    %edx,%eax
    6395:	eb 04                	jmp    639b <safe_rshift_func_int8_t_s_u+0x2f>
    6397:	0f b6 45 fc          	movzbl -0x4(%rbp),%eax
    639b:	5d                   	pop    %rbp
    639c:	c3                   	retq   

000000000000639d <safe_unary_minus_func_int16_t_s>:
    639d:	f3 0f 1e fa          	endbr64 
    63a1:	55                   	push   %rbp
    63a2:	48 89 e5             	mov    %rsp,%rbp
    63a5:	89 f8                	mov    %edi,%eax
    63a7:	66 89 45 fc          	mov    %ax,-0x4(%rbp)
    63ab:	0f b7 45 fc          	movzwl -0x4(%rbp),%eax
    63af:	f7 d8                	neg    %eax
    63b1:	5d                   	pop    %rbp
    63b2:	c3                   	retq   

00000000000063b3 <safe_add_func_int16_t_s_s>:
    63b3:	f3 0f 1e fa          	endbr64 
    63b7:	55                   	push   %rbp
    63b8:	48 89 e5             	mov    %rsp,%rbp
    63bb:	89 fa                	mov    %edi,%edx
    63bd:	89 f0                	mov    %esi,%eax
    63bf:	66 89 55 fc          	mov    %dx,-0x4(%rbp)
    63c3:	66 89 45 f8          	mov    %ax,-0x8(%rbp)
    63c7:	0f b7 55 fc          	movzwl -0x4(%rbp),%edx
    63cb:	0f b7 45 f8          	movzwl -0x8(%rbp),%eax
    63cf:	01 d0                	add    %edx,%eax
    63d1:	5d                   	pop    %rbp
    63d2:	c3                   	retq   

00000000000063d3 <safe_sub_func_int16_t_s_s>:
    63d3:	f3 0f 1e fa          	endbr64 
    63d7:	55                   	push   %rbp
    63d8:	48 89 e5             	mov    %rsp,%rbp
    63db:	89 fa                	mov    %edi,%edx
    63dd:	89 f0                	mov    %esi,%eax
    63df:	66 89 55 fc          	mov    %dx,-0x4(%rbp)
    63e3:	66 89 45 f8          	mov    %ax,-0x8(%rbp)
    63e7:	0f b7 55 fc          	movzwl -0x4(%rbp),%edx
    63eb:	0f b7 45 f8          	movzwl -0x8(%rbp),%eax
    63ef:	29 c2                	sub    %eax,%edx
    63f1:	89 d0                	mov    %edx,%eax
    63f3:	5d                   	pop    %rbp
    63f4:	c3                   	retq   

00000000000063f5 <safe_mul_func_int16_t_s_s>:
    63f5:	f3 0f 1e fa          	endbr64 
    63f9:	55                   	push   %rbp
    63fa:	48 89 e5             	mov    %rsp,%rbp
    63fd:	89 fa                	mov    %edi,%edx
    63ff:	89 f0                	mov    %esi,%eax
    6401:	66 89 55 fc          	mov    %dx,-0x4(%rbp)
    6405:	66 89 45 f8          	mov    %ax,-0x8(%rbp)
    6409:	0f b7 55 fc          	movzwl -0x4(%rbp),%edx
    640d:	0f b7 45 f8          	movzwl -0x8(%rbp),%eax
    6411:	0f af c2             	imul   %edx,%eax
    6414:	5d                   	pop    %rbp
    6415:	c3                   	retq   

0000000000006416 <safe_mod_func_int16_t_s_s>:
    6416:	f3 0f 1e fa          	endbr64 
    641a:	55                   	push   %rbp
    641b:	48 89 e5             	mov    %rsp,%rbp
    641e:	89 fa                	mov    %edi,%edx
    6420:	89 f0                	mov    %esi,%eax
    6422:	66 89 55 fc          	mov    %dx,-0x4(%rbp)
    6426:	66 89 45 f8          	mov    %ax,-0x8(%rbp)
    642a:	66 83 7d f8 00       	cmpw   $0x0,-0x8(%rbp)
    642f:	74 1e                	je     644f <safe_mod_func_int16_t_s_s+0x39>
    6431:	66 81 7d fc 00 80    	cmpw   $0x8000,-0x4(%rbp)
    6437:	75 07                	jne    6440 <safe_mod_func_int16_t_s_s+0x2a>
    6439:	66 83 7d f8 ff       	cmpw   $0xffff,-0x8(%rbp)
    643e:	74 0f                	je     644f <safe_mod_func_int16_t_s_s+0x39>
    6440:	0f bf 45 fc          	movswl -0x4(%rbp),%eax
    6444:	0f bf 4d f8          	movswl -0x8(%rbp),%ecx
    6448:	99                   	cltd   
    6449:	f7 f9                	idiv   %ecx
    644b:	89 d0                	mov    %edx,%eax
    644d:	eb 04                	jmp    6453 <safe_mod_func_int16_t_s_s+0x3d>
    644f:	0f b7 45 fc          	movzwl -0x4(%rbp),%eax
    6453:	5d                   	pop    %rbp
    6454:	c3                   	retq   

0000000000006455 <safe_div_func_int16_t_s_s>:
    6455:	f3 0f 1e fa          	endbr64 
    6459:	55                   	push   %rbp
    645a:	48 89 e5             	mov    %rsp,%rbp
    645d:	89 fa                	mov    %edi,%edx
    645f:	89 f0                	mov    %esi,%eax
    6461:	66 89 55 fc          	mov    %dx,-0x4(%rbp)
    6465:	66 89 45 f8          	mov    %ax,-0x8(%rbp)
    6469:	66 83 7d f8 00       	cmpw   $0x0,-0x8(%rbp)
    646e:	74 1c                	je     648c <safe_div_func_int16_t_s_s+0x37>
    6470:	66 81 7d fc 00 80    	cmpw   $0x8000,-0x4(%rbp)
    6476:	75 07                	jne    647f <safe_div_func_int16_t_s_s+0x2a>
    6478:	66 83 7d f8 ff       	cmpw   $0xffff,-0x8(%rbp)
    647d:	74 0d                	je     648c <safe_div_func_int16_t_s_s+0x37>
    647f:	0f bf 45 fc          	movswl -0x4(%rbp),%eax
    6483:	0f bf 4d f8          	movswl -0x8(%rbp),%ecx
    6487:	99                   	cltd   
    6488:	f7 f9                	idiv   %ecx
    648a:	eb 04                	jmp    6490 <safe_div_func_int16_t_s_s+0x3b>
    648c:	0f b7 45 fc          	movzwl -0x4(%rbp),%eax
    6490:	5d                   	pop    %rbp
    6491:	c3                   	retq   

0000000000006492 <safe_lshift_func_int16_t_s_s>:
    6492:	f3 0f 1e fa          	endbr64 
    6496:	55                   	push   %rbp
    6497:	48 89 e5             	mov    %rsp,%rbp
    649a:	89 f8                	mov    %edi,%eax
    649c:	89 75 f8             	mov    %esi,-0x8(%rbp)
    649f:	66 89 45 fc          	mov    %ax,-0x4(%rbp)
    64a3:	66 83 7d fc 00       	cmpw   $0x0,-0x4(%rbp)
    64a8:	78 31                	js     64db <safe_lshift_func_int16_t_s_s+0x49>
    64aa:	83 7d f8 00          	cmpl   $0x0,-0x8(%rbp)
    64ae:	78 2b                	js     64db <safe_lshift_func_int16_t_s_s+0x49>
    64b0:	83 7d f8 1f          	cmpl   $0x1f,-0x8(%rbp)
    64b4:	7f 25                	jg     64db <safe_lshift_func_int16_t_s_s+0x49>
    64b6:	0f bf 55 fc          	movswl -0x4(%rbp),%edx
    64ba:	8b 45 f8             	mov    -0x8(%rbp),%eax
    64bd:	be ff 7f 00 00       	mov    $0x7fff,%esi
    64c2:	89 c1                	mov    %eax,%ecx
    64c4:	d3 fe                	sar    %cl,%esi
    64c6:	89 f0                	mov    %esi,%eax
    64c8:	39 c2                	cmp    %eax,%edx
    64ca:	7f 0f                	jg     64db <safe_lshift_func_int16_t_s_s+0x49>
    64cc:	0f bf 55 fc          	movswl -0x4(%rbp),%edx
    64d0:	8b 45 f8             	mov    -0x8(%rbp),%eax
    64d3:	89 c1                	mov    %eax,%ecx
    64d5:	d3 e2                	shl    %cl,%edx
    64d7:	89 d0                	mov    %edx,%eax
    64d9:	eb 04                	jmp    64df <safe_lshift_func_int16_t_s_s+0x4d>
    64db:	0f b7 45 fc          	movzwl -0x4(%rbp),%eax
    64df:	5d                   	pop    %rbp
    64e0:	c3                   	retq   

00000000000064e1 <safe_lshift_func_int16_t_s_u>:
    64e1:	f3 0f 1e fa          	endbr64 
    64e5:	55                   	push   %rbp
    64e6:	48 89 e5             	mov    %rsp,%rbp
    64e9:	89 f8                	mov    %edi,%eax
    64eb:	89 75 f8             	mov    %esi,-0x8(%rbp)
    64ee:	66 89 45 fc          	mov    %ax,-0x4(%rbp)
    64f2:	66 83 7d fc 00       	cmpw   $0x0,-0x4(%rbp)
    64f7:	78 2b                	js     6524 <safe_lshift_func_int16_t_s_u+0x43>
    64f9:	83 7d f8 1f          	cmpl   $0x1f,-0x8(%rbp)
    64fd:	77 25                	ja     6524 <safe_lshift_func_int16_t_s_u+0x43>
    64ff:	0f bf 55 fc          	movswl -0x4(%rbp),%edx
    6503:	8b 45 f8             	mov    -0x8(%rbp),%eax
    6506:	be ff 7f 00 00       	mov    $0x7fff,%esi
    650b:	89 c1                	mov    %eax,%ecx
    650d:	d3 fe                	sar    %cl,%esi
    650f:	89 f0                	mov    %esi,%eax
    6511:	39 c2                	cmp    %eax,%edx
    6513:	7f 0f                	jg     6524 <safe_lshift_func_int16_t_s_u+0x43>
    6515:	0f bf 55 fc          	movswl -0x4(%rbp),%edx
    6519:	8b 45 f8             	mov    -0x8(%rbp),%eax
    651c:	89 c1                	mov    %eax,%ecx
    651e:	d3 e2                	shl    %cl,%edx
    6520:	89 d0                	mov    %edx,%eax
    6522:	eb 04                	jmp    6528 <safe_lshift_func_int16_t_s_u+0x47>
    6524:	0f b7 45 fc          	movzwl -0x4(%rbp),%eax
    6528:	5d                   	pop    %rbp
    6529:	c3                   	retq   

000000000000652a <safe_rshift_func_int16_t_s_s>:
    652a:	f3 0f 1e fa          	endbr64 
    652e:	55                   	push   %rbp
    652f:	48 89 e5             	mov    %rsp,%rbp
    6532:	89 f8                	mov    %edi,%eax
    6534:	89 75 f8             	mov    %esi,-0x8(%rbp)
    6537:	66 89 45 fc          	mov    %ax,-0x4(%rbp)
    653b:	66 83 7d fc 00       	cmpw   $0x0,-0x4(%rbp)
    6540:	78 1b                	js     655d <safe_rshift_func_int16_t_s_s+0x33>
    6542:	83 7d f8 00          	cmpl   $0x0,-0x8(%rbp)
    6546:	78 15                	js     655d <safe_rshift_func_int16_t_s_s+0x33>
    6548:	83 7d f8 1f          	cmpl   $0x1f,-0x8(%rbp)
    654c:	7f 0f                	jg     655d <safe_rshift_func_int16_t_s_s+0x33>
    654e:	0f bf 55 fc          	movswl -0x4(%rbp),%edx
    6552:	8b 45 f8             	mov    -0x8(%rbp),%eax
    6555:	89 c1                	mov    %eax,%ecx
    6557:	d3 fa                	sar    %cl,%edx
    6559:	89 d0                	mov    %edx,%eax
    655b:	eb 04                	jmp    6561 <safe_rshift_func_int16_t_s_s+0x37>
    655d:	0f b7 45 fc          	movzwl -0x4(%rbp),%eax
    6561:	5d                   	pop    %rbp
    6562:	c3                   	retq   

0000000000006563 <safe_rshift_func_int16_t_s_u>:
    6563:	f3 0f 1e fa          	endbr64 
    6567:	55                   	push   %rbp
    6568:	48 89 e5             	mov    %rsp,%rbp
    656b:	89 f8                	mov    %edi,%eax
    656d:	89 75 f8             	mov    %esi,-0x8(%rbp)
    6570:	66 89 45 fc          	mov    %ax,-0x4(%rbp)
    6574:	66 83 7d fc 00       	cmpw   $0x0,-0x4(%rbp)
    6579:	78 15                	js     6590 <safe_rshift_func_int16_t_s_u+0x2d>
    657b:	83 7d f8 1f          	cmpl   $0x1f,-0x8(%rbp)
    657f:	77 0f                	ja     6590 <safe_rshift_func_int16_t_s_u+0x2d>
    6581:	0f bf 55 fc          	movswl -0x4(%rbp),%edx
    6585:	8b 45 f8             	mov    -0x8(%rbp),%eax
    6588:	89 c1                	mov    %eax,%ecx
    658a:	d3 fa                	sar    %cl,%edx
    658c:	89 d0                	mov    %edx,%eax
    658e:	eb 04                	jmp    6594 <safe_rshift_func_int16_t_s_u+0x31>
    6590:	0f b7 45 fc          	movzwl -0x4(%rbp),%eax
    6594:	5d                   	pop    %rbp
    6595:	c3                   	retq   

0000000000006596 <safe_unary_minus_func_int32_t_s>:
    6596:	f3 0f 1e fa          	endbr64 
    659a:	55                   	push   %rbp
    659b:	48 89 e5             	mov    %rsp,%rbp
    659e:	89 7d fc             	mov    %edi,-0x4(%rbp)
    65a1:	81 7d fc 00 00 00 80 	cmpl   $0x80000000,-0x4(%rbp)
    65a8:	74 07                	je     65b1 <safe_unary_minus_func_int32_t_s+0x1b>
    65aa:	8b 45 fc             	mov    -0x4(%rbp),%eax
    65ad:	f7 d8                	neg    %eax
    65af:	eb 03                	jmp    65b4 <safe_unary_minus_func_int32_t_s+0x1e>
    65b1:	8b 45 fc             	mov    -0x4(%rbp),%eax
    65b4:	5d                   	pop    %rbp
    65b5:	c3                   	retq   

00000000000065b6 <safe_add_func_int32_t_s_s>:
    65b6:	f3 0f 1e fa          	endbr64 
    65ba:	55                   	push   %rbp
    65bb:	48 89 e5             	mov    %rsp,%rbp
    65be:	89 7d fc             	mov    %edi,-0x4(%rbp)
    65c1:	89 75 f8             	mov    %esi,-0x8(%rbp)
    65c4:	83 7d fc 00          	cmpl   $0x0,-0x4(%rbp)
    65c8:	7e 13                	jle    65dd <safe_add_func_int32_t_s_s+0x27>
    65ca:	83 7d f8 00          	cmpl   $0x0,-0x8(%rbp)
    65ce:	7e 0d                	jle    65dd <safe_add_func_int32_t_s_s+0x27>
    65d0:	b8 ff ff ff 7f       	mov    $0x7fffffff,%eax
    65d5:	2b 45 f8             	sub    -0x8(%rbp),%eax
    65d8:	39 45 fc             	cmp    %eax,-0x4(%rbp)
    65db:	7f 23                	jg     6600 <safe_add_func_int32_t_s_s+0x4a>
    65dd:	83 7d fc 00          	cmpl   $0x0,-0x4(%rbp)
    65e1:	79 13                	jns    65f6 <safe_add_func_int32_t_s_s+0x40>
    65e3:	83 7d f8 00          	cmpl   $0x0,-0x8(%rbp)
    65e7:	79 0d                	jns    65f6 <safe_add_func_int32_t_s_s+0x40>
    65e9:	b8 00 00 00 80       	mov    $0x80000000,%eax
    65ee:	2b 45 f8             	sub    -0x8(%rbp),%eax
    65f1:	39 45 fc             	cmp    %eax,-0x4(%rbp)
    65f4:	7c 0a                	jl     6600 <safe_add_func_int32_t_s_s+0x4a>
    65f6:	8b 55 fc             	mov    -0x4(%rbp),%edx
    65f9:	8b 45 f8             	mov    -0x8(%rbp),%eax
    65fc:	01 d0                	add    %edx,%eax
    65fe:	eb 03                	jmp    6603 <safe_add_func_int32_t_s_s+0x4d>
    6600:	8b 45 fc             	mov    -0x4(%rbp),%eax
    6603:	5d                   	pop    %rbp
    6604:	c3                   	retq   

0000000000006605 <safe_sub_func_int32_t_s_s>:
    6605:	f3 0f 1e fa          	endbr64 
    6609:	55                   	push   %rbp
    660a:	48 89 e5             	mov    %rsp,%rbp
    660d:	89 7d fc             	mov    %edi,-0x4(%rbp)
    6610:	89 75 f8             	mov    %esi,-0x8(%rbp)
    6613:	8b 45 fc             	mov    -0x4(%rbp),%eax
    6616:	33 45 f8             	xor    -0x8(%rbp),%eax
    6619:	89 c2                	mov    %eax,%edx
    661b:	8b 45 fc             	mov    -0x4(%rbp),%eax
    661e:	33 45 f8             	xor    -0x8(%rbp),%eax
    6621:	25 00 00 00 80       	and    $0x80000000,%eax
    6626:	33 45 fc             	xor    -0x4(%rbp),%eax
    6629:	2b 45 f8             	sub    -0x8(%rbp),%eax
    662c:	33 45 f8             	xor    -0x8(%rbp),%eax
    662f:	21 d0                	and    %edx,%eax
    6631:	85 c0                	test   %eax,%eax
    6633:	78 08                	js     663d <safe_sub_func_int32_t_s_s+0x38>
    6635:	8b 45 fc             	mov    -0x4(%rbp),%eax
    6638:	2b 45 f8             	sub    -0x8(%rbp),%eax
    663b:	eb 03                	jmp    6640 <safe_sub_func_int32_t_s_s+0x3b>
    663d:	8b 45 fc             	mov    -0x4(%rbp),%eax
    6640:	5d                   	pop    %rbp
    6641:	c3                   	retq   

0000000000006642 <safe_mul_func_int32_t_s_s>:
    6642:	f3 0f 1e fa          	endbr64 
    6646:	55                   	push   %rbp
    6647:	48 89 e5             	mov    %rsp,%rbp
    664a:	89 7d fc             	mov    %edi,-0x4(%rbp)
    664d:	89 75 f8             	mov    %esi,-0x8(%rbp)
    6650:	83 7d fc 00          	cmpl   $0x0,-0x4(%rbp)
    6654:	7e 14                	jle    666a <safe_mul_func_int32_t_s_s+0x28>
    6656:	83 7d f8 00          	cmpl   $0x0,-0x8(%rbp)
    665a:	7e 0e                	jle    666a <safe_mul_func_int32_t_s_s+0x28>
    665c:	b8 ff ff ff 7f       	mov    $0x7fffffff,%eax
    6661:	99                   	cltd   
    6662:	f7 7d f8             	idivl  -0x8(%rbp)
    6665:	39 45 fc             	cmp    %eax,-0x4(%rbp)
    6668:	7f 5d                	jg     66c7 <safe_mul_func_int32_t_s_s+0x85>
    666a:	83 7d fc 00          	cmpl   $0x0,-0x4(%rbp)
    666e:	7e 14                	jle    6684 <safe_mul_func_int32_t_s_s+0x42>
    6670:	83 7d f8 00          	cmpl   $0x0,-0x8(%rbp)
    6674:	7f 0e                	jg     6684 <safe_mul_func_int32_t_s_s+0x42>
    6676:	b8 00 00 00 80       	mov    $0x80000000,%eax
    667b:	99                   	cltd   
    667c:	f7 7d fc             	idivl  -0x4(%rbp)
    667f:	39 45 f8             	cmp    %eax,-0x8(%rbp)
    6682:	7c 43                	jl     66c7 <safe_mul_func_int32_t_s_s+0x85>
    6684:	83 7d fc 00          	cmpl   $0x0,-0x4(%rbp)
    6688:	7f 14                	jg     669e <safe_mul_func_int32_t_s_s+0x5c>
    668a:	83 7d f8 00          	cmpl   $0x0,-0x8(%rbp)
    668e:	7e 0e                	jle    669e <safe_mul_func_int32_t_s_s+0x5c>
    6690:	b8 00 00 00 80       	mov    $0x80000000,%eax
    6695:	99                   	cltd   
    6696:	f7 7d f8             	idivl  -0x8(%rbp)
    6699:	39 45 fc             	cmp    %eax,-0x4(%rbp)
    669c:	7c 29                	jl     66c7 <safe_mul_func_int32_t_s_s+0x85>
    669e:	83 7d fc 00          	cmpl   $0x0,-0x4(%rbp)
    66a2:	7f 1a                	jg     66be <safe_mul_func_int32_t_s_s+0x7c>
    66a4:	83 7d f8 00          	cmpl   $0x0,-0x8(%rbp)
    66a8:	7f 14                	jg     66be <safe_mul_func_int32_t_s_s+0x7c>
    66aa:	83 7d fc 00          	cmpl   $0x0,-0x4(%rbp)
    66ae:	74 0e                	je     66be <safe_mul_func_int32_t_s_s+0x7c>
    66b0:	b8 ff ff ff 7f       	mov    $0x7fffffff,%eax
    66b5:	99                   	cltd   
    66b6:	f7 7d fc             	idivl  -0x4(%rbp)
    66b9:	39 45 f8             	cmp    %eax,-0x8(%rbp)
    66bc:	7c 09                	jl     66c7 <safe_mul_func_int32_t_s_s+0x85>
    66be:	8b 45 fc             	mov    -0x4(%rbp),%eax
    66c1:	0f af 45 f8          	imul   -0x8(%rbp),%eax
    66c5:	eb 03                	jmp    66ca <safe_mul_func_int32_t_s_s+0x88>
    66c7:	8b 45 fc             	mov    -0x4(%rbp),%eax
    66ca:	5d                   	pop    %rbp
    66cb:	c3                   	retq   

00000000000066cc <safe_mod_func_int32_t_s_s>:
    66cc:	f3 0f 1e fa          	endbr64 
    66d0:	55                   	push   %rbp
    66d1:	48 89 e5             	mov    %rsp,%rbp
    66d4:	89 7d fc             	mov    %edi,-0x4(%rbp)
    66d7:	89 75 f8             	mov    %esi,-0x8(%rbp)
    66da:	83 7d f8 00          	cmpl   $0x0,-0x8(%rbp)
    66de:	74 1a                	je     66fa <safe_mod_func_int32_t_s_s+0x2e>
    66e0:	81 7d fc 00 00 00 80 	cmpl   $0x80000000,-0x4(%rbp)
    66e7:	75 06                	jne    66ef <safe_mod_func_int32_t_s_s+0x23>
    66e9:	83 7d f8 ff          	cmpl   $0xffffffff,-0x8(%rbp)
    66ed:	74 0b                	je     66fa <safe_mod_func_int32_t_s_s+0x2e>
    66ef:	8b 45 fc             	mov    -0x4(%rbp),%eax
    66f2:	99                   	cltd   
    66f3:	f7 7d f8             	idivl  -0x8(%rbp)
    66f6:	89 d0                	mov    %edx,%eax
    66f8:	eb 03                	jmp    66fd <safe_mod_func_int32_t_s_s+0x31>
    66fa:	8b 45 fc             	mov    -0x4(%rbp),%eax
    66fd:	5d                   	pop    %rbp
    66fe:	c3                   	retq   

00000000000066ff <safe_div_func_int32_t_s_s>:
    66ff:	f3 0f 1e fa          	endbr64 
    6703:	55                   	push   %rbp
    6704:	48 89 e5             	mov    %rsp,%rbp
    6707:	89 7d fc             	mov    %edi,-0x4(%rbp)
    670a:	89 75 f8             	mov    %esi,-0x8(%rbp)
    670d:	83 7d f8 00          	cmpl   $0x0,-0x8(%rbp)
    6711:	74 18                	je     672b <safe_div_func_int32_t_s_s+0x2c>
    6713:	81 7d fc 00 00 00 80 	cmpl   $0x80000000,-0x4(%rbp)
    671a:	75 06                	jne    6722 <safe_div_func_int32_t_s_s+0x23>
    671c:	83 7d f8 ff          	cmpl   $0xffffffff,-0x8(%rbp)
    6720:	74 09                	je     672b <safe_div_func_int32_t_s_s+0x2c>
    6722:	8b 45 fc             	mov    -0x4(%rbp),%eax
    6725:	99                   	cltd   
    6726:	f7 7d f8             	idivl  -0x8(%rbp)
    6729:	eb 03                	jmp    672e <safe_div_func_int32_t_s_s+0x2f>
    672b:	8b 45 fc             	mov    -0x4(%rbp),%eax
    672e:	5d                   	pop    %rbp
    672f:	c3                   	retq   

0000000000006730 <safe_lshift_func_int32_t_s_s>:
    6730:	f3 0f 1e fa          	endbr64 
    6734:	55                   	push   %rbp
    6735:	48 89 e5             	mov    %rsp,%rbp
    6738:	89 7d fc             	mov    %edi,-0x4(%rbp)
    673b:	89 75 f8             	mov    %esi,-0x8(%rbp)
    673e:	83 7d fc 00          	cmpl   $0x0,-0x4(%rbp)
    6742:	78 2d                	js     6771 <safe_lshift_func_int32_t_s_s+0x41>
    6744:	83 7d f8 00          	cmpl   $0x0,-0x8(%rbp)
    6748:	78 27                	js     6771 <safe_lshift_func_int32_t_s_s+0x41>
    674a:	83 7d f8 1f          	cmpl   $0x1f,-0x8(%rbp)
    674e:	7f 21                	jg     6771 <safe_lshift_func_int32_t_s_s+0x41>
    6750:	8b 45 f8             	mov    -0x8(%rbp),%eax
    6753:	ba ff ff ff 7f       	mov    $0x7fffffff,%edx
    6758:	89 c1                	mov    %eax,%ecx
    675a:	d3 fa                	sar    %cl,%edx
    675c:	89 d0                	mov    %edx,%eax
    675e:	39 45 fc             	cmp    %eax,-0x4(%rbp)
    6761:	7f 0e                	jg     6771 <safe_lshift_func_int32_t_s_s+0x41>
    6763:	8b 45 f8             	mov    -0x8(%rbp),%eax
    6766:	8b 55 fc             	mov    -0x4(%rbp),%edx
    6769:	89 c1                	mov    %eax,%ecx
    676b:	d3 e2                	shl    %cl,%edx
    676d:	89 d0                	mov    %edx,%eax
    676f:	eb 03                	jmp    6774 <safe_lshift_func_int32_t_s_s+0x44>
    6771:	8b 45 fc             	mov    -0x4(%rbp),%eax
    6774:	5d                   	pop    %rbp
    6775:	c3                   	retq   

0000000000006776 <safe_lshift_func_int32_t_s_u>:
    6776:	f3 0f 1e fa          	endbr64 
    677a:	55                   	push   %rbp
    677b:	48 89 e5             	mov    %rsp,%rbp
    677e:	89 7d fc             	mov    %edi,-0x4(%rbp)
    6781:	89 75 f8             	mov    %esi,-0x8(%rbp)
    6784:	83 7d fc 00          	cmpl   $0x0,-0x4(%rbp)
    6788:	78 27                	js     67b1 <safe_lshift_func_int32_t_s_u+0x3b>
    678a:	83 7d f8 1f          	cmpl   $0x1f,-0x8(%rbp)
    678e:	77 21                	ja     67b1 <safe_lshift_func_int32_t_s_u+0x3b>
    6790:	8b 45 f8             	mov    -0x8(%rbp),%eax
    6793:	ba ff ff ff 7f       	mov    $0x7fffffff,%edx
    6798:	89 c1                	mov    %eax,%ecx
    679a:	d3 fa                	sar    %cl,%edx
    679c:	89 d0                	mov    %edx,%eax
    679e:	39 45 fc             	cmp    %eax,-0x4(%rbp)
    67a1:	7f 0e                	jg     67b1 <safe_lshift_func_int32_t_s_u+0x3b>
    67a3:	8b 45 f8             	mov    -0x8(%rbp),%eax
    67a6:	8b 55 fc             	mov    -0x4(%rbp),%edx
    67a9:	89 c1                	mov    %eax,%ecx
    67ab:	d3 e2                	shl    %cl,%edx
    67ad:	89 d0                	mov    %edx,%eax
    67af:	eb 03                	jmp    67b4 <safe_lshift_func_int32_t_s_u+0x3e>
    67b1:	8b 45 fc             	mov    -0x4(%rbp),%eax
    67b4:	5d                   	pop    %rbp
    67b5:	c3                   	retq   

00000000000067b6 <safe_rshift_func_int32_t_s_s>:
    67b6:	f3 0f 1e fa          	endbr64 
    67ba:	55                   	push   %rbp
    67bb:	48 89 e5             	mov    %rsp,%rbp
    67be:	89 7d fc             	mov    %edi,-0x4(%rbp)
    67c1:	89 75 f8             	mov    %esi,-0x8(%rbp)
    67c4:	83 7d fc 00          	cmpl   $0x0,-0x4(%rbp)
    67c8:	78 1a                	js     67e4 <safe_rshift_func_int32_t_s_s+0x2e>
    67ca:	83 7d f8 00          	cmpl   $0x0,-0x8(%rbp)
    67ce:	78 14                	js     67e4 <safe_rshift_func_int32_t_s_s+0x2e>
    67d0:	83 7d f8 1f          	cmpl   $0x1f,-0x8(%rbp)
    67d4:	7f 0e                	jg     67e4 <safe_rshift_func_int32_t_s_s+0x2e>
    67d6:	8b 45 f8             	mov    -0x8(%rbp),%eax
    67d9:	8b 55 fc             	mov    -0x4(%rbp),%edx
    67dc:	89 c1                	mov    %eax,%ecx
    67de:	d3 fa                	sar    %cl,%edx
    67e0:	89 d0                	mov    %edx,%eax
    67e2:	eb 03                	jmp    67e7 <safe_rshift_func_int32_t_s_s+0x31>
    67e4:	8b 45 fc             	mov    -0x4(%rbp),%eax
    67e7:	5d                   	pop    %rbp
    67e8:	c3                   	retq   

00000000000067e9 <safe_rshift_func_int32_t_s_u>:
    67e9:	f3 0f 1e fa          	endbr64 
    67ed:	55                   	push   %rbp
    67ee:	48 89 e5             	mov    %rsp,%rbp
    67f1:	89 7d fc             	mov    %edi,-0x4(%rbp)
    67f4:	89 75 f8             	mov    %esi,-0x8(%rbp)
    67f7:	83 7d fc 00          	cmpl   $0x0,-0x4(%rbp)
    67fb:	78 14                	js     6811 <safe_rshift_func_int32_t_s_u+0x28>
    67fd:	83 7d f8 1f          	cmpl   $0x1f,-0x8(%rbp)
    6801:	77 0e                	ja     6811 <safe_rshift_func_int32_t_s_u+0x28>
    6803:	8b 45 f8             	mov    -0x8(%rbp),%eax
    6806:	8b 55 fc             	mov    -0x4(%rbp),%edx
    6809:	89 c1                	mov    %eax,%ecx
    680b:	d3 fa                	sar    %cl,%edx
    680d:	89 d0                	mov    %edx,%eax
    680f:	eb 03                	jmp    6814 <safe_rshift_func_int32_t_s_u+0x2b>
    6811:	8b 45 fc             	mov    -0x4(%rbp),%eax
    6814:	5d                   	pop    %rbp
    6815:	c3                   	retq   

0000000000006816 <safe_unary_minus_func_int64_t_s>:
    6816:	f3 0f 1e fa          	endbr64 
    681a:	55                   	push   %rbp
    681b:	48 89 e5             	mov    %rsp,%rbp
    681e:	48 89 7d f8          	mov    %rdi,-0x8(%rbp)
    6822:	48 b8 00 00 00 00 00 	movabs $0x8000000000000000,%rax
    6829:	00 00 80 
    682c:	48 39 45 f8          	cmp    %rax,-0x8(%rbp)
    6830:	74 09                	je     683b <safe_unary_minus_func_int64_t_s+0x25>
    6832:	48 8b 45 f8          	mov    -0x8(%rbp),%rax
    6836:	48 f7 d8             	neg    %rax
    6839:	eb 04                	jmp    683f <safe_unary_minus_func_int64_t_s+0x29>
    683b:	48 8b 45 f8          	mov    -0x8(%rbp),%rax
    683f:	5d                   	pop    %rbp
    6840:	c3                   	retq   

0000000000006841 <safe_add_func_int64_t_s_s>:
    6841:	f3 0f 1e fa          	endbr64 
    6845:	55                   	push   %rbp
    6846:	48 89 e5             	mov    %rsp,%rbp
    6849:	48 89 7d f8          	mov    %rdi,-0x8(%rbp)
    684d:	48 89 75 f0          	mov    %rsi,-0x10(%rbp)
    6851:	48 83 7d f8 00       	cmpq   $0x0,-0x8(%rbp)
    6856:	7e 1b                	jle    6873 <safe_add_func_int64_t_s_s+0x32>
    6858:	48 83 7d f0 00       	cmpq   $0x0,-0x10(%rbp)
    685d:	7e 14                	jle    6873 <safe_add_func_int64_t_s_s+0x32>
    685f:	48 b8 ff ff ff ff ff 	movabs $0x7fffffffffffffff,%rax
    6866:	ff ff 7f 
    6869:	48 2b 45 f0          	sub    -0x10(%rbp),%rax
    686d:	48 39 45 f8          	cmp    %rax,-0x8(%rbp)
    6871:	7f 2f                	jg     68a2 <safe_add_func_int64_t_s_s+0x61>
    6873:	48 83 7d f8 00       	cmpq   $0x0,-0x8(%rbp)
    6878:	79 1b                	jns    6895 <safe_add_func_int64_t_s_s+0x54>
    687a:	48 83 7d f0 00       	cmpq   $0x0,-0x10(%rbp)
    687f:	79 14                	jns    6895 <safe_add_func_int64_t_s_s+0x54>
    6881:	48 b8 00 00 00 00 00 	movabs $0x8000000000000000,%rax
    6888:	00 00 80 
    688b:	48 2b 45 f0          	sub    -0x10(%rbp),%rax
    688f:	48 39 45 f8          	cmp    %rax,-0x8(%rbp)
    6893:	7c 0d                	jl     68a2 <safe_add_func_int64_t_s_s+0x61>
    6895:	48 8b 55 f8          	mov    -0x8(%rbp),%rdx
    6899:	48 8b 45 f0          	mov    -0x10(%rbp),%rax
    689d:	48 01 d0             	add    %rdx,%rax
    68a0:	eb 04                	jmp    68a6 <safe_add_func_int64_t_s_s+0x65>
    68a2:	48 8b 45 f8          	mov    -0x8(%rbp),%rax
    68a6:	5d                   	pop    %rbp
    68a7:	c3                   	retq   

00000000000068a8 <safe_sub_func_int64_t_s_s>:
    68a8:	f3 0f 1e fa          	endbr64 
    68ac:	55                   	push   %rbp
    68ad:	48 89 e5             	mov    %rsp,%rbp
    68b0:	48 89 7d f8          	mov    %rdi,-0x8(%rbp)
    68b4:	48 89 75 f0          	mov    %rsi,-0x10(%rbp)
    68b8:	48 8b 45 f8          	mov    -0x8(%rbp),%rax
    68bc:	48 33 45 f0          	xor    -0x10(%rbp),%rax
    68c0:	48 89 c2             	mov    %rax,%rdx
    68c3:	48 8b 45 f8          	mov    -0x8(%rbp),%rax
    68c7:	48 33 45 f0          	xor    -0x10(%rbp),%rax
    68cb:	48 b9 00 00 00 00 00 	movabs $0x8000000000000000,%rcx
    68d2:	00 00 80 
    68d5:	48 21 c8             	and    %rcx,%rax
    68d8:	48 33 45 f8          	xor    -0x8(%rbp),%rax
    68dc:	48 2b 45 f0          	sub    -0x10(%rbp),%rax
    68e0:	48 33 45 f0          	xor    -0x10(%rbp),%rax
    68e4:	48 21 d0             	and    %rdx,%rax
    68e7:	48 85 c0             	test   %rax,%rax
    68ea:	78 0a                	js     68f6 <safe_sub_func_int64_t_s_s+0x4e>
    68ec:	48 8b 45 f8          	mov    -0x8(%rbp),%rax
    68f0:	48 2b 45 f0          	sub    -0x10(%rbp),%rax
    68f4:	eb 04                	jmp    68fa <safe_sub_func_int64_t_s_s+0x52>
    68f6:	48 8b 45 f8          	mov    -0x8(%rbp),%rax
    68fa:	5d                   	pop    %rbp
    68fb:	c3                   	retq   

00000000000068fc <safe_mul_func_int64_t_s_s>:
    68fc:	f3 0f 1e fa          	endbr64 
    6900:	55                   	push   %rbp
    6901:	48 89 e5             	mov    %rsp,%rbp
    6904:	48 89 7d f8          	mov    %rdi,-0x8(%rbp)
    6908:	48 89 75 f0          	mov    %rsi,-0x10(%rbp)
    690c:	48 83 7d f8 00       	cmpq   $0x0,-0x8(%rbp)
    6911:	7e 1d                	jle    6930 <safe_mul_func_int64_t_s_s+0x34>
    6913:	48 83 7d f0 00       	cmpq   $0x0,-0x10(%rbp)
    6918:	7e 16                	jle    6930 <safe_mul_func_int64_t_s_s+0x34>
    691a:	48 b8 ff ff ff ff ff 	movabs $0x7fffffffffffffff,%rax
    6921:	ff ff 7f 
    6924:	48 99                	cqto   
    6926:	48 f7 7d f0          	idivq  -0x10(%rbp)
    692a:	48 39 45 f8          	cmp    %rax,-0x8(%rbp)
    692e:	7f 7e                	jg     69ae <safe_mul_func_int64_t_s_s+0xb2>
    6930:	48 83 7d f8 00       	cmpq   $0x0,-0x8(%rbp)
    6935:	7e 1d                	jle    6954 <safe_mul_func_int64_t_s_s+0x58>
    6937:	48 83 7d f0 00       	cmpq   $0x0,-0x10(%rbp)
    693c:	7f 16                	jg     6954 <safe_mul_func_int64_t_s_s+0x58>
    693e:	48 b8 00 00 00 00 00 	movabs $0x8000000000000000,%rax
    6945:	00 00 80 
    6948:	48 99                	cqto   
    694a:	48 f7 7d f8          	idivq  -0x8(%rbp)
    694e:	48 39 45 f0          	cmp    %rax,-0x10(%rbp)
    6952:	7c 5a                	jl     69ae <safe_mul_func_int64_t_s_s+0xb2>
    6954:	48 83 7d f8 00       	cmpq   $0x0,-0x8(%rbp)
    6959:	7f 1d                	jg     6978 <safe_mul_func_int64_t_s_s+0x7c>
    695b:	48 83 7d f0 00       	cmpq   $0x0,-0x10(%rbp)
    6960:	7e 16                	jle    6978 <safe_mul_func_int64_t_s_s+0x7c>
    6962:	48 b8 00 00 00 00 00 	movabs $0x8000000000000000,%rax
    6969:	00 00 80 
    696c:	48 99                	cqto   
    696e:	48 f7 7d f0          	idivq  -0x10(%rbp)
    6972:	48 39 45 f8          	cmp    %rax,-0x8(%rbp)
    6976:	7c 36                	jl     69ae <safe_mul_func_int64_t_s_s+0xb2>
    6978:	48 83 7d f8 00       	cmpq   $0x0,-0x8(%rbp)
    697d:	7f 24                	jg     69a3 <safe_mul_func_int64_t_s_s+0xa7>
    697f:	48 83 7d f0 00       	cmpq   $0x0,-0x10(%rbp)
    6984:	7f 1d                	jg     69a3 <safe_mul_func_int64_t_s_s+0xa7>
    6986:	48 83 7d f8 00       	cmpq   $0x0,-0x8(%rbp)
    698b:	74 16                	je     69a3 <safe_mul_func_int64_t_s_s+0xa7>
    698d:	48 b8 ff ff ff ff ff 	movabs $0x7fffffffffffffff,%rax
    6994:	ff ff 7f 
    6997:	48 99                	cqto   
    6999:	48 f7 7d f8          	idivq  -0x8(%rbp)
    699d:	48 39 45 f0          	cmp    %rax,-0x10(%rbp)
    69a1:	7c 0b                	jl     69ae <safe_mul_func_int64_t_s_s+0xb2>
    69a3:	48 8b 45 f8          	mov    -0x8(%rbp),%rax
    69a7:	48 0f af 45 f0       	imul   -0x10(%rbp),%rax
    69ac:	eb 04                	jmp    69b2 <safe_mul_func_int64_t_s_s+0xb6>
    69ae:	48 8b 45 f8          	mov    -0x8(%rbp),%rax
    69b2:	5d                   	pop    %rbp
    69b3:	c3                   	retq   

00000000000069b4 <safe_mod_func_int64_t_s_s>:
    69b4:	f3 0f 1e fa          	endbr64 
    69b8:	55                   	push   %rbp
    69b9:	48 89 e5             	mov    %rsp,%rbp
    69bc:	48 89 7d f8          	mov    %rdi,-0x8(%rbp)
    69c0:	48 89 75 f0          	mov    %rsi,-0x10(%rbp)
    69c4:	48 83 7d f0 00       	cmpq   $0x0,-0x10(%rbp)
    69c9:	74 26                	je     69f1 <safe_mod_func_int64_t_s_s+0x3d>
    69cb:	48 b8 00 00 00 00 00 	movabs $0x8000000000000000,%rax
    69d2:	00 00 80 
    69d5:	48 39 45 f8          	cmp    %rax,-0x8(%rbp)
    69d9:	75 07                	jne    69e2 <safe_mod_func_int64_t_s_s+0x2e>
    69db:	48 83 7d f0 ff       	cmpq   $0xffffffffffffffff,-0x10(%rbp)
    69e0:	74 0f                	je     69f1 <safe_mod_func_int64_t_s_s+0x3d>
    69e2:	48 8b 45 f8          	mov    -0x8(%rbp),%rax
    69e6:	48 99                	cqto   
    69e8:	48 f7 7d f0          	idivq  -0x10(%rbp)
    69ec:	48 89 d0             	mov    %rdx,%rax
    69ef:	eb 04                	jmp    69f5 <safe_mod_func_int64_t_s_s+0x41>
    69f1:	48 8b 45 f8          	mov    -0x8(%rbp),%rax
    69f5:	5d                   	pop    %rbp
    69f6:	c3                   	retq   

00000000000069f7 <safe_div_func_int64_t_s_s>:
    69f7:	f3 0f 1e fa          	endbr64 
    69fb:	55                   	push   %rbp
    69fc:	48 89 e5             	mov    %rsp,%rbp
    69ff:	48 89 7d f8          	mov    %rdi,-0x8(%rbp)
    6a03:	48 89 75 f0          	mov    %rsi,-0x10(%rbp)
    6a07:	48 83 7d f0 00       	cmpq   $0x0,-0x10(%rbp)
    6a0c:	74 23                	je     6a31 <safe_div_func_int64_t_s_s+0x3a>
    6a0e:	48 b8 00 00 00 00 00 	movabs $0x8000000000000000,%rax
    6a15:	00 00 80 
    6a18:	48 39 45 f8          	cmp    %rax,-0x8(%rbp)
    6a1c:	75 07                	jne    6a25 <safe_div_func_int64_t_s_s+0x2e>
    6a1e:	48 83 7d f0 ff       	cmpq   $0xffffffffffffffff,-0x10(%rbp)
    6a23:	74 0c                	je     6a31 <safe_div_func_int64_t_s_s+0x3a>
    6a25:	48 8b 45 f8          	mov    -0x8(%rbp),%rax
    6a29:	48 99                	cqto   
    6a2b:	48 f7 7d f0          	idivq  -0x10(%rbp)
    6a2f:	eb 04                	jmp    6a35 <safe_div_func_int64_t_s_s+0x3e>
    6a31:	48 8b 45 f8          	mov    -0x8(%rbp),%rax
    6a35:	5d                   	pop    %rbp
    6a36:	c3                   	retq   

0000000000006a37 <safe_lshift_func_int64_t_s_s>:
    6a37:	f3 0f 1e fa          	endbr64 
    6a3b:	55                   	push   %rbp
    6a3c:	48 89 e5             	mov    %rsp,%rbp
    6a3f:	48 89 7d f8          	mov    %rdi,-0x8(%rbp)
    6a43:	89 75 f4             	mov    %esi,-0xc(%rbp)
    6a46:	48 83 7d f8 00       	cmpq   $0x0,-0x8(%rbp)
    6a4b:	78 38                	js     6a85 <safe_lshift_func_int64_t_s_s+0x4e>
    6a4d:	83 7d f4 00          	cmpl   $0x0,-0xc(%rbp)
    6a51:	78 32                	js     6a85 <safe_lshift_func_int64_t_s_s+0x4e>
    6a53:	83 7d f4 1f          	cmpl   $0x1f,-0xc(%rbp)
    6a57:	7f 2c                	jg     6a85 <safe_lshift_func_int64_t_s_s+0x4e>
    6a59:	8b 45 f4             	mov    -0xc(%rbp),%eax
    6a5c:	48 ba ff ff ff ff ff 	movabs $0x7fffffffffffffff,%rdx
    6a63:	ff ff 7f 
    6a66:	89 c1                	mov    %eax,%ecx
    6a68:	48 d3 fa             	sar    %cl,%rdx
    6a6b:	48 89 d0             	mov    %rdx,%rax
    6a6e:	48 39 45 f8          	cmp    %rax,-0x8(%rbp)
    6a72:	7f 11                	jg     6a85 <safe_lshift_func_int64_t_s_s+0x4e>
    6a74:	8b 45 f4             	mov    -0xc(%rbp),%eax
    6a77:	48 8b 55 f8          	mov    -0x8(%rbp),%rdx
    6a7b:	89 c1                	mov    %eax,%ecx
    6a7d:	48 d3 e2             	shl    %cl,%rdx
    6a80:	48 89 d0             	mov    %rdx,%rax
    6a83:	eb 04                	jmp    6a89 <safe_lshift_func_int64_t_s_s+0x52>
    6a85:	48 8b 45 f8          	mov    -0x8(%rbp),%rax
    6a89:	5d                   	pop    %rbp
    6a8a:	c3                   	retq   

0000000000006a8b <safe_lshift_func_int64_t_s_u>:
    6a8b:	f3 0f 1e fa          	endbr64 
    6a8f:	55                   	push   %rbp
    6a90:	48 89 e5             	mov    %rsp,%rbp
    6a93:	48 89 7d f8          	mov    %rdi,-0x8(%rbp)
    6a97:	89 75 f4             	mov    %esi,-0xc(%rbp)
    6a9a:	48 83 7d f8 00       	cmpq   $0x0,-0x8(%rbp)
    6a9f:	78 32                	js     6ad3 <safe_lshift_func_int64_t_s_u+0x48>
    6aa1:	83 7d f4 1f          	cmpl   $0x1f,-0xc(%rbp)
    6aa5:	77 2c                	ja     6ad3 <safe_lshift_func_int64_t_s_u+0x48>
    6aa7:	8b 45 f4             	mov    -0xc(%rbp),%eax
    6aaa:	48 ba ff ff ff ff ff 	movabs $0x7fffffffffffffff,%rdx
    6ab1:	ff ff 7f 
    6ab4:	89 c1                	mov    %eax,%ecx
    6ab6:	48 d3 fa             	sar    %cl,%rdx
    6ab9:	48 89 d0             	mov    %rdx,%rax
    6abc:	48 39 45 f8          	cmp    %rax,-0x8(%rbp)
    6ac0:	7f 11                	jg     6ad3 <safe_lshift_func_int64_t_s_u+0x48>
    6ac2:	8b 45 f4             	mov    -0xc(%rbp),%eax
    6ac5:	48 8b 55 f8          	mov    -0x8(%rbp),%rdx
    6ac9:	89 c1                	mov    %eax,%ecx
    6acb:	48 d3 e2             	shl    %cl,%rdx
    6ace:	48 89 d0             	mov    %rdx,%rax
    6ad1:	eb 04                	jmp    6ad7 <safe_lshift_func_int64_t_s_u+0x4c>
    6ad3:	48 8b 45 f8          	mov    -0x8(%rbp),%rax
    6ad7:	5d                   	pop    %rbp
    6ad8:	c3                   	retq   

0000000000006ad9 <safe_rshift_func_int64_t_s_s>:
    6ad9:	f3 0f 1e fa          	endbr64 
    6add:	55                   	push   %rbp
    6ade:	48 89 e5             	mov    %rsp,%rbp
    6ae1:	48 89 7d f8          	mov    %rdi,-0x8(%rbp)
    6ae5:	89 75 f4             	mov    %esi,-0xc(%rbp)
    6ae8:	48 83 7d f8 00       	cmpq   $0x0,-0x8(%rbp)
    6aed:	78 1d                	js     6b0c <safe_rshift_func_int64_t_s_s+0x33>
    6aef:	83 7d f4 00          	cmpl   $0x0,-0xc(%rbp)
    6af3:	78 17                	js     6b0c <safe_rshift_func_int64_t_s_s+0x33>
    6af5:	83 7d f4 1f          	cmpl   $0x1f,-0xc(%rbp)
    6af9:	7f 11                	jg     6b0c <safe_rshift_func_int64_t_s_s+0x33>
    6afb:	8b 45 f4             	mov    -0xc(%rbp),%eax
    6afe:	48 8b 55 f8          	mov    -0x8(%rbp),%rdx
    6b02:	89 c1                	mov    %eax,%ecx
    6b04:	48 d3 fa             	sar    %cl,%rdx
    6b07:	48 89 d0             	mov    %rdx,%rax
    6b0a:	eb 04                	jmp    6b10 <safe_rshift_func_int64_t_s_s+0x37>
    6b0c:	48 8b 45 f8          	mov    -0x8(%rbp),%rax
    6b10:	5d                   	pop    %rbp
    6b11:	c3                   	retq   

0000000000006b12 <safe_rshift_func_int64_t_s_u>:
    6b12:	f3 0f 1e fa          	endbr64 
    6b16:	55                   	push   %rbp
    6b17:	48 89 e5             	mov    %rsp,%rbp
    6b1a:	48 89 7d f8          	mov    %rdi,-0x8(%rbp)
    6b1e:	89 75 f4             	mov    %esi,-0xc(%rbp)
    6b21:	48 83 7d f8 00       	cmpq   $0x0,-0x8(%rbp)
    6b26:	78 17                	js     6b3f <safe_rshift_func_int64_t_s_u+0x2d>
    6b28:	83 7d f4 1f          	cmpl   $0x1f,-0xc(%rbp)
    6b2c:	77 11                	ja     6b3f <safe_rshift_func_int64_t_s_u+0x2d>
    6b2e:	8b 45 f4             	mov    -0xc(%rbp),%eax
    6b31:	48 8b 55 f8          	mov    -0x8(%rbp),%rdx
    6b35:	89 c1                	mov    %eax,%ecx
    6b37:	48 d3 fa             	sar    %cl,%rdx
    6b3a:	48 89 d0             	mov    %rdx,%rax
    6b3d:	eb 04                	jmp    6b43 <safe_rshift_func_int64_t_s_u+0x31>
    6b3f:	48 8b 45 f8          	mov    -0x8(%rbp),%rax
    6b43:	5d                   	pop    %rbp
    6b44:	c3                   	retq   

0000000000006b45 <safe_unary_minus_func_uint8_t_u>:
    6b45:	f3 0f 1e fa          	endbr64 
    6b49:	55                   	push   %rbp
    6b4a:	48 89 e5             	mov    %rsp,%rbp
    6b4d:	89 f8                	mov    %edi,%eax
    6b4f:	88 45 fc             	mov    %al,-0x4(%rbp)
    6b52:	0f b6 45 fc          	movzbl -0x4(%rbp),%eax
    6b56:	f7 d8                	neg    %eax
    6b58:	5d                   	pop    %rbp
    6b59:	c3                   	retq   

0000000000006b5a <safe_add_func_uint8_t_u_u>:
    6b5a:	f3 0f 1e fa          	endbr64 
    6b5e:	55                   	push   %rbp
    6b5f:	48 89 e5             	mov    %rsp,%rbp
    6b62:	89 fa                	mov    %edi,%edx
    6b64:	89 f0                	mov    %esi,%eax
    6b66:	88 55 fc             	mov    %dl,-0x4(%rbp)
    6b69:	88 45 f8             	mov    %al,-0x8(%rbp)
    6b6c:	0f b6 55 fc          	movzbl -0x4(%rbp),%edx
    6b70:	0f b6 45 f8          	movzbl -0x8(%rbp),%eax
    6b74:	01 d0                	add    %edx,%eax
    6b76:	5d                   	pop    %rbp
    6b77:	c3                   	retq   

0000000000006b78 <safe_sub_func_uint8_t_u_u>:
    6b78:	f3 0f 1e fa          	endbr64 
    6b7c:	55                   	push   %rbp
    6b7d:	48 89 e5             	mov    %rsp,%rbp
    6b80:	89 fa                	mov    %edi,%edx
    6b82:	89 f0                	mov    %esi,%eax
    6b84:	88 55 fc             	mov    %dl,-0x4(%rbp)
    6b87:	88 45 f8             	mov    %al,-0x8(%rbp)
    6b8a:	0f b6 45 fc          	movzbl -0x4(%rbp),%eax
    6b8e:	2a 45 f8             	sub    -0x8(%rbp),%al
    6b91:	5d                   	pop    %rbp
    6b92:	c3                   	retq   

0000000000006b93 <safe_mul_func_uint8_t_u_u>:
    6b93:	f3 0f 1e fa          	endbr64 
    6b97:	55                   	push   %rbp
    6b98:	48 89 e5             	mov    %rsp,%rbp
    6b9b:	89 fa                	mov    %edi,%edx
    6b9d:	89 f0                	mov    %esi,%eax
    6b9f:	88 55 fc             	mov    %dl,-0x4(%rbp)
    6ba2:	88 45 f8             	mov    %al,-0x8(%rbp)
    6ba5:	0f b6 45 fc          	movzbl -0x4(%rbp),%eax
    6ba9:	f6 65 f8             	mulb   -0x8(%rbp)
    6bac:	5d                   	pop    %rbp
    6bad:	c3                   	retq   

0000000000006bae <safe_mod_func_uint8_t_u_u>:
    6bae:	f3 0f 1e fa          	endbr64 
    6bb2:	55                   	push   %rbp
    6bb3:	48 89 e5             	mov    %rsp,%rbp
    6bb6:	89 fa                	mov    %edi,%edx
    6bb8:	89 f0                	mov    %esi,%eax
    6bba:	88 55 fc             	mov    %dl,-0x4(%rbp)
    6bbd:	88 45 f8             	mov    %al,-0x8(%rbp)
    6bc0:	80 7d f8 00          	cmpb   $0x0,-0x8(%rbp)
    6bc4:	74 0f                	je     6bd5 <safe_mod_func_uint8_t_u_u+0x27>
    6bc6:	0f b6 45 fc          	movzbl -0x4(%rbp),%eax
    6bca:	0f b6 c0             	movzbl %al,%eax
    6bcd:	f6 75 f8             	divb   -0x8(%rbp)
    6bd0:	0f b6 c4             	movzbl %ah,%eax
    6bd3:	eb 04                	jmp    6bd9 <safe_mod_func_uint8_t_u_u+0x2b>
    6bd5:	0f b6 45 fc          	movzbl -0x4(%rbp),%eax
    6bd9:	5d                   	pop    %rbp
    6bda:	c3                   	retq   

0000000000006bdb <safe_div_func_uint8_t_u_u>:
    6bdb:	f3 0f 1e fa          	endbr64 
    6bdf:	55                   	push   %rbp
    6be0:	48 89 e5             	mov    %rsp,%rbp
    6be3:	89 fa                	mov    %edi,%edx
    6be5:	89 f0                	mov    %esi,%eax
    6be7:	88 55 fc             	mov    %dl,-0x4(%rbp)
    6bea:	88 45 f8             	mov    %al,-0x8(%rbp)
    6bed:	80 7d f8 00          	cmpb   $0x0,-0x8(%rbp)
    6bf1:	74 0c                	je     6bff <safe_div_func_uint8_t_u_u+0x24>
    6bf3:	0f b6 45 fc          	movzbl -0x4(%rbp),%eax
    6bf7:	0f b6 c0             	movzbl %al,%eax
    6bfa:	f6 75 f8             	divb   -0x8(%rbp)
    6bfd:	eb 04                	jmp    6c03 <safe_div_func_uint8_t_u_u+0x28>
    6bff:	0f b6 45 fc          	movzbl -0x4(%rbp),%eax
    6c03:	5d                   	pop    %rbp
    6c04:	c3                   	retq   

0000000000006c05 <safe_lshift_func_uint8_t_u_s>:
    6c05:	f3 0f 1e fa          	endbr64 
    6c09:	55                   	push   %rbp
    6c0a:	48 89 e5             	mov    %rsp,%rbp
    6c0d:	89 f8                	mov    %edi,%eax
    6c0f:	89 75 f8             	mov    %esi,-0x8(%rbp)
    6c12:	88 45 fc             	mov    %al,-0x4(%rbp)
    6c15:	83 7d f8 00          	cmpl   $0x0,-0x8(%rbp)
    6c19:	78 2b                	js     6c46 <safe_lshift_func_uint8_t_u_s+0x41>
    6c1b:	83 7d f8 1f          	cmpl   $0x1f,-0x8(%rbp)
    6c1f:	7f 25                	jg     6c46 <safe_lshift_func_uint8_t_u_s+0x41>
    6c21:	0f b6 55 fc          	movzbl -0x4(%rbp),%edx
    6c25:	8b 45 f8             	mov    -0x8(%rbp),%eax
    6c28:	be ff 00 00 00       	mov    $0xff,%esi
    6c2d:	89 c1                	mov    %eax,%ecx
    6c2f:	d3 fe                	sar    %cl,%esi
    6c31:	89 f0                	mov    %esi,%eax
    6c33:	39 c2                	cmp    %eax,%edx
    6c35:	7f 0f                	jg     6c46 <safe_lshift_func_uint8_t_u_s+0x41>
    6c37:	0f b6 55 fc          	movzbl -0x4(%rbp),%edx
    6c3b:	8b 45 f8             	mov    -0x8(%rbp),%eax
    6c3e:	89 c1                	mov    %eax,%ecx
    6c40:	d3 e2                	shl    %cl,%edx
    6c42:	89 d0                	mov    %edx,%eax
    6c44:	eb 04                	jmp    6c4a <safe_lshift_func_uint8_t_u_s+0x45>
    6c46:	0f b6 45 fc          	movzbl -0x4(%rbp),%eax
    6c4a:	5d                   	pop    %rbp
    6c4b:	c3                   	retq   

0000000000006c4c <safe_lshift_func_uint8_t_u_u>:
    6c4c:	f3 0f 1e fa          	endbr64 
    6c50:	55                   	push   %rbp
    6c51:	48 89 e5             	mov    %rsp,%rbp
    6c54:	89 f8                	mov    %edi,%eax
    6c56:	89 75 f8             	mov    %esi,-0x8(%rbp)
    6c59:	88 45 fc             	mov    %al,-0x4(%rbp)
    6c5c:	83 7d f8 1f          	cmpl   $0x1f,-0x8(%rbp)
    6c60:	77 25                	ja     6c87 <safe_lshift_func_uint8_t_u_u+0x3b>
    6c62:	0f b6 55 fc          	movzbl -0x4(%rbp),%edx
    6c66:	8b 45 f8             	mov    -0x8(%rbp),%eax
    6c69:	be ff 00 00 00       	mov    $0xff,%esi
    6c6e:	89 c1                	mov    %eax,%ecx
    6c70:	d3 fe                	sar    %cl,%esi
    6c72:	89 f0                	mov    %esi,%eax
    6c74:	39 c2                	cmp    %eax,%edx
    6c76:	7f 0f                	jg     6c87 <safe_lshift_func_uint8_t_u_u+0x3b>
    6c78:	0f b6 55 fc          	movzbl -0x4(%rbp),%edx
    6c7c:	8b 45 f8             	mov    -0x8(%rbp),%eax
    6c7f:	89 c1                	mov    %eax,%ecx
    6c81:	d3 e2                	shl    %cl,%edx
    6c83:	89 d0                	mov    %edx,%eax
    6c85:	eb 04                	jmp    6c8b <safe_lshift_func_uint8_t_u_u+0x3f>
    6c87:	0f b6 45 fc          	movzbl -0x4(%rbp),%eax
    6c8b:	5d                   	pop    %rbp
    6c8c:	c3                   	retq   

0000000000006c8d <safe_rshift_func_uint8_t_u_s>:
    6c8d:	f3 0f 1e fa          	endbr64 
    6c91:	55                   	push   %rbp
    6c92:	48 89 e5             	mov    %rsp,%rbp
    6c95:	89 f8                	mov    %edi,%eax
    6c97:	89 75 f8             	mov    %esi,-0x8(%rbp)
    6c9a:	88 45 fc             	mov    %al,-0x4(%rbp)
    6c9d:	83 7d f8 00          	cmpl   $0x0,-0x8(%rbp)
    6ca1:	78 15                	js     6cb8 <safe_rshift_func_uint8_t_u_s+0x2b>
    6ca3:	83 7d f8 1f          	cmpl   $0x1f,-0x8(%rbp)
    6ca7:	7f 0f                	jg     6cb8 <safe_rshift_func_uint8_t_u_s+0x2b>
    6ca9:	0f b6 55 fc          	movzbl -0x4(%rbp),%edx
    6cad:	8b 45 f8             	mov    -0x8(%rbp),%eax
    6cb0:	89 c1                	mov    %eax,%ecx
    6cb2:	d3 fa                	sar    %cl,%edx
    6cb4:	89 d0                	mov    %edx,%eax
    6cb6:	eb 04                	jmp    6cbc <safe_rshift_func_uint8_t_u_s+0x2f>
    6cb8:	0f b6 45 fc          	movzbl -0x4(%rbp),%eax
    6cbc:	5d                   	pop    %rbp
    6cbd:	c3                   	retq   

0000000000006cbe <safe_rshift_func_uint8_t_u_u>:
    6cbe:	f3 0f 1e fa          	endbr64 
    6cc2:	55                   	push   %rbp
    6cc3:	48 89 e5             	mov    %rsp,%rbp
    6cc6:	89 f8                	mov    %edi,%eax
    6cc8:	89 75 f8             	mov    %esi,-0x8(%rbp)
    6ccb:	88 45 fc             	mov    %al,-0x4(%rbp)
    6cce:	83 7d f8 1f          	cmpl   $0x1f,-0x8(%rbp)
    6cd2:	77 0f                	ja     6ce3 <safe_rshift_func_uint8_t_u_u+0x25>
    6cd4:	0f b6 55 fc          	movzbl -0x4(%rbp),%edx
    6cd8:	8b 45 f8             	mov    -0x8(%rbp),%eax
    6cdb:	89 c1                	mov    %eax,%ecx
    6cdd:	d3 fa                	sar    %cl,%edx
    6cdf:	89 d0                	mov    %edx,%eax
    6ce1:	eb 04                	jmp    6ce7 <safe_rshift_func_uint8_t_u_u+0x29>
    6ce3:	0f b6 45 fc          	movzbl -0x4(%rbp),%eax
    6ce7:	5d                   	pop    %rbp
    6ce8:	c3                   	retq   

0000000000006ce9 <safe_unary_minus_func_uint16_t_u>:
    6ce9:	f3 0f 1e fa          	endbr64 
    6ced:	55                   	push   %rbp
    6cee:	48 89 e5             	mov    %rsp,%rbp
    6cf1:	89 f8                	mov    %edi,%eax
    6cf3:	66 89 45 fc          	mov    %ax,-0x4(%rbp)
    6cf7:	0f b7 45 fc          	movzwl -0x4(%rbp),%eax
    6cfb:	f7 d8                	neg    %eax
    6cfd:	5d                   	pop    %rbp
    6cfe:	c3                   	retq   

0000000000006cff <safe_add_func_uint16_t_u_u>:
    6cff:	f3 0f 1e fa          	endbr64 
    6d03:	55                   	push   %rbp
    6d04:	48 89 e5             	mov    %rsp,%rbp
    6d07:	89 fa                	mov    %edi,%edx
    6d09:	89 f0                	mov    %esi,%eax
    6d0b:	66 89 55 fc          	mov    %dx,-0x4(%rbp)
    6d0f:	66 89 45 f8          	mov    %ax,-0x8(%rbp)
    6d13:	0f b7 55 fc          	movzwl -0x4(%rbp),%edx
    6d17:	0f b7 45 f8          	movzwl -0x8(%rbp),%eax
    6d1b:	01 d0                	add    %edx,%eax
    6d1d:	5d                   	pop    %rbp
    6d1e:	c3                   	retq   

0000000000006d1f <safe_sub_func_uint16_t_u_u>:
    6d1f:	f3 0f 1e fa          	endbr64 
    6d23:	55                   	push   %rbp
    6d24:	48 89 e5             	mov    %rsp,%rbp
    6d27:	89 fa                	mov    %edi,%edx
    6d29:	89 f0                	mov    %esi,%eax
    6d2b:	66 89 55 fc          	mov    %dx,-0x4(%rbp)
    6d2f:	66 89 45 f8          	mov    %ax,-0x8(%rbp)
    6d33:	0f b7 45 fc          	movzwl -0x4(%rbp),%eax
    6d37:	66 2b 45 f8          	sub    -0x8(%rbp),%ax
    6d3b:	5d                   	pop    %rbp
    6d3c:	c3                   	retq   

0000000000006d3d <safe_mul_func_uint16_t_u_u>:
    6d3d:	f3 0f 1e fa          	endbr64 
    6d41:	55                   	push   %rbp
    6d42:	48 89 e5             	mov    %rsp,%rbp
    6d45:	89 fa                	mov    %edi,%edx
    6d47:	89 f0                	mov    %esi,%eax
    6d49:	66 89 55 fc          	mov    %dx,-0x4(%rbp)
    6d4d:	66 89 45 f8          	mov    %ax,-0x8(%rbp)
    6d51:	0f b7 45 fc          	movzwl -0x4(%rbp),%eax
    6d55:	66 0f af 45 f8       	imul   -0x8(%rbp),%ax
    6d5a:	5d                   	pop    %rbp
    6d5b:	c3                   	retq   

0000000000006d5c <safe_mod_func_uint16_t_u_u>:
    6d5c:	f3 0f 1e fa          	endbr64 
    6d60:	55                   	push   %rbp
    6d61:	48 89 e5             	mov    %rsp,%rbp
    6d64:	89 fa                	mov    %edi,%edx
    6d66:	89 f0                	mov    %esi,%eax
    6d68:	66 89 55 fc          	mov    %dx,-0x4(%rbp)
    6d6c:	66 89 45 f8          	mov    %ax,-0x8(%rbp)
    6d70:	66 83 7d f8 00       	cmpw   $0x0,-0x8(%rbp)
    6d75:	74 11                	je     6d88 <safe_mod_func_uint16_t_u_u+0x2c>
    6d77:	0f b7 45 fc          	movzwl -0x4(%rbp),%eax
    6d7b:	ba 00 00 00 00       	mov    $0x0,%edx
    6d80:	66 f7 75 f8          	divw   -0x8(%rbp)
    6d84:	89 d0                	mov    %edx,%eax
    6d86:	eb 04                	jmp    6d8c <safe_mod_func_uint16_t_u_u+0x30>
    6d88:	0f b7 45 fc          	movzwl -0x4(%rbp),%eax
    6d8c:	5d                   	pop    %rbp
    6d8d:	c3                   	retq   

0000000000006d8e <safe_div_func_uint16_t_u_u>:
    6d8e:	f3 0f 1e fa          	endbr64 
    6d92:	55                   	push   %rbp
    6d93:	48 89 e5             	mov    %rsp,%rbp
    6d96:	89 fa                	mov    %edi,%edx
    6d98:	89 f0                	mov    %esi,%eax
    6d9a:	66 89 55 fc          	mov    %dx,-0x4(%rbp)
    6d9e:	66 89 45 f8          	mov    %ax,-0x8(%rbp)
    6da2:	66 83 7d f8 00       	cmpw   $0x0,-0x8(%rbp)
    6da7:	74 0f                	je     6db8 <safe_div_func_uint16_t_u_u+0x2a>
    6da9:	0f b7 45 fc          	movzwl -0x4(%rbp),%eax
    6dad:	ba 00 00 00 00       	mov    $0x0,%edx
    6db2:	66 f7 75 f8          	divw   -0x8(%rbp)
    6db6:	eb 04                	jmp    6dbc <safe_div_func_uint16_t_u_u+0x2e>
    6db8:	0f b7 45 fc          	movzwl -0x4(%rbp),%eax
    6dbc:	5d                   	pop    %rbp
    6dbd:	c3                   	retq   

0000000000006dbe <safe_lshift_func_uint16_t_u_s>:
    6dbe:	f3 0f 1e fa          	endbr64 
    6dc2:	55                   	push   %rbp
    6dc3:	48 89 e5             	mov    %rsp,%rbp
    6dc6:	89 f8                	mov    %edi,%eax
    6dc8:	89 75 f8             	mov    %esi,-0x8(%rbp)
    6dcb:	66 89 45 fc          	mov    %ax,-0x4(%rbp)
    6dcf:	83 7d f8 00          	cmpl   $0x0,-0x8(%rbp)
    6dd3:	78 2b                	js     6e00 <safe_lshift_func_uint16_t_u_s+0x42>
    6dd5:	83 7d f8 1f          	cmpl   $0x1f,-0x8(%rbp)
    6dd9:	7f 25                	jg     6e00 <safe_lshift_func_uint16_t_u_s+0x42>
    6ddb:	0f b7 55 fc          	movzwl -0x4(%rbp),%edx
    6ddf:	8b 45 f8             	mov    -0x8(%rbp),%eax
    6de2:	be ff ff 00 00       	mov    $0xffff,%esi
    6de7:	89 c1                	mov    %eax,%ecx
    6de9:	d3 fe                	sar    %cl,%esi
    6deb:	89 f0                	mov    %esi,%eax
    6ded:	39 c2                	cmp    %eax,%edx
    6def:	7f 0f                	jg     6e00 <safe_lshift_func_uint16_t_u_s+0x42>
    6df1:	0f b7 55 fc          	movzwl -0x4(%rbp),%edx
    6df5:	8b 45 f8             	mov    -0x8(%rbp),%eax
    6df8:	89 c1                	mov    %eax,%ecx
    6dfa:	d3 e2                	shl    %cl,%edx
    6dfc:	89 d0                	mov    %edx,%eax
    6dfe:	eb 04                	jmp    6e04 <safe_lshift_func_uint16_t_u_s+0x46>
    6e00:	0f b7 45 fc          	movzwl -0x4(%rbp),%eax
    6e04:	5d                   	pop    %rbp
    6e05:	c3                   	retq   

0000000000006e06 <safe_lshift_func_uint16_t_u_u>:
    6e06:	f3 0f 1e fa          	endbr64 
    6e0a:	55                   	push   %rbp
    6e0b:	48 89 e5             	mov    %rsp,%rbp
    6e0e:	89 f8                	mov    %edi,%eax
    6e10:	89 75 f8             	mov    %esi,-0x8(%rbp)
    6e13:	66 89 45 fc          	mov    %ax,-0x4(%rbp)
    6e17:	83 7d f8 1f          	cmpl   $0x1f,-0x8(%rbp)
    6e1b:	77 25                	ja     6e42 <safe_lshift_func_uint16_t_u_u+0x3c>
    6e1d:	0f b7 55 fc          	movzwl -0x4(%rbp),%edx
    6e21:	8b 45 f8             	mov    -0x8(%rbp),%eax
    6e24:	be ff ff 00 00       	mov    $0xffff,%esi
    6e29:	89 c1                	mov    %eax,%ecx
    6e2b:	d3 fe                	sar    %cl,%esi
    6e2d:	89 f0                	mov    %esi,%eax
    6e2f:	39 c2                	cmp    %eax,%edx
    6e31:	7f 0f                	jg     6e42 <safe_lshift_func_uint16_t_u_u+0x3c>
    6e33:	0f b7 55 fc          	movzwl -0x4(%rbp),%edx
    6e37:	8b 45 f8             	mov    -0x8(%rbp),%eax
    6e3a:	89 c1                	mov    %eax,%ecx
    6e3c:	d3 e2                	shl    %cl,%edx
    6e3e:	89 d0                	mov    %edx,%eax
    6e40:	eb 04                	jmp    6e46 <safe_lshift_func_uint16_t_u_u+0x40>
    6e42:	0f b7 45 fc          	movzwl -0x4(%rbp),%eax
    6e46:	5d                   	pop    %rbp
    6e47:	c3                   	retq   

0000000000006e48 <safe_rshift_func_uint16_t_u_s>:
    6e48:	f3 0f 1e fa          	endbr64 
    6e4c:	55                   	push   %rbp
    6e4d:	48 89 e5             	mov    %rsp,%rbp
    6e50:	89 f8                	mov    %edi,%eax
    6e52:	89 75 f8             	mov    %esi,-0x8(%rbp)
    6e55:	66 89 45 fc          	mov    %ax,-0x4(%rbp)
    6e59:	83 7d f8 00          	cmpl   $0x0,-0x8(%rbp)
    6e5d:	78 15                	js     6e74 <safe_rshift_func_uint16_t_u_s+0x2c>
    6e5f:	83 7d f8 1f          	cmpl   $0x1f,-0x8(%rbp)
    6e63:	7f 0f                	jg     6e74 <safe_rshift_func_uint16_t_u_s+0x2c>
    6e65:	0f b7 55 fc          	movzwl -0x4(%rbp),%edx
    6e69:	8b 45 f8             	mov    -0x8(%rbp),%eax
    6e6c:	89 c1                	mov    %eax,%ecx
    6e6e:	d3 fa                	sar    %cl,%edx
    6e70:	89 d0                	mov    %edx,%eax
    6e72:	eb 04                	jmp    6e78 <safe_rshift_func_uint16_t_u_s+0x30>
    6e74:	0f b7 45 fc          	movzwl -0x4(%rbp),%eax
    6e78:	5d                   	pop    %rbp
    6e79:	c3                   	retq   

0000000000006e7a <safe_rshift_func_uint16_t_u_u>:
    6e7a:	f3 0f 1e fa          	endbr64 
    6e7e:	55                   	push   %rbp
    6e7f:	48 89 e5             	mov    %rsp,%rbp
    6e82:	89 f8                	mov    %edi,%eax
    6e84:	89 75 f8             	mov    %esi,-0x8(%rbp)
    6e87:	66 89 45 fc          	mov    %ax,-0x4(%rbp)
    6e8b:	83 7d f8 1f          	cmpl   $0x1f,-0x8(%rbp)
    6e8f:	77 0f                	ja     6ea0 <safe_rshift_func_uint16_t_u_u+0x26>
    6e91:	0f b7 55 fc          	movzwl -0x4(%rbp),%edx
    6e95:	8b 45 f8             	mov    -0x8(%rbp),%eax
    6e98:	89 c1                	mov    %eax,%ecx
    6e9a:	d3 fa                	sar    %cl,%edx
    6e9c:	89 d0                	mov    %edx,%eax
    6e9e:	eb 04                	jmp    6ea4 <safe_rshift_func_uint16_t_u_u+0x2a>
    6ea0:	0f b7 45 fc          	movzwl -0x4(%rbp),%eax
    6ea4:	5d                   	pop    %rbp
    6ea5:	c3                   	retq   

0000000000006ea6 <safe_unary_minus_func_uint32_t_u>:
    6ea6:	f3 0f 1e fa          	endbr64 
    6eaa:	55                   	push   %rbp
    6eab:	48 89 e5             	mov    %rsp,%rbp
    6eae:	89 7d fc             	mov    %edi,-0x4(%rbp)
    6eb1:	8b 45 fc             	mov    -0x4(%rbp),%eax
    6eb4:	f7 d8                	neg    %eax
    6eb6:	5d                   	pop    %rbp
    6eb7:	c3                   	retq   

0000000000006eb8 <safe_add_func_uint32_t_u_u>:
    6eb8:	f3 0f 1e fa          	endbr64 
    6ebc:	55                   	push   %rbp
    6ebd:	48 89 e5             	mov    %rsp,%rbp
    6ec0:	89 7d fc             	mov    %edi,-0x4(%rbp)
    6ec3:	89 75 f8             	mov    %esi,-0x8(%rbp)
    6ec6:	8b 55 fc             	mov    -0x4(%rbp),%edx
    6ec9:	8b 45 f8             	mov    -0x8(%rbp),%eax
    6ecc:	01 d0                	add    %edx,%eax
    6ece:	5d                   	pop    %rbp
    6ecf:	c3                   	retq   

0000000000006ed0 <safe_sub_func_uint32_t_u_u>:
    6ed0:	f3 0f 1e fa          	endbr64 
    6ed4:	55                   	push   %rbp
    6ed5:	48 89 e5             	mov    %rsp,%rbp
    6ed8:	89 7d fc             	mov    %edi,-0x4(%rbp)
    6edb:	89 75 f8             	mov    %esi,-0x8(%rbp)
    6ede:	8b 45 fc             	mov    -0x4(%rbp),%eax
    6ee1:	2b 45 f8             	sub    -0x8(%rbp),%eax
    6ee4:	5d                   	pop    %rbp
    6ee5:	c3                   	retq   

0000000000006ee6 <safe_mul_func_uint32_t_u_u>:
    6ee6:	f3 0f 1e fa          	endbr64 
    6eea:	55                   	push   %rbp
    6eeb:	48 89 e5             	mov    %rsp,%rbp
    6eee:	89 7d fc             	mov    %edi,-0x4(%rbp)
    6ef1:	89 75 f8             	mov    %esi,-0x8(%rbp)
    6ef4:	8b 45 fc             	mov    -0x4(%rbp),%eax
    6ef7:	0f af 45 f8          	imul   -0x8(%rbp),%eax
    6efb:	5d                   	pop    %rbp
    6efc:	c3                   	retq   

0000000000006efd <safe_mod_func_uint32_t_u_u>:
    6efd:	f3 0f 1e fa          	endbr64 
    6f01:	55                   	push   %rbp
    6f02:	48 89 e5             	mov    %rsp,%rbp
    6f05:	89 7d fc             	mov    %edi,-0x4(%rbp)
    6f08:	89 75 f8             	mov    %esi,-0x8(%rbp)
    6f0b:	83 7d f8 00          	cmpl   $0x0,-0x8(%rbp)
    6f0f:	74 0f                	je     6f20 <safe_mod_func_uint32_t_u_u+0x23>
    6f11:	8b 45 fc             	mov    -0x4(%rbp),%eax
    6f14:	ba 00 00 00 00       	mov    $0x0,%edx
    6f19:	f7 75 f8             	divl   -0x8(%rbp)
    6f1c:	89 d0                	mov    %edx,%eax
    6f1e:	eb 03                	jmp    6f23 <safe_mod_func_uint32_t_u_u+0x26>
    6f20:	8b 45 fc             	mov    -0x4(%rbp),%eax
    6f23:	5d                   	pop    %rbp
    6f24:	c3                   	retq   

0000000000006f25 <safe_div_func_uint32_t_u_u>:
    6f25:	f3 0f 1e fa          	endbr64 
    6f29:	55                   	push   %rbp
    6f2a:	48 89 e5             	mov    %rsp,%rbp
    6f2d:	89 7d fc             	mov    %edi,-0x4(%rbp)
    6f30:	89 75 f8             	mov    %esi,-0x8(%rbp)
    6f33:	83 7d f8 00          	cmpl   $0x0,-0x8(%rbp)
    6f37:	74 0d                	je     6f46 <safe_div_func_uint32_t_u_u+0x21>
    6f39:	8b 45 fc             	mov    -0x4(%rbp),%eax
    6f3c:	ba 00 00 00 00       	mov    $0x0,%edx
    6f41:	f7 75 f8             	divl   -0x8(%rbp)
    6f44:	eb 03                	jmp    6f49 <safe_div_func_uint32_t_u_u+0x24>
    6f46:	8b 45 fc             	mov    -0x4(%rbp),%eax
    6f49:	5d                   	pop    %rbp
    6f4a:	c3                   	retq   

0000000000006f4b <safe_lshift_func_uint32_t_u_s>:
    6f4b:	f3 0f 1e fa          	endbr64 
    6f4f:	55                   	push   %rbp
    6f50:	48 89 e5             	mov    %rsp,%rbp
    6f53:	89 7d fc             	mov    %edi,-0x4(%rbp)
    6f56:	89 75 f8             	mov    %esi,-0x8(%rbp)
    6f59:	83 7d f8 00          	cmpl   $0x0,-0x8(%rbp)
    6f5d:	78 27                	js     6f86 <safe_lshift_func_uint32_t_u_s+0x3b>
    6f5f:	83 7d f8 1f          	cmpl   $0x1f,-0x8(%rbp)
    6f63:	7f 21                	jg     6f86 <safe_lshift_func_uint32_t_u_s+0x3b>
    6f65:	8b 45 f8             	mov    -0x8(%rbp),%eax
    6f68:	ba ff ff ff ff       	mov    $0xffffffff,%edx
    6f6d:	89 c1                	mov    %eax,%ecx
    6f6f:	d3 ea                	shr    %cl,%edx
    6f71:	89 d0                	mov    %edx,%eax
    6f73:	39 45 fc             	cmp    %eax,-0x4(%rbp)
    6f76:	77 0e                	ja     6f86 <safe_lshift_func_uint32_t_u_s+0x3b>
    6f78:	8b 45 f8             	mov    -0x8(%rbp),%eax
    6f7b:	8b 55 fc             	mov    -0x4(%rbp),%edx
    6f7e:	89 c1                	mov    %eax,%ecx
    6f80:	d3 e2                	shl    %cl,%edx
    6f82:	89 d0                	mov    %edx,%eax
    6f84:	eb 03                	jmp    6f89 <safe_lshift_func_uint32_t_u_s+0x3e>
    6f86:	8b 45 fc             	mov    -0x4(%rbp),%eax
    6f89:	5d                   	pop    %rbp
    6f8a:	c3                   	retq   

0000000000006f8b <safe_lshift_func_uint32_t_u_u>:
    6f8b:	f3 0f 1e fa          	endbr64 
    6f8f:	55                   	push   %rbp
    6f90:	48 89 e5             	mov    %rsp,%rbp
    6f93:	89 7d fc             	mov    %edi,-0x4(%rbp)
    6f96:	89 75 f8             	mov    %esi,-0x8(%rbp)
    6f99:	83 7d f8 1f          	cmpl   $0x1f,-0x8(%rbp)
    6f9d:	77 21                	ja     6fc0 <safe_lshift_func_uint32_t_u_u+0x35>
    6f9f:	8b 45 f8             	mov    -0x8(%rbp),%eax
    6fa2:	ba ff ff ff ff       	mov    $0xffffffff,%edx
    6fa7:	89 c1                	mov    %eax,%ecx
    6fa9:	d3 ea                	shr    %cl,%edx
    6fab:	89 d0                	mov    %edx,%eax
    6fad:	39 45 fc             	cmp    %eax,-0x4(%rbp)
    6fb0:	77 0e                	ja     6fc0 <safe_lshift_func_uint32_t_u_u+0x35>
    6fb2:	8b 45 f8             	mov    -0x8(%rbp),%eax
    6fb5:	8b 55 fc             	mov    -0x4(%rbp),%edx
    6fb8:	89 c1                	mov    %eax,%ecx
    6fba:	d3 e2                	shl    %cl,%edx
    6fbc:	89 d0                	mov    %edx,%eax
    6fbe:	eb 03                	jmp    6fc3 <safe_lshift_func_uint32_t_u_u+0x38>
    6fc0:	8b 45 fc             	mov    -0x4(%rbp),%eax
    6fc3:	5d                   	pop    %rbp
    6fc4:	c3                   	retq   

0000000000006fc5 <safe_rshift_func_uint32_t_u_s>:
    6fc5:	f3 0f 1e fa          	endbr64 
    6fc9:	55                   	push   %rbp
    6fca:	48 89 e5             	mov    %rsp,%rbp
    6fcd:	89 7d fc             	mov    %edi,-0x4(%rbp)
    6fd0:	89 75 f8             	mov    %esi,-0x8(%rbp)
    6fd3:	83 7d f8 00          	cmpl   $0x0,-0x8(%rbp)
    6fd7:	78 14                	js     6fed <safe_rshift_func_uint32_t_u_s+0x28>
    6fd9:	83 7d f8 1f          	cmpl   $0x1f,-0x8(%rbp)
    6fdd:	7f 0e                	jg     6fed <safe_rshift_func_uint32_t_u_s+0x28>
    6fdf:	8b 45 f8             	mov    -0x8(%rbp),%eax
    6fe2:	8b 55 fc             	mov    -0x4(%rbp),%edx
    6fe5:	89 c1                	mov    %eax,%ecx
    6fe7:	d3 ea                	shr    %cl,%edx
    6fe9:	89 d0                	mov    %edx,%eax
    6feb:	eb 03                	jmp    6ff0 <safe_rshift_func_uint32_t_u_s+0x2b>
    6fed:	8b 45 fc             	mov    -0x4(%rbp),%eax
    6ff0:	5d                   	pop    %rbp
    6ff1:	c3                   	retq   

0000000000006ff2 <safe_rshift_func_uint32_t_u_u>:
    6ff2:	f3 0f 1e fa          	endbr64 
    6ff6:	55                   	push   %rbp
    6ff7:	48 89 e5             	mov    %rsp,%rbp
    6ffa:	89 7d fc             	mov    %edi,-0x4(%rbp)
    6ffd:	89 75 f8             	mov    %esi,-0x8(%rbp)
    7000:	83 7d f8 1f          	cmpl   $0x1f,-0x8(%rbp)
    7004:	77 0e                	ja     7014 <safe_rshift_func_uint32_t_u_u+0x22>
    7006:	8b 45 f8             	mov    -0x8(%rbp),%eax
    7009:	8b 55 fc             	mov    -0x4(%rbp),%edx
    700c:	89 c1                	mov    %eax,%ecx
    700e:	d3 ea                	shr    %cl,%edx
    7010:	89 d0                	mov    %edx,%eax
    7012:	eb 03                	jmp    7017 <safe_rshift_func_uint32_t_u_u+0x25>
    7014:	8b 45 fc             	mov    -0x4(%rbp),%eax
    7017:	5d                   	pop    %rbp
    7018:	c3                   	retq   

0000000000007019 <safe_unary_minus_func_uint64_t_u>:
    7019:	f3 0f 1e fa          	endbr64 
    701d:	55                   	push   %rbp
    701e:	48 89 e5             	mov    %rsp,%rbp
    7021:	48 89 7d f8          	mov    %rdi,-0x8(%rbp)
    7025:	48 8b 45 f8          	mov    -0x8(%rbp),%rax
    7029:	48 f7 d8             	neg    %rax
    702c:	5d                   	pop    %rbp
    702d:	c3                   	retq   

000000000000702e <safe_add_func_uint64_t_u_u>:
    702e:	f3 0f 1e fa          	endbr64 
    7032:	55                   	push   %rbp
    7033:	48 89 e5             	mov    %rsp,%rbp
    7036:	48 89 7d f8          	mov    %rdi,-0x8(%rbp)
    703a:	48 89 75 f0          	mov    %rsi,-0x10(%rbp)
    703e:	48 8b 55 f8          	mov    -0x8(%rbp),%rdx
    7042:	48 8b 45 f0          	mov    -0x10(%rbp),%rax
    7046:	48 01 d0             	add    %rdx,%rax
    7049:	5d                   	pop    %rbp
    704a:	c3                   	retq   

000000000000704b <safe_sub_func_uint64_t_u_u>:
    704b:	f3 0f 1e fa          	endbr64 
    704f:	55                   	push   %rbp
    7050:	48 89 e5             	mov    %rsp,%rbp
    7053:	48 89 7d f8          	mov    %rdi,-0x8(%rbp)
    7057:	48 89 75 f0          	mov    %rsi,-0x10(%rbp)
    705b:	48 8b 45 f8          	mov    -0x8(%rbp),%rax
    705f:	48 2b 45 f0          	sub    -0x10(%rbp),%rax
    7063:	5d                   	pop    %rbp
    7064:	c3                   	retq   

0000000000007065 <safe_mul_func_uint64_t_u_u>:
    7065:	f3 0f 1e fa          	endbr64 
    7069:	55                   	push   %rbp
    706a:	48 89 e5             	mov    %rsp,%rbp
    706d:	48 89 7d f8          	mov    %rdi,-0x8(%rbp)
    7071:	48 89 75 f0          	mov    %rsi,-0x10(%rbp)
    7075:	48 8b 45 f8          	mov    -0x8(%rbp),%rax
    7079:	48 0f af 45 f0       	imul   -0x10(%rbp),%rax
    707e:	5d                   	pop    %rbp
    707f:	c3                   	retq   

0000000000007080 <safe_mod_func_uint64_t_u_u>:
    7080:	f3 0f 1e fa          	endbr64 
    7084:	55                   	push   %rbp
    7085:	48 89 e5             	mov    %rsp,%rbp
    7088:	48 89 7d f8          	mov    %rdi,-0x8(%rbp)
    708c:	48 89 75 f0          	mov    %rsi,-0x10(%rbp)
    7090:	48 83 7d f0 00       	cmpq   $0x0,-0x10(%rbp)
    7095:	74 12                	je     70a9 <safe_mod_func_uint64_t_u_u+0x29>
    7097:	48 8b 45 f8          	mov    -0x8(%rbp),%rax
    709b:	ba 00 00 00 00       	mov    $0x0,%edx
    70a0:	48 f7 75 f0          	divq   -0x10(%rbp)
    70a4:	48 89 d0             	mov    %rdx,%rax
    70a7:	eb 04                	jmp    70ad <safe_mod_func_uint64_t_u_u+0x2d>
    70a9:	48 8b 45 f8          	mov    -0x8(%rbp),%rax
    70ad:	5d                   	pop    %rbp
    70ae:	c3                   	retq   

00000000000070af <safe_div_func_uint64_t_u_u>:
    70af:	f3 0f 1e fa          	endbr64 
    70b3:	55                   	push   %rbp
    70b4:	48 89 e5             	mov    %rsp,%rbp
    70b7:	48 89 7d f8          	mov    %rdi,-0x8(%rbp)
    70bb:	48 89 75 f0          	mov    %rsi,-0x10(%rbp)
    70bf:	48 83 7d f0 00       	cmpq   $0x0,-0x10(%rbp)
    70c4:	74 0f                	je     70d5 <safe_div_func_uint64_t_u_u+0x26>
    70c6:	48 8b 45 f8          	mov    -0x8(%rbp),%rax
    70ca:	ba 00 00 00 00       	mov    $0x0,%edx
    70cf:	48 f7 75 f0          	divq   -0x10(%rbp)
    70d3:	eb 04                	jmp    70d9 <safe_div_func_uint64_t_u_u+0x2a>
    70d5:	48 8b 45 f8          	mov    -0x8(%rbp),%rax
    70d9:	5d                   	pop    %rbp
    70da:	c3                   	retq   

00000000000070db <safe_lshift_func_uint64_t_u_s>:
    70db:	f3 0f 1e fa          	endbr64 
    70df:	55                   	push   %rbp
    70e0:	48 89 e5             	mov    %rsp,%rbp
    70e3:	48 89 7d f8          	mov    %rdi,-0x8(%rbp)
    70e7:	89 75 f4             	mov    %esi,-0xc(%rbp)
    70ea:	83 7d f4 00          	cmpl   $0x0,-0xc(%rbp)
    70ee:	78 2f                	js     711f <safe_lshift_func_uint64_t_u_s+0x44>
    70f0:	83 7d f4 1f          	cmpl   $0x1f,-0xc(%rbp)
    70f4:	7f 29                	jg     711f <safe_lshift_func_uint64_t_u_s+0x44>
    70f6:	8b 45 f4             	mov    -0xc(%rbp),%eax
    70f9:	48 c7 c2 ff ff ff ff 	mov    $0xffffffffffffffff,%rdx
    7100:	89 c1                	mov    %eax,%ecx
    7102:	48 d3 ea             	shr    %cl,%rdx
    7105:	48 89 d0             	mov    %rdx,%rax
    7108:	48 39 45 f8          	cmp    %rax,-0x8(%rbp)
    710c:	77 11                	ja     711f <safe_lshift_func_uint64_t_u_s+0x44>
    710e:	8b 45 f4             	mov    -0xc(%rbp),%eax
    7111:	48 8b 55 f8          	mov    -0x8(%rbp),%rdx
    7115:	89 c1                	mov    %eax,%ecx
    7117:	48 d3 e2             	shl    %cl,%rdx
    711a:	48 89 d0             	mov    %rdx,%rax
    711d:	eb 04                	jmp    7123 <safe_lshift_func_uint64_t_u_s+0x48>
    711f:	48 8b 45 f8          	mov    -0x8(%rbp),%rax
    7123:	5d                   	pop    %rbp
    7124:	c3                   	retq   

0000000000007125 <safe_lshift_func_uint64_t_u_u>:
    7125:	f3 0f 1e fa          	endbr64 
    7129:	55                   	push   %rbp
    712a:	48 89 e5             	mov    %rsp,%rbp
    712d:	48 89 7d f8          	mov    %rdi,-0x8(%rbp)
    7131:	89 75 f4             	mov    %esi,-0xc(%rbp)
    7134:	83 7d f4 1f          	cmpl   $0x1f,-0xc(%rbp)
    7138:	77 29                	ja     7163 <safe_lshift_func_uint64_t_u_u+0x3e>
    713a:	8b 45 f4             	mov    -0xc(%rbp),%eax
    713d:	48 c7 c2 ff ff ff ff 	mov    $0xffffffffffffffff,%rdx
    7144:	89 c1                	mov    %eax,%ecx
    7146:	48 d3 ea             	shr    %cl,%rdx
    7149:	48 89 d0             	mov    %rdx,%rax
    714c:	48 39 45 f8          	cmp    %rax,-0x8(%rbp)
    7150:	77 11                	ja     7163 <safe_lshift_func_uint64_t_u_u+0x3e>
    7152:	8b 45 f4             	mov    -0xc(%rbp),%eax
    7155:	48 8b 55 f8          	mov    -0x8(%rbp),%rdx
    7159:	89 c1                	mov    %eax,%ecx
    715b:	48 d3 e2             	shl    %cl,%rdx
    715e:	48 89 d0             	mov    %rdx,%rax
    7161:	eb 04                	jmp    7167 <safe_lshift_func_uint64_t_u_u+0x42>
    7163:	48 8b 45 f8          	mov    -0x8(%rbp),%rax
    7167:	5d                   	pop    %rbp
    7168:	c3                   	retq   

0000000000007169 <safe_rshift_func_uint64_t_u_s>:
    7169:	f3 0f 1e fa          	endbr64 
    716d:	55                   	push   %rbp
    716e:	48 89 e5             	mov    %rsp,%rbp
    7171:	48 89 7d f8          	mov    %rdi,-0x8(%rbp)
    7175:	89 75 f4             	mov    %esi,-0xc(%rbp)
    7178:	83 7d f4 00          	cmpl   $0x0,-0xc(%rbp)
    717c:	78 17                	js     7195 <safe_rshift_func_uint64_t_u_s+0x2c>
    717e:	83 7d f4 1f          	cmpl   $0x1f,-0xc(%rbp)
    7182:	7f 11                	jg     7195 <safe_rshift_func_uint64_t_u_s+0x2c>
    7184:	8b 45 f4             	mov    -0xc(%rbp),%eax
    7187:	48 8b 55 f8          	mov    -0x8(%rbp),%rdx
    718b:	89 c1                	mov    %eax,%ecx
    718d:	48 d3 ea             	shr    %cl,%rdx
    7190:	48 89 d0             	mov    %rdx,%rax
    7193:	eb 04                	jmp    7199 <safe_rshift_func_uint64_t_u_s+0x30>
    7195:	48 8b 45 f8          	mov    -0x8(%rbp),%rax
    7199:	5d                   	pop    %rbp
    719a:	c3                   	retq   

000000000000719b <safe_rshift_func_uint64_t_u_u>:
    719b:	f3 0f 1e fa          	endbr64 
    719f:	55                   	push   %rbp
    71a0:	48 89 e5             	mov    %rsp,%rbp
    71a3:	48 89 7d f8          	mov    %rdi,-0x8(%rbp)
    71a7:	89 75 f4             	mov    %esi,-0xc(%rbp)
    71aa:	83 7d f4 1f          	cmpl   $0x1f,-0xc(%rbp)
    71ae:	77 11                	ja     71c1 <safe_rshift_func_uint64_t_u_u+0x26>
    71b0:	8b 45 f4             	mov    -0xc(%rbp),%eax
    71b3:	48 8b 55 f8          	mov    -0x8(%rbp),%rdx
    71b7:	89 c1                	mov    %eax,%ecx
    71b9:	48 d3 ea             	shr    %cl,%rdx
    71bc:	48 89 d0             	mov    %rdx,%rax
    71bf:	eb 04                	jmp    71c5 <safe_rshift_func_uint64_t_u_u+0x2a>
    71c1:	48 8b 45 f8          	mov    -0x8(%rbp),%rax
    71c5:	5d                   	pop    %rbp
    71c6:	c3                   	retq   

00000000000071c7 <safe_add_func_float_f_f>:
    71c7:	f3 0f 1e fa          	endbr64 
    71cb:	55                   	push   %rbp
    71cc:	48 89 e5             	mov    %rsp,%rbp
    71cf:	f3 0f 11 45 fc       	movss  %xmm0,-0x4(%rbp)
    71d4:	f3 0f 11 4d f8       	movss  %xmm1,-0x8(%rbp)
    71d9:	f3 0f 10 4d fc       	movss  -0x4(%rbp),%xmm1
    71de:	f3 0f 10 05 82 ac 00 	movss  0xac82(%rip),%xmm0        # 11e68 <l_2150.4207+0x28>
    71e5:	00 
    71e6:	f3 0f 59 c8          	mulss  %xmm0,%xmm1
    71ea:	f3 0f 10 55 f8       	movss  -0x8(%rbp),%xmm2
    71ef:	f3 0f 10 05 71 ac 00 	movss  0xac71(%rip),%xmm0        # 11e68 <l_2150.4207+0x28>
    71f6:	00 
    71f7:	f3 0f 59 c2          	mulss  %xmm2,%xmm0
    71fb:	f3 0f 58 c1          	addss  %xmm1,%xmm0
    71ff:	f3 0f 10 0d 69 ac 00 	movss  0xac69(%rip),%xmm1        # 11e70 <l_2150.4207+0x30>
    7206:	00 
    7207:	0f 54 c1             	andps  %xmm1,%xmm0
    720a:	0f 2f 05 6f ac 00 00 	comiss 0xac6f(%rip),%xmm0        # 11e80 <l_2150.4207+0x40>
    7211:	76 07                	jbe    721a <safe_add_func_float_f_f+0x53>
    7213:	f3 0f 10 45 fc       	movss  -0x4(%rbp),%xmm0
    7218:	eb 0a                	jmp    7224 <safe_add_func_float_f_f+0x5d>
    721a:	f3 0f 10 45 fc       	movss  -0x4(%rbp),%xmm0
    721f:	f3 0f 58 45 f8       	addss  -0x8(%rbp),%xmm0
    7224:	5d                   	pop    %rbp
    7225:	c3                   	retq   

0000000000007226 <safe_sub_func_float_f_f>:
    7226:	f3 0f 1e fa          	endbr64 
    722a:	55                   	push   %rbp
    722b:	48 89 e5             	mov    %rsp,%rbp
    722e:	f3 0f 11 45 fc       	movss  %xmm0,-0x4(%rbp)
    7233:	f3 0f 11 4d f8       	movss  %xmm1,-0x8(%rbp)
    7238:	f3 0f 10 4d fc       	movss  -0x4(%rbp),%xmm1
    723d:	f3 0f 10 05 23 ac 00 	movss  0xac23(%rip),%xmm0        # 11e68 <l_2150.4207+0x28>
    7244:	00 
    7245:	f3 0f 59 c1          	mulss  %xmm1,%xmm0
    7249:	f3 0f 10 55 f8       	movss  -0x8(%rbp),%xmm2
    724e:	f3 0f 10 0d 12 ac 00 	movss  0xac12(%rip),%xmm1        # 11e68 <l_2150.4207+0x28>
    7255:	00 
    7256:	f3 0f 59 ca          	mulss  %xmm2,%xmm1
    725a:	f3 0f 5c c1          	subss  %xmm1,%xmm0
    725e:	f3 0f 10 0d 0a ac 00 	movss  0xac0a(%rip),%xmm1        # 11e70 <l_2150.4207+0x30>
    7265:	00 
    7266:	0f 54 c1             	andps  %xmm1,%xmm0
    7269:	0f 2f 05 10 ac 00 00 	comiss 0xac10(%rip),%xmm0        # 11e80 <l_2150.4207+0x40>
    7270:	76 07                	jbe    7279 <safe_sub_func_float_f_f+0x53>
    7272:	f3 0f 10 45 fc       	movss  -0x4(%rbp),%xmm0
    7277:	eb 0a                	jmp    7283 <safe_sub_func_float_f_f+0x5d>
    7279:	f3 0f 10 45 fc       	movss  -0x4(%rbp),%xmm0
    727e:	f3 0f 5c 45 f8       	subss  -0x8(%rbp),%xmm0
    7283:	5d                   	pop    %rbp
    7284:	c3                   	retq   

0000000000007285 <safe_mul_func_float_f_f>:
    7285:	f3 0f 1e fa          	endbr64 
    7289:	55                   	push   %rbp
    728a:	48 89 e5             	mov    %rsp,%rbp
    728d:	f3 0f 11 45 fc       	movss  %xmm0,-0x4(%rbp)
    7292:	f3 0f 11 4d f8       	movss  %xmm1,-0x8(%rbp)
    7297:	f3 0f 10 4d fc       	movss  -0x4(%rbp),%xmm1
    729c:	f3 0f 10 05 e0 ab 00 	movss  0xabe0(%rip),%xmm0        # 11e84 <l_2150.4207+0x44>
    72a3:	00 
    72a4:	f3 0f 59 c8          	mulss  %xmm0,%xmm1
    72a8:	f3 0f 10 55 f8       	movss  -0x8(%rbp),%xmm2
    72ad:	f3 0f 10 05 d3 ab 00 	movss  0xabd3(%rip),%xmm0        # 11e88 <l_2150.4207+0x48>
    72b4:	00 
    72b5:	f3 0f 59 c2          	mulss  %xmm2,%xmm0
    72b9:	f3 0f 59 c1          	mulss  %xmm1,%xmm0
    72bd:	f3 0f 10 0d ab ab 00 	movss  0xabab(%rip),%xmm1        # 11e70 <l_2150.4207+0x30>
    72c4:	00 
    72c5:	0f 54 c1             	andps  %xmm1,%xmm0
    72c8:	0f 2f 05 bd ab 00 00 	comiss 0xabbd(%rip),%xmm0        # 11e8c <l_2150.4207+0x4c>
    72cf:	76 07                	jbe    72d8 <safe_mul_func_float_f_f+0x53>
    72d1:	f3 0f 10 45 fc       	movss  -0x4(%rbp),%xmm0
    72d6:	eb 0a                	jmp    72e2 <safe_mul_func_float_f_f+0x5d>
    72d8:	f3 0f 10 45 fc       	movss  -0x4(%rbp),%xmm0
    72dd:	f3 0f 59 45 f8       	mulss  -0x8(%rbp),%xmm0
    72e2:	5d                   	pop    %rbp
    72e3:	c3                   	retq   

00000000000072e4 <safe_div_func_float_f_f>:
    72e4:	f3 0f 1e fa          	endbr64 
    72e8:	55                   	push   %rbp
    72e9:	48 89 e5             	mov    %rsp,%rbp
    72ec:	f3 0f 11 45 fc       	movss  %xmm0,-0x4(%rbp)
    72f1:	f3 0f 11 4d f8       	movss  %xmm1,-0x8(%rbp)
    72f6:	f3 0f 10 45 f8       	movss  -0x8(%rbp),%xmm0
    72fb:	f3 0f 10 0d 6d ab 00 	movss  0xab6d(%rip),%xmm1        # 11e70 <l_2150.4207+0x30>
    7302:	00 
    7303:	0f 54 c8             	andps  %xmm0,%xmm1
    7306:	f3 0f 10 05 82 ab 00 	movss  0xab82(%rip),%xmm0        # 11e90 <l_2150.4207+0x50>
    730d:	00 
    730e:	0f 2f c1             	comiss %xmm1,%xmm0
    7311:	0f 97 c0             	seta   %al
    7314:	83 f0 01             	xor    $0x1,%eax
    7317:	84 c0                	test   %al,%al
    7319:	75 56                	jne    7371 <safe_div_func_float_f_f+0x8d>
    731b:	66 0f ef c0          	pxor   %xmm0,%xmm0
    731f:	0f 2e 45 f8          	ucomiss -0x8(%rbp),%xmm0
    7323:	7a 0a                	jp     732f <safe_div_func_float_f_f+0x4b>
    7325:	66 0f ef c0          	pxor   %xmm0,%xmm0
    7329:	0f 2e 45 f8          	ucomiss -0x8(%rbp),%xmm0
    732d:	74 4e                	je     737d <safe_div_func_float_f_f+0x99>
    732f:	f3 0f 10 4d fc       	movss  -0x4(%rbp),%xmm1
    7334:	f3 0f 10 05 58 ab 00 	movss  0xab58(%rip),%xmm0        # 11e94 <l_2150.4207+0x54>
    733b:	00 
    733c:	f3 0f 59 c1          	mulss  %xmm1,%xmm0
    7340:	f3 0f 10 55 f8       	movss  -0x8(%rbp),%xmm2
    7345:	f3 0f 10 0d 4b ab 00 	movss  0xab4b(%rip),%xmm1        # 11e98 <l_2150.4207+0x58>
    734c:	00 
    734d:	f3 0f 59 ca          	mulss  %xmm2,%xmm1
    7351:	f3 0f 5e c1          	divss  %xmm1,%xmm0
    7355:	f3 0f 10 0d 13 ab 00 	movss  0xab13(%rip),%xmm1        # 11e70 <l_2150.4207+0x30>
    735c:	00 
    735d:	0f 54 c1             	andps  %xmm1,%xmm0
    7360:	0f 2f 05 35 ab 00 00 	comiss 0xab35(%rip),%xmm0        # 11e9c <l_2150.4207+0x5c>
    7367:	0f 97 c0             	seta   %al
    736a:	83 f0 01             	xor    $0x1,%eax
    736d:	84 c0                	test   %al,%al
    736f:	74 0c                	je     737d <safe_div_func_float_f_f+0x99>
    7371:	f3 0f 10 45 fc       	movss  -0x4(%rbp),%xmm0
    7376:	f3 0f 5e 45 f8       	divss  -0x8(%rbp),%xmm0
    737b:	eb 05                	jmp    7382 <safe_div_func_float_f_f+0x9e>
    737d:	f3 0f 10 45 fc       	movss  -0x4(%rbp),%xmm0
    7382:	5d                   	pop    %rbp
    7383:	c3                   	retq   

0000000000007384 <safe_add_func_double_f_f>:
    7384:	f3 0f 1e fa          	endbr64 
    7388:	55                   	push   %rbp
    7389:	48 89 e5             	mov    %rsp,%rbp
    738c:	f2 0f 11 45 f8       	movsd  %xmm0,-0x8(%rbp)
    7391:	f2 0f 11 4d f0       	movsd  %xmm1,-0x10(%rbp)
    7396:	f2 0f 10 4d f8       	movsd  -0x8(%rbp),%xmm1
    739b:	f2 0f 10 05 fd aa 00 	movsd  0xaafd(%rip),%xmm0        # 11ea0 <l_2150.4207+0x60>
    73a2:	00 
    73a3:	f2 0f 59 c8          	mulsd  %xmm0,%xmm1
    73a7:	f2 0f 10 55 f0       	movsd  -0x10(%rbp),%xmm2
    73ac:	f2 0f 10 05 ec aa 00 	movsd  0xaaec(%rip),%xmm0        # 11ea0 <l_2150.4207+0x60>
    73b3:	00 
    73b4:	f2 0f 59 c2          	mulsd  %xmm2,%xmm0
    73b8:	f2 0f 58 c1          	addsd  %xmm1,%xmm0
    73bc:	f3 0f 7e 0d ec aa 00 	movq   0xaaec(%rip),%xmm1        # 11eb0 <l_2150.4207+0x70>
    73c3:	00 
    73c4:	66 0f 54 c1          	andpd  %xmm1,%xmm0
    73c8:	66 0f 2f 05 f0 aa 00 	comisd 0xaaf0(%rip),%xmm0        # 11ec0 <l_2150.4207+0x80>
    73cf:	00 
    73d0:	76 07                	jbe    73d9 <safe_add_func_double_f_f+0x55>
    73d2:	f2 0f 10 45 f8       	movsd  -0x8(%rbp),%xmm0
    73d7:	eb 0a                	jmp    73e3 <safe_add_func_double_f_f+0x5f>
    73d9:	f2 0f 10 45 f8       	movsd  -0x8(%rbp),%xmm0
    73de:	f2 0f 58 45 f0       	addsd  -0x10(%rbp),%xmm0
    73e3:	5d                   	pop    %rbp
    73e4:	c3                   	retq   

00000000000073e5 <safe_sub_func_double_f_f>:
    73e5:	f3 0f 1e fa          	endbr64 
    73e9:	55                   	push   %rbp
    73ea:	48 89 e5             	mov    %rsp,%rbp
    73ed:	f2 0f 11 45 f8       	movsd  %xmm0,-0x8(%rbp)
    73f2:	f2 0f 11 4d f0       	movsd  %xmm1,-0x10(%rbp)
    73f7:	f2 0f 10 4d f8       	movsd  -0x8(%rbp),%xmm1
    73fc:	f2 0f 10 05 9c aa 00 	movsd  0xaa9c(%rip),%xmm0        # 11ea0 <l_2150.4207+0x60>
    7403:	00 
    7404:	f2 0f 59 c1          	mulsd  %xmm1,%xmm0
    7408:	f2 0f 10 55 f0       	movsd  -0x10(%rbp),%xmm2
    740d:	f2 0f 10 0d 8b aa 00 	movsd  0xaa8b(%rip),%xmm1        # 11ea0 <l_2150.4207+0x60>
    7414:	00 
    7415:	f2 0f 59 ca          	mulsd  %xmm2,%xmm1
    7419:	f2 0f 5c c1          	subsd  %xmm1,%xmm0
    741d:	f3 0f 7e 0d 8b aa 00 	movq   0xaa8b(%rip),%xmm1        # 11eb0 <l_2150.4207+0x70>
    7424:	00 
    7425:	66 0f 54 c1          	andpd  %xmm1,%xmm0
    7429:	66 0f 2f 05 8f aa 00 	comisd 0xaa8f(%rip),%xmm0        # 11ec0 <l_2150.4207+0x80>
    7430:	00 
    7431:	76 07                	jbe    743a <safe_sub_func_double_f_f+0x55>
    7433:	f2 0f 10 45 f8       	movsd  -0x8(%rbp),%xmm0
    7438:	eb 0a                	jmp    7444 <safe_sub_func_double_f_f+0x5f>
    743a:	f2 0f 10 45 f8       	movsd  -0x8(%rbp),%xmm0
    743f:	f2 0f 5c 45 f0       	subsd  -0x10(%rbp),%xmm0
    7444:	5d                   	pop    %rbp
    7445:	c3                   	retq   

0000000000007446 <safe_mul_func_double_f_f>:
    7446:	f3 0f 1e fa          	endbr64 
    744a:	55                   	push   %rbp
    744b:	48 89 e5             	mov    %rsp,%rbp
    744e:	f2 0f 11 45 f8       	movsd  %xmm0,-0x8(%rbp)
    7453:	f2 0f 11 4d f0       	movsd  %xmm1,-0x10(%rbp)
    7458:	f2 0f 10 4d f8       	movsd  -0x8(%rbp),%xmm1
    745d:	f2 0f 10 05 63 aa 00 	movsd  0xaa63(%rip),%xmm0        # 11ec8 <l_2150.4207+0x88>
    7464:	00 
    7465:	f2 0f 59 c8          	mulsd  %xmm0,%xmm1
    7469:	f2 0f 10 55 f0       	movsd  -0x10(%rbp),%xmm2
    746e:	f2 0f 10 05 5a aa 00 	movsd  0xaa5a(%rip),%xmm0        # 11ed0 <l_2150.4207+0x90>
    7475:	00 
    7476:	f2 0f 59 c2          	mulsd  %xmm2,%xmm0
    747a:	f2 0f 59 c1          	mulsd  %xmm1,%xmm0
    747e:	f3 0f 7e 0d 2a aa 00 	movq   0xaa2a(%rip),%xmm1        # 11eb0 <l_2150.4207+0x70>
    7485:	00 
    7486:	66 0f 54 c1          	andpd  %xmm1,%xmm0
    748a:	66 0f 2f 05 46 aa 00 	comisd 0xaa46(%rip),%xmm0        # 11ed8 <l_2150.4207+0x98>
    7491:	00 
    7492:	76 07                	jbe    749b <safe_mul_func_double_f_f+0x55>
    7494:	f2 0f 10 45 f8       	movsd  -0x8(%rbp),%xmm0
    7499:	eb 0a                	jmp    74a5 <safe_mul_func_double_f_f+0x5f>
    749b:	f2 0f 10 45 f8       	movsd  -0x8(%rbp),%xmm0
    74a0:	f2 0f 59 45 f0       	mulsd  -0x10(%rbp),%xmm0
    74a5:	5d                   	pop    %rbp
    74a6:	c3                   	retq   

00000000000074a7 <safe_div_func_double_f_f>:
    74a7:	f3 0f 1e fa          	endbr64 
    74ab:	55                   	push   %rbp
    74ac:	48 89 e5             	mov    %rsp,%rbp
    74af:	f2 0f 11 45 f8       	movsd  %xmm0,-0x8(%rbp)
    74b4:	f2 0f 11 4d f0       	movsd  %xmm1,-0x10(%rbp)
    74b9:	f2 0f 10 45 f0       	movsd  -0x10(%rbp),%xmm0
    74be:	f3 0f 7e 0d ea a9 00 	movq   0xa9ea(%rip),%xmm1        # 11eb0 <l_2150.4207+0x70>
    74c5:	00 
    74c6:	66 0f 54 c8          	andpd  %xmm0,%xmm1
    74ca:	f2 0f 10 05 0e aa 00 	movsd  0xaa0e(%rip),%xmm0        # 11ee0 <l_2150.4207+0xa0>
    74d1:	00 
    74d2:	66 0f 2f c1          	comisd %xmm1,%xmm0
    74d6:	0f 97 c0             	seta   %al
    74d9:	83 f0 01             	xor    $0x1,%eax
    74dc:	84 c0                	test   %al,%al
    74de:	75 5a                	jne    753a <safe_div_func_double_f_f+0x93>
    74e0:	66 0f ef c0          	pxor   %xmm0,%xmm0
    74e4:	66 0f 2e 45 f0       	ucomisd -0x10(%rbp),%xmm0
    74e9:	7a 0b                	jp     74f6 <safe_div_func_double_f_f+0x4f>
    74eb:	66 0f ef c0          	pxor   %xmm0,%xmm0
    74ef:	66 0f 2e 45 f0       	ucomisd -0x10(%rbp),%xmm0
    74f4:	74 50                	je     7546 <safe_div_func_double_f_f+0x9f>
    74f6:	f2 0f 10 4d f8       	movsd  -0x8(%rbp),%xmm1
    74fb:	f2 0f 10 05 e5 a9 00 	movsd  0xa9e5(%rip),%xmm0        # 11ee8 <l_2150.4207+0xa8>
    7502:	00 
    7503:	f2 0f 59 c1          	mulsd  %xmm1,%xmm0
    7507:	f2 0f 10 55 f0       	movsd  -0x10(%rbp),%xmm2
    750c:	f2 0f 10 0d dc a9 00 	movsd  0xa9dc(%rip),%xmm1        # 11ef0 <l_2150.4207+0xb0>
    7513:	00 
    7514:	f2 0f 59 ca          	mulsd  %xmm2,%xmm1
    7518:	f2 0f 5e c1          	divsd  %xmm1,%xmm0
    751c:	f3 0f 7e 0d 8c a9 00 	movq   0xa98c(%rip),%xmm1        # 11eb0 <l_2150.4207+0x70>
    7523:	00 
    7524:	66 0f 54 c1          	andpd  %xmm1,%xmm0
    7528:	66 0f 2f 05 c8 a9 00 	comisd 0xa9c8(%rip),%xmm0        # 11ef8 <l_2150.4207+0xb8>
    752f:	00 
    7530:	0f 97 c0             	seta   %al
    7533:	83 f0 01             	xor    $0x1,%eax
    7536:	84 c0                	test   %al,%al
    7538:	74 0c                	je     7546 <safe_div_func_double_f_f+0x9f>
    753a:	f2 0f 10 45 f8       	movsd  -0x8(%rbp),%xmm0
    753f:	f2 0f 5e 45 f0       	divsd  -0x10(%rbp),%xmm0
    7544:	eb 05                	jmp    754b <safe_div_func_double_f_f+0xa4>
    7546:	f2 0f 10 45 f8       	movsd  -0x8(%rbp),%xmm0
    754b:	5d                   	pop    %rbp
    754c:	c3                   	retq   

000000000000754d <safe_convert_func_float_to_int32_t>:
    754d:	f3 0f 1e fa          	endbr64 
    7551:	55                   	push   %rbp
    7552:	48 89 e5             	mov    %rsp,%rbp
    7555:	f3 0f 11 45 fc       	movss  %xmm0,-0x4(%rbp)
    755a:	f3 0f 10 05 9e a9 00 	movss  0xa99e(%rip),%xmm0        # 11f00 <l_2150.4207+0xc0>
    7561:	00 
    7562:	0f 2f 45 fc          	comiss -0x4(%rbp),%xmm0
    7566:	0f 93 c0             	setae  %al
    7569:	83 f0 01             	xor    $0x1,%eax
    756c:	84 c0                	test   %al,%al
    756e:	74 21                	je     7591 <safe_convert_func_float_to_int32_t+0x44>
    7570:	f3 0f 10 45 fc       	movss  -0x4(%rbp),%xmm0
    7575:	0f 2f 05 88 a9 00 00 	comiss 0xa988(%rip),%xmm0        # 11f04 <l_2150.4207+0xc4>
    757c:	0f 93 c0             	setae  %al
    757f:	83 f0 01             	xor    $0x1,%eax
    7582:	84 c0                	test   %al,%al
    7584:	74 0b                	je     7591 <safe_convert_func_float_to_int32_t+0x44>
    7586:	f3 0f 10 45 fc       	movss  -0x4(%rbp),%xmm0
    758b:	f3 0f 2c c0          	cvttss2si %xmm0,%eax
    758f:	eb 05                	jmp    7596 <safe_convert_func_float_to_int32_t+0x49>
    7591:	b8 ff ff ff 7f       	mov    $0x7fffffff,%eax
    7596:	5d                   	pop    %rbp
    7597:	c3                   	retq   

0000000000007598 <crc32_gentab>:
    7598:	f3 0f 1e fa          	endbr64 
    759c:	55                   	push   %rbp
    759d:	48 89 e5             	mov    %rsp,%rbp
    75a0:	c7 45 fc 20 83 b8 ed 	movl   $0xedb88320,-0x4(%rbp)
    75a7:	c7 45 f4 00 00 00 00 	movl   $0x0,-0xc(%rbp)
    75ae:	eb 51                	jmp    7601 <crc32_gentab+0x69>
    75b0:	8b 45 f4             	mov    -0xc(%rbp),%eax
    75b3:	89 45 f0             	mov    %eax,-0x10(%rbp)
    75b6:	c7 45 f8 08 00 00 00 	movl   $0x8,-0x8(%rbp)
    75bd:	eb 1e                	jmp    75dd <crc32_gentab+0x45>
    75bf:	8b 45 f0             	mov    -0x10(%rbp),%eax
    75c2:	83 e0 01             	and    $0x1,%eax
    75c5:	85 c0                	test   %eax,%eax
    75c7:	74 0d                	je     75d6 <crc32_gentab+0x3e>
    75c9:	8b 45 f0             	mov    -0x10(%rbp),%eax
    75cc:	d1 e8                	shr    %eax
    75ce:	33 45 fc             	xor    -0x4(%rbp),%eax
    75d1:	89 45 f0             	mov    %eax,-0x10(%rbp)
    75d4:	eb 03                	jmp    75d9 <crc32_gentab+0x41>
    75d6:	d1 6d f0             	shrl   -0x10(%rbp)
    75d9:	83 6d f8 01          	subl   $0x1,-0x8(%rbp)
    75dd:	83 7d f8 00          	cmpl   $0x0,-0x8(%rbp)
    75e1:	7f dc                	jg     75bf <crc32_gentab+0x27>
    75e3:	8b 45 f4             	mov    -0xc(%rbp),%eax
    75e6:	48 98                	cltq   
    75e8:	48 8d 0c 85 00 00 00 	lea    0x0(,%rax,4),%rcx
    75ef:	00 
    75f0:	48 8d 15 e9 fe 00 00 	lea    0xfee9(%rip),%rdx        # 174e0 <crc32_tab>
    75f7:	8b 45 f0             	mov    -0x10(%rbp),%eax
    75fa:	89 04 11             	mov    %eax,(%rcx,%rdx,1)
    75fd:	83 45 f4 01          	addl   $0x1,-0xc(%rbp)
    7601:	81 7d f4 ff 00 00 00 	cmpl   $0xff,-0xc(%rbp)
    7608:	7e a6                	jle    75b0 <crc32_gentab+0x18>
    760a:	90                   	nop
    760b:	90                   	nop
    760c:	5d                   	pop    %rbp
    760d:	c3                   	retq   

000000000000760e <crc32_byte>:
    760e:	f3 0f 1e fa          	endbr64 
    7612:	55                   	push   %rbp
    7613:	48 89 e5             	mov    %rsp,%rbp
    7616:	89 f8                	mov    %edi,%eax
    7618:	88 45 fc             	mov    %al,-0x4(%rbp)
    761b:	8b 05 ff d9 00 00    	mov    0xd9ff(%rip),%eax        # 15020 <crc32_context>
    7621:	c1 e8 08             	shr    $0x8,%eax
    7624:	89 c1                	mov    %eax,%ecx
    7626:	0f b6 55 fc          	movzbl -0x4(%rbp),%edx
    762a:	8b 05 f0 d9 00 00    	mov    0xd9f0(%rip),%eax        # 15020 <crc32_context>
    7630:	31 d0                	xor    %edx,%eax
    7632:	0f b6 c0             	movzbl %al,%eax
    7635:	89 c0                	mov    %eax,%eax
    7637:	48 8d 14 85 00 00 00 	lea    0x0(,%rax,4),%rdx
    763e:	00 
    763f:	48 8d 05 9a fe 00 00 	lea    0xfe9a(%rip),%rax        # 174e0 <crc32_tab>
    7646:	8b 04 02             	mov    (%rdx,%rax,1),%eax
    7649:	31 c8                	xor    %ecx,%eax
    764b:	89 05 cf d9 00 00    	mov    %eax,0xd9cf(%rip)        # 15020 <crc32_context>
    7651:	90                   	nop
    7652:	5d                   	pop    %rbp
    7653:	c3                   	retq   

0000000000007654 <crc32_8bytes>:
    7654:	f3 0f 1e fa          	endbr64 
    7658:	55                   	push   %rbp
    7659:	48 89 e5             	mov    %rsp,%rbp
    765c:	48 83 ec 08          	sub    $0x8,%rsp
    7660:	48 89 7d f8          	mov    %rdi,-0x8(%rbp)
    7664:	48 8b 45 f8          	mov    -0x8(%rbp),%rax
    7668:	0f b6 c0             	movzbl %al,%eax
    766b:	89 c7                	mov    %eax,%edi
    766d:	e8 9c ff ff ff       	callq  760e <crc32_byte>
    7672:	48 8b 45 f8          	mov    -0x8(%rbp),%rax
    7676:	48 c1 e8 08          	shr    $0x8,%rax
    767a:	0f b6 c0             	movzbl %al,%eax
    767d:	89 c7                	mov    %eax,%edi
    767f:	e8 8a ff ff ff       	callq  760e <crc32_byte>
    7684:	48 8b 45 f8          	mov    -0x8(%rbp),%rax
    7688:	48 c1 e8 10          	shr    $0x10,%rax
    768c:	0f b6 c0             	movzbl %al,%eax
    768f:	89 c7                	mov    %eax,%edi
    7691:	e8 78 ff ff ff       	callq  760e <crc32_byte>
    7696:	48 8b 45 f8          	mov    -0x8(%rbp),%rax
    769a:	48 c1 e8 18          	shr    $0x18,%rax
    769e:	0f b6 c0             	movzbl %al,%eax
    76a1:	89 c7                	mov    %eax,%edi
    76a3:	e8 66 ff ff ff       	callq  760e <crc32_byte>
    76a8:	48 8b 45 f8          	mov    -0x8(%rbp),%rax
    76ac:	48 c1 e8 20          	shr    $0x20,%rax
    76b0:	0f b6 c0             	movzbl %al,%eax
    76b3:	89 c7                	mov    %eax,%edi
    76b5:	e8 54 ff ff ff       	callq  760e <crc32_byte>
    76ba:	48 8b 45 f8          	mov    -0x8(%rbp),%rax
    76be:	48 c1 e8 28          	shr    $0x28,%rax
    76c2:	0f b6 c0             	movzbl %al,%eax
    76c5:	89 c7                	mov    %eax,%edi
    76c7:	e8 42 ff ff ff       	callq  760e <crc32_byte>
    76cc:	48 8b 45 f8          	mov    -0x8(%rbp),%rax
    76d0:	48 c1 e8 30          	shr    $0x30,%rax
    76d4:	0f b6 c0             	movzbl %al,%eax
    76d7:	89 c7                	mov    %eax,%edi
    76d9:	e8 30 ff ff ff       	callq  760e <crc32_byte>
    76de:	48 8b 45 f8          	mov    -0x8(%rbp),%rax
    76e2:	48 c1 e8 38          	shr    $0x38,%rax
    76e6:	0f b6 c0             	movzbl %al,%eax
    76e9:	89 c7                	mov    %eax,%edi
    76eb:	e8 1e ff ff ff       	callq  760e <crc32_byte>
    76f0:	90                   	nop
    76f1:	c9                   	leaveq 
    76f2:	c3                   	retq   

00000000000076f3 <transparent_crc>:
    76f3:	f3 0f 1e fa          	endbr64 
    76f7:	55                   	push   %rbp
    76f8:	48 89 e5             	mov    %rsp,%rbp
    76fb:	48 83 ec 20          	sub    $0x20,%rsp
    76ff:	48 89 7d f8          	mov    %rdi,-0x8(%rbp)
    7703:	48 89 75 f0          	mov    %rsi,-0x10(%rbp)
    7707:	89 55 ec             	mov    %edx,-0x14(%rbp)
    770a:	48 8b 45 f8          	mov    -0x8(%rbp),%rax
    770e:	48 89 c7             	mov    %rax,%rdi
    7711:	e8 3e ff ff ff       	callq  7654 <crc32_8bytes>
    7716:	83 7d ec 00          	cmpl   $0x0,-0x14(%rbp)
    771a:	74 22                	je     773e <transparent_crc+0x4b>
    771c:	8b 05 fe d8 00 00    	mov    0xd8fe(%rip),%eax        # 15020 <crc32_context>
    7722:	f7 d0                	not    %eax
    7724:	89 c2                	mov    %eax,%edx
    7726:	48 8b 45 f0          	mov    -0x10(%rbp),%rax
    772a:	48 89 c6             	mov    %rax,%rsi
    772d:	48 8d 3d fc 88 00 00 	lea    0x88fc(%rip),%rdi        # 10030 <_IO_stdin_used+0x30>
    7734:	b8 00 00 00 00       	mov    $0x0,%eax
    7739:	e8 42 e9 ff ff       	callq  6080 <printf@plt>
    773e:	90                   	nop
    773f:	c9                   	leaveq 
    7740:	c3                   	retq   

0000000000007741 <transparent_crc_bytes>:
    7741:	f3 0f 1e fa          	endbr64 
    7745:	55                   	push   %rbp
    7746:	48 89 e5             	mov    %rsp,%rbp
    7749:	48 83 ec 30          	sub    $0x30,%rsp
    774d:	48 89 7d e8          	mov    %rdi,-0x18(%rbp)
    7751:	89 75 e4             	mov    %esi,-0x1c(%rbp)
    7754:	48 89 55 d8          	mov    %rdx,-0x28(%rbp)
    7758:	89 4d e0             	mov    %ecx,-0x20(%rbp)
    775b:	c7 45 fc 00 00 00 00 	movl   $0x0,-0x4(%rbp)
    7762:	eb 1e                	jmp    7782 <transparent_crc_bytes+0x41>
    7764:	8b 45 fc             	mov    -0x4(%rbp),%eax
    7767:	48 63 d0             	movslq %eax,%rdx
    776a:	48 8b 45 e8          	mov    -0x18(%rbp),%rax
    776e:	48 01 d0             	add    %rdx,%rax
    7771:	0f b6 00             	movzbl (%rax),%eax
    7774:	0f b6 c0             	movzbl %al,%eax
    7777:	89 c7                	mov    %eax,%edi
    7779:	e8 90 fe ff ff       	callq  760e <crc32_byte>
    777e:	83 45 fc 01          	addl   $0x1,-0x4(%rbp)
    7782:	8b 45 fc             	mov    -0x4(%rbp),%eax
    7785:	3b 45 e4             	cmp    -0x1c(%rbp),%eax
    7788:	7c da                	jl     7764 <transparent_crc_bytes+0x23>
    778a:	83 7d e0 00          	cmpl   $0x0,-0x20(%rbp)
    778e:	74 22                	je     77b2 <transparent_crc_bytes+0x71>
    7790:	8b 05 8a d8 00 00    	mov    0xd88a(%rip),%eax        # 15020 <crc32_context>
    7796:	f7 d0                	not    %eax
    7798:	89 c2                	mov    %eax,%edx
    779a:	48 8b 45 d8          	mov    -0x28(%rbp),%rax
    779e:	48 89 c6             	mov    %rax,%rsi
    77a1:	48 8d 3d 88 88 00 00 	lea    0x8888(%rip),%rdi        # 10030 <_IO_stdin_used+0x30>
    77a8:	b8 00 00 00 00       	mov    $0x0,%eax
    77ad:	e8 ce e8 ff ff       	callq  6080 <printf@plt>
    77b2:	90                   	nop
    77b3:	c9                   	leaveq 
    77b4:	c3                   	retq   

00000000000077b5 <func_1>:
    77b5:	f3 0f 1e fa          	endbr64 
    77b9:	55                   	push   %rbp
    77ba:	48 89 e5             	mov    %rsp,%rbp
    77bd:	53                   	push   %rbx
    77be:	48 83 ec 58          	sub    $0x58,%rsp
    77c2:	64 48 8b 04 25 28 00 	mov    %fs:0x28,%rax
    77c9:	00 00 
    77cb:	48 89 45 e8          	mov    %rax,-0x18(%rbp)
    77cf:	31 c0                	xor    %eax,%eax
    77d1:	c7 45 a8 ff ff ff ff 	movl   $0xffffffff,-0x58(%rbp)
    77d8:	48 8d 05 a7 da 00 00 	lea    0xdaa7(%rip),%rax        # 15286 <g_2028>
    77df:	48 89 45 b0          	mov    %rax,-0x50(%rbp)
    77e3:	c6 45 a3 08          	movb   $0x8,-0x5d(%rbp)
    77e7:	48 8d 05 7a ef 00 00 	lea    0xef7a(%rip),%rax        # 16768 <g_488>
    77ee:	48 89 45 b8          	mov    %rax,-0x48(%rbp)
    77f2:	c7 45 ac 21 5b 81 2a 	movl   $0x2a815b21,-0x54(%rbp)
    77f9:	c7 45 a4 00 00 00 00 	movl   $0x0,-0x5c(%rbp)
    7800:	eb 18                	jmp    781a <func_1+0x65>
    7802:	8b 45 a4             	mov    -0x5c(%rbp),%eax
    7805:	48 98                	cltq   
    7807:	48 b9 56 f4 90 35 93 	movabs $0x57ec9b933590f456,%rcx
    780e:	9b ec 57 
    7811:	48 89 4c c5 c0       	mov    %rcx,-0x40(%rbp,%rax,8)
    7816:	83 45 a4 01          	addl   $0x1,-0x5c(%rbp)
    781a:	83 7d a4 03          	cmpl   $0x3,-0x5c(%rbp)
    781e:	7e e2                	jle    7802 <func_1+0x4d>
    7820:	8b 45 a8             	mov    -0x58(%rbp),%eax
    7823:	89 c7                	mov    %eax,%edi
    7825:	e8 0c 01 00 00       	callq  7936 <func_2>
    782a:	0f b6 5d a3          	movzbl -0x5d(%rbp),%ebx
    782e:	48 8b 55 d8          	mov    -0x28(%rbp),%rdx
    7832:	48 8b 05 07 ef 00 00 	mov    0xef07(%rip),%rax        # 16740 <g_361>
    7839:	8b 00                	mov    (%rax),%eax
    783b:	48 98                	cltq   
    783d:	48 39 c2             	cmp    %rax,%rdx
    7840:	0f 9c c0             	setl   %al
    7843:	0f b6 c0             	movzbl %al,%eax
    7846:	be 18 ca ff ff       	mov    $0xffffca18,%esi
    784b:	89 c7                	mov    %eax,%edi
    784d:	e8 61 eb ff ff       	callq  63b3 <safe_add_func_int16_t_s_s>
    7852:	be 0e 00 00 00       	mov    $0xe,%esi
    7857:	bf 8d 1b 00 00       	mov    $0x1b8d,%edi
    785c:	e8 80 ec ff ff       	callq  64e1 <safe_lshift_func_int16_t_s_u>
    7861:	98                   	cwtl   
    7862:	89 c6                	mov    %eax,%esi
    7864:	bf d2 0c 00 00       	mov    $0xcd2,%edi
    7869:	e8 87 eb ff ff       	callq  63f5 <safe_mul_func_int16_t_s_s>
    786e:	0f be d0             	movsbl %al,%edx
    7871:	48 8b 05 00 ef 00 00 	mov    0xef00(%rip),%rax        # 16778 <g_485>
    7878:	48 8b 00             	mov    (%rax),%rax
    787b:	48 8b 00             	mov    (%rax),%rax
    787e:	48 8b 00             	mov    (%rax),%rax
    7881:	8b 00                	mov    (%rax),%eax
    7883:	89 c1                	mov    %eax,%ecx
    7885:	48 8b 45 d8          	mov    -0x28(%rbp),%rax
    7889:	48 39 c1             	cmp    %rax,%rcx
    788c:	0f 9f c0             	setg   %al
    788f:	0f b6 c0             	movzbl %al,%eax
    7892:	89 d6                	mov    %edx,%esi
    7894:	89 c7                	mov    %eax,%edi
    7896:	e8 77 e9 ff ff       	callq  6212 <safe_mul_func_int8_t_s_s>
    789b:	0f be c0             	movsbl %al,%eax
    789e:	be 00 00 00 00       	mov    $0x0,%esi
    78a3:	89 c7                	mov    %eax,%edi
    78a5:	e8 80 ec ff ff       	callq  652a <safe_rshift_func_int16_t_s_s>
    78aa:	48 8b 05 cf ee 00 00 	mov    0xeecf(%rip),%rax        # 16780 <g_484>
    78b1:	48 8b 00             	mov    (%rax),%rax
    78b4:	48 8b 00             	mov    (%rax),%rax
    78b7:	48 8b 00             	mov    (%rax),%rax
    78ba:	48 39 45 b8          	cmp    %rax,-0x48(%rbp)
    78be:	75 07                	jne    78c7 <func_1+0x112>
    78c0:	ba f9 ff ff ff       	mov    $0xfffffff9,%edx
    78c5:	eb 05                	jmp    78cc <func_1+0x117>
    78c7:	ba f8 ff ff ff       	mov    $0xfffffff8,%edx
    78cc:	8b 05 02 da 00 00    	mov    0xda02(%rip),%eax        # 152d4 <g_2471>
    78d2:	31 d0                	xor    %edx,%eax
    78d4:	0f b6 c0             	movzbl %al,%eax
    78d7:	89 de                	mov    %ebx,%esi
    78d9:	89 c7                	mov    %eax,%edi
    78db:	e8 b3 f2 ff ff       	callq  6b93 <safe_mul_func_uint8_t_u_u>
    78e0:	0f b6 c0             	movzbl %al,%eax
    78e3:	8b 55 ac             	mov    -0x54(%rbp),%edx
    78e6:	89 d6                	mov    %edx,%esi
    78e8:	89 c7                	mov    %eax,%edi
    78ea:	e8 f2 eb ff ff       	callq  64e1 <safe_lshift_func_int16_t_s_u>
    78ef:	48 8b 15 ba f2 00 00 	mov    0xf2ba(%rip),%rdx        # 16bb0 <g_1288>
    78f6:	48 8b 05 0b ee 00 00 	mov    0xee0b(%rip),%rax        # 16708 <g_119>
    78fd:	48 8b 12             	mov    (%rdx),%rdx
    7900:	48 89 10             	mov    %rdx,(%rax)
    7903:	48 8b 15 a6 fb 00 00 	mov    0xfba6(%rip),%rdx        # 174b0 <g_2476>
    790a:	48 8b 05 f7 ed 00 00 	mov    0xedf7(%rip),%rax        # 16708 <g_119>
    7911:	48 8b 12             	mov    (%rdx),%rdx
    7914:	48 89 10             	mov    %rdx,(%rax)
    7917:	48 8b 45 d0          	mov    -0x30(%rbp),%rax
    791b:	48 8b 5d e8          	mov    -0x18(%rbp),%rbx
    791f:	64 48 33 1c 25 28 00 	xor    %fs:0x28,%rbx
    7926:	00 00 
    7928:	74 05                	je     792f <func_1+0x17a>
    792a:	e8 41 e7 ff ff       	callq  6070 <__stack_chk_fail@plt>
    792f:	48 83 c4 58          	add    $0x58,%rsp
    7933:	5b                   	pop    %rbx
    7934:	5d                   	pop    %rbp
    7935:	c3                   	retq   

0000000000007936 <func_2>:
    7936:	f3 0f 1e fa          	endbr64 
    793a:	55                   	push   %rbp
    793b:	48 89 e5             	mov    %rsp,%rbp
    793e:	41 57                	push   %r15
    7940:	41 56                	push   %r14
    7942:	41 55                	push   %r13
    7944:	41 54                	push   %r12
    7946:	53                   	push   %rbx
    7947:	48 81 ec 38 07 00 00 	sub    $0x738,%rsp
    794e:	89 bd bc f8 ff ff    	mov    %edi,-0x744(%rbp)
    7954:	64 48 8b 04 25 28 00 	mov    %fs:0x28,%rax
    795b:	00 00 
    795d:	48 89 45 c8          	mov    %rax,-0x38(%rbp)
    7961:	31 c0                	xor    %eax,%eax
    7963:	c7 85 c4 f8 ff ff 05 	movl   $0x5,-0x73c(%rbp)
    796a:	00 00 00 
    796d:	48 8d 85 c0 f9 ff ff 	lea    -0x640(%rbp),%rax
    7974:	48 8d 15 65 d9 00 00 	lea    0xd965(%rip),%rdx        # 152e0 <g_2537+0x8>
    797b:	b9 c0 00 00 00       	mov    $0xc0,%ecx
    7980:	48 89 c7             	mov    %rax,%rdi
    7983:	48 89 d6             	mov    %rdx,%rsi
    7986:	f3 48 a5             	rep movsq %ds:(%rsi),%es:(%rdi)
    7989:	c7 85 d4 f8 ff ff c2 	movl   $0xf60c41c2,-0x72c(%rbp)
    7990:	41 0c f6 
    7993:	c7 85 d8 f8 ff ff ff 	movl   $0xffffffff,-0x728(%rbp)
    799a:	ff ff ff 
    799d:	48 8d 05 9c d7 00 00 	lea    0xd79c(%rip),%rax        # 15140 <g_128>
    79a4:	48 89 85 f8 f8 ff ff 	mov    %rax,-0x708(%rbp)
    79ab:	48 8d 05 9e d7 00 00 	lea    0xd79e(%rip),%rax        # 15150 <g_152>
    79b2:	48 89 85 e8 f8 ff ff 	mov    %rax,-0x718(%rbp)
    79b9:	c7 85 dc f8 ff ff 69 	movl   $0xffeb8669,-0x724(%rbp)
    79c0:	86 eb ff 
    79c3:	48 8d 05 4e ff 00 00 	lea    0xff4e(%rip),%rax        # 17918 <g_1150>
    79ca:	48 89 85 00 f9 ff ff 	mov    %rax,-0x700(%rbp)
    79d1:	48 8d 05 48 ff 00 00 	lea    0xff48(%rip),%rax        # 17920 <g_1245>
    79d8:	48 89 85 f0 f8 ff ff 	mov    %rax,-0x710(%rbp)
    79df:	48 8d 85 f0 f8 ff ff 	lea    -0x710(%rbp),%rax
    79e6:	48 89 85 08 f9 ff ff 	mov    %rax,-0x6f8(%rbp)
    79ed:	66 c7 85 80 f9 ff ff 	movw   $0x7,-0x680(%rbp)
    79f4:	07 00 
    79f6:	66 c7 85 82 f9 ff ff 	movw   $0x69cd,-0x67e(%rbp)
    79fd:	cd 69 
    79ff:	66 c7 85 84 f9 ff ff 	movw   $0x1,-0x67c(%rbp)
    7a06:	01 00 
    7a08:	66 c7 85 86 f9 ff ff 	movw   $0x1,-0x67a(%rbp)
    7a0f:	01 00 
    7a11:	66 c7 85 88 f9 ff ff 	movw   $0x6663,-0x678(%rbp)
    7a18:	63 66 
    7a1a:	66 c7 85 8a f9 ff ff 	movw   $0x6663,-0x676(%rbp)
    7a21:	63 66 
    7a23:	66 c7 85 8c f9 ff ff 	movw   $0x2,-0x674(%rbp)
    7a2a:	02 00 
    7a2c:	66 c7 85 8e f9 ff ff 	movw   $0x69cd,-0x672(%rbp)
    7a33:	cd 69 
    7a35:	66 c7 85 90 f9 ff ff 	movw   $0x69cd,-0x670(%rbp)
    7a3c:	cd 69 
    7a3e:	66 c7 85 92 f9 ff ff 	movw   $0x2,-0x66e(%rbp)
    7a45:	02 00 
    7a47:	66 c7 85 94 f9 ff ff 	movw   $0xffff,-0x66c(%rbp)
    7a4e:	ff ff 
    7a50:	66 c7 85 96 f9 ff ff 	movw   $0x1,-0x66a(%rbp)
    7a57:	01 00 
    7a59:	66 c7 85 98 f9 ff ff 	movw   $0x2,-0x668(%rbp)
    7a60:	02 00 
    7a62:	66 c7 85 9a f9 ff ff 	movw   $0xffff,-0x666(%rbp)
    7a69:	ff ff 
    7a6b:	66 c7 85 9c f9 ff ff 	movw   $0x1,-0x664(%rbp)
    7a72:	01 00 
    7a74:	66 c7 85 9e f9 ff ff 	movw   $0x1,-0x662(%rbp)
    7a7b:	01 00 
    7a7d:	66 c7 85 a0 f9 ff ff 	movw   $0x69cd,-0x660(%rbp)
    7a84:	cd 69 
    7a86:	66 c7 85 a2 f9 ff ff 	movw   $0x1,-0x65e(%rbp)
    7a8d:	01 00 
    7a8f:	66 c7 85 a4 f9 ff ff 	movw   $0x7,-0x65c(%rbp)
    7a96:	07 00 
    7a98:	66 c7 85 a6 f9 ff ff 	movw   $0x6663,-0x65a(%rbp)
    7a9f:	63 66 
    7aa1:	66 c7 85 a8 f9 ff ff 	movw   $0x69cd,-0x658(%rbp)
    7aa8:	cd 69 
    7aaa:	66 c7 85 aa f9 ff ff 	movw   $0x5,-0x656(%rbp)
    7ab1:	05 00 
    7ab3:	66 c7 85 ac f9 ff ff 	movw   $0x69cd,-0x654(%rbp)
    7aba:	cd 69 
    7abc:	66 c7 85 ae f9 ff ff 	movw   $0x6663,-0x652(%rbp)
    7ac3:	63 66 
    7ac5:	66 c7 85 b0 f9 ff ff 	movw   $0x1,-0x650(%rbp)
    7acc:	01 00 
    7ace:	66 c7 85 b2 f9 ff ff 	movw   $0xffff,-0x64e(%rbp)
    7ad5:	ff ff 
    7ad7:	66 c7 85 b4 f9 ff ff 	movw   $0x1,-0x64c(%rbp)
    7ade:	01 00 
    7ae0:	66 c7 85 b6 f9 ff ff 	movw   $0x5,-0x64a(%rbp)
    7ae7:	05 00 
    7ae9:	66 c7 85 b8 f9 ff ff 	movw   $0xffff,-0x648(%rbp)
    7af0:	ff ff 
    7af2:	66 c7 85 ba f9 ff ff 	movw   $0x69cd,-0x646(%rbp)
    7af9:	cd 69 
    7afb:	c7 85 c8 f8 ff ff 00 	movl   $0x0,-0x738(%rbp)
    7b02:	00 00 00 
    7b05:	eb 1e                	jmp    7b25 <func_2+0x1ef>
    7b07:	8b 85 c8 f8 ff ff    	mov    -0x738(%rbp),%eax
    7b0d:	48 98                	cltq   
    7b0f:	48 8d 15 92 d5 00 00 	lea    0xd592(%rip),%rdx        # 150a8 <g_12+0x68>
    7b16:	48 89 94 c5 38 f9 ff 	mov    %rdx,-0x6c8(%rbp,%rax,8)
    7b1d:	ff 
    7b1e:	83 85 c8 f8 ff ff 01 	addl   $0x1,-0x738(%rbp)
    7b25:	83 bd c8 f8 ff ff 00 	cmpl   $0x0,-0x738(%rbp)
    7b2c:	7e d9                	jle    7b07 <func_2+0x1d1>
    7b2e:	c7 85 c8 f8 ff ff 00 	movl   $0x0,-0x738(%rbp)
    7b35:	00 00 00 
    7b38:	eb 1a                	jmp    7b54 <func_2+0x21e>
    7b3a:	8b 85 c8 f8 ff ff    	mov    -0x738(%rbp),%eax
    7b40:	48 98                	cltq   
    7b42:	c7 84 85 44 f9 ff ff 	movl   $0x0,-0x6bc(%rbp,%rax,4)
    7b49:	00 00 00 00 
    7b4d:	83 85 c8 f8 ff ff 01 	addl   $0x1,-0x738(%rbp)
    7b54:	83 bd c8 f8 ff ff 02 	cmpl   $0x2,-0x738(%rbp)
    7b5b:	7e dd                	jle    7b3a <func_2+0x204>
    7b5d:	c7 85 bc f8 ff ff 00 	movl   $0x0,-0x744(%rbp)
    7b64:	00 00 00 
    7b67:	e9 40 01 00 00       	jmpq   7cac <func_2+0x376>
    7b6c:	48 8d 05 51 d5 00 00 	lea    0xd551(%rip),%rax        # 150c4 <g_12+0x84>
    7b73:	48 89 85 18 f9 ff ff 	mov    %rax,-0x6e8(%rbp)
    7b7a:	48 8d 85 c4 f8 ff ff 	lea    -0x73c(%rbp),%rax
    7b81:	48 89 85 20 f9 ff ff 	mov    %rax,-0x6e0(%rbp)
    7b88:	c7 85 e4 f8 ff ff af 	movl   $0x260663af,-0x71c(%rbp)
    7b8f:	63 06 26 
    7b92:	c7 85 60 f9 ff ff 65 	movl   $0xe2a43665,-0x6a0(%rbp)
    7b99:	36 a4 e2 
    7b9c:	c7 85 64 f9 ff ff 0c 	movl   $0xd7c7d0c,-0x69c(%rbp)
    7ba3:	7d 7c 0d 
    7ba6:	c7 85 68 f9 ff ff 65 	movl   $0xe2a43665,-0x698(%rbp)
    7bad:	36 a4 e2 
    7bb0:	c7 85 6c f9 ff ff 0c 	movl   $0xd7c7d0c,-0x694(%rbp)
    7bb7:	7d 7c 0d 
    7bba:	c7 85 70 f9 ff ff 65 	movl   $0xe2a43665,-0x690(%rbp)
    7bc1:	36 a4 e2 
    7bc4:	c7 85 74 f9 ff ff 0c 	movl   $0xd7c7d0c,-0x68c(%rbp)
    7bcb:	7d 7c 0d 
    7bce:	c7 85 78 f9 ff ff 65 	movl   $0xe2a43665,-0x688(%rbp)
    7bd5:	36 a4 e2 
    7bd8:	c7 85 7c f9 ff ff 0c 	movl   $0xd7c7d0c,-0x684(%rbp)
    7bdf:	7d 7c 0d 
    7be2:	66 c7 85 50 f9 ff ff 	movw   $0x9,-0x6b0(%rbp)
    7be9:	09 00 
    7beb:	66 c7 85 52 f9 ff ff 	movw   $0x9,-0x6ae(%rbp)
    7bf2:	09 00 
    7bf4:	66 c7 85 54 f9 ff ff 	movw   $0x9,-0x6ac(%rbp)
    7bfb:	09 00 
    7bfd:	66 c7 85 56 f9 ff ff 	movw   $0x9,-0x6aa(%rbp)
    7c04:	09 00 
    7c06:	66 c7 85 58 f9 ff ff 	movw   $0x9,-0x6a8(%rbp)
    7c0d:	09 00 
    7c0f:	66 c7 85 5a f9 ff ff 	movw   $0x9,-0x6a6(%rbp)
    7c16:	09 00 
    7c18:	66 c7 85 5c f9 ff ff 	movw   $0x9,-0x6a4(%rbp)
    7c1f:	09 00 
    7c21:	66 c7 85 5e f9 ff ff 	movw   $0x9,-0x6a2(%rbp)
    7c28:	09 00 
    7c2a:	48 8d 05 8d d5 00 00 	lea    0xd58d(%rip),%rax        # 151be <g_456>
    7c31:	48 89 85 28 f9 ff ff 	mov    %rax,-0x6d8(%rbp)
    7c38:	c7 85 cc f8 ff ff 00 	movl   $0x0,-0x734(%rbp)
    7c3f:	00 00 00 
    7c42:	eb 41                	jmp    7c85 <func_2+0x34f>
    7c44:	c7 85 d0 f8 ff ff 00 	movl   $0x0,-0x730(%rbp)
    7c4b:	00 00 00 
    7c4e:	eb 25                	jmp    7c75 <func_2+0x33f>
    7c50:	8b 85 d0 f8 ff ff    	mov    -0x730(%rbp),%eax
    7c56:	48 63 d0             	movslq %eax,%rdx
    7c59:	8b 85 cc f8 ff ff    	mov    -0x734(%rbp),%eax
    7c5f:	48 98                	cltq   
    7c61:	48 01 d0             	add    %rdx,%rax
    7c64:	66 c7 84 45 36 f9 ff 	movw   $0xfe5a,-0x6ca(%rbp,%rax,2)
    7c6b:	ff 5a fe 
    7c6e:	83 85 d0 f8 ff ff 01 	addl   $0x1,-0x730(%rbp)
    7c75:	83 bd d0 f8 ff ff 00 	cmpl   $0x0,-0x730(%rbp)
    7c7c:	7e d2                	jle    7c50 <func_2+0x31a>
    7c7e:	83 85 cc f8 ff ff 01 	addl   $0x1,-0x734(%rbp)
    7c85:	83 bd cc f8 ff ff 00 	cmpl   $0x0,-0x734(%rbp)
    7c8c:	7e b6                	jle    7c44 <func_2+0x30e>
    7c8e:	8b 85 bc f8 ff ff    	mov    -0x744(%rbp),%eax
    7c94:	0f b6 c0             	movzbl %al,%eax
    7c97:	be 09 00 00 00       	mov    $0x9,%esi
    7c9c:	89 c7                	mov    %eax,%edi
    7c9e:	e8 b7 ee ff ff       	callq  6b5a <safe_add_func_uint8_t_u_u>
    7ca3:	0f b6 c0             	movzbl %al,%eax
    7ca6:	89 85 bc f8 ff ff    	mov    %eax,-0x744(%rbp)
    7cac:	83 bd bc f8 ff ff 2f 	cmpl   $0x2f,-0x744(%rbp)
    7cb3:	0f 87 b3 fe ff ff    	ja     7b6c <func_2+0x236>
    7cb9:	8b 85 bc f8 ff ff    	mov    -0x744(%rbp),%eax
    7cbf:	0f be d8             	movsbl %al,%ebx
    7cc2:	8b 85 bc f8 ff ff    	mov    -0x744(%rbp),%eax
    7cc8:	0f be c0             	movsbl %al,%eax
    7ccb:	89 c6                	mov    %eax,%esi
    7ccd:	bf 1a 00 00 00       	mov    $0x1a,%edi
    7cd2:	e8 5a e5 ff ff       	callq  6231 <safe_mod_func_int8_t_s_s>
    7cd7:	44 8b a5 bc f8 ff ff 	mov    -0x744(%rbp),%r12d
    7cde:	8b 85 bc f8 ff ff    	mov    -0x744(%rbp),%eax
    7ce4:	44 0f bf e8          	movswl %ax,%r13d
    7ce8:	48 8b 85 08 f9 ff ff 	mov    -0x6f8(%rbp),%rax
    7cef:	48 c7 00 00 00 00 00 	movq   $0x0,(%rax)
    7cf6:	48 8b 85 38 f9 ff ff 	mov    -0x6c8(%rbp),%rax
    7cfd:	48 85 c0             	test   %rax,%rax
    7d00:	0f 94 c0             	sete   %al
    7d03:	0f b6 c0             	movzbl %al,%eax
    7d06:	89 85 b8 f8 ff ff    	mov    %eax,-0x748(%rbp)
    7d0c:	44 8b b5 bc f8 ff ff 	mov    -0x744(%rbp),%r14d
    7d13:	48 8b 85 f8 f8 ff ff 	mov    -0x708(%rbp),%rax
    7d1a:	8b 00                	mov    (%rax),%eax
    7d1c:	89 85 b4 f8 ff ff    	mov    %eax,-0x74c(%rbp)
    7d22:	44 8b bd bc f8 ff ff 	mov    -0x744(%rbp),%r15d
    7d29:	8b 85 bc f8 ff ff    	mov    -0x744(%rbp),%eax
    7d2f:	0f be c0             	movsbl %al,%eax
    7d32:	89 85 b0 f8 ff ff    	mov    %eax,-0x750(%rbp)
    7d38:	8b 85 bc f8 ff ff    	mov    -0x744(%rbp),%eax
    7d3e:	48 89 85 a8 f8 ff ff 	mov    %rax,-0x758(%rbp)
    7d45:	48 8b 05 0c ea 00 00 	mov    0xea0c(%rip),%rax        # 16758 <g_358>
    7d4c:	48 8b 00             	mov    (%rax),%rax
    7d4f:	48 8b 00             	mov    (%rax),%rax
    7d52:	48 8b 00             	mov    (%rax),%rax
    7d55:	8b 00                	mov    (%rax),%eax
    7d57:	89 85 a4 f8 ff ff    	mov    %eax,-0x75c(%rbp)
    7d5d:	be 07 00 00 00       	mov    $0x7,%esi
    7d62:	bf b4 e2 ff ff       	mov    $0xffffe2b4,%edi
    7d67:	e8 75 e7 ff ff       	callq  64e1 <safe_lshift_func_int16_t_s_u>
    7d6c:	0f b7 c0             	movzwl %ax,%eax
    7d6f:	8b 95 bc f8 ff ff    	mov    -0x744(%rbp),%edx
    7d75:	89 d6                	mov    %edx,%esi
    7d77:	89 c7                	mov    %eax,%edi
    7d79:	e8 fc f0 ff ff       	callq  6e7a <safe_rshift_func_uint16_t_u_u>
    7d7e:	83 bd bc f8 ff ff 00 	cmpl   $0x0,-0x744(%rbp)
    7d85:	0f 95 c0             	setne  %al
    7d88:	0f b6 c0             	movzbl %al,%eax
    7d8b:	be 06 00 00 00       	mov    $0x6,%esi
    7d90:	89 c7                	mov    %eax,%edi
    7d92:	e8 0a e5 ff ff       	callq  62a1 <safe_lshift_func_int8_t_s_s>
    7d97:	0f be c0             	movsbl %al,%eax
    7d9a:	8b b5 a4 f8 ff ff    	mov    -0x75c(%rbp),%esi
    7da0:	89 c7                	mov    %eax,%edi
    7da2:	e8 29 f1 ff ff       	callq  6ed0 <safe_sub_func_uint32_t_u_u>
    7da7:	39 85 bc f8 ff ff    	cmp    %eax,-0x744(%rbp)
    7dad:	0f 93 c0             	setae  %al
    7db0:	0f b6 c0             	movzbl %al,%eax
    7db3:	48 8b b5 a8 f8 ff ff 	mov    -0x758(%rbp),%rsi
    7dba:	48 89 c7             	mov    %rax,%rdi
    7dbd:	e8 e6 ea ff ff       	callq  68a8 <safe_sub_func_int64_t_s_s>
    7dc2:	48 85 c0             	test   %rax,%rax
    7dc5:	74 14                	je     7ddb <func_2+0x4a5>
    7dc7:	48 8b 85 f8 f8 ff ff 	mov    -0x708(%rbp),%rax
    7dce:	8b 00                	mov    (%rax),%eax
    7dd0:	85 c0                	test   %eax,%eax
    7dd2:	74 07                	je     7ddb <func_2+0x4a5>
    7dd4:	b8 01 00 00 00       	mov    $0x1,%eax
    7dd9:	eb 05                	jmp    7de0 <func_2+0x4aa>
    7ddb:	b8 00 00 00 00       	mov    $0x0,%eax
    7de0:	0f be c0             	movsbl %al,%eax
    7de3:	8b b5 b0 f8 ff ff    	mov    -0x750(%rbp),%esi
    7de9:	89 c7                	mov    %eax,%edi
    7deb:	e8 02 e4 ff ff       	callq  61f2 <safe_sub_func_int8_t_s_s>
    7df0:	44 89 fe             	mov    %r15d,%esi
    7df3:	bf 01 00 00 00       	mov    $0x1,%edi
    7df8:	e8 95 e6 ff ff       	callq  6492 <safe_lshift_func_int16_t_s_s>
    7dfd:	0f b6 c0             	movzbl %al,%eax
    7e00:	8b b5 b4 f8 ff ff    	mov    -0x74c(%rbp),%esi
    7e06:	89 c7                	mov    %eax,%edi
    7e08:	e8 b1 ee ff ff       	callq  6cbe <safe_rshift_func_uint8_t_u_u>
    7e0d:	8b 85 bc f8 ff ff    	mov    -0x744(%rbp),%eax
    7e13:	8b 95 4c f9 ff ff    	mov    -0x6b4(%rbp),%edx
    7e19:	21 d0                	and    %edx,%eax
    7e1b:	89 85 4c f9 ff ff    	mov    %eax,-0x6b4(%rbp)
    7e21:	8b 95 4c f9 ff ff    	mov    -0x6b4(%rbp),%edx
    7e27:	48 8b 85 f8 f8 ff ff 	mov    -0x708(%rbp),%rax
    7e2e:	8b 00                	mov    (%rax),%eax
    7e30:	39 c2                	cmp    %eax,%edx
    7e32:	0f 95 c0             	setne  %al
    7e35:	0f b6 d0             	movzbl %al,%edx
    7e38:	48 8b 85 f8 f8 ff ff 	mov    -0x708(%rbp),%rax
    7e3f:	8b 00                	mov    (%rax),%eax
    7e41:	39 c2                	cmp    %eax,%edx
    7e43:	0f 9e c0             	setle  %al
    7e46:	0f b6 c0             	movzbl %al,%eax
    7e49:	44 89 f6             	mov    %r14d,%esi
    7e4c:	89 c7                	mov    %eax,%edi
    7e4e:	e8 e2 e4 ff ff       	callq  6335 <safe_rshift_func_int8_t_s_s>
    7e53:	0f be c0             	movsbl %al,%eax
    7e56:	39 85 b8 f8 ff ff    	cmp    %eax,-0x748(%rbp)
    7e5c:	0f 94 c0             	sete   %al
    7e5f:	0f b6 d0             	movzbl %al,%edx
    7e62:	48 8b 05 6f f5 00 00 	mov    0xf56f(%rip),%rax        # 173d8 <g_1760>
    7e69:	48 8b 00             	mov    (%rax),%rax
    7e6c:	48 8b 00             	mov    (%rax),%rax
    7e6f:	48 8b 00             	mov    (%rax),%rax
    7e72:	48 8b 08             	mov    (%rax),%rcx
    7e75:	48 8b 05 5c f5 00 00 	mov    0xf55c(%rip),%rax        # 173d8 <g_1760>
    7e7c:	48 8b 00             	mov    (%rax),%rax
    7e7f:	48 8b 00             	mov    (%rax),%rax
    7e82:	48 8b 00             	mov    (%rax),%rax
    7e85:	48 8b 00             	mov    (%rax),%rax
    7e88:	8b 09                	mov    (%rcx),%ecx
    7e8a:	89 08                	mov    %ecx,(%rax)
    7e8c:	8b 00                	mov    (%rax),%eax
    7e8e:	89 d6                	mov    %edx,%esi
    7e90:	89 c7                	mov    %eax,%edi
    7e92:	e8 4f f0 ff ff       	callq  6ee6 <safe_mul_func_uint32_t_u_u>
    7e97:	48 8b 05 2a eb 00 00 	mov    0xeb2a(%rip),%rax        # 169c8 <g_803>
    7e9e:	48 8b 00             	mov    (%rax),%rax
    7ea1:	48 8b 00             	mov    (%rax),%rax
    7ea4:	48 85 c0             	test   %rax,%rax
    7ea7:	0f 95 c0             	setne  %al
    7eaa:	0f b6 c0             	movzbl %al,%eax
    7ead:	44 89 ee             	mov    %r13d,%esi
    7eb0:	89 c7                	mov    %eax,%edi
    7eb2:	e8 1c e5 ff ff       	callq  63d3 <safe_sub_func_int16_t_s_s>
    7eb7:	89 c2                	mov    %eax,%edx
    7eb9:	8b 85 bc f8 ff ff    	mov    -0x744(%rbp),%eax
    7ebf:	09 d0                	or     %edx,%eax
    7ec1:	98                   	cwtl   
    7ec2:	44 89 e6             	mov    %r12d,%esi
    7ec5:	89 c7                	mov    %eax,%edi
    7ec7:	e8 5e e6 ff ff       	callq  652a <safe_rshift_func_int16_t_s_s>
    7ecc:	8b 85 bc f8 ff ff    	mov    -0x744(%rbp),%eax
    7ed2:	0f be c0             	movsbl %al,%eax
    7ed5:	89 de                	mov    %ebx,%esi
    7ed7:	89 c7                	mov    %eax,%edi
    7ed9:	e8 34 e3 ff ff       	callq  6212 <safe_mul_func_int8_t_s_s>
    7ede:	89 c2                	mov    %eax,%edx
    7ee0:	48 8b 05 79 e3 00 00 	mov    0xe379(%rip),%rax        # 16260 <g_11>
    7ee7:	0f be d2             	movsbl %dl,%edx
    7eea:	89 10                	mov    %edx,(%rax)
    7eec:	48 8b 05 6d e3 00 00 	mov    0xe36d(%rip),%rax        # 16260 <g_11>
    7ef3:	c7 00 ff ff ff ff    	movl   $0xffffffff,(%rax)
    7ef9:	c7 05 d1 d3 00 00 00 	movl   $0x0,0xd3d1(%rip)        # 152d4 <g_2471>
    7f00:	00 00 00 
    7f03:	90                   	nop
    7f04:	8b 05 ca d3 00 00    	mov    0xd3ca(%rip),%eax        # 152d4 <g_2471>
    7f0a:	83 f8 09             	cmp    $0x9,%eax
    7f0d:	7f 55                	jg     7f64 <func_2+0x62e>
    7f0f:	c7 85 e0 f8 ff ff 07 	movl   $0x7,-0x720(%rbp)
    7f16:	00 00 00 
    7f19:	48 8d 85 44 f9 ff ff 	lea    -0x6bc(%rbp),%rax
    7f20:	48 89 85 10 f9 ff ff 	mov    %rax,-0x6f0(%rbp)
    7f27:	48 8b 85 f8 f8 ff ff 	mov    -0x708(%rbp),%rax
    7f2e:	8b 00                	mov    (%rax),%eax
    7f30:	89 c2                	mov    %eax,%edx
    7f32:	48 8b 85 f8 f8 ff ff 	mov    -0x708(%rbp),%rax
    7f39:	8b 00                	mov    (%rax),%eax
    7f3b:	0f b7 c0             	movzwl %ax,%eax
    7f3e:	89 c6                	mov    %eax,%esi
    7f40:	bf 00 00 00 00       	mov    $0x0,%edi
    7f45:	e8 e1 31 00 00       	callq  b12b <func_73>
    7f4a:	48 89 85 38 f9 ff ff 	mov    %rax,-0x6c8(%rbp)
    7f51:	48 c7 85 10 f9 ff ff 	movq   $0x0,-0x6f0(%rbp)
    7f58:	00 00 00 00 
    7f5c:	8b 85 bc f8 ff ff    	mov    -0x744(%rbp),%eax
    7f62:	eb 06                	jmp    7f6a <func_2+0x634>
    7f64:	8b 85 bc f8 ff ff    	mov    -0x744(%rbp),%eax
    7f6a:	48 8b 5d c8          	mov    -0x38(%rbp),%rbx
    7f6e:	64 48 33 1c 25 28 00 	xor    %fs:0x28,%rbx
    7f75:	00 00 
    7f77:	74 05                	je     7f7e <func_2+0x648>
    7f79:	e8 f2 e0 ff ff       	callq  6070 <__stack_chk_fail@plt>
    7f7e:	48 81 c4 38 07 00 00 	add    $0x738,%rsp
    7f85:	5b                   	pop    %rbx
    7f86:	41 5c                	pop    %r12
    7f88:	41 5d                	pop    %r13
    7f8a:	41 5e                	pop    %r14
    7f8c:	41 5f                	pop    %r15
    7f8e:	5d                   	pop    %rbp
    7f8f:	c3                   	retq   

0000000000007f90 <func_19>:
    7f90:	f3 0f 1e fa          	endbr64 
    7f94:	55                   	push   %rbp
    7f95:	48 89 e5             	mov    %rsp,%rbp
    7f98:	41 55                	push   %r13
    7f9a:	41 54                	push   %r12
    7f9c:	53                   	push   %rbx
    7f9d:	48 81 ec 00 10 00 00 	sub    $0x1000,%rsp
    7fa4:	48 83 0c 24 00       	orq    $0x0,(%rsp)
    7fa9:	48 81 ec d8 02 00 00 	sub    $0x2d8,%rsp
    7fb0:	48 89 bd 28 ed ff ff 	mov    %rdi,-0x12d8(%rbp)
    7fb7:	48 89 b5 20 ed ff ff 	mov    %rsi,-0x12e0(%rbp)
    7fbe:	89 c8                	mov    %ecx,%eax
    7fc0:	88 95 1c ed ff ff    	mov    %dl,-0x12e4(%rbp)
    7fc6:	66 89 85 18 ed ff ff 	mov    %ax,-0x12e8(%rbp)
    7fcd:	64 48 8b 04 25 28 00 	mov    %fs:0x28,%rax
    7fd4:	00 00 
    7fd6:	48 89 45 d8          	mov    %rax,-0x28(%rbp)
    7fda:	31 c0                	xor    %eax,%eax
    7fdc:	48 c7 85 c8 ed ff ff 	movq   $0x1,-0x1238(%rbp)
    7fe3:	01 00 00 00 
    7fe7:	c7 85 5c ed ff ff 00 	movl   $0x0,-0x12a4(%rbp)
    7fee:	00 00 00 
    7ff1:	c7 85 60 ed ff ff 04 	movl   $0x4,-0x12a0(%rbp)
    7ff8:	00 00 00 
    7ffb:	c7 85 64 ed ff ff 22 	movl   $0xd8479822,-0x129c(%rbp)
    8002:	98 47 d8 
    8005:	48 8d 05 a4 f3 00 00 	lea    0xf3a4(%rip),%rax        # 173b0 <g_1682>
    800c:	48 89 85 d0 ed ff ff 	mov    %rax,-0x1230(%rbp)
    8013:	48 b8 df 6c e6 27 f5 	movabs $0x4be9b3f527e66cdf,%rax
    801a:	b3 e9 4b 
    801d:	48 89 85 d8 ed ff ff 	mov    %rax,-0x1228(%rbp)
    8024:	48 c7 85 e0 ed ff ff 	movq   $0x0,-0x1220(%rbp)
    802b:	00 00 00 00 
    802f:	c7 85 a0 f0 ff ff 01 	movl   $0xb404ff01,-0xf60(%rbp)
    8036:	ff 04 b4 
    8039:	c6 85 a4 f0 ff ff 97 	movb   $0x97,-0xf5c(%rbp)
    8040:	c7 85 a5 f0 ff ff 08 	movl   $0xb4002408,-0xf5b(%rbp)
    8047:	24 00 b4 
    804a:	c6 85 a9 f0 ff ff 9e 	movb   $0x9e,-0xf57(%rbp)
    8051:	c7 85 aa f0 ff ff 00 	movl   $0xb4ff0000,-0xf56(%rbp)
    8058:	00 ff b4 
    805b:	c6 85 ae f0 ff ff 94 	movb   $0x94,-0xf52(%rbp)
    8062:	c7 85 af f0 ff ff b4 	movl   $0xb49b9bb4,-0xf51(%rbp)
    8069:	9b 9b b4 
    806c:	c6 85 b3 f0 ff ff 23 	movb   $0x23,-0xf4d(%rbp)
    8073:	c7 85 b4 f0 ff ff 00 	movl   $0xb4240400,-0xf4c(%rbp)
    807a:	04 24 b4 
    807d:	c6 85 b8 f0 ff ff 00 	movb   $0x0,-0xf48(%rbp)
    8084:	c7 85 b9 f0 ff ff 01 	movl   $0xb404ff01,-0xf47(%rbp)
    808b:	ff 04 b4 
    808e:	c6 85 bd f0 ff ff 97 	movb   $0x97,-0xf43(%rbp)
    8095:	c7 85 be f0 ff ff 08 	movl   $0xb4002408,-0xf42(%rbp)
    809c:	24 00 b4 
    809f:	c6 85 c2 f0 ff ff 9e 	movb   $0x9e,-0xf3e(%rbp)
    80a6:	c7 85 c3 f0 ff ff 00 	movl   $0xb4ff0000,-0xf3d(%rbp)
    80ad:	00 ff b4 
    80b0:	c6 85 c7 f0 ff ff 94 	movb   $0x94,-0xf39(%rbp)
    80b7:	c7 85 c8 f0 ff ff b4 	movl   $0xb49b9bb4,-0xf38(%rbp)
    80be:	9b 9b b4 
    80c1:	c6 85 cc f0 ff ff 23 	movb   $0x23,-0xf34(%rbp)
    80c8:	c7 85 cd f0 ff ff 00 	movl   $0xb4240400,-0xf33(%rbp)
    80cf:	04 24 b4 
    80d2:	c6 85 d1 f0 ff ff 00 	movb   $0x0,-0xf2f(%rbp)
    80d9:	c7 85 d2 f0 ff ff 01 	movl   $0xb404ff01,-0xf2e(%rbp)
    80e0:	ff 04 b4 
    80e3:	c6 85 d6 f0 ff ff 97 	movb   $0x97,-0xf2a(%rbp)
    80ea:	c7 85 d7 f0 ff ff 08 	movl   $0xb4002408,-0xf29(%rbp)
    80f1:	24 00 b4 
    80f4:	c6 85 db f0 ff ff 9e 	movb   $0x9e,-0xf25(%rbp)
    80fb:	c7 85 dc f0 ff ff 00 	movl   $0xb4ff0000,-0xf24(%rbp)
    8102:	00 ff b4 
    8105:	c6 85 e0 f0 ff ff 94 	movb   $0x94,-0xf20(%rbp)
    810c:	c7 85 e1 f0 ff ff b4 	movl   $0xb49b9bb4,-0xf1f(%rbp)
    8113:	9b 9b b4 
    8116:	c6 85 e5 f0 ff ff 23 	movb   $0x23,-0xf1b(%rbp)
    811d:	c7 85 e6 f0 ff ff 00 	movl   $0xb4240400,-0xf1a(%rbp)
    8124:	04 24 b4 
    8127:	c6 85 ea f0 ff ff 00 	movb   $0x0,-0xf16(%rbp)
    812e:	c7 85 eb f0 ff ff 01 	movl   $0x4ff01,-0xf15(%rbp)
    8135:	ff 04 00 
    8138:	c6 85 ef f0 ff ff 3c 	movb   $0x3c,-0xf11(%rbp)
    813f:	c7 85 f0 f0 ff ff 0d 	movl   $0x10d,-0xf10(%rbp)
    8146:	01 00 00 
    8149:	c6 85 f4 f0 ff ff b3 	movb   $0xb3,-0xf0c(%rbp)
    8150:	c7 85 f5 f0 ff ff 92 	movl   $0x80092,-0xf0b(%rbp)
    8157:	00 08 00 
    815a:	c6 85 f9 f0 ff ff fc 	movb   $0xfc,-0xf07(%rbp)
    8161:	c7 85 fa f0 ff ff 00 	movl   $0xb4b400,-0xf06(%rbp)
    8168:	b4 b4 00 
    816b:	c6 85 fe f0 ff ff 0a 	movb   $0xa,-0xf02(%rbp)
    8172:	c7 85 ff f0 ff ff ba 	movl   $0x100ba,-0xf01(%rbp)
    8179:	00 01 00 
    817c:	c6 85 03 f1 ff ff f7 	movb   $0xf7,-0xefd(%rbp)
    8183:	c7 85 04 f1 ff ff 9d 	movl   $0x89d,-0xefc(%rbp)
    818a:	08 00 00 
    818d:	c6 85 08 f1 ff ff 3c 	movb   $0x3c,-0xef8(%rbp)
    8194:	c7 85 09 f1 ff ff 0d 	movl   $0x10d,-0xef7(%rbp)
    819b:	01 00 00 
    819e:	c6 85 0d f1 ff ff b3 	movb   $0xb3,-0xef3(%rbp)
    81a5:	c7 85 0e f1 ff ff 92 	movl   $0x80092,-0xef2(%rbp)
    81ac:	00 08 00 
    81af:	c6 85 12 f1 ff ff fc 	movb   $0xfc,-0xeee(%rbp)
    81b6:	c7 85 13 f1 ff ff 00 	movl   $0xb4b400,-0xeed(%rbp)
    81bd:	b4 b4 00 
    81c0:	c6 85 17 f1 ff ff 0a 	movb   $0xa,-0xee9(%rbp)
    81c7:	c7 85 18 f1 ff ff ba 	movl   $0x100ba,-0xee8(%rbp)
    81ce:	00 01 00 
    81d1:	c6 85 1c f1 ff ff f7 	movb   $0xf7,-0xee4(%rbp)
    81d8:	c7 85 1d f1 ff ff 9d 	movl   $0x89d,-0xee3(%rbp)
    81df:	08 00 00 
    81e2:	c6 85 21 f1 ff ff 3c 	movb   $0x3c,-0xedf(%rbp)
    81e9:	c7 85 22 f1 ff ff 0d 	movl   $0x10d,-0xede(%rbp)
    81f0:	01 00 00 
    81f3:	c6 85 26 f1 ff ff b3 	movb   $0xb3,-0xeda(%rbp)
    81fa:	c7 85 27 f1 ff ff 92 	movl   $0x80092,-0xed9(%rbp)
    8201:	00 08 00 
    8204:	c6 85 2b f1 ff ff fc 	movb   $0xfc,-0xed5(%rbp)
    820b:	c7 85 2c f1 ff ff 00 	movl   $0xb4b400,-0xed4(%rbp)
    8212:	b4 b4 00 
    8215:	c6 85 30 f1 ff ff 0a 	movb   $0xa,-0xed0(%rbp)
    821c:	c7 85 31 f1 ff ff ba 	movl   $0x100ba,-0xecf(%rbp)
    8223:	00 01 00 
    8226:	c6 85 35 f1 ff ff f7 	movb   $0xf7,-0xecb(%rbp)
    822d:	c7 85 36 f1 ff ff 9d 	movl   $0x89d,-0xeca(%rbp)
    8234:	08 00 00 
    8237:	c6 85 3a f1 ff ff 3c 	movb   $0x3c,-0xec6(%rbp)
    823e:	c7 85 3b f1 ff ff 0d 	movl   $0x10d,-0xec5(%rbp)
    8245:	01 00 00 
    8248:	c6 85 3f f1 ff ff b3 	movb   $0xb3,-0xec1(%rbp)
    824f:	c7 85 40 f1 ff ff 92 	movl   $0x80092,-0xec0(%rbp)
    8256:	00 08 00 
    8259:	c6 85 44 f1 ff ff fc 	movb   $0xfc,-0xebc(%rbp)
    8260:	c7 85 45 f1 ff ff 00 	movl   $0xb4b400,-0xebb(%rbp)
    8267:	b4 b4 00 
    826a:	c6 85 49 f1 ff ff 0a 	movb   $0xa,-0xeb7(%rbp)
    8271:	c7 85 4a f1 ff ff ba 	movl   $0x100ba,-0xeb6(%rbp)
    8278:	00 01 00 
    827b:	c6 85 4e f1 ff ff f7 	movb   $0xf7,-0xeb2(%rbp)
    8282:	c7 85 4f f1 ff ff 9d 	movl   $0x89d,-0xeb1(%rbp)
    8289:	08 00 00 
    828c:	c6 85 53 f1 ff ff 3c 	movb   $0x3c,-0xead(%rbp)
    8293:	c7 85 54 f1 ff ff 0d 	movl   $0x10d,-0xeac(%rbp)
    829a:	01 00 00 
    829d:	c6 85 58 f1 ff ff b3 	movb   $0xb3,-0xea8(%rbp)
    82a4:	c7 85 59 f1 ff ff 92 	movl   $0x80092,-0xea7(%rbp)
    82ab:	00 08 00 
    82ae:	c6 85 5d f1 ff ff fc 	movb   $0xfc,-0xea3(%rbp)
    82b5:	c7 85 5e f1 ff ff 00 	movl   $0xb4b400,-0xea2(%rbp)
    82bc:	b4 b4 00 
    82bf:	c6 85 62 f1 ff ff 0a 	movb   $0xa,-0xe9e(%rbp)
    82c6:	c7 85 63 f1 ff ff ba 	movl   $0x100ba,-0xe9d(%rbp)
    82cd:	00 01 00 
    82d0:	c6 85 67 f1 ff ff f7 	movb   $0xf7,-0xe99(%rbp)
    82d7:	c7 85 68 f1 ff ff 9d 	movl   $0x89d,-0xe98(%rbp)
    82de:	08 00 00 
    82e1:	c6 85 6c f1 ff ff 3c 	movb   $0x3c,-0xe94(%rbp)
    82e8:	c7 85 6d f1 ff ff 0d 	movl   $0x10d,-0xe93(%rbp)
    82ef:	01 00 00 
    82f2:	c6 85 71 f1 ff ff b3 	movb   $0xb3,-0xe8f(%rbp)
    82f9:	c7 85 72 f1 ff ff 92 	movl   $0x80092,-0xe8e(%rbp)
    8300:	00 08 00 
    8303:	c6 85 76 f1 ff ff fc 	movb   $0xfc,-0xe8a(%rbp)
    830a:	c7 85 77 f1 ff ff 00 	movl   $0xb4b400,-0xe89(%rbp)
    8311:	b4 b4 00 
    8314:	c6 85 7b f1 ff ff 0a 	movb   $0xa,-0xe85(%rbp)
    831b:	c7 85 7c f1 ff ff ba 	movl   $0x100ba,-0xe84(%rbp)
    8322:	00 01 00 
    8325:	c6 85 80 f1 ff ff f7 	movb   $0xf7,-0xe80(%rbp)
    832c:	c7 85 81 f1 ff ff 9d 	movl   $0x89d,-0xe7f(%rbp)
    8333:	08 00 00 
    8336:	c6 85 85 f1 ff ff 3c 	movb   $0x3c,-0xe7b(%rbp)
    833d:	c7 85 86 f1 ff ff 0d 	movl   $0x10d,-0xe7a(%rbp)
    8344:	01 00 00 
    8347:	c6 85 8a f1 ff ff b3 	movb   $0xb3,-0xe76(%rbp)
    834e:	c7 85 8b f1 ff ff 92 	movl   $0x80092,-0xe75(%rbp)
    8355:	00 08 00 
    8358:	c6 85 8f f1 ff ff fc 	movb   $0xfc,-0xe71(%rbp)
    835f:	c7 85 68 ed ff ff 1d 	movl   $0x2e707e1d,-0x1298(%rbp)
    8366:	7e 70 2e 
    8369:	c7 85 c0 ef ff ff 00 	movl   $0xff006e00,-0x1040(%rbp)
    8370:	6e 00 ff 
    8373:	c7 85 c4 ef ff ff 01 	movl   $0x6e27a101,-0x103c(%rbp)
    837a:	a1 27 6e 
    837d:	c7 85 c8 ef ff ff da 	movl   $0x27f8da,-0x1038(%rbp)
    8384:	f8 27 00 
    8387:	c7 85 cc ef ff ff 01 	movl   $0xfa000001,-0x1034(%rbp)
    838e:	00 00 fa 
    8391:	c7 85 d0 ef ff ff 00 	movl   $0x8b00de00,-0x1030(%rbp)
    8398:	de 00 8b 
    839b:	c7 85 d4 ef ff ff 00 	movl   $0xa6e8b00,-0x102c(%rbp)
    83a2:	8b 6e 0a 
    83a5:	c7 85 d8 ef ff ff 98 	movl   $0x21ff98,-0x1028(%rbp)
    83ac:	ff 21 00 
    83af:	c7 85 dc ef ff ff 00 	movl   $0x70de0100,-0x1024(%rbp)
    83b6:	01 de 70 
    83b9:	c7 85 e0 ef ff ff 74 	movl   $0x40a0074,-0x1020(%rbp)
    83c0:	00 0a 04 
    83c3:	c7 85 e4 ef ff ff ff 	movl   $0xffff81ff,-0x101c(%rbp)
    83ca:	81 ff ff 
    83cd:	c7 85 e8 ef ff ff 00 	movl   $0xfffff900,-0x1018(%rbp)
    83d4:	f9 ff ff 
    83d7:	c7 85 ec ef ff ff 8b 	movl   $0x1ebd8b,-0x1014(%rbp)
    83de:	bd 1e 00 
    83e1:	c7 85 f0 ef ff ff aa 	movl   $0x71f898aa,-0x1010(%rbp)
    83e8:	98 f8 71 
    83eb:	c7 85 f4 ef ff ff 74 	movl   $0xcf000074,-0x100c(%rbp)
    83f2:	00 00 cf 
    83f5:	c7 85 f8 ef ff ff ff 	movl   $0xff,-0x1008(%rbp)
    83fc:	00 00 00 
    83ff:	c7 85 fc ef ff ff 76 	movl   $0xfaaa0176,-0x1004(%rbp)
    8406:	01 aa fa 
    8409:	c7 85 00 f0 ff ff 0a 	movl   $0x10a0a,-0x1000(%rbp)
    8410:	0a 01 00 
    8413:	c7 85 04 f0 ff ff bd 	movl   $0x1e8d98bd,-0xffc(%rbp)
    841a:	98 8d 1e 
    841d:	c7 85 08 f0 ff ff 01 	movl   $0xff000001,-0xff8(%rbp)
    8424:	00 00 ff 
    8427:	c7 85 0c f0 ff ff fa 	movl   $0xff9601fa,-0xff4(%rbp)
    842e:	01 96 ff 
    8431:	c7 85 10 f0 ff ff ff 	movl   $0xff5858ff,-0xff0(%rbp)
    8438:	58 58 ff 
    843b:	c7 85 14 f0 ff ff 00 	movl   $0xa010300,-0xfec(%rbp)
    8442:	03 01 0a 
    8445:	c7 85 18 f0 ff ff 01 	movl   $0xe7ff0101,-0xfe8(%rbp)
    844c:	01 ff e7 
    844f:	c7 85 1c f0 ff ff da 	movl   $0xe7058bda,-0xfe4(%rbp)
    8456:	8b 05 e7 
    8459:	c7 85 20 f0 ff ff ff 	movl   $0xa7601ff,-0xfe0(%rbp)
    8460:	01 76 0a 
    8463:	c7 85 24 f0 ff ff 27 	movl   $0xff0a0327,-0xfdc(%rbp)
    846a:	03 0a ff 
    846d:	c7 85 28 f0 ff ff 01 	movl   $0xff1e5801,-0xfd8(%rbp)
    8474:	58 1e ff 
    8477:	c7 85 2c f0 ff ff ff 	movl   $0xff3a01ff,-0xfd4(%rbp)
    847e:	01 3a ff 
    8481:	c7 85 30 f0 ff ff 8b 	movl   $0x1e00008b,-0xfd0(%rbp)
    8488:	00 00 1e 
    848b:	c7 85 34 f0 ff ff ff 	movl   $0xff98ff,-0xfcc(%rbp)
    8492:	98 ff 00 
    8495:	c7 85 38 f0 ff ff 27 	movl   $0xfa000a27,-0xfc8(%rbp)
    849c:	0a 00 fa 
    849f:	c7 85 3c f0 ff ff 54 	movl   $0x7e0154,-0xfc4(%rbp)
    84a6:	01 7e 00 
    84a9:	c7 85 40 f0 ff ff 00 	movl   $0xcfff0000,-0xfc0(%rbp)
    84b0:	00 ff cf 
    84b3:	c7 85 44 f0 ff ff 0a 	movl   $0x7101000a,-0xfbc(%rbp)
    84ba:	00 01 71 
    84bd:	c7 85 48 f0 ff ff 9f 	movl   $0x21989f,-0xfb8(%rbp)
    84c4:	98 21 00 
    84c7:	c7 85 4c f0 ff ff ff 	movl   $0xff00bdff,-0xfb4(%rbp)
    84ce:	bd 00 ff 
    84d1:	c7 85 50 f0 ff ff 00 	movl   $0xff71f900,-0xfb0(%rbp)
    84d8:	f9 71 ff 
    84db:	c7 85 54 f0 ff ff 92 	movl   $0x48d8192,-0xfac(%rbp)
    84e2:	81 8d 04 
    84e5:	c7 85 58 f0 ff ff 00 	movl   $0x70010000,-0xfa8(%rbp)
    84ec:	00 01 70 
    84ef:	c7 85 5c f0 ff ff 15 	movl   $0xf9ff0115,-0xfa4(%rbp)
    84f6:	01 ff f9 
    84f9:	c7 85 60 f0 ff ff 76 	movl   $0x5205ff76,-0xfa0(%rbp)
    8500:	ff 05 52 
    8503:	c7 85 64 f0 ff ff 54 	movl   $0xade0a54,-0xf9c(%rbp)
    850a:	0a de 0a 
    850d:	c7 85 68 f0 ff ff 09 	movl   $0x4f80109,-0xf98(%rbp)
    8514:	01 f8 04 
    8517:	c7 85 6c f0 ff ff 01 	movl   $0x3a00f601,-0xf94(%rbp)
    851e:	f6 00 3a 
    8521:	c7 85 70 f0 ff ff 00 	movl   $0xaa000100,-0xf90(%rbp)
    8528:	01 00 aa 
    852b:	c7 85 74 f0 ff ff 00 	movl   $0xff00bd00,-0xf8c(%rbp)
    8532:	bd 00 ff 
    8535:	c7 85 78 f0 ff ff 01 	movl   $0xf8aa01,-0xf88(%rbp)
    853c:	aa f8 00 
    853f:	c7 85 7c f0 ff ff 09 	movl   $0xcfde6f09,-0xf84(%rbp)
    8546:	6f de cf 
    8549:	c7 85 80 f0 ff ff 54 	movl   $0xde050a54,-0xf80(%rbp)
    8550:	0a 05 de 
    8553:	c7 85 84 f0 ff ff 76 	movl   $0x3ff0076,-0xf7c(%rbp)
    855a:	00 ff 03 
    855d:	c7 85 88 f0 ff ff 15 	movl   $0x96010a15,-0xf78(%rbp)
    8564:	0a 01 96 
    8567:	c7 85 8c f0 ff ff 00 	movl   $0x8daa00,-0xf74(%rbp)
    856e:	aa 8d 00 
    8571:	c7 85 90 f0 ff ff 92 	movl   $0xff710092,-0xf70(%rbp)
    8578:	00 71 ff 
    857b:	c7 85 94 f0 ff ff 00 	movl   $0x3a00ff00,-0xf6c(%rbp)
    8582:	ff 00 3a 
    8585:	48 c7 85 e8 ed ff ff 	movq   $0x0,-0x1218(%rbp)
    858c:	00 00 00 00 
    8590:	c7 85 6c ed ff ff 00 	movl   $0x0,-0x1294(%rbp)
    8597:	00 00 00 
    859a:	48 c7 85 f0 ed ff ff 	movq   $0xfffffffffffffff8,-0x1210(%rbp)
    85a1:	f8 ff ff ff 
    85a5:	c6 85 3a ed ff ff 02 	movb   $0x2,-0x12c6(%rbp)
    85ac:	48 8d 05 05 ee 00 00 	lea    0xee05(%rip),%rax        # 173b8 <g_1682+0x8>
    85b3:	48 89 85 f8 ed ff ff 	mov    %rax,-0x1208(%rbp)
    85ba:	66 c7 85 3e ed ff ff 	movw   $0x4,-0x12c2(%rbp)
    85c1:	04 00 
    85c3:	66 c7 85 50 ef ff ff 	movw   $0x3,-0x10b0(%rbp)
    85ca:	03 00 
    85cc:	66 c7 85 52 ef ff ff 	movw   $0xd06e,-0x10ae(%rbp)
    85d3:	6e d0 
    85d5:	66 c7 85 54 ef ff ff 	movw   $0x3,-0x10ac(%rbp)
    85dc:	03 00 
    85de:	66 c7 85 56 ef ff ff 	movw   $0x1,-0x10aa(%rbp)
    85e5:	01 00 
    85e7:	66 c7 85 58 ef ff ff 	movw   $0x9,-0x10a8(%rbp)
    85ee:	09 00 
    85f0:	66 c7 85 5a ef ff ff 	movw   $0x1,-0x10a6(%rbp)
    85f7:	01 00 
    85f9:	66 c7 85 5c ef ff ff 	movw   $0xc3ea,-0x10a4(%rbp)
    8600:	ea c3 
    8602:	66 c7 85 5e ef ff ff 	movw   $0x3,-0x10a2(%rbp)
    8609:	03 00 
    860b:	66 c7 85 60 ef ff ff 	movw   $0xffff,-0x10a0(%rbp)
    8612:	ff ff 
    8614:	66 c7 85 62 ef ff ff 	movw   $0x0,-0x109e(%rbp)
    861b:	00 00 
    861d:	66 c7 85 64 ef ff ff 	movw   $0xd06e,-0x109c(%rbp)
    8624:	6e d0 
    8626:	66 c7 85 66 ef ff ff 	movw   $0x47d5,-0x109a(%rbp)
    862d:	d5 47 
    862f:	66 c7 85 68 ef ff ff 	movw   $0xfffc,-0x1098(%rbp)
    8636:	fc ff 
    8638:	66 c7 85 6a ef ff ff 	movw   $0xfffc,-0x1096(%rbp)
    863f:	fc ff 
    8641:	66 c7 85 6c ef ff ff 	movw   $0x47d5,-0x1094(%rbp)
    8648:	d5 47 
    864a:	66 c7 85 6e ef ff ff 	movw   $0xd06e,-0x1092(%rbp)
    8651:	6e d0 
    8653:	66 c7 85 70 ef ff ff 	movw   $0x0,-0x1090(%rbp)
    865a:	00 00 
    865c:	66 c7 85 72 ef ff ff 	movw   $0xffff,-0x108e(%rbp)
    8663:	ff ff 
    8665:	66 c7 85 74 ef ff ff 	movw   $0x3,-0x108c(%rbp)
    866c:	03 00 
    866e:	66 c7 85 76 ef ff ff 	movw   $0xc3ea,-0x108a(%rbp)
    8675:	ea c3 
    8677:	66 c7 85 78 ef ff ff 	movw   $0x1,-0x1088(%rbp)
    867e:	01 00 
    8680:	66 c7 85 7a ef ff ff 	movw   $0x9,-0x1086(%rbp)
    8687:	09 00 
    8689:	66 c7 85 7c ef ff ff 	movw   $0x1,-0x1084(%rbp)
    8690:	01 00 
    8692:	66 c7 85 7e ef ff ff 	movw   $0x25af,-0x1082(%rbp)
    8699:	af 25 
    869b:	66 c7 85 80 ef ff ff 	movw   $0x73a6,-0x1080(%rbp)
    86a2:	a6 73 
    86a4:	66 c7 85 82 ef ff ff 	movw   $0x25af,-0x107e(%rbp)
    86ab:	af 25 
    86ad:	66 c7 85 84 ef ff ff 	movw   $0x1,-0x107c(%rbp)
    86b4:	01 00 
    86b6:	66 c7 85 86 ef ff ff 	movw   $0x9,-0x107a(%rbp)
    86bd:	09 00 
    86bf:	66 c7 85 88 ef ff ff 	movw   $0x1,-0x1078(%rbp)
    86c6:	01 00 
    86c8:	66 c7 85 8a ef ff ff 	movw   $0xc3ea,-0x1076(%rbp)
    86cf:	ea c3 
    86d1:	66 c7 85 8c ef ff ff 	movw   $0x3,-0x1074(%rbp)
    86d8:	03 00 
    86da:	66 c7 85 8e ef ff ff 	movw   $0xffff,-0x1072(%rbp)
    86e1:	ff ff 
    86e3:	66 c7 85 90 ef ff ff 	movw   $0x0,-0x1070(%rbp)
    86ea:	00 00 
    86ec:	66 c7 85 92 ef ff ff 	movw   $0xd06e,-0x106e(%rbp)
    86f3:	6e d0 
    86f5:	66 c7 85 94 ef ff ff 	movw   $0x47d5,-0x106c(%rbp)
    86fc:	d5 47 
    86fe:	66 c7 85 96 ef ff ff 	movw   $0xfffc,-0x106a(%rbp)
    8705:	fc ff 
    8707:	66 c7 85 98 ef ff ff 	movw   $0xfffc,-0x1068(%rbp)
    870e:	fc ff 
    8710:	66 c7 85 9a ef ff ff 	movw   $0x47d5,-0x1066(%rbp)
    8717:	d5 47 
    8719:	66 c7 85 9c ef ff ff 	movw   $0xd06e,-0x1064(%rbp)
    8720:	6e d0 
    8722:	66 c7 85 9e ef ff ff 	movw   $0x0,-0x1062(%rbp)
    8729:	00 00 
    872b:	66 c7 85 a0 ef ff ff 	movw   $0xffff,-0x1060(%rbp)
    8732:	ff ff 
    8734:	66 c7 85 a2 ef ff ff 	movw   $0x3,-0x105e(%rbp)
    873b:	03 00 
    873d:	66 c7 85 a4 ef ff ff 	movw   $0xc3ea,-0x105c(%rbp)
    8744:	ea c3 
    8746:	66 c7 85 a6 ef ff ff 	movw   $0x1,-0x105a(%rbp)
    874d:	01 00 
    874f:	66 c7 85 a8 ef ff ff 	movw   $0x9,-0x1058(%rbp)
    8756:	09 00 
    8758:	66 c7 85 aa ef ff ff 	movw   $0x1,-0x1056(%rbp)
    875f:	01 00 
    8761:	66 c7 85 ac ef ff ff 	movw   $0x25af,-0x1054(%rbp)
    8768:	af 25 
    876a:	66 c7 85 ae ef ff ff 	movw   $0x73a6,-0x1052(%rbp)
    8771:	a6 73 
    8773:	66 c7 85 b0 ef ff ff 	movw   $0x25af,-0x1050(%rbp)
    877a:	af 25 
    877c:	66 c7 85 b2 ef ff ff 	movw   $0x1,-0x104e(%rbp)
    8783:	01 00 
    8785:	48 c7 45 d0 00 00 00 	movq   $0x0,-0x30(%rbp)
    878c:	00 
    878d:	48 c7 85 00 ee ff ff 	movq   $0xfffffffffffffffe,-0x1200(%rbp)
    8794:	fe ff ff ff 
    8798:	48 b8 de ea 02 6d 34 	movabs $0x9439cc346d02eade,%rax
    879f:	cc 39 94 
    87a2:	48 89 85 08 ee ff ff 	mov    %rax,-0x11f8(%rbp)
    87a9:	c7 85 70 ed ff ff 2a 	movl   $0x13786c2a,-0x1290(%rbp)
    87b0:	6c 78 13 
    87b3:	48 8d 05 b6 f1 00 00 	lea    0xf1b6(%rip),%rax        # 17970 <g_2417+0x30>
    87ba:	48 89 85 10 ee ff ff 	mov    %rax,-0x11f0(%rbp)
    87c1:	c7 85 48 ed ff ff 00 	movl   $0x0,-0x12b8(%rbp)
    87c8:	00 00 00 
    87cb:	eb 1b                	jmp    87e8 <func_19+0x858>
    87cd:	8b 85 48 ed ff ff    	mov    -0x12b8(%rbp),%eax
    87d3:	48 98                	cltq   
    87d5:	48 c7 84 c5 c0 ee ff 	movq   $0x0,-0x1140(%rbp,%rax,8)
    87dc:	ff 00 00 00 00 
    87e1:	83 85 48 ed ff ff 01 	addl   $0x1,-0x12b8(%rbp)
    87e8:	83 bd 48 ed ff ff 03 	cmpl   $0x3,-0x12b8(%rbp)
    87ef:	7e dc                	jle    87cd <func_19+0x83d>
    87f1:	66 c7 85 18 ed ff ff 	movw   $0x0,-0x12e8(%rbp)
    87f8:	00 00 
    87fa:	e9 21 14 00 00       	jmpq   9c20 <func_19+0x1c90>
    87ff:	c7 85 4c ed ff ff 14 	movl   $0xe9b8a514,-0x12b4(%rbp)
    8806:	a5 b8 e9 
    8809:	c7 85 88 ed ff ff 6b 	movl   $0xa086cc6b,-0x1278(%rbp)
    8810:	cc 86 a0 
    8813:	48 c7 85 a0 ed ff ff 	movq   $0x0,-0x1260(%rbp)
    881a:	00 00 00 00 
    881e:	48 8d 85 a0 ed ff ff 	lea    -0x1260(%rbp),%rax
    8825:	48 89 85 c0 f8 ff ff 	mov    %rax,-0x740(%rbp)
    882c:	48 8d 85 a0 ed ff ff 	lea    -0x1260(%rbp),%rax
    8833:	48 89 85 c8 f8 ff ff 	mov    %rax,-0x738(%rbp)
    883a:	48 8d 85 a0 ed ff ff 	lea    -0x1260(%rbp),%rax
    8841:	48 89 85 d0 f8 ff ff 	mov    %rax,-0x730(%rbp)
    8848:	48 8d 85 a0 ed ff ff 	lea    -0x1260(%rbp),%rax
    884f:	48 89 85 d8 f8 ff ff 	mov    %rax,-0x728(%rbp)
    8856:	48 8d 85 a0 ed ff ff 	lea    -0x1260(%rbp),%rax
    885d:	48 89 85 e0 f8 ff ff 	mov    %rax,-0x720(%rbp)
    8864:	48 8d 85 a0 ed ff ff 	lea    -0x1260(%rbp),%rax
    886b:	48 89 85 e8 f8 ff ff 	mov    %rax,-0x718(%rbp)
    8872:	48 8d 85 a0 ed ff ff 	lea    -0x1260(%rbp),%rax
    8879:	48 89 85 f0 f8 ff ff 	mov    %rax,-0x710(%rbp)
    8880:	48 8d 85 a0 ed ff ff 	lea    -0x1260(%rbp),%rax
    8887:	48 89 85 f8 f8 ff ff 	mov    %rax,-0x708(%rbp)
    888e:	48 8d 85 a0 ed ff ff 	lea    -0x1260(%rbp),%rax
    8895:	48 89 85 00 f9 ff ff 	mov    %rax,-0x700(%rbp)
    889c:	48 8d 85 a0 ed ff ff 	lea    -0x1260(%rbp),%rax
    88a3:	48 89 85 08 f9 ff ff 	mov    %rax,-0x6f8(%rbp)
    88aa:	48 c7 85 10 f9 ff ff 	movq   $0x0,-0x6f0(%rbp)
    88b1:	00 00 00 00 
    88b5:	48 8d 85 a0 ed ff ff 	lea    -0x1260(%rbp),%rax
    88bc:	48 89 85 18 f9 ff ff 	mov    %rax,-0x6e8(%rbp)
    88c3:	48 8d 85 a0 ed ff ff 	lea    -0x1260(%rbp),%rax
    88ca:	48 89 85 20 f9 ff ff 	mov    %rax,-0x6e0(%rbp)
    88d1:	48 c7 85 28 f9 ff ff 	movq   $0x0,-0x6d8(%rbp)
    88d8:	00 00 00 00 
    88dc:	48 8d 85 a0 ed ff ff 	lea    -0x1260(%rbp),%rax
    88e3:	48 89 85 30 f9 ff ff 	mov    %rax,-0x6d0(%rbp)
    88ea:	48 8d 85 a0 ed ff ff 	lea    -0x1260(%rbp),%rax
    88f1:	48 89 85 38 f9 ff ff 	mov    %rax,-0x6c8(%rbp)
    88f8:	48 8d 85 a0 ed ff ff 	lea    -0x1260(%rbp),%rax
    88ff:	48 89 85 40 f9 ff ff 	mov    %rax,-0x6c0(%rbp)
    8906:	48 8d 85 a0 ed ff ff 	lea    -0x1260(%rbp),%rax
    890d:	48 89 85 48 f9 ff ff 	mov    %rax,-0x6b8(%rbp)
    8914:	48 8d 85 a0 ed ff ff 	lea    -0x1260(%rbp),%rax
    891b:	48 89 85 50 f9 ff ff 	mov    %rax,-0x6b0(%rbp)
    8922:	48 8d 85 a0 ed ff ff 	lea    -0x1260(%rbp),%rax
    8929:	48 89 85 58 f9 ff ff 	mov    %rax,-0x6a8(%rbp)
    8930:	48 8d 85 a0 ed ff ff 	lea    -0x1260(%rbp),%rax
    8937:	48 89 85 60 f9 ff ff 	mov    %rax,-0x6a0(%rbp)
    893e:	48 8d 85 a0 ed ff ff 	lea    -0x1260(%rbp),%rax
    8945:	48 89 85 68 f9 ff ff 	mov    %rax,-0x698(%rbp)
    894c:	48 8d 85 a0 ed ff ff 	lea    -0x1260(%rbp),%rax
    8953:	48 89 85 70 f9 ff ff 	mov    %rax,-0x690(%rbp)
    895a:	48 8d 85 a0 ed ff ff 	lea    -0x1260(%rbp),%rax
    8961:	48 89 85 78 f9 ff ff 	mov    %rax,-0x688(%rbp)
    8968:	48 8d 85 a0 ed ff ff 	lea    -0x1260(%rbp),%rax
    896f:	48 89 85 80 f9 ff ff 	mov    %rax,-0x680(%rbp)
    8976:	48 8d 85 a0 ed ff ff 	lea    -0x1260(%rbp),%rax
    897d:	48 89 85 88 f9 ff ff 	mov    %rax,-0x678(%rbp)
    8984:	48 8d 85 a0 ed ff ff 	lea    -0x1260(%rbp),%rax
    898b:	48 89 85 90 f9 ff ff 	mov    %rax,-0x670(%rbp)
    8992:	48 8d 85 a0 ed ff ff 	lea    -0x1260(%rbp),%rax
    8999:	48 89 85 98 f9 ff ff 	mov    %rax,-0x668(%rbp)
    89a0:	48 8d 85 a0 ed ff ff 	lea    -0x1260(%rbp),%rax
    89a7:	48 89 85 a0 f9 ff ff 	mov    %rax,-0x660(%rbp)
    89ae:	48 8d 85 a0 ed ff ff 	lea    -0x1260(%rbp),%rax
    89b5:	48 89 85 a8 f9 ff ff 	mov    %rax,-0x658(%rbp)
    89bc:	48 8d 85 a0 ed ff ff 	lea    -0x1260(%rbp),%rax
    89c3:	48 89 85 b0 f9 ff ff 	mov    %rax,-0x650(%rbp)
    89ca:	48 8d 85 a0 ed ff ff 	lea    -0x1260(%rbp),%rax
    89d1:	48 89 85 b8 f9 ff ff 	mov    %rax,-0x648(%rbp)
    89d8:	48 c7 85 c0 f9 ff ff 	movq   $0x0,-0x640(%rbp)
    89df:	00 00 00 00 
    89e3:	48 c7 85 c8 f9 ff ff 	movq   $0x0,-0x638(%rbp)
    89ea:	00 00 00 00 
    89ee:	48 8d 85 a0 ed ff ff 	lea    -0x1260(%rbp),%rax
    89f5:	48 89 85 d0 f9 ff ff 	mov    %rax,-0x630(%rbp)
    89fc:	48 8d 85 a0 ed ff ff 	lea    -0x1260(%rbp),%rax
    8a03:	48 89 85 d8 f9 ff ff 	mov    %rax,-0x628(%rbp)
    8a0a:	48 8d 85 a0 ed ff ff 	lea    -0x1260(%rbp),%rax
    8a11:	48 89 85 e0 f9 ff ff 	mov    %rax,-0x620(%rbp)
    8a18:	48 8d 85 a0 ed ff ff 	lea    -0x1260(%rbp),%rax
    8a1f:	48 89 85 e8 f9 ff ff 	mov    %rax,-0x618(%rbp)
    8a26:	48 8d 85 a0 ed ff ff 	lea    -0x1260(%rbp),%rax
    8a2d:	48 89 85 f0 f9 ff ff 	mov    %rax,-0x610(%rbp)
    8a34:	48 8d 85 a0 ed ff ff 	lea    -0x1260(%rbp),%rax
    8a3b:	48 89 85 f8 f9 ff ff 	mov    %rax,-0x608(%rbp)
    8a42:	48 8d 85 a0 ed ff ff 	lea    -0x1260(%rbp),%rax
    8a49:	48 89 85 00 fa ff ff 	mov    %rax,-0x600(%rbp)
    8a50:	48 8d 85 a0 ed ff ff 	lea    -0x1260(%rbp),%rax
    8a57:	48 89 85 08 fa ff ff 	mov    %rax,-0x5f8(%rbp)
    8a5e:	48 8d 85 a0 ed ff ff 	lea    -0x1260(%rbp),%rax
    8a65:	48 89 85 10 fa ff ff 	mov    %rax,-0x5f0(%rbp)
    8a6c:	48 8d 85 a0 ed ff ff 	lea    -0x1260(%rbp),%rax
    8a73:	48 89 85 18 fa ff ff 	mov    %rax,-0x5e8(%rbp)
    8a7a:	48 8d 85 a0 ed ff ff 	lea    -0x1260(%rbp),%rax
    8a81:	48 89 85 20 fa ff ff 	mov    %rax,-0x5e0(%rbp)
    8a88:	48 8d 85 a0 ed ff ff 	lea    -0x1260(%rbp),%rax
    8a8f:	48 89 85 28 fa ff ff 	mov    %rax,-0x5d8(%rbp)
    8a96:	48 c7 85 30 fa ff ff 	movq   $0x0,-0x5d0(%rbp)
    8a9d:	00 00 00 00 
    8aa1:	48 8d 85 a0 ed ff ff 	lea    -0x1260(%rbp),%rax
    8aa8:	48 89 85 38 fa ff ff 	mov    %rax,-0x5c8(%rbp)
    8aaf:	48 8d 85 a0 ed ff ff 	lea    -0x1260(%rbp),%rax
    8ab6:	48 89 85 40 fa ff ff 	mov    %rax,-0x5c0(%rbp)
    8abd:	48 8d 85 a0 ed ff ff 	lea    -0x1260(%rbp),%rax
    8ac4:	48 89 85 48 fa ff ff 	mov    %rax,-0x5b8(%rbp)
    8acb:	48 8d 85 a0 ed ff ff 	lea    -0x1260(%rbp),%rax
    8ad2:	48 89 85 50 fa ff ff 	mov    %rax,-0x5b0(%rbp)
    8ad9:	48 c7 85 58 fa ff ff 	movq   $0x0,-0x5a8(%rbp)
    8ae0:	00 00 00 00 
    8ae4:	48 8d 85 a0 ed ff ff 	lea    -0x1260(%rbp),%rax
    8aeb:	48 89 85 60 fa ff ff 	mov    %rax,-0x5a0(%rbp)
    8af2:	48 8d 85 a0 ed ff ff 	lea    -0x1260(%rbp),%rax
    8af9:	48 89 85 68 fa ff ff 	mov    %rax,-0x598(%rbp)
    8b00:	48 8d 85 a0 ed ff ff 	lea    -0x1260(%rbp),%rax
    8b07:	48 89 85 70 fa ff ff 	mov    %rax,-0x590(%rbp)
    8b0e:	48 8d 85 a0 ed ff ff 	lea    -0x1260(%rbp),%rax
    8b15:	48 89 85 78 fa ff ff 	mov    %rax,-0x588(%rbp)
    8b1c:	48 8d 85 a0 ed ff ff 	lea    -0x1260(%rbp),%rax
    8b23:	48 89 85 80 fa ff ff 	mov    %rax,-0x580(%rbp)
    8b2a:	48 8d 85 a0 ed ff ff 	lea    -0x1260(%rbp),%rax
    8b31:	48 89 85 88 fa ff ff 	mov    %rax,-0x578(%rbp)
    8b38:	48 8d 85 a0 ed ff ff 	lea    -0x1260(%rbp),%rax
    8b3f:	48 89 85 90 fa ff ff 	mov    %rax,-0x570(%rbp)
    8b46:	48 8d 85 a0 ed ff ff 	lea    -0x1260(%rbp),%rax
    8b4d:	48 89 85 98 fa ff ff 	mov    %rax,-0x568(%rbp)
    8b54:	48 8d 85 a0 ed ff ff 	lea    -0x1260(%rbp),%rax
    8b5b:	48 89 85 a0 fa ff ff 	mov    %rax,-0x560(%rbp)
    8b62:	48 8d 85 a0 ed ff ff 	lea    -0x1260(%rbp),%rax
    8b69:	48 89 85 a8 fa ff ff 	mov    %rax,-0x558(%rbp)
    8b70:	48 8d 85 a0 ed ff ff 	lea    -0x1260(%rbp),%rax
    8b77:	48 89 85 b0 fa ff ff 	mov    %rax,-0x550(%rbp)
    8b7e:	48 8d 85 a0 ed ff ff 	lea    -0x1260(%rbp),%rax
    8b85:	48 89 85 b8 fa ff ff 	mov    %rax,-0x548(%rbp)
    8b8c:	48 8d 85 a0 ed ff ff 	lea    -0x1260(%rbp),%rax
    8b93:	48 89 85 c0 fa ff ff 	mov    %rax,-0x540(%rbp)
    8b9a:	48 8d 85 a0 ed ff ff 	lea    -0x1260(%rbp),%rax
    8ba1:	48 89 85 c8 fa ff ff 	mov    %rax,-0x538(%rbp)
    8ba8:	48 8d 85 a0 ed ff ff 	lea    -0x1260(%rbp),%rax
    8baf:	48 89 85 d0 fa ff ff 	mov    %rax,-0x530(%rbp)
    8bb6:	48 8d 85 a0 ed ff ff 	lea    -0x1260(%rbp),%rax
    8bbd:	48 89 85 d8 fa ff ff 	mov    %rax,-0x528(%rbp)
    8bc4:	48 8d 85 a0 ed ff ff 	lea    -0x1260(%rbp),%rax
    8bcb:	48 89 85 e0 fa ff ff 	mov    %rax,-0x520(%rbp)
    8bd2:	48 8d 85 a0 ed ff ff 	lea    -0x1260(%rbp),%rax
    8bd9:	48 89 85 e8 fa ff ff 	mov    %rax,-0x518(%rbp)
    8be0:	48 c7 85 f0 fa ff ff 	movq   $0x0,-0x510(%rbp)
    8be7:	00 00 00 00 
    8beb:	48 8d 85 a0 ed ff ff 	lea    -0x1260(%rbp),%rax
    8bf2:	48 89 85 f8 fa ff ff 	mov    %rax,-0x508(%rbp)
    8bf9:	48 8d 85 a0 ed ff ff 	lea    -0x1260(%rbp),%rax
    8c00:	48 89 85 00 fb ff ff 	mov    %rax,-0x500(%rbp)
    8c07:	48 8d 85 a0 ed ff ff 	lea    -0x1260(%rbp),%rax
    8c0e:	48 89 85 08 fb ff ff 	mov    %rax,-0x4f8(%rbp)
    8c15:	48 8d 85 a0 ed ff ff 	lea    -0x1260(%rbp),%rax
    8c1c:	48 89 85 10 fb ff ff 	mov    %rax,-0x4f0(%rbp)
    8c23:	48 8d 85 a0 ed ff ff 	lea    -0x1260(%rbp),%rax
    8c2a:	48 89 85 18 fb ff ff 	mov    %rax,-0x4e8(%rbp)
    8c31:	48 8d 85 a0 ed ff ff 	lea    -0x1260(%rbp),%rax
    8c38:	48 89 85 20 fb ff ff 	mov    %rax,-0x4e0(%rbp)
    8c3f:	48 8d 85 a0 ed ff ff 	lea    -0x1260(%rbp),%rax
    8c46:	48 89 85 28 fb ff ff 	mov    %rax,-0x4d8(%rbp)
    8c4d:	48 8d 85 a0 ed ff ff 	lea    -0x1260(%rbp),%rax
    8c54:	48 89 85 30 fb ff ff 	mov    %rax,-0x4d0(%rbp)
    8c5b:	48 8d 85 a0 ed ff ff 	lea    -0x1260(%rbp),%rax
    8c62:	48 89 85 38 fb ff ff 	mov    %rax,-0x4c8(%rbp)
    8c69:	48 8d 85 a0 ed ff ff 	lea    -0x1260(%rbp),%rax
    8c70:	48 89 85 40 fb ff ff 	mov    %rax,-0x4c0(%rbp)
    8c77:	48 8d 85 a0 ed ff ff 	lea    -0x1260(%rbp),%rax
    8c7e:	48 89 85 48 fb ff ff 	mov    %rax,-0x4b8(%rbp)
    8c85:	48 c7 85 50 fb ff ff 	movq   $0x0,-0x4b0(%rbp)
    8c8c:	00 00 00 00 
    8c90:	48 8d 85 a0 ed ff ff 	lea    -0x1260(%rbp),%rax
    8c97:	48 89 85 58 fb ff ff 	mov    %rax,-0x4a8(%rbp)
    8c9e:	48 8d 85 a0 ed ff ff 	lea    -0x1260(%rbp),%rax
    8ca5:	48 89 85 60 fb ff ff 	mov    %rax,-0x4a0(%rbp)
    8cac:	48 8d 85 a0 ed ff ff 	lea    -0x1260(%rbp),%rax
    8cb3:	48 89 85 68 fb ff ff 	mov    %rax,-0x498(%rbp)
    8cba:	48 8d 85 a0 ed ff ff 	lea    -0x1260(%rbp),%rax
    8cc1:	48 89 85 70 fb ff ff 	mov    %rax,-0x490(%rbp)
    8cc8:	48 8d 85 a0 ed ff ff 	lea    -0x1260(%rbp),%rax
    8ccf:	48 89 85 78 fb ff ff 	mov    %rax,-0x488(%rbp)
    8cd6:	48 8d 85 a0 ed ff ff 	lea    -0x1260(%rbp),%rax
    8cdd:	48 89 85 80 fb ff ff 	mov    %rax,-0x480(%rbp)
    8ce4:	48 8d 85 a0 ed ff ff 	lea    -0x1260(%rbp),%rax
    8ceb:	48 89 85 88 fb ff ff 	mov    %rax,-0x478(%rbp)
    8cf2:	48 8d 85 a0 ed ff ff 	lea    -0x1260(%rbp),%rax
    8cf9:	48 89 85 90 fb ff ff 	mov    %rax,-0x470(%rbp)
    8d00:	48 8d 85 a0 ed ff ff 	lea    -0x1260(%rbp),%rax
    8d07:	48 89 85 98 fb ff ff 	mov    %rax,-0x468(%rbp)
    8d0e:	48 8d 85 a0 ed ff ff 	lea    -0x1260(%rbp),%rax
    8d15:	48 89 85 a0 fb ff ff 	mov    %rax,-0x460(%rbp)
    8d1c:	48 8d 85 a0 ed ff ff 	lea    -0x1260(%rbp),%rax
    8d23:	48 89 85 a8 fb ff ff 	mov    %rax,-0x458(%rbp)
    8d2a:	48 8d 85 a0 ed ff ff 	lea    -0x1260(%rbp),%rax
    8d31:	48 89 85 b0 fb ff ff 	mov    %rax,-0x450(%rbp)
    8d38:	48 c7 85 b8 fb ff ff 	movq   $0x0,-0x448(%rbp)
    8d3f:	00 00 00 00 
    8d43:	48 8d 85 a0 ed ff ff 	lea    -0x1260(%rbp),%rax
    8d4a:	48 89 85 c0 fb ff ff 	mov    %rax,-0x440(%rbp)
    8d51:	48 8d 85 a0 ed ff ff 	lea    -0x1260(%rbp),%rax
    8d58:	48 89 85 c8 fb ff ff 	mov    %rax,-0x438(%rbp)
    8d5f:	48 c7 85 d0 fb ff ff 	movq   $0x0,-0x430(%rbp)
    8d66:	00 00 00 00 
    8d6a:	48 8d 85 a0 ed ff ff 	lea    -0x1260(%rbp),%rax
    8d71:	48 89 85 d8 fb ff ff 	mov    %rax,-0x428(%rbp)
    8d78:	48 8d 85 a0 ed ff ff 	lea    -0x1260(%rbp),%rax
    8d7f:	48 89 85 e0 fb ff ff 	mov    %rax,-0x420(%rbp)
    8d86:	48 8d 85 a0 ed ff ff 	lea    -0x1260(%rbp),%rax
    8d8d:	48 89 85 e8 fb ff ff 	mov    %rax,-0x418(%rbp)
    8d94:	48 8d 85 a0 ed ff ff 	lea    -0x1260(%rbp),%rax
    8d9b:	48 89 85 f0 fb ff ff 	mov    %rax,-0x410(%rbp)
    8da2:	48 8d 85 a0 ed ff ff 	lea    -0x1260(%rbp),%rax
    8da9:	48 89 85 f8 fb ff ff 	mov    %rax,-0x408(%rbp)
    8db0:	48 8d 85 a0 ed ff ff 	lea    -0x1260(%rbp),%rax
    8db7:	48 89 85 00 fc ff ff 	mov    %rax,-0x400(%rbp)
    8dbe:	48 8d 85 a0 ed ff ff 	lea    -0x1260(%rbp),%rax
    8dc5:	48 89 85 08 fc ff ff 	mov    %rax,-0x3f8(%rbp)
    8dcc:	48 8d 85 a0 ed ff ff 	lea    -0x1260(%rbp),%rax
    8dd3:	48 89 85 10 fc ff ff 	mov    %rax,-0x3f0(%rbp)
    8dda:	48 8d 85 a0 ed ff ff 	lea    -0x1260(%rbp),%rax
    8de1:	48 89 85 18 fc ff ff 	mov    %rax,-0x3e8(%rbp)
    8de8:	48 8d 85 a0 ed ff ff 	lea    -0x1260(%rbp),%rax
    8def:	48 89 85 20 fc ff ff 	mov    %rax,-0x3e0(%rbp)
    8df6:	48 8d 85 a0 ed ff ff 	lea    -0x1260(%rbp),%rax
    8dfd:	48 89 85 28 fc ff ff 	mov    %rax,-0x3d8(%rbp)
    8e04:	48 8d 85 a0 ed ff ff 	lea    -0x1260(%rbp),%rax
    8e0b:	48 89 85 30 fc ff ff 	mov    %rax,-0x3d0(%rbp)
    8e12:	48 8d 85 a0 ed ff ff 	lea    -0x1260(%rbp),%rax
    8e19:	48 89 85 38 fc ff ff 	mov    %rax,-0x3c8(%rbp)
    8e20:	48 8d 85 a0 ed ff ff 	lea    -0x1260(%rbp),%rax
    8e27:	48 89 85 40 fc ff ff 	mov    %rax,-0x3c0(%rbp)
    8e2e:	48 8d 85 a0 ed ff ff 	lea    -0x1260(%rbp),%rax
    8e35:	48 89 85 48 fc ff ff 	mov    %rax,-0x3b8(%rbp)
    8e3c:	48 8d 85 a0 ed ff ff 	lea    -0x1260(%rbp),%rax
    8e43:	48 89 85 50 fc ff ff 	mov    %rax,-0x3b0(%rbp)
    8e4a:	48 8d 85 a0 ed ff ff 	lea    -0x1260(%rbp),%rax
    8e51:	48 89 85 58 fc ff ff 	mov    %rax,-0x3a8(%rbp)
    8e58:	48 8d 85 a0 ed ff ff 	lea    -0x1260(%rbp),%rax
    8e5f:	48 89 85 60 fc ff ff 	mov    %rax,-0x3a0(%rbp)
    8e66:	48 c7 85 68 fc ff ff 	movq   $0x0,-0x398(%rbp)
    8e6d:	00 00 00 00 
    8e71:	48 c7 85 70 fc ff ff 	movq   $0x0,-0x390(%rbp)
    8e78:	00 00 00 00 
    8e7c:	48 8d 85 a0 ed ff ff 	lea    -0x1260(%rbp),%rax
    8e83:	48 89 85 78 fc ff ff 	mov    %rax,-0x388(%rbp)
    8e8a:	48 8d 85 a0 ed ff ff 	lea    -0x1260(%rbp),%rax
    8e91:	48 89 85 80 fc ff ff 	mov    %rax,-0x380(%rbp)
    8e98:	48 8d 85 a0 ed ff ff 	lea    -0x1260(%rbp),%rax
    8e9f:	48 89 85 88 fc ff ff 	mov    %rax,-0x378(%rbp)
    8ea6:	48 8d 85 a0 ed ff ff 	lea    -0x1260(%rbp),%rax
    8ead:	48 89 85 90 fc ff ff 	mov    %rax,-0x370(%rbp)
    8eb4:	48 8d 85 a0 ed ff ff 	lea    -0x1260(%rbp),%rax
    8ebb:	48 89 85 98 fc ff ff 	mov    %rax,-0x368(%rbp)
    8ec2:	48 8d 85 a0 ed ff ff 	lea    -0x1260(%rbp),%rax
    8ec9:	48 89 85 a0 fc ff ff 	mov    %rax,-0x360(%rbp)
    8ed0:	48 8d 85 a0 ed ff ff 	lea    -0x1260(%rbp),%rax
    8ed7:	48 89 85 a8 fc ff ff 	mov    %rax,-0x358(%rbp)
    8ede:	48 8d 85 a0 ed ff ff 	lea    -0x1260(%rbp),%rax
    8ee5:	48 89 85 b0 fc ff ff 	mov    %rax,-0x350(%rbp)
    8eec:	48 8d 85 a0 ed ff ff 	lea    -0x1260(%rbp),%rax
    8ef3:	48 89 85 b8 fc ff ff 	mov    %rax,-0x348(%rbp)
    8efa:	48 8d 85 a0 ed ff ff 	lea    -0x1260(%rbp),%rax
    8f01:	48 89 85 c0 fc ff ff 	mov    %rax,-0x340(%rbp)
    8f08:	48 8d 85 a0 ed ff ff 	lea    -0x1260(%rbp),%rax
    8f0f:	48 89 85 c8 fc ff ff 	mov    %rax,-0x338(%rbp)
    8f16:	48 8d 85 a0 ed ff ff 	lea    -0x1260(%rbp),%rax
    8f1d:	48 89 85 d0 fc ff ff 	mov    %rax,-0x330(%rbp)
    8f24:	48 c7 85 d8 fc ff ff 	movq   $0x0,-0x328(%rbp)
    8f2b:	00 00 00 00 
    8f2f:	48 8d 85 a0 ed ff ff 	lea    -0x1260(%rbp),%rax
    8f36:	48 89 85 e0 fc ff ff 	mov    %rax,-0x320(%rbp)
    8f3d:	48 8d 85 a0 ed ff ff 	lea    -0x1260(%rbp),%rax
    8f44:	48 89 85 e8 fc ff ff 	mov    %rax,-0x318(%rbp)
    8f4b:	48 8d 85 a0 ed ff ff 	lea    -0x1260(%rbp),%rax
    8f52:	48 89 85 f0 fc ff ff 	mov    %rax,-0x310(%rbp)
    8f59:	48 8d 85 a0 ed ff ff 	lea    -0x1260(%rbp),%rax
    8f60:	48 89 85 f8 fc ff ff 	mov    %rax,-0x308(%rbp)
    8f67:	48 8d 85 a0 ed ff ff 	lea    -0x1260(%rbp),%rax
    8f6e:	48 89 85 00 fd ff ff 	mov    %rax,-0x300(%rbp)
    8f75:	48 8d 85 a0 ed ff ff 	lea    -0x1260(%rbp),%rax
    8f7c:	48 89 85 08 fd ff ff 	mov    %rax,-0x2f8(%rbp)
    8f83:	48 c7 85 10 fd ff ff 	movq   $0x0,-0x2f0(%rbp)
    8f8a:	00 00 00 00 
    8f8e:	48 8d 85 a0 ed ff ff 	lea    -0x1260(%rbp),%rax
    8f95:	48 89 85 18 fd ff ff 	mov    %rax,-0x2e8(%rbp)
    8f9c:	48 8d 85 a0 ed ff ff 	lea    -0x1260(%rbp),%rax
    8fa3:	48 89 85 20 fd ff ff 	mov    %rax,-0x2e0(%rbp)
    8faa:	48 8d 85 a0 ed ff ff 	lea    -0x1260(%rbp),%rax
    8fb1:	48 89 85 28 fd ff ff 	mov    %rax,-0x2d8(%rbp)
    8fb8:	48 8d 85 a0 ed ff ff 	lea    -0x1260(%rbp),%rax
    8fbf:	48 89 85 30 fd ff ff 	mov    %rax,-0x2d0(%rbp)
    8fc6:	48 8d 85 a0 ed ff ff 	lea    -0x1260(%rbp),%rax
    8fcd:	48 89 85 38 fd ff ff 	mov    %rax,-0x2c8(%rbp)
    8fd4:	48 8d 85 a0 ed ff ff 	lea    -0x1260(%rbp),%rax
    8fdb:	48 89 85 40 fd ff ff 	mov    %rax,-0x2c0(%rbp)
    8fe2:	48 8d 85 a0 ed ff ff 	lea    -0x1260(%rbp),%rax
    8fe9:	48 89 85 48 fd ff ff 	mov    %rax,-0x2b8(%rbp)
    8ff0:	48 8d 85 a0 ed ff ff 	lea    -0x1260(%rbp),%rax
    8ff7:	48 89 85 50 fd ff ff 	mov    %rax,-0x2b0(%rbp)
    8ffe:	48 8d 85 a0 ed ff ff 	lea    -0x1260(%rbp),%rax
    9005:	48 89 85 58 fd ff ff 	mov    %rax,-0x2a8(%rbp)
    900c:	48 8d 85 a0 ed ff ff 	lea    -0x1260(%rbp),%rax
    9013:	48 89 85 60 fd ff ff 	mov    %rax,-0x2a0(%rbp)
    901a:	48 8d 85 a0 ed ff ff 	lea    -0x1260(%rbp),%rax
    9021:	48 89 85 68 fd ff ff 	mov    %rax,-0x298(%rbp)
    9028:	48 8d 85 a0 ed ff ff 	lea    -0x1260(%rbp),%rax
    902f:	48 89 85 70 fd ff ff 	mov    %rax,-0x290(%rbp)
    9036:	48 c7 85 78 fd ff ff 	movq   $0x0,-0x288(%rbp)
    903d:	00 00 00 00 
    9041:	48 8d 85 a0 ed ff ff 	lea    -0x1260(%rbp),%rax
    9048:	48 89 85 80 fd ff ff 	mov    %rax,-0x280(%rbp)
    904f:	48 8d 85 a0 ed ff ff 	lea    -0x1260(%rbp),%rax
    9056:	48 89 85 88 fd ff ff 	mov    %rax,-0x278(%rbp)
    905d:	48 8d 85 a0 ed ff ff 	lea    -0x1260(%rbp),%rax
    9064:	48 89 85 90 fd ff ff 	mov    %rax,-0x270(%rbp)
    906b:	48 8d 85 a0 ed ff ff 	lea    -0x1260(%rbp),%rax
    9072:	48 89 85 98 fd ff ff 	mov    %rax,-0x268(%rbp)
    9079:	48 8d 85 a0 ed ff ff 	lea    -0x1260(%rbp),%rax
    9080:	48 89 85 a0 fd ff ff 	mov    %rax,-0x260(%rbp)
    9087:	48 8d 85 a0 ed ff ff 	lea    -0x1260(%rbp),%rax
    908e:	48 89 85 a8 fd ff ff 	mov    %rax,-0x258(%rbp)
    9095:	48 8d 85 a0 ed ff ff 	lea    -0x1260(%rbp),%rax
    909c:	48 89 85 b0 fd ff ff 	mov    %rax,-0x250(%rbp)
    90a3:	48 8d 85 a0 ed ff ff 	lea    -0x1260(%rbp),%rax
    90aa:	48 89 85 b8 fd ff ff 	mov    %rax,-0x248(%rbp)
    90b1:	48 8d 85 a0 ed ff ff 	lea    -0x1260(%rbp),%rax
    90b8:	48 89 85 c0 fd ff ff 	mov    %rax,-0x240(%rbp)
    90bf:	48 8d 85 a0 ed ff ff 	lea    -0x1260(%rbp),%rax
    90c6:	48 89 85 c8 fd ff ff 	mov    %rax,-0x238(%rbp)
    90cd:	48 8d 85 a0 ed ff ff 	lea    -0x1260(%rbp),%rax
    90d4:	48 89 85 d0 fd ff ff 	mov    %rax,-0x230(%rbp)
    90db:	48 c7 85 d8 fd ff ff 	movq   $0x0,-0x228(%rbp)
    90e2:	00 00 00 00 
    90e6:	48 8d 85 a0 ed ff ff 	lea    -0x1260(%rbp),%rax
    90ed:	48 89 85 e0 fd ff ff 	mov    %rax,-0x220(%rbp)
    90f4:	48 8d 85 a0 ed ff ff 	lea    -0x1260(%rbp),%rax
    90fb:	48 89 85 e8 fd ff ff 	mov    %rax,-0x218(%rbp)
    9102:	48 8d 85 a0 ed ff ff 	lea    -0x1260(%rbp),%rax
    9109:	48 89 85 f0 fd ff ff 	mov    %rax,-0x210(%rbp)
    9110:	48 8d 85 a0 ed ff ff 	lea    -0x1260(%rbp),%rax
    9117:	48 89 85 f8 fd ff ff 	mov    %rax,-0x208(%rbp)
    911e:	48 8d 85 a0 ed ff ff 	lea    -0x1260(%rbp),%rax
    9125:	48 89 85 00 fe ff ff 	mov    %rax,-0x200(%rbp)
    912c:	48 8d 85 a0 ed ff ff 	lea    -0x1260(%rbp),%rax
    9133:	48 89 85 08 fe ff ff 	mov    %rax,-0x1f8(%rbp)
    913a:	48 8d 85 a0 ed ff ff 	lea    -0x1260(%rbp),%rax
    9141:	48 89 85 10 fe ff ff 	mov    %rax,-0x1f0(%rbp)
    9148:	48 8d 85 a0 ed ff ff 	lea    -0x1260(%rbp),%rax
    914f:	48 89 85 18 fe ff ff 	mov    %rax,-0x1e8(%rbp)
    9156:	48 8d 85 a0 ed ff ff 	lea    -0x1260(%rbp),%rax
    915d:	48 89 85 20 fe ff ff 	mov    %rax,-0x1e0(%rbp)
    9164:	48 8d 85 a0 ed ff ff 	lea    -0x1260(%rbp),%rax
    916b:	48 89 85 28 fe ff ff 	mov    %rax,-0x1d8(%rbp)
    9172:	48 8d 85 a0 ed ff ff 	lea    -0x1260(%rbp),%rax
    9179:	48 89 85 30 fe ff ff 	mov    %rax,-0x1d0(%rbp)
    9180:	48 8d 85 a0 ed ff ff 	lea    -0x1260(%rbp),%rax
    9187:	48 89 85 38 fe ff ff 	mov    %rax,-0x1c8(%rbp)
    918e:	48 8d 85 a0 ed ff ff 	lea    -0x1260(%rbp),%rax
    9195:	48 89 85 40 fe ff ff 	mov    %rax,-0x1c0(%rbp)
    919c:	48 8d 85 a0 ed ff ff 	lea    -0x1260(%rbp),%rax
    91a3:	48 89 85 48 fe ff ff 	mov    %rax,-0x1b8(%rbp)
    91aa:	48 8d 85 a0 ed ff ff 	lea    -0x1260(%rbp),%rax
    91b1:	48 89 85 50 fe ff ff 	mov    %rax,-0x1b0(%rbp)
    91b8:	48 8d 85 a0 ed ff ff 	lea    -0x1260(%rbp),%rax
    91bf:	48 89 85 58 fe ff ff 	mov    %rax,-0x1a8(%rbp)
    91c6:	48 8d 85 a0 ed ff ff 	lea    -0x1260(%rbp),%rax
    91cd:	48 89 85 60 fe ff ff 	mov    %rax,-0x1a0(%rbp)
    91d4:	48 8d 85 a0 ed ff ff 	lea    -0x1260(%rbp),%rax
    91db:	48 89 85 68 fe ff ff 	mov    %rax,-0x198(%rbp)
    91e2:	48 8d 85 a0 ed ff ff 	lea    -0x1260(%rbp),%rax
    91e9:	48 89 85 70 fe ff ff 	mov    %rax,-0x190(%rbp)
    91f0:	48 8d 85 a0 ed ff ff 	lea    -0x1260(%rbp),%rax
    91f7:	48 89 85 78 fe ff ff 	mov    %rax,-0x188(%rbp)
    91fe:	48 c7 85 80 fe ff ff 	movq   $0x0,-0x180(%rbp)
    9205:	00 00 00 00 
    9209:	48 8d 85 a0 ed ff ff 	lea    -0x1260(%rbp),%rax
    9210:	48 89 85 88 fe ff ff 	mov    %rax,-0x178(%rbp)
    9217:	48 8d 85 a0 ed ff ff 	lea    -0x1260(%rbp),%rax
    921e:	48 89 85 90 fe ff ff 	mov    %rax,-0x170(%rbp)
    9225:	48 8d 85 a0 ed ff ff 	lea    -0x1260(%rbp),%rax
    922c:	48 89 85 98 fe ff ff 	mov    %rax,-0x168(%rbp)
    9233:	48 8d 85 a0 ed ff ff 	lea    -0x1260(%rbp),%rax
    923a:	48 89 85 a0 fe ff ff 	mov    %rax,-0x160(%rbp)
    9241:	48 8d 85 a0 ed ff ff 	lea    -0x1260(%rbp),%rax
    9248:	48 89 85 a8 fe ff ff 	mov    %rax,-0x158(%rbp)
    924f:	48 8d 85 a0 ed ff ff 	lea    -0x1260(%rbp),%rax
    9256:	48 89 85 b0 fe ff ff 	mov    %rax,-0x150(%rbp)
    925d:	48 8d 85 a0 ed ff ff 	lea    -0x1260(%rbp),%rax
    9264:	48 89 85 b8 fe ff ff 	mov    %rax,-0x148(%rbp)
    926b:	48 8d 85 a0 ed ff ff 	lea    -0x1260(%rbp),%rax
    9272:	48 89 85 c0 fe ff ff 	mov    %rax,-0x140(%rbp)
    9279:	48 8d 85 a0 ed ff ff 	lea    -0x1260(%rbp),%rax
    9280:	48 89 85 c8 fe ff ff 	mov    %rax,-0x138(%rbp)
    9287:	48 8d 85 a0 ed ff ff 	lea    -0x1260(%rbp),%rax
    928e:	48 89 85 d0 fe ff ff 	mov    %rax,-0x130(%rbp)
    9295:	48 8d 85 a0 ed ff ff 	lea    -0x1260(%rbp),%rax
    929c:	48 89 85 d8 fe ff ff 	mov    %rax,-0x128(%rbp)
    92a3:	48 8d 85 a0 ed ff ff 	lea    -0x1260(%rbp),%rax
    92aa:	48 89 85 e0 fe ff ff 	mov    %rax,-0x120(%rbp)
    92b1:	48 8d 85 a0 ed ff ff 	lea    -0x1260(%rbp),%rax
    92b8:	48 89 85 e8 fe ff ff 	mov    %rax,-0x118(%rbp)
    92bf:	48 8d 85 a0 ed ff ff 	lea    -0x1260(%rbp),%rax
    92c6:	48 89 85 f0 fe ff ff 	mov    %rax,-0x110(%rbp)
    92cd:	48 8d 85 a0 ed ff ff 	lea    -0x1260(%rbp),%rax
    92d4:	48 89 85 f8 fe ff ff 	mov    %rax,-0x108(%rbp)
    92db:	48 8d 85 a0 ed ff ff 	lea    -0x1260(%rbp),%rax
    92e2:	48 89 85 00 ff ff ff 	mov    %rax,-0x100(%rbp)
    92e9:	48 c7 85 08 ff ff ff 	movq   $0x0,-0xf8(%rbp)
    92f0:	00 00 00 00 
    92f4:	48 8d 85 a0 ed ff ff 	lea    -0x1260(%rbp),%rax
    92fb:	48 89 85 10 ff ff ff 	mov    %rax,-0xf0(%rbp)
    9302:	48 8d 85 a0 ed ff ff 	lea    -0x1260(%rbp),%rax
    9309:	48 89 85 18 ff ff ff 	mov    %rax,-0xe8(%rbp)
    9310:	48 8d 85 a0 ed ff ff 	lea    -0x1260(%rbp),%rax
    9317:	48 89 85 20 ff ff ff 	mov    %rax,-0xe0(%rbp)
    931e:	48 8d 85 a0 ed ff ff 	lea    -0x1260(%rbp),%rax
    9325:	48 89 85 28 ff ff ff 	mov    %rax,-0xd8(%rbp)
    932c:	48 8d 85 a0 ed ff ff 	lea    -0x1260(%rbp),%rax
    9333:	48 89 85 30 ff ff ff 	mov    %rax,-0xd0(%rbp)
    933a:	48 8d 85 a0 ed ff ff 	lea    -0x1260(%rbp),%rax
    9341:	48 89 85 38 ff ff ff 	mov    %rax,-0xc8(%rbp)
    9348:	48 8d 85 a0 ed ff ff 	lea    -0x1260(%rbp),%rax
    934f:	48 89 85 40 ff ff ff 	mov    %rax,-0xc0(%rbp)
    9356:	48 8d 85 a0 ed ff ff 	lea    -0x1260(%rbp),%rax
    935d:	48 89 85 48 ff ff ff 	mov    %rax,-0xb8(%rbp)
    9364:	48 c7 85 50 ff ff ff 	movq   $0x0,-0xb0(%rbp)
    936b:	00 00 00 00 
    936f:	48 8d 85 a0 ed ff ff 	lea    -0x1260(%rbp),%rax
    9376:	48 89 85 58 ff ff ff 	mov    %rax,-0xa8(%rbp)
    937d:	48 8d 85 a0 ed ff ff 	lea    -0x1260(%rbp),%rax
    9384:	48 89 85 60 ff ff ff 	mov    %rax,-0xa0(%rbp)
    938b:	48 8d 85 a0 ed ff ff 	lea    -0x1260(%rbp),%rax
    9392:	48 89 85 68 ff ff ff 	mov    %rax,-0x98(%rbp)
    9399:	48 8d 85 a0 ed ff ff 	lea    -0x1260(%rbp),%rax
    93a0:	48 89 85 70 ff ff ff 	mov    %rax,-0x90(%rbp)
    93a7:	48 8d 85 a0 ed ff ff 	lea    -0x1260(%rbp),%rax
    93ae:	48 89 85 78 ff ff ff 	mov    %rax,-0x88(%rbp)
    93b5:	48 8d 85 a0 ed ff ff 	lea    -0x1260(%rbp),%rax
    93bc:	48 89 45 80          	mov    %rax,-0x80(%rbp)
    93c0:	48 8d 85 a0 ed ff ff 	lea    -0x1260(%rbp),%rax
    93c7:	48 89 45 88          	mov    %rax,-0x78(%rbp)
    93cb:	48 8d 85 a0 ed ff ff 	lea    -0x1260(%rbp),%rax
    93d2:	48 89 45 90          	mov    %rax,-0x70(%rbp)
    93d6:	48 c7 45 98 00 00 00 	movq   $0x0,-0x68(%rbp)
    93dd:	00 
    93de:	48 8d 85 a0 ed ff ff 	lea    -0x1260(%rbp),%rax
    93e5:	48 89 45 a0          	mov    %rax,-0x60(%rbp)
    93e9:	48 8d 85 a0 ed ff ff 	lea    -0x1260(%rbp),%rax
    93f0:	48 89 45 a8          	mov    %rax,-0x58(%rbp)
    93f4:	48 8d 85 a0 ed ff ff 	lea    -0x1260(%rbp),%rax
    93fb:	48 89 45 b0          	mov    %rax,-0x50(%rbp)
    93ff:	48 c7 45 b8 00 00 00 	movq   $0x0,-0x48(%rbp)
    9406:	00 
    9407:	48 8d 85 a0 ed ff ff 	lea    -0x1260(%rbp),%rax
    940e:	48 89 45 c0          	mov    %rax,-0x40(%rbp)
    9412:	48 8d 85 c0 f8 ff ff 	lea    -0x740(%rbp),%rax
    9419:	48 05 e8 02 00 00    	add    $0x2e8,%rax
    941f:	48 89 85 d0 f2 ff ff 	mov    %rax,-0xd30(%rbp)
    9426:	48 8d 85 c0 f8 ff ff 	lea    -0x740(%rbp),%rax
    942d:	48 05 90 06 00 00    	add    $0x690,%rax
    9433:	48 89 85 d8 f2 ff ff 	mov    %rax,-0xd28(%rbp)
    943a:	48 c7 85 e0 f2 ff ff 	movq   $0x0,-0xd20(%rbp)
    9441:	00 00 00 00 
    9445:	48 c7 85 e8 f2 ff ff 	movq   $0x0,-0xd18(%rbp)
    944c:	00 00 00 00 
    9450:	48 8d 85 c0 f8 ff ff 	lea    -0x740(%rbp),%rax
    9457:	48 05 e8 02 00 00    	add    $0x2e8,%rax
    945d:	48 89 85 f0 f2 ff ff 	mov    %rax,-0xd10(%rbp)
    9464:	48 8d 85 c0 f8 ff ff 	lea    -0x740(%rbp),%rax
    946b:	48 05 e8 02 00 00    	add    $0x2e8,%rax
    9471:	48 89 85 f8 f2 ff ff 	mov    %rax,-0xd08(%rbp)
    9478:	48 c7 85 00 f3 ff ff 	movq   $0x0,-0xd00(%rbp)
    947f:	00 00 00 00 
    9483:	48 8d 85 c0 f8 ff ff 	lea    -0x740(%rbp),%rax
    948a:	48 05 e8 02 00 00    	add    $0x2e8,%rax
    9490:	48 89 85 08 f3 ff ff 	mov    %rax,-0xcf8(%rbp)
    9497:	48 c7 85 10 f3 ff ff 	movq   $0x0,-0xcf0(%rbp)
    949e:	00 00 00 00 
    94a2:	48 8d 85 c0 f8 ff ff 	lea    -0x740(%rbp),%rax
    94a9:	48 05 e8 02 00 00    	add    $0x2e8,%rax
    94af:	48 89 85 18 f3 ff ff 	mov    %rax,-0xce8(%rbp)
    94b6:	48 8d 85 c0 f8 ff ff 	lea    -0x740(%rbp),%rax
    94bd:	48 05 90 06 00 00    	add    $0x690,%rax
    94c3:	48 89 85 20 f3 ff ff 	mov    %rax,-0xce0(%rbp)
    94ca:	48 c7 85 28 f3 ff ff 	movq   $0x0,-0xcd8(%rbp)
    94d1:	00 00 00 00 
    94d5:	48 8d 85 c0 f8 ff ff 	lea    -0x740(%rbp),%rax
    94dc:	48 05 e8 02 00 00    	add    $0x2e8,%rax
    94e2:	48 89 85 30 f3 ff ff 	mov    %rax,-0xcd0(%rbp)
    94e9:	48 8d 85 c0 f8 ff ff 	lea    -0x740(%rbp),%rax
    94f0:	48 05 e8 02 00 00    	add    $0x2e8,%rax
    94f6:	48 89 85 38 f3 ff ff 	mov    %rax,-0xcc8(%rbp)
    94fd:	48 c7 85 40 f3 ff ff 	movq   $0x0,-0xcc0(%rbp)
    9504:	00 00 00 00 
    9508:	48 c7 85 48 f3 ff ff 	movq   $0x0,-0xcb8(%rbp)
    950f:	00 00 00 00 
    9513:	48 c7 85 50 f3 ff ff 	movq   $0x0,-0xcb0(%rbp)
    951a:	00 00 00 00 
    951e:	48 8d 85 c0 f8 ff ff 	lea    -0x740(%rbp),%rax
    9525:	48 05 e8 02 00 00    	add    $0x2e8,%rax
    952b:	48 89 85 58 f3 ff ff 	mov    %rax,-0xca8(%rbp)
    9532:	48 c7 85 60 f3 ff ff 	movq   $0x0,-0xca0(%rbp)
    9539:	00 00 00 00 
    953d:	48 8d 85 c0 f8 ff ff 	lea    -0x740(%rbp),%rax
    9544:	48 05 e8 02 00 00    	add    $0x2e8,%rax
    954a:	48 89 85 68 f3 ff ff 	mov    %rax,-0xc98(%rbp)
    9551:	48 c7 85 70 f3 ff ff 	movq   $0x0,-0xc90(%rbp)
    9558:	00 00 00 00 
    955c:	48 8d 85 c0 f8 ff ff 	lea    -0x740(%rbp),%rax
    9563:	48 05 e8 02 00 00    	add    $0x2e8,%rax
    9569:	48 89 85 78 f3 ff ff 	mov    %rax,-0xc88(%rbp)
    9570:	48 8d 85 c0 f8 ff ff 	lea    -0x740(%rbp),%rax
    9577:	48 05 90 06 00 00    	add    $0x690,%rax
    957d:	48 89 85 80 f3 ff ff 	mov    %rax,-0xc80(%rbp)
    9584:	48 8d 85 c0 f8 ff ff 	lea    -0x740(%rbp),%rax
    958b:	48 05 90 06 00 00    	add    $0x690,%rax
    9591:	48 89 85 88 f3 ff ff 	mov    %rax,-0xc78(%rbp)
    9598:	48 8d 85 c0 f8 ff ff 	lea    -0x740(%rbp),%rax
    959f:	48 05 e8 02 00 00    	add    $0x2e8,%rax
    95a5:	48 89 85 90 f3 ff ff 	mov    %rax,-0xc70(%rbp)
    95ac:	48 8d 85 c0 f8 ff ff 	lea    -0x740(%rbp),%rax
    95b3:	48 05 e8 02 00 00    	add    $0x2e8,%rax
    95b9:	48 89 85 98 f3 ff ff 	mov    %rax,-0xc68(%rbp)
    95c0:	48 8d 85 c0 f8 ff ff 	lea    -0x740(%rbp),%rax
    95c7:	48 05 e8 02 00 00    	add    $0x2e8,%rax
    95cd:	48 89 85 a0 f3 ff ff 	mov    %rax,-0xc60(%rbp)
    95d4:	48 c7 85 a8 f3 ff ff 	movq   $0x0,-0xc58(%rbp)
    95db:	00 00 00 00 
    95df:	48 8d 85 c0 f8 ff ff 	lea    -0x740(%rbp),%rax
    95e6:	48 05 e8 02 00 00    	add    $0x2e8,%rax
    95ec:	48 89 85 b0 f3 ff ff 	mov    %rax,-0xc50(%rbp)
    95f3:	48 8d 85 c0 f8 ff ff 	lea    -0x740(%rbp),%rax
    95fa:	48 05 e8 02 00 00    	add    $0x2e8,%rax
    9600:	48 89 85 b8 f3 ff ff 	mov    %rax,-0xc48(%rbp)
    9607:	48 8d 85 c0 f8 ff ff 	lea    -0x740(%rbp),%rax
    960e:	48 05 90 06 00 00    	add    $0x690,%rax
    9614:	48 89 85 c0 f3 ff ff 	mov    %rax,-0xc40(%rbp)
    961b:	48 c7 85 c8 f3 ff ff 	movq   $0x0,-0xc38(%rbp)
    9622:	00 00 00 00 
    9626:	48 c7 85 d0 f3 ff ff 	movq   $0x0,-0xc30(%rbp)
    962d:	00 00 00 00 
    9631:	48 8d 85 c0 f8 ff ff 	lea    -0x740(%rbp),%rax
    9638:	48 05 e8 02 00 00    	add    $0x2e8,%rax
    963e:	48 89 85 d8 f3 ff ff 	mov    %rax,-0xc28(%rbp)
    9645:	48 8d 85 c0 f8 ff ff 	lea    -0x740(%rbp),%rax
    964c:	48 05 e8 02 00 00    	add    $0x2e8,%rax
    9652:	48 89 85 e0 f3 ff ff 	mov    %rax,-0xc20(%rbp)
    9659:	48 8d 85 c0 f8 ff ff 	lea    -0x740(%rbp),%rax
    9660:	48 05 e8 02 00 00    	add    $0x2e8,%rax
    9666:	48 89 85 e8 f3 ff ff 	mov    %rax,-0xc18(%rbp)
    966d:	48 c7 85 f0 f3 ff ff 	movq   $0x0,-0xc10(%rbp)
    9674:	00 00 00 00 
    9678:	48 c7 85 f8 f3 ff ff 	movq   $0x0,-0xc08(%rbp)
    967f:	00 00 00 00 
    9683:	48 c7 85 00 f4 ff ff 	movq   $0x0,-0xc00(%rbp)
    968a:	00 00 00 00 
    968e:	48 8d 85 c0 f8 ff ff 	lea    -0x740(%rbp),%rax
    9695:	48 05 e8 02 00 00    	add    $0x2e8,%rax
    969b:	48 89 85 08 f4 ff ff 	mov    %rax,-0xbf8(%rbp)
    96a2:	48 8d 85 c0 f8 ff ff 	lea    -0x740(%rbp),%rax
    96a9:	48 05 e8 02 00 00    	add    $0x2e8,%rax
    96af:	48 89 85 10 f4 ff ff 	mov    %rax,-0xbf0(%rbp)
    96b6:	48 c7 85 18 f4 ff ff 	movq   $0x0,-0xbe8(%rbp)
    96bd:	00 00 00 00 
    96c1:	48 8d 85 c0 f8 ff ff 	lea    -0x740(%rbp),%rax
    96c8:	48 05 e8 02 00 00    	add    $0x2e8,%rax
    96ce:	48 89 85 20 f4 ff ff 	mov    %rax,-0xbe0(%rbp)
    96d5:	48 8d 85 c0 f8 ff ff 	lea    -0x740(%rbp),%rax
    96dc:	48 05 e8 02 00 00    	add    $0x2e8,%rax
    96e2:	48 89 85 28 f4 ff ff 	mov    %rax,-0xbd8(%rbp)
    96e9:	48 8d 85 c0 f8 ff ff 	lea    -0x740(%rbp),%rax
    96f0:	48 05 e8 02 00 00    	add    $0x2e8,%rax
    96f6:	48 89 85 30 f4 ff ff 	mov    %rax,-0xbd0(%rbp)
    96fd:	48 c7 85 38 f4 ff ff 	movq   $0x0,-0xbc8(%rbp)
    9704:	00 00 00 00 
    9708:	48 8d 85 c0 f8 ff ff 	lea    -0x740(%rbp),%rax
    970f:	48 05 90 06 00 00    	add    $0x690,%rax
    9715:	48 89 85 40 f4 ff ff 	mov    %rax,-0xbc0(%rbp)
    971c:	48 8d 85 c0 f8 ff ff 	lea    -0x740(%rbp),%rax
    9723:	48 05 e8 02 00 00    	add    $0x2e8,%rax
    9729:	48 89 85 48 f4 ff ff 	mov    %rax,-0xbb8(%rbp)
    9730:	48 c7 85 50 f4 ff ff 	movq   $0x0,-0xbb0(%rbp)
    9737:	00 00 00 00 
    973b:	48 8d 85 c0 f8 ff ff 	lea    -0x740(%rbp),%rax
    9742:	48 05 90 06 00 00    	add    $0x690,%rax
    9748:	48 89 85 58 f4 ff ff 	mov    %rax,-0xba8(%rbp)
    974f:	48 c7 85 60 f4 ff ff 	movq   $0x0,-0xba0(%rbp)
    9756:	00 00 00 00 
    975a:	48 c7 85 68 f4 ff ff 	movq   $0x0,-0xb98(%rbp)
    9761:	00 00 00 00 
    9765:	48 c7 85 70 f4 ff ff 	movq   $0x0,-0xb90(%rbp)
    976c:	00 00 00 00 
    9770:	48 c7 85 78 f4 ff ff 	movq   $0x0,-0xb88(%rbp)
    9777:	00 00 00 00 
    977b:	48 8d 85 c0 f8 ff ff 	lea    -0x740(%rbp),%rax
    9782:	48 05 90 06 00 00    	add    $0x690,%rax
    9788:	48 89 85 80 f4 ff ff 	mov    %rax,-0xb80(%rbp)
    978f:	48 8d 85 c0 f8 ff ff 	lea    -0x740(%rbp),%rax
    9796:	48 05 e8 02 00 00    	add    $0x2e8,%rax
    979c:	48 89 85 88 f4 ff ff 	mov    %rax,-0xb78(%rbp)
    97a3:	48 8d 85 c0 f8 ff ff 	lea    -0x740(%rbp),%rax
    97aa:	48 05 e8 02 00 00    	add    $0x2e8,%rax
    97b0:	48 89 85 90 f4 ff ff 	mov    %rax,-0xb70(%rbp)
    97b7:	48 c7 85 98 f4 ff ff 	movq   $0x0,-0xb68(%rbp)
    97be:	00 00 00 00 
    97c2:	48 8d 85 c0 f8 ff ff 	lea    -0x740(%rbp),%rax
    97c9:	48 05 e8 02 00 00    	add    $0x2e8,%rax
    97cf:	48 89 85 a0 f4 ff ff 	mov    %rax,-0xb60(%rbp)
    97d6:	48 8d 85 c0 f8 ff ff 	lea    -0x740(%rbp),%rax
    97dd:	48 05 e8 02 00 00    	add    $0x2e8,%rax
    97e3:	48 89 85 a8 f4 ff ff 	mov    %rax,-0xb58(%rbp)
    97ea:	48 c7 85 b0 f4 ff ff 	movq   $0x0,-0xb50(%rbp)
    97f1:	00 00 00 00 
    97f5:	48 c7 85 b8 f4 ff ff 	movq   $0x0,-0xb48(%rbp)
    97fc:	00 00 00 00 
    9800:	48 c7 85 c0 f4 ff ff 	movq   $0x0,-0xb40(%rbp)
    9807:	00 00 00 00 
    980b:	48 8d 85 c0 f8 ff ff 	lea    -0x740(%rbp),%rax
    9812:	48 05 e8 02 00 00    	add    $0x2e8,%rax
    9818:	48 89 85 c8 f4 ff ff 	mov    %rax,-0xb38(%rbp)
    981f:	48 8d 85 c0 f8 ff ff 	lea    -0x740(%rbp),%rax
    9826:	48 05 e8 02 00 00    	add    $0x2e8,%rax
    982c:	48 89 85 d0 f4 ff ff 	mov    %rax,-0xb30(%rbp)
    9833:	48 8d 85 c0 f8 ff ff 	lea    -0x740(%rbp),%rax
    983a:	48 05 90 06 00 00    	add    $0x690,%rax
    9840:	48 89 85 d8 f4 ff ff 	mov    %rax,-0xb28(%rbp)
    9847:	48 8d 85 c0 f8 ff ff 	lea    -0x740(%rbp),%rax
    984e:	48 05 e8 02 00 00    	add    $0x2e8,%rax
    9854:	48 89 85 e0 f4 ff ff 	mov    %rax,-0xb20(%rbp)
    985b:	48 8d 85 c0 f8 ff ff 	lea    -0x740(%rbp),%rax
    9862:	48 05 90 06 00 00    	add    $0x690,%rax
    9868:	48 89 85 e8 f4 ff ff 	mov    %rax,-0xb18(%rbp)
    986f:	48 8d 85 c0 f8 ff ff 	lea    -0x740(%rbp),%rax
    9876:	48 05 e8 02 00 00    	add    $0x2e8,%rax
    987c:	48 89 85 f0 f4 ff ff 	mov    %rax,-0xb10(%rbp)
    9883:	48 8d 85 c0 f8 ff ff 	lea    -0x740(%rbp),%rax
    988a:	48 05 e8 02 00 00    	add    $0x2e8,%rax
    9890:	48 89 85 f8 f4 ff ff 	mov    %rax,-0xb08(%rbp)
    9897:	66 c7 85 44 ed ff ff 	movw   $0x1,-0x12bc(%rbp)
    989e:	01 00 
    98a0:	48 8d 85 00 f5 ff ff 	lea    -0xb00(%rbp),%rax
    98a7:	48 8d 15 b2 67 00 00 	lea    0x67b2(%rip),%rdx        # 10060 <g_1811+0xa>
    98ae:	b9 78 00 00 00       	mov    $0x78,%ecx
    98b3:	48 89 c7             	mov    %rax,%rdi
    98b6:	48 89 d6             	mov    %rdx,%rsi
    98b9:	f3 48 a5             	rep movsq %ds:(%rsi),%es:(%rdi)
    98bc:	c7 85 8c ed ff ff 00 	movl   $0x0,-0x1274(%rbp)
    98c3:	00 00 00 
    98c6:	48 8d 05 43 ce 00 00 	lea    0xce43(%rip),%rax        # 16710 <g_229>
    98cd:	48 89 85 48 ee ff ff 	mov    %rax,-0x11b8(%rbp)
    98d4:	48 8d 05 9d b8 00 00 	lea    0xb89d(%rip),%rax        # 15178 <g_240>
    98db:	48 89 85 50 ee ff ff 	mov    %rax,-0x11b0(%rbp)
    98e2:	c6 85 1c ed ff ff 00 	movb   $0x0,-0x12e4(%rbp)
    98e9:	e9 a2 00 00 00       	jmpq   9990 <func_19+0x1a00>
    98ee:	c7 05 20 b8 00 00 00 	movl   $0x0,0xb820(%rip)        # 15118 <g_40>
    98f5:	00 00 00 
    98f8:	eb 78                	jmp    9972 <func_19+0x19e2>
    98fa:	c7 05 18 b8 00 00 00 	movl   $0x0,0xb818(%rip)        # 1511c <g_41>
    9901:	00 00 00 
    9904:	eb 52                	jmp    9958 <func_19+0x19c8>
    9906:	0f be 95 1c ed ff ff 	movsbl -0x12e4(%rbp),%edx
    990d:	8b 05 05 b8 00 00    	mov    0xb805(%rip),%eax        # 15118 <g_40>
    9913:	8b 0d 03 b8 00 00    	mov    0xb803(%rip),%ecx        # 1511c <g_41>
    9919:	48 63 c9             	movslq %ecx,%rcx
    991c:	48 63 d2             	movslq %edx,%rdx
    991f:	48 98                	cltq   
    9921:	48 01 c2             	add    %rax,%rdx
    9924:	48 89 d0             	mov    %rdx,%rax
    9927:	48 01 c0             	add    %rax,%rax
    992a:	48 01 d0             	add    %rdx,%rax
    992d:	48 01 c0             	add    %rax,%rax
    9930:	48 01 c8             	add    %rcx,%rax
    9933:	48 8d 14 85 00 00 00 	lea    0x0(,%rax,4),%rdx
    993a:	00 
    993b:	48 8d 05 fe b6 00 00 	lea    0xb6fe(%rip),%rax        # 15040 <g_12>
    9942:	c7 04 02 f7 ff ff ff 	movl   $0xfffffff7,(%rdx,%rax,1)
    9949:	8b 05 cd b7 00 00    	mov    0xb7cd(%rip),%eax        # 1511c <g_41>
    994f:	83 c0 01             	add    $0x1,%eax
    9952:	89 05 c4 b7 00 00    	mov    %eax,0xb7c4(%rip)        # 1511c <g_41>
    9958:	8b 05 be b7 00 00    	mov    0xb7be(%rip),%eax        # 1511c <g_41>
    995e:	83 f8 05             	cmp    $0x5,%eax
    9961:	7e a3                	jle    9906 <func_19+0x1976>
    9963:	8b 05 af b7 00 00    	mov    0xb7af(%rip),%eax        # 15118 <g_40>
    9969:	83 c0 01             	add    $0x1,%eax
    996c:	89 05 a6 b7 00 00    	mov    %eax,0xb7a6(%rip)        # 15118 <g_40>
    9972:	8b 05 a0 b7 00 00    	mov    0xb7a0(%rip),%eax        # 15118 <g_40>
    9978:	85 c0                	test   %eax,%eax
    997a:	0f 8e 7a ff ff ff    	jle    98fa <func_19+0x196a>
    9980:	0f b6 85 1c ed ff ff 	movzbl -0x12e4(%rbp),%eax
    9987:	83 c0 01             	add    $0x1,%eax
    998a:	88 85 1c ed ff ff    	mov    %al,-0x12e4(%rbp)
    9990:	80 bd 1c ed ff ff 08 	cmpb   $0x8,-0x12e4(%rbp)
    9997:	0f 8e 51 ff ff ff    	jle    98ee <func_19+0x195e>
    999d:	c7 05 71 b7 00 00 f8 	movl   $0xfffffff8,0xb771(%rip)        # 15118 <g_40>
    99a4:	ff ff ff 
    99a7:	e9 37 02 00 00       	jmpq   9be3 <func_19+0x1c53>
    99ac:	c7 85 90 ed ff ff 46 	movl   $0xfb66c146,-0x1270(%rbp)
    99b3:	c1 66 fb 
    99b6:	c7 85 94 ed ff ff 01 	movl   $0x1,-0x126c(%rbp)
    99bd:	00 00 00 
    99c0:	c7 85 98 ed ff ff 0c 	movl   $0x76a5d0c,-0x1268(%rbp)
    99c7:	5d 6a 07 
    99ca:	48 c7 85 58 ee ff ff 	movq   $0x0,-0x11a8(%rbp)
    99d1:	00 00 00 00 
    99d5:	c7 85 9c ed ff ff 22 	movl   $0xeb29d522,-0x1264(%rbp)
    99dc:	d5 29 eb 
    99df:	48 8d 05 7a b7 00 00 	lea    0xb77a(%rip),%rax        # 15160 <g_157>
    99e6:	48 89 85 a8 ed ff ff 	mov    %rax,-0x1258(%rbp)
    99ed:	48 8d 85 a8 ed ff ff 	lea    -0x1258(%rbp),%rax
    99f4:	48 89 85 60 ee ff ff 	mov    %rax,-0x11a0(%rbp)
    99fb:	48 8d 05 66 cd 00 00 	lea    0xcd66(%rip),%rax        # 16768 <g_488>
    9a02:	48 89 85 68 ee ff ff 	mov    %rax,-0x1198(%rbp)
    9a09:	48 8d 05 a8 cf 00 00 	lea    0xcfa8(%rip),%rax        # 169b8 <g_744>
    9a10:	48 89 85 70 ee ff ff 	mov    %rax,-0x1190(%rbp)
    9a17:	48 c7 85 78 ee ff ff 	movq   $0x6,-0x1188(%rbp)
    9a1e:	06 00 00 00 
    9a22:	c7 85 50 ed ff ff 00 	movl   $0x0,-0x12b0(%rbp)
    9a29:	00 00 00 
    9a2c:	eb 1e                	jmp    9a4c <func_19+0x1abc>
    9a2e:	8b 85 50 ed ff ff    	mov    -0x12b0(%rbp),%eax
    9a34:	48 98                	cltq   
    9a36:	48 8d 15 d3 cc 00 00 	lea    0xccd3(%rip),%rdx        # 16710 <g_229>
    9a3d:	48 89 94 c5 a0 ee ff 	mov    %rdx,-0x1160(%rbp,%rax,8)
    9a44:	ff 
    9a45:	83 85 50 ed ff ff 01 	addl   $0x1,-0x12b0(%rbp)
    9a4c:	83 bd 50 ed ff ff 02 	cmpl   $0x2,-0x12b0(%rbp)
    9a53:	7e d9                	jle    9a2e <func_19+0x1a9e>
    9a55:	8b 85 4c ed ff ff    	mov    -0x12b4(%rbp),%eax
    9a5b:	89 85 90 ed ff ff    	mov    %eax,-0x1270(%rbp)
    9a61:	8b 95 90 ed ff ff    	mov    -0x1270(%rbp),%edx
    9a67:	48 8b 85 20 ed ff ff 	mov    -0x12e0(%rbp),%rax
    9a6e:	89 10                	mov    %edx,(%rax)
    9a70:	48 8b 05 f1 c7 00 00 	mov    0xc7f1(%rip),%rax        # 16268 <g_46>
    9a77:	48 8b 95 20 ed ff ff 	mov    -0x12e0(%rbp),%rdx
    9a7e:	8b 12                	mov    (%rdx),%edx
    9a80:	89 10                	mov    %edx,(%rax)
    9a82:	48 83 bd c8 ed ff ff 	cmpq   $0x0,-0x1238(%rbp)
    9a89:	00 
    9a8a:	0f 85 64 01 00 00    	jne    9bf4 <func_19+0x1c64>
    9a90:	48 83 bd c8 ed ff ff 	cmpq   $0x0,-0x1238(%rbp)
    9a97:	00 
    9a98:	0f 85 59 01 00 00    	jne    9bf7 <func_19+0x1c67>
    9a9e:	c7 85 4c ed ff ff 00 	movl   $0x0,-0x12b4(%rbp)
    9aa5:	00 00 00 
    9aa8:	e9 1a 01 00 00       	jmpq   9bc7 <func_19+0x1c37>
    9aad:	48 c7 85 e0 ee ff ff 	movq   $0x0,-0x1120(%rbp)
    9ab4:	00 00 00 00 
    9ab8:	48 c7 85 e8 ee ff ff 	movq   $0x0,-0x1118(%rbp)
    9abf:	00 00 00 00 
    9ac3:	48 c7 85 f0 ee ff ff 	movq   $0x0,-0x1110(%rbp)
    9aca:	00 00 00 00 
    9ace:	48 c7 85 f8 ee ff ff 	movq   $0x0,-0x1108(%rbp)
    9ad5:	00 00 00 00 
    9ad9:	66 c7 85 46 ed ff ff 	movw   $0x799d,-0x12ba(%rbp)
    9ae0:	9d 79 
    9ae2:	48 c7 85 80 ee ff ff 	movq   $0x0,-0x1180(%rbp)
    9ae9:	00 00 00 00 
    9aed:	c6 85 3d ed ff ff 55 	movb   $0x55,-0x12c3(%rbp)
    9af4:	48 8d 85 90 f1 ff ff 	lea    -0xe70(%rbp),%rax
    9afb:	48 8d 15 de bd 00 00 	lea    0xbdde(%rip),%rdx        # 158e0 <g_2537+0x608>
    9b02:	b9 28 00 00 00       	mov    $0x28,%ecx
    9b07:	48 89 c7             	mov    %rax,%rdi
    9b0a:	48 89 d6             	mov    %rdx,%rsi
    9b0d:	f3 48 a5             	rep movsq %ds:(%rsi),%es:(%rdi)
    9b10:	48 8d 85 90 f1 ff ff 	lea    -0xe70(%rbp),%rax
    9b17:	48 05 a8 00 00 00    	add    $0xa8,%rax
    9b1d:	48 89 85 88 ee ff ff 	mov    %rax,-0x1178(%rbp)
    9b24:	48 b8 37 b1 40 b7 98 	movabs $0xbe4f7c98b740b137,%rax
    9b2b:	7c 4f be 
    9b2e:	48 89 85 90 ee ff ff 	mov    %rax,-0x1170(%rbp)
    9b35:	48 c7 85 b0 ed ff ff 	movq   $0x0,-0x1250(%rbp)
    9b3c:	00 00 00 00 
    9b40:	48 8d 85 b0 ed ff ff 	lea    -0x1250(%rbp),%rax
    9b47:	48 89 85 b8 ed ff ff 	mov    %rax,-0x1248(%rbp)
    9b4e:	48 8d 85 00 ef ff ff 	lea    -0x1100(%rbp),%rax
    9b55:	48 83 c0 48          	add    $0x48,%rax
    9b59:	48 89 85 c0 ed ff ff 	mov    %rax,-0x1240(%rbp)
    9b60:	48 8d 85 c0 ed ff ff 	lea    -0x1240(%rbp),%rax
    9b67:	48 89 85 98 ee ff ff 	mov    %rax,-0x1168(%rbp)
    9b6e:	c7 85 54 ed ff ff 00 	movl   $0x0,-0x12ac(%rbp)
    9b75:	00 00 00 
    9b78:	eb 1e                	jmp    9b98 <func_19+0x1c08>
    9b7a:	8b 85 54 ed ff ff    	mov    -0x12ac(%rbp),%eax
    9b80:	48 98                	cltq   
    9b82:	48 8d 95 b8 ed ff ff 	lea    -0x1248(%rbp),%rdx
    9b89:	48 89 94 c5 00 ef ff 	mov    %rdx,-0x1100(%rbp,%rax,8)
    9b90:	ff 
    9b91:	83 85 54 ed ff ff 01 	addl   $0x1,-0x12ac(%rbp)
    9b98:	83 bd 54 ed ff ff 09 	cmpl   $0x9,-0x12ac(%rbp)
    9b9f:	7e d9                	jle    9b7a <func_19+0x1bea>
    9ba1:	66 83 ad 46 ed ff ff 	subw   $0x1,-0x12ba(%rbp)
    9ba8:	01 
    9ba9:	8b 85 4c ed ff ff    	mov    -0x12b4(%rbp),%eax
    9baf:	0f be c0             	movsbl %al,%eax
    9bb2:	be 01 00 00 00       	mov    $0x1,%esi
    9bb7:	89 c7                	mov    %eax,%edi
    9bb9:	e8 34 c6 ff ff       	callq  61f2 <safe_sub_func_int8_t_s_s>
    9bbe:	0f be c0             	movsbl %al,%eax
    9bc1:	89 85 4c ed ff ff    	mov    %eax,-0x12b4(%rbp)
    9bc7:	83 bd 4c ed ff ff f3 	cmpl   $0xfffffff3,-0x12b4(%rbp)
    9bce:	0f 8c d9 fe ff ff    	jl     9aad <func_19+0x1b1d>
    9bd4:	8b 05 3e b5 00 00    	mov    0xb53e(%rip),%eax        # 15118 <g_40>
    9bda:	83 e8 01             	sub    $0x1,%eax
    9bdd:	89 05 35 b5 00 00    	mov    %eax,0xb535(%rip)        # 15118 <g_40>
    9be3:	8b 05 2f b5 00 00    	mov    0xb52f(%rip),%eax        # 15118 <g_40>
    9be9:	83 f8 f7             	cmp    $0xfffffff7,%eax
    9bec:	0f 8d ba fd ff ff    	jge    99ac <func_19+0x1a1c>
    9bf2:	eb 04                	jmp    9bf8 <func_19+0x1c68>
    9bf4:	90                   	nop
    9bf5:	eb 01                	jmp    9bf8 <func_19+0x1c68>
    9bf7:	90                   	nop
    9bf8:	8b 05 b6 b6 00 00    	mov    0xb6b6(%rip),%eax        # 152b4 <g_2177+0x14>
    9bfe:	85 c0                	test   %eax,%eax
    9c00:	0f b7 85 18 ed ff ff 	movzwl -0x12e8(%rbp),%eax
    9c07:	0f b6 c0             	movzbl %al,%eax
    9c0a:	be 04 00 00 00       	mov    $0x4,%esi
    9c0f:	89 c7                	mov    %eax,%edi
    9c11:	e8 44 cf ff ff       	callq  6b5a <safe_add_func_uint8_t_u_u>
    9c16:	0f b6 c0             	movzbl %al,%eax
    9c19:	66 89 85 18 ed ff ff 	mov    %ax,-0x12e8(%rbp)
    9c20:	66 83 bd 18 ed ff ff 	cmpw   $0x2b,-0x12e8(%rbp)
    9c27:	2b 
    9c28:	0f 87 d1 eb ff ff    	ja     87ff <func_19+0x86f>
    9c2e:	66 c7 05 4d b6 00 00 	movw   $0x0,0xb64d(%rip)        # 15284 <g_1970>
    9c35:	00 00 
    9c37:	e9 e1 01 00 00       	jmpq   9e1d <func_19+0x1e8d>
    9c3c:	66 c7 85 42 ed ff ff 	movw   $0x34f4,-0x12be(%rbp)
    9c43:	f4 34 
    9c45:	48 8d 85 c0 ef ff ff 	lea    -0x1040(%rbp),%rax
    9c4c:	48 83 c0 7f          	add    $0x7f,%rax
    9c50:	48 89 85 c0 f8 ff ff 	mov    %rax,-0x740(%rbp)
    9c57:	48 8d 05 92 dc 00 00 	lea    0xdc92(%rip),%rax        # 178f0 <g_210>
    9c5e:	48 89 85 c8 f8 ff ff 	mov    %rax,-0x738(%rbp)
    9c65:	48 8d 05 84 dc 00 00 	lea    0xdc84(%rip),%rax        # 178f0 <g_210>
    9c6c:	48 89 85 d0 f8 ff ff 	mov    %rax,-0x730(%rbp)
    9c73:	48 8d 85 c0 ef ff ff 	lea    -0x1040(%rbp),%rax
    9c7a:	48 83 c0 7f          	add    $0x7f,%rax
    9c7e:	48 89 85 d8 f8 ff ff 	mov    %rax,-0x728(%rbp)
    9c85:	48 8d 05 64 dc 00 00 	lea    0xdc64(%rip),%rax        # 178f0 <g_210>
    9c8c:	48 89 85 e0 f8 ff ff 	mov    %rax,-0x720(%rbp)
    9c93:	48 8d 05 56 dc 00 00 	lea    0xdc56(%rip),%rax        # 178f0 <g_210>
    9c9a:	48 89 85 e8 f8 ff ff 	mov    %rax,-0x718(%rbp)
    9ca1:	48 8d 85 c0 ef ff ff 	lea    -0x1040(%rbp),%rax
    9ca8:	48 83 c0 7f          	add    $0x7f,%rax
    9cac:	48 89 85 f0 f8 ff ff 	mov    %rax,-0x710(%rbp)
    9cb3:	c7 85 00 f5 ff ff 3e 	movl   $0x4d36973e,-0xb00(%rbp)
    9cba:	97 36 4d 
    9cbd:	c7 85 04 f5 ff ff 3e 	movl   $0x4d36973e,-0xafc(%rbp)
    9cc4:	97 36 4d 
    9cc7:	c7 85 08 f5 ff ff 3e 	movl   $0x4d36973e,-0xaf8(%rbp)
    9cce:	97 36 4d 
    9cd1:	c7 85 0c f5 ff ff 3e 	movl   $0x4d36973e,-0xaf4(%rbp)
    9cd8:	97 36 4d 
    9cdb:	c7 85 10 f5 ff ff 3e 	movl   $0x4d36973e,-0xaf0(%rbp)
    9ce2:	97 36 4d 
    9ce5:	c7 85 14 f5 ff ff 3e 	movl   $0x4d36973e,-0xaec(%rbp)
    9cec:	97 36 4d 
    9cef:	c7 85 18 f5 ff ff 3e 	movl   $0x4d36973e,-0xae8(%rbp)
    9cf6:	97 36 4d 
    9cf9:	c7 85 1c f5 ff ff 3e 	movl   $0x4d36973e,-0xae4(%rbp)
    9d00:	97 36 4d 
    9d03:	c7 85 20 f5 ff ff 3e 	movl   $0x4d36973e,-0xae0(%rbp)
    9d0a:	97 36 4d 
    9d0d:	c7 85 24 f5 ff ff 3e 	movl   $0x4d36973e,-0xadc(%rbp)
    9d14:	97 36 4d 
    9d17:	48 8b 05 aa cc 00 00 	mov    0xccaa(%rip),%rax        # 169c8 <g_803>
    9d1e:	48 8b 00             	mov    (%rax),%rax
    9d21:	48 8b 00             	mov    (%rax),%rax
    9d24:	48 8b 00             	mov    (%rax),%rax
    9d27:	48 8b 95 20 ed ff ff 	mov    -0x12e0(%rbp),%rdx
    9d2e:	48 89 10             	mov    %rdx,(%rax)
    9d31:	0f b7 85 42 ed ff ff 	movzwl -0x12be(%rbp),%eax
    9d38:	0f be c0             	movsbl %al,%eax
    9d3b:	89 c6                	mov    %eax,%esi
    9d3d:	bf e1 ff ff ff       	mov    $0xffffffe1,%edi
    9d42:	e8 cb c4 ff ff       	callq  6212 <safe_mul_func_int8_t_s_s>
    9d47:	44 0f be e8          	movsbl %al,%r13d
    9d4b:	0f bf 9d 42 ed ff ff 	movswl -0x12be(%rbp),%ebx
    9d52:	0f bf 85 42 ed ff ff 	movswl -0x12be(%rbp),%eax
    9d59:	be ff ff ff ff       	mov    $0xffffffff,%esi
    9d5e:	89 c7                	mov    %eax,%edi
    9d60:	e8 c5 c7 ff ff       	callq  652a <safe_rshift_func_int16_t_s_s>
    9d65:	44 0f bf e0          	movswl %ax,%r12d
    9d69:	48 8b 85 20 ed ff ff 	mov    -0x12e0(%rbp),%rax
    9d70:	8b 00                	mov    (%rax),%eax
    9d72:	f7 d0                	not    %eax
    9d74:	0f be d0             	movsbl %al,%edx
    9d77:	48 8b 05 4a d6 00 00 	mov    0xd64a(%rip),%rax        # 173c8 <g_1742>
    9d7e:	48 8b 00             	mov    (%rax),%rax
    9d81:	48 8b 00             	mov    (%rax),%rax
    9d84:	48 83 f8 ff          	cmp    $0xffffffffffffffff,%rax
    9d88:	0f 94 c0             	sete   %al
    9d8b:	0f b6 c0             	movzbl %al,%eax
    9d8e:	89 85 14 f5 ff ff    	mov    %eax,-0xaec(%rbp)
    9d94:	8b 85 14 f5 ff ff    	mov    -0xaec(%rbp),%eax
    9d9a:	85 c0                	test   %eax,%eax
    9d9c:	0f 95 c0             	setne  %al
    9d9f:	0f b6 c0             	movzbl %al,%eax
    9da2:	89 d6                	mov    %edx,%esi
    9da4:	89 c7                	mov    %eax,%edi
    9da6:	e8 bf c4 ff ff       	callq  626a <safe_div_func_int8_t_s_s>
    9dab:	0f b6 c0             	movzbl %al,%eax
    9dae:	44 89 e6             	mov    %r12d,%esi
    9db1:	89 c7                	mov    %eax,%edi
    9db3:	e8 94 ce ff ff       	callq  6c4c <safe_lshift_func_uint8_t_u_u>
    9db8:	0f be 95 1c ed ff ff 	movsbl -0x12e4(%rbp),%edx
    9dbf:	0f b7 85 18 ed ff ff 	movzwl -0x12e8(%rbp),%eax
    9dc6:	21 c2                	and    %eax,%edx
    9dc8:	48 8b 05 41 c9 00 00 	mov    0xc941(%rip),%rax        # 16710 <g_229>
    9dcf:	48 63 d2             	movslq %edx,%rdx
    9dd2:	48 89 10             	mov    %rdx,(%rax)
    9dd5:	48 8b 00             	mov    (%rax),%rax
    9dd8:	48 ba c3 f5 83 b5 1e 	movabs $0x70230d1eb583f5c3,%rdx
    9ddf:	0d 23 70 
    9de2:	48 39 d0             	cmp    %rdx,%rax
    9de5:	0f 97 c0             	seta   %al
    9de8:	0f b6 c0             	movzbl %al,%eax
    9deb:	89 de                	mov    %ebx,%esi
    9ded:	89 c7                	mov    %eax,%edi
    9def:	e8 11 c8 ff ff       	callq  6605 <safe_sub_func_int32_t_s_s>
    9df4:	44 89 e9             	mov    %r13d,%ecx
    9df7:	09 c1                	or     %eax,%ecx
    9df9:	48 8b 05 50 c9 00 00 	mov    0xc950(%rip),%rax        # 16750 <g_359>
    9e00:	48 8b 00             	mov    (%rax),%rax
    9e03:	48 8b 00             	mov    (%rax),%rax
    9e06:	8b 10                	mov    (%rax),%edx
    9e08:	09 ca                	or     %ecx,%edx
    9e0a:	89 10                	mov    %edx,(%rax)
    9e0c:	0f b7 05 71 b4 00 00 	movzwl 0xb471(%rip),%eax        # 15284 <g_1970>
    9e13:	83 c0 01             	add    $0x1,%eax
    9e16:	66 89 05 67 b4 00 00 	mov    %ax,0xb467(%rip)        # 15284 <g_1970>
    9e1d:	0f b7 05 60 b4 00 00 	movzwl 0xb460(%rip),%eax        # 15284 <g_1970>
    9e24:	66 83 f8 2f          	cmp    $0x2f,%ax
    9e28:	0f 85 0e fe ff ff    	jne    9c3c <func_19+0x1cac>
    9e2e:	c7 05 80 b3 00 00 00 	movl   $0x0,0xb380(%rip)        # 151b8 <g_422>
    9e35:	00 00 00 
    9e38:	e9 cc 02 00 00       	jmpq   a109 <func_19+0x2179>
    9e3d:	c7 85 74 ed ff ff c5 	movl   $0x4bce4bc5,-0x128c(%rbp)
    9e44:	4b ce 4b 
    9e47:	c7 85 78 ed ff ff f9 	movl   $0xfffffff9,-0x1288(%rbp)
    9e4e:	ff ff ff 
    9e51:	c6 85 3b ed ff ff ff 	movb   $0xff,-0x12c5(%rbp)
    9e58:	c7 85 7c ed ff ff 01 	movl   $0x1,-0x1284(%rbp)
    9e5f:	00 00 00 
    9e62:	c7 85 80 ed ff ff fc 	movl   $0xfffffffc,-0x1280(%rbp)
    9e69:	ff ff ff 
    9e6c:	c7 85 c0 f8 ff ff 00 	movl   $0x0,-0x740(%rbp)
    9e73:	00 00 00 
    9e76:	c7 85 c4 f8 ff ff 75 	movl   $0xf896b575,-0x73c(%rbp)
    9e7d:	b5 96 f8 
    9e80:	c7 85 c8 f8 ff ff 00 	movl   $0x0,-0x738(%rbp)
    9e87:	00 00 00 
    9e8a:	c7 85 cc f8 ff ff 9d 	movl   $0xba1c739d,-0x734(%rbp)
    9e91:	73 1c ba 
    9e94:	c7 85 d0 f8 ff ff 00 	movl   $0x0,-0x730(%rbp)
    9e9b:	00 00 00 
    9e9e:	c7 85 d4 f8 ff ff ff 	movl   $0xffffffff,-0x72c(%rbp)
    9ea5:	ff ff ff 
    9ea8:	c7 85 d8 f8 ff ff 9d 	movl   $0xba1c739d,-0x728(%rbp)
    9eaf:	73 1c ba 
    9eb2:	c7 85 dc f8 ff ff 9d 	movl   $0xba1c739d,-0x724(%rbp)
    9eb9:	73 1c ba 
    9ebc:	c7 85 e0 f8 ff ff 75 	movl   $0xf896b575,-0x720(%rbp)
    9ec3:	b5 96 f8 
    9ec6:	c7 85 e4 f8 ff ff 75 	movl   $0xf896b575,-0x71c(%rbp)
    9ecd:	b5 96 f8 
    9ed0:	c7 85 e8 f8 ff ff fa 	movl   $0xfffffffa,-0x718(%rbp)
    9ed7:	ff ff ff 
    9eda:	c7 85 ec f8 ff ff ff 	movl   $0xffffffff,-0x714(%rbp)
    9ee1:	ff ff ff 
    9ee4:	c7 85 f0 f8 ff ff ff 	movl   $0xffffffff,-0x710(%rbp)
    9eeb:	ff ff ff 
    9eee:	c7 85 f4 f8 ff ff 00 	movl   $0x0,-0x70c(%rbp)
    9ef5:	00 00 00 
    9ef8:	c7 85 f8 f8 ff ff fa 	movl   $0xfffffffa,-0x708(%rbp)
    9eff:	ff ff ff 
    9f02:	c7 85 fc f8 ff ff 00 	movl   $0x0,-0x704(%rbp)
    9f09:	00 00 00 
    9f0c:	c7 85 00 f9 ff ff 75 	movl   $0xf896b575,-0x700(%rbp)
    9f13:	b5 96 f8 
    9f16:	c7 85 04 f9 ff ff 00 	movl   $0x0,-0x6fc(%rbp)
    9f1d:	00 00 00 
    9f20:	c7 85 08 f9 ff ff 9d 	movl   $0xba1c739d,-0x6f8(%rbp)
    9f27:	73 1c ba 
    9f2a:	c7 85 0c f9 ff ff fa 	movl   $0xfffffffa,-0x6f4(%rbp)
    9f31:	ff ff ff 
    9f34:	c7 85 10 f9 ff ff 00 	movl   $0x0,-0x6f0(%rbp)
    9f3b:	00 00 00 
    9f3e:	c7 85 14 f9 ff ff 00 	movl   $0x0,-0x6ec(%rbp)
    9f45:	00 00 00 
    9f48:	c7 85 18 f9 ff ff 00 	movl   $0x0,-0x6e8(%rbp)
    9f4f:	00 00 00 
    9f52:	c7 85 1c f9 ff ff 00 	movl   $0x0,-0x6e4(%rbp)
    9f59:	00 00 00 
    9f5c:	c7 85 20 f9 ff ff 00 	movl   $0x0,-0x6e0(%rbp)
    9f63:	00 00 00 
    9f66:	c7 85 24 f9 ff ff 00 	movl   $0x0,-0x6dc(%rbp)
    9f6d:	00 00 00 
    9f70:	c7 85 28 f9 ff ff 75 	movl   $0xf896b575,-0x6d8(%rbp)
    9f77:	b5 96 f8 
    9f7a:	c7 85 2c f9 ff ff ff 	movl   $0xffffffff,-0x6d4(%rbp)
    9f81:	ff ff ff 
    9f84:	c7 85 30 f9 ff ff 00 	movl   $0x0,-0x6d0(%rbp)
    9f8b:	00 00 00 
    9f8e:	c7 85 34 f9 ff ff 75 	movl   $0xf896b575,-0x6cc(%rbp)
    9f95:	b5 96 f8 
    9f98:	c7 85 38 f9 ff ff 00 	movl   $0x0,-0x6c8(%rbp)
    9f9f:	00 00 00 
    9fa2:	c7 85 3c f9 ff ff 9d 	movl   $0xba1c739d,-0x6c4(%rbp)
    9fa9:	73 1c ba 
    9fac:	c7 85 40 f9 ff ff 00 	movl   $0x0,-0x6c0(%rbp)
    9fb3:	00 00 00 
    9fb6:	c7 85 44 f9 ff ff ff 	movl   $0xffffffff,-0x6bc(%rbp)
    9fbd:	ff ff ff 
    9fc0:	c7 85 48 f9 ff ff 9d 	movl   $0xba1c739d,-0x6b8(%rbp)
    9fc7:	73 1c ba 
    9fca:	c7 85 4c f9 ff ff 9d 	movl   $0xba1c739d,-0x6b4(%rbp)
    9fd1:	73 1c ba 
    9fd4:	c7 85 50 f9 ff ff 75 	movl   $0xf896b575,-0x6b0(%rbp)
    9fdb:	b5 96 f8 
    9fde:	c7 85 54 f9 ff ff 75 	movl   $0xf896b575,-0x6ac(%rbp)
    9fe5:	b5 96 f8 
    9fe8:	c7 85 58 f9 ff ff fa 	movl   $0xfffffffa,-0x6a8(%rbp)
    9fef:	ff ff ff 
    9ff2:	c7 85 5c f9 ff ff ff 	movl   $0xffffffff,-0x6a4(%rbp)
    9ff9:	ff ff ff 
    9ffc:	48 c7 85 18 ee ff ff 	movq   $0x1,-0x11e8(%rbp)
    a003:	01 00 00 00 
    a007:	c7 85 84 ed ff ff f6 	movl   $0xfffffff6,-0x127c(%rbp)
    a00e:	ff ff ff 
    a011:	48 8d 05 30 cb 00 00 	lea    0xcb30(%rip),%rax        # 16b48 <g_1123+0x8>
    a018:	48 89 85 20 ee ff ff 	mov    %rax,-0x11e0(%rbp)
    a01f:	48 c7 85 28 ee ff ff 	movq   $0xfffffffffffffffd,-0x11d8(%rbp)
    a026:	fd ff ff ff 
    a02a:	66 c7 85 40 ed ff ff 	movw   $0x9,-0x12c0(%rbp)
    a031:	09 00 
    a033:	c6 85 3c ed ff ff 02 	movb   $0x2,-0x12c4(%rbp)
    a03a:	c7 85 00 f5 ff ff 4e 	movl   $0xffdaa04e,-0xb00(%rbp)
    a041:	a0 da ff 
    a044:	c7 85 04 f5 ff ff 4e 	movl   $0xffdaa04e,-0xafc(%rbp)
    a04b:	a0 da ff 
    a04e:	c7 85 08 f5 ff ff 4e 	movl   $0xffdaa04e,-0xaf8(%rbp)
    a055:	a0 da ff 
    a058:	c7 85 0c f5 ff ff 4e 	movl   $0xffdaa04e,-0xaf4(%rbp)
    a05f:	a0 da ff 
    a062:	c7 85 10 f5 ff ff 4e 	movl   $0xffdaa04e,-0xaf0(%rbp)
    a069:	a0 da ff 
    a06c:	48 c7 85 30 ee ff ff 	movq   $0x0,-0x11d0(%rbp)
    a073:	00 00 00 00 
    a077:	48 8d 05 52 d3 00 00 	lea    0xd352(%rip),%rax        # 173d0 <g_1741>
    a07e:	48 89 85 38 ee ff ff 	mov    %rax,-0x11c8(%rbp)
    a085:	48 8d 05 cc b0 00 00 	lea    0xb0cc(%rip),%rax        # 15158 <g_155>
    a08c:	48 89 85 b0 ed ff ff 	mov    %rax,-0x1250(%rbp)
    a093:	48 8d 85 b0 ed ff ff 	lea    -0x1250(%rbp),%rax
    a09a:	48 89 85 b8 ed ff ff 	mov    %rax,-0x1248(%rbp)
    a0a1:	48 8d 85 b8 ed ff ff 	lea    -0x1248(%rbp),%rax
    a0a8:	48 89 85 c0 ed ff ff 	mov    %rax,-0x1240(%rbp)
    a0af:	48 8d 85 c0 ed ff ff 	lea    -0x1240(%rbp),%rax
    a0b6:	48 89 85 40 ee ff ff 	mov    %rax,-0x11c0(%rbp)
    a0bd:	c7 85 58 ed ff ff 00 	movl   $0x0,-0x12a8(%rbp)
    a0c4:	00 00 00 
    a0c7:	eb 19                	jmp    a0e2 <func_19+0x2152>
    a0c9:	8b 85 58 ed ff ff    	mov    -0x12a8(%rbp),%eax
    a0cf:	48 98                	cltq   
    a0d1:	66 c7 84 45 d0 f2 ff 	movw   $0xff8d,-0xd30(%rbp,%rax,2)
    a0d8:	ff 8d ff 
    a0db:	83 85 58 ed ff ff 01 	addl   $0x1,-0x12a8(%rbp)
    a0e2:	83 bd 58 ed ff ff 03 	cmpl   $0x3,-0x12a8(%rbp)
    a0e9:	7e de                	jle    a0c9 <func_19+0x2139>
    a0eb:	8b 05 c7 b0 00 00    	mov    0xb0c7(%rip),%eax        # 151b8 <g_422>
    a0f1:	0f be c0             	movsbl %al,%eax
    a0f4:	be 03 00 00 00       	mov    $0x3,%esi
    a0f9:	89 c7                	mov    %eax,%edi
    a0fb:	e8 d4 c0 ff ff       	callq  61d4 <safe_add_func_int8_t_s_s>
    a100:	0f be c0             	movsbl %al,%eax
    a103:	89 05 af b0 00 00    	mov    %eax,0xb0af(%rip)        # 151b8 <g_422>
    a109:	8b 05 a9 b0 00 00    	mov    0xb0a9(%rip),%eax        # 151b8 <g_422>
    a10f:	83 f8 24             	cmp    $0x24,%eax
    a112:	0f 85 25 fd ff ff    	jne    9e3d <func_19+0x1ead>
    a118:	48 8b 85 f8 ed ff ff 	mov    -0x1208(%rbp),%rax
    a11f:	48 8b 00             	mov    (%rax),%rax
    a122:	8b 00                	mov    (%rax),%eax
    a124:	48 8b 5d d8          	mov    -0x28(%rbp),%rbx
    a128:	64 48 33 1c 25 28 00 	xor    %fs:0x28,%rbx
    a12f:	00 00 
    a131:	74 05                	je     a138 <func_19+0x21a8>
    a133:	e8 38 bf ff ff       	callq  6070 <__stack_chk_fail@plt>
    a138:	48 81 c4 d8 12 00 00 	add    $0x12d8,%rsp
    a13f:	5b                   	pop    %rbx
    a140:	41 5c                	pop    %r12
    a142:	41 5d                	pop    %r13
    a144:	5d                   	pop    %rbp
    a145:	c3                   	retq   

000000000000a146 <func_28>:
    a146:	f3 0f 1e fa          	endbr64 
    a14a:	55                   	push   %rbp
    a14b:	48 89 e5             	mov    %rsp,%rbp
    a14e:	48 83 ec 40          	sub    $0x40,%rsp
    a152:	48 89 7d d8          	mov    %rdi,-0x28(%rbp)
    a156:	48 89 75 d0          	mov    %rsi,-0x30(%rbp)
    a15a:	89 d0                	mov    %edx,%eax
    a15c:	88 45 cc             	mov    %al,-0x34(%rbp)
    a15f:	64 48 8b 04 25 28 00 	mov    %fs:0x28,%rax
    a166:	00 00 
    a168:	48 89 45 f8          	mov    %rax,-0x8(%rbp)
    a16c:	31 c0                	xor    %eax,%eax
    a16e:	48 8d 05 33 af 00 00 	lea    0xaf33(%rip),%rax        # 150a8 <g_12+0x68>
    a175:	48 89 45 e8          	mov    %rax,-0x18(%rbp)
    a179:	48 8d 45 e8          	lea    -0x18(%rbp),%rax
    a17d:	48 89 45 f0          	mov    %rax,-0x10(%rbp)
    a181:	c7 45 e0 ff ff ff ff 	movl   $0xffffffff,-0x20(%rbp)
    a188:	c7 45 e4 12 d0 a9 e9 	movl   $0xe9a9d012,-0x1c(%rbp)
    a18f:	48 8b 45 f0          	mov    -0x10(%rbp),%rax
    a193:	48 c7 00 00 00 00 00 	movq   $0x0,(%rax)
    a19a:	c7 45 e0 14 82 94 2b 	movl   $0x2b948214,-0x20(%rbp)
    a1a1:	c7 45 e0 00 00 00 00 	movl   $0x0,-0x20(%rbp)
    a1a8:	83 7d e0 e2          	cmpl   $0xffffffe2,-0x20(%rbp)
    a1ac:	7c 07                	jl     a1b5 <func_28+0x6f>
    a1ae:	48 0f be 45 cc       	movsbq -0x34(%rbp),%rax
    a1b3:	eb 05                	jmp    a1ba <func_28+0x74>
    a1b5:	8b 45 e4             	mov    -0x1c(%rbp),%eax
    a1b8:	48 98                	cltq   
    a1ba:	48 8b 4d f8          	mov    -0x8(%rbp),%rcx
    a1be:	64 48 33 0c 25 28 00 	xor    %fs:0x28,%rcx
    a1c5:	00 00 
    a1c7:	74 05                	je     a1ce <func_28+0x88>
    a1c9:	e8 a2 be ff ff       	callq  6070 <__stack_chk_fail@plt>
    a1ce:	c9                   	leaveq 
    a1cf:	c3                   	retq   

000000000000a1d0 <func_59>:
    a1d0:	f3 0f 1e fa          	endbr64 
    a1d4:	55                   	push   %rbp
    a1d5:	48 89 e5             	mov    %rsp,%rbp
    a1d8:	41 56                	push   %r14
    a1da:	41 55                	push   %r13
    a1dc:	41 54                	push   %r12
    a1de:	53                   	push   %rbx
    a1df:	48 81 ec 80 04 00 00 	sub    $0x480,%rsp
    a1e6:	48 89 bd 78 fb ff ff 	mov    %rdi,-0x488(%rbp)
    a1ed:	89 d0                	mov    %edx,%eax
    a1ef:	48 89 8d 68 fb ff ff 	mov    %rcx,-0x498(%rbp)
    a1f6:	89 f2                	mov    %esi,%edx
    a1f8:	88 95 74 fb ff ff    	mov    %dl,-0x48c(%rbp)
    a1fe:	88 85 70 fb ff ff    	mov    %al,-0x490(%rbp)
    a204:	64 48 8b 04 25 28 00 	mov    %fs:0x28,%rax
    a20b:	00 00 
    a20d:	48 89 45 d8          	mov    %rax,-0x28(%rbp)
    a211:	31 c0                	xor    %eax,%eax
    a213:	c7 85 8c fb ff ff ff 	movl   $0xffffffff,-0x474(%rbp)
    a21a:	ff ff ff 
    a21d:	48 c7 85 a0 fb ff ff 	movq   $0x0,-0x460(%rbp)
    a224:	00 00 00 00 
    a228:	48 8d 05 03 b0 00 00 	lea    0xb003(%rip),%rax        # 15232 <g_689>
    a22f:	48 89 85 a8 fb ff ff 	mov    %rax,-0x458(%rbp)
    a236:	48 8d 85 10 fc ff ff 	lea    -0x3f0(%rbp),%rax
    a23d:	48 8d 15 dc 61 00 00 	lea    0x61dc(%rip),%rdx        # 10420 <g_1811+0x3ca>
    a244:	b9 78 00 00 00       	mov    $0x78,%ecx
    a249:	48 89 c7             	mov    %rax,%rdi
    a24c:	48 89 d6             	mov    %rdx,%rsi
    a24f:	f3 48 a5             	rep movsq %ds:(%rsi),%es:(%rdi)
    a252:	48 c7 85 98 fb ff ff 	movq   $0x0,-0x468(%rbp)
    a259:	00 00 00 00 
    a25d:	48 8d 85 98 fb ff ff 	lea    -0x468(%rbp),%rax
    a264:	48 89 85 b0 fb ff ff 	mov    %rax,-0x450(%rbp)
    a26b:	48 c7 85 c0 fb ff ff 	movq   $0x0,-0x440(%rbp)
    a272:	00 00 00 00 
    a276:	48 8d 05 07 b0 00 00 	lea    0xb007(%rip),%rax        # 15284 <g_1970>
    a27d:	48 89 85 c8 fb ff ff 	mov    %rax,-0x438(%rbp)
    a284:	48 c7 85 d0 fb ff ff 	movq   $0x0,-0x430(%rbp)
    a28b:	00 00 00 00 
    a28f:	48 8d 05 ee af 00 00 	lea    0xafee(%rip),%rax        # 15284 <g_1970>
    a296:	48 89 85 d8 fb ff ff 	mov    %rax,-0x428(%rbp)
    a29d:	48 c7 85 e0 fb ff ff 	movq   $0x0,-0x420(%rbp)
    a2a4:	00 00 00 00 
    a2a8:	48 8d 05 d5 af 00 00 	lea    0xafd5(%rip),%rax        # 15284 <g_1970>
    a2af:	48 89 85 e8 fb ff ff 	mov    %rax,-0x418(%rbp)
    a2b6:	48 c7 85 f0 fb ff ff 	movq   $0x0,-0x410(%rbp)
    a2bd:	00 00 00 00 
    a2c1:	48 8d 05 bc af 00 00 	lea    0xafbc(%rip),%rax        # 15284 <g_1970>
    a2c8:	48 89 85 f8 fb ff ff 	mov    %rax,-0x408(%rbp)
    a2cf:	48 c7 85 00 fc ff ff 	movq   $0x0,-0x400(%rbp)
    a2d6:	00 00 00 00 
    a2da:	48 8d 05 a3 af 00 00 	lea    0xafa3(%rip),%rax        # 15284 <g_1970>
    a2e1:	48 89 85 08 fc ff ff 	mov    %rax,-0x3f8(%rbp)
    a2e8:	c7 85 90 fb ff ff 09 	movl   $0x9,-0x470(%rbp)
    a2ef:	00 00 00 
    a2f2:	c7 85 94 fb ff ff 05 	movl   $0x5,-0x46c(%rbp)
    a2f9:	00 00 00 
    a2fc:	48 8d 05 95 ae 00 00 	lea    0xae95(%rip),%rax        # 15198 <g_258+0x18>
    a303:	48 89 85 b8 fb ff ff 	mov    %rax,-0x448(%rbp)
    a30a:	48 8b 05 4f c4 00 00 	mov    0xc44f(%rip),%rax        # 16760 <g_433>
    a311:	0f b7 00             	movzwl (%rax),%eax
    a314:	66 85 c0             	test   %ax,%ax
    a317:	0f 84 e9 01 00 00    	je     a506 <func_59+0x336>
    a31d:	66 0f be 85 74 fb ff 	movsbw -0x48c(%rbp),%ax
    a324:	ff 
    a325:	0f b7 d0             	movzwl %ax,%edx
    a328:	8b 85 8c fb ff ff    	mov    -0x474(%rbp),%eax
    a32e:	0f b7 c0             	movzwl %ax,%eax
    a331:	89 d6                	mov    %edx,%esi
    a333:	89 c7                	mov    %eax,%edi
    a335:	e8 03 ca ff ff       	callq  6d3d <safe_mul_func_uint16_t_u_u>
    a33a:	8b 85 f8 fe ff ff    	mov    -0x108(%rbp),%eax
    a340:	41 89 c5             	mov    %eax,%r13d
    a343:	48 8b 05 c6 c3 00 00 	mov    0xc3c6(%rip),%rax        # 16710 <g_229>
    a34a:	48 8b 00             	mov    (%rax),%rax
    a34d:	49 89 c6             	mov    %rax,%r14
    a350:	48 83 bd 68 fb ff ff 	cmpq   $0x0,-0x498(%rbp)
    a357:	00 
    a358:	0f 85 3e 01 00 00    	jne    a49c <func_59+0x2cc>
    a35e:	44 0f b6 a5 70 fb ff 	movzbl -0x490(%rbp),%r12d
    a365:	ff 
    a366:	0f b6 9d 70 fb ff ff 	movzbl -0x490(%rbp),%ebx
    a36d:	48 8b 05 2c c8 00 00 	mov    0xc82c(%rip),%rax        # 16ba0 <g_1194>
    a374:	48 8b 10             	mov    (%rax),%rdx
    a377:	48 8b 05 22 c8 00 00 	mov    0xc822(%rip),%rax        # 16ba0 <g_1194>
    a37e:	48 8b 00             	mov    (%rax),%rax
    a381:	0f b7 12             	movzwl (%rdx),%edx
    a384:	66 89 10             	mov    %dx,(%rax)
    a387:	8b 85 f8 fe ff ff    	mov    -0x108(%rbp),%eax
    a38d:	0f b7 d0             	movzwl %ax,%edx
    a390:	48 8b 05 11 c8 00 00 	mov    0xc811(%rip),%rax        # 16ba8 <g_1193>
    a397:	48 8b 00             	mov    (%rax),%rax
    a39a:	48 8b 00             	mov    (%rax),%rax
    a39d:	0f b7 08             	movzwl (%rax),%ecx
    a3a0:	48 8b 85 a8 fb ff ff 	mov    -0x458(%rbp),%rax
    a3a7:	0f b7 00             	movzwl (%rax),%eax
    a3aa:	09 c1                	or     %eax,%ecx
    a3ac:	48 8b 85 a8 fb ff ff 	mov    -0x458(%rbp),%rax
    a3b3:	66 89 08             	mov    %cx,(%rax)
    a3b6:	48 8b 85 a8 fb ff ff 	mov    -0x458(%rbp),%rax
    a3bd:	0f b7 00             	movzwl (%rax),%eax
    a3c0:	0f b7 c0             	movzwl %ax,%eax
    a3c3:	89 d6                	mov    %edx,%esi
    a3c5:	89 c7                	mov    %eax,%edi
    a3c7:	e8 53 c9 ff ff       	callq  6d1f <safe_sub_func_uint16_t_u_u>
    a3cc:	48 8b 05 0d d0 00 00 	mov    0xd00d(%rip),%rax        # 173e0 <g_1965>
    a3d3:	48 39 85 b0 fb ff ff 	cmp    %rax,-0x450(%rbp)
    a3da:	0f 95 c0             	setne  %al
    a3dd:	0f b6 c0             	movzbl %al,%eax
    a3e0:	be 04 00 00 00       	mov    $0x4,%esi
    a3e5:	89 c7                	mov    %eax,%edi
    a3e7:	e8 e7 bf ff ff       	callq  63d3 <safe_sub_func_int16_t_s_s>
    a3ec:	0f b6 95 70 fb ff ff 	movzbl -0x490(%rbp),%edx
    a3f3:	8b 85 8c fc ff ff    	mov    -0x374(%rbp),%eax
    a3f9:	39 c2                	cmp    %eax,%edx
    a3fb:	0f 97 c0             	seta   %al
    a3fe:	0f b6 d0             	movzbl %al,%edx
    a401:	0f be 85 74 fb ff ff 	movsbl -0x48c(%rbp),%eax
    a408:	39 c2                	cmp    %eax,%edx
    a40a:	0f 9f c0             	setg   %al
    a40d:	0f b6 c0             	movzbl %al,%eax
    a410:	48 be 65 87 b9 55 21 	movabs $0xa470062155b98765,%rsi
    a417:	06 70 a4 
    a41a:	48 89 c7             	mov    %rax,%rdi
    a41d:	e8 5e cc ff ff       	callq  7080 <safe_mod_func_uint64_t_u_u>
    a422:	48 8b 85 68 fb ff ff 	mov    -0x498(%rbp),%rax
    a429:	48 c7 c6 f9 ff ff ff 	mov    $0xfffffffffffffff9,%rsi
    a430:	48 89 c7             	mov    %rax,%rdi
    a433:	e8 bf c5 ff ff       	callq  69f7 <safe_div_func_int64_t_s_s>
    a438:	48 85 c0             	test   %rax,%rax
    a43b:	74 10                	je     a44d <func_59+0x27d>
    a43d:	80 bd 74 fb ff ff 00 	cmpb   $0x0,-0x48c(%rbp)
    a444:	74 07                	je     a44d <func_59+0x27d>
    a446:	b8 01 00 00 00       	mov    $0x1,%eax
    a44b:	eb 05                	jmp    a452 <func_59+0x282>
    a44d:	b8 00 00 00 00       	mov    $0x0,%eax
    a452:	0f b6 c0             	movzbl %al,%eax
    a455:	89 de                	mov    %ebx,%esi
    a457:	89 c7                	mov    %eax,%edi
    a459:	e8 60 c8 ff ff       	callq  6cbe <safe_rshift_func_uint8_t_u_u>
    a45e:	38 85 70 fb ff ff    	cmp    %al,-0x490(%rbp)
    a464:	0f 92 c0             	setb   %al
    a467:	0f b6 c0             	movzbl %al,%eax
    a46a:	31 85 90 fb ff ff    	xor    %eax,-0x470(%rbp)
    a470:	8b 95 90 fb ff ff    	mov    -0x470(%rbp),%edx
    a476:	8b 85 40 fd ff ff    	mov    -0x2c0(%rbp),%eax
    a47c:	39 c2                	cmp    %eax,%edx
    a47e:	0f 92 c0             	setb   %al
    a481:	0f b6 c0             	movzbl %al,%eax
    a484:	89 85 94 fb ff ff    	mov    %eax,-0x46c(%rbp)
    a48a:	83 bd 94 fb ff ff 00 	cmpl   $0x0,-0x46c(%rbp)
    a491:	0f 94 c0             	sete   %al
    a494:	0f b6 c0             	movzbl %al,%eax
    a497:	41 39 c4             	cmp    %eax,%r12d
    a49a:	74 07                	je     a4a3 <func_59+0x2d3>
    a49c:	b8 01 00 00 00       	mov    $0x1,%eax
    a4a1:	eb 05                	jmp    a4a8 <func_59+0x2d8>
    a4a3:	b8 00 00 00 00       	mov    $0x0,%eax
    a4a8:	83 f8 ff             	cmp    $0xffffffff,%eax
    a4ab:	0f 95 c0             	setne  %al
    a4ae:	0f b6 c0             	movzbl %al,%eax
    a4b1:	4c 89 f6             	mov    %r14,%rsi
    a4b4:	48 89 c7             	mov    %rax,%rdi
    a4b7:	e8 ec c3 ff ff       	callq  68a8 <safe_sub_func_int64_t_s_s>
    a4bc:	4c 89 ee             	mov    %r13,%rsi
    a4bf:	48 89 c7             	mov    %rax,%rdi
    a4c2:	e8 e1 c3 ff ff       	callq  68a8 <safe_sub_func_int64_t_s_s>
    a4c7:	0f b6 85 70 fb ff ff 	movzbl -0x490(%rbp),%eax
    a4ce:	39 85 8c fb ff ff    	cmp    %eax,-0x474(%rbp)
    a4d4:	0f 95 c0             	setne  %al
    a4d7:	0f b6 c0             	movzbl %al,%eax
    a4da:	39 85 8c fb ff ff    	cmp    %eax,-0x474(%rbp)
    a4e0:	0f 95 c0             	setne  %al
    a4e3:	0f b6 c0             	movzbl %al,%eax
    a4e6:	be 8e 52 00 00       	mov    $0x528e,%esi
    a4eb:	89 c7                	mov    %eax,%edi
    a4ed:	e8 9c c8 ff ff       	callq  6d8e <safe_div_func_uint16_t_u_u>
    a4f2:	0f b7 d0             	movzwl %ax,%edx
    a4f5:	8b 85 f8 fe ff ff    	mov    -0x108(%rbp),%eax
    a4fb:	39 c2                	cmp    %eax,%edx
    a4fd:	77 07                	ja     a506 <func_59+0x336>
    a4ff:	ba 01 00 00 00       	mov    $0x1,%edx
    a504:	eb 05                	jmp    a50b <func_59+0x33b>
    a506:	ba 00 00 00 00       	mov    $0x0,%edx
    a50b:	48 8b 85 b8 fb ff ff 	mov    -0x448(%rbp),%rax
    a512:	8b 00                	mov    (%rax),%eax
    a514:	09 c2                	or     %eax,%edx
    a516:	48 8b 85 b8 fb ff ff 	mov    -0x448(%rbp),%rax
    a51d:	89 10                	mov    %edx,(%rax)
    a51f:	48 8b 85 78 fb ff ff 	mov    -0x488(%rbp),%rax
    a526:	48 8b 00             	mov    (%rax),%rax
    a529:	48 8b 5d d8          	mov    -0x28(%rbp),%rbx
    a52d:	64 48 33 1c 25 28 00 	xor    %fs:0x28,%rbx
    a534:	00 00 
    a536:	74 05                	je     a53d <func_59+0x36d>
    a538:	e8 33 bb ff ff       	callq  6070 <__stack_chk_fail@plt>
    a53d:	48 81 c4 80 04 00 00 	add    $0x480,%rsp
    a544:	5b                   	pop    %rbx
    a545:	41 5c                	pop    %r12
    a547:	41 5d                	pop    %r13
    a549:	41 5e                	pop    %r14
    a54b:	5d                   	pop    %rbp
    a54c:	c3                   	retq   

000000000000a54d <func_64>:
    a54d:	f3 0f 1e fa          	endbr64 
    a551:	55                   	push   %rbp
    a552:	48 89 e5             	mov    %rsp,%rbp
    a555:	48 81 ec 40 08 00 00 	sub    $0x840,%rsp
    a55c:	48 89 bd c8 f7 ff ff 	mov    %rdi,-0x838(%rbp)
    a563:	89 b5 c4 f7 ff ff    	mov    %esi,-0x83c(%rbp)
    a569:	64 48 8b 04 25 28 00 	mov    %fs:0x28,%rax
    a570:	00 00 
    a572:	48 89 45 f8          	mov    %rax,-0x8(%rbp)
    a576:	31 c0                	xor    %eax,%eax
    a578:	48 8d 05 59 c2 00 00 	lea    0xc259(%rip),%rax        # 167d8 <g_538+0x38>
    a57f:	48 89 85 30 fa ff ff 	mov    %rax,-0x5d0(%rbp)
    a586:	48 8d 05 eb c2 00 00 	lea    0xc2eb(%rip),%rax        # 16878 <g_538+0xd8>
    a58d:	48 89 85 38 fa ff ff 	mov    %rax,-0x5c8(%rbp)
    a594:	48 8d 05 3d c2 00 00 	lea    0xc23d(%rip),%rax        # 167d8 <g_538+0x38>
    a59b:	48 89 85 40 fa ff ff 	mov    %rax,-0x5c0(%rbp)
    a5a2:	48 8d 05 cf c2 00 00 	lea    0xc2cf(%rip),%rax        # 16878 <g_538+0xd8>
    a5a9:	48 89 85 48 fa ff ff 	mov    %rax,-0x5b8(%rbp)
    a5b0:	48 8d 05 21 c2 00 00 	lea    0xc221(%rip),%rax        # 167d8 <g_538+0x38>
    a5b7:	48 89 85 50 fa ff ff 	mov    %rax,-0x5b0(%rbp)
    a5be:	48 8d 05 b3 c2 00 00 	lea    0xc2b3(%rip),%rax        # 16878 <g_538+0xd8>
    a5c5:	48 89 85 58 fa ff ff 	mov    %rax,-0x5a8(%rbp)
    a5cc:	48 8d 05 05 c2 00 00 	lea    0xc205(%rip),%rax        # 167d8 <g_538+0x38>
    a5d3:	48 89 85 60 fa ff ff 	mov    %rax,-0x5a0(%rbp)
    a5da:	c7 85 e4 f7 ff ff ff 	movl   $0x11111cff,-0x81c(%rbp)
    a5e1:	1c 11 11 
    a5e4:	48 8d 05 45 ac 00 00 	lea    0xac45(%rip),%rax        # 15230 <g_673>
    a5eb:	48 89 85 78 f8 ff ff 	mov    %rax,-0x788(%rbp)
    a5f2:	c6 85 d6 f7 ff ff f6 	movb   $0xf6,-0x82a(%rbp)
    a5f9:	48 8d 05 10 c1 00 00 	lea    0xc110(%rip),%rax        # 16710 <g_229>
    a600:	48 89 85 40 f8 ff ff 	mov    %rax,-0x7c0(%rbp)
    a607:	48 8d 85 40 f8 ff ff 	lea    -0x7c0(%rbp),%rax
    a60e:	48 89 85 80 f8 ff ff 	mov    %rax,-0x780(%rbp)
    a615:	c7 85 f4 f7 ff ff ff 	movl   $0xffffffff,-0x80c(%rbp)
    a61c:	ff ff ff 
    a61f:	c7 85 f8 f7 ff ff 07 	movl   $0x7,-0x808(%rbp)
    a626:	00 00 00 
    a629:	c7 85 fc f7 ff ff f8 	movl   $0xfffffff8,-0x804(%rbp)
    a630:	ff ff ff 
    a633:	c7 85 00 f8 ff ff 01 	movl   $0x1,-0x800(%rbp)
    a63a:	00 00 00 
    a63d:	c6 85 d8 f7 ff ff 01 	movb   $0x1,-0x828(%rbp)
    a644:	48 8d 85 d0 fc ff ff 	lea    -0x330(%rbp),%rax
    a64b:	48 8d 15 8e 61 00 00 	lea    0x618e(%rip),%rdx        # 107e0 <g_1811+0x78a>
    a652:	b9 28 00 00 00       	mov    $0x28,%ecx
    a657:	48 89 c7             	mov    %rax,%rdi
    a65a:	48 89 d6             	mov    %rdx,%rsi
    a65d:	f3 48 a5             	rep movsq %ds:(%rsi),%es:(%rdi)
    a660:	48 8d 05 91 c0 00 00 	lea    0xc091(%rip),%rax        # 166f8 <g_105+0x478>
    a667:	48 89 85 88 f8 ff ff 	mov    %rax,-0x778(%rbp)
    a66e:	48 c7 85 90 f8 ff ff 	movq   $0x0,-0x770(%rbp)
    a675:	00 00 00 00 
    a679:	48 8d 05 b8 ab 00 00 	lea    0xabb8(%rip),%rax        # 15238 <g_1143>
    a680:	48 89 85 a0 f9 ff ff 	mov    %rax,-0x660(%rbp)
    a687:	48 8d 05 aa ab 00 00 	lea    0xabaa(%rip),%rax        # 15238 <g_1143>
    a68e:	48 89 85 a8 f9 ff ff 	mov    %rax,-0x658(%rbp)
    a695:	48 8d 05 9c ab 00 00 	lea    0xab9c(%rip),%rax        # 15238 <g_1143>
    a69c:	48 89 85 b0 f9 ff ff 	mov    %rax,-0x650(%rbp)
    a6a3:	48 8d 85 a0 f9 ff ff 	lea    -0x660(%rbp),%rax
    a6aa:	48 83 c0 08          	add    $0x8,%rax
    a6ae:	48 89 85 98 f8 ff ff 	mov    %rax,-0x768(%rbp)
    a6b5:	48 8d 05 8c aa 00 00 	lea    0xaa8c(%rip),%rax        # 15148 <g_134>
    a6bc:	48 89 85 48 f8 ff ff 	mov    %rax,-0x7b8(%rbp)
    a6c3:	48 c7 85 e0 fb ff ff 	movq   $0x0,-0x420(%rbp)
    a6ca:	00 00 00 00 
    a6ce:	48 8d 85 48 f8 ff ff 	lea    -0x7b8(%rbp),%rax
    a6d5:	48 89 85 e8 fb ff ff 	mov    %rax,-0x418(%rbp)
    a6dc:	48 8d 05 5d c4 00 00 	lea    0xc45d(%rip),%rax        # 16b40 <g_1123>
    a6e3:	48 89 85 f0 fb ff ff 	mov    %rax,-0x410(%rbp)
    a6ea:	48 c7 85 f8 fb ff ff 	movq   $0x0,-0x408(%rbp)
    a6f1:	00 00 00 00 
    a6f5:	48 8d 05 64 c4 00 00 	lea    0xc464(%rip),%rax        # 16b60 <g_1123+0x20>
    a6fc:	48 89 85 00 fc ff ff 	mov    %rax,-0x400(%rbp)
    a703:	48 8d 05 56 c4 00 00 	lea    0xc456(%rip),%rax        # 16b60 <g_1123+0x20>
    a70a:	48 89 85 08 fc ff ff 	mov    %rax,-0x3f8(%rbp)
    a711:	48 8d 85 48 f8 ff ff 	lea    -0x7b8(%rbp),%rax
    a718:	48 89 85 10 fc ff ff 	mov    %rax,-0x3f0(%rbp)
    a71f:	48 8d 85 48 f8 ff ff 	lea    -0x7b8(%rbp),%rax
    a726:	48 89 85 18 fc ff ff 	mov    %rax,-0x3e8(%rbp)
    a72d:	48 8d 05 2c c4 00 00 	lea    0xc42c(%rip),%rax        # 16b60 <g_1123+0x20>
    a734:	48 89 85 20 fc ff ff 	mov    %rax,-0x3e0(%rbp)
    a73b:	48 8d 05 1e c4 00 00 	lea    0xc41e(%rip),%rax        # 16b60 <g_1123+0x20>
    a742:	48 89 85 28 fc ff ff 	mov    %rax,-0x3d8(%rbp)
    a749:	48 c7 85 30 fc ff ff 	movq   $0x0,-0x3d0(%rbp)
    a750:	00 00 00 00 
    a754:	48 8d 05 15 c4 00 00 	lea    0xc415(%rip),%rax        # 16b70 <g_1123+0x30>
    a75b:	48 89 85 38 fc ff ff 	mov    %rax,-0x3c8(%rbp)
    a762:	48 8d 05 07 c4 00 00 	lea    0xc407(%rip),%rax        # 16b70 <g_1123+0x30>
    a769:	48 89 85 40 fc ff ff 	mov    %rax,-0x3c0(%rbp)
    a770:	48 c7 85 48 fc ff ff 	movq   $0x0,-0x3b8(%rbp)
    a777:	00 00 00 00 
    a77b:	48 8d 85 48 f8 ff ff 	lea    -0x7b8(%rbp),%rax
    a782:	48 89 85 50 fc ff ff 	mov    %rax,-0x3b0(%rbp)
    a789:	48 8d 05 c8 c3 00 00 	lea    0xc3c8(%rip),%rax        # 16b58 <g_1123+0x18>
    a790:	48 89 85 58 fc ff ff 	mov    %rax,-0x3a8(%rbp)
    a797:	48 8d 85 48 f8 ff ff 	lea    -0x7b8(%rbp),%rax
    a79e:	48 89 85 60 fc ff ff 	mov    %rax,-0x3a0(%rbp)
    a7a5:	48 8d 05 c4 c3 00 00 	lea    0xc3c4(%rip),%rax        # 16b70 <g_1123+0x30>
    a7ac:	48 89 85 68 fc ff ff 	mov    %rax,-0x398(%rbp)
    a7b3:	48 8d 05 9e c3 00 00 	lea    0xc39e(%rip),%rax        # 16b58 <g_1123+0x18>
    a7ba:	48 89 85 70 fc ff ff 	mov    %rax,-0x390(%rbp)
    a7c1:	48 8d 05 98 c3 00 00 	lea    0xc398(%rip),%rax        # 16b60 <g_1123+0x20>
    a7c8:	48 89 85 78 fc ff ff 	mov    %rax,-0x388(%rbp)
    a7cf:	48 8d 05 82 c3 00 00 	lea    0xc382(%rip),%rax        # 16b58 <g_1123+0x18>
    a7d6:	48 89 85 80 fc ff ff 	mov    %rax,-0x380(%rbp)
    a7dd:	48 8d 85 48 f8 ff ff 	lea    -0x7b8(%rbp),%rax
    a7e4:	48 89 85 88 fc ff ff 	mov    %rax,-0x378(%rbp)
    a7eb:	48 8d 05 7e c3 00 00 	lea    0xc37e(%rip),%rax        # 16b70 <g_1123+0x30>
    a7f2:	48 89 85 90 fc ff ff 	mov    %rax,-0x370(%rbp)
    a7f9:	48 8d 05 58 c3 00 00 	lea    0xc358(%rip),%rax        # 16b58 <g_1123+0x18>
    a800:	48 89 85 98 fc ff ff 	mov    %rax,-0x368(%rbp)
    a807:	48 8d 05 52 c3 00 00 	lea    0xc352(%rip),%rax        # 16b60 <g_1123+0x20>
    a80e:	48 89 85 a0 fc ff ff 	mov    %rax,-0x360(%rbp)
    a815:	48 8d 05 3c c3 00 00 	lea    0xc33c(%rip),%rax        # 16b58 <g_1123+0x18>
    a81c:	48 89 85 a8 fc ff ff 	mov    %rax,-0x358(%rbp)
    a823:	48 8d 05 46 c3 00 00 	lea    0xc346(%rip),%rax        # 16b70 <g_1123+0x30>
    a82a:	48 89 85 b0 fc ff ff 	mov    %rax,-0x350(%rbp)
    a831:	48 8d 85 48 f8 ff ff 	lea    -0x7b8(%rbp),%rax
    a838:	48 89 85 b8 fc ff ff 	mov    %rax,-0x348(%rbp)
    a83f:	48 8d 05 12 c3 00 00 	lea    0xc312(%rip),%rax        # 16b58 <g_1123+0x18>
    a846:	48 89 85 c0 fc ff ff 	mov    %rax,-0x340(%rbp)
    a84d:	48 8d 85 48 f8 ff ff 	lea    -0x7b8(%rbp),%rax
    a854:	48 89 85 c8 fc ff ff 	mov    %rax,-0x338(%rbp)
    a85b:	48 8d 85 e0 fb ff ff 	lea    -0x420(%rbp),%rax
    a862:	48 83 c0 78          	add    $0x78,%rax
    a866:	48 89 85 a0 f8 ff ff 	mov    %rax,-0x760(%rbp)
    a86d:	48 8d 05 f4 be 00 00 	lea    0xbef4(%rip),%rax        # 16768 <g_488>
    a874:	48 89 85 a8 f8 ff ff 	mov    %rax,-0x758(%rbp)
    a87b:	48 b8 04 ba 9f f9 82 	movabs $0x20120182f99fba04,%rax
    a882:	01 12 20 
    a885:	48 89 85 b0 f8 ff ff 	mov    %rax,-0x750(%rbp)
    a88c:	c7 85 04 f8 ff ff 5d 	movl   $0x3227355d,-0x7fc(%rbp)
    a893:	35 27 32 
    a896:	c7 85 08 f8 ff ff 0c 	movl   $0xabee450c,-0x7f8(%rbp)
    a89d:	45 ee ab 
    a8a0:	48 c7 85 b8 f8 ff ff 	movq   $0x0,-0x748(%rbp)
    a8a7:	00 00 00 00 
    a8ab:	c7 85 0c f8 ff ff 09 	movl   $0x9,-0x7f4(%rbp)
    a8b2:	00 00 00 
    a8b5:	48 8d 05 54 be 00 00 	lea    0xbe54(%rip),%rax        # 16710 <g_229>
    a8bc:	48 89 85 c0 f8 ff ff 	mov    %rax,-0x740(%rbp)
    a8c3:	48 8d 05 1e d0 00 00 	lea    0xd01e(%rip),%rax        # 178e8 <g_10>
    a8ca:	48 89 85 c8 f8 ff ff 	mov    %rax,-0x738(%rbp)
    a8d1:	c7 85 10 f8 ff ff f7 	movl   $0xfffffff7,-0x7f0(%rbp)
    a8d8:	ff ff ff 
    a8db:	66 c7 85 da f7 ff ff 	movw   $0x1,-0x826(%rbp)
    a8e2:	01 00 
    a8e4:	48 c7 85 d0 f8 ff ff 	movq   $0x2,-0x730(%rbp)
    a8eb:	02 00 00 00 
    a8ef:	66 c7 85 dc f7 ff ff 	movw   $0xffff,-0x824(%rbp)
    a8f6:	ff ff 
    a8f8:	48 c7 85 50 f8 ff ff 	movq   $0x0,-0x7b0(%rbp)
    a8ff:	00 00 00 00 
    a903:	48 8d 85 50 f8 ff ff 	lea    -0x7b0(%rbp),%rax
    a90a:	48 89 85 d8 f8 ff ff 	mov    %rax,-0x728(%rbp)
    a911:	48 b8 3a 20 6f f0 e5 	movabs $0x122a4ce5f06f203a,%rax
    a918:	4c 2a 12 
    a91b:	48 89 85 e0 f8 ff ff 	mov    %rax,-0x720(%rbp)
    a922:	c7 85 14 f8 ff ff bf 	movl   $0xcc050cbf,-0x7ec(%rbp)
    a929:	0c 05 cc 
    a92c:	c7 85 00 fb ff ff 03 	movl   $0xfd038103,-0x500(%rbp)
    a933:	81 03 fd 
    a936:	c7 85 04 fb ff ff fe 	movl   $0xcc05fe,-0x4fc(%rbp)
    a93d:	05 cc 00 
    a940:	c7 85 08 fb ff ff 7a 	movl   $0x5ecff7a,-0x4f8(%rbp)
    a947:	ff ec 05 
    a94a:	c7 85 0c fb ff ff 3e 	movl   $0xece33e,-0x4f4(%rbp)
    a951:	e3 ec 00 
    a954:	c7 85 10 fb ff ff 7a 	movl   $0xffcc017a,-0x4f0(%rbp)
    a95b:	01 cc ff 
    a95e:	c7 85 14 fb ff ff fe 	movl   $0x361fe,-0x4ec(%rbp)
    a965:	61 03 00 
    a968:	c7 85 18 fb ff ff 03 	movl   $0x1920003,-0x4e8(%rbp)
    a96f:	00 92 01 
    a972:	c7 85 1c fb ff ff 34 	movl   $0x13e0734,-0x4e4(%rbp)
    a979:	07 3e 01 
    a97c:	c7 85 20 fb ff ff 4e 	movl   $0x1f7004e,-0x4e0(%rbp)
    a983:	00 f7 01 
    a986:	c7 85 24 fb ff ff b3 	movl   $0x1fb00b3,-0x4dc(%rbp)
    a98d:	00 fb 01 
    a990:	c7 85 28 fb ff ff ec 	movl   $0x1b307ec,-0x4d8(%rbp)
    a997:	07 b3 01 
    a99a:	c7 85 2c fb ff ff fb 	movl   $0x18ff00fb,-0x4d4(%rbp)
    a9a1:	00 ff 18 
    a9a4:	c7 85 30 fb ff ff 2b 	movl   $0x1ff012b,-0x4d0(%rbp)
    a9ab:	01 ff 01 
    a9ae:	c7 85 34 fb ff ff b3 	movl   $0xf5ec07b3,-0x4cc(%rbp)
    a9b5:	07 ec f5 
    a9b8:	c7 85 38 fb ff ff f8 	movl   $0xfd4e61f8,-0x4c8(%rbp)
    a9bf:	61 4e fd 
    a9c2:	c7 85 3c fb ff ff f8 	movl   $0xcdec01f8,-0x4c4(%rbp)
    a9c9:	01 ec cd 
    a9cc:	c7 85 40 fb ff ff b3 	movl   $0x1fffdb3,-0x4c0(%rbp)
    a9d3:	fd ff 01 
    a9d6:	c7 85 44 fb ff ff 2b 	movl   $0x1f8ff2b,-0x4bc(%rbp)
    a9dd:	ff f8 01 
    a9e0:	c7 85 48 fb ff ff 3e 	movl   $0x5fb813e,-0x4b8(%rbp)
    a9e7:	81 fb 05 
    a9ea:	c7 85 4c fb ff ff b6 	movl   $0xfffe00b6,-0x4b4(%rbp)
    a9f1:	00 fe ff 
    a9f4:	c7 85 50 fb ff ff fb 	movl   $0xff9200fb,-0x4b0(%rbp)
    a9fb:	00 92 ff 
    a9fe:	c7 85 54 fb ff ff b9 	movl   $0x5cc00b9,-0x4ac(%rbp)
    aa05:	00 cc 05 
    aa08:	c7 85 58 fb ff ff 01 	movl   $0x1018101,-0x4a8(%rbp)
    aa0f:	81 01 01 
    aa12:	c7 85 5c fb ff ff fd 	movl   $0x1fdfffd,-0x4a4(%rbp)
    aa19:	ff fd 01 
    aa1c:	c7 85 60 fb ff ff 03 	movl   $0xcdf7fd03,-0x4a0(%rbp)
    aa23:	fd f7 cd 
    aa26:	c7 85 64 fb ff ff ff 	movl   $0xfdb601ff,-0x49c(%rbp)
    aa2d:	01 b6 fd 
    aa30:	c7 85 68 fb ff ff cc 	movl   $0xf5b661cc,-0x498(%rbp)
    aa37:	61 b6 f5 
    aa3a:	c7 85 6c fb ff ff ff 	movl   $0x1f707ff,-0x494(%rbp)
    aa41:	07 f7 01 
    aa44:	c7 85 70 fb ff ff 03 	movl   $0x18fd0103,-0x490(%rbp)
    aa4b:	01 fd 18 
    aa4e:	c7 85 74 fb ff ff fd 	movl   $0x118fd,-0x48c(%rbp)
    aa55:	18 01 00 
    aa58:	c7 85 78 fb ff ff 01 	movl   $0x81cce301,-0x488(%rbp)
    aa5f:	e3 cc 81 
    aa62:	c7 85 7c fb ff ff b9 	movl   $0x792cdb9,-0x484(%rbp)
    aa69:	cd 92 07 
    aa6c:	c7 85 80 fb ff ff fb 	movl   $0x81fecdfb,-0x480(%rbp)
    aa73:	cd fe 81 
    aa76:	c7 85 84 fb ff ff b6 	movl   $0xfbe3b6,-0x47c(%rbp)
    aa7d:	e3 fb 00 
    aa80:	c7 85 88 fb ff ff 3e 	movl   $0x18f8183e,-0x478(%rbp)
    aa87:	18 f8 18 
    aa8a:	c7 85 8c fb ff ff 2b 	movl   $0x1ff012b,-0x474(%rbp)
    aa91:	01 ff 01 
    aa94:	c7 85 90 fb ff ff b3 	movl   $0xf5ec07b3,-0x470(%rbp)
    aa9b:	07 ec f5 
    aa9e:	c7 85 94 fb ff ff f8 	movl   $0xfd4e61f8,-0x46c(%rbp)
    aaa5:	61 4e fd 
    aaa8:	c7 85 98 fb ff ff f8 	movl   $0xcdec01f8,-0x468(%rbp)
    aaaf:	01 ec cd 
    aab2:	c7 85 9c fb ff ff b3 	movl   $0x1fffdb3,-0x464(%rbp)
    aab9:	fd ff 01 
    aabc:	c7 85 a0 fb ff ff 2b 	movl   $0x1f8ff2b,-0x460(%rbp)
    aac3:	ff f8 01 
    aac6:	c7 85 a4 fb ff ff 3e 	movl   $0x5fb813e,-0x45c(%rbp)
    aacd:	81 fb 05 
    aad0:	c7 85 a8 fb ff ff b6 	movl   $0xfffe00b6,-0x458(%rbp)
    aad7:	00 fe ff 
    aada:	c7 85 ac fb ff ff fb 	movl   $0xff9200fb,-0x454(%rbp)
    aae1:	00 92 ff 
    aae4:	c7 85 b0 fb ff ff b9 	movl   $0x5cc00b9,-0x450(%rbp)
    aaeb:	00 cc 05 
    aaee:	c7 85 b4 fb ff ff 01 	movl   $0x1018101,-0x44c(%rbp)
    aaf5:	81 01 01 
    aaf8:	c7 85 b8 fb ff ff fd 	movl   $0x1fdfffd,-0x448(%rbp)
    aaff:	ff fd 01 
    ab02:	c7 85 bc fb ff ff 03 	movl   $0xcdf7fd03,-0x444(%rbp)
    ab09:	fd f7 cd 
    ab0c:	c7 85 c0 fb ff ff ff 	movl   $0xfdb601ff,-0x440(%rbp)
    ab13:	01 b6 fd 
    ab16:	c7 85 c4 fb ff ff cc 	movl   $0xf5b661cc,-0x43c(%rbp)
    ab1d:	61 b6 f5 
    ab20:	c7 85 c8 fb ff ff ff 	movl   $0x1f707ff,-0x438(%rbp)
    ab27:	07 f7 01 
    ab2a:	c7 85 cc fb ff ff 03 	movl   $0x18fd0103,-0x434(%rbp)
    ab31:	01 fd 18 
    ab34:	c7 85 d0 fb ff ff fd 	movl   $0x118fd,-0x430(%rbp)
    ab3b:	18 01 00 
    ab3e:	c7 85 d4 fb ff ff 01 	movl   $0x81cce301,-0x42c(%rbp)
    ab45:	e3 cc 81 
    ab48:	c7 85 d8 fb ff ff b9 	movl   $0x792cdb9,-0x428(%rbp)
    ab4f:	cd 92 07 
    ab52:	c7 85 dc fb ff ff fb 	movl   $0x81fecdfb,-0x424(%rbp)
    ab59:	cd fe 81 
    ab5c:	c7 85 18 f8 ff ff 01 	movl   $0x1,-0x7e8(%rbp)
    ab63:	00 00 00 
    ab66:	48 8d 05 4b be 00 00 	lea    0xbe4b(%rip),%rax        # 169b8 <g_744>
    ab6d:	48 89 85 e8 f8 ff ff 	mov    %rax,-0x718(%rbp)
    ab74:	48 c7 85 f0 f8 ff ff 	movq   $0x0,-0x710(%rbp)
    ab7b:	00 00 00 00 
    ab7f:	c7 85 e8 f7 ff ff 00 	movl   $0x0,-0x818(%rbp)
    ab86:	00 00 00 
    ab89:	eb 1a                	jmp    aba5 <func_64+0x658>
    ab8b:	8b 85 e8 f7 ff ff    	mov    -0x818(%rbp),%eax
    ab91:	48 98                	cltq   
    ab93:	c7 84 85 90 f9 ff ff 	movl   $0xd62e0647,-0x670(%rbp,%rax,4)
    ab9a:	47 06 2e d6 
    ab9e:	83 85 e8 f7 ff ff 01 	addl   $0x1,-0x818(%rbp)
    aba5:	83 bd e8 f7 ff ff 03 	cmpl   $0x3,-0x818(%rbp)
    abac:	7e dd                	jle    ab8b <func_64+0x63e>
    abae:	c7 85 e8 f7 ff ff 00 	movl   $0x0,-0x818(%rbp)
    abb5:	00 00 00 
    abb8:	eb 1e                	jmp    abd8 <func_64+0x68b>
    abba:	8b 85 e8 f7 ff ff    	mov    -0x818(%rbp),%eax
    abc0:	48 98                	cltq   
    abc2:	48 8d 15 87 bf 00 00 	lea    0xbf87(%rip),%rdx        # 16b50 <g_1123+0x10>
    abc9:	48 89 94 c5 80 f9 ff 	mov    %rdx,-0x680(%rbp,%rax,8)
    abd0:	ff 
    abd1:	83 85 e8 f7 ff ff 01 	addl   $0x1,-0x818(%rbp)
    abd8:	83 bd e8 f7 ff ff 00 	cmpl   $0x0,-0x818(%rbp)
    abdf:	7e d9                	jle    abba <func_64+0x66d>
    abe1:	90                   	nop
    abe2:	66 c7 05 d3 a5 00 00 	movw   $0x0,0xa5d3(%rip)        # 151be <g_456>
    abe9:	00 00 
    abeb:	e9 64 01 00 00       	jmpq   ad54 <func_64+0x807>
    abf0:	48 8d 05 99 bc 00 00 	lea    0xbc99(%rip),%rax        # 16890 <g_538+0xf0>
    abf7:	48 89 85 40 f9 ff ff 	mov    %rax,-0x6c0(%rbp)
    abfe:	c7 85 2c f8 ff ff 9b 	movl   $0x57b8309b,-0x7d4(%rbp)
    ac05:	30 b8 57 
    ac08:	48 8d 05 21 a6 00 00 	lea    0xa621(%rip),%rax        # 15230 <g_673>
    ac0f:	48 89 85 48 f9 ff ff 	mov    %rax,-0x6b8(%rbp)
    ac16:	48 c7 85 50 f9 ff ff 	movq   $0xffffffffffffffff,-0x6b0(%rbp)
    ac1d:	ff ff ff ff 
    ac21:	c7 85 30 f8 ff ff 02 	movl   $0x2,-0x7d0(%rbp)
    ac28:	00 00 00 
    ac2b:	c7 85 34 f8 ff ff 6d 	movl   $0x8eba886d,-0x7cc(%rbp)
    ac32:	88 ba 8e 
    ac35:	c7 85 10 fe ff ff 01 	movl   $0x1,-0x1f0(%rbp)
    ac3c:	00 00 00 
    ac3f:	c7 85 14 fe ff ff 2a 	movl   $0xd281122a,-0x1ec(%rbp)
    ac46:	12 81 d2 
    ac49:	c7 85 18 fe ff ff 01 	movl   $0x1,-0x1e8(%rbp)
    ac50:	00 00 00 
    ac53:	c7 85 1c fe ff ff 2a 	movl   $0xd281122a,-0x1e4(%rbp)
    ac5a:	12 81 d2 
    ac5d:	c7 85 20 fe ff ff 01 	movl   $0x1,-0x1e0(%rbp)
    ac64:	00 00 00 
    ac67:	c7 85 24 fe ff ff 2a 	movl   $0xd281122a,-0x1dc(%rbp)
    ac6e:	12 81 d2 
    ac71:	c7 85 28 fe ff ff 01 	movl   $0x1,-0x1d8(%rbp)
    ac78:	00 00 00 
    ac7b:	c7 85 2c fe ff ff 2a 	movl   $0xd281122a,-0x1d4(%rbp)
    ac82:	12 81 d2 
    ac85:	c7 85 30 fe ff ff 01 	movl   $0x1,-0x1d0(%rbp)
    ac8c:	00 00 00 
    ac8f:	c7 85 34 fe ff ff 2a 	movl   $0xd281122a,-0x1cc(%rbp)
    ac96:	12 81 d2 
    ac99:	c7 85 38 fe ff ff 01 	movl   $0x1,-0x1c8(%rbp)
    aca0:	00 00 00 
    aca3:	c7 85 3c fe ff ff 2a 	movl   $0xd281122a,-0x1c4(%rbp)
    acaa:	12 81 d2 
    acad:	c7 85 40 fe ff ff 01 	movl   $0x1,-0x1c0(%rbp)
    acb4:	00 00 00 
    acb7:	c7 85 44 fe ff ff 2a 	movl   $0xd281122a,-0x1bc(%rbp)
    acbe:	12 81 d2 
    acc1:	c7 85 48 fe ff ff 01 	movl   $0x1,-0x1b8(%rbp)
    acc8:	00 00 00 
    accb:	c7 85 4c fe ff ff 2a 	movl   $0xd281122a,-0x1b4(%rbp)
    acd2:	12 81 d2 
    acd5:	48 b8 0d 20 b5 a6 46 	movabs $0xa572a146a6b5200d,%rax
    acdc:	a1 72 a5 
    acdf:	48 89 85 58 f9 ff ff 	mov    %rax,-0x6a8(%rbp)
    ace6:	c7 85 38 f8 ff ff 41 	movl   $0xbc7ceb41,-0x7c8(%rbp)
    aced:	eb 7c bc 
    acf0:	48 8d 85 d6 f7 ff ff 	lea    -0x82a(%rbp),%rax
    acf7:	48 89 85 b0 fa ff ff 	mov    %rax,-0x550(%rbp)
    acfe:	c7 85 3c f8 ff ff 92 	movl   $0x36ee8b92,-0x7c4(%rbp)
    ad05:	8b ee 36 
    ad08:	48 8d 05 e1 cb 00 00 	lea    0xcbe1(%rip),%rax        # 178f0 <g_210>
    ad0f:	48 89 85 60 f9 ff ff 	mov    %rax,-0x6a0(%rbp)
    ad16:	48 8d 05 67 a4 00 00 	lea    0xa467(%rip),%rax        # 15184 <g_258+0x4>
    ad1d:	48 89 85 68 f9 ff ff 	mov    %rax,-0x698(%rbp)
    ad24:	48 b8 39 e4 0a cb dc 	movabs $0xc7585cdccb0ae439,%rax
    ad2b:	5c 58 c7 
    ad2e:	48 89 85 70 f9 ff ff 	mov    %rax,-0x690(%rbp)
    ad35:	48 8d 05 bc b9 00 00 	lea    0xb9bc(%rip),%rax        # 166f8 <g_105+0x478>
    ad3c:	48 89 85 78 f9 ff ff 	mov    %rax,-0x688(%rbp)
    ad43:	0f b7 05 74 a4 00 00 	movzwl 0xa474(%rip),%eax        # 151be <g_456>
    ad4a:	83 c0 01             	add    $0x1,%eax
    ad4d:	66 89 05 6a a4 00 00 	mov    %ax,0xa46a(%rip)        # 151be <g_456>
    ad54:	0f b7 05 63 a4 00 00 	movzwl 0xa463(%rip),%eax        # 151be <g_456>
    ad5b:	66 83 f8 03          	cmp    $0x3,%ax
    ad5f:	0f 8e 8b fe ff ff    	jle    abf0 <func_64+0x6a3>
    ad65:	48 8b 85 a0 f8 ff ff 	mov    -0x760(%rbp),%rax
    ad6c:	48 8d 95 48 f8 ff ff 	lea    -0x7b8(%rbp),%rdx
    ad73:	48 89 10             	mov    %rdx,(%rax)
    ad76:	0f b7 05 41 a4 00 00 	movzwl 0xa441(%rip),%eax        # 151be <g_456>
    ad7d:	66 85 c0             	test   %ax,%ax
    ad80:	74 05                	je     ad87 <func_64+0x83a>
    ad82:	e9 5b fe ff ff       	jmpq   abe2 <func_64+0x695>
    ad87:	c7 05 e7 a3 00 00 00 	movl   $0x0,0xa3e7(%rip)        # 15178 <g_240>
    ad8e:	00 00 00 
    ad91:	e9 69 03 00 00       	jmpq   b0ff <func_64+0xbb2>
    ad96:	48 8d 05 97 a4 00 00 	lea    0xa497(%rip),%rax        # 15234 <g_779>
    ad9d:	48 89 85 58 f8 ff ff 	mov    %rax,-0x7a8(%rbp)
    ada4:	48 8d 85 58 f8 ff ff 	lea    -0x7a8(%rbp),%rax
    adab:	48 89 85 f8 f8 ff ff 	mov    %rax,-0x708(%rbp)
    adb2:	c7 85 c0 f9 ff ff aa 	movl   $0x76f778aa,-0x640(%rbp)
    adb9:	78 f7 76 
    adbc:	c7 85 c4 f9 ff ff 26 	movl   $0x67b2bb26,-0x63c(%rbp)
    adc3:	bb b2 67 
    adc6:	c7 85 c8 f9 ff ff 26 	movl   $0x67b2bb26,-0x638(%rbp)
    adcd:	bb b2 67 
    add0:	c7 85 cc f9 ff ff aa 	movl   $0x76f778aa,-0x634(%rbp)
    add7:	78 f7 76 
    adda:	c7 85 d0 f9 ff ff 26 	movl   $0x67b2bb26,-0x630(%rbp)
    ade1:	bb b2 67 
    ade4:	c7 85 d4 f9 ff ff 26 	movl   $0x67b2bb26,-0x62c(%rbp)
    adeb:	bb b2 67 
    adee:	c7 85 d8 f9 ff ff aa 	movl   $0x76f778aa,-0x628(%rbp)
    adf5:	78 f7 76 
    adf8:	66 c7 85 de f7 ff ff 	movw   $0x2df6,-0x822(%rbp)
    adff:	f6 2d 
    ae01:	c7 85 00 fa ff ff 01 	movl   $0x1,-0x600(%rbp)
    ae08:	00 00 00 
    ae0b:	c7 85 04 fa ff ff f6 	movl   $0xfffffff6,-0x5fc(%rbp)
    ae12:	ff ff ff 
    ae15:	c7 85 08 fa ff ff 01 	movl   $0x1,-0x5f8(%rbp)
    ae1c:	00 00 00 
    ae1f:	c7 85 0c fa ff ff f6 	movl   $0xfffffff6,-0x5f4(%rbp)
    ae26:	ff ff ff 
    ae29:	c7 85 10 fa ff ff 01 	movl   $0x1,-0x5f0(%rbp)
    ae30:	00 00 00 
    ae33:	c7 85 14 fa ff ff f6 	movl   $0xfffffff6,-0x5ec(%rbp)
    ae3a:	ff ff ff 
    ae3d:	c7 85 18 fa ff ff 01 	movl   $0x1,-0x5e8(%rbp)
    ae44:	00 00 00 
    ae47:	c7 85 1c fa ff ff f6 	movl   $0xfffffff6,-0x5e4(%rbp)
    ae4e:	ff ff ff 
    ae51:	c7 85 20 fa ff ff 01 	movl   $0x1,-0x5e0(%rbp)
    ae58:	00 00 00 
    ae5b:	c7 85 24 fa ff ff f6 	movl   $0xfffffff6,-0x5dc(%rbp)
    ae62:	ff ff ff 
    ae65:	48 8d 85 e4 f7 ff ff 	lea    -0x81c(%rbp),%rax
    ae6c:	48 89 85 00 f9 ff ff 	mov    %rax,-0x700(%rbp)
    ae73:	48 8d 05 46 bb 00 00 	lea    0xbb46(%rip),%rax        # 169c0 <g_805>
    ae7a:	48 89 85 60 f8 ff ff 	mov    %rax,-0x7a0(%rbp)
    ae81:	48 8d 85 60 f8 ff ff 	lea    -0x7a0(%rbp),%rax
    ae88:	48 89 85 08 f9 ff ff 	mov    %rax,-0x6f8(%rbp)
    ae8f:	48 8d 05 7a b8 00 00 	lea    0xb87a(%rip),%rax        # 16710 <g_229>
    ae96:	48 89 85 70 fa ff ff 	mov    %rax,-0x590(%rbp)
    ae9d:	48 8d 05 6c b8 00 00 	lea    0xb86c(%rip),%rax        # 16710 <g_229>
    aea4:	48 89 85 78 fa ff ff 	mov    %rax,-0x588(%rbp)
    aeab:	48 8d 05 5e b8 00 00 	lea    0xb85e(%rip),%rax        # 16710 <g_229>
    aeb2:	48 89 85 80 fa ff ff 	mov    %rax,-0x580(%rbp)
    aeb9:	48 8d 05 50 b8 00 00 	lea    0xb850(%rip),%rax        # 16710 <g_229>
    aec0:	48 89 85 88 fa ff ff 	mov    %rax,-0x578(%rbp)
    aec7:	48 8d 05 42 b8 00 00 	lea    0xb842(%rip),%rax        # 16710 <g_229>
    aece:	48 89 85 90 fa ff ff 	mov    %rax,-0x570(%rbp)
    aed5:	48 8d 05 34 b8 00 00 	lea    0xb834(%rip),%rax        # 16710 <g_229>
    aedc:	48 89 85 98 fa ff ff 	mov    %rax,-0x568(%rbp)
    aee3:	48 8d 05 26 b8 00 00 	lea    0xb826(%rip),%rax        # 16710 <g_229>
    aeea:	48 89 85 a0 fa ff ff 	mov    %rax,-0x560(%rbp)
    aef1:	48 8d 85 d6 f7 ff ff 	lea    -0x82a(%rbp),%rax
    aef8:	48 89 85 10 f9 ff ff 	mov    %rax,-0x6f0(%rbp)
    aeff:	66 c7 85 e0 f7 ff ff 	movw   $0x1,-0x820(%rbp)
    af06:	01 00 
    af08:	c7 85 1c f8 ff ff 01 	movl   $0x1,-0x7e4(%rbp)
    af0f:	00 00 00 
    af12:	66 c7 85 e2 f7 ff ff 	movw   $0x9386,-0x81e(%rbp)
    af19:	86 93 
    af1b:	c6 85 d7 f7 ff ff f6 	movb   $0xf6,-0x829(%rbp)
    af22:	c6 85 d9 f7 ff ff 07 	movb   $0x7,-0x827(%rbp)
    af29:	c7 85 20 f8 ff ff fe 	movl   $0xfffffffe,-0x7e0(%rbp)
    af30:	ff ff ff 
    af33:	48 8d 85 10 fe ff ff 	lea    -0x1f0(%rbp),%rax
    af3a:	48 8d 15 df 59 00 00 	lea    0x59df(%rip),%rdx        # 10920 <g_1811+0x8ca>
    af41:	b9 3c 00 00 00       	mov    $0x3c,%ecx
    af46:	48 89 c7             	mov    %rax,%rdi
    af49:	48 89 d6             	mov    %rdx,%rsi
    af4c:	f3 48 a5             	rep movsq %ds:(%rsi),%es:(%rdi)
    af4f:	48 8d 05 b2 b7 00 00 	lea    0xb7b2(%rip),%rax        # 16708 <g_119>
    af56:	48 89 85 18 f9 ff ff 	mov    %rax,-0x6e8(%rbp)
    af5d:	48 8d 85 d7 f7 ff ff 	lea    -0x829(%rbp),%rax
    af64:	48 89 85 20 f9 ff ff 	mov    %rax,-0x6e0(%rbp)
    af6b:	c7 85 24 f8 ff ff 3e 	movl   $0xcdf1893e,-0x7dc(%rbp)
    af72:	89 f1 cd 
    af75:	48 b8 f8 33 e7 cb 0c 	movabs $0x43f510ccbe733f8,%rax
    af7c:	51 3f 04 
    af7f:	48 89 85 28 f9 ff ff 	mov    %rax,-0x6d8(%rbp)
    af86:	48 c7 85 68 f8 ff ff 	movq   $0x0,-0x798(%rbp)
    af8d:	00 00 00 00 
    af91:	48 8d 85 68 f8 ff ff 	lea    -0x798(%rbp),%rax
    af98:	48 89 85 70 f8 ff ff 	mov    %rax,-0x790(%rbp)
    af9f:	48 8d 85 b0 fa ff ff 	lea    -0x550(%rbp),%rax
    afa6:	48 83 c0 18          	add    $0x18,%rax
    afaa:	48 89 85 e0 f9 ff ff 	mov    %rax,-0x620(%rbp)
    afb1:	48 8d 85 b0 fa ff ff 	lea    -0x550(%rbp),%rax
    afb8:	48 83 c0 18          	add    $0x18,%rax
    afbc:	48 89 85 e8 f9 ff ff 	mov    %rax,-0x618(%rbp)
    afc3:	48 8d 85 b0 fa ff ff 	lea    -0x550(%rbp),%rax
    afca:	48 83 c0 18          	add    $0x18,%rax
    afce:	48 89 85 f0 f9 ff ff 	mov    %rax,-0x610(%rbp)
    afd5:	48 8d 85 b0 fa ff ff 	lea    -0x550(%rbp),%rax
    afdc:	48 83 c0 18          	add    $0x18,%rax
    afe0:	48 89 85 f8 f9 ff ff 	mov    %rax,-0x608(%rbp)
    afe7:	48 8d 85 e0 f9 ff ff 	lea    -0x620(%rbp),%rax
    afee:	48 83 c0 18          	add    $0x18,%rax
    aff2:	48 89 85 30 f9 ff ff 	mov    %rax,-0x6d0(%rbp)
    aff9:	48 8d 05 f8 c8 00 00 	lea    0xc8f8(%rip),%rax        # 178f8 <g_268>
    b000:	48 89 85 38 f9 ff ff 	mov    %rax,-0x6c8(%rbp)
    b007:	c7 85 28 f8 ff ff ff 	movl   $0xffffffff,-0x7d8(%rbp)
    b00e:	ff ff ff 
    b011:	c7 85 ec f7 ff ff 00 	movl   $0x0,-0x814(%rbp)
    b018:	00 00 00 
    b01b:	eb 43                	jmp    b060 <func_64+0xb13>
    b01d:	c7 85 f0 f7 ff ff 00 	movl   $0x0,-0x810(%rbp)
    b024:	00 00 00 
    b027:	eb 27                	jmp    b050 <func_64+0xb03>
    b029:	8b 85 f0 f7 ff ff    	mov    -0x810(%rbp),%eax
    b02f:	48 63 d0             	movslq %eax,%rdx
    b032:	8b 85 ec f7 ff ff    	mov    -0x814(%rbp),%eax
    b038:	48 98                	cltq   
    b03a:	48 01 d0             	add    %rdx,%rax
    b03d:	48 c7 84 c5 88 f9 ff 	movq   $0x0,-0x678(%rbp,%rax,8)
    b044:	ff 00 00 00 00 
    b049:	83 85 f0 f7 ff ff 01 	addl   $0x1,-0x810(%rbp)
    b050:	83 bd f0 f7 ff ff 00 	cmpl   $0x0,-0x810(%rbp)
    b057:	7e d0                	jle    b029 <func_64+0xadc>
    b059:	83 85 ec f7 ff ff 01 	addl   $0x1,-0x814(%rbp)
    b060:	83 bd ec f7 ff ff 00 	cmpl   $0x0,-0x814(%rbp)
    b067:	7e b4                	jle    b01d <func_64+0xad0>
    b069:	c7 85 ec f7 ff ff 00 	movl   $0x0,-0x814(%rbp)
    b070:	00 00 00 
    b073:	eb 52                	jmp    b0c7 <func_64+0xb7a>
    b075:	c7 85 f0 f7 ff ff 00 	movl   $0x0,-0x810(%rbp)
    b07c:	00 00 00 
    b07f:	eb 36                	jmp    b0b7 <func_64+0xb6a>
    b081:	8b 85 f0 f7 ff ff    	mov    -0x810(%rbp),%eax
    b087:	48 63 c8             	movslq %eax,%rcx
    b08a:	8b 85 ec f7 ff ff    	mov    -0x814(%rbp),%eax
    b090:	48 63 d0             	movslq %eax,%rdx
    b093:	48 89 d0             	mov    %rdx,%rax
    b096:	48 c1 e0 03          	shl    $0x3,%rax
    b09a:	48 01 d0             	add    %rdx,%rax
    b09d:	48 8d 14 08          	lea    (%rax,%rcx,1),%rdx
    b0a1:	48 8d 85 70 f8 ff ff 	lea    -0x790(%rbp),%rax
    b0a8:	48 89 84 d5 b0 fa ff 	mov    %rax,-0x550(%rbp,%rdx,8)
    b0af:	ff 
    b0b0:	83 85 f0 f7 ff ff 01 	addl   $0x1,-0x810(%rbp)
    b0b7:	83 bd f0 f7 ff ff 08 	cmpl   $0x8,-0x810(%rbp)
    b0be:	7e c1                	jle    b081 <func_64+0xb34>
    b0c0:	83 85 ec f7 ff ff 01 	addl   $0x1,-0x814(%rbp)
    b0c7:	83 bd ec f7 ff ff 00 	cmpl   $0x0,-0x814(%rbp)
    b0ce:	7e a5                	jle    b075 <func_64+0xb28>
    b0d0:	48 8b 05 79 b6 00 00 	mov    0xb679(%rip),%rax        # 16750 <g_359>
    b0d7:	48 8b 00             	mov    (%rax),%rax
    b0da:	48 c7 00 00 00 00 00 	movq   $0x0,(%rax)
    b0e1:	8b 05 91 a0 00 00    	mov    0xa091(%rip),%eax        # 15178 <g_240>
    b0e7:	0f be c0             	movsbl %al,%eax
    b0ea:	be 07 00 00 00       	mov    $0x7,%esi
    b0ef:	89 c7                	mov    %eax,%edi
    b0f1:	e8 fc b0 ff ff       	callq  61f2 <safe_sub_func_int8_t_s_s>
    b0f6:	0f be c0             	movsbl %al,%eax
    b0f9:	89 05 79 a0 00 00    	mov    %eax,0xa079(%rip)        # 15178 <g_240>
    b0ff:	8b 05 73 a0 00 00    	mov    0xa073(%rip),%eax        # 15178 <g_240>
    b105:	83 f8 fd             	cmp    $0xfffffffd,%eax
    b108:	0f 8c 88 fc ff ff    	jl     ad96 <func_64+0x849>
    b10e:	48 8b 85 88 f8 ff ff 	mov    -0x778(%rbp),%rax
    b115:	48 8b 4d f8          	mov    -0x8(%rbp),%rcx
    b119:	64 48 33 0c 25 28 00 	xor    %fs:0x28,%rcx
    b120:	00 00 
    b122:	74 05                	je     b129 <func_64+0xbdc>
    b124:	e8 47 af ff ff       	callq  6070 <__stack_chk_fail@plt>
    b129:	c9                   	leaveq 
    b12a:	c3                   	retq   

000000000000b12b <func_73>:
    b12b:	f3 0f 1e fa          	endbr64 
    b12f:	55                   	push   %rbp
    b130:	48 89 e5             	mov    %rsp,%rbp
    b133:	41 54                	push   %r12
    b135:	53                   	push   %rbx
    b136:	48 81 ec 00 10 00 00 	sub    $0x1000,%rsp
    b13d:	48 83 0c 24 00       	orq    $0x0,(%rsp)
    b142:	48 81 ec 20 07 00 00 	sub    $0x720,%rsp
    b149:	89 bd dc e8 ff ff    	mov    %edi,-0x1724(%rbp)
    b14f:	89 f0                	mov    %esi,%eax
    b151:	89 95 d4 e8 ff ff    	mov    %edx,-0x172c(%rbp)
    b157:	66 89 85 d8 e8 ff ff 	mov    %ax,-0x1728(%rbp)
    b15e:	64 48 8b 04 25 28 00 	mov    %fs:0x28,%rax
    b165:	00 00 
    b167:	48 89 45 e8          	mov    %rax,-0x18(%rbp)
    b16b:	31 c0                	xor    %eax,%eax
    b16d:	c7 85 0c e9 ff ff 9f 	movl   $0x7be79d9f,-0x16f4(%rbp)
    b174:	9d e7 7b 
    b177:	48 8d 85 60 eb ff ff 	lea    -0x14a0(%rbp),%rax
    b17e:	48 8d 15 7b 59 00 00 	lea    0x597b(%rip),%rdx        # 10b00 <g_1811+0xaaa>
    b185:	b9 6c 00 00 00       	mov    $0x6c,%ecx
    b18a:	48 89 c7             	mov    %rax,%rdi
    b18d:	48 89 d6             	mov    %rdx,%rsi
    b190:	f3 48 a5             	rep movsq %ds:(%rsi),%es:(%rdi)
    b193:	48 8d 05 76 b5 00 00 	lea    0xb576(%rip),%rax        # 16710 <g_229>
    b19a:	48 89 85 58 e9 ff ff 	mov    %rax,-0x16a8(%rbp)
    b1a1:	c6 85 e7 e8 ff ff ff 	movb   $0xff,-0x1719(%rbp)
    b1a8:	48 8d 85 e7 e8 ff ff 	lea    -0x1719(%rbp),%rax
    b1af:	48 89 85 60 e9 ff ff 	mov    %rax,-0x16a0(%rbp)
    b1b6:	c7 85 f4 e8 ff ff 03 	movl   $0x3,-0x170c(%rbp)
    b1bd:	00 00 00 
    b1c0:	c7 85 f8 e8 ff ff 00 	movl   $0x0,-0x1708(%rbp)
    b1c7:	00 00 00 
    b1ca:	c7 85 fc e8 ff ff c9 	movl   $0x53a394c9,-0x1704(%rbp)
    b1d1:	94 a3 53 
    b1d4:	c7 85 90 ea ff ff ff 	movl   $0xffffffff,-0x1570(%rbp)
    b1db:	ff ff ff 
    b1de:	c7 85 94 ea ff ff 06 	movl   $0x807aaf06,-0x156c(%rbp)
    b1e5:	af 7a 80 
    b1e8:	c7 85 98 ea ff ff 06 	movl   $0x807aaf06,-0x1568(%rbp)
    b1ef:	af 7a 80 
    b1f2:	c7 85 9c ea ff ff ff 	movl   $0xffffffff,-0x1564(%rbp)
    b1f9:	ff ff ff 
    b1fc:	c7 85 a0 ea ff ff 2e 	movl   $0x90ff822e,-0x1560(%rbp)
    b203:	82 ff 90 
    b206:	c7 85 a4 ea ff ff ff 	movl   $0xffffffff,-0x155c(%rbp)
    b20d:	ff ff ff 
    b210:	c7 85 a8 ea ff ff 06 	movl   $0x807aaf06,-0x1558(%rbp)
    b217:	af 7a 80 
    b21a:	c7 85 ac ea ff ff 53 	movl   $0x3c07c753,-0x1554(%rbp)
    b221:	c7 07 3c 
    b224:	c7 85 b0 ea ff ff 17 	movl   $0x85d68d17,-0x1550(%rbp)
    b22b:	8d d6 85 
    b22e:	c7 85 b4 ea ff ff 0f 	movl   $0xce75230f,-0x154c(%rbp)
    b235:	23 75 ce 
    b238:	c7 85 b8 ea ff ff 01 	movl   $0x1,-0x1548(%rbp)
    b23f:	00 00 00 
    b242:	c7 85 bc ea ff ff 0f 	movl   $0xce75230f,-0x1544(%rbp)
    b249:	23 75 ce 
    b24c:	c7 85 c0 ea ff ff 17 	movl   $0x85d68d17,-0x1540(%rbp)
    b253:	8d d6 85 
    b256:	c7 85 c4 ea ff ff 53 	movl   $0x3c07c753,-0x153c(%rbp)
    b25d:	c7 07 3c 
    b260:	c7 85 c8 ea ff ff 7e 	movl   $0x26e7447e,-0x1538(%rbp)
    b267:	44 e7 26 
    b26a:	c7 85 cc ea ff ff ff 	movl   $0xffffffff,-0x1534(%rbp)
    b271:	ff ff ff 
    b274:	c7 85 d0 ea ff ff 2e 	movl   $0x90ff822e,-0x1530(%rbp)
    b27b:	82 ff 90 
    b27e:	c7 85 d4 ea ff ff ff 	movl   $0xffffffff,-0x152c(%rbp)
    b285:	ff ff ff 
    b288:	c7 85 d8 ea ff ff 06 	movl   $0x807aaf06,-0x1528(%rbp)
    b28f:	af 7a 80 
    b292:	c7 85 dc ea ff ff 06 	movl   $0x807aaf06,-0x1524(%rbp)
    b299:	af 7a 80 
    b29c:	c7 85 e0 ea ff ff ff 	movl   $0xffffffff,-0x1520(%rbp)
    b2a3:	ff ff ff 
    b2a6:	c7 85 e4 ea ff ff f6 	movl   $0xfffffff6,-0x151c(%rbp)
    b2ad:	ff ff ff 
    b2b0:	c7 85 e8 ea ff ff 17 	movl   $0x85d68d17,-0x1518(%rbp)
    b2b7:	8d d6 85 
    b2ba:	c7 85 ec ea ff ff f6 	movl   $0xfffffff6,-0x1514(%rbp)
    b2c1:	ff ff ff 
    b2c4:	c7 85 f0 ea ff ff 5e 	movl   $0x9a49af5e,-0x1510(%rbp)
    b2cb:	af 49 9a 
    b2ce:	c7 85 f4 ea ff ff ff 	movl   $0xffffffff,-0x150c(%rbp)
    b2d5:	ff ff ff 
    b2d8:	c7 85 f8 ea ff ff 01 	movl   $0x1,-0x1508(%rbp)
    b2df:	00 00 00 
    b2e2:	c7 85 fc ea ff ff 53 	movl   $0x3c07c753,-0x1504(%rbp)
    b2e9:	c7 07 3c 
    b2ec:	c7 85 00 eb ff ff ff 	movl   $0xffffffff,-0x1500(%rbp)
    b2f3:	ff ff ff 
    b2f6:	c7 85 04 eb ff ff 7e 	movl   $0x26e7447e,-0x14fc(%rbp)
    b2fd:	44 e7 26 
    b300:	c7 85 08 eb ff ff 2e 	movl   $0x90ff822e,-0x14f8(%rbp)
    b307:	82 ff 90 
    b30a:	c7 85 0c eb ff ff 2e 	movl   $0x90ff822e,-0x14f4(%rbp)
    b311:	82 ff 90 
    b314:	c7 85 10 eb ff ff 7e 	movl   $0x26e7447e,-0x14f0(%rbp)
    b31b:	44 e7 26 
    b31e:	c7 85 14 eb ff ff ff 	movl   $0xffffffff,-0x14ec(%rbp)
    b325:	ff ff ff 
    b328:	c7 85 18 eb ff ff 7e 	movl   $0x26e7447e,-0x14e8(%rbp)
    b32f:	44 e7 26 
    b332:	c7 85 1c eb ff ff f6 	movl   $0xfffffff6,-0x14e4(%rbp)
    b339:	ff ff ff 
    b33c:	c7 85 20 eb ff ff 5e 	movl   $0x9a49af5e,-0x14e0(%rbp)
    b343:	af 49 9a 
    b346:	c7 85 24 eb ff ff ff 	movl   $0xffffffff,-0x14dc(%rbp)
    b34d:	ff ff ff 
    b350:	c7 85 28 eb ff ff 01 	movl   $0x1,-0x14d8(%rbp)
    b357:	00 00 00 
    b35a:	c7 85 2c eb ff ff 53 	movl   $0x3c07c753,-0x14d4(%rbp)
    b361:	c7 07 3c 
    b364:	c7 85 30 eb ff ff 01 	movl   $0x1,-0x14d0(%rbp)
    b36b:	00 00 00 
    b36e:	c7 85 34 eb ff ff ff 	movl   $0xffffffff,-0x14cc(%rbp)
    b375:	ff ff ff 
    b378:	c7 85 38 eb ff ff 06 	movl   $0x807aaf06,-0x14c8(%rbp)
    b37f:	af 7a 80 
    b382:	c7 85 3c eb ff ff 06 	movl   $0x807aaf06,-0x14c4(%rbp)
    b389:	af 7a 80 
    b38c:	c7 85 40 eb ff ff ff 	movl   $0xffffffff,-0x14c0(%rbp)
    b393:	ff ff ff 
    b396:	c7 85 44 eb ff ff 2e 	movl   $0x90ff822e,-0x14bc(%rbp)
    b39d:	82 ff 90 
    b3a0:	c7 85 48 eb ff ff ff 	movl   $0xffffffff,-0x14b8(%rbp)
    b3a7:	ff ff ff 
    b3aa:	c7 85 4c eb ff ff 06 	movl   $0x807aaf06,-0x14b4(%rbp)
    b3b1:	af 7a 80 
    b3b4:	c7 85 50 eb ff ff 06 	movl   $0x807aaf06,-0x14b0(%rbp)
    b3bb:	af 7a 80 
    b3be:	48 8d 85 00 f8 ff ff 	lea    -0x800(%rbp),%rax
    b3c5:	48 8d 15 94 5a 00 00 	lea    0x5a94(%rip),%rdx        # 10e60 <g_1811+0xe0a>
    b3cc:	b9 fa 00 00 00       	mov    $0xfa,%ecx
    b3d1:	48 89 c7             	mov    %rax,%rdi
    b3d4:	48 89 d6             	mov    %rdx,%rsi
    b3d7:	f3 48 a5             	rep movsq %ds:(%rsi),%es:(%rdi)
    b3da:	c7 85 28 e9 ff ff 03 	movl   $0x76aa6a03,-0x16d8(%rbp)
    b3e1:	6a aa 76 
    b3e4:	c7 85 10 e9 ff ff 00 	movl   $0x0,-0x16f0(%rbp)
    b3eb:	00 00 00 
    b3ee:	eb 14                	jmp    b404 <func_73+0x2d9>
    b3f0:	8b 85 10 e9 ff ff    	mov    -0x16f0(%rbp),%eax
    b3f6:	48 98                	cltq   
    b3f8:	c6 44 05 d9 01       	movb   $0x1,-0x27(%rbp,%rax,1)
    b3fd:	83 85 10 e9 ff ff 01 	addl   $0x1,-0x16f0(%rbp)
    b404:	83 bd 10 e9 ff ff 05 	cmpl   $0x5,-0x16f0(%rbp)
    b40b:	7e e3                	jle    b3f0 <func_73+0x2c5>
    b40d:	8b 9d d8 ec ff ff    	mov    -0x1328(%rbp),%ebx
    b413:	83 bd dc e8 ff ff 00 	cmpl   $0x0,-0x1724(%rbp)
    b41a:	75 09                	jne    b425 <func_73+0x2fa>
    b41c:	83 bd 0c e9 ff ff 00 	cmpl   $0x0,-0x16f4(%rbp)
    b423:	74 07                	je     b42c <func_73+0x301>
    b425:	b8 01 00 00 00       	mov    $0x1,%eax
    b42a:	eb 05                	jmp    b431 <func_73+0x306>
    b42c:	b8 00 00 00 00       	mov    $0x0,%eax
    b431:	0f b6 c0             	movzbl %al,%eax
    b434:	be 00 00 00 00       	mov    $0x0,%esi
    b439:	89 c7                	mov    %eax,%edi
    b43b:	e8 4d b8 ff ff       	callq  6c8d <safe_rshift_func_uint8_t_u_s>
    b440:	0f b6 d0             	movzbl %al,%edx
    b443:	48 8b 05 d6 b2 00 00 	mov    0xb2d6(%rip),%rax        # 16720 <g_230>
    b44a:	48 8b 00             	mov    (%rax),%rax
    b44d:	48 39 85 58 e9 ff ff 	cmp    %rax,-0x16a8(%rbp)
    b454:	74 12                	je     b468 <func_73+0x33d>
    b456:	0f b6 85 e7 e8 ff ff 	movzbl -0x1719(%rbp),%eax
    b45d:	84 c0                	test   %al,%al
    b45f:	74 07                	je     b468 <func_73+0x33d>
    b461:	b8 01 00 00 00       	mov    $0x1,%eax
    b466:	eb 05                	jmp    b46d <func_73+0x342>
    b468:	b8 00 00 00 00       	mov    $0x0,%eax
    b46d:	39 d0                	cmp    %edx,%eax
    b46f:	74 11                	je     b482 <func_73+0x357>
    b471:	66 83 bd d8 e8 ff ff 	cmpw   $0x0,-0x1728(%rbp)
    b478:	00 
    b479:	74 07                	je     b482 <func_73+0x357>
    b47b:	ba 01 00 00 00       	mov    $0x1,%edx
    b480:	eb 05                	jmp    b487 <func_73+0x35c>
    b482:	ba 00 00 00 00       	mov    $0x0,%edx
    b487:	0f b7 85 d8 e8 ff ff 	movzwl -0x1728(%rbp),%eax
    b48e:	39 c2                	cmp    %eax,%edx
    b490:	48 8b 85 60 e9 ff ff 	mov    -0x16a0(%rbp),%rax
    b497:	c6 00 01             	movb   $0x1,(%rax)
    b49a:	48 8b 85 60 e9 ff ff 	mov    -0x16a0(%rbp),%rax
    b4a1:	0f b6 00             	movzbl (%rax),%eax
    b4a4:	0f be c0             	movsbl %al,%eax
    b4a7:	89 c6                	mov    %eax,%esi
    b4a9:	bf 00 00 00 00       	mov    $0x0,%edi
    b4ae:	e8 ee ad ff ff       	callq  62a1 <safe_lshift_func_int8_t_s_s>
    b4b3:	0f be c0             	movsbl %al,%eax
    b4b6:	be 51 00 00 00       	mov    $0x51,%esi
    b4bb:	89 c7                	mov    %eax,%edi
    b4bd:	e8 50 ad ff ff       	callq  6212 <safe_mul_func_int8_t_s_s>
    b4c2:	0f be c0             	movsbl %al,%eax
    b4c5:	39 c3                	cmp    %eax,%ebx
    b4c7:	0f 9e c0             	setle  %al
    b4ca:	0f b6 d0             	movzbl %al,%edx
    b4cd:	0f b6 45 db          	movzbl -0x25(%rbp),%eax
    b4d1:	0f be c0             	movsbl %al,%eax
    b4d4:	21 c2                	and    %eax,%edx
    b4d6:	8b 8d 0c e9 ff ff    	mov    -0x16f4(%rbp),%ecx
    b4dc:	48 8b 05 15 9d 00 00 	mov    0x9d15(%rip),%rax        # 151f8 <g_615+0x18>
    b4e3:	48 39 c1             	cmp    %rax,%rcx
    b4e6:	0f 94 c0             	sete   %al
    b4e9:	0f b6 c0             	movzbl %al,%eax
    b4ec:	89 d6                	mov    %edx,%esi
    b4ee:	89 c7                	mov    %eax,%edi
    b4f0:	e8 35 b0 ff ff       	callq  652a <safe_rshift_func_int16_t_s_s>
    b4f5:	0f bf d0             	movswl %ax,%edx
    b4f8:	48 8b 05 71 b2 00 00 	mov    0xb271(%rip),%rax        # 16770 <g_486>
    b4ff:	48 8b 00             	mov    (%rax),%rax
    b502:	48 8b 00             	mov    (%rax),%rax
    b505:	8b 00                	mov    (%rax),%eax
    b507:	39 c2                	cmp    %eax,%edx
    b509:	0f 82 23 0a 00 00    	jb     bf32 <func_73+0xe07>
    b50f:	c7 85 34 e9 ff ff ff 	movl   $0xffffffff,-0x16cc(%rbp)
    b516:	ff ff ff 
    b519:	c7 85 00 e9 ff ff 16 	movl   $0xee715616,-0x1700(%rbp)
    b520:	56 71 ee 
    b523:	c7 85 04 e9 ff ff a2 	movl   $0xe87c7aa2,-0x16fc(%rbp)
    b52a:	7a 7c e8 
    b52d:	c7 85 08 e9 ff ff 2f 	movl   $0x3f9a142f,-0x16f8(%rbp)
    b534:	14 9a 3f 
    b537:	c7 85 38 e9 ff ff 61 	movl   $0xe6e80461,-0x16c8(%rbp)
    b53e:	04 e8 e6 
    b541:	48 8d 85 08 e9 ff ff 	lea    -0x16f8(%rbp),%rax
    b548:	48 89 85 d0 e9 ff ff 	mov    %rax,-0x1630(%rbp)
    b54f:	48 c7 85 d8 e9 ff ff 	movq   $0x0,-0x1628(%rbp)
    b556:	00 00 00 00 
    b55a:	48 8d 85 00 e9 ff ff 	lea    -0x1700(%rbp),%rax
    b561:	48 89 85 e0 e9 ff ff 	mov    %rax,-0x1620(%rbp)
    b568:	48 8d 85 04 e9 ff ff 	lea    -0x16fc(%rbp),%rax
    b56f:	48 89 85 60 ea ff ff 	mov    %rax,-0x15a0(%rbp)
    b576:	48 8d 85 04 e9 ff ff 	lea    -0x16fc(%rbp),%rax
    b57d:	48 89 85 68 ea ff ff 	mov    %rax,-0x1598(%rbp)
    b584:	48 8d 85 04 e9 ff ff 	lea    -0x16fc(%rbp),%rax
    b58b:	48 89 85 70 ea ff ff 	mov    %rax,-0x1590(%rbp)
    b592:	48 8d 85 04 e9 ff ff 	lea    -0x16fc(%rbp),%rax
    b599:	48 89 85 78 ea ff ff 	mov    %rax,-0x1588(%rbp)
    b5a0:	48 8d 85 04 e9 ff ff 	lea    -0x16fc(%rbp),%rax
    b5a7:	48 89 85 80 ea ff ff 	mov    %rax,-0x1580(%rbp)
    b5ae:	66 c7 85 ee e8 ff ff 	movw   $0x41f0,-0x1712(%rbp)
    b5b5:	f0 41 
    b5b7:	66 c7 85 14 ea ff ff 	movw   $0xfff9,-0x15ec(%rbp)
    b5be:	f9 ff 
    b5c0:	66 c7 85 16 ea ff ff 	movw   $0xfff9,-0x15ea(%rbp)
    b5c7:	f9 ff 
    b5c9:	66 c7 85 18 ea ff ff 	movw   $0xfff9,-0x15e8(%rbp)
    b5d0:	f9 ff 
    b5d2:	66 c7 85 1a ea ff ff 	movw   $0xfff9,-0x15e6(%rbp)
    b5d9:	f9 ff 
    b5db:	66 c7 85 1c ea ff ff 	movw   $0xfff9,-0x15e4(%rbp)
    b5e2:	f9 ff 
    b5e4:	66 c7 85 1e ea ff ff 	movw   $0xfff9,-0x15e2(%rbp)
    b5eb:	f9 ff 
    b5ed:	48 b8 0f b7 3f 34 ee 	movabs $0x4e4d8dee343fb70f,%rax
    b5f4:	8d 4d 4e 
    b5f7:	48 89 85 c0 ee ff ff 	mov    %rax,-0x1140(%rbp)
    b5fe:	48 89 85 c8 ee ff ff 	mov    %rax,-0x1138(%rbp)
    b605:	48 89 85 d0 ee ff ff 	mov    %rax,-0x1130(%rbp)
    b60c:	48 89 85 d8 ee ff ff 	mov    %rax,-0x1128(%rbp)
    b613:	48 89 85 e0 ee ff ff 	mov    %rax,-0x1120(%rbp)
    b61a:	48 89 85 e8 ee ff ff 	mov    %rax,-0x1118(%rbp)
    b621:	48 89 85 f0 ee ff ff 	mov    %rax,-0x1110(%rbp)
    b628:	48 89 85 f8 ee ff ff 	mov    %rax,-0x1108(%rbp)
    b62f:	48 89 85 00 ef ff ff 	mov    %rax,-0x1100(%rbp)
    b636:	48 89 85 08 ef ff ff 	mov    %rax,-0x10f8(%rbp)
    b63d:	66 c7 85 f0 e8 ff ff 	movw   $0xfff9,-0x1710(%rbp)
    b644:	f9 ff 
    b646:	48 b8 a9 a6 0b 9e ea 	movabs $0x263020ea9e0ba6a9,%rax
    b64d:	20 30 26 
    b650:	48 89 85 e8 e9 ff ff 	mov    %rax,-0x1618(%rbp)
    b657:	c7 85 3c e9 ff ff ff 	movl   $0xffffffff,-0x16c4(%rbp)
    b65e:	ff ff ff 
    b661:	c7 85 14 e9 ff ff 00 	movl   $0x0,-0x16ec(%rbp)
    b668:	00 00 00 
    b66b:	eb 14                	jmp    b681 <func_73+0x556>
    b66d:	8b 85 14 e9 ff ff    	mov    -0x16ec(%rbp),%eax
    b673:	48 98                	cltq   
    b675:	c6 44 05 df af       	movb   $0xaf,-0x21(%rbp,%rax,1)
    b67a:	83 85 14 e9 ff ff 01 	addl   $0x1,-0x16ec(%rbp)
    b681:	83 bd 14 e9 ff ff 08 	cmpl   $0x8,-0x16ec(%rbp)
    b688:	7e e3                	jle    b66d <func_73+0x542>
    b68a:	c7 85 14 e9 ff ff 00 	movl   $0x0,-0x16ec(%rbp)
    b691:	00 00 00 
    b694:	eb 14                	jmp    b6aa <func_73+0x57f>
    b696:	8b 85 14 e9 ff ff    	mov    -0x16ec(%rbp),%eax
    b69c:	48 98                	cltq   
    b69e:	c6 44 05 d7 00       	movb   $0x0,-0x29(%rbp,%rax,1)
    b6a3:	83 85 14 e9 ff ff 01 	addl   $0x1,-0x16ec(%rbp)
    b6aa:	83 bd 14 e9 ff ff 01 	cmpl   $0x1,-0x16ec(%rbp)
    b6b1:	7e e3                	jle    b696 <func_73+0x56b>
    b6b3:	66 c7 05 00 9b 00 00 	movw   $0x0,0x9b00(%rip)        # 151bc <g_434>
    b6ba:	00 00 
    b6bc:	e9 4b 08 00 00       	jmpq   bf0c <func_73+0xde1>
    b6c1:	c7 85 18 e9 ff ff 45 	movl   $0xdcbe6f45,-0x16e8(%rbp)
    b6c8:	6f be dc 
    b6cb:	c7 85 40 e9 ff ff b7 	movl   $0x615fe9b7,-0x16c0(%rbp)
    b6d2:	e9 5f 61 
    b6d5:	c7 85 1c e9 ff ff 00 	movl   $0x0,-0x16e4(%rbp)
    b6dc:	00 00 00 
    b6df:	eb 1a                	jmp    b6fb <func_73+0x5d0>
    b6e1:	8b 85 1c e9 ff ff    	mov    -0x16e4(%rbp),%eax
    b6e7:	48 98                	cltq   
    b6e9:	c7 84 85 40 ea ff ff 	movl   $0x0,-0x15c0(%rbp,%rax,4)
    b6f0:	00 00 00 00 
    b6f4:	83 85 1c e9 ff ff 01 	addl   $0x1,-0x16e4(%rbp)
    b6fb:	83 bd 1c e9 ff ff 07 	cmpl   $0x7,-0x16e4(%rbp)
    b702:	7e dd                	jle    b6e1 <func_73+0x5b6>
    b704:	c7 05 32 9a 00 00 00 	movl   $0x0,0x9a32(%rip)        # 15140 <g_128>
    b70b:	00 00 00 
    b70e:	e9 c9 07 00 00       	jmpq   bedc <func_73+0xdb1>
    b713:	c6 85 e9 e8 ff ff ff 	movb   $0xff,-0x1717(%rbp)
    b71a:	c7 85 44 e9 ff ff ff 	movl   $0xffffffff,-0x16bc(%rbp)
    b721:	ff ff ff 
    b724:	c7 85 48 e9 ff ff 78 	movl   $0x6346ce78,-0x16b8(%rbp)
    b72b:	ce 46 63 
    b72e:	66 c7 85 f2 e8 ff ff 	movw   $0xba9c,-0x170e(%rbp)
    b735:	9c ba 
    b737:	c7 85 4c e9 ff ff 01 	movl   $0x1,-0x16b4(%rbp)
    b73e:	00 00 00 
    b741:	c7 85 20 ea ff ff 00 	movl   $0x0,-0x15e0(%rbp)
    b748:	00 00 00 
    b74b:	c7 85 24 ea ff ff 00 	movl   $0x0,-0x15dc(%rbp)
    b752:	00 00 00 
    b755:	c7 85 28 ea ff ff 00 	movl   $0x0,-0x15d8(%rbp)
    b75c:	00 00 00 
    b75f:	c7 85 2c ea ff ff 00 	movl   $0x0,-0x15d4(%rbp)
    b766:	00 00 00 
    b769:	c7 85 30 ea ff ff 00 	movl   $0x0,-0x15d0(%rbp)
    b770:	00 00 00 
    b773:	c7 85 50 e9 ff ff 3e 	movl   $0x61d2693e,-0x16b0(%rbp)
    b77a:	69 d2 61 
    b77d:	c7 85 0c e9 ff ff 00 	movl   $0x0,-0x16f4(%rbp)
    b784:	00 00 00 
    b787:	e9 ee 05 00 00       	jmpq   bd7a <func_73+0xc4f>
    b78c:	8b 05 ae 99 00 00    	mov    0x99ae(%rip),%eax        # 15140 <g_128>
    b792:	8d 50 08             	lea    0x8(%rax),%edx
    b795:	8b 85 0c e9 ff ff    	mov    -0x16f4(%rbp),%eax
    b79b:	83 c0 04             	add    $0x4,%eax
    b79e:	89 c1                	mov    %eax,%ecx
    b7a0:	48 63 d2             	movslq %edx,%rdx
    b7a3:	8b 85 0c e9 ff ff    	mov    -0x16f4(%rbp),%eax
    b7a9:	48 01 c2             	add    %rax,%rdx
    b7ac:	48 89 d0             	mov    %rdx,%rax
    b7af:	48 01 c0             	add    %rax,%rax
    b7b2:	48 01 d0             	add    %rdx,%rax
    b7b5:	48 01 c0             	add    %rax,%rax
    b7b8:	48 01 c8             	add    %rcx,%rax
    b7bb:	48 8d 14 85 00 00 00 	lea    0x0(,%rax,4),%rdx
    b7c2:	00 
    b7c3:	48 8d 05 76 98 00 00 	lea    0x9876(%rip),%rax        # 15040 <g_12>
    b7ca:	48 01 d0             	add    %rdx,%rax
    b7cd:	48 89 85 00 ea ff ff 	mov    %rax,-0x1600(%rbp)
    b7d4:	48 8d 05 45 99 00 00 	lea    0x9945(%rip),%rax        # 15120 <g_47>
    b7db:	48 89 85 80 f2 ff ff 	mov    %rax,-0xd80(%rbp)
    b7e2:	48 8d 05 37 99 00 00 	lea    0x9937(%rip),%rax        # 15120 <g_47>
    b7e9:	48 89 85 88 f2 ff ff 	mov    %rax,-0xd78(%rbp)
    b7f0:	48 8d 05 bd 98 00 00 	lea    0x98bd(%rip),%rax        # 150b4 <g_12+0x74>
    b7f7:	48 89 85 90 f2 ff ff 	mov    %rax,-0xd70(%rbp)
    b7fe:	48 c7 85 98 f2 ff ff 	movq   $0x0,-0xd68(%rbp)
    b805:	00 00 00 00 
    b809:	48 8d 05 88 99 00 00 	lea    0x9988(%rip),%rax        # 15198 <g_258+0x18>
    b810:	48 89 85 a0 f2 ff ff 	mov    %rax,-0xd60(%rbp)
    b817:	48 c7 85 a8 f2 ff ff 	movq   $0x0,-0xd58(%rbp)
    b81e:	00 00 00 00 
    b822:	48 8d 85 f4 e8 ff ff 	lea    -0x170c(%rbp),%rax
    b829:	48 89 85 b0 f2 ff ff 	mov    %rax,-0xd50(%rbp)
    b830:	48 c7 85 b8 f2 ff ff 	movq   $0x0,-0xd48(%rbp)
    b837:	00 00 00 00 
    b83b:	48 8d 05 56 99 00 00 	lea    0x9956(%rip),%rax        # 15198 <g_258+0x18>
    b842:	48 89 85 c0 f2 ff ff 	mov    %rax,-0xd40(%rbp)
    b849:	8b 85 0c e9 ff ff    	mov    -0x16f4(%rbp),%eax
    b84f:	8d 70 05             	lea    0x5(%rax),%esi
    b852:	8b 05 e8 98 00 00    	mov    0x98e8(%rip),%eax        # 15140 <g_128>
    b858:	8b 15 e2 98 00 00    	mov    0x98e2(%rip),%edx        # 15140 <g_128>
    b85e:	83 c2 03             	add    $0x3,%edx
    b861:	48 63 ca             	movslq %edx,%rcx
    b864:	89 f2                	mov    %esi,%edx
    b866:	48 98                	cltq   
    b868:	48 01 c2             	add    %rax,%rdx
    b86b:	48 89 d0             	mov    %rdx,%rax
    b86e:	48 01 c0             	add    %rax,%rax
    b871:	48 01 d0             	add    %rdx,%rax
    b874:	48 01 c0             	add    %rax,%rax
    b877:	48 01 c8             	add    %rcx,%rax
    b87a:	48 8d 14 85 00 00 00 	lea    0x0(,%rax,4),%rdx
    b881:	00 
    b882:	48 8d 05 b7 97 00 00 	lea    0x97b7(%rip),%rax        # 15040 <g_12>
    b889:	48 01 d0             	add    %rdx,%rax
    b88c:	48 89 85 c8 f2 ff ff 	mov    %rax,-0xd38(%rbp)
    b893:	48 c7 85 d0 f2 ff ff 	movq   $0x0,-0xd30(%rbp)
    b89a:	00 00 00 00 
    b89e:	8b 85 0c e9 ff ff    	mov    -0x16f4(%rbp),%eax
    b8a4:	8d 70 05             	lea    0x5(%rax),%esi
    b8a7:	8b 05 93 98 00 00    	mov    0x9893(%rip),%eax        # 15140 <g_128>
    b8ad:	8b 15 8d 98 00 00    	mov    0x988d(%rip),%edx        # 15140 <g_128>
    b8b3:	83 c2 03             	add    $0x3,%edx
    b8b6:	48 63 ca             	movslq %edx,%rcx
    b8b9:	89 f2                	mov    %esi,%edx
    b8bb:	48 98                	cltq   
    b8bd:	48 01 c2             	add    %rax,%rdx
    b8c0:	48 89 d0             	mov    %rdx,%rax
    b8c3:	48 01 c0             	add    %rax,%rax
    b8c6:	48 01 d0             	add    %rdx,%rax
    b8c9:	48 01 c0             	add    %rax,%rax
    b8cc:	48 01 c8             	add    %rcx,%rax
    b8cf:	48 8d 14 85 00 00 00 	lea    0x0(,%rax,4),%rdx
    b8d6:	00 
    b8d7:	48 8d 05 62 97 00 00 	lea    0x9762(%rip),%rax        # 15040 <g_12>
    b8de:	48 01 d0             	add    %rdx,%rax
    b8e1:	48 89 85 d8 f2 ff ff 	mov    %rax,-0xd28(%rbp)
    b8e8:	48 8d 05 a9 98 00 00 	lea    0x98a9(%rip),%rax        # 15198 <g_258+0x18>
    b8ef:	48 89 85 e0 f2 ff ff 	mov    %rax,-0xd20(%rbp)
    b8f6:	48 c7 85 e8 f2 ff ff 	movq   $0x0,-0xd18(%rbp)
    b8fd:	00 00 00 00 
    b901:	48 8d 05 18 98 00 00 	lea    0x9818(%rip),%rax        # 15120 <g_47>
    b908:	48 89 85 f0 f2 ff ff 	mov    %rax,-0xd10(%rbp)
    b90f:	48 c7 85 f8 f2 ff ff 	movq   $0x0,-0xd08(%rbp)
    b916:	00 00 00 00 
    b91a:	8b 85 0c e9 ff ff    	mov    -0x16f4(%rbp),%eax
    b920:	8d 70 05             	lea    0x5(%rax),%esi
    b923:	8b 05 17 98 00 00    	mov    0x9817(%rip),%eax        # 15140 <g_128>
    b929:	8b 15 11 98 00 00    	mov    0x9811(%rip),%edx        # 15140 <g_128>
    b92f:	83 c2 03             	add    $0x3,%edx
    b932:	48 63 ca             	movslq %edx,%rcx
    b935:	89 f2                	mov    %esi,%edx
    b937:	48 98                	cltq   
    b939:	48 01 c2             	add    %rax,%rdx
    b93c:	48 89 d0             	mov    %rdx,%rax
    b93f:	48 01 c0             	add    %rax,%rax
    b942:	48 01 d0             	add    %rdx,%rax
    b945:	48 01 c0             	add    %rax,%rax
    b948:	48 01 c8             	add    %rcx,%rax
    b94b:	48 8d 14 85 00 00 00 	lea    0x0(,%rax,4),%rdx
    b952:	00 
    b953:	48 8d 05 e6 96 00 00 	lea    0x96e6(%rip),%rax        # 15040 <g_12>
    b95a:	48 01 d0             	add    %rdx,%rax
    b95d:	48 89 85 00 f3 ff ff 	mov    %rax,-0xd00(%rbp)
    b964:	48 8d 05 2d 98 00 00 	lea    0x982d(%rip),%rax        # 15198 <g_258+0x18>
    b96b:	48 89 85 08 f3 ff ff 	mov    %rax,-0xcf8(%rbp)
    b972:	48 8d 85 f4 e8 ff ff 	lea    -0x170c(%rbp),%rax
    b979:	48 89 85 10 f3 ff ff 	mov    %rax,-0xcf0(%rbp)
    b980:	48 c7 85 18 f3 ff ff 	movq   $0x0,-0xce8(%rbp)
    b987:	00 00 00 00 
    b98b:	48 c7 85 20 f3 ff ff 	movq   $0x0,-0xce0(%rbp)
    b992:	00 00 00 00 
    b996:	48 8d 85 f4 e8 ff ff 	lea    -0x170c(%rbp),%rax
    b99d:	48 89 85 28 f3 ff ff 	mov    %rax,-0xcd8(%rbp)
    b9a4:	48 8d 05 ed 97 00 00 	lea    0x97ed(%rip),%rax        # 15198 <g_258+0x18>
    b9ab:	48 89 85 30 f3 ff ff 	mov    %rax,-0xcd0(%rbp)
    b9b2:	8b 85 0c e9 ff ff    	mov    -0x16f4(%rbp),%eax
    b9b8:	8d 70 05             	lea    0x5(%rax),%esi
    b9bb:	8b 05 7f 97 00 00    	mov    0x977f(%rip),%eax        # 15140 <g_128>
    b9c1:	8b 15 79 97 00 00    	mov    0x9779(%rip),%edx        # 15140 <g_128>
    b9c7:	83 c2 03             	add    $0x3,%edx
    b9ca:	48 63 ca             	movslq %edx,%rcx
    b9cd:	89 f2                	mov    %esi,%edx
    b9cf:	48 98                	cltq   
    b9d1:	48 01 c2             	add    %rax,%rdx
    b9d4:	48 89 d0             	mov    %rdx,%rax
    b9d7:	48 01 c0             	add    %rax,%rax
    b9da:	48 01 d0             	add    %rdx,%rax
    b9dd:	48 01 c0             	add    %rax,%rax
    b9e0:	48 01 c8             	add    %rcx,%rax
    b9e3:	48 8d 14 85 00 00 00 	lea    0x0(,%rax,4),%rdx
    b9ea:	00 
    b9eb:	48 8d 05 4e 96 00 00 	lea    0x964e(%rip),%rax        # 15040 <g_12>
    b9f2:	48 01 d0             	add    %rdx,%rax
    b9f5:	48 89 85 38 f3 ff ff 	mov    %rax,-0xcc8(%rbp)
    b9fc:	48 8d 05 b1 96 00 00 	lea    0x96b1(%rip),%rax        # 150b4 <g_12+0x74>
    ba03:	48 89 85 40 f3 ff ff 	mov    %rax,-0xcc0(%rbp)
    ba0a:	48 c7 85 48 f3 ff ff 	movq   $0x0,-0xcb8(%rbp)
    ba11:	00 00 00 00 
    ba15:	48 8d 85 f4 e8 ff ff 	lea    -0x170c(%rbp),%rax
    ba1c:	48 89 85 50 f3 ff ff 	mov    %rax,-0xcb0(%rbp)
    ba23:	48 c7 85 58 f3 ff ff 	movq   $0x0,-0xca8(%rbp)
    ba2a:	00 00 00 00 
    ba2e:	48 8d 05 eb 96 00 00 	lea    0x96eb(%rip),%rax        # 15120 <g_47>
    ba35:	48 89 85 60 f3 ff ff 	mov    %rax,-0xca0(%rbp)
    ba3c:	48 8d 05 55 97 00 00 	lea    0x9755(%rip),%rax        # 15198 <g_258+0x18>
    ba43:	48 89 85 68 f3 ff ff 	mov    %rax,-0xc98(%rbp)
    ba4a:	48 8d 05 cf 96 00 00 	lea    0x96cf(%rip),%rax        # 15120 <g_47>
    ba51:	48 89 85 70 f3 ff ff 	mov    %rax,-0xc90(%rbp)
    ba58:	48 c7 85 78 f3 ff ff 	movq   $0x0,-0xc88(%rbp)
    ba5f:	00 00 00 00 
    ba63:	48 c7 85 80 f3 ff ff 	movq   $0x0,-0xc80(%rbp)
    ba6a:	00 00 00 00 
    ba6e:	8b 85 0c e9 ff ff    	mov    -0x16f4(%rbp),%eax
    ba74:	8d 70 08             	lea    0x8(%rax),%esi
    ba77:	8b 05 c3 96 00 00    	mov    0x96c3(%rip),%eax        # 15140 <g_128>
    ba7d:	8b 15 bd 96 00 00    	mov    0x96bd(%rip),%edx        # 15140 <g_128>
    ba83:	83 c2 05             	add    $0x5,%edx
    ba86:	48 63 ca             	movslq %edx,%rcx
    ba89:	89 f2                	mov    %esi,%edx
    ba8b:	48 98                	cltq   
    ba8d:	48 01 c2             	add    %rax,%rdx
    ba90:	48 89 d0             	mov    %rdx,%rax
    ba93:	48 01 c0             	add    %rax,%rax
    ba96:	48 01 d0             	add    %rdx,%rax
    ba99:	48 01 c0             	add    %rax,%rax
    ba9c:	48 01 c8             	add    %rcx,%rax
    ba9f:	48 8d 14 85 00 00 00 	lea    0x0(,%rax,4),%rdx
    baa6:	00 
    baa7:	48 8d 05 92 95 00 00 	lea    0x9592(%rip),%rax        # 15040 <g_12>
    baae:	48 01 d0             	add    %rdx,%rax
    bab1:	48 89 85 88 f3 ff ff 	mov    %rax,-0xc78(%rbp)
    bab8:	48 c7 85 90 f3 ff ff 	movq   $0x0,-0xc70(%rbp)
    babf:	00 00 00 00 
    bac3:	48 c7 85 98 f3 ff ff 	movq   $0x0,-0xc68(%rbp)
    baca:	00 00 00 00 
    bace:	48 c7 85 a0 f3 ff ff 	movq   $0x0,-0xc60(%rbp)
    bad5:	00 00 00 00 
    bad9:	48 8d 05 b8 96 00 00 	lea    0x96b8(%rip),%rax        # 15198 <g_258+0x18>
    bae0:	48 89 85 a8 f3 ff ff 	mov    %rax,-0xc58(%rbp)
    bae7:	48 8d 85 f4 e8 ff ff 	lea    -0x170c(%rbp),%rax
    baee:	48 89 85 b0 f3 ff ff 	mov    %rax,-0xc50(%rbp)
    baf5:	48 8d 85 f4 e8 ff ff 	lea    -0x170c(%rbp),%rax
    bafc:	48 89 85 b8 f3 ff ff 	mov    %rax,-0xc48(%rbp)
    bb03:	48 8d 85 f4 e8 ff ff 	lea    -0x170c(%rbp),%rax
    bb0a:	48 89 85 c0 f3 ff ff 	mov    %rax,-0xc40(%rbp)
    bb11:	48 c7 85 c8 f3 ff ff 	movq   $0x0,-0xc38(%rbp)
    bb18:	00 00 00 00 
    bb1c:	48 8d 05 91 95 00 00 	lea    0x9591(%rip),%rax        # 150b4 <g_12+0x74>
    bb23:	48 89 85 d0 f3 ff ff 	mov    %rax,-0xc30(%rbp)
    bb2a:	48 8d 05 83 95 00 00 	lea    0x9583(%rip),%rax        # 150b4 <g_12+0x74>
    bb31:	48 89 85 d8 f3 ff ff 	mov    %rax,-0xc28(%rbp)
    bb38:	48 c7 85 e0 f3 ff ff 	movq   $0x0,-0xc20(%rbp)
    bb3f:	00 00 00 00 
    bb43:	48 8d 85 f4 e8 ff ff 	lea    -0x170c(%rbp),%rax
    bb4a:	48 89 85 e8 f3 ff ff 	mov    %rax,-0xc18(%rbp)
    bb51:	48 c7 85 f0 f3 ff ff 	movq   $0x0,-0xc10(%rbp)
    bb58:	00 00 00 00 
    bb5c:	48 8d 05 bd 95 00 00 	lea    0x95bd(%rip),%rax        # 15120 <g_47>
    bb63:	48 89 85 f8 f3 ff ff 	mov    %rax,-0xc08(%rbp)
    bb6a:	48 8d 85 f4 e8 ff ff 	lea    -0x170c(%rbp),%rax
    bb71:	48 89 85 00 f4 ff ff 	mov    %rax,-0xc00(%rbp)
    bb78:	48 8d 05 19 96 00 00 	lea    0x9619(%rip),%rax        # 15198 <g_258+0x18>
    bb7f:	48 89 85 08 f4 ff ff 	mov    %rax,-0xbf8(%rbp)
    bb86:	8b 85 0c e9 ff ff    	mov    -0x16f4(%rbp),%eax
    bb8c:	8d 70 05             	lea    0x5(%rax),%esi
    bb8f:	8b 05 ab 95 00 00    	mov    0x95ab(%rip),%eax        # 15140 <g_128>
    bb95:	8b 15 a5 95 00 00    	mov    0x95a5(%rip),%edx        # 15140 <g_128>
    bb9b:	83 c2 03             	add    $0x3,%edx
    bb9e:	48 63 ca             	movslq %edx,%rcx
    bba1:	89 f2                	mov    %esi,%edx
    bba3:	48 98                	cltq   
    bba5:	48 01 c2             	add    %rax,%rdx
    bba8:	48 89 d0             	mov    %rdx,%rax
    bbab:	48 01 c0             	add    %rax,%rax
    bbae:	48 01 d0             	add    %rdx,%rax
    bbb1:	48 01 c0             	add    %rax,%rax
    bbb4:	48 01 c8             	add    %rcx,%rax
    bbb7:	48 8d 14 85 00 00 00 	lea    0x0(,%rax,4),%rdx
    bbbe:	00 
    bbbf:	48 8d 05 7a 94 00 00 	lea    0x947a(%rip),%rax        # 15040 <g_12>
    bbc6:	48 01 d0             	add    %rdx,%rax
    bbc9:	48 89 85 10 f4 ff ff 	mov    %rax,-0xbf0(%rbp)
    bbd0:	48 c7 85 18 f4 ff ff 	movq   $0x0,-0xbe8(%rbp)
    bbd7:	00 00 00 00 
    bbdb:	48 c7 85 20 f4 ff ff 	movq   $0x0,-0xbe0(%rbp)
    bbe2:	00 00 00 00 
    bbe6:	48 c7 85 28 f4 ff ff 	movq   $0x0,-0xbd8(%rbp)
    bbed:	00 00 00 00 
    bbf1:	8b 85 0c e9 ff ff    	mov    -0x16f4(%rbp),%eax
    bbf7:	8d 70 05             	lea    0x5(%rax),%esi
    bbfa:	8b 05 40 95 00 00    	mov    0x9540(%rip),%eax        # 15140 <g_128>
    bc00:	8b 15 3a 95 00 00    	mov    0x953a(%rip),%edx        # 15140 <g_128>
    bc06:	83 c2 03             	add    $0x3,%edx
    bc09:	48 63 ca             	movslq %edx,%rcx
    bc0c:	89 f2                	mov    %esi,%edx
    bc0e:	48 98                	cltq   
    bc10:	48 01 c2             	add    %rax,%rdx
    bc13:	48 89 d0             	mov    %rdx,%rax
    bc16:	48 01 c0             	add    %rax,%rax
    bc19:	48 01 d0             	add    %rdx,%rax
    bc1c:	48 01 c0             	add    %rax,%rax
    bc1f:	48 01 c8             	add    %rcx,%rax
    bc22:	48 8d 14 85 00 00 00 	lea    0x0(,%rax,4),%rdx
    bc29:	00 
    bc2a:	48 8d 05 0f 94 00 00 	lea    0x940f(%rip),%rax        # 15040 <g_12>
    bc31:	48 01 d0             	add    %rdx,%rax
    bc34:	48 89 85 30 f4 ff ff 	mov    %rax,-0xbd0(%rbp)
    bc3b:	48 8d 05 56 95 00 00 	lea    0x9556(%rip),%rax        # 15198 <g_258+0x18>
    bc42:	48 89 85 38 f4 ff ff 	mov    %rax,-0xbc8(%rbp)
    bc49:	48 c7 85 40 f4 ff ff 	movq   $0x0,-0xbc0(%rbp)
    bc50:	00 00 00 00 
    bc54:	8b 85 0c e9 ff ff    	mov    -0x16f4(%rbp),%eax
    bc5a:	8d 70 05             	lea    0x5(%rax),%esi
    bc5d:	8b 05 dd 94 00 00    	mov    0x94dd(%rip),%eax        # 15140 <g_128>
    bc63:	8b 15 d7 94 00 00    	mov    0x94d7(%rip),%edx        # 15140 <g_128>
    bc69:	83 c2 03             	add    $0x3,%edx
    bc6c:	48 63 ca             	movslq %edx,%rcx
    bc6f:	89 f2                	mov    %esi,%edx
    bc71:	48 98                	cltq   
    bc73:	48 01 c2             	add    %rax,%rdx
    bc76:	48 89 d0             	mov    %rdx,%rax
    bc79:	48 01 c0             	add    %rax,%rax
    bc7c:	48 01 d0             	add    %rdx,%rax
    bc7f:	48 01 c0             	add    %rax,%rax
    bc82:	48 01 c8             	add    %rcx,%rax
    bc85:	48 8d 14 85 00 00 00 	lea    0x0(,%rax,4),%rdx
    bc8c:	00 
    bc8d:	48 8d 05 ac 93 00 00 	lea    0x93ac(%rip),%rax        # 15040 <g_12>
    bc94:	48 01 d0             	add    %rdx,%rax
    bc97:	48 89 85 48 f4 ff ff 	mov    %rax,-0xbb8(%rbp)
    bc9e:	48 8d 05 f3 94 00 00 	lea    0x94f3(%rip),%rax        # 15198 <g_258+0x18>
    bca5:	48 89 85 50 f4 ff ff 	mov    %rax,-0xbb0(%rbp)
    bcac:	48 c7 85 58 f4 ff ff 	movq   $0x0,-0xba8(%rbp)
    bcb3:	00 00 00 00 
    bcb7:	48 8d 05 62 94 00 00 	lea    0x9462(%rip),%rax        # 15120 <g_47>
    bcbe:	48 89 85 60 f4 ff ff 	mov    %rax,-0xba0(%rbp)
    bcc5:	48 c7 85 68 f4 ff ff 	movq   $0x0,-0xb98(%rbp)
    bccc:	00 00 00 00 
    bcd0:	48 c7 85 70 f4 ff ff 	movq   $0x0,-0xb90(%rbp)
    bcd7:	00 00 00 00 
    bcdb:	48 8d 05 3e 94 00 00 	lea    0x943e(%rip),%rax        # 15120 <g_47>
    bce2:	48 89 85 78 f4 ff ff 	mov    %rax,-0xb88(%rbp)
    bce9:	48 8d 05 c4 93 00 00 	lea    0x93c4(%rip),%rax        # 150b4 <g_12+0x74>
    bcf0:	48 89 85 80 f4 ff ff 	mov    %rax,-0xb80(%rbp)
    bcf7:	48 8d 05 22 94 00 00 	lea    0x9422(%rip),%rax        # 15120 <g_47>
    bcfe:	48 89 85 88 f4 ff ff 	mov    %rax,-0xb78(%rbp)
    bd05:	48 8d 05 14 94 00 00 	lea    0x9414(%rip),%rax        # 15120 <g_47>
    bd0c:	48 89 85 90 f4 ff ff 	mov    %rax,-0xb70(%rbp)
    bd13:	48 8d 05 9a 93 00 00 	lea    0x939a(%rip),%rax        # 150b4 <g_12+0x74>
    bd1a:	48 89 85 98 f4 ff ff 	mov    %rax,-0xb68(%rbp)
    bd21:	48 c7 85 a0 f4 ff ff 	movq   $0x0,-0xb60(%rbp)
    bd28:	00 00 00 00 
    bd2c:	48 8d 05 65 94 00 00 	lea    0x9465(%rip),%rax        # 15198 <g_258+0x18>
    bd33:	48 89 85 a8 f4 ff ff 	mov    %rax,-0xb58(%rbp)
    bd3a:	48 c7 85 b0 f4 ff ff 	movq   $0x0,-0xb50(%rbp)
    bd41:	00 00 00 00 
    bd45:	48 c7 85 b8 f4 ff ff 	movq   $0x0,-0xb48(%rbp)
    bd4c:	00 00 00 00 
    bd50:	c7 85 54 e9 ff ff a2 	movl   $0x121d58a2,-0x16ac(%rbp)
    bd57:	58 1d 12 
    bd5a:	48 b8 23 9f e5 cd 54 	movabs $0xaf23e854cde59f23,%rax
    bd61:	e8 23 af 
    bd64:	48 89 85 08 ea ff ff 	mov    %rax,-0x15f8(%rbp)
    bd6b:	48 83 ad 08 ea ff ff 	subq   $0x1,-0x15f8(%rbp)
    bd72:	01 
    bd73:	83 85 0c e9 ff ff 01 	addl   $0x1,-0x16f4(%rbp)
    bd7a:	83 bd 0c e9 ff ff 00 	cmpl   $0x0,-0x16f4(%rbp)
    bd81:	0f 84 05 fa ff ff    	je     b78c <func_73+0x661>
    bd87:	c7 85 18 e9 ff ff 00 	movl   $0x0,-0x16e8(%rbp)
    bd8e:	00 00 00 
    bd91:	e9 2a 01 00 00       	jmpq   bec0 <func_73+0xd95>
    bd96:	c6 85 e7 e8 ff ff 04 	movb   $0x4,-0x1719(%rbp)
    bd9d:	e9 08 01 00 00       	jmpq   beaa <func_73+0xd7f>
    bda2:	48 8d 05 9f 93 00 00 	lea    0x939f(%rip),%rax        # 15148 <g_134>
    bda9:	48 89 85 f0 e9 ff ff 	mov    %rax,-0x1610(%rbp)
    bdb0:	48 8d 05 7b 94 00 00 	lea    0x947b(%rip),%rax        # 15232 <g_689>
    bdb7:	48 89 85 f8 e9 ff ff 	mov    %rax,-0x1608(%rbp)
    bdbe:	48 83 bd f0 e9 ff ff 	cmpq   $0x0,-0x1610(%rbp)
    bdc5:	00 
    bdc6:	8b 05 70 93 00 00    	mov    0x9370(%rip),%eax        # 1513c <g_102+0xc>
    bdcc:	0f b7 d8             	movzwl %ax,%ebx
    bdcf:	48 8b 85 f8 e9 ff ff 	mov    -0x1608(%rbp),%rax
    bdd6:	66 c7 00 ff ff       	movw   $0xffff,(%rax)
    bddb:	0f b6 85 e7 e8 ff ff 	movzbl -0x1719(%rbp),%eax
    bde2:	0f be c0             	movsbl %al,%eax
    bde5:	48 98                	cltq   
    bde7:	8b 84 85 20 ea ff ff 	mov    -0x15e0(%rbp,%rax,4),%eax
    bdee:	83 f8 06             	cmp    $0x6,%eax
    bdf1:	48 8b 05 a8 ab 00 00 	mov    0xaba8(%rip),%rax        # 169a0 <g_627>
    bdf8:	48 8b 00             	mov    (%rax),%rax
    bdfb:	48 85 c0             	test   %rax,%rax
    bdfe:	0f 94 c0             	sete   %al
    be01:	44 0f b6 e0          	movzbl %al,%r12d
    be05:	8b 05 35 93 00 00    	mov    0x9335(%rip),%eax        # 15140 <g_128>
    be0b:	83 c0 07             	add    $0x7,%eax
    be0e:	48 98                	cltq   
    be10:	8b 84 85 40 ea ff ff 	mov    -0x15c0(%rbp,%rax,4),%eax
    be17:	98                   	cwtl   
    be18:	be 02 00 00 00       	mov    $0x2,%esi
    be1d:	89 c7                	mov    %eax,%edi
    be1f:	e8 3f a7 ff ff       	callq  6563 <safe_rshift_func_int16_t_s_u>
    be24:	98                   	cwtl   
    be25:	44 89 e6             	mov    %r12d,%esi
    be28:	89 c7                	mov    %eax,%edi
    be2a:	e8 c6 a5 ff ff       	callq  63f5 <safe_mul_func_int16_t_s_s>
    be2f:	83 bd 44 e9 ff ff 00 	cmpl   $0x0,-0x16bc(%rbp)
    be36:	75 0a                	jne    be42 <func_73+0xd17>
    be38:	66 83 bd d8 e8 ff ff 	cmpw   $0x0,-0x1728(%rbp)
    be3f:	00 
    be40:	74 07                	je     be49 <func_73+0xd1e>
    be42:	b8 01 00 00 00       	mov    $0x1,%eax
    be47:	eb 05                	jmp    be4e <func_73+0xd23>
    be49:	b8 00 00 00 00       	mov    $0x0,%eax
    be4e:	25 a6 19 00 00       	and    $0x19a6,%eax
    be53:	3d e8 00 00 00       	cmp    $0xe8,%eax
    be58:	0f 9f c0             	setg   %al
    be5b:	0f b6 c0             	movzbl %al,%eax
    be5e:	be 01 00 00 00       	mov    $0x1,%esi
    be63:	48 89 c7             	mov    %rax,%rdi
    be66:	e8 49 ab ff ff       	callq  69b4 <safe_mod_func_int64_t_s_s>
    be6b:	0f b7 c0             	movzwl %ax,%eax
    be6e:	89 de                	mov    %ebx,%esi
    be70:	89 c7                	mov    %eax,%edi
    be72:	e8 17 af ff ff       	callq  6d8e <safe_div_func_uint16_t_u_u>
    be77:	be 05 00 00 00       	mov    $0x5,%esi
    be7c:	bf 01 00 00 00       	mov    $0x1,%edi
    be81:	e8 0c a6 ff ff       	callq  6492 <safe_lshift_func_int16_t_s_s>
    be86:	89 c2                	mov    %eax,%edx
    be88:	48 8b 05 c1 a8 00 00 	mov    0xa8c1(%rip),%rax        # 16750 <g_359>
    be8f:	48 8b 00             	mov    (%rax),%rax
    be92:	48 8b 00             	mov    (%rax),%rax
    be95:	0f bf d2             	movswl %dx,%edx
    be98:	89 10                	mov    %edx,(%rax)
    be9a:	0f b6 85 e7 e8 ff ff 	movzbl -0x1719(%rbp),%eax
    bea1:	83 e8 01             	sub    $0x1,%eax
    bea4:	88 85 e7 e8 ff ff    	mov    %al,-0x1719(%rbp)
    beaa:	0f b6 85 e7 e8 ff ff 	movzbl -0x1719(%rbp),%eax
    beb1:	84 c0                	test   %al,%al
    beb3:	0f 89 e9 fe ff ff    	jns    bda2 <func_73+0xc77>
    beb9:	83 85 18 e9 ff ff 01 	addl   $0x1,-0x16e8(%rbp)
    bec0:	83 bd 18 e9 ff ff 07 	cmpl   $0x7,-0x16e8(%rbp)
    bec7:	0f 8e c9 fe ff ff    	jle    bd96 <func_73+0xc6b>
    becd:	8b 05 6d 92 00 00    	mov    0x926d(%rip),%eax        # 15140 <g_128>
    bed3:	83 c0 01             	add    $0x1,%eax
    bed6:	89 05 64 92 00 00    	mov    %eax,0x9264(%rip)        # 15140 <g_128>
    bedc:	8b 05 5e 92 00 00    	mov    0x925e(%rip),%eax        # 15140 <g_128>
    bee2:	85 c0                	test   %eax,%eax
    bee4:	0f 8e 29 f8 ff ff    	jle    b713 <func_73+0x5e8>
    beea:	48 8b 05 5f a8 00 00 	mov    0xa85f(%rip),%rax        # 16750 <g_359>
    bef1:	48 8b 00             	mov    (%rax),%rax
    bef4:	48 8b 00             	mov    (%rax),%rax
    bef7:	8b 00                	mov    (%rax),%eax
    bef9:	85 c0                	test   %eax,%eax
    befb:	0f b7 05 ba 92 00 00 	movzwl 0x92ba(%rip),%eax        # 151bc <g_434>
    bf02:	83 c0 01             	add    $0x1,%eax
    bf05:	66 89 05 b0 92 00 00 	mov    %ax,0x92b0(%rip)        # 151bc <g_434>
    bf0c:	0f b7 05 a9 92 00 00 	movzwl 0x92a9(%rip),%eax        # 151bc <g_434>
    bf13:	66 85 c0             	test   %ax,%ax
    bf16:	0f 84 a5 f7 ff ff    	je     b6c1 <func_73+0x596>
    bf1c:	83 ad 3c e9 ff ff 01 	subl   $0x1,-0x16c4(%rbp)
    bf23:	48 8b 05 d6 a7 00 00 	mov    0xa7d6(%rip),%rax        # 16700 <g_104>
    bf2a:	48 8b 00             	mov    (%rax),%rax
    bf2d:	e9 a3 0d 00 00       	jmpq   ccd5 <func_73+0x1baa>
    bf32:	48 8d 05 5f 92 00 00 	lea    0x925f(%rip),%rax        # 15198 <g_258+0x18>
    bf39:	48 89 85 68 e9 ff ff 	mov    %rax,-0x1698(%rbp)
    bf40:	48 8d 05 d9 91 00 00 	lea    0x91d9(%rip),%rax        # 15120 <g_47>
    bf47:	48 89 85 70 e9 ff ff 	mov    %rax,-0x1690(%rbp)
    bf4e:	48 8d 85 f8 e8 ff ff 	lea    -0x1708(%rbp),%rax
    bf55:	48 89 85 78 e9 ff ff 	mov    %rax,-0x1688(%rbp)
    bf5c:	48 c7 85 80 e9 ff ff 	movq   $0x0,-0x1680(%rbp)
    bf63:	00 00 00 00 
    bf67:	48 8d 05 56 91 00 00 	lea    0x9156(%rip),%rax        # 150c4 <g_12+0x84>
    bf6e:	48 89 85 88 e9 ff ff 	mov    %rax,-0x1678(%rbp)
    bf75:	48 8d 05 54 91 00 00 	lea    0x9154(%rip),%rax        # 150d0 <g_12+0x90>
    bf7c:	48 89 85 90 e9 ff ff 	mov    %rax,-0x1670(%rbp)
    bf83:	48 8d 85 90 ea ff ff 	lea    -0x1570(%rbp),%rax
    bf8a:	48 83 c0 68          	add    $0x68,%rax
    bf8e:	48 89 85 98 e9 ff ff 	mov    %rax,-0x1668(%rbp)
    bf95:	48 8d 05 f8 91 00 00 	lea    0x91f8(%rip),%rax        # 15194 <g_258+0x14>
    bf9c:	48 89 85 a0 e9 ff ff 	mov    %rax,-0x1660(%rbp)
    bfa3:	48 8d 85 fc e8 ff ff 	lea    -0x1704(%rbp),%rax
    bfaa:	48 89 85 a8 e9 ff ff 	mov    %rax,-0x1658(%rbp)
    bfb1:	48 8d 05 c8 91 00 00 	lea    0x91c8(%rip),%rax        # 15180 <g_258>
    bfb8:	48 89 85 b0 e9 ff ff 	mov    %rax,-0x1650(%rbp)
    bfbf:	48 8d 05 d2 91 00 00 	lea    0x91d2(%rip),%rax        # 15198 <g_258+0x18>
    bfc6:	48 89 85 b8 e9 ff ff 	mov    %rax,-0x1648(%rbp)
    bfcd:	48 8d 85 fc e8 ff ff 	lea    -0x1704(%rbp),%rax
    bfd4:	48 89 85 80 f2 ff ff 	mov    %rax,-0xd80(%rbp)
    bfdb:	48 8d 85 fc e8 ff ff 	lea    -0x1704(%rbp),%rax
    bfe2:	48 89 85 88 f2 ff ff 	mov    %rax,-0xd78(%rbp)
    bfe9:	48 8d 05 30 91 00 00 	lea    0x9130(%rip),%rax        # 15120 <g_47>
    bff0:	48 89 85 90 f2 ff ff 	mov    %rax,-0xd70(%rbp)
    bff7:	48 8d 85 fc e8 ff ff 	lea    -0x1704(%rbp),%rax
    bffe:	48 89 85 98 f2 ff ff 	mov    %rax,-0xd68(%rbp)
    c005:	48 8d 85 fc e8 ff ff 	lea    -0x1704(%rbp),%rax
    c00c:	48 89 85 a0 f2 ff ff 	mov    %rax,-0xd60(%rbp)
    c013:	48 8d 05 06 91 00 00 	lea    0x9106(%rip),%rax        # 15120 <g_47>
    c01a:	48 89 85 a8 f2 ff ff 	mov    %rax,-0xd58(%rbp)
    c021:	48 8d 85 fc e8 ff ff 	lea    -0x1704(%rbp),%rax
    c028:	48 89 85 b0 f2 ff ff 	mov    %rax,-0xd50(%rbp)
    c02f:	48 8d 85 fc e8 ff ff 	lea    -0x1704(%rbp),%rax
    c036:	48 89 85 b8 f2 ff ff 	mov    %rax,-0xd48(%rbp)
    c03d:	48 8d 85 f8 e8 ff ff 	lea    -0x1708(%rbp),%rax
    c044:	48 89 85 c0 f2 ff ff 	mov    %rax,-0xd40(%rbp)
    c04b:	48 8d 85 f8 e8 ff ff 	lea    -0x1708(%rbp),%rax
    c052:	48 89 85 c8 f2 ff ff 	mov    %rax,-0xd38(%rbp)
    c059:	48 8d 85 fc e8 ff ff 	lea    -0x1704(%rbp),%rax
    c060:	48 89 85 d0 f2 ff ff 	mov    %rax,-0xd30(%rbp)
    c067:	48 8d 85 f8 e8 ff ff 	lea    -0x1708(%rbp),%rax
    c06e:	48 89 85 d8 f2 ff ff 	mov    %rax,-0xd28(%rbp)
    c075:	48 8d 85 f8 e8 ff ff 	lea    -0x1708(%rbp),%rax
    c07c:	48 89 85 e0 f2 ff ff 	mov    %rax,-0xd20(%rbp)
    c083:	48 8d 85 fc e8 ff ff 	lea    -0x1704(%rbp),%rax
    c08a:	48 89 85 e8 f2 ff ff 	mov    %rax,-0xd18(%rbp)
    c091:	48 8d 85 fc e8 ff ff 	lea    -0x1704(%rbp),%rax
    c098:	48 89 85 f0 f2 ff ff 	mov    %rax,-0xd10(%rbp)
    c09f:	48 8d 85 fc e8 ff ff 	lea    -0x1704(%rbp),%rax
    c0a6:	48 89 85 f8 f2 ff ff 	mov    %rax,-0xd08(%rbp)
    c0ad:	48 8d 85 fc e8 ff ff 	lea    -0x1704(%rbp),%rax
    c0b4:	48 89 85 00 f3 ff ff 	mov    %rax,-0xd00(%rbp)
    c0bb:	48 8d 85 fc e8 ff ff 	lea    -0x1704(%rbp),%rax
    c0c2:	48 89 85 08 f3 ff ff 	mov    %rax,-0xcf8(%rbp)
    c0c9:	48 8d 85 fc e8 ff ff 	lea    -0x1704(%rbp),%rax
    c0d0:	48 89 85 10 f3 ff ff 	mov    %rax,-0xcf0(%rbp)
    c0d7:	48 8d 85 fc e8 ff ff 	lea    -0x1704(%rbp),%rax
    c0de:	48 89 85 18 f3 ff ff 	mov    %rax,-0xce8(%rbp)
    c0e5:	48 8d 85 fc e8 ff ff 	lea    -0x1704(%rbp),%rax
    c0ec:	48 89 85 20 f3 ff ff 	mov    %rax,-0xce0(%rbp)
    c0f3:	48 8d 85 fc e8 ff ff 	lea    -0x1704(%rbp),%rax
    c0fa:	48 89 85 28 f3 ff ff 	mov    %rax,-0xcd8(%rbp)
    c101:	48 8d 85 fc e8 ff ff 	lea    -0x1704(%rbp),%rax
    c108:	48 89 85 30 f3 ff ff 	mov    %rax,-0xcd0(%rbp)
    c10f:	48 8d 05 02 90 00 00 	lea    0x9002(%rip),%rax        # 15118 <g_40>
    c116:	48 89 85 38 f3 ff ff 	mov    %rax,-0xcc8(%rbp)
    c11d:	48 8d 85 fc e8 ff ff 	lea    -0x1704(%rbp),%rax
    c124:	48 89 85 40 f3 ff ff 	mov    %rax,-0xcc0(%rbp)
    c12b:	48 8d 85 fc e8 ff ff 	lea    -0x1704(%rbp),%rax
    c132:	48 89 85 48 f3 ff ff 	mov    %rax,-0xcb8(%rbp)
    c139:	48 8d 05 d8 8f 00 00 	lea    0x8fd8(%rip),%rax        # 15118 <g_40>
    c140:	48 89 85 50 f3 ff ff 	mov    %rax,-0xcb0(%rbp)
    c147:	48 8d 85 fc e8 ff ff 	lea    -0x1704(%rbp),%rax
    c14e:	48 89 85 58 f3 ff ff 	mov    %rax,-0xca8(%rbp)
    c155:	48 8d 85 fc e8 ff ff 	lea    -0x1704(%rbp),%rax
    c15c:	48 89 85 60 f3 ff ff 	mov    %rax,-0xca0(%rbp)
    c163:	48 8d 85 fc e8 ff ff 	lea    -0x1704(%rbp),%rax
    c16a:	48 89 85 68 f3 ff ff 	mov    %rax,-0xc98(%rbp)
    c171:	48 8d 85 fc e8 ff ff 	lea    -0x1704(%rbp),%rax
    c178:	48 89 85 70 f3 ff ff 	mov    %rax,-0xc90(%rbp)
    c17f:	48 8d 85 fc e8 ff ff 	lea    -0x1704(%rbp),%rax
    c186:	48 89 85 78 f3 ff ff 	mov    %rax,-0xc88(%rbp)
    c18d:	48 8d 85 fc e8 ff ff 	lea    -0x1704(%rbp),%rax
    c194:	48 89 85 80 f3 ff ff 	mov    %rax,-0xc80(%rbp)
    c19b:	48 8d 85 fc e8 ff ff 	lea    -0x1704(%rbp),%rax
    c1a2:	48 89 85 88 f3 ff ff 	mov    %rax,-0xc78(%rbp)
    c1a9:	48 8d 85 fc e8 ff ff 	lea    -0x1704(%rbp),%rax
    c1b0:	48 89 85 90 f3 ff ff 	mov    %rax,-0xc70(%rbp)
    c1b7:	48 8d 85 f8 e8 ff ff 	lea    -0x1708(%rbp),%rax
    c1be:	48 89 85 98 f3 ff ff 	mov    %rax,-0xc68(%rbp)
    c1c5:	48 8d 85 fc e8 ff ff 	lea    -0x1704(%rbp),%rax
    c1cc:	48 89 85 a0 f3 ff ff 	mov    %rax,-0xc60(%rbp)
    c1d3:	48 8d 85 f8 e8 ff ff 	lea    -0x1708(%rbp),%rax
    c1da:	48 89 85 a8 f3 ff ff 	mov    %rax,-0xc58(%rbp)
    c1e1:	48 8d 85 f8 e8 ff ff 	lea    -0x1708(%rbp),%rax
    c1e8:	48 89 85 b0 f3 ff ff 	mov    %rax,-0xc50(%rbp)
    c1ef:	48 8d 85 fc e8 ff ff 	lea    -0x1704(%rbp),%rax
    c1f6:	48 89 85 b8 f3 ff ff 	mov    %rax,-0xc48(%rbp)
    c1fd:	48 8d 85 f8 e8 ff ff 	lea    -0x1708(%rbp),%rax
    c204:	48 89 85 c0 f3 ff ff 	mov    %rax,-0xc40(%rbp)
    c20b:	48 8d 85 f8 e8 ff ff 	lea    -0x1708(%rbp),%rax
    c212:	48 89 85 c8 f3 ff ff 	mov    %rax,-0xc38(%rbp)
    c219:	48 8d 85 fc e8 ff ff 	lea    -0x1704(%rbp),%rax
    c220:	48 89 85 d0 f3 ff ff 	mov    %rax,-0xc30(%rbp)
    c227:	48 8d 85 fc e8 ff ff 	lea    -0x1704(%rbp),%rax
    c22e:	48 89 85 d8 f3 ff ff 	mov    %rax,-0xc28(%rbp)
    c235:	48 8d 05 e4 8e 00 00 	lea    0x8ee4(%rip),%rax        # 15120 <g_47>
    c23c:	48 89 85 e0 f3 ff ff 	mov    %rax,-0xc20(%rbp)
    c243:	48 8d 85 fc e8 ff ff 	lea    -0x1704(%rbp),%rax
    c24a:	48 89 85 e8 f3 ff ff 	mov    %rax,-0xc18(%rbp)
    c251:	48 8d 85 fc e8 ff ff 	lea    -0x1704(%rbp),%rax
    c258:	48 89 85 f0 f3 ff ff 	mov    %rax,-0xc10(%rbp)
    c25f:	48 8d 05 ba 8e 00 00 	lea    0x8eba(%rip),%rax        # 15120 <g_47>
    c266:	48 89 85 f8 f3 ff ff 	mov    %rax,-0xc08(%rbp)
    c26d:	48 8d 85 fc e8 ff ff 	lea    -0x1704(%rbp),%rax
    c274:	48 89 85 00 f4 ff ff 	mov    %rax,-0xc00(%rbp)
    c27b:	48 8d 85 fc e8 ff ff 	lea    -0x1704(%rbp),%rax
    c282:	48 89 85 08 f4 ff ff 	mov    %rax,-0xbf8(%rbp)
    c289:	48 8d 85 f8 e8 ff ff 	lea    -0x1708(%rbp),%rax
    c290:	48 89 85 10 f4 ff ff 	mov    %rax,-0xbf0(%rbp)
    c297:	48 8d 85 f8 e8 ff ff 	lea    -0x1708(%rbp),%rax
    c29e:	48 89 85 18 f4 ff ff 	mov    %rax,-0xbe8(%rbp)
    c2a5:	48 8d 85 fc e8 ff ff 	lea    -0x1704(%rbp),%rax
    c2ac:	48 89 85 20 f4 ff ff 	mov    %rax,-0xbe0(%rbp)
    c2b3:	48 8d 85 f8 e8 ff ff 	lea    -0x1708(%rbp),%rax
    c2ba:	48 89 85 28 f4 ff ff 	mov    %rax,-0xbd8(%rbp)
    c2c1:	48 8d 85 f8 e8 ff ff 	lea    -0x1708(%rbp),%rax
    c2c8:	48 89 85 30 f4 ff ff 	mov    %rax,-0xbd0(%rbp)
    c2cf:	48 8d 85 fc e8 ff ff 	lea    -0x1704(%rbp),%rax
    c2d6:	48 89 85 38 f4 ff ff 	mov    %rax,-0xbc8(%rbp)
    c2dd:	48 8d 85 fc e8 ff ff 	lea    -0x1704(%rbp),%rax
    c2e4:	48 89 85 40 f4 ff ff 	mov    %rax,-0xbc0(%rbp)
    c2eb:	48 8d 85 fc e8 ff ff 	lea    -0x1704(%rbp),%rax
    c2f2:	48 89 85 48 f4 ff ff 	mov    %rax,-0xbb8(%rbp)
    c2f9:	48 8d 85 fc e8 ff ff 	lea    -0x1704(%rbp),%rax
    c300:	48 89 85 50 f4 ff ff 	mov    %rax,-0xbb0(%rbp)
    c307:	48 8d 85 fc e8 ff ff 	lea    -0x1704(%rbp),%rax
    c30e:	48 89 85 58 f4 ff ff 	mov    %rax,-0xba8(%rbp)
    c315:	48 8d 85 fc e8 ff ff 	lea    -0x1704(%rbp),%rax
    c31c:	48 89 85 60 f4 ff ff 	mov    %rax,-0xba0(%rbp)
    c323:	48 8d 85 fc e8 ff ff 	lea    -0x1704(%rbp),%rax
    c32a:	48 89 85 68 f4 ff ff 	mov    %rax,-0xb98(%rbp)
    c331:	48 8d 85 fc e8 ff ff 	lea    -0x1704(%rbp),%rax
    c338:	48 89 85 70 f4 ff ff 	mov    %rax,-0xb90(%rbp)
    c33f:	48 8d 85 fc e8 ff ff 	lea    -0x1704(%rbp),%rax
    c346:	48 89 85 78 f4 ff ff 	mov    %rax,-0xb88(%rbp)
    c34d:	48 8d 85 fc e8 ff ff 	lea    -0x1704(%rbp),%rax
    c354:	48 89 85 80 f4 ff ff 	mov    %rax,-0xb80(%rbp)
    c35b:	48 8d 05 b6 8d 00 00 	lea    0x8db6(%rip),%rax        # 15118 <g_40>
    c362:	48 89 85 88 f4 ff ff 	mov    %rax,-0xb78(%rbp)
    c369:	48 8d 85 fc e8 ff ff 	lea    -0x1704(%rbp),%rax
    c370:	48 89 85 90 f4 ff ff 	mov    %rax,-0xb70(%rbp)
    c377:	48 8d 85 fc e8 ff ff 	lea    -0x1704(%rbp),%rax
    c37e:	48 89 85 98 f4 ff ff 	mov    %rax,-0xb68(%rbp)
    c385:	48 8d 05 8c 8d 00 00 	lea    0x8d8c(%rip),%rax        # 15118 <g_40>
    c38c:	48 89 85 a0 f4 ff ff 	mov    %rax,-0xb60(%rbp)
    c393:	48 8d 85 fc e8 ff ff 	lea    -0x1704(%rbp),%rax
    c39a:	48 89 85 a8 f4 ff ff 	mov    %rax,-0xb58(%rbp)
    c3a1:	48 8d 85 fc e8 ff ff 	lea    -0x1704(%rbp),%rax
    c3a8:	48 89 85 b0 f4 ff ff 	mov    %rax,-0xb50(%rbp)
    c3af:	48 8d 85 fc e8 ff ff 	lea    -0x1704(%rbp),%rax
    c3b6:	48 89 85 b8 f4 ff ff 	mov    %rax,-0xb48(%rbp)
    c3bd:	48 8d 85 fc e8 ff ff 	lea    -0x1704(%rbp),%rax
    c3c4:	48 89 85 c0 f4 ff ff 	mov    %rax,-0xb40(%rbp)
    c3cb:	48 8d 85 fc e8 ff ff 	lea    -0x1704(%rbp),%rax
    c3d2:	48 89 85 c8 f4 ff ff 	mov    %rax,-0xb38(%rbp)
    c3d9:	48 8d 85 fc e8 ff ff 	lea    -0x1704(%rbp),%rax
    c3e0:	48 89 85 d0 f4 ff ff 	mov    %rax,-0xb30(%rbp)
    c3e7:	48 8d 85 fc e8 ff ff 	lea    -0x1704(%rbp),%rax
    c3ee:	48 89 85 d8 f4 ff ff 	mov    %rax,-0xb28(%rbp)
    c3f5:	48 8d 85 fc e8 ff ff 	lea    -0x1704(%rbp),%rax
    c3fc:	48 89 85 e0 f4 ff ff 	mov    %rax,-0xb20(%rbp)
    c403:	48 8d 85 f8 e8 ff ff 	lea    -0x1708(%rbp),%rax
    c40a:	48 89 85 e8 f4 ff ff 	mov    %rax,-0xb18(%rbp)
    c411:	48 8d 85 fc e8 ff ff 	lea    -0x1704(%rbp),%rax
    c418:	48 89 85 f0 f4 ff ff 	mov    %rax,-0xb10(%rbp)
    c41f:	48 8d 85 f8 e8 ff ff 	lea    -0x1708(%rbp),%rax
    c426:	48 89 85 f8 f4 ff ff 	mov    %rax,-0xb08(%rbp)
    c42d:	48 8d 85 f8 e8 ff ff 	lea    -0x1708(%rbp),%rax
    c434:	48 89 85 00 f5 ff ff 	mov    %rax,-0xb00(%rbp)
    c43b:	48 8d 85 fc e8 ff ff 	lea    -0x1704(%rbp),%rax
    c442:	48 89 85 08 f5 ff ff 	mov    %rax,-0xaf8(%rbp)
    c449:	48 8d 85 f8 e8 ff ff 	lea    -0x1708(%rbp),%rax
    c450:	48 89 85 10 f5 ff ff 	mov    %rax,-0xaf0(%rbp)
    c457:	48 8d 85 f8 e8 ff ff 	lea    -0x1708(%rbp),%rax
    c45e:	48 89 85 18 f5 ff ff 	mov    %rax,-0xae8(%rbp)
    c465:	48 8d 85 fc e8 ff ff 	lea    -0x1704(%rbp),%rax
    c46c:	48 89 85 20 f5 ff ff 	mov    %rax,-0xae0(%rbp)
    c473:	48 8d 85 fc e8 ff ff 	lea    -0x1704(%rbp),%rax
    c47a:	48 89 85 28 f5 ff ff 	mov    %rax,-0xad8(%rbp)
    c481:	48 8d 05 98 8c 00 00 	lea    0x8c98(%rip),%rax        # 15120 <g_47>
    c488:	48 89 85 30 f5 ff ff 	mov    %rax,-0xad0(%rbp)
    c48f:	48 8d 85 fc e8 ff ff 	lea    -0x1704(%rbp),%rax
    c496:	48 89 85 38 f5 ff ff 	mov    %rax,-0xac8(%rbp)
    c49d:	48 8d 85 fc e8 ff ff 	lea    -0x1704(%rbp),%rax
    c4a4:	48 89 85 40 f5 ff ff 	mov    %rax,-0xac0(%rbp)
    c4ab:	48 8d 05 6e 8c 00 00 	lea    0x8c6e(%rip),%rax        # 15120 <g_47>
    c4b2:	48 89 85 48 f5 ff ff 	mov    %rax,-0xab8(%rbp)
    c4b9:	48 8d 85 fc e8 ff ff 	lea    -0x1704(%rbp),%rax
    c4c0:	48 89 85 50 f5 ff ff 	mov    %rax,-0xab0(%rbp)
    c4c7:	48 8d 85 fc e8 ff ff 	lea    -0x1704(%rbp),%rax
    c4ce:	48 89 85 58 f5 ff ff 	mov    %rax,-0xaa8(%rbp)
    c4d5:	48 8d 85 f8 e8 ff ff 	lea    -0x1708(%rbp),%rax
    c4dc:	48 89 85 60 f5 ff ff 	mov    %rax,-0xaa0(%rbp)
    c4e3:	48 8d 85 f8 e8 ff ff 	lea    -0x1708(%rbp),%rax
    c4ea:	48 89 85 68 f5 ff ff 	mov    %rax,-0xa98(%rbp)
    c4f1:	48 8d 85 fc e8 ff ff 	lea    -0x1704(%rbp),%rax
    c4f8:	48 89 85 70 f5 ff ff 	mov    %rax,-0xa90(%rbp)
    c4ff:	48 8d 85 f8 e8 ff ff 	lea    -0x1708(%rbp),%rax
    c506:	48 89 85 78 f5 ff ff 	mov    %rax,-0xa88(%rbp)
    c50d:	48 8d 85 f8 e8 ff ff 	lea    -0x1708(%rbp),%rax
    c514:	48 89 85 80 f5 ff ff 	mov    %rax,-0xa80(%rbp)
    c51b:	48 8d 85 fc e8 ff ff 	lea    -0x1704(%rbp),%rax
    c522:	48 89 85 88 f5 ff ff 	mov    %rax,-0xa78(%rbp)
    c529:	48 8d 85 fc e8 ff ff 	lea    -0x1704(%rbp),%rax
    c530:	48 89 85 90 f5 ff ff 	mov    %rax,-0xa70(%rbp)
    c537:	48 8d 85 fc e8 ff ff 	lea    -0x1704(%rbp),%rax
    c53e:	48 89 85 98 f5 ff ff 	mov    %rax,-0xa68(%rbp)
    c545:	48 8d 85 fc e8 ff ff 	lea    -0x1704(%rbp),%rax
    c54c:	48 89 85 a0 f5 ff ff 	mov    %rax,-0xa60(%rbp)
    c553:	48 8d 85 fc e8 ff ff 	lea    -0x1704(%rbp),%rax
    c55a:	48 89 85 a8 f5 ff ff 	mov    %rax,-0xa58(%rbp)
    c561:	48 8d 85 fc e8 ff ff 	lea    -0x1704(%rbp),%rax
    c568:	48 89 85 b0 f5 ff ff 	mov    %rax,-0xa50(%rbp)
    c56f:	48 8d 85 fc e8 ff ff 	lea    -0x1704(%rbp),%rax
    c576:	48 89 85 b8 f5 ff ff 	mov    %rax,-0xa48(%rbp)
    c57d:	48 8d 85 fc e8 ff ff 	lea    -0x1704(%rbp),%rax
    c584:	48 89 85 c0 f5 ff ff 	mov    %rax,-0xa40(%rbp)
    c58b:	48 8d 85 fc e8 ff ff 	lea    -0x1704(%rbp),%rax
    c592:	48 89 85 c8 f5 ff ff 	mov    %rax,-0xa38(%rbp)
    c599:	48 8d 85 fc e8 ff ff 	lea    -0x1704(%rbp),%rax
    c5a0:	48 89 85 d0 f5 ff ff 	mov    %rax,-0xa30(%rbp)
    c5a7:	48 8d 05 6a 8b 00 00 	lea    0x8b6a(%rip),%rax        # 15118 <g_40>
    c5ae:	48 89 85 d8 f5 ff ff 	mov    %rax,-0xa28(%rbp)
    c5b5:	48 8d 85 fc e8 ff ff 	lea    -0x1704(%rbp),%rax
    c5bc:	48 89 85 e0 f5 ff ff 	mov    %rax,-0xa20(%rbp)
    c5c3:	48 8d 85 fc e8 ff ff 	lea    -0x1704(%rbp),%rax
    c5ca:	48 89 85 e8 f5 ff ff 	mov    %rax,-0xa18(%rbp)
    c5d1:	48 8d 05 40 8b 00 00 	lea    0x8b40(%rip),%rax        # 15118 <g_40>
    c5d8:	48 89 85 f0 f5 ff ff 	mov    %rax,-0xa10(%rbp)
    c5df:	48 8d 85 fc e8 ff ff 	lea    -0x1704(%rbp),%rax
    c5e6:	48 89 85 f8 f5 ff ff 	mov    %rax,-0xa08(%rbp)
    c5ed:	48 8d 85 fc e8 ff ff 	lea    -0x1704(%rbp),%rax
    c5f4:	48 89 85 00 f6 ff ff 	mov    %rax,-0xa00(%rbp)
    c5fb:	48 8d 85 fc e8 ff ff 	lea    -0x1704(%rbp),%rax
    c602:	48 89 85 08 f6 ff ff 	mov    %rax,-0x9f8(%rbp)
    c609:	48 8d 85 fc e8 ff ff 	lea    -0x1704(%rbp),%rax
    c610:	48 89 85 10 f6 ff ff 	mov    %rax,-0x9f0(%rbp)
    c617:	48 8d 85 fc e8 ff ff 	lea    -0x1704(%rbp),%rax
    c61e:	48 89 85 18 f6 ff ff 	mov    %rax,-0x9e8(%rbp)
    c625:	48 8d 85 fc e8 ff ff 	lea    -0x1704(%rbp),%rax
    c62c:	48 89 85 20 f6 ff ff 	mov    %rax,-0x9e0(%rbp)
    c633:	48 8d 85 fc e8 ff ff 	lea    -0x1704(%rbp),%rax
    c63a:	48 89 85 28 f6 ff ff 	mov    %rax,-0x9d8(%rbp)
    c641:	48 8d 85 fc e8 ff ff 	lea    -0x1704(%rbp),%rax
    c648:	48 89 85 30 f6 ff ff 	mov    %rax,-0x9d0(%rbp)
    c64f:	48 8d 85 f8 e8 ff ff 	lea    -0x1708(%rbp),%rax
    c656:	48 89 85 38 f6 ff ff 	mov    %rax,-0x9c8(%rbp)
    c65d:	48 8d 85 fc e8 ff ff 	lea    -0x1704(%rbp),%rax
    c664:	48 89 85 40 f6 ff ff 	mov    %rax,-0x9c0(%rbp)
    c66b:	48 8d 85 f8 e8 ff ff 	lea    -0x1708(%rbp),%rax
    c672:	48 89 85 48 f6 ff ff 	mov    %rax,-0x9b8(%rbp)
    c679:	48 8d 85 f8 e8 ff ff 	lea    -0x1708(%rbp),%rax
    c680:	48 89 85 50 f6 ff ff 	mov    %rax,-0x9b0(%rbp)
    c687:	48 8d 85 fc e8 ff ff 	lea    -0x1704(%rbp),%rax
    c68e:	48 89 85 58 f6 ff ff 	mov    %rax,-0x9a8(%rbp)
    c695:	48 8d 85 f8 e8 ff ff 	lea    -0x1708(%rbp),%rax
    c69c:	48 89 85 60 f6 ff ff 	mov    %rax,-0x9a0(%rbp)
    c6a3:	48 8d 85 f8 e8 ff ff 	lea    -0x1708(%rbp),%rax
    c6aa:	48 89 85 68 f6 ff ff 	mov    %rax,-0x998(%rbp)
    c6b1:	48 8d 85 fc e8 ff ff 	lea    -0x1704(%rbp),%rax
    c6b8:	48 89 85 70 f6 ff ff 	mov    %rax,-0x990(%rbp)
    c6bf:	48 8d 85 fc e8 ff ff 	lea    -0x1704(%rbp),%rax
    c6c6:	48 89 85 78 f6 ff ff 	mov    %rax,-0x988(%rbp)
    c6cd:	48 8d 05 4c 8a 00 00 	lea    0x8a4c(%rip),%rax        # 15120 <g_47>
    c6d4:	48 89 85 80 f6 ff ff 	mov    %rax,-0x980(%rbp)
    c6db:	48 8d 85 fc e8 ff ff 	lea    -0x1704(%rbp),%rax
    c6e2:	48 89 85 88 f6 ff ff 	mov    %rax,-0x978(%rbp)
    c6e9:	48 8d 85 fc e8 ff ff 	lea    -0x1704(%rbp),%rax
    c6f0:	48 89 85 90 f6 ff ff 	mov    %rax,-0x970(%rbp)
    c6f7:	48 8d 05 22 8a 00 00 	lea    0x8a22(%rip),%rax        # 15120 <g_47>
    c6fe:	48 89 85 98 f6 ff ff 	mov    %rax,-0x968(%rbp)
    c705:	48 8d 85 fc e8 ff ff 	lea    -0x1704(%rbp),%rax
    c70c:	48 89 85 a0 f6 ff ff 	mov    %rax,-0x960(%rbp)
    c713:	48 8d 85 fc e8 ff ff 	lea    -0x1704(%rbp),%rax
    c71a:	48 89 85 a8 f6 ff ff 	mov    %rax,-0x958(%rbp)
    c721:	48 8d 85 f8 e8 ff ff 	lea    -0x1708(%rbp),%rax
    c728:	48 89 85 b0 f6 ff ff 	mov    %rax,-0x950(%rbp)
    c72f:	48 8d 85 f8 e8 ff ff 	lea    -0x1708(%rbp),%rax
    c736:	48 89 85 b8 f6 ff ff 	mov    %rax,-0x948(%rbp)
    c73d:	48 8d 85 fc e8 ff ff 	lea    -0x1704(%rbp),%rax
    c744:	48 89 85 c0 f6 ff ff 	mov    %rax,-0x940(%rbp)
    c74b:	48 8d 85 f8 e8 ff ff 	lea    -0x1708(%rbp),%rax
    c752:	48 89 85 c8 f6 ff ff 	mov    %rax,-0x938(%rbp)
    c759:	48 8d 85 f8 e8 ff ff 	lea    -0x1708(%rbp),%rax
    c760:	48 89 85 d0 f6 ff ff 	mov    %rax,-0x930(%rbp)
    c767:	48 8d 85 fc e8 ff ff 	lea    -0x1704(%rbp),%rax
    c76e:	48 89 85 d8 f6 ff ff 	mov    %rax,-0x928(%rbp)
    c775:	48 8d 85 fc e8 ff ff 	lea    -0x1704(%rbp),%rax
    c77c:	48 89 85 e0 f6 ff ff 	mov    %rax,-0x920(%rbp)
    c783:	48 8d 85 fc e8 ff ff 	lea    -0x1704(%rbp),%rax
    c78a:	48 89 85 e8 f6 ff ff 	mov    %rax,-0x918(%rbp)
    c791:	48 8d 85 fc e8 ff ff 	lea    -0x1704(%rbp),%rax
    c798:	48 89 85 f0 f6 ff ff 	mov    %rax,-0x910(%rbp)
    c79f:	48 8d 85 fc e8 ff ff 	lea    -0x1704(%rbp),%rax
    c7a6:	48 89 85 f8 f6 ff ff 	mov    %rax,-0x908(%rbp)
    c7ad:	48 8d 85 fc e8 ff ff 	lea    -0x1704(%rbp),%rax
    c7b4:	48 89 85 00 f7 ff ff 	mov    %rax,-0x900(%rbp)
    c7bb:	48 8d 85 fc e8 ff ff 	lea    -0x1704(%rbp),%rax
    c7c2:	48 89 85 08 f7 ff ff 	mov    %rax,-0x8f8(%rbp)
    c7c9:	48 8d 85 fc e8 ff ff 	lea    -0x1704(%rbp),%rax
    c7d0:	48 89 85 10 f7 ff ff 	mov    %rax,-0x8f0(%rbp)
    c7d7:	48 8d 85 fc e8 ff ff 	lea    -0x1704(%rbp),%rax
    c7de:	48 89 85 18 f7 ff ff 	mov    %rax,-0x8e8(%rbp)
    c7e5:	48 8d 85 fc e8 ff ff 	lea    -0x1704(%rbp),%rax
    c7ec:	48 89 85 20 f7 ff ff 	mov    %rax,-0x8e0(%rbp)
    c7f3:	48 8d 05 1e 89 00 00 	lea    0x891e(%rip),%rax        # 15118 <g_40>
    c7fa:	48 89 85 28 f7 ff ff 	mov    %rax,-0x8d8(%rbp)
    c801:	48 8d 85 fc e8 ff ff 	lea    -0x1704(%rbp),%rax
    c808:	48 89 85 30 f7 ff ff 	mov    %rax,-0x8d0(%rbp)
    c80f:	48 8d 85 fc e8 ff ff 	lea    -0x1704(%rbp),%rax
    c816:	48 89 85 38 f7 ff ff 	mov    %rax,-0x8c8(%rbp)
    c81d:	48 8d 05 f4 88 00 00 	lea    0x88f4(%rip),%rax        # 15118 <g_40>
    c824:	48 89 85 40 f7 ff ff 	mov    %rax,-0x8c0(%rbp)
    c82b:	48 8d 85 fc e8 ff ff 	lea    -0x1704(%rbp),%rax
    c832:	48 89 85 48 f7 ff ff 	mov    %rax,-0x8b8(%rbp)
    c839:	48 8d 85 fc e8 ff ff 	lea    -0x1704(%rbp),%rax
    c840:	48 89 85 50 f7 ff ff 	mov    %rax,-0x8b0(%rbp)
    c847:	48 8d 85 fc e8 ff ff 	lea    -0x1704(%rbp),%rax
    c84e:	48 89 85 58 f7 ff ff 	mov    %rax,-0x8a8(%rbp)
    c855:	48 8d 85 fc e8 ff ff 	lea    -0x1704(%rbp),%rax
    c85c:	48 89 85 60 f7 ff ff 	mov    %rax,-0x8a0(%rbp)
    c863:	48 8d 85 fc e8 ff ff 	lea    -0x1704(%rbp),%rax
    c86a:	48 89 85 68 f7 ff ff 	mov    %rax,-0x898(%rbp)
    c871:	48 8d 85 fc e8 ff ff 	lea    -0x1704(%rbp),%rax
    c878:	48 89 85 70 f7 ff ff 	mov    %rax,-0x890(%rbp)
    c87f:	48 8d 85 fc e8 ff ff 	lea    -0x1704(%rbp),%rax
    c886:	48 89 85 78 f7 ff ff 	mov    %rax,-0x888(%rbp)
    c88d:	48 8d 85 fc e8 ff ff 	lea    -0x1704(%rbp),%rax
    c894:	48 89 85 80 f7 ff ff 	mov    %rax,-0x880(%rbp)
    c89b:	48 8d 85 f8 e8 ff ff 	lea    -0x1708(%rbp),%rax
    c8a2:	48 89 85 88 f7 ff ff 	mov    %rax,-0x878(%rbp)
    c8a9:	48 8d 85 fc e8 ff ff 	lea    -0x1704(%rbp),%rax
    c8b0:	48 89 85 90 f7 ff ff 	mov    %rax,-0x870(%rbp)
    c8b7:	48 8d 85 f8 e8 ff ff 	lea    -0x1708(%rbp),%rax
    c8be:	48 89 85 98 f7 ff ff 	mov    %rax,-0x868(%rbp)
    c8c5:	48 8d 85 f8 e8 ff ff 	lea    -0x1708(%rbp),%rax
    c8cc:	48 89 85 a0 f7 ff ff 	mov    %rax,-0x860(%rbp)
    c8d3:	48 8d 85 fc e8 ff ff 	lea    -0x1704(%rbp),%rax
    c8da:	48 89 85 a8 f7 ff ff 	mov    %rax,-0x858(%rbp)
    c8e1:	48 8d 85 f8 e8 ff ff 	lea    -0x1708(%rbp),%rax
    c8e8:	48 89 85 b0 f7 ff ff 	mov    %rax,-0x850(%rbp)
    c8ef:	48 8d 85 f8 e8 ff ff 	lea    -0x1708(%rbp),%rax
    c8f6:	48 89 85 b8 f7 ff ff 	mov    %rax,-0x848(%rbp)
    c8fd:	48 8d 85 fc e8 ff ff 	lea    -0x1704(%rbp),%rax
    c904:	48 89 85 c0 f7 ff ff 	mov    %rax,-0x840(%rbp)
    c90b:	48 8d 85 fc e8 ff ff 	lea    -0x1704(%rbp),%rax
    c912:	48 89 85 c8 f7 ff ff 	mov    %rax,-0x838(%rbp)
    c919:	48 8d 05 00 88 00 00 	lea    0x8800(%rip),%rax        # 15120 <g_47>
    c920:	48 89 85 d0 f7 ff ff 	mov    %rax,-0x830(%rbp)
    c927:	48 8d 85 fc e8 ff ff 	lea    -0x1704(%rbp),%rax
    c92e:	48 89 85 d8 f7 ff ff 	mov    %rax,-0x828(%rbp)
    c935:	48 8d 85 fc e8 ff ff 	lea    -0x1704(%rbp),%rax
    c93c:	48 89 85 e0 f7 ff ff 	mov    %rax,-0x820(%rbp)
    c943:	48 8d 05 d6 87 00 00 	lea    0x87d6(%rip),%rax        # 15120 <g_47>
    c94a:	48 89 85 e8 f7 ff ff 	mov    %rax,-0x818(%rbp)
    c951:	48 8d 85 fc e8 ff ff 	lea    -0x1704(%rbp),%rax
    c958:	48 89 85 f0 f7 ff ff 	mov    %rax,-0x810(%rbp)
    c95f:	c7 85 60 ea ff ff fc 	movl   $0xfffffffc,-0x15a0(%rbp)
    c966:	ff ff ff 
    c969:	c7 85 64 ea ff ff fc 	movl   $0xfffffffc,-0x159c(%rbp)
    c970:	ff ff ff 
    c973:	c7 85 68 ea ff ff fc 	movl   $0xfffffffc,-0x1598(%rbp)
    c97a:	ff ff ff 
    c97d:	c7 85 6c ea ff ff fc 	movl   $0xfffffffc,-0x1594(%rbp)
    c984:	ff ff ff 
    c987:	c7 85 70 ea ff ff fc 	movl   $0xfffffffc,-0x1590(%rbp)
    c98e:	ff ff ff 
    c991:	c7 85 74 ea ff ff fc 	movl   $0xfffffffc,-0x158c(%rbp)
    c998:	ff ff ff 
    c99b:	c7 85 78 ea ff ff fc 	movl   $0xfffffffc,-0x1588(%rbp)
    c9a2:	ff ff ff 
    c9a5:	c7 85 7c ea ff ff fc 	movl   $0xfffffffc,-0x1584(%rbp)
    c9ac:	ff ff ff 
    c9af:	66 c7 85 ea e8 ff ff 	movw   $0xfffe,-0x1716(%rbp)
    c9b6:	fe ff 
    c9b8:	66 83 ad ea e8 ff ff 	subw   $0x1,-0x1716(%rbp)
    c9bf:	01 
    c9c0:	c7 85 0c e9 ff ff 00 	movl   $0x0,-0x16f4(%rbp)
    c9c7:	00 00 00 
    c9ca:	e9 ef 02 00 00       	jmpq   ccbe <func_73+0x1b93>
    c9cf:	c7 85 20 e9 ff ff 00 	movl   $0x0,-0x16e0(%rbp)
    c9d6:	00 00 00 
    c9d9:	eb 1a                	jmp    c9f5 <func_73+0x18ca>
    c9db:	8b 85 20 e9 ff ff    	mov    -0x16e0(%rbp),%eax
    c9e1:	48 98                	cltq   
    c9e3:	c7 84 85 20 ea ff ff 	movl   $0xfffffff6,-0x15e0(%rbp,%rax,4)
    c9ea:	f6 ff ff ff 
    c9ee:	83 85 20 e9 ff ff 01 	addl   $0x1,-0x16e0(%rbp)
    c9f5:	83 bd 20 e9 ff ff 01 	cmpl   $0x1,-0x16e0(%rbp)
    c9fc:	7e dd                	jle    c9db <func_73+0x18b0>
    c9fe:	48 8b 05 4b 9d 00 00 	mov    0x9d4b(%rip),%rax        # 16750 <g_359>
    ca05:	48 8b 00             	mov    (%rax),%rax
    ca08:	48 8b 00             	mov    (%rax),%rax
    ca0b:	8b 95 dc e8 ff ff    	mov    -0x1724(%rbp),%edx
    ca11:	89 10                	mov    %edx,(%rax)
    ca13:	c7 05 5b 87 00 00 06 	movl   $0x6,0x875b(%rip)        # 15178 <g_240>
    ca1a:	00 00 00 
    ca1d:	e9 6f 02 00 00       	jmpq   cc91 <func_73+0x1b66>
    ca22:	66 c7 85 ec e8 ff ff 	movw   $0x7555,-0x1714(%rbp)
    ca29:	55 75 
    ca2b:	c7 85 40 ea ff ff 8c 	movl   $0x8278b88c,-0x15c0(%rbp)
    ca32:	b8 78 82 
    ca35:	c7 85 44 ea ff ff 8c 	movl   $0x8278b88c,-0x15bc(%rbp)
    ca3c:	b8 78 82 
    ca3f:	c7 85 48 ea ff ff 7b 	movl   $0x484dbb7b,-0x15b8(%rbp)
    ca46:	bb 4d 48 
    ca49:	c7 85 4c ea ff ff 8c 	movl   $0x8278b88c,-0x15b4(%rbp)
    ca50:	b8 78 82 
    ca53:	c7 85 50 ea ff ff 8c 	movl   $0x8278b88c,-0x15b0(%rbp)
    ca5a:	b8 78 82 
    ca5d:	c7 85 54 ea ff ff 7b 	movl   $0x484dbb7b,-0x15ac(%rbp)
    ca64:	bb 4d 48 
    ca67:	48 8b 05 0a 9d 00 00 	mov    0x9d0a(%rip),%rax        # 16778 <g_485>
    ca6e:	48 8b 00             	mov    (%rax),%rax
    ca71:	48 8b 00             	mov    (%rax),%rax
    ca74:	48 8b 00             	mov    (%rax),%rax
    ca77:	8b 00                	mov    (%rax),%eax
    ca79:	8b 95 dc e8 ff ff    	mov    -0x1724(%rbp),%edx
    ca7f:	89 d6                	mov    %edx,%esi
    ca81:	89 c7                	mov    %eax,%edi
    ca83:	e8 9d a4 ff ff       	callq  6f25 <safe_div_func_uint32_t_u_u>
    ca88:	89 85 f4 e8 ff ff    	mov    %eax,-0x170c(%rbp)
    ca8e:	66 c7 85 ea e8 ff ff 	movw   $0x0,-0x1716(%rbp)
    ca95:	00 00 
    ca97:	e9 4b 01 00 00       	jmpq   cbe7 <func_73+0x1abc>
    ca9c:	c7 85 2c e9 ff ff 99 	movl   $0xfaecc99,-0x16d4(%rbp)
    caa3:	cc ae 0f 
    caa6:	c7 85 30 e9 ff ff fa 	movl   $0xfffffffa,-0x16d0(%rbp)
    caad:	ff ff ff 
    cab0:	48 8d 05 01 9f 00 00 	lea    0x9f01(%rip),%rax        # 169b8 <g_744>
    cab7:	48 89 85 c0 e9 ff ff 	mov    %rax,-0x1640(%rbp)
    cabe:	48 8d 05 eb 9e 00 00 	lea    0x9eeb(%rip),%rax        # 169b0 <g_745>
    cac5:	48 89 85 c0 ee ff ff 	mov    %rax,-0x1140(%rbp)
    cacc:	48 8d 05 dd 9e 00 00 	lea    0x9edd(%rip),%rax        # 169b0 <g_745>
    cad3:	48 89 85 c8 ee ff ff 	mov    %rax,-0x1138(%rbp)
    cada:	48 8d 05 cf 9e 00 00 	lea    0x9ecf(%rip),%rax        # 169b0 <g_745>
    cae1:	48 89 85 d0 ee ff ff 	mov    %rax,-0x1130(%rbp)
    cae8:	48 8d 05 c1 9e 00 00 	lea    0x9ec1(%rip),%rax        # 169b0 <g_745>
    caef:	48 89 85 d8 ee ff ff 	mov    %rax,-0x1128(%rbp)
    caf6:	48 8d 05 b3 9e 00 00 	lea    0x9eb3(%rip),%rax        # 169b0 <g_745>
    cafd:	48 89 85 e0 ee ff ff 	mov    %rax,-0x1120(%rbp)
    cb04:	48 8d 05 a5 9e 00 00 	lea    0x9ea5(%rip),%rax        # 169b0 <g_745>
    cb0b:	48 89 85 e8 ee ff ff 	mov    %rax,-0x1118(%rbp)
    cb12:	48 8d 05 97 9e 00 00 	lea    0x9e97(%rip),%rax        # 169b0 <g_745>
    cb19:	48 89 85 f0 ee ff ff 	mov    %rax,-0x1110(%rbp)
    cb20:	48 8d 05 89 9e 00 00 	lea    0x9e89(%rip),%rax        # 169b0 <g_745>
    cb27:	48 89 85 f8 ee ff ff 	mov    %rax,-0x1108(%rbp)
    cb2e:	48 8d 05 7b 9e 00 00 	lea    0x9e7b(%rip),%rax        # 169b0 <g_745>
    cb35:	48 89 85 00 ef ff ff 	mov    %rax,-0x1100(%rbp)
    cb3c:	48 8d 85 c0 ee ff ff 	lea    -0x1140(%rbp),%rax
    cb43:	48 83 c0 38          	add    $0x38,%rax
    cb47:	48 89 85 c8 e9 ff ff 	mov    %rax,-0x1638(%rbp)
    cb4e:	48 8b 85 78 e9 ff ff 	mov    -0x1688(%rbp),%rax
    cb55:	c7 00 01 00 00 00    	movl   $0x1,(%rax)
    cb5b:	48 8b 85 78 e9 ff ff 	mov    -0x1688(%rbp),%rax
    cb62:	8b 00                	mov    (%rax),%eax
    cb64:	09 85 2c e9 ff ff    	or     %eax,-0x16d4(%rbp)
    cb6a:	83 ad 30 e9 ff ff 01 	subl   $0x1,-0x16d0(%rbp)
    cb71:	8b 9d dc e8 ff ff    	mov    -0x1724(%rbp),%ebx
    cb77:	48 8b 15 3a 9e 00 00 	mov    0x9e3a(%rip),%rdx        # 169b8 <g_744>
    cb7e:	48 8b 85 c0 e9 ff ff 	mov    -0x1640(%rbp),%rax
    cb85:	48 89 10             	mov    %rdx,(%rax)
    cb88:	48 8b 85 c0 e9 ff ff 	mov    -0x1640(%rbp),%rax
    cb8f:	48 8b 10             	mov    (%rax),%rdx
    cb92:	48 8b 85 c8 e9 ff ff 	mov    -0x1638(%rbp),%rax
    cb99:	48 c7 00 00 00 00 00 	movq   $0x0,(%rax)
    cba0:	48 8b 85 c8 e9 ff ff 	mov    -0x1638(%rbp),%rax
    cba7:	48 8b 00             	mov    (%rax),%rax
    cbaa:	48 39 c2             	cmp    %rax,%rdx
    cbad:	0f 94 c0             	sete   %al
    cbb0:	0f b6 c0             	movzbl %al,%eax
    cbb3:	89 c6                	mov    %eax,%esi
    cbb5:	bf b4 ff ff ff       	mov    $0xffffffb4,%edi
    cbba:	e8 2f 97 ff ff       	callq  62ee <safe_lshift_func_int8_t_s_u>
    cbbf:	0f be c0             	movsbl %al,%eax
    cbc2:	89 de                	mov    %ebx,%esi
    cbc4:	89 c7                	mov    %eax,%edi
    cbc6:	e8 01 9b ff ff       	callq  66cc <safe_mod_func_int32_t_s_s>
    cbcb:	48 8b 95 68 e9 ff ff 	mov    -0x1698(%rbp),%rdx
    cbd2:	8b 12                	mov    (%rdx),%edx
    cbd4:	09 c2                	or     %eax,%edx
    cbd6:	48 8b 85 68 e9 ff ff 	mov    -0x1698(%rbp),%rax
    cbdd:	89 10                	mov    %edx,(%rax)
    cbdf:	66 83 85 ea e8 ff ff 	addw   $0x1,-0x1716(%rbp)
    cbe6:	01 
    cbe7:	66 83 bd ea e8 ff ff 	cmpw   $0x39,-0x1716(%rbp)
    cbee:	39 
    cbef:	0f 86 a7 fe ff ff    	jbe    ca9c <func_73+0x1971>
    cbf5:	c7 85 dc e8 ff ff 00 	movl   $0x0,-0x1724(%rbp)
    cbfc:	00 00 00 
    cbff:	eb 69                	jmp    cc6a <func_73+0x1b3f>
    cc01:	48 8d 85 c0 ee ff ff 	lea    -0x1140(%rbp),%rax
    cc08:	48 8d 15 31 4a 00 00 	lea    0x4a31(%rip),%rdx        # 11640 <g_1811+0x15ea>
    cc0f:	b9 78 00 00 00       	mov    $0x78,%ecx
    cc14:	48 89 c7             	mov    %rax,%rdi
    cc17:	48 89 d6             	mov    %rdx,%rsi
    cc1a:	f3 48 a5             	rep movsq %ds:(%rsi),%es:(%rdi)
    cc1d:	c6 85 e8 e8 ff ff f9 	movb   $0xf9,-0x1718(%rbp)
    cc24:	c7 85 24 e9 ff ff 00 	movl   $0x0,-0x16dc(%rbp)
    cc2b:	00 00 00 
    cc2e:	eb 1a                	jmp    cc4a <func_73+0x1b1f>
    cc30:	8b 85 24 e9 ff ff    	mov    -0x16dc(%rbp),%eax
    cc36:	48 98                	cltq   
    cc38:	c7 84 85 14 ea ff ff 	movl   $0x1,-0x15ec(%rbp,%rax,4)
    cc3f:	01 00 00 00 
    cc43:	83 85 24 e9 ff ff 01 	addl   $0x1,-0x16dc(%rbp)
    cc4a:	83 bd 24 e9 ff ff 00 	cmpl   $0x0,-0x16dc(%rbp)
    cc51:	7e dd                	jle    cc30 <func_73+0x1b05>
    cc53:	0f b6 85 e8 e8 ff ff 	movzbl -0x1718(%rbp),%eax
    cc5a:	83 e8 01             	sub    $0x1,%eax
    cc5d:	88 85 e8 e8 ff ff    	mov    %al,-0x1718(%rbp)
    cc63:	83 85 dc e8 ff ff 01 	addl   $0x1,-0x1724(%rbp)
    cc6a:	83 bd dc e8 ff ff 02 	cmpl   $0x2,-0x1724(%rbp)
    cc71:	76 8e                	jbe    cc01 <func_73+0x1ad6>
    cc73:	8b 05 ff 84 00 00    	mov    0x84ff(%rip),%eax        # 15178 <g_240>
    cc79:	0f b7 c0             	movzwl %ax,%eax
    cc7c:	be 04 00 00 00       	mov    $0x4,%esi
    cc81:	89 c7                	mov    %eax,%edi
    cc83:	e8 77 a0 ff ff       	callq  6cff <safe_add_func_uint16_t_u_u>
    cc88:	0f b7 c0             	movzwl %ax,%eax
    cc8b:	89 05 e7 84 00 00    	mov    %eax,0x84e7(%rip)        # 15178 <g_240>
    cc91:	8b 05 e1 84 00 00    	mov    0x84e1(%rip),%eax        # 15178 <g_240>
    cc97:	83 f8 0c             	cmp    $0xc,%eax
    cc9a:	0f 84 82 fd ff ff    	je     ca22 <func_73+0x18f7>
    cca0:	8b 85 0c e9 ff ff    	mov    -0x16f4(%rbp),%eax
    cca6:	0f b6 c0             	movzbl %al,%eax
    cca9:	be 06 00 00 00       	mov    $0x6,%esi
    ccae:	89 c7                	mov    %eax,%edi
    ccb0:	e8 a5 9e ff ff       	callq  6b5a <safe_add_func_uint8_t_u_u>
    ccb5:	0f b6 c0             	movzbl %al,%eax
    ccb8:	89 85 0c e9 ff ff    	mov    %eax,-0x16f4(%rbp)
    ccbe:	83 bd 0c e9 ff ff 0a 	cmpl   $0xa,-0x16f4(%rbp)
    ccc5:	0f 84 04 fd ff ff    	je     c9cf <func_73+0x18a4>
    cccb:	48 8b 05 2e 9a 00 00 	mov    0x9a2e(%rip),%rax        # 16700 <g_104>
    ccd2:	48 8b 00             	mov    (%rax),%rax
    ccd5:	48 8b 5d e8          	mov    -0x18(%rbp),%rbx
    ccd9:	64 48 33 1c 25 28 00 	xor    %fs:0x28,%rbx
    cce0:	00 00 
    cce2:	74 05                	je     cce9 <func_73+0x1bbe>
    cce4:	e8 87 93 ff ff       	callq  6070 <__stack_chk_fail@plt>
    cce9:	48 81 c4 20 17 00 00 	add    $0x1720,%rsp
    ccf0:	5b                   	pop    %rbx
    ccf1:	41 5c                	pop    %r12
    ccf3:	5d                   	pop    %rbp
    ccf4:	c3                   	retq   

000000000000ccf5 <func_78>:
    ccf5:	f3 0f 1e fa          	endbr64 
    ccf9:	55                   	push   %rbp
    ccfa:	48 89 e5             	mov    %rsp,%rbp
    ccfd:	41 54                	push   %r12
    ccff:	53                   	push   %rbx
    cd00:	48 81 ec 00 0a 00 00 	sub    $0xa00,%rsp
    cd07:	89 bd 0c f6 ff ff    	mov    %edi,-0x9f4(%rbp)
    cd0d:	48 89 b5 00 f6 ff ff 	mov    %rsi,-0xa00(%rbp)
    cd14:	48 89 95 f8 f5 ff ff 	mov    %rdx,-0xa08(%rbp)
    cd1b:	48 89 8d f0 f5 ff ff 	mov    %rcx,-0xa10(%rbp)
    cd22:	64 48 8b 04 25 28 00 	mov    %fs:0x28,%rax
    cd29:	00 00 
    cd2b:	48 89 45 e8          	mov    %rax,-0x18(%rbp)
    cd2f:	31 c0                	xor    %eax,%eax
    cd31:	c7 85 1c f6 ff ff 2b 	movl   $0x10f48f2b,-0x9e4(%rbp)
    cd38:	8f f4 10 
    cd3b:	c7 85 20 f6 ff ff 93 	movl   $0xd4e5d193,-0x9e0(%rbp)
    cd42:	d1 e5 d4 
    cd45:	c7 85 24 f6 ff ff 26 	movl   $0xb8414626,-0x9dc(%rbp)
    cd4c:	46 41 b8 
    cd4f:	c7 85 28 f6 ff ff 03 	movl   $0x3,-0x9d8(%rbp)
    cd56:	00 00 00 
    cd59:	48 8d 85 a0 f6 ff ff 	lea    -0x960(%rbp),%rax
    cd60:	48 8d 15 b9 8c 00 00 	lea    0x8cb9(%rip),%rdx        # 15a20 <g_2537+0x748>
    cd67:	b9 2d 00 00 00       	mov    $0x2d,%ecx
    cd6c:	48 89 c7             	mov    %rax,%rdi
    cd6f:	48 89 d6             	mov    %rdx,%rsi
    cd72:	f3 48 a5             	rep movsq %ds:(%rsi),%es:(%rdi)
    cd75:	48 8d 05 94 99 00 00 	lea    0x9994(%rip),%rax        # 16710 <g_229>
    cd7c:	48 89 85 50 f6 ff ff 	mov    %rax,-0x9b0(%rbp)
    cd83:	c6 85 18 f6 ff ff 00 	movb   $0x0,-0x9e8(%rbp)
    cd8a:	8b 85 1c f6 ff ff    	mov    -0x9e4(%rbp),%eax
    cd90:	89 c0                	mov    %eax,%eax
    cd92:	83 e0 0c             	and    $0xc,%eax
    cd95:	48 85 c0             	test   %rax,%rax
    cd98:	75 0c                	jne    cda6 <func_78+0xb1>
    cd9a:	0f b7 05 1d 84 00 00 	movzwl 0x841d(%rip),%eax        # 151be <g_456>
    cda1:	66 85 c0             	test   %ax,%ax
    cda4:	7e 07                	jle    cdad <func_78+0xb8>
    cda6:	b8 01 00 00 00       	mov    $0x1,%eax
    cdab:	eb 05                	jmp    cdb2 <func_78+0xbd>
    cdad:	b8 00 00 00 00       	mov    $0x0,%eax
    cdb2:	89 85 20 f6 ff ff    	mov    %eax,-0x9e0(%rbp)
    cdb8:	c7 05 9e 83 00 00 00 	movl   $0x0,0x839e(%rip)        # 15160 <g_157>
    cdbf:	00 00 00 
    cdc2:	e9 cb 0e 00 00       	jmpq   dc92 <func_78+0xf9d>
    cdc7:	48 c7 85 58 f6 ff ff 	movq   $0x0,-0x9a8(%rbp)
    cdce:	00 00 00 00 
    cdd2:	48 c7 85 70 f6 ff ff 	movq   $0x0,-0x990(%rbp)
    cdd9:	00 00 00 00 
    cddd:	48 c7 85 78 f6 ff ff 	movq   $0x0,-0x988(%rbp)
    cde4:	00 00 00 00 
    cde8:	48 c7 85 80 f6 ff ff 	movq   $0x0,-0x980(%rbp)
    cdef:	00 00 00 00 
    cdf3:	48 c7 85 88 f6 ff ff 	movq   $0x0,-0x978(%rbp)
    cdfa:	00 00 00 00 
    cdfe:	48 c7 85 90 f6 ff ff 	movq   $0x0,-0x970(%rbp)
    ce05:	00 00 00 00 
    ce09:	48 c7 85 98 f6 ff ff 	movq   $0x0,-0x968(%rbp)
    ce10:	00 00 00 00 
    ce14:	c6 85 19 f6 ff ff 08 	movb   $0x8,-0x9e7(%rbp)
    ce1b:	66 c7 85 1a f6 ff ff 	movw   $0x0,-0x9e6(%rbp)
    ce22:	00 00 
    ce24:	48 8d 05 11 83 00 00 	lea    0x8311(%rip),%rax        # 1513c <g_102+0xc>
    ce2b:	48 89 85 60 f6 ff ff 	mov    %rax,-0x9a0(%rbp)
    ce32:	c7 85 2c f6 ff ff 00 	movl   $0x0,-0x9d4(%rbp)
    ce39:	00 00 00 
    ce3c:	c7 85 30 f6 ff ff 91 	movl   $0xb30be091,-0x9d0(%rbp)
    ce43:	e0 0b b3 
    ce46:	48 c7 85 10 f8 ff ff 	movq   $0x0,-0x7f0(%rbp)
    ce4d:	00 00 00 00 
    ce51:	48 c7 85 18 f8 ff ff 	movq   $0x0,-0x7e8(%rbp)
    ce58:	00 00 00 00 
    ce5c:	48 8d 85 1c f6 ff ff 	lea    -0x9e4(%rbp),%rax
    ce63:	48 89 85 20 f8 ff ff 	mov    %rax,-0x7e0(%rbp)
    ce6a:	48 c7 85 28 f8 ff ff 	movq   $0x0,-0x7d8(%rbp)
    ce71:	00 00 00 00 
    ce75:	48 c7 85 30 f8 ff ff 	movq   $0x0,-0x7d0(%rbp)
    ce7c:	00 00 00 00 
    ce80:	48 8d 05 b1 82 00 00 	lea    0x82b1(%rip),%rax        # 15138 <g_102+0x8>
    ce87:	48 89 85 38 f8 ff ff 	mov    %rax,-0x7c8(%rbp)
    ce8e:	48 8d 85 1c f6 ff ff 	lea    -0x9e4(%rbp),%rax
    ce95:	48 89 85 40 f8 ff ff 	mov    %rax,-0x7c0(%rbp)
    ce9c:	48 8d 05 91 82 00 00 	lea    0x8291(%rip),%rax        # 15134 <g_102+0x4>
    cea3:	48 89 85 48 f8 ff ff 	mov    %rax,-0x7b8(%rbp)
    ceaa:	48 c7 85 50 f8 ff ff 	movq   $0x0,-0x7b0(%rbp)
    ceb1:	00 00 00 00 
    ceb5:	48 8d 85 1c f6 ff ff 	lea    -0x9e4(%rbp),%rax
    cebc:	48 89 85 58 f8 ff ff 	mov    %rax,-0x7a8(%rbp)
    cec3:	48 c7 85 60 f8 ff ff 	movq   $0x0,-0x7a0(%rbp)
    ceca:	00 00 00 00 
    cece:	48 8d 05 5f 82 00 00 	lea    0x825f(%rip),%rax        # 15134 <g_102+0x4>
    ced5:	48 89 85 68 f8 ff ff 	mov    %rax,-0x798(%rbp)
    cedc:	48 8d 05 51 82 00 00 	lea    0x8251(%rip),%rax        # 15134 <g_102+0x4>
    cee3:	48 89 85 70 f8 ff ff 	mov    %rax,-0x790(%rbp)
    ceea:	48 c7 85 78 f8 ff ff 	movq   $0x0,-0x788(%rbp)
    cef1:	00 00 00 00 
    cef5:	48 c7 85 80 f8 ff ff 	movq   $0x0,-0x780(%rbp)
    cefc:	00 00 00 00 
    cf00:	48 c7 85 88 f8 ff ff 	movq   $0x0,-0x778(%rbp)
    cf07:	00 00 00 00 
    cf0b:	48 c7 85 90 f8 ff ff 	movq   $0x0,-0x770(%rbp)
    cf12:	00 00 00 00 
    cf16:	48 8d 85 1c f6 ff ff 	lea    -0x9e4(%rbp),%rax
    cf1d:	48 89 85 98 f8 ff ff 	mov    %rax,-0x768(%rbp)
    cf24:	48 8d 85 1c f6 ff ff 	lea    -0x9e4(%rbp),%rax
    cf2b:	48 89 85 a0 f8 ff ff 	mov    %rax,-0x760(%rbp)
    cf32:	48 8d 85 1c f6 ff ff 	lea    -0x9e4(%rbp),%rax
    cf39:	48 89 85 a8 f8 ff ff 	mov    %rax,-0x758(%rbp)
    cf40:	48 8d 05 f1 81 00 00 	lea    0x81f1(%rip),%rax        # 15138 <g_102+0x8>
    cf47:	48 89 85 b0 f8 ff ff 	mov    %rax,-0x750(%rbp)
    cf4e:	48 c7 85 b8 f8 ff ff 	movq   $0x0,-0x748(%rbp)
    cf55:	00 00 00 00 
    cf59:	48 8d 05 d8 81 00 00 	lea    0x81d8(%rip),%rax        # 15138 <g_102+0x8>
    cf60:	48 89 85 c0 f8 ff ff 	mov    %rax,-0x740(%rbp)
    cf67:	48 c7 85 c8 f8 ff ff 	movq   $0x0,-0x738(%rbp)
    cf6e:	00 00 00 00 
    cf72:	48 c7 85 d0 f8 ff ff 	movq   $0x0,-0x730(%rbp)
    cf79:	00 00 00 00 
    cf7d:	48 8d 85 1c f6 ff ff 	lea    -0x9e4(%rbp),%rax
    cf84:	48 89 85 d8 f8 ff ff 	mov    %rax,-0x728(%rbp)
    cf8b:	48 8d 05 a2 81 00 00 	lea    0x81a2(%rip),%rax        # 15134 <g_102+0x4>
    cf92:	48 89 85 e0 f8 ff ff 	mov    %rax,-0x720(%rbp)
    cf99:	48 c7 85 e8 f8 ff ff 	movq   $0x0,-0x718(%rbp)
    cfa0:	00 00 00 00 
    cfa4:	48 8d 85 1c f6 ff ff 	lea    -0x9e4(%rbp),%rax
    cfab:	48 89 85 f0 f8 ff ff 	mov    %rax,-0x710(%rbp)
    cfb2:	48 c7 85 f8 f8 ff ff 	movq   $0x0,-0x708(%rbp)
    cfb9:	00 00 00 00 
    cfbd:	48 8d 85 1c f6 ff ff 	lea    -0x9e4(%rbp),%rax
    cfc4:	48 89 85 00 f9 ff ff 	mov    %rax,-0x700(%rbp)
    cfcb:	48 8d 85 1c f6 ff ff 	lea    -0x9e4(%rbp),%rax
    cfd2:	48 89 85 08 f9 ff ff 	mov    %rax,-0x6f8(%rbp)
    cfd9:	48 8d 85 1c f6 ff ff 	lea    -0x9e4(%rbp),%rax
    cfe0:	48 89 85 10 f9 ff ff 	mov    %rax,-0x6f0(%rbp)
    cfe7:	48 c7 85 18 f9 ff ff 	movq   $0x0,-0x6e8(%rbp)
    cfee:	00 00 00 00 
    cff2:	48 c7 85 20 f9 ff ff 	movq   $0x0,-0x6e0(%rbp)
    cff9:	00 00 00 00 
    cffd:	48 8d 05 34 81 00 00 	lea    0x8134(%rip),%rax        # 15138 <g_102+0x8>
    d004:	48 89 85 28 f9 ff ff 	mov    %rax,-0x6d8(%rbp)
    d00b:	48 c7 85 30 f9 ff ff 	movq   $0x0,-0x6d0(%rbp)
    d012:	00 00 00 00 
    d016:	48 c7 85 38 f9 ff ff 	movq   $0x0,-0x6c8(%rbp)
    d01d:	00 00 00 00 
    d021:	48 c7 85 40 f9 ff ff 	movq   $0x0,-0x6c0(%rbp)
    d028:	00 00 00 00 
    d02c:	48 c7 85 48 f9 ff ff 	movq   $0x0,-0x6b8(%rbp)
    d033:	00 00 00 00 
    d037:	48 c7 85 50 f9 ff ff 	movq   $0x0,-0x6b0(%rbp)
    d03e:	00 00 00 00 
    d042:	48 8d 05 eb 80 00 00 	lea    0x80eb(%rip),%rax        # 15134 <g_102+0x4>
    d049:	48 89 85 58 f9 ff ff 	mov    %rax,-0x6a8(%rbp)
    d050:	48 8d 05 e1 80 00 00 	lea    0x80e1(%rip),%rax        # 15138 <g_102+0x8>
    d057:	48 89 85 60 f9 ff ff 	mov    %rax,-0x6a0(%rbp)
    d05e:	48 c7 85 68 f9 ff ff 	movq   $0x0,-0x698(%rbp)
    d065:	00 00 00 00 
    d069:	48 c7 85 70 f9 ff ff 	movq   $0x0,-0x690(%rbp)
    d070:	00 00 00 00 
    d074:	48 c7 85 78 f9 ff ff 	movq   $0x0,-0x688(%rbp)
    d07b:	00 00 00 00 
    d07f:	48 c7 85 80 f9 ff ff 	movq   $0x0,-0x680(%rbp)
    d086:	00 00 00 00 
    d08a:	48 8d 85 1c f6 ff ff 	lea    -0x9e4(%rbp),%rax
    d091:	48 89 85 88 f9 ff ff 	mov    %rax,-0x678(%rbp)
    d098:	48 c7 85 90 f9 ff ff 	movq   $0x0,-0x670(%rbp)
    d09f:	00 00 00 00 
    d0a3:	48 c7 85 98 f9 ff ff 	movq   $0x0,-0x668(%rbp)
    d0aa:	00 00 00 00 
    d0ae:	48 8d 05 83 80 00 00 	lea    0x8083(%rip),%rax        # 15138 <g_102+0x8>
    d0b5:	48 89 85 a0 f9 ff ff 	mov    %rax,-0x660(%rbp)
    d0bc:	48 8d 85 1c f6 ff ff 	lea    -0x9e4(%rbp),%rax
    d0c3:	48 89 85 a8 f9 ff ff 	mov    %rax,-0x658(%rbp)
    d0ca:	48 8d 05 63 80 00 00 	lea    0x8063(%rip),%rax        # 15134 <g_102+0x4>
    d0d1:	48 89 85 b0 f9 ff ff 	mov    %rax,-0x650(%rbp)
    d0d8:	48 c7 85 b8 f9 ff ff 	movq   $0x0,-0x648(%rbp)
    d0df:	00 00 00 00 
    d0e3:	48 8d 85 1c f6 ff ff 	lea    -0x9e4(%rbp),%rax
    d0ea:	48 89 85 c0 f9 ff ff 	mov    %rax,-0x640(%rbp)
    d0f1:	48 c7 85 c8 f9 ff ff 	movq   $0x0,-0x638(%rbp)
    d0f8:	00 00 00 00 
    d0fc:	48 8d 05 31 80 00 00 	lea    0x8031(%rip),%rax        # 15134 <g_102+0x4>
    d103:	48 89 85 d0 f9 ff ff 	mov    %rax,-0x630(%rbp)
    d10a:	48 8d 05 23 80 00 00 	lea    0x8023(%rip),%rax        # 15134 <g_102+0x4>
    d111:	48 89 85 d8 f9 ff ff 	mov    %rax,-0x628(%rbp)
    d118:	48 c7 85 e0 f9 ff ff 	movq   $0x0,-0x620(%rbp)
    d11f:	00 00 00 00 
    d123:	48 c7 85 e8 f9 ff ff 	movq   $0x0,-0x618(%rbp)
    d12a:	00 00 00 00 
    d12e:	48 c7 85 f0 f9 ff ff 	movq   $0x0,-0x610(%rbp)
    d135:	00 00 00 00 
    d139:	48 c7 85 f8 f9 ff ff 	movq   $0x0,-0x608(%rbp)
    d140:	00 00 00 00 
    d144:	48 8d 85 1c f6 ff ff 	lea    -0x9e4(%rbp),%rax
    d14b:	48 89 85 00 fa ff ff 	mov    %rax,-0x600(%rbp)
    d152:	48 8d 85 1c f6 ff ff 	lea    -0x9e4(%rbp),%rax
    d159:	48 89 85 08 fa ff ff 	mov    %rax,-0x5f8(%rbp)
    d160:	48 8d 85 1c f6 ff ff 	lea    -0x9e4(%rbp),%rax
    d167:	48 89 85 10 fa ff ff 	mov    %rax,-0x5f0(%rbp)
    d16e:	48 8d 05 c3 7f 00 00 	lea    0x7fc3(%rip),%rax        # 15138 <g_102+0x8>
    d175:	48 89 85 18 fa ff ff 	mov    %rax,-0x5e8(%rbp)
    d17c:	48 c7 85 20 fa ff ff 	movq   $0x0,-0x5e0(%rbp)
    d183:	00 00 00 00 
    d187:	48 8d 05 aa 7f 00 00 	lea    0x7faa(%rip),%rax        # 15138 <g_102+0x8>
    d18e:	48 89 85 28 fa ff ff 	mov    %rax,-0x5d8(%rbp)
    d195:	48 c7 85 30 fa ff ff 	movq   $0x0,-0x5d0(%rbp)
    d19c:	00 00 00 00 
    d1a0:	48 c7 85 38 fa ff ff 	movq   $0x0,-0x5c8(%rbp)
    d1a7:	00 00 00 00 
    d1ab:	48 8d 85 1c f6 ff ff 	lea    -0x9e4(%rbp),%rax
    d1b2:	48 89 85 40 fa ff ff 	mov    %rax,-0x5c0(%rbp)
    d1b9:	48 8d 05 74 7f 00 00 	lea    0x7f74(%rip),%rax        # 15134 <g_102+0x4>
    d1c0:	48 89 85 48 fa ff ff 	mov    %rax,-0x5b8(%rbp)
    d1c7:	48 c7 85 50 fa ff ff 	movq   $0x0,-0x5b0(%rbp)
    d1ce:	00 00 00 00 
    d1d2:	48 8d 85 1c f6 ff ff 	lea    -0x9e4(%rbp),%rax
    d1d9:	48 89 85 58 fa ff ff 	mov    %rax,-0x5a8(%rbp)
    d1e0:	48 c7 85 60 fa ff ff 	movq   $0x0,-0x5a0(%rbp)
    d1e7:	00 00 00 00 
    d1eb:	48 8d 85 1c f6 ff ff 	lea    -0x9e4(%rbp),%rax
    d1f2:	48 89 85 68 fa ff ff 	mov    %rax,-0x598(%rbp)
    d1f9:	48 8d 85 1c f6 ff ff 	lea    -0x9e4(%rbp),%rax
    d200:	48 89 85 70 fa ff ff 	mov    %rax,-0x590(%rbp)
    d207:	48 8d 85 1c f6 ff ff 	lea    -0x9e4(%rbp),%rax
    d20e:	48 89 85 78 fa ff ff 	mov    %rax,-0x588(%rbp)
    d215:	48 c7 85 80 fa ff ff 	movq   $0x0,-0x580(%rbp)
    d21c:	00 00 00 00 
    d220:	48 c7 85 88 fa ff ff 	movq   $0x0,-0x578(%rbp)
    d227:	00 00 00 00 
    d22b:	48 8d 05 06 7f 00 00 	lea    0x7f06(%rip),%rax        # 15138 <g_102+0x8>
    d232:	48 89 85 90 fa ff ff 	mov    %rax,-0x570(%rbp)
    d239:	48 c7 85 98 fa ff ff 	movq   $0x0,-0x568(%rbp)
    d240:	00 00 00 00 
    d244:	48 8d 05 ed 7e 00 00 	lea    0x7eed(%rip),%rax        # 15138 <g_102+0x8>
    d24b:	48 89 85 a0 fa ff ff 	mov    %rax,-0x560(%rbp)
    d252:	48 8d 05 df 7e 00 00 	lea    0x7edf(%rip),%rax        # 15138 <g_102+0x8>
    d259:	48 89 85 a8 fa ff ff 	mov    %rax,-0x558(%rbp)
    d260:	48 c7 85 b0 fa ff ff 	movq   $0x0,-0x550(%rbp)
    d267:	00 00 00 00 
    d26b:	48 c7 85 b8 fa ff ff 	movq   $0x0,-0x548(%rbp)
    d272:	00 00 00 00 
    d276:	48 8d 85 1c f6 ff ff 	lea    -0x9e4(%rbp),%rax
    d27d:	48 89 85 c0 fa ff ff 	mov    %rax,-0x540(%rbp)
    d284:	48 8d 05 a5 7e 00 00 	lea    0x7ea5(%rip),%rax        # 15130 <g_102>
    d28b:	48 89 85 c8 fa ff ff 	mov    %rax,-0x538(%rbp)
    d292:	48 c7 85 d0 fa ff ff 	movq   $0x0,-0x530(%rbp)
    d299:	00 00 00 00 
    d29d:	48 8d 05 94 7e 00 00 	lea    0x7e94(%rip),%rax        # 15138 <g_102+0x8>
    d2a4:	48 89 85 d8 fa ff ff 	mov    %rax,-0x528(%rbp)
    d2ab:	48 8d 05 82 7e 00 00 	lea    0x7e82(%rip),%rax        # 15134 <g_102+0x4>
    d2b2:	48 89 85 e0 fa ff ff 	mov    %rax,-0x520(%rbp)
    d2b9:	48 c7 85 e8 fa ff ff 	movq   $0x0,-0x518(%rbp)
    d2c0:	00 00 00 00 
    d2c4:	48 8d 85 1c f6 ff ff 	lea    -0x9e4(%rbp),%rax
    d2cb:	48 89 85 f0 fa ff ff 	mov    %rax,-0x510(%rbp)
    d2d2:	48 c7 85 f8 fa ff ff 	movq   $0x0,-0x508(%rbp)
    d2d9:	00 00 00 00 
    d2dd:	48 8d 05 50 7e 00 00 	lea    0x7e50(%rip),%rax        # 15134 <g_102+0x4>
    d2e4:	48 89 85 00 fb ff ff 	mov    %rax,-0x500(%rbp)
    d2eb:	48 8d 05 3e 7e 00 00 	lea    0x7e3e(%rip),%rax        # 15130 <g_102>
    d2f2:	48 89 85 08 fb ff ff 	mov    %rax,-0x4f8(%rbp)
    d2f9:	48 8d 05 38 7e 00 00 	lea    0x7e38(%rip),%rax        # 15138 <g_102+0x8>
    d300:	48 89 85 10 fb ff ff 	mov    %rax,-0x4f0(%rbp)
    d307:	48 8d 85 1c f6 ff ff 	lea    -0x9e4(%rbp),%rax
    d30e:	48 89 85 18 fb ff ff 	mov    %rax,-0x4e8(%rbp)
    d315:	48 8d 05 1c 7e 00 00 	lea    0x7e1c(%rip),%rax        # 15138 <g_102+0x8>
    d31c:	48 89 85 20 fb ff ff 	mov    %rax,-0x4e0(%rbp)
    d323:	48 8d 05 0e 7e 00 00 	lea    0x7e0e(%rip),%rax        # 15138 <g_102+0x8>
    d32a:	48 89 85 28 fb ff ff 	mov    %rax,-0x4d8(%rbp)
    d331:	48 8d 05 fc 7d 00 00 	lea    0x7dfc(%rip),%rax        # 15134 <g_102+0x4>
    d338:	48 89 85 30 fb ff ff 	mov    %rax,-0x4d0(%rbp)
    d33f:	48 8d 85 1c f6 ff ff 	lea    -0x9e4(%rbp),%rax
    d346:	48 89 85 38 fb ff ff 	mov    %rax,-0x4c8(%rbp)
    d34d:	48 8d 85 1c f6 ff ff 	lea    -0x9e4(%rbp),%rax
    d354:	48 89 85 40 fb ff ff 	mov    %rax,-0x4c0(%rbp)
    d35b:	48 8d 05 d2 7d 00 00 	lea    0x7dd2(%rip),%rax        # 15134 <g_102+0x4>
    d362:	48 89 85 48 fb ff ff 	mov    %rax,-0x4b8(%rbp)
    d369:	48 8d 05 c8 7d 00 00 	lea    0x7dc8(%rip),%rax        # 15138 <g_102+0x8>
    d370:	48 89 85 50 fb ff ff 	mov    %rax,-0x4b0(%rbp)
    d377:	48 c7 85 58 fb ff ff 	movq   $0x0,-0x4a8(%rbp)
    d37e:	00 00 00 00 
    d382:	48 8d 05 ab 7d 00 00 	lea    0x7dab(%rip),%rax        # 15134 <g_102+0x4>
    d389:	48 89 85 60 fb ff ff 	mov    %rax,-0x4a0(%rbp)
    d390:	48 8d 85 1c f6 ff ff 	lea    -0x9e4(%rbp),%rax
    d397:	48 89 85 68 fb ff ff 	mov    %rax,-0x498(%rbp)
    d39e:	48 8d 05 93 7d 00 00 	lea    0x7d93(%rip),%rax        # 15138 <g_102+0x8>
    d3a5:	48 89 85 70 fb ff ff 	mov    %rax,-0x490(%rbp)
    d3ac:	48 8d 05 85 7d 00 00 	lea    0x7d85(%rip),%rax        # 15138 <g_102+0x8>
    d3b3:	48 89 85 78 fb ff ff 	mov    %rax,-0x488(%rbp)
    d3ba:	48 8d 05 6f 7d 00 00 	lea    0x7d6f(%rip),%rax        # 15130 <g_102>
    d3c1:	48 89 85 80 fb ff ff 	mov    %rax,-0x480(%rbp)
    d3c8:	48 8d 05 65 7d 00 00 	lea    0x7d65(%rip),%rax        # 15134 <g_102+0x4>
    d3cf:	48 89 85 88 fb ff ff 	mov    %rax,-0x478(%rbp)
    d3d6:	48 8d 05 53 7d 00 00 	lea    0x7d53(%rip),%rax        # 15130 <g_102>
    d3dd:	48 89 85 90 fb ff ff 	mov    %rax,-0x470(%rbp)
    d3e4:	48 8d 05 4d 7d 00 00 	lea    0x7d4d(%rip),%rax        # 15138 <g_102+0x8>
    d3eb:	48 89 85 98 fb ff ff 	mov    %rax,-0x468(%rbp)
    d3f2:	48 8d 05 3b 7d 00 00 	lea    0x7d3b(%rip),%rax        # 15134 <g_102+0x4>
    d3f9:	48 89 85 a0 fb ff ff 	mov    %rax,-0x460(%rbp)
    d400:	48 8d 05 31 7d 00 00 	lea    0x7d31(%rip),%rax        # 15138 <g_102+0x8>
    d407:	48 89 85 a8 fb ff ff 	mov    %rax,-0x458(%rbp)
    d40e:	48 8d 85 1c f6 ff ff 	lea    -0x9e4(%rbp),%rax
    d415:	48 89 85 b0 fb ff ff 	mov    %rax,-0x450(%rbp)
    d41c:	48 8d 05 15 7d 00 00 	lea    0x7d15(%rip),%rax        # 15138 <g_102+0x8>
    d423:	48 89 85 b8 fb ff ff 	mov    %rax,-0x448(%rbp)
    d42a:	48 8d 05 07 7d 00 00 	lea    0x7d07(%rip),%rax        # 15138 <g_102+0x8>
    d431:	48 89 85 c0 fb ff ff 	mov    %rax,-0x440(%rbp)
    d438:	48 8d 05 f9 7c 00 00 	lea    0x7cf9(%rip),%rax        # 15138 <g_102+0x8>
    d43f:	48 89 85 c8 fb ff ff 	mov    %rax,-0x438(%rbp)
    d446:	48 8d 05 eb 7c 00 00 	lea    0x7ceb(%rip),%rax        # 15138 <g_102+0x8>
    d44d:	48 89 85 d0 fb ff ff 	mov    %rax,-0x430(%rbp)
    d454:	48 8d 05 dd 7c 00 00 	lea    0x7cdd(%rip),%rax        # 15138 <g_102+0x8>
    d45b:	48 89 85 d8 fb ff ff 	mov    %rax,-0x428(%rbp)
    d462:	48 8d 85 1c f6 ff ff 	lea    -0x9e4(%rbp),%rax
    d469:	48 89 85 e0 fb ff ff 	mov    %rax,-0x420(%rbp)
    d470:	48 8d 05 bd 7c 00 00 	lea    0x7cbd(%rip),%rax        # 15134 <g_102+0x4>
    d477:	48 89 85 e8 fb ff ff 	mov    %rax,-0x418(%rbp)
    d47e:	48 c7 85 f0 fb ff ff 	movq   $0x0,-0x410(%rbp)
    d485:	00 00 00 00 
    d489:	48 8d 05 a0 7c 00 00 	lea    0x7ca0(%rip),%rax        # 15130 <g_102>
    d490:	48 89 85 f8 fb ff ff 	mov    %rax,-0x408(%rbp)
    d497:	48 c7 85 00 fc ff ff 	movq   $0x0,-0x400(%rbp)
    d49e:	00 00 00 00 
    d4a2:	48 8d 05 8f 7c 00 00 	lea    0x7c8f(%rip),%rax        # 15138 <g_102+0x8>
    d4a9:	48 89 85 08 fc ff ff 	mov    %rax,-0x3f8(%rbp)
    d4b0:	48 8d 05 81 7c 00 00 	lea    0x7c81(%rip),%rax        # 15138 <g_102+0x8>
    d4b7:	48 89 85 10 fc ff ff 	mov    %rax,-0x3f0(%rbp)
    d4be:	48 c7 85 18 fc ff ff 	movq   $0x0,-0x3e8(%rbp)
    d4c5:	00 00 00 00 
    d4c9:	48 c7 85 20 fc ff ff 	movq   $0x0,-0x3e0(%rbp)
    d4d0:	00 00 00 00 
    d4d4:	48 8d 85 1c f6 ff ff 	lea    -0x9e4(%rbp),%rax
    d4db:	48 89 85 28 fc ff ff 	mov    %rax,-0x3d8(%rbp)
    d4e2:	48 8d 05 47 7c 00 00 	lea    0x7c47(%rip),%rax        # 15130 <g_102>
    d4e9:	48 89 85 30 fc ff ff 	mov    %rax,-0x3d0(%rbp)
    d4f0:	48 c7 85 38 fc ff ff 	movq   $0x0,-0x3c8(%rbp)
    d4f7:	00 00 00 00 
    d4fb:	48 8d 05 36 7c 00 00 	lea    0x7c36(%rip),%rax        # 15138 <g_102+0x8>
    d502:	48 89 85 40 fc ff ff 	mov    %rax,-0x3c0(%rbp)
    d509:	48 8d 05 24 7c 00 00 	lea    0x7c24(%rip),%rax        # 15134 <g_102+0x4>
    d510:	48 89 85 48 fc ff ff 	mov    %rax,-0x3b8(%rbp)
    d517:	48 c7 85 50 fc ff ff 	movq   $0x0,-0x3b0(%rbp)
    d51e:	00 00 00 00 
    d522:	48 8d 85 1c f6 ff ff 	lea    -0x9e4(%rbp),%rax
    d529:	48 89 85 58 fc ff ff 	mov    %rax,-0x3a8(%rbp)
    d530:	48 c7 85 60 fc ff ff 	movq   $0x0,-0x3a0(%rbp)
    d537:	00 00 00 00 
    d53b:	48 8d 05 f2 7b 00 00 	lea    0x7bf2(%rip),%rax        # 15134 <g_102+0x4>
    d542:	48 89 85 68 fc ff ff 	mov    %rax,-0x398(%rbp)
    d549:	48 8d 05 e0 7b 00 00 	lea    0x7be0(%rip),%rax        # 15130 <g_102>
    d550:	48 89 85 70 fc ff ff 	mov    %rax,-0x390(%rbp)
    d557:	48 8d 05 da 7b 00 00 	lea    0x7bda(%rip),%rax        # 15138 <g_102+0x8>
    d55e:	48 89 85 78 fc ff ff 	mov    %rax,-0x388(%rbp)
    d565:	48 8d 85 1c f6 ff ff 	lea    -0x9e4(%rbp),%rax
    d56c:	48 89 85 80 fc ff ff 	mov    %rax,-0x380(%rbp)
    d573:	48 8d 05 be 7b 00 00 	lea    0x7bbe(%rip),%rax        # 15138 <g_102+0x8>
    d57a:	48 89 85 88 fc ff ff 	mov    %rax,-0x378(%rbp)
    d581:	48 8d 05 b0 7b 00 00 	lea    0x7bb0(%rip),%rax        # 15138 <g_102+0x8>
    d588:	48 89 85 90 fc ff ff 	mov    %rax,-0x370(%rbp)
    d58f:	48 8d 05 9e 7b 00 00 	lea    0x7b9e(%rip),%rax        # 15134 <g_102+0x4>
    d596:	48 89 85 98 fc ff ff 	mov    %rax,-0x368(%rbp)
    d59d:	48 8d 85 1c f6 ff ff 	lea    -0x9e4(%rbp),%rax
    d5a4:	48 89 85 a0 fc ff ff 	mov    %rax,-0x360(%rbp)
    d5ab:	48 8d 85 1c f6 ff ff 	lea    -0x9e4(%rbp),%rax
    d5b2:	48 89 85 a8 fc ff ff 	mov    %rax,-0x358(%rbp)
    d5b9:	48 8d 05 74 7b 00 00 	lea    0x7b74(%rip),%rax        # 15134 <g_102+0x4>
    d5c0:	48 89 85 b0 fc ff ff 	mov    %rax,-0x350(%rbp)
    d5c7:	48 8d 05 6a 7b 00 00 	lea    0x7b6a(%rip),%rax        # 15138 <g_102+0x8>
    d5ce:	48 89 85 b8 fc ff ff 	mov    %rax,-0x348(%rbp)
    d5d5:	48 c7 85 c0 fc ff ff 	movq   $0x0,-0x340(%rbp)
    d5dc:	00 00 00 00 
    d5e0:	48 8d 05 4d 7b 00 00 	lea    0x7b4d(%rip),%rax        # 15134 <g_102+0x4>
    d5e7:	48 89 85 c8 fc ff ff 	mov    %rax,-0x338(%rbp)
    d5ee:	48 8d 85 1c f6 ff ff 	lea    -0x9e4(%rbp),%rax
    d5f5:	48 89 85 d0 fc ff ff 	mov    %rax,-0x330(%rbp)
    d5fc:	48 8d 05 35 7b 00 00 	lea    0x7b35(%rip),%rax        # 15138 <g_102+0x8>
    d603:	48 89 85 d8 fc ff ff 	mov    %rax,-0x328(%rbp)
    d60a:	48 8d 05 27 7b 00 00 	lea    0x7b27(%rip),%rax        # 15138 <g_102+0x8>
    d611:	48 89 85 e0 fc ff ff 	mov    %rax,-0x320(%rbp)
    d618:	48 8d 05 11 7b 00 00 	lea    0x7b11(%rip),%rax        # 15130 <g_102>
    d61f:	48 89 85 e8 fc ff ff 	mov    %rax,-0x318(%rbp)
    d626:	48 8d 05 07 7b 00 00 	lea    0x7b07(%rip),%rax        # 15134 <g_102+0x4>
    d62d:	48 89 85 f0 fc ff ff 	mov    %rax,-0x310(%rbp)
    d634:	48 8d 05 f5 7a 00 00 	lea    0x7af5(%rip),%rax        # 15130 <g_102>
    d63b:	48 89 85 f8 fc ff ff 	mov    %rax,-0x308(%rbp)
    d642:	48 8d 05 ef 7a 00 00 	lea    0x7aef(%rip),%rax        # 15138 <g_102+0x8>
    d649:	48 89 85 00 fd ff ff 	mov    %rax,-0x300(%rbp)
    d650:	48 8d 05 dd 7a 00 00 	lea    0x7add(%rip),%rax        # 15134 <g_102+0x4>
    d657:	48 89 85 08 fd ff ff 	mov    %rax,-0x2f8(%rbp)
    d65e:	48 8d 05 d3 7a 00 00 	lea    0x7ad3(%rip),%rax        # 15138 <g_102+0x8>
    d665:	48 89 85 10 fd ff ff 	mov    %rax,-0x2f0(%rbp)
    d66c:	48 8d 85 1c f6 ff ff 	lea    -0x9e4(%rbp),%rax
    d673:	48 89 85 18 fd ff ff 	mov    %rax,-0x2e8(%rbp)
    d67a:	48 8d 05 b7 7a 00 00 	lea    0x7ab7(%rip),%rax        # 15138 <g_102+0x8>
    d681:	48 89 85 20 fd ff ff 	mov    %rax,-0x2e0(%rbp)
    d688:	48 8d 05 a9 7a 00 00 	lea    0x7aa9(%rip),%rax        # 15138 <g_102+0x8>
    d68f:	48 89 85 28 fd ff ff 	mov    %rax,-0x2d8(%rbp)
    d696:	48 8d 05 9b 7a 00 00 	lea    0x7a9b(%rip),%rax        # 15138 <g_102+0x8>
    d69d:	48 89 85 30 fd ff ff 	mov    %rax,-0x2d0(%rbp)
    d6a4:	48 8d 05 8d 7a 00 00 	lea    0x7a8d(%rip),%rax        # 15138 <g_102+0x8>
    d6ab:	48 89 85 38 fd ff ff 	mov    %rax,-0x2c8(%rbp)
    d6b2:	48 8d 05 7f 7a 00 00 	lea    0x7a7f(%rip),%rax        # 15138 <g_102+0x8>
    d6b9:	48 89 85 40 fd ff ff 	mov    %rax,-0x2c0(%rbp)
    d6c0:	48 8d 85 1c f6 ff ff 	lea    -0x9e4(%rbp),%rax
    d6c7:	48 89 85 48 fd ff ff 	mov    %rax,-0x2b8(%rbp)
    d6ce:	48 8d 05 5f 7a 00 00 	lea    0x7a5f(%rip),%rax        # 15134 <g_102+0x4>
    d6d5:	48 89 85 50 fd ff ff 	mov    %rax,-0x2b0(%rbp)
    d6dc:	48 c7 85 58 fd ff ff 	movq   $0x0,-0x2a8(%rbp)
    d6e3:	00 00 00 00 
    d6e7:	48 8d 05 42 7a 00 00 	lea    0x7a42(%rip),%rax        # 15130 <g_102>
    d6ee:	48 89 85 60 fd ff ff 	mov    %rax,-0x2a0(%rbp)
    d6f5:	48 c7 85 68 fd ff ff 	movq   $0x0,-0x298(%rbp)
    d6fc:	00 00 00 00 
    d700:	48 8d 05 31 7a 00 00 	lea    0x7a31(%rip),%rax        # 15138 <g_102+0x8>
    d707:	48 89 85 70 fd ff ff 	mov    %rax,-0x290(%rbp)
    d70e:	48 8d 05 23 7a 00 00 	lea    0x7a23(%rip),%rax        # 15138 <g_102+0x8>
    d715:	48 89 85 78 fd ff ff 	mov    %rax,-0x288(%rbp)
    d71c:	48 c7 85 80 fd ff ff 	movq   $0x0,-0x280(%rbp)
    d723:	00 00 00 00 
    d727:	48 c7 85 88 fd ff ff 	movq   $0x0,-0x278(%rbp)
    d72e:	00 00 00 00 
    d732:	48 8d 85 1c f6 ff ff 	lea    -0x9e4(%rbp),%rax
    d739:	48 89 85 90 fd ff ff 	mov    %rax,-0x270(%rbp)
    d740:	48 8d 05 e9 79 00 00 	lea    0x79e9(%rip),%rax        # 15130 <g_102>
    d747:	48 89 85 98 fd ff ff 	mov    %rax,-0x268(%rbp)
    d74e:	48 c7 85 a0 fd ff ff 	movq   $0x0,-0x260(%rbp)
    d755:	00 00 00 00 
    d759:	48 8d 05 d8 79 00 00 	lea    0x79d8(%rip),%rax        # 15138 <g_102+0x8>
    d760:	48 89 85 a8 fd ff ff 	mov    %rax,-0x258(%rbp)
    d767:	48 8d 05 c6 79 00 00 	lea    0x79c6(%rip),%rax        # 15134 <g_102+0x4>
    d76e:	48 89 85 b0 fd ff ff 	mov    %rax,-0x250(%rbp)
    d775:	48 c7 85 b8 fd ff ff 	movq   $0x0,-0x248(%rbp)
    d77c:	00 00 00 00 
    d780:	48 8d 85 1c f6 ff ff 	lea    -0x9e4(%rbp),%rax
    d787:	48 89 85 c0 fd ff ff 	mov    %rax,-0x240(%rbp)
    d78e:	48 c7 85 c8 fd ff ff 	movq   $0x0,-0x238(%rbp)
    d795:	00 00 00 00 
    d799:	48 8d 05 94 79 00 00 	lea    0x7994(%rip),%rax        # 15134 <g_102+0x4>
    d7a0:	48 89 85 d0 fd ff ff 	mov    %rax,-0x230(%rbp)
    d7a7:	48 8d 05 82 79 00 00 	lea    0x7982(%rip),%rax        # 15130 <g_102>
    d7ae:	48 89 85 d8 fd ff ff 	mov    %rax,-0x228(%rbp)
    d7b5:	48 8d 05 7c 79 00 00 	lea    0x797c(%rip),%rax        # 15138 <g_102+0x8>
    d7bc:	48 89 85 e0 fd ff ff 	mov    %rax,-0x220(%rbp)
    d7c3:	48 8d 85 1c f6 ff ff 	lea    -0x9e4(%rbp),%rax
    d7ca:	48 89 85 e8 fd ff ff 	mov    %rax,-0x218(%rbp)
    d7d1:	48 8d 05 60 79 00 00 	lea    0x7960(%rip),%rax        # 15138 <g_102+0x8>
    d7d8:	48 89 85 f0 fd ff ff 	mov    %rax,-0x210(%rbp)
    d7df:	48 8d 05 52 79 00 00 	lea    0x7952(%rip),%rax        # 15138 <g_102+0x8>
    d7e6:	48 89 85 f8 fd ff ff 	mov    %rax,-0x208(%rbp)
    d7ed:	48 8d 05 40 79 00 00 	lea    0x7940(%rip),%rax        # 15134 <g_102+0x4>
    d7f4:	48 89 85 00 fe ff ff 	mov    %rax,-0x200(%rbp)
    d7fb:	48 8d 85 1c f6 ff ff 	lea    -0x9e4(%rbp),%rax
    d802:	48 89 85 08 fe ff ff 	mov    %rax,-0x1f8(%rbp)
    d809:	48 8d 85 1c f6 ff ff 	lea    -0x9e4(%rbp),%rax
    d810:	48 89 85 10 fe ff ff 	mov    %rax,-0x1f0(%rbp)
    d817:	48 8d 05 16 79 00 00 	lea    0x7916(%rip),%rax        # 15134 <g_102+0x4>
    d81e:	48 89 85 18 fe ff ff 	mov    %rax,-0x1e8(%rbp)
    d825:	48 8d 05 0c 79 00 00 	lea    0x790c(%rip),%rax        # 15138 <g_102+0x8>
    d82c:	48 89 85 20 fe ff ff 	mov    %rax,-0x1e0(%rbp)
    d833:	48 c7 85 28 fe ff ff 	movq   $0x0,-0x1d8(%rbp)
    d83a:	00 00 00 00 
    d83e:	48 8d 05 ef 78 00 00 	lea    0x78ef(%rip),%rax        # 15134 <g_102+0x4>
    d845:	48 89 85 30 fe ff ff 	mov    %rax,-0x1d0(%rbp)
    d84c:	48 8d 85 1c f6 ff ff 	lea    -0x9e4(%rbp),%rax
    d853:	48 89 85 38 fe ff ff 	mov    %rax,-0x1c8(%rbp)
    d85a:	48 8d 05 d7 78 00 00 	lea    0x78d7(%rip),%rax        # 15138 <g_102+0x8>
    d861:	48 89 85 40 fe ff ff 	mov    %rax,-0x1c0(%rbp)
    d868:	48 8d 05 c9 78 00 00 	lea    0x78c9(%rip),%rax        # 15138 <g_102+0x8>
    d86f:	48 89 85 48 fe ff ff 	mov    %rax,-0x1b8(%rbp)
    d876:	48 8d 05 b3 78 00 00 	lea    0x78b3(%rip),%rax        # 15130 <g_102>
    d87d:	48 89 85 50 fe ff ff 	mov    %rax,-0x1b0(%rbp)
    d884:	48 8d 05 a9 78 00 00 	lea    0x78a9(%rip),%rax        # 15134 <g_102+0x4>
    d88b:	48 89 85 58 fe ff ff 	mov    %rax,-0x1a8(%rbp)
    d892:	48 8d 05 97 78 00 00 	lea    0x7897(%rip),%rax        # 15130 <g_102>
    d899:	48 89 85 60 fe ff ff 	mov    %rax,-0x1a0(%rbp)
    d8a0:	48 8d 05 91 78 00 00 	lea    0x7891(%rip),%rax        # 15138 <g_102+0x8>
    d8a7:	48 89 85 68 fe ff ff 	mov    %rax,-0x198(%rbp)
    d8ae:	48 8d 05 7f 78 00 00 	lea    0x787f(%rip),%rax        # 15134 <g_102+0x4>
    d8b5:	48 89 85 70 fe ff ff 	mov    %rax,-0x190(%rbp)
    d8bc:	48 8d 05 75 78 00 00 	lea    0x7875(%rip),%rax        # 15138 <g_102+0x8>
    d8c3:	48 89 85 78 fe ff ff 	mov    %rax,-0x188(%rbp)
    d8ca:	48 8d 85 1c f6 ff ff 	lea    -0x9e4(%rbp),%rax
    d8d1:	48 89 85 80 fe ff ff 	mov    %rax,-0x180(%rbp)
    d8d8:	48 8d 05 59 78 00 00 	lea    0x7859(%rip),%rax        # 15138 <g_102+0x8>
    d8df:	48 89 85 88 fe ff ff 	mov    %rax,-0x178(%rbp)
    d8e6:	48 8d 05 4b 78 00 00 	lea    0x784b(%rip),%rax        # 15138 <g_102+0x8>
    d8ed:	48 89 85 90 fe ff ff 	mov    %rax,-0x170(%rbp)
    d8f4:	48 8d 05 3d 78 00 00 	lea    0x783d(%rip),%rax        # 15138 <g_102+0x8>
    d8fb:	48 89 85 98 fe ff ff 	mov    %rax,-0x168(%rbp)
    d902:	48 8d 05 2f 78 00 00 	lea    0x782f(%rip),%rax        # 15138 <g_102+0x8>
    d909:	48 89 85 a0 fe ff ff 	mov    %rax,-0x160(%rbp)
    d910:	48 8d 05 21 78 00 00 	lea    0x7821(%rip),%rax        # 15138 <g_102+0x8>
    d917:	48 89 85 a8 fe ff ff 	mov    %rax,-0x158(%rbp)
    d91e:	48 8d 85 1c f6 ff ff 	lea    -0x9e4(%rbp),%rax
    d925:	48 89 85 b0 fe ff ff 	mov    %rax,-0x150(%rbp)
    d92c:	48 8d 05 01 78 00 00 	lea    0x7801(%rip),%rax        # 15134 <g_102+0x4>
    d933:	48 89 85 b8 fe ff ff 	mov    %rax,-0x148(%rbp)
    d93a:	48 c7 85 c0 fe ff ff 	movq   $0x0,-0x140(%rbp)
    d941:	00 00 00 00 
    d945:	48 8d 05 e4 77 00 00 	lea    0x77e4(%rip),%rax        # 15130 <g_102>
    d94c:	48 89 85 c8 fe ff ff 	mov    %rax,-0x138(%rbp)
    d953:	48 c7 85 d0 fe ff ff 	movq   $0x0,-0x130(%rbp)
    d95a:	00 00 00 00 
    d95e:	48 8d 05 d3 77 00 00 	lea    0x77d3(%rip),%rax        # 15138 <g_102+0x8>
    d965:	48 89 85 d8 fe ff ff 	mov    %rax,-0x128(%rbp)
    d96c:	48 8d 05 c5 77 00 00 	lea    0x77c5(%rip),%rax        # 15138 <g_102+0x8>
    d973:	48 89 85 e0 fe ff ff 	mov    %rax,-0x120(%rbp)
    d97a:	48 c7 85 e8 fe ff ff 	movq   $0x0,-0x118(%rbp)
    d981:	00 00 00 00 
    d985:	48 c7 85 f0 fe ff ff 	movq   $0x0,-0x110(%rbp)
    d98c:	00 00 00 00 
    d990:	48 8d 85 1c f6 ff ff 	lea    -0x9e4(%rbp),%rax
    d997:	48 89 85 f8 fe ff ff 	mov    %rax,-0x108(%rbp)
    d99e:	48 8d 05 8b 77 00 00 	lea    0x778b(%rip),%rax        # 15130 <g_102>
    d9a5:	48 89 85 00 ff ff ff 	mov    %rax,-0x100(%rbp)
    d9ac:	48 c7 85 08 ff ff ff 	movq   $0x0,-0xf8(%rbp)
    d9b3:	00 00 00 00 
    d9b7:	48 8d 05 7a 77 00 00 	lea    0x777a(%rip),%rax        # 15138 <g_102+0x8>
    d9be:	48 89 85 10 ff ff ff 	mov    %rax,-0xf0(%rbp)
    d9c5:	48 8d 05 68 77 00 00 	lea    0x7768(%rip),%rax        # 15134 <g_102+0x4>
    d9cc:	48 89 85 18 ff ff ff 	mov    %rax,-0xe8(%rbp)
    d9d3:	48 c7 85 20 ff ff ff 	movq   $0x0,-0xe0(%rbp)
    d9da:	00 00 00 00 
    d9de:	48 8d 85 1c f6 ff ff 	lea    -0x9e4(%rbp),%rax
    d9e5:	48 89 85 28 ff ff ff 	mov    %rax,-0xd8(%rbp)
    d9ec:	48 c7 85 30 ff ff ff 	movq   $0x0,-0xd0(%rbp)
    d9f3:	00 00 00 00 
    d9f7:	48 8d 05 36 77 00 00 	lea    0x7736(%rip),%rax        # 15134 <g_102+0x4>
    d9fe:	48 89 85 38 ff ff ff 	mov    %rax,-0xc8(%rbp)
    da05:	48 8d 05 24 77 00 00 	lea    0x7724(%rip),%rax        # 15130 <g_102>
    da0c:	48 89 85 40 ff ff ff 	mov    %rax,-0xc0(%rbp)
    da13:	48 8d 05 1e 77 00 00 	lea    0x771e(%rip),%rax        # 15138 <g_102+0x8>
    da1a:	48 89 85 48 ff ff ff 	mov    %rax,-0xb8(%rbp)
    da21:	48 8d 85 1c f6 ff ff 	lea    -0x9e4(%rbp),%rax
    da28:	48 89 85 50 ff ff ff 	mov    %rax,-0xb0(%rbp)
    da2f:	48 8d 05 02 77 00 00 	lea    0x7702(%rip),%rax        # 15138 <g_102+0x8>
    da36:	48 89 85 58 ff ff ff 	mov    %rax,-0xa8(%rbp)
    da3d:	48 8d 05 f4 76 00 00 	lea    0x76f4(%rip),%rax        # 15138 <g_102+0x8>
    da44:	48 89 85 60 ff ff ff 	mov    %rax,-0xa0(%rbp)
    da4b:	48 8d 05 e2 76 00 00 	lea    0x76e2(%rip),%rax        # 15134 <g_102+0x4>
    da52:	48 89 85 68 ff ff ff 	mov    %rax,-0x98(%rbp)
    da59:	48 8d 85 1c f6 ff ff 	lea    -0x9e4(%rbp),%rax
    da60:	48 89 85 70 ff ff ff 	mov    %rax,-0x90(%rbp)
    da67:	48 8d 85 1c f6 ff ff 	lea    -0x9e4(%rbp),%rax
    da6e:	48 89 85 78 ff ff ff 	mov    %rax,-0x88(%rbp)
    da75:	48 8d 05 b8 76 00 00 	lea    0x76b8(%rip),%rax        # 15134 <g_102+0x4>
    da7c:	48 89 45 80          	mov    %rax,-0x80(%rbp)
    da80:	48 8d 05 b1 76 00 00 	lea    0x76b1(%rip),%rax        # 15138 <g_102+0x8>
    da87:	48 89 45 88          	mov    %rax,-0x78(%rbp)
    da8b:	48 c7 45 90 00 00 00 	movq   $0x0,-0x70(%rbp)
    da92:	00 
    da93:	48 8d 05 9a 76 00 00 	lea    0x769a(%rip),%rax        # 15134 <g_102+0x4>
    da9a:	48 89 45 98          	mov    %rax,-0x68(%rbp)
    da9e:	48 8d 85 1c f6 ff ff 	lea    -0x9e4(%rbp),%rax
    daa5:	48 89 45 a0          	mov    %rax,-0x60(%rbp)
    daa9:	48 8d 05 88 76 00 00 	lea    0x7688(%rip),%rax        # 15138 <g_102+0x8>
    dab0:	48 89 45 a8          	mov    %rax,-0x58(%rbp)
    dab4:	48 8d 05 7d 76 00 00 	lea    0x767d(%rip),%rax        # 15138 <g_102+0x8>
    dabb:	48 89 45 b0          	mov    %rax,-0x50(%rbp)
    dabf:	48 8d 05 6a 76 00 00 	lea    0x766a(%rip),%rax        # 15130 <g_102>
    dac6:	48 89 45 b8          	mov    %rax,-0x48(%rbp)
    daca:	48 8d 05 63 76 00 00 	lea    0x7663(%rip),%rax        # 15134 <g_102+0x4>
    dad1:	48 89 45 c0          	mov    %rax,-0x40(%rbp)
    dad5:	48 8d 05 54 76 00 00 	lea    0x7654(%rip),%rax        # 15130 <g_102>
    dadc:	48 89 45 c8          	mov    %rax,-0x38(%rbp)
    dae0:	48 8d 05 51 76 00 00 	lea    0x7651(%rip),%rax        # 15138 <g_102+0x8>
    dae7:	48 89 45 d0          	mov    %rax,-0x30(%rbp)
    daeb:	48 8d 05 42 76 00 00 	lea    0x7642(%rip),%rax        # 15134 <g_102+0x4>
    daf2:	48 89 45 d8          	mov    %rax,-0x28(%rbp)
    daf6:	48 8d 85 10 f8 ff ff 	lea    -0x7f0(%rbp),%rax
    dafd:	48 05 20 06 00 00    	add    $0x620,%rax
    db03:	48 89 85 38 f6 ff ff 	mov    %rax,-0x9c8(%rbp)
    db0a:	48 8d 85 38 f6 ff ff 	lea    -0x9c8(%rbp),%rax
    db11:	48 89 85 40 f6 ff ff 	mov    %rax,-0x9c0(%rbp)
    db18:	48 8d 85 40 f6 ff ff 	lea    -0x9c0(%rbp),%rax
    db1f:	48 89 85 48 f6 ff ff 	mov    %rax,-0x9b8(%rbp)
    db26:	48 8d 85 48 f6 ff ff 	lea    -0x9b8(%rbp),%rax
    db2d:	48 89 85 68 f6 ff ff 	mov    %rax,-0x998(%rbp)
    db34:	c7 85 34 f6 ff ff 05 	movl   $0x5,-0x9cc(%rbp)
    db3b:	00 00 00 
    db3e:	80 ad 19 f6 ff ff 01 	subb   $0x1,-0x9e7(%rbp)
    db45:	48 8b 05 24 8c 00 00 	mov    0x8c24(%rip),%rax        # 16770 <g_486>
    db4c:	48 8b 00             	mov    (%rax),%rax
    db4f:	48 8b 00             	mov    (%rax),%rax
    db52:	8b 08                	mov    (%rax),%ecx
    db54:	0f b7 95 1a f6 ff ff 	movzwl -0x9e6(%rbp),%edx
    db5b:	48 8b 05 0e 8c 00 00 	mov    0x8c0e(%rip),%rax        # 16770 <g_486>
    db62:	48 8b 00             	mov    (%rax),%rax
    db65:	48 8b 00             	mov    (%rax),%rax
    db68:	09 ca                	or     %ecx,%edx
    db6a:	89 10                	mov    %edx,(%rax)
    db6c:	44 8b 20             	mov    (%rax),%r12d
    db6f:	8b 05 cb 75 00 00    	mov    0x75cb(%rip),%eax        # 15140 <g_128>
    db75:	85 c0                	test   %eax,%eax
    db77:	0f 84 f1 00 00 00    	je     dc6e <func_78+0xf79>
    db7d:	8b 85 30 f6 ff ff    	mov    -0x9d0(%rbp),%eax
    db83:	0f b6 d8             	movzbl %al,%ebx
    db86:	48 8b 85 78 f7 ff ff 	mov    -0x888(%rbp),%rax
    db8d:	48 8d 15 bc 89 00 00 	lea    0x89bc(%rip),%rdx        # 16550 <g_105+0x2d0>
    db94:	48 39 d0             	cmp    %rdx,%rax
    db97:	0f 95 c0             	setne  %al
    db9a:	0f b6 c0             	movzbl %al,%eax
    db9d:	be ff ff ff ff       	mov    $0xffffffff,%esi
    dba2:	89 c7                	mov    %eax,%edi
    dba4:	e8 0a 88 ff ff       	callq  63b3 <safe_add_func_int16_t_s_s>
    dba9:	0f bf d0             	movswl %ax,%edx
    dbac:	48 8b 85 60 f6 ff ff 	mov    -0x9a0(%rbp),%rax
    dbb3:	89 10                	mov    %edx,(%rax)
    dbb5:	8b 05 85 75 00 00    	mov    0x7585(%rip),%eax        # 15140 <g_128>
    dbbb:	0f b7 d0             	movzwl %ax,%edx
    dbbe:	48 8d 05 4b 8b 00 00 	lea    0x8b4b(%rip),%rax        # 16710 <g_229>
    dbc5:	48 39 85 50 f6 ff ff 	cmp    %rax,-0x9b0(%rbp)
    dbcc:	0f 94 c0             	sete   %al
    dbcf:	0f b6 c0             	movzbl %al,%eax
    dbd2:	89 d6                	mov    %edx,%esi
    dbd4:	89 c7                	mov    %eax,%edi
    dbd6:	e8 24 91 ff ff       	callq  6cff <safe_add_func_uint16_t_u_u>
    dbdb:	8b 85 0c f6 ff ff    	mov    -0x9f4(%rbp),%eax
    dbe1:	0f be c0             	movsbl %al,%eax
    dbe4:	be 18 00 00 00       	mov    $0x18,%esi
    dbe9:	89 c7                	mov    %eax,%edi
    dbeb:	e8 22 86 ff ff       	callq  6212 <safe_mul_func_int8_t_s_s>
    dbf0:	48 0f be d0          	movsbq %al,%rdx
    dbf4:	48 8b 05 e5 75 00 00 	mov    0x75e5(%rip),%rax        # 151e0 <g_615>
    dbfb:	48 39 c2             	cmp    %rax,%rdx
    dbfe:	75 09                	jne    dc09 <func_78+0xf14>
    dc00:	83 bd 2c f6 ff ff 00 	cmpl   $0x0,-0x9d4(%rbp)
    dc07:	74 07                	je     dc10 <func_78+0xf1b>
    dc09:	b8 01 00 00 00       	mov    $0x1,%eax
    dc0e:	eb 05                	jmp    dc15 <func_78+0xf20>
    dc10:	b8 00 00 00 00       	mov    $0x0,%eax
    dc15:	3b 85 0c f6 ff ff    	cmp    -0x9f4(%rbp),%eax
    dc1b:	0f 9e c0             	setle  %al
    dc1e:	0f b6 d0             	movzbl %al,%edx
    dc21:	48 8b 05 20 8b 00 00 	mov    0x8b20(%rip),%rax        # 16748 <g_360>
    dc28:	48 8b 00             	mov    (%rax),%rax
    dc2b:	8b 00                	mov    (%rax),%eax
    dc2d:	89 d6                	mov    %edx,%esi
    dc2f:	89 c7                	mov    %eax,%edi
    dc31:	e8 0c 8a ff ff       	callq  6642 <safe_mul_func_int32_t_s_s>
    dc36:	39 85 0c f6 ff ff    	cmp    %eax,-0x9f4(%rbp)
    dc3c:	0f 9e c0             	setle  %al
    dc3f:	0f b6 c0             	movzbl %al,%eax
    dc42:	39 85 0c f6 ff ff    	cmp    %eax,-0x9f4(%rbp)
    dc48:	0f 9c c0             	setl   %al
    dc4b:	0f b6 c0             	movzbl %al,%eax
    dc4e:	89 de                	mov    %ebx,%esi
    dc50:	89 c7                	mov    %eax,%edi
    dc52:	e8 84 8f ff ff       	callq  6bdb <safe_div_func_uint8_t_u_u>
    dc57:	48 8d 05 1a 8b 00 00 	lea    0x8b1a(%rip),%rax        # 16778 <g_485>
    dc5e:	48 39 85 68 f6 ff ff 	cmp    %rax,-0x998(%rbp)
    dc65:	74 07                	je     dc6e <func_78+0xf79>
    dc67:	b8 01 00 00 00       	mov    $0x1,%eax
    dc6c:	eb 05                	jmp    dc73 <func_78+0xf7e>
    dc6e:	b8 00 00 00 00       	mov    $0x0,%eax
    dc73:	44 31 e0             	xor    %r12d,%eax
    dc76:	30 85 18 f6 ff ff    	xor    %al,-0x9e8(%rbp)
    dc7c:	83 ad 34 f6 ff ff 01 	subl   $0x1,-0x9cc(%rbp)
    dc83:	8b 05 d7 74 00 00    	mov    0x74d7(%rip),%eax        # 15160 <g_157>
    dc89:	83 c0 01             	add    $0x1,%eax
    dc8c:	89 05 ce 74 00 00    	mov    %eax,0x74ce(%rip)        # 15160 <g_157>
    dc92:	8b 05 c8 74 00 00    	mov    0x74c8(%rip),%eax        # 15160 <g_157>
    dc98:	83 f8 22             	cmp    $0x22,%eax
    dc9b:	0f 87 26 f1 ff ff    	ja     cdc7 <func_78+0xd2>
    dca1:	48 8b 05 f8 8c 00 00 	mov    0x8cf8(%rip),%rax        # 169a0 <g_627>
    dca8:	48 8d 15 39 8b 00 00 	lea    0x8b39(%rip),%rdx        # 167e8 <g_538+0x48>
    dcaf:	48 89 10             	mov    %rdx,(%rax)
    dcb2:	48 8b 05 47 8a 00 00 	mov    0x8a47(%rip),%rax        # 16700 <g_104>
    dcb9:	48 8b 00             	mov    (%rax),%rax
    dcbc:	48 8b 5d e8          	mov    -0x18(%rbp),%rbx
    dcc0:	64 48 33 1c 25 28 00 	xor    %fs:0x28,%rbx
    dcc7:	00 00 
    dcc9:	74 05                	je     dcd0 <func_78+0xfdb>
    dccb:	e8 a0 83 ff ff       	callq  6070 <__stack_chk_fail@plt>
    dcd0:	48 81 c4 00 0a 00 00 	add    $0xa00,%rsp
    dcd7:	5b                   	pop    %rbx
    dcd8:	41 5c                	pop    %r12
    dcda:	5d                   	pop    %rbp
    dcdb:	c3                   	retq   

000000000000dcdc <func_83>:
    dcdc:	f3 0f 1e fa          	endbr64 
    dce0:	55                   	push   %rbp
    dce1:	48 89 e5             	mov    %rsp,%rbp
    dce4:	48 89 7d e8          	mov    %rdi,-0x18(%rbp)
    dce8:	89 75 e4             	mov    %esi,-0x1c(%rbp)
    dceb:	48 8d 05 a6 74 00 00 	lea    0x74a6(%rip),%rax        # 15198 <g_258+0x18>
    dcf2:	48 89 45 f8          	mov    %rax,-0x8(%rbp)
    dcf6:	48 8b 05 0b 8a 00 00 	mov    0x8a0b(%rip),%rax        # 16708 <g_119>
    dcfd:	48 8b 55 f8          	mov    -0x8(%rbp),%rdx
    dd01:	48 89 10             	mov    %rdx,(%rax)
    dd04:	48 8b 05 fd 89 00 00 	mov    0x89fd(%rip),%rax        # 16708 <g_119>
    dd0b:	48 8b 00             	mov    (%rax),%rax
    dd0e:	5d                   	pop    %rbp
    dd0f:	c3                   	retq   

000000000000dd10 <func_88>:
    dd10:	f3 0f 1e fa          	endbr64 
    dd14:	55                   	push   %rbp
    dd15:	48 89 e5             	mov    %rsp,%rbp
    dd18:	41 57                	push   %r15
    dd1a:	41 56                	push   %r14
    dd1c:	41 55                	push   %r13
    dd1e:	41 54                	push   %r12
    dd20:	53                   	push   %rbx
    dd21:	48 81 ec f8 0a 00 00 	sub    $0xaf8,%rsp
    dd28:	89 f8                	mov    %edi,%eax
    dd2a:	48 89 b5 f0 f4 ff ff 	mov    %rsi,-0xb10(%rbp)
    dd31:	89 95 f8 f4 ff ff    	mov    %edx,-0xb08(%rbp)
    dd37:	88 85 fc f4 ff ff    	mov    %al,-0xb04(%rbp)
    dd3d:	64 48 8b 04 25 28 00 	mov    %fs:0x28,%rax
    dd44:	00 00 
    dd46:	48 89 45 c8          	mov    %rax,-0x38(%rbp)
    dd4a:	31 c0                	xor    %eax,%eax
    dd4c:	66 c7 85 08 f5 ff ff 	movw   $0x0,-0xaf8(%rbp)
    dd53:	00 00 
    dd55:	c7 85 0c f5 ff ff f1 	movl   $0x9203cf1,-0xaf4(%rbp)
    dd5c:	3c 20 09 
    dd5f:	48 8d 05 1a 86 00 00 	lea    0x861a(%rip),%rax        # 16380 <g_105+0x100>
    dd66:	48 89 85 c0 f5 ff ff 	mov    %rax,-0xa40(%rbp)
    dd6d:	48 c7 85 c8 f5 ff ff 	movq   $0x1,-0xa38(%rbp)
    dd74:	01 00 00 00 
    dd78:	48 c7 85 d0 f5 ff ff 	movq   $0x3,-0xa30(%rbp)
    dd7f:	03 00 00 00 
    dd83:	c6 85 07 f5 ff ff 76 	movb   $0x76,-0xaf9(%rbp)
    dd8a:	c7 85 10 f7 ff ff 01 	movl   $0x1,-0x8f0(%rbp)
    dd91:	00 00 00 
    dd94:	c7 85 14 f7 ff ff 01 	movl   $0x1,-0x8ec(%rbp)
    dd9b:	00 00 00 
    dd9e:	c7 85 18 f7 ff ff 01 	movl   $0x1,-0x8e8(%rbp)
    dda5:	00 00 00 
    dda8:	c7 85 1c f7 ff ff 01 	movl   $0x1,-0x8e4(%rbp)
    ddaf:	00 00 00 
    ddb2:	c7 85 20 f7 ff ff 01 	movl   $0x1,-0x8e0(%rbp)
    ddb9:	00 00 00 
    ddbc:	48 8d 05 35 9b 00 00 	lea    0x9b35(%rip),%rax        # 178f8 <g_268>
    ddc3:	48 89 85 d8 f5 ff ff 	mov    %rax,-0xa28(%rbp)
    ddca:	48 8d 05 5f 73 00 00 	lea    0x735f(%rip),%rax        # 15130 <g_102>
    ddd1:	48 89 85 60 f5 ff ff 	mov    %rax,-0xaa0(%rbp)
    ddd8:	48 8d 85 60 f5 ff ff 	lea    -0xaa0(%rbp),%rax
    dddf:	48 89 85 e0 f5 ff ff 	mov    %rax,-0xa20(%rbp)
    dde6:	48 8d 85 10 f7 ff ff 	lea    -0x8f0(%rbp),%rax
    dded:	48 89 85 e8 f5 ff ff 	mov    %rax,-0xa18(%rbp)
    ddf4:	48 c7 85 68 f5 ff ff 	movq   $0x0,-0xa98(%rbp)
    ddfb:	00 00 00 00 
    ddff:	48 8d 85 68 f5 ff ff 	lea    -0xa98(%rbp),%rax
    de06:	48 89 85 f0 f5 ff ff 	mov    %rax,-0xa10(%rbp)
    de0d:	66 c7 85 fc f6 ff ff 	movw   $0xfff9,-0x904(%rbp)
    de14:	f9 ff 
    de16:	66 c7 85 fe f6 ff ff 	movw   $0xfff9,-0x902(%rbp)
    de1d:	f9 ff 
    de1f:	66 c7 85 00 f7 ff ff 	movw   $0xfff9,-0x900(%rbp)
    de26:	f9 ff 
    de28:	66 c7 85 02 f7 ff ff 	movw   $0xfff9,-0x8fe(%rbp)
    de2f:	f9 ff 
    de31:	c6 85 06 f5 ff ff ff 	movb   $0xff,-0xafa(%rbp)
    de38:	c7 85 10 f5 ff ff 00 	movl   $0x0,-0xaf0(%rbp)
    de3f:	00 00 00 
    de42:	eb 14                	jmp    de58 <func_88+0x148>
    de44:	8b 85 10 f5 ff ff    	mov    -0xaf0(%rbp),%eax
    de4a:	48 98                	cltq   
    de4c:	c6 44 05 c6 c0       	movb   $0xc0,-0x3a(%rbp,%rax,1)
    de51:	83 85 10 f5 ff ff 01 	addl   $0x1,-0xaf0(%rbp)
    de58:	83 bd 10 f5 ff ff 01 	cmpl   $0x1,-0xaf0(%rbp)
    de5f:	7e e3                	jle    de44 <func_88+0x134>
    de61:	c6 85 fc f4 ff ff 00 	movb   $0x0,-0xb04(%rbp)
    de68:	e9 97 18 00 00       	jmpq   f704 <func_88+0x19f4>
    de6d:	48 8d 05 cc 72 00 00 	lea    0x72cc(%rip),%rax        # 15140 <g_128>
    de74:	48 89 85 70 f5 ff ff 	mov    %rax,-0xa90(%rbp)
    de7b:	c6 85 04 f5 ff ff 1b 	movb   $0x1b,-0xafc(%rbp)
    de82:	48 c7 85 78 f5 ff ff 	movq   $0x0,-0xa88(%rbp)
    de89:	00 00 00 00 
    de8d:	48 8d 85 78 f5 ff ff 	lea    -0xa88(%rbp),%rax
    de94:	48 89 85 80 f5 ff ff 	mov    %rax,-0xa80(%rbp)
    de9b:	48 8d 85 80 f5 ff ff 	lea    -0xa80(%rbp),%rax
    dea2:	48 89 85 88 f5 ff ff 	mov    %rax,-0xa78(%rbp)
    dea9:	48 8d 05 c2 72 00 00 	lea    0x72c2(%rip),%rax        # 15172 <g_225+0x2>
    deb0:	48 89 85 90 f5 ff ff 	mov    %rax,-0xa70(%rbp)
    deb7:	c6 85 05 f5 ff ff a3 	movb   $0xa3,-0xafb(%rbp)
    debe:	48 8d 05 83 72 00 00 	lea    0x7283(%rip),%rax        # 15148 <g_134>
    dec5:	48 89 85 f8 f5 ff ff 	mov    %rax,-0xa08(%rbp)
    decc:	48 8d 85 90 f5 ff ff 	lea    -0xa70(%rbp),%rax
    ded3:	48 89 85 00 f6 ff ff 	mov    %rax,-0xa00(%rbp)
    deda:	c7 85 38 f5 ff ff e2 	movl   $0xb9fccee2,-0xac8(%rbp)
    dee1:	ce fc b9 
    dee4:	48 8d 05 25 88 00 00 	lea    0x8825(%rip),%rax        # 16710 <g_229>
    deeb:	48 89 85 08 f6 ff ff 	mov    %rax,-0x9f8(%rbp)
    def2:	c7 85 3c f5 ff ff 01 	movl   $0x1,-0xac4(%rbp)
    def9:	00 00 00 
    defc:	48 c7 85 b8 f5 ff ff 	movq   $0x0,-0xa48(%rbp)
    df03:	00 00 00 00 
    df07:	c7 85 14 f5 ff ff 00 	movl   $0x0,-0xaec(%rbp)
    df0e:	00 00 00 
    df11:	eb 1e                	jmp    df31 <func_88+0x221>
    df13:	8b 85 14 f5 ff ff    	mov    -0xaec(%rbp),%eax
    df19:	48 98                	cltq   
    df1b:	48 8d 15 86 71 00 00 	lea    0x7186(%rip),%rdx        # 150a8 <g_12+0x68>
    df22:	48 89 94 c5 e0 f7 ff 	mov    %rdx,-0x820(%rbp,%rax,8)
    df29:	ff 
    df2a:	83 85 14 f5 ff ff 01 	addl   $0x1,-0xaec(%rbp)
    df31:	83 bd 14 f5 ff ff 09 	cmpl   $0x9,-0xaec(%rbp)
    df38:	7e d9                	jle    df13 <func_88+0x203>
    df3a:	c7 85 14 f5 ff ff 00 	movl   $0x0,-0xaec(%rbp)
    df41:	00 00 00 
    df44:	eb 1e                	jmp    df64 <func_88+0x254>
    df46:	8b 85 14 f5 ff ff    	mov    -0xaec(%rbp),%eax
    df4c:	48 98                	cltq   
    df4e:	48 8d 15 bb 87 00 00 	lea    0x87bb(%rip),%rdx        # 16710 <g_229>
    df55:	48 89 94 c5 30 f7 ff 	mov    %rdx,-0x8d0(%rbp,%rax,8)
    df5c:	ff 
    df5d:	83 85 14 f5 ff ff 01 	addl   $0x1,-0xaec(%rbp)
    df64:	83 bd 14 f5 ff ff 02 	cmpl   $0x2,-0xaec(%rbp)
    df6b:	7e d9                	jle    df46 <func_88+0x236>
    df6d:	c7 85 f8 f4 ff ff 00 	movl   $0x0,-0xb08(%rbp)
    df74:	00 00 00 
    df77:	eb 7c                	jmp    dff5 <func_88+0x2e5>
    df79:	48 8d 05 98 71 00 00 	lea    0x7198(%rip),%rax        # 15118 <g_40>
    df80:	48 89 85 00 f9 ff ff 	mov    %rax,-0x700(%rbp)
    df87:	48 8d 05 8a 71 00 00 	lea    0x718a(%rip),%rax        # 15118 <g_40>
    df8e:	48 89 85 08 f9 ff ff 	mov    %rax,-0x6f8(%rbp)
    df95:	48 8d 05 7c 71 00 00 	lea    0x717c(%rip),%rax        # 15118 <g_40>
    df9c:	48 89 85 10 f9 ff ff 	mov    %rax,-0x6f0(%rbp)
    dfa3:	48 8d 05 6e 71 00 00 	lea    0x716e(%rip),%rax        # 15118 <g_40>
    dfaa:	48 89 85 18 f9 ff ff 	mov    %rax,-0x6e8(%rbp)
    dfb1:	48 8d 05 60 71 00 00 	lea    0x7160(%rip),%rax        # 15118 <g_40>
    dfb8:	48 89 85 20 f9 ff ff 	mov    %rax,-0x6e0(%rbp)
    dfbf:	8b 85 f8 f4 ff ff    	mov    -0xb08(%rbp),%eax
    dfc5:	48 98                	cltq   
    dfc7:	48 8d 14 85 00 00 00 	lea    0x0(,%rax,4),%rdx
    dfce:	00 
    dfcf:	48 8d 05 5a 71 00 00 	lea    0x715a(%rip),%rax        # 15130 <g_102>
    dfd6:	8b 04 02             	mov    (%rdx,%rax,1),%eax
    dfd9:	85 c0                	test   %eax,%eax
    dfdb:	75 27                	jne    e004 <func_88+0x2f4>
    dfdd:	48 8b 05 1c 87 00 00 	mov    0x871c(%rip),%rax        # 16700 <g_104>
    dfe4:	48 8b 95 00 f9 ff ff 	mov    -0x700(%rbp),%rdx
    dfeb:	48 89 10             	mov    %rdx,(%rax)
    dfee:	83 85 f8 f4 ff ff 01 	addl   $0x1,-0xb08(%rbp)
    dff5:	83 bd f8 f4 ff ff 03 	cmpl   $0x3,-0xb08(%rbp)
    dffc:	0f 8e 77 ff ff ff    	jle    df79 <func_88+0x269>
    e002:	eb 01                	jmp    e005 <func_88+0x2f5>
    e004:	90                   	nop
    e005:	c7 05 11 71 00 00 00 	movl   $0x0,0x7111(%rip)        # 15120 <g_47>
    e00c:	00 00 00 
    e00f:	e9 9a 16 00 00       	jmpq   f6ae <func_88+0x199e>
    e014:	0f be 85 fc f4 ff ff 	movsbl -0xb04(%rbp),%eax
    e01b:	48 98                	cltq   
    e01d:	48 8d 14 85 00 00 00 	lea    0x0(,%rax,4),%rdx
    e024:	00 
    e025:	48 8d 05 04 71 00 00 	lea    0x7104(%rip),%rax        # 15130 <g_102>
    e02c:	48 01 d0             	add    %rdx,%rax
    e02f:	48 89 85 10 f6 ff ff 	mov    %rax,-0x9f0(%rbp)
    e036:	48 c7 85 90 f7 ff ff 	movq   $0x0,-0x870(%rbp)
    e03d:	00 00 00 00 
    e041:	48 c7 85 98 f7 ff ff 	movq   $0x0,-0x868(%rbp)
    e048:	00 00 00 00 
    e04c:	48 c7 85 a0 f7 ff ff 	movq   $0x0,-0x860(%rbp)
    e053:	00 00 00 00 
    e057:	48 c7 85 a8 f7 ff ff 	movq   $0x0,-0x858(%rbp)
    e05e:	00 00 00 00 
    e062:	48 8d 85 f0 f6 ff ff 	lea    -0x910(%rbp),%rax
    e069:	48 89 85 18 f6 ff ff 	mov    %rax,-0x9e8(%rbp)
    e070:	c7 85 40 f5 ff ff 00 	movl   $0x0,-0xac0(%rbp)
    e077:	00 00 00 
    e07a:	48 8d 05 2f 71 00 00 	lea    0x712f(%rip),%rax        # 151b0 <g_374>
    e081:	48 89 85 98 f5 ff ff 	mov    %rax,-0xa68(%rbp)
    e088:	48 8d 85 98 f5 ff ff 	lea    -0xa68(%rbp),%rax
    e08f:	48 89 85 20 f6 ff ff 	mov    %rax,-0x9e0(%rbp)
    e096:	66 c7 85 0a f5 ff ff 	movw   $0xfffb,-0xaf6(%rbp)
    e09d:	fb ff 
    e09f:	48 8d 05 7a 82 00 00 	lea    0x827a(%rip),%rax        # 16320 <g_105+0xa0>
    e0a6:	48 89 85 a0 f5 ff ff 	mov    %rax,-0xa60(%rbp)
    e0ad:	48 8d 85 a0 f5 ff ff 	lea    -0xa60(%rbp),%rax
    e0b4:	48 89 85 a8 f5 ff ff 	mov    %rax,-0xa58(%rbp)
    e0bb:	48 8d 85 a8 f5 ff ff 	lea    -0xa58(%rbp),%rax
    e0c2:	48 89 85 28 f6 ff ff 	mov    %rax,-0x9d8(%rbp)
    e0c9:	48 c7 85 30 f6 ff ff 	movq   $0xffffffffffffffff,-0x9d0(%rbp)
    e0d0:	ff ff ff ff 
    e0d4:	48 8d 05 8d 70 00 00 	lea    0x708d(%rip),%rax        # 15168 <g_214>
    e0db:	48 89 85 38 f6 ff ff 	mov    %rax,-0x9c8(%rbp)
    e0e2:	c7 85 18 f5 ff ff 00 	movl   $0x0,-0xae8(%rbp)
    e0e9:	00 00 00 
    e0ec:	eb 1b                	jmp    e109 <func_88+0x3f9>
    e0ee:	8b 85 18 f5 ff ff    	mov    -0xae8(%rbp),%eax
    e0f4:	48 98                	cltq   
    e0f6:	48 c7 84 c5 70 f7 ff 	movq   $0x0,-0x890(%rbp,%rax,8)
    e0fd:	ff 00 00 00 00 
    e102:	83 85 18 f5 ff ff 01 	addl   $0x1,-0xae8(%rbp)
    e109:	83 bd 18 f5 ff ff 03 	cmpl   $0x3,-0xae8(%rbp)
    e110:	7e dc                	jle    e0ee <func_88+0x3de>
    e112:	c7 85 18 f5 ff ff 00 	movl   $0x0,-0xae8(%rbp)
    e119:	00 00 00 
    e11c:	eb 1e                	jmp    e13c <func_88+0x42c>
    e11e:	8b 85 18 f5 ff ff    	mov    -0xae8(%rbp),%eax
    e124:	48 98                	cltq   
    e126:	48 8d 15 db 85 00 00 	lea    0x85db(%rip),%rdx        # 16708 <g_119>
    e12d:	48 89 94 c5 f0 f6 ff 	mov    %rdx,-0x910(%rbp,%rax,8)
    e134:	ff 
    e135:	83 85 18 f5 ff ff 01 	addl   $0x1,-0xae8(%rbp)
    e13c:	83 bd 18 f5 ff ff 00 	cmpl   $0x0,-0xae8(%rbp)
    e143:	7e d9                	jle    e11e <func_88+0x40e>
    e145:	c7 85 18 f5 ff ff 00 	movl   $0x0,-0xae8(%rbp)
    e14c:	00 00 00 
    e14f:	eb 51                	jmp    e1a2 <func_88+0x492>
    e151:	c7 85 1c f5 ff ff 00 	movl   $0x0,-0xae4(%rbp)
    e158:	00 00 00 
    e15b:	eb 35                	jmp    e192 <func_88+0x482>
    e15d:	8b 85 1c f5 ff ff    	mov    -0xae4(%rbp),%eax
    e163:	48 63 c8             	movslq %eax,%rcx
    e166:	8b 85 18 f5 ff ff    	mov    -0xae8(%rbp),%eax
    e16c:	48 63 d0             	movslq %eax,%rdx
    e16f:	48 89 d0             	mov    %rdx,%rax
    e172:	48 01 c0             	add    %rax,%rax
    e175:	48 01 d0             	add    %rdx,%rax
    e178:	48 8d 5d d0          	lea    -0x30(%rbp),%rbx
    e17c:	48 01 d8             	add    %rbx,%rax
    e17f:	48 01 c8             	add    %rcx,%rax
    e182:	48 2d e3 08 00 00    	sub    $0x8e3,%rax
    e188:	c6 00 07             	movb   $0x7,(%rax)
    e18b:	83 85 1c f5 ff ff 01 	addl   $0x1,-0xae4(%rbp)
    e192:	83 bd 1c f5 ff ff 02 	cmpl   $0x2,-0xae4(%rbp)
    e199:	7e c2                	jle    e15d <func_88+0x44d>
    e19b:	83 85 18 f5 ff ff 01 	addl   $0x1,-0xae8(%rbp)
    e1a2:	83 bd 18 f5 ff ff 00 	cmpl   $0x0,-0xae8(%rbp)
    e1a9:	7e a6                	jle    e151 <func_88+0x441>
    e1ab:	0f be 85 fc f4 ff ff 	movsbl -0xb04(%rbp),%eax
    e1b2:	48 98                	cltq   
    e1b4:	48 8d 14 85 00 00 00 	lea    0x0(,%rax,4),%rdx
    e1bb:	00 
    e1bc:	48 8d 05 6d 6f 00 00 	lea    0x6f6d(%rip),%rax        # 15130 <g_102>
    e1c3:	8b 04 02             	mov    (%rdx,%rax,1),%eax
    e1c6:	89 85 f8 f4 ff ff    	mov    %eax,-0xb08(%rbp)
    e1cc:	83 bd f8 f4 ff ff 00 	cmpl   $0x0,-0xb08(%rbp)
    e1d3:	0f 84 71 02 00 00    	je     e44a <func_88+0x73a>
    e1d9:	48 c7 85 a8 f6 ff ff 	movq   $0x0,-0x958(%rbp)
    e1e0:	00 00 00 00 
    e1e4:	48 8d 05 2d 6f 00 00 	lea    0x6f2d(%rip),%rax        # 15118 <g_40>
    e1eb:	48 89 85 b0 f5 ff ff 	mov    %rax,-0xa50(%rbp)
    e1f2:	48 8d 85 b0 f5 ff ff 	lea    -0xa50(%rbp),%rax
    e1f9:	48 89 85 b0 f6 ff ff 	mov    %rax,-0x950(%rbp)
    e200:	c7 85 48 f5 ff ff 36 	movl   $0x6a600e36,-0xab8(%rbp)
    e207:	0e 60 6a 
    e20a:	c7 85 4c f5 ff ff 01 	movl   $0x1,-0xab4(%rbp)
    e211:	00 00 00 
    e214:	c7 85 50 f5 ff ff 08 	movl   $0x8,-0xab0(%rbp)
    e21b:	00 00 00 
    e21e:	c7 85 30 f8 ff ff 5c 	movl   $0x499f85c,-0x7d0(%rbp)
    e225:	f8 99 04 
    e228:	c7 85 34 f8 ff ff fb 	movl   $0xfffffffb,-0x7cc(%rbp)
    e22f:	ff ff ff 
    e232:	c7 85 38 f8 ff ff fb 	movl   $0xfffffffb,-0x7c8(%rbp)
    e239:	ff ff ff 
    e23c:	c7 85 3c f8 ff ff 5c 	movl   $0x499f85c,-0x7c4(%rbp)
    e243:	f8 99 04 
    e246:	c7 85 40 f8 ff ff fb 	movl   $0xfffffffb,-0x7c0(%rbp)
    e24d:	ff ff ff 
    e250:	c7 85 44 f8 ff ff fb 	movl   $0xfffffffb,-0x7bc(%rbp)
    e257:	ff ff ff 
    e25a:	c7 85 48 f8 ff ff fb 	movl   $0xfffffffb,-0x7b8(%rbp)
    e261:	ff ff ff 
    e264:	c7 85 4c f8 ff ff 5c 	movl   $0x499f85c,-0x7b4(%rbp)
    e26b:	f8 99 04 
    e26e:	c7 85 50 f8 ff ff fb 	movl   $0xfffffffb,-0x7b0(%rbp)
    e275:	ff ff ff 
    e278:	c7 85 54 f8 ff ff fb 	movl   $0xfffffffb,-0x7ac(%rbp)
    e27f:	ff ff ff 
    e282:	c7 85 58 f8 ff ff 9c 	movl   $0xeabe429c,-0x7a8(%rbp)
    e289:	42 be ea 
    e28c:	c7 85 5c f8 ff ff fb 	movl   $0xfffffffb,-0x7a4(%rbp)
    e293:	ff ff ff 
    e296:	c7 85 60 f8 ff ff 9c 	movl   $0xeabe429c,-0x7a0(%rbp)
    e29d:	42 be ea 
    e2a0:	c7 85 64 f8 ff ff 9c 	movl   $0xeabe429c,-0x79c(%rbp)
    e2a7:	42 be ea 
    e2aa:	c7 85 68 f8 ff ff fb 	movl   $0xfffffffb,-0x798(%rbp)
    e2b1:	ff ff ff 
    e2b4:	c7 85 6c f8 ff ff fb 	movl   $0xfffffffb,-0x794(%rbp)
    e2bb:	ff ff ff 
    e2be:	c7 85 70 f8 ff ff 9c 	movl   $0xeabe429c,-0x790(%rbp)
    e2c5:	42 be ea 
    e2c8:	c7 85 74 f8 ff ff 9c 	movl   $0xeabe429c,-0x78c(%rbp)
    e2cf:	42 be ea 
    e2d2:	c7 85 78 f8 ff ff fb 	movl   $0xfffffffb,-0x788(%rbp)
    e2d9:	ff ff ff 
    e2dc:	c7 85 7c f8 ff ff 9c 	movl   $0xeabe429c,-0x784(%rbp)
    e2e3:	42 be ea 
    e2e6:	c7 85 54 f5 ff ff 91 	movl   $0xe4332a91,-0xaac(%rbp)
    e2ed:	2a 33 e4 
    e2f0:	48 8b 85 b0 f6 ff ff 	mov    -0x950(%rbp),%rax
    e2f7:	48 c7 00 00 00 00 00 	movq   $0x0,(%rax)
    e2fe:	c7 85 f8 f4 ff ff 02 	movl   $0x2,-0xb08(%rbp)
    e305:	00 00 00 
    e308:	e9 2b 01 00 00       	jmpq   e438 <func_88+0x728>
    e30d:	c7 85 58 f5 ff ff fa 	movl   $0xfffffffa,-0xaa8(%rbp)
    e314:	ff ff ff 
    e317:	48 8d 85 00 f9 ff ff 	lea    -0x700(%rbp),%rax
    e31e:	48 8d 15 db 36 00 00 	lea    0x36db(%rip),%rdx        # 11a00 <g_1811+0x19aa>
    e325:	b9 5a 00 00 00       	mov    $0x5a,%ecx
    e32a:	48 89 c7             	mov    %rax,%rdi
    e32d:	48 89 d6             	mov    %rdx,%rsi
    e330:	f3 48 a5             	rep movsq %ds:(%rsi),%es:(%rdi)
    e333:	c7 85 80 f8 ff ff ff 	movl   $0xffffffff,-0x780(%rbp)
    e33a:	ff ff ff 
    e33d:	c7 85 84 f8 ff ff ff 	movl   $0xffffffff,-0x77c(%rbp)
    e344:	ff ff ff 
    e347:	c7 85 88 f8 ff ff 45 	movl   $0x67205c45,-0x778(%rbp)
    e34e:	5c 20 67 
    e351:	c7 85 8c f8 ff ff ff 	movl   $0xffffffff,-0x774(%rbp)
    e358:	ff ff ff 
    e35b:	c7 85 90 f8 ff ff ff 	movl   $0xffffffff,-0x770(%rbp)
    e362:	ff ff ff 
    e365:	c7 85 94 f8 ff ff 1d 	movl   $0x6895f91d,-0x76c(%rbp)
    e36c:	f9 95 68 
    e36f:	c7 85 98 f8 ff ff 1d 	movl   $0x6895f91d,-0x768(%rbp)
    e376:	f9 95 68 
    e379:	c7 85 9c f8 ff ff ff 	movl   $0xffffffff,-0x764(%rbp)
    e380:	ff ff ff 
    e383:	c7 85 a0 f8 ff ff 1d 	movl   $0x6895f91d,-0x760(%rbp)
    e38a:	f9 95 68 
    e38d:	c7 85 a4 f8 ff ff ff 	movl   $0xffffffff,-0x75c(%rbp)
    e394:	ff ff ff 
    e397:	c7 85 a8 f8 ff ff 1d 	movl   $0x6895f91d,-0x758(%rbp)
    e39e:	f9 95 68 
    e3a1:	c7 85 ac f8 ff ff 1d 	movl   $0x6895f91d,-0x754(%rbp)
    e3a8:	f9 95 68 
    e3ab:	c7 85 b0 f8 ff ff ff 	movl   $0xffffffff,-0x750(%rbp)
    e3b2:	ff ff ff 
    e3b5:	c7 85 b4 f8 ff ff ff 	movl   $0xffffffff,-0x74c(%rbp)
    e3bc:	ff ff ff 
    e3bf:	c7 85 b8 f8 ff ff 45 	movl   $0x67205c45,-0x748(%rbp)
    e3c6:	5c 20 67 
    e3c9:	c7 85 bc f8 ff ff ff 	movl   $0xffffffff,-0x744(%rbp)
    e3d0:	ff ff ff 
    e3d3:	c7 85 c0 f8 ff ff ff 	movl   $0xffffffff,-0x740(%rbp)
    e3da:	ff ff ff 
    e3dd:	c7 85 c4 f8 ff ff 1d 	movl   $0x6895f91d,-0x73c(%rbp)
    e3e4:	f9 95 68 
    e3e7:	c7 85 c8 f8 ff ff 1d 	movl   $0x6895f91d,-0x738(%rbp)
    e3ee:	f9 95 68 
    e3f1:	c7 85 cc f8 ff ff ff 	movl   $0xffffffff,-0x734(%rbp)
    e3f8:	ff ff ff 
    e3fb:	c7 85 d0 f8 ff ff 1d 	movl   $0x6895f91d,-0x730(%rbp)
    e402:	f9 95 68 
    e405:	c7 85 d4 f8 ff ff ff 	movl   $0xffffffff,-0x72c(%rbp)
    e40c:	ff ff ff 
    e40f:	c7 85 d8 f8 ff ff 1d 	movl   $0x6895f91d,-0x728(%rbp)
    e416:	f9 95 68 
    e419:	c7 85 dc f8 ff ff 1d 	movl   $0x6895f91d,-0x724(%rbp)
    e420:	f9 95 68 
    e423:	48 8d 05 de 82 00 00 	lea    0x82de(%rip),%rax        # 16708 <g_119>
    e42a:	48 89 85 b8 f6 ff ff 	mov    %rax,-0x948(%rbp)
    e431:	83 ad f8 f4 ff ff 01 	subl   $0x1,-0xb08(%rbp)
    e438:	83 bd f8 f4 ff ff 00 	cmpl   $0x0,-0xb08(%rbp)
    e43f:	0f 89 c8 fe ff ff    	jns    e30d <func_88+0x5fd>
    e445:	e9 1f 0b 00 00       	jmpq   ef69 <func_88+0x1259>
    e44a:	c7 85 44 f5 ff ff 01 	movl   $0x1,-0xabc(%rbp)
    e451:	00 00 00 
    e454:	48 8d 85 e0 f7 ff ff 	lea    -0x820(%rbp),%rax
    e45b:	48 83 c0 48          	add    $0x48,%rax
    e45f:	48 89 85 40 f6 ff ff 	mov    %rax,-0x9c0(%rbp)
    e466:	48 8d 05 db 6c 00 00 	lea    0x6cdb(%rip),%rax        # 15148 <g_134>
    e46d:	48 89 85 48 f6 ff ff 	mov    %rax,-0x9b8(%rbp)
    e474:	c7 85 b0 f7 ff ff 78 	movl   $0xfa522978,-0x850(%rbp)
    e47b:	29 52 fa 
    e47e:	c7 85 b4 f7 ff ff 78 	movl   $0xfa522978,-0x84c(%rbp)
    e485:	29 52 fa 
    e488:	c7 85 b8 f7 ff ff 78 	movl   $0xfa522978,-0x848(%rbp)
    e48f:	29 52 fa 
    e492:	c7 85 bc f7 ff ff 78 	movl   $0xfa522978,-0x844(%rbp)
    e499:	29 52 fa 
    e49c:	c7 85 c0 f7 ff ff 78 	movl   $0xfa522978,-0x840(%rbp)
    e4a3:	29 52 fa 
    e4a6:	c7 85 c4 f7 ff ff 78 	movl   $0xfa522978,-0x83c(%rbp)
    e4ad:	29 52 fa 
    e4b0:	c7 85 c8 f7 ff ff 78 	movl   $0xfa522978,-0x838(%rbp)
    e4b7:	29 52 fa 
    e4ba:	c7 85 cc f7 ff ff 78 	movl   $0xfa522978,-0x834(%rbp)
    e4c1:	29 52 fa 
    e4c4:	c7 85 d0 f7 ff ff 78 	movl   $0xfa522978,-0x830(%rbp)
    e4cb:	29 52 fa 
    e4ce:	c7 85 d4 f7 ff ff 78 	movl   $0xfa522978,-0x82c(%rbp)
    e4d5:	29 52 fa 
    e4d8:	c7 05 5e 6c 00 00 03 	movl   $0x3,0x6c5e(%rip)        # 15140 <g_128>
    e4df:	00 00 00 
    e4e2:	e9 f4 05 00 00       	jmpq   eadb <func_88+0xdcb>
    e4e7:	48 8d 05 6a 6c 00 00 	lea    0x6c6a(%rip),%rax        # 15158 <g_155>
    e4ee:	48 89 85 50 f6 ff ff 	mov    %rax,-0x9b0(%rbp)
    e4f5:	48 8d 85 04 f5 ff ff 	lea    -0xafc(%rbp),%rax
    e4fc:	48 89 85 58 f6 ff ff 	mov    %rax,-0x9a8(%rbp)
    e503:	48 8d 85 00 f9 ff ff 	lea    -0x700(%rbp),%rax
    e50a:	48 8d 15 8f 76 00 00 	lea    0x768f(%rip),%rdx        # 15ba0 <g_2537+0x8c8>
    e511:	b9 d8 00 00 00       	mov    $0xd8,%ecx
    e516:	48 89 c7             	mov    %rax,%rdi
    e519:	48 89 d6             	mov    %rdx,%rsi
    e51c:	f3 48 a5             	rep movsq %ds:(%rsi),%es:(%rdi)
    e51f:	48 8d 05 4c 6c 00 00 	lea    0x6c4c(%rip),%rax        # 15172 <g_225+0x2>
    e526:	48 89 85 60 f6 ff ff 	mov    %rax,-0x9a0(%rbp)
    e52d:	48 8d 85 70 f5 ff ff 	lea    -0xa90(%rbp),%rax
    e534:	48 89 85 68 f6 ff ff 	mov    %rax,-0x998(%rbp)
    e53b:	8b 05 df 6b 00 00    	mov    0x6bdf(%rip),%eax        # 15120 <g_47>
    e541:	0f bf d8             	movswl %ax,%ebx
    e544:	8b 05 f6 6b 00 00    	mov    0x6bf6(%rip),%eax        # 15140 <g_128>
    e54a:	48 98                	cltq   
    e54c:	48 8d 14 85 00 00 00 	lea    0x0(,%rax,4),%rdx
    e553:	00 
    e554:	48 8d 05 d5 6b 00 00 	lea    0x6bd5(%rip),%rax        # 15130 <g_102>
    e55b:	8b 04 02             	mov    (%rdx,%rax,1),%eax
    e55e:	89 c2                	mov    %eax,%edx
    e560:	8b 05 fa 6b 00 00    	mov    0x6bfa(%rip),%eax        # 15160 <g_157>
    e566:	89 c1                	mov    %eax,%ecx
    e568:	48 8b 05 f9 6b 00 00 	mov    0x6bf9(%rip),%rax        # 15168 <g_214>
    e56f:	48 31 c8             	xor    %rcx,%rax
    e572:	48 89 05 ef 6b 00 00 	mov    %rax,0x6bef(%rip)        # 15168 <g_214>
    e579:	48 8b 05 e8 6b 00 00 	mov    0x6be8(%rip),%rax        # 15168 <g_214>
    e580:	48 39 c2             	cmp    %rax,%rdx
    e583:	0f 94 c0             	sete   %al
    e586:	0f b6 c8             	movzbl %al,%ecx
    e589:	48 8b 85 50 f6 ff ff 	mov    -0x9b0(%rbp),%rax
    e590:	48 8b 10             	mov    (%rax),%rdx
    e593:	48 63 c1             	movslq %ecx,%rax
    e596:	48 31 c2             	xor    %rax,%rdx
    e599:	48 8b 85 50 f6 ff ff 	mov    -0x9b0(%rbp),%rax
    e5a0:	48 89 10             	mov    %rdx,(%rax)
    e5a3:	48 8b 05 be 7c 00 00 	mov    0x7cbe(%rip),%rax        # 16268 <g_46>
    e5aa:	8b 85 f8 f4 ff ff    	mov    -0xb08(%rbp),%eax
    e5b0:	89 c2                	mov    %eax,%edx
    e5b2:	48 8b 85 58 f6 ff ff 	mov    -0x9a8(%rbp),%rax
    e5b9:	88 10                	mov    %dl,(%rax)
    e5bb:	48 8b 85 58 f6 ff ff 	mov    -0x9a8(%rbp),%rax
    e5c2:	0f b6 00             	movzbl (%rax),%eax
    e5c5:	0f be d0             	movsbl %al,%edx
    e5c8:	0f b6 05 81 6b 00 00 	movzbl 0x6b81(%rip),%eax        # 15150 <g_152>
    e5cf:	0f b6 c8             	movzbl %al,%ecx
    e5d2:	48 8b 05 6f 6b 00 00 	mov    0x6b6f(%rip),%rax        # 15148 <g_134>
    e5d9:	48 39 c1             	cmp    %rax,%rcx
    e5dc:	75 0c                	jne    e5ea <func_88+0x8da>
    e5de:	48 8b 05 63 6b 00 00 	mov    0x6b63(%rip),%rax        # 15148 <g_134>
    e5e5:	48 85 c0             	test   %rax,%rax
    e5e8:	74 07                	je     e5f1 <func_88+0x8e1>
    e5ea:	b8 01 00 00 00       	mov    $0x1,%eax
    e5ef:	eb 05                	jmp    e5f6 <func_88+0x8e6>
    e5f1:	b8 00 00 00 00       	mov    $0x0,%eax
    e5f6:	09 c2                	or     %eax,%edx
    e5f8:	8b 05 aa 6a 00 00    	mov    0x6aaa(%rip),%eax        # 150a8 <g_12+0x68>
    e5fe:	39 c2                	cmp    %eax,%edx
    e600:	0f 9d c0             	setge  %al
    e603:	89 c2                	mov    %eax,%edx
    e605:	8b 05 35 6b 00 00    	mov    0x6b35(%rip),%eax        # 15140 <g_128>
    e60b:	09 d0                	or     %edx,%eax
    e60d:	0f be c0             	movsbl %al,%eax
    e610:	be 99 ff ff ff       	mov    $0xffffff99,%esi
    e615:	89 c7                	mov    %eax,%edi
    e617:	e8 15 7c ff ff       	callq  6231 <safe_mod_func_int8_t_s_s>
    e61c:	48 0f be c0          	movsbq %al,%rax
    e620:	48 89 85 c8 f5 ff ff 	mov    %rax,-0xa38(%rbp)
    e627:	48 8b 85 c8 f5 ff ff 	mov    -0xa38(%rbp),%rax
    e62e:	48 89 05 13 6b 00 00 	mov    %rax,0x6b13(%rip)        # 15148 <g_134>
    e635:	48 8b 05 0c 6b 00 00 	mov    0x6b0c(%rip),%rax        # 15148 <g_134>
    e63c:	f7 d0                	not    %eax
    e63e:	89 c2                	mov    %eax,%edx
    e640:	48 8b 85 60 f6 ff ff 	mov    -0x9a0(%rbp),%rax
    e647:	88 10                	mov    %dl,(%rax)
    e649:	48 8b 85 60 f6 ff ff 	mov    -0x9a0(%rbp),%rax
    e650:	0f b6 00             	movzbl (%rax),%eax
    e653:	0f be c0             	movsbl %al,%eax
    e656:	be 00 00 00 00       	mov    $0x0,%esi
    e65b:	89 c7                	mov    %eax,%edi
    e65d:	e8 8c 7c ff ff       	callq  62ee <safe_lshift_func_int8_t_s_u>
    e662:	0f be d0             	movsbl %al,%edx
    e665:	0f b6 05 e4 6a 00 00 	movzbl 0x6ae4(%rip),%eax        # 15150 <g_152>
    e66c:	0f b6 c0             	movzbl %al,%eax
    e66f:	39 c2                	cmp    %eax,%edx
    e671:	48 8b 85 d0 f5 ff ff 	mov    -0xa30(%rbp),%rax
    e678:	98                   	cwtl   
    e679:	89 de                	mov    %ebx,%esi
    e67b:	89 c7                	mov    %eax,%edi
    e67d:	e8 51 7d ff ff       	callq  63d3 <safe_sub_func_int16_t_s_s>
    e682:	66 3d e7 00          	cmp    $0xe7,%ax
    e686:	0f 8f 96 00 00 00    	jg     e722 <func_88+0xa12>
    e68c:	48 8d 85 e0 f7 ff ff 	lea    -0x820(%rbp),%rax
    e693:	48 83 c0 18          	add    $0x18,%rax
    e697:	48 89 85 80 f8 ff ff 	mov    %rax,-0x780(%rbp)
    e69e:	48 8d 85 70 f5 ff ff 	lea    -0xa90(%rbp),%rax
    e6a5:	48 89 85 88 f8 ff ff 	mov    %rax,-0x778(%rbp)
    e6ac:	48 8d 85 70 f5 ff ff 	lea    -0xa90(%rbp),%rax
    e6b3:	48 89 85 90 f8 ff ff 	mov    %rax,-0x770(%rbp)
    e6ba:	48 8d 85 e0 f7 ff ff 	lea    -0x820(%rbp),%rax
    e6c1:	48 83 c0 18          	add    $0x18,%rax
    e6c5:	48 89 85 98 f8 ff ff 	mov    %rax,-0x768(%rbp)
    e6cc:	48 8d 85 70 f5 ff ff 	lea    -0xa90(%rbp),%rax
    e6d3:	48 89 85 a0 f8 ff ff 	mov    %rax,-0x760(%rbp)
    e6da:	48 8d 85 70 f5 ff ff 	lea    -0xa90(%rbp),%rax
    e6e1:	48 89 85 a8 f8 ff ff 	mov    %rax,-0x758(%rbp)
    e6e8:	48 8d 85 e0 f7 ff ff 	lea    -0x820(%rbp),%rax
    e6ef:	48 83 c0 18          	add    $0x18,%rax
    e6f3:	48 89 85 b0 f8 ff ff 	mov    %rax,-0x750(%rbp)
    e6fa:	48 8d 85 70 f5 ff ff 	lea    -0xa90(%rbp),%rax
    e701:	48 89 85 b8 f8 ff ff 	mov    %rax,-0x748(%rbp)
    e708:	48 8d 85 70 f5 ff ff 	lea    -0xa90(%rbp),%rax
    e70f:	48 89 85 c0 f8 ff ff 	mov    %rax,-0x740(%rbp)
    e716:	48 8d 05 cb 91 00 00 	lea    0x91cb(%rip),%rax        # 178e8 <g_10>
    e71d:	e9 0a 10 00 00       	jmpq   f72c <func_88+0x1a1c>
    e722:	48 8b 05 f7 7f 00 00 	mov    0x7ff7(%rip),%rax        # 16720 <g_230>
    e729:	48 8b 15 e8 7f 00 00 	mov    0x7fe8(%rip),%rdx        # 16718 <g_228>
    e730:	48 89 10             	mov    %rdx,(%rax)
    e733:	48 8b 15 ce 7f 00 00 	mov    0x7fce(%rip),%rdx        # 16708 <g_119>
    e73a:	48 8b 05 bf 7f 00 00 	mov    0x7fbf(%rip),%rax        # 16700 <g_104>
    e741:	48 8b 12             	mov    (%rdx),%rdx
    e744:	48 89 10             	mov    %rdx,(%rax)
    e747:	48 8b 85 f0 f4 ff ff 	mov    -0xb10(%rbp),%rax
    e74e:	8b 00                	mov    (%rax),%eax
    e750:	85 c0                	test   %eax,%eax
    e752:	0f 84 43 03 00 00    	je     ea9b <func_88+0xd8b>
    e758:	48 8d 85 88 f5 ff ff 	lea    -0xa78(%rbp),%rax
    e75f:	48 89 85 70 f6 ff ff 	mov    %rax,-0x990(%rbp)
    e766:	48 c7 85 78 f6 ff ff 	movq   $0x0,-0x988(%rbp)
    e76d:	00 00 00 00 
    e771:	48 8d 05 d8 69 00 00 	lea    0x69d8(%rip),%rax        # 15150 <g_152>
    e778:	48 89 85 30 f8 ff ff 	mov    %rax,-0x7d0(%rbp)
    e77f:	48 8d 05 ca 69 00 00 	lea    0x69ca(%rip),%rax        # 15150 <g_152>
    e786:	48 89 85 38 f8 ff ff 	mov    %rax,-0x7c8(%rbp)
    e78d:	48 8d 05 bc 69 00 00 	lea    0x69bc(%rip),%rax        # 15150 <g_152>
    e794:	48 89 85 40 f8 ff ff 	mov    %rax,-0x7c0(%rbp)
    e79b:	48 8d 05 ae 69 00 00 	lea    0x69ae(%rip),%rax        # 15150 <g_152>
    e7a2:	48 89 85 48 f8 ff ff 	mov    %rax,-0x7b8(%rbp)
    e7a9:	48 8d 05 a0 69 00 00 	lea    0x69a0(%rip),%rax        # 15150 <g_152>
    e7b0:	48 89 85 50 f8 ff ff 	mov    %rax,-0x7b0(%rbp)
    e7b7:	48 8d 05 92 69 00 00 	lea    0x6992(%rip),%rax        # 15150 <g_152>
    e7be:	48 89 85 58 f8 ff ff 	mov    %rax,-0x7a8(%rbp)
    e7c5:	48 8d 05 84 69 00 00 	lea    0x6984(%rip),%rax        # 15150 <g_152>
    e7cc:	48 89 85 60 f8 ff ff 	mov    %rax,-0x7a0(%rbp)
    e7d3:	48 8d 05 76 69 00 00 	lea    0x6976(%rip),%rax        # 15150 <g_152>
    e7da:	48 89 85 68 f8 ff ff 	mov    %rax,-0x798(%rbp)
    e7e1:	48 8d 05 68 69 00 00 	lea    0x6968(%rip),%rax        # 15150 <g_152>
    e7e8:	48 89 85 70 f8 ff ff 	mov    %rax,-0x790(%rbp)
    e7ef:	48 8d 05 6a 69 00 00 	lea    0x696a(%rip),%rax        # 15160 <g_157>
    e7f6:	48 89 85 80 f6 ff ff 	mov    %rax,-0x980(%rbp)
    e7fd:	48 c7 85 88 f6 ff ff 	movq   $0x0,-0x978(%rbp)
    e804:	00 00 00 00 
    e808:	48 c7 85 80 f8 ff ff 	movq   $0x0,-0x780(%rbp)
    e80f:	00 00 00 00 
    e813:	8b 05 07 69 00 00    	mov    0x6907(%rip),%eax        # 15120 <g_47>
    e819:	48 98                	cltq   
    e81b:	48 8d 14 85 00 00 00 	lea    0x0(,%rax,4),%rdx
    e822:	00 
    e823:	48 8d 05 06 69 00 00 	lea    0x6906(%rip),%rax        # 15130 <g_102>
    e82a:	48 01 d0             	add    %rdx,%rax
    e82d:	48 89 85 88 f8 ff ff 	mov    %rax,-0x778(%rbp)
    e834:	48 c7 85 90 f8 ff ff 	movq   $0x0,-0x770(%rbp)
    e83b:	00 00 00 00 
    e83f:	48 c7 85 98 f8 ff ff 	movq   $0x0,-0x768(%rbp)
    e846:	00 00 00 00 
    e84a:	8b 05 d0 68 00 00    	mov    0x68d0(%rip),%eax        # 15120 <g_47>
    e850:	48 98                	cltq   
    e852:	48 8d 14 85 00 00 00 	lea    0x0(,%rax,4),%rdx
    e859:	00 
    e85a:	48 8d 05 cf 68 00 00 	lea    0x68cf(%rip),%rax        # 15130 <g_102>
    e861:	48 01 d0             	add    %rdx,%rax
    e864:	48 89 85 a0 f8 ff ff 	mov    %rax,-0x760(%rbp)
    e86b:	48 c7 85 a8 f8 ff ff 	movq   $0x0,-0x758(%rbp)
    e872:	00 00 00 00 
    e876:	48 c7 85 b0 f8 ff ff 	movq   $0x0,-0x750(%rbp)
    e87d:	00 00 00 00 
    e881:	8b 05 99 68 00 00    	mov    0x6899(%rip),%eax        # 15120 <g_47>
    e887:	48 98                	cltq   
    e889:	48 8d 14 85 00 00 00 	lea    0x0(,%rax,4),%rdx
    e890:	00 
    e891:	48 8d 05 98 68 00 00 	lea    0x6898(%rip),%rax        # 15130 <g_102>
    e898:	48 01 d0             	add    %rdx,%rax
    e89b:	48 89 85 b8 f8 ff ff 	mov    %rax,-0x748(%rbp)
    e8a2:	48 c7 85 c0 f8 ff ff 	movq   $0x0,-0x740(%rbp)
    e8a9:	00 00 00 00 
    e8ad:	48 c7 85 c8 f8 ff ff 	movq   $0x0,-0x738(%rbp)
    e8b4:	00 00 00 00 
    e8b8:	8b 05 62 68 00 00    	mov    0x6862(%rip),%eax        # 15120 <g_47>
    e8be:	48 98                	cltq   
    e8c0:	48 8d 14 85 00 00 00 	lea    0x0(,%rax,4),%rdx
    e8c7:	00 
    e8c8:	48 8d 05 61 68 00 00 	lea    0x6861(%rip),%rax        # 15130 <g_102>
    e8cf:	48 01 d0             	add    %rdx,%rax
    e8d2:	48 89 85 d0 f8 ff ff 	mov    %rax,-0x730(%rbp)
    e8d9:	48 c7 85 d8 f8 ff ff 	movq   $0x0,-0x728(%rbp)
    e8e0:	00 00 00 00 
    e8e4:	48 8d 85 80 f8 ff ff 	lea    -0x780(%rbp),%rax
    e8eb:	48 83 c0 08          	add    $0x8,%rax
    e8ef:	48 89 85 90 f6 ff ff 	mov    %rax,-0x970(%rbp)
    e8f6:	48 c7 85 98 f6 ff ff 	movq   $0x0,-0x968(%rbp)
    e8fd:	00 00 00 00 
    e901:	c7 85 20 f5 ff ff 00 	movl   $0x0,-0xae0(%rbp)
    e908:	00 00 00 
    e90b:	eb 1b                	jmp    e928 <func_88+0xc18>
    e90d:	8b 85 20 f5 ff ff    	mov    -0xae0(%rbp),%eax
    e913:	48 98                	cltq   
    e915:	48 c7 84 c5 50 f7 ff 	movq   $0x0,-0x8b0(%rbp,%rax,8)
    e91c:	ff 00 00 00 00 
    e921:	83 85 20 f5 ff ff 01 	addl   $0x1,-0xae0(%rbp)
    e928:	83 bd 20 f5 ff ff 00 	cmpl   $0x0,-0xae0(%rbp)
    e92f:	7e dc                	jle    e90d <func_88+0xbfd>
    e931:	8b 05 e9 67 00 00    	mov    0x67e9(%rip),%eax        # 15120 <g_47>
    e937:	0f bf d8             	movswl %ax,%ebx
    e93a:	48 8b 95 88 f5 ff ff 	mov    -0xa78(%rbp),%rdx
    e941:	48 8b 85 70 f6 ff ff 	mov    -0x990(%rbp),%rax
    e948:	48 89 10             	mov    %rdx,(%rax)
    e94b:	48 8b 85 70 f6 ff ff 	mov    -0x990(%rbp),%rax
    e952:	48 8b 00             	mov    (%rax),%rax
    e955:	48 8d 15 ac 7d 00 00 	lea    0x7dac(%rip),%rdx        # 16708 <g_119>
    e95c:	48 39 d0             	cmp    %rdx,%rax
    e95f:	0f 94 c0             	sete   %al
    e962:	0f b6 c0             	movzbl %al,%eax
    e965:	89 c2                	mov    %eax,%edx
    e967:	0f b6 05 82 8f 00 00 	movzbl 0x8f82(%rip),%eax        # 178f0 <g_210>
    e96e:	31 d0                	xor    %edx,%eax
    e970:	88 05 7a 8f 00 00    	mov    %al,0x8f7a(%rip)        # 178f0 <g_210>
    e976:	48 8b 85 80 f6 ff ff 	mov    -0x980(%rbp),%rax
    e97d:	c7 00 00 00 00 00    	movl   $0x0,(%rax)
    e983:	48 8b 85 80 f6 ff ff 	mov    -0x980(%rbp),%rax
    e98a:	8b 00                	mov    (%rax),%eax
    e98c:	89 05 e6 67 00 00    	mov    %eax,0x67e6(%rip)        # 15178 <g_240>
    e992:	80 bd fc f4 ff ff 00 	cmpb   $0x0,-0xb04(%rbp)
    e999:	75 49                	jne    e9e4 <func_88+0xcd4>
    e99b:	8b 85 f8 f4 ff ff    	mov    -0xb08(%rbp),%eax
    e9a1:	44 0f b6 e0          	movzbl %al,%r12d
    e9a5:	0f b6 95 07 f5 ff ff 	movzbl -0xaf9(%rbp),%edx
    e9ac:	0f b6 05 bf 67 00 00 	movzbl 0x67bf(%rip),%eax        # 15172 <g_225+0x2>
    e9b3:	0f be c8             	movsbl %al,%ecx
    e9b6:	8b 05 7c 67 00 00    	mov    0x677c(%rip),%eax        # 15138 <g_102+0x8>
    e9bc:	21 c1                	and    %eax,%ecx
    e9be:	8b 05 b4 67 00 00    	mov    0x67b4(%rip),%eax        # 15178 <g_240>
    e9c4:	39 c1                	cmp    %eax,%ecx
    e9c6:	0f 94 c0             	sete   %al
    e9c9:	0f b6 c0             	movzbl %al,%eax
    e9cc:	89 d6                	mov    %edx,%esi
    e9ce:	89 c7                	mov    %eax,%edi
    e9d0:	e8 68 83 ff ff       	callq  6d3d <safe_mul_func_uint16_t_u_u>
    e9d5:	0f b6 c0             	movzbl %al,%eax
    e9d8:	44 89 e6             	mov    %r12d,%esi
    e9db:	89 c7                	mov    %eax,%edi
    e9dd:	e8 78 81 ff ff       	callq  6b5a <safe_add_func_uint8_t_u_u>
    e9e2:	3c 06                	cmp    $0x6,%al
    e9e4:	80 bd fc f4 ff ff 01 	cmpb   $0x1,-0xb04(%rbp)
    e9eb:	0f 9f c0             	setg   %al
    e9ee:	0f b6 c0             	movzbl %al,%eax
    e9f1:	89 05 45 67 00 00    	mov    %eax,0x6745(%rip)        # 1513c <g_102+0xc>
    e9f7:	4c 0f be a5 fc f4 ff 	movsbq -0xb04(%rbp),%r12
    e9fe:	ff 
    e9ff:	80 bd fc f4 ff ff 00 	cmpb   $0x0,-0xb04(%rbp)
    ea06:	74 1f                	je     ea27 <func_88+0xd17>
    ea08:	8b 85 44 f5 ff ff    	mov    -0xabc(%rbp),%eax
    ea0e:	98                   	cwtl   
    ea0f:	be 04 00 00 00       	mov    $0x4,%esi
    ea14:	89 c7                	mov    %eax,%edi
    ea16:	e8 48 7b ff ff       	callq  6563 <safe_rshift_func_int16_t_s_u>
    ea1b:	66 85 c0             	test   %ax,%ax
    ea1e:	74 07                	je     ea27 <func_88+0xd17>
    ea20:	b8 01 00 00 00       	mov    $0x1,%eax
    ea25:	eb 05                	jmp    ea2c <func_88+0xd1c>
    ea27:	b8 00 00 00 00       	mov    $0x0,%eax
    ea2c:	48 98                	cltq   
    ea2e:	4c 89 e6             	mov    %r12,%rsi
    ea31:	48 89 c7             	mov    %rax,%rdi
    ea34:	e8 12 86 ff ff       	callq  704b <safe_sub_func_uint64_t_u_u>
    ea39:	89 de                	mov    %ebx,%esi
    ea3b:	bf 01 00 00 00       	mov    $0x1,%edi
    ea40:	e8 10 7a ff ff       	callq  6455 <safe_div_func_int16_t_s_s>
    ea45:	98                   	cwtl   
    ea46:	21 85 0c f5 ff ff    	and    %eax,-0xaf4(%rbp)
    ea4c:	48 8b 85 f0 f4 ff ff 	mov    -0xb10(%rbp),%rax
    ea53:	8b 00                	mov    (%rax),%eax
    ea55:	85 c0                	test   %eax,%eax
    ea57:	0f 85 8c 00 00 00    	jne    eae9 <func_88+0xdd9>
    ea5d:	48 8b 85 90 f6 ff ff 	mov    -0x970(%rbp),%rax
    ea64:	48 8d 15 c5 66 00 00 	lea    0x66c5(%rip),%rdx        # 15130 <g_102>
    ea6b:	48 89 10             	mov    %rdx,(%rax)
    ea6e:	48 8b 85 90 f6 ff ff 	mov    -0x970(%rbp),%rax
    ea75:	48 8b 00             	mov    (%rax),%rax
    ea78:	48 8b 95 f0 f4 ff ff 	mov    -0xb10(%rbp),%rdx
    ea7f:	48 89 95 10 f6 ff ff 	mov    %rdx,-0x9f0(%rbp)
    ea86:	48 39 85 10 f6 ff ff 	cmp    %rax,-0x9f0(%rbp)
    ea8d:	0f 94 c0             	sete   %al
    ea90:	0f b6 c0             	movzbl %al,%eax
    ea93:	89 85 f8 f4 ff ff    	mov    %eax,-0xb08(%rbp)
    ea99:	eb 1d                	jmp    eab8 <func_88+0xda8>
    ea9b:	48 8b 85 80 f5 ff ff 	mov    -0xa80(%rbp),%rax
    eaa2:	48 8b 00             	mov    (%rax),%rax
    eaa5:	48 89 05 7c 7c 00 00 	mov    %rax,0x7c7c(%rip)        # 16728 <g_257>
    eaac:	48 8d 05 45 7c 00 00 	lea    0x7c45(%rip),%rax        # 166f8 <g_105+0x478>
    eab3:	e9 74 0c 00 00       	jmpq   f72c <func_88+0x1a1c>
    eab8:	48 8b 05 41 7c 00 00 	mov    0x7c41(%rip),%rax        # 16700 <g_104>
    eabf:	48 8b 10             	mov    (%rax),%rdx
    eac2:	48 8b 85 68 f6 ff ff 	mov    -0x998(%rbp),%rax
    eac9:	48 89 10             	mov    %rdx,(%rax)
    eacc:	8b 05 6e 66 00 00    	mov    0x666e(%rip),%eax        # 15140 <g_128>
    ead2:	83 e8 01             	sub    $0x1,%eax
    ead5:	89 05 65 66 00 00    	mov    %eax,0x6665(%rip)        # 15140 <g_128>
    eadb:	8b 05 5f 66 00 00    	mov    0x665f(%rip),%eax        # 15140 <g_128>
    eae1:	85 c0                	test   %eax,%eax
    eae3:	0f 89 fe f9 ff ff    	jns    e4e7 <func_88+0x7d7>
    eae9:	8b 05 51 66 00 00    	mov    0x6651(%rip),%eax        # 15140 <g_128>
    eaef:	48 63 d8             	movslq %eax,%rbx
    eaf2:	48 8b 85 40 f6 ff ff 	mov    -0x9c0(%rbp),%rax
    eaf9:	48 8b 00             	mov    (%rax),%rax
    eafc:	8b 00                	mov    (%rax),%eax
    eafe:	41 89 c4             	mov    %eax,%r12d
    eb01:	8b 85 f8 f4 ff ff    	mov    -0xb08(%rbp),%eax
    eb07:	48 8b 95 40 f6 ff ff 	mov    -0x9c0(%rbp),%rdx
    eb0e:	48 8b 12             	mov    (%rdx),%rdx
    eb11:	8b 12                	mov    (%rdx),%edx
    eb13:	89 c6                	mov    %eax,%esi
    eb15:	89 d7                	mov    %edx,%edi
    eb17:	e8 09 84 ff ff       	callq  6f25 <safe_div_func_uint32_t_u_u>
    eb1c:	44 89 e6             	mov    %r12d,%esi
    eb1f:	89 c7                	mov    %eax,%edi
    eb21:	e8 aa 83 ff ff       	callq  6ed0 <safe_sub_func_uint32_t_u_u>
    eb26:	0f b7 d0             	movzwl %ax,%edx
    eb29:	48 8d 05 42 66 00 00 	lea    0x6642(%rip),%rax        # 15172 <g_225+0x2>
    eb30:	48 89 05 c1 8d 00 00 	mov    %rax,0x8dc1(%rip)        # 178f8 <g_268>
    eb37:	48 8b 85 40 f6 ff ff 	mov    -0x9c0(%rbp),%rax
    eb3e:	48 8b 00             	mov    (%rax),%rax
    eb41:	8b 08                	mov    (%rax),%ecx
    eb43:	0f be 85 fc f4 ff ff 	movsbl -0xb04(%rbp),%eax
    eb4a:	31 c1                	xor    %eax,%ecx
    eb4c:	48 8b 05 15 77 00 00 	mov    0x7715(%rip),%rax        # 16268 <g_46>
    eb53:	8b 00                	mov    (%rax),%eax
    eb55:	39 c1                	cmp    %eax,%ecx
    eb57:	0f 9e c0             	setle  %al
    eb5a:	0f b6 c8             	movzbl %al,%ecx
    eb5d:	0f be 85 fc f4 ff ff 	movsbl -0xb04(%rbp),%eax
    eb64:	39 c1                	cmp    %eax,%ecx
    eb66:	0f 9e c0             	setle  %al
    eb69:	0f b6 c0             	movzbl %al,%eax
    eb6c:	89 d6                	mov    %edx,%esi
    eb6e:	89 c7                	mov    %eax,%edi
    eb70:	e8 e7 81 ff ff       	callq  6d5c <safe_mod_func_uint16_t_u_u>
    eb75:	89 c2                	mov    %eax,%edx
    eb77:	48 8b 85 90 f5 ff ff 	mov    -0xa70(%rbp),%rax
    eb7e:	88 10                	mov    %dl,(%rax)
    eb80:	48 8b 85 48 f6 ff ff 	mov    -0x9b8(%rbp),%rax
    eb87:	48 c7 00 00 00 00 00 	movq   $0x0,(%rax)
    eb8e:	48 8b 85 48 f6 ff ff 	mov    -0x9b8(%rbp),%rax
    eb95:	48 8b 00             	mov    (%rax),%rax
    eb98:	48 89 de             	mov    %rbx,%rsi
    eb9b:	48 89 c7             	mov    %rax,%rdi
    eb9e:	e8 9e 7c ff ff       	callq  6841 <safe_add_func_int64_t_s_s>
    eba3:	48 0f be 95 fc f4 ff 	movsbq -0xb04(%rbp),%rdx
    ebaa:	ff 
    ebab:	48 39 d0             	cmp    %rdx,%rax
    ebae:	74 15                	je     ebc5 <func_88+0xeb5>
    ebb0:	48 8b 05 41 8d 00 00 	mov    0x8d41(%rip),%rax        # 178f8 <g_268>
    ebb7:	0f b6 00             	movzbl (%rax),%eax
    ebba:	84 c0                	test   %al,%al
    ebbc:	74 07                	je     ebc5 <func_88+0xeb5>
    ebbe:	b8 01 00 00 00       	mov    $0x1,%eax
    ebc3:	eb 05                	jmp    ebca <func_88+0xeba>
    ebc5:	b8 00 00 00 00       	mov    $0x0,%eax
    ebca:	89 c2                	mov    %eax,%edx
    ebcc:	8b 05 4e 65 00 00    	mov    0x654e(%rip),%eax        # 15120 <g_47>
    ebd2:	0f b6 c0             	movzbl %al,%eax
    ebd5:	89 d6                	mov    %edx,%esi
    ebd7:	89 c7                	mov    %eax,%edi
    ebd9:	e8 6e 80 ff ff       	callq  6c4c <safe_lshift_func_uint8_t_u_u>
    ebde:	0f b6 c0             	movzbl %al,%eax
    ebe1:	21 85 0c f5 ff ff    	and    %eax,-0xaf4(%rbp)
    ebe7:	8b 85 0c f5 ff ff    	mov    -0xaf4(%rbp),%eax
    ebed:	89 85 f8 f4 ff ff    	mov    %eax,-0xb08(%rbp)
    ebf3:	c7 05 43 65 00 00 02 	movl   $0x2,0x6543(%rip)        # 15140 <g_128>
    ebfa:	00 00 00 
    ebfd:	e9 52 01 00 00       	jmpq   ed54 <func_88+0x1044>
    ec02:	48 8d 05 ef 8c 00 00 	lea    0x8cef(%rip),%rax        # 178f8 <g_268>
    ec09:	48 89 85 00 f9 ff ff 	mov    %rax,-0x700(%rbp)
    ec10:	48 8d 85 90 f5 ff ff 	lea    -0xa70(%rbp),%rax
    ec17:	48 89 85 08 f9 ff ff 	mov    %rax,-0x6f8(%rbp)
    ec1e:	48 c7 85 10 f9 ff ff 	movq   $0x0,-0x6f0(%rbp)
    ec25:	00 00 00 00 
    ec29:	48 8d 85 90 f5 ff ff 	lea    -0xa70(%rbp),%rax
    ec30:	48 89 85 18 f9 ff ff 	mov    %rax,-0x6e8(%rbp)
    ec37:	48 8d 05 ba 8c 00 00 	lea    0x8cba(%rip),%rax        # 178f8 <g_268>
    ec3e:	48 89 85 20 f9 ff ff 	mov    %rax,-0x6e0(%rbp)
    ec45:	48 8d 85 90 f5 ff ff 	lea    -0xa70(%rbp),%rax
    ec4c:	48 89 85 28 f9 ff ff 	mov    %rax,-0x6d8(%rbp)
    ec53:	48 8d 85 90 f5 ff ff 	lea    -0xa70(%rbp),%rax
    ec5a:	48 89 85 30 f9 ff ff 	mov    %rax,-0x6d0(%rbp)
    ec61:	48 8d 05 90 8c 00 00 	lea    0x8c90(%rip),%rax        # 178f8 <g_268>
    ec68:	48 89 85 38 f9 ff ff 	mov    %rax,-0x6c8(%rbp)
    ec6f:	48 8d 85 90 f5 ff ff 	lea    -0xa70(%rbp),%rax
    ec76:	48 89 85 40 f9 ff ff 	mov    %rax,-0x6c0(%rbp)
    ec7d:	48 c7 85 48 f9 ff ff 	movq   $0x0,-0x6b8(%rbp)
    ec84:	00 00 00 00 
    ec88:	48 8d 85 90 f5 ff ff 	lea    -0xa70(%rbp),%rax
    ec8f:	48 89 85 50 f9 ff ff 	mov    %rax,-0x6b0(%rbp)
    ec96:	48 8d 05 5b 8c 00 00 	lea    0x8c5b(%rip),%rax        # 178f8 <g_268>
    ec9d:	48 89 85 58 f9 ff ff 	mov    %rax,-0x6a8(%rbp)
    eca4:	48 8d 85 90 f5 ff ff 	lea    -0xa70(%rbp),%rax
    ecab:	48 89 85 60 f9 ff ff 	mov    %rax,-0x6a0(%rbp)
    ecb2:	48 8d 85 90 f5 ff ff 	lea    -0xa70(%rbp),%rax
    ecb9:	48 89 85 68 f9 ff ff 	mov    %rax,-0x698(%rbp)
    ecc0:	48 8d 05 31 8c 00 00 	lea    0x8c31(%rip),%rax        # 178f8 <g_268>
    ecc7:	48 89 85 70 f9 ff ff 	mov    %rax,-0x690(%rbp)
    ecce:	48 8d 85 90 f5 ff ff 	lea    -0xa70(%rbp),%rax
    ecd5:	48 89 85 78 f9 ff ff 	mov    %rax,-0x688(%rbp)
    ecdc:	48 c7 85 80 f9 ff ff 	movq   $0x0,-0x680(%rbp)
    ece3:	00 00 00 00 
    ece7:	48 8d 85 90 f5 ff ff 	lea    -0xa70(%rbp),%rax
    ecee:	48 89 85 88 f9 ff ff 	mov    %rax,-0x678(%rbp)
    ecf5:	48 8d 05 fc 8b 00 00 	lea    0x8bfc(%rip),%rax        # 178f8 <g_268>
    ecfc:	48 89 85 90 f9 ff ff 	mov    %rax,-0x670(%rbp)
    ed03:	48 8d 85 90 f5 ff ff 	lea    -0xa70(%rbp),%rax
    ed0a:	48 89 85 98 f9 ff ff 	mov    %rax,-0x668(%rbp)
    ed11:	48 8d 85 00 f9 ff ff 	lea    -0x700(%rbp),%rax
    ed18:	48 05 98 00 00 00    	add    $0x98,%rax
    ed1e:	48 89 85 a0 f6 ff ff 	mov    %rax,-0x960(%rbp)
    ed25:	48 8b 85 a0 f6 ff ff 	mov    -0x960(%rbp),%rax
    ed2c:	48 8d 95 90 f5 ff ff 	lea    -0xa70(%rbp),%rdx
    ed33:	48 89 10             	mov    %rdx,(%rax)
    ed36:	48 8b 85 f0 f4 ff ff 	mov    -0xb10(%rbp),%rax
    ed3d:	8b 00                	mov    (%rax),%eax
    ed3f:	89 85 f8 f4 ff ff    	mov    %eax,-0xb08(%rbp)
    ed45:	8b 05 f5 63 00 00    	mov    0x63f5(%rip),%eax        # 15140 <g_128>
    ed4b:	83 e8 01             	sub    $0x1,%eax
    ed4e:	89 05 ec 63 00 00    	mov    %eax,0x63ec(%rip)        # 15140 <g_128>
    ed54:	8b 05 e6 63 00 00    	mov    0x63e6(%rip),%eax        # 15140 <g_128>
    ed5a:	85 c0                	test   %eax,%eax
    ed5c:	0f 89 a0 fe ff ff    	jns    ec02 <func_88+0xef2>
    ed62:	8b 15 20 64 00 00    	mov    0x6420(%rip),%edx        # 15188 <g_258+0x8>
    ed68:	0f b6 05 e1 63 00 00 	movzbl 0x63e1(%rip),%eax        # 15150 <g_152>
    ed6f:	0f b6 c0             	movzbl %al,%eax
    ed72:	39 c2                	cmp    %eax,%edx
    ed74:	0f 9d c0             	setge  %al
    ed77:	0f b6 d8             	movzbl %al,%ebx
    ed7a:	be 0b 00 00 00       	mov    $0xb,%esi
    ed7f:	bf f6 ff ff ff       	mov    $0xfffffff6,%edi
    ed84:	e8 da 77 ff ff       	callq  6563 <safe_rshift_func_int16_t_s_u>
    ed89:	0f b7 c0             	movzwl %ax,%eax
    ed8c:	89 de                	mov    %ebx,%esi
    ed8e:	89 c7                	mov    %eax,%edi
    ed90:	e8 e5 80 ff ff       	callq  6e7a <safe_rshift_func_uint16_t_u_u>
    ed95:	44 0f b7 e8          	movzwl %ax,%r13d
    ed99:	8b 85 f8 f4 ff ff    	mov    -0xb08(%rbp),%eax
    ed9f:	0f be d8             	movsbl %al,%ebx
    eda2:	8b 85 f8 f4 ff ff    	mov    -0xb08(%rbp),%eax
    eda8:	f7 d0                	not    %eax
    edaa:	be 4e 5e 6c 7e       	mov    $0x7e6c5e4e,%esi
    edaf:	89 c7                	mov    %eax,%edi
    edb1:	e8 4f 78 ff ff       	callq  6605 <safe_sub_func_int32_t_s_s>
    edb6:	44 0f b6 b5 07 f5 ff 	movzbl -0xaf9(%rbp),%r14d
    edbd:	ff 
    edbe:	44 0f be a5 fc f4 ff 	movsbl -0xb04(%rbp),%r12d
    edc5:	ff 
    edc6:	0f b6 85 fc f4 ff ff 	movzbl -0xb04(%rbp),%eax
    edcd:	0f b6 c0             	movzbl %al,%eax
    edd0:	be 06 00 00 00       	mov    $0x6,%esi
    edd5:	89 c7                	mov    %eax,%edi
    edd7:	e8 ff 7d ff ff       	callq  6bdb <safe_div_func_uint8_t_u_u>
    eddc:	0f be c0             	movsbl %al,%eax
    eddf:	44 89 e6             	mov    %r12d,%esi
    ede2:	89 c7                	mov    %eax,%edi
    ede4:	e8 eb 73 ff ff       	callq  61d4 <safe_add_func_int8_t_s_s>
    ede9:	0a 85 fc f4 ff ff    	or     -0xb04(%rbp),%al
    edef:	0f be c0             	movsbl %al,%eax
    edf2:	41 39 c6             	cmp    %eax,%r14d
    edf5:	0f 9e c0             	setle  %al
    edf8:	0f b6 d0             	movzbl %al,%edx
    edfb:	0f b6 05 4e 63 00 00 	movzbl 0x634e(%rip),%eax        # 15150 <g_152>
    ee02:	0f b6 c0             	movzbl %al,%eax
    ee05:	39 c2                	cmp    %eax,%edx
    ee07:	0f 9d c0             	setge  %al
    ee0a:	0f b6 c0             	movzbl %al,%eax
    ee0d:	be 48 00 00 00       	mov    $0x48,%esi
    ee12:	89 c7                	mov    %eax,%edi
    ee14:	e8 bb 73 ff ff       	callq  61d4 <safe_add_func_int8_t_s_s>
    ee19:	84 c0                	test   %al,%al
    ee1b:	0f 95 c0             	setne  %al
    ee1e:	0f b6 c0             	movzbl %al,%eax
    ee21:	89 de                	mov    %ebx,%esi
    ee23:	89 c7                	mov    %eax,%edi
    ee25:	e8 07 74 ff ff       	callq  6231 <safe_mod_func_int8_t_s_s>
    ee2a:	0f be c0             	movsbl %al,%eax
    ee2d:	41 39 c5             	cmp    %eax,%r13d
    ee30:	0f 94 c0             	sete   %al
    ee33:	0f b6 d0             	movzbl %al,%edx
    ee36:	48 8b 05 d3 78 00 00 	mov    0x78d3(%rip),%rax        # 16710 <g_229>
    ee3d:	48 8b 08             	mov    (%rax),%rcx
    ee40:	48 63 d2             	movslq %edx,%rdx
    ee43:	48 8b 05 c6 78 00 00 	mov    0x78c6(%rip),%rax        # 16710 <g_229>
    ee4a:	48 09 ca             	or     %rcx,%rdx
    ee4d:	48 89 10             	mov    %rdx,(%rax)
    ee50:	48 8b 00             	mov    (%rax),%rax
    ee53:	48 85 c0             	test   %rax,%rax
    ee56:	74 0c                	je     ee64 <func_88+0x1154>
    ee58:	48 8d 05 89 8a 00 00 	lea    0x8a89(%rip),%rax        # 178e8 <g_10>
    ee5f:	e9 c8 08 00 00       	jmpq   f72c <func_88+0x1a1c>
    ee64:	c7 85 24 f5 ff ff 7f 	movl   $0xfd24687f,-0xadc(%rbp)
    ee6b:	68 24 fd 
    ee6e:	c7 85 28 f5 ff ff 00 	movl   $0x0,-0xad8(%rbp)
    ee75:	00 00 00 
    ee78:	eb 45                	jmp    eebf <func_88+0x11af>
    ee7a:	c7 85 2c f5 ff ff 00 	movl   $0x0,-0xad4(%rbp)
    ee81:	00 00 00 
    ee84:	eb 29                	jmp    eeaf <func_88+0x119f>
    ee86:	8b 85 2c f5 ff ff    	mov    -0xad4(%rbp),%eax
    ee8c:	48 98                	cltq   
    ee8e:	8b 95 28 f5 ff ff    	mov    -0xad8(%rbp),%edx
    ee94:	48 63 d2             	movslq %edx,%rdx
    ee97:	48 01 d2             	add    %rdx,%rdx
    ee9a:	48 01 d0             	add    %rdx,%rax
    ee9d:	c7 84 85 00 f9 ff ff 	movl   $0x9eab1e02,-0x700(%rbp,%rax,4)
    eea4:	02 1e ab 9e 
    eea8:	83 85 2c f5 ff ff 01 	addl   $0x1,-0xad4(%rbp)
    eeaf:	83 bd 2c f5 ff ff 01 	cmpl   $0x1,-0xad4(%rbp)
    eeb6:	7e ce                	jle    ee86 <func_88+0x1176>
    eeb8:	83 85 28 f5 ff ff 01 	addl   $0x1,-0xad8(%rbp)
    eebf:	83 bd 28 f5 ff ff 01 	cmpl   $0x1,-0xad8(%rbp)
    eec6:	7e b2                	jle    ee7a <func_88+0x116a>
    eec8:	c7 85 0c f5 ff ff 00 	movl   $0x0,-0xaf4(%rbp)
    eecf:	00 00 00 
    eed2:	eb 7b                	jmp    ef4f <func_88+0x123f>
    eed4:	48 8b 05 2d 78 00 00 	mov    0x782d(%rip),%rax        # 16708 <g_119>
    eedb:	8b 95 0c f5 ff ff    	mov    -0xaf4(%rbp),%edx
    eee1:	8d 4a 02             	lea    0x2(%rdx),%ecx
    eee4:	0f be 95 fc f4 ff ff 	movsbl -0xb04(%rbp),%edx
    eeeb:	48 8b 30             	mov    (%rax),%rsi
    eeee:	48 63 fa             	movslq %edx,%rdi
    eef1:	8b 85 0c f5 ff ff    	mov    -0xaf4(%rbp),%eax
    eef7:	48 98                	cltq   
    eef9:	48 63 c9             	movslq %ecx,%rcx
    eefc:	48 89 c2             	mov    %rax,%rdx
    eeff:	48 01 d2             	add    %rdx,%rdx
    ef02:	48 01 c2             	add    %rax,%rdx
    ef05:	48 89 d0             	mov    %rdx,%rax
    ef08:	48 c1 e0 04          	shl    $0x4,%rax
    ef0c:	48 89 c2             	mov    %rax,%rdx
    ef0f:	48 89 c8             	mov    %rcx,%rax
    ef12:	48 01 c0             	add    %rax,%rax
    ef15:	48 01 c8             	add    %rcx,%rax
    ef18:	48 01 c0             	add    %rax,%rax
    ef1b:	48 01 d0             	add    %rdx,%rax
    ef1e:	48 01 f8             	add    %rdi,%rax
    ef21:	48 8d 14 c5 00 00 00 	lea    0x0(,%rax,8),%rdx
    ef28:	00 
    ef29:	48 8d 05 50 73 00 00 	lea    0x7350(%rip),%rax        # 16280 <g_105>
    ef30:	48 89 34 02          	mov    %rsi,(%rdx,%rax,1)
    ef34:	83 ad 24 f5 ff ff 01 	subl   $0x1,-0xadc(%rbp)
    ef3b:	48 8b 85 f0 f4 ff ff 	mov    -0xb10(%rbp),%rax
    ef42:	8b 00                	mov    (%rax),%eax
    ef44:	85 c0                	test   %eax,%eax
    ef46:	75 16                	jne    ef5e <func_88+0x124e>
    ef48:	83 85 0c f5 ff ff 01 	addl   $0x1,-0xaf4(%rbp)
    ef4f:	83 bd 0c f5 ff ff 02 	cmpl   $0x2,-0xaf4(%rbp)
    ef56:	0f 8e 78 ff ff ff    	jle    eed4 <func_88+0x11c4>
    ef5c:	eb 01                	jmp    ef5f <func_88+0x124f>
    ef5e:	90                   	nop
    ef5f:	0f b6 45 c6          	movzbl -0x3a(%rbp),%eax
    ef63:	83 e8 01             	sub    $0x1,%eax
    ef66:	88 45 c6             	mov    %al,-0x3a(%rbp)
    ef69:	c6 85 04 f5 ff ff eb 	movb   $0xeb,-0xafc(%rbp)
    ef70:	e9 7c 05 00 00       	jmpq   f4f1 <func_88+0x17e1>
    ef75:	48 c7 85 c0 f6 ff ff 	movq   $0x0,-0x940(%rbp)
    ef7c:	00 00 00 00 
    ef80:	48 8d 85 08 f5 ff ff 	lea    -0xaf8(%rbp),%rax
    ef87:	48 89 85 c8 f6 ff ff 	mov    %rax,-0x938(%rbp)
    ef8e:	c7 85 b0 f7 ff ff cc 	movl   $0xee2369cc,-0x850(%rbp)
    ef95:	69 23 ee 
    ef98:	c7 85 b4 f7 ff ff 2f 	movl   $0x1e15542f,-0x84c(%rbp)
    ef9f:	54 15 1e 
    efa2:	c7 85 b8 f7 ff ff 7e 	movl   $0x8950067e,-0x848(%rbp)
    efa9:	06 50 89 
    efac:	c7 85 bc f7 ff ff 2f 	movl   $0x1e15542f,-0x844(%rbp)
    efb3:	54 15 1e 
    efb6:	c7 85 c0 f7 ff ff cc 	movl   $0xee2369cc,-0x840(%rbp)
    efbd:	69 23 ee 
    efc0:	c7 85 c4 f7 ff ff cc 	movl   $0xee2369cc,-0x83c(%rbp)
    efc7:	69 23 ee 
    efca:	c7 85 c8 f7 ff ff 2f 	movl   $0x1e15542f,-0x838(%rbp)
    efd1:	54 15 1e 
    efd4:	c7 85 cc f7 ff ff 7e 	movl   $0x8950067e,-0x834(%rbp)
    efdb:	06 50 89 
    efde:	c7 85 d0 f7 ff ff 2f 	movl   $0x1e15542f,-0x830(%rbp)
    efe5:	54 15 1e 
    efe8:	c7 85 d4 f7 ff ff cc 	movl   $0xee2369cc,-0x82c(%rbp)
    efef:	69 23 ee 
    eff2:	c7 85 80 f8 ff ff f3 	movl   $0xc40eb8f3,-0x780(%rbp)
    eff9:	b8 0e c4 
    effc:	c7 85 84 f8 ff ff 69 	movl   $0x7403a069,-0x77c(%rbp)
    f003:	a0 03 74 
    f006:	c7 85 88 f8 ff ff 01 	movl   $0x4811ce01,-0x778(%rbp)
    f00d:	ce 11 48 
    f010:	c7 85 8c f8 ff ff 69 	movl   $0x7403a069,-0x774(%rbp)
    f017:	a0 03 74 
    f01a:	c7 85 90 f8 ff ff f3 	movl   $0xc40eb8f3,-0x770(%rbp)
    f021:	b8 0e c4 
    f024:	c7 85 94 f8 ff ff f3 	movl   $0xc40eb8f3,-0x76c(%rbp)
    f02b:	b8 0e c4 
    f02e:	c7 85 98 f8 ff ff 69 	movl   $0x7403a069,-0x768(%rbp)
    f035:	a0 03 74 
    f038:	c7 85 9c f8 ff ff 01 	movl   $0x4811ce01,-0x764(%rbp)
    f03f:	ce 11 48 
    f042:	c7 85 a0 f8 ff ff 69 	movl   $0x7403a069,-0x760(%rbp)
    f049:	a0 03 74 
    f04c:	c7 85 a4 f8 ff ff f3 	movl   $0xc40eb8f3,-0x75c(%rbp)
    f053:	b8 0e c4 
    f056:	c7 85 a8 f8 ff ff f3 	movl   $0xc40eb8f3,-0x758(%rbp)
    f05d:	b8 0e c4 
    f060:	c7 85 ac f8 ff ff 69 	movl   $0x7403a069,-0x754(%rbp)
    f067:	a0 03 74 
    f06a:	c7 85 b0 f8 ff ff 01 	movl   $0x4811ce01,-0x750(%rbp)
    f071:	ce 11 48 
    f074:	c7 85 b4 f8 ff ff 69 	movl   $0x7403a069,-0x74c(%rbp)
    f07b:	a0 03 74 
    f07e:	c7 85 b8 f8 ff ff f3 	movl   $0xc40eb8f3,-0x748(%rbp)
    f085:	b8 0e c4 
    f088:	c7 85 bc f8 ff ff f3 	movl   $0xc40eb8f3,-0x744(%rbp)
    f08f:	b8 0e c4 
    f092:	c7 85 c0 f8 ff ff 69 	movl   $0x7403a069,-0x740(%rbp)
    f099:	a0 03 74 
    f09c:	c7 85 c4 f8 ff ff 01 	movl   $0x4811ce01,-0x73c(%rbp)
    f0a3:	ce 11 48 
    f0a6:	c7 85 c8 f8 ff ff 69 	movl   $0x7403a069,-0x738(%rbp)
    f0ad:	a0 03 74 
    f0b0:	c7 85 cc f8 ff ff f3 	movl   $0xc40eb8f3,-0x734(%rbp)
    f0b7:	b8 0e c4 
    f0ba:	c7 85 d0 f8 ff ff f3 	movl   $0xc40eb8f3,-0x730(%rbp)
    f0c1:	b8 0e c4 
    f0c4:	c7 85 d4 f8 ff ff 69 	movl   $0x7403a069,-0x72c(%rbp)
    f0cb:	a0 03 74 
    f0ce:	c7 85 d8 f8 ff ff 01 	movl   $0x4811ce01,-0x728(%rbp)
    f0d5:	ce 11 48 
    f0d8:	c7 85 dc f8 ff ff 69 	movl   $0x7403a069,-0x724(%rbp)
    f0df:	a0 03 74 
    f0e2:	c7 85 e0 f8 ff ff f3 	movl   $0xc40eb8f3,-0x720(%rbp)
    f0e9:	b8 0e c4 
    f0ec:	c7 85 e4 f8 ff ff f3 	movl   $0xc40eb8f3,-0x71c(%rbp)
    f0f3:	b8 0e c4 
    f0f6:	c7 85 e8 f8 ff ff 69 	movl   $0x7403a069,-0x718(%rbp)
    f0fd:	a0 03 74 
    f100:	c7 85 ec f8 ff ff 01 	movl   $0x4811ce01,-0x714(%rbp)
    f107:	ce 11 48 
    f10a:	c7 85 f0 f8 ff ff 69 	movl   $0x7403a069,-0x710(%rbp)
    f111:	a0 03 74 
    f114:	c7 85 f4 f8 ff ff f3 	movl   $0xc40eb8f3,-0x70c(%rbp)
    f11b:	b8 0e c4 
    f11e:	48 8d 85 90 f7 ff ff 	lea    -0x870(%rbp),%rax
    f125:	48 83 c0 18          	add    $0x18,%rax
    f129:	48 89 85 d0 f6 ff ff 	mov    %rax,-0x930(%rbp)
    f130:	48 8d 85 05 f5 ff ff 	lea    -0xafb(%rbp),%rax
    f137:	48 89 85 30 f8 ff ff 	mov    %rax,-0x7d0(%rbp)
    f13e:	48 8d 85 05 f5 ff ff 	lea    -0xafb(%rbp),%rax
    f145:	48 89 85 38 f8 ff ff 	mov    %rax,-0x7c8(%rbp)
    f14c:	48 8d 85 05 f5 ff ff 	lea    -0xafb(%rbp),%rax
    f153:	48 89 85 40 f8 ff ff 	mov    %rax,-0x7c0(%rbp)
    f15a:	48 8d 85 05 f5 ff ff 	lea    -0xafb(%rbp),%rax
    f161:	48 89 85 48 f8 ff ff 	mov    %rax,-0x7b8(%rbp)
    f168:	48 8d 85 05 f5 ff ff 	lea    -0xafb(%rbp),%rax
    f16f:	48 89 85 50 f8 ff ff 	mov    %rax,-0x7b0(%rbp)
    f176:	48 8d 85 05 f5 ff ff 	lea    -0xafb(%rbp),%rax
    f17d:	48 89 85 58 f8 ff ff 	mov    %rax,-0x7a8(%rbp)
    f184:	48 8d 85 05 f5 ff ff 	lea    -0xafb(%rbp),%rax
    f18b:	48 89 85 60 f8 ff ff 	mov    %rax,-0x7a0(%rbp)
    f192:	48 8d 85 05 f5 ff ff 	lea    -0xafb(%rbp),%rax
    f199:	48 89 85 68 f8 ff ff 	mov    %rax,-0x798(%rbp)
    f1a0:	48 8d 85 90 f5 ff ff 	lea    -0xa70(%rbp),%rax
    f1a7:	48 89 85 d8 f6 ff ff 	mov    %rax,-0x928(%rbp)
    f1ae:	48 8d 85 90 f5 ff ff 	lea    -0xa70(%rbp),%rax
    f1b5:	48 89 85 00 f9 ff ff 	mov    %rax,-0x700(%rbp)
    f1bc:	48 c7 85 08 f9 ff ff 	movq   $0x0,-0x6f8(%rbp)
    f1c3:	00 00 00 00 
    f1c7:	48 8d 85 90 f5 ff ff 	lea    -0xa70(%rbp),%rax
    f1ce:	48 89 85 10 f9 ff ff 	mov    %rax,-0x6f0(%rbp)
    f1d5:	48 8d 85 90 f5 ff ff 	lea    -0xa70(%rbp),%rax
    f1dc:	48 89 85 18 f9 ff ff 	mov    %rax,-0x6e8(%rbp)
    f1e3:	48 8d 05 0e 87 00 00 	lea    0x870e(%rip),%rax        # 178f8 <g_268>
    f1ea:	48 89 85 20 f9 ff ff 	mov    %rax,-0x6e0(%rbp)
    f1f1:	48 8d 85 90 f5 ff ff 	lea    -0xa70(%rbp),%rax
    f1f8:	48 89 85 28 f9 ff ff 	mov    %rax,-0x6d8(%rbp)
    f1ff:	48 c7 85 30 f9 ff ff 	movq   $0x0,-0x6d0(%rbp)
    f206:	00 00 00 00 
    f20a:	48 8d 85 90 f5 ff ff 	lea    -0xa70(%rbp),%rax
    f211:	48 89 85 38 f9 ff ff 	mov    %rax,-0x6c8(%rbp)
    f218:	48 c7 85 40 f9 ff ff 	movq   $0x0,-0x6c0(%rbp)
    f21f:	00 00 00 00 
    f223:	48 8d 05 ce 86 00 00 	lea    0x86ce(%rip),%rax        # 178f8 <g_268>
    f22a:	48 89 85 48 f9 ff ff 	mov    %rax,-0x6b8(%rbp)
    f231:	48 c7 85 50 f9 ff ff 	movq   $0x0,-0x6b0(%rbp)
    f238:	00 00 00 00 
    f23c:	48 c7 85 58 f9 ff ff 	movq   $0x0,-0x6a8(%rbp)
    f243:	00 00 00 00 
    f247:	48 8d 85 90 f5 ff ff 	lea    -0xa70(%rbp),%rax
    f24e:	48 89 85 60 f9 ff ff 	mov    %rax,-0x6a0(%rbp)
    f255:	48 8d 05 9c 86 00 00 	lea    0x869c(%rip),%rax        # 178f8 <g_268>
    f25c:	48 89 85 68 f9 ff ff 	mov    %rax,-0x698(%rbp)
    f263:	48 8d 85 90 f5 ff ff 	lea    -0xa70(%rbp),%rax
    f26a:	48 89 85 70 f9 ff ff 	mov    %rax,-0x690(%rbp)
    f271:	48 8d 85 90 f5 ff ff 	lea    -0xa70(%rbp),%rax
    f278:	48 89 85 78 f9 ff ff 	mov    %rax,-0x688(%rbp)
    f27f:	48 8d 05 72 86 00 00 	lea    0x8672(%rip),%rax        # 178f8 <g_268>
    f286:	48 89 85 80 f9 ff ff 	mov    %rax,-0x680(%rbp)
    f28d:	48 8d 85 90 f5 ff ff 	lea    -0xa70(%rbp),%rax
    f294:	48 89 85 88 f9 ff ff 	mov    %rax,-0x678(%rbp)
    f29b:	48 c7 85 90 f9 ff ff 	movq   $0x0,-0x670(%rbp)
    f2a2:	00 00 00 00 
    f2a6:	48 c7 85 98 f9 ff ff 	movq   $0x0,-0x668(%rbp)
    f2ad:	00 00 00 00 
    f2b1:	48 8d 85 90 f5 ff ff 	lea    -0xa70(%rbp),%rax
    f2b8:	48 89 85 a0 f9 ff ff 	mov    %rax,-0x660(%rbp)
    f2bf:	48 8d 85 90 f5 ff ff 	lea    -0xa70(%rbp),%rax
    f2c6:	48 89 85 a8 f9 ff ff 	mov    %rax,-0x658(%rbp)
    f2cd:	48 8d 85 90 f5 ff ff 	lea    -0xa70(%rbp),%rax
    f2d4:	48 89 85 b0 f9 ff ff 	mov    %rax,-0x650(%rbp)
    f2db:	48 8d 85 90 f5 ff ff 	lea    -0xa70(%rbp),%rax
    f2e2:	48 89 85 b8 f9 ff ff 	mov    %rax,-0x648(%rbp)
    f2e9:	48 c7 85 c0 f9 ff ff 	movq   $0x0,-0x640(%rbp)
    f2f0:	00 00 00 00 
    f2f4:	48 8d 85 90 f5 ff ff 	lea    -0xa70(%rbp),%rax
    f2fb:	48 89 85 c8 f9 ff ff 	mov    %rax,-0x638(%rbp)
    f302:	48 8d 85 90 f5 ff ff 	lea    -0xa70(%rbp),%rax
    f309:	48 89 85 d0 f9 ff ff 	mov    %rax,-0x630(%rbp)
    f310:	48 c7 85 d8 f9 ff ff 	movq   $0x0,-0x628(%rbp)
    f317:	00 00 00 00 
    f31b:	48 8d 85 90 f5 ff ff 	lea    -0xa70(%rbp),%rax
    f322:	48 89 85 e0 f9 ff ff 	mov    %rax,-0x620(%rbp)
    f329:	48 8d 85 90 f5 ff ff 	lea    -0xa70(%rbp),%rax
    f330:	48 89 85 e8 f9 ff ff 	mov    %rax,-0x618(%rbp)
    f337:	48 c7 85 f0 f9 ff ff 	movq   $0x0,-0x610(%rbp)
    f33e:	00 00 00 00 
    f342:	48 c7 85 f8 f9 ff ff 	movq   $0x0,-0x608(%rbp)
    f349:	00 00 00 00 
    f34d:	48 8d 85 90 f5 ff ff 	lea    -0xa70(%rbp),%rax
    f354:	48 89 85 00 fa ff ff 	mov    %rax,-0x600(%rbp)
    f35b:	48 c7 85 08 fa ff ff 	movq   $0x0,-0x5f8(%rbp)
    f362:	00 00 00 00 
    f366:	48 c7 85 10 fa ff ff 	movq   $0x0,-0x5f0(%rbp)
    f36d:	00 00 00 00 
    f371:	48 c7 85 18 fa ff ff 	movq   $0x0,-0x5e8(%rbp)
    f378:	00 00 00 00 
    f37c:	48 8d 85 90 f5 ff ff 	lea    -0xa70(%rbp),%rax
    f383:	48 89 85 20 fa ff ff 	mov    %rax,-0x5e0(%rbp)
    f38a:	48 c7 85 28 fa ff ff 	movq   $0x0,-0x5d8(%rbp)
    f391:	00 00 00 00 
    f395:	48 c7 85 30 fa ff ff 	movq   $0x0,-0x5d0(%rbp)
    f39c:	00 00 00 00 
    f3a0:	48 8d 85 90 f5 ff ff 	lea    -0xa70(%rbp),%rax
    f3a7:	48 89 85 38 fa ff ff 	mov    %rax,-0x5c8(%rbp)
    f3ae:	48 c7 85 40 fa ff ff 	movq   $0x0,-0x5c0(%rbp)
    f3b5:	00 00 00 00 
    f3b9:	48 c7 85 48 fa ff ff 	movq   $0x0,-0x5b8(%rbp)
    f3c0:	00 00 00 00 
    f3c4:	48 8d 85 90 f5 ff ff 	lea    -0xa70(%rbp),%rax
    f3cb:	48 89 85 50 fa ff ff 	mov    %rax,-0x5b0(%rbp)
    f3d2:	48 8d 05 1f 85 00 00 	lea    0x851f(%rip),%rax        # 178f8 <g_268>
    f3d9:	48 89 85 58 fa ff ff 	mov    %rax,-0x5a8(%rbp)
    f3e0:	48 8d 85 90 f5 ff ff 	lea    -0xa70(%rbp),%rax
    f3e7:	48 89 85 60 fa ff ff 	mov    %rax,-0x5a0(%rbp)
    f3ee:	48 c7 85 68 fa ff ff 	movq   $0x0,-0x598(%rbp)
    f3f5:	00 00 00 00 
    f3f9:	48 8d 05 f8 84 00 00 	lea    0x84f8(%rip),%rax        # 178f8 <g_268>
    f400:	48 89 85 70 fa ff ff 	mov    %rax,-0x590(%rbp)
    f407:	48 8d 85 90 f5 ff ff 	lea    -0xa70(%rbp),%rax
    f40e:	48 89 85 78 fa ff ff 	mov    %rax,-0x588(%rbp)
    f415:	48 8d 85 90 f5 ff ff 	lea    -0xa70(%rbp),%rax
    f41c:	48 89 85 80 fa ff ff 	mov    %rax,-0x580(%rbp)
    f423:	48 8d 85 90 f5 ff ff 	lea    -0xa70(%rbp),%rax
    f42a:	48 89 85 88 fa ff ff 	mov    %rax,-0x578(%rbp)
    f431:	c7 85 5c f5 ff ff 01 	movl   $0x1,-0xaa4(%rbp)
    f438:	00 00 00 
    f43b:	48 8d 05 c6 72 00 00 	lea    0x72c6(%rip),%rax        # 16708 <g_119>
    f442:	48 89 85 e0 f6 ff ff 	mov    %rax,-0x920(%rbp)
    f449:	66 c7 85 04 f7 ff ff 	movw   $0xb573,-0x8fc(%rbp)
    f450:	73 b5 
    f452:	66 c7 85 06 f7 ff ff 	movw   $0x517,-0x8fa(%rbp)
    f459:	17 05 
    f45b:	66 c7 85 08 f7 ff ff 	movw   $0xb573,-0x8f8(%rbp)
    f462:	73 b5 
    f464:	66 c7 85 0a f7 ff ff 	movw   $0xb573,-0x8f6(%rbp)
    f46b:	73 b5 
    f46d:	66 c7 85 0c f7 ff ff 	movw   $0x517,-0x8f4(%rbp)
    f474:	17 05 
    f476:	66 c7 85 0e f7 ff ff 	movw   $0xb573,-0x8f2(%rbp)
    f47d:	73 b5 
    f47f:	c7 85 30 f5 ff ff 00 	movl   $0x0,-0xad0(%rbp)
    f486:	00 00 00 
    f489:	eb 4d                	jmp    f4d8 <func_88+0x17c8>
    f48b:	c7 85 34 f5 ff ff 00 	movl   $0x0,-0xacc(%rbp)
    f492:	00 00 00 
    f495:	eb 31                	jmp    f4c8 <func_88+0x17b8>
    f497:	8b 85 34 f5 ff ff    	mov    -0xacc(%rbp),%eax
    f49d:	48 63 c8             	movslq %eax,%rcx
    f4a0:	8b 85 30 f5 ff ff    	mov    -0xad0(%rbp),%eax
    f4a6:	48 63 d0             	movslq %eax,%rdx
    f4a9:	48 89 d0             	mov    %rdx,%rax
    f4ac:	48 c1 e0 03          	shl    $0x3,%rax
    f4b0:	48 29 d0             	sub    %rdx,%rax
    f4b3:	48 01 c8             	add    %rcx,%rax
    f4b6:	c7 84 85 50 f7 ff ff 	movl   $0xffffffff,-0x8b0(%rbp,%rax,4)
    f4bd:	ff ff ff ff 
    f4c1:	83 85 34 f5 ff ff 01 	addl   $0x1,-0xacc(%rbp)
    f4c8:	83 bd 34 f5 ff ff 06 	cmpl   $0x6,-0xacc(%rbp)
    f4cf:	7e c6                	jle    f497 <func_88+0x1787>
    f4d1:	83 85 30 f5 ff ff 01 	addl   $0x1,-0xad0(%rbp)
    f4d8:	83 bd 30 f5 ff ff 00 	cmpl   $0x0,-0xad0(%rbp)
    f4df:	7e aa                	jle    f48b <func_88+0x177b>
    f4e1:	0f b6 85 04 f5 ff ff 	movzbl -0xafc(%rbp),%eax
    f4e8:	83 c0 01             	add    $0x1,%eax
    f4eb:	88 85 04 f5 ff ff    	mov    %al,-0xafc(%rbp)
    f4f1:	0f b6 85 04 f5 ff ff 	movzbl -0xafc(%rbp),%eax
    f4f8:	3c 1c                	cmp    $0x1c,%al
    f4fa:	0f 85 75 fa ff ff    	jne    ef75 <func_88+0x1265>
    f500:	48 8b 85 e8 f5 ff ff 	mov    -0xa18(%rbp),%rax
    f507:	8b 00                	mov    (%rax),%eax
    f509:	0f bf d8             	movswl %ax,%ebx
    f50c:	44 0f be a5 fc f4 ff 	movsbl -0xb04(%rbp),%r12d
    f513:	ff 
    f514:	48 8b 85 98 f5 ff ff 	mov    -0xa68(%rbp),%rax
    f51b:	8b 95 f8 f4 ff ff    	mov    -0xb08(%rbp),%edx
    f521:	48 63 d2             	movslq %edx,%rdx
    f524:	48 89 10             	mov    %rdx,(%rax)
    f527:	4c 8b 38             	mov    (%rax),%r15
    f52a:	0f be 85 fc f4 ff ff 	movsbl -0xb04(%rbp),%eax
    f531:	be 04 00 00 00       	mov    $0x4,%esi
    f536:	89 c7                	mov    %eax,%edi
    f538:	e8 f8 6d ff ff       	callq  6335 <safe_rshift_func_int8_t_s_s>
    f53d:	0f be c0             	movsbl %al,%eax
    f540:	89 85 ec f4 ff ff    	mov    %eax,-0xb14(%rbp)
    f546:	44 0f be ad fc f4 ff 	movsbl -0xb04(%rbp),%r13d
    f54d:	ff 
    f54e:	8b 85 f8 f4 ff ff    	mov    -0xb08(%rbp),%eax
    f554:	44 0f b7 f0          	movzwl %ax,%r14d
    f558:	48 8b 05 09 6d 00 00 	mov    0x6d09(%rip),%rax        # 16268 <g_46>
    f55f:	8b 10                	mov    (%rax),%edx
    f561:	48 8b 85 f0 f4 ff ff 	mov    -0xb10(%rbp),%rax
    f568:	8b 00                	mov    (%rax),%eax
    f56a:	89 d6                	mov    %edx,%esi
    f56c:	89 c7                	mov    %eax,%edi
    f56e:	e8 8c 71 ff ff       	callq  66ff <safe_div_func_int32_t_s_s>
    f573:	0f b6 d0             	movzbl %al,%edx
    f576:	0f b6 05 73 83 00 00 	movzbl 0x8373(%rip),%eax        # 178f0 <g_210>
    f57d:	88 05 6d 83 00 00    	mov    %al,0x836d(%rip)        # 178f0 <g_210>
    f583:	0f b6 05 66 83 00 00 	movzbl 0x8366(%rip),%eax        # 178f0 <g_210>
    f58a:	0f b6 c0             	movzbl %al,%eax
    f58d:	89 d6                	mov    %edx,%esi
    f58f:	89 c7                	mov    %eax,%edi
    f591:	e8 c4 75 ff ff       	callq  6b5a <safe_add_func_uint8_t_u_u>
    f596:	84 c0                	test   %al,%al
    f598:	0f 95 85 ff f4 ff ff 	setne  -0xb01(%rbp)
    f59f:	48 8b 85 f0 f4 ff ff 	mov    -0xb10(%rbp),%rax
    f5a6:	8b 00                	mov    (%rax),%eax
    f5a8:	48 63 c8             	movslq %eax,%rcx
    f5ab:	48 8b 85 08 f6 ff ff 	mov    -0x9f8(%rbp),%rax
    f5b2:	48 8b 10             	mov    (%rax),%rdx
    f5b5:	48 8b 02             	mov    (%rdx),%rax
    f5b8:	48 8d 70 01          	lea    0x1(%rax),%rsi
    f5bc:	48 89 32             	mov    %rsi,(%rdx)
    f5bf:	48 89 ce             	mov    %rcx,%rsi
    f5c2:	48 89 c7             	mov    %rax,%rdi
    f5c5:	e8 b6 7a ff ff       	callq  7080 <safe_mod_func_uint64_t_u_u>
    f5ca:	48 ba af b8 22 31 71 	movabs $0x80693f713122b8af,%rdx
    f5d1:	3f 69 80 
    f5d4:	48 39 d0             	cmp    %rdx,%rax
    f5d7:	0f 97 c0             	seta   %al
    f5da:	0f b6 d0             	movzbl %al,%edx
    f5dd:	0f b7 05 d8 5b 00 00 	movzwl 0x5bd8(%rip),%eax        # 151bc <g_434>
    f5e4:	0f b7 c0             	movzwl %ax,%eax
    f5e7:	39 c2                	cmp    %eax,%edx
    f5e9:	0f 94 c0             	sete   %al
    f5ec:	32 85 ff f4 ff ff    	xor    -0xb01(%rbp),%al
    f5f2:	0f b6 c0             	movzbl %al,%eax
    f5f5:	39 85 f8 f4 ff ff    	cmp    %eax,-0xb08(%rbp)
    f5fb:	0f 94 c0             	sete   %al
    f5fe:	0f b6 c0             	movzbl %al,%eax
    f601:	44 89 f6             	mov    %r14d,%esi
    f604:	89 c7                	mov    %eax,%edi
    f606:	e8 f4 76 ff ff       	callq  6cff <safe_add_func_uint16_t_u_u>
    f60b:	0f b7 c0             	movzwl %ax,%eax
    f60e:	be f6 ff ff ff       	mov    $0xfffffff6,%esi
    f613:	89 c7                	mov    %eax,%edi
    f615:	e8 9e 78 ff ff       	callq  6eb8 <safe_add_func_uint32_t_u_u>
    f61a:	0f b7 c0             	movzwl %ax,%eax
    f61d:	44 89 ee             	mov    %r13d,%esi
    f620:	89 c7                	mov    %eax,%edi
    f622:	e8 97 77 ff ff       	callq  6dbe <safe_lshift_func_uint16_t_u_s>
    f627:	0f b7 c0             	movzwl %ax,%eax
    f62a:	39 85 ec f4 ff ff    	cmp    %eax,-0xb14(%rbp)
    f630:	0f 9c c0             	setl   %al
    f633:	0f b6 c0             	movzbl %al,%eax
    f636:	49 39 c7             	cmp    %rax,%r15
    f639:	0f 92 c0             	setb   %al
    f63c:	0f b6 c0             	movzbl %al,%eax
    f63f:	be ff ff 00 00       	mov    $0xffff,%esi
    f644:	89 c7                	mov    %eax,%edi
    f646:	e8 11 77 ff ff       	callq  6d5c <safe_mod_func_uint16_t_u_u>
    f64b:	89 c2                	mov    %eax,%edx
    f64d:	8b 85 f8 f4 ff ff    	mov    -0xb08(%rbp),%eax
    f653:	31 d0                	xor    %edx,%eax
    f655:	0f be c0             	movsbl %al,%eax
    f658:	44 89 e6             	mov    %r12d,%esi
    f65b:	89 c7                	mov    %eax,%edi
    f65d:	e8 d3 6c ff ff       	callq  6335 <safe_rshift_func_int8_t_s_s>
    f662:	0f be c0             	movsbl %al,%eax
    f665:	8b 95 f8 f4 ff ff    	mov    -0xb08(%rbp),%edx
    f66b:	89 d6                	mov    %edx,%esi
    f66d:	89 c7                	mov    %eax,%edi
    f66f:	e8 1e 6e ff ff       	callq  6492 <safe_lshift_func_int16_t_s_s>
    f674:	83 bd f8 f4 ff ff 51 	cmpl   $0x51,-0xb08(%rbp)
    f67b:	89 de                	mov    %ebx,%esi
    f67d:	bf 55 37 00 00       	mov    $0x3755,%edi
    f682:	e8 8f 6d ff ff       	callq  6416 <safe_mod_func_int16_t_s_s>
    f687:	48 0f bf c0          	movswq %ax,%rax
    f68b:	48 31 85 b8 f5 ff ff 	xor    %rax,-0xa48(%rbp)
    f692:	48 8b 05 a7 70 00 00 	mov    0x70a7(%rip),%rax        # 16740 <g_361>
    f699:	8b 00                	mov    (%rax),%eax
    f69b:	85 c0                	test   %eax,%eax
    f69d:	75 20                	jne    f6bf <func_88+0x19af>
    f69f:	8b 05 7b 5a 00 00    	mov    0x5a7b(%rip),%eax        # 15120 <g_47>
    f6a5:	83 c0 01             	add    $0x1,%eax
    f6a8:	89 05 72 5a 00 00    	mov    %eax,0x5a72(%rip)        # 15120 <g_47>
    f6ae:	8b 05 6c 5a 00 00    	mov    0x5a6c(%rip),%eax        # 15120 <g_47>
    f6b4:	83 f8 03             	cmp    $0x3,%eax
    f6b7:	0f 8e 57 e9 ff ff    	jle    e014 <func_88+0x304>
    f6bd:	eb 01                	jmp    f6c0 <func_88+0x19b0>
    f6bf:	90                   	nop
    f6c0:	48 8b 05 91 70 00 00 	mov    0x7091(%rip),%rax        # 16758 <g_358>
    f6c7:	48 8b 00             	mov    (%rax),%rax
    f6ca:	48 8b 00             	mov    (%rax),%rax
    f6cd:	48 8b 00             	mov    (%rax),%rax
    f6d0:	48 85 c0             	test   %rax,%rax
    f6d3:	0f 95 c0             	setne  %al
    f6d6:	0f b6 d0             	movzbl %al,%edx
    f6d9:	48 8b 85 e8 f5 ff ff 	mov    -0xa18(%rbp),%rax
    f6e0:	8b 00                	mov    (%rax),%eax
    f6e2:	21 c2                	and    %eax,%edx
    f6e4:	48 8b 85 e8 f5 ff ff 	mov    -0xa18(%rbp),%rax
    f6eb:	89 10                	mov    %edx,(%rax)
    f6ed:	80 ad 06 f5 ff ff 01 	subb   $0x1,-0xafa(%rbp)
    f6f4:	0f b6 85 fc f4 ff ff 	movzbl -0xb04(%rbp),%eax
    f6fb:	83 c0 01             	add    $0x1,%eax
    f6fe:	88 85 fc f4 ff ff    	mov    %al,-0xb04(%rbp)
    f704:	80 bd fc f4 ff ff 03 	cmpb   $0x3,-0xb04(%rbp)
    f70b:	0f 8e 5c e7 ff ff    	jle    de6d <func_88+0x15d>
    f711:	48 8b 85 c0 f5 ff ff 	mov    -0xa40(%rbp),%rax
    f718:	48 8b 10             	mov    (%rax),%rdx
    f71b:	48 8b 85 c0 f5 ff ff 	mov    -0xa40(%rbp),%rax
    f722:	48 89 10             	mov    %rdx,(%rax)
    f725:	48 8d 05 94 6b 00 00 	lea    0x6b94(%rip),%rax        # 162c0 <g_105+0x40>
    f72c:	48 8b 5d c8          	mov    -0x38(%rbp),%rbx
    f730:	64 48 33 1c 25 28 00 	xor    %fs:0x28,%rbx
    f737:	00 00 
    f739:	74 05                	je     f740 <func_88+0x1a30>
    f73b:	e8 30 69 ff ff       	callq  6070 <__stack_chk_fail@plt>
    f740:	48 81 c4 f8 0a 00 00 	add    $0xaf8,%rsp
    f747:	5b                   	pop    %rbx
    f748:	41 5c                	pop    %r12
    f74a:	41 5d                	pop    %r13
    f74c:	41 5e                	pop    %r14
    f74e:	41 5f                	pop    %r15
    f750:	5d                   	pop    %rbp
    f751:	c3                   	retq   

000000000000f752 <main>:
    f752:	f3 0f 1e fa          	endbr64 
    f756:	55                   	push   %rbp
    f757:	48 89 e5             	mov    %rsp,%rbp
    f75a:	48 83 ec 20          	sub    $0x20,%rsp
    f75e:	89 7d ec             	mov    %edi,-0x14(%rbp)
    f761:	48 89 75 e0          	mov    %rsi,-0x20(%rbp)
    f765:	c7 45 fc 00 00 00 00 	movl   $0x0,-0x4(%rbp)
    f76c:	83 7d ec 02          	cmpl   $0x2,-0x14(%rbp)
    f770:	75 25                	jne    f797 <main+0x45>
    f772:	48 8b 45 e0          	mov    -0x20(%rbp),%rax
    f776:	48 83 c0 08          	add    $0x8,%rax
    f77a:	48 8b 00             	mov    (%rax),%rax
    f77d:	48 8d 35 4c 25 00 00 	lea    0x254c(%rip),%rsi        # 11cd0 <g_1811+0x1c7a>
    f784:	48 89 c7             	mov    %rax,%rdi
    f787:	e8 04 69 ff ff       	callq  6090 <strcmp@plt>
    f78c:	85 c0                	test   %eax,%eax
    f78e:	75 07                	jne    f797 <main+0x45>
    f790:	c7 45 fc 01 00 00 00 	movl   $0x1,-0x4(%rbp)
    f797:	e8 ed 69 ff ff       	callq  6189 <platform_main_begin>
    f79c:	e8 f7 7d ff ff       	callq  7598 <crc32_gentab>
    f7a1:	e8 0f 80 ff ff       	callq  77b5 <func_1>
    f7a6:	c7 45 f0 00 00 00 00 	movl   $0x0,-0x10(%rbp)
    f7ad:	e9 9c 00 00 00       	jmpq   f84e <main+0xfc>
    f7b2:	c7 45 f4 00 00 00 00 	movl   $0x0,-0xc(%rbp)
    f7b9:	e9 82 00 00 00       	jmpq   f840 <main+0xee>
    f7be:	c7 45 f8 00 00 00 00 	movl   $0x0,-0x8(%rbp)
    f7c5:	eb 6f                	jmp    f836 <main+0xe4>
    f7c7:	8b 45 f8             	mov    -0x8(%rbp),%eax
    f7ca:	48 63 c8             	movslq %eax,%rcx
    f7cd:	8b 45 f0             	mov    -0x10(%rbp),%eax
    f7d0:	48 63 d0             	movslq %eax,%rdx
    f7d3:	8b 45 f4             	mov    -0xc(%rbp),%eax
    f7d6:	48 98                	cltq   
    f7d8:	48 01 c2             	add    %rax,%rdx
    f7db:	48 89 d0             	mov    %rdx,%rax
    f7de:	48 01 c0             	add    %rax,%rax
    f7e1:	48 01 d0             	add    %rdx,%rax
    f7e4:	48 01 c0             	add    %rax,%rax
    f7e7:	48 01 c8             	add    %rcx,%rax
    f7ea:	48 8d 14 85 00 00 00 	lea    0x0(,%rax,4),%rdx
    f7f1:	00 
    f7f2:	48 8d 05 47 58 00 00 	lea    0x5847(%rip),%rax        # 15040 <g_12>
    f7f9:	8b 04 02             	mov    (%rdx,%rax,1),%eax
    f7fc:	48 98                	cltq   
    f7fe:	8b 55 fc             	mov    -0x4(%rbp),%edx
    f801:	48 8d 35 ca 24 00 00 	lea    0x24ca(%rip),%rsi        # 11cd2 <g_1811+0x1c7c>
    f808:	48 89 c7             	mov    %rax,%rdi
    f80b:	e8 e3 7e ff ff       	callq  76f3 <transparent_crc>
    f810:	83 7d fc 00          	cmpl   $0x0,-0x4(%rbp)
    f814:	74 1c                	je     f832 <main+0xe0>
    f816:	8b 4d f8             	mov    -0x8(%rbp),%ecx
    f819:	8b 55 f4             	mov    -0xc(%rbp),%edx
    f81c:	8b 45 f0             	mov    -0x10(%rbp),%eax
    f81f:	89 c6                	mov    %eax,%esi
    f821:	48 8d 3d b8 24 00 00 	lea    0x24b8(%rip),%rdi        # 11ce0 <g_1811+0x1c8a>
    f828:	b8 00 00 00 00       	mov    $0x0,%eax
    f82d:	e8 4e 68 ff ff       	callq  6080 <printf@plt>
    f832:	83 45 f8 01          	addl   $0x1,-0x8(%rbp)
    f836:	83 7d f8 05          	cmpl   $0x5,-0x8(%rbp)
    f83a:	7e 8b                	jle    f7c7 <main+0x75>
    f83c:	83 45 f4 01          	addl   $0x1,-0xc(%rbp)
    f840:	83 7d f4 00          	cmpl   $0x0,-0xc(%rbp)
    f844:	0f 8e 74 ff ff ff    	jle    f7be <main+0x6c>
    f84a:	83 45 f0 01          	addl   $0x1,-0x10(%rbp)
    f84e:	83 7d f0 08          	cmpl   $0x8,-0x10(%rbp)
    f852:	0f 8e 5a ff ff ff    	jle    f7b2 <main+0x60>
    f858:	8b 05 ba 58 00 00    	mov    0x58ba(%rip),%eax        # 15118 <g_40>
    f85e:	48 98                	cltq   
    f860:	8b 55 fc             	mov    -0x4(%rbp),%edx
    f863:	48 8d 35 8c 24 00 00 	lea    0x248c(%rip),%rsi        # 11cf6 <g_1811+0x1ca0>
    f86a:	48 89 c7             	mov    %rax,%rdi
    f86d:	e8 81 7e ff ff       	callq  76f3 <transparent_crc>
    f872:	8b 05 a4 58 00 00    	mov    0x58a4(%rip),%eax        # 1511c <g_41>
    f878:	48 98                	cltq   
    f87a:	8b 55 fc             	mov    -0x4(%rbp),%edx
    f87d:	48 8d 35 77 24 00 00 	lea    0x2477(%rip),%rsi        # 11cfb <g_1811+0x1ca5>
    f884:	48 89 c7             	mov    %rax,%rdi
    f887:	e8 67 7e ff ff       	callq  76f3 <transparent_crc>
    f88c:	8b 05 8e 58 00 00    	mov    0x588e(%rip),%eax        # 15120 <g_47>
    f892:	48 98                	cltq   
    f894:	8b 55 fc             	mov    -0x4(%rbp),%edx
    f897:	48 8d 35 62 24 00 00 	lea    0x2462(%rip),%rsi        # 11d00 <g_1811+0x1caa>
    f89e:	48 89 c7             	mov    %rax,%rdi
    f8a1:	e8 4d 7e ff ff       	callq  76f3 <transparent_crc>
    f8a6:	c7 45 f0 00 00 00 00 	movl   $0x0,-0x10(%rbp)
    f8ad:	eb 4d                	jmp    f8fc <main+0x1aa>
    f8af:	8b 45 f0             	mov    -0x10(%rbp),%eax
    f8b2:	48 98                	cltq   
    f8b4:	48 8d 14 85 00 00 00 	lea    0x0(,%rax,4),%rdx
    f8bb:	00 
    f8bc:	48 8d 05 6d 58 00 00 	lea    0x586d(%rip),%rax        # 15130 <g_102>
    f8c3:	8b 04 02             	mov    (%rdx,%rax,1),%eax
    f8c6:	89 c1                	mov    %eax,%ecx
    f8c8:	8b 45 fc             	mov    -0x4(%rbp),%eax
    f8cb:	89 c2                	mov    %eax,%edx
    f8cd:	48 8d 35 31 24 00 00 	lea    0x2431(%rip),%rsi        # 11d05 <g_1811+0x1caf>
    f8d4:	48 89 cf             	mov    %rcx,%rdi
    f8d7:	e8 17 7e ff ff       	callq  76f3 <transparent_crc>
    f8dc:	83 7d fc 00          	cmpl   $0x0,-0x4(%rbp)
    f8e0:	74 16                	je     f8f8 <main+0x1a6>
    f8e2:	8b 45 f0             	mov    -0x10(%rbp),%eax
    f8e5:	89 c6                	mov    %eax,%esi
    f8e7:	48 8d 3d 20 24 00 00 	lea    0x2420(%rip),%rdi        # 11d0e <g_1811+0x1cb8>
    f8ee:	b8 00 00 00 00       	mov    $0x0,%eax
    f8f3:	e8 88 67 ff ff       	callq  6080 <printf@plt>
    f8f8:	83 45 f0 01          	addl   $0x1,-0x10(%rbp)
    f8fc:	83 7d f0 03          	cmpl   $0x3,-0x10(%rbp)
    f900:	7e ad                	jle    f8af <main+0x15d>
    f902:	8b 05 38 58 00 00    	mov    0x5838(%rip),%eax        # 15140 <g_128>
    f908:	48 98                	cltq   
    f90a:	8b 55 fc             	mov    -0x4(%rbp),%edx
    f90d:	48 8d 35 08 24 00 00 	lea    0x2408(%rip),%rsi        # 11d1c <g_1811+0x1cc6>
    f914:	48 89 c7             	mov    %rax,%rdi
    f917:	e8 d7 7d ff ff       	callq  76f3 <transparent_crc>
    f91c:	48 8b 05 25 58 00 00 	mov    0x5825(%rip),%rax        # 15148 <g_134>
    f923:	48 89 c1             	mov    %rax,%rcx
    f926:	8b 45 fc             	mov    -0x4(%rbp),%eax
    f929:	89 c2                	mov    %eax,%edx
    f92b:	48 8d 35 f0 23 00 00 	lea    0x23f0(%rip),%rsi        # 11d22 <g_1811+0x1ccc>
    f932:	48 89 cf             	mov    %rcx,%rdi
    f935:	e8 b9 7d ff ff       	callq  76f3 <transparent_crc>
    f93a:	0f b6 05 0f 58 00 00 	movzbl 0x580f(%rip),%eax        # 15150 <g_152>
    f941:	0f b6 c0             	movzbl %al,%eax
    f944:	8b 55 fc             	mov    -0x4(%rbp),%edx
    f947:	48 8d 35 da 23 00 00 	lea    0x23da(%rip),%rsi        # 11d28 <g_1811+0x1cd2>
    f94e:	48 89 c7             	mov    %rax,%rdi
    f951:	e8 9d 7d ff ff       	callq  76f3 <transparent_crc>
    f956:	c7 45 f0 00 00 00 00 	movl   $0x0,-0x10(%rbp)
    f95d:	eb 4a                	jmp    f9a9 <main+0x257>
    f95f:	8b 45 f0             	mov    -0x10(%rbp),%eax
    f962:	48 98                	cltq   
    f964:	48 8d 14 c5 00 00 00 	lea    0x0(,%rax,8),%rdx
    f96b:	00 
    f96c:	48 8d 05 e5 57 00 00 	lea    0x57e5(%rip),%rax        # 15158 <g_155>
    f973:	48 8b 04 02          	mov    (%rdx,%rax,1),%rax
    f977:	8b 55 fc             	mov    -0x4(%rbp),%edx
    f97a:	48 8d 35 ad 23 00 00 	lea    0x23ad(%rip),%rsi        # 11d2e <g_1811+0x1cd8>
    f981:	48 89 c7             	mov    %rax,%rdi
    f984:	e8 6a 7d ff ff       	callq  76f3 <transparent_crc>
    f989:	83 7d fc 00          	cmpl   $0x0,-0x4(%rbp)
    f98d:	74 16                	je     f9a5 <main+0x253>
    f98f:	8b 45 f0             	mov    -0x10(%rbp),%eax
    f992:	89 c6                	mov    %eax,%esi
    f994:	48 8d 3d 73 23 00 00 	lea    0x2373(%rip),%rdi        # 11d0e <g_1811+0x1cb8>
    f99b:	b8 00 00 00 00       	mov    $0x0,%eax
    f9a0:	e8 db 66 ff ff       	callq  6080 <printf@plt>
    f9a5:	83 45 f0 01          	addl   $0x1,-0x10(%rbp)
    f9a9:	83 7d f0 00          	cmpl   $0x0,-0x10(%rbp)
    f9ad:	7e b0                	jle    f95f <main+0x20d>
    f9af:	8b 05 ab 57 00 00    	mov    0x57ab(%rip),%eax        # 15160 <g_157>
    f9b5:	89 c1                	mov    %eax,%ecx
    f9b7:	8b 45 fc             	mov    -0x4(%rbp),%eax
    f9ba:	89 c2                	mov    %eax,%edx
    f9bc:	48 8d 35 74 23 00 00 	lea    0x2374(%rip),%rsi        # 11d37 <g_1811+0x1ce1>
    f9c3:	48 89 cf             	mov    %rcx,%rdi
    f9c6:	e8 28 7d ff ff       	callq  76f3 <transparent_crc>
    f9cb:	0f b6 05 1e 7f 00 00 	movzbl 0x7f1e(%rip),%eax        # 178f0 <g_210>
    f9d2:	0f b6 c0             	movzbl %al,%eax
    f9d5:	8b 55 fc             	mov    -0x4(%rbp),%edx
    f9d8:	48 8d 35 5e 23 00 00 	lea    0x235e(%rip),%rsi        # 11d3d <g_1811+0x1ce7>
    f9df:	48 89 c7             	mov    %rax,%rdi
    f9e2:	e8 0c 7d ff ff       	callq  76f3 <transparent_crc>
    f9e7:	48 8b 05 7a 57 00 00 	mov    0x577a(%rip),%rax        # 15168 <g_214>
    f9ee:	48 89 c1             	mov    %rax,%rcx
    f9f1:	8b 45 fc             	mov    -0x4(%rbp),%eax
    f9f4:	89 c2                	mov    %eax,%edx
    f9f6:	48 8d 35 46 23 00 00 	lea    0x2346(%rip),%rsi        # 11d43 <g_1811+0x1ced>
    f9fd:	48 89 cf             	mov    %rcx,%rdi
    fa00:	e8 ee 7c ff ff       	callq  76f3 <transparent_crc>
    fa05:	c7 45 f0 00 00 00 00 	movl   $0x0,-0x10(%rbp)
    fa0c:	eb 46                	jmp    fa54 <main+0x302>
    fa0e:	8b 45 f0             	mov    -0x10(%rbp),%eax
    fa11:	48 98                	cltq   
    fa13:	48 8d 15 56 57 00 00 	lea    0x5756(%rip),%rdx        # 15170 <g_225>
    fa1a:	0f b6 04 10          	movzbl (%rax,%rdx,1),%eax
    fa1e:	48 0f be c0          	movsbq %al,%rax
    fa22:	8b 55 fc             	mov    -0x4(%rbp),%edx
    fa25:	48 8d 35 1d 23 00 00 	lea    0x231d(%rip),%rsi        # 11d49 <g_1811+0x1cf3>
    fa2c:	48 89 c7             	mov    %rax,%rdi
    fa2f:	e8 bf 7c ff ff       	callq  76f3 <transparent_crc>
    fa34:	83 7d fc 00          	cmpl   $0x0,-0x4(%rbp)
    fa38:	74 16                	je     fa50 <main+0x2fe>
    fa3a:	8b 45 f0             	mov    -0x10(%rbp),%eax
    fa3d:	89 c6                	mov    %eax,%esi
    fa3f:	48 8d 3d c8 22 00 00 	lea    0x22c8(%rip),%rdi        # 11d0e <g_1811+0x1cb8>
    fa46:	b8 00 00 00 00       	mov    $0x0,%eax
    fa4b:	e8 30 66 ff ff       	callq  6080 <printf@plt>
    fa50:	83 45 f0 01          	addl   $0x1,-0x10(%rbp)
    fa54:	83 7d f0 04          	cmpl   $0x4,-0x10(%rbp)
    fa58:	7e b4                	jle    fa0e <main+0x2bc>
    fa5a:	8b 05 18 57 00 00    	mov    0x5718(%rip),%eax        # 15178 <g_240>
    fa60:	48 98                	cltq   
    fa62:	8b 55 fc             	mov    -0x4(%rbp),%edx
    fa65:	48 8d 35 e6 22 00 00 	lea    0x22e6(%rip),%rsi        # 11d52 <g_1811+0x1cfc>
    fa6c:	48 89 c7             	mov    %rax,%rdi
    fa6f:	e8 7f 7c ff ff       	callq  76f3 <transparent_crc>
    fa74:	c7 45 f0 00 00 00 00 	movl   $0x0,-0x10(%rbp)
    fa7b:	eb 4b                	jmp    fac8 <main+0x376>
    fa7d:	8b 45 f0             	mov    -0x10(%rbp),%eax
    fa80:	48 98                	cltq   
    fa82:	48 8d 14 85 00 00 00 	lea    0x0(,%rax,4),%rdx
    fa89:	00 
    fa8a:	48 8d 05 ef 56 00 00 	lea    0x56ef(%rip),%rax        # 15180 <g_258>
    fa91:	8b 04 02             	mov    (%rdx,%rax,1),%eax
    fa94:	48 98                	cltq   
    fa96:	8b 55 fc             	mov    -0x4(%rbp),%edx
    fa99:	48 8d 35 b8 22 00 00 	lea    0x22b8(%rip),%rsi        # 11d58 <g_1811+0x1d02>
    faa0:	48 89 c7             	mov    %rax,%rdi
    faa3:	e8 4b 7c ff ff       	callq  76f3 <transparent_crc>
    faa8:	83 7d fc 00          	cmpl   $0x0,-0x4(%rbp)
    faac:	74 16                	je     fac4 <main+0x372>
    faae:	8b 45 f0             	mov    -0x10(%rbp),%eax
    fab1:	89 c6                	mov    %eax,%esi
    fab3:	48 8d 3d 54 22 00 00 	lea    0x2254(%rip),%rdi        # 11d0e <g_1811+0x1cb8>
    faba:	b8 00 00 00 00       	mov    $0x0,%eax
    fabf:	e8 bc 65 ff ff       	callq  6080 <printf@plt>
    fac4:	83 45 f0 01          	addl   $0x1,-0x10(%rbp)
    fac8:	83 7d f0 07          	cmpl   $0x7,-0x10(%rbp)
    facc:	7e af                	jle    fa7d <main+0x32b>
    face:	48 8b 05 cb 56 00 00 	mov    0x56cb(%rip),%rax        # 151a0 <g_333>
    fad5:	8b 55 fc             	mov    -0x4(%rbp),%edx
    fad8:	48 8d 35 82 22 00 00 	lea    0x2282(%rip),%rsi        # 11d61 <g_1811+0x1d0b>
    fadf:	48 89 c7             	mov    %rax,%rdi
    fae2:	e8 0c 7c ff ff       	callq  76f3 <transparent_crc>
    fae7:	8b 05 bb 56 00 00    	mov    0x56bb(%rip),%eax        # 151a8 <g_346>
    faed:	89 c1                	mov    %eax,%ecx
    faef:	8b 45 fc             	mov    -0x4(%rbp),%eax
    faf2:	89 c2                	mov    %eax,%edx
    faf4:	48 8d 35 6c 22 00 00 	lea    0x226c(%rip),%rsi        # 11d67 <g_1811+0x1d11>
    fafb:	48 89 cf             	mov    %rcx,%rdi
    fafe:	e8 f0 7b ff ff       	callq  76f3 <transparent_crc>
    fb03:	48 8b 05 a6 56 00 00 	mov    0x56a6(%rip),%rax        # 151b0 <g_374>
    fb0a:	8b 55 fc             	mov    -0x4(%rbp),%edx
    fb0d:	48 8d 35 59 22 00 00 	lea    0x2259(%rip),%rsi        # 11d6d <g_1811+0x1d17>
    fb14:	48 89 c7             	mov    %rax,%rdi
    fb17:	e8 d7 7b ff ff       	callq  76f3 <transparent_crc>
    fb1c:	8b 05 96 56 00 00    	mov    0x5696(%rip),%eax        # 151b8 <g_422>
    fb22:	89 c1                	mov    %eax,%ecx
    fb24:	8b 45 fc             	mov    -0x4(%rbp),%eax
    fb27:	89 c2                	mov    %eax,%edx
    fb29:	48 8d 35 43 22 00 00 	lea    0x2243(%rip),%rsi        # 11d73 <g_1811+0x1d1d>
    fb30:	48 89 cf             	mov    %rcx,%rdi
    fb33:	e8 bb 7b ff ff       	callq  76f3 <transparent_crc>
    fb38:	0f b7 05 7d 56 00 00 	movzwl 0x567d(%rip),%eax        # 151bc <g_434>
    fb3f:	0f b7 c0             	movzwl %ax,%eax
    fb42:	8b 55 fc             	mov    -0x4(%rbp),%edx
    fb45:	48 8d 35 2d 22 00 00 	lea    0x222d(%rip),%rsi        # 11d79 <g_1811+0x1d23>
    fb4c:	48 89 c7             	mov    %rax,%rdi
    fb4f:	e8 9f 7b ff ff       	callq  76f3 <transparent_crc>
    fb54:	0f b7 05 63 56 00 00 	movzwl 0x5663(%rip),%eax        # 151be <g_456>
    fb5b:	48 0f bf c0          	movswq %ax,%rax
    fb5f:	8b 55 fc             	mov    -0x4(%rbp),%edx
    fb62:	48 8d 35 16 22 00 00 	lea    0x2216(%rip),%rsi        # 11d7f <g_1811+0x1d29>
    fb69:	48 89 c7             	mov    %rax,%rdi
    fb6c:	e8 82 7b ff ff       	callq  76f3 <transparent_crc>
    fb71:	8b 05 91 7d 00 00    	mov    0x7d91(%rip),%eax        # 17908 <g_529>
    fb77:	89 c1                	mov    %eax,%ecx
    fb79:	8b 45 fc             	mov    -0x4(%rbp),%eax
    fb7c:	89 c2                	mov    %eax,%edx
    fb7e:	48 8d 35 00 22 00 00 	lea    0x2200(%rip),%rsi        # 11d85 <g_1811+0x1d2f>
    fb85:	48 89 cf             	mov    %rcx,%rdi
    fb88:	e8 66 7b ff ff       	callq  76f3 <transparent_crc>
    fb8d:	0f b6 05 2c 56 00 00 	movzbl 0x562c(%rip),%eax        # 151c0 <g_539>
    fb94:	0f b6 c0             	movzbl %al,%eax
    fb97:	8b 55 fc             	mov    -0x4(%rbp),%edx
    fb9a:	48 8d 35 ea 21 00 00 	lea    0x21ea(%rip),%rsi        # 11d8b <g_1811+0x1d35>
    fba1:	48 89 c7             	mov    %rax,%rdi
    fba4:	e8 4a 7b ff ff       	callq  76f3 <transparent_crc>
    fba9:	c7 45 f0 00 00 00 00 	movl   $0x0,-0x10(%rbp)
    fbb0:	eb 6c                	jmp    fc1e <main+0x4cc>
    fbb2:	c7 45 f4 00 00 00 00 	movl   $0x0,-0xc(%rbp)
    fbb9:	eb 59                	jmp    fc14 <main+0x4c2>
    fbbb:	8b 45 f4             	mov    -0xc(%rbp),%eax
    fbbe:	48 98                	cltq   
    fbc0:	8b 55 f0             	mov    -0x10(%rbp),%edx
    fbc3:	48 63 d2             	movslq %edx,%rdx
    fbc6:	48 01 d2             	add    %rdx,%rdx
    fbc9:	48 01 d0             	add    %rdx,%rax
    fbcc:	48 8d 14 c5 00 00 00 	lea    0x0(,%rax,8),%rdx
    fbd3:	00 
    fbd4:	48 8d 05 05 56 00 00 	lea    0x5605(%rip),%rax        # 151e0 <g_615>
    fbdb:	48 8b 04 02          	mov    (%rdx,%rax,1),%rax
    fbdf:	8b 55 fc             	mov    -0x4(%rbp),%edx
    fbe2:	48 8d 35 a8 21 00 00 	lea    0x21a8(%rip),%rsi        # 11d91 <g_1811+0x1d3b>
    fbe9:	48 89 c7             	mov    %rax,%rdi
    fbec:	e8 02 7b ff ff       	callq  76f3 <transparent_crc>
    fbf1:	83 7d fc 00          	cmpl   $0x0,-0x4(%rbp)
    fbf5:	74 19                	je     fc10 <main+0x4be>
    fbf7:	8b 55 f4             	mov    -0xc(%rbp),%edx
    fbfa:	8b 45 f0             	mov    -0x10(%rbp),%eax
    fbfd:	89 c6                	mov    %eax,%esi
    fbff:	48 8d 3d 97 21 00 00 	lea    0x2197(%rip),%rdi        # 11d9d <g_1811+0x1d47>
    fc06:	b8 00 00 00 00       	mov    $0x0,%eax
    fc0b:	e8 70 64 ff ff       	callq  6080 <printf@plt>
    fc10:	83 45 f4 01          	addl   $0x1,-0xc(%rbp)
    fc14:	83 7d f4 01          	cmpl   $0x1,-0xc(%rbp)
    fc18:	7e a1                	jle    fbbb <main+0x469>
    fc1a:	83 45 f0 01          	addl   $0x1,-0x10(%rbp)
    fc1e:	83 7d f0 04          	cmpl   $0x4,-0x10(%rbp)
    fc22:	7e 8e                	jle    fbb2 <main+0x460>
    fc24:	0f b7 05 05 56 00 00 	movzwl 0x5605(%rip),%eax        # 15230 <g_673>
    fc2b:	48 0f bf c0          	movswq %ax,%rax
    fc2f:	8b 55 fc             	mov    -0x4(%rbp),%edx
    fc32:	48 8d 35 76 21 00 00 	lea    0x2176(%rip),%rsi        # 11daf <g_1811+0x1d59>
    fc39:	48 89 c7             	mov    %rax,%rdi
    fc3c:	e8 b2 7a ff ff       	callq  76f3 <transparent_crc>
    fc41:	0f b7 05 ea 55 00 00 	movzwl 0x55ea(%rip),%eax        # 15232 <g_689>
    fc48:	0f b7 c0             	movzwl %ax,%eax
    fc4b:	8b 55 fc             	mov    -0x4(%rbp),%edx
    fc4e:	48 8d 35 60 21 00 00 	lea    0x2160(%rip),%rsi        # 11db5 <g_1811+0x1d5f>
    fc55:	48 89 c7             	mov    %rax,%rdi
    fc58:	e8 96 7a ff ff       	callq  76f3 <transparent_crc>
    fc5d:	8b 05 d1 55 00 00    	mov    0x55d1(%rip),%eax        # 15234 <g_779>
    fc63:	89 c1                	mov    %eax,%ecx
    fc65:	8b 45 fc             	mov    -0x4(%rbp),%eax
    fc68:	89 c2                	mov    %eax,%edx
    fc6a:	48 8d 35 4a 21 00 00 	lea    0x214a(%rip),%rsi        # 11dbb <g_1811+0x1d65>
    fc71:	48 89 cf             	mov    %rcx,%rdi
    fc74:	e8 7a 7a ff ff       	callq  76f3 <transparent_crc>
    fc79:	8b 05 b9 55 00 00    	mov    0x55b9(%rip),%eax        # 15238 <g_1143>
    fc7f:	89 c1                	mov    %eax,%ecx
    fc81:	8b 45 fc             	mov    -0x4(%rbp),%eax
    fc84:	89 c2                	mov    %eax,%edx
    fc86:	48 8d 35 34 21 00 00 	lea    0x2134(%rip),%rsi        # 11dc1 <g_1811+0x1d6b>
    fc8d:	48 89 cf             	mov    %rcx,%rdi
    fc90:	e8 5e 7a ff ff       	callq  76f3 <transparent_crc>
    fc95:	c7 45 f0 00 00 00 00 	movl   $0x0,-0x10(%rbp)
    fc9c:	eb 4d                	jmp    fceb <main+0x599>
    fc9e:	8b 45 f0             	mov    -0x10(%rbp),%eax
    fca1:	48 98                	cltq   
    fca3:	48 8d 14 85 00 00 00 	lea    0x0(,%rax,4),%rdx
    fcaa:	00 
    fcab:	48 8d 05 8e 55 00 00 	lea    0x558e(%rip),%rax        # 15240 <g_1171>
    fcb2:	8b 04 02             	mov    (%rdx,%rax,1),%eax
    fcb5:	89 c1                	mov    %eax,%ecx
    fcb7:	8b 45 fc             	mov    -0x4(%rbp),%eax
    fcba:	89 c2                	mov    %eax,%edx
    fcbc:	48 8d 35 05 21 00 00 	lea    0x2105(%rip),%rsi        # 11dc8 <g_1811+0x1d72>
    fcc3:	48 89 cf             	mov    %rcx,%rdi
    fcc6:	e8 28 7a ff ff       	callq  76f3 <transparent_crc>
    fccb:	83 7d fc 00          	cmpl   $0x0,-0x4(%rbp)
    fccf:	74 16                	je     fce7 <main+0x595>
    fcd1:	8b 45 f0             	mov    -0x10(%rbp),%eax
    fcd4:	89 c6                	mov    %eax,%esi
    fcd6:	48 8d 3d 31 20 00 00 	lea    0x2031(%rip),%rdi        # 11d0e <g_1811+0x1cb8>
    fcdd:	b8 00 00 00 00       	mov    $0x0,%eax
    fce2:	e8 99 63 ff ff       	callq  6080 <printf@plt>
    fce7:	83 45 f0 01          	addl   $0x1,-0x10(%rbp)
    fceb:	83 7d f0 05          	cmpl   $0x5,-0x10(%rbp)
    fcef:	7e ad                	jle    fc9e <main+0x54c>
    fcf1:	8b 05 61 55 00 00    	mov    0x5561(%rip),%eax        # 15258 <g_1189>
    fcf7:	48 98                	cltq   
    fcf9:	8b 55 fc             	mov    -0x4(%rbp),%edx
    fcfc:	48 8d 35 cf 20 00 00 	lea    0x20cf(%rip),%rsi        # 11dd2 <g_1811+0x1d7c>
    fd03:	48 89 c7             	mov    %rax,%rdi
    fd06:	e8 e8 79 ff ff       	callq  76f3 <transparent_crc>
    fd0b:	8b 05 0f 7c 00 00    	mov    0x7c0f(%rip),%eax        # 17920 <g_1245>
    fd11:	48 98                	cltq   
    fd13:	8b 55 fc             	mov    -0x4(%rbp),%edx
    fd16:	48 8d 35 bc 20 00 00 	lea    0x20bc(%rip),%rsi        # 11dd9 <g_1811+0x1d83>
    fd1d:	48 89 c7             	mov    %rax,%rdi
    fd20:	e8 ce 79 ff ff       	callq  76f3 <transparent_crc>
    fd25:	b8 8c c9 ff ff       	mov    $0xffffc98c,%eax
    fd2a:	48 0f bf c0          	movswq %ax,%rax
    fd2e:	8b 55 fc             	mov    -0x4(%rbp),%edx
    fd31:	48 8d 35 a8 20 00 00 	lea    0x20a8(%rip),%rsi        # 11de0 <g_1811+0x1d8a>
    fd38:	48 89 c7             	mov    %rax,%rdi
    fd3b:	e8 b3 79 ff ff       	callq  76f3 <transparent_crc>
    fd40:	b8 64 00 00 00       	mov    $0x64,%eax
    fd45:	48 0f be c0          	movsbq %al,%rax
    fd49:	8b 55 fc             	mov    -0x4(%rbp),%edx
    fd4c:	48 8d 35 94 20 00 00 	lea    0x2094(%rip),%rsi        # 11de7 <g_1811+0x1d91>
    fd53:	48 89 c7             	mov    %rax,%rdi
    fd56:	e8 98 79 ff ff       	callq  76f3 <transparent_crc>
    fd5b:	0f b6 05 fa 54 00 00 	movzbl 0x54fa(%rip),%eax        # 1525c <g_1833>
    fd62:	48 0f be c0          	movsbq %al,%rax
    fd66:	8b 55 fc             	mov    -0x4(%rbp),%edx
    fd69:	48 8d 35 7e 20 00 00 	lea    0x207e(%rip),%rsi        # 11dee <g_1811+0x1d98>
    fd70:	48 89 c7             	mov    %rax,%rdi
    fd73:	e8 7b 79 ff ff       	callq  76f3 <transparent_crc>
    fd78:	48 8b 05 e1 54 00 00 	mov    0x54e1(%rip),%rax        # 15260 <g_1862>
    fd7f:	48 89 c1             	mov    %rax,%rcx
    fd82:	8b 45 fc             	mov    -0x4(%rbp),%eax
    fd85:	89 c2                	mov    %eax,%edx
    fd87:	48 8d 35 67 20 00 00 	lea    0x2067(%rip),%rsi        # 11df5 <g_1811+0x1d9f>
    fd8e:	48 89 cf             	mov    %rcx,%rdi
    fd91:	e8 5d 79 ff ff       	callq  76f3 <transparent_crc>
    fd96:	c7 45 f0 00 00 00 00 	movl   $0x0,-0x10(%rbp)
    fd9d:	eb 4b                	jmp    fdea <main+0x698>
    fd9f:	8b 45 f0             	mov    -0x10(%rbp),%eax
    fda2:	48 98                	cltq   
    fda4:	48 8d 14 85 00 00 00 	lea    0x0(,%rax,4),%rdx
    fdab:	00 
    fdac:	48 8d 05 bd 54 00 00 	lea    0x54bd(%rip),%rax        # 15270 <g_1898>
    fdb3:	8b 04 02             	mov    (%rdx,%rax,1),%eax
    fdb6:	48 98                	cltq   
    fdb8:	8b 55 fc             	mov    -0x4(%rbp),%edx
    fdbb:	48 8d 35 3a 20 00 00 	lea    0x203a(%rip),%rsi        # 11dfc <g_1811+0x1da6>
    fdc2:	48 89 c7             	mov    %rax,%rdi
    fdc5:	e8 29 79 ff ff       	callq  76f3 <transparent_crc>
    fdca:	83 7d fc 00          	cmpl   $0x0,-0x4(%rbp)
    fdce:	74 16                	je     fde6 <main+0x694>
    fdd0:	8b 45 f0             	mov    -0x10(%rbp),%eax
    fdd3:	89 c6                	mov    %eax,%esi
    fdd5:	48 8d 3d 32 1f 00 00 	lea    0x1f32(%rip),%rdi        # 11d0e <g_1811+0x1cb8>
    fddc:	b8 00 00 00 00       	mov    $0x0,%eax
    fde1:	e8 9a 62 ff ff       	callq  6080 <printf@plt>
    fde6:	83 45 f0 01          	addl   $0x1,-0x10(%rbp)
    fdea:	83 7d f0 04          	cmpl   $0x4,-0x10(%rbp)
    fdee:	7e af                	jle    fd9f <main+0x64d>
    fdf0:	0f b7 05 8d 54 00 00 	movzwl 0x548d(%rip),%eax        # 15284 <g_1970>
    fdf7:	0f b7 c0             	movzwl %ax,%eax
    fdfa:	8b 55 fc             	mov    -0x4(%rbp),%edx
    fdfd:	48 8d 35 02 20 00 00 	lea    0x2002(%rip),%rsi        # 11e06 <g_1811+0x1db0>
    fe04:	48 89 c7             	mov    %rax,%rdi
    fe07:	e8 e7 78 ff ff       	callq  76f3 <transparent_crc>
    fe0c:	0f b6 05 73 54 00 00 	movzbl 0x5473(%rip),%eax        # 15286 <g_2028>
    fe13:	0f b6 c0             	movzbl %al,%eax
    fe16:	8b 55 fc             	mov    -0x4(%rbp),%edx
    fe19:	48 8d 35 ed 1f 00 00 	lea    0x1fed(%rip),%rsi        # 11e0d <g_1811+0x1db7>
    fe20:	48 89 c7             	mov    %rax,%rdi
    fe23:	e8 cb 78 ff ff       	callq  76f3 <transparent_crc>
    fe28:	c7 45 f0 00 00 00 00 	movl   $0x0,-0x10(%rbp)
    fe2f:	eb 4b                	jmp    fe7c <main+0x72a>
    fe31:	8b 45 f0             	mov    -0x10(%rbp),%eax
    fe34:	48 98                	cltq   
    fe36:	48 8d 14 85 00 00 00 	lea    0x0(,%rax,4),%rdx
    fe3d:	00 
    fe3e:	48 8d 05 5b 54 00 00 	lea    0x545b(%rip),%rax        # 152a0 <g_2177>
    fe45:	8b 04 02             	mov    (%rdx,%rax,1),%eax
    fe48:	48 98                	cltq   
    fe4a:	8b 55 fc             	mov    -0x4(%rbp),%edx
    fe4d:	48 8d 35 c0 1f 00 00 	lea    0x1fc0(%rip),%rsi        # 11e14 <g_1811+0x1dbe>
    fe54:	48 89 c7             	mov    %rax,%rdi
    fe57:	e8 97 78 ff ff       	callq  76f3 <transparent_crc>
    fe5c:	83 7d fc 00          	cmpl   $0x0,-0x4(%rbp)
    fe60:	74 16                	je     fe78 <main+0x726>
    fe62:	8b 45 f0             	mov    -0x10(%rbp),%eax
    fe65:	89 c6                	mov    %eax,%esi
    fe67:	48 8d 3d a0 1e 00 00 	lea    0x1ea0(%rip),%rdi        # 11d0e <g_1811+0x1cb8>
    fe6e:	b8 00 00 00 00       	mov    $0x0,%eax
    fe73:	e8 08 62 ff ff       	callq  6080 <printf@plt>
    fe78:	83 45 f0 01          	addl   $0x1,-0x10(%rbp)
    fe7c:	83 7d f0 09          	cmpl   $0x9,-0x10(%rbp)
    fe80:	7e af                	jle    fe31 <main+0x6df>
    fe82:	c7 45 f0 00 00 00 00 	movl   $0x0,-0x10(%rbp)
    fe89:	eb 6f                	jmp    fefa <main+0x7a8>
    fe8b:	c7 45 f4 00 00 00 00 	movl   $0x0,-0xc(%rbp)
    fe92:	eb 5c                	jmp    fef0 <main+0x79e>
    fe94:	8b 45 f4             	mov    -0xc(%rbp),%eax
    fe97:	48 98                	cltq   
    fe99:	8b 55 f0             	mov    -0x10(%rbp),%edx
    fe9c:	48 63 d2             	movslq %edx,%rdx
    fe9f:	48 01 d2             	add    %rdx,%rdx
    fea2:	48 01 d0             	add    %rdx,%rax
    fea5:	48 8d 14 85 00 00 00 	lea    0x0(,%rax,4),%rdx
    feac:	00 
    fead:	48 8d 05 14 54 00 00 	lea    0x5414(%rip),%rax        # 152c8 <g_2331>
    feb4:	8b 04 02             	mov    (%rdx,%rax,1),%eax
    feb7:	89 c1                	mov    %eax,%ecx
    feb9:	8b 45 fc             	mov    -0x4(%rbp),%eax
    febc:	89 c2                	mov    %eax,%edx
    febe:	48 8d 35 59 1f 00 00 	lea    0x1f59(%rip),%rsi        # 11e1e <g_1811+0x1dc8>
    fec5:	48 89 cf             	mov    %rcx,%rdi
    fec8:	e8 26 78 ff ff       	callq  76f3 <transparent_crc>
    fecd:	83 7d fc 00          	cmpl   $0x0,-0x4(%rbp)
    fed1:	74 19                	je     feec <main+0x79a>
    fed3:	8b 55 f4             	mov    -0xc(%rbp),%edx
    fed6:	8b 45 f0             	mov    -0x10(%rbp),%eax
    fed9:	89 c6                	mov    %eax,%esi
    fedb:	48 8d 3d bb 1e 00 00 	lea    0x1ebb(%rip),%rdi        # 11d9d <g_1811+0x1d47>
    fee2:	b8 00 00 00 00       	mov    $0x0,%eax
    fee7:	e8 94 61 ff ff       	callq  6080 <printf@plt>
    feec:	83 45 f4 01          	addl   $0x1,-0xc(%rbp)
    fef0:	83 7d f4 01          	cmpl   $0x1,-0xc(%rbp)
    fef4:	7e 9e                	jle    fe94 <main+0x742>
    fef6:	83 45 f0 01          	addl   $0x1,-0x10(%rbp)
    fefa:	83 7d f0 00          	cmpl   $0x0,-0x10(%rbp)
    fefe:	7e 8b                	jle    fe8b <main+0x739>
    ff00:	0f b6 05 c9 53 00 00 	movzbl 0x53c9(%rip),%eax        # 152d0 <g_2338>
    ff07:	48 0f be c0          	movsbq %al,%rax
    ff0b:	8b 55 fc             	mov    -0x4(%rbp),%edx
    ff0e:	48 8d 35 16 1f 00 00 	lea    0x1f16(%rip),%rsi        # 11e2b <g_1811+0x1dd5>
    ff15:	48 89 c7             	mov    %rax,%rdi
    ff18:	e8 d6 77 ff ff       	callq  76f3 <transparent_crc>
    ff1d:	8b 05 b1 53 00 00    	mov    0x53b1(%rip),%eax        # 152d4 <g_2471>
    ff23:	48 98                	cltq   
    ff25:	8b 55 fc             	mov    -0x4(%rbp),%edx
    ff28:	48 8d 35 03 1f 00 00 	lea    0x1f03(%rip),%rsi        # 11e32 <g_1811+0x1ddc>
    ff2f:	48 89 c7             	mov    %rax,%rdi
    ff32:	e8 bc 77 ff ff       	callq  76f3 <transparent_crc>
    ff37:	8b 05 9b 53 00 00    	mov    0x539b(%rip),%eax        # 152d8 <g_2537>
    ff3d:	48 98                	cltq   
    ff3f:	8b 55 fc             	mov    -0x4(%rbp),%edx
    ff42:	48 8d 35 f0 1e 00 00 	lea    0x1ef0(%rip),%rsi        # 11e39 <g_1811+0x1de3>
    ff49:	48 89 c7             	mov    %rax,%rdi
    ff4c:	e8 a2 77 ff ff       	callq  76f3 <transparent_crc>
    ff51:	8b 05 c9 50 00 00    	mov    0x50c9(%rip),%eax        # 15020 <crc32_context>
    ff57:	f7 d0                	not    %eax
    ff59:	89 c2                	mov    %eax,%edx
    ff5b:	8b 45 fc             	mov    -0x4(%rbp),%eax
    ff5e:	89 c6                	mov    %eax,%esi
    ff60:	89 d7                	mov    %edx,%edi
    ff62:	e8 2d 62 ff ff       	callq  6194 <platform_main_end>
    ff67:	b8 00 00 00 00       	mov    $0x0,%eax
    ff6c:	c9                   	leaveq 
    ff6d:	c3                   	retq   
    ff6e:	66 90                	xchg   %ax,%ax

000000000000ff70 <__libc_csu_init>:
    ff70:	f3 0f 1e fa          	endbr64 
    ff74:	41 57                	push   %r15
    ff76:	4c 8d 3d 13 4d 00 00 	lea    0x4d13(%rip),%r15        # 14c90 <__frame_dummy_init_array_entry>
    ff7d:	41 56                	push   %r14
    ff7f:	49 89 d6             	mov    %rdx,%r14
    ff82:	41 55                	push   %r13
    ff84:	49 89 f5             	mov    %rsi,%r13
    ff87:	41 54                	push   %r12
    ff89:	41 89 fc             	mov    %edi,%r12d
    ff8c:	55                   	push   %rbp
    ff8d:	48 8d 2d 04 4d 00 00 	lea    0x4d04(%rip),%rbp        # 14c98 <__do_global_dtors_aux_fini_array_entry>
    ff94:	53                   	push   %rbx
    ff95:	4c 29 fd             	sub    %r15,%rbp
    ff98:	48 83 ec 08          	sub    $0x8,%rsp
    ff9c:	e8 5f 60 ff ff       	callq  6000 <_init>
    ffa1:	48 c1 fd 03          	sar    $0x3,%rbp
    ffa5:	74 1f                	je     ffc6 <__libc_csu_init+0x56>
    ffa7:	31 db                	xor    %ebx,%ebx
    ffa9:	0f 1f 80 00 00 00 00 	nopl   0x0(%rax)
    ffb0:	4c 89 f2             	mov    %r14,%rdx
    ffb3:	4c 89 ee             	mov    %r13,%rsi
    ffb6:	44 89 e7             	mov    %r12d,%edi
    ffb9:	41 ff 14 df          	callq  *(%r15,%rbx,8)
    ffbd:	48 83 c3 01          	add    $0x1,%rbx
    ffc1:	48 39 dd             	cmp    %rbx,%rbp
    ffc4:	75 ea                	jne    ffb0 <__libc_csu_init+0x40>
    ffc6:	48 83 c4 08          	add    $0x8,%rsp
    ffca:	5b                   	pop    %rbx
    ffcb:	5d                   	pop    %rbp
    ffcc:	41 5c                	pop    %r12
    ffce:	41 5d                	pop    %r13
    ffd0:	41 5e                	pop    %r14
    ffd2:	41 5f                	pop    %r15
    ffd4:	c3                   	retq   
    ffd5:	66 66 2e 0f 1f 84 00 	data16 nopw %cs:0x0(%rax,%rax,1)
    ffdc:	00 00 00 00 

000000000000ffe0 <__libc_csu_fini>:
    ffe0:	f3 0f 1e fa          	endbr64 
    ffe4:	c3                   	retq   
