


Disassembly of section .text:

00000000000100a0 <_start>:
   100a0:	f3 0f 1e fa          	endbr64 
   100a4:	31 ed                	xor    %ebp,%ebp
   100a6:	49 89 d1             	mov    %rdx,%r9
   100a9:	5e                   	pop    %rsi
   100aa:	48 89 e2             	mov    %rsp,%rdx
   100ad:	48 83 e4 f0          	and    $0xfffffffffffffff0,%rsp
   100b1:	50                   	push   %rax
   100b2:	54                   	push   %rsp
   100b3:	4c 8d 05 d6 03 01 00 	lea    0x103d6(%rip),%r8        # 20490 <__libc_csu_fini>
   100ba:	48 8d 0d 5f 03 01 00 	lea    0x1035f(%rip),%rcx        # 20420 <__libc_csu_init>
   100c1:	48 8d 3d a8 ea 00 00 	lea    0xeaa8(%rip),%rdi        # 1eb70 <main>
   100c8:	ff 15 0a 5f 01 00    	callq  *0x15f0a(%rip)        # 25fd8 <__libc_start_main@GLIBC_2.2.5>
   100ce:	f4                   	hlt    
   100cf:	90                   	nop

00000000000100d0 <deregister_tm_clones>:
   100d0:	48 8d 3d c9 eb 01 00 	lea    0x1ebc9(%rip),%rdi        # 2eca0 <__TMC_END__>
   100d7:	48 8d 05 c2 eb 01 00 	lea    0x1ebc2(%rip),%rax        # 2eca0 <__TMC_END__>
   100de:	48 39 f8             	cmp    %rdi,%rax
   100e1:	74 15                	je     100f8 <deregister_tm_clones+0x28>
   100e3:	48 8b 05 e6 5e 01 00 	mov    0x15ee6(%rip),%rax        # 25fd0 <_ITM_deregisterTMCloneTable>
   100ea:	48 85 c0             	test   %rax,%rax
   100ed:	74 09                	je     100f8 <deregister_tm_clones+0x28>
   100ef:	ff e0                	jmpq   *%rax
   100f1:	0f 1f 80 00 00 00 00 	nopl   0x0(%rax)
   100f8:	c3                   	retq   
   100f9:	0f 1f 80 00 00 00 00 	nopl   0x0(%rax)

0000000000010100 <register_tm_clones>:
   10100:	48 8d 3d 99 eb 01 00 	lea    0x1eb99(%rip),%rdi        # 2eca0 <__TMC_END__>
   10107:	48 8d 35 92 eb 01 00 	lea    0x1eb92(%rip),%rsi        # 2eca0 <__TMC_END__>
   1010e:	48 29 fe             	sub    %rdi,%rsi
   10111:	48 89 f0             	mov    %rsi,%rax
   10114:	48 c1 ee 3f          	shr    $0x3f,%rsi
   10118:	48 c1 f8 03          	sar    $0x3,%rax
   1011c:	48 01 c6             	add    %rax,%rsi
   1011f:	48 d1 fe             	sar    %rsi
   10122:	74 14                	je     10138 <register_tm_clones+0x38>
   10124:	48 8b 05 bd 5e 01 00 	mov    0x15ebd(%rip),%rax        # 25fe8 <_ITM_registerTMCloneTable>
   1012b:	48 85 c0             	test   %rax,%rax
   1012e:	74 08                	je     10138 <register_tm_clones+0x38>
   10130:	ff e0                	jmpq   *%rax
   10132:	66 0f 1f 44 00 00    	nopw   0x0(%rax,%rax,1)
   10138:	c3                   	retq   
   10139:	0f 1f 80 00 00 00 00 	nopl   0x0(%rax)

0000000000010140 <__do_global_dtors_aux>:
   10140:	f3 0f 1e fa          	endbr64 
   10144:	80 3d 55 eb 01 00 00 	cmpb   $0x0,0x1eb55(%rip)        # 2eca0 <__TMC_END__>
   1014b:	75 2b                	jne    10178 <__do_global_dtors_aux+0x38>
   1014d:	55                   	push   %rbp
   1014e:	48 83 3d 9a 5e 01 00 	cmpq   $0x0,0x15e9a(%rip)        # 25ff0 <__cxa_finalize@GLIBC_2.2.5>
   10155:	00 
   10156:	48 89 e5             	mov    %rsp,%rbp
   10159:	74 0c                	je     10167 <__do_global_dtors_aux+0x27>
   1015b:	48 8b 3d a6 5e 01 00 	mov    0x15ea6(%rip),%rdi        # 26008 <__dso_handle>
   10162:	e8 f9 fe ff ff       	callq  10060 <__cxa_finalize@plt>
   10167:	e8 64 ff ff ff       	callq  100d0 <deregister_tm_clones>
   1016c:	c6 05 2d eb 01 00 01 	movb   $0x1,0x1eb2d(%rip)        # 2eca0 <__TMC_END__>
   10173:	5d                   	pop    %rbp
   10174:	c3                   	retq   
   10175:	0f 1f 00             	nopl   (%rax)
   10178:	c3                   	retq   
   10179:	0f 1f 80 00 00 00 00 	nopl   0x0(%rax)

0000000000010180 <frame_dummy>:
   10180:	f3 0f 1e fa          	endbr64 
   10184:	e9 77 ff ff ff       	jmpq   10100 <register_tm_clones>

0000000000010189 <platform_main_begin>:
   10189:	f3 0f 1e fa          	endbr64 
   1018d:	55                   	push   %rbp
   1018e:	48 89 e5             	mov    %rsp,%rbp
   10191:	90                   	nop
   10192:	5d                   	pop    %rbp
   10193:	c3                   	retq   

0000000000010194 <platform_main_end>:
   10194:	f3 0f 1e fa          	endbr64 
   10198:	55                   	push   %rbp
   10199:	48 89 e5             	mov    %rsp,%rbp
   1019c:	48 83 ec 10          	sub    $0x10,%rsp
   101a0:	89 7d fc             	mov    %edi,-0x4(%rbp)
   101a3:	89 75 f8             	mov    %esi,-0x8(%rbp)
   101a6:	8b 45 fc             	mov    -0x4(%rbp),%eax
   101a9:	89 c6                	mov    %eax,%esi
   101ab:	48 8d 3d 6e 0e 01 00 	lea    0x10e6e(%rip),%rdi        # 21020 <_IO_stdin_used+0x20>
   101b2:	b8 00 00 00 00       	mov    $0x0,%eax
   101b7:	e8 c4 fe ff ff       	callq  10080 <printf@plt>
   101bc:	90                   	nop
   101bd:	c9                   	leaveq 
   101be:	c3                   	retq   

00000000000101bf <safe_unary_minus_func_int8_t_s>:
   101bf:	f3 0f 1e fa          	endbr64 
   101c3:	55                   	push   %rbp
   101c4:	48 89 e5             	mov    %rsp,%rbp
   101c7:	89 f8                	mov    %edi,%eax
   101c9:	88 45 fc             	mov    %al,-0x4(%rbp)
   101cc:	0f b6 45 fc          	movzbl -0x4(%rbp),%eax
   101d0:	f7 d8                	neg    %eax
   101d2:	5d                   	pop    %rbp
   101d3:	c3                   	retq   

00000000000101d4 <safe_add_func_int8_t_s_s>:
   101d4:	f3 0f 1e fa          	endbr64 
   101d8:	55                   	push   %rbp
   101d9:	48 89 e5             	mov    %rsp,%rbp
   101dc:	89 fa                	mov    %edi,%edx
   101de:	89 f0                	mov    %esi,%eax
   101e0:	88 55 fc             	mov    %dl,-0x4(%rbp)
   101e3:	88 45 f8             	mov    %al,-0x8(%rbp)
   101e6:	0f b6 55 fc          	movzbl -0x4(%rbp),%edx
   101ea:	0f b6 45 f8          	movzbl -0x8(%rbp),%eax
   101ee:	01 d0                	add    %edx,%eax
   101f0:	5d                   	pop    %rbp
   101f1:	c3                   	retq   

00000000000101f2 <safe_sub_func_int8_t_s_s>:
   101f2:	f3 0f 1e fa          	endbr64 
   101f6:	55                   	push   %rbp
   101f7:	48 89 e5             	mov    %rsp,%rbp
   101fa:	89 fa                	mov    %edi,%edx
   101fc:	89 f0                	mov    %esi,%eax
   101fe:	88 55 fc             	mov    %dl,-0x4(%rbp)
   10201:	88 45 f8             	mov    %al,-0x8(%rbp)
   10204:	0f b6 55 fc          	movzbl -0x4(%rbp),%edx
   10208:	0f b6 45 f8          	movzbl -0x8(%rbp),%eax
   1020c:	29 c2                	sub    %eax,%edx
   1020e:	89 d0                	mov    %edx,%eax
   10210:	5d                   	pop    %rbp
   10211:	c3                   	retq   

0000000000010212 <safe_mul_func_int8_t_s_s>:
   10212:	f3 0f 1e fa          	endbr64 
   10216:	55                   	push   %rbp
   10217:	48 89 e5             	mov    %rsp,%rbp
   1021a:	89 fa                	mov    %edi,%edx
   1021c:	89 f0                	mov    %esi,%eax
   1021e:	88 55 fc             	mov    %dl,-0x4(%rbp)
   10221:	88 45 f8             	mov    %al,-0x8(%rbp)
   10224:	0f b6 45 fc          	movzbl -0x4(%rbp),%eax
   10228:	0f b6 55 f8          	movzbl -0x8(%rbp),%edx
   1022c:	0f af c2             	imul   %edx,%eax
   1022f:	5d                   	pop    %rbp
   10230:	c3                   	retq   

0000000000010231 <safe_mod_func_int8_t_s_s>:
   10231:	f3 0f 1e fa          	endbr64 
   10235:	55                   	push   %rbp
   10236:	48 89 e5             	mov    %rsp,%rbp
   10239:	89 fa                	mov    %edi,%edx
   1023b:	89 f0                	mov    %esi,%eax
   1023d:	88 55 fc             	mov    %dl,-0x4(%rbp)
   10240:	88 45 f8             	mov    %al,-0x8(%rbp)
   10243:	80 7d f8 00          	cmpb   $0x0,-0x8(%rbp)
   10247:	74 1b                	je     10264 <safe_mod_func_int8_t_s_s+0x33>
   10249:	80 7d fc 80          	cmpb   $0x80,-0x4(%rbp)
   1024d:	75 06                	jne    10255 <safe_mod_func_int8_t_s_s+0x24>
   1024f:	80 7d f8 ff          	cmpb   $0xff,-0x8(%rbp)
   10253:	74 0f                	je     10264 <safe_mod_func_int8_t_s_s+0x33>
   10255:	0f be 45 fc          	movsbl -0x4(%rbp),%eax
   10259:	0f be 4d f8          	movsbl -0x8(%rbp),%ecx
   1025d:	99                   	cltd   
   1025e:	f7 f9                	idiv   %ecx
   10260:	89 d0                	mov    %edx,%eax
   10262:	eb 04                	jmp    10268 <safe_mod_func_int8_t_s_s+0x37>
   10264:	0f b6 45 fc          	movzbl -0x4(%rbp),%eax
   10268:	5d                   	pop    %rbp
   10269:	c3                   	retq   

000000000001026a <safe_div_func_int8_t_s_s>:
   1026a:	f3 0f 1e fa          	endbr64 
   1026e:	55                   	push   %rbp
   1026f:	48 89 e5             	mov    %rsp,%rbp
   10272:	89 fa                	mov    %edi,%edx
   10274:	89 f0                	mov    %esi,%eax
   10276:	88 55 fc             	mov    %dl,-0x4(%rbp)
   10279:	88 45 f8             	mov    %al,-0x8(%rbp)
   1027c:	80 7d f8 00          	cmpb   $0x0,-0x8(%rbp)
   10280:	74 19                	je     1029b <safe_div_func_int8_t_s_s+0x31>
   10282:	80 7d fc 80          	cmpb   $0x80,-0x4(%rbp)
   10286:	75 06                	jne    1028e <safe_div_func_int8_t_s_s+0x24>
   10288:	80 7d f8 ff          	cmpb   $0xff,-0x8(%rbp)
   1028c:	74 0d                	je     1029b <safe_div_func_int8_t_s_s+0x31>
   1028e:	0f be 45 fc          	movsbl -0x4(%rbp),%eax
   10292:	0f be 4d f8          	movsbl -0x8(%rbp),%ecx
   10296:	99                   	cltd   
   10297:	f7 f9                	idiv   %ecx
   10299:	eb 04                	jmp    1029f <safe_div_func_int8_t_s_s+0x35>
   1029b:	0f b6 45 fc          	movzbl -0x4(%rbp),%eax
   1029f:	5d                   	pop    %rbp
   102a0:	c3                   	retq   

00000000000102a1 <safe_lshift_func_int8_t_s_s>:
   102a1:	f3 0f 1e fa          	endbr64 
   102a5:	55                   	push   %rbp
   102a6:	48 89 e5             	mov    %rsp,%rbp
   102a9:	89 f8                	mov    %edi,%eax
   102ab:	89 75 f8             	mov    %esi,-0x8(%rbp)
   102ae:	88 45 fc             	mov    %al,-0x4(%rbp)
   102b1:	80 7d fc 00          	cmpb   $0x0,-0x4(%rbp)
   102b5:	78 31                	js     102e8 <safe_lshift_func_int8_t_s_s+0x47>
   102b7:	83 7d f8 00          	cmpl   $0x0,-0x8(%rbp)
   102bb:	78 2b                	js     102e8 <safe_lshift_func_int8_t_s_s+0x47>
   102bd:	83 7d f8 1f          	cmpl   $0x1f,-0x8(%rbp)
   102c1:	7f 25                	jg     102e8 <safe_lshift_func_int8_t_s_s+0x47>
   102c3:	0f be 55 fc          	movsbl -0x4(%rbp),%edx
   102c7:	8b 45 f8             	mov    -0x8(%rbp),%eax
   102ca:	be 7f 00 00 00       	mov    $0x7f,%esi
   102cf:	89 c1                	mov    %eax,%ecx
   102d1:	d3 fe                	sar    %cl,%esi
   102d3:	89 f0                	mov    %esi,%eax
   102d5:	39 c2                	cmp    %eax,%edx
   102d7:	7f 0f                	jg     102e8 <safe_lshift_func_int8_t_s_s+0x47>
   102d9:	0f be 55 fc          	movsbl -0x4(%rbp),%edx
   102dd:	8b 45 f8             	mov    -0x8(%rbp),%eax
   102e0:	89 c1                	mov    %eax,%ecx
   102e2:	d3 e2                	shl    %cl,%edx
   102e4:	89 d0                	mov    %edx,%eax
   102e6:	eb 04                	jmp    102ec <safe_lshift_func_int8_t_s_s+0x4b>
   102e8:	0f b6 45 fc          	movzbl -0x4(%rbp),%eax
   102ec:	5d                   	pop    %rbp
   102ed:	c3                   	retq   

00000000000102ee <safe_lshift_func_int8_t_s_u>:
   102ee:	f3 0f 1e fa          	endbr64 
   102f2:	55                   	push   %rbp
   102f3:	48 89 e5             	mov    %rsp,%rbp
   102f6:	89 f8                	mov    %edi,%eax
   102f8:	89 75 f8             	mov    %esi,-0x8(%rbp)
   102fb:	88 45 fc             	mov    %al,-0x4(%rbp)
   102fe:	80 7d fc 00          	cmpb   $0x0,-0x4(%rbp)
   10302:	78 2b                	js     1032f <safe_lshift_func_int8_t_s_u+0x41>
   10304:	83 7d f8 1f          	cmpl   $0x1f,-0x8(%rbp)
   10308:	77 25                	ja     1032f <safe_lshift_func_int8_t_s_u+0x41>
   1030a:	0f be 55 fc          	movsbl -0x4(%rbp),%edx
   1030e:	8b 45 f8             	mov    -0x8(%rbp),%eax
   10311:	be 7f 00 00 00       	mov    $0x7f,%esi
   10316:	89 c1                	mov    %eax,%ecx
   10318:	d3 fe                	sar    %cl,%esi
   1031a:	89 f0                	mov    %esi,%eax
   1031c:	39 c2                	cmp    %eax,%edx
   1031e:	7f 0f                	jg     1032f <safe_lshift_func_int8_t_s_u+0x41>
   10320:	0f be 55 fc          	movsbl -0x4(%rbp),%edx
   10324:	8b 45 f8             	mov    -0x8(%rbp),%eax
   10327:	89 c1                	mov    %eax,%ecx
   10329:	d3 e2                	shl    %cl,%edx
   1032b:	89 d0                	mov    %edx,%eax
   1032d:	eb 04                	jmp    10333 <safe_lshift_func_int8_t_s_u+0x45>
   1032f:	0f b6 45 fc          	movzbl -0x4(%rbp),%eax
   10333:	5d                   	pop    %rbp
   10334:	c3                   	retq   

0000000000010335 <safe_rshift_func_int8_t_s_s>:
   10335:	f3 0f 1e fa          	endbr64 
   10339:	55                   	push   %rbp
   1033a:	48 89 e5             	mov    %rsp,%rbp
   1033d:	89 f8                	mov    %edi,%eax
   1033f:	89 75 f8             	mov    %esi,-0x8(%rbp)
   10342:	88 45 fc             	mov    %al,-0x4(%rbp)
   10345:	80 7d fc 00          	cmpb   $0x0,-0x4(%rbp)
   10349:	78 1b                	js     10366 <safe_rshift_func_int8_t_s_s+0x31>
   1034b:	83 7d f8 00          	cmpl   $0x0,-0x8(%rbp)
   1034f:	78 15                	js     10366 <safe_rshift_func_int8_t_s_s+0x31>
   10351:	83 7d f8 1f          	cmpl   $0x1f,-0x8(%rbp)
   10355:	7f 0f                	jg     10366 <safe_rshift_func_int8_t_s_s+0x31>
   10357:	0f be 55 fc          	movsbl -0x4(%rbp),%edx
   1035b:	8b 45 f8             	mov    -0x8(%rbp),%eax
   1035e:	89 c1                	mov    %eax,%ecx
   10360:	d3 fa                	sar    %cl,%edx
   10362:	89 d0                	mov    %edx,%eax
   10364:	eb 04                	jmp    1036a <safe_rshift_func_int8_t_s_s+0x35>
   10366:	0f b6 45 fc          	movzbl -0x4(%rbp),%eax
   1036a:	5d                   	pop    %rbp
   1036b:	c3                   	retq   

000000000001036c <safe_rshift_func_int8_t_s_u>:
   1036c:	f3 0f 1e fa          	endbr64 
   10370:	55                   	push   %rbp
   10371:	48 89 e5             	mov    %rsp,%rbp
   10374:	89 f8                	mov    %edi,%eax
   10376:	89 75 f8             	mov    %esi,-0x8(%rbp)
   10379:	88 45 fc             	mov    %al,-0x4(%rbp)
   1037c:	80 7d fc 00          	cmpb   $0x0,-0x4(%rbp)
   10380:	78 15                	js     10397 <safe_rshift_func_int8_t_s_u+0x2b>
   10382:	83 7d f8 1f          	cmpl   $0x1f,-0x8(%rbp)
   10386:	77 0f                	ja     10397 <safe_rshift_func_int8_t_s_u+0x2b>
   10388:	0f be 55 fc          	movsbl -0x4(%rbp),%edx
   1038c:	8b 45 f8             	mov    -0x8(%rbp),%eax
   1038f:	89 c1                	mov    %eax,%ecx
   10391:	d3 fa                	sar    %cl,%edx
   10393:	89 d0                	mov    %edx,%eax
   10395:	eb 04                	jmp    1039b <safe_rshift_func_int8_t_s_u+0x2f>
   10397:	0f b6 45 fc          	movzbl -0x4(%rbp),%eax
   1039b:	5d                   	pop    %rbp
   1039c:	c3                   	retq   

000000000001039d <safe_unary_minus_func_int16_t_s>:
   1039d:	f3 0f 1e fa          	endbr64 
   103a1:	55                   	push   %rbp
   103a2:	48 89 e5             	mov    %rsp,%rbp
   103a5:	89 f8                	mov    %edi,%eax
   103a7:	66 89 45 fc          	mov    %ax,-0x4(%rbp)
   103ab:	0f b7 45 fc          	movzwl -0x4(%rbp),%eax
   103af:	f7 d8                	neg    %eax
   103b1:	5d                   	pop    %rbp
   103b2:	c3                   	retq   

00000000000103b3 <safe_add_func_int16_t_s_s>:
   103b3:	f3 0f 1e fa          	endbr64 
   103b7:	55                   	push   %rbp
   103b8:	48 89 e5             	mov    %rsp,%rbp
   103bb:	89 fa                	mov    %edi,%edx
   103bd:	89 f0                	mov    %esi,%eax
   103bf:	66 89 55 fc          	mov    %dx,-0x4(%rbp)
   103c3:	66 89 45 f8          	mov    %ax,-0x8(%rbp)
   103c7:	0f b7 55 fc          	movzwl -0x4(%rbp),%edx
   103cb:	0f b7 45 f8          	movzwl -0x8(%rbp),%eax
   103cf:	01 d0                	add    %edx,%eax
   103d1:	5d                   	pop    %rbp
   103d2:	c3                   	retq   

00000000000103d3 <safe_sub_func_int16_t_s_s>:
   103d3:	f3 0f 1e fa          	endbr64 
   103d7:	55                   	push   %rbp
   103d8:	48 89 e5             	mov    %rsp,%rbp
   103db:	89 fa                	mov    %edi,%edx
   103dd:	89 f0                	mov    %esi,%eax
   103df:	66 89 55 fc          	mov    %dx,-0x4(%rbp)
   103e3:	66 89 45 f8          	mov    %ax,-0x8(%rbp)
   103e7:	0f b7 55 fc          	movzwl -0x4(%rbp),%edx
   103eb:	0f b7 45 f8          	movzwl -0x8(%rbp),%eax
   103ef:	29 c2                	sub    %eax,%edx
   103f1:	89 d0                	mov    %edx,%eax
   103f3:	5d                   	pop    %rbp
   103f4:	c3                   	retq   

00000000000103f5 <safe_mul_func_int16_t_s_s>:
   103f5:	f3 0f 1e fa          	endbr64 
   103f9:	55                   	push   %rbp
   103fa:	48 89 e5             	mov    %rsp,%rbp
   103fd:	89 fa                	mov    %edi,%edx
   103ff:	89 f0                	mov    %esi,%eax
   10401:	66 89 55 fc          	mov    %dx,-0x4(%rbp)
   10405:	66 89 45 f8          	mov    %ax,-0x8(%rbp)
   10409:	0f b7 55 fc          	movzwl -0x4(%rbp),%edx
   1040d:	0f b7 45 f8          	movzwl -0x8(%rbp),%eax
   10411:	0f af c2             	imul   %edx,%eax
   10414:	5d                   	pop    %rbp
   10415:	c3                   	retq   

0000000000010416 <safe_mod_func_int16_t_s_s>:
   10416:	f3 0f 1e fa          	endbr64 
   1041a:	55                   	push   %rbp
   1041b:	48 89 e5             	mov    %rsp,%rbp
   1041e:	89 fa                	mov    %edi,%edx
   10420:	89 f0                	mov    %esi,%eax
   10422:	66 89 55 fc          	mov    %dx,-0x4(%rbp)
   10426:	66 89 45 f8          	mov    %ax,-0x8(%rbp)
   1042a:	66 83 7d f8 00       	cmpw   $0x0,-0x8(%rbp)
   1042f:	74 1e                	je     1044f <safe_mod_func_int16_t_s_s+0x39>
   10431:	66 81 7d fc 00 80    	cmpw   $0x8000,-0x4(%rbp)
   10437:	75 07                	jne    10440 <safe_mod_func_int16_t_s_s+0x2a>
   10439:	66 83 7d f8 ff       	cmpw   $0xffff,-0x8(%rbp)
   1043e:	74 0f                	je     1044f <safe_mod_func_int16_t_s_s+0x39>
   10440:	0f bf 45 fc          	movswl -0x4(%rbp),%eax
   10444:	0f bf 4d f8          	movswl -0x8(%rbp),%ecx
   10448:	99                   	cltd   
   10449:	f7 f9                	idiv   %ecx
   1044b:	89 d0                	mov    %edx,%eax
   1044d:	eb 04                	jmp    10453 <safe_mod_func_int16_t_s_s+0x3d>
   1044f:	0f b7 45 fc          	movzwl -0x4(%rbp),%eax
   10453:	5d                   	pop    %rbp
   10454:	c3                   	retq   

0000000000010455 <safe_div_func_int16_t_s_s>:
   10455:	f3 0f 1e fa          	endbr64 
   10459:	55                   	push   %rbp
   1045a:	48 89 e5             	mov    %rsp,%rbp
   1045d:	89 fa                	mov    %edi,%edx
   1045f:	89 f0                	mov    %esi,%eax
   10461:	66 89 55 fc          	mov    %dx,-0x4(%rbp)
   10465:	66 89 45 f8          	mov    %ax,-0x8(%rbp)
   10469:	66 83 7d f8 00       	cmpw   $0x0,-0x8(%rbp)
   1046e:	74 1c                	je     1048c <safe_div_func_int16_t_s_s+0x37>
   10470:	66 81 7d fc 00 80    	cmpw   $0x8000,-0x4(%rbp)
   10476:	75 07                	jne    1047f <safe_div_func_int16_t_s_s+0x2a>
   10478:	66 83 7d f8 ff       	cmpw   $0xffff,-0x8(%rbp)
   1047d:	74 0d                	je     1048c <safe_div_func_int16_t_s_s+0x37>
   1047f:	0f bf 45 fc          	movswl -0x4(%rbp),%eax
   10483:	0f bf 4d f8          	movswl -0x8(%rbp),%ecx
   10487:	99                   	cltd   
   10488:	f7 f9                	idiv   %ecx
   1048a:	eb 04                	jmp    10490 <safe_div_func_int16_t_s_s+0x3b>
   1048c:	0f b7 45 fc          	movzwl -0x4(%rbp),%eax
   10490:	5d                   	pop    %rbp
   10491:	c3                   	retq   

0000000000010492 <safe_lshift_func_int16_t_s_s>:
   10492:	f3 0f 1e fa          	endbr64 
   10496:	55                   	push   %rbp
   10497:	48 89 e5             	mov    %rsp,%rbp
   1049a:	89 f8                	mov    %edi,%eax
   1049c:	89 75 f8             	mov    %esi,-0x8(%rbp)
   1049f:	66 89 45 fc          	mov    %ax,-0x4(%rbp)
   104a3:	66 83 7d fc 00       	cmpw   $0x0,-0x4(%rbp)
   104a8:	78 31                	js     104db <safe_lshift_func_int16_t_s_s+0x49>
   104aa:	83 7d f8 00          	cmpl   $0x0,-0x8(%rbp)
   104ae:	78 2b                	js     104db <safe_lshift_func_int16_t_s_s+0x49>
   104b0:	83 7d f8 1f          	cmpl   $0x1f,-0x8(%rbp)
   104b4:	7f 25                	jg     104db <safe_lshift_func_int16_t_s_s+0x49>
   104b6:	0f bf 55 fc          	movswl -0x4(%rbp),%edx
   104ba:	8b 45 f8             	mov    -0x8(%rbp),%eax
   104bd:	be ff 7f 00 00       	mov    $0x7fff,%esi
   104c2:	89 c1                	mov    %eax,%ecx
   104c4:	d3 fe                	sar    %cl,%esi
   104c6:	89 f0                	mov    %esi,%eax
   104c8:	39 c2                	cmp    %eax,%edx
   104ca:	7f 0f                	jg     104db <safe_lshift_func_int16_t_s_s+0x49>
   104cc:	0f bf 55 fc          	movswl -0x4(%rbp),%edx
   104d0:	8b 45 f8             	mov    -0x8(%rbp),%eax
   104d3:	89 c1                	mov    %eax,%ecx
   104d5:	d3 e2                	shl    %cl,%edx
   104d7:	89 d0                	mov    %edx,%eax
   104d9:	eb 04                	jmp    104df <safe_lshift_func_int16_t_s_s+0x4d>
   104db:	0f b7 45 fc          	movzwl -0x4(%rbp),%eax
   104df:	5d                   	pop    %rbp
   104e0:	c3                   	retq   

00000000000104e1 <safe_lshift_func_int16_t_s_u>:
   104e1:	f3 0f 1e fa          	endbr64 
   104e5:	55                   	push   %rbp
   104e6:	48 89 e5             	mov    %rsp,%rbp
   104e9:	89 f8                	mov    %edi,%eax
   104eb:	89 75 f8             	mov    %esi,-0x8(%rbp)
   104ee:	66 89 45 fc          	mov    %ax,-0x4(%rbp)
   104f2:	66 83 7d fc 00       	cmpw   $0x0,-0x4(%rbp)
   104f7:	78 2b                	js     10524 <safe_lshift_func_int16_t_s_u+0x43>
   104f9:	83 7d f8 1f          	cmpl   $0x1f,-0x8(%rbp)
   104fd:	77 25                	ja     10524 <safe_lshift_func_int16_t_s_u+0x43>
   104ff:	0f bf 55 fc          	movswl -0x4(%rbp),%edx
   10503:	8b 45 f8             	mov    -0x8(%rbp),%eax
   10506:	be ff 7f 00 00       	mov    $0x7fff,%esi
   1050b:	89 c1                	mov    %eax,%ecx
   1050d:	d3 fe                	sar    %cl,%esi
   1050f:	89 f0                	mov    %esi,%eax
   10511:	39 c2                	cmp    %eax,%edx
   10513:	7f 0f                	jg     10524 <safe_lshift_func_int16_t_s_u+0x43>
   10515:	0f bf 55 fc          	movswl -0x4(%rbp),%edx
   10519:	8b 45 f8             	mov    -0x8(%rbp),%eax
   1051c:	89 c1                	mov    %eax,%ecx
   1051e:	d3 e2                	shl    %cl,%edx
   10520:	89 d0                	mov    %edx,%eax
   10522:	eb 04                	jmp    10528 <safe_lshift_func_int16_t_s_u+0x47>
   10524:	0f b7 45 fc          	movzwl -0x4(%rbp),%eax
   10528:	5d                   	pop    %rbp
   10529:	c3                   	retq   

000000000001052a <safe_rshift_func_int16_t_s_s>:
   1052a:	f3 0f 1e fa          	endbr64 
   1052e:	55                   	push   %rbp
   1052f:	48 89 e5             	mov    %rsp,%rbp
   10532:	89 f8                	mov    %edi,%eax
   10534:	89 75 f8             	mov    %esi,-0x8(%rbp)
   10537:	66 89 45 fc          	mov    %ax,-0x4(%rbp)
   1053b:	66 83 7d fc 00       	cmpw   $0x0,-0x4(%rbp)
   10540:	78 1b                	js     1055d <safe_rshift_func_int16_t_s_s+0x33>
   10542:	83 7d f8 00          	cmpl   $0x0,-0x8(%rbp)
   10546:	78 15                	js     1055d <safe_rshift_func_int16_t_s_s+0x33>
   10548:	83 7d f8 1f          	cmpl   $0x1f,-0x8(%rbp)
   1054c:	7f 0f                	jg     1055d <safe_rshift_func_int16_t_s_s+0x33>
   1054e:	0f bf 55 fc          	movswl -0x4(%rbp),%edx
   10552:	8b 45 f8             	mov    -0x8(%rbp),%eax
   10555:	89 c1                	mov    %eax,%ecx
   10557:	d3 fa                	sar    %cl,%edx
   10559:	89 d0                	mov    %edx,%eax
   1055b:	eb 04                	jmp    10561 <safe_rshift_func_int16_t_s_s+0x37>
   1055d:	0f b7 45 fc          	movzwl -0x4(%rbp),%eax
   10561:	5d                   	pop    %rbp
   10562:	c3                   	retq   

0000000000010563 <safe_rshift_func_int16_t_s_u>:
   10563:	f3 0f 1e fa          	endbr64 
   10567:	55                   	push   %rbp
   10568:	48 89 e5             	mov    %rsp,%rbp
   1056b:	89 f8                	mov    %edi,%eax
   1056d:	89 75 f8             	mov    %esi,-0x8(%rbp)
   10570:	66 89 45 fc          	mov    %ax,-0x4(%rbp)
   10574:	66 83 7d fc 00       	cmpw   $0x0,-0x4(%rbp)
   10579:	78 15                	js     10590 <safe_rshift_func_int16_t_s_u+0x2d>
   1057b:	83 7d f8 1f          	cmpl   $0x1f,-0x8(%rbp)
   1057f:	77 0f                	ja     10590 <safe_rshift_func_int16_t_s_u+0x2d>
   10581:	0f bf 55 fc          	movswl -0x4(%rbp),%edx
   10585:	8b 45 f8             	mov    -0x8(%rbp),%eax
   10588:	89 c1                	mov    %eax,%ecx
   1058a:	d3 fa                	sar    %cl,%edx
   1058c:	89 d0                	mov    %edx,%eax
   1058e:	eb 04                	jmp    10594 <safe_rshift_func_int16_t_s_u+0x31>
   10590:	0f b7 45 fc          	movzwl -0x4(%rbp),%eax
   10594:	5d                   	pop    %rbp
   10595:	c3                   	retq   

0000000000010596 <safe_unary_minus_func_int32_t_s>:
   10596:	f3 0f 1e fa          	endbr64 
   1059a:	55                   	push   %rbp
   1059b:	48 89 e5             	mov    %rsp,%rbp
   1059e:	89 7d fc             	mov    %edi,-0x4(%rbp)
   105a1:	81 7d fc 00 00 00 80 	cmpl   $0x80000000,-0x4(%rbp)
   105a8:	74 07                	je     105b1 <safe_unary_minus_func_int32_t_s+0x1b>
   105aa:	8b 45 fc             	mov    -0x4(%rbp),%eax
   105ad:	f7 d8                	neg    %eax
   105af:	eb 03                	jmp    105b4 <safe_unary_minus_func_int32_t_s+0x1e>
   105b1:	8b 45 fc             	mov    -0x4(%rbp),%eax
   105b4:	5d                   	pop    %rbp
   105b5:	c3                   	retq   

00000000000105b6 <safe_add_func_int32_t_s_s>:
   105b6:	f3 0f 1e fa          	endbr64 
   105ba:	55                   	push   %rbp
   105bb:	48 89 e5             	mov    %rsp,%rbp
   105be:	89 7d fc             	mov    %edi,-0x4(%rbp)
   105c1:	89 75 f8             	mov    %esi,-0x8(%rbp)
   105c4:	83 7d fc 00          	cmpl   $0x0,-0x4(%rbp)
   105c8:	7e 13                	jle    105dd <safe_add_func_int32_t_s_s+0x27>
   105ca:	83 7d f8 00          	cmpl   $0x0,-0x8(%rbp)
   105ce:	7e 0d                	jle    105dd <safe_add_func_int32_t_s_s+0x27>
   105d0:	b8 ff ff ff 7f       	mov    $0x7fffffff,%eax
   105d5:	2b 45 f8             	sub    -0x8(%rbp),%eax
   105d8:	39 45 fc             	cmp    %eax,-0x4(%rbp)
   105db:	7f 23                	jg     10600 <safe_add_func_int32_t_s_s+0x4a>
   105dd:	83 7d fc 00          	cmpl   $0x0,-0x4(%rbp)
   105e1:	79 13                	jns    105f6 <safe_add_func_int32_t_s_s+0x40>
   105e3:	83 7d f8 00          	cmpl   $0x0,-0x8(%rbp)
   105e7:	79 0d                	jns    105f6 <safe_add_func_int32_t_s_s+0x40>
   105e9:	b8 00 00 00 80       	mov    $0x80000000,%eax
   105ee:	2b 45 f8             	sub    -0x8(%rbp),%eax
   105f1:	39 45 fc             	cmp    %eax,-0x4(%rbp)
   105f4:	7c 0a                	jl     10600 <safe_add_func_int32_t_s_s+0x4a>
   105f6:	8b 55 fc             	mov    -0x4(%rbp),%edx
   105f9:	8b 45 f8             	mov    -0x8(%rbp),%eax
   105fc:	01 d0                	add    %edx,%eax
   105fe:	eb 03                	jmp    10603 <safe_add_func_int32_t_s_s+0x4d>
   10600:	8b 45 fc             	mov    -0x4(%rbp),%eax
   10603:	5d                   	pop    %rbp
   10604:	c3                   	retq   

0000000000010605 <safe_sub_func_int32_t_s_s>:
   10605:	f3 0f 1e fa          	endbr64 
   10609:	55                   	push   %rbp
   1060a:	48 89 e5             	mov    %rsp,%rbp
   1060d:	89 7d fc             	mov    %edi,-0x4(%rbp)
   10610:	89 75 f8             	mov    %esi,-0x8(%rbp)
   10613:	8b 45 fc             	mov    -0x4(%rbp),%eax
   10616:	33 45 f8             	xor    -0x8(%rbp),%eax
   10619:	89 c2                	mov    %eax,%edx
   1061b:	8b 45 fc             	mov    -0x4(%rbp),%eax
   1061e:	33 45 f8             	xor    -0x8(%rbp),%eax
   10621:	25 00 00 00 80       	and    $0x80000000,%eax
   10626:	33 45 fc             	xor    -0x4(%rbp),%eax
   10629:	2b 45 f8             	sub    -0x8(%rbp),%eax
   1062c:	33 45 f8             	xor    -0x8(%rbp),%eax
   1062f:	21 d0                	and    %edx,%eax
   10631:	85 c0                	test   %eax,%eax
   10633:	78 08                	js     1063d <safe_sub_func_int32_t_s_s+0x38>
   10635:	8b 45 fc             	mov    -0x4(%rbp),%eax
   10638:	2b 45 f8             	sub    -0x8(%rbp),%eax
   1063b:	eb 03                	jmp    10640 <safe_sub_func_int32_t_s_s+0x3b>
   1063d:	8b 45 fc             	mov    -0x4(%rbp),%eax
   10640:	5d                   	pop    %rbp
   10641:	c3                   	retq   

0000000000010642 <safe_mul_func_int32_t_s_s>:
   10642:	f3 0f 1e fa          	endbr64 
   10646:	55                   	push   %rbp
   10647:	48 89 e5             	mov    %rsp,%rbp
   1064a:	89 7d fc             	mov    %edi,-0x4(%rbp)
   1064d:	89 75 f8             	mov    %esi,-0x8(%rbp)
   10650:	83 7d fc 00          	cmpl   $0x0,-0x4(%rbp)
   10654:	7e 14                	jle    1066a <safe_mul_func_int32_t_s_s+0x28>
   10656:	83 7d f8 00          	cmpl   $0x0,-0x8(%rbp)
   1065a:	7e 0e                	jle    1066a <safe_mul_func_int32_t_s_s+0x28>
   1065c:	b8 ff ff ff 7f       	mov    $0x7fffffff,%eax
   10661:	99                   	cltd   
   10662:	f7 7d f8             	idivl  -0x8(%rbp)
   10665:	39 45 fc             	cmp    %eax,-0x4(%rbp)
   10668:	7f 5d                	jg     106c7 <safe_mul_func_int32_t_s_s+0x85>
   1066a:	83 7d fc 00          	cmpl   $0x0,-0x4(%rbp)
   1066e:	7e 14                	jle    10684 <safe_mul_func_int32_t_s_s+0x42>
   10670:	83 7d f8 00          	cmpl   $0x0,-0x8(%rbp)
   10674:	7f 0e                	jg     10684 <safe_mul_func_int32_t_s_s+0x42>
   10676:	b8 00 00 00 80       	mov    $0x80000000,%eax
   1067b:	99                   	cltd   
   1067c:	f7 7d fc             	idivl  -0x4(%rbp)
   1067f:	39 45 f8             	cmp    %eax,-0x8(%rbp)
   10682:	7c 43                	jl     106c7 <safe_mul_func_int32_t_s_s+0x85>
   10684:	83 7d fc 00          	cmpl   $0x0,-0x4(%rbp)
   10688:	7f 14                	jg     1069e <safe_mul_func_int32_t_s_s+0x5c>
   1068a:	83 7d f8 00          	cmpl   $0x0,-0x8(%rbp)
   1068e:	7e 0e                	jle    1069e <safe_mul_func_int32_t_s_s+0x5c>
   10690:	b8 00 00 00 80       	mov    $0x80000000,%eax
   10695:	99                   	cltd   
   10696:	f7 7d f8             	idivl  -0x8(%rbp)
   10699:	39 45 fc             	cmp    %eax,-0x4(%rbp)
   1069c:	7c 29                	jl     106c7 <safe_mul_func_int32_t_s_s+0x85>
   1069e:	83 7d fc 00          	cmpl   $0x0,-0x4(%rbp)
   106a2:	7f 1a                	jg     106be <safe_mul_func_int32_t_s_s+0x7c>
   106a4:	83 7d f8 00          	cmpl   $0x0,-0x8(%rbp)
   106a8:	7f 14                	jg     106be <safe_mul_func_int32_t_s_s+0x7c>
   106aa:	83 7d fc 00          	cmpl   $0x0,-0x4(%rbp)
   106ae:	74 0e                	je     106be <safe_mul_func_int32_t_s_s+0x7c>
   106b0:	b8 ff ff ff 7f       	mov    $0x7fffffff,%eax
   106b5:	99                   	cltd   
   106b6:	f7 7d fc             	idivl  -0x4(%rbp)
   106b9:	39 45 f8             	cmp    %eax,-0x8(%rbp)
   106bc:	7c 09                	jl     106c7 <safe_mul_func_int32_t_s_s+0x85>
   106be:	8b 45 fc             	mov    -0x4(%rbp),%eax
   106c1:	0f af 45 f8          	imul   -0x8(%rbp),%eax
   106c5:	eb 03                	jmp    106ca <safe_mul_func_int32_t_s_s+0x88>
   106c7:	8b 45 fc             	mov    -0x4(%rbp),%eax
   106ca:	5d                   	pop    %rbp
   106cb:	c3                   	retq   

00000000000106cc <safe_mod_func_int32_t_s_s>:
   106cc:	f3 0f 1e fa          	endbr64 
   106d0:	55                   	push   %rbp
   106d1:	48 89 e5             	mov    %rsp,%rbp
   106d4:	89 7d fc             	mov    %edi,-0x4(%rbp)
   106d7:	89 75 f8             	mov    %esi,-0x8(%rbp)
   106da:	83 7d f8 00          	cmpl   $0x0,-0x8(%rbp)
   106de:	74 1a                	je     106fa <safe_mod_func_int32_t_s_s+0x2e>
   106e0:	81 7d fc 00 00 00 80 	cmpl   $0x80000000,-0x4(%rbp)
   106e7:	75 06                	jne    106ef <safe_mod_func_int32_t_s_s+0x23>
   106e9:	83 7d f8 ff          	cmpl   $0xffffffff,-0x8(%rbp)
   106ed:	74 0b                	je     106fa <safe_mod_func_int32_t_s_s+0x2e>
   106ef:	8b 45 fc             	mov    -0x4(%rbp),%eax
   106f2:	99                   	cltd   
   106f3:	f7 7d f8             	idivl  -0x8(%rbp)
   106f6:	89 d0                	mov    %edx,%eax
   106f8:	eb 03                	jmp    106fd <safe_mod_func_int32_t_s_s+0x31>
   106fa:	8b 45 fc             	mov    -0x4(%rbp),%eax
   106fd:	5d                   	pop    %rbp
   106fe:	c3                   	retq   

00000000000106ff <safe_div_func_int32_t_s_s>:
   106ff:	f3 0f 1e fa          	endbr64 
   10703:	55                   	push   %rbp
   10704:	48 89 e5             	mov    %rsp,%rbp
   10707:	89 7d fc             	mov    %edi,-0x4(%rbp)
   1070a:	89 75 f8             	mov    %esi,-0x8(%rbp)
   1070d:	83 7d f8 00          	cmpl   $0x0,-0x8(%rbp)
   10711:	74 18                	je     1072b <safe_div_func_int32_t_s_s+0x2c>
   10713:	81 7d fc 00 00 00 80 	cmpl   $0x80000000,-0x4(%rbp)
   1071a:	75 06                	jne    10722 <safe_div_func_int32_t_s_s+0x23>
   1071c:	83 7d f8 ff          	cmpl   $0xffffffff,-0x8(%rbp)
   10720:	74 09                	je     1072b <safe_div_func_int32_t_s_s+0x2c>
   10722:	8b 45 fc             	mov    -0x4(%rbp),%eax
   10725:	99                   	cltd   
   10726:	f7 7d f8             	idivl  -0x8(%rbp)
   10729:	eb 03                	jmp    1072e <safe_div_func_int32_t_s_s+0x2f>
   1072b:	8b 45 fc             	mov    -0x4(%rbp),%eax
   1072e:	5d                   	pop    %rbp
   1072f:	c3                   	retq   

0000000000010730 <safe_lshift_func_int32_t_s_s>:
   10730:	f3 0f 1e fa          	endbr64 
   10734:	55                   	push   %rbp
   10735:	48 89 e5             	mov    %rsp,%rbp
   10738:	89 7d fc             	mov    %edi,-0x4(%rbp)
   1073b:	89 75 f8             	mov    %esi,-0x8(%rbp)
   1073e:	83 7d fc 00          	cmpl   $0x0,-0x4(%rbp)
   10742:	78 2d                	js     10771 <safe_lshift_func_int32_t_s_s+0x41>
   10744:	83 7d f8 00          	cmpl   $0x0,-0x8(%rbp)
   10748:	78 27                	js     10771 <safe_lshift_func_int32_t_s_s+0x41>
   1074a:	83 7d f8 1f          	cmpl   $0x1f,-0x8(%rbp)
   1074e:	7f 21                	jg     10771 <safe_lshift_func_int32_t_s_s+0x41>
   10750:	8b 45 f8             	mov    -0x8(%rbp),%eax
   10753:	ba ff ff ff 7f       	mov    $0x7fffffff,%edx
   10758:	89 c1                	mov    %eax,%ecx
   1075a:	d3 fa                	sar    %cl,%edx
   1075c:	89 d0                	mov    %edx,%eax
   1075e:	39 45 fc             	cmp    %eax,-0x4(%rbp)
   10761:	7f 0e                	jg     10771 <safe_lshift_func_int32_t_s_s+0x41>
   10763:	8b 45 f8             	mov    -0x8(%rbp),%eax
   10766:	8b 55 fc             	mov    -0x4(%rbp),%edx
   10769:	89 c1                	mov    %eax,%ecx
   1076b:	d3 e2                	shl    %cl,%edx
   1076d:	89 d0                	mov    %edx,%eax
   1076f:	eb 03                	jmp    10774 <safe_lshift_func_int32_t_s_s+0x44>
   10771:	8b 45 fc             	mov    -0x4(%rbp),%eax
   10774:	5d                   	pop    %rbp
   10775:	c3                   	retq   

0000000000010776 <safe_lshift_func_int32_t_s_u>:
   10776:	f3 0f 1e fa          	endbr64 
   1077a:	55                   	push   %rbp
   1077b:	48 89 e5             	mov    %rsp,%rbp
   1077e:	89 7d fc             	mov    %edi,-0x4(%rbp)
   10781:	89 75 f8             	mov    %esi,-0x8(%rbp)
   10784:	83 7d fc 00          	cmpl   $0x0,-0x4(%rbp)
   10788:	78 27                	js     107b1 <safe_lshift_func_int32_t_s_u+0x3b>
   1078a:	83 7d f8 1f          	cmpl   $0x1f,-0x8(%rbp)
   1078e:	77 21                	ja     107b1 <safe_lshift_func_int32_t_s_u+0x3b>
   10790:	8b 45 f8             	mov    -0x8(%rbp),%eax
   10793:	ba ff ff ff 7f       	mov    $0x7fffffff,%edx
   10798:	89 c1                	mov    %eax,%ecx
   1079a:	d3 fa                	sar    %cl,%edx
   1079c:	89 d0                	mov    %edx,%eax
   1079e:	39 45 fc             	cmp    %eax,-0x4(%rbp)
   107a1:	7f 0e                	jg     107b1 <safe_lshift_func_int32_t_s_u+0x3b>
   107a3:	8b 45 f8             	mov    -0x8(%rbp),%eax
   107a6:	8b 55 fc             	mov    -0x4(%rbp),%edx
   107a9:	89 c1                	mov    %eax,%ecx
   107ab:	d3 e2                	shl    %cl,%edx
   107ad:	89 d0                	mov    %edx,%eax
   107af:	eb 03                	jmp    107b4 <safe_lshift_func_int32_t_s_u+0x3e>
   107b1:	8b 45 fc             	mov    -0x4(%rbp),%eax
   107b4:	5d                   	pop    %rbp
   107b5:	c3                   	retq   

00000000000107b6 <safe_rshift_func_int32_t_s_s>:
   107b6:	f3 0f 1e fa          	endbr64 
   107ba:	55                   	push   %rbp
   107bb:	48 89 e5             	mov    %rsp,%rbp
   107be:	89 7d fc             	mov    %edi,-0x4(%rbp)
   107c1:	89 75 f8             	mov    %esi,-0x8(%rbp)
   107c4:	83 7d fc 00          	cmpl   $0x0,-0x4(%rbp)
   107c8:	78 1a                	js     107e4 <safe_rshift_func_int32_t_s_s+0x2e>
   107ca:	83 7d f8 00          	cmpl   $0x0,-0x8(%rbp)
   107ce:	78 14                	js     107e4 <safe_rshift_func_int32_t_s_s+0x2e>
   107d0:	83 7d f8 1f          	cmpl   $0x1f,-0x8(%rbp)
   107d4:	7f 0e                	jg     107e4 <safe_rshift_func_int32_t_s_s+0x2e>
   107d6:	8b 45 f8             	mov    -0x8(%rbp),%eax
   107d9:	8b 55 fc             	mov    -0x4(%rbp),%edx
   107dc:	89 c1                	mov    %eax,%ecx
   107de:	d3 fa                	sar    %cl,%edx
   107e0:	89 d0                	mov    %edx,%eax
   107e2:	eb 03                	jmp    107e7 <safe_rshift_func_int32_t_s_s+0x31>
   107e4:	8b 45 fc             	mov    -0x4(%rbp),%eax
   107e7:	5d                   	pop    %rbp
   107e8:	c3                   	retq   

00000000000107e9 <safe_rshift_func_int32_t_s_u>:
   107e9:	f3 0f 1e fa          	endbr64 
   107ed:	55                   	push   %rbp
   107ee:	48 89 e5             	mov    %rsp,%rbp
   107f1:	89 7d fc             	mov    %edi,-0x4(%rbp)
   107f4:	89 75 f8             	mov    %esi,-0x8(%rbp)
   107f7:	83 7d fc 00          	cmpl   $0x0,-0x4(%rbp)
   107fb:	78 14                	js     10811 <safe_rshift_func_int32_t_s_u+0x28>
   107fd:	83 7d f8 1f          	cmpl   $0x1f,-0x8(%rbp)
   10801:	77 0e                	ja     10811 <safe_rshift_func_int32_t_s_u+0x28>
   10803:	8b 45 f8             	mov    -0x8(%rbp),%eax
   10806:	8b 55 fc             	mov    -0x4(%rbp),%edx
   10809:	89 c1                	mov    %eax,%ecx
   1080b:	d3 fa                	sar    %cl,%edx
   1080d:	89 d0                	mov    %edx,%eax
   1080f:	eb 03                	jmp    10814 <safe_rshift_func_int32_t_s_u+0x2b>
   10811:	8b 45 fc             	mov    -0x4(%rbp),%eax
   10814:	5d                   	pop    %rbp
   10815:	c3                   	retq   

0000000000010816 <safe_unary_minus_func_int64_t_s>:
   10816:	f3 0f 1e fa          	endbr64 
   1081a:	55                   	push   %rbp
   1081b:	48 89 e5             	mov    %rsp,%rbp
   1081e:	48 89 7d f8          	mov    %rdi,-0x8(%rbp)
   10822:	48 b8 00 00 00 00 00 	movabs $0x8000000000000000,%rax
   10829:	00 00 80 
   1082c:	48 39 45 f8          	cmp    %rax,-0x8(%rbp)
   10830:	74 09                	je     1083b <safe_unary_minus_func_int64_t_s+0x25>
   10832:	48 8b 45 f8          	mov    -0x8(%rbp),%rax
   10836:	48 f7 d8             	neg    %rax
   10839:	eb 04                	jmp    1083f <safe_unary_minus_func_int64_t_s+0x29>
   1083b:	48 8b 45 f8          	mov    -0x8(%rbp),%rax
   1083f:	5d                   	pop    %rbp
   10840:	c3                   	retq   

0000000000010841 <safe_add_func_int64_t_s_s>:
   10841:	f3 0f 1e fa          	endbr64 
   10845:	55                   	push   %rbp
   10846:	48 89 e5             	mov    %rsp,%rbp
   10849:	48 89 7d f8          	mov    %rdi,-0x8(%rbp)
   1084d:	48 89 75 f0          	mov    %rsi,-0x10(%rbp)
   10851:	48 83 7d f8 00       	cmpq   $0x0,-0x8(%rbp)
   10856:	7e 1b                	jle    10873 <safe_add_func_int64_t_s_s+0x32>
   10858:	48 83 7d f0 00       	cmpq   $0x0,-0x10(%rbp)
   1085d:	7e 14                	jle    10873 <safe_add_func_int64_t_s_s+0x32>
   1085f:	48 b8 ff ff ff ff ff 	movabs $0x7fffffffffffffff,%rax
   10866:	ff ff 7f 
   10869:	48 2b 45 f0          	sub    -0x10(%rbp),%rax
   1086d:	48 39 45 f8          	cmp    %rax,-0x8(%rbp)
   10871:	7f 2f                	jg     108a2 <safe_add_func_int64_t_s_s+0x61>
   10873:	48 83 7d f8 00       	cmpq   $0x0,-0x8(%rbp)
   10878:	79 1b                	jns    10895 <safe_add_func_int64_t_s_s+0x54>
   1087a:	48 83 7d f0 00       	cmpq   $0x0,-0x10(%rbp)
   1087f:	79 14                	jns    10895 <safe_add_func_int64_t_s_s+0x54>
   10881:	48 b8 00 00 00 00 00 	movabs $0x8000000000000000,%rax
   10888:	00 00 80 
   1088b:	48 2b 45 f0          	sub    -0x10(%rbp),%rax
   1088f:	48 39 45 f8          	cmp    %rax,-0x8(%rbp)
   10893:	7c 0d                	jl     108a2 <safe_add_func_int64_t_s_s+0x61>
   10895:	48 8b 55 f8          	mov    -0x8(%rbp),%rdx
   10899:	48 8b 45 f0          	mov    -0x10(%rbp),%rax
   1089d:	48 01 d0             	add    %rdx,%rax
   108a0:	eb 04                	jmp    108a6 <safe_add_func_int64_t_s_s+0x65>
   108a2:	48 8b 45 f8          	mov    -0x8(%rbp),%rax
   108a6:	5d                   	pop    %rbp
   108a7:	c3                   	retq   

00000000000108a8 <safe_sub_func_int64_t_s_s>:
   108a8:	f3 0f 1e fa          	endbr64 
   108ac:	55                   	push   %rbp
   108ad:	48 89 e5             	mov    %rsp,%rbp
   108b0:	48 89 7d f8          	mov    %rdi,-0x8(%rbp)
   108b4:	48 89 75 f0          	mov    %rsi,-0x10(%rbp)
   108b8:	48 8b 45 f8          	mov    -0x8(%rbp),%rax
   108bc:	48 33 45 f0          	xor    -0x10(%rbp),%rax
   108c0:	48 89 c2             	mov    %rax,%rdx
   108c3:	48 8b 45 f8          	mov    -0x8(%rbp),%rax
   108c7:	48 33 45 f0          	xor    -0x10(%rbp),%rax
   108cb:	48 b9 00 00 00 00 00 	movabs $0x8000000000000000,%rcx
   108d2:	00 00 80 
   108d5:	48 21 c8             	and    %rcx,%rax
   108d8:	48 33 45 f8          	xor    -0x8(%rbp),%rax
   108dc:	48 2b 45 f0          	sub    -0x10(%rbp),%rax
   108e0:	48 33 45 f0          	xor    -0x10(%rbp),%rax
   108e4:	48 21 d0             	and    %rdx,%rax
   108e7:	48 85 c0             	test   %rax,%rax
   108ea:	78 0a                	js     108f6 <safe_sub_func_int64_t_s_s+0x4e>
   108ec:	48 8b 45 f8          	mov    -0x8(%rbp),%rax
   108f0:	48 2b 45 f0          	sub    -0x10(%rbp),%rax
   108f4:	eb 04                	jmp    108fa <safe_sub_func_int64_t_s_s+0x52>
   108f6:	48 8b 45 f8          	mov    -0x8(%rbp),%rax
   108fa:	5d                   	pop    %rbp
   108fb:	c3                   	retq   

00000000000108fc <safe_mul_func_int64_t_s_s>:
   108fc:	f3 0f 1e fa          	endbr64 
   10900:	55                   	push   %rbp
   10901:	48 89 e5             	mov    %rsp,%rbp
   10904:	48 89 7d f8          	mov    %rdi,-0x8(%rbp)
   10908:	48 89 75 f0          	mov    %rsi,-0x10(%rbp)
   1090c:	48 83 7d f8 00       	cmpq   $0x0,-0x8(%rbp)
   10911:	7e 1d                	jle    10930 <safe_mul_func_int64_t_s_s+0x34>
   10913:	48 83 7d f0 00       	cmpq   $0x0,-0x10(%rbp)
   10918:	7e 16                	jle    10930 <safe_mul_func_int64_t_s_s+0x34>
   1091a:	48 b8 ff ff ff ff ff 	movabs $0x7fffffffffffffff,%rax
   10921:	ff ff 7f 
   10924:	48 99                	cqto   
   10926:	48 f7 7d f0          	idivq  -0x10(%rbp)
   1092a:	48 39 45 f8          	cmp    %rax,-0x8(%rbp)
   1092e:	7f 7e                	jg     109ae <safe_mul_func_int64_t_s_s+0xb2>
   10930:	48 83 7d f8 00       	cmpq   $0x0,-0x8(%rbp)
   10935:	7e 1d                	jle    10954 <safe_mul_func_int64_t_s_s+0x58>
   10937:	48 83 7d f0 00       	cmpq   $0x0,-0x10(%rbp)
   1093c:	7f 16                	jg     10954 <safe_mul_func_int64_t_s_s+0x58>
   1093e:	48 b8 00 00 00 00 00 	movabs $0x8000000000000000,%rax
   10945:	00 00 80 
   10948:	48 99                	cqto   
   1094a:	48 f7 7d f8          	idivq  -0x8(%rbp)
   1094e:	48 39 45 f0          	cmp    %rax,-0x10(%rbp)
   10952:	7c 5a                	jl     109ae <safe_mul_func_int64_t_s_s+0xb2>
   10954:	48 83 7d f8 00       	cmpq   $0x0,-0x8(%rbp)
   10959:	7f 1d                	jg     10978 <safe_mul_func_int64_t_s_s+0x7c>
   1095b:	48 83 7d f0 00       	cmpq   $0x0,-0x10(%rbp)
   10960:	7e 16                	jle    10978 <safe_mul_func_int64_t_s_s+0x7c>
   10962:	48 b8 00 00 00 00 00 	movabs $0x8000000000000000,%rax
   10969:	00 00 80 
   1096c:	48 99                	cqto   
   1096e:	48 f7 7d f0          	idivq  -0x10(%rbp)
   10972:	48 39 45 f8          	cmp    %rax,-0x8(%rbp)
   10976:	7c 36                	jl     109ae <safe_mul_func_int64_t_s_s+0xb2>
   10978:	48 83 7d f8 00       	cmpq   $0x0,-0x8(%rbp)
   1097d:	7f 24                	jg     109a3 <safe_mul_func_int64_t_s_s+0xa7>
   1097f:	48 83 7d f0 00       	cmpq   $0x0,-0x10(%rbp)
   10984:	7f 1d                	jg     109a3 <safe_mul_func_int64_t_s_s+0xa7>
   10986:	48 83 7d f8 00       	cmpq   $0x0,-0x8(%rbp)
   1098b:	74 16                	je     109a3 <safe_mul_func_int64_t_s_s+0xa7>
   1098d:	48 b8 ff ff ff ff ff 	movabs $0x7fffffffffffffff,%rax
   10994:	ff ff 7f 
   10997:	48 99                	cqto   
   10999:	48 f7 7d f8          	idivq  -0x8(%rbp)
   1099d:	48 39 45 f0          	cmp    %rax,-0x10(%rbp)
   109a1:	7c 0b                	jl     109ae <safe_mul_func_int64_t_s_s+0xb2>
   109a3:	48 8b 45 f8          	mov    -0x8(%rbp),%rax
   109a7:	48 0f af 45 f0       	imul   -0x10(%rbp),%rax
   109ac:	eb 04                	jmp    109b2 <safe_mul_func_int64_t_s_s+0xb6>
   109ae:	48 8b 45 f8          	mov    -0x8(%rbp),%rax
   109b2:	5d                   	pop    %rbp
   109b3:	c3                   	retq   

00000000000109b4 <safe_mod_func_int64_t_s_s>:
   109b4:	f3 0f 1e fa          	endbr64 
   109b8:	55                   	push   %rbp
   109b9:	48 89 e5             	mov    %rsp,%rbp
   109bc:	48 89 7d f8          	mov    %rdi,-0x8(%rbp)
   109c0:	48 89 75 f0          	mov    %rsi,-0x10(%rbp)
   109c4:	48 83 7d f0 00       	cmpq   $0x0,-0x10(%rbp)
   109c9:	74 26                	je     109f1 <safe_mod_func_int64_t_s_s+0x3d>
   109cb:	48 b8 00 00 00 00 00 	movabs $0x8000000000000000,%rax
   109d2:	00 00 80 
   109d5:	48 39 45 f8          	cmp    %rax,-0x8(%rbp)
   109d9:	75 07                	jne    109e2 <safe_mod_func_int64_t_s_s+0x2e>
   109db:	48 83 7d f0 ff       	cmpq   $0xffffffffffffffff,-0x10(%rbp)
   109e0:	74 0f                	je     109f1 <safe_mod_func_int64_t_s_s+0x3d>
   109e2:	48 8b 45 f8          	mov    -0x8(%rbp),%rax
   109e6:	48 99                	cqto   
   109e8:	48 f7 7d f0          	idivq  -0x10(%rbp)
   109ec:	48 89 d0             	mov    %rdx,%rax
   109ef:	eb 04                	jmp    109f5 <safe_mod_func_int64_t_s_s+0x41>
   109f1:	48 8b 45 f8          	mov    -0x8(%rbp),%rax
   109f5:	5d                   	pop    %rbp
   109f6:	c3                   	retq   

00000000000109f7 <safe_div_func_int64_t_s_s>:
   109f7:	f3 0f 1e fa          	endbr64 
   109fb:	55                   	push   %rbp
   109fc:	48 89 e5             	mov    %rsp,%rbp
   109ff:	48 89 7d f8          	mov    %rdi,-0x8(%rbp)
   10a03:	48 89 75 f0          	mov    %rsi,-0x10(%rbp)
   10a07:	48 83 7d f0 00       	cmpq   $0x0,-0x10(%rbp)
   10a0c:	74 23                	je     10a31 <safe_div_func_int64_t_s_s+0x3a>
   10a0e:	48 b8 00 00 00 00 00 	movabs $0x8000000000000000,%rax
   10a15:	00 00 80 
   10a18:	48 39 45 f8          	cmp    %rax,-0x8(%rbp)
   10a1c:	75 07                	jne    10a25 <safe_div_func_int64_t_s_s+0x2e>
   10a1e:	48 83 7d f0 ff       	cmpq   $0xffffffffffffffff,-0x10(%rbp)
   10a23:	74 0c                	je     10a31 <safe_div_func_int64_t_s_s+0x3a>
   10a25:	48 8b 45 f8          	mov    -0x8(%rbp),%rax
   10a29:	48 99                	cqto   
   10a2b:	48 f7 7d f0          	idivq  -0x10(%rbp)
   10a2f:	eb 04                	jmp    10a35 <safe_div_func_int64_t_s_s+0x3e>
   10a31:	48 8b 45 f8          	mov    -0x8(%rbp),%rax
   10a35:	5d                   	pop    %rbp
   10a36:	c3                   	retq   

0000000000010a37 <safe_lshift_func_int64_t_s_s>:
   10a37:	f3 0f 1e fa          	endbr64 
   10a3b:	55                   	push   %rbp
   10a3c:	48 89 e5             	mov    %rsp,%rbp
   10a3f:	48 89 7d f8          	mov    %rdi,-0x8(%rbp)
   10a43:	89 75 f4             	mov    %esi,-0xc(%rbp)
   10a46:	48 83 7d f8 00       	cmpq   $0x0,-0x8(%rbp)
   10a4b:	78 38                	js     10a85 <safe_lshift_func_int64_t_s_s+0x4e>
   10a4d:	83 7d f4 00          	cmpl   $0x0,-0xc(%rbp)
   10a51:	78 32                	js     10a85 <safe_lshift_func_int64_t_s_s+0x4e>
   10a53:	83 7d f4 1f          	cmpl   $0x1f,-0xc(%rbp)
   10a57:	7f 2c                	jg     10a85 <safe_lshift_func_int64_t_s_s+0x4e>
   10a59:	8b 45 f4             	mov    -0xc(%rbp),%eax
   10a5c:	48 ba ff ff ff ff ff 	movabs $0x7fffffffffffffff,%rdx
   10a63:	ff ff 7f 
   10a66:	89 c1                	mov    %eax,%ecx
   10a68:	48 d3 fa             	sar    %cl,%rdx
   10a6b:	48 89 d0             	mov    %rdx,%rax
   10a6e:	48 39 45 f8          	cmp    %rax,-0x8(%rbp)
   10a72:	7f 11                	jg     10a85 <safe_lshift_func_int64_t_s_s+0x4e>
   10a74:	8b 45 f4             	mov    -0xc(%rbp),%eax
   10a77:	48 8b 55 f8          	mov    -0x8(%rbp),%rdx
   10a7b:	89 c1                	mov    %eax,%ecx
   10a7d:	48 d3 e2             	shl    %cl,%rdx
   10a80:	48 89 d0             	mov    %rdx,%rax
   10a83:	eb 04                	jmp    10a89 <safe_lshift_func_int64_t_s_s+0x52>
   10a85:	48 8b 45 f8          	mov    -0x8(%rbp),%rax
   10a89:	5d                   	pop    %rbp
   10a8a:	c3                   	retq   

0000000000010a8b <safe_lshift_func_int64_t_s_u>:
   10a8b:	f3 0f 1e fa          	endbr64 
   10a8f:	55                   	push   %rbp
   10a90:	48 89 e5             	mov    %rsp,%rbp
   10a93:	48 89 7d f8          	mov    %rdi,-0x8(%rbp)
   10a97:	89 75 f4             	mov    %esi,-0xc(%rbp)
   10a9a:	48 83 7d f8 00       	cmpq   $0x0,-0x8(%rbp)
   10a9f:	78 32                	js     10ad3 <safe_lshift_func_int64_t_s_u+0x48>
   10aa1:	83 7d f4 1f          	cmpl   $0x1f,-0xc(%rbp)
   10aa5:	77 2c                	ja     10ad3 <safe_lshift_func_int64_t_s_u+0x48>
   10aa7:	8b 45 f4             	mov    -0xc(%rbp),%eax
   10aaa:	48 ba ff ff ff ff ff 	movabs $0x7fffffffffffffff,%rdx
   10ab1:	ff ff 7f 
   10ab4:	89 c1                	mov    %eax,%ecx
   10ab6:	48 d3 fa             	sar    %cl,%rdx
   10ab9:	48 89 d0             	mov    %rdx,%rax
   10abc:	48 39 45 f8          	cmp    %rax,-0x8(%rbp)
   10ac0:	7f 11                	jg     10ad3 <safe_lshift_func_int64_t_s_u+0x48>
   10ac2:	8b 45 f4             	mov    -0xc(%rbp),%eax
   10ac5:	48 8b 55 f8          	mov    -0x8(%rbp),%rdx
   10ac9:	89 c1                	mov    %eax,%ecx
   10acb:	48 d3 e2             	shl    %cl,%rdx
   10ace:	48 89 d0             	mov    %rdx,%rax
   10ad1:	eb 04                	jmp    10ad7 <safe_lshift_func_int64_t_s_u+0x4c>
   10ad3:	48 8b 45 f8          	mov    -0x8(%rbp),%rax
   10ad7:	5d                   	pop    %rbp
   10ad8:	c3                   	retq   

0000000000010ad9 <safe_rshift_func_int64_t_s_s>:
   10ad9:	f3 0f 1e fa          	endbr64 
   10add:	55                   	push   %rbp
   10ade:	48 89 e5             	mov    %rsp,%rbp
   10ae1:	48 89 7d f8          	mov    %rdi,-0x8(%rbp)
   10ae5:	89 75 f4             	mov    %esi,-0xc(%rbp)
   10ae8:	48 83 7d f8 00       	cmpq   $0x0,-0x8(%rbp)
   10aed:	78 1d                	js     10b0c <safe_rshift_func_int64_t_s_s+0x33>
   10aef:	83 7d f4 00          	cmpl   $0x0,-0xc(%rbp)
   10af3:	78 17                	js     10b0c <safe_rshift_func_int64_t_s_s+0x33>
   10af5:	83 7d f4 1f          	cmpl   $0x1f,-0xc(%rbp)
   10af9:	7f 11                	jg     10b0c <safe_rshift_func_int64_t_s_s+0x33>
   10afb:	8b 45 f4             	mov    -0xc(%rbp),%eax
   10afe:	48 8b 55 f8          	mov    -0x8(%rbp),%rdx
   10b02:	89 c1                	mov    %eax,%ecx
   10b04:	48 d3 fa             	sar    %cl,%rdx
   10b07:	48 89 d0             	mov    %rdx,%rax
   10b0a:	eb 04                	jmp    10b10 <safe_rshift_func_int64_t_s_s+0x37>
   10b0c:	48 8b 45 f8          	mov    -0x8(%rbp),%rax
   10b10:	5d                   	pop    %rbp
   10b11:	c3                   	retq   

0000000000010b12 <safe_rshift_func_int64_t_s_u>:
   10b12:	f3 0f 1e fa          	endbr64 
   10b16:	55                   	push   %rbp
   10b17:	48 89 e5             	mov    %rsp,%rbp
   10b1a:	48 89 7d f8          	mov    %rdi,-0x8(%rbp)
   10b1e:	89 75 f4             	mov    %esi,-0xc(%rbp)
   10b21:	48 83 7d f8 00       	cmpq   $0x0,-0x8(%rbp)
   10b26:	78 17                	js     10b3f <safe_rshift_func_int64_t_s_u+0x2d>
   10b28:	83 7d f4 1f          	cmpl   $0x1f,-0xc(%rbp)
   10b2c:	77 11                	ja     10b3f <safe_rshift_func_int64_t_s_u+0x2d>
   10b2e:	8b 45 f4             	mov    -0xc(%rbp),%eax
   10b31:	48 8b 55 f8          	mov    -0x8(%rbp),%rdx
   10b35:	89 c1                	mov    %eax,%ecx
   10b37:	48 d3 fa             	sar    %cl,%rdx
   10b3a:	48 89 d0             	mov    %rdx,%rax
   10b3d:	eb 04                	jmp    10b43 <safe_rshift_func_int64_t_s_u+0x31>
   10b3f:	48 8b 45 f8          	mov    -0x8(%rbp),%rax
   10b43:	5d                   	pop    %rbp
   10b44:	c3                   	retq   

0000000000010b45 <safe_unary_minus_func_uint8_t_u>:
   10b45:	f3 0f 1e fa          	endbr64 
   10b49:	55                   	push   %rbp
   10b4a:	48 89 e5             	mov    %rsp,%rbp
   10b4d:	89 f8                	mov    %edi,%eax
   10b4f:	88 45 fc             	mov    %al,-0x4(%rbp)
   10b52:	0f b6 45 fc          	movzbl -0x4(%rbp),%eax
   10b56:	f7 d8                	neg    %eax
   10b58:	5d                   	pop    %rbp
   10b59:	c3                   	retq   

0000000000010b5a <safe_add_func_uint8_t_u_u>:
   10b5a:	f3 0f 1e fa          	endbr64 
   10b5e:	55                   	push   %rbp
   10b5f:	48 89 e5             	mov    %rsp,%rbp
   10b62:	89 fa                	mov    %edi,%edx
   10b64:	89 f0                	mov    %esi,%eax
   10b66:	88 55 fc             	mov    %dl,-0x4(%rbp)
   10b69:	88 45 f8             	mov    %al,-0x8(%rbp)
   10b6c:	0f b6 55 fc          	movzbl -0x4(%rbp),%edx
   10b70:	0f b6 45 f8          	movzbl -0x8(%rbp),%eax
   10b74:	01 d0                	add    %edx,%eax
   10b76:	5d                   	pop    %rbp
   10b77:	c3                   	retq   

0000000000010b78 <safe_sub_func_uint8_t_u_u>:
   10b78:	f3 0f 1e fa          	endbr64 
   10b7c:	55                   	push   %rbp
   10b7d:	48 89 e5             	mov    %rsp,%rbp
   10b80:	89 fa                	mov    %edi,%edx
   10b82:	89 f0                	mov    %esi,%eax
   10b84:	88 55 fc             	mov    %dl,-0x4(%rbp)
   10b87:	88 45 f8             	mov    %al,-0x8(%rbp)
   10b8a:	0f b6 45 fc          	movzbl -0x4(%rbp),%eax
   10b8e:	2a 45 f8             	sub    -0x8(%rbp),%al
   10b91:	5d                   	pop    %rbp
   10b92:	c3                   	retq   

0000000000010b93 <safe_mul_func_uint8_t_u_u>:
   10b93:	f3 0f 1e fa          	endbr64 
   10b97:	55                   	push   %rbp
   10b98:	48 89 e5             	mov    %rsp,%rbp
   10b9b:	89 fa                	mov    %edi,%edx
   10b9d:	89 f0                	mov    %esi,%eax
   10b9f:	88 55 fc             	mov    %dl,-0x4(%rbp)
   10ba2:	88 45 f8             	mov    %al,-0x8(%rbp)
   10ba5:	0f b6 45 fc          	movzbl -0x4(%rbp),%eax
   10ba9:	f6 65 f8             	mulb   -0x8(%rbp)
   10bac:	5d                   	pop    %rbp
   10bad:	c3                   	retq   

0000000000010bae <safe_mod_func_uint8_t_u_u>:
   10bae:	f3 0f 1e fa          	endbr64 
   10bb2:	55                   	push   %rbp
   10bb3:	48 89 e5             	mov    %rsp,%rbp
   10bb6:	89 fa                	mov    %edi,%edx
   10bb8:	89 f0                	mov    %esi,%eax
   10bba:	88 55 fc             	mov    %dl,-0x4(%rbp)
   10bbd:	88 45 f8             	mov    %al,-0x8(%rbp)
   10bc0:	80 7d f8 00          	cmpb   $0x0,-0x8(%rbp)
   10bc4:	74 0f                	je     10bd5 <safe_mod_func_uint8_t_u_u+0x27>
   10bc6:	0f b6 45 fc          	movzbl -0x4(%rbp),%eax
   10bca:	0f b6 c0             	movzbl %al,%eax
   10bcd:	f6 75 f8             	divb   -0x8(%rbp)
   10bd0:	0f b6 c4             	movzbl %ah,%eax
   10bd3:	eb 04                	jmp    10bd9 <safe_mod_func_uint8_t_u_u+0x2b>
   10bd5:	0f b6 45 fc          	movzbl -0x4(%rbp),%eax
   10bd9:	5d                   	pop    %rbp
   10bda:	c3                   	retq   

0000000000010bdb <safe_div_func_uint8_t_u_u>:
   10bdb:	f3 0f 1e fa          	endbr64 
   10bdf:	55                   	push   %rbp
   10be0:	48 89 e5             	mov    %rsp,%rbp
   10be3:	89 fa                	mov    %edi,%edx
   10be5:	89 f0                	mov    %esi,%eax
   10be7:	88 55 fc             	mov    %dl,-0x4(%rbp)
   10bea:	88 45 f8             	mov    %al,-0x8(%rbp)
   10bed:	80 7d f8 00          	cmpb   $0x0,-0x8(%rbp)
   10bf1:	74 0c                	je     10bff <safe_div_func_uint8_t_u_u+0x24>
   10bf3:	0f b6 45 fc          	movzbl -0x4(%rbp),%eax
   10bf7:	0f b6 c0             	movzbl %al,%eax
   10bfa:	f6 75 f8             	divb   -0x8(%rbp)
   10bfd:	eb 04                	jmp    10c03 <safe_div_func_uint8_t_u_u+0x28>
   10bff:	0f b6 45 fc          	movzbl -0x4(%rbp),%eax
   10c03:	5d                   	pop    %rbp
   10c04:	c3                   	retq   

0000000000010c05 <safe_lshift_func_uint8_t_u_s>:
   10c05:	f3 0f 1e fa          	endbr64 
   10c09:	55                   	push   %rbp
   10c0a:	48 89 e5             	mov    %rsp,%rbp
   10c0d:	89 f8                	mov    %edi,%eax
   10c0f:	89 75 f8             	mov    %esi,-0x8(%rbp)
   10c12:	88 45 fc             	mov    %al,-0x4(%rbp)
   10c15:	83 7d f8 00          	cmpl   $0x0,-0x8(%rbp)
   10c19:	78 2b                	js     10c46 <safe_lshift_func_uint8_t_u_s+0x41>
   10c1b:	83 7d f8 1f          	cmpl   $0x1f,-0x8(%rbp)
   10c1f:	7f 25                	jg     10c46 <safe_lshift_func_uint8_t_u_s+0x41>
   10c21:	0f b6 55 fc          	movzbl -0x4(%rbp),%edx
   10c25:	8b 45 f8             	mov    -0x8(%rbp),%eax
   10c28:	be ff 00 00 00       	mov    $0xff,%esi
   10c2d:	89 c1                	mov    %eax,%ecx
   10c2f:	d3 fe                	sar    %cl,%esi
   10c31:	89 f0                	mov    %esi,%eax
   10c33:	39 c2                	cmp    %eax,%edx
   10c35:	7f 0f                	jg     10c46 <safe_lshift_func_uint8_t_u_s+0x41>
   10c37:	0f b6 55 fc          	movzbl -0x4(%rbp),%edx
   10c3b:	8b 45 f8             	mov    -0x8(%rbp),%eax
   10c3e:	89 c1                	mov    %eax,%ecx
   10c40:	d3 e2                	shl    %cl,%edx
   10c42:	89 d0                	mov    %edx,%eax
   10c44:	eb 04                	jmp    10c4a <safe_lshift_func_uint8_t_u_s+0x45>
   10c46:	0f b6 45 fc          	movzbl -0x4(%rbp),%eax
   10c4a:	5d                   	pop    %rbp
   10c4b:	c3                   	retq   

0000000000010c4c <safe_lshift_func_uint8_t_u_u>:
   10c4c:	f3 0f 1e fa          	endbr64 
   10c50:	55                   	push   %rbp
   10c51:	48 89 e5             	mov    %rsp,%rbp
   10c54:	89 f8                	mov    %edi,%eax
   10c56:	89 75 f8             	mov    %esi,-0x8(%rbp)
   10c59:	88 45 fc             	mov    %al,-0x4(%rbp)
   10c5c:	83 7d f8 1f          	cmpl   $0x1f,-0x8(%rbp)
   10c60:	77 25                	ja     10c87 <safe_lshift_func_uint8_t_u_u+0x3b>
   10c62:	0f b6 55 fc          	movzbl -0x4(%rbp),%edx
   10c66:	8b 45 f8             	mov    -0x8(%rbp),%eax
   10c69:	be ff 00 00 00       	mov    $0xff,%esi
   10c6e:	89 c1                	mov    %eax,%ecx
   10c70:	d3 fe                	sar    %cl,%esi
   10c72:	89 f0                	mov    %esi,%eax
   10c74:	39 c2                	cmp    %eax,%edx
   10c76:	7f 0f                	jg     10c87 <safe_lshift_func_uint8_t_u_u+0x3b>
   10c78:	0f b6 55 fc          	movzbl -0x4(%rbp),%edx
   10c7c:	8b 45 f8             	mov    -0x8(%rbp),%eax
   10c7f:	89 c1                	mov    %eax,%ecx
   10c81:	d3 e2                	shl    %cl,%edx
   10c83:	89 d0                	mov    %edx,%eax
   10c85:	eb 04                	jmp    10c8b <safe_lshift_func_uint8_t_u_u+0x3f>
   10c87:	0f b6 45 fc          	movzbl -0x4(%rbp),%eax
   10c8b:	5d                   	pop    %rbp
   10c8c:	c3                   	retq   

0000000000010c8d <safe_rshift_func_uint8_t_u_s>:
   10c8d:	f3 0f 1e fa          	endbr64 
   10c91:	55                   	push   %rbp
   10c92:	48 89 e5             	mov    %rsp,%rbp
   10c95:	89 f8                	mov    %edi,%eax
   10c97:	89 75 f8             	mov    %esi,-0x8(%rbp)
   10c9a:	88 45 fc             	mov    %al,-0x4(%rbp)
   10c9d:	83 7d f8 00          	cmpl   $0x0,-0x8(%rbp)
   10ca1:	78 15                	js     10cb8 <safe_rshift_func_uint8_t_u_s+0x2b>
   10ca3:	83 7d f8 1f          	cmpl   $0x1f,-0x8(%rbp)
   10ca7:	7f 0f                	jg     10cb8 <safe_rshift_func_uint8_t_u_s+0x2b>
   10ca9:	0f b6 55 fc          	movzbl -0x4(%rbp),%edx
   10cad:	8b 45 f8             	mov    -0x8(%rbp),%eax
   10cb0:	89 c1                	mov    %eax,%ecx
   10cb2:	d3 fa                	sar    %cl,%edx
   10cb4:	89 d0                	mov    %edx,%eax
   10cb6:	eb 04                	jmp    10cbc <safe_rshift_func_uint8_t_u_s+0x2f>
   10cb8:	0f b6 45 fc          	movzbl -0x4(%rbp),%eax
   10cbc:	5d                   	pop    %rbp
   10cbd:	c3                   	retq   

0000000000010cbe <safe_rshift_func_uint8_t_u_u>:
   10cbe:	f3 0f 1e fa          	endbr64 
   10cc2:	55                   	push   %rbp
   10cc3:	48 89 e5             	mov    %rsp,%rbp
   10cc6:	89 f8                	mov    %edi,%eax
   10cc8:	89 75 f8             	mov    %esi,-0x8(%rbp)
   10ccb:	88 45 fc             	mov    %al,-0x4(%rbp)
   10cce:	83 7d f8 1f          	cmpl   $0x1f,-0x8(%rbp)
   10cd2:	77 0f                	ja     10ce3 <safe_rshift_func_uint8_t_u_u+0x25>
   10cd4:	0f b6 55 fc          	movzbl -0x4(%rbp),%edx
   10cd8:	8b 45 f8             	mov    -0x8(%rbp),%eax
   10cdb:	89 c1                	mov    %eax,%ecx
   10cdd:	d3 fa                	sar    %cl,%edx
   10cdf:	89 d0                	mov    %edx,%eax
   10ce1:	eb 04                	jmp    10ce7 <safe_rshift_func_uint8_t_u_u+0x29>
   10ce3:	0f b6 45 fc          	movzbl -0x4(%rbp),%eax
   10ce7:	5d                   	pop    %rbp
   10ce8:	c3                   	retq   

0000000000010ce9 <safe_unary_minus_func_uint16_t_u>:
   10ce9:	f3 0f 1e fa          	endbr64 
   10ced:	55                   	push   %rbp
   10cee:	48 89 e5             	mov    %rsp,%rbp
   10cf1:	89 f8                	mov    %edi,%eax
   10cf3:	66 89 45 fc          	mov    %ax,-0x4(%rbp)
   10cf7:	0f b7 45 fc          	movzwl -0x4(%rbp),%eax
   10cfb:	f7 d8                	neg    %eax
   10cfd:	5d                   	pop    %rbp
   10cfe:	c3                   	retq   

0000000000010cff <safe_add_func_uint16_t_u_u>:
   10cff:	f3 0f 1e fa          	endbr64 
   10d03:	55                   	push   %rbp
   10d04:	48 89 e5             	mov    %rsp,%rbp
   10d07:	89 fa                	mov    %edi,%edx
   10d09:	89 f0                	mov    %esi,%eax
   10d0b:	66 89 55 fc          	mov    %dx,-0x4(%rbp)
   10d0f:	66 89 45 f8          	mov    %ax,-0x8(%rbp)
   10d13:	0f b7 55 fc          	movzwl -0x4(%rbp),%edx
   10d17:	0f b7 45 f8          	movzwl -0x8(%rbp),%eax
   10d1b:	01 d0                	add    %edx,%eax
   10d1d:	5d                   	pop    %rbp
   10d1e:	c3                   	retq   

0000000000010d1f <safe_sub_func_uint16_t_u_u>:
   10d1f:	f3 0f 1e fa          	endbr64 
   10d23:	55                   	push   %rbp
   10d24:	48 89 e5             	mov    %rsp,%rbp
   10d27:	89 fa                	mov    %edi,%edx
   10d29:	89 f0                	mov    %esi,%eax
   10d2b:	66 89 55 fc          	mov    %dx,-0x4(%rbp)
   10d2f:	66 89 45 f8          	mov    %ax,-0x8(%rbp)
   10d33:	0f b7 45 fc          	movzwl -0x4(%rbp),%eax
   10d37:	66 2b 45 f8          	sub    -0x8(%rbp),%ax
   10d3b:	5d                   	pop    %rbp
   10d3c:	c3                   	retq   

0000000000010d3d <safe_mul_func_uint16_t_u_u>:
   10d3d:	f3 0f 1e fa          	endbr64 
   10d41:	55                   	push   %rbp
   10d42:	48 89 e5             	mov    %rsp,%rbp
   10d45:	89 fa                	mov    %edi,%edx
   10d47:	89 f0                	mov    %esi,%eax
   10d49:	66 89 55 fc          	mov    %dx,-0x4(%rbp)
   10d4d:	66 89 45 f8          	mov    %ax,-0x8(%rbp)
   10d51:	0f b7 45 fc          	movzwl -0x4(%rbp),%eax
   10d55:	66 0f af 45 f8       	imul   -0x8(%rbp),%ax
   10d5a:	5d                   	pop    %rbp
   10d5b:	c3                   	retq   

0000000000010d5c <safe_mod_func_uint16_t_u_u>:
   10d5c:	f3 0f 1e fa          	endbr64 
   10d60:	55                   	push   %rbp
   10d61:	48 89 e5             	mov    %rsp,%rbp
   10d64:	89 fa                	mov    %edi,%edx
   10d66:	89 f0                	mov    %esi,%eax
   10d68:	66 89 55 fc          	mov    %dx,-0x4(%rbp)
   10d6c:	66 89 45 f8          	mov    %ax,-0x8(%rbp)
   10d70:	66 83 7d f8 00       	cmpw   $0x0,-0x8(%rbp)
   10d75:	74 11                	je     10d88 <safe_mod_func_uint16_t_u_u+0x2c>
   10d77:	0f b7 45 fc          	movzwl -0x4(%rbp),%eax
   10d7b:	ba 00 00 00 00       	mov    $0x0,%edx
   10d80:	66 f7 75 f8          	divw   -0x8(%rbp)
   10d84:	89 d0                	mov    %edx,%eax
   10d86:	eb 04                	jmp    10d8c <safe_mod_func_uint16_t_u_u+0x30>
   10d88:	0f b7 45 fc          	movzwl -0x4(%rbp),%eax
   10d8c:	5d                   	pop    %rbp
   10d8d:	c3                   	retq   

0000000000010d8e <safe_div_func_uint16_t_u_u>:
   10d8e:	f3 0f 1e fa          	endbr64 
   10d92:	55                   	push   %rbp
   10d93:	48 89 e5             	mov    %rsp,%rbp
   10d96:	89 fa                	mov    %edi,%edx
   10d98:	89 f0                	mov    %esi,%eax
   10d9a:	66 89 55 fc          	mov    %dx,-0x4(%rbp)
   10d9e:	66 89 45 f8          	mov    %ax,-0x8(%rbp)
   10da2:	66 83 7d f8 00       	cmpw   $0x0,-0x8(%rbp)
   10da7:	74 0f                	je     10db8 <safe_div_func_uint16_t_u_u+0x2a>
   10da9:	0f b7 45 fc          	movzwl -0x4(%rbp),%eax
   10dad:	ba 00 00 00 00       	mov    $0x0,%edx
   10db2:	66 f7 75 f8          	divw   -0x8(%rbp)
   10db6:	eb 04                	jmp    10dbc <safe_div_func_uint16_t_u_u+0x2e>
   10db8:	0f b7 45 fc          	movzwl -0x4(%rbp),%eax
   10dbc:	5d                   	pop    %rbp
   10dbd:	c3                   	retq   

0000000000010dbe <safe_lshift_func_uint16_t_u_s>:
   10dbe:	f3 0f 1e fa          	endbr64 
   10dc2:	55                   	push   %rbp
   10dc3:	48 89 e5             	mov    %rsp,%rbp
   10dc6:	89 f8                	mov    %edi,%eax
   10dc8:	89 75 f8             	mov    %esi,-0x8(%rbp)
   10dcb:	66 89 45 fc          	mov    %ax,-0x4(%rbp)
   10dcf:	83 7d f8 00          	cmpl   $0x0,-0x8(%rbp)
   10dd3:	78 2b                	js     10e00 <safe_lshift_func_uint16_t_u_s+0x42>
   10dd5:	83 7d f8 1f          	cmpl   $0x1f,-0x8(%rbp)
   10dd9:	7f 25                	jg     10e00 <safe_lshift_func_uint16_t_u_s+0x42>
   10ddb:	0f b7 55 fc          	movzwl -0x4(%rbp),%edx
   10ddf:	8b 45 f8             	mov    -0x8(%rbp),%eax
   10de2:	be ff ff 00 00       	mov    $0xffff,%esi
   10de7:	89 c1                	mov    %eax,%ecx
   10de9:	d3 fe                	sar    %cl,%esi
   10deb:	89 f0                	mov    %esi,%eax
   10ded:	39 c2                	cmp    %eax,%edx
   10def:	7f 0f                	jg     10e00 <safe_lshift_func_uint16_t_u_s+0x42>
   10df1:	0f b7 55 fc          	movzwl -0x4(%rbp),%edx
   10df5:	8b 45 f8             	mov    -0x8(%rbp),%eax
   10df8:	89 c1                	mov    %eax,%ecx
   10dfa:	d3 e2                	shl    %cl,%edx
   10dfc:	89 d0                	mov    %edx,%eax
   10dfe:	eb 04                	jmp    10e04 <safe_lshift_func_uint16_t_u_s+0x46>
   10e00:	0f b7 45 fc          	movzwl -0x4(%rbp),%eax
   10e04:	5d                   	pop    %rbp
   10e05:	c3                   	retq   

0000000000010e06 <safe_lshift_func_uint16_t_u_u>:
   10e06:	f3 0f 1e fa          	endbr64 
   10e0a:	55                   	push   %rbp
   10e0b:	48 89 e5             	mov    %rsp,%rbp
   10e0e:	89 f8                	mov    %edi,%eax
   10e10:	89 75 f8             	mov    %esi,-0x8(%rbp)
   10e13:	66 89 45 fc          	mov    %ax,-0x4(%rbp)
   10e17:	83 7d f8 1f          	cmpl   $0x1f,-0x8(%rbp)
   10e1b:	77 25                	ja     10e42 <safe_lshift_func_uint16_t_u_u+0x3c>
   10e1d:	0f b7 55 fc          	movzwl -0x4(%rbp),%edx
   10e21:	8b 45 f8             	mov    -0x8(%rbp),%eax
   10e24:	be ff ff 00 00       	mov    $0xffff,%esi
   10e29:	89 c1                	mov    %eax,%ecx
   10e2b:	d3 fe                	sar    %cl,%esi
   10e2d:	89 f0                	mov    %esi,%eax
   10e2f:	39 c2                	cmp    %eax,%edx
   10e31:	7f 0f                	jg     10e42 <safe_lshift_func_uint16_t_u_u+0x3c>
   10e33:	0f b7 55 fc          	movzwl -0x4(%rbp),%edx
   10e37:	8b 45 f8             	mov    -0x8(%rbp),%eax
   10e3a:	89 c1                	mov    %eax,%ecx
   10e3c:	d3 e2                	shl    %cl,%edx
   10e3e:	89 d0                	mov    %edx,%eax
   10e40:	eb 04                	jmp    10e46 <safe_lshift_func_uint16_t_u_u+0x40>
   10e42:	0f b7 45 fc          	movzwl -0x4(%rbp),%eax
   10e46:	5d                   	pop    %rbp
   10e47:	c3                   	retq   

0000000000010e48 <safe_rshift_func_uint16_t_u_s>:
   10e48:	f3 0f 1e fa          	endbr64 
   10e4c:	55                   	push   %rbp
   10e4d:	48 89 e5             	mov    %rsp,%rbp
   10e50:	89 f8                	mov    %edi,%eax
   10e52:	89 75 f8             	mov    %esi,-0x8(%rbp)
   10e55:	66 89 45 fc          	mov    %ax,-0x4(%rbp)
   10e59:	83 7d f8 00          	cmpl   $0x0,-0x8(%rbp)
   10e5d:	78 15                	js     10e74 <safe_rshift_func_uint16_t_u_s+0x2c>
   10e5f:	83 7d f8 1f          	cmpl   $0x1f,-0x8(%rbp)
   10e63:	7f 0f                	jg     10e74 <safe_rshift_func_uint16_t_u_s+0x2c>
   10e65:	0f b7 55 fc          	movzwl -0x4(%rbp),%edx
   10e69:	8b 45 f8             	mov    -0x8(%rbp),%eax
   10e6c:	89 c1                	mov    %eax,%ecx
   10e6e:	d3 fa                	sar    %cl,%edx
   10e70:	89 d0                	mov    %edx,%eax
   10e72:	eb 04                	jmp    10e78 <safe_rshift_func_uint16_t_u_s+0x30>
   10e74:	0f b7 45 fc          	movzwl -0x4(%rbp),%eax
   10e78:	5d                   	pop    %rbp
   10e79:	c3                   	retq   

0000000000010e7a <safe_rshift_func_uint16_t_u_u>:
   10e7a:	f3 0f 1e fa          	endbr64 
   10e7e:	55                   	push   %rbp
   10e7f:	48 89 e5             	mov    %rsp,%rbp
   10e82:	89 f8                	mov    %edi,%eax
   10e84:	89 75 f8             	mov    %esi,-0x8(%rbp)
   10e87:	66 89 45 fc          	mov    %ax,-0x4(%rbp)
   10e8b:	83 7d f8 1f          	cmpl   $0x1f,-0x8(%rbp)
   10e8f:	77 0f                	ja     10ea0 <safe_rshift_func_uint16_t_u_u+0x26>
   10e91:	0f b7 55 fc          	movzwl -0x4(%rbp),%edx
   10e95:	8b 45 f8             	mov    -0x8(%rbp),%eax
   10e98:	89 c1                	mov    %eax,%ecx
   10e9a:	d3 fa                	sar    %cl,%edx
   10e9c:	89 d0                	mov    %edx,%eax
   10e9e:	eb 04                	jmp    10ea4 <safe_rshift_func_uint16_t_u_u+0x2a>
   10ea0:	0f b7 45 fc          	movzwl -0x4(%rbp),%eax
   10ea4:	5d                   	pop    %rbp
   10ea5:	c3                   	retq   

0000000000010ea6 <safe_unary_minus_func_uint32_t_u>:
   10ea6:	f3 0f 1e fa          	endbr64 
   10eaa:	55                   	push   %rbp
   10eab:	48 89 e5             	mov    %rsp,%rbp
   10eae:	89 7d fc             	mov    %edi,-0x4(%rbp)
   10eb1:	8b 45 fc             	mov    -0x4(%rbp),%eax
   10eb4:	f7 d8                	neg    %eax
   10eb6:	5d                   	pop    %rbp
   10eb7:	c3                   	retq   

0000000000010eb8 <safe_add_func_uint32_t_u_u>:
   10eb8:	f3 0f 1e fa          	endbr64 
   10ebc:	55                   	push   %rbp
   10ebd:	48 89 e5             	mov    %rsp,%rbp
   10ec0:	89 7d fc             	mov    %edi,-0x4(%rbp)
   10ec3:	89 75 f8             	mov    %esi,-0x8(%rbp)
   10ec6:	8b 55 fc             	mov    -0x4(%rbp),%edx
   10ec9:	8b 45 f8             	mov    -0x8(%rbp),%eax
   10ecc:	01 d0                	add    %edx,%eax
   10ece:	5d                   	pop    %rbp
   10ecf:	c3                   	retq   

0000000000010ed0 <safe_sub_func_uint32_t_u_u>:
   10ed0:	f3 0f 1e fa          	endbr64 
   10ed4:	55                   	push   %rbp
   10ed5:	48 89 e5             	mov    %rsp,%rbp
   10ed8:	89 7d fc             	mov    %edi,-0x4(%rbp)
   10edb:	89 75 f8             	mov    %esi,-0x8(%rbp)
   10ede:	8b 45 fc             	mov    -0x4(%rbp),%eax
   10ee1:	2b 45 f8             	sub    -0x8(%rbp),%eax
   10ee4:	5d                   	pop    %rbp
   10ee5:	c3                   	retq   

0000000000010ee6 <safe_mul_func_uint32_t_u_u>:
   10ee6:	f3 0f 1e fa          	endbr64 
   10eea:	55                   	push   %rbp
   10eeb:	48 89 e5             	mov    %rsp,%rbp
   10eee:	89 7d fc             	mov    %edi,-0x4(%rbp)
   10ef1:	89 75 f8             	mov    %esi,-0x8(%rbp)
   10ef4:	8b 45 fc             	mov    -0x4(%rbp),%eax
   10ef7:	0f af 45 f8          	imul   -0x8(%rbp),%eax
   10efb:	5d                   	pop    %rbp
   10efc:	c3                   	retq   

0000000000010efd <safe_mod_func_uint32_t_u_u>:
   10efd:	f3 0f 1e fa          	endbr64 
   10f01:	55                   	push   %rbp
   10f02:	48 89 e5             	mov    %rsp,%rbp
   10f05:	89 7d fc             	mov    %edi,-0x4(%rbp)
   10f08:	89 75 f8             	mov    %esi,-0x8(%rbp)
   10f0b:	83 7d f8 00          	cmpl   $0x0,-0x8(%rbp)
   10f0f:	74 0f                	je     10f20 <safe_mod_func_uint32_t_u_u+0x23>
   10f11:	8b 45 fc             	mov    -0x4(%rbp),%eax
   10f14:	ba 00 00 00 00       	mov    $0x0,%edx
   10f19:	f7 75 f8             	divl   -0x8(%rbp)
   10f1c:	89 d0                	mov    %edx,%eax
   10f1e:	eb 03                	jmp    10f23 <safe_mod_func_uint32_t_u_u+0x26>
   10f20:	8b 45 fc             	mov    -0x4(%rbp),%eax
   10f23:	5d                   	pop    %rbp
   10f24:	c3                   	retq   

0000000000010f25 <safe_div_func_uint32_t_u_u>:
   10f25:	f3 0f 1e fa          	endbr64 
   10f29:	55                   	push   %rbp
   10f2a:	48 89 e5             	mov    %rsp,%rbp
   10f2d:	89 7d fc             	mov    %edi,-0x4(%rbp)
   10f30:	89 75 f8             	mov    %esi,-0x8(%rbp)
   10f33:	83 7d f8 00          	cmpl   $0x0,-0x8(%rbp)
   10f37:	74 0d                	je     10f46 <safe_div_func_uint32_t_u_u+0x21>
   10f39:	8b 45 fc             	mov    -0x4(%rbp),%eax
   10f3c:	ba 00 00 00 00       	mov    $0x0,%edx
   10f41:	f7 75 f8             	divl   -0x8(%rbp)
   10f44:	eb 03                	jmp    10f49 <safe_div_func_uint32_t_u_u+0x24>
   10f46:	8b 45 fc             	mov    -0x4(%rbp),%eax
   10f49:	5d                   	pop    %rbp
   10f4a:	c3                   	retq   

0000000000010f4b <safe_lshift_func_uint32_t_u_s>:
   10f4b:	f3 0f 1e fa          	endbr64 
   10f4f:	55                   	push   %rbp
   10f50:	48 89 e5             	mov    %rsp,%rbp
   10f53:	89 7d fc             	mov    %edi,-0x4(%rbp)
   10f56:	89 75 f8             	mov    %esi,-0x8(%rbp)
   10f59:	83 7d f8 00          	cmpl   $0x0,-0x8(%rbp)
   10f5d:	78 27                	js     10f86 <safe_lshift_func_uint32_t_u_s+0x3b>
   10f5f:	83 7d f8 1f          	cmpl   $0x1f,-0x8(%rbp)
   10f63:	7f 21                	jg     10f86 <safe_lshift_func_uint32_t_u_s+0x3b>
   10f65:	8b 45 f8             	mov    -0x8(%rbp),%eax
   10f68:	ba ff ff ff ff       	mov    $0xffffffff,%edx
   10f6d:	89 c1                	mov    %eax,%ecx
   10f6f:	d3 ea                	shr    %cl,%edx
   10f71:	89 d0                	mov    %edx,%eax
   10f73:	39 45 fc             	cmp    %eax,-0x4(%rbp)
   10f76:	77 0e                	ja     10f86 <safe_lshift_func_uint32_t_u_s+0x3b>
   10f78:	8b 45 f8             	mov    -0x8(%rbp),%eax
   10f7b:	8b 55 fc             	mov    -0x4(%rbp),%edx
   10f7e:	89 c1                	mov    %eax,%ecx
   10f80:	d3 e2                	shl    %cl,%edx
   10f82:	89 d0                	mov    %edx,%eax
   10f84:	eb 03                	jmp    10f89 <safe_lshift_func_uint32_t_u_s+0x3e>
   10f86:	8b 45 fc             	mov    -0x4(%rbp),%eax
   10f89:	5d                   	pop    %rbp
   10f8a:	c3                   	retq   

0000000000010f8b <safe_lshift_func_uint32_t_u_u>:
   10f8b:	f3 0f 1e fa          	endbr64 
   10f8f:	55                   	push   %rbp
   10f90:	48 89 e5             	mov    %rsp,%rbp
   10f93:	89 7d fc             	mov    %edi,-0x4(%rbp)
   10f96:	89 75 f8             	mov    %esi,-0x8(%rbp)
   10f99:	83 7d f8 1f          	cmpl   $0x1f,-0x8(%rbp)
   10f9d:	77 21                	ja     10fc0 <safe_lshift_func_uint32_t_u_u+0x35>
   10f9f:	8b 45 f8             	mov    -0x8(%rbp),%eax
   10fa2:	ba ff ff ff ff       	mov    $0xffffffff,%edx
   10fa7:	89 c1                	mov    %eax,%ecx
   10fa9:	d3 ea                	shr    %cl,%edx
   10fab:	89 d0                	mov    %edx,%eax
   10fad:	39 45 fc             	cmp    %eax,-0x4(%rbp)
   10fb0:	77 0e                	ja     10fc0 <safe_lshift_func_uint32_t_u_u+0x35>
   10fb2:	8b 45 f8             	mov    -0x8(%rbp),%eax
   10fb5:	8b 55 fc             	mov    -0x4(%rbp),%edx
   10fb8:	89 c1                	mov    %eax,%ecx
   10fba:	d3 e2                	shl    %cl,%edx
   10fbc:	89 d0                	mov    %edx,%eax
   10fbe:	eb 03                	jmp    10fc3 <safe_lshift_func_uint32_t_u_u+0x38>
   10fc0:	8b 45 fc             	mov    -0x4(%rbp),%eax
   10fc3:	5d                   	pop    %rbp
   10fc4:	c3                   	retq   

0000000000010fc5 <safe_rshift_func_uint32_t_u_s>:
   10fc5:	f3 0f 1e fa          	endbr64 
   10fc9:	55                   	push   %rbp
   10fca:	48 89 e5             	mov    %rsp,%rbp
   10fcd:	89 7d fc             	mov    %edi,-0x4(%rbp)
   10fd0:	89 75 f8             	mov    %esi,-0x8(%rbp)
   10fd3:	83 7d f8 00          	cmpl   $0x0,-0x8(%rbp)
   10fd7:	78 14                	js     10fed <safe_rshift_func_uint32_t_u_s+0x28>
   10fd9:	83 7d f8 1f          	cmpl   $0x1f,-0x8(%rbp)
   10fdd:	7f 0e                	jg     10fed <safe_rshift_func_uint32_t_u_s+0x28>
   10fdf:	8b 45 f8             	mov    -0x8(%rbp),%eax
   10fe2:	8b 55 fc             	mov    -0x4(%rbp),%edx
   10fe5:	89 c1                	mov    %eax,%ecx
   10fe7:	d3 ea                	shr    %cl,%edx
   10fe9:	89 d0                	mov    %edx,%eax
   10feb:	eb 03                	jmp    10ff0 <safe_rshift_func_uint32_t_u_s+0x2b>
   10fed:	8b 45 fc             	mov    -0x4(%rbp),%eax
   10ff0:	5d                   	pop    %rbp
   10ff1:	c3                   	retq   

0000000000010ff2 <safe_rshift_func_uint32_t_u_u>:
   10ff2:	f3 0f 1e fa          	endbr64 
   10ff6:	55                   	push   %rbp
   10ff7:	48 89 e5             	mov    %rsp,%rbp
   10ffa:	89 7d fc             	mov    %edi,-0x4(%rbp)
   10ffd:	89 75 f8             	mov    %esi,-0x8(%rbp)
   11000:	83 7d f8 1f          	cmpl   $0x1f,-0x8(%rbp)
   11004:	77 0e                	ja     11014 <safe_rshift_func_uint32_t_u_u+0x22>
   11006:	8b 45 f8             	mov    -0x8(%rbp),%eax
   11009:	8b 55 fc             	mov    -0x4(%rbp),%edx
   1100c:	89 c1                	mov    %eax,%ecx
   1100e:	d3 ea                	shr    %cl,%edx
   11010:	89 d0                	mov    %edx,%eax
   11012:	eb 03                	jmp    11017 <safe_rshift_func_uint32_t_u_u+0x25>
   11014:	8b 45 fc             	mov    -0x4(%rbp),%eax
   11017:	5d                   	pop    %rbp
   11018:	c3                   	retq   

0000000000011019 <safe_unary_minus_func_uint64_t_u>:
   11019:	f3 0f 1e fa          	endbr64 
   1101d:	55                   	push   %rbp
   1101e:	48 89 e5             	mov    %rsp,%rbp
   11021:	48 89 7d f8          	mov    %rdi,-0x8(%rbp)
   11025:	48 8b 45 f8          	mov    -0x8(%rbp),%rax
   11029:	48 f7 d8             	neg    %rax
   1102c:	5d                   	pop    %rbp
   1102d:	c3                   	retq   

000000000001102e <safe_add_func_uint64_t_u_u>:
   1102e:	f3 0f 1e fa          	endbr64 
   11032:	55                   	push   %rbp
   11033:	48 89 e5             	mov    %rsp,%rbp
   11036:	48 89 7d f8          	mov    %rdi,-0x8(%rbp)
   1103a:	48 89 75 f0          	mov    %rsi,-0x10(%rbp)
   1103e:	48 8b 55 f8          	mov    -0x8(%rbp),%rdx
   11042:	48 8b 45 f0          	mov    -0x10(%rbp),%rax
   11046:	48 01 d0             	add    %rdx,%rax
   11049:	5d                   	pop    %rbp
   1104a:	c3                   	retq   

000000000001104b <safe_sub_func_uint64_t_u_u>:
   1104b:	f3 0f 1e fa          	endbr64 
   1104f:	55                   	push   %rbp
   11050:	48 89 e5             	mov    %rsp,%rbp
   11053:	48 89 7d f8          	mov    %rdi,-0x8(%rbp)
   11057:	48 89 75 f0          	mov    %rsi,-0x10(%rbp)
   1105b:	48 8b 45 f8          	mov    -0x8(%rbp),%rax
   1105f:	48 2b 45 f0          	sub    -0x10(%rbp),%rax
   11063:	5d                   	pop    %rbp
   11064:	c3                   	retq   

0000000000011065 <safe_mul_func_uint64_t_u_u>:
   11065:	f3 0f 1e fa          	endbr64 
   11069:	55                   	push   %rbp
   1106a:	48 89 e5             	mov    %rsp,%rbp
   1106d:	48 89 7d f8          	mov    %rdi,-0x8(%rbp)
   11071:	48 89 75 f0          	mov    %rsi,-0x10(%rbp)
   11075:	48 8b 45 f8          	mov    -0x8(%rbp),%rax
   11079:	48 0f af 45 f0       	imul   -0x10(%rbp),%rax
   1107e:	5d                   	pop    %rbp
   1107f:	c3                   	retq   

0000000000011080 <safe_mod_func_uint64_t_u_u>:
   11080:	f3 0f 1e fa          	endbr64 
   11084:	55                   	push   %rbp
   11085:	48 89 e5             	mov    %rsp,%rbp
   11088:	48 89 7d f8          	mov    %rdi,-0x8(%rbp)
   1108c:	48 89 75 f0          	mov    %rsi,-0x10(%rbp)
   11090:	48 83 7d f0 00       	cmpq   $0x0,-0x10(%rbp)
   11095:	74 12                	je     110a9 <safe_mod_func_uint64_t_u_u+0x29>
   11097:	48 8b 45 f8          	mov    -0x8(%rbp),%rax
   1109b:	ba 00 00 00 00       	mov    $0x0,%edx
   110a0:	48 f7 75 f0          	divq   -0x10(%rbp)
   110a4:	48 89 d0             	mov    %rdx,%rax
   110a7:	eb 04                	jmp    110ad <safe_mod_func_uint64_t_u_u+0x2d>
   110a9:	48 8b 45 f8          	mov    -0x8(%rbp),%rax
   110ad:	5d                   	pop    %rbp
   110ae:	c3                   	retq   

00000000000110af <safe_div_func_uint64_t_u_u>:
   110af:	f3 0f 1e fa          	endbr64 
   110b3:	55                   	push   %rbp
   110b4:	48 89 e5             	mov    %rsp,%rbp
   110b7:	48 89 7d f8          	mov    %rdi,-0x8(%rbp)
   110bb:	48 89 75 f0          	mov    %rsi,-0x10(%rbp)
   110bf:	48 83 7d f0 00       	cmpq   $0x0,-0x10(%rbp)
   110c4:	74 0f                	je     110d5 <safe_div_func_uint64_t_u_u+0x26>
   110c6:	48 8b 45 f8          	mov    -0x8(%rbp),%rax
   110ca:	ba 00 00 00 00       	mov    $0x0,%edx
   110cf:	48 f7 75 f0          	divq   -0x10(%rbp)
   110d3:	eb 04                	jmp    110d9 <safe_div_func_uint64_t_u_u+0x2a>
   110d5:	48 8b 45 f8          	mov    -0x8(%rbp),%rax
   110d9:	5d                   	pop    %rbp
   110da:	c3                   	retq   

00000000000110db <safe_lshift_func_uint64_t_u_s>:
   110db:	f3 0f 1e fa          	endbr64 
   110df:	55                   	push   %rbp
   110e0:	48 89 e5             	mov    %rsp,%rbp
   110e3:	48 89 7d f8          	mov    %rdi,-0x8(%rbp)
   110e7:	89 75 f4             	mov    %esi,-0xc(%rbp)
   110ea:	83 7d f4 00          	cmpl   $0x0,-0xc(%rbp)
   110ee:	78 2f                	js     1111f <safe_lshift_func_uint64_t_u_s+0x44>
   110f0:	83 7d f4 1f          	cmpl   $0x1f,-0xc(%rbp)
   110f4:	7f 29                	jg     1111f <safe_lshift_func_uint64_t_u_s+0x44>
   110f6:	8b 45 f4             	mov    -0xc(%rbp),%eax
   110f9:	48 c7 c2 ff ff ff ff 	mov    $0xffffffffffffffff,%rdx
   11100:	89 c1                	mov    %eax,%ecx
   11102:	48 d3 ea             	shr    %cl,%rdx
   11105:	48 89 d0             	mov    %rdx,%rax
   11108:	48 39 45 f8          	cmp    %rax,-0x8(%rbp)
   1110c:	77 11                	ja     1111f <safe_lshift_func_uint64_t_u_s+0x44>
   1110e:	8b 45 f4             	mov    -0xc(%rbp),%eax
   11111:	48 8b 55 f8          	mov    -0x8(%rbp),%rdx
   11115:	89 c1                	mov    %eax,%ecx
   11117:	48 d3 e2             	shl    %cl,%rdx
   1111a:	48 89 d0             	mov    %rdx,%rax
   1111d:	eb 04                	jmp    11123 <safe_lshift_func_uint64_t_u_s+0x48>
   1111f:	48 8b 45 f8          	mov    -0x8(%rbp),%rax
   11123:	5d                   	pop    %rbp
   11124:	c3                   	retq   

0000000000011125 <safe_lshift_func_uint64_t_u_u>:
   11125:	f3 0f 1e fa          	endbr64 
   11129:	55                   	push   %rbp
   1112a:	48 89 e5             	mov    %rsp,%rbp
   1112d:	48 89 7d f8          	mov    %rdi,-0x8(%rbp)
   11131:	89 75 f4             	mov    %esi,-0xc(%rbp)
   11134:	83 7d f4 1f          	cmpl   $0x1f,-0xc(%rbp)
   11138:	77 29                	ja     11163 <safe_lshift_func_uint64_t_u_u+0x3e>
   1113a:	8b 45 f4             	mov    -0xc(%rbp),%eax
   1113d:	48 c7 c2 ff ff ff ff 	mov    $0xffffffffffffffff,%rdx
   11144:	89 c1                	mov    %eax,%ecx
   11146:	48 d3 ea             	shr    %cl,%rdx
   11149:	48 89 d0             	mov    %rdx,%rax
   1114c:	48 39 45 f8          	cmp    %rax,-0x8(%rbp)
   11150:	77 11                	ja     11163 <safe_lshift_func_uint64_t_u_u+0x3e>
   11152:	8b 45 f4             	mov    -0xc(%rbp),%eax
   11155:	48 8b 55 f8          	mov    -0x8(%rbp),%rdx
   11159:	89 c1                	mov    %eax,%ecx
   1115b:	48 d3 e2             	shl    %cl,%rdx
   1115e:	48 89 d0             	mov    %rdx,%rax
   11161:	eb 04                	jmp    11167 <safe_lshift_func_uint64_t_u_u+0x42>
   11163:	48 8b 45 f8          	mov    -0x8(%rbp),%rax
   11167:	5d                   	pop    %rbp
   11168:	c3                   	retq   

0000000000011169 <safe_rshift_func_uint64_t_u_s>:
   11169:	f3 0f 1e fa          	endbr64 
   1116d:	55                   	push   %rbp
   1116e:	48 89 e5             	mov    %rsp,%rbp
   11171:	48 89 7d f8          	mov    %rdi,-0x8(%rbp)
   11175:	89 75 f4             	mov    %esi,-0xc(%rbp)
   11178:	83 7d f4 00          	cmpl   $0x0,-0xc(%rbp)
   1117c:	78 17                	js     11195 <safe_rshift_func_uint64_t_u_s+0x2c>
   1117e:	83 7d f4 1f          	cmpl   $0x1f,-0xc(%rbp)
   11182:	7f 11                	jg     11195 <safe_rshift_func_uint64_t_u_s+0x2c>
   11184:	8b 45 f4             	mov    -0xc(%rbp),%eax
   11187:	48 8b 55 f8          	mov    -0x8(%rbp),%rdx
   1118b:	89 c1                	mov    %eax,%ecx
   1118d:	48 d3 ea             	shr    %cl,%rdx
   11190:	48 89 d0             	mov    %rdx,%rax
   11193:	eb 04                	jmp    11199 <safe_rshift_func_uint64_t_u_s+0x30>
   11195:	48 8b 45 f8          	mov    -0x8(%rbp),%rax
   11199:	5d                   	pop    %rbp
   1119a:	c3                   	retq   

000000000001119b <safe_rshift_func_uint64_t_u_u>:
   1119b:	f3 0f 1e fa          	endbr64 
   1119f:	55                   	push   %rbp
   111a0:	48 89 e5             	mov    %rsp,%rbp
   111a3:	48 89 7d f8          	mov    %rdi,-0x8(%rbp)
   111a7:	89 75 f4             	mov    %esi,-0xc(%rbp)
   111aa:	83 7d f4 1f          	cmpl   $0x1f,-0xc(%rbp)
   111ae:	77 11                	ja     111c1 <safe_rshift_func_uint64_t_u_u+0x26>
   111b0:	8b 45 f4             	mov    -0xc(%rbp),%eax
   111b3:	48 8b 55 f8          	mov    -0x8(%rbp),%rdx
   111b7:	89 c1                	mov    %eax,%ecx
   111b9:	48 d3 ea             	shr    %cl,%rdx
   111bc:	48 89 d0             	mov    %rdx,%rax
   111bf:	eb 04                	jmp    111c5 <safe_rshift_func_uint64_t_u_u+0x2a>
   111c1:	48 8b 45 f8          	mov    -0x8(%rbp),%rax
   111c5:	5d                   	pop    %rbp
   111c6:	c3                   	retq   

00000000000111c7 <safe_add_func_float_f_f>:
   111c7:	f3 0f 1e fa          	endbr64 
   111cb:	55                   	push   %rbp
   111cc:	48 89 e5             	mov    %rsp,%rbp
   111cf:	f3 0f 11 45 fc       	movss  %xmm0,-0x4(%rbp)
   111d4:	f3 0f 11 4d f8       	movss  %xmm1,-0x8(%rbp)
   111d9:	f3 0f 10 4d fc       	movss  -0x4(%rbp),%xmm1
   111de:	f3 0f 10 05 46 12 01 	movss  0x11246(%rip),%xmm0        # 2242c <g_2211+0x139c>
   111e5:	00 
   111e6:	f3 0f 59 c8          	mulss  %xmm0,%xmm1
   111ea:	f3 0f 10 55 f8       	movss  -0x8(%rbp),%xmm2
   111ef:	f3 0f 10 05 35 12 01 	movss  0x11235(%rip),%xmm0        # 2242c <g_2211+0x139c>
   111f6:	00 
   111f7:	f3 0f 59 c2          	mulss  %xmm2,%xmm0
   111fb:	f3 0f 58 c1          	addss  %xmm1,%xmm0
   111ff:	f3 0f 10 0d 29 12 01 	movss  0x11229(%rip),%xmm1        # 22430 <g_2211+0x13a0>
   11206:	00 
   11207:	0f 54 c1             	andps  %xmm1,%xmm0
   1120a:	0f 2f 05 2f 12 01 00 	comiss 0x1122f(%rip),%xmm0        # 22440 <g_2211+0x13b0>
   11211:	76 07                	jbe    1121a <safe_add_func_float_f_f+0x53>
   11213:	f3 0f 10 45 fc       	movss  -0x4(%rbp),%xmm0
   11218:	eb 0a                	jmp    11224 <safe_add_func_float_f_f+0x5d>
   1121a:	f3 0f 10 45 fc       	movss  -0x4(%rbp),%xmm0
   1121f:	f3 0f 58 45 f8       	addss  -0x8(%rbp),%xmm0
   11224:	5d                   	pop    %rbp
   11225:	c3                   	retq   

0000000000011226 <safe_sub_func_float_f_f>:
   11226:	f3 0f 1e fa          	endbr64 
   1122a:	55                   	push   %rbp
   1122b:	48 89 e5             	mov    %rsp,%rbp
   1122e:	f3 0f 11 45 fc       	movss  %xmm0,-0x4(%rbp)
   11233:	f3 0f 11 4d f8       	movss  %xmm1,-0x8(%rbp)
   11238:	f3 0f 10 4d fc       	movss  -0x4(%rbp),%xmm1
   1123d:	f3 0f 10 05 e7 11 01 	movss  0x111e7(%rip),%xmm0        # 2242c <g_2211+0x139c>
   11244:	00 
   11245:	f3 0f 59 c1          	mulss  %xmm1,%xmm0
   11249:	f3 0f 10 55 f8       	movss  -0x8(%rbp),%xmm2
   1124e:	f3 0f 10 0d d6 11 01 	movss  0x111d6(%rip),%xmm1        # 2242c <g_2211+0x139c>
   11255:	00 
   11256:	f3 0f 59 ca          	mulss  %xmm2,%xmm1
   1125a:	f3 0f 5c c1          	subss  %xmm1,%xmm0
   1125e:	f3 0f 10 0d ca 11 01 	movss  0x111ca(%rip),%xmm1        # 22430 <g_2211+0x13a0>
   11265:	00 
   11266:	0f 54 c1             	andps  %xmm1,%xmm0
   11269:	0f 2f 05 d0 11 01 00 	comiss 0x111d0(%rip),%xmm0        # 22440 <g_2211+0x13b0>
   11270:	76 07                	jbe    11279 <safe_sub_func_float_f_f+0x53>
   11272:	f3 0f 10 45 fc       	movss  -0x4(%rbp),%xmm0
   11277:	eb 0a                	jmp    11283 <safe_sub_func_float_f_f+0x5d>
   11279:	f3 0f 10 45 fc       	movss  -0x4(%rbp),%xmm0
   1127e:	f3 0f 5c 45 f8       	subss  -0x8(%rbp),%xmm0
   11283:	5d                   	pop    %rbp
   11284:	c3                   	retq   

0000000000011285 <safe_mul_func_float_f_f>:
   11285:	f3 0f 1e fa          	endbr64 
   11289:	55                   	push   %rbp
   1128a:	48 89 e5             	mov    %rsp,%rbp
   1128d:	f3 0f 11 45 fc       	movss  %xmm0,-0x4(%rbp)
   11292:	f3 0f 11 4d f8       	movss  %xmm1,-0x8(%rbp)
   11297:	f3 0f 10 4d fc       	movss  -0x4(%rbp),%xmm1
   1129c:	f3 0f 10 05 a0 11 01 	movss  0x111a0(%rip),%xmm0        # 22444 <g_2211+0x13b4>
   112a3:	00 
   112a4:	f3 0f 59 c8          	mulss  %xmm0,%xmm1
   112a8:	f3 0f 10 55 f8       	movss  -0x8(%rbp),%xmm2
   112ad:	f3 0f 10 05 93 11 01 	movss  0x11193(%rip),%xmm0        # 22448 <g_2211+0x13b8>
   112b4:	00 
   112b5:	f3 0f 59 c2          	mulss  %xmm2,%xmm0
   112b9:	f3 0f 59 c1          	mulss  %xmm1,%xmm0
   112bd:	f3 0f 10 0d 6b 11 01 	movss  0x1116b(%rip),%xmm1        # 22430 <g_2211+0x13a0>
   112c4:	00 
   112c5:	0f 54 c1             	andps  %xmm1,%xmm0
   112c8:	0f 2f 05 7d 11 01 00 	comiss 0x1117d(%rip),%xmm0        # 2244c <g_2211+0x13bc>
   112cf:	76 07                	jbe    112d8 <safe_mul_func_float_f_f+0x53>
   112d1:	f3 0f 10 45 fc       	movss  -0x4(%rbp),%xmm0
   112d6:	eb 0a                	jmp    112e2 <safe_mul_func_float_f_f+0x5d>
   112d8:	f3 0f 10 45 fc       	movss  -0x4(%rbp),%xmm0
   112dd:	f3 0f 59 45 f8       	mulss  -0x8(%rbp),%xmm0
   112e2:	5d                   	pop    %rbp
   112e3:	c3                   	retq   

00000000000112e4 <safe_div_func_float_f_f>:
   112e4:	f3 0f 1e fa          	endbr64 
   112e8:	55                   	push   %rbp
   112e9:	48 89 e5             	mov    %rsp,%rbp
   112ec:	f3 0f 11 45 fc       	movss  %xmm0,-0x4(%rbp)
   112f1:	f3 0f 11 4d f8       	movss  %xmm1,-0x8(%rbp)
   112f6:	f3 0f 10 45 f8       	movss  -0x8(%rbp),%xmm0
   112fb:	f3 0f 10 0d 2d 11 01 	movss  0x1112d(%rip),%xmm1        # 22430 <g_2211+0x13a0>
   11302:	00 
   11303:	0f 54 c8             	andps  %xmm0,%xmm1
   11306:	f3 0f 10 05 42 11 01 	movss  0x11142(%rip),%xmm0        # 22450 <g_2211+0x13c0>
   1130d:	00 
   1130e:	0f 2f c1             	comiss %xmm1,%xmm0
   11311:	0f 97 c0             	seta   %al
   11314:	83 f0 01             	xor    $0x1,%eax
   11317:	84 c0                	test   %al,%al
   11319:	75 56                	jne    11371 <safe_div_func_float_f_f+0x8d>
   1131b:	66 0f ef c0          	pxor   %xmm0,%xmm0
   1131f:	0f 2e 45 f8          	ucomiss -0x8(%rbp),%xmm0
   11323:	7a 0a                	jp     1132f <safe_div_func_float_f_f+0x4b>
   11325:	66 0f ef c0          	pxor   %xmm0,%xmm0
   11329:	0f 2e 45 f8          	ucomiss -0x8(%rbp),%xmm0
   1132d:	74 4e                	je     1137d <safe_div_func_float_f_f+0x99>
   1132f:	f3 0f 10 4d fc       	movss  -0x4(%rbp),%xmm1
   11334:	f3 0f 10 05 18 11 01 	movss  0x11118(%rip),%xmm0        # 22454 <g_2211+0x13c4>
   1133b:	00 
   1133c:	f3 0f 59 c1          	mulss  %xmm1,%xmm0
   11340:	f3 0f 10 55 f8       	movss  -0x8(%rbp),%xmm2
   11345:	f3 0f 10 0d 0b 11 01 	movss  0x1110b(%rip),%xmm1        # 22458 <g_2211+0x13c8>
   1134c:	00 
   1134d:	f3 0f 59 ca          	mulss  %xmm2,%xmm1
   11351:	f3 0f 5e c1          	divss  %xmm1,%xmm0
   11355:	f3 0f 10 0d d3 10 01 	movss  0x110d3(%rip),%xmm1        # 22430 <g_2211+0x13a0>
   1135c:	00 
   1135d:	0f 54 c1             	andps  %xmm1,%xmm0
   11360:	0f 2f 05 f5 10 01 00 	comiss 0x110f5(%rip),%xmm0        # 2245c <g_2211+0x13cc>
   11367:	0f 97 c0             	seta   %al
   1136a:	83 f0 01             	xor    $0x1,%eax
   1136d:	84 c0                	test   %al,%al
   1136f:	74 0c                	je     1137d <safe_div_func_float_f_f+0x99>
   11371:	f3 0f 10 45 fc       	movss  -0x4(%rbp),%xmm0
   11376:	f3 0f 5e 45 f8       	divss  -0x8(%rbp),%xmm0
   1137b:	eb 05                	jmp    11382 <safe_div_func_float_f_f+0x9e>
   1137d:	f3 0f 10 45 fc       	movss  -0x4(%rbp),%xmm0
   11382:	5d                   	pop    %rbp
   11383:	c3                   	retq   

0000000000011384 <safe_add_func_double_f_f>:
   11384:	f3 0f 1e fa          	endbr64 
   11388:	55                   	push   %rbp
   11389:	48 89 e5             	mov    %rsp,%rbp
   1138c:	f2 0f 11 45 f8       	movsd  %xmm0,-0x8(%rbp)
   11391:	f2 0f 11 4d f0       	movsd  %xmm1,-0x10(%rbp)
   11396:	f2 0f 10 4d f8       	movsd  -0x8(%rbp),%xmm1
   1139b:	f2 0f 10 05 bd 10 01 	movsd  0x110bd(%rip),%xmm0        # 22460 <g_2211+0x13d0>
   113a2:	00 
   113a3:	f2 0f 59 c8          	mulsd  %xmm0,%xmm1
   113a7:	f2 0f 10 55 f0       	movsd  -0x10(%rbp),%xmm2
   113ac:	f2 0f 10 05 ac 10 01 	movsd  0x110ac(%rip),%xmm0        # 22460 <g_2211+0x13d0>
   113b3:	00 
   113b4:	f2 0f 59 c2          	mulsd  %xmm2,%xmm0
   113b8:	f2 0f 58 c1          	addsd  %xmm1,%xmm0
   113bc:	f3 0f 7e 0d ac 10 01 	movq   0x110ac(%rip),%xmm1        # 22470 <g_2211+0x13e0>
   113c3:	00 
   113c4:	66 0f 54 c1          	andpd  %xmm1,%xmm0
   113c8:	66 0f 2f 05 b0 10 01 	comisd 0x110b0(%rip),%xmm0        # 22480 <g_2211+0x13f0>
   113cf:	00 
   113d0:	76 07                	jbe    113d9 <safe_add_func_double_f_f+0x55>
   113d2:	f2 0f 10 45 f8       	movsd  -0x8(%rbp),%xmm0
   113d7:	eb 0a                	jmp    113e3 <safe_add_func_double_f_f+0x5f>
   113d9:	f2 0f 10 45 f8       	movsd  -0x8(%rbp),%xmm0
   113de:	f2 0f 58 45 f0       	addsd  -0x10(%rbp),%xmm0
   113e3:	5d                   	pop    %rbp
   113e4:	c3                   	retq   

00000000000113e5 <safe_sub_func_double_f_f>:
   113e5:	f3 0f 1e fa          	endbr64 
   113e9:	55                   	push   %rbp
   113ea:	48 89 e5             	mov    %rsp,%rbp
   113ed:	f2 0f 11 45 f8       	movsd  %xmm0,-0x8(%rbp)
   113f2:	f2 0f 11 4d f0       	movsd  %xmm1,-0x10(%rbp)
   113f7:	f2 0f 10 4d f8       	movsd  -0x8(%rbp),%xmm1
   113fc:	f2 0f 10 05 5c 10 01 	movsd  0x1105c(%rip),%xmm0        # 22460 <g_2211+0x13d0>
   11403:	00 
   11404:	f2 0f 59 c1          	mulsd  %xmm1,%xmm0
   11408:	f2 0f 10 55 f0       	movsd  -0x10(%rbp),%xmm2
   1140d:	f2 0f 10 0d 4b 10 01 	movsd  0x1104b(%rip),%xmm1        # 22460 <g_2211+0x13d0>
   11414:	00 
   11415:	f2 0f 59 ca          	mulsd  %xmm2,%xmm1
   11419:	f2 0f 5c c1          	subsd  %xmm1,%xmm0
   1141d:	f3 0f 7e 0d 4b 10 01 	movq   0x1104b(%rip),%xmm1        # 22470 <g_2211+0x13e0>
   11424:	00 
   11425:	66 0f 54 c1          	andpd  %xmm1,%xmm0
   11429:	66 0f 2f 05 4f 10 01 	comisd 0x1104f(%rip),%xmm0        # 22480 <g_2211+0x13f0>
   11430:	00 
   11431:	76 07                	jbe    1143a <safe_sub_func_double_f_f+0x55>
   11433:	f2 0f 10 45 f8       	movsd  -0x8(%rbp),%xmm0
   11438:	eb 0a                	jmp    11444 <safe_sub_func_double_f_f+0x5f>
   1143a:	f2 0f 10 45 f8       	movsd  -0x8(%rbp),%xmm0
   1143f:	f2 0f 5c 45 f0       	subsd  -0x10(%rbp),%xmm0
   11444:	5d                   	pop    %rbp
   11445:	c3                   	retq   

0000000000011446 <safe_mul_func_double_f_f>:
   11446:	f3 0f 1e fa          	endbr64 
   1144a:	55                   	push   %rbp
   1144b:	48 89 e5             	mov    %rsp,%rbp
   1144e:	f2 0f 11 45 f8       	movsd  %xmm0,-0x8(%rbp)
   11453:	f2 0f 11 4d f0       	movsd  %xmm1,-0x10(%rbp)
   11458:	f2 0f 10 4d f8       	movsd  -0x8(%rbp),%xmm1
   1145d:	f2 0f 10 05 23 10 01 	movsd  0x11023(%rip),%xmm0        # 22488 <g_2211+0x13f8>
   11464:	00 
   11465:	f2 0f 59 c8          	mulsd  %xmm0,%xmm1
   11469:	f2 0f 10 55 f0       	movsd  -0x10(%rbp),%xmm2
   1146e:	f2 0f 10 05 1a 10 01 	movsd  0x1101a(%rip),%xmm0        # 22490 <g_2211+0x1400>
   11475:	00 
   11476:	f2 0f 59 c2          	mulsd  %xmm2,%xmm0
   1147a:	f2 0f 59 c1          	mulsd  %xmm1,%xmm0
   1147e:	f3 0f 7e 0d ea 0f 01 	movq   0x10fea(%rip),%xmm1        # 22470 <g_2211+0x13e0>
   11485:	00 
   11486:	66 0f 54 c1          	andpd  %xmm1,%xmm0
   1148a:	66 0f 2f 05 06 10 01 	comisd 0x11006(%rip),%xmm0        # 22498 <g_2211+0x1408>
   11491:	00 
   11492:	76 07                	jbe    1149b <safe_mul_func_double_f_f+0x55>
   11494:	f2 0f 10 45 f8       	movsd  -0x8(%rbp),%xmm0
   11499:	eb 0a                	jmp    114a5 <safe_mul_func_double_f_f+0x5f>
   1149b:	f2 0f 10 45 f8       	movsd  -0x8(%rbp),%xmm0
   114a0:	f2 0f 59 45 f0       	mulsd  -0x10(%rbp),%xmm0
   114a5:	5d                   	pop    %rbp
   114a6:	c3                   	retq   

00000000000114a7 <safe_div_func_double_f_f>:
   114a7:	f3 0f 1e fa          	endbr64 
   114ab:	55                   	push   %rbp
   114ac:	48 89 e5             	mov    %rsp,%rbp
   114af:	f2 0f 11 45 f8       	movsd  %xmm0,-0x8(%rbp)
   114b4:	f2 0f 11 4d f0       	movsd  %xmm1,-0x10(%rbp)
   114b9:	f2 0f 10 45 f0       	movsd  -0x10(%rbp),%xmm0
   114be:	f3 0f 7e 0d aa 0f 01 	movq   0x10faa(%rip),%xmm1        # 22470 <g_2211+0x13e0>
   114c5:	00 
   114c6:	66 0f 54 c8          	andpd  %xmm0,%xmm1
   114ca:	f2 0f 10 05 ce 0f 01 	movsd  0x10fce(%rip),%xmm0        # 224a0 <g_2211+0x1410>
   114d1:	00 
   114d2:	66 0f 2f c1          	comisd %xmm1,%xmm0
   114d6:	0f 97 c0             	seta   %al
   114d9:	83 f0 01             	xor    $0x1,%eax
   114dc:	84 c0                	test   %al,%al
   114de:	75 5a                	jne    1153a <safe_div_func_double_f_f+0x93>
   114e0:	66 0f ef c0          	pxor   %xmm0,%xmm0
   114e4:	66 0f 2e 45 f0       	ucomisd -0x10(%rbp),%xmm0
   114e9:	7a 0b                	jp     114f6 <safe_div_func_double_f_f+0x4f>
   114eb:	66 0f ef c0          	pxor   %xmm0,%xmm0
   114ef:	66 0f 2e 45 f0       	ucomisd -0x10(%rbp),%xmm0
   114f4:	74 50                	je     11546 <safe_div_func_double_f_f+0x9f>
   114f6:	f2 0f 10 4d f8       	movsd  -0x8(%rbp),%xmm1
   114fb:	f2 0f 10 05 a5 0f 01 	movsd  0x10fa5(%rip),%xmm0        # 224a8 <g_2211+0x1418>
   11502:	00 
   11503:	f2 0f 59 c1          	mulsd  %xmm1,%xmm0
   11507:	f2 0f 10 55 f0       	movsd  -0x10(%rbp),%xmm2
   1150c:	f2 0f 10 0d 9c 0f 01 	movsd  0x10f9c(%rip),%xmm1        # 224b0 <g_2211+0x1420>
   11513:	00 
   11514:	f2 0f 59 ca          	mulsd  %xmm2,%xmm1
   11518:	f2 0f 5e c1          	divsd  %xmm1,%xmm0
   1151c:	f3 0f 7e 0d 4c 0f 01 	movq   0x10f4c(%rip),%xmm1        # 22470 <g_2211+0x13e0>
   11523:	00 
   11524:	66 0f 54 c1          	andpd  %xmm1,%xmm0
   11528:	66 0f 2f 05 88 0f 01 	comisd 0x10f88(%rip),%xmm0        # 224b8 <g_2211+0x1428>
   1152f:	00 
   11530:	0f 97 c0             	seta   %al
   11533:	83 f0 01             	xor    $0x1,%eax
   11536:	84 c0                	test   %al,%al
   11538:	74 0c                	je     11546 <safe_div_func_double_f_f+0x9f>
   1153a:	f2 0f 10 45 f8       	movsd  -0x8(%rbp),%xmm0
   1153f:	f2 0f 5e 45 f0       	divsd  -0x10(%rbp),%xmm0
   11544:	eb 05                	jmp    1154b <safe_div_func_double_f_f+0xa4>
   11546:	f2 0f 10 45 f8       	movsd  -0x8(%rbp),%xmm0
   1154b:	5d                   	pop    %rbp
   1154c:	c3                   	retq   

000000000001154d <safe_convert_func_float_to_int32_t>:
   1154d:	f3 0f 1e fa          	endbr64 
   11551:	55                   	push   %rbp
   11552:	48 89 e5             	mov    %rsp,%rbp
   11555:	f3 0f 11 45 fc       	movss  %xmm0,-0x4(%rbp)
   1155a:	f3 0f 10 05 5e 0f 01 	movss  0x10f5e(%rip),%xmm0        # 224c0 <g_2211+0x1430>
   11561:	00 
   11562:	0f 2f 45 fc          	comiss -0x4(%rbp),%xmm0
   11566:	0f 93 c0             	setae  %al
   11569:	83 f0 01             	xor    $0x1,%eax
   1156c:	84 c0                	test   %al,%al
   1156e:	74 21                	je     11591 <safe_convert_func_float_to_int32_t+0x44>
   11570:	f3 0f 10 45 fc       	movss  -0x4(%rbp),%xmm0
   11575:	0f 2f 05 48 0f 01 00 	comiss 0x10f48(%rip),%xmm0        # 224c4 <g_2211+0x1434>
   1157c:	0f 93 c0             	setae  %al
   1157f:	83 f0 01             	xor    $0x1,%eax
   11582:	84 c0                	test   %al,%al
   11584:	74 0b                	je     11591 <safe_convert_func_float_to_int32_t+0x44>
   11586:	f3 0f 10 45 fc       	movss  -0x4(%rbp),%xmm0
   1158b:	f3 0f 2c c0          	cvttss2si %xmm0,%eax
   1158f:	eb 05                	jmp    11596 <safe_convert_func_float_to_int32_t+0x49>
   11591:	b8 ff ff ff 7f       	mov    $0x7fffffff,%eax
   11596:	5d                   	pop    %rbp
   11597:	c3                   	retq   

0000000000011598 <crc32_gentab>:
   11598:	f3 0f 1e fa          	endbr64 
   1159c:	55                   	push   %rbp
   1159d:	48 89 e5             	mov    %rsp,%rbp
   115a0:	c7 45 fc 20 83 b8 ed 	movl   $0xedb88320,-0x4(%rbp)
   115a7:	c7 45 f4 00 00 00 00 	movl   $0x0,-0xc(%rbp)
   115ae:	eb 51                	jmp    11601 <crc32_gentab+0x69>
   115b0:	8b 45 f4             	mov    -0xc(%rbp),%eax
   115b3:	89 45 f0             	mov    %eax,-0x10(%rbp)
   115b6:	c7 45 f8 08 00 00 00 	movl   $0x8,-0x8(%rbp)
   115bd:	eb 1e                	jmp    115dd <crc32_gentab+0x45>
   115bf:	8b 45 f0             	mov    -0x10(%rbp),%eax
   115c2:	83 e0 01             	and    $0x1,%eax
   115c5:	85 c0                	test   %eax,%eax
   115c7:	74 0d                	je     115d6 <crc32_gentab+0x3e>
   115c9:	8b 45 f0             	mov    -0x10(%rbp),%eax
   115cc:	d1 e8                	shr    %eax
   115ce:	33 45 fc             	xor    -0x4(%rbp),%eax
   115d1:	89 45 f0             	mov    %eax,-0x10(%rbp)
   115d4:	eb 03                	jmp    115d9 <crc32_gentab+0x41>
   115d6:	d1 6d f0             	shrl   -0x10(%rbp)
   115d9:	83 6d f8 01          	subl   $0x1,-0x8(%rbp)
   115dd:	83 7d f8 00          	cmpl   $0x0,-0x8(%rbp)
   115e1:	7f dc                	jg     115bf <crc32_gentab+0x27>
   115e3:	8b 45 f4             	mov    -0xc(%rbp),%eax
   115e6:	48 98                	cltq   
   115e8:	48 8d 0c 85 00 00 00 	lea    0x0(,%rax,4),%rcx
   115ef:	00 
   115f0:	48 8d 15 c9 d6 01 00 	lea    0x1d6c9(%rip),%rdx        # 2ecc0 <crc32_tab>
   115f7:	8b 45 f0             	mov    -0x10(%rbp),%eax
   115fa:	89 04 11             	mov    %eax,(%rcx,%rdx,1)
   115fd:	83 45 f4 01          	addl   $0x1,-0xc(%rbp)
   11601:	81 7d f4 ff 00 00 00 	cmpl   $0xff,-0xc(%rbp)
   11608:	7e a6                	jle    115b0 <crc32_gentab+0x18>
   1160a:	90                   	nop
   1160b:	90                   	nop
   1160c:	5d                   	pop    %rbp
   1160d:	c3                   	retq   

000000000001160e <crc32_byte>:
   1160e:	f3 0f 1e fa          	endbr64 
   11612:	55                   	push   %rbp
   11613:	48 89 e5             	mov    %rsp,%rbp
   11616:	89 f8                	mov    %edi,%eax
   11618:	88 45 fc             	mov    %al,-0x4(%rbp)
   1161b:	8b 05 ff 49 01 00    	mov    0x149ff(%rip),%eax        # 26020 <crc32_context>
   11621:	c1 e8 08             	shr    $0x8,%eax
   11624:	89 c1                	mov    %eax,%ecx
   11626:	0f b6 55 fc          	movzbl -0x4(%rbp),%edx
   1162a:	8b 05 f0 49 01 00    	mov    0x149f0(%rip),%eax        # 26020 <crc32_context>
   11630:	31 d0                	xor    %edx,%eax
   11632:	0f b6 c0             	movzbl %al,%eax
   11635:	89 c0                	mov    %eax,%eax
   11637:	48 8d 14 85 00 00 00 	lea    0x0(,%rax,4),%rdx
   1163e:	00 
   1163f:	48 8d 05 7a d6 01 00 	lea    0x1d67a(%rip),%rax        # 2ecc0 <crc32_tab>
   11646:	8b 04 02             	mov    (%rdx,%rax,1),%eax
   11649:	31 c8                	xor    %ecx,%eax
   1164b:	89 05 cf 49 01 00    	mov    %eax,0x149cf(%rip)        # 26020 <crc32_context>
   11651:	90                   	nop
   11652:	5d                   	pop    %rbp
   11653:	c3                   	retq   

0000000000011654 <crc32_8bytes>:
   11654:	f3 0f 1e fa          	endbr64 
   11658:	55                   	push   %rbp
   11659:	48 89 e5             	mov    %rsp,%rbp
   1165c:	48 83 ec 08          	sub    $0x8,%rsp
   11660:	48 89 7d f8          	mov    %rdi,-0x8(%rbp)
   11664:	48 8b 45 f8          	mov    -0x8(%rbp),%rax
   11668:	0f b6 c0             	movzbl %al,%eax
   1166b:	89 c7                	mov    %eax,%edi
   1166d:	e8 9c ff ff ff       	callq  1160e <crc32_byte>
   11672:	48 8b 45 f8          	mov    -0x8(%rbp),%rax
   11676:	48 c1 e8 08          	shr    $0x8,%rax
   1167a:	0f b6 c0             	movzbl %al,%eax
   1167d:	89 c7                	mov    %eax,%edi
   1167f:	e8 8a ff ff ff       	callq  1160e <crc32_byte>
   11684:	48 8b 45 f8          	mov    -0x8(%rbp),%rax
   11688:	48 c1 e8 10          	shr    $0x10,%rax
   1168c:	0f b6 c0             	movzbl %al,%eax
   1168f:	89 c7                	mov    %eax,%edi
   11691:	e8 78 ff ff ff       	callq  1160e <crc32_byte>
   11696:	48 8b 45 f8          	mov    -0x8(%rbp),%rax
   1169a:	48 c1 e8 18          	shr    $0x18,%rax
   1169e:	0f b6 c0             	movzbl %al,%eax
   116a1:	89 c7                	mov    %eax,%edi
   116a3:	e8 66 ff ff ff       	callq  1160e <crc32_byte>
   116a8:	48 8b 45 f8          	mov    -0x8(%rbp),%rax
   116ac:	48 c1 e8 20          	shr    $0x20,%rax
   116b0:	0f b6 c0             	movzbl %al,%eax
   116b3:	89 c7                	mov    %eax,%edi
   116b5:	e8 54 ff ff ff       	callq  1160e <crc32_byte>
   116ba:	48 8b 45 f8          	mov    -0x8(%rbp),%rax
   116be:	48 c1 e8 28          	shr    $0x28,%rax
   116c2:	0f b6 c0             	movzbl %al,%eax
   116c5:	89 c7                	mov    %eax,%edi
   116c7:	e8 42 ff ff ff       	callq  1160e <crc32_byte>
   116cc:	48 8b 45 f8          	mov    -0x8(%rbp),%rax
   116d0:	48 c1 e8 30          	shr    $0x30,%rax
   116d4:	0f b6 c0             	movzbl %al,%eax
   116d7:	89 c7                	mov    %eax,%edi
   116d9:	e8 30 ff ff ff       	callq  1160e <crc32_byte>
   116de:	48 8b 45 f8          	mov    -0x8(%rbp),%rax
   116e2:	48 c1 e8 38          	shr    $0x38,%rax
   116e6:	0f b6 c0             	movzbl %al,%eax
   116e9:	89 c7                	mov    %eax,%edi
   116eb:	e8 1e ff ff ff       	callq  1160e <crc32_byte>
   116f0:	90                   	nop
   116f1:	c9                   	leaveq 
   116f2:	c3                   	retq   

00000000000116f3 <transparent_crc>:
   116f3:	f3 0f 1e fa          	endbr64 
   116f7:	55                   	push   %rbp
   116f8:	48 89 e5             	mov    %rsp,%rbp
   116fb:	48 83 ec 20          	sub    $0x20,%rsp
   116ff:	48 89 7d f8          	mov    %rdi,-0x8(%rbp)
   11703:	48 89 75 f0          	mov    %rsi,-0x10(%rbp)
   11707:	89 55 ec             	mov    %edx,-0x14(%rbp)
   1170a:	48 8b 45 f8          	mov    -0x8(%rbp),%rax
   1170e:	48 89 c7             	mov    %rax,%rdi
   11711:	e8 3e ff ff ff       	callq  11654 <crc32_8bytes>
   11716:	83 7d ec 00          	cmpl   $0x0,-0x14(%rbp)
   1171a:	74 22                	je     1173e <transparent_crc+0x4b>
   1171c:	8b 05 fe 48 01 00    	mov    0x148fe(%rip),%eax        # 26020 <crc32_context>
   11722:	f7 d0                	not    %eax
   11724:	89 c2                	mov    %eax,%edx
   11726:	48 8b 45 f0          	mov    -0x10(%rbp),%rax
   1172a:	48 89 c6             	mov    %rax,%rsi
   1172d:	48 8d 3d fc f8 00 00 	lea    0xf8fc(%rip),%rdi        # 21030 <_IO_stdin_used+0x30>
   11734:	b8 00 00 00 00       	mov    $0x0,%eax
   11739:	e8 42 e9 ff ff       	callq  10080 <printf@plt>
   1173e:	90                   	nop
   1173f:	c9                   	leaveq 
   11740:	c3                   	retq   

0000000000011741 <transparent_crc_bytes>:
   11741:	f3 0f 1e fa          	endbr64 
   11745:	55                   	push   %rbp
   11746:	48 89 e5             	mov    %rsp,%rbp
   11749:	48 83 ec 30          	sub    $0x30,%rsp
   1174d:	48 89 7d e8          	mov    %rdi,-0x18(%rbp)
   11751:	89 75 e4             	mov    %esi,-0x1c(%rbp)
   11754:	48 89 55 d8          	mov    %rdx,-0x28(%rbp)
   11758:	89 4d e0             	mov    %ecx,-0x20(%rbp)
   1175b:	c7 45 fc 00 00 00 00 	movl   $0x0,-0x4(%rbp)
   11762:	eb 1e                	jmp    11782 <transparent_crc_bytes+0x41>
   11764:	8b 45 fc             	mov    -0x4(%rbp),%eax
   11767:	48 63 d0             	movslq %eax,%rdx
   1176a:	48 8b 45 e8          	mov    -0x18(%rbp),%rax
   1176e:	48 01 d0             	add    %rdx,%rax
   11771:	0f b6 00             	movzbl (%rax),%eax
   11774:	0f b6 c0             	movzbl %al,%eax
   11777:	89 c7                	mov    %eax,%edi
   11779:	e8 90 fe ff ff       	callq  1160e <crc32_byte>
   1177e:	83 45 fc 01          	addl   $0x1,-0x4(%rbp)
   11782:	8b 45 fc             	mov    -0x4(%rbp),%eax
   11785:	3b 45 e4             	cmp    -0x1c(%rbp),%eax
   11788:	7c da                	jl     11764 <transparent_crc_bytes+0x23>
   1178a:	83 7d e0 00          	cmpl   $0x0,-0x20(%rbp)
   1178e:	74 22                	je     117b2 <transparent_crc_bytes+0x71>
   11790:	8b 05 8a 48 01 00    	mov    0x1488a(%rip),%eax        # 26020 <crc32_context>
   11796:	f7 d0                	not    %eax
   11798:	89 c2                	mov    %eax,%edx
   1179a:	48 8b 45 d8          	mov    -0x28(%rbp),%rax
   1179e:	48 89 c6             	mov    %rax,%rsi
   117a1:	48 8d 3d 88 f8 00 00 	lea    0xf888(%rip),%rdi        # 21030 <_IO_stdin_used+0x30>
   117a8:	b8 00 00 00 00       	mov    $0x0,%eax
   117ad:	e8 ce e8 ff ff       	callq  10080 <printf@plt>
   117b2:	90                   	nop
   117b3:	c9                   	leaveq 
   117b4:	c3                   	retq   

00000000000117b5 <func_1>:
   117b5:	f3 0f 1e fa          	endbr64 
   117b9:	55                   	push   %rbp
   117ba:	48 89 e5             	mov    %rsp,%rbp
   117bd:	41 57                	push   %r15
   117bf:	41 56                	push   %r14
   117c1:	41 55                	push   %r13
   117c3:	41 54                	push   %r12
   117c5:	53                   	push   %rbx
   117c6:	48 81 ec 68 06 00 00 	sub    $0x668,%rsp
   117cd:	64 48 8b 04 25 28 00 	mov    %fs:0x28,%rax
   117d4:	00 00 
   117d6:	48 89 45 c8          	mov    %rax,-0x38(%rbp)
   117da:	31 c0                	xor    %eax,%eax
   117dc:	c7 85 a4 f9 ff ff ff 	movl   $0xffffffff,-0x65c(%rbp)
   117e3:	ff ff ff 
   117e6:	48 8d 05 37 48 01 00 	lea    0x14837(%rip),%rax        # 26024 <g_5>
   117ed:	48 89 85 68 fa ff ff 	mov    %rax,-0x598(%rbp)
   117f4:	48 b8 d7 d7 d7 d7 d7 	movabs $0xd7d7d7d7d7d7d7d7,%rax
   117fb:	d7 d7 d7 
   117fe:	48 89 45 bf          	mov    %rax,-0x41(%rbp)
   11802:	c6 45 c7 d7          	movb   $0xd7,-0x39(%rbp)
   11806:	48 b8 5b 43 de 12 49 	movabs $0x7edc274912de435b,%rax
   1180d:	27 dc 7e 
   11810:	48 89 85 28 fa ff ff 	mov    %rax,-0x5d8(%rbp)
   11817:	c7 85 a8 f9 ff ff 58 	movl   $0x4c736258,-0x658(%rbp)
   1181e:	62 73 4c 
   11821:	c7 85 90 f9 ff ff 56 	movl   $0xe4a95056,-0x670(%rbp)
   11828:	50 a9 e4 
   1182b:	48 8d 05 46 d9 01 00 	lea    0x1d946(%rip),%rax        # 2f178 <g_3055>
   11832:	48 89 85 70 fa ff ff 	mov    %rax,-0x590(%rbp)
   11839:	48 8d 85 b0 fd ff ff 	lea    -0x250(%rbp),%rax
   11840:	48 8d 15 f9 71 01 00 	lea    0x171f9(%rip),%rdx        # 28a40 <g_4305+0x18>
   11847:	b9 40 00 00 00       	mov    $0x40,%ecx
   1184c:	48 89 c7             	mov    %rax,%rdi
   1184f:	48 89 d6             	mov    %rdx,%rsi
   11852:	f3 48 a5             	rep movsq %ds:(%rsi),%es:(%rdi)
   11855:	48 b8 59 33 b5 2e 10 	movabs $0xdf22d0102eb53359,%rax
   1185c:	d0 22 df 
   1185f:	48 89 85 20 fc ff ff 	mov    %rax,-0x3e0(%rbp)
   11866:	48 89 85 28 fc ff ff 	mov    %rax,-0x3d8(%rbp)
   1186d:	48 89 85 30 fc ff ff 	mov    %rax,-0x3d0(%rbp)
   11874:	48 89 85 38 fc ff ff 	mov    %rax,-0x3c8(%rbp)
   1187b:	48 89 85 40 fc ff ff 	mov    %rax,-0x3c0(%rbp)
   11882:	48 89 85 48 fc ff ff 	mov    %rax,-0x3b8(%rbp)
   11889:	48 89 85 50 fc ff ff 	mov    %rax,-0x3b0(%rbp)
   11890:	48 89 85 58 fc ff ff 	mov    %rax,-0x3a8(%rbp)
   11897:	48 89 85 60 fc ff ff 	mov    %rax,-0x3a0(%rbp)
   1189e:	48 89 85 68 fc ff ff 	mov    %rax,-0x398(%rbp)
   118a5:	48 89 85 70 fc ff ff 	mov    %rax,-0x390(%rbp)
   118ac:	48 89 85 78 fc ff ff 	mov    %rax,-0x388(%rbp)
   118b3:	48 89 85 80 fc ff ff 	mov    %rax,-0x380(%rbp)
   118ba:	48 89 85 88 fc ff ff 	mov    %rax,-0x378(%rbp)
   118c1:	48 89 85 90 fc ff ff 	mov    %rax,-0x370(%rbp)
   118c8:	48 89 85 98 fc ff ff 	mov    %rax,-0x368(%rbp)
   118cf:	48 89 85 a0 fc ff ff 	mov    %rax,-0x360(%rbp)
   118d6:	48 89 85 a8 fc ff ff 	mov    %rax,-0x358(%rbp)
   118dd:	48 89 85 b0 fc ff ff 	mov    %rax,-0x350(%rbp)
   118e4:	48 89 85 b8 fc ff ff 	mov    %rax,-0x348(%rbp)
   118eb:	48 8d 05 66 47 01 00 	lea    0x14766(%rip),%rax        # 26058 <g_107>
   118f2:	48 89 85 c0 fc ff ff 	mov    %rax,-0x340(%rbp)
   118f9:	48 8d 05 58 47 01 00 	lea    0x14758(%rip),%rax        # 26058 <g_107>
   11900:	48 89 85 c8 fc ff ff 	mov    %rax,-0x338(%rbp)
   11907:	48 8d 05 aa 51 01 00 	lea    0x151aa(%rip),%rax        # 26ab8 <g_231+0x238>
   1190e:	48 89 85 d0 fc ff ff 	mov    %rax,-0x330(%rbp)
   11915:	48 8d 05 84 5f 01 00 	lea    0x15f84(%rip),%rax        # 278a0 <g_1294+0x340>
   1191c:	48 89 85 d8 fc ff ff 	mov    %rax,-0x328(%rbp)
   11923:	48 8d 05 8e 51 01 00 	lea    0x1518e(%rip),%rax        # 26ab8 <g_231+0x238>
   1192a:	48 89 85 e0 fc ff ff 	mov    %rax,-0x320(%rbp)
   11931:	48 8d 05 84 60 01 00 	lea    0x16084(%rip),%rax        # 279bc <g_2471>
   11938:	48 89 85 e8 fc ff ff 	mov    %rax,-0x318(%rbp)
   1193f:	48 8d 05 76 60 01 00 	lea    0x16076(%rip),%rax        # 279bc <g_2471>
   11946:	48 89 85 f0 fc ff ff 	mov    %rax,-0x310(%rbp)
   1194d:	48 8d 05 04 47 01 00 	lea    0x14704(%rip),%rax        # 26058 <g_107>
   11954:	48 89 85 f8 fc ff ff 	mov    %rax,-0x308(%rbp)
   1195b:	48 8d 85 90 f9 ff ff 	lea    -0x670(%rbp),%rax
   11962:	48 89 85 00 fd ff ff 	mov    %rax,-0x300(%rbp)
   11969:	48 8d 05 e8 46 01 00 	lea    0x146e8(%rip),%rax        # 26058 <g_107>
   11970:	48 89 85 08 fd ff ff 	mov    %rax,-0x2f8(%rbp)
   11977:	48 8d 05 da 46 01 00 	lea    0x146da(%rip),%rax        # 26058 <g_107>
   1197e:	48 89 85 10 fd ff ff 	mov    %rax,-0x2f0(%rbp)
   11985:	48 8d 05 cc 46 01 00 	lea    0x146cc(%rip),%rax        # 26058 <g_107>
   1198c:	48 89 85 18 fd ff ff 	mov    %rax,-0x2e8(%rbp)
   11993:	48 8d 05 1e 51 01 00 	lea    0x1511e(%rip),%rax        # 26ab8 <g_231+0x238>
   1199a:	48 89 85 20 fd ff ff 	mov    %rax,-0x2e0(%rbp)
   119a1:	48 8d 05 f8 5e 01 00 	lea    0x15ef8(%rip),%rax        # 278a0 <g_1294+0x340>
   119a8:	48 89 85 28 fd ff ff 	mov    %rax,-0x2d8(%rbp)
   119af:	48 8d 05 02 51 01 00 	lea    0x15102(%rip),%rax        # 26ab8 <g_231+0x238>
   119b6:	48 89 85 30 fd ff ff 	mov    %rax,-0x2d0(%rbp)
   119bd:	48 8d 05 f8 5f 01 00 	lea    0x15ff8(%rip),%rax        # 279bc <g_2471>
   119c4:	48 89 85 38 fd ff ff 	mov    %rax,-0x2c8(%rbp)
   119cb:	48 8d 05 ea 5f 01 00 	lea    0x15fea(%rip),%rax        # 279bc <g_2471>
   119d2:	48 89 85 40 fd ff ff 	mov    %rax,-0x2c0(%rbp)
   119d9:	48 8d 05 78 46 01 00 	lea    0x14678(%rip),%rax        # 26058 <g_107>
   119e0:	48 89 85 48 fd ff ff 	mov    %rax,-0x2b8(%rbp)
   119e7:	48 8d 85 90 f9 ff ff 	lea    -0x670(%rbp),%rax
   119ee:	48 89 85 50 fd ff ff 	mov    %rax,-0x2b0(%rbp)
   119f5:	48 8d 05 5c 46 01 00 	lea    0x1465c(%rip),%rax        # 26058 <g_107>
   119fc:	48 89 85 58 fd ff ff 	mov    %rax,-0x2a8(%rbp)
   11a03:	48 8d 05 4e 46 01 00 	lea    0x1464e(%rip),%rax        # 26058 <g_107>
   11a0a:	48 89 85 60 fd ff ff 	mov    %rax,-0x2a0(%rbp)
   11a11:	48 8d 05 40 46 01 00 	lea    0x14640(%rip),%rax        # 26058 <g_107>
   11a18:	48 89 85 68 fd ff ff 	mov    %rax,-0x298(%rbp)
   11a1f:	48 8d 05 92 50 01 00 	lea    0x15092(%rip),%rax        # 26ab8 <g_231+0x238>
   11a26:	48 89 85 70 fd ff ff 	mov    %rax,-0x290(%rbp)
   11a2d:	48 8d 05 6c 5e 01 00 	lea    0x15e6c(%rip),%rax        # 278a0 <g_1294+0x340>
   11a34:	48 89 85 78 fd ff ff 	mov    %rax,-0x288(%rbp)
   11a3b:	48 8d 05 76 50 01 00 	lea    0x15076(%rip),%rax        # 26ab8 <g_231+0x238>
   11a42:	48 89 85 80 fd ff ff 	mov    %rax,-0x280(%rbp)
   11a49:	48 8d 05 6c 5f 01 00 	lea    0x15f6c(%rip),%rax        # 279bc <g_2471>
   11a50:	48 89 85 88 fd ff ff 	mov    %rax,-0x278(%rbp)
   11a57:	48 8d 05 5e 5f 01 00 	lea    0x15f5e(%rip),%rax        # 279bc <g_2471>
   11a5e:	48 89 85 90 fd ff ff 	mov    %rax,-0x270(%rbp)
   11a65:	48 8d 05 ec 45 01 00 	lea    0x145ec(%rip),%rax        # 26058 <g_107>
   11a6c:	48 89 85 98 fd ff ff 	mov    %rax,-0x268(%rbp)
   11a73:	48 8d 85 90 f9 ff ff 	lea    -0x670(%rbp),%rax
   11a7a:	48 89 85 a0 fd ff ff 	mov    %rax,-0x260(%rbp)
   11a81:	48 8d 05 d0 45 01 00 	lea    0x145d0(%rip),%rax        # 26058 <g_107>
   11a88:	48 89 85 a8 fd ff ff 	mov    %rax,-0x258(%rbp)
   11a8f:	c7 85 ac f9 ff ff 00 	movl   $0x0,-0x654(%rbp)
   11a96:	00 00 00 
   11a99:	48 8d 05 58 51 01 00 	lea    0x15158(%rip),%rax        # 26bf8 <g_337+0x8>
   11aa0:	48 89 85 78 fa ff ff 	mov    %rax,-0x588(%rbp)
   11aa7:	66 c7 85 8a f9 ff ff 	movw   $0xffff,-0x676(%rbp)
   11aae:	ff ff 
   11ab0:	48 b8 cc e7 cc 4d 3e 	movabs $0x63eb3c3e4dcce7cc,%rax
   11ab7:	3c eb 63 
   11aba:	48 89 85 80 fa ff ff 	mov    %rax,-0x580(%rbp)
   11ac1:	8b 85 a8 f9 ff ff    	mov    -0x658(%rbp),%eax
   11ac7:	48 98                	cltq   
   11ac9:	48 89 85 78 f9 ff ff 	mov    %rax,-0x688(%rbp)
   11ad0:	48 8b 85 28 fa ff ff 	mov    -0x5d8(%rbp),%rax
   11ad7:	44 0f b7 e0          	movzwl %ax,%r12d
   11adb:	48 8b 85 28 fa ff ff 	mov    -0x5d8(%rbp),%rax
   11ae2:	89 85 74 f9 ff ff    	mov    %eax,-0x68c(%rbp)
   11ae8:	8b 85 a4 f9 ff ff    	mov    -0x65c(%rbp),%eax
   11aee:	0f b6 d8             	movzbl %al,%ebx
   11af1:	0f b6 45 c5          	movzbl -0x3b(%rbp),%eax
   11af5:	44 0f be e8          	movsbl %al,%r13d
   11af9:	0f b6 05 24 45 01 00 	movzbl 0x14524(%rip),%eax        # 26024 <g_5>
   11b00:	0f be d0             	movsbl %al,%edx
   11b03:	0f b6 05 1a 45 01 00 	movzbl 0x1451a(%rip),%eax        # 26024 <g_5>
   11b0a:	0f be c0             	movsbl %al,%eax
   11b0d:	39 85 a4 f9 ff ff    	cmp    %eax,-0x65c(%rbp)
   11b13:	0f 96 c0             	setbe  %al
   11b16:	0f b6 c0             	movzbl %al,%eax
   11b19:	39 c2                	cmp    %eax,%edx
   11b1b:	75 67                	jne    11b84 <func_1+0x3cf>
   11b1d:	44 8b b5 a4 f9 ff ff 	mov    -0x65c(%rbp),%r14d
   11b24:	0f b6 05 f9 44 01 00 	movzbl 0x144f9(%rip),%eax        # 26024 <g_5>
   11b2b:	0f be c0             	movsbl %al,%eax
   11b2e:	89 85 70 f9 ff ff    	mov    %eax,-0x690(%rbp)
   11b34:	44 8b bd a4 f9 ff ff 	mov    -0x65c(%rbp),%r15d
   11b3b:	48 83 bd 68 fa ff ff 	cmpq   $0x0,-0x598(%rbp)
   11b42:	00 
   11b43:	0f 95 c0             	setne  %al
   11b46:	0f b6 c0             	movzbl %al,%eax
   11b49:	89 c6                	mov    %eax,%esi
   11b4b:	bf 01 00 00 00       	mov    $0x1,%edi
   11b50:	e8 3e f0 ff ff       	callq  10b93 <safe_mul_func_uint8_t_u_u>
   11b55:	0f b6 c0             	movzbl %al,%eax
   11b58:	48 8b 95 68 fa ff ff 	mov    -0x598(%rbp),%rdx
   11b5f:	44 89 fe             	mov    %r15d,%esi
   11b62:	89 c7                	mov    %eax,%edi
   11b64:	e8 a7 39 00 00       	callq  15510 <func_23>
   11b69:	0f b7 c0             	movzwl %ax,%eax
   11b6c:	23 85 70 f9 ff ff    	and    -0x690(%rbp),%eax
   11b72:	48 98                	cltq   
   11b74:	4c 89 f6             	mov    %r14,%rsi
   11b77:	48 89 c7             	mov    %rax,%rdi
   11b7a:	e8 78 ee ff ff       	callq  109f7 <safe_div_func_int64_t_s_s>
   11b7f:	48 85 c0             	test   %rax,%rax
   11b82:	74 07                	je     11b8b <func_1+0x3d6>
   11b84:	b8 01 00 00 00       	mov    $0x1,%eax
   11b89:	eb 05                	jmp    11b90 <func_1+0x3db>
   11b8b:	b8 00 00 00 00       	mov    $0x0,%eax
   11b90:	98                   	cwtl   
   11b91:	44 89 ee             	mov    %r13d,%esi
   11b94:	89 c7                	mov    %eax,%edi
   11b96:	e8 f7 e8 ff ff       	callq  10492 <safe_lshift_func_int16_t_s_s>
   11b9b:	0f bf d0             	movswl %ax,%edx
   11b9e:	0f b6 05 7f 44 01 00 	movzbl 0x1447f(%rip),%eax        # 26024 <g_5>
   11ba5:	48 0f be f0          	movsbq %al,%rsi
   11ba9:	0f b6 05 74 44 01 00 	movzbl 0x14474(%rip),%eax        # 26024 <g_5>
   11bb0:	0f b6 c0             	movzbl %al,%eax
   11bb3:	48 8d 4d bf          	lea    -0x41(%rbp),%rcx
   11bb7:	48 8d 79 06          	lea    0x6(%rcx),%rdi
   11bbb:	48 8d 4d bf          	lea    -0x41(%rbp),%rcx
   11bbf:	48 83 c1 06          	add    $0x6,%rcx
   11bc3:	49 89 f8             	mov    %rdi,%r8
   11bc6:	89 c7                	mov    %eax,%edi
   11bc8:	e8 1b 30 00 00       	callq  14be8 <func_12>
   11bcd:	4c 8b 85 78 f9 ff ff 	mov    -0x688(%rbp),%r8
   11bd4:	44 89 e1             	mov    %r12d,%ecx
   11bd7:	8b 95 74 f9 ff ff    	mov    -0x68c(%rbp),%edx
   11bdd:	89 de                	mov    %ebx,%esi
   11bdf:	89 c7                	mov    %eax,%edi
   11be1:	e8 f9 05 00 00       	callq  121df <func_6>
   11be6:	48 8b 05 8b 9d 01 00 	mov    0x19d8b(%rip),%rax        # 2b978 <g_797>
   11bed:	48 8b 00             	mov    (%rax),%rax
   11bf0:	48 c7 00 00 00 00 00 	movq   $0x0,(%rax)
   11bf7:	48 8b 00             	mov    (%rax),%rax
   11bfa:	48 89 85 68 fa ff ff 	mov    %rax,-0x598(%rbp)
   11c01:	48 8b 05 d8 96 01 00 	mov    0x196d8(%rip),%rax        # 2b2e0 <g_4>
   11c08:	48 39 85 68 fa ff ff 	cmp    %rax,-0x598(%rbp)
   11c0f:	0f 95 c0             	setne  %al
   11c12:	0f b6 c0             	movzbl %al,%eax
   11c15:	be ac ff ff ff       	mov    $0xffffffac,%esi
   11c1a:	89 c7                	mov    %eax,%edi
   11c1c:	e8 d1 e5 ff ff       	callq  101f2 <safe_sub_func_int8_t_s_s>
   11c21:	0f be d0             	movsbl %al,%edx
   11c24:	8b 85 90 f9 ff ff    	mov    -0x670(%rbp),%eax
   11c2a:	09 d0                	or     %edx,%eax
   11c2c:	89 85 90 f9 ff ff    	mov    %eax,-0x670(%rbp)
   11c32:	c7 05 24 44 01 00 00 	movl   $0x0,0x14424(%rip)        # 26060 <g_121>
   11c39:	00 00 00 
   11c3c:	e9 62 05 00 00       	jmpq   121a3 <func_1+0x9ee>
   11c41:	66 c7 85 8c f9 ff ff 	movw   $0xb1b2,-0x674(%rbp)
   11c48:	b2 b1 
   11c4a:	48 8d 85 28 fa ff ff 	lea    -0x5d8(%rbp),%rax
   11c51:	48 89 85 30 fa ff ff 	mov    %rax,-0x5d0(%rbp)
   11c58:	48 8d 85 30 fa ff ff 	lea    -0x5d0(%rbp),%rax
   11c5f:	48 89 85 38 fa ff ff 	mov    %rax,-0x5c8(%rbp)
   11c66:	48 8d 85 38 fa ff ff 	lea    -0x5c8(%rbp),%rax
   11c6d:	48 89 85 88 fa ff ff 	mov    %rax,-0x578(%rbp)
   11c74:	c7 85 b0 f9 ff ff 48 	movl   $0xd2464948,-0x650(%rbp)
   11c7b:	49 46 d2 
   11c7e:	c7 85 b4 f9 ff ff 19 	movl   $0xd9ac6119,-0x64c(%rbp)
   11c85:	61 ac d9 
   11c88:	c7 85 b8 f9 ff ff f3 	movl   $0x322e53f3,-0x648(%rbp)
   11c8f:	53 2e 32 
   11c92:	48 8d 05 ef 9c 01 00 	lea    0x19cef(%rip),%rax        # 2b988 <g_835>
   11c99:	48 89 85 90 fa ff ff 	mov    %rax,-0x570(%rbp)
   11ca0:	48 8d 05 21 d4 01 00 	lea    0x1d421(%rip),%rax        # 2f0c8 <g_265>
   11ca7:	48 89 85 30 fb ff ff 	mov    %rax,-0x4d0(%rbp)
   11cae:	48 8d 05 13 d4 01 00 	lea    0x1d413(%rip),%rax        # 2f0c8 <g_265>
   11cb5:	48 89 85 38 fb ff ff 	mov    %rax,-0x4c8(%rbp)
   11cbc:	48 8d 05 05 d4 01 00 	lea    0x1d405(%rip),%rax        # 2f0c8 <g_265>
   11cc3:	48 89 85 40 fb ff ff 	mov    %rax,-0x4c0(%rbp)
   11cca:	48 8d 05 f7 d3 01 00 	lea    0x1d3f7(%rip),%rax        # 2f0c8 <g_265>
   11cd1:	48 89 85 48 fb ff ff 	mov    %rax,-0x4b8(%rbp)
   11cd8:	48 8d 05 19 9d 01 00 	lea    0x19d19(%rip),%rax        # 2b9f8 <g_908>
   11cdf:	48 89 85 98 fa ff ff 	mov    %rax,-0x568(%rbp)
   11ce6:	48 c7 85 a0 fa ff ff 	movq   $0x0,-0x560(%rbp)
   11ced:	00 00 00 00 
   11cf1:	48 8d 05 b0 af 01 00 	lea    0x1afb0(%rip),%rax        # 2cca8 <g_2259+0x68>
   11cf8:	48 89 85 a8 fa ff ff 	mov    %rax,-0x558(%rbp)
   11cff:	c7 85 bc f9 ff ff 01 	movl   $0x1,-0x644(%rbp)
   11d06:	00 00 00 
   11d09:	c7 85 c0 f9 ff ff b4 	movl   $0xf8a89cb4,-0x640(%rbp)
   11d10:	9c a8 f8 
   11d13:	c7 85 c4 f9 ff ff 8e 	movl   $0x420be38e,-0x63c(%rbp)
   11d1a:	e3 0b 42 
   11d1d:	c7 85 c8 f9 ff ff 84 	movl   $0x35ff0f84,-0x638(%rbp)
   11d24:	0f ff 35 
   11d27:	c7 85 cc f9 ff ff 01 	movl   $0x1,-0x634(%rbp)
   11d2e:	00 00 00 
   11d31:	c7 85 d0 f9 ff ff ff 	movl   $0xffffffff,-0x630(%rbp)
   11d38:	ff ff ff 
   11d3b:	c7 85 d4 f9 ff ff ff 	movl   $0xffffffff,-0x62c(%rbp)
   11d42:	ff ff ff 
   11d45:	c7 85 d8 f9 ff ff ed 	movl   $0x6a3d26ed,-0x628(%rbp)
   11d4c:	26 3d 6a 
   11d4f:	c7 85 dc f9 ff ff 01 	movl   $0x1,-0x624(%rbp)
   11d56:	00 00 00 
   11d59:	c7 85 e0 f9 ff ff ff 	movl   $0xf569c0ff,-0x620(%rbp)
   11d60:	c0 69 f5 
   11d63:	c7 85 e4 f9 ff ff ff 	movl   $0xffffffff,-0x61c(%rbp)
   11d6a:	ff ff ff 
   11d6d:	c7 85 e8 f9 ff ff b2 	movl   $0x73db8fb2,-0x618(%rbp)
   11d74:	8f db 73 
   11d77:	c7 85 ec f9 ff ff fe 	movl   $0xfffffffe,-0x614(%rbp)
   11d7e:	ff ff ff 
   11d81:	c7 85 f0 f9 ff ff 16 	movl   $0xb05e1e16,-0x610(%rbp)
   11d88:	1e 5e b0 
   11d8b:	c7 85 f4 f9 ff ff 23 	movl   $0x96413723,-0x60c(%rbp)
   11d92:	37 41 96 
   11d95:	c7 85 f8 f9 ff ff 08 	movl   $0x8,-0x608(%rbp)
   11d9c:	00 00 00 
   11d9f:	c7 85 fc f9 ff ff f0 	movl   $0xd77ae1f0,-0x604(%rbp)
   11da6:	e1 7a d7 
   11da9:	c7 85 00 fa ff ff a5 	movl   $0x8a5e5ba5,-0x600(%rbp)
   11db0:	5b 5e 8a 
   11db3:	c7 85 04 fa ff ff fe 	movl   $0xfffffffe,-0x5fc(%rbp)
   11dba:	ff ff ff 
   11dbd:	c7 85 08 fa ff ff 23 	movl   $0x4a1223,-0x5f8(%rbp)
   11dc4:	12 4a 00 
   11dc7:	c7 85 0c fa ff ff f9 	movl   $0x9c388bf9,-0x5f4(%rbp)
   11dce:	8b 38 9c 
   11dd1:	c7 85 10 fa ff ff 19 	movl   $0x663b4d19,-0x5f0(%rbp)
   11dd8:	4d 3b 66 
   11ddb:	48 c7 85 40 fa ff ff 	movq   $0x0,-0x5c0(%rbp)
   11de2:	00 00 00 00 
   11de6:	48 8d 85 40 fa ff ff 	lea    -0x5c0(%rbp),%rax
   11ded:	48 89 85 80 fb ff ff 	mov    %rax,-0x480(%rbp)
   11df4:	48 c7 85 88 fb ff ff 	movq   $0x0,-0x478(%rbp)
   11dfb:	00 00 00 00 
   11dff:	48 8d 85 40 fa ff ff 	lea    -0x5c0(%rbp),%rax
   11e06:	48 89 85 90 fb ff ff 	mov    %rax,-0x470(%rbp)
   11e0d:	48 8d 85 40 fa ff ff 	lea    -0x5c0(%rbp),%rax
   11e14:	48 89 85 98 fb ff ff 	mov    %rax,-0x468(%rbp)
   11e1b:	48 c7 85 a0 fb ff ff 	movq   $0x0,-0x460(%rbp)
   11e22:	00 00 00 00 
   11e26:	48 8d 85 40 fa ff ff 	lea    -0x5c0(%rbp),%rax
   11e2d:	48 89 85 a8 fb ff ff 	mov    %rax,-0x458(%rbp)
   11e34:	48 8d 85 40 fa ff ff 	lea    -0x5c0(%rbp),%rax
   11e3b:	48 89 85 b0 fb ff ff 	mov    %rax,-0x450(%rbp)
   11e42:	48 c7 85 b8 fb ff ff 	movq   $0x0,-0x448(%rbp)
   11e49:	00 00 00 00 
   11e4d:	48 8d 85 40 fa ff ff 	lea    -0x5c0(%rbp),%rax
   11e54:	48 89 85 c0 fb ff ff 	mov    %rax,-0x440(%rbp)
   11e5b:	48 8d 85 80 fb ff ff 	lea    -0x480(%rbp),%rax
   11e62:	48 83 c0 40          	add    $0x40,%rax
   11e66:	48 89 85 48 fa ff ff 	mov    %rax,-0x5b8(%rbp)
   11e6d:	48 8d 85 48 fa ff ff 	lea    -0x5b8(%rbp),%rax
   11e74:	48 89 85 b0 fa ff ff 	mov    %rax,-0x550(%rbp)
   11e7b:	c7 85 14 fa ff ff 00 	movl   $0x0,-0x5ec(%rbp)
   11e82:	00 00 00 
   11e85:	c7 45 b9 e5 e5 e5 e5 	movl   $0xe5e5e5e5,-0x47(%rbp)
   11e8c:	66 c7 45 bd e5 e5    	movw   $0xe5e5,-0x43(%rbp)
   11e92:	c7 85 94 f9 ff ff 00 	movl   $0x0,-0x66c(%rbp)
   11e99:	00 00 00 
   11e9c:	eb 4d                	jmp    11eeb <func_1+0x736>
   11e9e:	c7 85 98 f9 ff ff 00 	movl   $0x0,-0x668(%rbp)
   11ea5:	00 00 00 
   11ea8:	eb 31                	jmp    11edb <func_1+0x726>
   11eaa:	8b 85 98 f9 ff ff    	mov    -0x668(%rbp),%eax
   11eb0:	48 63 c8             	movslq %eax,%rcx
   11eb3:	8b 85 94 f9 ff ff    	mov    -0x66c(%rbp),%eax
   11eb9:	48 63 d0             	movslq %eax,%rdx
   11ebc:	48 89 d0             	mov    %rdx,%rax
   11ebf:	48 c1 e0 02          	shl    $0x2,%rax
   11ec3:	48 01 d0             	add    %rdx,%rax
   11ec6:	48 01 c8             	add    %rcx,%rax
   11ec9:	c7 84 85 10 fb ff ff 	movl   $0x32f401d6,-0x4f0(%rbp,%rax,4)
   11ed0:	d6 01 f4 32 
   11ed4:	83 85 98 f9 ff ff 01 	addl   $0x1,-0x668(%rbp)
   11edb:	83 bd 98 f9 ff ff 04 	cmpl   $0x4,-0x668(%rbp)
   11ee2:	7e c6                	jle    11eaa <func_1+0x6f5>
   11ee4:	83 85 94 f9 ff ff 01 	addl   $0x1,-0x66c(%rbp)
   11eeb:	83 bd 94 f9 ff ff 00 	cmpl   $0x0,-0x66c(%rbp)
   11ef2:	7e aa                	jle    11e9e <func_1+0x6e9>
   11ef4:	c6 05 35 5b 01 00 03 	movb   $0x3,0x15b35(%rip)        # 27a30 <g_2879>
   11efb:	e9 7c 02 00 00       	jmpq   1217c <func_1+0x9c7>
   11f00:	c7 85 18 fa ff ff 12 	movl   $0x9ff55812,-0x5e8(%rbp)
   11f07:	58 f5 9f 
   11f0a:	c7 85 50 fb ff ff e3 	movl   $0x72d773e3,-0x4b0(%rbp)
   11f11:	73 d7 72 
   11f14:	c7 85 54 fb ff ff 03 	movl   $0x3,-0x4ac(%rbp)
   11f1b:	00 00 00 
   11f1e:	c7 85 58 fb ff ff e3 	movl   $0x72d773e3,-0x4a8(%rbp)
   11f25:	73 d7 72 
   11f28:	c7 85 5c fb ff ff 03 	movl   $0x3,-0x4a4(%rbp)
   11f2f:	00 00 00 
   11f32:	c7 85 60 fb ff ff e3 	movl   $0x72d773e3,-0x4a0(%rbp)
   11f39:	73 d7 72 
   11f3c:	c7 85 64 fb ff ff 03 	movl   $0x3,-0x49c(%rbp)
   11f43:	00 00 00 
   11f46:	c7 85 68 fb ff ff e3 	movl   $0x72d773e3,-0x498(%rbp)
   11f4d:	73 d7 72 
   11f50:	c7 85 6c fb ff ff 03 	movl   $0x3,-0x494(%rbp)
   11f57:	00 00 00 
   11f5a:	c7 85 70 fb ff ff e3 	movl   $0x72d773e3,-0x490(%rbp)
   11f61:	73 d7 72 
   11f64:	c7 85 74 fb ff ff 03 	movl   $0x3,-0x48c(%rbp)
   11f6b:	00 00 00 
   11f6e:	48 8d 05 d7 55 01 00 	lea    0x155d7(%rip),%rax        # 2754c <g_1253+0xc>
   11f75:	48 89 85 50 fa ff ff 	mov    %rax,-0x5b0(%rbp)
   11f7c:	48 8d 85 e0 fa ff ff 	lea    -0x520(%rbp),%rax
   11f83:	48 83 c0 08          	add    $0x8,%rax
   11f87:	48 89 85 58 fa ff ff 	mov    %rax,-0x5a8(%rbp)
   11f8e:	48 8d 85 58 fa ff ff 	lea    -0x5a8(%rbp),%rax
   11f95:	48 89 85 b8 fa ff ff 	mov    %rax,-0x548(%rbp)
   11f9c:	48 8d 05 65 4c 01 00 	lea    0x14c65(%rip),%rax        # 26c08 <g_384>
   11fa3:	48 89 85 60 fa ff ff 	mov    %rax,-0x5a0(%rbp)
   11faa:	48 8d 85 60 fa ff ff 	lea    -0x5a0(%rbp),%rax
   11fb1:	48 89 85 c0 fa ff ff 	mov    %rax,-0x540(%rbp)
   11fb8:	48 8d 85 38 fa ff ff 	lea    -0x5c8(%rbp),%rax
   11fbf:	48 89 85 d0 fb ff ff 	mov    %rax,-0x430(%rbp)
   11fc6:	48 8d 85 38 fa ff ff 	lea    -0x5c8(%rbp),%rax
   11fcd:	48 89 85 d8 fb ff ff 	mov    %rax,-0x428(%rbp)
   11fd4:	48 8d 85 38 fa ff ff 	lea    -0x5c8(%rbp),%rax
   11fdb:	48 89 85 e0 fb ff ff 	mov    %rax,-0x420(%rbp)
   11fe2:	48 8d 85 38 fa ff ff 	lea    -0x5c8(%rbp),%rax
   11fe9:	48 89 85 e8 fb ff ff 	mov    %rax,-0x418(%rbp)
   11ff0:	48 8d 85 38 fa ff ff 	lea    -0x5c8(%rbp),%rax
   11ff7:	48 89 85 f0 fb ff ff 	mov    %rax,-0x410(%rbp)
   11ffe:	48 8d 85 38 fa ff ff 	lea    -0x5c8(%rbp),%rax
   12005:	48 89 85 f8 fb ff ff 	mov    %rax,-0x408(%rbp)
   1200c:	48 8d 85 38 fa ff ff 	lea    -0x5c8(%rbp),%rax
   12013:	48 89 85 00 fc ff ff 	mov    %rax,-0x400(%rbp)
   1201a:	48 8d 85 38 fa ff ff 	lea    -0x5c8(%rbp),%rax
   12021:	48 89 85 08 fc ff ff 	mov    %rax,-0x3f8(%rbp)
   12028:	48 8d 85 38 fa ff ff 	lea    -0x5c8(%rbp),%rax
   1202f:	48 89 85 10 fc ff ff 	mov    %rax,-0x3f0(%rbp)
   12036:	48 8d 85 38 fa ff ff 	lea    -0x5c8(%rbp),%rax
   1203d:	48 89 85 18 fc ff ff 	mov    %rax,-0x3e8(%rbp)
   12044:	66 c7 85 f0 fa ff ff 	movw   $0xda7b,-0x510(%rbp)
   1204b:	7b da 
   1204d:	66 c7 85 f2 fa ff ff 	movw   $0xda7b,-0x50e(%rbp)
   12054:	7b da 
   12056:	66 c7 85 f4 fa ff ff 	movw   $0xda7b,-0x50c(%rbp)
   1205d:	7b da 
   1205f:	66 c7 85 f6 fa ff ff 	movw   $0xda7b,-0x50a(%rbp)
   12066:	7b da 
   12068:	66 c7 85 f8 fa ff ff 	movw   $0xda7b,-0x508(%rbp)
   1206f:	7b da 
   12071:	66 c7 85 fa fa ff ff 	movw   $0xda7b,-0x506(%rbp)
   12078:	7b da 
   1207a:	66 c7 85 fc fa ff ff 	movw   $0xda7b,-0x504(%rbp)
   12081:	7b da 
   12083:	66 c7 85 fe fa ff ff 	movw   $0xda7b,-0x502(%rbp)
   1208a:	7b da 
   1208c:	66 c7 85 00 fb ff ff 	movw   $0xda7b,-0x500(%rbp)
   12093:	7b da 
   12095:	48 8d 05 54 ac 01 00 	lea    0x1ac54(%rip),%rax        # 2ccf0 <g_2490>
   1209c:	48 89 85 c8 fa ff ff 	mov    %rax,-0x538(%rbp)
   120a3:	c7 85 1c fa ff ff 7b 	movl   $0xdccb4f7b,-0x5e4(%rbp)
   120aa:	4f cb dc 
   120ad:	c6 85 89 f9 ff ff ff 	movb   $0xff,-0x677(%rbp)
   120b4:	c7 85 20 fa ff ff 00 	movl   $0x0,-0x5e0(%rbp)
   120bb:	00 00 00 
   120be:	66 c7 85 8e f9 ff ff 	movw   $0x7274,-0x672(%rbp)
   120c5:	74 72 
   120c7:	48 8d 05 c2 58 01 00 	lea    0x158c2(%rip),%rax        # 27990 <g_1605>
   120ce:	48 89 85 d0 fa ff ff 	mov    %rax,-0x530(%rbp)
   120d5:	c7 85 24 fa ff ff 84 	movl   $0x10966b84,-0x5dc(%rbp)
   120dc:	6b 96 10 
   120df:	c7 85 9c f9 ff ff 00 	movl   $0x0,-0x664(%rbp)
   120e6:	00 00 00 
   120e9:	eb 1a                	jmp    12105 <func_1+0x950>
   120eb:	8b 85 9c f9 ff ff    	mov    -0x664(%rbp),%eax
   120f1:	48 98                	cltq   
   120f3:	c7 84 85 d8 fa ff ff 	movl   $0x60f90814,-0x528(%rbp,%rax,4)
   120fa:	14 08 f9 60 
   120fe:	83 85 9c f9 ff ff 01 	addl   $0x1,-0x664(%rbp)
   12105:	83 bd 9c f9 ff ff 01 	cmpl   $0x1,-0x664(%rbp)
   1210c:	7e dd                	jle    120eb <func_1+0x936>
   1210e:	c7 85 9c f9 ff ff 00 	movl   $0x0,-0x664(%rbp)
   12115:	00 00 00 
   12118:	eb 49                	jmp    12163 <func_1+0x9ae>
   1211a:	c7 85 a0 f9 ff ff 00 	movl   $0x0,-0x660(%rbp)
   12121:	00 00 00 
   12124:	eb 2d                	jmp    12153 <func_1+0x99e>
   12126:	8b 85 a0 f9 ff ff    	mov    -0x660(%rbp),%eax
   1212c:	48 98                	cltq   
   1212e:	8b 95 9c f9 ff ff    	mov    -0x664(%rbp),%edx
   12134:	48 63 d2             	movslq %edx,%rdx
   12137:	48 01 d2             	add    %rdx,%rdx
   1213a:	48 01 c2             	add    %rax,%rdx
   1213d:	48 8d 85 50 fa ff ff 	lea    -0x5b0(%rbp),%rax
   12144:	48 89 84 d5 e0 fa ff 	mov    %rax,-0x520(%rbp,%rdx,8)
   1214b:	ff 
   1214c:	83 85 a0 f9 ff ff 01 	addl   $0x1,-0x660(%rbp)
   12153:	83 bd a0 f9 ff ff 01 	cmpl   $0x1,-0x660(%rbp)
   1215a:	7e ca                	jle    12126 <func_1+0x971>
   1215c:	83 85 9c f9 ff ff 01 	addl   $0x1,-0x664(%rbp)
   12163:	83 bd 9c f9 ff ff 00 	cmpl   $0x0,-0x664(%rbp)
   1216a:	7e ae                	jle    1211a <func_1+0x965>
   1216c:	0f b6 05 bd 58 01 00 	movzbl 0x158bd(%rip),%eax        # 27a30 <g_2879>
   12173:	83 e8 01             	sub    $0x1,%eax
   12176:	88 05 b4 58 01 00    	mov    %al,0x158b4(%rip)        # 27a30 <g_2879>
   1217c:	0f b6 05 ad 58 01 00 	movzbl 0x158ad(%rip),%eax        # 27a30 <g_2879>
   12183:	84 c0                	test   %al,%al
   12185:	0f 89 75 fd ff ff    	jns    11f00 <func_1+0x74b>
   1218b:	8b 05 cf 3e 01 00    	mov    0x13ecf(%rip),%eax        # 26060 <g_121>
   12191:	be 04 00 00 00       	mov    $0x4,%esi
   12196:	89 c7                	mov    %eax,%edi
   12198:	e8 1b ed ff ff       	callq  10eb8 <safe_add_func_uint32_t_u_u>
   1219d:	89 05 bd 3e 01 00    	mov    %eax,0x13ebd(%rip)        # 26060 <g_121>
   121a3:	8b 05 b7 3e 01 00    	mov    0x13eb7(%rip),%eax        # 26060 <g_121>
   121a9:	83 f8 3b             	cmp    $0x3b,%eax
   121ac:	0f 84 8f fa ff ff    	je     11c41 <func_1+0x48c>
   121b2:	48 8b 05 c7 57 01 00 	mov    0x157c7(%rip),%rax        # 27980 <g_1453+0x40>
   121b9:	48 8b 5d c8          	mov    -0x38(%rbp),%rbx
   121bd:	64 48 33 1c 25 28 00 	xor    %fs:0x28,%rbx
   121c4:	00 00 
   121c6:	74 05                	je     121cd <func_1+0xa18>
   121c8:	e8 a3 de ff ff       	callq  10070 <__stack_chk_fail@plt>
   121cd:	48 81 c4 68 06 00 00 	add    $0x668,%rsp
   121d4:	5b                   	pop    %rbx
   121d5:	41 5c                	pop    %r12
   121d7:	41 5d                	pop    %r13
   121d9:	41 5e                	pop    %r14
   121db:	41 5f                	pop    %r15
   121dd:	5d                   	pop    %rbp
   121de:	c3                   	retq   

00000000000121df <func_6>:
   121df:	f3 0f 1e fa          	endbr64 
   121e3:	55                   	push   %rbp
   121e4:	48 89 e5             	mov    %rsp,%rbp
   121e7:	41 57                	push   %r15
   121e9:	41 56                	push   %r14
   121eb:	41 55                	push   %r13
   121ed:	41 54                	push   %r12
   121ef:	53                   	push   %rbx
   121f0:	48 81 ec 00 10 00 00 	sub    $0x1000,%rsp
   121f7:	48 83 0c 24 00       	orq    $0x0,(%rsp)
   121fc:	48 81 ec f8 07 00 00 	sub    $0x7f8,%rsp
   12203:	89 bd fc e7 ff ff    	mov    %edi,-0x1804(%rbp)
   12209:	89 95 f4 e7 ff ff    	mov    %edx,-0x180c(%rbp)
   1220f:	89 c8                	mov    %ecx,%eax
   12211:	4c 89 85 e8 e7 ff ff 	mov    %r8,-0x1818(%rbp)
   12218:	89 f2                	mov    %esi,%edx
   1221a:	88 95 f8 e7 ff ff    	mov    %dl,-0x1808(%rbp)
   12220:	66 89 85 f0 e7 ff ff 	mov    %ax,-0x1810(%rbp)
   12227:	64 48 8b 04 25 28 00 	mov    %fs:0x28,%rax
   1222e:	00 00 
   12230:	48 89 45 c8          	mov    %rax,-0x38(%rbp)
   12234:	31 c0                	xor    %eax,%eax
   12236:	66 c7 85 16 e8 ff ff 	movw   $0x9,-0x17ea(%rbp)
   1223d:	09 00 
   1223f:	48 8d 05 42 97 01 00 	lea    0x19742(%rip),%rax        # 2b988 <g_835>
   12246:	48 89 85 c0 ea ff ff 	mov    %rax,-0x1540(%rbp)
   1224d:	48 8d 05 34 97 01 00 	lea    0x19734(%rip),%rax        # 2b988 <g_835>
   12254:	48 89 85 c8 ea ff ff 	mov    %rax,-0x1538(%rbp)
   1225b:	48 8d 05 26 97 01 00 	lea    0x19726(%rip),%rax        # 2b988 <g_835>
   12262:	48 89 85 d0 ea ff ff 	mov    %rax,-0x1530(%rbp)
   12269:	48 8d 05 18 97 01 00 	lea    0x19718(%rip),%rax        # 2b988 <g_835>
   12270:	48 89 85 d8 ea ff ff 	mov    %rax,-0x1528(%rbp)
   12277:	48 8d 05 0a 97 01 00 	lea    0x1970a(%rip),%rax        # 2b988 <g_835>
   1227e:	48 89 85 30 eb ff ff 	mov    %rax,-0x14d0(%rbp)
   12285:	48 8d 05 fc 96 01 00 	lea    0x196fc(%rip),%rax        # 2b988 <g_835>
   1228c:	48 89 85 38 eb ff ff 	mov    %rax,-0x14c8(%rbp)
   12293:	48 8d 05 ee 96 01 00 	lea    0x196ee(%rip),%rax        # 2b988 <g_835>
   1229a:	48 89 85 40 eb ff ff 	mov    %rax,-0x14c0(%rbp)
   122a1:	48 8d 05 e0 96 01 00 	lea    0x196e0(%rip),%rax        # 2b988 <g_835>
   122a8:	48 89 85 48 eb ff ff 	mov    %rax,-0x14b8(%rbp)
   122af:	48 8d 05 d2 96 01 00 	lea    0x196d2(%rip),%rax        # 2b988 <g_835>
   122b6:	48 89 85 50 eb ff ff 	mov    %rax,-0x14b0(%rbp)
   122bd:	48 8d 05 c4 96 01 00 	lea    0x196c4(%rip),%rax        # 2b988 <g_835>
   122c4:	48 89 85 58 eb ff ff 	mov    %rax,-0x14a8(%rbp)
   122cb:	48 8d 05 b6 96 01 00 	lea    0x196b6(%rip),%rax        # 2b988 <g_835>
   122d2:	48 89 85 60 eb ff ff 	mov    %rax,-0x14a0(%rbp)
   122d9:	48 8d 05 a8 96 01 00 	lea    0x196a8(%rip),%rax        # 2b988 <g_835>
   122e0:	48 89 85 68 eb ff ff 	mov    %rax,-0x1498(%rbp)
   122e7:	48 8d 05 9a 96 01 00 	lea    0x1969a(%rip),%rax        # 2b988 <g_835>
   122ee:	48 89 85 70 eb ff ff 	mov    %rax,-0x1490(%rbp)
   122f5:	48 8d 05 8c 96 01 00 	lea    0x1968c(%rip),%rax        # 2b988 <g_835>
   122fc:	48 89 85 78 eb ff ff 	mov    %rax,-0x1488(%rbp)
   12303:	48 8d 05 7e 96 01 00 	lea    0x1967e(%rip),%rax        # 2b988 <g_835>
   1230a:	48 89 85 80 eb ff ff 	mov    %rax,-0x1480(%rbp)
   12311:	48 8d 05 70 96 01 00 	lea    0x19670(%rip),%rax        # 2b988 <g_835>
   12318:	48 89 85 88 eb ff ff 	mov    %rax,-0x1478(%rbp)
   1231f:	48 8d 05 62 96 01 00 	lea    0x19662(%rip),%rax        # 2b988 <g_835>
   12326:	48 89 85 90 eb ff ff 	mov    %rax,-0x1470(%rbp)
   1232d:	48 8d 05 54 96 01 00 	lea    0x19654(%rip),%rax        # 2b988 <g_835>
   12334:	48 89 85 98 eb ff ff 	mov    %rax,-0x1468(%rbp)
   1233b:	48 8d 05 46 96 01 00 	lea    0x19646(%rip),%rax        # 2b988 <g_835>
   12342:	48 89 85 a0 eb ff ff 	mov    %rax,-0x1460(%rbp)
   12349:	48 b8 3c c6 37 06 ca 	movabs $0x274f54ca0637c63c,%rax
   12350:	54 4f 27 
   12353:	48 89 85 b8 e8 ff ff 	mov    %rax,-0x1748(%rbp)
   1235a:	48 8d 05 37 97 01 00 	lea    0x19737(%rip),%rax        # 2ba98 <g_1122>
   12361:	48 89 85 c0 e8 ff ff 	mov    %rax,-0x1740(%rbp)
   12368:	c6 85 0d e8 ff ff 00 	movb   $0x0,-0x17f3(%rbp)
   1236f:	48 8d 05 4a 97 01 00 	lea    0x1974a(%rip),%rax        # 2bac0 <g_1322>
   12376:	48 89 85 18 e9 ff ff 	mov    %rax,-0x16e8(%rbp)
   1237d:	c7 85 1c e8 ff ff c7 	movl   $0x3b1e61c7,-0x17e4(%rbp)
   12384:	61 1e 3b 
   12387:	48 8d 05 aa 8f 01 00 	lea    0x18faa(%rip),%rax        # 2b338 <g_380>
   1238e:	48 89 85 c8 e8 ff ff 	mov    %rax,-0x1738(%rbp)
   12395:	66 c7 85 14 e8 ff ff 	movw   $0xfffe,-0x17ec(%rbp)
   1239c:	fe ff 
   1239e:	c7 85 c0 ec ff ff 2e 	movl   $0x1ea2c42e,-0x1340(%rbp)
   123a5:	c4 a2 1e 
   123a8:	c7 85 c4 ec ff ff 74 	movl   $0x1c5fbb74,-0x133c(%rbp)
   123af:	bb 5f 1c 
   123b2:	c7 85 c8 ec ff ff 2e 	movl   $0x1ea2c42e,-0x1338(%rbp)
   123b9:	c4 a2 1e 
   123bc:	c7 85 cc ec ff ff 74 	movl   $0x1c5fbb74,-0x1334(%rbp)
   123c3:	bb 5f 1c 
   123c6:	c7 85 d0 ec ff ff 2e 	movl   $0x1ea2c42e,-0x1330(%rbp)
   123cd:	c4 a2 1e 
   123d0:	c7 85 d4 ec ff ff 74 	movl   $0x1c5fbb74,-0x132c(%rbp)
   123d7:	bb 5f 1c 
   123da:	c7 85 d8 ec ff ff 3a 	movl   $0x1a554e3a,-0x1328(%rbp)
   123e1:	4e 55 1a 
   123e4:	c7 85 dc ec ff ff 74 	movl   $0x1c5fbb74,-0x1324(%rbp)
   123eb:	bb 5f 1c 
   123ee:	c7 85 e0 ec ff ff 3a 	movl   $0x1a554e3a,-0x1320(%rbp)
   123f5:	4e 55 1a 
   123f8:	c7 85 e4 ec ff ff 74 	movl   $0x1c5fbb74,-0x131c(%rbp)
   123ff:	bb 5f 1c 
   12402:	c7 85 e8 ec ff ff 3a 	movl   $0x1a554e3a,-0x1318(%rbp)
   12409:	4e 55 1a 
   1240c:	c7 85 ec ec ff ff 74 	movl   $0x1c5fbb74,-0x1314(%rbp)
   12413:	bb 5f 1c 
   12416:	c7 85 f0 ec ff ff 2e 	movl   $0x1ea2c42e,-0x1310(%rbp)
   1241d:	c4 a2 1e 
   12420:	c7 85 f4 ec ff ff 74 	movl   $0x1c5fbb74,-0x130c(%rbp)
   12427:	bb 5f 1c 
   1242a:	c7 85 f8 ec ff ff 2e 	movl   $0x1ea2c42e,-0x1308(%rbp)
   12431:	c4 a2 1e 
   12434:	c7 85 fc ec ff ff 74 	movl   $0x1c5fbb74,-0x1304(%rbp)
   1243b:	bb 5f 1c 
   1243e:	c7 85 00 ed ff ff 2e 	movl   $0x1ea2c42e,-0x1300(%rbp)
   12445:	c4 a2 1e 
   12448:	c7 85 04 ed ff ff 74 	movl   $0x1c5fbb74,-0x12fc(%rbp)
   1244f:	bb 5f 1c 
   12452:	c7 85 08 ed ff ff 3a 	movl   $0x1a554e3a,-0x12f8(%rbp)
   12459:	4e 55 1a 
   1245c:	c7 85 0c ed ff ff 74 	movl   $0x1c5fbb74,-0x12f4(%rbp)
   12463:	bb 5f 1c 
   12466:	c7 85 10 ed ff ff 3a 	movl   $0x1a554e3a,-0x12f0(%rbp)
   1246d:	4e 55 1a 
   12470:	c7 85 14 ed ff ff 74 	movl   $0x1c5fbb74,-0x12ec(%rbp)
   12477:	bb 5f 1c 
   1247a:	c7 85 18 ed ff ff 3a 	movl   $0x1a554e3a,-0x12e8(%rbp)
   12481:	4e 55 1a 
   12484:	c7 85 1c ed ff ff 74 	movl   $0x1c5fbb74,-0x12e4(%rbp)
   1248b:	bb 5f 1c 
   1248e:	c7 85 20 ed ff ff 2e 	movl   $0x1ea2c42e,-0x12e0(%rbp)
   12495:	c4 a2 1e 
   12498:	c7 85 24 ed ff ff 74 	movl   $0x1c5fbb74,-0x12dc(%rbp)
   1249f:	bb 5f 1c 
   124a2:	c7 85 28 ed ff ff 2e 	movl   $0x1ea2c42e,-0x12d8(%rbp)
   124a9:	c4 a2 1e 
   124ac:	c7 85 2c ed ff ff 74 	movl   $0x1c5fbb74,-0x12d4(%rbp)
   124b3:	bb 5f 1c 
   124b6:	c7 85 30 ed ff ff 2e 	movl   $0x1ea2c42e,-0x12d0(%rbp)
   124bd:	c4 a2 1e 
   124c0:	c7 85 34 ed ff ff 74 	movl   $0x1c5fbb74,-0x12cc(%rbp)
   124c7:	bb 5f 1c 
   124ca:	c7 85 38 ed ff ff 3a 	movl   $0x1a554e3a,-0x12c8(%rbp)
   124d1:	4e 55 1a 
   124d4:	c7 85 3c ed ff ff 74 	movl   $0x1c5fbb74,-0x12c4(%rbp)
   124db:	bb 5f 1c 
   124de:	c7 85 40 ed ff ff 3a 	movl   $0x1a554e3a,-0x12c0(%rbp)
   124e5:	4e 55 1a 
   124e8:	c7 85 44 ed ff ff 74 	movl   $0x1c5fbb74,-0x12bc(%rbp)
   124ef:	bb 5f 1c 
   124f2:	c7 85 48 ed ff ff 3a 	movl   $0x1a554e3a,-0x12b8(%rbp)
   124f9:	4e 55 1a 
   124fc:	c7 85 4c ed ff ff 74 	movl   $0x1c5fbb74,-0x12b4(%rbp)
   12503:	bb 5f 1c 
   12506:	c7 85 50 ed ff ff 2e 	movl   $0x1ea2c42e,-0x12b0(%rbp)
   1250d:	c4 a2 1e 
   12510:	c7 85 54 ed ff ff 74 	movl   $0x1c5fbb74,-0x12ac(%rbp)
   12517:	bb 5f 1c 
   1251a:	c7 85 58 ed ff ff 2e 	movl   $0x1ea2c42e,-0x12a8(%rbp)
   12521:	c4 a2 1e 
   12524:	c7 85 5c ed ff ff 74 	movl   $0x1c5fbb74,-0x12a4(%rbp)
   1252b:	bb 5f 1c 
   1252e:	c7 85 60 ed ff ff 2e 	movl   $0x1ea2c42e,-0x12a0(%rbp)
   12535:	c4 a2 1e 
   12538:	c7 85 64 ed ff ff 74 	movl   $0x1c5fbb74,-0x129c(%rbp)
   1253f:	bb 5f 1c 
   12542:	66 c7 85 18 e8 ff ff 	movw   $0xffff,-0x17e8(%rbp)
   12549:	ff ff 
   1254b:	c6 85 0f e8 ff ff 00 	movb   $0x0,-0x17f1(%rbp)
   12552:	c6 85 0c e8 ff ff ff 	movb   $0xff,-0x17f4(%rbp)
   12559:	48 c7 85 28 e9 ff ff 	movq   $0x0,-0x16d8(%rbp)
   12560:	00 00 00 00 
   12564:	c7 85 20 e8 ff ff 79 	movl   $0x9dbdc479,-0x17e0(%rbp)
   1256b:	c4 bd 9d 
   1256e:	48 b8 5d 85 94 25 39 	movabs $0xefb05c392594855d,%rax
   12575:	5c b0 ef 
   12578:	48 89 85 20 e9 ff ff 	mov    %rax,-0x16e0(%rbp)
   1257f:	48 8d 05 72 94 01 00 	lea    0x19472(%rip),%rax        # 2b9f8 <g_908>
   12586:	48 89 85 d0 e8 ff ff 	mov    %rax,-0x1730(%rbp)
   1258d:	48 8d 85 d0 e8 ff ff 	lea    -0x1730(%rbp),%rax
   12594:	48 89 85 30 e9 ff ff 	mov    %rax,-0x16d0(%rbp)
   1259b:	c7 85 24 e8 ff ff ff 	movl   $0xffffffff,-0x17dc(%rbp)
   125a2:	ff ff ff 
   125a5:	48 c7 85 38 e9 ff ff 	movq   $0x0,-0x16c8(%rbp)
   125ac:	00 00 00 00 
   125b0:	c6 85 10 e8 ff ff c0 	movb   $0xc0,-0x17f0(%rbp)
   125b7:	c7 85 5c e8 ff ff f1 	movl   $0xd11998f1,-0x17a4(%rbp)
   125be:	98 19 d1 
   125c1:	48 8d 05 c8 94 01 00 	lea    0x194c8(%rip),%rax        # 2ba90 <g_969>
   125c8:	48 89 85 40 e9 ff ff 	mov    %rax,-0x16c0(%rbp)
   125cf:	48 8d 85 14 e8 ff ff 	lea    -0x17ec(%rbp),%rax
   125d6:	48 89 85 d8 e8 ff ff 	mov    %rax,-0x1728(%rbp)
   125dd:	48 8d 85 d8 e8 ff ff 	lea    -0x1728(%rbp),%rax
   125e4:	48 89 85 e0 e8 ff ff 	mov    %rax,-0x1720(%rbp)
   125eb:	48 8d 85 e0 e8 ff ff 	lea    -0x1720(%rbp),%rax
   125f2:	48 89 85 48 e9 ff ff 	mov    %rax,-0x16b8(%rbp)
   125f9:	48 8d 85 f0 f7 ff ff 	lea    -0x810(%rbp),%rax
   12600:	48 8d 15 39 66 01 00 	lea    0x16639(%rip),%rdx        # 28c40 <g_4305+0x218>
   12607:	b9 fa 00 00 00       	mov    $0xfa,%ecx
   1260c:	48 89 c7             	mov    %rax,%rdi
   1260f:	48 89 d6             	mov    %rdx,%rsi
   12612:	f3 48 a5             	rep movsq %ds:(%rsi),%es:(%rdi)
   12615:	48 8d 85 f0 f7 ff ff 	lea    -0x810(%rbp),%rax
   1261c:	48 05 08 02 00 00    	add    $0x208,%rax
   12622:	48 89 85 50 e9 ff ff 	mov    %rax,-0x16b0(%rbp)
   12629:	48 8d 05 b0 a6 01 00 	lea    0x1a6b0(%rip),%rax        # 2cce0 <g_2258>
   12630:	48 89 85 e8 e8 ff ff 	mov    %rax,-0x1718(%rbp)
   12637:	48 8d 85 e8 e8 ff ff 	lea    -0x1718(%rbp),%rax
   1263e:	48 89 85 58 e9 ff ff 	mov    %rax,-0x16a8(%rbp)
   12645:	48 8d 05 80 46 01 00 	lea    0x14680(%rip),%rax        # 26ccc <g_692>
   1264c:	48 89 85 60 e9 ff ff 	mov    %rax,-0x16a0(%rbp)
   12653:	c7 85 60 e8 ff ff 35 	movl   $0x7c2b6b35,-0x17a0(%rbp)
   1265a:	6b 2b 7c 
   1265d:	48 8d 05 0c 93 01 00 	lea    0x1930c(%rip),%rax        # 2b970 <g_738>
   12664:	48 89 85 68 e9 ff ff 	mov    %rax,-0x1698(%rbp)
   1266b:	c7 85 2c e8 ff ff 00 	movl   $0x0,-0x17d4(%rbp)
   12672:	00 00 00 
   12675:	eb 1b                	jmp    12692 <func_6+0x4b3>
   12677:	8b 85 2c e8 ff ff    	mov    -0x17d4(%rbp),%eax
   1267d:	48 98                	cltq   
   1267f:	48 c7 84 c5 a0 ea ff 	movq   $0x4,-0x1560(%rbp,%rax,8)
   12686:	ff 04 00 00 00 
   1268b:	83 85 2c e8 ff ff 01 	addl   $0x1,-0x17d4(%rbp)
   12692:	83 bd 2c e8 ff ff 01 	cmpl   $0x1,-0x17d4(%rbp)
   12699:	7e dc                	jle    12677 <func_6+0x498>
   1269b:	c7 85 2c e8 ff ff 00 	movl   $0x0,-0x17d4(%rbp)
   126a2:	00 00 00 
   126a5:	eb 1a                	jmp    126c1 <func_6+0x4e2>
   126a7:	8b 85 2c e8 ff ff    	mov    -0x17d4(%rbp),%eax
   126ad:	48 98                	cltq   
   126af:	c7 84 85 b0 ea ff ff 	movl   $0x9e2caaa,-0x1550(%rbp,%rax,4)
   126b6:	aa ca e2 09 
   126ba:	83 85 2c e8 ff ff 01 	addl   $0x1,-0x17d4(%rbp)
   126c1:	83 bd 2c e8 ff ff 03 	cmpl   $0x3,-0x17d4(%rbp)
   126c8:	7e dd                	jle    126a7 <func_6+0x4c8>
   126ca:	c6 05 1b 46 01 00 ef 	movb   $0xef,0x1461b(%rip)        # 26cec <g_874>
   126d1:	e9 a4 21 00 00       	jmpq   1487a <func_6+0x269b>
   126d6:	48 8d 05 1b 93 01 00 	lea    0x1931b(%rip),%rax        # 2b9f8 <g_908>
   126dd:	48 89 85 e0 ea ff ff 	mov    %rax,-0x1520(%rbp)
   126e4:	48 8d 05 0d 93 01 00 	lea    0x1930d(%rip),%rax        # 2b9f8 <g_908>
   126eb:	48 89 85 e8 ea ff ff 	mov    %rax,-0x1518(%rbp)
   126f2:	48 8d 05 ff 92 01 00 	lea    0x192ff(%rip),%rax        # 2b9f8 <g_908>
   126f9:	48 89 85 f0 ea ff ff 	mov    %rax,-0x1510(%rbp)
   12700:	48 8d 05 f1 92 01 00 	lea    0x192f1(%rip),%rax        # 2b9f8 <g_908>
   12707:	48 89 85 f8 ea ff ff 	mov    %rax,-0x1508(%rbp)
   1270e:	48 8d 85 e0 ea ff ff 	lea    -0x1520(%rbp),%rax
   12715:	48 89 85 30 ec ff ff 	mov    %rax,-0x13d0(%rbp)
   1271c:	48 8d 85 e0 ea ff ff 	lea    -0x1520(%rbp),%rax
   12723:	48 89 85 38 ec ff ff 	mov    %rax,-0x13c8(%rbp)
   1272a:	48 8d 85 e0 ea ff ff 	lea    -0x1520(%rbp),%rax
   12731:	48 89 85 40 ec ff ff 	mov    %rax,-0x13c0(%rbp)
   12738:	48 8d 85 e0 ea ff ff 	lea    -0x1520(%rbp),%rax
   1273f:	48 89 85 48 ec ff ff 	mov    %rax,-0x13b8(%rbp)
   12746:	48 8d 85 e0 ea ff ff 	lea    -0x1520(%rbp),%rax
   1274d:	48 89 85 50 ec ff ff 	mov    %rax,-0x13b0(%rbp)
   12754:	48 8d 85 e0 ea ff ff 	lea    -0x1520(%rbp),%rax
   1275b:	48 89 85 58 ec ff ff 	mov    %rax,-0x13a8(%rbp)
   12762:	48 8d 85 e0 ea ff ff 	lea    -0x1520(%rbp),%rax
   12769:	48 89 85 60 ec ff ff 	mov    %rax,-0x13a0(%rbp)
   12770:	48 8d 85 e0 ea ff ff 	lea    -0x1520(%rbp),%rax
   12777:	48 89 85 68 ec ff ff 	mov    %rax,-0x1398(%rbp)
   1277e:	48 8d 85 e0 ea ff ff 	lea    -0x1520(%rbp),%rax
   12785:	48 89 85 70 ec ff ff 	mov    %rax,-0x1390(%rbp)
   1278c:	48 8d 85 e0 ea ff ff 	lea    -0x1520(%rbp),%rax
   12793:	48 89 85 78 ec ff ff 	mov    %rax,-0x1388(%rbp)
   1279a:	48 8d 85 e0 ea ff ff 	lea    -0x1520(%rbp),%rax
   127a1:	48 89 85 80 ec ff ff 	mov    %rax,-0x1380(%rbp)
   127a8:	48 8d 85 e0 ea ff ff 	lea    -0x1520(%rbp),%rax
   127af:	48 89 85 88 ec ff ff 	mov    %rax,-0x1378(%rbp)
   127b6:	48 c7 85 90 ec ff ff 	movq   $0x0,-0x1370(%rbp)
   127bd:	00 00 00 00 
   127c1:	48 c7 85 98 ec ff ff 	movq   $0x0,-0x1368(%rbp)
   127c8:	00 00 00 00 
   127cc:	48 8d 85 e0 ea ff ff 	lea    -0x1520(%rbp),%rax
   127d3:	48 89 85 a0 ec ff ff 	mov    %rax,-0x1360(%rbp)
   127da:	48 8d 85 e0 ea ff ff 	lea    -0x1520(%rbp),%rax
   127e1:	48 89 85 a8 ec ff ff 	mov    %rax,-0x1358(%rbp)
   127e8:	48 8d 85 e0 ea ff ff 	lea    -0x1520(%rbp),%rax
   127ef:	48 89 85 b0 ec ff ff 	mov    %rax,-0x1350(%rbp)
   127f6:	48 c7 85 b8 ec ff ff 	movq   $0x0,-0x1348(%rbp)
   127fd:	00 00 00 00 
   12801:	48 8d 85 30 ec ff ff 	lea    -0x13d0(%rbp),%rax
   12808:	48 83 c0 78          	add    $0x78,%rax
   1280c:	48 89 85 70 e9 ff ff 	mov    %rax,-0x1690(%rbp)
   12813:	c7 85 28 e8 ff ff b7 	movl   $0xef02c9b7,-0x17d8(%rbp)
   1281a:	c9 02 ef 
   1281d:	48 c7 85 f0 e8 ff ff 	movq   $0x0,-0x1710(%rbp)
   12824:	00 00 00 00 
   12828:	48 8d 05 a9 91 01 00 	lea    0x191a9(%rip),%rax        # 2b9d8 <g_888+0x38>
   1282f:	48 89 85 78 e9 ff ff 	mov    %rax,-0x1688(%rbp)
   12836:	48 8d 85 b0 f2 ff ff 	lea    -0xd50(%rbp),%rax
   1283d:	48 8d 15 dc 6b 01 00 	lea    0x16bdc(%rip),%rdx        # 29420 <g_4305+0x9f8>
   12844:	b9 a8 00 00 00       	mov    $0xa8,%ecx
   12849:	48 89 c7             	mov    %rax,%rdi
   1284c:	48 89 d6             	mov    %rdx,%rsi
   1284f:	f3 48 a5             	rep movsq %ds:(%rsi),%es:(%rdi)
   12852:	48 8d 05 47 c9 01 00 	lea    0x1c947(%rip),%rax        # 2f1a0 <g_3754>
   12859:	48 89 85 80 e9 ff ff 	mov    %rax,-0x1680(%rbp)
   12860:	48 8d 05 39 50 01 00 	lea    0x15039(%rip),%rax        # 278a0 <g_1294+0x340>
   12867:	48 89 85 88 e9 ff ff 	mov    %rax,-0x1678(%rbp)
   1286e:	48 b8 6f 5a 78 3a 6d 	movabs $0xea24776d3a785a6f,%rax
   12875:	77 24 ea 
   12878:	48 89 85 f8 e8 ff ff 	mov    %rax,-0x1708(%rbp)
   1287f:	c6 85 0e e8 ff ff 01 	movb   $0x1,-0x17f2(%rbp)
   12886:	48 8d 05 03 92 01 00 	lea    0x19203(%rip),%rax        # 2ba90 <g_969>
   1288d:	48 89 85 90 e9 ff ff 	mov    %rax,-0x1670(%rbp)
   12894:	48 8d 05 85 ab 01 00 	lea    0x1ab85(%rip),%rax        # 2d420 <g_3942+0x260>
   1289b:	48 89 85 98 e9 ff ff 	mov    %rax,-0x1668(%rbp)
   128a2:	c7 85 30 e8 ff ff 00 	movl   $0x0,-0x17d0(%rbp)
   128a9:	00 00 00 
   128ac:	eb 1a                	jmp    128c8 <func_6+0x6e9>
   128ae:	8b 85 30 e8 ff ff    	mov    -0x17d0(%rbp),%eax
   128b4:	48 98                	cltq   
   128b6:	c7 84 85 94 ea ff ff 	movl   $0xb26280c3,-0x156c(%rbp,%rax,4)
   128bd:	c3 80 62 b2 
   128c1:	83 85 30 e8 ff ff 01 	addl   $0x1,-0x17d0(%rbp)
   128c8:	83 bd 30 e8 ff ff 02 	cmpl   $0x2,-0x17d0(%rbp)
   128cf:	7e dd                	jle    128ae <func_6+0x6cf>
   128d1:	c7 85 30 e8 ff ff 00 	movl   $0x0,-0x17d0(%rbp)
   128d8:	00 00 00 
   128db:	eb 1a                	jmp    128f7 <func_6+0x718>
   128dd:	8b 85 30 e8 ff ff    	mov    -0x17d0(%rbp),%eax
   128e3:	48 98                	cltq   
   128e5:	c7 84 85 88 ea ff ff 	movl   $0x0,-0x1578(%rbp,%rax,4)
   128ec:	00 00 00 00 
   128f0:	83 85 30 e8 ff ff 01 	addl   $0x1,-0x17d0(%rbp)
   128f7:	83 bd 30 e8 ff ff 00 	cmpl   $0x0,-0x17d0(%rbp)
   128fe:	7e dd                	jle    128dd <func_6+0x6fe>
   12900:	c6 05 b1 4b 01 00 13 	movb   $0x13,0x14bb1(%rip)        # 274b8 <g_885>
   12907:	eb 26                	jmp    1292f <func_6+0x750>
   12909:	c7 85 b4 e8 ff ff fc 	movl   $0xfffffffc,-0x174c(%rbp)
   12910:	ff ff ff 
   12913:	0f b6 05 9e 4b 01 00 	movzbl 0x14b9e(%rip),%eax        # 274b8 <g_885>
   1291a:	0f be c0             	movsbl %al,%eax
   1291d:	be 02 00 00 00       	mov    $0x2,%esi
   12922:	89 c7                	mov    %eax,%edi
   12924:	e8 8a da ff ff       	callq  103b3 <safe_add_func_int16_t_s_s>
   12929:	88 05 89 4b 01 00    	mov    %al,0x14b89(%rip)        # 274b8 <g_885>
   1292f:	0f b6 05 82 4b 01 00 	movzbl 0x14b82(%rip),%eax        # 274b8 <g_885>
   12936:	3c 12                	cmp    $0x12,%al
   12938:	7f cf                	jg     12909 <func_6+0x72a>
   1293a:	66 c7 85 f0 e7 ff ff 	movw   $0x0,-0x1810(%rbp)
   12941:	00 00 
   12943:	e9 7e 0c 00 00       	jmpq   135c6 <func_6+0x13e7>
   12948:	48 b8 14 93 72 66 4b 	movabs $0xebeede4b66729314,%rax
   1294f:	de ee eb 
   12952:	48 89 85 30 ea ff ff 	mov    %rax,-0x15d0(%rbp)
   12959:	48 8d 85 a0 ea ff ff 	lea    -0x1560(%rbp),%rax
   12960:	48 89 85 38 ea ff ff 	mov    %rax,-0x15c8(%rbp)
   12967:	c7 85 34 e8 ff ff 01 	movl   $0x1,-0x17cc(%rbp)
   1296e:	00 00 00 
   12971:	c7 85 38 e8 ff ff 0e 	movl   $0x6cc3a70e,-0x17c8(%rbp)
   12978:	a7 c3 6c 
   1297b:	c7 85 3c e8 ff ff 33 	movl   $0x3cc70133,-0x17c4(%rbp)
   12982:	01 c7 3c 
   12985:	c7 85 8c e8 ff ff 03 	movl   $0x3,-0x1774(%rbp)
   1298c:	00 00 00 
   1298f:	c7 85 40 e8 ff ff 00 	movl   $0x0,-0x17c0(%rbp)
   12996:	00 00 00 
   12999:	eb 1b                	jmp    129b6 <func_6+0x7d7>
   1299b:	8b 85 40 e8 ff ff    	mov    -0x17c0(%rbp),%eax
   129a1:	48 98                	cltq   
   129a3:	48 c7 84 c5 b0 eb ff 	movq   $0x0,-0x1450(%rbp,%rax,8)
   129aa:	ff 00 00 00 00 
   129af:	83 85 40 e8 ff ff 01 	addl   $0x1,-0x17c0(%rbp)
   129b6:	83 bd 40 e8 ff ff 05 	cmpl   $0x5,-0x17c0(%rbp)
   129bd:	7e dc                	jle    1299b <func_6+0x7bc>
   129bf:	48 8b 85 a8 ea ff ff 	mov    -0x1558(%rbp),%rax
   129c6:	48 83 c0 01          	add    $0x1,%rax
   129ca:	48 89 85 a8 ea ff ff 	mov    %rax,-0x1558(%rbp)
   129d1:	c6 05 e8 46 01 00 09 	movb   $0x9,0x146e8(%rip)        # 270c0 <g_877>
   129d8:	e9 cc 03 00 00       	jmpq   12da9 <func_6+0xbca>
   129dd:	c7 85 b0 e8 ff ff 02 	movl   $0x2,-0x1750(%rbp)
   129e4:	00 00 00 
   129e7:	48 8d 05 52 89 01 00 	lea    0x18952(%rip),%rax        # 2b340 <g_379>
   129ee:	48 89 85 f0 ee ff ff 	mov    %rax,-0x1110(%rbp)
   129f5:	48 8d 05 44 89 01 00 	lea    0x18944(%rip),%rax        # 2b340 <g_379>
   129fc:	48 89 85 f8 ee ff ff 	mov    %rax,-0x1108(%rbp)
   12a03:	48 8d 05 36 89 01 00 	lea    0x18936(%rip),%rax        # 2b340 <g_379>
   12a0a:	48 89 85 00 ef ff ff 	mov    %rax,-0x1100(%rbp)
   12a11:	48 8d 05 28 89 01 00 	lea    0x18928(%rip),%rax        # 2b340 <g_379>
   12a18:	48 89 85 08 ef ff ff 	mov    %rax,-0x10f8(%rbp)
   12a1f:	48 8d 85 f0 e8 ff ff 	lea    -0x1710(%rbp),%rax
   12a26:	48 89 85 10 ef ff ff 	mov    %rax,-0x10f0(%rbp)
   12a2d:	48 8d 05 0c 89 01 00 	lea    0x1890c(%rip),%rax        # 2b340 <g_379>
   12a34:	48 89 85 18 ef ff ff 	mov    %rax,-0x10e8(%rbp)
   12a3b:	48 8d 05 fe 88 01 00 	lea    0x188fe(%rip),%rax        # 2b340 <g_379>
   12a42:	48 89 85 20 ef ff ff 	mov    %rax,-0x10e0(%rbp)
   12a49:	48 8d 05 f0 88 01 00 	lea    0x188f0(%rip),%rax        # 2b340 <g_379>
   12a50:	48 89 85 28 ef ff ff 	mov    %rax,-0x10d8(%rbp)
   12a57:	48 8d 85 f0 e8 ff ff 	lea    -0x1710(%rbp),%rax
   12a5e:	48 89 85 30 ef ff ff 	mov    %rax,-0x10d0(%rbp)
   12a65:	48 8d 05 d4 88 01 00 	lea    0x188d4(%rip),%rax        # 2b340 <g_379>
   12a6c:	48 89 85 38 ef ff ff 	mov    %rax,-0x10c8(%rbp)
   12a73:	48 8d 05 c6 88 01 00 	lea    0x188c6(%rip),%rax        # 2b340 <g_379>
   12a7a:	48 89 85 40 ef ff ff 	mov    %rax,-0x10c0(%rbp)
   12a81:	48 8d 05 b8 88 01 00 	lea    0x188b8(%rip),%rax        # 2b340 <g_379>
   12a88:	48 89 85 48 ef ff ff 	mov    %rax,-0x10b8(%rbp)
   12a8f:	48 8d 05 aa 88 01 00 	lea    0x188aa(%rip),%rax        # 2b340 <g_379>
   12a96:	48 89 85 50 ef ff ff 	mov    %rax,-0x10b0(%rbp)
   12a9d:	48 8d 85 f0 e8 ff ff 	lea    -0x1710(%rbp),%rax
   12aa4:	48 89 85 58 ef ff ff 	mov    %rax,-0x10a8(%rbp)
   12aab:	48 8d 05 8e 88 01 00 	lea    0x1888e(%rip),%rax        # 2b340 <g_379>
   12ab2:	48 89 85 60 ef ff ff 	mov    %rax,-0x10a0(%rbp)
   12ab9:	48 8d 05 80 88 01 00 	lea    0x18880(%rip),%rax        # 2b340 <g_379>
   12ac0:	48 89 85 68 ef ff ff 	mov    %rax,-0x1098(%rbp)
   12ac7:	48 8d 05 72 88 01 00 	lea    0x18872(%rip),%rax        # 2b340 <g_379>
   12ace:	48 89 85 70 ef ff ff 	mov    %rax,-0x1090(%rbp)
   12ad5:	48 8d 85 f0 e8 ff ff 	lea    -0x1710(%rbp),%rax
   12adc:	48 89 85 78 ef ff ff 	mov    %rax,-0x1088(%rbp)
   12ae3:	8b 85 b0 e8 ff ff    	mov    -0x1750(%rbp),%eax
   12ae9:	48 63 d8             	movslq %eax,%rbx
   12aec:	8b 85 b0 e8 ff ff    	mov    -0x1750(%rbp),%eax
   12af2:	44 0f b6 e0          	movzbl %al,%r12d
   12af6:	66 83 bd f0 e7 ff ff 	cmpw   $0x0,-0x1810(%rbp)
   12afd:	00 
   12afe:	0f 85 dd 00 00 00    	jne    12be1 <func_6+0xa02>
   12b04:	44 8b ad b0 e8 ff ff 	mov    -0x1750(%rbp),%r13d
   12b0b:	44 8b bd 88 ea ff ff 	mov    -0x1578(%rbp),%r15d
   12b12:	8b 85 fc e7 ff ff    	mov    -0x1804(%rbp),%eax
   12b18:	44 0f b7 f0          	movzwl %ax,%r14d
   12b1c:	8b 85 94 ea ff ff    	mov    -0x156c(%rbp),%eax
   12b22:	89 85 e4 e7 ff ff    	mov    %eax,-0x181c(%rbp)
   12b28:	be f8 ff 00 00       	mov    $0xfff8,%esi
   12b2d:	bf 00 00 00 00       	mov    $0x0,%edi
   12b32:	e8 e8 e1 ff ff       	callq  10d1f <safe_sub_func_uint16_t_u_u>
   12b37:	0f b7 c0             	movzwl %ax,%eax
   12b3a:	39 85 e4 e7 ff ff    	cmp    %eax,-0x181c(%rbp)
   12b40:	0f 93 c0             	setae  %al
   12b43:	0f b6 c0             	movzbl %al,%eax
   12b46:	8b 95 f4 e7 ff ff    	mov    -0x180c(%rbp),%edx
   12b4c:	09 d0                	or     %edx,%eax
   12b4e:	0f b7 c0             	movzwl %ax,%eax
   12b51:	44 89 f6             	mov    %r14d,%esi
   12b54:	89 c7                	mov    %eax,%edi
   12b56:	e8 c4 e1 ff ff       	callq  10d1f <safe_sub_func_uint16_t_u_u>
   12b5b:	0f b6 85 f8 e7 ff ff 	movzbl -0x1808(%rbp),%eax
   12b62:	89 c7                	mov    %eax,%edi
   12b64:	e8 dc df ff ff       	callq  10b45 <safe_unary_minus_func_uint8_t_u>
   12b69:	0f b6 c0             	movzbl %al,%eax
   12b6c:	44 21 f8             	and    %r15d,%eax
   12b6f:	be 01 00 00 00       	mov    $0x1,%esi
   12b74:	89 c7                	mov    %eax,%edi
   12b76:	e8 3d e3 ff ff       	callq  10eb8 <safe_add_func_uint32_t_u_u>
   12b7b:	8b 85 88 ea ff ff    	mov    -0x1578(%rbp),%eax
   12b81:	0f be c0             	movsbl %al,%eax
   12b84:	be 00 00 00 00       	mov    $0x0,%esi
   12b89:	89 c7                	mov    %eax,%edi
   12b8b:	e8 82 d6 ff ff       	callq  10212 <safe_mul_func_int8_t_s_s>
   12b90:	0f b6 c0             	movzbl %al,%eax
   12b93:	44 89 ee             	mov    %r13d,%esi
   12b96:	89 c7                	mov    %eax,%edi
   12b98:	e8 21 e1 ff ff       	callq  10cbe <safe_rshift_func_uint8_t_u_u>
   12b9d:	38 85 f8 e7 ff ff    	cmp    %al,-0x1808(%rbp)
   12ba3:	75 10                	jne    12bb5 <func_6+0x9d6>
   12ba5:	48 8b 05 dc 8d 01 00 	mov    0x18ddc(%rip),%rax        # 2b988 <g_835>
   12bac:	48 8b 00             	mov    (%rax),%rax
   12baf:	8b 00                	mov    (%rax),%eax
   12bb1:	85 c0                	test   %eax,%eax
   12bb3:	74 07                	je     12bbc <func_6+0x9dd>
   12bb5:	b8 01 00 00 00       	mov    $0x1,%eax
   12bba:	eb 05                	jmp    12bc1 <func_6+0x9e2>
   12bbc:	b8 00 00 00 00       	mov    $0x0,%eax
   12bc1:	89 c2                	mov    %eax,%edx
   12bc3:	48 8b 05 a6 8d 01 00 	mov    0x18da6(%rip),%rax        # 2b970 <g_738>
   12bca:	8b 00                	mov    (%rax),%eax
   12bcc:	21 d0                	and    %edx,%eax
   12bce:	0f b6 c0             	movzbl %al,%eax
   12bd1:	be ba 00 00 00       	mov    $0xba,%esi
   12bd6:	89 c7                	mov    %eax,%edi
   12bd8:	e8 7d df ff ff       	callq  10b5a <safe_add_func_uint8_t_u_u>
   12bdd:	84 c0                	test   %al,%al
   12bdf:	74 07                	je     12be8 <func_6+0xa09>
   12be1:	b8 01 00 00 00       	mov    $0x1,%eax
   12be6:	eb 05                	jmp    12bed <func_6+0xa0e>
   12be8:	b8 00 00 00 00       	mov    $0x0,%eax
   12bed:	be ca 41 cb 46       	mov    $0x46cb41ca,%esi
   12bf2:	89 c7                	mov    %eax,%edi
   12bf4:	e8 bd d9 ff ff       	callq  105b6 <safe_add_func_int32_t_s_s>
   12bf9:	0f b6 c0             	movzbl %al,%eax
   12bfc:	44 89 e6             	mov    %r12d,%esi
   12bff:	89 c7                	mov    %eax,%edi
   12c01:	e8 d5 df ff ff       	callq  10bdb <safe_div_func_uint8_t_u_u>
   12c06:	0f b6 c0             	movzbl %al,%eax
   12c09:	be 0b 00 00 00       	mov    $0xb,%esi
   12c0e:	89 c7                	mov    %eax,%edi
   12c10:	e8 4e d9 ff ff       	callq  10563 <safe_rshift_func_int16_t_s_u>
   12c15:	8b 85 88 ea ff ff    	mov    -0x1578(%rbp),%eax
   12c1b:	48 63 d0             	movslq %eax,%rdx
   12c1e:	0f b7 85 f0 e7 ff ff 	movzwl -0x1810(%rbp),%eax
   12c25:	48 89 d6             	mov    %rdx,%rsi
   12c28:	48 89 c7             	mov    %rax,%rdi
   12c2b:	e8 c7 dd ff ff       	callq  109f7 <safe_div_func_int64_t_s_s>
   12c30:	48 89 de             	mov    %rbx,%rsi
   12c33:	48 89 c7             	mov    %rax,%rdi
   12c36:	e8 74 e4 ff ff       	callq  110af <safe_div_func_uint64_t_u_u>
   12c3b:	89 c2                	mov    %eax,%edx
   12c3d:	8b 85 28 e8 ff ff    	mov    -0x17d8(%rbp),%eax
   12c43:	09 d0                	or     %edx,%eax
   12c45:	89 85 28 e8 ff ff    	mov    %eax,-0x17d8(%rbp)
   12c4b:	48 8b 15 ce 86 01 00 	mov    0x186ce(%rip),%rdx        # 2b320 <g_268>
   12c52:	48 8b 05 bf 86 01 00 	mov    0x186bf(%rip),%rax        # 2b318 <g_264>
   12c59:	48 8b 12             	mov    (%rdx),%rdx
   12c5c:	48 89 10             	mov    %rdx,(%rax)
   12c5f:	48 8b 85 30 ea ff ff 	mov    -0x15d0(%rbp),%rax
   12c66:	41 89 c6             	mov    %eax,%r14d
   12c69:	48 8d 05 d8 3f 01 00 	lea    0x13fd8(%rip),%rax        # 26c48 <g_556>
   12c70:	44 0f b7 28          	movzwl (%rax),%r13d
   12c74:	48 8b 85 a8 ea ff ff 	mov    -0x1558(%rbp),%rax
   12c7b:	0f bf d8             	movswl %ax,%ebx
   12c7e:	8b 85 9c ea ff ff    	mov    -0x1564(%rbp),%eax
   12c84:	89 c2                	mov    %eax,%edx
   12c86:	0f b7 05 41 40 01 00 	movzwl 0x14041(%rip),%eax        # 26cce <g_786>
   12c8d:	09 d0                	or     %edx,%eax
   12c8f:	66 89 05 38 40 01 00 	mov    %ax,0x14038(%rip)        # 26cce <g_786>
   12c96:	8b 85 fc e7 ff ff    	mov    -0x1804(%rbp),%eax
   12c9c:	0f b7 d0             	movzwl %ax,%edx
   12c9f:	0f b7 85 14 e8 ff ff 	movzwl -0x17ec(%rbp),%eax
   12ca6:	0f b7 c0             	movzwl %ax,%eax
   12ca9:	89 85 28 e8 ff ff    	mov    %eax,-0x17d8(%rbp)
   12caf:	8b 85 28 e8 ff ff    	mov    -0x17d8(%rbp),%eax
   12cb5:	0f b7 c0             	movzwl %ax,%eax
   12cb8:	89 d6                	mov    %edx,%esi
   12cba:	89 c7                	mov    %eax,%edi
   12cbc:	e8 7c e0 ff ff       	callq  10d3d <safe_mul_func_uint16_t_u_u>
   12cc1:	0f b7 c0             	movzwl %ax,%eax
   12cc4:	48 39 85 e8 e7 ff ff 	cmp    %rax,-0x1818(%rbp)
   12ccb:	0f 9d c0             	setge  %al
   12cce:	0f b6 d0             	movzbl %al,%edx
   12cd1:	0f b6 85 f8 e7 ff ff 	movzbl -0x1808(%rbp),%eax
   12cd8:	39 c2                	cmp    %eax,%edx
   12cda:	0f 9d c0             	setge  %al
   12cdd:	44 0f b6 e0          	movzbl %al,%r12d
   12ce1:	48 8b 85 f0 e8 ff ff 	mov    -0x1710(%rbp),%rax
   12ce8:	48 89 85 f0 e8 ff ff 	mov    %rax,-0x1710(%rbp)
   12cef:	48 8b 95 f0 e8 ff ff 	mov    -0x1710(%rbp),%rdx
   12cf6:	48 8b 85 c8 e8 ff ff 	mov    -0x1738(%rbp),%rax
   12cfd:	48 89 85 c8 e8 ff ff 	mov    %rax,-0x1738(%rbp)
   12d04:	48 8b 85 c8 e8 ff ff 	mov    -0x1738(%rbp),%rax
   12d0b:	48 39 c2             	cmp    %rax,%rdx
   12d0e:	0f 95 c0             	setne  %al
   12d11:	0f b6 d0             	movzbl %al,%edx
   12d14:	0f b6 85 f8 e7 ff ff 	movzbl -0x1808(%rbp),%eax
   12d1b:	48 89 d6             	mov    %rdx,%rsi
   12d1e:	48 89 c7             	mov    %rax,%rdi
   12d21:	e8 1b db ff ff       	callq  10841 <safe_add_func_int64_t_s_s>
   12d26:	48 85 c0             	test   %rax,%rax
   12d29:	74 11                	je     12d3c <func_6+0xb5d>
   12d2b:	48 83 bd 30 ea ff ff 	cmpq   $0x0,-0x15d0(%rbp)
   12d32:	00 
   12d33:	74 07                	je     12d3c <func_6+0xb5d>
   12d35:	b8 01 00 00 00       	mov    $0x1,%eax
   12d3a:	eb 05                	jmp    12d41 <func_6+0xb62>
   12d3c:	b8 00 00 00 00       	mov    $0x0,%eax
   12d41:	0f b6 c0             	movzbl %al,%eax
   12d44:	44 89 e6             	mov    %r12d,%esi
   12d47:	89 c7                	mov    %eax,%edi
   12d49:	e8 45 de ff ff       	callq  10b93 <safe_mul_func_uint8_t_u_u>
   12d4e:	48 8b 95 d8 eb ff ff 	mov    -0x1428(%rbp),%rdx
   12d55:	48 8b 05 2c c4 01 00 	mov    0x1c42c(%rip),%rax        # 2f188 <g_3502>
   12d5c:	48 39 c2             	cmp    %rax,%rdx
   12d5f:	0f 94 c0             	sete   %al
   12d62:	0f b6 c0             	movzbl %al,%eax
   12d65:	89 de                	mov    %ebx,%esi
   12d67:	89 c7                	mov    %eax,%edi
   12d69:	e8 a8 d6 ff ff       	callq  10416 <safe_mod_func_int16_t_s_s>
   12d6e:	44 89 ea             	mov    %r13d,%edx
   12d71:	21 c2                	and    %eax,%edx
   12d73:	8b 85 88 ea ff ff    	mov    -0x1578(%rbp),%eax
   12d79:	21 d0                	and    %edx,%eax
   12d7b:	0f b7 c0             	movzwl %ax,%eax
   12d7e:	44 89 f6             	mov    %r14d,%esi
   12d81:	89 c7                	mov    %eax,%edi
   12d83:	e8 c0 e0 ff ff       	callq  10e48 <safe_rshift_func_uint16_t_u_s>
   12d88:	0f b7 d0             	movzwl %ax,%edx
   12d8b:	8b 85 1c e8 ff ff    	mov    -0x17e4(%rbp),%eax
   12d91:	09 d0                	or     %edx,%eax
   12d93:	89 85 1c e8 ff ff    	mov    %eax,-0x17e4(%rbp)
   12d99:	0f b6 05 20 43 01 00 	movzbl 0x14320(%rip),%eax        # 270c0 <g_877>
   12da0:	83 e8 01             	sub    $0x1,%eax
   12da3:	88 05 17 43 01 00    	mov    %al,0x14317(%rip)        # 270c0 <g_877>
   12da9:	0f b6 05 10 43 01 00 	movzbl 0x14310(%rip),%eax        # 270c0 <g_877>
   12db0:	84 c0                	test   %al,%al
   12db2:	0f 89 25 fc ff ff    	jns    129dd <func_6+0x7fe>
   12db8:	48 8b 85 30 ea ff ff 	mov    -0x15d0(%rbp),%rax
   12dbf:	41 89 c7             	mov    %eax,%r15d
   12dc2:	44 8b ad 4c ed ff ff 	mov    -0x12b4(%rbp),%r13d
   12dc9:	8b 9d 28 e8 ff ff    	mov    -0x17d8(%rbp),%ebx
   12dcf:	48 8b 05 22 85 01 00 	mov    0x18522(%rip),%rax        # 2b2f8 <g_197>
   12dd6:	8b 00                	mov    (%rax),%eax
   12dd8:	89 85 f4 e7 ff ff    	mov    %eax,-0x180c(%rbp)
   12dde:	8b 95 f4 e7 ff ff    	mov    -0x180c(%rbp),%edx
   12de4:	48 8b 05 85 8b 01 00 	mov    0x18b85(%rip),%rax        # 2b970 <g_738>
   12deb:	8b 00                	mov    (%rax),%eax
   12ded:	85 c0                	test   %eax,%eax
   12def:	75 0a                	jne    12dfb <func_6+0xc1c>
   12df1:	48 83 bd 30 ea ff ff 	cmpq   $0x0,-0x15d0(%rbp)
   12df8:	00 
   12df9:	74 07                	je     12e02 <func_6+0xc23>
   12dfb:	b8 01 00 00 00       	mov    $0x1,%eax
   12e00:	eb 05                	jmp    12e07 <func_6+0xc28>
   12e02:	b8 00 00 00 00       	mov    $0x0,%eax
   12e07:	39 d0                	cmp    %edx,%eax
   12e09:	0f 95 c0             	setne  %al
   12e0c:	44 0f b6 f0          	movzbl %al,%r14d
   12e10:	48 8b 05 81 8c 01 00 	mov    0x18c81(%rip),%rax        # 2ba98 <g_1122>
   12e17:	48 8b 10             	mov    (%rax),%rdx
   12e1a:	48 83 c2 01          	add    $0x1,%rdx
   12e1e:	48 89 10             	mov    %rdx,(%rax)
   12e21:	48 8b 10             	mov    (%rax),%rdx
   12e24:	48 8b 85 38 ea ff ff 	mov    -0x15c8(%rbp),%rax
   12e2b:	48 89 10             	mov    %rdx,(%rax)
   12e2e:	48 8b 85 38 ea ff ff 	mov    -0x15c8(%rbp),%rax
   12e35:	48 8b 00             	mov    (%rax),%rax
   12e38:	48 85 c0             	test   %rax,%rax
   12e3b:	74 5f                	je     12e9c <func_6+0xcbd>
   12e3d:	48 8b 85 30 ea ff ff 	mov    -0x15d0(%rbp),%rax
   12e44:	44 0f be e0          	movsbl %al,%r12d
   12e48:	be 00 00 00 00       	mov    $0x0,%esi
   12e4d:	bf ff ff ff ff       	mov    $0xffffffff,%edi
   12e52:	e8 bb d3 ff ff       	callq  10212 <safe_mul_func_int8_t_s_s>
   12e57:	0f be c0             	movsbl %al,%eax
   12e5a:	44 89 e6             	mov    %r12d,%esi
   12e5d:	89 c7                	mov    %eax,%edi
   12e5f:	e8 06 d4 ff ff       	callq  1026a <safe_div_func_int8_t_s_s>
   12e64:	8b 85 fc e7 ff ff    	mov    -0x1804(%rbp),%eax
   12e6a:	f7 d0                	not    %eax
   12e6c:	89 c2                	mov    %eax,%edx
   12e6e:	48 8b 85 30 ea ff ff 	mov    -0x15d0(%rbp),%rax
   12e75:	21 d0                	and    %edx,%eax
   12e77:	98                   	cwtl   
   12e78:	89 c7                	mov    %eax,%edi
   12e7a:	e8 1e d5 ff ff       	callq  1039d <safe_unary_minus_func_int16_t_s>
   12e7f:	66 3d 97 00          	cmp    $0x97,%ax
   12e83:	0f 9e c0             	setle  %al
   12e86:	0f b6 c0             	movzbl %al,%eax
   12e89:	48 23 85 30 ea ff ff 	and    -0x15d0(%rbp),%rax
   12e90:	48 85 c0             	test   %rax,%rax
   12e93:	74 07                	je     12e9c <func_6+0xcbd>
   12e95:	b8 01 00 00 00       	mov    $0x1,%eax
   12e9a:	eb 05                	jmp    12ea1 <func_6+0xcc2>
   12e9c:	b8 00 00 00 00       	mov    $0x0,%eax
   12ea1:	44 39 f0             	cmp    %r14d,%eax
   12ea4:	7f 11                	jg     12eb7 <func_6+0xcd8>
   12ea6:	66 83 bd 18 e8 ff ff 	cmpw   $0x0,-0x17e8(%rbp)
   12ead:	00 
   12eae:	74 07                	je     12eb7 <func_6+0xcd8>
   12eb0:	b8 01 00 00 00       	mov    $0x1,%eax
   12eb5:	eb 05                	jmp    12ebc <func_6+0xcdd>
   12eb7:	b8 00 00 00 00       	mov    $0x0,%eax
   12ebc:	0f be c0             	movsbl %al,%eax
   12ebf:	89 de                	mov    %ebx,%esi
   12ec1:	89 c7                	mov    %eax,%edi
   12ec3:	e8 6d d4 ff ff       	callq  10335 <safe_rshift_func_int8_t_s_s>
   12ec8:	66 98                	cbtw   
   12eca:	0f b7 c0             	movzwl %ax,%eax
   12ecd:	be 0e af 00 00       	mov    $0xaf0e,%esi
   12ed2:	89 c7                	mov    %eax,%edi
   12ed4:	e8 46 de ff ff       	callq  10d1f <safe_sub_func_uint16_t_u_u>
   12ed9:	0f b7 c0             	movzwl %ax,%eax
   12edc:	be 33 e0 ae 5f       	mov    $0x5faee033,%esi
   12ee1:	89 c7                	mov    %eax,%edi
   12ee3:	e8 ce d6 ff ff       	callq  105b6 <safe_add_func_int32_t_s_s>
   12ee8:	41 39 c5             	cmp    %eax,%r13d
   12eeb:	0f 95 c0             	setne  %al
   12eee:	0f b6 c0             	movzbl %al,%eax
   12ef1:	44 89 fe             	mov    %r15d,%esi
   12ef4:	89 c7                	mov    %eax,%edi
   12ef6:	e8 0b df ff ff       	callq  10e06 <safe_lshift_func_uint16_t_u_u>
   12efb:	89 c2                	mov    %eax,%edx
   12efd:	48 8b 05 a4 8b 01 00 	mov    0x18ba4(%rip),%rax        # 2baa8 <g_1228>
   12f04:	0f b7 d2             	movzwl %dx,%edx
   12f07:	89 10                	mov    %edx,(%rax)
   12f09:	c7 05 49 31 01 00 04 	movl   $0x4,0x13149(%rip)        # 2605c <g_120>
   12f10:	00 00 00 
   12f13:	e9 98 06 00 00       	jmpq   135b0 <func_6+0x13d1>
   12f18:	48 8d 85 b8 e8 ff ff 	lea    -0x1748(%rbp),%rax
   12f1f:	48 89 85 40 ea ff ff 	mov    %rax,-0x15c0(%rbp)
   12f26:	c7 85 90 e8 ff ff ff 	movl   $0xffffffff,-0x1770(%rbp)
   12f2d:	ff ff ff 
   12f30:	48 8d 05 59 8b 01 00 	lea    0x18b59(%rip),%rax        # 2ba90 <g_969>
   12f37:	48 89 85 48 ea ff ff 	mov    %rax,-0x15b8(%rbp)
   12f3e:	c7 85 94 e8 ff ff 36 	movl   $0x99aea436,-0x176c(%rbp)
   12f45:	a4 ae 99 
   12f48:	c7 85 98 e8 ff ff fb 	movl   $0xfffffffb,-0x1768(%rbp)
   12f4f:	ff ff ff 
   12f52:	c7 85 9c e8 ff ff a8 	movl   $0xdea9e7a8,-0x1764(%rbp)
   12f59:	e7 a9 de 
   12f5c:	c7 85 a0 e8 ff ff 4e 	movl   $0x4ff5284e,-0x1760(%rbp)
   12f63:	28 f5 4f 
   12f66:	c7 85 a4 e8 ff ff ad 	movl   $0x6e53c0ad,-0x175c(%rbp)
   12f6d:	c0 53 6e 
   12f70:	c7 85 00 eb ff ff 55 	movl   $0x26d57855,-0x1500(%rbp)
   12f77:	78 d5 26 
   12f7a:	c7 85 04 eb ff ff ff 	movl   $0xffffffff,-0x14fc(%rbp)
   12f81:	ff ff ff 
   12f84:	c7 85 08 eb ff ff e1 	movl   $0x4bbbb2e1,-0x14f8(%rbp)
   12f8b:	b2 bb 4b 
   12f8e:	c7 85 0c eb ff ff ff 	movl   $0xffffffff,-0x14f4(%rbp)
   12f95:	ff ff ff 
   12f98:	c7 85 10 eb ff ff 55 	movl   $0x26d57855,-0x14f0(%rbp)
   12f9f:	78 d5 26 
   12fa2:	c7 85 14 eb ff ff 55 	movl   $0x26d57855,-0x14ec(%rbp)
   12fa9:	78 d5 26 
   12fac:	c7 85 18 eb ff ff ff 	movl   $0xffffffff,-0x14e8(%rbp)
   12fb3:	ff ff ff 
   12fb6:	c7 85 1c eb ff ff e1 	movl   $0x4bbbb2e1,-0x14e4(%rbp)
   12fbd:	b2 bb 4b 
   12fc0:	c7 85 20 eb ff ff ff 	movl   $0xffffffff,-0x14e0(%rbp)
   12fc7:	ff ff ff 
   12fca:	c7 85 24 eb ff ff 55 	movl   $0x26d57855,-0x14dc(%rbp)
   12fd1:	78 d5 26 
   12fd4:	0f b6 9d f8 e7 ff ff 	movzbl -0x1808(%rbp),%ebx
   12fdb:	80 bd 0f e8 ff ff 00 	cmpb   $0x0,-0x17f1(%rbp)
   12fe2:	75 0f                	jne    12ff3 <func_6+0xe14>
   12fe4:	be 0b 00 00 00       	mov    $0xb,%esi
   12fe9:	bf 01 00 00 00       	mov    $0x1,%edi
   12fee:	e8 cb dd ff ff       	callq  10dbe <safe_lshift_func_uint16_t_u_s>
   12ff3:	b8 01 00 00 00       	mov    $0x1,%eax
   12ff8:	48 63 c8             	movslq %eax,%rcx
   12ffb:	48 8b 05 96 8a 01 00 	mov    0x18a96(%rip),%rax        # 2ba98 <g_1122>
   13002:	48 8b 10             	mov    (%rax),%rdx
   13005:	48 8b 05 8c 8a 01 00 	mov    0x18a8c(%rip),%rax        # 2ba98 <g_1122>
   1300c:	48 31 ca             	xor    %rcx,%rdx
   1300f:	48 89 10             	mov    %rdx,(%rax)
   13012:	48 8b 10             	mov    (%rax),%rdx
   13015:	0f b7 85 f0 e7 ff ff 	movzwl -0x1810(%rbp),%eax
   1301c:	48 39 c2             	cmp    %rax,%rdx
   1301f:	0f 97 c0             	seta   %al
   13022:	0f b6 c0             	movzbl %al,%eax
   13025:	48 39 85 30 ea ff ff 	cmp    %rax,-0x15d0(%rbp)
   1302c:	0f 9e c0             	setle  %al
   1302f:	0f b6 c0             	movzbl %al,%eax
   13032:	8b 95 90 e8 ff ff    	mov    -0x1770(%rbp),%edx
   13038:	09 d0                	or     %edx,%eax
   1303a:	98                   	cwtl   
   1303b:	89 de                	mov    %ebx,%esi
   1303d:	89 c7                	mov    %eax,%edi
   1303f:	e8 4e d4 ff ff       	callq  10492 <safe_lshift_func_int16_t_s_s>
   13044:	66 85 c0             	test   %ax,%ax
   13047:	0f 84 a8 03 00 00    	je     133f5 <func_6+0x1216>
   1304d:	48 8d 05 fe 50 01 00 	lea    0x150fe(%rip),%rax        # 28152 <g_3704+0x2>
   13054:	48 89 85 00 e9 ff ff 	mov    %rax,-0x1700(%rbp)
   1305b:	48 8d 85 00 e9 ff ff 	lea    -0x1700(%rbp),%rax
   13062:	48 89 85 50 ea ff ff 	mov    %rax,-0x15b0(%rbp)
   13069:	c7 85 ac e8 ff ff fe 	movl   $0xfffffffe,-0x1754(%rbp)
   13070:	ff ff ff 
   13073:	48 c7 85 b8 e8 ff ff 	movq   $0x0,-0x1748(%rbp)
   1307a:	00 00 00 00 
   1307e:	e9 48 03 00 00       	jmpq   133cb <func_6+0x11ec>
   13083:	48 c7 85 58 ea ff ff 	movq   $0x0,-0x15a8(%rbp)
   1308a:	00 00 00 00 
   1308e:	48 c7 85 60 ea ff ff 	movq   $0x0,-0x15a0(%rbp)
   13095:	00 00 00 00 
   13099:	48 8d 05 a8 50 01 00 	lea    0x150a8(%rip),%rax        # 28148 <g_3701>
   130a0:	48 89 85 08 e9 ff ff 	mov    %rax,-0x16f8(%rbp)
   130a7:	48 8d 85 08 e9 ff ff 	lea    -0x16f8(%rbp),%rax
   130ae:	48 89 85 10 e9 ff ff 	mov    %rax,-0x16f0(%rbp)
   130b5:	48 8d 85 10 e9 ff ff 	lea    -0x16f0(%rbp),%rax
   130bc:	48 89 85 f0 ee ff ff 	mov    %rax,-0x1110(%rbp)
   130c3:	48 8d 85 10 e9 ff ff 	lea    -0x16f0(%rbp),%rax
   130ca:	48 89 85 f8 ee ff ff 	mov    %rax,-0x1108(%rbp)
   130d1:	48 8d 85 10 e9 ff ff 	lea    -0x16f0(%rbp),%rax
   130d8:	48 89 85 00 ef ff ff 	mov    %rax,-0x1100(%rbp)
   130df:	48 8d 85 10 e9 ff ff 	lea    -0x16f0(%rbp),%rax
   130e6:	48 89 85 08 ef ff ff 	mov    %rax,-0x10f8(%rbp)
   130ed:	48 8d 85 10 e9 ff ff 	lea    -0x16f0(%rbp),%rax
   130f4:	48 89 85 10 ef ff ff 	mov    %rax,-0x10f0(%rbp)
   130fb:	48 8d 85 10 e9 ff ff 	lea    -0x16f0(%rbp),%rax
   13102:	48 89 85 18 ef ff ff 	mov    %rax,-0x10e8(%rbp)
   13109:	48 8d 85 10 e9 ff ff 	lea    -0x16f0(%rbp),%rax
   13110:	48 89 85 20 ef ff ff 	mov    %rax,-0x10e0(%rbp)
   13117:	48 8d 85 10 e9 ff ff 	lea    -0x16f0(%rbp),%rax
   1311e:	48 89 85 28 ef ff ff 	mov    %rax,-0x10d8(%rbp)
   13125:	48 8d 85 10 e9 ff ff 	lea    -0x16f0(%rbp),%rax
   1312c:	48 89 85 30 ef ff ff 	mov    %rax,-0x10d0(%rbp)
   13133:	48 8d 85 10 e9 ff ff 	lea    -0x16f0(%rbp),%rax
   1313a:	48 89 85 38 ef ff ff 	mov    %rax,-0x10c8(%rbp)
   13141:	48 8d 85 10 e9 ff ff 	lea    -0x16f0(%rbp),%rax
   13148:	48 89 85 40 ef ff ff 	mov    %rax,-0x10c0(%rbp)
   1314f:	48 8d 85 10 e9 ff ff 	lea    -0x16f0(%rbp),%rax
   13156:	48 89 85 48 ef ff ff 	mov    %rax,-0x10b8(%rbp)
   1315d:	48 8d 85 10 e9 ff ff 	lea    -0x16f0(%rbp),%rax
   13164:	48 89 85 50 ef ff ff 	mov    %rax,-0x10b0(%rbp)
   1316b:	48 8d 85 10 e9 ff ff 	lea    -0x16f0(%rbp),%rax
   13172:	48 89 85 58 ef ff ff 	mov    %rax,-0x10a8(%rbp)
   13179:	48 8d 85 10 e9 ff ff 	lea    -0x16f0(%rbp),%rax
   13180:	48 89 85 60 ef ff ff 	mov    %rax,-0x10a0(%rbp)
   13187:	48 8d 85 10 e9 ff ff 	lea    -0x16f0(%rbp),%rax
   1318e:	48 89 85 68 ef ff ff 	mov    %rax,-0x1098(%rbp)
   13195:	48 8d 85 10 e9 ff ff 	lea    -0x16f0(%rbp),%rax
   1319c:	48 89 85 70 ef ff ff 	mov    %rax,-0x1090(%rbp)
   131a3:	48 8d 85 10 e9 ff ff 	lea    -0x16f0(%rbp),%rax
   131aa:	48 89 85 78 ef ff ff 	mov    %rax,-0x1088(%rbp)
   131b1:	48 8d 85 10 e9 ff ff 	lea    -0x16f0(%rbp),%rax
   131b8:	48 89 85 80 ef ff ff 	mov    %rax,-0x1080(%rbp)
   131bf:	48 8d 85 10 e9 ff ff 	lea    -0x16f0(%rbp),%rax
   131c6:	48 89 85 88 ef ff ff 	mov    %rax,-0x1078(%rbp)
   131cd:	48 8d 85 10 e9 ff ff 	lea    -0x16f0(%rbp),%rax
   131d4:	48 89 85 90 ef ff ff 	mov    %rax,-0x1070(%rbp)
   131db:	48 8d 85 10 e9 ff ff 	lea    -0x16f0(%rbp),%rax
   131e2:	48 89 85 98 ef ff ff 	mov    %rax,-0x1068(%rbp)
   131e9:	48 8d 85 10 e9 ff ff 	lea    -0x16f0(%rbp),%rax
   131f0:	48 89 85 a0 ef ff ff 	mov    %rax,-0x1060(%rbp)
   131f7:	48 8d 85 10 e9 ff ff 	lea    -0x16f0(%rbp),%rax
   131fe:	48 89 85 a8 ef ff ff 	mov    %rax,-0x1058(%rbp)
   13205:	48 8d 85 10 e9 ff ff 	lea    -0x16f0(%rbp),%rax
   1320c:	48 89 85 b0 ef ff ff 	mov    %rax,-0x1050(%rbp)
   13213:	48 8d 85 10 e9 ff ff 	lea    -0x16f0(%rbp),%rax
   1321a:	48 89 85 b8 ef ff ff 	mov    %rax,-0x1048(%rbp)
   13221:	48 8d 85 10 e9 ff ff 	lea    -0x16f0(%rbp),%rax
   13228:	48 89 85 c0 ef ff ff 	mov    %rax,-0x1040(%rbp)
   1322f:	48 8d 85 10 e9 ff ff 	lea    -0x16f0(%rbp),%rax
   13236:	48 89 85 c8 ef ff ff 	mov    %rax,-0x1038(%rbp)
   1323d:	48 8d 85 10 e9 ff ff 	lea    -0x16f0(%rbp),%rax
   13244:	48 89 85 d0 ef ff ff 	mov    %rax,-0x1030(%rbp)
   1324b:	48 8d 85 10 e9 ff ff 	lea    -0x16f0(%rbp),%rax
   13252:	48 89 85 d8 ef ff ff 	mov    %rax,-0x1028(%rbp)
   13259:	48 8d 85 10 e9 ff ff 	lea    -0x16f0(%rbp),%rax
   13260:	48 89 85 e0 ef ff ff 	mov    %rax,-0x1020(%rbp)
   13267:	48 8d 85 10 e9 ff ff 	lea    -0x16f0(%rbp),%rax
   1326e:	48 89 85 e8 ef ff ff 	mov    %rax,-0x1018(%rbp)
   13275:	48 8d 05 b8 46 01 00 	lea    0x146b8(%rip),%rax        # 27934 <g_1350>
   1327c:	48 89 85 68 ea ff ff 	mov    %rax,-0x1598(%rbp)
   13283:	48 8d 05 9e 2d 01 00 	lea    0x12d9e(%rip),%rax        # 26028 <g_34>
   1328a:	48 89 85 70 ea ff ff 	mov    %rax,-0x1590(%rbp)
   13291:	48 8d 05 9c 46 01 00 	lea    0x1469c(%rip),%rax        # 27934 <g_1350>
   13298:	48 89 85 78 ea ff ff 	mov    %rax,-0x1588(%rbp)
   1329f:	48 8d 05 02 47 01 00 	lea    0x14702(%rip),%rax        # 279a8 <g_2181>
   132a6:	48 89 85 80 ea ff ff 	mov    %rax,-0x1580(%rbp)
   132ad:	48 c7 85 70 ed ff ff 	movq   $0x0,-0x1290(%rbp)
   132b4:	00 00 00 00 
   132b8:	48 c7 85 78 ed ff ff 	movq   $0x0,-0x1288(%rbp)
   132bf:	00 00 00 00 
   132c3:	48 c7 85 80 ed ff ff 	movq   $0x0,-0x1280(%rbp)
   132ca:	00 00 00 00 
   132ce:	48 c7 85 88 ed ff ff 	movq   $0x0,-0x1278(%rbp)
   132d5:	00 00 00 00 
   132d9:	48 c7 85 90 ed ff ff 	movq   $0x0,-0x1270(%rbp)
   132e0:	00 00 00 00 
   132e4:	48 c7 85 98 ed ff ff 	movq   $0x0,-0x1268(%rbp)
   132eb:	00 00 00 00 
   132ef:	48 c7 85 a0 ed ff ff 	movq   $0x0,-0x1260(%rbp)
   132f6:	00 00 00 00 
   132fa:	48 c7 85 a8 ed ff ff 	movq   $0x0,-0x1258(%rbp)
   13301:	00 00 00 00 
   13305:	48 c7 85 b0 ed ff ff 	movq   $0x0,-0x1250(%rbp)
   1330c:	00 00 00 00 
   13310:	8b 85 90 e8 ff ff    	mov    -0x1770(%rbp),%eax
   13316:	98                   	cwtl   
   13317:	be 01 00 00 00       	mov    $0x1,%esi
   1331c:	89 c7                	mov    %eax,%edi
   1331e:	e8 be d1 ff ff       	callq  104e1 <safe_lshift_func_int16_t_s_u>
   13323:	48 0f bf d0          	movswq %ax,%rdx
   13327:	48 8b 05 42 86 01 00 	mov    0x18642(%rip),%rax        # 2b970 <g_738>
   1332e:	8b 8d 90 e8 ff ff    	mov    -0x1770(%rbp),%ecx
   13334:	89 08                	mov    %ecx,(%rax)
   13336:	8b 08                	mov    (%rax),%ecx
   13338:	48 8d 05 61 91 01 00 	lea    0x19161(%rip),%rax        # 2c4a0 <g_2215>
   1333f:	48 89 85 50 ea ff ff 	mov    %rax,-0x15b0(%rbp)
   13346:	48 8b 85 50 ea ff ff 	mov    -0x15b0(%rbp),%rax
   1334d:	48 89 05 44 be 01 00 	mov    %rax,0x1be44(%rip)        # 2f198 <g_3705>
   13354:	48 8b 05 3d be 01 00 	mov    0x1be3d(%rip),%rax        # 2f198 <g_3705>
   1335b:	48 39 85 48 ea ff ff 	cmp    %rax,-0x15b8(%rbp)
   13362:	0f 94 c0             	sete   %al
   13365:	0f b6 c0             	movzbl %al,%eax
   13368:	89 85 34 e8 ff ff    	mov    %eax,-0x17cc(%rbp)
   1336e:	8b 85 38 e8 ff ff    	mov    -0x17c8(%rbp),%eax
   13374:	09 c8                	or     %ecx,%eax
   13376:	89 85 38 e8 ff ff    	mov    %eax,-0x17c8(%rbp)
   1337c:	8b 85 34 e8 ff ff    	mov    -0x17cc(%rbp),%eax
   13382:	3b 85 38 e8 ff ff    	cmp    -0x17c8(%rbp),%eax
   13388:	0f 9c c0             	setl   %al
   1338b:	0f b6 c0             	movzbl %al,%eax
   1338e:	48 89 d6             	mov    %rdx,%rsi
   13391:	48 89 c7             	mov    %rax,%rdi
   13394:	e8 e7 dc ff ff       	callq  11080 <safe_mod_func_uint64_t_u_u>
   13399:	89 c2                	mov    %eax,%edx
   1339b:	8b 85 3c e8 ff ff    	mov    -0x17c4(%rbp),%eax
   133a1:	09 d0                	or     %edx,%eax
   133a3:	89 85 3c e8 ff ff    	mov    %eax,-0x17c4(%rbp)
   133a9:	0f b6 85 0c e8 ff ff 	movzbl -0x17f4(%rbp),%eax
   133b0:	83 c0 01             	add    $0x1,%eax
   133b3:	88 85 0c e8 ff ff    	mov    %al,-0x17f4(%rbp)
   133b9:	48 8b 85 b8 e8 ff ff 	mov    -0x1748(%rbp),%rax
   133c0:	48 83 c0 01          	add    $0x1,%rax
   133c4:	48 89 85 b8 e8 ff ff 	mov    %rax,-0x1748(%rbp)
   133cb:	48 8b 85 b8 e8 ff ff 	mov    -0x1748(%rbp),%rax
   133d2:	48 83 f8 04          	cmp    $0x4,%rax
   133d6:	0f 8e a7 fc ff ff    	jle    13083 <func_6+0xea4>
   133dc:	48 8b 05 0d 99 01 00 	mov    0x1990d(%rip),%rax        # 2ccf0 <g_2490>
   133e3:	48 8b 00             	mov    (%rax),%rax
   133e6:	48 8b 95 28 e9 ff ff 	mov    -0x16d8(%rbp),%rdx
   133ed:	48 89 10             	mov    %rdx,(%rax)
   133f0:	e9 a4 01 00 00       	jmpq   13599 <func_6+0x13ba>
   133f5:	c6 85 12 e8 ff ff f9 	movb   $0xf9,-0x17ee(%rbp)
   133fc:	c7 85 a8 e8 ff ff 01 	movl   $0x1,-0x1758(%rbp)
   13403:	00 00 00 
   13406:	48 8d 85 f0 ee ff ff 	lea    -0x1110(%rbp),%rax
   1340d:	48 8d 15 4c 65 01 00 	lea    0x1654c(%rip),%rdx        # 29960 <g_4305+0xf38>
   13414:	b9 38 00 00 00       	mov    $0x38,%ecx
   13419:	48 89 c7             	mov    %rax,%rdi
   1341c:	48 89 d6             	mov    %rdx,%rsi
   1341f:	f3 48 a5             	rep movsq %ds:(%rsi),%es:(%rdi)
   13422:	c6 85 13 e8 ff ff 04 	movb   $0x4,-0x17ed(%rbp)
   13429:	66 c7 05 66 2c 01 00 	movw   $0x0,0x12c66(%rip)        # 26098 <g_168>
   13430:	00 00 
   13432:	e9 41 01 00 00       	jmpq   13578 <func_6+0x1399>
   13437:	48 8b 05 aa 7e 01 00 	mov    0x17eaa(%rip),%rax        # 2b2e8 <g_189>
   1343e:	0f b6 10             	movzbl (%rax),%edx
   13441:	80 bd f8 e7 ff ff 01 	cmpb   $0x1,-0x1808(%rbp)
   13448:	0f 94 c0             	sete   %al
   1344b:	89 c1                	mov    %eax,%ecx
   1344d:	48 8b 05 94 7e 01 00 	mov    0x17e94(%rip),%rax        # 2b2e8 <g_189>
   13454:	31 ca                	xor    %ecx,%edx
   13456:	88 10                	mov    %dl,(%rax)
   13458:	0f b6 00             	movzbl (%rax),%eax
   1345b:	0f b6 d8             	movzbl %al,%ebx
   1345e:	8b 85 34 e8 ff ff    	mov    -0x17cc(%rbp),%eax
   13464:	98                   	cwtl   
   13465:	be 0a 00 00 00       	mov    $0xa,%esi
   1346a:	89 c7                	mov    %eax,%edi
   1346c:	e8 21 d0 ff ff       	callq  10492 <safe_lshift_func_int16_t_s_s>
   13471:	0f b7 c0             	movzwl %ax,%eax
   13474:	89 c6                	mov    %eax,%esi
   13476:	bf f6 ff 00 00       	mov    $0xfff6,%edi
   1347b:	e8 bd d8 ff ff       	callq  10d3d <safe_mul_func_uint16_t_u_u>
   13480:	89 de                	mov    %ebx,%esi
   13482:	bf 01 00 00 00       	mov    $0x1,%edi
   13487:	e8 22 d7 ff ff       	callq  10bae <safe_mod_func_uint8_t_u_u>
   1348c:	84 c0                	test   %al,%al
   1348e:	75 10                	jne    134a0 <func_6+0x12c1>
   13490:	48 8b 05 f1 84 01 00 	mov    0x184f1(%rip),%rax        # 2b988 <g_835>
   13497:	48 8b 00             	mov    (%rax),%rax
   1349a:	8b 00                	mov    (%rax),%eax
   1349c:	85 c0                	test   %eax,%eax
   1349e:	74 07                	je     134a7 <func_6+0x12c8>
   134a0:	ba 01 00 00 00       	mov    $0x1,%edx
   134a5:	eb 05                	jmp    134ac <func_6+0x12cd>
   134a7:	ba 00 00 00 00       	mov    $0x0,%edx
   134ac:	48 8b 05 e5 85 01 00 	mov    0x185e5(%rip),%rax        # 2ba98 <g_1122>
   134b3:	48 8b 08             	mov    (%rax),%rcx
   134b6:	48 63 d2             	movslq %edx,%rdx
   134b9:	48 8b 05 d8 85 01 00 	mov    0x185d8(%rip),%rax        # 2ba98 <g_1122>
   134c0:	48 31 ca             	xor    %rcx,%rdx
   134c3:	48 89 10             	mov    %rdx,(%rax)
   134c6:	48 8b 08             	mov    (%rax),%rcx
   134c9:	8b 85 fc e7 ff ff    	mov    -0x1804(%rbp),%eax
   134cf:	48 63 d0             	movslq %eax,%rdx
   134d2:	48 8b 85 38 ea ff ff 	mov    -0x15c8(%rbp),%rax
   134d9:	48 8b 00             	mov    (%rax),%rax
   134dc:	48 21 c1             	and    %rax,%rcx
   134df:	48 8b 85 38 ea ff ff 	mov    -0x15c8(%rbp),%rax
   134e6:	48 89 08             	mov    %rcx,(%rax)
   134e9:	48 8b 85 38 ea ff ff 	mov    -0x15c8(%rbp),%rax
   134f0:	48 8b 00             	mov    (%rax),%rax
   134f3:	48 39 c2             	cmp    %rax,%rdx
   134f6:	48 81 bd e8 e7 ff ff 	cmpq   $0xa51,-0x1818(%rbp)
   134fd:	51 0a 00 00 
   13501:	0f 9e c0             	setle  %al
   13504:	0f b6 c0             	movzbl %al,%eax
   13507:	0b 85 fc e7 ff ff    	or     -0x1804(%rbp),%eax
   1350d:	89 c2                	mov    %eax,%edx
   1350f:	48 8d 05 32 37 01 00 	lea    0x13732(%rip),%rax        # 26c48 <g_556>
   13516:	0f b7 00             	movzwl (%rax),%eax
   13519:	98                   	cwtl   
   1351a:	39 c2                	cmp    %eax,%edx
   1351c:	0f 9e c0             	setle  %al
   1351f:	0f b6 c8             	movzbl %al,%ecx
   13522:	48 8b 05 7f 85 01 00 	mov    0x1857f(%rip),%rax        # 2baa8 <g_1228>
   13529:	8b 10                	mov    (%rax),%edx
   1352b:	48 8b 05 76 85 01 00 	mov    0x18576(%rip),%rax        # 2baa8 <g_1228>
   13532:	21 ca                	and    %ecx,%edx
   13534:	89 10                	mov    %edx,(%rax)
   13536:	0f b6 85 f8 e7 ff ff 	movzbl -0x1808(%rbp),%eax
   1353d:	88 85 12 e8 ff ff    	mov    %al,-0x17ee(%rbp)
   13543:	48 8b 05 5e 85 01 00 	mov    0x1855e(%rip),%rax        # 2baa8 <g_1228>
   1354a:	0f b6 95 12 e8 ff ff 	movzbl -0x17ee(%rbp),%edx
   13551:	89 10                	mov    %edx,(%rax)
   13553:	48 8b 15 8e 97 01 00 	mov    0x1978e(%rip),%rdx        # 2cce8 <g_2491>
   1355a:	48 8b 05 87 97 01 00 	mov    0x19787(%rip),%rax        # 2cce8 <g_2491>
   13561:	48 8b 12             	mov    (%rdx),%rdx
   13564:	48 89 10             	mov    %rdx,(%rax)
   13567:	0f b7 05 2a 2b 01 00 	movzwl 0x12b2a(%rip),%eax        # 26098 <g_168>
   1356e:	83 c0 01             	add    $0x1,%eax
   13571:	66 89 05 20 2b 01 00 	mov    %ax,0x12b20(%rip)        # 26098 <g_168>
   13578:	0f b7 05 19 2b 01 00 	movzwl 0x12b19(%rip),%eax        # 26098 <g_168>
   1357f:	66 83 f8 02          	cmp    $0x2,%ax
   13583:	0f 86 ae fe ff ff    	jbe    13437 <func_6+0x1258>
   13589:	0f b6 85 13 e8 ff ff 	movzbl -0x17ed(%rbp),%eax
   13590:	83 e8 01             	sub    $0x1,%eax
   13593:	88 85 13 e8 ff ff    	mov    %al,-0x17ed(%rbp)
   13599:	48 83 ad 20 e9 ff ff 	subq   $0x1,-0x16e0(%rbp)
   135a0:	01 
   135a1:	8b 05 b5 2a 01 00    	mov    0x12ab5(%rip),%eax        # 2605c <g_120>
   135a7:	83 e8 01             	sub    $0x1,%eax
   135aa:	89 05 ac 2a 01 00    	mov    %eax,0x12aac(%rip)        # 2605c <g_120>
   135b0:	8b 05 a6 2a 01 00    	mov    0x12aa6(%rip),%eax        # 2605c <g_120>
   135b6:	85 c0                	test   %eax,%eax
   135b8:	0f 8f 5a f9 ff ff    	jg     12f18 <func_6+0xd39>
   135be:	66 83 85 f0 e7 ff ff 	addw   $0x1,-0x1810(%rbp)
   135c5:	01 
   135c6:	66 83 bd f0 e7 ff ff 	cmpw   $0x17,-0x1810(%rbp)
   135cd:	17 
   135ce:	0f 86 74 f3 ff ff    	jbe    12948 <func_6+0x769>
   135d4:	48 8d 85 f4 e7 ff ff 	lea    -0x180c(%rbp),%rax
   135db:	48 39 85 88 e9 ff ff 	cmp    %rax,-0x1678(%rbp)
   135e2:	0f 95 c0             	setne  %al
   135e5:	0f b6 c0             	movzbl %al,%eax
   135e8:	39 85 fc e7 ff ff    	cmp    %eax,-0x1804(%rbp)
   135ee:	0f 9e c0             	setle  %al
   135f1:	0f b6 d8             	movzbl %al,%ebx
   135f4:	48 8b 05 5d 9b 01 00 	mov    0x19b5d(%rip),%rax        # 2d158 <g_3753>
   135fb:	48 89 85 80 e9 ff ff 	mov    %rax,-0x1680(%rbp)
   13602:	48 8d 05 97 bb 01 00 	lea    0x1bb97(%rip),%rax        # 2f1a0 <g_3754>
   13609:	48 39 85 80 e9 ff ff 	cmp    %rax,-0x1680(%rbp)
   13610:	0f 94 c0             	sete   %al
   13613:	0f b6 c0             	movzbl %al,%eax
   13616:	be 0b 00 00 00       	mov    $0xb,%esi
   1361b:	89 c7                	mov    %eax,%edi
   1361d:	e8 26 d8 ff ff       	callq  10e48 <safe_rshift_func_uint16_t_u_s>
   13622:	0f be c0             	movsbl %al,%eax
   13625:	89 de                	mov    %ebx,%esi
   13627:	89 c7                	mov    %eax,%edi
   13629:	e8 e4 cb ff ff       	callq  10212 <safe_mul_func_int8_t_s_s>
   1362e:	0f be d8             	movsbl %al,%ebx
   13631:	8b 85 f4 e7 ff ff    	mov    -0x180c(%rbp),%eax
   13637:	41 89 c4             	mov    %eax,%r12d
   1363a:	48 8b 05 b7 7c 01 00 	mov    0x17cb7(%rip),%rax        # 2b2f8 <g_197>
   13641:	8b 00                	mov    (%rax),%eax
   13643:	3d 7e b0 00 00       	cmp    $0xb07e,%eax
   13648:	0f 9f c0             	setg   %al
   1364b:	0f b6 c0             	movzbl %al,%eax
   1364e:	be 2a 18 00 00       	mov    $0x182a,%esi
   13653:	89 c7                	mov    %eax,%edi
   13655:	e8 e3 d6 ff ff       	callq  10d3d <safe_mul_func_uint16_t_u_u>
   1365a:	66 85 c0             	test   %ax,%ax
   1365d:	0f 94 c0             	sete   %al
   13660:	0f b6 d0             	movzbl %al,%edx
   13663:	8b 85 f4 e7 ff ff    	mov    -0x180c(%rbp),%eax
   13669:	39 c2                	cmp    %eax,%edx
   1366b:	75 0d                	jne    1367a <func_6+0x149b>
   1366d:	48 8d 05 d4 35 01 00 	lea    0x135d4(%rip),%rax        # 26c48 <g_556>
   13674:	0f b7 00             	movzwl (%rax),%eax
   13677:	66 85 c0             	test   %ax,%ax
   1367a:	48 8b 85 88 e9 ff ff 	mov    -0x1678(%rbp),%rax
   13681:	8b 10                	mov    (%rax),%edx
   13683:	8b 85 20 e8 ff ff    	mov    -0x17e0(%rbp),%eax
   13689:	39 c2                	cmp    %eax,%edx
   1368b:	75 07                	jne    13694 <func_6+0x14b5>
   1368d:	b8 f7 ff ff ff       	mov    $0xfffffff7,%eax
   13692:	eb 05                	jmp    13699 <func_6+0x14ba>
   13694:	b8 f6 ff ff ff       	mov    $0xfffffff6,%eax
   13699:	44 89 e6             	mov    %r12d,%esi
   1369c:	89 c7                	mov    %eax,%edi
   1369e:	e8 c9 cc ff ff       	callq  1036c <safe_rshift_func_int8_t_s_u>
   136a3:	0f be c0             	movsbl %al,%eax
   136a6:	39 85 fc e7 ff ff    	cmp    %eax,-0x1804(%rbp)
   136ac:	0f 95 c0             	setne  %al
   136af:	0f b6 c0             	movzbl %al,%eax
   136b2:	21 d8                	and    %ebx,%eax
   136b4:	48 98                	cltq   
   136b6:	be 00 00 00 00       	mov    $0x0,%esi
   136bb:	48 89 c7             	mov    %rax,%rdi
   136be:	e8 6b d9 ff ff       	callq  1102e <safe_add_func_uint64_t_u_u>
   136c3:	be 0d 00 00 00       	mov    $0xd,%esi
   136c8:	bf a5 4e 00 00       	mov    $0x4ea5,%edi
   136cd:	e8 91 ce ff ff       	callq  10563 <safe_rshift_func_int16_t_s_u>
   136d2:	98                   	cwtl   
   136d3:	0b 85 fc e7 ff ff    	or     -0x1804(%rbp),%eax
   136d9:	85 c0                	test   %eax,%eax
   136db:	74 11                	je     136ee <func_6+0x150f>
   136dd:	66 83 bd f0 e7 ff ff 	cmpw   $0x0,-0x1810(%rbp)
   136e4:	00 
   136e5:	74 07                	je     136ee <func_6+0x150f>
   136e7:	b8 01 00 00 00       	mov    $0x1,%eax
   136ec:	eb 05                	jmp    136f3 <func_6+0x1514>
   136ee:	b8 00 00 00 00       	mov    $0x0,%eax
   136f3:	3d b0 00 00 00       	cmp    $0xb0,%eax
   136f8:	0f 9e c0             	setle  %al
   136fb:	0f b6 d0             	movzbl %al,%edx
   136fe:	48 8b 05 8b 82 01 00 	mov    0x1828b(%rip),%rax        # 2b990 <g_834>
   13705:	48 8b 00             	mov    (%rax),%rax
   13708:	48 8b 00             	mov    (%rax),%rax
   1370b:	8b 00                	mov    (%rax),%eax
   1370d:	39 c2                	cmp    %eax,%edx
   1370f:	0f 85 8a 09 00 00    	jne    1409f <func_6+0x1ec0>
   13715:	48 8d 85 1c e8 ff ff 	lea    -0x17e4(%rbp),%rax
   1371c:	48 89 85 b0 eb ff ff 	mov    %rax,-0x1450(%rbp)
   13723:	48 c7 85 b8 eb ff ff 	movq   $0x0,-0x1448(%rbp)
   1372a:	00 00 00 00 
   1372e:	48 8d 85 88 ea ff ff 	lea    -0x1578(%rbp),%rax
   13735:	48 89 85 c0 eb ff ff 	mov    %rax,-0x1440(%rbp)
   1373c:	48 8d 85 88 ea ff ff 	lea    -0x1578(%rbp),%rax
   13743:	48 89 85 c8 eb ff ff 	mov    %rax,-0x1438(%rbp)
   1374a:	48 8d 85 88 ea ff ff 	lea    -0x1578(%rbp),%rax
   13751:	48 89 85 d0 eb ff ff 	mov    %rax,-0x1430(%rbp)
   13758:	48 c7 85 d8 eb ff ff 	movq   $0x0,-0x1428(%rbp)
   1375f:	00 00 00 00 
   13763:	48 8d 85 1c e8 ff ff 	lea    -0x17e4(%rbp),%rax
   1376a:	48 89 85 e0 eb ff ff 	mov    %rax,-0x1420(%rbp)
   13771:	48 c7 85 e8 eb ff ff 	movq   $0x0,-0x1418(%rbp)
   13778:	00 00 00 00 
   1377c:	48 8d 85 88 ea ff ff 	lea    -0x1578(%rbp),%rax
   13783:	48 89 85 f0 eb ff ff 	mov    %rax,-0x1410(%rbp)
   1378a:	48 8d 85 88 ea ff ff 	lea    -0x1578(%rbp),%rax
   13791:	48 89 85 f8 eb ff ff 	mov    %rax,-0x1408(%rbp)
   13798:	48 8d 85 28 e8 ff ff 	lea    -0x17d8(%rbp),%rax
   1379f:	48 89 85 00 ec ff ff 	mov    %rax,-0x1400(%rbp)
   137a6:	48 8d 85 1c e8 ff ff 	lea    -0x17e4(%rbp),%rax
   137ad:	48 89 85 08 ec ff ff 	mov    %rax,-0x13f8(%rbp)
   137b4:	48 8d 85 88 ea ff ff 	lea    -0x1578(%rbp),%rax
   137bb:	48 89 85 10 ec ff ff 	mov    %rax,-0x13f0(%rbp)
   137c2:	48 8d 85 1c e8 ff ff 	lea    -0x17e4(%rbp),%rax
   137c9:	48 89 85 18 ec ff ff 	mov    %rax,-0x13e8(%rbp)
   137d0:	48 8d 85 28 e8 ff ff 	lea    -0x17d8(%rbp),%rax
   137d7:	48 89 85 20 ec ff ff 	mov    %rax,-0x13e0(%rbp)
   137de:	48 8d 05 4b b9 01 00 	lea    0x1b94b(%rip),%rax        # 2f130 <g_1323>
   137e5:	48 89 85 00 ea ff ff 	mov    %rax,-0x1600(%rbp)
   137ec:	48 c7 85 10 e9 ff ff 	movq   $0x0,-0x16f0(%rbp)
   137f3:	00 00 00 00 
   137f7:	48 8d 85 10 e9 ff ff 	lea    -0x16f0(%rbp),%rax
   137fe:	48 89 85 08 ea ff ff 	mov    %rax,-0x15f8(%rbp)
   13805:	48 8b 05 9c b9 01 00 	mov    0x1b99c(%rip),%rax        # 2f1a8 <g_3767>
   1380c:	48 83 c0 01          	add    $0x1,%rax
   13810:	48 89 05 91 b9 01 00 	mov    %rax,0x1b991(%rip)        # 2f1a8 <g_3767>
   13817:	48 8b 05 8a 82 01 00 	mov    0x1828a(%rip),%rax        # 2baa8 <g_1228>
   1381e:	8b 08                	mov    (%rax),%ecx
   13820:	48 8b 85 10 ec ff ff 	mov    -0x13f0(%rbp),%rax
   13827:	48 39 85 38 e9 ff ff 	cmp    %rax,-0x16c8(%rbp)
   1382e:	0f 95 c0             	setne  %al
   13831:	0f b6 d0             	movzbl %al,%edx
   13834:	48 8b 05 6d 82 01 00 	mov    0x1826d(%rip),%rax        # 2baa8 <g_1228>
   1383b:	21 ca                	and    %ecx,%edx
   1383d:	89 10                	mov    %edx,(%rax)
   1383f:	c6 05 54 28 01 00 0a 	movb   $0xa,0x12854(%rip)        # 2609a <g_176>
   13846:	e9 73 07 00 00       	jmpq   13fbe <func_6+0x1ddf>
   1384b:	48 8d 05 d6 27 01 00 	lea    0x127d6(%rip),%rax        # 26028 <g_34>
   13852:	48 89 85 10 ea ff ff 	mov    %rax,-0x15f0(%rbp)
   13859:	48 8d 05 00 49 01 00 	lea    0x14900(%rip),%rax        # 28160 <g_3794>
   13860:	48 89 85 18 ea ff ff 	mov    %rax,-0x15e8(%rbp)
   13867:	c7 85 74 e8 ff ff 01 	movl   $0x1,-0x178c(%rbp)
   1386e:	00 00 00 
   13871:	c7 85 78 e8 ff ff fb 	movl   $0x313d25fb,-0x1788(%rbp)
   13878:	25 3d 31 
   1387b:	c7 85 7c e8 ff ff 00 	movl   $0x0,-0x1784(%rbp)
   13882:	00 00 00 
   13885:	c7 85 80 e8 ff ff f6 	movl   $0xfffffff6,-0x1780(%rbp)
   1388c:	ff ff ff 
   1388f:	c7 85 44 e8 ff ff 00 	movl   $0x0,-0x17bc(%rbp)
   13896:	00 00 00 
   13899:	eb 1a                	jmp    138b5 <func_6+0x16d6>
   1389b:	8b 85 44 e8 ff ff    	mov    -0x17bc(%rbp),%eax
   138a1:	48 98                	cltq   
   138a3:	c7 84 85 8c ea ff ff 	movl   $0xfc42344,-0x1574(%rbp,%rax,4)
   138aa:	44 23 c4 0f 
   138ae:	83 85 44 e8 ff ff 01 	addl   $0x1,-0x17bc(%rbp)
   138b5:	83 bd 44 e8 ff ff 00 	cmpl   $0x0,-0x17bc(%rbp)
   138bc:	7e dd                	jle    1389b <func_6+0x16bc>
   138be:	66 c7 05 69 3c 01 00 	movw   $0x0,0x13c69(%rip)        # 27530 <g_1246>
   138c5:	00 00 
   138c7:	e9 3c 06 00 00       	jmpq   13f08 <func_6+0x1d29>
   138cc:	48 8d 85 88 ea ff ff 	lea    -0x1578(%rbp),%rax
   138d3:	48 89 85 20 ea ff ff 	mov    %rax,-0x15e0(%rbp)
   138da:	48 8b 05 47 82 01 00 	mov    0x18247(%rip),%rax        # 2bb28 <g_1575>
   138e1:	48 8b 00             	mov    (%rax),%rax
   138e4:	48 8b 00             	mov    (%rax),%rax
   138e7:	48 8b 00             	mov    (%rax),%rax
   138ea:	48 8b 95 20 ea ff ff 	mov    -0x15e0(%rbp),%rdx
   138f1:	48 89 10             	mov    %rdx,(%rax)
   138f4:	48 8b 85 88 e9 ff ff 	mov    -0x1678(%rbp),%rax
   138fb:	8b 00                	mov    (%rax),%eax
   138fd:	85 c0                	test   %eax,%eax
   138ff:	74 14                	je     13915 <func_6+0x1736>
   13901:	48 8b 05 88 80 01 00 	mov    0x18088(%rip),%rax        # 2b990 <g_834>
   13908:	48 8b 00             	mov    (%rax),%rax
   1390b:	48 8b 00             	mov    (%rax),%rax
   1390e:	8b 00                	mov    (%rax),%eax
   13910:	e9 ad 12 00 00       	jmpq   14bc2 <func_6+0x29e3>
   13915:	c7 85 84 e8 ff ff cb 	movl   $0xd46ccdcb,-0x177c(%rbp)
   1391c:	cd 6c d4 
   1391f:	48 8d 85 f0 ee ff ff 	lea    -0x1110(%rbp),%rax
   13926:	48 8d 15 f3 61 01 00 	lea    0x161f3(%rip),%rdx        # 29b20 <g_4305+0x10f8>
   1392d:	b9 78 00 00 00       	mov    $0x78,%ecx
   13932:	48 89 c7             	mov    %rax,%rdi
   13935:	48 89 d6             	mov    %rdx,%rsi
   13938:	f3 48 a5             	rep movsq %ds:(%rsi),%es:(%rdi)
   1393b:	48 8d 05 56 27 01 00 	lea    0x12756(%rip),%rax        # 26098 <g_168>
   13942:	48 89 85 70 ed ff ff 	mov    %rax,-0x1290(%rbp)
   13949:	48 8d 05 94 3b 01 00 	lea    0x13b94(%rip),%rax        # 274e4 <g_955>
   13950:	48 89 85 78 ed ff ff 	mov    %rax,-0x1288(%rbp)
   13957:	48 8d 05 3a 27 01 00 	lea    0x1273a(%rip),%rax        # 26098 <g_168>
   1395e:	48 89 85 80 ed ff ff 	mov    %rax,-0x1280(%rbp)
   13965:	48 8d 05 2c 27 01 00 	lea    0x1272c(%rip),%rax        # 26098 <g_168>
   1396c:	48 89 85 88 ed ff ff 	mov    %rax,-0x1278(%rbp)
   13973:	48 8d 85 14 e8 ff ff 	lea    -0x17ec(%rbp),%rax
   1397a:	48 89 85 90 ed ff ff 	mov    %rax,-0x1270(%rbp)
   13981:	48 8d 85 14 e8 ff ff 	lea    -0x17ec(%rbp),%rax
   13988:	48 89 85 98 ed ff ff 	mov    %rax,-0x1268(%rbp)
   1398f:	48 8d 05 4e 3b 01 00 	lea    0x13b4e(%rip),%rax        # 274e4 <g_955>
   13996:	48 89 85 a0 ed ff ff 	mov    %rax,-0x1260(%rbp)
   1399d:	48 8d 05 40 3b 01 00 	lea    0x13b40(%rip),%rax        # 274e4 <g_955>
   139a4:	48 89 85 a8 ed ff ff 	mov    %rax,-0x1258(%rbp)
   139ab:	48 8d 05 32 3b 01 00 	lea    0x13b32(%rip),%rax        # 274e4 <g_955>
   139b2:	48 89 85 b0 ed ff ff 	mov    %rax,-0x1250(%rbp)
   139b9:	48 8d 05 d8 26 01 00 	lea    0x126d8(%rip),%rax        # 26098 <g_168>
   139c0:	48 89 85 b8 ed ff ff 	mov    %rax,-0x1248(%rbp)
   139c7:	48 8d 05 16 3b 01 00 	lea    0x13b16(%rip),%rax        # 274e4 <g_955>
   139ce:	48 89 85 c0 ed ff ff 	mov    %rax,-0x1240(%rbp)
   139d5:	48 8d 05 bc 26 01 00 	lea    0x126bc(%rip),%rax        # 26098 <g_168>
   139dc:	48 89 85 c8 ed ff ff 	mov    %rax,-0x1238(%rbp)
   139e3:	48 8d 85 14 e8 ff ff 	lea    -0x17ec(%rbp),%rax
   139ea:	48 89 85 d0 ed ff ff 	mov    %rax,-0x1230(%rbp)
   139f1:	48 c7 85 d8 ed ff ff 	movq   $0x0,-0x1228(%rbp)
   139f8:	00 00 00 00 
   139fc:	48 8d 05 95 26 01 00 	lea    0x12695(%rip),%rax        # 26098 <g_168>
   13a03:	48 89 85 e0 ed ff ff 	mov    %rax,-0x1220(%rbp)
   13a0a:	48 8d 05 d3 3a 01 00 	lea    0x13ad3(%rip),%rax        # 274e4 <g_955>
   13a11:	48 89 85 e8 ed ff ff 	mov    %rax,-0x1218(%rbp)
   13a18:	48 8d 05 79 26 01 00 	lea    0x12679(%rip),%rax        # 26098 <g_168>
   13a1f:	48 89 85 f0 ed ff ff 	mov    %rax,-0x1210(%rbp)
   13a26:	48 c7 85 f8 ed ff ff 	movq   $0x0,-0x1208(%rbp)
   13a2d:	00 00 00 00 
   13a31:	48 c7 85 00 ee ff ff 	movq   $0x0,-0x1200(%rbp)
   13a38:	00 00 00 00 
   13a3c:	48 8d 05 55 26 01 00 	lea    0x12655(%rip),%rax        # 26098 <g_168>
   13a43:	48 89 85 08 ee ff ff 	mov    %rax,-0x11f8(%rbp)
   13a4a:	48 c7 85 10 ee ff ff 	movq   $0x0,-0x11f0(%rbp)
   13a51:	00 00 00 00 
   13a55:	48 8d 05 3c 26 01 00 	lea    0x1263c(%rip),%rax        # 26098 <g_168>
   13a5c:	48 89 85 18 ee ff ff 	mov    %rax,-0x11e8(%rbp)
   13a63:	48 8d 85 14 e8 ff ff 	lea    -0x17ec(%rbp),%rax
   13a6a:	48 89 85 20 ee ff ff 	mov    %rax,-0x11e0(%rbp)
   13a71:	48 8d 05 6c 3a 01 00 	lea    0x13a6c(%rip),%rax        # 274e4 <g_955>
   13a78:	48 89 85 28 ee ff ff 	mov    %rax,-0x11d8(%rbp)
   13a7f:	48 c7 85 30 ee ff ff 	movq   $0x0,-0x11d0(%rbp)
   13a86:	00 00 00 00 
   13a8a:	48 8d 85 14 e8 ff ff 	lea    -0x17ec(%rbp),%rax
   13a91:	48 89 85 38 ee ff ff 	mov    %rax,-0x11c8(%rbp)
   13a98:	48 c7 85 40 ee ff ff 	movq   $0x0,-0x11c0(%rbp)
   13a9f:	00 00 00 00 
   13aa3:	48 8d 05 ee 25 01 00 	lea    0x125ee(%rip),%rax        # 26098 <g_168>
   13aaa:	48 89 85 48 ee ff ff 	mov    %rax,-0x11b8(%rbp)
   13ab1:	48 8d 05 e0 25 01 00 	lea    0x125e0(%rip),%rax        # 26098 <g_168>
   13ab8:	48 89 85 50 ee ff ff 	mov    %rax,-0x11b0(%rbp)
   13abf:	48 8d 05 1e 3a 01 00 	lea    0x13a1e(%rip),%rax        # 274e4 <g_955>
   13ac6:	48 89 85 58 ee ff ff 	mov    %rax,-0x11a8(%rbp)
   13acd:	48 8d 05 c4 25 01 00 	lea    0x125c4(%rip),%rax        # 26098 <g_168>
   13ad4:	48 89 85 60 ee ff ff 	mov    %rax,-0x11a0(%rbp)
   13adb:	48 8d 05 b6 25 01 00 	lea    0x125b6(%rip),%rax        # 26098 <g_168>
   13ae2:	48 89 85 68 ee ff ff 	mov    %rax,-0x1198(%rbp)
   13ae9:	48 8d 85 14 e8 ff ff 	lea    -0x17ec(%rbp),%rax
   13af0:	48 89 85 70 ee ff ff 	mov    %rax,-0x1190(%rbp)
   13af7:	48 8d 85 14 e8 ff ff 	lea    -0x17ec(%rbp),%rax
   13afe:	48 89 85 78 ee ff ff 	mov    %rax,-0x1188(%rbp)
   13b05:	48 8d 05 d8 39 01 00 	lea    0x139d8(%rip),%rax        # 274e4 <g_955>
   13b0c:	48 89 85 80 ee ff ff 	mov    %rax,-0x1180(%rbp)
   13b13:	48 8d 05 ca 39 01 00 	lea    0x139ca(%rip),%rax        # 274e4 <g_955>
   13b1a:	48 89 85 88 ee ff ff 	mov    %rax,-0x1178(%rbp)
   13b21:	48 8d 05 bc 39 01 00 	lea    0x139bc(%rip),%rax        # 274e4 <g_955>
   13b28:	48 89 85 90 ee ff ff 	mov    %rax,-0x1170(%rbp)
   13b2f:	48 8d 05 62 25 01 00 	lea    0x12562(%rip),%rax        # 26098 <g_168>
   13b36:	48 89 85 98 ee ff ff 	mov    %rax,-0x1168(%rbp)
   13b3d:	48 8d 05 a0 39 01 00 	lea    0x139a0(%rip),%rax        # 274e4 <g_955>
   13b44:	48 89 85 a0 ee ff ff 	mov    %rax,-0x1160(%rbp)
   13b4b:	48 8d 05 46 25 01 00 	lea    0x12546(%rip),%rax        # 26098 <g_168>
   13b52:	48 89 85 a8 ee ff ff 	mov    %rax,-0x1158(%rbp)
   13b59:	48 8d 85 14 e8 ff ff 	lea    -0x17ec(%rbp),%rax
   13b60:	48 89 85 b0 ee ff ff 	mov    %rax,-0x1150(%rbp)
   13b67:	48 c7 85 b8 ee ff ff 	movq   $0x0,-0x1148(%rbp)
   13b6e:	00 00 00 00 
   13b72:	48 8d 05 1f 25 01 00 	lea    0x1251f(%rip),%rax        # 26098 <g_168>
   13b79:	48 89 85 c0 ee ff ff 	mov    %rax,-0x1140(%rbp)
   13b80:	48 8d 05 5d 39 01 00 	lea    0x1395d(%rip),%rax        # 274e4 <g_955>
   13b87:	48 89 85 c8 ee ff ff 	mov    %rax,-0x1138(%rbp)
   13b8e:	48 8d 05 03 25 01 00 	lea    0x12503(%rip),%rax        # 26098 <g_168>
   13b95:	48 89 85 d0 ee ff ff 	mov    %rax,-0x1130(%rbp)
   13b9c:	48 c7 85 d8 ee ff ff 	movq   $0x0,-0x1128(%rbp)
   13ba3:	00 00 00 00 
   13ba7:	48 c7 85 e0 ee ff ff 	movq   $0x0,-0x1120(%rbp)
   13bae:	00 00 00 00 
   13bb2:	48 8d 05 df 24 01 00 	lea    0x124df(%rip),%rax        # 26098 <g_168>
   13bb9:	48 89 85 e8 ee ff ff 	mov    %rax,-0x1118(%rbp)
   13bc0:	c7 85 88 e8 ff ff 01 	movl   $0x1,-0x1778(%rbp)
   13bc7:	00 00 00 
   13bca:	48 8d 85 0c e8 ff ff 	lea    -0x17f4(%rbp),%rax
   13bd1:	48 89 85 28 ea ff ff 	mov    %rax,-0x15d8(%rbp)
   13bd8:	c7 85 48 e8 ff ff 00 	movl   $0x0,-0x17b8(%rbp)
   13bdf:	00 00 00 
   13be2:	eb 4c                	jmp    13c30 <func_6+0x1a51>
   13be4:	c7 85 4c e8 ff ff 00 	movl   $0x0,-0x17b4(%rbp)
   13beb:	00 00 00 
   13bee:	eb 30                	jmp    13c20 <func_6+0x1a41>
   13bf0:	8b 85 4c e8 ff ff    	mov    -0x17b4(%rbp),%eax
   13bf6:	48 63 c8             	movslq %eax,%rcx
   13bf9:	8b 85 48 e8 ff ff    	mov    -0x17b8(%rbp),%eax
   13bff:	48 63 d0             	movslq %eax,%rdx
   13c02:	48 89 d0             	mov    %rdx,%rax
   13c05:	48 01 c0             	add    %rax,%rax
   13c08:	48 01 d0             	add    %rdx,%rax
   13c0b:	48 01 c8             	add    %rcx,%rax
   13c0e:	c7 84 85 00 eb ff ff 	movl   $0xe437834a,-0x1500(%rbp,%rax,4)
   13c15:	4a 83 37 e4 
   13c19:	83 85 4c e8 ff ff 01 	addl   $0x1,-0x17b4(%rbp)
   13c20:	83 bd 4c e8 ff ff 02 	cmpl   $0x2,-0x17b4(%rbp)
   13c27:	7e c7                	jle    13bf0 <func_6+0x1a11>
   13c29:	83 85 48 e8 ff ff 01 	addl   $0x1,-0x17b8(%rbp)
   13c30:	83 bd 48 e8 ff ff 03 	cmpl   $0x3,-0x17b8(%rbp)
   13c37:	7e ab                	jle    13be4 <func_6+0x1a05>
   13c39:	48 8b 05 e8 7e 01 00 	mov    0x17ee8(%rip),%rax        # 2bb28 <g_1575>
   13c40:	48 8b 00             	mov    (%rax),%rax
   13c43:	48 8b 00             	mov    (%rax),%rax
   13c46:	48 8b 18             	mov    (%rax),%rbx
   13c49:	48 8b 95 10 ea ff ff 	mov    -0x15f0(%rbp),%rdx
   13c50:	48 8b 85 10 ea ff ff 	mov    -0x15f0(%rbp),%rax
   13c57:	48 89 d6             	mov    %rdx,%rsi
   13c5a:	48 89 c7             	mov    %rax,%rdi
   13c5d:	e8 58 ad 00 00       	callq  1e9ba <func_96>
   13c62:	48 89 03             	mov    %rax,(%rbx)
   13c65:	0f b7 85 f0 e7 ff ff 	movzwl -0x1810(%rbp),%eax
   13c6c:	0f be d8             	movsbl %al,%ebx
   13c6f:	48 8b 85 10 ea ff ff 	mov    -0x15f0(%rbp),%rax
   13c76:	8b 10                	mov    (%rax),%edx
   13c78:	48 8b 85 20 ea ff ff 	mov    -0x15e0(%rbp),%rax
   13c7f:	89 10                	mov    %edx,(%rax)
   13c81:	48 8b 85 f8 e8 ff ff 	mov    -0x1708(%rbp),%rax
   13c88:	41 89 c6             	mov    %eax,%r14d
   13c8b:	48 8b 85 88 e9 ff ff 	mov    -0x1678(%rbp),%rax
   13c92:	44 8b 20             	mov    (%rax),%r12d
   13c95:	48 8b 85 c8 e8 ff ff 	mov    -0x1738(%rbp),%rax
   13c9c:	48 8b 00             	mov    (%rax),%rax
   13c9f:	48 8b 00             	mov    (%rax),%rax
   13ca2:	8b 00                	mov    (%rax),%eax
   13ca4:	4c 63 e8             	movslq %eax,%r13
   13ca7:	0f b6 85 f8 e7 ff ff 	movzbl -0x1808(%rbp),%eax
   13cae:	be 2f 00 00 00       	mov    $0x2f,%esi
   13cb3:	89 c7                	mov    %eax,%edi
   13cb5:	e8 a0 ce ff ff       	callq  10b5a <safe_add_func_uint8_t_u_u>
   13cba:	48 be 97 df ab da c1 	movabs $0x54eff3c1daabdf97,%rsi
   13cc1:	f3 ef 54 
   13cc4:	bf 9d 00 00 00       	mov    $0x9d,%edi
   13cc9:	e8 60 d3 ff ff       	callq  1102e <safe_add_func_uint64_t_u_u>
   13cce:	b8 01 00 00 00       	mov    $0x1,%eax
   13cd3:	83 f8 01             	cmp    $0x1,%eax
   13cd6:	75 07                	jne    13cdf <func_6+0x1b00>
   13cd8:	b8 06 00 00 00       	mov    $0x6,%eax
   13cdd:	eb 05                	jmp    13ce4 <func_6+0x1b05>
   13cdf:	b8 07 00 00 00       	mov    $0x7,%eax
   13ce4:	4c 31 e8             	xor    %r13,%rax
   13ce7:	48 89 c2             	mov    %rax,%rdx
   13cea:	48 8b 85 e8 e7 ff ff 	mov    -0x1818(%rbp),%rax
   13cf1:	48 39 c2             	cmp    %rax,%rdx
   13cf4:	0f 92 c0             	setb   %al
   13cf7:	0f b6 c0             	movzbl %al,%eax
   13cfa:	41 39 c4             	cmp    %eax,%r12d
   13cfd:	0f 95 c2             	setne  %dl
   13d00:	48 8b 05 a1 7d 01 00 	mov    0x17da1(%rip),%rax        # 2baa8 <g_1228>
   13d07:	0f b6 d2             	movzbl %dl,%edx
   13d0a:	89 10                	mov    %edx,(%rax)
   13d0c:	8b 00                	mov    (%rax),%eax
   13d0e:	44 89 f6             	mov    %r14d,%esi
   13d11:	89 c7                	mov    %eax,%edi
   13d13:	e8 ed c8 ff ff       	callq  10605 <safe_sub_func_int32_t_s_s>
   13d18:	48 8b 85 c8 e8 ff ff 	mov    -0x1738(%rbp),%rax
   13d1f:	48 8b 00             	mov    (%rax),%rax
   13d22:	48 8b 00             	mov    (%rax),%rax
   13d25:	8b 00                	mov    (%rax),%eax
   13d27:	89 c2                	mov    %eax,%edx
   13d29:	48 8b 05 c0 7c 01 00 	mov    0x17cc0(%rip),%rax        # 2b9f0 <g_909>
   13d30:	48 8b 00             	mov    (%rax),%rax
   13d33:	21 d0                	and    %edx,%eax
   13d35:	83 c8 35             	or     $0x35,%eax
   13d38:	0f be d0             	movsbl %al,%edx
   13d3b:	48 8b 85 c8 e8 ff ff 	mov    -0x1738(%rbp),%rax
   13d42:	48 8b 00             	mov    (%rax),%rax
   13d45:	48 8b 00             	mov    (%rax),%rax
   13d48:	8b 08                	mov    (%rax),%ecx
   13d4a:	48 8b 05 97 75 01 00 	mov    0x17597(%rip),%rax        # 2b2e8 <g_189>
   13d51:	88 08                	mov    %cl,(%rax)
   13d53:	0f b6 00             	movzbl (%rax),%eax
   13d56:	0f be c0             	movsbl %al,%eax
   13d59:	89 d6                	mov    %edx,%esi
   13d5b:	89 c7                	mov    %eax,%edi
   13d5d:	e8 90 c4 ff ff       	callq  101f2 <safe_sub_func_int8_t_s_s>
   13d62:	0f be c0             	movsbl %al,%eax
   13d65:	89 de                	mov    %ebx,%esi
   13d67:	89 c7                	mov    %eax,%edi
   13d69:	e8 66 c4 ff ff       	callq  101d4 <safe_add_func_int8_t_s_s>
   13d6e:	83 c8 e5             	or     $0xffffffe5,%eax
   13d71:	0f be c0             	movsbl %al,%eax
   13d74:	be a2 ff ff ff       	mov    $0xffffffa2,%esi
   13d79:	89 c7                	mov    %eax,%edi
   13d7b:	e8 92 c4 ff ff       	callq  10212 <safe_mul_func_int8_t_s_s>
   13d80:	0f be d0             	movsbl %al,%edx
   13d83:	0f b7 85 f0 e7 ff ff 	movzwl -0x1810(%rbp),%eax
   13d8a:	39 c2                	cmp    %eax,%edx
   13d8c:	0f 9c c2             	setl   %dl
   13d8f:	48 8b 05 aa 77 01 00 	mov    0x177aa(%rip),%rax        # 2b540 <g_454>
   13d96:	48 8b 00             	mov    (%rax),%rax
   13d99:	48 8b 00             	mov    (%rax),%rax
   13d9c:	0f b6 d2             	movzbl %dl,%edx
   13d9f:	89 10                	mov    %edx,(%rax)
   13da1:	48 8b 05 70 75 01 00 	mov    0x17570(%rip),%rax        # 2b318 <g_264>
   13da8:	48 8b 95 18 ea ff ff 	mov    -0x15e8(%rbp),%rdx
   13daf:	48 89 10             	mov    %rdx,(%rax)
   13db2:	48 8b 10             	mov    (%rax),%rdx
   13db5:	48 8b 85 30 ef ff ff 	mov    -0x10d0(%rbp),%rax
   13dbc:	48 39 c2             	cmp    %rax,%rdx
   13dbf:	0f 85 c5 00 00 00    	jne    13e8a <func_6+0x1cab>
   13dc5:	66 83 bd f0 e7 ff ff 	cmpw   $0x0,-0x1810(%rbp)
   13dcc:	00 
   13dcd:	41 0f 94 c4          	sete   %r12b
   13dd1:	48 8b 05 a0 78 01 00 	mov    0x178a0(%rip),%rax        # 2b678 <g_452>
   13dd8:	48 8b 00             	mov    (%rax),%rax
   13ddb:	48 8b 00             	mov    (%rax),%rax
   13dde:	48 8b 00             	mov    (%rax),%rax
   13de1:	48 8b 00             	mov    (%rax),%rax
   13de4:	8b 18                	mov    (%rax),%ebx
   13de6:	48 83 bd 00 ea ff ff 	cmpq   $0x0,-0x1600(%rbp)
   13ded:	00 
   13dee:	74 2e                	je     13e1e <func_6+0x1c3f>
   13df0:	be 63 00 00 00       	mov    $0x63,%esi
   13df5:	bf 01 00 00 00       	mov    $0x1,%edi
   13dfa:	e8 94 cd ff ff       	callq  10b93 <safe_mul_func_uint8_t_u_u>
   13dff:	3c 01                	cmp    $0x1,%al
   13e01:	0f 94 c0             	sete   %al
   13e04:	0f b6 c0             	movzbl %al,%eax
   13e07:	21 85 88 e8 ff ff    	and    %eax,-0x1778(%rbp)
   13e0d:	48 83 bd 28 ea ff ff 	cmpq   $0x0,-0x15d8(%rbp)
   13e14:	00 
   13e15:	75 07                	jne    13e1e <func_6+0x1c3f>
   13e17:	b8 01 00 00 00       	mov    $0x1,%eax
   13e1c:	eb 05                	jmp    13e23 <func_6+0x1c44>
   13e1e:	b8 00 00 00 00       	mov    $0x0,%eax
   13e23:	83 f8 f6             	cmp    $0xfffffff6,%eax
   13e26:	74 11                	je     13e39 <func_6+0x1c5a>
   13e28:	66 83 bd f0 e7 ff ff 	cmpw   $0x0,-0x1810(%rbp)
   13e2f:	00 
   13e30:	74 07                	je     13e39 <func_6+0x1c5a>
   13e32:	b8 01 00 00 00       	mov    $0x1,%eax
   13e37:	eb 05                	jmp    13e3e <func_6+0x1c5f>
   13e39:	b8 00 00 00 00       	mov    $0x0,%eax
   13e3e:	0f b7 c0             	movzwl %ax,%eax
   13e41:	be 06 00 00 00       	mov    $0x6,%esi
   13e46:	89 c7                	mov    %eax,%edi
   13e48:	e8 2d d0 ff ff       	callq  10e7a <safe_rshift_func_uint16_t_u_u>
   13e4d:	0f b7 c0             	movzwl %ax,%eax
   13e50:	39 85 fc e7 ff ff    	cmp    %eax,-0x1804(%rbp)
   13e56:	0f 9c c0             	setl   %al
   13e59:	0f b6 c0             	movzbl %al,%eax
   13e5c:	39 c3                	cmp    %eax,%ebx
   13e5e:	0f 9d c0             	setge  %al
   13e61:	44 89 e2             	mov    %r12d,%edx
   13e64:	09 c2                	or     %eax,%edx
   13e66:	48 8b 85 c8 e8 ff ff 	mov    -0x1738(%rbp),%rax
   13e6d:	48 8b 00             	mov    (%rax),%rax
   13e70:	48 8b 00             	mov    (%rax),%rax
   13e73:	0f b6 d2             	movzbl %dl,%edx
   13e76:	89 10                	mov    %edx,(%rax)
   13e78:	8b 00                	mov    (%rax),%eax
   13e7a:	89 c6                	mov    %eax,%esi
   13e7c:	bf 34 00 00 00       	mov    $0x34,%edi
   13e81:	e8 07 ce ff ff       	callq  10c8d <safe_rshift_func_uint8_t_u_s>
   13e86:	84 c0                	test   %al,%al
   13e88:	74 07                	je     13e91 <func_6+0x1cb2>
   13e8a:	ba 01 00 00 00       	mov    $0x1,%edx
   13e8f:	eb 05                	jmp    13e96 <func_6+0x1cb7>
   13e91:	ba 00 00 00 00       	mov    $0x0,%edx
   13e96:	48 8d 05 fb 3a 01 00 	lea    0x13afb(%rip),%rax        # 27998 <g_1678>
   13e9d:	89 10                	mov    %edx,(%rax)
   13e9f:	48 83 bd 08 ea ff ff 	cmpq   $0x0,-0x15f8(%rbp)
   13ea6:	00 
   13ea7:	0f 94 c0             	sete   %al
   13eaa:	0f b6 c0             	movzbl %al,%eax
   13ead:	89 c7                	mov    %eax,%edi
   13eaf:	e8 35 ce ff ff       	callq  10ce9 <safe_unary_minus_func_uint16_t_u>
   13eb4:	0f b7 d0             	movzwl %ax,%edx
   13eb7:	8b 85 f4 e7 ff ff    	mov    -0x180c(%rbp),%eax
   13ebd:	21 d0                	and    %edx,%eax
   13ebf:	89 85 f4 e7 ff ff    	mov    %eax,-0x180c(%rbp)
   13ec5:	8b 8d f4 e7 ff ff    	mov    -0x180c(%rbp),%ecx
   13ecb:	48 8b 05 5e 7c 01 00 	mov    0x17c5e(%rip),%rax        # 2bb30 <g_1577>
   13ed2:	48 8b 00             	mov    (%rax),%rax
   13ed5:	48 8b 00             	mov    (%rax),%rax
   13ed8:	48 8b 00             	mov    (%rax),%rax
   13edb:	48 8b 00             	mov    (%rax),%rax
   13ede:	8b 10                	mov    (%rax),%edx
   13ee0:	48 8b 05 49 7c 01 00 	mov    0x17c49(%rip),%rax        # 2bb30 <g_1577>
   13ee7:	48 8b 00             	mov    (%rax),%rax
   13eea:	48 8b 00             	mov    (%rax),%rax
   13eed:	48 8b 00             	mov    (%rax),%rax
   13ef0:	48 8b 00             	mov    (%rax),%rax
   13ef3:	21 ca                	and    %ecx,%edx
   13ef5:	89 10                	mov    %edx,(%rax)
   13ef7:	0f b7 05 32 36 01 00 	movzwl 0x13632(%rip),%eax        # 27530 <g_1246>
   13efe:	83 c0 01             	add    $0x1,%eax
   13f01:	66 89 05 28 36 01 00 	mov    %ax,0x13628(%rip)        # 27530 <g_1246>
   13f08:	0f b7 05 21 36 01 00 	movzwl 0x13621(%rip),%eax        # 27530 <g_1246>
   13f0f:	66 83 f8 01          	cmp    $0x1,%ax
   13f13:	0f 8e b3 f9 ff ff    	jle    138cc <func_6+0x16ed>
   13f19:	48 8b 85 10 ea ff ff 	mov    -0x15f0(%rbp),%rax
   13f20:	8b 18                	mov    (%rax),%ebx
   13f22:	48 8d 05 1f 2d 01 00 	lea    0x12d1f(%rip),%rax        # 26c48 <g_556>
   13f29:	0f b7 00             	movzwl (%rax),%eax
   13f2c:	98                   	cwtl   
   13f2d:	be 04 00 00 00       	mov    $0x4,%esi
   13f32:	89 c7                	mov    %eax,%edi
   13f34:	e8 a8 c5 ff ff       	callq  104e1 <safe_lshift_func_int16_t_s_u>
   13f39:	66 85 c0             	test   %ax,%ax
   13f3c:	74 11                	je     13f4f <func_6+0x1d70>
   13f3e:	66 83 bd 18 e8 ff ff 	cmpw   $0x0,-0x17e8(%rbp)
   13f45:	00 
   13f46:	74 07                	je     13f4f <func_6+0x1d70>
   13f48:	b8 01 00 00 00       	mov    $0x1,%eax
   13f4d:	eb 05                	jmp    13f54 <func_6+0x1d75>
   13f4f:	b8 00 00 00 00       	mov    $0x0,%eax
   13f54:	39 d8                	cmp    %ebx,%eax
   13f56:	0f 9c c0             	setl   %al
   13f59:	0f b6 c8             	movzbl %al,%ecx
   13f5c:	48 8d 05 35 3a 01 00 	lea    0x13a35(%rip),%rax        # 27998 <g_1678>
   13f63:	8b 10                	mov    (%rax),%edx
   13f65:	48 8d 05 2c 3a 01 00 	lea    0x13a2c(%rip),%rax        # 27998 <g_1678>
   13f6c:	31 ca                	xor    %ecx,%edx
   13f6e:	89 10                	mov    %edx,(%rax)
   13f70:	0f b6 85 0e e8 ff ff 	movzbl -0x17f2(%rbp),%eax
   13f77:	83 c0 01             	add    $0x1,%eax
   13f7a:	88 85 0e e8 ff ff    	mov    %al,-0x17f2(%rbp)
   13f80:	c6 05 5d 2d 01 00 02 	movb   $0x2,0x12d5d(%rip)        # 26ce4 <g_872>
   13f87:	90                   	nop
   13f88:	0f b6 05 55 2d 01 00 	movzbl 0x12d55(%rip),%eax        # 26ce4 <g_872>
   13f8f:	84 c0                	test   %al,%al
   13f91:	78 0e                	js     13fa1 <func_6+0x1dc2>
   13f93:	48 8b 85 10 ea ff ff 	mov    -0x15f0(%rbp),%rax
   13f9a:	8b 00                	mov    (%rax),%eax
   13f9c:	e9 21 0c 00 00       	jmpq   14bc2 <func_6+0x29e3>
   13fa1:	0f b6 05 f2 20 01 00 	movzbl 0x120f2(%rip),%eax        # 2609a <g_176>
   13fa8:	0f b6 c0             	movzbl %al,%eax
   13fab:	be 05 00 00 00       	mov    $0x5,%esi
   13fb0:	48 89 c7             	mov    %rax,%rdi
   13fb3:	e8 89 c8 ff ff       	callq  10841 <safe_add_func_int64_t_s_s>
   13fb8:	88 05 dc 20 01 00    	mov    %al,0x120dc(%rip)        # 2609a <g_176>
   13fbe:	0f b6 05 d5 20 01 00 	movzbl 0x120d5(%rip),%eax        # 2609a <g_176>
   13fc5:	3c 21                	cmp    $0x21,%al
   13fc7:	0f 87 7e f8 ff ff    	ja     1384b <func_6+0x166c>
   13fcd:	8b 9d fc e7 ff ff    	mov    -0x1804(%rbp),%ebx
   13fd3:	48 8b 05 c6 84 01 00 	mov    0x184c6(%rip),%rax        # 2c4a0 <g_2215>
   13fda:	0f b6 00             	movzbl (%rax),%eax
   13fdd:	44 0f b6 e0          	movzbl %al,%r12d
   13fe1:	44 0f b6 ad 10 e8 ff 	movzbl -0x17f0(%rbp),%r13d
   13fe8:	ff 
   13fe9:	8b 85 f4 e7 ff ff    	mov    -0x180c(%rbp),%eax
   13fef:	0f b7 c0             	movzwl %ax,%eax
   13ff2:	89 c7                	mov    %eax,%edi
   13ff4:	e8 f0 cc ff ff       	callq  10ce9 <safe_unary_minus_func_uint16_t_u>
   13ff9:	66 3d 7c 53          	cmp    $0x537c,%ax
   13ffd:	be ff 00 00 00       	mov    $0xff,%esi
   14002:	bf f6 00 00 00       	mov    $0xf6,%edi
   14007:	e8 4e cb ff ff       	callq  10b5a <safe_add_func_uint8_t_u_u>
   1400c:	0f b6 c0             	movzbl %al,%eax
   1400f:	44 89 ee             	mov    %r13d,%esi
   14012:	89 c7                	mov    %eax,%edi
   14014:	e8 95 cb ff ff       	callq  10bae <safe_mod_func_uint8_t_u_u>
   14019:	44 89 e6             	mov    %r12d,%esi
   1401c:	bf 00 00 00 00       	mov    $0x0,%edi
   14021:	e8 98 cc ff ff       	callq  10cbe <safe_rshift_func_uint8_t_u_u>
   14026:	0f b6 c0             	movzbl %al,%eax
   14029:	48 39 85 e8 e7 ff ff 	cmp    %rax,-0x1818(%rbp)
   14030:	0f 95 c0             	setne  %al
   14033:	0f b6 c0             	movzbl %al,%eax
   14036:	89 de                	mov    %ebx,%esi
   14038:	89 c7                	mov    %eax,%edi
   1403a:	e8 be ce ff ff       	callq  10efd <safe_mod_func_uint32_t_u_u>
   1403f:	48 8d 85 f4 e7 ff ff 	lea    -0x180c(%rbp),%rax
   14046:	be 00 00 00 00       	mov    $0x0,%esi
   1404b:	48 89 c7             	mov    %rax,%rdi
   1404e:	e8 67 a9 00 00       	callq  1e9ba <func_96>
   14053:	49 89 c4             	mov    %rax,%r12
   14056:	48 8b 95 10 ec ff ff 	mov    -0x13f0(%rbp),%rdx
   1405d:	48 8b 85 18 ec ff ff 	mov    -0x13e8(%rbp),%rax
   14064:	48 89 d6             	mov    %rdx,%rsi
   14067:	48 89 c7             	mov    %rax,%rdi
   1406a:	e8 4b a9 00 00       	callq  1e9ba <func_96>
   1406f:	48 89 c2             	mov    %rax,%rdx
   14072:	48 8b 05 af 7a 01 00 	mov    0x17aaf(%rip),%rax        # 2bb28 <g_1575>
   14079:	48 8b 00             	mov    (%rax),%rax
   1407c:	48 8b 00             	mov    (%rax),%rax
   1407f:	48 8b 18             	mov    (%rax),%rbx
   14082:	4c 89 e6             	mov    %r12,%rsi
   14085:	48 89 d7             	mov    %rdx,%rdi
   14088:	e8 2d a9 00 00       	callq  1e9ba <func_96>
   1408d:	48 89 03             	mov    %rax,(%rbx)
   14090:	48 8b 03             	mov    (%rbx),%rax
   14093:	48 89 85 d8 eb ff ff 	mov    %rax,-0x1428(%rbp)
   1409a:	e9 bf 07 00 00       	jmpq   1485e <func_6+0x267f>
   1409f:	48 8d 85 88 ea ff ff 	lea    -0x1578(%rbp),%rax
   140a6:	48 89 85 a0 e9 ff ff 	mov    %rax,-0x1660(%rbp)
   140ad:	c7 85 00 eb ff ff 6e 	movl   $0xcfbadc6e,-0x1500(%rbp)
   140b4:	dc ba cf 
   140b7:	c7 85 04 eb ff ff 6e 	movl   $0xcfbadc6e,-0x14fc(%rbp)
   140be:	dc ba cf 
   140c1:	c7 85 08 eb ff ff 6e 	movl   $0xcfbadc6e,-0x14f8(%rbp)
   140c8:	dc ba cf 
   140cb:	c7 85 0c eb ff ff 6e 	movl   $0xcfbadc6e,-0x14f4(%rbp)
   140d2:	dc ba cf 
   140d5:	c7 85 10 eb ff ff 6e 	movl   $0xcfbadc6e,-0x14f0(%rbp)
   140dc:	dc ba cf 
   140df:	c7 85 14 eb ff ff 6e 	movl   $0xcfbadc6e,-0x14ec(%rbp)
   140e6:	dc ba cf 
   140e9:	c7 85 18 eb ff ff 6e 	movl   $0xcfbadc6e,-0x14e8(%rbp)
   140f0:	dc ba cf 
   140f3:	c7 85 1c eb ff ff 6e 	movl   $0xcfbadc6e,-0x14e4(%rbp)
   140fa:	dc ba cf 
   140fd:	c7 85 20 eb ff ff 6e 	movl   $0xcfbadc6e,-0x14e0(%rbp)
   14104:	dc ba cf 
   14107:	c7 85 24 eb ff ff 6e 	movl   $0xcfbadc6e,-0x14dc(%rbp)
   1410e:	dc ba cf 
   14111:	48 c7 85 a8 e9 ff ff 	movq   $0xffffffffffffffff,-0x1658(%rbp)
   14118:	ff ff ff ff 
   1411c:	c7 85 50 e8 ff ff 00 	movl   $0x0,-0x17b0(%rbp)
   14123:	00 00 00 
   14126:	eb 51                	jmp    14179 <func_6+0x1f9a>
   14128:	c7 85 54 e8 ff ff 00 	movl   $0x0,-0x17ac(%rbp)
   1412f:	00 00 00 
   14132:	eb 35                	jmp    14169 <func_6+0x1f8a>
   14134:	8b 85 54 e8 ff ff    	mov    -0x17ac(%rbp),%eax
   1413a:	48 63 c8             	movslq %eax,%rcx
   1413d:	8b 85 50 e8 ff ff    	mov    -0x17b0(%rbp),%eax
   14143:	48 63 d0             	movslq %eax,%rdx
   14146:	48 89 d0             	mov    %rdx,%rax
   14149:	48 c1 e0 02          	shl    $0x2,%rax
   1414d:	48 01 d0             	add    %rdx,%rax
   14150:	48 01 c8             	add    %rcx,%rax
   14153:	48 8d 15 0e 1f 01 00 	lea    0x11f0e(%rip),%rdx        # 26068 <g_125>
   1415a:	48 89 94 c5 f0 ee ff 	mov    %rdx,-0x1110(%rbp,%rax,8)
   14161:	ff 
   14162:	83 85 54 e8 ff ff 01 	addl   $0x1,-0x17ac(%rbp)
   14169:	83 bd 54 e8 ff ff 04 	cmpl   $0x4,-0x17ac(%rbp)
   14170:	7e c2                	jle    14134 <func_6+0x1f55>
   14172:	83 85 50 e8 ff ff 01 	addl   $0x1,-0x17b0(%rbp)
   14179:	83 bd 50 e8 ff ff 04 	cmpl   $0x4,-0x17b0(%rbp)
   14180:	7e a6                	jle    14128 <func_6+0x1f49>
   14182:	0f b7 95 f0 e7 ff ff 	movzwl -0x1810(%rbp),%edx
   14189:	48 8b 05 68 78 01 00 	mov    0x17868(%rip),%rax        # 2b9f8 <g_908>
   14190:	48 8b 00             	mov    (%rax),%rax
   14193:	48 8b 00             	mov    (%rax),%rax
   14196:	48 89 d6             	mov    %rdx,%rsi
   14199:	48 89 c7             	mov    %rax,%rdi
   1419c:	e8 13 c8 ff ff       	callq  109b4 <safe_mod_func_int64_t_s_s>
   141a1:	89 85 f4 e7 ff ff    	mov    %eax,-0x180c(%rbp)
   141a7:	8b 85 f4 e7 ff ff    	mov    -0x180c(%rbp),%eax
   141ad:	85 c0                	test   %eax,%eax
   141af:	74 7e                	je     1422f <func_6+0x2050>
   141b1:	c6 85 11 e8 ff ff 00 	movb   $0x0,-0x17ef(%rbp)
   141b8:	48 8b 05 d1 77 01 00 	mov    0x177d1(%rip),%rax        # 2b990 <g_834>
   141bf:	48 8b 00             	mov    (%rax),%rax
   141c2:	48 8b 00             	mov    (%rax),%rax
   141c5:	0f be 95 11 e8 ff ff 	movsbl -0x17ef(%rbp),%edx
   141cc:	89 10                	mov    %edx,(%rax)
   141ce:	48 8d 95 24 e8 ff ff 	lea    -0x17dc(%rbp),%rdx
   141d5:	48 8b 85 a0 e9 ff ff 	mov    -0x1660(%rbp),%rax
   141dc:	48 89 d6             	mov    %rdx,%rsi
   141df:	48 89 c7             	mov    %rax,%rdi
   141e2:	e8 d3 a7 00 00       	callq  1e9ba <func_96>
   141e7:	48 89 c2             	mov    %rax,%rdx
   141ea:	48 8b 85 a0 e9 ff ff 	mov    -0x1660(%rbp),%rax
   141f1:	48 89 d6             	mov    %rdx,%rsi
   141f4:	48 89 c7             	mov    %rax,%rdi
   141f7:	e8 be a7 00 00       	callq  1e9ba <func_96>
   141fc:	48 89 c3             	mov    %rax,%rbx
   141ff:	48 8b 95 a0 e9 ff ff 	mov    -0x1660(%rbp),%rdx
   14206:	48 8b 85 a0 e9 ff ff 	mov    -0x1660(%rbp),%rax
   1420d:	48 89 d6             	mov    %rdx,%rsi
   14210:	48 89 c7             	mov    %rax,%rdi
   14213:	e8 a2 a7 00 00       	callq  1e9ba <func_96>
   14218:	48 89 de             	mov    %rbx,%rsi
   1421b:	48 89 c7             	mov    %rax,%rdi
   1421e:	e8 97 a7 00 00       	callq  1e9ba <func_96>
   14223:	48 89 85 a0 e9 ff ff 	mov    %rax,-0x1660(%rbp)
   1422a:	e9 2f 06 00 00       	jmpq   1485e <func_6+0x267f>
   1422f:	48 8d 05 22 40 01 00 	lea    0x14022(%rip),%rax        # 28258 <g_3859>
   14236:	48 89 85 b0 e9 ff ff 	mov    %rax,-0x1650(%rbp)
   1423d:	48 8d 85 a0 ea ff ff 	lea    -0x1560(%rbp),%rax
   14244:	48 83 c0 08          	add    $0x8,%rax
   14248:	48 89 85 b8 e9 ff ff 	mov    %rax,-0x1648(%rbp)
   1424f:	c7 85 64 e8 ff ff 01 	movl   $0x1,-0x179c(%rbp)
   14256:	00 00 00 
   14259:	c7 85 68 e8 ff ff fa 	movl   $0xfffffffa,-0x1798(%rbp)
   14260:	ff ff ff 
   14263:	c7 85 6c e8 ff ff 08 	movl   $0x8,-0x1794(%rbp)
   1426a:	00 00 00 
   1426d:	c7 85 10 e9 ff ff 3c 	movl   $0x2d4df73c,-0x16f0(%rbp)
   14274:	f7 4d 2d 
   14277:	48 c7 85 c0 e9 ff ff 	movq   $0x0,-0x1640(%rbp)
   1427e:	00 00 00 00 
   14282:	48 b8 11 15 2c b6 bf 	movabs $0xb0654dbfb62c1511,%rax
   14289:	4d 65 b0 
   1428c:	48 89 85 c8 e9 ff ff 	mov    %rax,-0x1638(%rbp)
   14293:	c7 85 58 e8 ff ff 00 	movl   $0x0,-0x17a8(%rbp)
   1429a:	00 00 00 
   1429d:	eb 1a                	jmp    142b9 <func_6+0x20da>
   1429f:	8b 85 58 e8 ff ff    	mov    -0x17a8(%rbp),%eax
   142a5:	48 98                	cltq   
   142a7:	c7 84 85 8c ea ff ff 	movl   $0x657f2341,-0x1574(%rbp,%rax,4)
   142ae:	41 23 7f 65 
   142b2:	83 85 58 e8 ff ff 01 	addl   $0x1,-0x17a8(%rbp)
   142b9:	83 bd 58 e8 ff ff 01 	cmpl   $0x1,-0x17a8(%rbp)
   142c0:	7e dd                	jle    1429f <func_6+0x20c0>
   142c2:	c7 85 58 e8 ff ff 00 	movl   $0x0,-0x17a8(%rbp)
   142c9:	00 00 00 
   142cc:	eb 1e                	jmp    142ec <func_6+0x210d>
   142ce:	8b 85 58 e8 ff ff    	mov    -0x17a8(%rbp),%eax
   142d4:	48 98                	cltq   
   142d6:	48 8d 95 20 e8 ff ff 	lea    -0x17e0(%rbp),%rdx
   142dd:	48 89 94 c5 b0 eb ff 	mov    %rdx,-0x1450(%rbp,%rax,8)
   142e4:	ff 
   142e5:	83 85 58 e8 ff ff 01 	addl   $0x1,-0x17a8(%rbp)
   142ec:	83 bd 58 e8 ff ff 06 	cmpl   $0x6,-0x17a8(%rbp)
   142f3:	7e d9                	jle    142ce <func_6+0x20ef>
   142f5:	48 8b 05 a4 81 01 00 	mov    0x181a4(%rip),%rax        # 2c4a0 <g_2215>
   142fc:	0f b6 00             	movzbl (%rax),%eax
   142ff:	0f b6 d8             	movzbl %al,%ebx
   14302:	8b 85 90 ea ff ff    	mov    -0x1570(%rbp),%eax
   14308:	89 c0                	mov    %eax,%eax
   1430a:	48 39 85 e8 e7 ff ff 	cmp    %rax,-0x1818(%rbp)
   14311:	0f 9e c0             	setle  %al
   14314:	0f b6 d0             	movzbl %al,%edx
   14317:	48 8b 05 72 76 01 00 	mov    0x17672(%rip),%rax        # 2b990 <g_834>
   1431e:	48 8b 00             	mov    (%rax),%rax
   14321:	48 8b 00             	mov    (%rax),%rax
   14324:	8b 00                	mov    (%rax),%eax
   14326:	89 d1                	mov    %edx,%ecx
   14328:	09 c1                	or     %eax,%ecx
   1432a:	48 8b 85 78 e9 ff ff 	mov    -0x1688(%rbp),%rax
   14331:	48 8b 00             	mov    (%rax),%rax
   14334:	48 39 85 b0 e9 ff ff 	cmp    %rax,-0x1650(%rbp)
   1433b:	0f 94 c0             	sete   %al
   1433e:	0f b6 d0             	movzbl %al,%edx
   14341:	8b 85 90 ea ff ff    	mov    -0x1570(%rbp),%eax
   14347:	09 c2                	or     %eax,%edx
   14349:	48 8d 05 f8 28 01 00 	lea    0x128f8(%rip),%rax        # 26c48 <g_556>
   14350:	0f b7 00             	movzwl (%rax),%eax
   14353:	98                   	cwtl   
   14354:	21 c2                	and    %eax,%edx
   14356:	48 8b 85 a0 e9 ff ff 	mov    -0x1660(%rbp),%rax
   1435d:	8b 00                	mov    (%rax),%eax
   1435f:	39 c2                	cmp    %eax,%edx
   14361:	74 07                	je     1436a <func_6+0x218b>
   14363:	ba f0 00 00 00       	mov    $0xf0,%edx
   14368:	eb 05                	jmp    1436f <func_6+0x2190>
   1436a:	ba f1 00 00 00       	mov    $0xf1,%edx
   1436f:	8b 85 fc e7 ff ff    	mov    -0x1804(%rbp),%eax
   14375:	48 98                	cltq   
   14377:	48 39 c2             	cmp    %rax,%rdx
   1437a:	7c 07                	jl     14383 <func_6+0x21a4>
   1437c:	ba 47 ef 00 00       	mov    $0xef47,%edx
   14381:	eb 05                	jmp    14388 <func_6+0x21a9>
   14383:	ba 46 ef 00 00       	mov    $0xef46,%edx
   14388:	0f b7 85 f0 e7 ff ff 	movzwl -0x1810(%rbp),%eax
   1438f:	48 39 c2             	cmp    %rax,%rdx
   14392:	0f 95 c0             	setne  %al
   14395:	0f b6 d0             	movzbl %al,%edx
   14398:	48 8b 05 f1 76 01 00 	mov    0x176f1(%rip),%rax        # 2ba90 <g_969>
   1439f:	0f b6 00             	movzbl (%rax),%eax
   143a2:	0f b6 c0             	movzbl %al,%eax
   143a5:	39 c2                	cmp    %eax,%edx
   143a7:	0f 9f c0             	setg   %al
   143aa:	0f b6 c0             	movzbl %al,%eax
   143ad:	39 c1                	cmp    %eax,%ecx
   143af:	72 13                	jb     143c4 <func_6+0x21e5>
   143b1:	48 8b 05 d8 75 01 00 	mov    0x175d8(%rip),%rax        # 2b990 <g_834>
   143b8:	48 8b 00             	mov    (%rax),%rax
   143bb:	48 8b 00             	mov    (%rax),%rax
   143be:	8b 00                	mov    (%rax),%eax
   143c0:	85 c0                	test   %eax,%eax
   143c2:	74 07                	je     143cb <func_6+0x21ec>
   143c4:	b8 01 00 00 00       	mov    $0x1,%eax
   143c9:	eb 05                	jmp    143d0 <func_6+0x21f1>
   143cb:	b8 00 00 00 00       	mov    $0x0,%eax
   143d0:	48 63 d0             	movslq %eax,%rdx
   143d3:	48 8b 85 e8 e7 ff ff 	mov    -0x1818(%rbp),%rax
   143da:	48 89 d6             	mov    %rdx,%rsi
   143dd:	48 89 c7             	mov    %rax,%rdi
   143e0:	e8 9b cc ff ff       	callq  11080 <safe_mod_func_uint64_t_u_u>
   143e5:	0f b7 d0             	movzwl %ax,%edx
   143e8:	48 8b 85 a0 e9 ff ff 	mov    -0x1660(%rbp),%rax
   143ef:	8b 00                	mov    (%rax),%eax
   143f1:	0f b7 c0             	movzwl %ax,%eax
   143f4:	89 d6                	mov    %edx,%esi
   143f6:	89 c7                	mov    %eax,%edi
   143f8:	e8 5f c9 ff ff       	callq  10d5c <safe_mod_func_uint16_t_u_u>
   143fd:	0f b7 c0             	movzwl %ax,%eax
   14400:	f7 d0                	not    %eax
   14402:	48 98                	cltq   
   14404:	48 89 c6             	mov    %rax,%rsi
   14407:	48 bf 6f c9 84 17 b6 	movabs $0x6248a6b61784c96f,%rdi
   1440e:	a6 48 62 
   14411:	e8 2b c4 ff ff       	callq  10841 <safe_add_func_int64_t_s_s>
   14416:	89 c2                	mov    %eax,%edx
   14418:	0f b6 85 f8 e7 ff ff 	movzbl -0x1808(%rbp),%eax
   1441f:	89 d6                	mov    %edx,%esi
   14421:	89 c7                	mov    %eax,%edi
   14423:	e8 90 ca ff ff       	callq  10eb8 <safe_add_func_uint32_t_u_u>
   14428:	89 de                	mov    %ebx,%esi
   1442a:	bf 01 00 00 00       	mov    $0x1,%edi
   1442f:	e8 38 bf ff ff       	callq  1036c <safe_rshift_func_int8_t_s_u>
   14434:	83 bd fc e7 ff ff 00 	cmpl   $0x0,-0x1804(%rbp)
   1443b:	75 0b                	jne    14448 <func_6+0x2269>
   1443d:	48 8b 85 a0 e9 ff ff 	mov    -0x1660(%rbp),%rax
   14444:	8b 00                	mov    (%rax),%eax
   14446:	85 c0                	test   %eax,%eax
   14448:	48 8b 05 41 75 01 00 	mov    0x17541(%rip),%rax        # 2b990 <g_834>
   1444f:	48 8b 00             	mov    (%rax),%rax
   14452:	48 85 c0             	test   %rax,%rax
   14455:	0f 94 c0             	sete   %al
   14458:	0f b6 d0             	movzbl %al,%edx
   1445b:	48 8b 85 88 e9 ff ff 	mov    -0x1678(%rbp),%rax
   14462:	8b 00                	mov    (%rax),%eax
   14464:	39 c2                	cmp    %eax,%edx
   14466:	48 8b 95 c0 e8 ff ff 	mov    -0x1740(%rbp),%rdx
   1446d:	48 8b 05 2c 76 01 00 	mov    0x1762c(%rip),%rax        # 2baa0 <g_1121>
   14474:	48 8b 12             	mov    (%rdx),%rdx
   14477:	48 89 10             	mov    %rdx,(%rax)
   1447a:	48 8d 05 5f 27 01 00 	lea    0x1275f(%rip),%rax        # 26be0 <g_238>
   14481:	48 89 85 d0 e9 ff ff 	mov    %rax,-0x1630(%rbp)
   14488:	48 8d 85 f0 ee ff ff 	lea    -0x1110(%rbp),%rax
   1448f:	48 05 90 00 00 00    	add    $0x90,%rax
   14495:	48 89 85 d8 e9 ff ff 	mov    %rax,-0x1628(%rbp)
   1449c:	48 8d 05 e5 82 01 00 	lea    0x182e5(%rip),%rax        # 2c788 <g_2214+0x2c8>
   144a3:	48 89 85 e0 e9 ff ff 	mov    %rax,-0x1620(%rbp)
   144aa:	48 8b 85 d8 e9 ff ff 	mov    -0x1628(%rbp),%rax
   144b1:	48 8b 95 d0 e9 ff ff 	mov    -0x1630(%rbp),%rdx
   144b8:	48 89 10             	mov    %rdx,(%rax)
   144bb:	48 8b 85 d8 e9 ff ff 	mov    -0x1628(%rbp),%rax
   144c2:	48 8b 00             	mov    (%rax),%rax
   144c5:	48 89 85 b8 e9 ff ff 	mov    %rax,-0x1648(%rbp)
   144cc:	0f b6 9d f8 e7 ff ff 	movzbl -0x1808(%rbp),%ebx
   144d3:	48 8b 85 e0 e9 ff ff 	mov    -0x1620(%rbp),%rax
   144da:	48 8d 15 af 75 01 00 	lea    0x175af(%rip),%rdx        # 2ba90 <g_969>
   144e1:	48 89 10             	mov    %rdx,(%rax)
   144e4:	48 8b 85 e0 e9 ff ff 	mov    -0x1620(%rbp),%rax
   144eb:	48 8b 00             	mov    (%rax),%rax
   144ee:	48 89 85 90 e9 ff ff 	mov    %rax,-0x1670(%rbp)
   144f5:	48 8b 85 90 e9 ff ff 	mov    -0x1670(%rbp),%rax
   144fc:	48 3b 85 40 e9 ff ff 	cmp    -0x16c0(%rbp),%rax
   14503:	0f 94 c0             	sete   %al
   14506:	0f b6 c0             	movzbl %al,%eax
   14509:	89 85 64 e8 ff ff    	mov    %eax,-0x179c(%rbp)
   1450f:	8b 85 64 e8 ff ff    	mov    -0x179c(%rbp),%eax
   14515:	0f b7 c0             	movzwl %ax,%eax
   14518:	be 07 00 00 00       	mov    $0x7,%esi
   1451d:	89 c7                	mov    %eax,%edi
   1451f:	e8 9a c8 ff ff       	callq  10dbe <safe_lshift_func_uint16_t_u_s>
   14524:	0f b7 c0             	movzwl %ax,%eax
   14527:	48 89 de             	mov    %rbx,%rsi
   1452a:	48 89 c7             	mov    %rax,%rdi
   1452d:	e8 7d cb ff ff       	callq  110af <safe_div_func_uint64_t_u_u>
   14532:	c7 85 68 e8 ff ff f7 	movl   $0xfffffff7,-0x1798(%rbp)
   14539:	ff ff ff 
   1453c:	48 83 ad a8 e9 ff ff 	subq   $0x1,-0x1658(%rbp)
   14543:	01 
   14544:	c6 05 ed 33 01 00 ec 	movb   $0xec,0x133ed(%rip)        # 27938 <g_1365>
   1454b:	e9 ff 02 00 00       	jmpq   1484f <func_6+0x2670>
   14550:	66 c7 85 1a e8 ff ff 	movw   $0x39bd,-0x17e6(%rbp)
   14557:	bd 39 
   14559:	48 c7 85 e8 e9 ff ff 	movq   $0x0,-0x1618(%rbp)
   14560:	00 00 00 00 
   14564:	48 8d 05 79 2f 01 00 	lea    0x12f79(%rip),%rax        # 274e4 <g_955>
   1456b:	48 89 85 f0 e9 ff ff 	mov    %rax,-0x1610(%rbp)
   14572:	c7 85 70 ed ff ff 7e 	movl   $0x369f127e,-0x1290(%rbp)
   14579:	12 9f 36 
   1457c:	c7 85 74 ed ff ff 7e 	movl   $0x369f127e,-0x128c(%rbp)
   14583:	12 9f 36 
   14586:	c7 85 78 ed ff ff 7e 	movl   $0x369f127e,-0x1288(%rbp)
   1458d:	12 9f 36 
   14590:	c7 85 7c ed ff ff 7e 	movl   $0x369f127e,-0x1284(%rbp)
   14597:	12 9f 36 
   1459a:	c7 85 80 ed ff ff 7e 	movl   $0x369f127e,-0x1280(%rbp)
   145a1:	12 9f 36 
   145a4:	c7 85 84 ed ff ff 7e 	movl   $0x369f127e,-0x127c(%rbp)
   145ab:	12 9f 36 
   145ae:	c7 85 88 ed ff ff 7e 	movl   $0x369f127e,-0x1278(%rbp)
   145b5:	12 9f 36 
   145b8:	c7 85 8c ed ff ff 7e 	movl   $0x369f127e,-0x1274(%rbp)
   145bf:	12 9f 36 
   145c2:	c7 85 90 ed ff ff 7e 	movl   $0x369f127e,-0x1270(%rbp)
   145c9:	12 9f 36 
   145cc:	c7 85 94 ed ff ff 7e 	movl   $0x369f127e,-0x126c(%rbp)
   145d3:	12 9f 36 
   145d6:	c7 85 98 ed ff ff 7e 	movl   $0x369f127e,-0x1268(%rbp)
   145dd:	12 9f 36 
   145e0:	c7 85 9c ed ff ff 7e 	movl   $0x369f127e,-0x1264(%rbp)
   145e7:	12 9f 36 
   145ea:	c7 85 a0 ed ff ff 7e 	movl   $0x369f127e,-0x1260(%rbp)
   145f1:	12 9f 36 
   145f4:	c7 85 a4 ed ff ff 7e 	movl   $0x369f127e,-0x125c(%rbp)
   145fb:	12 9f 36 
   145fe:	c7 85 a8 ed ff ff 7e 	movl   $0x369f127e,-0x1258(%rbp)
   14605:	12 9f 36 
   14608:	c7 85 ac ed ff ff 7e 	movl   $0x369f127e,-0x1254(%rbp)
   1460f:	12 9f 36 
   14612:	c7 85 b0 ed ff ff 7e 	movl   $0x369f127e,-0x1250(%rbp)
   14619:	12 9f 36 
   1461c:	c7 85 b4 ed ff ff 7e 	movl   $0x369f127e,-0x124c(%rbp)
   14623:	12 9f 36 
   14626:	c7 85 b8 ed ff ff 7e 	movl   $0x369f127e,-0x1248(%rbp)
   1462d:	12 9f 36 
   14630:	c7 85 bc ed ff ff 7e 	movl   $0x369f127e,-0x1244(%rbp)
   14637:	12 9f 36 
   1463a:	c7 85 c0 ed ff ff 7e 	movl   $0x369f127e,-0x1240(%rbp)
   14641:	12 9f 36 
   14644:	c7 85 c4 ed ff ff 7e 	movl   $0x369f127e,-0x123c(%rbp)
   1464b:	12 9f 36 
   1464e:	c7 85 c8 ed ff ff 7e 	movl   $0x369f127e,-0x1238(%rbp)
   14655:	12 9f 36 
   14658:	c7 85 cc ed ff ff 7e 	movl   $0x369f127e,-0x1234(%rbp)
   1465f:	12 9f 36 
   14662:	c7 85 70 e8 ff ff ef 	movl   $0xe7ca86ef,-0x1790(%rbp)
   14669:	86 ca e7 
   1466c:	44 0f b7 a5 1a e8 ff 	movzwl -0x17e6(%rbp),%r12d
   14673:	ff 
   14674:	8b 85 f4 e7 ff ff    	mov    -0x180c(%rbp),%eax
   1467a:	0f be d8             	movsbl %al,%ebx
   1467d:	48 8b 85 c8 e9 ff ff 	mov    -0x1638(%rbp),%rax
   14684:	89 c2                	mov    %eax,%edx
   14686:	0f b7 85 f0 e7 ff ff 	movzwl -0x1810(%rbp),%eax
   1468d:	89 d6                	mov    %edx,%esi
   1468f:	89 c7                	mov    %eax,%edi
   14691:	e8 3a c8 ff ff       	callq  10ed0 <safe_sub_func_uint32_t_u_u>
   14696:	48 8b 85 a0 e9 ff ff 	mov    -0x1660(%rbp),%rax
   1469d:	8b 00                	mov    (%rax),%eax
   1469f:	89 c2                	mov    %eax,%edx
   146a1:	48 8b 85 f0 e9 ff ff 	mov    -0x1610(%rbp),%rax
   146a8:	66 89 10             	mov    %dx,(%rax)
   146ab:	48 8b 85 f0 e9 ff ff 	mov    -0x1610(%rbp),%rax
   146b2:	0f b7 00             	movzwl (%rax),%eax
   146b5:	0f b7 c8             	movzwl %ax,%ecx
   146b8:	48 8b 85 90 e9 ff ff 	mov    -0x1670(%rbp),%rax
   146bf:	48 8b 00             	mov    (%rax),%rax
   146c2:	0f b6 10             	movzbl (%rax),%edx
   146c5:	48 8b 85 90 e9 ff ff 	mov    -0x1670(%rbp),%rax
   146cc:	48 8b 00             	mov    (%rax),%rax
   146cf:	22 95 f8 e7 ff ff    	and    -0x1808(%rbp),%dl
   146d5:	88 10                	mov    %dl,(%rax)
   146d7:	0f b6 00             	movzbl (%rax),%eax
   146da:	88 85 f8 e7 ff ff    	mov    %al,-0x1808(%rbp)
   146e0:	0f b6 95 f8 e7 ff ff 	movzbl -0x1808(%rbp),%edx
   146e7:	48 8d 05 6a 8a 01 00 	lea    0x18a6a(%rip),%rax        # 2d158 <g_3753>
   146ee:	48 39 85 c0 e9 ff ff 	cmp    %rax,-0x1640(%rbp)
   146f5:	0f 94 c0             	sete   %al
   146f8:	0f b6 c0             	movzbl %al,%eax
   146fb:	31 d0                	xor    %edx,%eax
   146fd:	39 c1                	cmp    %eax,%ecx
   146ff:	0f 94 c0             	sete   %al
   14702:	0f b6 d0             	movzbl %al,%edx
   14705:	48 8b 85 a0 e9 ff ff 	mov    -0x1660(%rbp),%rax
   1470c:	8b 00                	mov    (%rax),%eax
   1470e:	83 f8 01             	cmp    $0x1,%eax
   14711:	0f 95 c0             	setne  %al
   14714:	0f b6 c0             	movzbl %al,%eax
   14717:	39 c2                	cmp    %eax,%edx
   14719:	0f 9e c0             	setle  %al
   1471c:	0f b6 c0             	movzbl %al,%eax
   1471f:	be 04 00 00 00       	mov    $0x4,%esi
   14724:	89 c7                	mov    %eax,%edi
   14726:	e8 c7 ba ff ff       	callq  101f2 <safe_sub_func_int8_t_s_s>
   1472b:	89 de                	mov    %ebx,%esi
   1472d:	bf 01 00 00 00       	mov    $0x1,%edi
   14732:	e8 9d ba ff ff       	callq  101d4 <safe_add_func_int8_t_s_s>
   14737:	84 c0                	test   %al,%al
   14739:	74 10                	je     1474b <func_6+0x256c>
   1473b:	83 bd fc e7 ff ff 00 	cmpl   $0x0,-0x1804(%rbp)
   14742:	74 07                	je     1474b <func_6+0x256c>
   14744:	ba 01 00 00 00       	mov    $0x1,%edx
   14749:	eb 05                	jmp    14750 <func_6+0x2571>
   1474b:	ba 00 00 00 00       	mov    $0x0,%edx
   14750:	48 8b 05 31 72 01 00 	mov    0x17231(%rip),%rax        # 2b988 <g_835>
   14757:	48 8b 00             	mov    (%rax),%rax
   1475a:	89 10                	mov    %edx,(%rax)
   1475c:	8b 00                	mov    (%rax),%eax
   1475e:	be ff ff ff ff       	mov    $0xffffffff,%esi
   14763:	89 c7                	mov    %eax,%edi
   14765:	e8 bb c7 ff ff       	callq  10f25 <safe_div_func_uint32_t_u_u>
   1476a:	c7 85 a4 ed ff ff 01 	movl   $0x1,-0x125c(%rbp)
   14771:	00 00 00 
   14774:	8b 85 a4 ed ff ff    	mov    -0x125c(%rbp),%eax
   1477a:	41 39 c4             	cmp    %eax,%r12d
   1477d:	0f 95 c0             	setne  %al
   14780:	0f b6 c0             	movzbl %al,%eax
   14783:	be 2f 00 00 00       	mov    $0x2f,%esi
   14788:	89 c7                	mov    %eax,%edi
   1478a:	e8 04 c4 ff ff       	callq  10b93 <safe_mul_func_uint8_t_u_u>
   1478f:	48 8b 85 c0 e8 ff ff 	mov    -0x1740(%rbp),%rax
   14796:	48 8b 10             	mov    (%rax),%rdx
   14799:	48 8d 85 f8 e8 ff ff 	lea    -0x1708(%rbp),%rax
   147a0:	48 39 c2             	cmp    %rax,%rdx
   147a3:	0f 95 c0             	setne  %al
   147a6:	0f b6 d0             	movzbl %al,%edx
   147a9:	48 8b 85 88 e9 ff ff 	mov    -0x1678(%rbp),%rax
   147b0:	89 10                	mov    %edx,(%rax)
   147b2:	c6 05 6b a9 01 00 00 	movb   $0x0,0x1a96b(%rip)        # 2f124 <g_889>
   147b9:	90                   	nop
   147ba:	0f b6 05 63 a9 01 00 	movzbl 0x1a963(%rip),%eax        # 2f124 <g_889>
   147c1:	84 c0                	test   %al,%al
   147c3:	78 60                	js     14825 <func_6+0x2646>
   147c5:	48 8d 85 10 e9 ff ff 	lea    -0x16f0(%rbp),%rax
   147cc:	48 89 85 f8 e9 ff ff 	mov    %rax,-0x1608(%rbp)
   147d3:	48 8b 05 46 73 01 00 	mov    0x17346(%rip),%rax        # 2bb20 <g_1576>
   147da:	48 8b 00             	mov    (%rax),%rax
   147dd:	48 8b 00             	mov    (%rax),%rax
   147e0:	48 8b 95 f8 e9 ff ff 	mov    -0x1608(%rbp),%rdx
   147e7:	48 89 10             	mov    %rdx,(%rax)
   147ea:	48 8b 85 c8 e8 ff ff 	mov    -0x1738(%rbp),%rax
   147f1:	48 8b 00             	mov    (%rax),%rax
   147f4:	48 8b 00             	mov    (%rax),%rax
   147f7:	8b 10                	mov    (%rax),%edx
   147f9:	48 8b 05 90 72 01 00 	mov    0x17290(%rip),%rax        # 2ba90 <g_969>
   14800:	0f b6 00             	movzbl (%rax),%eax
   14803:	0f b6 c0             	movzbl %al,%eax
   14806:	0b 85 fc e7 ff ff    	or     -0x1804(%rbp),%eax
   1480c:	39 c2                	cmp    %eax,%edx
   1480e:	0f 95 c0             	setne  %al
   14811:	0f b6 c0             	movzbl %al,%eax
   14814:	89 85 70 e8 ff ff    	mov    %eax,-0x1790(%rbp)
   1481a:	8b 85 f4 e7 ff ff    	mov    -0x180c(%rbp),%eax
   14820:	e9 9d 03 00 00       	jmpq   14bc2 <func_6+0x29e3>
   14825:	48 8b 05 64 8c 01 00 	mov    0x18c64(%rip),%rax        # 2d490 <g_3941>
   1482c:	48 89 85 98 e9 ff ff 	mov    %rax,-0x1668(%rbp)
   14833:	0f b6 05 fe 30 01 00 	movzbl 0x130fe(%rip),%eax        # 27938 <g_1365>
   1483a:	0f b6 c0             	movzbl %al,%eax
   1483d:	be 09 00 00 00       	mov    $0x9,%esi
   14842:	89 c7                	mov    %eax,%edi
   14844:	e8 b6 c4 ff ff       	callq  10cff <safe_add_func_uint16_t_u_u>
   14849:	88 05 e9 30 01 00    	mov    %al,0x130e9(%rip)        # 27938 <g_1365>
   1484f:	0f b6 05 e2 30 01 00 	movzbl 0x130e2(%rip),%eax        # 27938 <g_1365>
   14856:	3c 38                	cmp    $0x38,%al
   14858:	0f 84 f2 fc ff ff    	je     14550 <func_6+0x2371>
   1485e:	0f b6 05 87 24 01 00 	movzbl 0x12487(%rip),%eax        # 26cec <g_874>
   14865:	0f be c0             	movsbl %al,%eax
   14868:	be 06 00 00 00       	mov    $0x6,%esi
   1486d:	89 c7                	mov    %eax,%edi
   1486f:	e8 44 c6 ff ff       	callq  10eb8 <safe_add_func_uint32_t_u_u>
   14874:	88 05 72 24 01 00    	mov    %al,0x12472(%rip)        # 26cec <g_874>
   1487a:	0f b6 05 6b 24 01 00 	movzbl 0x1246b(%rip),%eax        # 26cec <g_874>
   14881:	3c 0d                	cmp    $0xd,%al
   14883:	0f 85 4d de ff ff    	jne    126d6 <func_6+0x4f7>
   14889:	8b 85 f4 e7 ff ff    	mov    -0x180c(%rbp),%eax
   1488f:	41 89 c7             	mov    %eax,%r15d
   14892:	48 8b 85 50 e9 ff ff 	mov    -0x16b0(%rbp),%rax
   14899:	48 8d 15 40 84 01 00 	lea    0x18440(%rip),%rdx        # 2cce0 <g_2258>
   148a0:	48 89 10             	mov    %rdx,(%rax)
   148a3:	48 8b 85 50 e9 ff ff 	mov    -0x16b0(%rbp),%rax
   148aa:	48 8b 10             	mov    (%rax),%rdx
   148ad:	48 8b 85 58 e9 ff ff 	mov    -0x16a8(%rbp),%rax
   148b4:	48 89 10             	mov    %rdx,(%rax)
   148b7:	48 8b 85 58 e9 ff ff 	mov    -0x16a8(%rbp),%rax
   148be:	48 8b 00             	mov    (%rax),%rax
   148c1:	48 39 85 48 e9 ff ff 	cmp    %rax,-0x16b8(%rbp)
   148c8:	8b 9d 5c e8 ff ff    	mov    -0x17a4(%rbp),%ebx
   148ce:	48 8b 05 bb 71 01 00 	mov    0x171bb(%rip),%rax        # 2ba90 <g_969>
   148d5:	0f b6 00             	movzbl (%rax),%eax
   148d8:	44 0f be e0          	movsbl %al,%r12d
   148dc:	44 0f b6 ad f8 e7 ff 	movzbl -0x1808(%rbp),%r13d
   148e3:	ff 
   148e4:	48 8d 05 5d 23 01 00 	lea    0x1235d(%rip),%rax        # 26c48 <g_556>
   148eb:	44 0f b7 30          	movzwl (%rax),%r14d
   148ef:	8b 85 fc e7 ff ff    	mov    -0x1804(%rbp),%eax
   148f5:	0f b7 c0             	movzwl %ax,%eax
   148f8:	be 07 00 00 00       	mov    $0x7,%esi
   148fd:	89 c7                	mov    %eax,%edi
   148ff:	e8 02 c5 ff ff       	callq  10e06 <safe_lshift_func_uint16_t_u_u>
   14904:	0f bf d0             	movswl %ax,%edx
   14907:	0f b6 85 f8 e7 ff ff 	movzbl -0x1808(%rbp),%eax
   1490e:	89 d6                	mov    %edx,%esi
   14910:	89 c7                	mov    %eax,%edi
   14912:	e8 ff ba ff ff       	callq  10416 <safe_mod_func_int16_t_s_s>
   14917:	48 8b 95 60 e9 ff ff 	mov    -0x16a0(%rbp),%rdx
   1491e:	66 89 02             	mov    %ax,(%rdx)
   14921:	48 8b 85 60 e9 ff ff 	mov    -0x16a0(%rbp),%rax
   14928:	0f b7 00             	movzwl (%rax),%eax
   1492b:	66 41 39 c6          	cmp    %ax,%r14w
   1492f:	48 8b 05 6a 71 01 00 	mov    0x1716a(%rip),%rax        # 2baa0 <g_1121>
   14936:	48 8b 00             	mov    (%rax),%rax
   14939:	48 8b 10             	mov    (%rax),%rdx
   1493c:	8b 85 60 e8 ff ff    	mov    -0x17a0(%rbp),%eax
   14942:	48 39 c2             	cmp    %rax,%rdx
   14945:	0f 96 c0             	setbe  %al
   14948:	0f b6 d0             	movzbl %al,%edx
   1494b:	8b 85 f4 e7 ff ff    	mov    -0x180c(%rbp),%eax
   14951:	39 c2                	cmp    %eax,%edx
   14953:	0f 9c c0             	setl   %al
   14956:	0f b6 d0             	movzbl %al,%edx
   14959:	8b 85 f4 e7 ff ff    	mov    -0x180c(%rbp),%eax
   1495f:	39 c2                	cmp    %eax,%edx
   14961:	0f 94 c0             	sete   %al
   14964:	0f b6 d0             	movzbl %al,%edx
   14967:	48 8b 85 a8 ea ff ff 	mov    -0x1558(%rbp),%rax
   1496e:	48 39 c2             	cmp    %rax,%rdx
   14971:	8b 85 34 ed ff ff    	mov    -0x12cc(%rbp),%eax
   14977:	35 57 bf 34 48       	xor    $0x4834bf57,%eax
   1497c:	48 63 d0             	movslq %eax,%rdx
   1497f:	48 8b 05 0a 70 01 00 	mov    0x1700a(%rip),%rax        # 2b990 <g_834>
   14986:	48 8b 00             	mov    (%rax),%rax
   14989:	48 8b 00             	mov    (%rax),%rax
   1498c:	8b 00                	mov    (%rax),%eax
   1498e:	89 c1                	mov    %eax,%ecx
   14990:	89 d0                	mov    %edx,%eax
   14992:	31 c1                	xor    %eax,%ecx
   14994:	89 ca                	mov    %ecx,%edx
   14996:	48 8b 05 f3 6f 01 00 	mov    0x16ff3(%rip),%rax        # 2b990 <g_834>
   1499d:	48 8b 00             	mov    (%rax),%rax
   149a0:	48 8b 00             	mov    (%rax),%rax
   149a3:	89 10                	mov    %edx,(%rax)
   149a5:	8b 10                	mov    (%rax),%edx
   149a7:	48 8b 05 8a 71 01 00 	mov    0x1718a(%rip),%rax        # 2bb38 <g_1668>
   149ae:	8b 00                	mov    (%rax),%eax
   149b0:	39 c2                	cmp    %eax,%edx
   149b2:	77 0c                	ja     149c0 <func_6+0x27e1>
   149b4:	48 b8 de 95 31 de d8 	movabs $0xccf891d8de3195de,%rax
   149bb:	91 f8 cc 
   149be:	eb 0a                	jmp    149ca <func_6+0x27eb>
   149c0:	48 b8 df 95 31 de d8 	movabs $0xccf891d8de3195df,%rax
   149c7:	91 f8 cc 
   149ca:	48 8b 95 30 e9 ff ff 	mov    -0x16d0(%rbp),%rdx
   149d1:	48 8b 12             	mov    (%rdx),%rdx
   149d4:	48 8b 12             	mov    (%rdx),%rdx
   149d7:	48 8b 12             	mov    (%rdx),%rdx
   149da:	48 8b 12             	mov    (%rdx),%rdx
   149dd:	48 09 c2             	or     %rax,%rdx
   149e0:	48 8b 85 30 e9 ff ff 	mov    -0x16d0(%rbp),%rax
   149e7:	48 8b 00             	mov    (%rax),%rax
   149ea:	48 8b 00             	mov    (%rax),%rax
   149ed:	48 8b 00             	mov    (%rax),%rax
   149f0:	48 89 10             	mov    %rdx,(%rax)
   149f3:	48 8b 10             	mov    (%rax),%rdx
   149f6:	8b 85 f4 e7 ff ff    	mov    -0x180c(%rbp),%eax
   149fc:	48 98                	cltq   
   149fe:	48 39 c2             	cmp    %rax,%rdx
   14a01:	0f 94 c0             	sete   %al
   14a04:	0f b6 c0             	movzbl %al,%eax
   14a07:	44 89 ee             	mov    %r13d,%esi
   14a0a:	89 c7                	mov    %eax,%edi
   14a0c:	e8 81 ba ff ff       	callq  10492 <safe_lshift_func_int16_t_s_s>
   14a11:	0f be c0             	movsbl %al,%eax
   14a14:	44 89 e6             	mov    %r12d,%esi
   14a17:	89 c7                	mov    %eax,%edi
   14a19:	e8 f4 b7 ff ff       	callq  10212 <safe_mul_func_int8_t_s_s>
   14a1e:	0f be d0             	movsbl %al,%edx
   14a21:	0f b6 85 10 e8 ff ff 	movzbl -0x17f0(%rbp),%eax
   14a28:	39 c2                	cmp    %eax,%edx
   14a2a:	0f 9f c0             	setg   %al
   14a2d:	0f b6 c0             	movzbl %al,%eax
   14a30:	89 de                	mov    %ebx,%esi
   14a32:	89 c7                	mov    %eax,%edi
   14a34:	e8 c4 c4 ff ff       	callq  10efd <safe_mod_func_uint32_t_u_u>
   14a39:	0f be c0             	movsbl %al,%eax
   14a3c:	be 05 00 00 00       	mov    $0x5,%esi
   14a41:	89 c7                	mov    %eax,%edi
   14a43:	e8 ed b8 ff ff       	callq  10335 <safe_rshift_func_int8_t_s_s>
   14a48:	ba 01 00 00 00       	mov    $0x1,%edx
   14a4d:	8b 85 fc e7 ff ff    	mov    -0x1804(%rbp),%eax
   14a53:	89 c6                	mov    %eax,%esi
   14a55:	89 d7                	mov    %edx,%edi
   14a57:	e8 a9 bb ff ff       	callq  10605 <safe_sub_func_int32_t_s_s>
   14a5c:	98                   	cwtl   
   14a5d:	83 e0 08             	and    $0x8,%eax
   14a60:	44 89 fe             	mov    %r15d,%esi
   14a63:	89 c7                	mov    %eax,%edi
   14a65:	e8 f9 ba ff ff       	callq  10563 <safe_rshift_func_int16_t_s_u>
   14a6a:	89 c2                	mov    %eax,%edx
   14a6c:	48 8b 05 35 70 01 00 	mov    0x17035(%rip),%rax        # 2baa8 <g_1228>
   14a73:	0f bf d2             	movswl %dx,%edx
   14a76:	89 10                	mov    %edx,(%rax)
   14a78:	48 8d 05 d1 70 01 00 	lea    0x170d1(%rip),%rax        # 2bb50 <g_1676+0x10>
   14a7f:	48 8b 00             	mov    (%rax),%rax
   14a82:	48 8b 00             	mov    (%rax),%rax
   14a85:	8b 10                	mov    (%rax),%edx
   14a87:	48 8d 05 c2 70 01 00 	lea    0x170c2(%rip),%rax        # 2bb50 <g_1676+0x10>
   14a8e:	48 8b 00             	mov    (%rax),%rax
   14a91:	48 8b 00             	mov    (%rax),%rax
   14a94:	23 95 fc e7 ff ff    	and    -0x1804(%rbp),%edx
   14a9a:	89 10                	mov    %edx,(%rax)
   14a9c:	48 8b 05 f5 6f 01 00 	mov    0x16ff5(%rip),%rax        # 2ba98 <g_1122>
   14aa3:	48 8b 18             	mov    (%rax),%rbx
   14aa6:	44 0f be a5 0f e8 ff 	movsbl -0x17f1(%rbp),%r12d
   14aad:	ff 
   14aae:	48 8b 05 db 6e 01 00 	mov    0x16edb(%rip),%rax        # 2b990 <g_834>
   14ab5:	48 8b 00             	mov    (%rax),%rax
   14ab8:	48 39 85 68 e9 ff ff 	cmp    %rax,-0x1698(%rbp)
   14abf:	0f 94 c0             	sete   %al
   14ac2:	44 0f b6 e8          	movzbl %al,%r13d
   14ac6:	8b 85 f4 e7 ff ff    	mov    -0x180c(%rbp),%eax
   14acc:	48 63 d0             	movslq %eax,%rdx
   14acf:	48 8b 05 1a 6f 01 00 	mov    0x16f1a(%rip),%rax        # 2b9f0 <g_909>
   14ad6:	48 8b 00             	mov    (%rax),%rax
   14ad9:	48 39 c2             	cmp    %rax,%rdx
   14adc:	0f 9e c2             	setle  %dl
   14adf:	48 8b 05 8a 6e 01 00 	mov    0x16e8a(%rip),%rax        # 2b970 <g_738>
   14ae6:	0f b6 d2             	movzbl %dl,%edx
   14ae9:	89 10                	mov    %edx,(%rax)
   14aeb:	44 8b 30             	mov    (%rax),%r14d
   14aee:	0f b6 85 0f e8 ff ff 	movzbl -0x17f1(%rbp),%eax
   14af5:	0f b6 d0             	movzbl %al,%edx
   14af8:	48 8b 05 a1 79 01 00 	mov    0x179a1(%rip),%rax        # 2c4a0 <g_2215>
   14aff:	0f b6 00             	movzbl (%rax),%eax
   14b02:	0f b6 c0             	movzbl %al,%eax
   14b05:	89 d6                	mov    %edx,%esi
   14b07:	89 c7                	mov    %eax,%edi
   14b09:	e8 cd c0 ff ff       	callq  10bdb <safe_div_func_uint8_t_u_u>
   14b0e:	0f b6 c0             	movzbl %al,%eax
   14b11:	41 39 c6             	cmp    %eax,%r14d
   14b14:	0f 93 c0             	setae  %al
   14b17:	0f b6 c0             	movzbl %al,%eax
   14b1a:	44 89 ea             	mov    %r13d,%edx
   14b1d:	31 c2                	xor    %eax,%edx
   14b1f:	0f b7 85 f0 e7 ff ff 	movzwl -0x1810(%rbp),%eax
   14b26:	21 c2                	and    %eax,%edx
   14b28:	8b 85 f4 e7 ff ff    	mov    -0x180c(%rbp),%eax
   14b2e:	39 c2                	cmp    %eax,%edx
   14b30:	0f 94 c0             	sete   %al
   14b33:	0f b6 c0             	movzbl %al,%eax
   14b36:	44 21 e0             	and    %r12d,%eax
   14b39:	48 98                	cltq   
   14b3b:	48 89 de             	mov    %rbx,%rsi
   14b3e:	48 89 c7             	mov    %rax,%rdi
   14b41:	e8 3a c5 ff ff       	callq  11080 <safe_mod_func_uint64_t_u_u>
   14b46:	0f b7 95 f0 e7 ff ff 	movzwl -0x1810(%rbp),%edx
   14b4d:	48 39 d0             	cmp    %rdx,%rax
   14b50:	0f 97 c0             	seta   %al
   14b53:	0f b6 d0             	movzbl %al,%edx
   14b56:	48 8b 05 43 6f 01 00 	mov    0x16f43(%rip),%rax        # 2baa0 <g_1121>
   14b5d:	48 8b 00             	mov    (%rax),%rax
   14b60:	48 8b 00             	mov    (%rax),%rax
   14b63:	48 39 c2             	cmp    %rax,%rdx
   14b66:	48 8d 95 20 e8 ff ff 	lea    -0x17e0(%rbp),%rdx
   14b6d:	48 8d 85 f4 e7 ff ff 	lea    -0x180c(%rbp),%rax
   14b74:	48 89 d6             	mov    %rdx,%rsi
   14b77:	48 89 c7             	mov    %rax,%rdi
   14b7a:	e8 3b 9e 00 00       	callq  1e9ba <func_96>
   14b7f:	48 89 c2             	mov    %rax,%rdx
   14b82:	48 8d 85 f4 e7 ff ff 	lea    -0x180c(%rbp),%rax
   14b89:	48 89 d6             	mov    %rdx,%rsi
   14b8c:	48 89 c7             	mov    %rax,%rdi
   14b8f:	e8 26 9e 00 00       	callq  1e9ba <func_96>
   14b94:	48 89 c2             	mov    %rax,%rdx
   14b97:	48 8b 05 82 6f 01 00 	mov    0x16f82(%rip),%rax        # 2bb20 <g_1576>
   14b9e:	48 8b 00             	mov    (%rax),%rax
   14ba1:	48 8b 18             	mov    (%rax),%rbx
   14ba4:	48 8d 85 f4 e7 ff ff 	lea    -0x180c(%rbp),%rax
   14bab:	48 89 d6             	mov    %rdx,%rsi
   14bae:	48 89 c7             	mov    %rax,%rdi
   14bb1:	e8 04 9e 00 00       	callq  1e9ba <func_96>
   14bb6:	48 89 03             	mov    %rax,(%rbx)
   14bb9:	48 8b 05 b0 6d 01 00 	mov    0x16db0(%rip),%rax        # 2b970 <g_738>
   14bc0:	8b 00                	mov    (%rax),%eax
   14bc2:	48 8b 5d c8          	mov    -0x38(%rbp),%rbx
   14bc6:	64 48 33 1c 25 28 00 	xor    %fs:0x28,%rbx
   14bcd:	00 00 
   14bcf:	74 05                	je     14bd6 <func_6+0x29f7>
   14bd1:	e8 9a b4 ff ff       	callq  10070 <__stack_chk_fail@plt>
   14bd6:	48 81 c4 f8 17 00 00 	add    $0x17f8,%rsp
   14bdd:	5b                   	pop    %rbx
   14bde:	41 5c                	pop    %r12
   14be0:	41 5d                	pop    %r13
   14be2:	41 5e                	pop    %r14
   14be4:	41 5f                	pop    %r15
   14be6:	5d                   	pop    %rbp
   14be7:	c3                   	retq   

0000000000014be8 <func_12>:
   14be8:	f3 0f 1e fa          	endbr64 
   14bec:	55                   	push   %rbp
   14bed:	48 89 e5             	mov    %rsp,%rbp
   14bf0:	48 81 ec c0 06 00 00 	sub    $0x6c0,%rsp
   14bf7:	89 f8                	mov    %edi,%eax
   14bf9:	48 89 b5 50 f9 ff ff 	mov    %rsi,-0x6b0(%rbp)
   14c00:	89 95 58 f9 ff ff    	mov    %edx,-0x6a8(%rbp)
   14c06:	48 89 8d 48 f9 ff ff 	mov    %rcx,-0x6b8(%rbp)
   14c0d:	4c 89 85 40 f9 ff ff 	mov    %r8,-0x6c0(%rbp)
   14c14:	88 85 5c f9 ff ff    	mov    %al,-0x6a4(%rbp)
   14c1a:	64 48 8b 04 25 28 00 	mov    %fs:0x28,%rax
   14c21:	00 00 
   14c23:	48 89 45 f8          	mov    %rax,-0x8(%rbp)
   14c27:	31 c0                	xor    %eax,%eax
   14c29:	48 8d 05 98 2a 01 00 	lea    0x12a98(%rip),%rax        # 276c8 <g_1294+0x168>
   14c30:	48 89 85 a8 f9 ff ff 	mov    %rax,-0x658(%rbp)
   14c37:	c7 85 74 f9 ff ff ff 	movl   $0xffffffff,-0x68c(%rbp)
   14c3e:	ff ff ff 
   14c41:	c7 85 78 f9 ff ff ff 	movl   $0xffffffff,-0x688(%rbp)
   14c48:	ff ff ff 
   14c4b:	c7 85 7c f9 ff ff 65 	movl   $0x7174ae65,-0x684(%rbp)
   14c52:	ae 74 71 
   14c55:	c7 85 80 f9 ff ff 01 	movl   $0x1,-0x680(%rbp)
   14c5c:	00 00 00 
   14c5f:	48 8d 05 1a 6d 01 00 	lea    0x16d1a(%rip),%rax        # 2b980 <g_796>
   14c66:	48 89 85 b0 f9 ff ff 	mov    %rax,-0x650(%rbp)
   14c6d:	c7 85 84 f9 ff ff 71 	movl   $0x58ff8271,-0x67c(%rbp)
   14c74:	82 ff 58 
   14c77:	48 8d 05 a2 66 01 00 	lea    0x166a2(%rip),%rax        # 2b320 <g_268>
   14c7e:	48 89 85 98 f9 ff ff 	mov    %rax,-0x668(%rbp)
   14c85:	48 8d 85 98 f9 ff ff 	lea    -0x668(%rbp),%rax
   14c8c:	48 89 85 f0 fc ff ff 	mov    %rax,-0x310(%rbp)
   14c93:	48 8d 85 98 f9 ff ff 	lea    -0x668(%rbp),%rax
   14c9a:	48 89 85 f8 fc ff ff 	mov    %rax,-0x308(%rbp)
   14ca1:	48 c7 85 00 fd ff ff 	movq   $0x0,-0x300(%rbp)
   14ca8:	00 00 00 00 
   14cac:	48 c7 85 08 fd ff ff 	movq   $0x0,-0x2f8(%rbp)
   14cb3:	00 00 00 00 
   14cb7:	48 8d 85 98 f9 ff ff 	lea    -0x668(%rbp),%rax
   14cbe:	48 89 85 10 fd ff ff 	mov    %rax,-0x2f0(%rbp)
   14cc5:	48 8d 85 98 f9 ff ff 	lea    -0x668(%rbp),%rax
   14ccc:	48 89 85 18 fd ff ff 	mov    %rax,-0x2e8(%rbp)
   14cd3:	48 8d 85 98 f9 ff ff 	lea    -0x668(%rbp),%rax
   14cda:	48 89 85 20 fd ff ff 	mov    %rax,-0x2e0(%rbp)
   14ce1:	48 8d 85 98 f9 ff ff 	lea    -0x668(%rbp),%rax
   14ce8:	48 89 85 28 fd ff ff 	mov    %rax,-0x2d8(%rbp)
   14cef:	48 8d 85 98 f9 ff ff 	lea    -0x668(%rbp),%rax
   14cf6:	48 89 85 30 fd ff ff 	mov    %rax,-0x2d0(%rbp)
   14cfd:	48 8d 85 98 f9 ff ff 	lea    -0x668(%rbp),%rax
   14d04:	48 89 85 38 fd ff ff 	mov    %rax,-0x2c8(%rbp)
   14d0b:	48 8d 85 98 f9 ff ff 	lea    -0x668(%rbp),%rax
   14d12:	48 89 85 40 fd ff ff 	mov    %rax,-0x2c0(%rbp)
   14d19:	48 8d 85 98 f9 ff ff 	lea    -0x668(%rbp),%rax
   14d20:	48 89 85 48 fd ff ff 	mov    %rax,-0x2b8(%rbp)
   14d27:	48 8d 85 98 f9 ff ff 	lea    -0x668(%rbp),%rax
   14d2e:	48 89 85 50 fd ff ff 	mov    %rax,-0x2b0(%rbp)
   14d35:	48 8d 85 98 f9 ff ff 	lea    -0x668(%rbp),%rax
   14d3c:	48 89 85 58 fd ff ff 	mov    %rax,-0x2a8(%rbp)
   14d43:	48 8d 85 98 f9 ff ff 	lea    -0x668(%rbp),%rax
   14d4a:	48 89 85 60 fd ff ff 	mov    %rax,-0x2a0(%rbp)
   14d51:	48 c7 85 68 fd ff ff 	movq   $0x0,-0x298(%rbp)
   14d58:	00 00 00 00 
   14d5c:	48 8d 85 98 f9 ff ff 	lea    -0x668(%rbp),%rax
   14d63:	48 89 85 70 fd ff ff 	mov    %rax,-0x290(%rbp)
   14d6a:	48 c7 85 78 fd ff ff 	movq   $0x0,-0x288(%rbp)
   14d71:	00 00 00 00 
   14d75:	48 8d 85 98 f9 ff ff 	lea    -0x668(%rbp),%rax
   14d7c:	48 89 85 80 fd ff ff 	mov    %rax,-0x280(%rbp)
   14d83:	48 c7 85 88 fd ff ff 	movq   $0x0,-0x278(%rbp)
   14d8a:	00 00 00 00 
   14d8e:	48 8d 85 98 f9 ff ff 	lea    -0x668(%rbp),%rax
   14d95:	48 89 85 90 fd ff ff 	mov    %rax,-0x270(%rbp)
   14d9c:	48 8d 85 98 f9 ff ff 	lea    -0x668(%rbp),%rax
   14da3:	48 89 85 98 fd ff ff 	mov    %rax,-0x268(%rbp)
   14daa:	48 8d 85 98 f9 ff ff 	lea    -0x668(%rbp),%rax
   14db1:	48 89 85 a0 fd ff ff 	mov    %rax,-0x260(%rbp)
   14db8:	48 8d 85 98 f9 ff ff 	lea    -0x668(%rbp),%rax
   14dbf:	48 89 85 a8 fd ff ff 	mov    %rax,-0x258(%rbp)
   14dc6:	48 8d 85 98 f9 ff ff 	lea    -0x668(%rbp),%rax
   14dcd:	48 89 85 b0 fd ff ff 	mov    %rax,-0x250(%rbp)
   14dd4:	48 c7 85 b8 fd ff ff 	movq   $0x0,-0x248(%rbp)
   14ddb:	00 00 00 00 
   14ddf:	48 8d 85 98 f9 ff ff 	lea    -0x668(%rbp),%rax
   14de6:	48 89 85 c0 fd ff ff 	mov    %rax,-0x240(%rbp)
   14ded:	48 8d 85 98 f9 ff ff 	lea    -0x668(%rbp),%rax
   14df4:	48 89 85 c8 fd ff ff 	mov    %rax,-0x238(%rbp)
   14dfb:	48 8d 85 98 f9 ff ff 	lea    -0x668(%rbp),%rax
   14e02:	48 89 85 d0 fd ff ff 	mov    %rax,-0x230(%rbp)
   14e09:	48 c7 85 d8 fd ff ff 	movq   $0x0,-0x228(%rbp)
   14e10:	00 00 00 00 
   14e14:	48 8d 85 98 f9 ff ff 	lea    -0x668(%rbp),%rax
   14e1b:	48 89 85 e0 fd ff ff 	mov    %rax,-0x220(%rbp)
   14e22:	48 8d 85 98 f9 ff ff 	lea    -0x668(%rbp),%rax
   14e29:	48 89 85 e8 fd ff ff 	mov    %rax,-0x218(%rbp)
   14e30:	48 8d 85 98 f9 ff ff 	lea    -0x668(%rbp),%rax
   14e37:	48 89 85 f0 fd ff ff 	mov    %rax,-0x210(%rbp)
   14e3e:	48 c7 85 f8 fd ff ff 	movq   $0x0,-0x208(%rbp)
   14e45:	00 00 00 00 
   14e49:	48 8d 85 98 f9 ff ff 	lea    -0x668(%rbp),%rax
   14e50:	48 89 85 00 fe ff ff 	mov    %rax,-0x200(%rbp)
   14e57:	48 8d 85 98 f9 ff ff 	lea    -0x668(%rbp),%rax
   14e5e:	48 89 85 08 fe ff ff 	mov    %rax,-0x1f8(%rbp)
   14e65:	48 8d 85 98 f9 ff ff 	lea    -0x668(%rbp),%rax
   14e6c:	48 89 85 10 fe ff ff 	mov    %rax,-0x1f0(%rbp)
   14e73:	48 8d 85 98 f9 ff ff 	lea    -0x668(%rbp),%rax
   14e7a:	48 89 85 18 fe ff ff 	mov    %rax,-0x1e8(%rbp)
   14e81:	48 8d 85 98 f9 ff ff 	lea    -0x668(%rbp),%rax
   14e88:	48 89 85 20 fe ff ff 	mov    %rax,-0x1e0(%rbp)
   14e8f:	48 c7 85 28 fe ff ff 	movq   $0x0,-0x1d8(%rbp)
   14e96:	00 00 00 00 
   14e9a:	48 8d 85 98 f9 ff ff 	lea    -0x668(%rbp),%rax
   14ea1:	48 89 85 30 fe ff ff 	mov    %rax,-0x1d0(%rbp)
   14ea8:	48 c7 85 38 fe ff ff 	movq   $0x0,-0x1c8(%rbp)
   14eaf:	00 00 00 00 
   14eb3:	48 8d 85 98 f9 ff ff 	lea    -0x668(%rbp),%rax
   14eba:	48 89 85 40 fe ff ff 	mov    %rax,-0x1c0(%rbp)
   14ec1:	48 c7 85 48 fe ff ff 	movq   $0x0,-0x1b8(%rbp)
   14ec8:	00 00 00 00 
   14ecc:	48 8d 85 98 f9 ff ff 	lea    -0x668(%rbp),%rax
   14ed3:	48 89 85 50 fe ff ff 	mov    %rax,-0x1b0(%rbp)
   14eda:	48 8d 85 98 f9 ff ff 	lea    -0x668(%rbp),%rax
   14ee1:	48 89 85 58 fe ff ff 	mov    %rax,-0x1a8(%rbp)
   14ee8:	48 8d 85 98 f9 ff ff 	lea    -0x668(%rbp),%rax
   14eef:	48 89 85 60 fe ff ff 	mov    %rax,-0x1a0(%rbp)
   14ef6:	48 8d 85 98 f9 ff ff 	lea    -0x668(%rbp),%rax
   14efd:	48 89 85 68 fe ff ff 	mov    %rax,-0x198(%rbp)
   14f04:	48 8d 85 98 f9 ff ff 	lea    -0x668(%rbp),%rax
   14f0b:	48 89 85 70 fe ff ff 	mov    %rax,-0x190(%rbp)
   14f12:	48 8d 85 98 f9 ff ff 	lea    -0x668(%rbp),%rax
   14f19:	48 89 85 78 fe ff ff 	mov    %rax,-0x188(%rbp)
   14f20:	48 8d 85 98 f9 ff ff 	lea    -0x668(%rbp),%rax
   14f27:	48 89 85 80 fe ff ff 	mov    %rax,-0x180(%rbp)
   14f2e:	48 8d 85 98 f9 ff ff 	lea    -0x668(%rbp),%rax
   14f35:	48 89 85 88 fe ff ff 	mov    %rax,-0x178(%rbp)
   14f3c:	48 8d 85 98 f9 ff ff 	lea    -0x668(%rbp),%rax
   14f43:	48 89 85 90 fe ff ff 	mov    %rax,-0x170(%rbp)
   14f4a:	48 8d 85 98 f9 ff ff 	lea    -0x668(%rbp),%rax
   14f51:	48 89 85 98 fe ff ff 	mov    %rax,-0x168(%rbp)
   14f58:	48 8d 85 98 f9 ff ff 	lea    -0x668(%rbp),%rax
   14f5f:	48 89 85 a0 fe ff ff 	mov    %rax,-0x160(%rbp)
   14f66:	48 8d 85 98 f9 ff ff 	lea    -0x668(%rbp),%rax
   14f6d:	48 89 85 a8 fe ff ff 	mov    %rax,-0x158(%rbp)
   14f74:	48 8d 85 98 f9 ff ff 	lea    -0x668(%rbp),%rax
   14f7b:	48 89 85 b0 fe ff ff 	mov    %rax,-0x150(%rbp)
   14f82:	48 8d 85 98 f9 ff ff 	lea    -0x668(%rbp),%rax
   14f89:	48 89 85 b8 fe ff ff 	mov    %rax,-0x148(%rbp)
   14f90:	48 8d 85 98 f9 ff ff 	lea    -0x668(%rbp),%rax
   14f97:	48 89 85 c0 fe ff ff 	mov    %rax,-0x140(%rbp)
   14f9e:	48 c7 85 c8 fe ff ff 	movq   $0x0,-0x138(%rbp)
   14fa5:	00 00 00 00 
   14fa9:	48 8d 85 98 f9 ff ff 	lea    -0x668(%rbp),%rax
   14fb0:	48 89 85 d0 fe ff ff 	mov    %rax,-0x130(%rbp)
   14fb7:	48 c7 85 d8 fe ff ff 	movq   $0x0,-0x128(%rbp)
   14fbe:	00 00 00 00 
   14fc2:	48 8d 85 98 f9 ff ff 	lea    -0x668(%rbp),%rax
   14fc9:	48 89 85 e0 fe ff ff 	mov    %rax,-0x120(%rbp)
   14fd0:	48 c7 85 e8 fe ff ff 	movq   $0x0,-0x118(%rbp)
   14fd7:	00 00 00 00 
   14fdb:	48 8d 85 98 f9 ff ff 	lea    -0x668(%rbp),%rax
   14fe2:	48 89 85 f0 fe ff ff 	mov    %rax,-0x110(%rbp)
   14fe9:	48 8d 85 98 f9 ff ff 	lea    -0x668(%rbp),%rax
   14ff0:	48 89 85 f8 fe ff ff 	mov    %rax,-0x108(%rbp)
   14ff7:	48 8d 85 98 f9 ff ff 	lea    -0x668(%rbp),%rax
   14ffe:	48 89 85 00 ff ff ff 	mov    %rax,-0x100(%rbp)
   15005:	48 8d 85 98 f9 ff ff 	lea    -0x668(%rbp),%rax
   1500c:	48 89 85 08 ff ff ff 	mov    %rax,-0xf8(%rbp)
   15013:	48 8d 85 98 f9 ff ff 	lea    -0x668(%rbp),%rax
   1501a:	48 89 85 10 ff ff ff 	mov    %rax,-0xf0(%rbp)
   15021:	48 c7 85 18 ff ff ff 	movq   $0x0,-0xe8(%rbp)
   15028:	00 00 00 00 
   1502c:	48 8d 85 98 f9 ff ff 	lea    -0x668(%rbp),%rax
   15033:	48 89 85 20 ff ff ff 	mov    %rax,-0xe0(%rbp)
   1503a:	48 8d 85 98 f9 ff ff 	lea    -0x668(%rbp),%rax
   15041:	48 89 85 28 ff ff ff 	mov    %rax,-0xd8(%rbp)
   15048:	48 8d 85 98 f9 ff ff 	lea    -0x668(%rbp),%rax
   1504f:	48 89 85 30 ff ff ff 	mov    %rax,-0xd0(%rbp)
   15056:	48 c7 85 38 ff ff ff 	movq   $0x0,-0xc8(%rbp)
   1505d:	00 00 00 00 
   15061:	48 8d 85 98 f9 ff ff 	lea    -0x668(%rbp),%rax
   15068:	48 89 85 40 ff ff ff 	mov    %rax,-0xc0(%rbp)
   1506f:	48 8d 85 98 f9 ff ff 	lea    -0x668(%rbp),%rax
   15076:	48 89 85 48 ff ff ff 	mov    %rax,-0xb8(%rbp)
   1507d:	48 8d 85 98 f9 ff ff 	lea    -0x668(%rbp),%rax
   15084:	48 89 85 50 ff ff ff 	mov    %rax,-0xb0(%rbp)
   1508b:	48 c7 85 58 ff ff ff 	movq   $0x0,-0xa8(%rbp)
   15092:	00 00 00 00 
   15096:	48 8d 85 98 f9 ff ff 	lea    -0x668(%rbp),%rax
   1509d:	48 89 85 60 ff ff ff 	mov    %rax,-0xa0(%rbp)
   150a4:	48 8d 85 98 f9 ff ff 	lea    -0x668(%rbp),%rax
   150ab:	48 89 85 68 ff ff ff 	mov    %rax,-0x98(%rbp)
   150b2:	48 8d 85 98 f9 ff ff 	lea    -0x668(%rbp),%rax
   150b9:	48 89 85 70 ff ff ff 	mov    %rax,-0x90(%rbp)
   150c0:	48 8d 85 98 f9 ff ff 	lea    -0x668(%rbp),%rax
   150c7:	48 89 85 78 ff ff ff 	mov    %rax,-0x88(%rbp)
   150ce:	48 8d 85 98 f9 ff ff 	lea    -0x668(%rbp),%rax
   150d5:	48 89 45 80          	mov    %rax,-0x80(%rbp)
   150d9:	48 c7 45 88 00 00 00 	movq   $0x0,-0x78(%rbp)
   150e0:	00 
   150e1:	48 8d 85 98 f9 ff ff 	lea    -0x668(%rbp),%rax
   150e8:	48 89 45 90          	mov    %rax,-0x70(%rbp)
   150ec:	48 c7 45 98 00 00 00 	movq   $0x0,-0x68(%rbp)
   150f3:	00 
   150f4:	48 8d 85 98 f9 ff ff 	lea    -0x668(%rbp),%rax
   150fb:	48 89 45 a0          	mov    %rax,-0x60(%rbp)
   150ff:	48 c7 45 a8 00 00 00 	movq   $0x0,-0x58(%rbp)
   15106:	00 
   15107:	48 8d 85 98 f9 ff ff 	lea    -0x668(%rbp),%rax
   1510e:	48 89 45 b0          	mov    %rax,-0x50(%rbp)
   15112:	48 8d 85 98 f9 ff ff 	lea    -0x668(%rbp),%rax
   15119:	48 89 45 b8          	mov    %rax,-0x48(%rbp)
   1511d:	48 8d 85 98 f9 ff ff 	lea    -0x668(%rbp),%rax
   15124:	48 89 45 c0          	mov    %rax,-0x40(%rbp)
   15128:	48 8d 85 98 f9 ff ff 	lea    -0x668(%rbp),%rax
   1512f:	48 89 45 c8          	mov    %rax,-0x38(%rbp)
   15133:	48 8d 85 98 f9 ff ff 	lea    -0x668(%rbp),%rax
   1513a:	48 89 45 d0          	mov    %rax,-0x30(%rbp)
   1513e:	48 8d 85 98 f9 ff ff 	lea    -0x668(%rbp),%rax
   15145:	48 89 45 d8          	mov    %rax,-0x28(%rbp)
   15149:	48 8d 85 98 f9 ff ff 	lea    -0x668(%rbp),%rax
   15150:	48 89 45 e0          	mov    %rax,-0x20(%rbp)
   15154:	48 8d 85 98 f9 ff ff 	lea    -0x668(%rbp),%rax
   1515b:	48 89 45 e8          	mov    %rax,-0x18(%rbp)
   1515f:	48 c7 85 b8 f9 ff ff 	movq   $0x0,-0x648(%rbp)
   15166:	00 00 00 00 
   1516a:	48 8d 05 df 7f 01 00 	lea    0x17fdf(%rip),%rax        # 2d150 <g_3505>
   15171:	48 89 85 c0 f9 ff ff 	mov    %rax,-0x640(%rbp)
   15178:	c7 85 30 fa ff ff 99 	movl   $0x85575c99,-0x5d0(%rbp)
   1517f:	5c 57 85 
   15182:	c7 85 34 fa ff ff fe 	movl   $0xfffffffe,-0x5cc(%rbp)
   15189:	ff ff ff 
   1518c:	c7 85 38 fa ff ff f9 	movl   $0xfffffff9,-0x5c8(%rbp)
   15193:	ff ff ff 
   15196:	c7 85 3c fa ff ff fe 	movl   $0xfffffffe,-0x5c4(%rbp)
   1519d:	ff ff ff 
   151a0:	c7 85 40 fa ff ff 99 	movl   $0x85575c99,-0x5c0(%rbp)
   151a7:	5c 57 85 
   151aa:	c7 85 44 fa ff ff c4 	movl   $0xe0c34c4,-0x5bc(%rbp)
   151b1:	34 0c 0e 
   151b4:	c7 85 48 fa ff ff f6 	movl   $0xd46bedf6,-0x5b8(%rbp)
   151bb:	ed 6b d4 
   151be:	c7 85 4c fa ff ff 05 	movl   $0x5,-0x5b4(%rbp)
   151c5:	00 00 00 
   151c8:	c7 85 50 fa ff ff f6 	movl   $0xd46bedf6,-0x5b0(%rbp)
   151cf:	ed 6b d4 
   151d2:	c7 85 54 fa ff ff c4 	movl   $0xe0c34c4,-0x5ac(%rbp)
   151d9:	34 0c 0e 
   151dc:	c7 85 58 fa ff ff 99 	movl   $0x85575c99,-0x5a8(%rbp)
   151e3:	5c 57 85 
   151e6:	c7 85 5c fa ff ff fe 	movl   $0xfffffffe,-0x5a4(%rbp)
   151ed:	ff ff ff 
   151f0:	c7 85 60 fa ff ff f9 	movl   $0xfffffff9,-0x5a0(%rbp)
   151f7:	ff ff ff 
   151fa:	c7 85 64 fa ff ff fe 	movl   $0xfffffffe,-0x59c(%rbp)
   15201:	ff ff ff 
   15204:	c7 85 68 fa ff ff 99 	movl   $0x85575c99,-0x598(%rbp)
   1520b:	5c 57 85 
   1520e:	c7 85 6c fa ff ff c4 	movl   $0xe0c34c4,-0x594(%rbp)
   15215:	34 0c 0e 
   15218:	c7 85 70 fa ff ff f6 	movl   $0xd46bedf6,-0x590(%rbp)
   1521f:	ed 6b d4 
   15222:	c7 85 74 fa ff ff 05 	movl   $0x5,-0x58c(%rbp)
   15229:	00 00 00 
   1522c:	c7 85 78 fa ff ff f6 	movl   $0xd46bedf6,-0x588(%rbp)
   15233:	ed 6b d4 
   15236:	c7 85 7c fa ff ff c4 	movl   $0xe0c34c4,-0x584(%rbp)
   1523d:	34 0c 0e 
   15240:	c7 85 80 fa ff ff 99 	movl   $0x85575c99,-0x580(%rbp)
   15247:	5c 57 85 
   1524a:	c7 85 84 fa ff ff fe 	movl   $0xfffffffe,-0x57c(%rbp)
   15251:	ff ff ff 
   15254:	c7 85 88 fa ff ff f9 	movl   $0xfffffff9,-0x578(%rbp)
   1525b:	ff ff ff 
   1525e:	c7 85 8c fa ff ff fe 	movl   $0xfffffffe,-0x574(%rbp)
   15265:	ff ff ff 
   15268:	c7 85 90 fa ff ff 99 	movl   $0x85575c99,-0x570(%rbp)
   1526f:	5c 57 85 
   15272:	c7 85 94 fa ff ff c4 	movl   $0xe0c34c4,-0x56c(%rbp)
   15279:	34 0c 0e 
   1527c:	c7 85 98 fa ff ff f6 	movl   $0xd46bedf6,-0x568(%rbp)
   15283:	ed 6b d4 
   15286:	c7 85 9c fa ff ff 05 	movl   $0x5,-0x564(%rbp)
   1528d:	00 00 00 
   15290:	c7 85 a0 fa ff ff f6 	movl   $0xd46bedf6,-0x560(%rbp)
   15297:	ed 6b d4 
   1529a:	c7 85 a4 fa ff ff c4 	movl   $0xe0c34c4,-0x55c(%rbp)
   152a1:	34 0c 0e 
   152a4:	c7 85 a8 fa ff ff 99 	movl   $0x85575c99,-0x558(%rbp)
   152ab:	5c 57 85 
   152ae:	c7 85 ac fa ff ff fe 	movl   $0xfffffffe,-0x554(%rbp)
   152b5:	ff ff ff 
   152b8:	c7 85 b0 fa ff ff f9 	movl   $0xfffffff9,-0x550(%rbp)
   152bf:	ff ff ff 
   152c2:	c7 85 b4 fa ff ff fe 	movl   $0xfffffffe,-0x54c(%rbp)
   152c9:	ff ff ff 
   152cc:	c7 85 b8 fa ff ff 99 	movl   $0x85575c99,-0x548(%rbp)
   152d3:	5c 57 85 
   152d6:	c7 85 bc fa ff ff c4 	movl   $0xe0c34c4,-0x544(%rbp)
   152dd:	34 0c 0e 
   152e0:	c7 85 c0 fa ff ff f6 	movl   $0xd46bedf6,-0x540(%rbp)
   152e7:	ed 6b d4 
   152ea:	c7 85 c4 fa ff ff 05 	movl   $0x5,-0x53c(%rbp)
   152f1:	00 00 00 
   152f4:	c7 85 c8 fa ff ff f6 	movl   $0xd46bedf6,-0x538(%rbp)
   152fb:	ed 6b d4 
   152fe:	c7 85 cc fa ff ff c4 	movl   $0xe0c34c4,-0x534(%rbp)
   15305:	34 0c 0e 
   15308:	c7 85 d0 fa ff ff 99 	movl   $0x85575c99,-0x530(%rbp)
   1530f:	5c 57 85 
   15312:	c7 85 d4 fa ff ff fe 	movl   $0xfffffffe,-0x52c(%rbp)
   15319:	ff ff ff 
   1531c:	c7 85 d8 fa ff ff f9 	movl   $0xfffffff9,-0x528(%rbp)
   15323:	ff ff ff 
   15326:	c7 85 dc fa ff ff fe 	movl   $0xfffffffe,-0x524(%rbp)
   1532d:	ff ff ff 
   15330:	c7 85 e0 fa ff ff 99 	movl   $0x85575c99,-0x520(%rbp)
   15337:	5c 57 85 
   1533a:	48 8d 05 9f 79 01 00 	lea    0x1799f(%rip),%rax        # 2cce0 <g_2258>
   15341:	48 89 85 c8 f9 ff ff 	mov    %rax,-0x638(%rbp)
   15348:	c7 85 70 f9 ff ff 00 	movl   $0x0,-0x690(%rbp)
   1534f:	00 00 00 
   15352:	eb 1a                	jmp    1536e <func_12+0x786>
   15354:	8b 85 70 f9 ff ff    	mov    -0x690(%rbp),%eax
   1535a:	48 98                	cltq   
   1535c:	c7 84 85 10 fa ff ff 	movl   $0xf0c18c66,-0x5f0(%rbp,%rax,4)
   15363:	66 8c c1 f0 
   15367:	83 85 70 f9 ff ff 01 	addl   $0x1,-0x690(%rbp)
   1536e:	83 bd 70 f9 ff ff 07 	cmpl   $0x7,-0x690(%rbp)
   15375:	7e dd                	jle    15354 <func_12+0x76c>
   15377:	c7 05 27 26 01 00 00 	movl   $0x0,0x12627(%rip)        # 279a8 <g_2181>
   1537e:	00 00 00 
   15381:	eb 6b                	jmp    153ee <func_12+0x806>
   15383:	c7 05 a7 25 01 00 fb 	movl   $0xfffffffb,0x125a7(%rip)        # 27934 <g_1350>
   1538a:	ff ff ff 
   1538d:	eb 45                	jmp    153d4 <func_12+0x7ec>
   1538f:	c7 45 f4 0e 0e 0e 0e 	movl   $0xe0e0e0e,-0xc(%rbp)
   15396:	48 8d 05 bb 66 01 00 	lea    0x166bb(%rip),%rax        # 2ba58 <g_935+0x58>
   1539d:	48 89 85 08 fa ff ff 	mov    %rax,-0x5f8(%rbp)
   153a4:	0f b6 55 f4          	movzbl -0xc(%rbp),%edx
   153a8:	48 8b 05 f9 66 01 00 	mov    0x166f9(%rip),%rax        # 2baa8 <g_1228>
   153af:	0f be d2             	movsbl %dl,%edx
   153b2:	89 10                	mov    %edx,(%rax)
   153b4:	48 8b 85 08 fa ff ff 	mov    -0x5f8(%rbp),%rax
   153bb:	48 8b 95 a8 f9 ff ff 	mov    -0x658(%rbp),%rdx
   153c2:	48 89 10             	mov    %rdx,(%rax)
   153c5:	8b 05 69 25 01 00    	mov    0x12569(%rip),%eax        # 27934 <g_1350>
   153cb:	83 c0 01             	add    $0x1,%eax
   153ce:	89 05 60 25 01 00    	mov    %eax,0x12560(%rip)        # 27934 <g_1350>
   153d4:	8b 05 5a 25 01 00    	mov    0x1255a(%rip),%eax        # 27934 <g_1350>
   153da:	83 f8 0d             	cmp    $0xd,%eax
   153dd:	7f b0                	jg     1538f <func_12+0x7a7>
   153df:	8b 05 c3 25 01 00    	mov    0x125c3(%rip),%eax        # 279a8 <g_2181>
   153e5:	83 e8 01             	sub    $0x1,%eax
   153e8:	89 05 ba 25 01 00    	mov    %eax,0x125ba(%rip)        # 279a8 <g_2181>
   153ee:	8b 05 b4 25 01 00    	mov    0x125b4(%rip),%eax        # 279a8 <g_2181>
   153f4:	83 f8 e4             	cmp    $0xffffffe4,%eax
   153f7:	7c 8a                	jl     15383 <func_12+0x79b>
   153f9:	48 c7 05 24 21 01 00 	movq   $0x11,0x12124(%rip)        # 27528 <g_1131>
   15400:	11 00 00 00 
   15404:	e9 d9 00 00 00       	jmpq   154e2 <func_12+0x8fa>
   15409:	48 c7 85 d0 f9 ff ff 	movq   $0xfffffffffffffff6,-0x630(%rbp)
   15410:	f6 ff ff ff 
   15414:	48 8d 05 75 65 01 00 	lea    0x16575(%rip),%rax        # 2b990 <g_834>
   1541b:	48 89 85 a0 f9 ff ff 	mov    %rax,-0x660(%rbp)
   15422:	48 8d 85 a0 f9 ff ff 	lea    -0x660(%rbp),%rax
   15429:	48 89 85 d8 f9 ff ff 	mov    %rax,-0x628(%rbp)
   15430:	c7 85 88 f9 ff ff 3b 	movl   $0x87c0523b,-0x678(%rbp)
   15437:	52 c0 87 
   1543a:	c7 85 8c f9 ff ff 05 	movl   $0x5,-0x674(%rbp)
   15441:	00 00 00 
   15444:	c7 85 90 f9 ff ff 01 	movl   $0x1,-0x670(%rbp)
   1544b:	00 00 00 
   1544e:	48 8d 85 f0 fa ff ff 	lea    -0x510(%rbp),%rax
   15455:	48 8d 15 44 bc 00 00 	lea    0xbc44(%rip),%rdx        # 210a0 <g_2211+0x10>
   1545c:	b9 40 00 00 00       	mov    $0x40,%ecx
   15461:	48 89 c7             	mov    %rax,%rdi
   15464:	48 89 d6             	mov    %rdx,%rsi
   15467:	f3 48 a5             	rep movsq %ds:(%rsi),%es:(%rdi)
   1546a:	48 8d 05 0f 65 01 00 	lea    0x1650f(%rip),%rax        # 2b980 <g_796>
   15471:	48 89 85 e0 f9 ff ff 	mov    %rax,-0x620(%rbp)
   15478:	66 c7 85 6e f9 ff ff 	movw   $0xe79,-0x692(%rbp)
   1547f:	79 0e 
   15481:	48 8d 05 bc 2c 01 00 	lea    0x12cbc(%rip),%rax        # 28144 <g_3370>
   15488:	48 89 85 e8 f9 ff ff 	mov    %rax,-0x618(%rbp)
   1548f:	48 b8 b0 b8 69 c4 f3 	movabs $0x699d23f3c469b8b0,%rax
   15496:	23 9d 69 
   15499:	48 89 85 f0 f9 ff ff 	mov    %rax,-0x610(%rbp)
   154a0:	c7 85 94 f9 ff ff 5e 	movl   $0x794ee5e,-0x66c(%rbp)
   154a7:	ee 94 07 
   154aa:	48 8d 05 17 9c 01 00 	lea    0x19c17(%rip),%rax        # 2f0c8 <g_265>
   154b1:	48 89 85 f8 f9 ff ff 	mov    %rax,-0x608(%rbp)
   154b8:	48 8d 05 21 78 01 00 	lea    0x17821(%rip),%rax        # 2cce0 <g_2258>
   154bf:	48 89 85 00 fa ff ff 	mov    %rax,-0x600(%rbp)
   154c6:	48 8b 05 5b 20 01 00 	mov    0x1205b(%rip),%rax        # 27528 <g_1131>
   154cd:	be 09 00 00 00       	mov    $0x9,%esi
   154d2:	89 c7                	mov    %eax,%edi
   154d4:	e8 df b9 ff ff       	callq  10eb8 <safe_add_func_uint32_t_u_u>
   154d9:	89 c0                	mov    %eax,%eax
   154db:	48 89 05 46 20 01 00 	mov    %rax,0x12046(%rip)        # 27528 <g_1131>
   154e2:	48 8b 05 3f 20 01 00 	mov    0x1203f(%rip),%rax        # 27528 <g_1131>
   154e9:	48 83 f8 20          	cmp    $0x20,%rax
   154ed:	0f 87 16 ff ff ff    	ja     15409 <func_12+0x821>
   154f3:	0f b6 85 5c f9 ff ff 	movzbl -0x6a4(%rbp),%eax
   154fa:	48 8b 4d f8          	mov    -0x8(%rbp),%rcx
   154fe:	64 48 33 0c 25 28 00 	xor    %fs:0x28,%rcx
   15505:	00 00 
   15507:	74 05                	je     1550e <func_12+0x926>
   15509:	e8 62 ab ff ff       	callq  10070 <__stack_chk_fail@plt>
   1550e:	c9                   	leaveq 
   1550f:	c3                   	retq   

0000000000015510 <func_23>:
   15510:	f3 0f 1e fa          	endbr64 
   15514:	55                   	push   %rbp
   15515:	48 89 e5             	mov    %rsp,%rbp
   15518:	41 57                	push   %r15
   1551a:	41 56                	push   %r14
   1551c:	41 55                	push   %r13
   1551e:	41 54                	push   %r12
   15520:	53                   	push   %rbx
   15521:	48 81 ec 00 10 00 00 	sub    $0x1000,%rsp
   15528:	48 83 0c 24 00       	orq    $0x0,(%rsp)
   1552d:	48 81 ec 00 10 00 00 	sub    $0x1000,%rsp
   15534:	48 83 0c 24 00       	orq    $0x0,(%rsp)
   15539:	48 81 ec 38 02 00 00 	sub    $0x238,%rsp
   15540:	89 f8                	mov    %edi,%eax
   15542:	89 b5 a8 dd ff ff    	mov    %esi,-0x2258(%rbp)
   15548:	48 89 95 a0 dd ff ff 	mov    %rdx,-0x2260(%rbp)
   1554f:	88 85 ac dd ff ff    	mov    %al,-0x2254(%rbp)
   15555:	64 48 8b 04 25 28 00 	mov    %fs:0x28,%rax
   1555c:	00 00 
   1555e:	48 89 45 c8          	mov    %rax,-0x38(%rbp)
   15562:	31 c0                	xor    %eax,%eax
   15564:	48 c7 85 38 df ff ff 	movq   $0x0,-0x20c8(%rbp)
   1556b:	00 00 00 00 
   1556f:	48 8d 85 a0 e6 ff ff 	lea    -0x1960(%rbp),%rax
   15576:	48 8d 15 23 bd 00 00 	lea    0xbd23(%rip),%rdx        # 212a0 <g_2211+0x210>
   1557d:	b9 54 00 00 00       	mov    $0x54,%ecx
   15582:	48 89 c7             	mov    %rax,%rdi
   15585:	48 89 d6             	mov    %rdx,%rsi
   15588:	f3 48 a5             	rep movsq %ds:(%rsi),%es:(%rdi)
   1558b:	48 8d 05 66 64 01 00 	lea    0x16466(%rip),%rax        # 2b9f8 <g_908>
   15592:	48 89 85 e8 de ff ff 	mov    %rax,-0x2118(%rbp)
   15599:	48 8d 05 74 20 01 00 	lea    0x12074(%rip),%rax        # 27614 <g_1294+0xb4>
   155a0:	48 89 85 40 df ff ff 	mov    %rax,-0x20c0(%rbp)
   155a7:	48 8d 05 36 1f 01 00 	lea    0x11f36(%rip),%rax        # 274e4 <g_955>
   155ae:	48 89 85 f0 de ff ff 	mov    %rax,-0x2110(%rbp)
   155b5:	c6 85 b4 dd ff ff 7f 	movb   $0x7f,-0x224c(%rbp)
   155bc:	48 8d 85 f0 e4 ff ff 	lea    -0x1b10(%rbp),%rax
   155c3:	48 8d 15 76 bf 00 00 	lea    0xbf76(%rip),%rdx        # 21540 <g_2211+0x4b0>
   155ca:	b9 36 00 00 00       	mov    $0x36,%ecx
   155cf:	48 89 c7             	mov    %rax,%rdi
   155d2:	48 89 d6             	mov    %rdx,%rsi
   155d5:	f3 48 a5             	rep movsq %ds:(%rsi),%es:(%rdi)
   155d8:	48 8d 05 61 16 01 00 	lea    0x11661(%rip),%rax        # 26c40 <g_478>
   155df:	48 89 85 48 df ff ff 	mov    %rax,-0x20b8(%rbp)
   155e6:	48 8d 05 4b 5d 01 00 	lea    0x15d4b(%rip),%rax        # 2b338 <g_380>
   155ed:	48 89 85 50 df ff ff 	mov    %rax,-0x20b0(%rbp)
   155f4:	c7 85 d0 dd ff ff 40 	movl   $0x96a09140,-0x2230(%rbp)
   155fb:	91 a0 96 
   155fe:	48 8d 05 c3 9a 01 00 	lea    0x19ac3(%rip),%rax        # 2f0c8 <g_265>
   15605:	48 89 85 58 df ff ff 	mov    %rax,-0x20a8(%rbp)
   1560c:	48 8d 85 e8 de ff ff 	lea    -0x2118(%rbp),%rax
   15613:	48 89 85 f8 de ff ff 	mov    %rax,-0x2108(%rbp)
   1561a:	48 8d 85 f8 de ff ff 	lea    -0x2108(%rbp),%rax
   15621:	48 89 85 60 df ff ff 	mov    %rax,-0x20a0(%rbp)
   15628:	48 c7 85 68 df ff ff 	movq   $0x0,-0x2098(%rbp)
   1562f:	00 00 00 00 
   15633:	48 c7 85 70 df ff ff 	movq   $0x0,-0x2090(%rbp)
   1563a:	00 00 00 00 
   1563e:	48 c7 85 78 df ff ff 	movq   $0x0,-0x2088(%rbp)
   15645:	00 00 00 00 
   15649:	48 8d 85 f0 e4 ff ff 	lea    -0x1b10(%rbp),%rax
   15650:	48 05 3c 01 00 00    	add    $0x13c,%rax
   15656:	48 89 85 40 e9 ff ff 	mov    %rax,-0x16c0(%rbp)
   1565d:	48 8d 05 54 14 01 00 	lea    0x11454(%rip),%rax        # 26ab8 <g_231+0x238>
   15664:	48 89 85 48 e9 ff ff 	mov    %rax,-0x16b8(%rbp)
   1566b:	48 8d 05 b6 09 01 00 	lea    0x109b6(%rip),%rax        # 26028 <g_34>
   15672:	48 89 85 50 e9 ff ff 	mov    %rax,-0x16b0(%rbp)
   15679:	48 8d 85 f0 e4 ff ff 	lea    -0x1b10(%rbp),%rax
   15680:	48 05 3c 01 00 00    	add    $0x13c,%rax
   15686:	48 89 85 58 e9 ff ff 	mov    %rax,-0x16a8(%rbp)
   1568d:	48 8d 05 94 09 01 00 	lea    0x10994(%rip),%rax        # 26028 <g_34>
   15694:	48 89 85 60 e9 ff ff 	mov    %rax,-0x16a0(%rbp)
   1569b:	48 c7 85 68 e9 ff ff 	movq   $0x0,-0x1698(%rbp)
   156a2:	00 00 00 00 
   156a6:	48 8d 05 fb 22 01 00 	lea    0x122fb(%rip),%rax        # 279a8 <g_2181>
   156ad:	48 89 85 70 e9 ff ff 	mov    %rax,-0x1690(%rbp)
   156b4:	48 8d 05 a5 12 01 00 	lea    0x112a5(%rip),%rax        # 26960 <g_231+0xe0>
   156bb:	48 89 85 78 e9 ff ff 	mov    %rax,-0x1688(%rbp)
   156c2:	48 8d 85 f0 e4 ff ff 	lea    -0x1b10(%rbp),%rax
   156c9:	48 05 3c 01 00 00    	add    $0x13c,%rax
   156cf:	48 89 85 80 e9 ff ff 	mov    %rax,-0x1680(%rbp)
   156d6:	48 8d 05 af 21 01 00 	lea    0x121af(%rip),%rax        # 2788c <g_1294+0x32c>
   156dd:	48 89 85 88 e9 ff ff 	mov    %rax,-0x1678(%rbp)
   156e4:	48 8d 85 f0 e4 ff ff 	lea    -0x1b10(%rbp),%rax
   156eb:	48 05 30 01 00 00    	add    $0x130,%rax
   156f1:	48 89 85 90 e9 ff ff 	mov    %rax,-0x1670(%rbp)
   156f8:	48 8d 05 bd 22 01 00 	lea    0x122bd(%rip),%rax        # 279bc <g_2471>
   156ff:	48 89 85 98 e9 ff ff 	mov    %rax,-0x1668(%rbp)
   15706:	48 8d 05 9b 22 01 00 	lea    0x1229b(%rip),%rax        # 279a8 <g_2181>
   1570d:	48 89 85 a0 e9 ff ff 	mov    %rax,-0x1660(%rbp)
   15714:	48 8d 05 0d 09 01 00 	lea    0x1090d(%rip),%rax        # 26028 <g_34>
   1571b:	48 89 85 a8 e9 ff ff 	mov    %rax,-0x1658(%rbp)
   15722:	48 8d 05 6f 22 01 00 	lea    0x1226f(%rip),%rax        # 27998 <g_1678>
   15729:	48 89 85 b0 e9 ff ff 	mov    %rax,-0x1650(%rbp)
   15730:	48 8d 05 f1 08 01 00 	lea    0x108f1(%rip),%rax        # 26028 <g_34>
   15737:	48 89 85 b8 e9 ff ff 	mov    %rax,-0x1648(%rbp)
   1573e:	48 8d 05 63 22 01 00 	lea    0x12263(%rip),%rax        # 279a8 <g_2181>
   15745:	48 89 85 c0 e9 ff ff 	mov    %rax,-0x1640(%rbp)
   1574c:	48 8d 05 d5 08 01 00 	lea    0x108d5(%rip),%rax        # 26028 <g_34>
   15753:	48 89 85 c8 e9 ff ff 	mov    %rax,-0x1638(%rbp)
   1575a:	48 8d 05 c7 08 01 00 	lea    0x108c7(%rip),%rax        # 26028 <g_34>
   15761:	48 89 85 d0 e9 ff ff 	mov    %rax,-0x1630(%rbp)
   15768:	48 c7 85 d8 e9 ff ff 	movq   $0x0,-0x1628(%rbp)
   1576f:	00 00 00 00 
   15773:	48 c7 85 e0 e9 ff ff 	movq   $0x0,-0x1620(%rbp)
   1577a:	00 00 00 00 
   1577e:	48 8d 85 d0 dd ff ff 	lea    -0x2230(%rbp),%rax
   15785:	48 89 85 e8 e9 ff ff 	mov    %rax,-0x1618(%rbp)
   1578c:	48 8d 05 29 22 01 00 	lea    0x12229(%rip),%rax        # 279bc <g_2471>
   15793:	48 89 85 f0 e9 ff ff 	mov    %rax,-0x1610(%rbp)
   1579a:	48 c7 85 f8 e9 ff ff 	movq   $0x0,-0x1608(%rbp)
   157a1:	00 00 00 00 
   157a5:	48 8d 85 a0 e6 ff ff 	lea    -0x1960(%rbp),%rax
   157ac:	48 83 c0 0c          	add    $0xc,%rax
   157b0:	48 89 85 00 ea ff ff 	mov    %rax,-0x1600(%rbp)
   157b7:	48 8d 85 f0 e4 ff ff 	lea    -0x1b10(%rbp),%rax
   157be:	48 05 3c 01 00 00    	add    $0x13c,%rax
   157c4:	48 89 85 08 ea ff ff 	mov    %rax,-0x15f8(%rbp)
   157cb:	48 8d 05 56 08 01 00 	lea    0x10856(%rip),%rax        # 26028 <g_34>
   157d2:	48 89 85 10 ea ff ff 	mov    %rax,-0x15f0(%rbp)
   157d9:	48 8d 05 dc 21 01 00 	lea    0x121dc(%rip),%rax        # 279bc <g_2471>
   157e0:	48 89 85 18 ea ff ff 	mov    %rax,-0x15e8(%rbp)
   157e7:	48 8d 85 f0 e4 ff ff 	lea    -0x1b10(%rbp),%rax
   157ee:	48 05 3c 01 00 00    	add    $0x13c,%rax
   157f4:	48 89 85 20 ea ff ff 	mov    %rax,-0x15e0(%rbp)
   157fb:	48 8d 05 b6 12 01 00 	lea    0x112b6(%rip),%rax        # 26ab8 <g_231+0x238>
   15802:	48 89 85 28 ea ff ff 	mov    %rax,-0x15d8(%rbp)
   15809:	48 8d 05 98 21 01 00 	lea    0x12198(%rip),%rax        # 279a8 <g_2181>
   15810:	48 89 85 30 ea ff ff 	mov    %rax,-0x15d0(%rbp)
   15817:	48 8d 85 f0 e4 ff ff 	lea    -0x1b10(%rbp),%rax
   1581e:	48 05 3c 01 00 00    	add    $0x13c,%rax
   15824:	48 89 85 38 ea ff ff 	mov    %rax,-0x15c8(%rbp)
   1582b:	48 8d 05 f6 07 01 00 	lea    0x107f6(%rip),%rax        # 26028 <g_34>
   15832:	48 89 85 40 ea ff ff 	mov    %rax,-0x15c0(%rbp)
   15839:	48 c7 85 48 ea ff ff 	movq   $0x0,-0x15b8(%rbp)
   15840:	00 00 00 00 
   15844:	48 c7 85 50 ea ff ff 	movq   $0x0,-0x15b0(%rbp)
   1584b:	00 00 00 00 
   1584f:	48 c7 85 58 ea ff ff 	movq   $0x0,-0x15a8(%rbp)
   15856:	00 00 00 00 
   1585a:	48 c7 85 60 ea ff ff 	movq   $0x0,-0x15a0(%rbp)
   15861:	00 00 00 00 
   15865:	48 8d 05 bc 07 01 00 	lea    0x107bc(%rip),%rax        # 26028 <g_34>
   1586c:	48 89 85 68 ea ff ff 	mov    %rax,-0x1598(%rbp)
   15873:	48 8d 85 f0 e4 ff ff 	lea    -0x1b10(%rbp),%rax
   1587a:	48 05 3c 01 00 00    	add    $0x13c,%rax
   15880:	48 89 85 70 ea ff ff 	mov    %rax,-0x1590(%rbp)
   15887:	48 c7 85 78 ea ff ff 	movq   $0x0,-0x1588(%rbp)
   1588e:	00 00 00 00 
   15892:	48 8d 85 a0 e6 ff ff 	lea    -0x1960(%rbp),%rax
   15899:	48 83 c0 0c          	add    $0xc,%rax
   1589d:	48 89 85 80 ea ff ff 	mov    %rax,-0x1580(%rbp)
   158a4:	48 8d 05 7d 07 01 00 	lea    0x1077d(%rip),%rax        # 26028 <g_34>
   158ab:	48 89 85 88 ea ff ff 	mov    %rax,-0x1578(%rbp)
   158b2:	48 8d 05 a7 10 01 00 	lea    0x110a7(%rip),%rax        # 26960 <g_231+0xe0>
   158b9:	48 89 85 90 ea ff ff 	mov    %rax,-0x1570(%rbp)
   158c0:	48 8d 85 a0 e6 ff ff 	lea    -0x1960(%rbp),%rax
   158c7:	48 05 40 02 00 00    	add    $0x240,%rax
   158cd:	48 89 85 98 ea ff ff 	mov    %rax,-0x1568(%rbp)
   158d4:	48 8d 85 d0 dd ff ff 	lea    -0x2230(%rbp),%rax
   158db:	48 89 85 a0 ea ff ff 	mov    %rax,-0x1560(%rbp)
   158e2:	48 8d 05 bf 20 01 00 	lea    0x120bf(%rip),%rax        # 279a8 <g_2181>
   158e9:	48 89 85 a8 ea ff ff 	mov    %rax,-0x1558(%rbp)
   158f0:	48 8d 85 a0 e6 ff ff 	lea    -0x1960(%rbp),%rax
   158f7:	48 83 c0 0c          	add    $0xc,%rax
   158fb:	48 89 85 b0 ea ff ff 	mov    %rax,-0x1550(%rbp)
   15902:	48 8d 05 af 11 01 00 	lea    0x111af(%rip),%rax        # 26ab8 <g_231+0x238>
   15909:	48 89 85 b8 ea ff ff 	mov    %rax,-0x1548(%rbp)
   15910:	48 c7 85 c0 ea ff ff 	movq   $0x0,-0x1540(%rbp)
   15917:	00 00 00 00 
   1591b:	48 8d 05 86 20 01 00 	lea    0x12086(%rip),%rax        # 279a8 <g_2181>
   15922:	48 89 85 c8 ea ff ff 	mov    %rax,-0x1538(%rbp)
   15929:	48 c7 85 d0 ea ff ff 	movq   $0x0,-0x1530(%rbp)
   15930:	00 00 00 00 
   15934:	48 8d 85 a0 e6 ff ff 	lea    -0x1960(%rbp),%rax
   1593b:	48 05 40 02 00 00    	add    $0x240,%rax
   15941:	48 89 85 d8 ea ff ff 	mov    %rax,-0x1528(%rbp)
   15948:	48 8d 05 09 07 01 00 	lea    0x10709(%rip),%rax        # 26058 <g_107>
   1594f:	48 89 85 e0 ea ff ff 	mov    %rax,-0x1520(%rbp)
   15956:	48 8d 05 5f 20 01 00 	lea    0x1205f(%rip),%rax        # 279bc <g_2471>
   1595d:	48 89 85 e8 ea ff ff 	mov    %rax,-0x1518(%rbp)
   15964:	48 8d 05 2d 20 01 00 	lea    0x1202d(%rip),%rax        # 27998 <g_1678>
   1596b:	48 89 85 f0 ea ff ff 	mov    %rax,-0x1510(%rbp)
   15972:	48 c7 85 f8 ea ff ff 	movq   $0x0,-0x1508(%rbp)
   15979:	00 00 00 00 
   1597d:	48 8d 05 24 20 01 00 	lea    0x12024(%rip),%rax        # 279a8 <g_2181>
   15984:	48 89 85 00 eb ff ff 	mov    %rax,-0x1500(%rbp)
   1598b:	48 8d 05 c6 06 01 00 	lea    0x106c6(%rip),%rax        # 26058 <g_107>
   15992:	48 89 85 08 eb ff ff 	mov    %rax,-0x14f8(%rbp)
   15999:	48 8d 85 f0 e4 ff ff 	lea    -0x1b10(%rbp),%rax
   159a0:	48 83 c0 64          	add    $0x64,%rax
   159a4:	48 89 85 10 eb ff ff 	mov    %rax,-0x14f0(%rbp)
   159ab:	48 c7 85 18 eb ff ff 	movq   $0x0,-0x14e8(%rbp)
   159b2:	00 00 00 00 
   159b6:	48 8d 05 9b 06 01 00 	lea    0x1069b(%rip),%rax        # 26058 <g_107>
   159bd:	48 89 85 20 eb ff ff 	mov    %rax,-0x14e0(%rbp)
   159c4:	48 8d 05 55 0f 01 00 	lea    0x10f55(%rip),%rax        # 26920 <g_231+0xa0>
   159cb:	48 89 85 28 eb ff ff 	mov    %rax,-0x14d8(%rbp)
   159d2:	48 8d 05 cf 1f 01 00 	lea    0x11fcf(%rip),%rax        # 279a8 <g_2181>
   159d9:	48 89 85 30 eb ff ff 	mov    %rax,-0x14d0(%rbp)
   159e0:	48 8d 85 f0 e4 ff ff 	lea    -0x1b10(%rbp),%rax
   159e7:	48 05 3c 01 00 00    	add    $0x13c,%rax
   159ed:	48 89 85 38 eb ff ff 	mov    %rax,-0x14c8(%rbp)
   159f4:	48 8d 05 2d 06 01 00 	lea    0x1062d(%rip),%rax        # 26028 <g_34>
   159fb:	48 89 85 40 eb ff ff 	mov    %rax,-0x14c0(%rbp)
   15a02:	48 c7 85 48 eb ff ff 	movq   $0x0,-0x14b8(%rbp)
   15a09:	00 00 00 00 
   15a0d:	48 8d 85 f0 e4 ff ff 	lea    -0x1b10(%rbp),%rax
   15a14:	48 05 d0 00 00 00    	add    $0xd0,%rax
   15a1a:	48 89 85 50 eb ff ff 	mov    %rax,-0x14b0(%rbp)
   15a21:	48 8d 05 88 1d 01 00 	lea    0x11d88(%rip),%rax        # 277b0 <g_1294+0x250>
   15a28:	48 89 85 58 eb ff ff 	mov    %rax,-0x14a8(%rbp)
   15a2f:	48 8d 85 f0 e4 ff ff 	lea    -0x1b10(%rbp),%rax
   15a36:	48 05 3c 01 00 00    	add    $0x13c,%rax
   15a3c:	48 89 85 60 eb ff ff 	mov    %rax,-0x14a0(%rbp)
   15a43:	48 8d 05 5e 1f 01 00 	lea    0x11f5e(%rip),%rax        # 279a8 <g_2181>
   15a4a:	48 89 85 68 eb ff ff 	mov    %rax,-0x1498(%rbp)
   15a51:	48 8d 85 a0 e6 ff ff 	lea    -0x1960(%rbp),%rax
   15a58:	48 83 c0 0c          	add    $0xc,%rax
   15a5c:	48 89 85 70 eb ff ff 	mov    %rax,-0x1490(%rbp)
   15a63:	48 8d 85 f0 e4 ff ff 	lea    -0x1b10(%rbp),%rax
   15a6a:	48 05 84 01 00 00    	add    $0x184,%rax
   15a70:	48 89 85 78 eb ff ff 	mov    %rax,-0x1488(%rbp)
   15a77:	48 8d 05 aa 05 01 00 	lea    0x105aa(%rip),%rax        # 26028 <g_34>
   15a7e:	48 89 85 80 eb ff ff 	mov    %rax,-0x1480(%rbp)
   15a85:	48 8d 85 f0 e4 ff ff 	lea    -0x1b10(%rbp),%rax
   15a8c:	48 05 d0 00 00 00    	add    $0xd0,%rax
   15a92:	48 89 85 88 eb ff ff 	mov    %rax,-0x1478(%rbp)
   15a99:	48 8d 05 18 10 01 00 	lea    0x11018(%rip),%rax        # 26ab8 <g_231+0x238>
   15aa0:	48 89 85 90 eb ff ff 	mov    %rax,-0x1470(%rbp)
   15aa7:	48 8d 85 a0 e6 ff ff 	lea    -0x1960(%rbp),%rax
   15aae:	48 83 c0 0c          	add    $0xc,%rax
   15ab2:	48 89 85 98 eb ff ff 	mov    %rax,-0x1468(%rbp)
   15ab9:	48 c7 85 a0 eb ff ff 	movq   $0x0,-0x1460(%rbp)
   15ac0:	00 00 00 00 
   15ac4:	48 8d 05 dd 1e 01 00 	lea    0x11edd(%rip),%rax        # 279a8 <g_2181>
   15acb:	48 89 85 a8 eb ff ff 	mov    %rax,-0x1458(%rbp)
   15ad2:	48 8d 05 4f 05 01 00 	lea    0x1054f(%rip),%rax        # 26028 <g_34>
   15ad9:	48 89 85 b0 eb ff ff 	mov    %rax,-0x1450(%rbp)
   15ae0:	48 8d 85 a0 e6 ff ff 	lea    -0x1960(%rbp),%rax
   15ae7:	48 83 c0 04          	add    $0x4,%rax
   15aeb:	48 89 85 b8 eb ff ff 	mov    %rax,-0x1448(%rbp)
   15af2:	48 c7 85 c0 eb ff ff 	movq   $0x0,-0x1440(%rbp)
   15af9:	00 00 00 00 
   15afd:	48 c7 85 c8 eb ff ff 	movq   $0x0,-0x1438(%rbp)
   15b04:	00 00 00 00 
   15b08:	48 8d 85 a0 e6 ff ff 	lea    -0x1960(%rbp),%rax
   15b0f:	48 83 c0 0c          	add    $0xc,%rax
   15b13:	48 89 85 d0 eb ff ff 	mov    %rax,-0x1430(%rbp)
   15b1a:	48 8d 85 f0 e4 ff ff 	lea    -0x1b10(%rbp),%rax
   15b21:	48 05 3c 01 00 00    	add    $0x13c,%rax
   15b27:	48 89 85 d8 eb ff ff 	mov    %rax,-0x1428(%rbp)
   15b2e:	48 8d 05 6b 1d 01 00 	lea    0x11d6b(%rip),%rax        # 278a0 <g_1294+0x340>
   15b35:	48 89 85 e0 eb ff ff 	mov    %rax,-0x1420(%rbp)
   15b3c:	48 8d 05 55 1e 01 00 	lea    0x11e55(%rip),%rax        # 27998 <g_1678>
   15b43:	48 89 85 e8 eb ff ff 	mov    %rax,-0x1418(%rbp)
   15b4a:	48 c7 85 f0 eb ff ff 	movq   $0x0,-0x1410(%rbp)
   15b51:	00 00 00 00 
   15b55:	48 8d 05 30 1d 01 00 	lea    0x11d30(%rip),%rax        # 2788c <g_1294+0x32c>
   15b5c:	48 89 85 f8 eb ff ff 	mov    %rax,-0x1408(%rbp)
   15b63:	48 8d 85 d0 dd ff ff 	lea    -0x2230(%rbp),%rax
   15b6a:	48 89 85 00 ec ff ff 	mov    %rax,-0x1400(%rbp)
   15b71:	48 c7 85 08 ec ff ff 	movq   $0x0,-0x13f8(%rbp)
   15b78:	00 00 00 00 
   15b7c:	48 c7 85 10 ec ff ff 	movq   $0x0,-0x13f0(%rbp)
   15b83:	00 00 00 00 
   15b87:	48 c7 85 18 ec ff ff 	movq   $0x0,-0x13e8(%rbp)
   15b8e:	00 00 00 00 
   15b92:	48 8d 05 8f 04 01 00 	lea    0x1048f(%rip),%rax        # 26028 <g_34>
   15b99:	48 89 85 20 ec ff ff 	mov    %rax,-0x13e0(%rbp)
   15ba0:	48 8d 85 f0 e4 ff ff 	lea    -0x1b10(%rbp),%rax
   15ba7:	48 05 3c 01 00 00    	add    $0x13c,%rax
   15bad:	48 89 85 28 ec ff ff 	mov    %rax,-0x13d8(%rbp)
   15bb4:	48 8d 05 65 0d 01 00 	lea    0x10d65(%rip),%rax        # 26920 <g_231+0xa0>
   15bbb:	48 89 85 30 ec ff ff 	mov    %rax,-0x13d0(%rbp)
   15bc2:	48 8d 85 a0 e6 ff ff 	lea    -0x1960(%rbp),%rax
   15bc9:	48 83 c0 0c          	add    $0xc,%rax
   15bcd:	48 89 85 38 ec ff ff 	mov    %rax,-0x13c8(%rbp)
   15bd4:	48 8d 05 4d 04 01 00 	lea    0x1044d(%rip),%rax        # 26028 <g_34>
   15bdb:	48 89 85 40 ec ff ff 	mov    %rax,-0x13c0(%rbp)
   15be2:	48 8d 05 bf 1d 01 00 	lea    0x11dbf(%rip),%rax        # 279a8 <g_2181>
   15be9:	48 89 85 48 ec ff ff 	mov    %rax,-0x13b8(%rbp)
   15bf0:	48 8d 05 c5 1d 01 00 	lea    0x11dc5(%rip),%rax        # 279bc <g_2471>
   15bf7:	48 89 85 50 ec ff ff 	mov    %rax,-0x13b0(%rbp)
   15bfe:	48 8d 05 23 04 01 00 	lea    0x10423(%rip),%rax        # 26028 <g_34>
   15c05:	48 89 85 58 ec ff ff 	mov    %rax,-0x13a8(%rbp)
   15c0c:	48 8d 85 f0 e4 ff ff 	lea    -0x1b10(%rbp),%rax
   15c13:	48 05 30 01 00 00    	add    $0x130,%rax
   15c19:	48 89 85 60 ec ff ff 	mov    %rax,-0x13a0(%rbp)
   15c20:	48 8d 05 31 04 01 00 	lea    0x10431(%rip),%rax        # 26058 <g_107>
   15c27:	48 89 85 68 ec ff ff 	mov    %rax,-0x1398(%rbp)
   15c2e:	48 8d 05 63 1d 01 00 	lea    0x11d63(%rip),%rax        # 27998 <g_1678>
   15c35:	48 89 85 70 ec ff ff 	mov    %rax,-0x1390(%rbp)
   15c3c:	48 8d 85 f0 e4 ff ff 	lea    -0x1b10(%rbp),%rax
   15c43:	48 05 d0 00 00 00    	add    $0xd0,%rax
   15c49:	48 89 85 78 ec ff ff 	mov    %rax,-0x1388(%rbp)
   15c50:	48 8d 05 35 1c 01 00 	lea    0x11c35(%rip),%rax        # 2788c <g_1294+0x32c>
   15c57:	48 89 85 80 ec ff ff 	mov    %rax,-0x1380(%rbp)
   15c5e:	48 c7 85 88 ec ff ff 	movq   $0x0,-0x1378(%rbp)
   15c65:	00 00 00 00 
   15c69:	48 8d 05 28 1d 01 00 	lea    0x11d28(%rip),%rax        # 27998 <g_1678>
   15c70:	48 89 85 90 ec ff ff 	mov    %rax,-0x1370(%rbp)
   15c77:	48 8d 85 f0 e4 ff ff 	lea    -0x1b10(%rbp),%rax
   15c7e:	48 83 c0 64          	add    $0x64,%rax
   15c82:	48 89 85 98 ec ff ff 	mov    %rax,-0x1368(%rbp)
   15c89:	48 8d 05 08 1d 01 00 	lea    0x11d08(%rip),%rax        # 27998 <g_1678>
   15c90:	48 89 85 a0 ec ff ff 	mov    %rax,-0x1360(%rbp)
   15c97:	48 c7 85 a8 ec ff ff 	movq   $0x0,-0x1358(%rbp)
   15c9e:	00 00 00 00 
   15ca2:	48 8d 05 e3 1b 01 00 	lea    0x11be3(%rip),%rax        # 2788c <g_1294+0x32c>
   15ca9:	48 89 85 b0 ec ff ff 	mov    %rax,-0x1350(%rbp)
   15cb0:	48 8d 85 f0 e4 ff ff 	lea    -0x1b10(%rbp),%rax
   15cb7:	48 05 3c 01 00 00    	add    $0x13c,%rax
   15cbd:	48 89 85 b8 ec ff ff 	mov    %rax,-0x1348(%rbp)
   15cc4:	48 8d 85 f0 e4 ff ff 	lea    -0x1b10(%rbp),%rax
   15ccb:	48 05 3c 01 00 00    	add    $0x13c,%rax
   15cd1:	48 89 85 c0 ec ff ff 	mov    %rax,-0x1340(%rbp)
   15cd8:	48 8d 05 49 03 01 00 	lea    0x10349(%rip),%rax        # 26028 <g_34>
   15cdf:	48 89 85 c8 ec ff ff 	mov    %rax,-0x1338(%rbp)
   15ce6:	48 8d 85 f0 e4 ff ff 	lea    -0x1b10(%rbp),%rax
   15ced:	48 05 3c 01 00 00    	add    $0x13c,%rax
   15cf3:	48 89 85 d0 ec ff ff 	mov    %rax,-0x1330(%rbp)
   15cfa:	48 8d 05 97 1c 01 00 	lea    0x11c97(%rip),%rax        # 27998 <g_1678>
   15d01:	48 89 85 d8 ec ff ff 	mov    %rax,-0x1328(%rbp)
   15d08:	48 8d 05 99 1c 01 00 	lea    0x11c99(%rip),%rax        # 279a8 <g_2181>
   15d0f:	48 89 85 e0 ec ff ff 	mov    %rax,-0x1320(%rbp)
   15d16:	48 c7 85 e8 ec ff ff 	movq   $0x0,-0x1318(%rbp)
   15d1d:	00 00 00 00 
   15d21:	48 8d 05 c8 0c 01 00 	lea    0x10cc8(%rip),%rax        # 269f0 <g_231+0x170>
   15d28:	48 89 85 f0 ec ff ff 	mov    %rax,-0x1310(%rbp)
   15d2f:	48 8d 05 72 1c 01 00 	lea    0x11c72(%rip),%rax        # 279a8 <g_2181>
   15d36:	48 89 85 f8 ec ff ff 	mov    %rax,-0x1308(%rbp)
   15d3d:	48 c7 85 00 ed ff ff 	movq   $0x0,-0x1300(%rbp)
   15d44:	00 00 00 00 
   15d48:	48 8d 05 d9 02 01 00 	lea    0x102d9(%rip),%rax        # 26028 <g_34>
   15d4f:	48 89 85 08 ed ff ff 	mov    %rax,-0x12f8(%rbp)
   15d56:	48 8d 05 fb 02 01 00 	lea    0x102fb(%rip),%rax        # 26058 <g_107>
   15d5d:	48 89 85 10 ed ff ff 	mov    %rax,-0x12f0(%rbp)
   15d64:	48 8d 05 35 1b 01 00 	lea    0x11b35(%rip),%rax        # 278a0 <g_1294+0x340>
   15d6b:	48 89 85 18 ed ff ff 	mov    %rax,-0x12e8(%rbp)
   15d72:	48 8d 05 2f 1c 01 00 	lea    0x11c2f(%rip),%rax        # 279a8 <g_2181>
   15d79:	48 89 85 20 ed ff ff 	mov    %rax,-0x12e0(%rbp)
   15d80:	48 8d 05 a1 02 01 00 	lea    0x102a1(%rip),%rax        # 26028 <g_34>
   15d87:	48 89 85 28 ed ff ff 	mov    %rax,-0x12d8(%rbp)
   15d8e:	48 8d 05 c3 02 01 00 	lea    0x102c3(%rip),%rax        # 26058 <g_107>
   15d95:	48 89 85 30 ed ff ff 	mov    %rax,-0x12d0(%rbp)
   15d9c:	48 8d 85 f0 e4 ff ff 	lea    -0x1b10(%rbp),%rax
   15da3:	48 83 c0 64          	add    $0x64,%rax
   15da7:	48 89 85 38 ed ff ff 	mov    %rax,-0x12c8(%rbp)
   15dae:	48 8d 85 f0 e4 ff ff 	lea    -0x1b10(%rbp),%rax
   15db5:	48 05 3c 01 00 00    	add    $0x13c,%rax
   15dbb:	48 89 85 40 ed ff ff 	mov    %rax,-0x12c0(%rbp)
   15dc2:	48 8d 05 57 0b 01 00 	lea    0x10b57(%rip),%rax        # 26920 <g_231+0xa0>
   15dc9:	48 89 85 48 ed ff ff 	mov    %rax,-0x12b8(%rbp)
   15dd0:	48 c7 85 50 ed ff ff 	movq   $0x0,-0x12b0(%rbp)
   15dd7:	00 00 00 00 
   15ddb:	48 8d 05 c6 1b 01 00 	lea    0x11bc6(%rip),%rax        # 279a8 <g_2181>
   15de2:	48 89 85 58 ed ff ff 	mov    %rax,-0x12a8(%rbp)
   15de9:	48 8d 05 a8 1b 01 00 	lea    0x11ba8(%rip),%rax        # 27998 <g_1678>
   15df0:	48 89 85 60 ed ff ff 	mov    %rax,-0x12a0(%rbp)
   15df7:	48 8d 85 d0 dd ff ff 	lea    -0x2230(%rbp),%rax
   15dfe:	48 89 85 68 ed ff ff 	mov    %rax,-0x1298(%rbp)
   15e05:	48 c7 85 70 ed ff ff 	movq   $0x0,-0x1290(%rbp)
   15e0c:	00 00 00 00 
   15e10:	48 8d 85 a0 e6 ff ff 	lea    -0x1960(%rbp),%rax
   15e17:	48 83 c0 0c          	add    $0xc,%rax
   15e1b:	48 89 85 78 ed ff ff 	mov    %rax,-0x1288(%rbp)
   15e22:	48 8d 05 63 1a 01 00 	lea    0x11a63(%rip),%rax        # 2788c <g_1294+0x32c>
   15e29:	48 89 85 80 ed ff ff 	mov    %rax,-0x1280(%rbp)
   15e30:	48 8d 85 f0 e4 ff ff 	lea    -0x1b10(%rbp),%rax
   15e37:	48 05 3c 01 00 00    	add    $0x13c,%rax
   15e3d:	48 89 85 88 ed ff ff 	mov    %rax,-0x1278(%rbp)
   15e44:	48 8d 05 5d 1b 01 00 	lea    0x11b5d(%rip),%rax        # 279a8 <g_2181>
   15e4b:	48 89 85 90 ed ff ff 	mov    %rax,-0x1270(%rbp)
   15e52:	48 8d 05 cf 01 01 00 	lea    0x101cf(%rip),%rax        # 26028 <g_34>
   15e59:	48 89 85 98 ed ff ff 	mov    %rax,-0x1268(%rbp)
   15e60:	48 8d 85 f0 e4 ff ff 	lea    -0x1b10(%rbp),%rax
   15e67:	48 05 30 01 00 00    	add    $0x130,%rax
   15e6d:	48 89 85 a0 ed ff ff 	mov    %rax,-0x1260(%rbp)
   15e74:	48 8d 05 ad 01 01 00 	lea    0x101ad(%rip),%rax        # 26028 <g_34>
   15e7b:	48 89 85 a8 ed ff ff 	mov    %rax,-0x1258(%rbp)
   15e82:	48 8d 05 1f 1b 01 00 	lea    0x11b1f(%rip),%rax        # 279a8 <g_2181>
   15e89:	48 89 85 b0 ed ff ff 	mov    %rax,-0x1250(%rbp)
   15e90:	48 c7 85 b8 ed ff ff 	movq   $0x0,-0x1248(%rbp)
   15e97:	00 00 00 00 
   15e9b:	48 8d 05 86 01 01 00 	lea    0x10186(%rip),%rax        # 26028 <g_34>
   15ea2:	48 89 85 c0 ed ff ff 	mov    %rax,-0x1240(%rbp)
   15ea9:	48 c7 85 c8 ed ff ff 	movq   $0x0,-0x1238(%rbp)
   15eb0:	00 00 00 00 
   15eb4:	48 8d 05 01 1b 01 00 	lea    0x11b01(%rip),%rax        # 279bc <g_2471>
   15ebb:	48 89 85 d0 ed ff ff 	mov    %rax,-0x1230(%rbp)
   15ec2:	48 c7 85 d8 ed ff ff 	movq   $0x0,-0x1228(%rbp)
   15ec9:	00 00 00 00 
   15ecd:	48 8d 05 54 01 01 00 	lea    0x10154(%rip),%rax        # 26028 <g_34>
   15ed4:	48 89 85 e0 ed ff ff 	mov    %rax,-0x1220(%rbp)
   15edb:	48 8d 05 da 1a 01 00 	lea    0x11ada(%rip),%rax        # 279bc <g_2471>
   15ee2:	48 89 85 e8 ed ff ff 	mov    %rax,-0x1218(%rbp)
   15ee9:	48 c7 85 f0 ed ff ff 	movq   $0x0,-0x1210(%rbp)
   15ef0:	00 00 00 00 
   15ef4:	48 8d 05 2d 01 01 00 	lea    0x1012d(%rip),%rax        # 26028 <g_34>
   15efb:	48 89 85 f8 ed ff ff 	mov    %rax,-0x1208(%rbp)
   15f02:	48 8d 85 d0 dd ff ff 	lea    -0x2230(%rbp),%rax
   15f09:	48 89 85 00 ee ff ff 	mov    %rax,-0x1200(%rbp)
   15f10:	48 8d 05 a5 1a 01 00 	lea    0x11aa5(%rip),%rax        # 279bc <g_2471>
   15f17:	48 89 85 08 ee ff ff 	mov    %rax,-0x11f8(%rbp)
   15f1e:	48 8d 85 d0 dd ff ff 	lea    -0x2230(%rbp),%rax
   15f25:	48 89 85 10 ee ff ff 	mov    %rax,-0x11f0(%rbp)
   15f2c:	48 c7 85 18 ee ff ff 	movq   $0x0,-0x11e8(%rbp)
   15f33:	00 00 00 00 
   15f37:	48 8d 05 62 19 01 00 	lea    0x11962(%rip),%rax        # 278a0 <g_1294+0x340>
   15f3e:	48 89 85 20 ee ff ff 	mov    %rax,-0x11e0(%rbp)
   15f45:	48 c7 85 28 ee ff ff 	movq   $0x0,-0x11d8(%rbp)
   15f4c:	00 00 00 00 
   15f50:	48 c7 85 30 ee ff ff 	movq   $0x0,-0x11d0(%rbp)
   15f57:	00 00 00 00 
   15f5b:	48 8d 05 4e 18 01 00 	lea    0x1184e(%rip),%rax        # 277b0 <g_1294+0x250>
   15f62:	48 89 85 38 ee ff ff 	mov    %rax,-0x11c8(%rbp)
   15f69:	48 c7 85 40 ee ff ff 	movq   $0x0,-0x11c0(%rbp)
   15f70:	00 00 00 00 
   15f74:	48 c7 85 48 ee ff ff 	movq   $0x0,-0x11b8(%rbp)
   15f7b:	00 00 00 00 
   15f7f:	48 8d 05 22 1a 01 00 	lea    0x11a22(%rip),%rax        # 279a8 <g_2181>
   15f86:	48 89 85 50 ee ff ff 	mov    %rax,-0x11b0(%rbp)
   15f8d:	48 8d 85 f0 e4 ff ff 	lea    -0x1b10(%rbp),%rax
   15f94:	48 05 3c 01 00 00    	add    $0x13c,%rax
   15f9a:	48 89 85 58 ee ff ff 	mov    %rax,-0x11a8(%rbp)
   15fa1:	48 c7 85 60 ee ff ff 	movq   $0x0,-0x11a0(%rbp)
   15fa8:	00 00 00 00 
   15fac:	48 c7 85 68 ee ff ff 	movq   $0x0,-0x1198(%rbp)
   15fb3:	00 00 00 00 
   15fb7:	48 c7 85 70 ee ff ff 	movq   $0x0,-0x1190(%rbp)
   15fbe:	00 00 00 00 
   15fc2:	48 c7 85 78 ee ff ff 	movq   $0x0,-0x1188(%rbp)
   15fc9:	00 00 00 00 
   15fcd:	48 8d 05 54 00 01 00 	lea    0x10054(%rip),%rax        # 26028 <g_34>
   15fd4:	48 89 85 80 ee ff ff 	mov    %rax,-0x1180(%rbp)
   15fdb:	48 c7 85 88 ee ff ff 	movq   $0x0,-0x1178(%rbp)
   15fe2:	00 00 00 00 
   15fe6:	48 c7 85 90 ee ff ff 	movq   $0x0,-0x1170(%rbp)
   15fed:	00 00 00 00 
   15ff1:	48 8d 05 a0 19 01 00 	lea    0x119a0(%rip),%rax        # 27998 <g_1678>
   15ff8:	48 89 85 98 ee ff ff 	mov    %rax,-0x1168(%rbp)
   15fff:	48 8d 85 f0 e4 ff ff 	lea    -0x1b10(%rbp),%rax
   16006:	48 05 3c 01 00 00    	add    $0x13c,%rax
   1600c:	48 89 85 a0 ee ff ff 	mov    %rax,-0x1160(%rbp)
   16013:	48 8d 05 d6 09 01 00 	lea    0x109d6(%rip),%rax        # 269f0 <g_231+0x170>
   1601a:	48 89 85 a8 ee ff ff 	mov    %rax,-0x1158(%rbp)
   16021:	48 8d 05 00 00 01 00 	lea    0x10000(%rip),%rax        # 26028 <g_34>
   16028:	48 89 85 b0 ee ff ff 	mov    %rax,-0x1150(%rbp)
   1602f:	48 8d 85 d0 dd ff ff 	lea    -0x2230(%rbp),%rax
   16036:	48 89 85 b8 ee ff ff 	mov    %rax,-0x1148(%rbp)
   1603d:	48 8d 05 e4 ff 00 00 	lea    0xffe4(%rip),%rax        # 26028 <g_34>
   16044:	48 89 85 c0 ee ff ff 	mov    %rax,-0x1140(%rbp)
   1604b:	48 8d 85 f0 e4 ff ff 	lea    -0x1b10(%rbp),%rax
   16052:	48 05 30 01 00 00    	add    $0x130,%rax
   16058:	48 89 85 c8 ee ff ff 	mov    %rax,-0x1138(%rbp)
   1605f:	48 8d 85 a0 e6 ff ff 	lea    -0x1960(%rbp),%rax
   16066:	48 83 c0 0c          	add    $0xc,%rax
   1606a:	48 89 85 d0 ee ff ff 	mov    %rax,-0x1130(%rbp)
   16071:	48 8d 05 e0 ff 00 00 	lea    0xffe0(%rip),%rax        # 26058 <g_107>
   16078:	48 89 85 d8 ee ff ff 	mov    %rax,-0x1128(%rbp)
   1607f:	48 8d 05 d2 ff 00 00 	lea    0xffd2(%rip),%rax        # 26058 <g_107>
   16086:	48 89 85 e0 ee ff ff 	mov    %rax,-0x1120(%rbp)
   1608d:	48 8d 85 a0 e6 ff ff 	lea    -0x1960(%rbp),%rax
   16094:	48 83 c0 0c          	add    $0xc,%rax
   16098:	48 89 85 e8 ee ff ff 	mov    %rax,-0x1118(%rbp)
   1609f:	48 8d 85 f0 e4 ff ff 	lea    -0x1b10(%rbp),%rax
   160a6:	48 05 30 01 00 00    	add    $0x130,%rax
   160ac:	48 89 85 f0 ee ff ff 	mov    %rax,-0x1110(%rbp)
   160b3:	48 8d 05 6e ff 00 00 	lea    0xff6e(%rip),%rax        # 26028 <g_34>
   160ba:	48 89 85 f8 ee ff ff 	mov    %rax,-0x1108(%rbp)
   160c1:	48 8d 05 e0 18 01 00 	lea    0x118e0(%rip),%rax        # 279a8 <g_2181>
   160c8:	48 89 85 00 ef ff ff 	mov    %rax,-0x1100(%rbp)
   160cf:	48 8d 85 a0 e6 ff ff 	lea    -0x1960(%rbp),%rax
   160d6:	48 05 40 02 00 00    	add    $0x240,%rax
   160dc:	48 89 85 08 ef ff ff 	mov    %rax,-0x10f8(%rbp)
   160e3:	48 8d 85 f0 e4 ff ff 	lea    -0x1b10(%rbp),%rax
   160ea:	48 05 3c 01 00 00    	add    $0x13c,%rax
   160f0:	48 89 85 10 ef ff ff 	mov    %rax,-0x10f0(%rbp)
   160f7:	48 8d 85 d0 dd ff ff 	lea    -0x2230(%rbp),%rax
   160fe:	48 89 85 18 ef ff ff 	mov    %rax,-0x10e8(%rbp)
   16105:	48 8d 05 4c ff 00 00 	lea    0xff4c(%rip),%rax        # 26058 <g_107>
   1610c:	48 89 85 20 ef ff ff 	mov    %rax,-0x10e0(%rbp)
   16113:	48 c7 85 28 ef ff ff 	movq   $0x0,-0x10d8(%rbp)
   1611a:	00 00 00 00 
   1611e:	48 8d 85 f0 e4 ff ff 	lea    -0x1b10(%rbp),%rax
   16125:	48 83 c0 64          	add    $0x64,%rax
   16129:	48 89 85 30 ef ff ff 	mov    %rax,-0x10d0(%rbp)
   16130:	48 8d 85 d0 dd ff ff 	lea    -0x2230(%rbp),%rax
   16137:	48 89 85 38 ef ff ff 	mov    %rax,-0x10c8(%rbp)
   1613e:	48 c7 85 40 ef ff ff 	movq   $0x0,-0x10c0(%rbp)
   16145:	00 00 00 00 
   16149:	48 8d 05 48 18 01 00 	lea    0x11848(%rip),%rax        # 27998 <g_1678>
   16150:	48 89 85 48 ef ff ff 	mov    %rax,-0x10b8(%rbp)
   16157:	48 8d 85 a0 e6 ff ff 	lea    -0x1960(%rbp),%rax
   1615e:	48 83 c0 04          	add    $0x4,%rax
   16162:	48 89 85 50 ef ff ff 	mov    %rax,-0x10b0(%rbp)
   16169:	48 c7 85 58 ef ff ff 	movq   $0x0,-0x10a8(%rbp)
   16170:	00 00 00 00 
   16174:	48 8d 85 d0 dd ff ff 	lea    -0x2230(%rbp),%rax
   1617b:	48 89 85 60 ef ff ff 	mov    %rax,-0x10a0(%rbp)
   16182:	48 c7 85 68 ef ff ff 	movq   $0x0,-0x1098(%rbp)
   16189:	00 00 00 00 
   1618d:	48 8d 85 f0 e4 ff ff 	lea    -0x1b10(%rbp),%rax
   16194:	48 05 84 01 00 00    	add    $0x184,%rax
   1619a:	48 89 85 70 ef ff ff 	mov    %rax,-0x1090(%rbp)
   161a1:	48 8d 05 80 fe 00 00 	lea    0xfe80(%rip),%rax        # 26028 <g_34>
   161a8:	48 89 85 78 ef ff ff 	mov    %rax,-0x1088(%rbp)
   161af:	48 8d 85 a0 e6 ff ff 	lea    -0x1960(%rbp),%rax
   161b6:	48 83 c0 0c          	add    $0xc,%rax
   161ba:	48 89 85 80 ef ff ff 	mov    %rax,-0x1080(%rbp)
   161c1:	48 8d 85 a0 e6 ff ff 	lea    -0x1960(%rbp),%rax
   161c8:	48 05 40 02 00 00    	add    $0x240,%rax
   161ce:	48 89 85 88 ef ff ff 	mov    %rax,-0x1078(%rbp)
   161d5:	48 8d 05 dc 08 01 00 	lea    0x108dc(%rip),%rax        # 26ab8 <g_231+0x238>
   161dc:	48 89 85 90 ef ff ff 	mov    %rax,-0x1070(%rbp)
   161e3:	48 c7 85 98 ef ff ff 	movq   $0x0,-0x1068(%rbp)
   161ea:	00 00 00 00 
   161ee:	48 c7 85 a0 ef ff ff 	movq   $0x0,-0x1060(%rbp)
   161f5:	00 00 00 00 
   161f9:	48 8d 85 a0 e6 ff ff 	lea    -0x1960(%rbp),%rax
   16200:	48 83 c0 0c          	add    $0xc,%rax
   16204:	48 89 85 a8 ef ff ff 	mov    %rax,-0x1058(%rbp)
   1620b:	48 c7 85 b0 ef ff ff 	movq   $0x0,-0x1050(%rbp)
   16212:	00 00 00 00 
   16216:	48 8d 85 f0 e4 ff ff 	lea    -0x1b10(%rbp),%rax
   1621d:	48 05 3c 01 00 00    	add    $0x13c,%rax
   16223:	48 89 85 b8 ef ff ff 	mov    %rax,-0x1048(%rbp)
   1622a:	48 8d 05 f7 fd 00 00 	lea    0xfdf7(%rip),%rax        # 26028 <g_34>
   16231:	48 89 85 c0 ef ff ff 	mov    %rax,-0x1040(%rbp)
   16238:	48 8d 85 f0 e4 ff ff 	lea    -0x1b10(%rbp),%rax
   1623f:	48 05 30 01 00 00    	add    $0x130,%rax
   16245:	48 89 85 c8 ef ff ff 	mov    %rax,-0x1038(%rbp)
   1624c:	48 8d 05 d5 fd 00 00 	lea    0xfdd5(%rip),%rax        # 26028 <g_34>
   16253:	48 89 85 d0 ef ff ff 	mov    %rax,-0x1030(%rbp)
   1625a:	48 8d 85 a0 e6 ff ff 	lea    -0x1960(%rbp),%rax
   16261:	48 83 c0 0c          	add    $0xc,%rax
   16265:	48 89 85 d8 ef ff ff 	mov    %rax,-0x1028(%rbp)
   1626c:	48 8d 85 f0 e4 ff ff 	lea    -0x1b10(%rbp),%rax
   16273:	48 83 c0 64          	add    $0x64,%rax
   16277:	48 89 85 e0 ef ff ff 	mov    %rax,-0x1020(%rbp)
   1627e:	48 8d 05 6b 07 01 00 	lea    0x1076b(%rip),%rax        # 269f0 <g_231+0x170>
   16285:	48 89 85 e8 ef ff ff 	mov    %rax,-0x1018(%rbp)
   1628c:	48 c7 85 f0 ef ff ff 	movq   $0x0,-0x1010(%rbp)
   16293:	00 00 00 00 
   16297:	48 8d 05 0a 17 01 00 	lea    0x1170a(%rip),%rax        # 279a8 <g_2181>
   1629e:	48 89 85 f8 ef ff ff 	mov    %rax,-0x1008(%rbp)
   162a5:	48 8d 85 f0 e4 ff ff 	lea    -0x1b10(%rbp),%rax
   162ac:	48 05 3c 01 00 00    	add    $0x13c,%rax
   162b2:	48 89 85 00 f0 ff ff 	mov    %rax,-0x1000(%rbp)
   162b9:	48 c7 85 08 f0 ff ff 	movq   $0x0,-0xff8(%rbp)
   162c0:	00 00 00 00 
   162c4:	48 8d 85 a0 e6 ff ff 	lea    -0x1960(%rbp),%rax
   162cb:	48 05 40 02 00 00    	add    $0x240,%rax
   162d1:	48 89 85 10 f0 ff ff 	mov    %rax,-0xff0(%rbp)
   162d8:	48 8d 05 dd 16 01 00 	lea    0x116dd(%rip),%rax        # 279bc <g_2471>
   162df:	48 89 85 18 f0 ff ff 	mov    %rax,-0xfe8(%rbp)
   162e6:	48 8d 05 3b fd 00 00 	lea    0xfd3b(%rip),%rax        # 26028 <g_34>
   162ed:	48 89 85 20 f0 ff ff 	mov    %rax,-0xfe0(%rbp)
   162f4:	48 c7 85 28 f0 ff ff 	movq   $0x0,-0xfd8(%rbp)
   162fb:	00 00 00 00 
   162ff:	48 8d 05 a2 16 01 00 	lea    0x116a2(%rip),%rax        # 279a8 <g_2181>
   16306:	48 89 85 30 f0 ff ff 	mov    %rax,-0xfd0(%rbp)
   1630d:	48 8d 85 f0 e4 ff ff 	lea    -0x1b10(%rbp),%rax
   16314:	48 05 84 01 00 00    	add    $0x184,%rax
   1631a:	48 89 85 38 f0 ff ff 	mov    %rax,-0xfc8(%rbp)
   16321:	48 c7 85 40 f0 ff ff 	movq   $0x0,-0xfc0(%rbp)
   16328:	00 00 00 00 
   1632c:	48 8d 85 f0 e4 ff ff 	lea    -0x1b10(%rbp),%rax
   16333:	48 05 3c 01 00 00    	add    $0x13c,%rax
   16339:	48 89 85 48 f0 ff ff 	mov    %rax,-0xfb8(%rbp)
   16340:	48 8d 05 e1 fc 00 00 	lea    0xfce1(%rip),%rax        # 26028 <g_34>
   16347:	48 89 85 50 f0 ff ff 	mov    %rax,-0xfb0(%rbp)
   1634e:	48 8d 05 53 16 01 00 	lea    0x11653(%rip),%rax        # 279a8 <g_2181>
   16355:	48 89 85 58 f0 ff ff 	mov    %rax,-0xfa8(%rbp)
   1635c:	48 8d 05 f5 fc 00 00 	lea    0xfcf5(%rip),%rax        # 26058 <g_107>
   16363:	48 89 85 60 f0 ff ff 	mov    %rax,-0xfa0(%rbp)
   1636a:	48 8d 85 d0 dd ff ff 	lea    -0x2230(%rbp),%rax
   16371:	48 89 85 68 f0 ff ff 	mov    %rax,-0xf98(%rbp)
   16378:	48 c7 85 70 f0 ff ff 	movq   $0x0,-0xf90(%rbp)
   1637f:	00 00 00 00 
   16383:	48 c7 85 78 f0 ff ff 	movq   $0x0,-0xf88(%rbp)
   1638a:	00 00 00 00 
   1638e:	48 8d 05 8b 05 01 00 	lea    0x1058b(%rip),%rax        # 26920 <g_231+0xa0>
   16395:	48 89 85 80 f0 ff ff 	mov    %rax,-0xf80(%rbp)
   1639c:	48 8d 05 05 16 01 00 	lea    0x11605(%rip),%rax        # 279a8 <g_2181>
   163a3:	48 89 85 88 f0 ff ff 	mov    %rax,-0xf78(%rbp)
   163aa:	48 8d 05 3f 06 01 00 	lea    0x1063f(%rip),%rax        # 269f0 <g_231+0x170>
   163b1:	48 89 85 90 f0 ff ff 	mov    %rax,-0xf70(%rbp)
   163b8:	48 8d 85 a0 e6 ff ff 	lea    -0x1960(%rbp),%rax
   163bf:	48 83 c0 0c          	add    $0xc,%rax
   163c3:	48 89 85 98 f0 ff ff 	mov    %rax,-0xf68(%rbp)
   163ca:	48 8d 05 eb 15 01 00 	lea    0x115eb(%rip),%rax        # 279bc <g_2471>
   163d1:	48 89 85 a0 f0 ff ff 	mov    %rax,-0xf60(%rbp)
   163d8:	48 8d 85 f0 e4 ff ff 	lea    -0x1b10(%rbp),%rax
   163df:	48 05 30 01 00 00    	add    $0x130,%rax
   163e5:	48 89 85 a8 f0 ff ff 	mov    %rax,-0xf58(%rbp)
   163ec:	48 8d 85 d0 dd ff ff 	lea    -0x2230(%rbp),%rax
   163f3:	48 89 85 b0 f0 ff ff 	mov    %rax,-0xf50(%rbp)
   163fa:	48 8d 05 bb 15 01 00 	lea    0x115bb(%rip),%rax        # 279bc <g_2471>
   16401:	48 89 85 b8 f0 ff ff 	mov    %rax,-0xf48(%rbp)
   16408:	48 c7 85 80 df ff ff 	movq   $0x8,-0x2080(%rbp)
   1640f:	08 00 00 00 
   16413:	48 c7 85 88 df ff ff 	movq   $0x1,-0x2078(%rbp)
   1641a:	01 00 00 00 
   1641e:	c7 85 d4 dd ff ff f8 	movl   $0xfffffff8,-0x222c(%rbp)
   16425:	ff ff ff 
   16428:	48 b8 0d 40 9f 31 a7 	movabs $0x2e13e1a7319f400d,%rax
   1642f:	e1 13 2e 
   16432:	48 89 85 90 df ff ff 	mov    %rax,-0x2070(%rbp)
   16439:	48 c7 85 30 df ff ff 	movq   $0xffffffffffffffff,-0x20d0(%rbp)
   16440:	ff ff ff ff 
   16444:	48 8d 05 35 ff 00 00 	lea    0xff35(%rip),%rax        # 26380 <g_207+0x2e0>
   1644b:	48 89 85 00 df ff ff 	mov    %rax,-0x2100(%rbp)
   16452:	48 8d 85 00 df ff ff 	lea    -0x2100(%rbp),%rax
   16459:	48 89 85 08 df ff ff 	mov    %rax,-0x20f8(%rbp)
   16460:	48 8d 85 08 df ff ff 	lea    -0x20f8(%rbp),%rax
   16467:	48 89 85 98 df ff ff 	mov    %rax,-0x2068(%rbp)
   1646e:	c7 85 e0 e1 ff ff f5 	movl   $0x6100f5f5,-0x1e20(%rbp)
   16475:	f5 00 61 
   16478:	66 c7 85 e4 e1 ff ff 	movw   $0xf500,-0x1e1c(%rbp)
   1647f:	00 f5 
   16481:	c7 85 e6 e1 ff ff 00 	movl   $0x61610700,-0x1e1a(%rbp)
   16488:	07 61 61 
   1648b:	66 c7 85 ea e1 ff ff 	movw   $0x7,-0x1e16(%rbp)
   16492:	07 00 
   16494:	c7 85 ec e1 ff ff f5 	movl   $0x6100f5,-0x1e14(%rbp)
   1649b:	00 61 00 
   1649e:	66 c7 85 f0 e1 ff ff 	movw   $0xf5f5,-0x1e10(%rbp)
   164a5:	f5 f5 
   164a7:	c7 85 f2 e1 ff ff ff 	movl   $0xff0000ff,-0x1e0e(%rbp)
   164ae:	00 00 ff 
   164b1:	66 c7 85 f6 e1 ff ff 	movw   $0xff07,-0x1e0a(%rbp)
   164b8:	07 ff 
   164ba:	c7 85 f8 e1 ff ff ff 	movl   $0xff07ff,-0x1e08(%rbp)
   164c1:	07 ff 00 
   164c4:	66 c7 85 fc e1 ff ff 	movw   $0xff00,-0x1e04(%rbp)
   164cb:	00 ff 
   164cd:	48 b8 97 1a bd 51 46 	movabs $0x24b6e84651bd1a97,%rax
   164d4:	e8 b6 24 
   164d7:	48 89 85 a0 df ff ff 	mov    %rax,-0x2060(%rbp)
   164de:	8b 95 a8 dd ff ff    	mov    -0x2258(%rbp),%edx
   164e4:	0f b6 05 39 fb 00 00 	movzbl 0xfb39(%rip),%eax        # 26024 <g_5>
   164eb:	0f be c0             	movsbl %al,%eax
   164ee:	89 d6                	mov    %edx,%esi
   164f0:	89 c7                	mov    %eax,%edi
   164f2:	e8 33 a0 ff ff       	callq  1052a <safe_rshift_func_int16_t_s_s>
   164f7:	66 85 c0             	test   %ax,%ax
   164fa:	0f 84 43 1a 00 00    	je     17f43 <func_23+0x2a33>
   16500:	48 b8 31 ac 8c 6c 6e 	movabs $0xcc9f196e6c8cac31,%rax
   16507:	19 9f cc 
   1650a:	48 89 85 40 e0 ff ff 	mov    %rax,-0x1fc0(%rbp)
   16511:	66 c7 85 be dd ff ff 	movw   $0x1b4,-0x2242(%rbp)
   16518:	b4 01 
   1651a:	c7 85 d8 dd ff ff 37 	movl   $0x50722337,-0x2228(%rbp)
   16521:	23 72 50 
   16524:	c7 85 e0 dd ff ff 3a 	movl   $0x110803a,-0x2220(%rbp)
   1652b:	80 10 01 
   1652e:	c7 85 dc dd ff ff e6 	movl   $0xb8a790e6,-0x2224(%rbp)
   16535:	90 a7 b8 
   16538:	48 8d 05 11 fb 00 00 	lea    0xfb11(%rip),%rax        # 26050 <g_103>
   1653f:	48 89 85 48 e0 ff ff 	mov    %rax,-0x1fb8(%rbp)
   16546:	48 8d 05 53 54 01 00 	lea    0x15453(%rip),%rax        # 2b9a0 <g_888>
   1654d:	48 89 85 50 e0 ff ff 	mov    %rax,-0x1fb0(%rbp)
   16554:	c7 85 7c de ff ff 03 	movl   $0x3,-0x2184(%rbp)
   1655b:	00 00 00 
   1655e:	c7 85 80 de ff ff f9 	movl   $0xfffffff9,-0x2180(%rbp)
   16565:	ff ff ff 
   16568:	c7 85 84 de ff ff 00 	movl   $0x0,-0x217c(%rbp)
   1656f:	00 00 00 
   16572:	c7 85 88 de ff ff 06 	movl   $0x6,-0x2178(%rbp)
   16579:	00 00 00 
   1657c:	c7 85 10 df ff ff 00 	movl   $0x0,-0x20f0(%rbp)
   16583:	00 00 00 
   16586:	c7 85 18 df ff ff f4 	movl   $0xcef482f4,-0x20e8(%rbp)
   1658d:	82 f4 ce 
   16590:	c7 85 8c de ff ff 01 	movl   $0x1,-0x2174(%rbp)
   16597:	00 00 00 
   1659a:	c7 85 90 de ff ff ff 	movl   $0xffffffff,-0x2170(%rbp)
   165a1:	ff ff ff 
   165a4:	c7 85 94 de ff ff 28 	movl   $0xc42f6628,-0x216c(%rbp)
   165ab:	66 2f c4 
   165ae:	48 8d 05 13 14 01 00 	lea    0x11413(%rip),%rax        # 279c8 <g_2680>
   165b5:	48 89 85 58 e0 ff ff 	mov    %rax,-0x1fa8(%rbp)
   165bc:	0f b6 05 61 fa 00 00 	movzbl 0xfa61(%rip),%eax        # 26024 <g_5>
   165c3:	84 c0                	test   %al,%al
   165c5:	74 25                	je     165ec <func_23+0x10dc>
   165c7:	48 8d 05 5a fa 00 00 	lea    0xfa5a(%rip),%rax        # 26028 <g_34>
   165ce:	48 89 85 58 e1 ff ff 	mov    %rax,-0x1ea8(%rbp)
   165d5:	48 8b 85 40 e0 ff ff 	mov    -0x1fc0(%rbp),%rax
   165dc:	89 c2                	mov    %eax,%edx
   165de:	48 8b 85 58 e1 ff ff 	mov    -0x1ea8(%rbp),%rax
   165e5:	89 10                	mov    %edx,(%rax)
   165e7:	e9 3b 19 00 00       	jmpq   17f27 <func_23+0x2a17>
   165ec:	48 8d 05 35 fa 00 00 	lea    0xfa35(%rip),%rax        # 26028 <g_34>
   165f3:	48 89 85 60 e0 ff ff 	mov    %rax,-0x1fa0(%rbp)
   165fa:	c7 85 20 df ff ff 01 	movl   $0x1,-0x20e0(%rbp)
   16601:	00 00 00 
   16604:	48 8d 05 15 4e 01 00 	lea    0x14e15(%rip),%rax        # 2b420 <g_420+0xc0>
   1660b:	48 89 85 68 e0 ff ff 	mov    %rax,-0x1f98(%rbp)
   16612:	48 c7 85 70 e0 ff ff 	movq   $0x0,-0x1f90(%rbp)
   16619:	00 00 00 00 
   1661d:	c7 85 98 de ff ff ff 	movl   $0xcf6f19ff,-0x2168(%rbp)
   16624:	19 6f cf 
   16627:	c7 85 9c de ff ff f6 	movl   $0xfffffff6,-0x2164(%rbp)
   1662e:	ff ff ff 
   16631:	c6 85 b8 dd ff ff 02 	movb   $0x2,-0x2248(%rbp)
   16638:	c7 85 a0 de ff ff ff 	movl   $0xffffffff,-0x2160(%rbp)
   1663f:	ff ff ff 
   16642:	c6 85 b9 dd ff ff 03 	movb   $0x3,-0x2247(%rbp)
   16649:	c7 85 a4 de ff ff ff 	movl   $0xffffffff,-0x215c(%rbp)
   16650:	ff ff ff 
   16653:	66 c7 85 c0 dd ff ff 	movw   $0x1,-0x2240(%rbp)
   1665a:	01 00 
   1665c:	c7 85 e4 dd ff ff 00 	movl   $0x0,-0x221c(%rbp)
   16663:	00 00 00 
   16666:	eb 21                	jmp    16689 <func_23+0x1179>
   16668:	8b 85 e4 dd ff ff    	mov    -0x221c(%rbp),%eax
   1666e:	48 98                	cltq   
   16670:	48 bb 5f c2 74 ab eb 	movabs $0x1c7c0eebab74c25f,%rbx
   16677:	0e 7c 1c 
   1667a:	48 89 9c c5 00 e2 ff 	mov    %rbx,-0x1e00(%rbp,%rax,8)
   16681:	ff 
   16682:	83 85 e4 dd ff ff 01 	addl   $0x1,-0x221c(%rbp)
   16689:	83 bd e4 dd ff ff 01 	cmpl   $0x1,-0x221c(%rbp)
   16690:	7e d6                	jle    16668 <func_23+0x1158>
   16692:	c7 85 e4 dd ff ff 00 	movl   $0x0,-0x221c(%rbp)
   16699:	00 00 00 
   1669c:	eb 1a                	jmp    166b8 <func_23+0x11a8>
   1669e:	8b 85 e4 dd ff ff    	mov    -0x221c(%rbp),%eax
   166a4:	48 98                	cltq   
   166a6:	c7 84 85 30 e2 ff ff 	movl   $0x1,-0x1dd0(%rbp,%rax,4)
   166ad:	01 00 00 00 
   166b1:	83 85 e4 dd ff ff 01 	addl   $0x1,-0x221c(%rbp)
   166b8:	83 bd e4 dd ff ff 09 	cmpl   $0x9,-0x221c(%rbp)
   166bf:	7e dd                	jle    1669e <func_23+0x118e>
   166c1:	0f b7 85 be dd ff ff 	movzwl -0x2242(%rbp),%eax
   166c8:	0f bf d8             	movswl %ax,%ebx
   166cb:	0f b6 05 52 f9 00 00 	movzbl 0xf952(%rip),%eax        # 26024 <g_5>
   166d2:	66 98                	cbtw   
   166d4:	0f b7 c0             	movzwl %ax,%eax
   166d7:	89 c6                	mov    %eax,%esi
   166d9:	bf ff ff 00 00       	mov    $0xffff,%edi
   166de:	e8 5a a6 ff ff       	callq  10d3d <safe_mul_func_uint16_t_u_u>
   166e3:	66 85 c0             	test   %ax,%ax
   166e6:	0f 84 2c 01 00 00    	je     16818 <func_23+0x1308>
   166ec:	8b 85 ac e6 ff ff    	mov    -0x1954(%rbp),%eax
   166f2:	41 89 c7             	mov    %eax,%r15d
   166f5:	48 8b 85 40 e0 ff ff 	mov    -0x1fc0(%rbp),%rax
   166fc:	44 0f b7 e0          	movzwl %ax,%r12d
   16700:	8b 05 22 f9 00 00    	mov    0xf922(%rip),%eax        # 26028 <g_34>
   16706:	44 0f bf e8          	movswl %ax,%r13d
   1670a:	48 8b 85 a0 dd ff ff 	mov    -0x2260(%rbp),%rax
   16711:	0f b6 10             	movzbl (%rax),%edx
   16714:	0f b6 05 09 f9 00 00 	movzbl 0xf909(%rip),%eax        # 26024 <g_5>
   1671b:	38 c2                	cmp    %al,%dl
   1671d:	7e 08                	jle    16727 <func_23+0x1217>
   1671f:	41 be 2a 00 00 00    	mov    $0x2a,%r14d
   16725:	eb 06                	jmp    1672d <func_23+0x121d>
   16727:	41 be 2b 00 00 00    	mov    $0x2b,%r14d
   1672d:	0f b6 05 f0 f8 00 00 	movzbl 0xf8f0(%rip),%eax        # 26024 <g_5>
   16734:	0f b6 c0             	movzbl %al,%eax
   16737:	be 05 00 00 00       	mov    $0x5,%esi
   1673c:	89 c7                	mov    %eax,%edi
   1673e:	e8 c2 a4 ff ff       	callq  10c05 <safe_lshift_func_uint8_t_u_s>
   16743:	0f b6 c0             	movzbl %al,%eax
   16746:	44 89 f6             	mov    %r14d,%esi
   16749:	89 c7                	mov    %eax,%edi
   1674b:	e8 83 9c ff ff       	callq  103d3 <safe_sub_func_int16_t_s_s>
   16750:	89 c2                	mov    %eax,%edx
   16752:	48 8b 85 40 e0 ff ff 	mov    -0x1fc0(%rbp),%rax
   16759:	31 d0                	xor    %edx,%eax
   1675b:	83 c8 f6             	or     $0xfffffff6,%eax
   1675e:	98                   	cwtl   
   1675f:	44 89 ee             	mov    %r13d,%esi
   16762:	89 c7                	mov    %eax,%edi
   16764:	e8 8c 9c ff ff       	callq  103f5 <safe_mul_func_int16_t_s_s>
   16769:	8b 05 b9 f8 00 00    	mov    0xf8b9(%rip),%eax        # 26028 <g_34>
   1676f:	0f b6 d0             	movzbl %al,%edx
   16772:	0f b6 85 ac dd ff ff 	movzbl -0x2254(%rbp),%eax
   16779:	0f b6 c0             	movzbl %al,%eax
   1677c:	89 d6                	mov    %edx,%esi
   1677e:	89 c7                	mov    %eax,%edi
   16780:	e8 56 a4 ff ff       	callq  10bdb <safe_div_func_uint8_t_u_u>
   16785:	3c 02                	cmp    $0x2,%al
   16787:	48 8b 95 60 e0 ff ff 	mov    -0x1fa0(%rbp),%rdx
   1678e:	48 8b 85 38 df ff ff 	mov    -0x20c8(%rbp),%rax
   16795:	44 89 e1             	mov    %r12d,%ecx
   16798:	48 89 c6             	mov    %rax,%rsi
   1679b:	48 8d 3d 86 f8 00 00 	lea    0xf886(%rip),%rdi        # 26028 <g_34>
   167a2:	e8 90 3f 00 00       	callq  1a737 <func_49>
   167a7:	3c 50                	cmp    $0x50,%al
   167a9:	0f 9f c0             	setg   %al
   167ac:	0f b6 c0             	movzbl %al,%eax
   167af:	be a3 91 00 00       	mov    $0x91a3,%esi
   167b4:	89 c7                	mov    %eax,%edi
   167b6:	e8 d3 a5 ff ff       	callq  10d8e <safe_div_func_uint16_t_u_u>
   167bb:	0f b7 c0             	movzwl %ax,%eax
   167be:	be f7 ff 00 00       	mov    $0xfff7,%esi
   167c3:	89 c7                	mov    %eax,%edi
   167c5:	e8 73 a5 ff ff       	callq  10d3d <safe_mul_func_uint16_t_u_u>
   167ca:	be cd 00 00 00       	mov    $0xcd,%esi
   167cf:	bf 01 00 00 00       	mov    $0x1,%edi
   167d4:	e8 02 a4 ff ff       	callq  10bdb <safe_div_func_uint8_t_u_u>
   167d9:	0f b6 c0             	movzbl %al,%eax
   167dc:	48 33 85 40 e0 ff ff 	xor    -0x1fc0(%rbp),%rax
   167e3:	48 89 c2             	mov    %rax,%rdx
   167e6:	0f b7 85 be dd ff ff 	movzwl -0x2242(%rbp),%eax
   167ed:	48 39 c2             	cmp    %rax,%rdx
   167f0:	0f 95 c0             	setne  %al
   167f3:	0f b6 c0             	movzbl %al,%eax
   167f6:	44 89 fe             	mov    %r15d,%esi
   167f9:	89 c7                	mov    %eax,%edi
   167fb:	e8 e1 9c ff ff       	callq  104e1 <safe_lshift_func_int16_t_s_u>
   16800:	98                   	cwtl   
   16801:	89 c6                	mov    %eax,%esi
   16803:	bf d5 88 a4 09       	mov    $0x9a488d5,%edi
   16808:	e8 f8 9d ff ff       	callq  10605 <safe_sub_func_int32_t_s_s>
   1680d:	85 c0                	test   %eax,%eax
   1680f:	74 07                	je     16818 <func_23+0x1308>
   16811:	b8 01 00 00 00       	mov    $0x1,%eax
   16816:	eb 05                	jmp    1681d <func_23+0x130d>
   16818:	b8 00 00 00 00       	mov    $0x0,%eax
   1681d:	98                   	cwtl   
   1681e:	89 de                	mov    %ebx,%esi
   16820:	89 c7                	mov    %eax,%edi
   16822:	e8 2e 9c ff ff       	callq  10455 <safe_div_func_int16_t_s_s>
   16827:	66 85 c0             	test   %ax,%ax
   1682a:	0f 84 68 05 00 00    	je     16d98 <func_23+0x1888>
   16830:	48 8d 05 a1 51 01 00 	lea    0x151a1(%rip),%rax        # 2b9d8 <g_888+0x38>
   16837:	48 89 85 28 df ff ff 	mov    %rax,-0x20d8(%rbp)
   1683e:	48 8d 85 28 df ff ff 	lea    -0x20d8(%rbp),%rax
   16845:	48 89 85 80 e0 ff ff 	mov    %rax,-0x1f80(%rbp)
   1684c:	c7 85 a8 de ff ff 43 	movl   $0x92785743,-0x2158(%rbp)
   16853:	57 78 92 
   16856:	48 8b 05 d3 52 01 00 	mov    0x152d3(%rip),%rax        # 2bb30 <g_1577>
   1685d:	48 8b 00             	mov    (%rax),%rax
   16860:	48 8b 00             	mov    (%rax),%rax
   16863:	48 8b 00             	mov    (%rax),%rax
   16866:	48 8b 00             	mov    (%rax),%rax
   16869:	8b 10                	mov    (%rax),%edx
   1686b:	48 8b 05 be 52 01 00 	mov    0x152be(%rip),%rax        # 2bb30 <g_1577>
   16872:	48 8b 00             	mov    (%rax),%rax
   16875:	48 8b 00             	mov    (%rax),%rax
   16878:	48 8b 00             	mov    (%rax),%rax
   1687b:	48 8b 00             	mov    (%rax),%rax
   1687e:	81 ca 8c 0d b9 75    	or     $0x75b90d8c,%edx
   16884:	89 10                	mov    %edx,(%rax)
   16886:	c7 05 00 11 01 00 00 	movl   $0x0,0x11100(%rip)        # 27990 <g_1605>
   1688d:	00 00 00 
   16890:	e9 ef 04 00 00       	jmpq   16d84 <func_23+0x1874>
   16895:	c7 85 e8 dd ff ff 17 	movl   $0xaf5ec417,-0x2218(%rbp)
   1689c:	c4 5e af 
   1689f:	c7 85 ec dd ff ff f8 	movl   $0xfffffff8,-0x2214(%rbp)
   168a6:	ff ff ff 
   168a9:	48 8d 05 30 03 01 00 	lea    0x10330(%rip),%rax        # 26be0 <g_238>
   168b0:	48 89 85 88 e0 ff ff 	mov    %rax,-0x1f78(%rbp)
   168b7:	48 8d 05 b2 50 01 00 	lea    0x150b2(%rip),%rax        # 2b970 <g_738>
   168be:	48 89 85 90 e0 ff ff 	mov    %rax,-0x1f70(%rbp)
   168c5:	8b 85 a8 dd ff ff    	mov    -0x2258(%rbp),%eax
   168cb:	85 c0                	test   %eax,%eax
   168cd:	74 18                	je     168e7 <func_23+0x13d7>
   168cf:	48 8d 05 7a 52 01 00 	lea    0x1527a(%rip),%rax        # 2bb50 <g_1676+0x10>
   168d6:	48 8b 00             	mov    (%rax),%rax
   168d9:	48 8b 00             	mov    (%rax),%rax
   168dc:	c7 00 02 d8 4f 54    	movl   $0x544fd802,(%rax)
   168e2:	e9 bd 00 00 00       	jmpq   169a4 <func_23+0x1494>
   168e7:	66 c7 85 c0 f0 ff ff 	movw   $0x1,-0xf40(%rbp)
   168ee:	01 00 
   168f0:	66 c7 85 c2 f0 ff ff 	movw   $0x1,-0xf3e(%rbp)
   168f7:	01 00 
   168f9:	66 c7 85 c4 f0 ff ff 	movw   $0xfff6,-0xf3c(%rbp)
   16900:	f6 ff 
   16902:	66 c7 85 c6 f0 ff ff 	movw   $0xfffd,-0xf3a(%rbp)
   16909:	fd ff 
   1690b:	66 c7 85 c8 f0 ff ff 	movw   $0xfff6,-0xf38(%rbp)
   16912:	f6 ff 
   16914:	66 c7 85 ca f0 ff ff 	movw   $0x1,-0xf36(%rbp)
   1691b:	01 00 
   1691d:	66 c7 85 cc f0 ff ff 	movw   $0x1,-0xf34(%rbp)
   16924:	01 00 
   16926:	66 c7 85 ce f0 ff ff 	movw   $0xfff6,-0xf32(%rbp)
   1692d:	f6 ff 
   1692f:	66 c7 85 d0 f0 ff ff 	movw   $0xfffd,-0xf30(%rbp)
   16936:	fd ff 
   16938:	66 c7 85 d2 f0 ff ff 	movw   $0xfff6,-0xf2e(%rbp)
   1693f:	f6 ff 
   16941:	48 8d 05 30 00 01 00 	lea    0x10030(%rip),%rax        # 26978 <g_231+0xf8>
   16948:	48 89 85 98 e0 ff ff 	mov    %rax,-0x1f68(%rbp)
   1694f:	48 8d 05 d2 f6 00 00 	lea    0xf6d2(%rip),%rax        # 26028 <g_34>
   16956:	48 89 85 a0 e0 ff ff 	mov    %rax,-0x1f60(%rbp)
   1695d:	48 8d 85 40 f8 ff ff 	lea    -0x7c0(%rbp),%rax
   16964:	48 8d 15 75 35 01 00 	lea    0x13575(%rip),%rdx        # 29ee0 <g_4305+0x14b8>
   1696b:	b9 28 00 00 00       	mov    $0x28,%ecx
   16970:	48 89 c7             	mov    %rax,%rdi
   16973:	48 89 d6             	mov    %rdx,%rsi
   16976:	f3 48 a5             	rep movsq %ds:(%rsi),%es:(%rdi)
   16979:	8b 05 3d 10 01 00    	mov    0x1103d(%rip),%eax        # 279bc <g_2471>
   1697f:	85 c0                	test   %eax,%eax
   16981:	74 05                	je     16988 <func_23+0x1478>
   16983:	e9 ce fe ff ff       	jmpq   16856 <func_23+0x1346>
   16988:	83 ad e8 dd ff ff 01 	subl   $0x1,-0x2218(%rbp)
   1698f:	8b 85 a8 dd ff ff    	mov    -0x2258(%rbp),%eax
   16995:	85 c0                	test   %eax,%eax
   16997:	0f 85 d1 03 00 00    	jne    16d6e <func_23+0x185e>
   1699d:	83 85 e0 dd ff ff 01 	addl   $0x1,-0x2220(%rbp)
   169a4:	c7 85 ec dd ff ff 09 	movl   $0x9,-0x2214(%rbp)
   169ab:	00 00 00 
   169ae:	eb 10                	jmp    169c0 <func_23+0x14b0>
   169b0:	83 bd e8 dd ff ff 00 	cmpl   $0x0,-0x2218(%rbp)
   169b7:	75 12                	jne    169cb <func_23+0x14bb>
   169b9:	83 ad ec dd ff ff 01 	subl   $0x1,-0x2214(%rbp)
   169c0:	83 bd ec dd ff ff 00 	cmpl   $0x0,-0x2214(%rbp)
   169c7:	79 e7                	jns    169b0 <func_23+0x14a0>
   169c9:	eb 01                	jmp    169cc <func_23+0x14bc>
   169cb:	90                   	nop
   169cc:	c7 05 c2 0f 01 00 01 	movl   $0x1,0x10fc2(%rip)        # 27998 <g_1678>
   169d3:	00 00 00 
   169d6:	e9 8d 01 00 00       	jmpq   16b68 <func_23+0x1658>
   169db:	48 8d 05 0e 63 01 00 	lea    0x1630e(%rip),%rax        # 2ccf0 <g_2490>
   169e2:	48 89 85 a8 e0 ff ff 	mov    %rax,-0x1f58(%rbp)
   169e9:	48 8d 05 f0 01 01 00 	lea    0x101f0(%rip),%rax        # 26be0 <g_238>
   169f0:	48 89 85 b0 e0 ff ff 	mov    %rax,-0x1f50(%rbp)
   169f7:	48 c7 85 b8 e0 ff ff 	movq   $0x0,-0x1f48(%rbp)
   169fe:	00 00 00 00 
   16a02:	c7 85 ac de ff ff e6 	movl   $0xb15962e6,-0x2154(%rbp)
   16a09:	62 59 b1 
   16a0c:	c7 85 f0 dd ff ff 00 	movl   $0x0,-0x2210(%rbp)
   16a13:	00 00 00 
   16a16:	eb 1b                	jmp    16a33 <func_23+0x1523>
   16a18:	8b 85 f0 dd ff ff    	mov    -0x2210(%rbp),%eax
   16a1e:	48 98                	cltq   
   16a20:	48 c7 84 c5 40 f8 ff 	movq   $0x0,-0x7c0(%rbp,%rax,8)
   16a27:	ff 00 00 00 00 
   16a2c:	83 85 f0 dd ff ff 01 	addl   $0x1,-0x2210(%rbp)
   16a33:	83 bd f0 dd ff ff 02 	cmpl   $0x2,-0x2210(%rbp)
   16a3a:	7e dc                	jle    16a18 <func_23+0x1508>
   16a3c:	48 8b 15 ad 62 01 00 	mov    0x162ad(%rip),%rdx        # 2ccf0 <g_2490>
   16a43:	48 8b 85 a8 e0 ff ff 	mov    -0x1f58(%rbp),%rax
   16a4a:	48 89 10             	mov    %rdx,(%rax)
   16a4d:	48 8b 85 a8 e0 ff ff 	mov    -0x1f58(%rbp),%rax
   16a54:	48 8b 00             	mov    (%rax),%rax
   16a57:	48 39 85 80 e0 ff ff 	cmp    %rax,-0x1f80(%rbp)
   16a5e:	0f 94 c0             	sete   %al
   16a61:	0f b6 d8             	movzbl %al,%ebx
   16a64:	48 8b 05 35 50 01 00 	mov    0x15035(%rip),%rax        # 2baa0 <g_1121>
   16a6b:	48 8b 00             	mov    (%rax),%rax
   16a6e:	48 8b 95 b0 e0 ff ff 	mov    -0x1f50(%rbp),%rdx
   16a75:	48 89 95 88 e0 ff ff 	mov    %rdx,-0x1f78(%rbp)
   16a7c:	48 39 85 88 e0 ff ff 	cmp    %rax,-0x1f78(%rbp)
   16a83:	0f 95 c0             	setne  %al
   16a86:	0f b6 c0             	movzbl %al,%eax
   16a89:	be 47 f2 ff ff       	mov    $0xfffff247,%esi
   16a8e:	89 c7                	mov    %eax,%edi
   16a90:	e8 81 99 ff ff       	callq  10416 <safe_mod_func_int16_t_s_s>
   16a95:	48 8b 05 dc 4e 01 00 	mov    0x14edc(%rip),%rax        # 2b978 <g_797>
   16a9c:	48 8b 00             	mov    (%rax),%rax
   16a9f:	48 8b 00             	mov    (%rax),%rax
   16aa2:	0f b6 10             	movzbl (%rax),%edx
   16aa5:	89 d9                	mov    %ebx,%ecx
   16aa7:	48 8b 05 ca 4e 01 00 	mov    0x14eca(%rip),%rax        # 2b978 <g_797>
   16aae:	48 8b 00             	mov    (%rax),%rax
   16ab1:	48 8b 00             	mov    (%rax),%rax
   16ab4:	31 ca                	xor    %ecx,%edx
   16ab6:	88 10                	mov    %dl,(%rax)
   16ab8:	0f b6 85 ac dd ff ff 	movzbl -0x2254(%rbp),%eax
   16abf:	84 c0                	test   %al,%al
   16ac1:	74 42                	je     16b05 <func_23+0x15f5>
   16ac3:	48 8d 05 7e 01 01 00 	lea    0x1017e(%rip),%rax        # 26c48 <g_556>
   16aca:	0f b7 00             	movzwl (%rax),%eax
   16acd:	0f b7 d0             	movzwl %ax,%edx
   16ad0:	8b 8d a8 dd ff ff    	mov    -0x2258(%rbp),%ecx
   16ad6:	48 8b 05 b3 4f 01 00 	mov    0x14fb3(%rip),%rax        # 2ba90 <g_969>
   16add:	88 08                	mov    %cl,(%rax)
   16adf:	0f b6 00             	movzbl (%rax),%eax
   16ae2:	0f b6 c0             	movzbl %al,%eax
   16ae5:	8b 8d a8 de ff ff    	mov    -0x2158(%rbp),%ecx
   16aeb:	21 c8                	and    %ecx,%eax
   16aed:	0f b7 c0             	movzwl %ax,%eax
   16af0:	89 d6                	mov    %edx,%esi
   16af2:	89 c7                	mov    %eax,%edi
   16af4:	e8 26 a2 ff ff       	callq  10d1f <safe_sub_func_uint16_t_u_u>
   16af9:	66 85 c0             	test   %ax,%ax
   16afc:	74 07                	je     16b05 <func_23+0x15f5>
   16afe:	b8 01 00 00 00       	mov    $0x1,%eax
   16b03:	eb 05                	jmp    16b0a <func_23+0x15fa>
   16b05:	b8 00 00 00 00       	mov    $0x0,%eax
   16b0a:	be ff ff ff ff       	mov    $0xffffffff,%esi
   16b0f:	89 c7                	mov    %eax,%edi
   16b11:	e8 0f a4 ff ff       	callq  10f25 <safe_div_func_uint32_t_u_u>
   16b16:	48 8b 05 73 4e 01 00 	mov    0x14e73(%rip),%rax        # 2b990 <g_834>
   16b1d:	48 8b 00             	mov    (%rax),%rax
   16b20:	48 39 85 90 e0 ff ff 	cmp    %rax,-0x1f70(%rbp)
   16b27:	0f 94 c0             	sete   %al
   16b2a:	0f b6 c0             	movzbl %al,%eax
   16b2d:	09 85 ac de ff ff    	or     %eax,-0x2154(%rbp)
   16b33:	8b 85 a8 dd ff ff    	mov    -0x2258(%rbp),%eax
   16b39:	85 c0                	test   %eax,%eax
   16b3b:	75 3b                	jne    16b78 <func_23+0x1668>
   16b3d:	0f b6 85 ac dd ff ff 	movzbl -0x2254(%rbp),%eax
   16b44:	84 c0                	test   %al,%al
   16b46:	75 33                	jne    16b7b <func_23+0x166b>
   16b48:	48 8b 05 c1 4f 01 00 	mov    0x14fc1(%rip),%rax        # 2bb10 <g_1406>
   16b4f:	48 8b 95 68 e0 ff ff 	mov    -0x1f98(%rbp),%rdx
   16b56:	48 89 10             	mov    %rdx,(%rax)
   16b59:	8b 05 39 0e 01 00    	mov    0x10e39(%rip),%eax        # 27998 <g_1678>
   16b5f:	83 e8 01             	sub    $0x1,%eax
   16b62:	89 05 30 0e 01 00    	mov    %eax,0x10e30(%rip)        # 27998 <g_1678>
   16b68:	8b 05 2a 0e 01 00    	mov    0x10e2a(%rip),%eax        # 27998 <g_1678>
   16b6e:	85 c0                	test   %eax,%eax
   16b70:	0f 89 65 fe ff ff    	jns    169db <func_23+0x14cb>
   16b76:	eb 04                	jmp    16b7c <func_23+0x166c>
   16b78:	90                   	nop
   16b79:	eb 01                	jmp    16b7c <func_23+0x166c>
   16b7b:	90                   	nop
   16b7c:	48 8b 05 1d 4f 01 00 	mov    0x14f1d(%rip),%rax        # 2baa0 <g_1121>
   16b83:	48 8b 00             	mov    (%rax),%rax
   16b86:	48 8b 10             	mov    (%rax),%rdx
   16b89:	48 83 ea 01          	sub    $0x1,%rdx
   16b8d:	48 89 10             	mov    %rdx,(%rax)
   16b90:	48 8b 00             	mov    (%rax),%rax
   16b93:	41 89 c7             	mov    %eax,%r15d
   16b96:	48 8b 05 53 4e 01 00 	mov    0x14e53(%rip),%rax        # 2b9f0 <g_909>
   16b9d:	48 8b 00             	mov    (%rax),%rax
   16ba0:	49 89 c6             	mov    %rax,%r14
   16ba3:	8b 9d a8 de ff ff    	mov    -0x2158(%rbp),%ebx
   16ba9:	48 8b 85 e8 de ff ff 	mov    -0x2118(%rbp),%rax
   16bb0:	48 8d 15 71 85 01 00 	lea    0x18571(%rip),%rdx        # 2f128 <g_904>
   16bb7:	48 39 d0             	cmp    %rdx,%rax
   16bba:	0f 95 c0             	setne  %al
   16bbd:	44 0f b6 e8          	movzbl %al,%r13d
   16bc1:	48 8b 85 60 e0 ff ff 	mov    -0x1fa0(%rbp),%rax
   16bc8:	8b 00                	mov    (%rax),%eax
   16bca:	44 0f b7 e0          	movzwl %ax,%r12d
   16bce:	8b 85 ac e6 ff ff    	mov    -0x1954(%rbp),%eax
   16bd4:	98                   	cwtl   
   16bd5:	be 05 00 00 00       	mov    $0x5,%esi
   16bda:	89 c7                	mov    %eax,%edi
   16bdc:	e8 00 99 ff ff       	callq  104e1 <safe_lshift_func_int16_t_s_u>
   16be1:	0f b7 c0             	movzwl %ax,%eax
   16be4:	44 89 e6             	mov    %r12d,%esi
   16be7:	89 c7                	mov    %eax,%edi
   16be9:	e8 6e a1 ff ff       	callq  10d5c <safe_mod_func_uint16_t_u_u>
   16bee:	0f b7 c0             	movzwl %ax,%eax
   16bf1:	89 85 d8 dd ff ff    	mov    %eax,-0x2228(%rbp)
   16bf7:	8b 85 d8 dd ff ff    	mov    -0x2228(%rbp),%eax
   16bfd:	0f b6 c0             	movzbl %al,%eax
   16c00:	83 e0 02             	and    $0x2,%eax
   16c03:	41 89 c4             	mov    %eax,%r12d
   16c06:	48 be c0 c7 ab c9 9e 	movabs $0x9f71369ec9abc7c0,%rsi
   16c0d:	36 71 9f 
   16c10:	48 bf 66 f3 61 2d 56 	movabs $0x2d0a38562d61f366,%rdi
   16c17:	38 0a 2d 
   16c1a:	e8 d8 9d ff ff       	callq  109f7 <safe_div_func_int64_t_s_s>
   16c1f:	98                   	cwtl   
   16c20:	be 07 00 00 00       	mov    $0x7,%esi
   16c25:	89 c7                	mov    %eax,%edi
   16c27:	e8 fe 98 ff ff       	callq  1052a <safe_rshift_func_int16_t_s_s>
   16c2c:	66 85 c0             	test   %ax,%ax
   16c2f:	74 10                	je     16c41 <func_23+0x1731>
   16c31:	83 bd ec dd ff ff 00 	cmpl   $0x0,-0x2214(%rbp)
   16c38:	74 07                	je     16c41 <func_23+0x1731>
   16c3a:	b8 01 00 00 00       	mov    $0x1,%eax
   16c3f:	eb 05                	jmp    16c46 <func_23+0x1736>
   16c41:	b8 00 00 00 00       	mov    $0x0,%eax
   16c46:	0f b6 c0             	movzbl %al,%eax
   16c49:	44 89 e6             	mov    %r12d,%esi
   16c4c:	89 c7                	mov    %eax,%edi
   16c4e:	e8 07 9f ff ff       	callq  10b5a <safe_add_func_uint8_t_u_u>
   16c53:	0f b6 d0             	movzbl %al,%edx
   16c56:	8b 85 a8 dd ff ff    	mov    -0x2258(%rbp),%eax
   16c5c:	09 c2                	or     %eax,%edx
   16c5e:	8b 85 a8 de ff ff    	mov    -0x2158(%rbp),%eax
   16c64:	89 c6                	mov    %eax,%esi
   16c66:	89 d7                	mov    %edx,%edi
   16c68:	e8 92 9a ff ff       	callq  106ff <safe_div_func_int32_t_s_s>
   16c6d:	0f b6 95 ac dd ff ff 	movzbl -0x2254(%rbp),%edx
   16c74:	0f b6 d2             	movzbl %dl,%edx
   16c77:	21 d0                	and    %edx,%eax
   16c79:	48 98                	cltq   
   16c7b:	49 39 c5             	cmp    %rax,%r13
   16c7e:	0f 9e c0             	setle  %al
   16c81:	0f b6 c0             	movzbl %al,%eax
   16c84:	48 8d 15 bd ff 00 00 	lea    0xffbd(%rip),%rdx        # 26c48 <g_556>
   16c8b:	0f b7 12             	movzwl (%rdx),%edx
   16c8e:	89 c1                	mov    %eax,%ecx
   16c90:	48 8d 05 b1 ff 00 00 	lea    0xffb1(%rip),%rax        # 26c48 <g_556>
   16c97:	09 ca                	or     %ecx,%edx
   16c99:	66 89 10             	mov    %dx,(%rax)
   16c9c:	0f b7 00             	movzwl (%rax),%eax
   16c9f:	0f bf d0             	movswl %ax,%edx
   16ca2:	8b 85 a8 dd ff ff    	mov    -0x2258(%rbp),%eax
   16ca8:	39 c2                	cmp    %eax,%edx
   16caa:	0f 9e c0             	setle  %al
   16cad:	0f b6 c0             	movzbl %al,%eax
   16cb0:	23 85 ec dd ff ff    	and    -0x2214(%rbp),%eax
   16cb6:	c1 e8 1f             	shr    $0x1f,%eax
   16cb9:	0f b6 c0             	movzbl %al,%eax
   16cbc:	89 85 ac e6 ff ff    	mov    %eax,-0x1954(%rbp)
   16cc2:	8b 85 ac e6 ff ff    	mov    -0x1954(%rbp),%eax
   16cc8:	98                   	cwtl   
   16cc9:	89 de                	mov    %ebx,%esi
   16ccb:	89 c7                	mov    %eax,%edi
   16ccd:	e8 0f 98 ff ff       	callq  104e1 <safe_lshift_func_int16_t_s_u>
   16cd2:	0f b7 c0             	movzwl %ax,%eax
   16cd5:	be 09 00 00 00       	mov    $0x9,%esi
   16cda:	89 c7                	mov    %eax,%edi
   16cdc:	e8 dd a0 ff ff       	callq  10dbe <safe_lshift_func_uint16_t_u_s>
   16ce1:	66 3d e5 1e          	cmp    $0x1ee5,%ax
   16ce5:	0f 94 c0             	sete   %al
   16ce8:	0f b6 c0             	movzbl %al,%eax
   16ceb:	4c 89 f6             	mov    %r14,%rsi
   16cee:	48 89 c7             	mov    %rax,%rdi
   16cf1:	e8 b9 a3 ff ff       	callq  110af <safe_div_func_uint64_t_u_u>
   16cf6:	44 21 f8             	and    %r15d,%eax
   16cf9:	89 c2                	mov    %eax,%edx
   16cfb:	48 8b 85 60 e0 ff ff 	mov    -0x1fa0(%rbp),%rax
   16d02:	89 10                	mov    %edx,(%rax)
   16d04:	c6 05 a1 07 01 00 00 	movb   $0x0,0x107a1(%rip)        # 274ac <g_881>
   16d0b:	eb 54                	jmp    16d61 <func_23+0x1851>
   16d0d:	48 8b 05 2c 46 01 00 	mov    0x1462c(%rip),%rax        # 2b340 <g_379>
   16d14:	48 8b 00             	mov    (%rax),%rax
   16d17:	48 8b 00             	mov    (%rax),%rax
   16d1a:	48 8b 15 1f 46 01 00 	mov    0x1461f(%rip),%rdx        # 2b340 <g_379>
   16d21:	48 8b 1a             	mov    (%rdx),%rbx
   16d24:	48 8d 95 a0 e6 ff ff 	lea    -0x1960(%rbp),%rdx
   16d2b:	48 83 c2 04          	add    $0x4,%rdx
   16d2f:	48 89 d6             	mov    %rdx,%rsi
   16d32:	48 89 c7             	mov    %rax,%rdi
   16d35:	e8 80 7c 00 00       	callq  1e9ba <func_96>
   16d3a:	48 89 03             	mov    %rax,(%rbx)
   16d3d:	0f b6 85 ac dd ff ff 	movzbl -0x2254(%rbp),%eax
   16d44:	84 c0                	test   %al,%al
   16d46:	75 29                	jne    16d71 <func_23+0x1861>
   16d48:	83 bd e0 dd ff ff 00 	cmpl   $0x0,-0x2220(%rbp)
   16d4f:	75 23                	jne    16d74 <func_23+0x1864>
   16d51:	0f b6 05 54 07 01 00 	movzbl 0x10754(%rip),%eax        # 274ac <g_881>
   16d58:	83 c0 01             	add    $0x1,%eax
   16d5b:	88 05 4b 07 01 00    	mov    %al,0x1074b(%rip)        # 274ac <g_881>
   16d61:	0f b6 05 44 07 01 00 	movzbl 0x10744(%rip),%eax        # 274ac <g_881>
   16d68:	3c 09                	cmp    $0x9,%al
   16d6a:	7e a1                	jle    16d0d <func_23+0x17fd>
   16d6c:	eb 07                	jmp    16d75 <func_23+0x1865>
   16d6e:	90                   	nop
   16d6f:	eb 04                	jmp    16d75 <func_23+0x1865>
   16d71:	90                   	nop
   16d72:	eb 01                	jmp    16d75 <func_23+0x1865>
   16d74:	90                   	nop
   16d75:	8b 05 15 0c 01 00    	mov    0x10c15(%rip),%eax        # 27990 <g_1605>
   16d7b:	83 c0 01             	add    $0x1,%eax
   16d7e:	89 05 0c 0c 01 00    	mov    %eax,0x10c0c(%rip)        # 27990 <g_1605>
   16d84:	8b 05 06 0c 01 00    	mov    0x10c06(%rip),%eax        # 27990 <g_1605>
   16d8a:	83 f8 09             	cmp    $0x9,%eax
   16d8d:	0f 86 02 fb ff ff    	jbe    16895 <func_23+0x1385>
   16d93:	e9 1b 02 00 00       	jmpq   16fb3 <func_23+0x1aa3>
   16d98:	48 b8 26 48 71 30 b5 	movabs $0xbda338b530714826,%rax
   16d9f:	38 a3 bd 
   16da2:	48 89 85 78 e0 ff ff 	mov    %rax,-0x1f88(%rbp)
   16da9:	c6 05 fc 06 01 00 ff 	movb   $0xff,0x106fc(%rip)        # 274ac <g_881>
   16db0:	e9 b0 01 00 00       	jmpq   16f65 <func_23+0x1a55>
   16db5:	48 8b 85 78 e0 ff ff 	mov    -0x1f88(%rbp),%rax
   16dbc:	0f b7 d8             	movzwl %ax,%ebx
   16dbf:	48 8b 85 60 e0 ff ff 	mov    -0x1fa0(%rbp),%rax
   16dc6:	8b 00                	mov    (%rax),%eax
   16dc8:	41 89 c5             	mov    %eax,%r13d
   16dcb:	48 8b 05 9e 4b 01 00 	mov    0x14b9e(%rip),%rax        # 2b970 <g_738>
   16dd2:	8b 00                	mov    (%rax),%eax
   16dd4:	85 c0                	test   %eax,%eax
   16dd6:	0f 85 01 01 00 00    	jne    16edd <func_23+0x19cd>
   16ddc:	48 8b 85 a0 dd ff ff 	mov    -0x2260(%rbp),%rax
   16de3:	0f b6 00             	movzbl (%rax),%eax
   16de6:	44 0f be e0          	movsbl %al,%r12d
   16dea:	be 2c 00 00 00       	mov    $0x2c,%esi
   16def:	bf 01 00 00 00       	mov    $0x1,%edi
   16df4:	e8 9a 9d ff ff       	callq  10b93 <safe_mul_func_uint8_t_u_u>
   16df9:	48 8d 05 48 fe 00 00 	lea    0xfe48(%rip),%rax        # 26c48 <g_556>
   16e00:	0f b7 00             	movzwl (%rax),%eax
   16e03:	98                   	cwtl   
   16e04:	be f4 7b 00 00       	mov    $0x7bf4,%esi
   16e09:	89 c7                	mov    %eax,%edi
   16e0b:	e8 c3 95 ff ff       	callq  103d3 <safe_sub_func_int16_t_s_s>
   16e10:	0f bf d0             	movswl %ax,%edx
   16e13:	8b 85 ac e6 ff ff    	mov    -0x1954(%rbp),%eax
   16e19:	39 c2                	cmp    %eax,%edx
   16e1b:	0f 9d c0             	setge  %al
   16e1e:	0f b6 d0             	movzbl %al,%edx
   16e21:	0f b6 85 ac dd ff ff 	movzbl -0x2254(%rbp),%eax
   16e28:	0f b6 c0             	movzbl %al,%eax
   16e2b:	39 c2                	cmp    %eax,%edx
   16e2d:	48 8d 05 14 fe 00 00 	lea    0xfe14(%rip),%rax        # 26c48 <g_556>
   16e34:	0f b7 00             	movzwl (%rax),%eax
   16e37:	0f b7 d0             	movzwl %ax,%edx
   16e3a:	48 8b 85 60 e0 ff ff 	mov    -0x1fa0(%rbp),%rax
   16e41:	8b 00                	mov    (%rax),%eax
   16e43:	0f b7 c0             	movzwl %ax,%eax
   16e46:	89 d6                	mov    %edx,%esi
   16e48:	89 c7                	mov    %eax,%edi
   16e4a:	e8 0d 9f ff ff       	callq  10d5c <safe_mod_func_uint16_t_u_u>
   16e4f:	66 83 f8 08          	cmp    $0x8,%ax
   16e53:	0f 96 c0             	setbe  %al
   16e56:	0f b6 c0             	movzbl %al,%eax
   16e59:	f7 d0                	not    %eax
   16e5b:	48 63 d0             	movslq %eax,%rdx
   16e5e:	48 8b 05 3b 4c 01 00 	mov    0x14c3b(%rip),%rax        # 2baa0 <g_1121>
   16e65:	48 8b 00             	mov    (%rax),%rax
   16e68:	48 8b 00             	mov    (%rax),%rax
   16e6b:	48 39 c2             	cmp    %rax,%rdx
   16e6e:	0f 94 c0             	sete   %al
   16e71:	0f b6 c0             	movzbl %al,%eax
   16e74:	be fa ff ff ff       	mov    $0xfffffffa,%esi
   16e79:	89 c7                	mov    %eax,%edi
   16e7b:	e8 53 95 ff ff       	callq  103d3 <safe_sub_func_int16_t_s_s>
   16e80:	0f be c0             	movsbl %al,%eax
   16e83:	44 89 e6             	mov    %r12d,%esi
   16e86:	89 c7                	mov    %eax,%edi
   16e88:	e8 47 93 ff ff       	callq  101d4 <safe_add_func_int8_t_s_s>
   16e8d:	48 8b 05 fc 4a 01 00 	mov    0x14afc(%rip),%rax        # 2b990 <g_834>
   16e94:	48 8b 00             	mov    (%rax),%rax
   16e97:	48 8b 00             	mov    (%rax),%rax
   16e9a:	c7 00 01 00 00 00    	movl   $0x1,(%rax)
   16ea0:	8b 00                	mov    (%rax),%eax
   16ea2:	89 c2                	mov    %eax,%edx
   16ea4:	0f b6 85 ac dd ff ff 	movzbl -0x2254(%rbp),%eax
   16eab:	0f b6 c0             	movzbl %al,%eax
   16eae:	89 d6                	mov    %edx,%esi
   16eb0:	89 c7                	mov    %eax,%edi
   16eb2:	e8 4e 97 ff ff       	callq  10605 <safe_sub_func_int32_t_s_s>
   16eb7:	0f b7 c0             	movzwl %ax,%eax
   16eba:	be 04 00 00 00       	mov    $0x4,%esi
   16ebf:	89 c7                	mov    %eax,%edi
   16ec1:	e8 f8 9e ff ff       	callq  10dbe <safe_lshift_func_uint16_t_u_s>
   16ec6:	89 c2                	mov    %eax,%edx
   16ec8:	48 8b 05 c9 4b 01 00 	mov    0x14bc9(%rip),%rax        # 2ba98 <g_1122>
   16ecf:	0f b7 d2             	movzwl %dx,%edx
   16ed2:	48 89 10             	mov    %rdx,(%rax)
   16ed5:	48 8b 00             	mov    (%rax),%rax
   16ed8:	48 85 c0             	test   %rax,%rax
   16edb:	74 07                	je     16ee4 <func_23+0x19d4>
   16edd:	ba 01 00 00 00       	mov    $0x1,%edx
   16ee2:	eb 05                	jmp    16ee9 <func_23+0x19d9>
   16ee4:	ba 00 00 00 00       	mov    $0x0,%edx
   16ee9:	48 8d 05 58 fd 00 00 	lea    0xfd58(%rip),%rax        # 26c48 <g_556>
   16ef0:	66 89 10             	mov    %dx,(%rax)
   16ef3:	0f b7 00             	movzwl (%rax),%eax
   16ef6:	0f bf d0             	movswl %ax,%edx
   16ef9:	0f b6 85 ac dd ff ff 	movzbl -0x2254(%rbp),%eax
   16f00:	0f b6 c0             	movzbl %al,%eax
   16f03:	39 c2                	cmp    %eax,%edx
   16f05:	0f 9d c0             	setge  %al
   16f08:	0f b6 d0             	movzbl %al,%edx
   16f0b:	48 8b 85 60 e0 ff ff 	mov    -0x1fa0(%rbp),%rax
   16f12:	8b 00                	mov    (%rax),%eax
   16f14:	39 c2                	cmp    %eax,%edx
   16f16:	0f 9d c0             	setge  %al
   16f19:	0f b6 c0             	movzbl %al,%eax
   16f1c:	44 89 ee             	mov    %r13d,%esi
   16f1f:	89 c7                	mov    %eax,%edi
   16f21:	e8 54 9f ff ff       	callq  10e7a <safe_rshift_func_uint16_t_u_u>
   16f26:	0f b6 85 ac dd ff ff 	movzbl -0x2254(%rbp),%eax
   16f2d:	0f b6 c0             	movzbl %al,%eax
   16f30:	89 de                	mov    %ebx,%esi
   16f32:	89 c7                	mov    %eax,%edi
   16f34:	e8 e6 9d ff ff       	callq  10d1f <safe_sub_func_uint16_t_u_u>
   16f39:	48 8b 05 f8 43 01 00 	mov    0x143f8(%rip),%rax        # 2b338 <g_380>
   16f40:	48 8b 00             	mov    (%rax),%rax
   16f43:	c7 00 f9 ff ff ff    	movl   $0xfffffff9,(%rax)
   16f49:	0f b6 05 5c 05 01 00 	movzbl 0x1055c(%rip),%eax        # 274ac <g_881>
   16f50:	0f be c0             	movsbl %al,%eax
   16f53:	be 04 00 00 00       	mov    $0x4,%esi
   16f58:	89 c7                	mov    %eax,%edi
   16f5a:	e8 57 96 ff ff       	callq  105b6 <safe_add_func_int32_t_s_s>
   16f5f:	88 05 47 05 01 00    	mov    %al,0x10547(%rip)        # 274ac <g_881>
   16f65:	0f b6 05 40 05 01 00 	movzbl 0x10540(%rip),%eax        # 274ac <g_881>
   16f6c:	3c 01                	cmp    $0x1,%al
   16f6e:	0f 8f 41 fe ff ff    	jg     16db5 <func_23+0x18a5>
   16f74:	c6 05 39 0a 01 00 fc 	movb   $0xfc,0x10a39(%rip)        # 279b4 <g_2322>
   16f7b:	eb 2b                	jmp    16fa8 <func_23+0x1a98>
   16f7d:	48 8d 15 14 0a 01 00 	lea    0x10a14(%rip),%rdx        # 27998 <g_1678>
   16f84:	8b 85 bc e8 ff ff    	mov    -0x1744(%rbp),%eax
   16f8a:	89 02                	mov    %eax,(%rdx)
   16f8c:	0f b6 05 21 0a 01 00 	movzbl 0x10a21(%rip),%eax        # 279b4 <g_2322>
   16f93:	0f be c0             	movsbl %al,%eax
   16f96:	be 02 00 00 00       	mov    $0x2,%esi
   16f9b:	89 c7                	mov    %eax,%edi
   16f9d:	e8 14 96 ff ff       	callq  105b6 <safe_add_func_int32_t_s_s>
   16fa2:	88 05 0c 0a 01 00    	mov    %al,0x10a0c(%rip)        # 279b4 <g_2322>
   16fa8:	0f b6 05 05 0a 01 00 	movzbl 0x10a05(%rip),%eax        # 279b4 <g_2322>
   16faf:	3c ff                	cmp    $0xff,%al
   16fb1:	74 ca                	je     16f7d <func_23+0x1a6d>
   16fb3:	8b 85 a8 dd ff ff    	mov    -0x2258(%rbp),%eax
   16fb9:	85 c0                	test   %eax,%eax
   16fbb:	0f 84 ea 0e 00 00    	je     17eab <func_23+0x299b>
   16fc1:	c7 85 f4 dd ff ff 8a 	movl   $0x8bf3338a,-0x220c(%rbp)
   16fc8:	33 f3 8b 
   16fcb:	48 8d 05 c8 f0 00 00 	lea    0xf0c8(%rip),%rax        # 2609a <g_176>
   16fd2:	48 89 85 c0 e0 ff ff 	mov    %rax,-0x1f40(%rbp)
   16fd9:	c7 85 b0 de ff ff 01 	movl   $0x1,-0x2150(%rbp)
   16fe0:	00 00 00 
   16fe3:	c7 85 b4 de ff ff 06 	movl   $0x6,-0x214c(%rbp)
   16fea:	00 00 00 
   16fed:	c7 85 b8 de ff ff 08 	movl   $0x8,-0x2148(%rbp)
   16ff4:	00 00 00 
   16ff7:	48 8d 85 c0 f0 ff ff 	lea    -0xf40(%rbp),%rax
   16ffe:	48 8d 15 fb a6 00 00 	lea    0xa6fb(%rip),%rdx        # 21700 <g_2211+0x670>
   17005:	b9 36 00 00 00       	mov    $0x36,%ecx
   1700a:	48 89 c7             	mov    %rax,%rdi
   1700d:	48 89 d6             	mov    %rdx,%rsi
   17010:	f3 48 a5             	rep movsq %ds:(%rsi),%es:(%rdi)
   17013:	66 c7 85 c4 dd ff ff 	movw   $0xfe72,-0x223c(%rbp)
   1701a:	72 fe 
   1701c:	48 b8 30 3a c7 78 2b 	movabs $0x89f37d2b78c73a30,%rax
   17023:	7d f3 89 
   17026:	48 89 85 c8 e0 ff ff 	mov    %rax,-0x1f38(%rbp)
   1702d:	48 b8 14 9d f7 58 d1 	movabs $0xcb549ad158f79d14,%rax
   17034:	9a 54 cb 
   17037:	48 89 85 d0 e0 ff ff 	mov    %rax,-0x1f30(%rbp)
   1703e:	48 8d 05 53 09 01 00 	lea    0x10953(%rip),%rax        # 27998 <g_1678>
   17045:	48 89 85 80 e2 ff ff 	mov    %rax,-0x1d80(%rbp)
   1704c:	48 8d 85 c0 f0 ff ff 	lea    -0xf40(%rbp),%rax
   17053:	48 05 a8 00 00 00    	add    $0xa8,%rax
   17059:	48 89 85 88 e2 ff ff 	mov    %rax,-0x1d78(%rbp)
   17060:	48 8d 85 c0 f0 ff ff 	lea    -0xf40(%rbp),%rax
   17067:	48 05 a8 00 00 00    	add    $0xa8,%rax
   1706d:	48 89 85 90 e2 ff ff 	mov    %rax,-0x1d70(%rbp)
   17074:	48 8d 85 dc dd ff ff 	lea    -0x2224(%rbp),%rax
   1707b:	48 89 85 98 e2 ff ff 	mov    %rax,-0x1d68(%rbp)
   17082:	48 8d 85 c0 f0 ff ff 	lea    -0xf40(%rbp),%rax
   17089:	48 05 a8 00 00 00    	add    $0xa8,%rax
   1708f:	48 89 85 a0 e2 ff ff 	mov    %rax,-0x1d60(%rbp)
   17096:	48 8d 85 10 df ff ff 	lea    -0x20f0(%rbp),%rax
   1709d:	48 89 85 a8 e2 ff ff 	mov    %rax,-0x1d58(%rbp)
   170a4:	48 c7 85 b0 e2 ff ff 	movq   $0x0,-0x1d50(%rbp)
   170ab:	00 00 00 00 
   170af:	48 8d 05 e2 08 01 00 	lea    0x108e2(%rip),%rax        # 27998 <g_1678>
   170b6:	48 89 85 b8 e2 ff ff 	mov    %rax,-0x1d48(%rbp)
   170bd:	48 8d 85 18 df ff ff 	lea    -0x20e8(%rbp),%rax
   170c4:	48 89 85 c0 e2 ff ff 	mov    %rax,-0x1d40(%rbp)
   170cb:	48 8d 85 dc dd ff ff 	lea    -0x2224(%rbp),%rax
   170d2:	48 89 85 c8 e2 ff ff 	mov    %rax,-0x1d38(%rbp)
   170d9:	48 8d 85 dc dd ff ff 	lea    -0x2224(%rbp),%rax
   170e0:	48 89 85 d0 e2 ff ff 	mov    %rax,-0x1d30(%rbp)
   170e7:	48 8d 85 18 df ff ff 	lea    -0x20e8(%rbp),%rax
   170ee:	48 89 85 d8 e2 ff ff 	mov    %rax,-0x1d28(%rbp)
   170f5:	48 8d 05 9c 08 01 00 	lea    0x1089c(%rip),%rax        # 27998 <g_1678>
   170fc:	48 89 85 e0 e2 ff ff 	mov    %rax,-0x1d20(%rbp)
   17103:	48 c7 85 e8 e2 ff ff 	movq   $0x0,-0x1d18(%rbp)
   1710a:	00 00 00 00 
   1710e:	48 8d 85 10 df ff ff 	lea    -0x20f0(%rbp),%rax
   17115:	48 89 85 f0 e2 ff ff 	mov    %rax,-0x1d10(%rbp)
   1711c:	48 8d 85 c0 f0 ff ff 	lea    -0xf40(%rbp),%rax
   17123:	48 05 a8 00 00 00    	add    $0xa8,%rax
   17129:	48 89 85 f8 e2 ff ff 	mov    %rax,-0x1d08(%rbp)
   17130:	48 8d 85 dc dd ff ff 	lea    -0x2224(%rbp),%rax
   17137:	48 89 85 00 e3 ff ff 	mov    %rax,-0x1d00(%rbp)
   1713e:	48 8d 85 c0 f0 ff ff 	lea    -0xf40(%rbp),%rax
   17145:	48 05 a8 00 00 00    	add    $0xa8,%rax
   1714b:	48 89 85 08 e3 ff ff 	mov    %rax,-0x1cf8(%rbp)
   17152:	48 8d 85 c0 f0 ff ff 	lea    -0xf40(%rbp),%rax
   17159:	48 05 a8 00 00 00    	add    $0xa8,%rax
   1715f:	48 89 85 10 e3 ff ff 	mov    %rax,-0x1cf0(%rbp)
   17166:	48 8d 05 2b 08 01 00 	lea    0x1082b(%rip),%rax        # 27998 <g_1678>
   1716d:	48 89 85 18 e3 ff ff 	mov    %rax,-0x1ce8(%rbp)
   17174:	48 8d 85 dc dd ff ff 	lea    -0x2224(%rbp),%rax
   1717b:	48 89 85 20 e3 ff ff 	mov    %rax,-0x1ce0(%rbp)
   17182:	48 8d 05 0f 08 01 00 	lea    0x1080f(%rip),%rax        # 27998 <g_1678>
   17189:	48 89 85 28 e3 ff ff 	mov    %rax,-0x1cd8(%rbp)
   17190:	48 8d 85 c0 f0 ff ff 	lea    -0xf40(%rbp),%rax
   17197:	48 05 a8 00 00 00    	add    $0xa8,%rax
   1719d:	48 89 85 30 e3 ff ff 	mov    %rax,-0x1cd0(%rbp)
   171a4:	48 8d 85 c0 f0 ff ff 	lea    -0xf40(%rbp),%rax
   171ab:	48 05 a8 00 00 00    	add    $0xa8,%rax
   171b1:	48 89 85 38 e3 ff ff 	mov    %rax,-0x1cc8(%rbp)
   171b8:	48 8d 85 dc dd ff ff 	lea    -0x2224(%rbp),%rax
   171bf:	48 89 85 40 e3 ff ff 	mov    %rax,-0x1cc0(%rbp)
   171c6:	48 8d 85 c0 f0 ff ff 	lea    -0xf40(%rbp),%rax
   171cd:	48 05 a8 00 00 00    	add    $0xa8,%rax
   171d3:	48 89 85 48 e3 ff ff 	mov    %rax,-0x1cb8(%rbp)
   171da:	48 8d 85 10 df ff ff 	lea    -0x20f0(%rbp),%rax
   171e1:	48 89 85 50 e3 ff ff 	mov    %rax,-0x1cb0(%rbp)
   171e8:	c7 85 f8 dd ff ff 00 	movl   $0x0,-0x2208(%rbp)
   171ef:	00 00 00 
   171f2:	eb 42                	jmp    17236 <func_23+0x1d26>
   171f4:	c7 85 fc dd ff ff 00 	movl   $0x0,-0x2204(%rbp)
   171fb:	00 00 00 
   171fe:	eb 26                	jmp    17226 <func_23+0x1d16>
   17200:	8b 85 fc dd ff ff    	mov    -0x2204(%rbp),%eax
   17206:	48 63 d0             	movslq %eax,%rdx
   17209:	8b 85 f8 dd ff ff    	mov    -0x2208(%rbp),%eax
   1720f:	48 98                	cltq   
   17211:	48 01 d0             	add    %rdx,%rax
   17214:	c7 84 85 c0 e1 ff ff 	movl   $0x76015d54,-0x1e40(%rbp,%rax,4)
   1721b:	54 5d 01 76 
   1721f:	83 85 fc dd ff ff 01 	addl   $0x1,-0x2204(%rbp)
   17226:	83 bd fc dd ff ff 00 	cmpl   $0x0,-0x2204(%rbp)
   1722d:	7e d1                	jle    17200 <func_23+0x1cf0>
   1722f:	83 85 f8 dd ff ff 01 	addl   $0x1,-0x2208(%rbp)
   17236:	83 bd f8 dd ff ff 02 	cmpl   $0x2,-0x2208(%rbp)
   1723d:	7e b5                	jle    171f4 <func_23+0x1ce4>
   1723f:	48 8b 05 5a 48 01 00 	mov    0x1485a(%rip),%rax        # 2baa0 <g_1121>
   17246:	48 8b 00             	mov    (%rax),%rax
   17249:	48 8b 00             	mov    (%rax),%rax
   1724c:	48 85 c0             	test   %rax,%rax
   1724f:	0f 84 9f 01 00 00    	je     173f4 <func_23+0x1ee4>
   17255:	48 c7 85 40 e0 ff ff 	movq   $0x5,-0x1fc0(%rbp)
   1725c:	05 00 00 00 
   17260:	48 83 bd 40 e0 ff ff 	cmpq   $0x22,-0x1fc0(%rbp)
   17267:	22 
   17268:	75 0b                	jne    17275 <func_23+0x1d65>
   1726a:	8b 85 a8 dd ff ff    	mov    -0x2258(%rbp),%eax
   17270:	e9 9c 34 00 00       	jmpq   1a711 <func_23+0x5201>
   17275:	c6 05 4c fa 00 00 00 	movb   $0x0,0xfa4c(%rip)        # 26cc8 <g_624>
   1727c:	e9 5f 01 00 00       	jmpq   173e0 <func_23+0x1ed0>
   17281:	48 8d 85 f0 de ff ff 	lea    -0x2110(%rbp),%rax
   17288:	48 89 85 40 f8 ff ff 	mov    %rax,-0x7c0(%rbp)
   1728f:	48 c7 85 48 f8 ff ff 	movq   $0x0,-0x7b8(%rbp)
   17296:	00 00 00 00 
   1729a:	48 8d 85 f0 de ff ff 	lea    -0x2110(%rbp),%rax
   172a1:	48 89 85 50 f8 ff ff 	mov    %rax,-0x7b0(%rbp)
   172a8:	48 c7 85 58 f8 ff ff 	movq   $0x0,-0x7a8(%rbp)
   172af:	00 00 00 00 
   172b3:	48 8d 85 f0 de ff ff 	lea    -0x2110(%rbp),%rax
   172ba:	48 89 85 60 f8 ff ff 	mov    %rax,-0x7a0(%rbp)
   172c1:	48 c7 85 68 f8 ff ff 	movq   $0x0,-0x798(%rbp)
   172c8:	00 00 00 00 
   172cc:	48 8d 85 f0 de ff ff 	lea    -0x2110(%rbp),%rax
   172d3:	48 89 85 70 f8 ff ff 	mov    %rax,-0x790(%rbp)
   172da:	48 c7 85 78 f8 ff ff 	movq   $0x0,-0x788(%rbp)
   172e1:	00 00 00 00 
   172e5:	48 8d 85 f0 de ff ff 	lea    -0x2110(%rbp),%rax
   172ec:	48 89 85 80 f8 ff ff 	mov    %rax,-0x780(%rbp)
   172f3:	48 c7 85 88 f8 ff ff 	movq   $0x0,-0x778(%rbp)
   172fa:	00 00 00 00 
   172fe:	48 8b 85 40 df ff ff 	mov    -0x20c0(%rbp),%rax
   17305:	48 89 85 60 e0 ff ff 	mov    %rax,-0x1fa0(%rbp)
   1730c:	48 8b 05 cd 59 01 00 	mov    0x159cd(%rip),%rax        # 2cce0 <g_2258>
   17313:	48 8b 10             	mov    (%rax),%rdx
   17316:	48 8b 85 f0 de ff ff 	mov    -0x2110(%rbp),%rax
   1731d:	48 89 05 3c 7e 01 00 	mov    %rax,0x17e3c(%rip)        # 2f160 <g_2572>
   17324:	48 8b 05 35 7e 01 00 	mov    0x17e35(%rip),%rax        # 2f160 <g_2572>
   1732b:	48 39 c2             	cmp    %rax,%rdx
   1732e:	0f 94 c0             	sete   %al
   17331:	0f b6 d8             	movzbl %al,%ebx
   17334:	48 8b 85 60 e0 ff ff 	mov    -0x1fa0(%rbp),%rax
   1733b:	8b 00                	mov    (%rax),%eax
   1733d:	0f bf d0             	movswl %ax,%edx
   17340:	8b 85 a8 dd ff ff    	mov    -0x2258(%rbp),%eax
   17346:	09 85 f4 dd ff ff    	or     %eax,-0x220c(%rbp)
   1734c:	8b 85 f4 dd ff ff    	mov    -0x220c(%rbp),%eax
   17352:	98                   	cwtl   
   17353:	89 d6                	mov    %edx,%esi
   17355:	89 c7                	mov    %eax,%edi
   17357:	e8 f9 90 ff ff       	callq  10455 <safe_div_func_int16_t_s_s>
   1735c:	0f bf c8             	movswl %ax,%ecx
   1735f:	0f b6 95 ac dd ff ff 	movzbl -0x2254(%rbp),%edx
   17366:	48 8d 05 e3 47 01 00 	lea    0x147e3(%rip),%rax        # 2bb50 <g_1676+0x10>
   1736d:	48 8b 00             	mov    (%rax),%rax
   17370:	48 8b 00             	mov    (%rax),%rax
   17373:	0f b6 d2             	movzbl %dl,%edx
   17376:	89 10                	mov    %edx,(%rax)
   17378:	8b 10                	mov    (%rax),%edx
   1737a:	48 8b 85 c0 e0 ff ff 	mov    -0x1f40(%rbp),%rax
   17381:	48 3b 85 70 e0 ff ff 	cmp    -0x1f90(%rbp),%rax
   17388:	0f 95 c0             	setne  %al
   1738b:	0f b6 c0             	movzbl %al,%eax
   1738e:	39 c2                	cmp    %eax,%edx
   17390:	0f 94 c0             	sete   %al
   17393:	0f b6 c0             	movzbl %al,%eax
   17396:	39 c1                	cmp    %eax,%ecx
   17398:	0f 95 c0             	setne  %al
   1739b:	0f b6 c0             	movzbl %al,%eax
   1739e:	89 de                	mov    %ebx,%esi
   173a0:	89 c7                	mov    %eax,%edi
   173a2:	e8 2d 8e ff ff       	callq  101d4 <safe_add_func_int8_t_s_s>
   173a7:	48 8d 05 9a f8 00 00 	lea    0xf89a(%rip),%rax        # 26c48 <g_556>
   173ae:	0f b7 00             	movzwl (%rax),%eax
   173b1:	66 3d cc 5e          	cmp    $0x5ecc,%ax
   173b5:	0f 9e c0             	setle  %al
   173b8:	0f b6 c0             	movzbl %al,%eax
   173bb:	39 85 e0 dd ff ff    	cmp    %eax,-0x2220(%rbp)
   173c1:	0f 95 c2             	setne  %dl
   173c4:	48 8b 05 dd 46 01 00 	mov    0x146dd(%rip),%rax        # 2baa8 <g_1228>
   173cb:	0f b6 d2             	movzbl %dl,%edx
   173ce:	89 10                	mov    %edx,(%rax)
   173d0:	0f b6 05 f1 f8 00 00 	movzbl 0xf8f1(%rip),%eax        # 26cc8 <g_624>
   173d7:	83 e8 01             	sub    $0x1,%eax
   173da:	88 05 e8 f8 00 00    	mov    %al,0xf8e8(%rip)        # 26cc8 <g_624>
   173e0:	0f b6 05 e1 f8 00 00 	movzbl 0xf8e1(%rip),%eax        # 26cc8 <g_624>
   173e7:	3c ee                	cmp    $0xee,%al
   173e9:	0f 8c 92 fe ff ff    	jl     17281 <func_23+0x1d71>
   173ef:	e9 3b 09 00 00       	jmpq   17d2f <func_23+0x281f>
   173f4:	c6 85 ba dd ff ff 04 	movb   $0x4,-0x2246(%rbp)
   173fb:	48 8d 85 60 e3 ff ff 	lea    -0x1ca0(%rbp),%rax
   17402:	48 8d 15 b7 a4 00 00 	lea    0xa4b7(%rip),%rdx        # 218c0 <g_2211+0x830>
   17409:	b9 24 00 00 00       	mov    $0x24,%ecx
   1740e:	48 89 c7             	mov    %rax,%rdi
   17411:	48 89 d6             	mov    %rdx,%rsi
   17414:	f3 48 a5             	rep movsq %ds:(%rsi),%es:(%rdi)
   17417:	48 c7 85 d8 e0 ff ff 	movq   $0x0,-0x1f28(%rbp)
   1741e:	00 00 00 00 
   17422:	48 8d 85 d8 dd ff ff 	lea    -0x2228(%rbp),%rax
   17429:	48 89 85 e0 e0 ff ff 	mov    %rax,-0x1f20(%rbp)
   17430:	66 c7 85 c6 dd ff ff 	movw   $0x5e10,-0x223a(%rbp)
   17437:	10 5e 
   17439:	c7 85 00 de ff ff 00 	movl   $0x0,-0x2200(%rbp)
   17440:	00 00 00 
   17443:	eb 1b                	jmp    17460 <func_23+0x1f50>
   17445:	8b 85 00 de ff ff    	mov    -0x2200(%rbp),%eax
   1744b:	48 98                	cltq   
   1744d:	48 c7 84 c5 b8 e1 ff 	movq   $0x0,-0x1e48(%rbp,%rax,8)
   17454:	ff 00 00 00 00 
   17459:	83 85 00 de ff ff 01 	addl   $0x1,-0x2200(%rbp)
   17460:	83 bd 00 de ff ff 00 	cmpl   $0x0,-0x2200(%rbp)
   17467:	7e dc                	jle    17445 <func_23+0x1f35>
   17469:	8b 85 a8 dd ff ff    	mov    -0x2258(%rbp),%eax
   1746f:	85 c0                	test   %eax,%eax
   17471:	0f 84 c6 06 00 00    	je     17b3d <func_23+0x262d>
   17477:	c6 85 bb dd ff ff 29 	movb   $0x29,-0x2245(%rbp)
   1747e:	48 8d 05 a3 eb 00 00 	lea    0xeba3(%rip),%rax        # 26028 <g_34>
   17485:	48 89 85 e8 e0 ff ff 	mov    %rax,-0x1f18(%rbp)
   1748c:	48 c7 85 f0 e0 ff ff 	movq   $0x0,-0x1f10(%rbp)
   17493:	00 00 00 00 
   17497:	48 8d 05 1a f6 00 00 	lea    0xf61a(%rip),%rax        # 26ab8 <g_231+0x238>
   1749e:	48 89 85 f8 e0 ff ff 	mov    %rax,-0x1f08(%rbp)
   174a5:	48 8d 85 a0 e6 ff ff 	lea    -0x1960(%rbp),%rax
   174ac:	48 05 7c 02 00 00    	add    $0x27c,%rax
   174b2:	48 89 85 00 e1 ff ff 	mov    %rax,-0x1f00(%rbp)
   174b9:	48 c7 85 08 e1 ff ff 	movq   $0x0,-0x1ef8(%rbp)
   174c0:	00 00 00 00 
   174c4:	48 8d 85 20 df ff ff 	lea    -0x20e0(%rbp),%rax
   174cb:	48 89 85 10 e1 ff ff 	mov    %rax,-0x1ef0(%rbp)
   174d2:	48 8d 85 c0 f0 ff ff 	lea    -0xf40(%rbp),%rax
   174d9:	48 05 70 01 00 00    	add    $0x170,%rax
   174df:	48 89 85 18 e1 ff ff 	mov    %rax,-0x1ee8(%rbp)
   174e6:	48 c7 85 20 e1 ff ff 	movq   $0x0,-0x1ee0(%rbp)
   174ed:	00 00 00 00 
   174f1:	48 c7 85 28 e1 ff ff 	movq   $0x0,-0x1ed8(%rbp)
   174f8:	00 00 00 00 
   174fc:	48 8d 85 d8 dd ff ff 	lea    -0x2228(%rbp),%rax
   17503:	48 89 85 30 e1 ff ff 	mov    %rax,-0x1ed0(%rbp)
   1750a:	48 c7 85 38 e1 ff ff 	movq   $0x0,-0x1ec8(%rbp)
   17511:	00 00 00 00 
   17515:	48 8d 85 20 df ff ff 	lea    -0x20e0(%rbp),%rax
   1751c:	48 89 85 40 f8 ff ff 	mov    %rax,-0x7c0(%rbp)
   17523:	48 8d 85 c0 f0 ff ff 	lea    -0xf40(%rbp),%rax
   1752a:	48 05 88 00 00 00    	add    $0x88,%rax
   17530:	48 89 85 48 f8 ff ff 	mov    %rax,-0x7b8(%rbp)
   17537:	48 8d 85 d8 dd ff ff 	lea    -0x2228(%rbp),%rax
   1753e:	48 89 85 50 f8 ff ff 	mov    %rax,-0x7b0(%rbp)
   17545:	48 8d 85 c0 f0 ff ff 	lea    -0xf40(%rbp),%rax
   1754c:	48 05 88 00 00 00    	add    $0x88,%rax
   17552:	48 89 85 58 f8 ff ff 	mov    %rax,-0x7a8(%rbp)
   17559:	48 8d 85 20 df ff ff 	lea    -0x20e0(%rbp),%rax
   17560:	48 89 85 60 f8 ff ff 	mov    %rax,-0x7a0(%rbp)
   17567:	48 c7 85 68 f8 ff ff 	movq   $0x0,-0x798(%rbp)
   1756e:	00 00 00 00 
   17572:	48 8d 85 c0 f0 ff ff 	lea    -0xf40(%rbp),%rax
   17579:	48 05 70 01 00 00    	add    $0x170,%rax
   1757f:	48 89 85 70 f8 ff ff 	mov    %rax,-0x790(%rbp)
   17586:	48 8d 05 13 03 01 00 	lea    0x10313(%rip),%rax        # 278a0 <g_1294+0x340>
   1758d:	48 89 85 78 f8 ff ff 	mov    %rax,-0x788(%rbp)
   17594:	48 8d 85 c0 f0 ff ff 	lea    -0xf40(%rbp),%rax
   1759b:	48 05 70 01 00 00    	add    $0x170,%rax
   175a1:	48 89 85 80 f8 ff ff 	mov    %rax,-0x780(%rbp)
   175a8:	48 c7 85 88 f8 ff ff 	movq   $0x0,-0x778(%rbp)
   175af:	00 00 00 00 
   175b3:	48 8d 85 20 df ff ff 	lea    -0x20e0(%rbp),%rax
   175ba:	48 89 85 90 f8 ff ff 	mov    %rax,-0x770(%rbp)
   175c1:	48 8d 85 c0 f0 ff ff 	lea    -0xf40(%rbp),%rax
   175c8:	48 05 88 00 00 00    	add    $0x88,%rax
   175ce:	48 89 85 98 f8 ff ff 	mov    %rax,-0x768(%rbp)
   175d5:	48 8d 85 d8 dd ff ff 	lea    -0x2228(%rbp),%rax
   175dc:	48 89 85 a0 f8 ff ff 	mov    %rax,-0x760(%rbp)
   175e3:	48 8d 85 c0 f0 ff ff 	lea    -0xf40(%rbp),%rax
   175ea:	48 05 88 00 00 00    	add    $0x88,%rax
   175f0:	48 89 85 a8 f8 ff ff 	mov    %rax,-0x758(%rbp)
   175f7:	48 8d 85 20 df ff ff 	lea    -0x20e0(%rbp),%rax
   175fe:	48 89 85 b0 f8 ff ff 	mov    %rax,-0x750(%rbp)
   17605:	48 c7 85 b8 f8 ff ff 	movq   $0x0,-0x748(%rbp)
   1760c:	00 00 00 00 
   17610:	48 8d 85 c0 f0 ff ff 	lea    -0xf40(%rbp),%rax
   17617:	48 05 70 01 00 00    	add    $0x170,%rax
   1761d:	48 89 85 c0 f8 ff ff 	mov    %rax,-0x740(%rbp)
   17624:	48 8d 05 75 02 01 00 	lea    0x10275(%rip),%rax        # 278a0 <g_1294+0x340>
   1762b:	48 89 85 c8 f8 ff ff 	mov    %rax,-0x738(%rbp)
   17632:	48 8d 85 c0 f0 ff ff 	lea    -0xf40(%rbp),%rax
   17639:	48 05 70 01 00 00    	add    $0x170,%rax
   1763f:	48 89 85 d0 f8 ff ff 	mov    %rax,-0x730(%rbp)
   17646:	48 c7 85 d8 f8 ff ff 	movq   $0x0,-0x728(%rbp)
   1764d:	00 00 00 00 
   17651:	48 8d 85 20 df ff ff 	lea    -0x20e0(%rbp),%rax
   17658:	48 89 85 e0 f8 ff ff 	mov    %rax,-0x720(%rbp)
   1765f:	48 8d 85 c0 f0 ff ff 	lea    -0xf40(%rbp),%rax
   17666:	48 05 88 00 00 00    	add    $0x88,%rax
   1766c:	48 89 85 e8 f8 ff ff 	mov    %rax,-0x718(%rbp)
   17673:	48 8d 85 d8 dd ff ff 	lea    -0x2228(%rbp),%rax
   1767a:	48 89 85 f0 f8 ff ff 	mov    %rax,-0x710(%rbp)
   17681:	48 8d 85 c0 f0 ff ff 	lea    -0xf40(%rbp),%rax
   17688:	48 05 88 00 00 00    	add    $0x88,%rax
   1768e:	48 89 85 f8 f8 ff ff 	mov    %rax,-0x708(%rbp)
   17695:	48 8d 85 20 df ff ff 	lea    -0x20e0(%rbp),%rax
   1769c:	48 89 85 00 f9 ff ff 	mov    %rax,-0x700(%rbp)
   176a3:	48 c7 85 08 f9 ff ff 	movq   $0x0,-0x6f8(%rbp)
   176aa:	00 00 00 00 
   176ae:	48 8d 85 c0 f0 ff ff 	lea    -0xf40(%rbp),%rax
   176b5:	48 05 70 01 00 00    	add    $0x170,%rax
   176bb:	48 89 85 10 f9 ff ff 	mov    %rax,-0x6f0(%rbp)
   176c2:	48 8d 05 d7 01 01 00 	lea    0x101d7(%rip),%rax        # 278a0 <g_1294+0x340>
   176c9:	48 89 85 18 f9 ff ff 	mov    %rax,-0x6e8(%rbp)
   176d0:	48 8d 85 c0 f0 ff ff 	lea    -0xf40(%rbp),%rax
   176d7:	48 05 70 01 00 00    	add    $0x170,%rax
   176dd:	48 89 85 20 f9 ff ff 	mov    %rax,-0x6e0(%rbp)
   176e4:	48 c7 85 28 f9 ff ff 	movq   $0x0,-0x6d8(%rbp)
   176eb:	00 00 00 00 
   176ef:	48 8d 85 20 df ff ff 	lea    -0x20e0(%rbp),%rax
   176f6:	48 89 85 30 f9 ff ff 	mov    %rax,-0x6d0(%rbp)
   176fd:	48 8d 85 c0 f0 ff ff 	lea    -0xf40(%rbp),%rax
   17704:	48 05 88 00 00 00    	add    $0x88,%rax
   1770a:	48 89 85 38 f9 ff ff 	mov    %rax,-0x6c8(%rbp)
   17711:	48 8d 85 d8 dd ff ff 	lea    -0x2228(%rbp),%rax
   17718:	48 89 85 40 f9 ff ff 	mov    %rax,-0x6c0(%rbp)
   1771f:	48 8d 85 c0 f0 ff ff 	lea    -0xf40(%rbp),%rax
   17726:	48 05 88 00 00 00    	add    $0x88,%rax
   1772c:	48 89 85 48 f9 ff ff 	mov    %rax,-0x6b8(%rbp)
   17733:	48 8d 85 20 df ff ff 	lea    -0x20e0(%rbp),%rax
   1773a:	48 89 85 50 f9 ff ff 	mov    %rax,-0x6b0(%rbp)
   17741:	48 c7 85 58 f9 ff ff 	movq   $0x0,-0x6a8(%rbp)
   17748:	00 00 00 00 
   1774c:	48 8d 85 c0 f0 ff ff 	lea    -0xf40(%rbp),%rax
   17753:	48 05 70 01 00 00    	add    $0x170,%rax
   17759:	48 89 85 60 f9 ff ff 	mov    %rax,-0x6a0(%rbp)
   17760:	48 8d 05 39 01 01 00 	lea    0x10139(%rip),%rax        # 278a0 <g_1294+0x340>
   17767:	48 89 85 68 f9 ff ff 	mov    %rax,-0x698(%rbp)
   1776e:	48 8d 85 c0 f0 ff ff 	lea    -0xf40(%rbp),%rax
   17775:	48 05 70 01 00 00    	add    $0x170,%rax
   1777b:	48 89 85 70 f9 ff ff 	mov    %rax,-0x690(%rbp)
   17782:	48 c7 85 78 f9 ff ff 	movq   $0x0,-0x688(%rbp)
   17789:	00 00 00 00 
   1778d:	48 8d 85 20 df ff ff 	lea    -0x20e0(%rbp),%rax
   17794:	48 89 85 80 f9 ff ff 	mov    %rax,-0x680(%rbp)
   1779b:	48 8d 85 c0 f0 ff ff 	lea    -0xf40(%rbp),%rax
   177a2:	48 05 88 00 00 00    	add    $0x88,%rax
   177a8:	48 89 85 88 f9 ff ff 	mov    %rax,-0x678(%rbp)
   177af:	48 8d 85 d8 dd ff ff 	lea    -0x2228(%rbp),%rax
   177b6:	48 89 85 90 f9 ff ff 	mov    %rax,-0x670(%rbp)
   177bd:	48 8d 85 c0 f0 ff ff 	lea    -0xf40(%rbp),%rax
   177c4:	48 05 88 00 00 00    	add    $0x88,%rax
   177ca:	48 89 85 98 f9 ff ff 	mov    %rax,-0x668(%rbp)
   177d1:	48 8d 85 20 df ff ff 	lea    -0x20e0(%rbp),%rax
   177d8:	48 89 85 a0 f9 ff ff 	mov    %rax,-0x660(%rbp)
   177df:	48 c7 85 a8 f9 ff ff 	movq   $0x0,-0x658(%rbp)
   177e6:	00 00 00 00 
   177ea:	48 8d 85 c0 f0 ff ff 	lea    -0xf40(%rbp),%rax
   177f1:	48 05 70 01 00 00    	add    $0x170,%rax
   177f7:	48 89 85 b0 f9 ff ff 	mov    %rax,-0x650(%rbp)
   177fe:	48 8d 05 9b 00 01 00 	lea    0x1009b(%rip),%rax        # 278a0 <g_1294+0x340>
   17805:	48 89 85 b8 f9 ff ff 	mov    %rax,-0x648(%rbp)
   1780c:	48 8d 85 c0 f0 ff ff 	lea    -0xf40(%rbp),%rax
   17813:	48 05 70 01 00 00    	add    $0x170,%rax
   17819:	48 89 85 c0 f9 ff ff 	mov    %rax,-0x640(%rbp)
   17820:	48 c7 85 c8 f9 ff ff 	movq   $0x0,-0x638(%rbp)
   17827:	00 00 00 00 
   1782b:	48 8d 85 20 df ff ff 	lea    -0x20e0(%rbp),%rax
   17832:	48 89 85 d0 f9 ff ff 	mov    %rax,-0x630(%rbp)
   17839:	48 8d 85 c0 f0 ff ff 	lea    -0xf40(%rbp),%rax
   17840:	48 05 88 00 00 00    	add    $0x88,%rax
   17846:	48 89 85 d8 f9 ff ff 	mov    %rax,-0x628(%rbp)
   1784d:	48 8d 85 d8 dd ff ff 	lea    -0x2228(%rbp),%rax
   17854:	48 89 85 e0 f9 ff ff 	mov    %rax,-0x620(%rbp)
   1785b:	48 8d 85 c0 f0 ff ff 	lea    -0xf40(%rbp),%rax
   17862:	48 05 88 00 00 00    	add    $0x88,%rax
   17868:	48 89 85 e8 f9 ff ff 	mov    %rax,-0x618(%rbp)
   1786f:	48 8d 85 20 df ff ff 	lea    -0x20e0(%rbp),%rax
   17876:	48 89 85 f0 f9 ff ff 	mov    %rax,-0x610(%rbp)
   1787d:	48 c7 85 f8 f9 ff ff 	movq   $0x0,-0x608(%rbp)
   17884:	00 00 00 00 
   17888:	48 8d 85 c0 f0 ff ff 	lea    -0xf40(%rbp),%rax
   1788f:	48 05 70 01 00 00    	add    $0x170,%rax
   17895:	48 89 85 00 fa ff ff 	mov    %rax,-0x600(%rbp)
   1789c:	48 8d 05 fd ff 00 00 	lea    0xfffd(%rip),%rax        # 278a0 <g_1294+0x340>
   178a3:	48 89 85 08 fa ff ff 	mov    %rax,-0x5f8(%rbp)
   178aa:	48 8d 85 c0 f0 ff ff 	lea    -0xf40(%rbp),%rax
   178b1:	48 05 70 01 00 00    	add    $0x170,%rax
   178b7:	48 89 85 10 fa ff ff 	mov    %rax,-0x5f0(%rbp)
   178be:	48 c7 85 18 fa ff ff 	movq   $0x0,-0x5e8(%rbp)
   178c5:	00 00 00 00 
   178c9:	48 8d 85 20 df ff ff 	lea    -0x20e0(%rbp),%rax
   178d0:	48 89 85 20 fa ff ff 	mov    %rax,-0x5e0(%rbp)
   178d7:	48 8d 85 c0 f0 ff ff 	lea    -0xf40(%rbp),%rax
   178de:	48 05 88 00 00 00    	add    $0x88,%rax
   178e4:	48 89 85 28 fa ff ff 	mov    %rax,-0x5d8(%rbp)
   178eb:	48 8d 85 d8 dd ff ff 	lea    -0x2228(%rbp),%rax
   178f2:	48 89 85 30 fa ff ff 	mov    %rax,-0x5d0(%rbp)
   178f9:	48 8d 85 c0 f0 ff ff 	lea    -0xf40(%rbp),%rax
   17900:	48 05 88 00 00 00    	add    $0x88,%rax
   17906:	48 89 85 38 fa ff ff 	mov    %rax,-0x5c8(%rbp)
   1790d:	48 8d 85 20 df ff ff 	lea    -0x20e0(%rbp),%rax
   17914:	48 89 85 40 fa ff ff 	mov    %rax,-0x5c0(%rbp)
   1791b:	48 c7 85 48 fa ff ff 	movq   $0x0,-0x5b8(%rbp)
   17922:	00 00 00 00 
   17926:	48 8d 85 a0 e6 ff ff 	lea    -0x1960(%rbp),%rax
   1792d:	48 83 c0 28          	add    $0x28,%rax
   17931:	48 89 85 50 fa ff ff 	mov    %rax,-0x5b0(%rbp)
   17938:	48 8d 05 19 e7 00 00 	lea    0xe719(%rip),%rax        # 26058 <g_107>
   1793f:	48 89 85 58 fa ff ff 	mov    %rax,-0x5a8(%rbp)
   17946:	48 8d 85 a0 e6 ff ff 	lea    -0x1960(%rbp),%rax
   1794d:	48 83 c0 28          	add    $0x28,%rax
   17951:	48 89 85 60 fa ff ff 	mov    %rax,-0x5a0(%rbp)
   17958:	48 8d 85 c0 f0 ff ff 	lea    -0xf40(%rbp),%rax
   1795f:	48 05 70 01 00 00    	add    $0x170,%rax
   17965:	48 89 85 68 fa ff ff 	mov    %rax,-0x598(%rbp)
   1796c:	66 c7 85 c8 dd ff ff 	movw   $0x2b0a,-0x2238(%rbp)
   17973:	0a 2b 
   17975:	c6 85 bc dd ff ff 01 	movb   $0x1,-0x2244(%rbp)
   1797c:	48 c7 85 40 e1 ff ff 	movq   $0x0,-0x1ec0(%rbp)
   17983:	00 00 00 00 
   17987:	48 c7 85 28 df ff ff 	movq   $0x0,-0x20d8(%rbp)
   1798e:	00 00 00 00 
   17992:	48 8d 85 28 df ff ff 	lea    -0x20d8(%rbp),%rax
   17999:	48 89 85 48 e1 ff ff 	mov    %rax,-0x1eb8(%rbp)
   179a0:	48 8d 05 99 77 01 00 	lea    0x17799(%rip),%rax        # 2f140 <g_1624>
   179a7:	48 89 85 50 e1 ff ff 	mov    %rax,-0x1eb0(%rbp)
   179ae:	0f b7 85 c8 dd ff ff 	movzwl -0x2238(%rbp),%eax
   179b5:	83 c0 01             	add    $0x1,%eax
   179b8:	66 89 85 c8 dd ff ff 	mov    %ax,-0x2238(%rbp)
   179bf:	0f b7 85 c4 dd ff ff 	movzwl -0x223c(%rbp),%eax
   179c6:	83 c0 01             	add    $0x1,%eax
   179c9:	66 89 85 c4 dd ff ff 	mov    %ax,-0x223c(%rbp)
   179d0:	80 ad bc dd ff ff 01 	subb   $0x1,-0x2244(%rbp)
   179d7:	8b 85 a8 dd ff ff    	mov    -0x2258(%rbp),%eax
   179dd:	89 c3                	mov    %eax,%ebx
   179df:	8b 85 c4 e1 ff ff    	mov    -0x1e3c(%rbp),%eax
   179e5:	41 89 c4             	mov    %eax,%r12d
   179e8:	48 8b 85 f8 e0 ff ff 	mov    -0x1f08(%rbp),%rax
   179ef:	8b 00                	mov    (%rax),%eax
   179f1:	41 89 c5             	mov    %eax,%r13d
   179f4:	48 8b 05 75 3f 01 00 	mov    0x13f75(%rip),%rax        # 2b970 <g_738>
   179fb:	8b 00                	mov    (%rax),%eax
   179fd:	89 c2                	mov    %eax,%edx
   179ff:	8b 85 d8 dd ff ff    	mov    -0x2228(%rbp),%eax
   17a05:	89 d6                	mov    %edx,%esi
   17a07:	89 c7                	mov    %eax,%edi
   17a09:	e8 f1 8c ff ff       	callq  106ff <safe_div_func_int32_t_s_s>
   17a0e:	89 c2                	mov    %eax,%edx
   17a10:	48 8b 05 69 3f 01 00 	mov    0x13f69(%rip),%rax        # 2b980 <g_796>
   17a17:	48 8b 00             	mov    (%rax),%rax
   17a1a:	48 8b 00             	mov    (%rax),%rax
   17a1d:	48 8b 00             	mov    (%rax),%rax
   17a20:	0f b6 08             	movzbl (%rax),%ecx
   17a23:	48 8b 05 56 3f 01 00 	mov    0x13f56(%rip),%rax        # 2b980 <g_796>
   17a2a:	48 8b 00             	mov    (%rax),%rax
   17a2d:	48 8b 00             	mov    (%rax),%rax
   17a30:	48 8b 00             	mov    (%rax),%rax
   17a33:	31 ca                	xor    %ecx,%edx
   17a35:	88 10                	mov    %dl,(%rax)
   17a37:	48 bf d1 f2 03 f9 bf 	movabs $0xa7b60ebff903f2d1,%rdi
   17a3e:	0e b6 a7 
   17a41:	e8 d3 95 ff ff       	callq  11019 <safe_unary_minus_func_uint64_t_u>
   17a46:	48 89 c2             	mov    %rax,%rdx
   17a49:	48 8d 05 f8 f1 00 00 	lea    0xf1f8(%rip),%rax        # 26c48 <g_556>
   17a50:	66 0f be 8d b8 dd ff 	movsbw -0x2248(%rbp),%cx
   17a57:	ff 
   17a58:	66 89 08             	mov    %cx,(%rax)
   17a5b:	0f b7 00             	movzwl (%rax),%eax
   17a5e:	48 0f bf c0          	movswq %ax,%rax
   17a62:	48 35 f3 b3 00 00    	xor    $0xb3f3,%rax
   17a68:	48 39 c2             	cmp    %rax,%rdx
   17a6b:	0f 97 c0             	seta   %al
   17a6e:	89 c2                	mov    %eax,%edx
   17a70:	48 8b 85 50 e1 ff ff 	mov    -0x1eb0(%rbp),%rax
   17a77:	88 10                	mov    %dl,(%rax)
   17a79:	be 01 00 00 00       	mov    $0x1,%esi
   17a7e:	bf 01 00 00 00       	mov    $0x1,%edi
   17a83:	e8 19 88 ff ff       	callq  102a1 <safe_lshift_func_int8_t_s_s>
   17a88:	48 8b 85 48 e1 ff ff 	mov    -0x1eb8(%rbp),%rax
   17a8f:	48 8b 95 30 e1 ff ff 	mov    -0x1ed0(%rbp),%rdx
   17a96:	48 89 10             	mov    %rdx,(%rax)
   17a99:	b8 00 00 00 00       	mov    $0x0,%eax
   17a9e:	0f be c0             	movsbl %al,%eax
   17aa1:	44 89 ee             	mov    %r13d,%esi
   17aa4:	89 c7                	mov    %eax,%edi
   17aa6:	e8 43 88 ff ff       	callq  102ee <safe_lshift_func_int8_t_s_u>
   17aab:	0f be d0             	movsbl %al,%edx
   17aae:	0f b6 85 ac dd ff ff 	movzbl -0x2254(%rbp),%eax
   17ab5:	0f b6 c0             	movzbl %al,%eax
   17ab8:	21 d0                	and    %edx,%eax
   17aba:	85 c0                	test   %eax,%eax
   17abc:	74 08                	je     17ac6 <func_23+0x25b6>
   17abe:	8b 85 a8 dd ff ff    	mov    -0x2258(%rbp),%eax
   17ac4:	85 c0                	test   %eax,%eax
   17ac6:	44 89 e6             	mov    %r12d,%esi
   17ac9:	bf b5 e1 6b 83       	mov    $0x836be1b5,%edi
   17ace:	e8 32 8b ff ff       	callq  10605 <safe_sub_func_int32_t_s_s>
   17ad3:	0f be c0             	movsbl %al,%eax
   17ad6:	be 58 00 00 00       	mov    $0x58,%esi
   17adb:	89 c7                	mov    %eax,%edi
   17add:	e8 4f 87 ff ff       	callq  10231 <safe_mod_func_int8_t_s_s>
   17ae2:	89 de                	mov    %ebx,%esi
   17ae4:	bf 10 00 00 00       	mov    $0x10,%edi
   17ae9:	e8 7e 88 ff ff       	callq  1036c <safe_rshift_func_int8_t_s_u>
   17aee:	89 c2                	mov    %eax,%edx
   17af0:	48 8b 05 79 3e 01 00 	mov    0x13e79(%rip),%rax        # 2b970 <g_738>
   17af7:	0f be d2             	movsbl %dl,%edx
   17afa:	89 10                	mov    %edx,(%rax)
   17afc:	48 8d 85 d8 dd ff ff 	lea    -0x2228(%rbp),%rax
   17b03:	48 8d 95 a0 e6 ff ff 	lea    -0x1960(%rbp),%rdx
   17b0a:	48 83 c2 0c          	add    $0xc,%rdx
   17b0e:	48 89 c6             	mov    %rax,%rsi
   17b11:	48 89 d7             	mov    %rdx,%rdi
   17b14:	e8 a1 6e 00 00       	callq  1e9ba <func_96>
   17b19:	48 89 c2             	mov    %rax,%rdx
   17b1c:	48 8b 1d 15 38 01 00 	mov    0x13815(%rip),%rbx        # 2b338 <g_380>
   17b23:	48 8b 85 40 e1 ff ff 	mov    -0x1ec0(%rbp),%rax
   17b2a:	48 89 d6             	mov    %rdx,%rsi
   17b2d:	48 89 c7             	mov    %rax,%rdi
   17b30:	e8 85 6e 00 00       	callq  1e9ba <func_96>
   17b35:	48 89 03             	mov    %rax,(%rbx)
   17b38:	e9 ea 01 00 00       	jmpq   17d27 <func_23+0x2817>
   17b3d:	8b 85 a8 dd ff ff    	mov    -0x2258(%rbp),%eax
   17b43:	48 63 d8             	movslq %eax,%rbx
   17b46:	48 8d 05 fb f0 00 00 	lea    0xf0fb(%rip),%rax        # 26c48 <g_556>
   17b4d:	0f b7 00             	movzwl (%rax),%eax
   17b50:	44 0f b7 e0          	movzwl %ax,%r12d
   17b54:	8b 85 a8 dd ff ff    	mov    -0x2258(%rbp),%eax
   17b5a:	0f b6 c0             	movzbl %al,%eax
   17b5d:	be 00 00 00 00       	mov    $0x0,%esi
   17b62:	89 c7                	mov    %eax,%edi
   17b64:	e8 2a 90 ff ff       	callq  10b93 <safe_mul_func_uint8_t_u_u>
   17b69:	0f b6 c0             	movzbl %al,%eax
   17b6c:	89 c7                	mov    %eax,%edi
   17b6e:	e8 2a 88 ff ff       	callq  1039d <safe_unary_minus_func_int16_t_s>
   17b73:	48 8d 05 ce f0 00 00 	lea    0xf0ce(%rip),%rax        # 26c48 <g_556>
   17b7a:	0f b7 00             	movzwl (%rax),%eax
   17b7d:	66 83 f8 01          	cmp    $0x1,%ax
   17b81:	0f 94 c0             	sete   %al
   17b84:	0f b6 d0             	movzbl %al,%edx
   17b87:	48 8d 05 ba f0 00 00 	lea    0xf0ba(%rip),%rax        # 26c48 <g_556>
   17b8e:	0f b7 00             	movzwl (%rax),%eax
   17b91:	98                   	cwtl   
   17b92:	39 c2                	cmp    %eax,%edx
   17b94:	0f 95 c0             	setne  %al
   17b97:	0f b6 c0             	movzbl %al,%eax
   17b9a:	be 01 00 00 00       	mov    $0x1,%esi
   17b9f:	89 c7                	mov    %eax,%edi
   17ba1:	e8 26 8b ff ff       	callq  106cc <safe_mod_func_int32_t_s_s>
   17ba6:	be bc 77 be 04       	mov    $0x4be77bc,%esi
   17bab:	89 c7                	mov    %eax,%edi
   17bad:	e8 04 8a ff ff       	callq  105b6 <safe_add_func_int32_t_s_s>
   17bb2:	0f b7 c0             	movzwl %ax,%eax
   17bb5:	44 89 e6             	mov    %r12d,%esi
   17bb8:	89 c7                	mov    %eax,%edi
   17bba:	e8 cf 91 ff ff       	callq  10d8e <safe_div_func_uint16_t_u_u>
   17bbf:	0f b7 c0             	movzwl %ax,%eax
   17bc2:	35 b6 d5 0b 30       	xor    $0x300bd5b6,%eax
   17bc7:	89 c2                	mov    %eax,%edx
   17bc9:	48 8d 05 78 f0 00 00 	lea    0xf078(%rip),%rax        # 26c48 <g_556>
   17bd0:	0f b7 00             	movzwl (%rax),%eax
   17bd3:	98                   	cwtl   
   17bd4:	89 d6                	mov    %edx,%esi
   17bd6:	89 c7                	mov    %eax,%edi
   17bd8:	e8 86 89 ff ff       	callq  10563 <safe_rshift_func_int16_t_s_u>
   17bdd:	48 0f bf c0          	movswq %ax,%rax
   17be1:	48 c7 c6 f8 ff ff ff 	mov    $0xfffffffffffffff8,%rsi
   17be8:	48 89 c7             	mov    %rax,%rdi
   17beb:	e8 c4 8d ff ff       	callq  109b4 <safe_mod_func_int64_t_s_s>
   17bf0:	48 85 c0             	test   %rax,%rax
   17bf3:	0f 94 c0             	sete   %al
   17bf6:	0f b6 d0             	movzbl %al,%edx
   17bf9:	8b 85 a8 dd ff ff    	mov    -0x2258(%rbp),%eax
   17bff:	09 d0                	or     %edx,%eax
   17c01:	3d c3 d1 00 00       	cmp    $0xd1c3,%eax
   17c06:	7f 09                	jg     17c11 <func_23+0x2701>
   17c08:	0f b6 85 ac dd ff ff 	movzbl -0x2254(%rbp),%eax
   17c0f:	84 c0                	test   %al,%al
   17c11:	c7 85 d8 dd ff ff fb 	movl   $0x41fb,-0x2228(%rbp)
   17c18:	41 00 00 
   17c1b:	be 00 00 00 00       	mov    $0x0,%esi
   17c20:	bf fb 41 00 00       	mov    $0x41fb,%edi
   17c25:	e8 68 88 ff ff       	callq  10492 <safe_lshift_func_int16_t_s_s>
   17c2a:	0f b6 85 ac dd ff ff 	movzbl -0x2254(%rbp),%eax
   17c31:	0f b6 c0             	movzbl %al,%eax
   17c34:	be 00 00 00 00       	mov    $0x0,%esi
   17c39:	89 c7                	mov    %eax,%edi
   17c3b:	e8 ea 88 ff ff       	callq  1052a <safe_rshift_func_int16_t_s_s>
   17c40:	0f b7 c0             	movzwl %ax,%eax
   17c43:	be 0e 00 00 00       	mov    $0xe,%esi
   17c48:	89 c7                	mov    %eax,%edi
   17c4a:	e8 b7 91 ff ff       	callq  10e06 <safe_lshift_func_uint16_t_u_u>
   17c4f:	0f b7 c0             	movzwl %ax,%eax
   17c52:	48 89 de             	mov    %rbx,%rsi
   17c55:	48 89 c7             	mov    %rax,%rdi
   17c58:	e8 d1 93 ff ff       	callq  1102e <safe_add_func_uint64_t_u_u>
   17c5d:	48 8b 15 8c 3d 01 00 	mov    0x13d8c(%rip),%rdx        # 2b9f0 <g_909>
   17c64:	48 8b 12             	mov    (%rdx),%rdx
   17c67:	48 39 d0             	cmp    %rdx,%rax
   17c6a:	0f 97 c2             	seta   %dl
   17c6d:	48 8b 05 bc 3e 01 00 	mov    0x13ebc(%rip),%rax        # 2bb30 <g_1577>
   17c74:	48 8b 00             	mov    (%rax),%rax
   17c77:	48 8b 00             	mov    (%rax),%rax
   17c7a:	48 8b 00             	mov    (%rax),%rax
   17c7d:	48 8b 00             	mov    (%rax),%rax
   17c80:	0f b6 d2             	movzbl %dl,%edx
   17c83:	89 10                	mov    %edx,(%rax)
   17c85:	48 8b 85 40 df ff ff 	mov    -0x20c0(%rbp),%rax
   17c8c:	8b 10                	mov    (%rax),%edx
   17c8e:	48 8b 05 fb 3d 01 00 	mov    0x13dfb(%rip),%rax        # 2ba90 <g_969>
   17c95:	0f b6 00             	movzbl (%rax),%eax
   17c98:	0f b6 c8             	movzbl %al,%ecx
   17c9b:	8b b5 78 e4 ff ff    	mov    -0x1b88(%rbp),%esi
   17ca1:	0f b6 85 ac dd ff ff 	movzbl -0x2254(%rbp),%eax
   17ca8:	0f b6 c0             	movzbl %al,%eax
   17cab:	21 f0                	and    %esi,%eax
   17cad:	89 85 78 e4 ff ff    	mov    %eax,-0x1b88(%rbp)
   17cb3:	8b 85 78 e4 ff ff    	mov    -0x1b88(%rbp),%eax
   17cb9:	39 c1                	cmp    %eax,%ecx
   17cbb:	0f 95 c0             	setne  %al
   17cbe:	0f b6 c0             	movzbl %al,%eax
   17cc1:	09 d0                	or     %edx,%eax
   17cc3:	85 c0                	test   %eax,%eax
   17cc5:	74 52                	je     17d19 <func_23+0x2809>
   17cc7:	48 83 bd 50 e0 ff ff 	cmpq   $0x0,-0x1fb0(%rbp)
   17cce:	00 
   17ccf:	be 01 00 00 00       	mov    $0x1,%esi
   17cd4:	bf 00 00 00 00       	mov    $0x0,%edi
   17cd9:	e8 27 89 ff ff       	callq  10605 <safe_sub_func_int32_t_s_s>
   17cde:	8b 85 a8 dd ff ff    	mov    -0x2258(%rbp),%eax
   17ce4:	83 f8 01             	cmp    $0x1,%eax
   17ce7:	48 8b 85 60 e0 ff ff 	mov    -0x1fa0(%rbp),%rax
   17cee:	8b 10                	mov    (%rax),%edx
   17cf0:	48 8b 05 f9 3c 01 00 	mov    0x13cf9(%rip),%rax        # 2b9f0 <g_909>
   17cf7:	48 8b 08             	mov    (%rax),%rcx
   17cfa:	48 63 d2             	movslq %edx,%rdx
   17cfd:	48 8b 05 ec 3c 01 00 	mov    0x13cec(%rip),%rax        # 2b9f0 <g_909>
   17d04:	48 21 ca             	and    %rcx,%rdx
   17d07:	48 89 10             	mov    %rdx,(%rax)
   17d0a:	48 8b 00             	mov    (%rax),%rax
   17d0d:	48 85 c0             	test   %rax,%rax
   17d10:	74 07                	je     17d19 <func_23+0x2809>
   17d12:	ba 01 00 00 00       	mov    $0x1,%edx
   17d17:	eb 05                	jmp    17d1e <func_23+0x280e>
   17d19:	ba 00 00 00 00       	mov    $0x0,%edx
   17d1e:	48 8b 85 60 e0 ff ff 	mov    -0x1fa0(%rbp),%rax
   17d25:	89 10                	mov    %edx,(%rax)
   17d27:	48 83 ad d0 e0 ff ff 	subq   $0x1,-0x1f30(%rbp)
   17d2e:	01 
   17d2f:	66 c7 05 94 ef 00 00 	movw   $0x0,0xef94(%rip)        # 26ccc <g_692>
   17d36:	00 00 
   17d38:	e9 44 01 00 00       	jmpq   17e81 <func_23+0x2971>
   17d3d:	c6 05 7c f7 00 00 00 	movb   $0x0,0xf77c(%rip)        # 274c0 <g_887>
   17d44:	eb 42                	jmp    17d88 <func_23+0x2878>
   17d46:	48 8b 05 d3 35 01 00 	mov    0x135d3(%rip),%rax        # 2b320 <g_268>
   17d4d:	48 8b 95 58 e0 ff ff 	mov    -0x1fa8(%rbp),%rdx
   17d54:	48 89 10             	mov    %rdx,(%rax)
   17d57:	48 8b 05 e2 35 01 00 	mov    0x135e2(%rip),%rax        # 2b340 <g_379>
   17d5e:	48 8b 00             	mov    (%rax),%rax
   17d61:	48 8b 00             	mov    (%rax),%rax
   17d64:	8b 95 a8 dd ff ff    	mov    -0x2258(%rbp),%edx
   17d6a:	89 10                	mov    %edx,(%rax)
   17d6c:	0f b6 05 4d f7 00 00 	movzbl 0xf74d(%rip),%eax        # 274c0 <g_887>
   17d73:	0f b6 c0             	movzbl %al,%eax
   17d76:	be 03 00 00 00       	mov    $0x3,%esi
   17d7b:	89 c7                	mov    %eax,%edi
   17d7d:	e8 f6 8d ff ff       	callq  10b78 <safe_sub_func_uint8_t_u_u>
   17d82:	88 05 38 f7 00 00    	mov    %al,0xf738(%rip)        # 274c0 <g_887>
   17d88:	0f b6 05 31 f7 00 00 	movzbl 0xf731(%rip),%eax        # 274c0 <g_887>
   17d8f:	3c f8                	cmp    $0xf8,%al
   17d91:	74 b3                	je     17d46 <func_23+0x2836>
   17d93:	48 c7 05 d2 e2 00 00 	movq   $0x0,0xe2d2(%rip)        # 26070 <g_133>
   17d9a:	00 00 00 00 
   17d9e:	e9 ac 00 00 00       	jmpq   17e4f <func_23+0x293f>
   17da3:	c7 85 04 de ff ff 00 	movl   $0x0,-0x21fc(%rbp)
   17daa:	00 00 00 
   17dad:	eb 4d                	jmp    17dfc <func_23+0x28ec>
   17daf:	c7 85 08 de ff ff 00 	movl   $0x0,-0x21f8(%rbp)
   17db6:	00 00 00 
   17db9:	eb 31                	jmp    17dec <func_23+0x28dc>
   17dbb:	8b 85 08 de ff ff    	mov    -0x21f8(%rbp),%eax
   17dc1:	48 63 c8             	movslq %eax,%rcx
   17dc4:	8b 85 04 de ff ff    	mov    -0x21fc(%rbp),%eax
   17dca:	48 63 d0             	movslq %eax,%rdx
   17dcd:	48 89 d0             	mov    %rdx,%rax
   17dd0:	48 c1 e0 02          	shl    $0x2,%rax
   17dd4:	48 01 d0             	add    %rdx,%rax
   17dd7:	48 01 c8             	add    %rcx,%rax
   17dda:	c7 84 85 40 f8 ff ff 	movl   $0xc83a0e67,-0x7c0(%rbp,%rax,4)
   17de1:	67 0e 3a c8 
   17de5:	83 85 08 de ff ff 01 	addl   $0x1,-0x21f8(%rbp)
   17dec:	83 bd 08 de ff ff 04 	cmpl   $0x4,-0x21f8(%rbp)
   17df3:	7e c6                	jle    17dbb <func_23+0x28ab>
   17df5:	83 85 04 de ff ff 01 	addl   $0x1,-0x21fc(%rbp)
   17dfc:	83 bd 04 de ff ff 01 	cmpl   $0x1,-0x21fc(%rbp)
   17e03:	7e aa                	jle    17daf <func_23+0x289f>
   17e05:	8b 85 40 f8 ff ff    	mov    -0x7c0(%rbp),%eax
   17e0b:	83 c0 01             	add    $0x1,%eax
   17e0e:	89 85 40 f8 ff ff    	mov    %eax,-0x7c0(%rbp)
   17e14:	48 8b 85 e8 de ff ff 	mov    -0x2118(%rbp),%rax
   17e1b:	48 8d 15 ce 3b 01 00 	lea    0x13bce(%rip),%rdx        # 2b9f0 <g_909>
   17e22:	48 89 10             	mov    %rdx,(%rax)
   17e25:	0f b6 85 ac dd ff ff 	movzbl -0x2254(%rbp),%eax
   17e2c:	84 c0                	test   %al,%al
   17e2e:	75 31                	jne    17e61 <func_23+0x2951>
   17e30:	48 8b 05 39 e2 00 00 	mov    0xe239(%rip),%rax        # 26070 <g_133>
   17e37:	98                   	cwtl   
   17e38:	be 05 00 00 00       	mov    $0x5,%esi
   17e3d:	89 c7                	mov    %eax,%edi
   17e3f:	e8 6f 85 ff ff       	callq  103b3 <safe_add_func_int16_t_s_s>
   17e44:	48 0f bf c0          	movswq %ax,%rax
   17e48:	48 89 05 21 e2 00 00 	mov    %rax,0xe221(%rip)        # 26070 <g_133>
   17e4f:	48 8b 05 1a e2 00 00 	mov    0xe21a(%rip),%rax        # 26070 <g_133>
   17e56:	48 85 c0             	test   %rax,%rax
   17e59:	0f 84 44 ff ff ff    	je     17da3 <func_23+0x2893>
   17e5f:	eb 01                	jmp    17e62 <func_23+0x2952>
   17e61:	90                   	nop
   17e62:	0f b7 05 63 ee 00 00 	movzwl 0xee63(%rip),%eax        # 26ccc <g_692>
   17e69:	48 0f bf c0          	movswq %ax,%rax
   17e6d:	be 09 00 00 00       	mov    $0x9,%esi
   17e72:	48 89 c7             	mov    %rax,%rdi
   17e75:	e8 d1 91 ff ff       	callq  1104b <safe_sub_func_uint64_t_u_u>
   17e7a:	66 89 05 4b ee 00 00 	mov    %ax,0xee4b(%rip)        # 26ccc <g_692>
   17e81:	0f b7 05 44 ee 00 00 	movzwl 0xee44(%rip),%eax        # 26ccc <g_692>
   17e88:	66 83 f8 f6          	cmp    $0xfff6,%ax
   17e8c:	0f 84 ab fe ff ff    	je     17d3d <func_23+0x282d>
   17e92:	83 ad a4 de ff ff 01 	subl   $0x1,-0x215c(%rbp)
   17e99:	48 8d 15 f8 fa 00 00 	lea    0xfaf8(%rip),%rdx        # 27998 <g_1678>
   17ea0:	0f bf 85 c0 dd ff ff 	movswl -0x2240(%rbp),%eax
   17ea7:	89 02                	mov    %eax,(%rdx)
   17ea9:	eb 7c                	jmp    17f27 <func_23+0x2a17>
   17eab:	66 c7 85 c2 dd ff ff 	movw   $0x1,-0x223e(%rbp)
   17eb2:	01 00 
   17eb4:	66 83 bd c2 dd ff ff 	cmpw   $0x0,-0x223e(%rbp)
   17ebb:	00 
   17ebc:	75 0c                	jne    17eca <func_23+0x29ba>
   17ebe:	0f b7 85 c2 dd ff ff 	movzwl -0x223e(%rbp),%eax
   17ec5:	e9 47 28 00 00       	jmpq   1a711 <func_23+0x5201>
   17eca:	c6 85 b3 dd ff ff ad 	movb   $0xad,-0x224d(%rbp)
   17ed1:	66 c7 05 be e1 00 00 	movw   $0x2,0xe1be(%rip)        # 26098 <g_168>
   17ed8:	02 00 
   17eda:	eb 30                	jmp    17f0c <func_23+0x29fc>
   17edc:	48 8b 05 5d 34 01 00 	mov    0x1345d(%rip),%rax        # 2b340 <g_379>
   17ee3:	48 8b 00             	mov    (%rax),%rax
   17ee6:	48 8b 10             	mov    (%rax),%rdx
   17ee9:	48 8b 05 40 34 01 00 	mov    0x13440(%rip),%rax        # 2b330 <g_381>
   17ef0:	8b 12                	mov    (%rdx),%edx
   17ef2:	89 10                	mov    %edx,(%rax)
   17ef4:	80 ad b3 dd ff ff 01 	subb   $0x1,-0x224d(%rbp)
   17efb:	0f b7 05 96 e1 00 00 	movzwl 0xe196(%rip),%eax        # 26098 <g_168>
   17f02:	83 c0 01             	add    $0x1,%eax
   17f05:	66 89 05 8c e1 00 00 	mov    %ax,0xe18c(%rip)        # 26098 <g_168>
   17f0c:	0f b7 05 85 e1 00 00 	movzwl 0xe185(%rip),%eax        # 26098 <g_168>
   17f13:	66 83 f8 0e          	cmp    $0xe,%ax
   17f17:	74 c3                	je     17edc <func_23+0x29cc>
   17f19:	48 8b 85 40 df ff ff 	mov    -0x20c0(%rbp),%rax
   17f20:	8b 00                	mov    (%rax),%eax
   17f22:	e9 ea 27 00 00       	jmpq   1a711 <func_23+0x5201>
   17f27:	48 8b 05 f2 3b 01 00 	mov    0x13bf2(%rip),%rax        # 2bb20 <g_1576>
   17f2e:	48 8b 00             	mov    (%rax),%rax
   17f31:	48 8b 00             	mov    (%rax),%rax
   17f34:	48 8d 95 a8 dd ff ff 	lea    -0x2258(%rbp),%rdx
   17f3b:	48 89 10             	mov    %rdx,(%rax)
   17f3e:	e9 0c 14 00 00       	jmpq   1934f <func_23+0x3e3f>
   17f43:	48 b8 f9 39 19 0d 50 	movabs $0x823696500d1939f9,%rax
   17f4a:	96 36 82 
   17f4d:	48 89 85 a8 df ff ff 	mov    %rax,-0x2058(%rbp)
   17f54:	c7 85 14 de ff ff 06 	movl   $0x6,-0x21ec(%rbp)
   17f5b:	00 00 00 
   17f5e:	c7 85 18 de ff ff 01 	movl   $0x1,-0x21e8(%rbp)
   17f65:	00 00 00 
   17f68:	c7 85 1c de ff ff 4a 	movl   $0xff75394a,-0x21e4(%rbp)
   17f6f:	39 75 ff 
   17f72:	c7 85 20 de ff ff 07 	movl   $0x7,-0x21e0(%rbp)
   17f79:	00 00 00 
   17f7c:	c7 85 24 de ff ff 03 	movl   $0x3,-0x21dc(%rbp)
   17f83:	00 00 00 
   17f86:	c7 85 28 de ff ff f1 	movl   $0xcb64f4f1,-0x21d8(%rbp)
   17f8d:	f4 64 cb 
   17f90:	c7 85 2c de ff ff 00 	movl   $0x0,-0x21d4(%rbp)
   17f97:	00 00 00 
   17f9a:	c7 85 30 de ff ff 00 	movl   $0x0,-0x21d0(%rbp)
   17fa1:	00 00 00 
   17fa4:	c7 85 34 de ff ff 01 	movl   $0x1,-0x21cc(%rbp)
   17fab:	00 00 00 
   17fae:	c7 85 38 de ff ff 92 	movl   $0xa86b4b92,-0x21c8(%rbp)
   17fb5:	4b 6b a8 
   17fb8:	c7 85 3c de ff ff b1 	movl   $0xf56056b1,-0x21c4(%rbp)
   17fbf:	56 60 f5 
   17fc2:	c7 85 40 de ff ff 04 	movl   $0x4,-0x21c0(%rbp)
   17fc9:	00 00 00 
   17fcc:	c7 85 44 de ff ff 38 	movl   $0xe22ba838,-0x21bc(%rbp)
   17fd3:	a8 2b e2 
   17fd6:	c7 85 48 de ff ff ee 	movl   $0x6d3bcfee,-0x21b8(%rbp)
   17fdd:	cf 3b 6d 
   17fe0:	c7 85 4c de ff ff fc 	movl   $0xfffffffc,-0x21b4(%rbp)
   17fe7:	ff ff ff 
   17fea:	c7 85 50 de ff ff 41 	movl   $0x9cb71441,-0x21b0(%rbp)
   17ff1:	14 b7 9c 
   17ff4:	c7 85 54 de ff ff 3e 	movl   $0x78af803e,-0x21ac(%rbp)
   17ffb:	80 af 78 
   17ffe:	c7 85 58 de ff ff ea 	movl   $0xf65a59ea,-0x21a8(%rbp)
   18005:	59 5a f6 
   18008:	c7 85 5c de ff ff ef 	movl   $0x67ee6cef,-0x21a4(%rbp)
   1800f:	6c ee 67 
   18012:	c7 85 60 de ff ff e3 	movl   $0xf3349ce3,-0x21a0(%rbp)
   18019:	9c 34 f3 
   1801c:	c7 85 60 e3 ff ff 00 	movl   $0x0,-0x1ca0(%rbp)
   18023:	00 00 00 
   18026:	c7 85 64 e3 ff ff f6 	movl   $0xfffffff6,-0x1c9c(%rbp)
   1802d:	ff ff ff 
   18030:	c7 85 68 e3 ff ff 00 	movl   $0x0,-0x1c98(%rbp)
   18037:	00 00 00 
   1803a:	c7 85 6c e3 ff ff f6 	movl   $0xfffffff6,-0x1c94(%rbp)
   18041:	ff ff ff 
   18044:	c7 85 70 e3 ff ff 00 	movl   $0x0,-0x1c90(%rbp)
   1804b:	00 00 00 
   1804e:	c7 85 74 e3 ff ff f6 	movl   $0xfffffff6,-0x1c8c(%rbp)
   18055:	ff ff ff 
   18058:	c7 85 78 e3 ff ff 00 	movl   $0x0,-0x1c88(%rbp)
   1805f:	00 00 00 
   18062:	c7 85 7c e3 ff ff f6 	movl   $0xfffffff6,-0x1c84(%rbp)
   18069:	ff ff ff 
   1806c:	c7 85 80 e3 ff ff 00 	movl   $0x0,-0x1c80(%rbp)
   18073:	00 00 00 
   18076:	48 8d 05 bb 32 01 00 	lea    0x132bb(%rip),%rax        # 2b338 <g_380>
   1807d:	48 89 85 b0 df ff ff 	mov    %rax,-0x2050(%rbp)
   18084:	48 8d 85 f0 de ff ff 	lea    -0x2110(%rbp),%rax
   1808b:	48 89 85 b8 df ff ff 	mov    %rax,-0x2048(%rbp)
   18092:	c6 85 b5 dd ff ff 76 	movb   $0x76,-0x224b(%rbp)
   18099:	48 8d 05 88 f9 00 00 	lea    0xf988(%rip),%rax        # 27a28 <g_2844>
   180a0:	48 89 85 c0 df ff ff 	mov    %rax,-0x2040(%rbp)
   180a7:	48 c7 85 c8 df ff ff 	movq   $0x0,-0x2038(%rbp)
   180ae:	00 00 00 00 
   180b2:	48 8d 05 2f 4c 01 00 	lea    0x14c2f(%rip),%rax        # 2cce8 <g_2491>
   180b9:	48 89 85 80 e2 ff ff 	mov    %rax,-0x1d80(%rbp)
   180c0:	48 8d 05 21 4c 01 00 	lea    0x14c21(%rip),%rax        # 2cce8 <g_2491>
   180c7:	48 89 85 88 e2 ff ff 	mov    %rax,-0x1d78(%rbp)
   180ce:	48 8d 05 13 4c 01 00 	lea    0x14c13(%rip),%rax        # 2cce8 <g_2491>
   180d5:	48 89 85 90 e2 ff ff 	mov    %rax,-0x1d70(%rbp)
   180dc:	48 8d 05 05 4c 01 00 	lea    0x14c05(%rip),%rax        # 2cce8 <g_2491>
   180e3:	48 89 85 98 e2 ff ff 	mov    %rax,-0x1d68(%rbp)
   180ea:	48 8d 05 a3 f8 00 00 	lea    0xf8a3(%rip),%rax        # 27994 <g_1638>
   180f1:	48 89 85 d0 df ff ff 	mov    %rax,-0x2030(%rbp)
   180f8:	c7 85 64 de ff ff f1 	movl   $0xee43fdf1,-0x219c(%rbp)
   180ff:	fd 43 ee 
   18102:	48 8d 05 b7 f8 00 00 	lea    0xf8b7(%rip),%rax        # 279c0 <g_2590>
   18109:	48 89 85 d8 df ff ff 	mov    %rax,-0x2028(%rbp)
   18110:	48 8d 05 85 f8 00 00 	lea    0xf885(%rip),%rax        # 2799c <g_1740>
   18117:	48 89 85 10 df ff ff 	mov    %rax,-0x20f0(%rbp)
   1811e:	48 8d 85 10 df ff ff 	lea    -0x20f0(%rbp),%rax
   18125:	48 89 85 e0 df ff ff 	mov    %rax,-0x2020(%rbp)
   1812c:	48 c7 85 18 df ff ff 	movq   $0x0,-0x20e8(%rbp)
   18133:	00 00 00 00 
   18137:	48 8d 85 18 df ff ff 	lea    -0x20e8(%rbp),%rax
   1813e:	48 89 85 e8 df ff ff 	mov    %rax,-0x2018(%rbp)
   18145:	48 c7 05 90 ea 00 00 	movq   $0x0,0xea90(%rip)        # 26be0 <g_238>
   1814c:	00 00 00 00 
   18150:	e9 54 0c 00 00       	jmpq   18da9 <func_23+0x3899>
   18155:	48 c7 85 00 e0 ff ff 	movq   $0x0,-0x2000(%rbp)
   1815c:	00 00 00 00 
   18160:	48 8d 05 39 f6 00 00 	lea    0xf639(%rip),%rax        # 277a0 <g_1294+0x240>
   18167:	48 89 85 08 e0 ff ff 	mov    %rax,-0x1ff8(%rbp)
   1816e:	48 8d 85 c0 f0 ff ff 	lea    -0xf40(%rbp),%rax
   18175:	48 8d 15 a4 1e 01 00 	lea    0x11ea4(%rip),%rdx        # 2a020 <g_4305+0x15f8>
   1817c:	b9 d8 00 00 00       	mov    $0xd8,%ecx
   18181:	48 89 c7             	mov    %rax,%rdi
   18184:	48 89 d6             	mov    %rdx,%rsi
   18187:	f3 48 a5             	rep movsq %ds:(%rsi),%es:(%rdi)
   1818a:	c6 85 b6 dd ff ff f7 	movb   $0xf7,-0x224a(%rbp)
   18191:	66 c7 85 dc dd ff ff 	movw   $0x9bea,-0x2224(%rbp)
   18198:	ea 9b 
   1819a:	48 c7 85 10 e0 ff ff 	movq   $0x0,-0x1ff0(%rbp)
   181a1:	00 00 00 00 
   181a5:	48 8d 05 64 f8 00 00 	lea    0xf864(%rip),%rax        # 27a10 <g_2781+0x30>
   181ac:	48 89 85 18 e0 ff ff 	mov    %rax,-0x1fe8(%rbp)
   181b3:	48 c7 85 20 e0 ff ff 	movq   $0xffffffffffffffff,-0x1fe0(%rbp)
   181ba:	ff ff ff ff 
   181be:	c7 85 78 de ff ff 15 	movl   $0x6a175f15,-0x2188(%rbp)
   181c5:	5f 17 6a 
   181c8:	48 8d 05 49 32 01 00 	lea    0x13249(%rip),%rax        # 2b418 <g_420+0xb8>
   181cf:	48 89 85 28 e0 ff ff 	mov    %rax,-0x1fd8(%rbp)
   181d6:	c6 85 b7 dd ff ff b6 	movb   $0xb6,-0x2249(%rbp)
   181dd:	48 8d 05 a4 de 00 00 	lea    0xdea4(%rip),%rax        # 26088 <g_149>
   181e4:	48 89 85 30 e0 ff ff 	mov    %rax,-0x1fd0(%rbp)
   181eb:	48 8d 05 f6 37 01 00 	lea    0x137f6(%rip),%rax        # 2b9e8 <g_888+0x48>
   181f2:	48 89 85 20 df ff ff 	mov    %rax,-0x20e0(%rbp)
   181f9:	48 8d 85 20 df ff ff 	lea    -0x20e0(%rbp),%rax
   18200:	48 89 85 28 df ff ff 	mov    %rax,-0x20d8(%rbp)
   18207:	48 8d 85 28 df ff ff 	lea    -0x20d8(%rbp),%rax
   1820e:	48 89 85 38 e0 ff ff 	mov    %rax,-0x1fc8(%rbp)
   18215:	48 8d 05 14 f3 00 00 	lea    0xf314(%rip),%rax        # 27530 <g_1246>
   1821c:	48 89 85 40 f8 ff ff 	mov    %rax,-0x7c0(%rbp)
   18223:	48 c7 85 48 f8 ff ff 	movq   $0x0,-0x7b8(%rbp)
   1822a:	00 00 00 00 
   1822e:	48 8d 05 8f f7 00 00 	lea    0xf78f(%rip),%rax        # 279c4 <g_2601>
   18235:	48 89 85 50 f8 ff ff 	mov    %rax,-0x7b0(%rbp)
   1823c:	48 8d 05 8b ea 00 00 	lea    0xea8b(%rip),%rax        # 26cce <g_786>
   18243:	48 89 85 58 f8 ff ff 	mov    %rax,-0x7a8(%rbp)
   1824a:	48 c7 85 60 f8 ff ff 	movq   $0x0,-0x7a0(%rbp)
   18251:	00 00 00 00 
   18255:	48 c7 85 68 f8 ff ff 	movq   $0x0,-0x798(%rbp)
   1825c:	00 00 00 00 
   18260:	48 8d 05 67 ea 00 00 	lea    0xea67(%rip),%rax        # 26cce <g_786>
   18267:	48 89 85 70 f8 ff ff 	mov    %rax,-0x790(%rbp)
   1826e:	48 c7 85 78 f8 ff ff 	movq   $0x0,-0x788(%rbp)
   18275:	00 00 00 00 
   18279:	48 c7 85 80 f8 ff ff 	movq   $0x0,-0x780(%rbp)
   18280:	00 00 00 00 
   18284:	48 8d 05 43 ea 00 00 	lea    0xea43(%rip),%rax        # 26cce <g_786>
   1828b:	48 89 85 88 f8 ff ff 	mov    %rax,-0x778(%rbp)
   18292:	48 8d 05 2b f7 00 00 	lea    0xf72b(%rip),%rax        # 279c4 <g_2601>
   18299:	48 89 85 90 f8 ff ff 	mov    %rax,-0x770(%rbp)
   182a0:	48 8d 05 89 f2 00 00 	lea    0xf289(%rip),%rax        # 27530 <g_1246>
   182a7:	48 89 85 98 f8 ff ff 	mov    %rax,-0x768(%rbp)
   182ae:	48 8d 05 19 ea 00 00 	lea    0xea19(%rip),%rax        # 26cce <g_786>
   182b5:	48 89 85 a0 f8 ff ff 	mov    %rax,-0x760(%rbp)
   182bc:	48 c7 85 a8 f8 ff ff 	movq   $0x0,-0x758(%rbp)
   182c3:	00 00 00 00 
   182c7:	48 c7 85 b0 f8 ff ff 	movq   $0x0,-0x750(%rbp)
   182ce:	00 00 00 00 
   182d2:	48 8d 05 57 f2 00 00 	lea    0xf257(%rip),%rax        # 27530 <g_1246>
   182d9:	48 89 85 b8 f8 ff ff 	mov    %rax,-0x748(%rbp)
   182e0:	48 8d 05 61 e9 00 00 	lea    0xe961(%rip),%rax        # 26c48 <g_556>
   182e7:	48 89 85 c0 f8 ff ff 	mov    %rax,-0x740(%rbp)
   182ee:	48 8d 05 a7 f6 00 00 	lea    0xf6a7(%rip),%rax        # 2799c <g_1740>
   182f5:	48 89 85 c8 f8 ff ff 	mov    %rax,-0x738(%rbp)
   182fc:	48 8d 85 dc dd ff ff 	lea    -0x2224(%rbp),%rax
   18303:	48 89 85 d0 f8 ff ff 	mov    %rax,-0x730(%rbp)
   1830a:	48 8d 05 b3 f6 00 00 	lea    0xf6b3(%rip),%rax        # 279c4 <g_2601>
   18311:	48 89 85 d8 f8 ff ff 	mov    %rax,-0x728(%rbp)
   18318:	48 8d 05 af e9 00 00 	lea    0xe9af(%rip),%rax        # 26cce <g_786>
   1831f:	48 89 85 e0 f8 ff ff 	mov    %rax,-0x720(%rbp)
   18326:	48 8d 05 03 f2 00 00 	lea    0xf203(%rip),%rax        # 27530 <g_1246>
   1832d:	48 89 85 e8 f8 ff ff 	mov    %rax,-0x718(%rbp)
   18334:	48 8d 05 93 e9 00 00 	lea    0xe993(%rip),%rax        # 26cce <g_786>
   1833b:	48 89 85 f0 f8 ff ff 	mov    %rax,-0x710(%rbp)
   18342:	48 8d 05 85 e9 00 00 	lea    0xe985(%rip),%rax        # 26cce <g_786>
   18349:	48 89 85 f8 f8 ff ff 	mov    %rax,-0x708(%rbp)
   18350:	48 8d 05 45 f6 00 00 	lea    0xf645(%rip),%rax        # 2799c <g_1740>
   18357:	48 89 85 00 f9 ff ff 	mov    %rax,-0x700(%rbp)
   1835e:	48 8d 05 69 e9 00 00 	lea    0xe969(%rip),%rax        # 26cce <g_786>
   18365:	48 89 85 08 f9 ff ff 	mov    %rax,-0x6f8(%rbp)
   1836c:	48 8d 05 51 f6 00 00 	lea    0xf651(%rip),%rax        # 279c4 <g_2601>
   18373:	48 89 85 10 f9 ff ff 	mov    %rax,-0x6f0(%rbp)
   1837a:	48 8d 05 c7 e8 00 00 	lea    0xe8c7(%rip),%rax        # 26c48 <g_556>
   18381:	48 89 85 18 f9 ff ff 	mov    %rax,-0x6e8(%rbp)
   18388:	48 c7 85 20 f9 ff ff 	movq   $0x0,-0x6e0(%rbp)
   1838f:	00 00 00 00 
   18393:	48 c7 85 28 f9 ff ff 	movq   $0x0,-0x6d8(%rbp)
   1839a:	00 00 00 00 
   1839e:	48 c7 85 30 f9 ff ff 	movq   $0x0,-0x6d0(%rbp)
   183a5:	00 00 00 00 
   183a9:	48 8d 05 80 f1 00 00 	lea    0xf180(%rip),%rax        # 27530 <g_1246>
   183b0:	48 89 85 38 f9 ff ff 	mov    %rax,-0x6c8(%rbp)
   183b7:	48 8d 05 06 f6 00 00 	lea    0xf606(%rip),%rax        # 279c4 <g_2601>
   183be:	48 89 85 40 f9 ff ff 	mov    %rax,-0x6c0(%rbp)
   183c5:	48 8d 05 02 e9 00 00 	lea    0xe902(%rip),%rax        # 26cce <g_786>
   183cc:	48 89 85 48 f9 ff ff 	mov    %rax,-0x6b8(%rbp)
   183d3:	48 8d 85 dc dd ff ff 	lea    -0x2224(%rbp),%rax
   183da:	48 89 85 50 f9 ff ff 	mov    %rax,-0x6b0(%rbp)
   183e1:	48 8d 05 e6 e8 00 00 	lea    0xe8e6(%rip),%rax        # 26cce <g_786>
   183e8:	48 89 85 58 f9 ff ff 	mov    %rax,-0x6a8(%rbp)
   183ef:	48 c7 85 60 f9 ff ff 	movq   $0x0,-0x6a0(%rbp)
   183f6:	00 00 00 00 
   183fa:	48 c7 85 68 f9 ff ff 	movq   $0x0,-0x698(%rbp)
   18401:	00 00 00 00 
   18405:	48 8d 05 24 f1 00 00 	lea    0xf124(%rip),%rax        # 27530 <g_1246>
   1840c:	48 89 85 70 f9 ff ff 	mov    %rax,-0x690(%rbp)
   18413:	48 8d 05 16 f1 00 00 	lea    0xf116(%rip),%rax        # 27530 <g_1246>
   1841a:	48 89 85 78 f9 ff ff 	mov    %rax,-0x688(%rbp)
   18421:	48 8d 05 a6 e8 00 00 	lea    0xe8a6(%rip),%rax        # 26cce <g_786>
   18428:	48 89 85 80 f9 ff ff 	mov    %rax,-0x680(%rbp)
   1842f:	48 8d 05 8e f5 00 00 	lea    0xf58e(%rip),%rax        # 279c4 <g_2601>
   18436:	48 89 85 88 f9 ff ff 	mov    %rax,-0x678(%rbp)
   1843d:	48 8d 05 8a e8 00 00 	lea    0xe88a(%rip),%rax        # 26cce <g_786>
   18444:	48 89 85 90 f9 ff ff 	mov    %rax,-0x670(%rbp)
   1844b:	48 c7 85 98 f9 ff ff 	movq   $0x0,-0x668(%rbp)
   18452:	00 00 00 00 
   18456:	48 8d 85 dc dd ff ff 	lea    -0x2224(%rbp),%rax
   1845d:	48 89 85 a0 f9 ff ff 	mov    %rax,-0x660(%rbp)
   18464:	48 8d 05 dd e7 00 00 	lea    0xe7dd(%rip),%rax        # 26c48 <g_556>
   1846b:	48 89 85 a8 f9 ff ff 	mov    %rax,-0x658(%rbp)
   18472:	48 8d 85 dc dd ff ff 	lea    -0x2224(%rbp),%rax
   18479:	48 89 85 b0 f9 ff ff 	mov    %rax,-0x650(%rbp)
   18480:	48 c7 85 b8 f9 ff ff 	movq   $0x0,-0x648(%rbp)
   18487:	00 00 00 00 
   1848b:	48 8d 05 9e f0 00 00 	lea    0xf09e(%rip),%rax        # 27530 <g_1246>
   18492:	48 89 85 c0 f9 ff ff 	mov    %rax,-0x640(%rbp)
   18499:	48 8d 05 90 f0 00 00 	lea    0xf090(%rip),%rax        # 27530 <g_1246>
   184a0:	48 89 85 c8 f9 ff ff 	mov    %rax,-0x638(%rbp)
   184a7:	48 8d 05 1e e8 00 00 	lea    0xe81e(%rip),%rax        # 26ccc <g_692>
   184ae:	48 89 85 d0 f9 ff ff 	mov    %rax,-0x630(%rbp)
   184b5:	48 8d 05 08 f5 00 00 	lea    0xf508(%rip),%rax        # 279c4 <g_2601>
   184bc:	48 89 85 d8 f9 ff ff 	mov    %rax,-0x628(%rbp)
   184c3:	48 c7 85 e0 f9 ff ff 	movq   $0x0,-0x620(%rbp)
   184ca:	00 00 00 00 
   184ce:	48 8d 05 ef f4 00 00 	lea    0xf4ef(%rip),%rax        # 279c4 <g_2601>
   184d5:	48 89 85 e8 f9 ff ff 	mov    %rax,-0x618(%rbp)
   184dc:	48 8d 05 4d f0 00 00 	lea    0xf04d(%rip),%rax        # 27530 <g_1246>
   184e3:	48 89 85 f0 f9 ff ff 	mov    %rax,-0x610(%rbp)
   184ea:	48 8d 05 dd e7 00 00 	lea    0xe7dd(%rip),%rax        # 26cce <g_786>
   184f1:	48 89 85 f8 f9 ff ff 	mov    %rax,-0x608(%rbp)
   184f8:	48 8d 05 31 f0 00 00 	lea    0xf031(%rip),%rax        # 27530 <g_1246>
   184ff:	48 89 85 00 fa ff ff 	mov    %rax,-0x600(%rbp)
   18506:	48 8d 85 dc dd ff ff 	lea    -0x2224(%rbp),%rax
   1850d:	48 89 85 08 fa ff ff 	mov    %rax,-0x5f8(%rbp)
   18514:	48 8d 05 b3 e7 00 00 	lea    0xe7b3(%rip),%rax        # 26cce <g_786>
   1851b:	48 89 85 10 fa ff ff 	mov    %rax,-0x5f0(%rbp)
   18522:	48 8d 05 a3 e7 00 00 	lea    0xe7a3(%rip),%rax        # 26ccc <g_692>
   18529:	48 89 85 18 fa ff ff 	mov    %rax,-0x5e8(%rbp)
   18530:	48 8d 05 11 e7 00 00 	lea    0xe711(%rip),%rax        # 26c48 <g_556>
   18537:	48 89 85 20 fa ff ff 	mov    %rax,-0x5e0(%rbp)
   1853e:	48 8d 05 7f f4 00 00 	lea    0xf47f(%rip),%rax        # 279c4 <g_2601>
   18545:	48 89 85 28 fa ff ff 	mov    %rax,-0x5d8(%rbp)
   1854c:	48 8d 05 7b e7 00 00 	lea    0xe77b(%rip),%rax        # 26cce <g_786>
   18553:	48 89 85 30 fa ff ff 	mov    %rax,-0x5d0(%rbp)
   1855a:	48 8d 05 3b f4 00 00 	lea    0xf43b(%rip),%rax        # 2799c <g_1740>
   18561:	48 89 85 38 fa ff ff 	mov    %rax,-0x5c8(%rbp)
   18568:	48 8d 05 d9 e6 00 00 	lea    0xe6d9(%rip),%rax        # 26c48 <g_556>
   1856f:	48 89 85 40 fa ff ff 	mov    %rax,-0x5c0(%rbp)
   18576:	48 8d 05 47 f4 00 00 	lea    0xf447(%rip),%rax        # 279c4 <g_2601>
   1857d:	48 89 85 48 fa ff ff 	mov    %rax,-0x5b8(%rbp)
   18584:	48 8d 05 11 f4 00 00 	lea    0xf411(%rip),%rax        # 2799c <g_1740>
   1858b:	48 89 85 50 fa ff ff 	mov    %rax,-0x5b0(%rbp)
   18592:	48 c7 85 58 fa ff ff 	movq   $0x0,-0x5a8(%rbp)
   18599:	00 00 00 00 
   1859d:	48 8d 05 8c ef 00 00 	lea    0xef8c(%rip),%rax        # 27530 <g_1246>
   185a4:	48 89 85 60 fa ff ff 	mov    %rax,-0x5a0(%rbp)
   185ab:	48 8d 05 ea f3 00 00 	lea    0xf3ea(%rip),%rax        # 2799c <g_1740>
   185b2:	48 89 85 68 fa ff ff 	mov    %rax,-0x598(%rbp)
   185b9:	48 8d 05 04 f4 00 00 	lea    0xf404(%rip),%rax        # 279c4 <g_2601>
   185c0:	48 89 85 70 fa ff ff 	mov    %rax,-0x590(%rbp)
   185c7:	48 c7 85 78 fa ff ff 	movq   $0x0,-0x588(%rbp)
   185ce:	00 00 00 00 
   185d2:	48 8d 05 f5 e6 00 00 	lea    0xe6f5(%rip),%rax        # 26cce <g_786>
   185d9:	48 89 85 80 fa ff ff 	mov    %rax,-0x580(%rbp)
   185e0:	48 c7 85 88 fa ff ff 	movq   $0x0,-0x578(%rbp)
   185e7:	00 00 00 00 
   185eb:	48 c7 85 90 fa ff ff 	movq   $0x0,-0x570(%rbp)
   185f2:	00 00 00 00 
   185f6:	48 8d 05 cf e6 00 00 	lea    0xe6cf(%rip),%rax        # 26ccc <g_692>
   185fd:	48 89 85 98 fa ff ff 	mov    %rax,-0x568(%rbp)
   18604:	48 c7 85 a0 fa ff ff 	movq   $0x0,-0x560(%rbp)
   1860b:	00 00 00 00 
   1860f:	48 8d 05 1a ef 00 00 	lea    0xef1a(%rip),%rax        # 27530 <g_1246>
   18616:	48 89 85 a8 fa ff ff 	mov    %rax,-0x558(%rbp)
   1861d:	48 8d 05 a8 e6 00 00 	lea    0xe6a8(%rip),%rax        # 26ccc <g_692>
   18624:	48 89 85 b0 fa ff ff 	mov    %rax,-0x550(%rbp)
   1862b:	48 c7 85 b8 fa ff ff 	movq   $0x0,-0x548(%rbp)
   18632:	00 00 00 00 
   18636:	48 8d 05 87 f3 00 00 	lea    0xf387(%rip),%rax        # 279c4 <g_2601>
   1863d:	48 89 85 c0 fa ff ff 	mov    %rax,-0x540(%rbp)
   18644:	48 8d 05 79 f3 00 00 	lea    0xf379(%rip),%rax        # 279c4 <g_2601>
   1864b:	48 89 85 c8 fa ff ff 	mov    %rax,-0x538(%rbp)
   18652:	48 c7 85 d0 fa ff ff 	movq   $0x0,-0x530(%rbp)
   18659:	00 00 00 00 
   1865d:	48 8d 05 6a e6 00 00 	lea    0xe66a(%rip),%rax        # 26cce <g_786>
   18664:	48 89 85 d8 fa ff ff 	mov    %rax,-0x528(%rbp)
   1866b:	48 8d 05 5c e6 00 00 	lea    0xe65c(%rip),%rax        # 26cce <g_786>
   18672:	48 89 85 e0 fa ff ff 	mov    %rax,-0x520(%rbp)
   18679:	48 8d 05 b0 ee 00 00 	lea    0xeeb0(%rip),%rax        # 27530 <g_1246>
   18680:	48 89 85 e8 fa ff ff 	mov    %rax,-0x518(%rbp)
   18687:	48 8d 05 3e e6 00 00 	lea    0xe63e(%rip),%rax        # 26ccc <g_692>
   1868e:	48 89 85 f0 fa ff ff 	mov    %rax,-0x510(%rbp)
   18695:	48 8d 05 94 ee 00 00 	lea    0xee94(%rip),%rax        # 27530 <g_1246>
   1869c:	48 89 85 f8 fa ff ff 	mov    %rax,-0x508(%rbp)
   186a3:	48 8d 05 22 e6 00 00 	lea    0xe622(%rip),%rax        # 26ccc <g_692>
   186aa:	48 89 85 00 fb ff ff 	mov    %rax,-0x500(%rbp)
   186b1:	48 8d 05 78 ee 00 00 	lea    0xee78(%rip),%rax        # 27530 <g_1246>
   186b8:	48 89 85 08 fb ff ff 	mov    %rax,-0x4f8(%rbp)
   186bf:	48 c7 85 10 fb ff ff 	movq   $0x0,-0x4f0(%rbp)
   186c6:	00 00 00 00 
   186ca:	48 8d 85 dc dd ff ff 	lea    -0x2224(%rbp),%rax
   186d1:	48 89 85 18 fb ff ff 	mov    %rax,-0x4e8(%rbp)
   186d8:	48 8d 05 e5 f2 00 00 	lea    0xf2e5(%rip),%rax        # 279c4 <g_2601>
   186df:	48 89 85 20 fb ff ff 	mov    %rax,-0x4e0(%rbp)
   186e6:	48 8d 05 df e5 00 00 	lea    0xe5df(%rip),%rax        # 26ccc <g_692>
   186ed:	48 89 85 28 fb ff ff 	mov    %rax,-0x4d8(%rbp)
   186f4:	48 8d 05 4d e5 00 00 	lea    0xe54d(%rip),%rax        # 26c48 <g_556>
   186fb:	48 89 85 30 fb ff ff 	mov    %rax,-0x4d0(%rbp)
   18702:	48 8d 05 c3 e5 00 00 	lea    0xe5c3(%rip),%rax        # 26ccc <g_692>
   18709:	48 89 85 38 fb ff ff 	mov    %rax,-0x4c8(%rbp)
   18710:	48 c7 85 40 fb ff ff 	movq   $0x0,-0x4c0(%rbp)
   18717:	00 00 00 00 
   1871b:	48 8d 05 ac e5 00 00 	lea    0xe5ac(%rip),%rax        # 26cce <g_786>
   18722:	48 89 85 48 fb ff ff 	mov    %rax,-0x4b8(%rbp)
   18729:	48 c7 85 50 fb ff ff 	movq   $0x0,-0x4b0(%rbp)
   18730:	00 00 00 00 
   18734:	48 8d 05 f5 ed 00 00 	lea    0xedf5(%rip),%rax        # 27530 <g_1246>
   1873b:	48 89 85 58 fb ff ff 	mov    %rax,-0x4a8(%rbp)
   18742:	48 8d 05 83 e5 00 00 	lea    0xe583(%rip),%rax        # 26ccc <g_692>
   18749:	48 89 85 60 fb ff ff 	mov    %rax,-0x4a0(%rbp)
   18750:	48 8d 85 dc dd ff ff 	lea    -0x2224(%rbp),%rax
   18757:	48 89 85 68 fb ff ff 	mov    %rax,-0x498(%rbp)
   1875e:	48 8d 05 37 f2 00 00 	lea    0xf237(%rip),%rax        # 2799c <g_1740>
   18765:	48 89 85 70 fb ff ff 	mov    %rax,-0x490(%rbp)
   1876c:	48 8d 05 d5 e4 00 00 	lea    0xe4d5(%rip),%rax        # 26c48 <g_556>
   18773:	48 89 85 78 fb ff ff 	mov    %rax,-0x488(%rbp)
   1877a:	48 8d 05 43 f2 00 00 	lea    0xf243(%rip),%rax        # 279c4 <g_2601>
   18781:	48 89 85 80 fb ff ff 	mov    %rax,-0x480(%rbp)
   18788:	48 c7 85 88 fb ff ff 	movq   $0x0,-0x478(%rbp)
   1878f:	00 00 00 00 
   18793:	48 8d 85 dc dd ff ff 	lea    -0x2224(%rbp),%rax
   1879a:	48 89 85 90 fb ff ff 	mov    %rax,-0x470(%rbp)
   187a1:	48 8d 05 88 ed 00 00 	lea    0xed88(%rip),%rax        # 27530 <g_1246>
   187a8:	48 89 85 98 fb ff ff 	mov    %rax,-0x468(%rbp)
   187af:	48 8d 05 e6 f1 00 00 	lea    0xf1e6(%rip),%rax        # 2799c <g_1740>
   187b6:	48 89 85 a0 fb ff ff 	mov    %rax,-0x460(%rbp)
   187bd:	48 8d 05 6c ed 00 00 	lea    0xed6c(%rip),%rax        # 27530 <g_1246>
   187c4:	48 89 85 a8 fb ff ff 	mov    %rax,-0x458(%rbp)
   187cb:	48 8d 05 fc e4 00 00 	lea    0xe4fc(%rip),%rax        # 26cce <g_786>
   187d2:	48 89 85 b0 fb ff ff 	mov    %rax,-0x450(%rbp)
   187d9:	48 8d 05 50 ed 00 00 	lea    0xed50(%rip),%rax        # 27530 <g_1246>
   187e0:	48 89 85 b8 fb ff ff 	mov    %rax,-0x448(%rbp)
   187e7:	48 c7 85 c0 fb ff ff 	movq   $0x0,-0x440(%rbp)
   187ee:	00 00 00 00 
   187f2:	48 8d 05 cb f1 00 00 	lea    0xf1cb(%rip),%rax        # 279c4 <g_2601>
   187f9:	48 89 85 c8 fb ff ff 	mov    %rax,-0x438(%rbp)
   18800:	48 c7 85 d0 fb ff ff 	movq   $0x0,-0x430(%rbp)
   18807:	00 00 00 00 
   1880b:	48 8d 05 b2 f1 00 00 	lea    0xf1b2(%rip),%rax        # 279c4 <g_2601>
   18812:	48 89 85 d8 fb ff ff 	mov    %rax,-0x428(%rbp)
   18819:	48 c7 85 e0 fb ff ff 	movq   $0x0,-0x420(%rbp)
   18820:	00 00 00 00 
   18824:	48 8d 05 a1 e4 00 00 	lea    0xe4a1(%rip),%rax        # 26ccc <g_692>
   1882b:	48 89 85 e8 fb ff ff 	mov    %rax,-0x418(%rbp)
   18832:	48 8d 85 dc dd ff ff 	lea    -0x2224(%rbp),%rax
   18839:	48 89 85 f0 fb ff ff 	mov    %rax,-0x410(%rbp)
   18840:	48 8d 05 7d f1 00 00 	lea    0xf17d(%rip),%rax        # 279c4 <g_2601>
   18847:	48 89 85 f8 fb ff ff 	mov    %rax,-0x408(%rbp)
   1884e:	48 c7 85 00 fc ff ff 	movq   $0x0,-0x400(%rbp)
   18855:	00 00 00 00 
   18859:	48 c7 85 08 fc ff ff 	movq   $0x0,-0x3f8(%rbp)
   18860:	00 00 00 00 
   18864:	48 8d 05 63 e4 00 00 	lea    0xe463(%rip),%rax        # 26cce <g_786>
   1886b:	48 89 85 10 fc ff ff 	mov    %rax,-0x3f0(%rbp)
   18872:	48 8d 05 b7 ec 00 00 	lea    0xecb7(%rip),%rax        # 27530 <g_1246>
   18879:	48 89 85 18 fc ff ff 	mov    %rax,-0x3e8(%rbp)
   18880:	48 8d 85 dc dd ff ff 	lea    -0x2224(%rbp),%rax
   18887:	48 89 85 20 fc ff ff 	mov    %rax,-0x3e0(%rbp)
   1888e:	48 8d 05 39 e4 00 00 	lea    0xe439(%rip),%rax        # 26cce <g_786>
   18895:	48 89 85 28 fc ff ff 	mov    %rax,-0x3d8(%rbp)
   1889c:	48 8d 05 2b e4 00 00 	lea    0xe42b(%rip),%rax        # 26cce <g_786>
   188a3:	48 89 85 30 fc ff ff 	mov    %rax,-0x3d0(%rbp)
   188aa:	48 8d 05 1b e4 00 00 	lea    0xe41b(%rip),%rax        # 26ccc <g_692>
   188b1:	48 89 85 38 fc ff ff 	mov    %rax,-0x3c8(%rbp)
   188b8:	48 8d 05 dd f0 00 00 	lea    0xf0dd(%rip),%rax        # 2799c <g_1740>
   188bf:	48 89 85 40 fc ff ff 	mov    %rax,-0x3c0(%rbp)
   188c6:	48 8d 05 f7 f0 00 00 	lea    0xf0f7(%rip),%rax        # 279c4 <g_2601>
   188cd:	48 89 85 48 fc ff ff 	mov    %rax,-0x3b8(%rbp)
   188d4:	48 8d 05 c1 f0 00 00 	lea    0xf0c1(%rip),%rax        # 2799c <g_1740>
   188db:	48 89 85 50 fc ff ff 	mov    %rax,-0x3b0(%rbp)
   188e2:	48 c7 85 58 fc ff ff 	movq   $0x0,-0x3a8(%rbp)
   188e9:	00 00 00 00 
   188ed:	48 8d 05 d8 e3 00 00 	lea    0xe3d8(%rip),%rax        # 26ccc <g_692>
   188f4:	48 89 85 60 fc ff ff 	mov    %rax,-0x3a0(%rbp)
   188fb:	48 8d 05 46 e3 00 00 	lea    0xe346(%rip),%rax        # 26c48 <g_556>
   18902:	48 89 85 68 fc ff ff 	mov    %rax,-0x398(%rbp)
   18909:	48 8d 05 20 ec 00 00 	lea    0xec20(%rip),%rax        # 27530 <g_1246>
   18910:	48 89 85 70 fc ff ff 	mov    %rax,-0x390(%rbp)
   18917:	48 8d 05 ae e3 00 00 	lea    0xe3ae(%rip),%rax        # 26ccc <g_692>
   1891e:	48 89 85 78 fc ff ff 	mov    %rax,-0x388(%rbp)
   18925:	48 8d 05 98 f0 00 00 	lea    0xf098(%rip),%rax        # 279c4 <g_2601>
   1892c:	48 89 85 80 fc ff ff 	mov    %rax,-0x380(%rbp)
   18933:	48 c7 85 88 fc ff ff 	movq   $0x0,-0x378(%rbp)
   1893a:	00 00 00 00 
   1893e:	48 8d 05 89 e3 00 00 	lea    0xe389(%rip),%rax        # 26cce <g_786>
   18945:	48 89 85 90 fc ff ff 	mov    %rax,-0x370(%rbp)
   1894c:	48 8d 05 71 f0 00 00 	lea    0xf071(%rip),%rax        # 279c4 <g_2601>
   18953:	48 89 85 98 fc ff ff 	mov    %rax,-0x368(%rbp)
   1895a:	48 c7 85 a0 fc ff ff 	movq   $0x0,-0x360(%rbp)
   18961:	00 00 00 00 
   18965:	48 8d 05 30 f0 00 00 	lea    0xf030(%rip),%rax        # 2799c <g_1740>
   1896c:	48 89 85 a8 fc ff ff 	mov    %rax,-0x358(%rbp)
   18973:	48 8d 05 ce e2 00 00 	lea    0xe2ce(%rip),%rax        # 26c48 <g_556>
   1897a:	48 89 85 b0 fc ff ff 	mov    %rax,-0x350(%rbp)
   18981:	48 8d 05 3c f0 00 00 	lea    0xf03c(%rip),%rax        # 279c4 <g_2601>
   18988:	48 89 85 b8 fc ff ff 	mov    %rax,-0x348(%rbp)
   1898f:	48 8d 05 06 f0 00 00 	lea    0xf006(%rip),%rax        # 2799c <g_1740>
   18996:	48 89 85 c0 fc ff ff 	mov    %rax,-0x340(%rbp)
   1899d:	48 8d 05 f8 ef 00 00 	lea    0xeff8(%rip),%rax        # 2799c <g_1740>
   189a4:	48 89 85 c8 fc ff ff 	mov    %rax,-0x338(%rbp)
   189ab:	48 c7 85 d0 fc ff ff 	movq   $0x0,-0x330(%rbp)
   189b2:	00 00 00 00 
   189b6:	48 8d 05 df ef 00 00 	lea    0xefdf(%rip),%rax        # 2799c <g_1740>
   189bd:	48 89 85 d8 fc ff ff 	mov    %rax,-0x328(%rbp)
   189c4:	48 8d 05 03 e3 00 00 	lea    0xe303(%rip),%rax        # 26cce <g_786>
   189cb:	48 89 85 e0 fc ff ff 	mov    %rax,-0x320(%rbp)
   189d2:	48 c7 85 e8 fc ff ff 	movq   $0x0,-0x318(%rbp)
   189d9:	00 00 00 00 
   189dd:	48 8d 05 e8 e2 00 00 	lea    0xe2e8(%rip),%rax        # 26ccc <g_692>
   189e4:	48 89 85 f0 fc ff ff 	mov    %rax,-0x310(%rbp)
   189eb:	48 8d 05 aa ef 00 00 	lea    0xefaa(%rip),%rax        # 2799c <g_1740>
   189f2:	48 89 85 f8 fc ff ff 	mov    %rax,-0x308(%rbp)
   189f9:	48 c7 85 00 fd ff ff 	movq   $0x0,-0x300(%rbp)
   18a00:	00 00 00 00 
   18a04:	48 c7 85 08 fd ff ff 	movq   $0x0,-0x2f8(%rbp)
   18a0b:	00 00 00 00 
   18a0f:	48 8d 05 b8 e2 00 00 	lea    0xe2b8(%rip),%rax        # 26cce <g_786>
   18a16:	48 89 85 10 fd ff ff 	mov    %rax,-0x2f0(%rbp)
   18a1d:	48 8d 85 dc dd ff ff 	lea    -0x2224(%rbp),%rax
   18a24:	48 89 85 18 fd ff ff 	mov    %rax,-0x2e8(%rbp)
   18a2b:	48 c7 85 20 fd ff ff 	movq   $0x0,-0x2e0(%rbp)
   18a32:	00 00 00 00 
   18a36:	48 8d 05 f3 ea 00 00 	lea    0xeaf3(%rip),%rax        # 27530 <g_1246>
   18a3d:	48 89 85 28 fd ff ff 	mov    %rax,-0x2d8(%rbp)
   18a44:	48 8d 05 79 ef 00 00 	lea    0xef79(%rip),%rax        # 279c4 <g_2601>
   18a4b:	48 89 85 30 fd ff ff 	mov    %rax,-0x2d0(%rbp)
   18a52:	48 8d 85 dc dd ff ff 	lea    -0x2224(%rbp),%rax
   18a59:	48 89 85 38 fd ff ff 	mov    %rax,-0x2c8(%rbp)
   18a60:	48 8d 85 dc dd ff ff 	lea    -0x2224(%rbp),%rax
   18a67:	48 89 85 40 fd ff ff 	mov    %rax,-0x2c0(%rbp)
   18a6e:	48 8d 05 bb ea 00 00 	lea    0xeabb(%rip),%rax        # 27530 <g_1246>
   18a75:	48 89 85 48 fd ff ff 	mov    %rax,-0x2b8(%rbp)
   18a7c:	48 8d 05 ad ea 00 00 	lea    0xeaad(%rip),%rax        # 27530 <g_1246>
   18a83:	48 89 85 50 fd ff ff 	mov    %rax,-0x2b0(%rbp)
   18a8a:	48 8d 05 0b ef 00 00 	lea    0xef0b(%rip),%rax        # 2799c <g_1740>
   18a91:	48 89 85 58 fd ff ff 	mov    %rax,-0x2a8(%rbp)
   18a98:	48 8d 05 25 ef 00 00 	lea    0xef25(%rip),%rax        # 279c4 <g_2601>
   18a9f:	48 89 85 60 fd ff ff 	mov    %rax,-0x2a0(%rbp)
   18aa6:	48 8d 85 dc dd ff ff 	lea    -0x2224(%rbp),%rax
   18aad:	48 89 85 68 fd ff ff 	mov    %rax,-0x298(%rbp)
   18ab4:	48 c7 85 70 fd ff ff 	movq   $0x0,-0x290(%rbp)
   18abb:	00 00 00 00 
   18abf:	48 8d 85 dc dd ff ff 	lea    -0x2224(%rbp),%rax
   18ac6:	48 89 85 78 fd ff ff 	mov    %rax,-0x288(%rbp)
   18acd:	48 8d 05 fa e1 00 00 	lea    0xe1fa(%rip),%rax        # 26cce <g_786>
   18ad4:	48 89 85 80 fd ff ff 	mov    %rax,-0x280(%rbp)
   18adb:	48 8d 05 ba ee 00 00 	lea    0xeeba(%rip),%rax        # 2799c <g_1740>
   18ae2:	48 89 85 88 fd ff ff 	mov    %rax,-0x278(%rbp)
   18ae9:	48 8d 05 40 ea 00 00 	lea    0xea40(%rip),%rax        # 27530 <g_1246>
   18af0:	48 89 85 90 fd ff ff 	mov    %rax,-0x270(%rbp)
   18af7:	48 c7 85 98 fd ff ff 	movq   $0x0,-0x268(%rbp)
   18afe:	00 00 00 00 
   18b02:	48 8d 85 dc dd ff ff 	lea    -0x2224(%rbp),%rax
   18b09:	48 89 85 a0 fd ff ff 	mov    %rax,-0x260(%rbp)
   18b10:	48 8d 85 dc dd ff ff 	lea    -0x2224(%rbp),%rax
   18b17:	48 89 85 a8 fd ff ff 	mov    %rax,-0x258(%rbp)
   18b1e:	48 8d 05 a9 e1 00 00 	lea    0xe1a9(%rip),%rax        # 26cce <g_786>
   18b25:	48 89 85 b0 fd ff ff 	mov    %rax,-0x250(%rbp)
   18b2c:	48 8d 05 99 e1 00 00 	lea    0xe199(%rip),%rax        # 26ccc <g_692>
   18b33:	48 89 85 b8 fd ff ff 	mov    %rax,-0x248(%rbp)
   18b3a:	48 8d 05 83 ee 00 00 	lea    0xee83(%rip),%rax        # 279c4 <g_2601>
   18b41:	48 89 85 c0 fd ff ff 	mov    %rax,-0x240(%rbp)
   18b48:	48 8d 05 4d ee 00 00 	lea    0xee4d(%rip),%rax        # 2799c <g_1740>
   18b4f:	48 89 85 c8 fd ff ff 	mov    %rax,-0x238(%rbp)
   18b56:	48 8d 85 dc dd ff ff 	lea    -0x2224(%rbp),%rax
   18b5d:	48 89 85 d0 fd ff ff 	mov    %rax,-0x230(%rbp)
   18b64:	48 8d 05 c5 e9 00 00 	lea    0xe9c5(%rip),%rax        # 27530 <g_1246>
   18b6b:	48 89 85 d8 fd ff ff 	mov    %rax,-0x228(%rbp)
   18b72:	48 8d 05 cf e0 00 00 	lea    0xe0cf(%rip),%rax        # 26c48 <g_556>
   18b79:	48 89 85 e0 fd ff ff 	mov    %rax,-0x220(%rbp)
   18b80:	48 c7 85 e8 fd ff ff 	movq   $0x0,-0x218(%rbp)
   18b87:	00 00 00 00 
   18b8b:	48 8d 05 32 ee 00 00 	lea    0xee32(%rip),%rax        # 279c4 <g_2601>
   18b92:	48 89 85 f0 fd ff ff 	mov    %rax,-0x210(%rbp)
   18b99:	48 8d 05 24 ee 00 00 	lea    0xee24(%rip),%rax        # 279c4 <g_2601>
   18ba0:	48 89 85 f8 fd ff ff 	mov    %rax,-0x208(%rbp)
   18ba7:	48 8d 05 ee ed 00 00 	lea    0xedee(%rip),%rax        # 2799c <g_1740>
   18bae:	48 89 85 00 fe ff ff 	mov    %rax,-0x200(%rbp)
   18bb5:	48 8d 85 dc dd ff ff 	lea    -0x2224(%rbp),%rax
   18bbc:	48 89 85 08 fe ff ff 	mov    %rax,-0x1f8(%rbp)
   18bc3:	48 c7 85 10 fe ff ff 	movq   $0x0,-0x1f0(%rbp)
   18bca:	00 00 00 00 
   18bce:	48 8d 05 f9 e0 00 00 	lea    0xe0f9(%rip),%rax        # 26cce <g_786>
   18bd5:	48 89 85 18 fe ff ff 	mov    %rax,-0x1e8(%rbp)
   18bdc:	48 c7 85 20 fe ff ff 	movq   $0x0,-0x1e0(%rbp)
   18be3:	00 00 00 00 
   18be7:	48 8d 05 42 e9 00 00 	lea    0xe942(%rip),%rax        # 27530 <g_1246>
   18bee:	48 89 85 28 fe ff ff 	mov    %rax,-0x1d8(%rbp)
   18bf5:	48 c7 85 30 fe ff ff 	movq   $0x0,-0x1d0(%rbp)
   18bfc:	00 00 00 00 
   18c00:	48 c7 85 38 fe ff ff 	movq   $0x0,-0x1c8(%rbp)
   18c07:	00 00 00 00 
   18c0b:	48 c7 85 40 fe ff ff 	movq   $0x0,-0x1c0(%rbp)
   18c12:	00 00 00 00 
   18c16:	48 c7 85 48 fe ff ff 	movq   $0x0,-0x1b8(%rbp)
   18c1d:	00 00 00 00 
   18c21:	48 8d 05 20 e0 00 00 	lea    0xe020(%rip),%rax        # 26c48 <g_556>
   18c28:	48 89 85 50 fe ff ff 	mov    %rax,-0x1b0(%rbp)
   18c2f:	48 8d 05 98 e0 00 00 	lea    0xe098(%rip),%rax        # 26cce <g_786>
   18c36:	48 89 85 58 fe ff ff 	mov    %rax,-0x1a8(%rbp)
   18c3d:	48 8d 05 8a e0 00 00 	lea    0xe08a(%rip),%rax        # 26cce <g_786>
   18c44:	48 89 85 60 fe ff ff 	mov    %rax,-0x1a0(%rbp)
   18c4b:	48 8d 05 72 ed 00 00 	lea    0xed72(%rip),%rax        # 279c4 <g_2601>
   18c52:	48 89 85 68 fe ff ff 	mov    %rax,-0x198(%rbp)
   18c59:	48 8d 05 6e e0 00 00 	lea    0xe06e(%rip),%rax        # 26cce <g_786>
   18c60:	48 89 85 70 fe ff ff 	mov    %rax,-0x190(%rbp)
   18c67:	48 8d 05 60 e0 00 00 	lea    0xe060(%rip),%rax        # 26cce <g_786>
   18c6e:	48 89 85 78 fe ff ff 	mov    %rax,-0x188(%rbp)
   18c75:	48 8d 05 48 ed 00 00 	lea    0xed48(%rip),%rax        # 279c4 <g_2601>
   18c7c:	48 89 85 80 fe ff ff 	mov    %rax,-0x180(%rbp)
   18c83:	48 8d 05 42 e0 00 00 	lea    0xe042(%rip),%rax        # 26ccc <g_692>
   18c8a:	48 89 85 88 fe ff ff 	mov    %rax,-0x178(%rbp)
   18c91:	48 8d 05 04 ed 00 00 	lea    0xed04(%rip),%rax        # 2799c <g_1740>
   18c98:	48 89 85 90 fe ff ff 	mov    %rax,-0x170(%rbp)
   18c9f:	48 c7 85 98 fe ff ff 	movq   $0x0,-0x168(%rbp)
   18ca6:	00 00 00 00 
   18caa:	48 8d 05 1b e0 00 00 	lea    0xe01b(%rip),%rax        # 26ccc <g_692>
   18cb1:	48 89 85 a0 fe ff ff 	mov    %rax,-0x160(%rbp)
   18cb8:	48 8d 05 0d e0 00 00 	lea    0xe00d(%rip),%rax        # 26ccc <g_692>
   18cbf:	48 89 85 a8 fe ff ff 	mov    %rax,-0x158(%rbp)
   18cc6:	48 8d 05 01 e0 00 00 	lea    0xe001(%rip),%rax        # 26cce <g_786>
   18ccd:	48 89 85 b0 fe ff ff 	mov    %rax,-0x150(%rbp)
   18cd4:	48 8d 05 f3 df 00 00 	lea    0xdff3(%rip),%rax        # 26cce <g_786>
   18cdb:	48 89 85 b8 fe ff ff 	mov    %rax,-0x148(%rbp)
   18ce2:	48 8d 05 5f df 00 00 	lea    0xdf5f(%rip),%rax        # 26c48 <g_556>
   18ce9:	48 89 85 c0 fe ff ff 	mov    %rax,-0x140(%rbp)
   18cf0:	48 8d 05 a5 ec 00 00 	lea    0xeca5(%rip),%rax        # 2799c <g_1740>
   18cf7:	48 89 85 c8 fe ff ff 	mov    %rax,-0x138(%rbp)
   18cfe:	48 8d 05 c9 df 00 00 	lea    0xdfc9(%rip),%rax        # 26cce <g_786>
   18d05:	48 89 85 d0 fe ff ff 	mov    %rax,-0x130(%rbp)
   18d0c:	48 c7 85 d8 fe ff ff 	movq   $0x0,-0x128(%rbp)
   18d13:	00 00 00 00 
   18d17:	48 8d 85 dc dd ff ff 	lea    -0x2224(%rbp),%rax
   18d1e:	48 89 85 e0 fe ff ff 	mov    %rax,-0x120(%rbp)
   18d25:	48 c7 85 e8 fe ff ff 	movq   $0x0,-0x118(%rbp)
   18d2c:	00 00 00 00 
   18d30:	48 8d 05 8d ec 00 00 	lea    0xec8d(%rip),%rax        # 279c4 <g_2601>
   18d37:	48 89 85 f0 fe ff ff 	mov    %rax,-0x110(%rbp)
   18d3e:	48 8d 05 7f ec 00 00 	lea    0xec7f(%rip),%rax        # 279c4 <g_2601>
   18d45:	48 89 85 f8 fe ff ff 	mov    %rax,-0x108(%rbp)
   18d4c:	8b 05 16 64 01 00    	mov    0x16416(%rip),%eax        # 2f168 <g_2728>
   18d52:	83 c0 01             	add    $0x1,%eax
   18d55:	89 05 0d 64 01 00    	mov    %eax,0x1640d(%rip)        # 2f168 <g_2728>
   18d5b:	48 8b 05 fe 35 01 00 	mov    0x135fe(%rip),%rax        # 2c360 <g_1673>
   18d62:	48 8b 00             	mov    (%rax),%rax
   18d65:	48 8b 00             	mov    (%rax),%rax
   18d68:	48 8b 00             	mov    (%rax),%rax
   18d6b:	48 8b 00             	mov    (%rax),%rax
   18d6e:	8b 10                	mov    (%rax),%edx
   18d70:	48 8b 05 e9 35 01 00 	mov    0x135e9(%rip),%rax        # 2c360 <g_1673>
   18d77:	48 8b 00             	mov    (%rax),%rax
   18d7a:	48 8b 00             	mov    (%rax),%rax
   18d7d:	48 8b 00             	mov    (%rax),%rax
   18d80:	48 8b 00             	mov    (%rax),%rax
   18d83:	83 ca f8             	or     $0xfffffff8,%edx
   18d86:	89 10                	mov    %edx,(%rax)
   18d88:	48 8b 05 51 de 00 00 	mov    0xde51(%rip),%rax        # 26be0 <g_238>
   18d8f:	0f be c0             	movsbl %al,%eax
   18d92:	be 05 00 00 00       	mov    $0x5,%esi
   18d97:	89 c7                	mov    %eax,%edi
   18d99:	e8 36 74 ff ff       	callq  101d4 <safe_add_func_int8_t_s_s>
   18d9e:	48 0f be c0          	movsbq %al,%rax
   18da2:	48 89 05 37 de 00 00 	mov    %rax,0xde37(%rip)        # 26be0 <g_238>
   18da9:	48 8b 05 30 de 00 00 	mov    0xde30(%rip),%rax        # 26be0 <g_238>
   18db0:	48 83 f8 0a          	cmp    $0xa,%rax
   18db4:	0f 87 9b f3 ff ff    	ja     18155 <func_23+0x2c45>
   18dba:	48 8b 85 60 df ff ff 	mov    -0x20a0(%rbp),%rax
   18dc1:	48 8b 00             	mov    (%rax),%rax
   18dc4:	48 8b 00             	mov    (%rax),%rax
   18dc7:	48 8b 10             	mov    (%rax),%rdx
   18dca:	48 8b 05 27 2c 01 00 	mov    0x12c27(%rip),%rax        # 2b9f8 <g_908>
   18dd1:	48 8b 12             	mov    (%rdx),%rdx
   18dd4:	48 89 10             	mov    %rdx,(%rax)
   18dd7:	48 8b 00             	mov    (%rax),%rax
   18dda:	48 85 c0             	test   %rax,%rax
   18ddd:	0f 95 c0             	setne  %al
   18de0:	0f b6 c0             	movzbl %al,%eax
   18de3:	48 8d 15 5e de 00 00 	lea    0xde5e(%rip),%rdx        # 26c48 <g_556>
   18dea:	0f b7 12             	movzwl (%rdx),%edx
   18ded:	89 c1                	mov    %eax,%ecx
   18def:	48 8d 05 52 de 00 00 	lea    0xde52(%rip),%rax        # 26c48 <g_556>
   18df6:	31 ca                	xor    %ecx,%edx
   18df8:	66 89 10             	mov    %dx,(%rax)
   18dfb:	48 8b 85 b0 df ff ff 	mov    -0x2050(%rbp),%rax
   18e02:	48 8b 00             	mov    (%rax),%rax
   18e05:	48 8b 00             	mov    (%rax),%rax
   18e08:	8b 00                	mov    (%rax),%eax
   18e0a:	0f b7 d0             	movzwl %ax,%edx
   18e0d:	48 8b 85 d0 df ff ff 	mov    -0x2030(%rbp),%rax
   18e14:	0f b6 08             	movzbl (%rax),%ecx
   18e17:	48 8b 05 72 2c 01 00 	mov    0x12c72(%rip),%rax        # 2ba90 <g_969>
   18e1e:	0f b6 00             	movzbl (%rax),%eax
   18e21:	31 c1                	xor    %eax,%ecx
   18e23:	48 8b 85 d0 df ff ff 	mov    -0x2030(%rbp),%rax
   18e2a:	88 08                	mov    %cl,(%rax)
   18e2c:	48 8b 85 d0 df ff ff 	mov    -0x2030(%rbp),%rax
   18e33:	0f b6 00             	movzbl (%rax),%eax
   18e36:	0f b6 c8             	movzbl %al,%ecx
   18e39:	48 8b 85 b0 df ff ff 	mov    -0x2050(%rbp),%rax
   18e40:	48 8b 00             	mov    (%rax),%rax
   18e43:	48 8b 00             	mov    (%rax),%rax
   18e46:	8b 00                	mov    (%rax),%eax
   18e48:	21 c8                	and    %ecx,%eax
   18e4a:	0f b7 c0             	movzwl %ax,%eax
   18e4d:	89 d6                	mov    %edx,%esi
   18e4f:	89 c7                	mov    %eax,%edi
   18e51:	e8 a9 7e ff ff       	callq  10cff <safe_add_func_uint16_t_u_u>
   18e56:	66 83 f8 03          	cmp    $0x3,%ax
   18e5a:	0f 97 c0             	seta   %al
   18e5d:	44 0f b6 e0          	movzbl %al,%r12d
   18e61:	48 8b 85 b0 df ff ff 	mov    -0x2050(%rbp),%rax
   18e68:	48 8b 00             	mov    (%rax),%rax
   18e6b:	48 8b 00             	mov    (%rax),%rax
   18e6e:	8b 00                	mov    (%rax),%eax
   18e70:	0f b6 d8             	movzbl %al,%ebx
   18e73:	8b 85 a8 dd ff ff    	mov    -0x2258(%rbp),%eax
   18e79:	0b 85 64 de ff ff    	or     -0x219c(%rbp),%eax
   18e7f:	be 5d 1a fc bf       	mov    $0xbffc1a5d,%esi
   18e84:	89 c7                	mov    %eax,%edi
   18e86:	e8 2b 77 ff ff       	callq  105b6 <safe_add_func_int32_t_s_s>
   18e8b:	3d 98 4c 00 00       	cmp    $0x4c98,%eax
   18e90:	7f 1a                	jg     18eac <func_23+0x399c>
   18e92:	48 8b 85 b0 df ff ff 	mov    -0x2050(%rbp),%rax
   18e99:	48 8b 00             	mov    (%rax),%rax
   18e9c:	48 8b 00             	mov    (%rax),%rax
   18e9f:	8b 00                	mov    (%rax),%eax
   18ea1:	85 c0                	test   %eax,%eax
   18ea3:	74 07                	je     18eac <func_23+0x399c>
   18ea5:	b8 01 00 00 00       	mov    $0x1,%eax
   18eaa:	eb 05                	jmp    18eb1 <func_23+0x39a1>
   18eac:	b8 00 00 00 00       	mov    $0x0,%eax
   18eb1:	89 c2                	mov    %eax,%edx
   18eb3:	48 8b 85 50 df ff ff 	mov    -0x20b0(%rbp),%rax
   18eba:	48 8b 00             	mov    (%rax),%rax
   18ebd:	48 8b 00             	mov    (%rax),%rax
   18ec0:	8b 00                	mov    (%rax),%eax
   18ec2:	21 d0                	and    %edx,%eax
   18ec4:	0f b6 c0             	movzbl %al,%eax
   18ec7:	89 de                	mov    %ebx,%esi
   18ec9:	89 c7                	mov    %eax,%edi
   18ecb:	e8 8a 7c ff ff       	callq  10b5a <safe_add_func_uint8_t_u_u>
   18ed0:	89 c2                	mov    %eax,%edx
   18ed2:	48 8b 05 17 2b 01 00 	mov    0x12b17(%rip),%rax        # 2b9f0 <g_909>
   18ed9:	0f b6 d2             	movzbl %dl,%edx
   18edc:	48 89 10             	mov    %rdx,(%rax)
   18edf:	48 8b 00             	mov    (%rax),%rax
   18ee2:	4c 89 e2             	mov    %r12,%rdx
   18ee5:	48 31 c2             	xor    %rax,%rdx
   18ee8:	48 8b 05 b1 2b 01 00 	mov    0x12bb1(%rip),%rax        # 2baa0 <g_1121>
   18eef:	48 8b 00             	mov    (%rax),%rax
   18ef2:	48 8b 00             	mov    (%rax),%rax
   18ef5:	48 39 c2             	cmp    %rax,%rdx
   18ef8:	0f 94 c2             	sete   %dl
   18efb:	48 8b 05 36 26 01 00 	mov    0x12636(%rip),%rax        # 2b538 <g_455>
   18f02:	48 8b 00             	mov    (%rax),%rax
   18f05:	0f b6 d2             	movzbl %dl,%edx
   18f08:	89 10                	mov    %edx,(%rax)
   18f0a:	8b 00                	mov    (%rax),%eax
   18f0c:	85 c0                	test   %eax,%eax
   18f0e:	0f 84 68 01 00 00    	je     1907c <func_23+0x3b6c>
   18f14:	48 c7 85 f0 df ff ff 	movq   $0x0,-0x2010(%rbp)
   18f1b:	00 00 00 00 
   18f1f:	c7 85 68 de ff ff 00 	movl   $0x0,-0x2198(%rbp)
   18f26:	00 00 00 
   18f29:	c7 85 0c de ff ff 00 	movl   $0x0,-0x21f4(%rbp)
   18f30:	00 00 00 
   18f33:	eb 1a                	jmp    18f4f <func_23+0x3a3f>
   18f35:	8b 85 0c de ff ff    	mov    -0x21f4(%rbp),%eax
   18f3b:	48 98                	cltq   
   18f3d:	c7 84 85 30 e2 ff ff 	movl   $0x8d0e1f40,-0x1dd0(%rbp,%rax,4)
   18f44:	40 1f 0e 8d 
   18f48:	83 85 0c de ff ff 01 	addl   $0x1,-0x21f4(%rbp)
   18f4f:	83 bd 0c de ff ff 00 	cmpl   $0x0,-0x21f4(%rbp)
   18f56:	7e dd                	jle    18f35 <func_23+0x3a25>
   18f58:	c6 05 89 dd 00 00 02 	movb   $0x2,0xdd89(%rip)        # 26ce8 <g_873>
   18f5f:	e9 04 01 00 00       	jmpq   19068 <func_23+0x3b58>
   18f64:	c7 85 c0 f0 ff ff 01 	movl   $0x1,-0xf40(%rbp)
   18f6b:	00 00 00 
   18f6e:	c7 85 c4 f0 ff ff 01 	movl   $0x1,-0xf3c(%rbp)
   18f75:	00 00 00 
   18f78:	c7 85 c8 f0 ff ff 01 	movl   $0x1,-0xf38(%rbp)
   18f7f:	00 00 00 
   18f82:	c7 85 cc f0 ff ff 01 	movl   $0x1,-0xf34(%rbp)
   18f89:	00 00 00 
   18f8c:	c7 85 d0 f0 ff ff 01 	movl   $0x1,-0xf30(%rbp)
   18f93:	00 00 00 
   18f96:	c7 85 6c de ff ff 01 	movl   $0x1,-0x2194(%rbp)
   18f9d:	00 00 00 
   18fa0:	c7 85 70 de ff ff 00 	movl   $0x0,-0x2190(%rbp)
   18fa7:	00 00 00 
   18faa:	c7 05 a4 d0 00 00 00 	movl   $0x0,0xd0a4(%rip)        # 26058 <g_107>
   18fb1:	00 00 00 
   18fb4:	90                   	nop
   18fb5:	8b 05 9d d0 00 00    	mov    0xd09d(%rip),%eax        # 26058 <g_107>
   18fbb:	83 f8 e7             	cmp    $0xffffffe7,%eax
   18fbe:	7c 0f                	jl     18fcf <func_23+0x3abf>
   18fc0:	0f b6 85 ac dd ff ff 	movzbl -0x2254(%rbp),%eax
   18fc7:	0f b6 c0             	movzbl %al,%eax
   18fca:	e9 42 17 00 00       	jmpq   1a711 <func_23+0x5201>
   18fcf:	0f b6 85 ac dd ff ff 	movzbl -0x2254(%rbp),%eax
   18fd6:	84 c0                	test   %al,%al
   18fd8:	0f 85 d9 02 00 00    	jne    192b7 <func_23+0x3da7>
   18fde:	c6 05 df dc 00 00 ea 	movb   $0xea,0xdcdf(%rip)        # 26cc4 <g_623>
   18fe5:	eb 5a                	jmp    19041 <func_23+0x3b31>
   18fe7:	48 8d 05 ca 27 01 00 	lea    0x127ca(%rip),%rax        # 2b7b8 <g_554+0x138>
   18fee:	48 89 85 f8 df ff ff 	mov    %rax,-0x2008(%rbp)
   18ff5:	c7 85 74 de ff ff 61 	movl   $0xaf501461,-0x218c(%rbp)
   18ffc:	14 50 af 
   18fff:	c7 85 40 f8 ff ff fa 	movl   $0xfffffffa,-0x7c0(%rbp)
   19006:	ff ff ff 
   19009:	c7 85 44 f8 ff ff fa 	movl   $0xfffffffa,-0x7bc(%rbp)
   19010:	ff ff ff 
   19013:	c7 85 48 f8 ff ff fa 	movl   $0xfffffffa,-0x7b8(%rbp)
   1901a:	ff ff ff 
   1901d:	c7 85 4c f8 ff ff fa 	movl   $0xfffffffa,-0x7b4(%rbp)
   19024:	ff ff ff 
   19027:	c7 85 50 f8 ff ff fa 	movl   $0xfffffffa,-0x7b0(%rbp)
   1902e:	ff ff ff 
   19031:	0f b6 05 8c dc 00 00 	movzbl 0xdc8c(%rip),%eax        # 26cc4 <g_623>
   19038:	83 c0 01             	add    $0x1,%eax
   1903b:	88 05 83 dc 00 00    	mov    %al,0xdc83(%rip)        # 26cc4 <g_623>
   19041:	0f b6 05 7c dc 00 00 	movzbl 0xdc7c(%rip),%eax        # 26cc4 <g_623>
   19048:	3c 1b                	cmp    $0x1b,%al
   1904a:	7e 9b                	jle    18fe7 <func_23+0x3ad7>
   1904c:	0f b6 05 95 dc 00 00 	movzbl 0xdc95(%rip),%eax        # 26ce8 <g_873>
   19053:	0f be c0             	movsbl %al,%eax
   19056:	be 05 00 00 00       	mov    $0x5,%esi
   1905b:	89 c7                	mov    %eax,%edi
   1905d:	e8 56 7e ff ff       	callq  10eb8 <safe_add_func_uint32_t_u_u>
   19062:	88 05 80 dc 00 00    	mov    %al,0xdc80(%rip)        # 26ce8 <g_873>
   19068:	0f b6 05 79 dc 00 00 	movzbl 0xdc79(%rip),%eax        # 26ce8 <g_873>
   1906f:	3c 11                	cmp    $0x11,%al
   19071:	0f 8e ed fe ff ff    	jle    18f64 <func_23+0x3a54>
   19077:	e9 3c 02 00 00       	jmpq   192b8 <func_23+0x3da8>
   1907c:	c7 85 40 f8 ff ff 01 	movl   $0x1,-0x7c0(%rbp)
   19083:	00 00 00 
   19086:	c7 85 44 f8 ff ff c1 	movl   $0x202c56c1,-0x7bc(%rbp)
   1908d:	56 2c 20 
   19090:	c7 85 48 f8 ff ff 01 	movl   $0x1,-0x7b8(%rbp)
   19097:	00 00 00 
   1909a:	c7 85 4c f8 ff ff fa 	movl   $0xfffffffa,-0x7b4(%rbp)
   190a1:	ff ff ff 
   190a4:	c7 85 50 f8 ff ff 01 	movl   $0x1,-0x7b0(%rbp)
   190ab:	00 00 00 
   190ae:	c7 85 54 f8 ff ff c1 	movl   $0x202c56c1,-0x7ac(%rbp)
   190b5:	56 2c 20 
   190b8:	c7 85 58 f8 ff ff 01 	movl   $0x1,-0x7a8(%rbp)
   190bf:	00 00 00 
   190c2:	c7 85 5c f8 ff ff 01 	movl   $0x1,-0x7a4(%rbp)
   190c9:	00 00 00 
   190cc:	c7 85 60 f8 ff ff c1 	movl   $0x202c56c1,-0x7a0(%rbp)
   190d3:	56 2c 20 
   190d6:	c7 85 64 f8 ff ff fa 	movl   $0xfffffffa,-0x79c(%rbp)
   190dd:	ff ff ff 
   190e0:	c7 85 68 f8 ff ff f6 	movl   $0xfffffff6,-0x798(%rbp)
   190e7:	ff ff ff 
   190ea:	c7 85 6c f8 ff ff f6 	movl   $0xfffffff6,-0x794(%rbp)
   190f1:	ff ff ff 
   190f4:	c7 85 70 f8 ff ff fa 	movl   $0xfffffffa,-0x790(%rbp)
   190fb:	ff ff ff 
   190fe:	c7 85 74 f8 ff ff c1 	movl   $0x202c56c1,-0x78c(%rbp)
   19105:	56 2c 20 
   19108:	c7 85 78 f8 ff ff fb 	movl   $0xfffffffb,-0x788(%rbp)
   1910f:	ff ff ff 
   19112:	c7 85 7c f8 ff ff c1 	movl   $0x202c56c1,-0x784(%rbp)
   19119:	56 2c 20 
   1911c:	c7 85 80 f8 ff ff fa 	movl   $0xfffffffa,-0x780(%rbp)
   19123:	ff ff ff 
   19126:	c7 85 84 f8 ff ff c1 	movl   $0x202c56c1,-0x77c(%rbp)
   1912d:	56 2c 20 
   19130:	c7 85 88 f8 ff ff fb 	movl   $0xfffffffb,-0x778(%rbp)
   19137:	ff ff ff 
   1913a:	c7 85 8c f8 ff ff c1 	movl   $0x202c56c1,-0x774(%rbp)
   19141:	56 2c 20 
   19144:	c7 85 90 f8 ff ff fa 	movl   $0xfffffffa,-0x770(%rbp)
   1914b:	ff ff ff 
   1914e:	c7 85 94 f8 ff ff f6 	movl   $0xfffffff6,-0x76c(%rbp)
   19155:	ff ff ff 
   19158:	c7 85 98 f8 ff ff f6 	movl   $0xfffffff6,-0x768(%rbp)
   1915f:	ff ff ff 
   19162:	c7 85 9c f8 ff ff fa 	movl   $0xfffffffa,-0x764(%rbp)
   19169:	ff ff ff 
   1916c:	c7 85 a0 f8 ff ff c1 	movl   $0x202c56c1,-0x760(%rbp)
   19173:	56 2c 20 
   19176:	c7 85 a4 f8 ff ff 01 	movl   $0x1,-0x75c(%rbp)
   1917d:	00 00 00 
   19180:	c7 85 a8 f8 ff ff 01 	movl   $0x1,-0x758(%rbp)
   19187:	00 00 00 
   1918a:	c7 85 ac f8 ff ff c1 	movl   $0x202c56c1,-0x754(%rbp)
   19191:	56 2c 20 
   19194:	c7 85 b0 f8 ff ff 01 	movl   $0x1,-0x750(%rbp)
   1919b:	00 00 00 
   1919e:	c7 85 b4 f8 ff ff fa 	movl   $0xfffffffa,-0x74c(%rbp)
   191a5:	ff ff ff 
   191a8:	c7 85 b8 f8 ff ff 01 	movl   $0x1,-0x748(%rbp)
   191af:	00 00 00 
   191b2:	c7 85 bc f8 ff ff c1 	movl   $0x202c56c1,-0x744(%rbp)
   191b9:	56 2c 20 
   191bc:	c7 85 c0 f8 ff ff 01 	movl   $0x1,-0x740(%rbp)
   191c3:	00 00 00 
   191c6:	c7 85 c4 f8 ff ff 01 	movl   $0x1,-0x73c(%rbp)
   191cd:	00 00 00 
   191d0:	c7 85 c8 f8 ff ff 01 	movl   $0x1,-0x738(%rbp)
   191d7:	00 00 00 
   191da:	c7 85 cc f8 ff ff f6 	movl   $0xfffffff6,-0x734(%rbp)
   191e1:	ff ff ff 
   191e4:	c7 85 d0 f8 ff ff fb 	movl   $0xfffffffb,-0x730(%rbp)
   191eb:	ff ff ff 
   191ee:	c7 85 d4 f8 ff ff fb 	movl   $0xfffffffb,-0x72c(%rbp)
   191f5:	ff ff ff 
   191f8:	c7 85 d8 f8 ff ff f6 	movl   $0xfffffff6,-0x728(%rbp)
   191ff:	ff ff ff 
   19202:	c7 85 dc f8 ff ff 01 	movl   $0x1,-0x724(%rbp)
   19209:	00 00 00 
   1920c:	c7 85 e0 f8 ff ff 01 	movl   $0x1,-0x720(%rbp)
   19213:	00 00 00 
   19216:	c7 85 e4 f8 ff ff 01 	movl   $0x1,-0x71c(%rbp)
   1921d:	00 00 00 
   19220:	c7 85 e8 f8 ff ff fb 	movl   $0xfffffffb,-0x718(%rbp)
   19227:	ff ff ff 
   1922a:	c7 85 ec f8 ff ff fa 	movl   $0xfffffffa,-0x714(%rbp)
   19231:	ff ff ff 
   19234:	c7 85 f0 f8 ff ff ec 	movl   $0xf46beec,-0x710(%rbp)
   1923b:	be 46 0f 
   1923e:	c7 85 f4 f8 ff ff fa 	movl   $0xfffffffa,-0x70c(%rbp)
   19245:	ff ff ff 
   19248:	c7 85 f8 f8 ff ff fb 	movl   $0xfffffffb,-0x708(%rbp)
   1924f:	ff ff ff 
   19252:	c7 85 fc f8 ff ff 01 	movl   $0x1,-0x704(%rbp)
   19259:	00 00 00 
   1925c:	c7 85 00 f9 ff ff 01 	movl   $0x1,-0x700(%rbp)
   19263:	00 00 00 
   19266:	c7 85 04 f9 ff ff 01 	movl   $0x1,-0x6fc(%rbp)
   1926d:	00 00 00 
   19270:	c7 85 08 f9 ff ff f6 	movl   $0xfffffff6,-0x6f8(%rbp)
   19277:	ff ff ff 
   1927a:	c7 85 0c f9 ff ff fb 	movl   $0xfffffffb,-0x6f4(%rbp)
   19281:	ff ff ff 
   19284:	c7 85 10 f9 ff ff fb 	movl   $0xfffffffb,-0x6f0(%rbp)
   1928b:	ff ff ff 
   1928e:	c7 85 14 f9 ff ff f6 	movl   $0xfffffff6,-0x6ec(%rbp)
   19295:	ff ff ff 
   19298:	c7 85 18 f9 ff ff 01 	movl   $0x1,-0x6e8(%rbp)
   1929f:	00 00 00 
   192a2:	c7 85 1c f9 ff ff 01 	movl   $0x1,-0x6e4(%rbp)
   192a9:	00 00 00 
   192ac:	8b 85 dc f8 ff ff    	mov    -0x724(%rbp),%eax
   192b2:	e9 5a 14 00 00       	jmpq   1a711 <func_23+0x5201>
   192b7:	90                   	nop
   192b8:	48 8b 05 b1 5e 01 00 	mov    0x15eb1(%rip),%rax        # 2f170 <g_2998>
   192bf:	48 85 c0             	test   %rax,%rax
   192c2:	0f 94 c0             	sete   %al
   192c5:	0f b6 d8             	movzbl %al,%ebx
   192c8:	8b 85 a8 dd ff ff    	mov    -0x2258(%rbp),%eax
   192ce:	0f b7 d0             	movzwl %ax,%edx
   192d1:	48 8b 85 e8 df ff ff 	mov    -0x2018(%rbp),%rax
   192d8:	48 8b 8d 48 df ff ff 	mov    -0x20b8(%rbp),%rcx
   192df:	48 89 08             	mov    %rcx,(%rax)
   192e2:	48 8b 85 e8 df ff ff 	mov    -0x2018(%rbp),%rax
   192e9:	48 8b 00             	mov    (%rax),%rax
   192ec:	48 85 c0             	test   %rax,%rax
   192ef:	0f 94 c1             	sete   %cl
   192f2:	48 8b 05 af 27 01 00 	mov    0x127af(%rip),%rax        # 2baa8 <g_1228>
   192f9:	0f b6 c9             	movzbl %cl,%ecx
   192fc:	89 08                	mov    %ecx,(%rax)
   192fe:	48 8b 85 78 df ff ff 	mov    -0x2088(%rbp),%rax
   19305:	48 3b 85 e0 df ff ff 	cmp    -0x2020(%rbp),%rax
   1930c:	0f 94 c0             	sete   %al
   1930f:	0f b6 c0             	movzbl %al,%eax
   19312:	89 d6                	mov    %edx,%esi
   19314:	89 c7                	mov    %eax,%edi
   19316:	e8 22 7a ff ff       	callq  10d3d <safe_mul_func_uint16_t_u_u>
   1931b:	0f b6 c0             	movzbl %al,%eax
   1931e:	89 de                	mov    %ebx,%esi
   19320:	89 c7                	mov    %eax,%edi
   19322:	e8 97 79 ff ff       	callq  10cbe <safe_rshift_func_uint8_t_u_u>
   19327:	48 8d 05 2e cd 00 00 	lea    0xcd2e(%rip),%rax        # 2605c <g_120>
   1932e:	48 39 85 d8 df ff ff 	cmp    %rax,-0x2028(%rbp)
   19335:	0f 94 c0             	sete   %al
   19338:	0f b6 d0             	movzbl %al,%edx
   1933b:	48 8b 85 40 df ff ff 	mov    -0x20c0(%rbp),%rax
   19342:	8b 00                	mov    (%rax),%eax
   19344:	31 c2                	xor    %eax,%edx
   19346:	48 8b 85 40 df ff ff 	mov    -0x20c0(%rbp),%rax
   1934d:	89 10                	mov    %edx,(%rax)
   1934f:	48 83 ad 80 df ff ff 	subq   $0x1,-0x2080(%rbp)
   19356:	01 
   19357:	48 c7 05 7e d8 00 00 	movq   $0xffffffffffffffe5,0xd87e(%rip)        # 26be0 <g_238>
   1935e:	e5 ff ff ff 
   19362:	e9 8d 13 00 00       	jmpq   1a6f4 <func_23+0x51e4>
   19367:	48 c7 85 30 e2 ff ff 	movq   $0xffffffffffffffff,-0x1dd0(%rbp)
   1936e:	ff ff ff ff 
   19372:	48 c7 85 38 e2 ff ff 	movq   $0xffffffffffffffff,-0x1dc8(%rbp)
   19379:	ff ff ff ff 
   1937d:	48 c7 85 40 e2 ff ff 	movq   $0xffffffffffffffff,-0x1dc0(%rbp)
   19384:	ff ff ff ff 
   19388:	48 c7 85 48 e2 ff ff 	movq   $0xffffffffffffffff,-0x1db8(%rbp)
   1938f:	ff ff ff ff 
   19393:	48 c7 85 50 e2 ff ff 	movq   $0xffffffffffffffff,-0x1db0(%rbp)
   1939a:	ff ff ff ff 
   1939e:	48 c7 85 58 e2 ff ff 	movq   $0xffffffffffffffff,-0x1da8(%rbp)
   193a5:	ff ff ff ff 
   193a9:	48 c7 85 60 e2 ff ff 	movq   $0xffffffffffffffff,-0x1da0(%rbp)
   193b0:	ff ff ff ff 
   193b4:	48 c7 85 68 e2 ff ff 	movq   $0xffffffffffffffff,-0x1d98(%rbp)
   193bb:	ff ff ff ff 
   193bf:	48 c7 85 70 e2 ff ff 	movq   $0xffffffffffffffff,-0x1d90(%rbp)
   193c6:	ff ff ff ff 
   193ca:	48 c7 85 78 e2 ff ff 	movq   $0xffffffffffffffff,-0x1d88(%rbp)
   193d1:	ff ff ff ff 
   193d5:	c7 85 bc de ff ff ca 	movl   $0x2d941fca,-0x2144(%rbp)
   193dc:	1f 94 2d 
   193df:	66 c7 85 ca dd ff ff 	movw   $0x6,-0x2236(%rbp)
   193e6:	06 00 
   193e8:	c7 85 c0 de ff ff ff 	movl   $0xffffffff,-0x2140(%rbp)
   193ef:	ff ff ff 
   193f2:	c7 85 c4 de ff ff 4d 	movl   $0x4e86164d,-0x213c(%rbp)
   193f9:	16 86 4e 
   193fc:	48 8d 85 d4 dd ff ff 	lea    -0x222c(%rbp),%rax
   19403:	48 89 85 c0 f0 ff ff 	mov    %rax,-0xf40(%rbp)
   1940a:	48 8d 05 af e5 00 00 	lea    0xe5af(%rip),%rax        # 279c0 <g_2590>
   19411:	48 89 85 c8 f0 ff ff 	mov    %rax,-0xf38(%rbp)
   19418:	48 8d 05 3d cc 00 00 	lea    0xcc3d(%rip),%rax        # 2605c <g_120>
   1941f:	48 89 85 d0 f0 ff ff 	mov    %rax,-0xf30(%rbp)
   19426:	48 8d 05 93 e5 00 00 	lea    0xe593(%rip),%rax        # 279c0 <g_2590>
   1942d:	48 89 85 d8 f0 ff ff 	mov    %rax,-0xf28(%rbp)
   19434:	48 c7 85 e0 f0 ff ff 	movq   $0x0,-0xf20(%rbp)
   1943b:	00 00 00 00 
   1943f:	48 c7 85 e8 f0 ff ff 	movq   $0x0,-0xf18(%rbp)
   19446:	00 00 00 00 
   1944a:	48 8d 05 0b cc 00 00 	lea    0xcc0b(%rip),%rax        # 2605c <g_120>
   19451:	48 89 85 f0 f0 ff ff 	mov    %rax,-0xf10(%rbp)
   19458:	48 8d 05 61 e5 00 00 	lea    0xe561(%rip),%rax        # 279c0 <g_2590>
   1945f:	48 89 85 f8 f0 ff ff 	mov    %rax,-0xf08(%rbp)
   19466:	48 c7 85 00 f1 ff ff 	movq   $0x0,-0xf00(%rbp)
   1946d:	00 00 00 00 
   19471:	48 c7 85 08 f1 ff ff 	movq   $0x0,-0xef8(%rbp)
   19478:	00 00 00 00 
   1947c:	48 8d 05 d9 cb 00 00 	lea    0xcbd9(%rip),%rax        # 2605c <g_120>
   19483:	48 89 85 10 f1 ff ff 	mov    %rax,-0xef0(%rbp)
   1948a:	48 c7 85 18 f1 ff ff 	movq   $0x0,-0xee8(%rbp)
   19491:	00 00 00 00 
   19495:	48 8d 05 24 e5 00 00 	lea    0xe524(%rip),%rax        # 279c0 <g_2590>
   1949c:	48 89 85 20 f1 ff ff 	mov    %rax,-0xee0(%rbp)
   194a3:	48 8d 05 b2 cb 00 00 	lea    0xcbb2(%rip),%rax        # 2605c <g_120>
   194aa:	48 89 85 28 f1 ff ff 	mov    %rax,-0xed8(%rbp)
   194b1:	48 8d 85 d4 dd ff ff 	lea    -0x222c(%rbp),%rax
   194b8:	48 89 85 30 f1 ff ff 	mov    %rax,-0xed0(%rbp)
   194bf:	48 8d 05 fa e4 00 00 	lea    0xe4fa(%rip),%rax        # 279c0 <g_2590>
   194c6:	48 89 85 38 f1 ff ff 	mov    %rax,-0xec8(%rbp)
   194cd:	48 8d 05 ec e4 00 00 	lea    0xe4ec(%rip),%rax        # 279c0 <g_2590>
   194d4:	48 89 85 40 f1 ff ff 	mov    %rax,-0xec0(%rbp)
   194db:	48 c7 85 48 f1 ff ff 	movq   $0x0,-0xeb8(%rbp)
   194e2:	00 00 00 00 
   194e6:	48 8d 05 d3 e4 00 00 	lea    0xe4d3(%rip),%rax        # 279c0 <g_2590>
   194ed:	48 89 85 50 f1 ff ff 	mov    %rax,-0xeb0(%rbp)
   194f4:	48 8d 85 d4 dd ff ff 	lea    -0x222c(%rbp),%rax
   194fb:	48 89 85 58 f1 ff ff 	mov    %rax,-0xea8(%rbp)
   19502:	48 8d 85 d4 dd ff ff 	lea    -0x222c(%rbp),%rax
   19509:	48 89 85 60 f1 ff ff 	mov    %rax,-0xea0(%rbp)
   19510:	48 8d 85 d4 dd ff ff 	lea    -0x222c(%rbp),%rax
   19517:	48 89 85 68 f1 ff ff 	mov    %rax,-0xe98(%rbp)
   1951e:	48 8d 85 d4 dd ff ff 	lea    -0x222c(%rbp),%rax
   19525:	48 89 85 70 f1 ff ff 	mov    %rax,-0xe90(%rbp)
   1952c:	48 8d 05 8d e4 00 00 	lea    0xe48d(%rip),%rax        # 279c0 <g_2590>
   19533:	48 89 85 78 f1 ff ff 	mov    %rax,-0xe88(%rbp)
   1953a:	48 8d 85 d4 dd ff ff 	lea    -0x222c(%rbp),%rax
   19541:	48 89 85 80 f1 ff ff 	mov    %rax,-0xe80(%rbp)
   19548:	48 c7 85 88 f1 ff ff 	movq   $0x0,-0xe78(%rbp)
   1954f:	00 00 00 00 
   19553:	48 8d 05 02 cb 00 00 	lea    0xcb02(%rip),%rax        # 2605c <g_120>
   1955a:	48 89 85 90 f1 ff ff 	mov    %rax,-0xe70(%rbp)
   19561:	48 8d 85 d4 dd ff ff 	lea    -0x222c(%rbp),%rax
   19568:	48 89 85 98 f1 ff ff 	mov    %rax,-0xe68(%rbp)
   1956f:	48 c7 85 a0 f1 ff ff 	movq   $0x0,-0xe60(%rbp)
   19576:	00 00 00 00 
   1957a:	48 8d 05 3f e4 00 00 	lea    0xe43f(%rip),%rax        # 279c0 <g_2590>
   19581:	48 89 85 a8 f1 ff ff 	mov    %rax,-0xe58(%rbp)
   19588:	48 8d 05 cd ca 00 00 	lea    0xcacd(%rip),%rax        # 2605c <g_120>
   1958f:	48 89 85 b0 f1 ff ff 	mov    %rax,-0xe50(%rbp)
   19596:	48 8d 05 bf ca 00 00 	lea    0xcabf(%rip),%rax        # 2605c <g_120>
   1959d:	48 89 85 b8 f1 ff ff 	mov    %rax,-0xe48(%rbp)
   195a4:	48 c7 85 c0 f1 ff ff 	movq   $0x0,-0xe40(%rbp)
   195ab:	00 00 00 00 
   195af:	48 8d 85 d4 dd ff ff 	lea    -0x222c(%rbp),%rax
   195b6:	48 89 85 c8 f1 ff ff 	mov    %rax,-0xe38(%rbp)
   195bd:	48 c7 85 d0 f1 ff ff 	movq   $0x0,-0xe30(%rbp)
   195c4:	00 00 00 00 
   195c8:	48 8d 05 8d ca 00 00 	lea    0xca8d(%rip),%rax        # 2605c <g_120>
   195cf:	48 89 85 d8 f1 ff ff 	mov    %rax,-0xe28(%rbp)
   195d6:	48 8d 05 e3 e3 00 00 	lea    0xe3e3(%rip),%rax        # 279c0 <g_2590>
   195dd:	48 89 85 e0 f1 ff ff 	mov    %rax,-0xe20(%rbp)
   195e4:	48 c7 85 e8 f1 ff ff 	movq   $0x0,-0xe18(%rbp)
   195eb:	00 00 00 00 
   195ef:	48 8d 05 66 ca 00 00 	lea    0xca66(%rip),%rax        # 2605c <g_120>
   195f6:	48 89 85 f0 f1 ff ff 	mov    %rax,-0xe10(%rbp)
   195fd:	48 c7 85 f8 f1 ff ff 	movq   $0x0,-0xe08(%rbp)
   19604:	00 00 00 00 
   19608:	48 c7 85 00 f2 ff ff 	movq   $0x0,-0xe00(%rbp)
   1960f:	00 00 00 00 
   19613:	48 c7 85 08 f2 ff ff 	movq   $0x0,-0xdf8(%rbp)
   1961a:	00 00 00 00 
   1961e:	48 c7 85 10 f2 ff ff 	movq   $0x0,-0xdf0(%rbp)
   19625:	00 00 00 00 
   19629:	48 8d 05 90 e3 00 00 	lea    0xe390(%rip),%rax        # 279c0 <g_2590>
   19630:	48 89 85 18 f2 ff ff 	mov    %rax,-0xde8(%rbp)
   19637:	48 8d 85 d4 dd ff ff 	lea    -0x222c(%rbp),%rax
   1963e:	48 89 85 20 f2 ff ff 	mov    %rax,-0xde0(%rbp)
   19645:	48 8d 05 74 e3 00 00 	lea    0xe374(%rip),%rax        # 279c0 <g_2590>
   1964c:	48 89 85 28 f2 ff ff 	mov    %rax,-0xdd8(%rbp)
   19653:	48 8d 05 02 ca 00 00 	lea    0xca02(%rip),%rax        # 2605c <g_120>
   1965a:	48 89 85 30 f2 ff ff 	mov    %rax,-0xdd0(%rbp)
   19661:	48 8d 05 f4 c9 00 00 	lea    0xc9f4(%rip),%rax        # 2605c <g_120>
   19668:	48 89 85 38 f2 ff ff 	mov    %rax,-0xdc8(%rbp)
   1966f:	48 8d 05 e6 c9 00 00 	lea    0xc9e6(%rip),%rax        # 2605c <g_120>
   19676:	48 89 85 40 f2 ff ff 	mov    %rax,-0xdc0(%rbp)
   1967d:	48 c7 85 48 f2 ff ff 	movq   $0x0,-0xdb8(%rbp)
   19684:	00 00 00 00 
   19688:	48 8d 05 cd c9 00 00 	lea    0xc9cd(%rip),%rax        # 2605c <g_120>
   1968f:	48 89 85 50 f2 ff ff 	mov    %rax,-0xdb0(%rbp)
   19696:	48 8d 05 23 e3 00 00 	lea    0xe323(%rip),%rax        # 279c0 <g_2590>
   1969d:	48 89 85 58 f2 ff ff 	mov    %rax,-0xda8(%rbp)
   196a4:	48 8d 05 b1 c9 00 00 	lea    0xc9b1(%rip),%rax        # 2605c <g_120>
   196ab:	48 89 85 60 f2 ff ff 	mov    %rax,-0xda0(%rbp)
   196b2:	48 8d 05 07 e3 00 00 	lea    0xe307(%rip),%rax        # 279c0 <g_2590>
   196b9:	48 89 85 68 f2 ff ff 	mov    %rax,-0xd98(%rbp)
   196c0:	48 8d 05 95 c9 00 00 	lea    0xc995(%rip),%rax        # 2605c <g_120>
   196c7:	48 89 85 70 f2 ff ff 	mov    %rax,-0xd90(%rbp)
   196ce:	48 8d 05 87 c9 00 00 	lea    0xc987(%rip),%rax        # 2605c <g_120>
   196d5:	48 89 85 78 f2 ff ff 	mov    %rax,-0xd88(%rbp)
   196dc:	48 8d 05 dd e2 00 00 	lea    0xe2dd(%rip),%rax        # 279c0 <g_2590>
   196e3:	48 89 85 80 f2 ff ff 	mov    %rax,-0xd80(%rbp)
   196ea:	48 c7 85 88 f2 ff ff 	movq   $0x0,-0xd78(%rbp)
   196f1:	00 00 00 00 
   196f5:	48 8d 85 d4 dd ff ff 	lea    -0x222c(%rbp),%rax
   196fc:	48 89 85 90 f2 ff ff 	mov    %rax,-0xd70(%rbp)
   19703:	48 8d 05 52 c9 00 00 	lea    0xc952(%rip),%rax        # 2605c <g_120>
   1970a:	48 89 85 98 f2 ff ff 	mov    %rax,-0xd68(%rbp)
   19711:	48 8d 85 d4 dd ff ff 	lea    -0x222c(%rbp),%rax
   19718:	48 89 85 a0 f2 ff ff 	mov    %rax,-0xd60(%rbp)
   1971f:	48 8d 85 d4 dd ff ff 	lea    -0x222c(%rbp),%rax
   19726:	48 89 85 a8 f2 ff ff 	mov    %rax,-0xd58(%rbp)
   1972d:	48 8d 85 d4 dd ff ff 	lea    -0x222c(%rbp),%rax
   19734:	48 89 85 b0 f2 ff ff 	mov    %rax,-0xd50(%rbp)
   1973b:	48 8d 05 1a c9 00 00 	lea    0xc91a(%rip),%rax        # 2605c <g_120>
   19742:	48 89 85 b8 f2 ff ff 	mov    %rax,-0xd48(%rbp)
   19749:	48 8d 85 d4 dd ff ff 	lea    -0x222c(%rbp),%rax
   19750:	48 89 85 c0 f2 ff ff 	mov    %rax,-0xd40(%rbp)
   19757:	48 8d 85 d4 dd ff ff 	lea    -0x222c(%rbp),%rax
   1975e:	48 89 85 c8 f2 ff ff 	mov    %rax,-0xd38(%rbp)
   19765:	48 8d 05 54 e2 00 00 	lea    0xe254(%rip),%rax        # 279c0 <g_2590>
   1976c:	48 89 85 d0 f2 ff ff 	mov    %rax,-0xd30(%rbp)
   19773:	48 8d 05 e2 c8 00 00 	lea    0xc8e2(%rip),%rax        # 2605c <g_120>
   1977a:	48 89 85 d8 f2 ff ff 	mov    %rax,-0xd28(%rbp)
   19781:	48 8d 05 38 e2 00 00 	lea    0xe238(%rip),%rax        # 279c0 <g_2590>
   19788:	48 89 85 e0 f2 ff ff 	mov    %rax,-0xd20(%rbp)
   1978f:	48 8d 05 c6 c8 00 00 	lea    0xc8c6(%rip),%rax        # 2605c <g_120>
   19796:	48 89 85 e8 f2 ff ff 	mov    %rax,-0xd18(%rbp)
   1979d:	48 c7 85 f0 f2 ff ff 	movq   $0x0,-0xd10(%rbp)
   197a4:	00 00 00 00 
   197a8:	48 c7 85 f8 f2 ff ff 	movq   $0x0,-0xd08(%rbp)
   197af:	00 00 00 00 
   197b3:	48 8d 05 a2 c8 00 00 	lea    0xc8a2(%rip),%rax        # 2605c <g_120>
   197ba:	48 89 85 00 f3 ff ff 	mov    %rax,-0xd00(%rbp)
   197c1:	48 c7 85 08 f3 ff ff 	movq   $0x0,-0xcf8(%rbp)
   197c8:	00 00 00 00 
   197cc:	48 8d 05 ed e1 00 00 	lea    0xe1ed(%rip),%rax        # 279c0 <g_2590>
   197d3:	48 89 85 10 f3 ff ff 	mov    %rax,-0xcf0(%rbp)
   197da:	48 8d 05 df e1 00 00 	lea    0xe1df(%rip),%rax        # 279c0 <g_2590>
   197e1:	48 89 85 18 f3 ff ff 	mov    %rax,-0xce8(%rbp)
   197e8:	48 c7 85 20 f3 ff ff 	movq   $0x0,-0xce0(%rbp)
   197ef:	00 00 00 00 
   197f3:	48 8d 05 62 c8 00 00 	lea    0xc862(%rip),%rax        # 2605c <g_120>
   197fa:	48 89 85 28 f3 ff ff 	mov    %rax,-0xcd8(%rbp)
   19801:	48 8d 85 d4 dd ff ff 	lea    -0x222c(%rbp),%rax
   19808:	48 89 85 30 f3 ff ff 	mov    %rax,-0xcd0(%rbp)
   1980f:	48 c7 85 38 f3 ff ff 	movq   $0x0,-0xcc8(%rbp)
   19816:	00 00 00 00 
   1981a:	48 c7 85 40 f3 ff ff 	movq   $0x0,-0xcc0(%rbp)
   19821:	00 00 00 00 
   19825:	48 8d 05 94 e1 00 00 	lea    0xe194(%rip),%rax        # 279c0 <g_2590>
   1982c:	48 89 85 48 f3 ff ff 	mov    %rax,-0xcb8(%rbp)
   19833:	48 8d 05 86 e1 00 00 	lea    0xe186(%rip),%rax        # 279c0 <g_2590>
   1983a:	48 89 85 50 f3 ff ff 	mov    %rax,-0xcb0(%rbp)
   19841:	48 c7 85 58 f3 ff ff 	movq   $0x0,-0xca8(%rbp)
   19848:	00 00 00 00 
   1984c:	48 8d 85 d4 dd ff ff 	lea    -0x222c(%rbp),%rax
   19853:	48 89 85 60 f3 ff ff 	mov    %rax,-0xca0(%rbp)
   1985a:	48 8d 05 fb c7 00 00 	lea    0xc7fb(%rip),%rax        # 2605c <g_120>
   19861:	48 89 85 68 f3 ff ff 	mov    %rax,-0xc98(%rbp)
   19868:	48 8d 05 ed c7 00 00 	lea    0xc7ed(%rip),%rax        # 2605c <g_120>
   1986f:	48 89 85 70 f3 ff ff 	mov    %rax,-0xc90(%rbp)
   19876:	48 8d 05 43 e1 00 00 	lea    0xe143(%rip),%rax        # 279c0 <g_2590>
   1987d:	48 89 85 78 f3 ff ff 	mov    %rax,-0xc88(%rbp)
   19884:	48 8d 05 d1 c7 00 00 	lea    0xc7d1(%rip),%rax        # 2605c <g_120>
   1988b:	48 89 85 80 f3 ff ff 	mov    %rax,-0xc80(%rbp)
   19892:	48 8d 05 27 e1 00 00 	lea    0xe127(%rip),%rax        # 279c0 <g_2590>
   19899:	48 89 85 88 f3 ff ff 	mov    %rax,-0xc78(%rbp)
   198a0:	48 8d 05 19 e1 00 00 	lea    0xe119(%rip),%rax        # 279c0 <g_2590>
   198a7:	48 89 85 90 f3 ff ff 	mov    %rax,-0xc70(%rbp)
   198ae:	48 c7 85 98 f3 ff ff 	movq   $0x0,-0xc68(%rbp)
   198b5:	00 00 00 00 
   198b9:	48 c7 85 a0 f3 ff ff 	movq   $0x0,-0xc60(%rbp)
   198c0:	00 00 00 00 
   198c4:	48 8d 05 91 c7 00 00 	lea    0xc791(%rip),%rax        # 2605c <g_120>
   198cb:	48 89 85 a8 f3 ff ff 	mov    %rax,-0xc58(%rbp)
   198d2:	48 8d 85 d4 dd ff ff 	lea    -0x222c(%rbp),%rax
   198d9:	48 89 85 b0 f3 ff ff 	mov    %rax,-0xc50(%rbp)
   198e0:	48 c7 85 b8 f3 ff ff 	movq   $0x0,-0xc48(%rbp)
   198e7:	00 00 00 00 
   198eb:	48 8d 05 ce e0 00 00 	lea    0xe0ce(%rip),%rax        # 279c0 <g_2590>
   198f2:	48 89 85 c0 f3 ff ff 	mov    %rax,-0xc40(%rbp)
   198f9:	48 c7 85 c8 f3 ff ff 	movq   $0x0,-0xc38(%rbp)
   19900:	00 00 00 00 
   19904:	48 8d 05 b5 e0 00 00 	lea    0xe0b5(%rip),%rax        # 279c0 <g_2590>
   1990b:	48 89 85 d0 f3 ff ff 	mov    %rax,-0xc30(%rbp)
   19912:	48 8d 05 a7 e0 00 00 	lea    0xe0a7(%rip),%rax        # 279c0 <g_2590>
   19919:	48 89 85 d8 f3 ff ff 	mov    %rax,-0xc28(%rbp)
   19920:	48 c7 85 e0 f3 ff ff 	movq   $0x0,-0xc20(%rbp)
   19927:	00 00 00 00 
   1992b:	48 8d 05 2a c7 00 00 	lea    0xc72a(%rip),%rax        # 2605c <g_120>
   19932:	48 89 85 e8 f3 ff ff 	mov    %rax,-0xc18(%rbp)
   19939:	48 8d 05 1c c7 00 00 	lea    0xc71c(%rip),%rax        # 2605c <g_120>
   19940:	48 89 85 f0 f3 ff ff 	mov    %rax,-0xc10(%rbp)
   19947:	48 c7 85 f8 f3 ff ff 	movq   $0x0,-0xc08(%rbp)
   1994e:	00 00 00 00 
   19952:	48 8d 05 03 c7 00 00 	lea    0xc703(%rip),%rax        # 2605c <g_120>
   19959:	48 89 85 00 f4 ff ff 	mov    %rax,-0xc00(%rbp)
   19960:	48 8d 05 59 e0 00 00 	lea    0xe059(%rip),%rax        # 279c0 <g_2590>
   19967:	48 89 85 08 f4 ff ff 	mov    %rax,-0xbf8(%rbp)
   1996e:	48 8d 05 e7 c6 00 00 	lea    0xc6e7(%rip),%rax        # 2605c <g_120>
   19975:	48 89 85 10 f4 ff ff 	mov    %rax,-0xbf0(%rbp)
   1997c:	48 8d 05 d9 c6 00 00 	lea    0xc6d9(%rip),%rax        # 2605c <g_120>
   19983:	48 89 85 18 f4 ff ff 	mov    %rax,-0xbe8(%rbp)
   1998a:	48 8d 05 2f e0 00 00 	lea    0xe02f(%rip),%rax        # 279c0 <g_2590>
   19991:	48 89 85 20 f4 ff ff 	mov    %rax,-0xbe0(%rbp)
   19998:	48 8d 85 d4 dd ff ff 	lea    -0x222c(%rbp),%rax
   1999f:	48 89 85 28 f4 ff ff 	mov    %rax,-0xbd8(%rbp)
   199a6:	48 8d 85 d4 dd ff ff 	lea    -0x222c(%rbp),%rax
   199ad:	48 89 85 30 f4 ff ff 	mov    %rax,-0xbd0(%rbp)
   199b4:	48 8d 05 a1 c6 00 00 	lea    0xc6a1(%rip),%rax        # 2605c <g_120>
   199bb:	48 89 85 38 f4 ff ff 	mov    %rax,-0xbc8(%rbp)
   199c2:	48 c7 85 40 f4 ff ff 	movq   $0x0,-0xbc0(%rbp)
   199c9:	00 00 00 00 
   199cd:	48 8d 05 88 c6 00 00 	lea    0xc688(%rip),%rax        # 2605c <g_120>
   199d4:	48 89 85 48 f4 ff ff 	mov    %rax,-0xbb8(%rbp)
   199db:	48 8d 05 de df 00 00 	lea    0xdfde(%rip),%rax        # 279c0 <g_2590>
   199e2:	48 89 85 50 f4 ff ff 	mov    %rax,-0xbb0(%rbp)
   199e9:	48 8d 05 6c c6 00 00 	lea    0xc66c(%rip),%rax        # 2605c <g_120>
   199f0:	48 89 85 58 f4 ff ff 	mov    %rax,-0xba8(%rbp)
   199f7:	48 8d 05 5e c6 00 00 	lea    0xc65e(%rip),%rax        # 2605c <g_120>
   199fe:	48 89 85 60 f4 ff ff 	mov    %rax,-0xba0(%rbp)
   19a05:	48 c7 85 68 f4 ff ff 	movq   $0x0,-0xb98(%rbp)
   19a0c:	00 00 00 00 
   19a10:	48 8d 05 45 c6 00 00 	lea    0xc645(%rip),%rax        # 2605c <g_120>
   19a17:	48 89 85 70 f4 ff ff 	mov    %rax,-0xb90(%rbp)
   19a1e:	48 8d 05 37 c6 00 00 	lea    0xc637(%rip),%rax        # 2605c <g_120>
   19a25:	48 89 85 78 f4 ff ff 	mov    %rax,-0xb88(%rbp)
   19a2c:	48 8d 85 d4 dd ff ff 	lea    -0x222c(%rbp),%rax
   19a33:	48 89 85 80 f4 ff ff 	mov    %rax,-0xb80(%rbp)
   19a3a:	48 8d 05 7f df 00 00 	lea    0xdf7f(%rip),%rax        # 279c0 <g_2590>
   19a41:	48 89 85 88 f4 ff ff 	mov    %rax,-0xb78(%rbp)
   19a48:	48 8d 05 71 df 00 00 	lea    0xdf71(%rip),%rax        # 279c0 <g_2590>
   19a4f:	48 89 85 90 f4 ff ff 	mov    %rax,-0xb70(%rbp)
   19a56:	48 8d 05 63 df 00 00 	lea    0xdf63(%rip),%rax        # 279c0 <g_2590>
   19a5d:	48 89 85 98 f4 ff ff 	mov    %rax,-0xb68(%rbp)
   19a64:	48 c7 85 a0 f4 ff ff 	movq   $0x0,-0xb60(%rbp)
   19a6b:	00 00 00 00 
   19a6f:	48 8d 85 d4 dd ff ff 	lea    -0x222c(%rbp),%rax
   19a76:	48 89 85 a8 f4 ff ff 	mov    %rax,-0xb58(%rbp)
   19a7d:	48 c7 85 b0 f4 ff ff 	movq   $0x0,-0xb50(%rbp)
   19a84:	00 00 00 00 
   19a88:	48 8d 05 cd c5 00 00 	lea    0xc5cd(%rip),%rax        # 2605c <g_120>
   19a8f:	48 89 85 b8 f4 ff ff 	mov    %rax,-0xb48(%rbp)
   19a96:	48 8d 05 bf c5 00 00 	lea    0xc5bf(%rip),%rax        # 2605c <g_120>
   19a9d:	48 89 85 c0 f4 ff ff 	mov    %rax,-0xb40(%rbp)
   19aa4:	48 8d 05 b1 c5 00 00 	lea    0xc5b1(%rip),%rax        # 2605c <g_120>
   19aab:	48 89 85 c8 f4 ff ff 	mov    %rax,-0xb38(%rbp)
   19ab2:	48 8d 05 a3 c5 00 00 	lea    0xc5a3(%rip),%rax        # 2605c <g_120>
   19ab9:	48 89 85 d0 f4 ff ff 	mov    %rax,-0xb30(%rbp)
   19ac0:	48 8d 05 f9 de 00 00 	lea    0xdef9(%rip),%rax        # 279c0 <g_2590>
   19ac7:	48 89 85 d8 f4 ff ff 	mov    %rax,-0xb28(%rbp)
   19ace:	48 8d 85 d4 dd ff ff 	lea    -0x222c(%rbp),%rax
   19ad5:	48 89 85 e0 f4 ff ff 	mov    %rax,-0xb20(%rbp)
   19adc:	48 c7 85 e8 f4 ff ff 	movq   $0x0,-0xb18(%rbp)
   19ae3:	00 00 00 00 
   19ae7:	48 8d 05 d2 de 00 00 	lea    0xded2(%rip),%rax        # 279c0 <g_2590>
   19aee:	48 89 85 f0 f4 ff ff 	mov    %rax,-0xb10(%rbp)
   19af5:	48 8d 05 c4 de 00 00 	lea    0xdec4(%rip),%rax        # 279c0 <g_2590>
   19afc:	48 89 85 f8 f4 ff ff 	mov    %rax,-0xb08(%rbp)
   19b03:	48 8d 05 52 c5 00 00 	lea    0xc552(%rip),%rax        # 2605c <g_120>
   19b0a:	48 89 85 00 f5 ff ff 	mov    %rax,-0xb00(%rbp)
   19b11:	48 8d 05 44 c5 00 00 	lea    0xc544(%rip),%rax        # 2605c <g_120>
   19b18:	48 89 85 08 f5 ff ff 	mov    %rax,-0xaf8(%rbp)
   19b1f:	48 c7 85 10 f5 ff ff 	movq   $0x0,-0xaf0(%rbp)
   19b26:	00 00 00 00 
   19b2a:	48 c7 85 18 f5 ff ff 	movq   $0x0,-0xae8(%rbp)
   19b31:	00 00 00 00 
   19b35:	48 8d 85 d4 dd ff ff 	lea    -0x222c(%rbp),%rax
   19b3c:	48 89 85 20 f5 ff ff 	mov    %rax,-0xae0(%rbp)
   19b43:	48 8d 05 76 de 00 00 	lea    0xde76(%rip),%rax        # 279c0 <g_2590>
   19b4a:	48 89 85 28 f5 ff ff 	mov    %rax,-0xad8(%rbp)
   19b51:	48 8d 85 d4 dd ff ff 	lea    -0x222c(%rbp),%rax
   19b58:	48 89 85 30 f5 ff ff 	mov    %rax,-0xad0(%rbp)
   19b5f:	48 c7 85 38 f5 ff ff 	movq   $0x0,-0xac8(%rbp)
   19b66:	00 00 00 00 
   19b6a:	48 8d 85 d4 dd ff ff 	lea    -0x222c(%rbp),%rax
   19b71:	48 89 85 40 f5 ff ff 	mov    %rax,-0xac0(%rbp)
   19b78:	48 8d 05 41 de 00 00 	lea    0xde41(%rip),%rax        # 279c0 <g_2590>
   19b7f:	48 89 85 48 f5 ff ff 	mov    %rax,-0xab8(%rbp)
   19b86:	48 8d 05 cf c4 00 00 	lea    0xc4cf(%rip),%rax        # 2605c <g_120>
   19b8d:	48 89 85 50 f5 ff ff 	mov    %rax,-0xab0(%rbp)
   19b94:	48 8d 05 c1 c4 00 00 	lea    0xc4c1(%rip),%rax        # 2605c <g_120>
   19b9b:	48 89 85 58 f5 ff ff 	mov    %rax,-0xaa8(%rbp)
   19ba2:	48 c7 85 60 f5 ff ff 	movq   $0x0,-0xaa0(%rbp)
   19ba9:	00 00 00 00 
   19bad:	48 8d 05 0c de 00 00 	lea    0xde0c(%rip),%rax        # 279c0 <g_2590>
   19bb4:	48 89 85 68 f5 ff ff 	mov    %rax,-0xa98(%rbp)
   19bbb:	48 c7 85 70 f5 ff ff 	movq   $0x0,-0xa90(%rbp)
   19bc2:	00 00 00 00 
   19bc6:	48 8d 05 f3 dd 00 00 	lea    0xddf3(%rip),%rax        # 279c0 <g_2590>
   19bcd:	48 89 85 78 f5 ff ff 	mov    %rax,-0xa88(%rbp)
   19bd4:	48 c7 85 80 f5 ff ff 	movq   $0x0,-0xa80(%rbp)
   19bdb:	00 00 00 00 
   19bdf:	48 8d 05 76 c4 00 00 	lea    0xc476(%rip),%rax        # 2605c <g_120>
   19be6:	48 89 85 88 f5 ff ff 	mov    %rax,-0xa78(%rbp)
   19bed:	48 8d 85 d4 dd ff ff 	lea    -0x222c(%rbp),%rax
   19bf4:	48 89 85 90 f5 ff ff 	mov    %rax,-0xa70(%rbp)
   19bfb:	48 c7 85 98 f5 ff ff 	movq   $0x0,-0xa68(%rbp)
   19c02:	00 00 00 00 
   19c06:	48 c7 85 a0 f5 ff ff 	movq   $0x0,-0xa60(%rbp)
   19c0d:	00 00 00 00 
   19c11:	48 8d 85 d4 dd ff ff 	lea    -0x222c(%rbp),%rax
   19c18:	48 89 85 a8 f5 ff ff 	mov    %rax,-0xa58(%rbp)
   19c1f:	48 c7 85 b0 f5 ff ff 	movq   $0x0,-0xa50(%rbp)
   19c26:	00 00 00 00 
   19c2a:	48 c7 85 b8 f5 ff ff 	movq   $0x0,-0xa48(%rbp)
   19c31:	00 00 00 00 
   19c35:	48 8d 85 d4 dd ff ff 	lea    -0x222c(%rbp),%rax
   19c3c:	48 89 85 c0 f5 ff ff 	mov    %rax,-0xa40(%rbp)
   19c43:	48 8d 05 76 dd 00 00 	lea    0xdd76(%rip),%rax        # 279c0 <g_2590>
   19c4a:	48 89 85 c8 f5 ff ff 	mov    %rax,-0xa38(%rbp)
   19c51:	48 8d 05 04 c4 00 00 	lea    0xc404(%rip),%rax        # 2605c <g_120>
   19c58:	48 89 85 d0 f5 ff ff 	mov    %rax,-0xa30(%rbp)
   19c5f:	48 8d 05 5a dd 00 00 	lea    0xdd5a(%rip),%rax        # 279c0 <g_2590>
   19c66:	48 89 85 d8 f5 ff ff 	mov    %rax,-0xa28(%rbp)
   19c6d:	48 8d 05 4c dd 00 00 	lea    0xdd4c(%rip),%rax        # 279c0 <g_2590>
   19c74:	48 89 85 e0 f5 ff ff 	mov    %rax,-0xa20(%rbp)
   19c7b:	48 8d 05 da c3 00 00 	lea    0xc3da(%rip),%rax        # 2605c <g_120>
   19c82:	48 89 85 e8 f5 ff ff 	mov    %rax,-0xa18(%rbp)
   19c89:	48 8d 05 cc c3 00 00 	lea    0xc3cc(%rip),%rax        # 2605c <g_120>
   19c90:	48 89 85 f0 f5 ff ff 	mov    %rax,-0xa10(%rbp)
   19c97:	48 8d 85 d4 dd ff ff 	lea    -0x222c(%rbp),%rax
   19c9e:	48 89 85 f8 f5 ff ff 	mov    %rax,-0xa08(%rbp)
   19ca5:	48 8d 05 b0 c3 00 00 	lea    0xc3b0(%rip),%rax        # 2605c <g_120>
   19cac:	48 89 85 00 f6 ff ff 	mov    %rax,-0xa00(%rbp)
   19cb3:	48 8d 85 d4 dd ff ff 	lea    -0x222c(%rbp),%rax
   19cba:	48 89 85 08 f6 ff ff 	mov    %rax,-0x9f8(%rbp)
   19cc1:	48 8d 05 94 c3 00 00 	lea    0xc394(%rip),%rax        # 2605c <g_120>
   19cc8:	48 89 85 10 f6 ff ff 	mov    %rax,-0x9f0(%rbp)
   19ccf:	48 c7 85 18 f6 ff ff 	movq   $0x0,-0x9e8(%rbp)
   19cd6:	00 00 00 00 
   19cda:	48 c7 85 20 f6 ff ff 	movq   $0x0,-0x9e0(%rbp)
   19ce1:	00 00 00 00 
   19ce5:	48 c7 85 28 f6 ff ff 	movq   $0x0,-0x9d8(%rbp)
   19cec:	00 00 00 00 
   19cf0:	48 c7 85 30 f6 ff ff 	movq   $0x0,-0x9d0(%rbp)
   19cf7:	00 00 00 00 
   19cfb:	48 c7 85 38 f6 ff ff 	movq   $0x0,-0x9c8(%rbp)
   19d02:	00 00 00 00 
   19d06:	48 8d 05 b3 dc 00 00 	lea    0xdcb3(%rip),%rax        # 279c0 <g_2590>
   19d0d:	48 89 85 40 f6 ff ff 	mov    %rax,-0x9c0(%rbp)
   19d14:	48 c7 85 48 f6 ff ff 	movq   $0x0,-0x9b8(%rbp)
   19d1b:	00 00 00 00 
   19d1f:	48 8d 05 9a dc 00 00 	lea    0xdc9a(%rip),%rax        # 279c0 <g_2590>
   19d26:	48 89 85 50 f6 ff ff 	mov    %rax,-0x9b0(%rbp)
   19d2d:	48 c7 85 58 f6 ff ff 	movq   $0x0,-0x9a8(%rbp)
   19d34:	00 00 00 00 
   19d38:	48 8d 05 81 dc 00 00 	lea    0xdc81(%rip),%rax        # 279c0 <g_2590>
   19d3f:	48 89 85 60 f6 ff ff 	mov    %rax,-0x9a0(%rbp)
   19d46:	48 c7 85 68 f6 ff ff 	movq   $0x0,-0x998(%rbp)
   19d4d:	00 00 00 00 
   19d51:	48 8d 05 04 c3 00 00 	lea    0xc304(%rip),%rax        # 2605c <g_120>
   19d58:	48 89 85 70 f6 ff ff 	mov    %rax,-0x990(%rbp)
   19d5f:	48 c7 85 78 f6 ff ff 	movq   $0x0,-0x988(%rbp)
   19d66:	00 00 00 00 
   19d6a:	48 c7 85 80 f6 ff ff 	movq   $0x0,-0x980(%rbp)
   19d71:	00 00 00 00 
   19d75:	48 8d 05 44 dc 00 00 	lea    0xdc44(%rip),%rax        # 279c0 <g_2590>
   19d7c:	48 89 85 88 f6 ff ff 	mov    %rax,-0x978(%rbp)
   19d83:	48 8d 05 d2 c2 00 00 	lea    0xc2d2(%rip),%rax        # 2605c <g_120>
   19d8a:	48 89 85 90 f6 ff ff 	mov    %rax,-0x970(%rbp)
   19d91:	48 8d 85 d4 dd ff ff 	lea    -0x222c(%rbp),%rax
   19d98:	48 89 85 98 f6 ff ff 	mov    %rax,-0x968(%rbp)
   19d9f:	48 8d 05 b6 c2 00 00 	lea    0xc2b6(%rip),%rax        # 2605c <g_120>
   19da6:	48 89 85 a0 f6 ff ff 	mov    %rax,-0x960(%rbp)
   19dad:	48 8d 05 0c dc 00 00 	lea    0xdc0c(%rip),%rax        # 279c0 <g_2590>
   19db4:	48 89 85 a8 f6 ff ff 	mov    %rax,-0x958(%rbp)
   19dbb:	48 8d 05 fe db 00 00 	lea    0xdbfe(%rip),%rax        # 279c0 <g_2590>
   19dc2:	48 89 85 b0 f6 ff ff 	mov    %rax,-0x950(%rbp)
   19dc9:	48 8d 05 8c c2 00 00 	lea    0xc28c(%rip),%rax        # 2605c <g_120>
   19dd0:	48 89 85 b8 f6 ff ff 	mov    %rax,-0x948(%rbp)
   19dd7:	48 c7 85 c0 f6 ff ff 	movq   $0x0,-0x940(%rbp)
   19dde:	00 00 00 00 
   19de2:	48 c7 85 c8 f6 ff ff 	movq   $0x0,-0x938(%rbp)
   19de9:	00 00 00 00 
   19ded:	48 c7 85 d0 f6 ff ff 	movq   $0x0,-0x930(%rbp)
   19df4:	00 00 00 00 
   19df8:	48 8d 85 d4 dd ff ff 	lea    -0x222c(%rbp),%rax
   19dff:	48 89 85 d8 f6 ff ff 	mov    %rax,-0x928(%rbp)
   19e06:	48 8d 05 b3 db 00 00 	lea    0xdbb3(%rip),%rax        # 279c0 <g_2590>
   19e0d:	48 89 85 e0 f6 ff ff 	mov    %rax,-0x920(%rbp)
   19e14:	48 8d 85 d4 dd ff ff 	lea    -0x222c(%rbp),%rax
   19e1b:	48 89 85 e8 f6 ff ff 	mov    %rax,-0x918(%rbp)
   19e22:	48 8d 85 d4 dd ff ff 	lea    -0x222c(%rbp),%rax
   19e29:	48 89 85 f0 f6 ff ff 	mov    %rax,-0x910(%rbp)
   19e30:	48 8d 85 d4 dd ff ff 	lea    -0x222c(%rbp),%rax
   19e37:	48 89 85 f8 f6 ff ff 	mov    %rax,-0x908(%rbp)
   19e3e:	48 8d 05 7b db 00 00 	lea    0xdb7b(%rip),%rax        # 279c0 <g_2590>
   19e45:	48 89 85 00 f7 ff ff 	mov    %rax,-0x900(%rbp)
   19e4c:	48 8d 85 d4 dd ff ff 	lea    -0x222c(%rbp),%rax
   19e53:	48 89 85 08 f7 ff ff 	mov    %rax,-0x8f8(%rbp)
   19e5a:	48 8d 05 5f db 00 00 	lea    0xdb5f(%rip),%rax        # 279c0 <g_2590>
   19e61:	48 89 85 10 f7 ff ff 	mov    %rax,-0x8f0(%rbp)
   19e68:	48 8d 05 51 db 00 00 	lea    0xdb51(%rip),%rax        # 279c0 <g_2590>
   19e6f:	48 89 85 18 f7 ff ff 	mov    %rax,-0x8e8(%rbp)
   19e76:	48 c7 85 20 f7 ff ff 	movq   $0x0,-0x8e0(%rbp)
   19e7d:	00 00 00 00 
   19e81:	48 8d 05 38 db 00 00 	lea    0xdb38(%rip),%rax        # 279c0 <g_2590>
   19e88:	48 89 85 28 f7 ff ff 	mov    %rax,-0x8d8(%rbp)
   19e8f:	48 8d 85 d4 dd ff ff 	lea    -0x222c(%rbp),%rax
   19e96:	48 89 85 30 f7 ff ff 	mov    %rax,-0x8d0(%rbp)
   19e9d:	48 8d 05 b8 c1 00 00 	lea    0xc1b8(%rip),%rax        # 2605c <g_120>
   19ea4:	48 89 85 38 f7 ff ff 	mov    %rax,-0x8c8(%rbp)
   19eab:	48 8d 05 aa c1 00 00 	lea    0xc1aa(%rip),%rax        # 2605c <g_120>
   19eb2:	48 89 85 40 f7 ff ff 	mov    %rax,-0x8c0(%rbp)
   19eb9:	48 8d 05 9c c1 00 00 	lea    0xc19c(%rip),%rax        # 2605c <g_120>
   19ec0:	48 89 85 48 f7 ff ff 	mov    %rax,-0x8b8(%rbp)
   19ec7:	48 8d 05 8e c1 00 00 	lea    0xc18e(%rip),%rax        # 2605c <g_120>
   19ece:	48 89 85 50 f7 ff ff 	mov    %rax,-0x8b0(%rbp)
   19ed5:	48 c7 85 58 f7 ff ff 	movq   $0x0,-0x8a8(%rbp)
   19edc:	00 00 00 00 
   19ee0:	48 8d 05 d9 da 00 00 	lea    0xdad9(%rip),%rax        # 279c0 <g_2590>
   19ee7:	48 89 85 60 f7 ff ff 	mov    %rax,-0x8a0(%rbp)
   19eee:	48 8d 05 cb da 00 00 	lea    0xdacb(%rip),%rax        # 279c0 <g_2590>
   19ef5:	48 89 85 68 f7 ff ff 	mov    %rax,-0x898(%rbp)
   19efc:	48 8d 85 d4 dd ff ff 	lea    -0x222c(%rbp),%rax
   19f03:	48 89 85 70 f7 ff ff 	mov    %rax,-0x890(%rbp)
   19f0a:	48 c7 85 78 f7 ff ff 	movq   $0x0,-0x888(%rbp)
   19f11:	00 00 00 00 
   19f15:	48 8d 85 d4 dd ff ff 	lea    -0x222c(%rbp),%rax
   19f1c:	48 89 85 80 f7 ff ff 	mov    %rax,-0x880(%rbp)
   19f23:	48 8d 85 d4 dd ff ff 	lea    -0x222c(%rbp),%rax
   19f2a:	48 89 85 88 f7 ff ff 	mov    %rax,-0x878(%rbp)
   19f31:	48 8d 85 d4 dd ff ff 	lea    -0x222c(%rbp),%rax
   19f38:	48 89 85 90 f7 ff ff 	mov    %rax,-0x870(%rbp)
   19f3f:	48 c7 85 98 f7 ff ff 	movq   $0x0,-0x868(%rbp)
   19f46:	00 00 00 00 
   19f4a:	48 c7 85 a0 f7 ff ff 	movq   $0x0,-0x860(%rbp)
   19f51:	00 00 00 00 
   19f55:	48 8d 85 d4 dd ff ff 	lea    -0x222c(%rbp),%rax
   19f5c:	48 89 85 a8 f7 ff ff 	mov    %rax,-0x858(%rbp)
   19f63:	48 8d 05 f2 c0 00 00 	lea    0xc0f2(%rip),%rax        # 2605c <g_120>
   19f6a:	48 89 85 b0 f7 ff ff 	mov    %rax,-0x850(%rbp)
   19f71:	48 8d 85 d4 dd ff ff 	lea    -0x222c(%rbp),%rax
   19f78:	48 89 85 b8 f7 ff ff 	mov    %rax,-0x848(%rbp)
   19f7f:	48 c7 85 c0 f7 ff ff 	movq   $0x0,-0x840(%rbp)
   19f86:	00 00 00 00 
   19f8a:	48 8d 85 d4 dd ff ff 	lea    -0x222c(%rbp),%rax
   19f91:	48 89 85 c8 f7 ff ff 	mov    %rax,-0x838(%rbp)
   19f98:	48 8d 85 d4 dd ff ff 	lea    -0x222c(%rbp),%rax
   19f9f:	48 89 85 d0 f7 ff ff 	mov    %rax,-0x830(%rbp)
   19fa6:	48 8d 05 af c0 00 00 	lea    0xc0af(%rip),%rax        # 2605c <g_120>
   19fad:	48 89 85 d8 f7 ff ff 	mov    %rax,-0x828(%rbp)
   19fb4:	48 c7 85 e0 f7 ff ff 	movq   $0x0,-0x820(%rbp)
   19fbb:	00 00 00 00 
   19fbf:	48 8d 85 d4 dd ff ff 	lea    -0x222c(%rbp),%rax
   19fc6:	48 89 85 e8 f7 ff ff 	mov    %rax,-0x818(%rbp)
   19fcd:	48 8d 05 88 c0 00 00 	lea    0xc088(%rip),%rax        # 2605c <g_120>
   19fd4:	48 89 85 f0 f7 ff ff 	mov    %rax,-0x810(%rbp)
   19fdb:	48 8d 05 7a c0 00 00 	lea    0xc07a(%rip),%rax        # 2605c <g_120>
   19fe2:	48 89 85 f8 f7 ff ff 	mov    %rax,-0x808(%rbp)
   19fe9:	48 8d 85 d4 dd ff ff 	lea    -0x222c(%rbp),%rax
   19ff0:	48 89 85 00 f8 ff ff 	mov    %rax,-0x800(%rbp)
   19ff7:	48 8d 05 5e c0 00 00 	lea    0xc05e(%rip),%rax        # 2605c <g_120>
   19ffe:	48 89 85 08 f8 ff ff 	mov    %rax,-0x7f8(%rbp)
   1a005:	48 8d 05 50 c0 00 00 	lea    0xc050(%rip),%rax        # 2605c <g_120>
   1a00c:	48 89 85 10 f8 ff ff 	mov    %rax,-0x7f0(%rbp)
   1a013:	48 8d 05 42 c0 00 00 	lea    0xc042(%rip),%rax        # 2605c <g_120>
   1a01a:	48 89 85 18 f8 ff ff 	mov    %rax,-0x7e8(%rbp)
   1a021:	48 8d 85 d4 dd ff ff 	lea    -0x222c(%rbp),%rax
   1a028:	48 89 85 20 f8 ff ff 	mov    %rax,-0x7e0(%rbp)
   1a02f:	48 8d 05 26 c0 00 00 	lea    0xc026(%rip),%rax        # 2605c <g_120>
   1a036:	48 89 85 28 f8 ff ff 	mov    %rax,-0x7d8(%rbp)
   1a03d:	48 c7 85 30 f8 ff ff 	movq   $0x0,-0x7d0(%rbp)
   1a044:	00 00 00 00 
   1a048:	48 8d 05 0d c0 00 00 	lea    0xc00d(%rip),%rax        # 2605c <g_120>
   1a04f:	48 89 85 38 f8 ff ff 	mov    %rax,-0x7c8(%rbp)
   1a056:	48 8d 95 80 e2 ff ff 	lea    -0x1d80(%rbp),%rdx
   1a05d:	b8 00 00 00 00       	mov    $0x0,%eax
   1a062:	b9 0c 00 00 00       	mov    $0xc,%ecx
   1a067:	48 89 d7             	mov    %rdx,%rdi
   1a06a:	f3 48 ab             	rep stos %rax,%es:(%rdi)
   1a06d:	c7 85 c8 de ff ff 8e 	movl   $0x87bf668e,-0x2138(%rbp)
   1a074:	66 bf 87 
   1a077:	c7 85 cc de ff ff 08 	movl   $0x8,-0x2134(%rbp)
   1a07e:	00 00 00 
   1a081:	c7 85 d0 de ff ff 01 	movl   $0x1,-0x2130(%rbp)
   1a088:	00 00 00 
   1a08b:	66 c7 85 cc dd ff ff 	movw   $0xfff7,-0x2234(%rbp)
   1a092:	f7 ff 
   1a094:	48 c7 85 60 e1 ff ff 	movq   $0xffffffffffffffff,-0x1ea0(%rbp)
   1a09b:	ff ff ff ff 
   1a09f:	48 8d 05 22 db 00 00 	lea    0xdb22(%rip),%rax        # 27bc8 <g_3204+0x188>
   1a0a6:	48 89 85 68 e1 ff ff 	mov    %rax,-0x1e98(%rbp)
   1a0ad:	48 8d 05 44 12 01 00 	lea    0x11244(%rip),%rax        # 2b2f8 <g_197>
   1a0b4:	48 89 85 70 e1 ff ff 	mov    %rax,-0x1e90(%rbp)
   1a0bb:	c7 85 d4 de ff ff 00 	movl   $0x0,-0x212c(%rbp)
   1a0c2:	00 00 00 
   1a0c5:	48 c7 85 00 e2 ff ff 	movq   $0x0,-0x1e00(%rbp)
   1a0cc:	00 00 00 00 
   1a0d0:	48 c7 85 08 e2 ff ff 	movq   $0x0,-0x1df8(%rbp)
   1a0d7:	00 00 00 00 
   1a0db:	48 c7 85 10 e2 ff ff 	movq   $0x0,-0x1df0(%rbp)
   1a0e2:	00 00 00 00 
   1a0e6:	48 c7 85 18 e2 ff ff 	movq   $0x0,-0x1de8(%rbp)
   1a0ed:	00 00 00 00 
   1a0f1:	48 c7 85 20 e2 ff ff 	movq   $0x0,-0x1de0(%rbp)
   1a0f8:	00 00 00 00 
   1a0fc:	48 8d 85 40 f8 ff ff 	lea    -0x7c0(%rbp),%rax
   1a103:	48 8d 15 d6 05 01 00 	lea    0x105d6(%rip),%rdx        # 2a6e0 <g_4305+0x1cb8>
   1a10a:	b9 f0 00 00 00       	mov    $0xf0,%ecx
   1a10f:	48 89 c7             	mov    %rax,%rdi
   1a112:	48 89 d6             	mov    %rdx,%rsi
   1a115:	f3 48 a5             	rep movsq %ds:(%rsi),%es:(%rdi)
   1a118:	48 8d 05 71 18 01 00 	lea    0x11871(%rip),%rax        # 2b990 <g_834>
   1a11f:	48 89 85 78 e1 ff ff 	mov    %rax,-0x1e88(%rbp)
   1a126:	48 8d 05 c3 15 01 00 	lea    0x115c3(%rip),%rax        # 2b6f0 <g_554+0x70>
   1a12d:	48 89 85 80 e1 ff ff 	mov    %rax,-0x1e80(%rbp)
   1a134:	83 ad c4 de ff ff 01 	subl   $0x1,-0x213c(%rbp)
   1a13b:	48 8b 85 30 e2 ff ff 	mov    -0x1dd0(%rbp),%rax
   1a142:	0f b7 c0             	movzwl %ax,%eax
   1a145:	be 08 00 00 00       	mov    $0x8,%esi
   1a14a:	89 c7                	mov    %eax,%edi
   1a14c:	e8 f7 6c ff ff       	callq  10e48 <safe_rshift_func_uint16_t_u_s>
   1a151:	0f b7 c0             	movzwl %ax,%eax
   1a154:	48 89 85 90 df ff ff 	mov    %rax,-0x2070(%rbp)
   1a15b:	c7 05 fb be 00 00 00 	movl   $0x0,0xbefb(%rip)        # 26060 <g_121>
   1a162:	00 00 00 
   1a165:	e9 f6 00 00 00       	jmpq   1a260 <func_23+0x4d50>
   1a16a:	48 8d 05 eb be 00 00 	lea    0xbeeb(%rip),%rax        # 2605c <g_120>
   1a171:	48 89 85 98 e1 ff ff 	mov    %rax,-0x1e68(%rbp)
   1a178:	c7 85 28 df ff ff 00 	movl   $0x0,-0x20d8(%rbp)
   1a17f:	00 00 00 
   1a182:	c7 85 dc de ff ff 48 	movl   $0x13b1e548,-0x2124(%rbp)
   1a189:	e5 b1 13 
   1a18c:	66 c7 85 ce dd ff ff 	movw   $0xea73,-0x2232(%rbp)
   1a193:	73 ea 
   1a195:	66 c7 85 b8 e1 ff ff 	movw   $0xfcfc,-0x1e48(%rbp)
   1a19c:	fc fc 
   1a19e:	66 c7 85 ba e1 ff ff 	movw   $0xfcfc,-0x1e46(%rbp)
   1a1a5:	fc fc 
   1a1a7:	c7 85 e0 de ff ff ff 	movl   $0xffffffff,-0x2120(%rbp)
   1a1ae:	ff ff ff 
   1a1b1:	48 8d 05 40 18 01 00 	lea    0x11840(%rip),%rax        # 2b9f8 <g_908>
   1a1b8:	48 89 85 a0 e1 ff ff 	mov    %rax,-0x1e60(%rbp)
   1a1bf:	48 c7 85 a8 e1 ff ff 	movq   $0x3,-0x1e58(%rbp)
   1a1c6:	03 00 00 00 
   1a1ca:	c7 85 c0 e1 ff ff 0c 	movl   $0x229d20c,-0x1e40(%rbp)
   1a1d1:	d2 29 02 
   1a1d4:	c7 85 c4 e1 ff ff 0c 	movl   $0x229d20c,-0x1e3c(%rbp)
   1a1db:	d2 29 02 
   1a1de:	c7 85 c8 e1 ff ff 0c 	movl   $0x229d20c,-0x1e38(%rbp)
   1a1e5:	d2 29 02 
   1a1e8:	c7 85 cc e1 ff ff 0c 	movl   $0x229d20c,-0x1e34(%rbp)
   1a1ef:	d2 29 02 
   1a1f2:	c7 85 d0 e1 ff ff 0c 	movl   $0x229d20c,-0x1e30(%rbp)
   1a1f9:	d2 29 02 
   1a1fc:	c7 85 d4 e1 ff ff 0c 	movl   $0x229d20c,-0x1e2c(%rbp)
   1a203:	d2 29 02 
   1a206:	48 8d 85 28 df ff ff 	lea    -0x20d8(%rbp),%rax
   1a20d:	48 89 85 b0 e1 ff ff 	mov    %rax,-0x1e50(%rbp)
   1a214:	c7 85 e4 de ff ff fa 	movl   $0xfffffffa,-0x211c(%rbp)
   1a21b:	ff ff ff 
   1a21e:	c7 85 10 de ff ff 00 	movl   $0x0,-0x21f0(%rbp)
   1a225:	00 00 00 
   1a228:	eb 1e                	jmp    1a248 <func_23+0x4d38>
   1a22a:	8b 85 10 de ff ff    	mov    -0x21f0(%rbp),%eax
   1a230:	48 98                	cltq   
   1a232:	48 8d 15 5f d7 00 00 	lea    0xd75f(%rip),%rdx        # 27998 <g_1678>
   1a239:	48 89 94 c5 60 e3 ff 	mov    %rdx,-0x1ca0(%rbp,%rax,8)
   1a240:	ff 
   1a241:	83 85 10 de ff ff 01 	addl   $0x1,-0x21f0(%rbp)
   1a248:	83 bd 10 de ff ff 02 	cmpl   $0x2,-0x21f0(%rbp)
   1a24f:	7e d9                	jle    1a22a <func_23+0x4d1a>
   1a251:	8b 05 09 be 00 00    	mov    0xbe09(%rip),%eax        # 26060 <g_121>
   1a257:	83 c0 01             	add    $0x1,%eax
   1a25a:	89 05 00 be 00 00    	mov    %eax,0xbe00(%rip)        # 26060 <g_121>
   1a260:	8b 05 fa bd 00 00    	mov    0xbdfa(%rip),%eax        # 26060 <g_121>
   1a266:	83 f8 14             	cmp    $0x14,%eax
   1a269:	0f 87 fb fe ff ff    	ja     1a16a <func_23+0x4c5a>
   1a26f:	48 8b 95 20 fc ff ff 	mov    -0x3e0(%rbp),%rdx
   1a276:	48 8b 85 20 fc ff ff 	mov    -0x3e0(%rbp),%rax
   1a27d:	48 89 05 64 2c 01 00 	mov    %rax,0x12c64(%rip)        # 2cee8 <g_3266>
   1a284:	48 8b 05 5d 2c 01 00 	mov    0x12c5d(%rip),%rax        # 2cee8 <g_3266>
   1a28b:	48 39 c2             	cmp    %rax,%rdx
   1a28e:	0f 84 35 04 00 00    	je     1a6c9 <func_23+0x51b9>
   1a294:	48 c7 85 88 e1 ff ff 	movq   $0x4,-0x1e78(%rbp)
   1a29b:	04 00 00 00 
   1a29f:	48 c7 85 30 df ff ff 	movq   $0x0,-0x20d0(%rbp)
   1a2a6:	00 00 00 00 
   1a2aa:	e9 ec 03 00 00       	jmpq   1a69b <func_23+0x518b>
   1a2af:	48 c7 85 90 e1 ff ff 	movq   $0x0,-0x1e70(%rbp)
   1a2b6:	00 00 00 00 
   1a2ba:	48 8d 05 cf 16 01 00 	lea    0x116cf(%rip),%rax        # 2b990 <g_834>
   1a2c1:	48 89 85 28 df ff ff 	mov    %rax,-0x20d8(%rbp)
   1a2c8:	48 8d 85 28 df ff ff 	lea    -0x20d8(%rbp),%rax
   1a2cf:	48 89 85 60 e3 ff ff 	mov    %rax,-0x1ca0(%rbp)
   1a2d6:	48 8d 85 28 df ff ff 	lea    -0x20d8(%rbp),%rax
   1a2dd:	48 89 85 68 e3 ff ff 	mov    %rax,-0x1c98(%rbp)
   1a2e4:	48 8d 85 28 df ff ff 	lea    -0x20d8(%rbp),%rax
   1a2eb:	48 89 85 70 e3 ff ff 	mov    %rax,-0x1c90(%rbp)
   1a2f2:	48 8d 85 28 df ff ff 	lea    -0x20d8(%rbp),%rax
   1a2f9:	48 89 85 78 e3 ff ff 	mov    %rax,-0x1c88(%rbp)
   1a300:	48 8d 85 28 df ff ff 	lea    -0x20d8(%rbp),%rax
   1a307:	48 89 85 80 e3 ff ff 	mov    %rax,-0x1c80(%rbp)
   1a30e:	48 8d 85 28 df ff ff 	lea    -0x20d8(%rbp),%rax
   1a315:	48 89 85 88 e3 ff ff 	mov    %rax,-0x1c78(%rbp)
   1a31c:	48 8d 85 28 df ff ff 	lea    -0x20d8(%rbp),%rax
   1a323:	48 89 85 90 e3 ff ff 	mov    %rax,-0x1c70(%rbp)
   1a32a:	48 8d 85 28 df ff ff 	lea    -0x20d8(%rbp),%rax
   1a331:	48 89 85 98 e3 ff ff 	mov    %rax,-0x1c68(%rbp)
   1a338:	48 8d 85 28 df ff ff 	lea    -0x20d8(%rbp),%rax
   1a33f:	48 89 85 a0 e3 ff ff 	mov    %rax,-0x1c60(%rbp)
   1a346:	48 8d 85 28 df ff ff 	lea    -0x20d8(%rbp),%rax
   1a34d:	48 89 85 a8 e3 ff ff 	mov    %rax,-0x1c58(%rbp)
   1a354:	48 8d 85 28 df ff ff 	lea    -0x20d8(%rbp),%rax
   1a35b:	48 89 85 b0 e3 ff ff 	mov    %rax,-0x1c50(%rbp)
   1a362:	48 8d 85 28 df ff ff 	lea    -0x20d8(%rbp),%rax
   1a369:	48 89 85 b8 e3 ff ff 	mov    %rax,-0x1c48(%rbp)
   1a370:	48 8d 85 28 df ff ff 	lea    -0x20d8(%rbp),%rax
   1a377:	48 89 85 c0 e3 ff ff 	mov    %rax,-0x1c40(%rbp)
   1a37e:	48 8d 85 28 df ff ff 	lea    -0x20d8(%rbp),%rax
   1a385:	48 89 85 c8 e3 ff ff 	mov    %rax,-0x1c38(%rbp)
   1a38c:	48 8d 85 28 df ff ff 	lea    -0x20d8(%rbp),%rax
   1a393:	48 89 85 d0 e3 ff ff 	mov    %rax,-0x1c30(%rbp)
   1a39a:	48 8d 85 28 df ff ff 	lea    -0x20d8(%rbp),%rax
   1a3a1:	48 89 85 d8 e3 ff ff 	mov    %rax,-0x1c28(%rbp)
   1a3a8:	48 8d 85 28 df ff ff 	lea    -0x20d8(%rbp),%rax
   1a3af:	48 89 85 e0 e3 ff ff 	mov    %rax,-0x1c20(%rbp)
   1a3b6:	48 8d 85 28 df ff ff 	lea    -0x20d8(%rbp),%rax
   1a3bd:	48 89 85 e8 e3 ff ff 	mov    %rax,-0x1c18(%rbp)
   1a3c4:	48 8d 85 28 df ff ff 	lea    -0x20d8(%rbp),%rax
   1a3cb:	48 89 85 f0 e3 ff ff 	mov    %rax,-0x1c10(%rbp)
   1a3d2:	48 8d 85 28 df ff ff 	lea    -0x20d8(%rbp),%rax
   1a3d9:	48 89 85 f8 e3 ff ff 	mov    %rax,-0x1c08(%rbp)
   1a3e0:	48 8d 85 28 df ff ff 	lea    -0x20d8(%rbp),%rax
   1a3e7:	48 89 85 00 e4 ff ff 	mov    %rax,-0x1c00(%rbp)
   1a3ee:	48 8d 85 28 df ff ff 	lea    -0x20d8(%rbp),%rax
   1a3f5:	48 89 85 08 e4 ff ff 	mov    %rax,-0x1bf8(%rbp)
   1a3fc:	48 8d 85 28 df ff ff 	lea    -0x20d8(%rbp),%rax
   1a403:	48 89 85 10 e4 ff ff 	mov    %rax,-0x1bf0(%rbp)
   1a40a:	48 8d 85 28 df ff ff 	lea    -0x20d8(%rbp),%rax
   1a411:	48 89 85 18 e4 ff ff 	mov    %rax,-0x1be8(%rbp)
   1a418:	48 8d 85 28 df ff ff 	lea    -0x20d8(%rbp),%rax
   1a41f:	48 89 85 20 e4 ff ff 	mov    %rax,-0x1be0(%rbp)
   1a426:	48 8d 85 28 df ff ff 	lea    -0x20d8(%rbp),%rax
   1a42d:	48 89 85 28 e4 ff ff 	mov    %rax,-0x1bd8(%rbp)
   1a434:	48 8d 85 28 df ff ff 	lea    -0x20d8(%rbp),%rax
   1a43b:	48 89 85 30 e4 ff ff 	mov    %rax,-0x1bd0(%rbp)
   1a442:	48 8d 85 28 df ff ff 	lea    -0x20d8(%rbp),%rax
   1a449:	48 89 85 38 e4 ff ff 	mov    %rax,-0x1bc8(%rbp)
   1a450:	48 8d 85 28 df ff ff 	lea    -0x20d8(%rbp),%rax
   1a457:	48 89 85 40 e4 ff ff 	mov    %rax,-0x1bc0(%rbp)
   1a45e:	48 8d 85 28 df ff ff 	lea    -0x20d8(%rbp),%rax
   1a465:	48 89 85 48 e4 ff ff 	mov    %rax,-0x1bb8(%rbp)
   1a46c:	48 8d 85 28 df ff ff 	lea    -0x20d8(%rbp),%rax
   1a473:	48 89 85 50 e4 ff ff 	mov    %rax,-0x1bb0(%rbp)
   1a47a:	48 8d 85 28 df ff ff 	lea    -0x20d8(%rbp),%rax
   1a481:	48 89 85 58 e4 ff ff 	mov    %rax,-0x1ba8(%rbp)
   1a488:	48 8d 85 28 df ff ff 	lea    -0x20d8(%rbp),%rax
   1a48f:	48 89 85 60 e4 ff ff 	mov    %rax,-0x1ba0(%rbp)
   1a496:	48 8d 85 28 df ff ff 	lea    -0x20d8(%rbp),%rax
   1a49d:	48 89 85 68 e4 ff ff 	mov    %rax,-0x1b98(%rbp)
   1a4a4:	48 8d 85 28 df ff ff 	lea    -0x20d8(%rbp),%rax
   1a4ab:	48 89 85 70 e4 ff ff 	mov    %rax,-0x1b90(%rbp)
   1a4b2:	48 8d 85 28 df ff ff 	lea    -0x20d8(%rbp),%rax
   1a4b9:	48 89 85 78 e4 ff ff 	mov    %rax,-0x1b88(%rbp)
   1a4c0:	48 8d 85 28 df ff ff 	lea    -0x20d8(%rbp),%rax
   1a4c7:	48 89 85 80 e4 ff ff 	mov    %rax,-0x1b80(%rbp)
   1a4ce:	48 8d 85 28 df ff ff 	lea    -0x20d8(%rbp),%rax
   1a4d5:	48 89 85 88 e4 ff ff 	mov    %rax,-0x1b78(%rbp)
   1a4dc:	48 8d 85 28 df ff ff 	lea    -0x20d8(%rbp),%rax
   1a4e3:	48 89 85 90 e4 ff ff 	mov    %rax,-0x1b70(%rbp)
   1a4ea:	48 8d 85 28 df ff ff 	lea    -0x20d8(%rbp),%rax
   1a4f1:	48 89 85 98 e4 ff ff 	mov    %rax,-0x1b68(%rbp)
   1a4f8:	48 8d 85 28 df ff ff 	lea    -0x20d8(%rbp),%rax
   1a4ff:	48 89 85 a0 e4 ff ff 	mov    %rax,-0x1b60(%rbp)
   1a506:	48 8d 85 28 df ff ff 	lea    -0x20d8(%rbp),%rax
   1a50d:	48 89 85 a8 e4 ff ff 	mov    %rax,-0x1b58(%rbp)
   1a514:	48 8d 85 28 df ff ff 	lea    -0x20d8(%rbp),%rax
   1a51b:	48 89 85 b0 e4 ff ff 	mov    %rax,-0x1b50(%rbp)
   1a522:	48 8d 85 28 df ff ff 	lea    -0x20d8(%rbp),%rax
   1a529:	48 89 85 b8 e4 ff ff 	mov    %rax,-0x1b48(%rbp)
   1a530:	48 8d 85 28 df ff ff 	lea    -0x20d8(%rbp),%rax
   1a537:	48 89 85 c0 e4 ff ff 	mov    %rax,-0x1b40(%rbp)
   1a53e:	48 8d 85 28 df ff ff 	lea    -0x20d8(%rbp),%rax
   1a545:	48 89 85 c8 e4 ff ff 	mov    %rax,-0x1b38(%rbp)
   1a54c:	48 8d 85 28 df ff ff 	lea    -0x20d8(%rbp),%rax
   1a553:	48 89 85 d0 e4 ff ff 	mov    %rax,-0x1b30(%rbp)
   1a55a:	48 8d 85 28 df ff ff 	lea    -0x20d8(%rbp),%rax
   1a561:	48 89 85 d8 e4 ff ff 	mov    %rax,-0x1b28(%rbp)
   1a568:	48 8d 85 28 df ff ff 	lea    -0x20d8(%rbp),%rax
   1a56f:	48 89 85 e0 e4 ff ff 	mov    %rax,-0x1b20(%rbp)
   1a576:	48 8d 85 28 df ff ff 	lea    -0x20d8(%rbp),%rax
   1a57d:	48 89 85 e8 e4 ff ff 	mov    %rax,-0x1b18(%rbp)
   1a584:	c7 85 d8 de ff ff fc 	movl   $0xfffffffc,-0x2128(%rbp)
   1a58b:	ff ff ff 
   1a58e:	48 8b 05 fb 14 01 00 	mov    0x114fb(%rip),%rax        # 2ba90 <g_969>
   1a595:	0f b6 95 ac dd ff ff 	movzbl -0x2254(%rbp),%edx
   1a59c:	88 10                	mov    %dl,(%rax)
   1a59e:	0f b6 10             	movzbl (%rax),%edx
   1a5a1:	0f b6 85 ac dd ff ff 	movzbl -0x2254(%rbp),%eax
   1a5a8:	09 c2                	or     %eax,%edx
   1a5aa:	48 8b 85 f0 de ff ff 	mov    -0x2110(%rbp),%rax
   1a5b1:	0f b6 d2             	movzbl %dl,%edx
   1a5b4:	66 89 10             	mov    %dx,(%rax)
   1a5b7:	0f b7 00             	movzwl (%rax),%eax
   1a5ba:	66 85 c0             	test   %ax,%ax
   1a5bd:	0f 85 92 00 00 00    	jne    1a655 <func_23+0x5145>
   1a5c3:	48 8d 05 c6 13 01 00 	lea    0x113c6(%rip),%rax        # 2b990 <g_834>
   1a5ca:	48 89 85 78 e1 ff ff 	mov    %rax,-0x1e88(%rbp)
   1a5d1:	be 04 00 00 00       	mov    $0x4,%esi
   1a5d6:	bf 8b ff ff ff       	mov    $0xffffff8b,%edi
   1a5db:	e8 55 5d ff ff       	callq  10335 <safe_rshift_func_int8_t_s_s>
   1a5e0:	48 8b 85 70 e1 ff ff 	mov    -0x1e90(%rbp),%rax
   1a5e7:	48 8b 00             	mov    (%rax),%rax
   1a5ea:	8b 10                	mov    (%rax),%edx
   1a5ec:	48 83 bd 80 e1 ff ff 	cmpq   $0x0,-0x1e80(%rbp)
   1a5f3:	00 
   1a5f4:	0f 95 c0             	setne  %al
   1a5f7:	0f b6 c0             	movzbl %al,%eax
   1a5fa:	39 c2                	cmp    %eax,%edx
   1a5fc:	0f 9e c0             	setle  %al
   1a5ff:	0f b6 c0             	movzbl %al,%eax
   1a602:	89 c6                	mov    %eax,%esi
   1a604:	bf ff 00 00 00       	mov    $0xff,%edi
   1a609:	e8 85 65 ff ff       	callq  10b93 <safe_mul_func_uint8_t_u_u>
   1a60e:	3c 01                	cmp    $0x1,%al
   1a610:	0f 97 c0             	seta   %al
   1a613:	0f b6 c0             	movzbl %al,%eax
   1a616:	39 85 d8 de ff ff    	cmp    %eax,-0x2128(%rbp)
   1a61c:	0f 9f c0             	setg   %al
   1a61f:	89 c2                	mov    %eax,%edx
   1a621:	48 8b 05 60 13 01 00 	mov    0x11360(%rip),%rax        # 2b988 <g_835>
   1a628:	48 8b 00             	mov    (%rax),%rax
   1a62b:	8b 00                	mov    (%rax),%eax
   1a62d:	31 d0                	xor    %edx,%eax
   1a62f:	0f b6 c0             	movzbl %al,%eax
   1a632:	be fb 00 00 00       	mov    $0xfb,%esi
   1a637:	89 c7                	mov    %eax,%edi
   1a639:	e8 70 65 ff ff       	callq  10bae <safe_mod_func_uint8_t_u_u>
   1a63e:	89 c2                	mov    %eax,%edx
   1a640:	48 8d 05 01 c6 00 00 	lea    0xc601(%rip),%rax        # 26c48 <g_556>
   1a647:	0f b6 d2             	movzbl %dl,%edx
   1a64a:	66 89 10             	mov    %dx,(%rax)
   1a64d:	0f b7 00             	movzwl (%rax),%eax
   1a650:	66 85 c0             	test   %ax,%ax
   1a653:	74 07                	je     1a65c <func_23+0x514c>
   1a655:	b9 01 00 00 00       	mov    $0x1,%ecx
   1a65a:	eb 05                	jmp    1a661 <func_23+0x5151>
   1a65c:	b9 00 00 00 00       	mov    $0x0,%ecx
   1a661:	48 8b 05 40 14 01 00 	mov    0x11440(%rip),%rax        # 2baa8 <g_1228>
   1a668:	8b 10                	mov    (%rax),%edx
   1a66a:	48 8b 05 37 14 01 00 	mov    0x11437(%rip),%rax        # 2baa8 <g_1228>
   1a671:	21 ca                	and    %ecx,%edx
   1a673:	89 10                	mov    %edx,(%rax)
   1a675:	8b 85 a8 dd ff ff    	mov    -0x2258(%rbp),%eax
   1a67b:	85 c0                	test   %eax,%eax
   1a67d:	75 2c                	jne    1a6ab <func_23+0x519b>
   1a67f:	48 8b 85 30 df ff ff 	mov    -0x20d0(%rbp),%rax
   1a686:	be 07 00 00 00       	mov    $0x7,%esi
   1a68b:	89 c7                	mov    %eax,%edi
   1a68d:	e8 26 68 ff ff       	callq  10eb8 <safe_add_func_uint32_t_u_u>
   1a692:	89 c0                	mov    %eax,%eax
   1a694:	48 89 85 30 df ff ff 	mov    %rax,-0x20d0(%rbp)
   1a69b:	48 83 bd 30 df ff ff 	cmpq   $0x31,-0x20d0(%rbp)
   1a6a2:	31 
   1a6a3:	0f 87 06 fc ff ff    	ja     1a2af <func_23+0x4d9f>
   1a6a9:	eb 01                	jmp    1a6ac <func_23+0x519c>
   1a6ab:	90                   	nop
   1a6ac:	48 8b 05 85 0c 01 00 	mov    0x10c85(%rip),%rax        # 2b338 <g_380>
   1a6b3:	48 8d 95 a8 dd ff ff 	lea    -0x2258(%rbp),%rdx
   1a6ba:	48 89 10             	mov    %rdx,(%rax)
   1a6bd:	48 83 bd 88 e1 ff ff 	cmpq   $0x0,-0x1e78(%rbp)
   1a6c4:	00 
   1a6c5:	74 12                	je     1a6d9 <func_23+0x51c9>
   1a6c7:	eb 3f                	jmp    1a708 <func_23+0x51f8>
   1a6c9:	c6 85 bd dd ff ff 04 	movb   $0x4,-0x2243(%rbp)
   1a6d0:	80 bd bd dd ff ff 00 	cmpb   $0x0,-0x2243(%rbp)
   1a6d7:	75 2e                	jne    1a707 <func_23+0x51f7>
   1a6d9:	48 8b 05 00 c5 00 00 	mov    0xc500(%rip),%rax        # 26be0 <g_238>
   1a6e0:	be 05 00 00 00       	mov    $0x5,%esi
   1a6e5:	48 89 c7             	mov    %rax,%rdi
   1a6e8:	e8 41 69 ff ff       	callq  1102e <safe_add_func_uint64_t_u_u>
   1a6ed:	48 89 05 ec c4 00 00 	mov    %rax,0xc4ec(%rip)        # 26be0 <g_238>
   1a6f4:	48 8b 05 e5 c4 00 00 	mov    0xc4e5(%rip),%rax        # 26be0 <g_238>
   1a6fb:	48 83 f8 2b          	cmp    $0x2b,%rax
   1a6ff:	0f 86 62 ec ff ff    	jbe    19367 <func_23+0x3e57>
   1a705:	eb 01                	jmp    1a708 <func_23+0x51f8>
   1a707:	90                   	nop
   1a708:	48 8b 85 40 df ff ff 	mov    -0x20c0(%rbp),%rax
   1a70f:	8b 00                	mov    (%rax),%eax
   1a711:	48 8b 5d c8          	mov    -0x38(%rbp),%rbx
   1a715:	64 48 33 1c 25 28 00 	xor    %fs:0x28,%rbx
   1a71c:	00 00 
   1a71e:	74 05                	je     1a725 <func_23+0x5215>
   1a720:	e8 4b 59 ff ff       	callq  10070 <__stack_chk_fail@plt>
   1a725:	48 81 c4 38 22 00 00 	add    $0x2238,%rsp
   1a72c:	5b                   	pop    %rbx
   1a72d:	41 5c                	pop    %r12
   1a72f:	41 5d                	pop    %r13
   1a731:	41 5e                	pop    %r14
   1a733:	41 5f                	pop    %r15
   1a735:	5d                   	pop    %rbp
   1a736:	c3                   	retq   

000000000001a737 <func_49>:
   1a737:	f3 0f 1e fa          	endbr64 
   1a73b:	55                   	push   %rbp
   1a73c:	48 89 e5             	mov    %rsp,%rbp
   1a73f:	41 57                	push   %r15
   1a741:	41 56                	push   %r14
   1a743:	41 55                	push   %r13
   1a745:	41 54                	push   %r12
   1a747:	53                   	push   %rbx
   1a748:	48 81 ec e8 00 00 00 	sub    $0xe8,%rsp
   1a74f:	48 89 bd 08 ff ff ff 	mov    %rdi,-0xf8(%rbp)
   1a756:	48 89 b5 00 ff ff ff 	mov    %rsi,-0x100(%rbp)
   1a75d:	48 89 95 f8 fe ff ff 	mov    %rdx,-0x108(%rbp)
   1a764:	89 c8                	mov    %ecx,%eax
   1a766:	66 89 85 f4 fe ff ff 	mov    %ax,-0x10c(%rbp)
   1a76d:	64 48 8b 04 25 28 00 	mov    %fs:0x28,%rax
   1a774:	00 00 
   1a776:	48 89 45 c8          	mov    %rax,-0x38(%rbp)
   1a77a:	31 c0                	xor    %eax,%eax
   1a77c:	c7 85 1c ff ff ff 16 	movl   $0x67afff16,-0xe4(%rbp)
   1a783:	ff af 67 
   1a786:	48 8d 05 9b b8 00 00 	lea    0xb89b(%rip),%rax        # 26028 <g_34>
   1a78d:	48 89 85 58 ff ff ff 	mov    %rax,-0xa8(%rbp)
   1a794:	48 8d 05 0d d2 00 00 	lea    0xd20d(%rip),%rax        # 279a8 <g_2181>
   1a79b:	48 89 85 60 ff ff ff 	mov    %rax,-0xa0(%rbp)
   1a7a2:	48 8d 05 47 12 01 00 	lea    0x11247(%rip),%rax        # 2b9f0 <g_909>
   1a7a9:	48 89 85 38 ff ff ff 	mov    %rax,-0xc8(%rbp)
   1a7b0:	48 83 bd 00 ff ff ff 	cmpq   $0x0,-0x100(%rbp)
   1a7b7:	00 
   1a7b8:	0f 95 c0             	setne  %al
   1a7bb:	0f b6 c0             	movzbl %al,%eax
   1a7be:	89 85 1c ff ff ff    	mov    %eax,-0xe4(%rbp)
   1a7c4:	48 8b 05 d5 12 01 00 	mov    0x112d5(%rip),%rax        # 2baa0 <g_1121>
   1a7cb:	48 8b 00             	mov    (%rax),%rax
   1a7ce:	48 8b 18             	mov    (%rax),%rbx
   1a7d1:	48 8b 05 68 0b 01 00 	mov    0x10b68(%rip),%rax        # 2b340 <g_379>
   1a7d8:	48 8b 00             	mov    (%rax),%rax
   1a7db:	4c 8b 28             	mov    (%rax),%r13
   1a7de:	48 8d 05 63 c4 00 00 	lea    0xc463(%rip),%rax        # 26c48 <g_556>
   1a7e5:	0f b7 00             	movzwl (%rax),%eax
   1a7e8:	44 0f bf e0          	movswl %ax,%r12d
   1a7ec:	0f b6 05 31 b8 00 00 	movzbl 0xb831(%rip),%eax        # 26024 <g_5>
   1a7f3:	0f be c0             	movsbl %al,%eax
   1a7f6:	89 c7                	mov    %eax,%edi
   1a7f8:	e8 d8 14 00 00       	callq  1bcd5 <func_73>
   1a7fd:	48 8b 05 1c 13 01 00 	mov    0x1131c(%rip),%rax        # 2bb20 <g_1576>
   1a804:	48 8b 00             	mov    (%rax),%rax
   1a807:	48 8b 00             	mov    (%rax),%rax
   1a80a:	48 8b 00             	mov    (%rax),%rax
   1a80d:	48 8b 95 58 ff ff ff 	mov    -0xa8(%rbp),%rdx
   1a814:	48 89 d6             	mov    %rdx,%rsi
   1a817:	48 89 c7             	mov    %rax,%rdi
   1a81a:	e8 9b 41 00 00       	callq  1e9ba <func_96>
   1a81f:	49 89 c7             	mov    %rax,%r15
   1a822:	48 8b 05 17 0b 01 00 	mov    0x10b17(%rip),%rax        # 2b340 <g_379>
   1a829:	48 8b 00             	mov    (%rax),%rax
   1a82c:	4c 8b 30             	mov    (%rax),%r14
   1a82f:	48 8b 95 08 ff ff ff 	mov    -0xf8(%rbp),%rdx
   1a836:	48 8b 85 f8 fe ff ff 	mov    -0x108(%rbp),%rax
   1a83d:	48 89 d6             	mov    %rdx,%rsi
   1a840:	48 89 c7             	mov    %rax,%rdi
   1a843:	e8 72 41 00 00       	callq  1e9ba <func_96>
   1a848:	4c 89 f6             	mov    %r14,%rsi
   1a84b:	48 89 c7             	mov    %rax,%rdi
   1a84e:	e8 67 41 00 00       	callq  1e9ba <func_96>
   1a853:	4c 89 fe             	mov    %r15,%rsi
   1a856:	48 89 c7             	mov    %rax,%rdi
   1a859:	e8 5c 41 00 00       	callq  1e9ba <func_96>
   1a85e:	48 89 c2             	mov    %rax,%rdx
   1a861:	48 8b 85 08 ff ff ff 	mov    -0xf8(%rbp),%rax
   1a868:	48 89 c6             	mov    %rax,%rsi
   1a86b:	48 89 d7             	mov    %rdx,%rdi
   1a86e:	e8 47 41 00 00       	callq  1e9ba <func_96>
   1a873:	4c 89 ea             	mov    %r13,%rdx
   1a876:	44 89 e6             	mov    %r12d,%esi
   1a879:	48 89 c7             	mov    %rax,%rdi
   1a87c:	e8 b0 06 00 00       	callq  1af31 <func_69>
   1a881:	0f b7 c0             	movzwl %ax,%eax
   1a884:	be fe ff 00 00       	mov    $0xfffe,%esi
   1a889:	89 c7                	mov    %eax,%edi
   1a88b:	e8 ad 64 ff ff       	callq  10d3d <safe_mul_func_uint16_t_u_u>
   1a890:	48 89 de             	mov    %rbx,%rsi
   1a893:	bf 01 00 00 00       	mov    $0x1,%edi
   1a898:	e8 e3 67 ff ff       	callq  11080 <safe_mod_func_uint64_t_u_u>
   1a89d:	48 8b 85 f8 fe ff ff 	mov    -0x108(%rbp),%rax
   1a8a4:	8b 00                	mov    (%rax),%eax
   1a8a6:	85 c0                	test   %eax,%eax
   1a8a8:	0f 84 60 02 00 00    	je     1ab0e <func_49+0x3d7>
   1a8ae:	c7 85 34 ff ff ff 01 	movl   $0x1,-0xcc(%rbp)
   1a8b5:	00 00 00 
   1a8b8:	48 c7 45 a8 03 00 00 	movq   $0x3,-0x58(%rbp)
   1a8bf:	00 
   1a8c0:	48 c7 45 b0 00 00 00 	movq   $0x0,-0x50(%rbp)
   1a8c7:	00 
   1a8c8:	48 8d 05 99 1a 01 00 	lea    0x11a99(%rip),%rax        # 2c368 <g_1734>
   1a8cf:	48 89 45 b8          	mov    %rax,-0x48(%rbp)
   1a8d3:	48 8d 05 fe 10 01 00 	lea    0x110fe(%rip),%rax        # 2b9d8 <g_888+0x38>
   1a8da:	48 89 45 c0          	mov    %rax,-0x40(%rbp)
   1a8de:	0f b7 85 f4 fe ff ff 	movzwl -0x10c(%rbp),%eax
   1a8e5:	48 8b 95 58 ff ff ff 	mov    -0xa8(%rbp),%rdx
   1a8ec:	c7 02 f6 00 00 00    	movl   $0xf6,(%rdx)
   1a8f2:	8b 95 34 ff ff ff    	mov    -0xcc(%rbp),%edx
   1a8f8:	80 ca f6             	or     $0xf6,%dl
   1a8fb:	89 d2                	mov    %edx,%edx
   1a8fd:	48 89 c6             	mov    %rax,%rsi
   1a900:	48 89 d7             	mov    %rdx,%rdi
   1a903:	e8 26 67 ff ff       	callq  1102e <safe_add_func_uint64_t_u_u>
   1a908:	48 89 c2             	mov    %rax,%rdx
   1a90b:	48 8b 05 2e 0c 01 00 	mov    0x10c2e(%rip),%rax        # 2b540 <g_454>
   1a912:	48 8b 00             	mov    (%rax),%rax
   1a915:	48 8b 00             	mov    (%rax),%rax
   1a918:	89 10                	mov    %edx,(%rax)
   1a91a:	48 8b 05 d7 10 01 00 	mov    0x110d7(%rip),%rax        # 2b9f8 <g_908>
   1a921:	48 8b 00             	mov    (%rax),%rax
   1a924:	48 8b 00             	mov    (%rax),%rax
   1a927:	48 83 f8 ff          	cmp    $0xffffffffffffffff,%rax
   1a92b:	75 07                	jne    1a934 <func_49+0x1fd>
   1a92d:	48 83 7d a8 00       	cmpq   $0x0,-0x58(%rbp)
   1a932:	74 07                	je     1a93b <func_49+0x204>
   1a934:	b8 01 00 00 00       	mov    $0x1,%eax
   1a939:	eb 05                	jmp    1a940 <func_49+0x209>
   1a93b:	b8 00 00 00 00       	mov    $0x0,%eax
   1a940:	0f bf d0             	movswl %ax,%edx
   1a943:	48 8d 05 fe c2 00 00 	lea    0xc2fe(%rip),%rax        # 26c48 <g_556>
   1a94a:	0f b7 00             	movzwl (%rax),%eax
   1a94d:	98                   	cwtl   
   1a94e:	89 d6                	mov    %edx,%esi
   1a950:	89 c7                	mov    %eax,%edi
   1a952:	e8 5c 5a ff ff       	callq  103b3 <safe_add_func_int16_t_s_s>
   1a957:	0f bf d8             	movswl %ax,%ebx
   1a95a:	48 8b 85 58 ff ff ff 	mov    -0xa8(%rbp),%rax
   1a961:	8b 00                	mov    (%rax),%eax
   1a963:	98                   	cwtl   
   1a964:	89 c6                	mov    %eax,%esi
   1a966:	bf b8 79 00 00       	mov    $0x79b8,%edi
   1a96b:	e8 e5 5a ff ff       	callq  10455 <safe_div_func_int16_t_s_s>
   1a970:	66 85 c0             	test   %ax,%ax
   1a973:	0f 9e c0             	setle  %al
   1a976:	0f b6 d0             	movzbl %al,%edx
   1a979:	0f b7 85 f4 fe ff ff 	movzwl -0x10c(%rbp),%eax
   1a980:	39 c2                	cmp    %eax,%edx
   1a982:	0f 95 c0             	setne  %al
   1a985:	0f b6 c0             	movzbl %al,%eax
   1a988:	be 01 00 00 00       	mov    $0x1,%esi
   1a98d:	89 c7                	mov    %eax,%edi
   1a98f:	e8 ff 61 ff ff       	callq  10b93 <safe_mul_func_uint8_t_u_u>
   1a994:	84 c0                	test   %al,%al
   1a996:	74 11                	je     1a9a9 <func_49+0x272>
   1a998:	66 83 bd f4 fe ff ff 	cmpw   $0x0,-0x10c(%rbp)
   1a99f:	00 
   1a9a0:	74 07                	je     1a9a9 <func_49+0x272>
   1a9a2:	b8 01 00 00 00       	mov    $0x1,%eax
   1a9a7:	eb 05                	jmp    1a9ae <func_49+0x277>
   1a9a9:	b8 00 00 00 00       	mov    $0x0,%eax
   1a9ae:	89 c2                	mov    %eax,%edx
   1a9b0:	0f b7 85 f4 fe ff ff 	movzwl -0x10c(%rbp),%eax
   1a9b7:	89 d6                	mov    %edx,%esi
   1a9b9:	89 c7                	mov    %eax,%edi
   1a9bb:	e8 f8 64 ff ff       	callq  10eb8 <safe_add_func_uint32_t_u_u>
   1a9c0:	0f b7 c0             	movzwl %ax,%eax
   1a9c3:	89 c6                	mov    %eax,%esi
   1a9c5:	bf 00 00 00 00       	mov    $0x0,%edi
   1a9ca:	e8 8d 63 ff ff       	callq  10d5c <safe_mod_func_uint16_t_u_u>
   1a9cf:	66 85 c0             	test   %ax,%ax
   1a9d2:	74 16                	je     1a9ea <func_49+0x2b3>
   1a9d4:	48 8d 05 6d c2 00 00 	lea    0xc26d(%rip),%rax        # 26c48 <g_556>
   1a9db:	0f b7 00             	movzwl (%rax),%eax
   1a9de:	66 85 c0             	test   %ax,%ax
   1a9e1:	74 07                	je     1a9ea <func_49+0x2b3>
   1a9e3:	b9 01 00 00 00       	mov    $0x1,%ecx
   1a9e8:	eb 05                	jmp    1a9ef <func_49+0x2b8>
   1a9ea:	b9 00 00 00 00       	mov    $0x0,%ecx
   1a9ef:	48 8b 05 f2 08 01 00 	mov    0x108f2(%rip),%rax        # 2b2e8 <g_189>
   1a9f6:	0f b6 00             	movzbl (%rax),%eax
   1a9f9:	0f be d0             	movsbl %al,%edx
   1a9fc:	48 8b 05 35 09 01 00 	mov    0x10935(%rip),%rax        # 2b338 <g_380>
   1aa03:	48 8b 00             	mov    (%rax),%rax
   1aa06:	21 ca                	and    %ecx,%edx
   1aa08:	89 10                	mov    %edx,(%rax)
   1aa0a:	8b 00                	mov    (%rax),%eax
   1aa0c:	31 d8                	xor    %ebx,%eax
   1aa0e:	0d 70 29 ef ec       	or     $0xecef2970,%eax
   1aa13:	89 c2                	mov    %eax,%edx
   1aa15:	48 8b 85 08 ff ff ff 	mov    -0xf8(%rbp),%rax
   1aa1c:	89 10                	mov    %edx,(%rax)
   1aa1e:	0f b7 9d f4 fe ff ff 	movzwl -0x10c(%rbp),%ebx
   1aa25:	48 8b 05 bc 08 01 00 	mov    0x108bc(%rip),%rax        # 2b2e8 <g_189>
   1aa2c:	c6 00 ff             	movb   $0xff,(%rax)
   1aa2f:	48 8d 05 12 c2 00 00 	lea    0xc212(%rip),%rax        # 26c48 <g_556>
   1aa36:	0f b7 00             	movzwl (%rax),%eax
   1aa39:	4c 0f bf e0          	movswq %ax,%r12
   1aa3d:	48 8b 95 f8 fe ff ff 	mov    -0x108(%rbp),%rdx
   1aa44:	48 8b 85 f8 fe ff ff 	mov    -0x108(%rbp),%rax
   1aa4b:	48 89 d6             	mov    %rdx,%rsi
   1aa4e:	48 89 c7             	mov    %rax,%rdi
   1aa51:	e8 64 3f 00 00       	callq  1e9ba <func_96>
   1aa56:	48 89 c2             	mov    %rax,%rdx
   1aa59:	48 8b 85 60 ff ff ff 	mov    -0xa0(%rbp),%rax
   1aa60:	48 89 c6             	mov    %rax,%rsi
   1aa63:	48 89 d7             	mov    %rdx,%rdi
   1aa66:	e8 4f 3f 00 00       	callq  1e9ba <func_96>
   1aa6b:	48 89 c2             	mov    %rax,%rdx
   1aa6e:	48 8b 85 60 ff ff ff 	mov    -0xa0(%rbp),%rax
   1aa75:	48 89 d6             	mov    %rdx,%rsi
   1aa78:	48 89 c7             	mov    %rax,%rdi
   1aa7b:	e8 3a 3f 00 00       	callq  1e9ba <func_96>
   1aa80:	48 89 c2             	mov    %rax,%rdx
   1aa83:	48 8b 85 58 ff ff ff 	mov    -0xa8(%rbp),%rax
   1aa8a:	48 89 c6             	mov    %rax,%rsi
   1aa8d:	48 89 d7             	mov    %rdx,%rdi
   1aa90:	e8 25 3f 00 00       	callq  1e9ba <func_96>
   1aa95:	48 8b 55 b8          	mov    -0x48(%rbp),%rdx
   1aa99:	48 89 02             	mov    %rax,(%rdx)
   1aa9c:	48 8b 45 a8          	mov    -0x58(%rbp),%rax
   1aaa0:	48 89 c6             	mov    %rax,%rsi
   1aaa3:	bf 01 00 00 00       	mov    $0x1,%edi
   1aaa8:	e8 fb 5d ff ff       	callq  108a8 <safe_sub_func_int64_t_s_s>
   1aaad:	48 f7 d0             	not    %rax
   1aab0:	49 39 c4             	cmp    %rax,%r12
   1aab3:	0f 95 c0             	setne  %al
   1aab6:	0f b6 d0             	movzbl %al,%edx
   1aab9:	48 8b 05 d8 0f 01 00 	mov    0x10fd8(%rip),%rax        # 2ba98 <g_1122>
   1aac0:	48 8b 00             	mov    (%rax),%rax
   1aac3:	48 39 c2             	cmp    %rax,%rdx
   1aac6:	0f 97 c0             	seta   %al
   1aac9:	0f b6 c0             	movzbl %al,%eax
   1aacc:	89 de                	mov    %ebx,%esi
   1aace:	89 c7                	mov    %eax,%edi
   1aad0:	e8 8e 5a ff ff       	callq  10563 <safe_rshift_func_int16_t_s_u>
   1aad5:	48 8b 45 c0          	mov    -0x40(%rbp),%rax
   1aad9:	48 c7 00 00 00 00 00 	movq   $0x0,(%rax)
   1aae0:	48 8d 05 69 10 01 00 	lea    0x11069(%rip),%rax        # 2bb50 <g_1676+0x10>
   1aae7:	48 8b 00             	mov    (%rax),%rax
   1aaea:	48 8b 00             	mov    (%rax),%rax
   1aaed:	8b 08                	mov    (%rax),%ecx
   1aaef:	48 8b 85 f8 fe ff ff 	mov    -0x108(%rbp),%rax
   1aaf6:	8b 10                	mov    (%rax),%edx
   1aaf8:	48 8d 05 51 10 01 00 	lea    0x11051(%rip),%rax        # 2bb50 <g_1676+0x10>
   1aaff:	48 8b 00             	mov    (%rax),%rax
   1ab02:	48 8b 00             	mov    (%rax),%rax
   1ab05:	31 ca                	xor    %ecx,%edx
   1ab07:	89 10                	mov    %edx,(%rax)
   1ab09:	e9 f7 03 00 00       	jmpq   1af05 <func_49+0x7ce>
   1ab0e:	c7 85 20 ff ff ff 8c 	movl   $0xb6e0478c,-0xe0(%rbp)
   1ab15:	47 e0 b6 
   1ab18:	48 c7 85 40 ff ff ff 	movq   $0x0,-0xc0(%rbp)
   1ab1f:	00 00 00 00 
   1ab23:	48 8d 05 0e 08 01 00 	lea    0x1080e(%rip),%rax        # 2b338 <g_380>
   1ab2a:	48 89 85 68 ff ff ff 	mov    %rax,-0x98(%rbp)
   1ab31:	c7 85 24 ff ff ff ff 	movl   $0xffffffff,-0xdc(%rbp)
   1ab38:	ff ff ff 
   1ab3b:	c7 85 28 ff ff ff 51 	movl   $0x3bfc9451,-0xd8(%rbp)
   1ab42:	94 fc 3b 
   1ab45:	c7 05 59 ce 00 00 f7 	movl   $0xfffffff7,0xce59(%rip)        # 279a8 <g_2181>
   1ab4c:	ff ff ff 
   1ab4f:	90                   	nop
   1ab50:	8b 05 52 ce 00 00    	mov    0xce52(%rip),%eax        # 279a8 <g_2181>
   1ab56:	83 f8 02             	cmp    $0x2,%eax
   1ab59:	0f 8f 42 03 00 00    	jg     1aea1 <func_49+0x76a>
   1ab5f:	48 8d 05 3a 0f 01 00 	lea    0x10f3a(%rip),%rax        # 2baa0 <g_1121>
   1ab66:	48 89 85 48 ff ff ff 	mov    %rax,-0xb8(%rbp)
   1ab6d:	48 8d 05 2c 0f 01 00 	lea    0x10f2c(%rip),%rax        # 2baa0 <g_1121>
   1ab74:	48 89 85 50 ff ff ff 	mov    %rax,-0xb0(%rbp)
   1ab7b:	c7 85 2c ff ff ff ff 	movl   $0xffffffff,-0xd4(%rbp)
   1ab82:	ff ff ff 
   1ab85:	c7 05 a5 cd 00 00 05 	movl   $0x5,0xcda5(%rip)        # 27934 <g_1350>
   1ab8c:	00 00 00 
   1ab8f:	e9 ed 02 00 00       	jmpq   1ae81 <func_49+0x74a>
   1ab94:	48 8d 85 48 ff ff ff 	lea    -0xb8(%rbp),%rax
   1ab9b:	48 89 85 70 ff ff ff 	mov    %rax,-0x90(%rbp)
   1aba2:	48 8d 85 50 ff ff ff 	lea    -0xb0(%rbp),%rax
   1aba9:	48 89 85 78 ff ff ff 	mov    %rax,-0x88(%rbp)
   1abb0:	c7 85 30 ff ff ff 01 	movl   $0x1,-0xd0(%rbp)
   1abb7:	00 00 00 
   1abba:	48 c7 45 80 00 00 00 	movq   $0x0,-0x80(%rbp)
   1abc1:	00 
   1abc2:	48 8d 85 40 ff ff ff 	lea    -0xc0(%rbp),%rax
   1abc9:	48 89 45 88          	mov    %rax,-0x78(%rbp)
   1abcd:	48 8d 05 64 07 01 00 	lea    0x10764(%rip),%rax        # 2b338 <g_380>
   1abd4:	48 89 45 90          	mov    %rax,-0x70(%rbp)
   1abd8:	48 8d 05 61 07 01 00 	lea    0x10761(%rip),%rax        # 2b340 <g_379>
   1abdf:	48 89 45 98          	mov    %rax,-0x68(%rbp)
   1abe3:	48 8d 85 38 ff ff ff 	lea    -0xc8(%rbp),%rax
   1abea:	48 89 45 a0          	mov    %rax,-0x60(%rbp)
   1abee:	8b 85 30 ff ff ff    	mov    -0xd0(%rbp),%eax
   1abf4:	0f b6 d0             	movzbl %al,%edx
   1abf7:	66 83 bd f4 fe ff ff 	cmpw   $0x2,-0x10c(%rbp)
   1abfe:	02 
   1abff:	0f 97 c0             	seta   %al
   1ac02:	0f b6 c0             	movzbl %al,%eax
   1ac05:	89 d6                	mov    %edx,%esi
   1ac07:	89 c7                	mov    %eax,%edi
   1ac09:	e8 85 5f ff ff       	callq  10b93 <safe_mul_func_uint8_t_u_u>
   1ac0e:	0f b6 d0             	movzbl %al,%edx
   1ac11:	48 8b 8d 48 ff ff ff 	mov    -0xb8(%rbp),%rcx
   1ac18:	48 8b 85 70 ff ff ff 	mov    -0x90(%rbp),%rax
   1ac1f:	48 89 08             	mov    %rcx,(%rax)
   1ac22:	48 8b 85 70 ff ff ff 	mov    -0x90(%rbp),%rax
   1ac29:	48 8b 30             	mov    (%rax),%rsi
   1ac2c:	48 8b 8d 50 ff ff ff 	mov    -0xb0(%rbp),%rcx
   1ac33:	48 8b 85 78 ff ff ff 	mov    -0x88(%rbp),%rax
   1ac3a:	48 89 08             	mov    %rcx,(%rax)
   1ac3d:	48 8b 85 78 ff ff ff 	mov    -0x88(%rbp),%rax
   1ac44:	48 8b 00             	mov    (%rax),%rax
   1ac47:	48 39 c6             	cmp    %rax,%rsi
   1ac4a:	0f 95 c0             	setne  %al
   1ac4d:	0f b6 c0             	movzbl %al,%eax
   1ac50:	39 85 20 ff ff ff    	cmp    %eax,-0xe0(%rbp)
   1ac56:	0f 97 c0             	seta   %al
   1ac59:	0f b6 c0             	movzbl %al,%eax
   1ac5c:	89 d6                	mov    %edx,%esi
   1ac5e:	89 c7                	mov    %eax,%edi
   1ac60:	e8 fe 58 ff ff       	callq  10563 <safe_rshift_func_int16_t_s_u>
   1ac65:	0f bf d0             	movswl %ax,%edx
   1ac68:	0f b7 85 f4 fe ff ff 	movzwl -0x10c(%rbp),%eax
   1ac6f:	89 d6                	mov    %edx,%esi
   1ac71:	89 c7                	mov    %eax,%edi
   1ac73:	e8 58 62 ff ff       	callq  10ed0 <safe_sub_func_uint32_t_u_u>
   1ac78:	89 c2                	mov    %eax,%edx
   1ac7a:	8b 85 20 ff ff ff    	mov    -0xe0(%rbp),%eax
   1ac80:	89 d6                	mov    %edx,%esi
   1ac82:	89 c7                	mov    %eax,%edi
   1ac84:	e8 2d 59 ff ff       	callq  105b6 <safe_add_func_int32_t_s_s>
   1ac89:	48 8b 05 98 0e 01 00 	mov    0x10e98(%rip),%rax        # 2bb28 <g_1575>
   1ac90:	48 8b 00             	mov    (%rax),%rax
   1ac93:	48 8b 00             	mov    (%rax),%rax
   1ac96:	48 8b 00             	mov    (%rax),%rax
   1ac99:	48 8b 00             	mov    (%rax),%rax
   1ac9c:	48 8b 1d 95 06 01 00 	mov    0x10695(%rip),%rbx        # 2b338 <g_380>
   1aca3:	be 00 00 00 00       	mov    $0x0,%esi
   1aca8:	48 89 c7             	mov    %rax,%rdi
   1acab:	e8 0a 3d 00 00       	callq  1e9ba <func_96>
   1acb0:	48 89 03             	mov    %rax,(%rbx)
   1acb3:	8b 85 2c ff ff ff    	mov    -0xd4(%rbp),%eax
   1acb9:	0f bf d8             	movswl %ax,%ebx
   1acbc:	8b 85 24 ff ff ff    	mov    -0xdc(%rbp),%eax
   1acc2:	4c 63 e0             	movslq %eax,%r12
   1acc5:	48 8b 85 68 ff ff ff 	mov    -0x98(%rbp),%rax
   1accc:	48 8b 00             	mov    (%rax),%rax
   1accf:	48 8b 00             	mov    (%rax),%rax
   1acd2:	8b 00                	mov    (%rax),%eax
   1acd4:	44 0f bf e8          	movswl %ax,%r13d
   1acd8:	48 8b 95 38 ff ff ff 	mov    -0xc8(%rbp),%rdx
   1acdf:	48 8b 45 a0          	mov    -0x60(%rbp),%rax
   1ace3:	48 89 10             	mov    %rdx,(%rax)
   1ace6:	0f b7 85 f4 fe ff ff 	movzwl -0x10c(%rbp),%eax
   1aced:	39 85 2c ff ff ff    	cmp    %eax,-0xd4(%rbp)
   1acf3:	0f 9e c0             	setle  %al
   1acf6:	0f b6 c0             	movzbl %al,%eax
   1acf9:	be 00 00 00 00       	mov    $0x0,%esi
   1acfe:	89 c7                	mov    %eax,%edi
   1ad00:	e8 e9 55 ff ff       	callq  102ee <safe_lshift_func_int8_t_s_u>
   1ad05:	0f be d0             	movsbl %al,%edx
   1ad08:	48 c7 45 90 00 00 00 	movq   $0x0,-0x70(%rbp)
   1ad0f:	00 
   1ad10:	48 8b 45 98          	mov    -0x68(%rbp),%rax
   1ad14:	48 8b 8d 68 ff ff ff 	mov    -0x98(%rbp),%rcx
   1ad1b:	48 89 08             	mov    %rcx,(%rax)
   1ad1e:	48 8b 45 98          	mov    -0x68(%rbp),%rax
   1ad22:	48 8b 00             	mov    (%rax),%rax
   1ad25:	48 39 45 90          	cmp    %rax,-0x70(%rbp)
   1ad29:	0f 95 c0             	setne  %al
   1ad2c:	0f b6 c0             	movzbl %al,%eax
   1ad2f:	89 d6                	mov    %edx,%esi
   1ad31:	89 c7                	mov    %eax,%edi
   1ad33:	e8 bd 56 ff ff       	callq  103f5 <safe_mul_func_int16_t_s_s>
   1ad38:	44 89 ee             	mov    %r13d,%esi
   1ad3b:	bf 00 00 00 00       	mov    $0x0,%edi
   1ad40:	e8 10 57 ff ff       	callq  10455 <safe_div_func_int16_t_s_s>
   1ad45:	0f b7 c0             	movzwl %ax,%eax
   1ad48:	be 0f 00 00 00       	mov    $0xf,%esi
   1ad4d:	89 c7                	mov    %eax,%edi
   1ad4f:	e8 6a 60 ff ff       	callq  10dbe <safe_lshift_func_uint16_t_u_s>
   1ad54:	89 c2                	mov    %eax,%edx
   1ad56:	48 8b 05 43 0d 01 00 	mov    0x10d43(%rip),%rax        # 2baa0 <g_1121>
   1ad5d:	48 8b 00             	mov    (%rax),%rax
   1ad60:	0f b7 d2             	movzwl %dx,%edx
   1ad63:	48 89 10             	mov    %rdx,(%rax)
   1ad66:	48 8b 00             	mov    (%rax),%rax
   1ad69:	48 89 05 b8 c7 00 00 	mov    %rax,0xc7b8(%rip)        # 27528 <g_1131>
   1ad70:	48 8b 05 b1 c7 00 00 	mov    0xc7b1(%rip),%rax        # 27528 <g_1131>
   1ad77:	89 c2                	mov    %eax,%edx
   1ad79:	0f b7 85 f4 fe ff ff 	movzwl -0x10c(%rbp),%eax
   1ad80:	31 c2                	xor    %eax,%edx
   1ad82:	48 8b 85 68 ff ff ff 	mov    -0x98(%rbp),%rax
   1ad89:	48 8b 00             	mov    (%rax),%rax
   1ad8c:	48 8b 00             	mov    (%rax),%rax
   1ad8f:	89 10                	mov    %edx,(%rax)
   1ad91:	8b 00                	mov    (%rax),%eax
   1ad93:	85 c0                	test   %eax,%eax
   1ad95:	4c 89 e6             	mov    %r12,%rsi
   1ad98:	48 bf 3c 4d a8 16 96 	movabs $0xda76789616a84d3c,%rdi
   1ad9f:	78 76 da 
   1ada2:	e8 01 5b ff ff       	callq  108a8 <safe_sub_func_int64_t_s_s>
   1ada7:	98                   	cwtl   
   1ada8:	be 02 00 00 00       	mov    $0x2,%esi
   1adad:	89 c7                	mov    %eax,%edi
   1adaf:	e8 ff 55 ff ff       	callq  103b3 <safe_add_func_int16_t_s_s>
   1adb4:	0f b6 d0             	movzbl %al,%edx
   1adb7:	0f b7 85 f4 fe ff ff 	movzwl -0x10c(%rbp),%eax
   1adbe:	0f b6 c0             	movzbl %al,%eax
   1adc1:	89 d6                	mov    %edx,%esi
   1adc3:	89 c7                	mov    %eax,%edi
   1adc5:	e8 c9 5d ff ff       	callq  10b93 <safe_mul_func_uint8_t_u_u>
   1adca:	0f b6 c0             	movzbl %al,%eax
   1adcd:	89 85 28 ff ff ff    	mov    %eax,-0xd8(%rbp)
   1add3:	83 bd 28 ff ff ff ff 	cmpl   $0xffffffff,-0xd8(%rbp)
   1adda:	74 1a                	je     1adf6 <func_49+0x6bf>
   1addc:	48 8b 45 98          	mov    -0x68(%rbp),%rax
   1ade0:	48 8b 00             	mov    (%rax),%rax
   1ade3:	48 8b 00             	mov    (%rax),%rax
   1ade6:	48 8b 00             	mov    (%rax),%rax
   1ade9:	8b 00                	mov    (%rax),%eax
   1adeb:	85 c0                	test   %eax,%eax
   1aded:	74 07                	je     1adf6 <func_49+0x6bf>
   1adef:	b8 01 00 00 00       	mov    $0x1,%eax
   1adf4:	eb 05                	jmp    1adfb <func_49+0x6c4>
   1adf6:	b8 00 00 00 00       	mov    $0x0,%eax
   1adfb:	98                   	cwtl   
   1adfc:	89 de                	mov    %ebx,%esi
   1adfe:	89 c7                	mov    %eax,%edi
   1ae00:	e8 ae 55 ff ff       	callq  103b3 <safe_add_func_int16_t_s_s>
   1ae05:	0f b6 d0             	movzbl %al,%edx
   1ae08:	0f b7 85 f4 fe ff ff 	movzwl -0x10c(%rbp),%eax
   1ae0f:	0f b6 c0             	movzbl %al,%eax
   1ae12:	89 d6                	mov    %edx,%esi
   1ae14:	89 c7                	mov    %eax,%edi
   1ae16:	e8 93 5d ff ff       	callq  10bae <safe_mod_func_uint8_t_u_u>
   1ae1b:	48 8b 95 40 ff ff ff 	mov    -0xc0(%rbp),%rdx
   1ae22:	48 8b 45 88          	mov    -0x78(%rbp),%rax
   1ae26:	48 89 10             	mov    %rdx,(%rax)
   1ae29:	48 8b 45 88          	mov    -0x78(%rbp),%rax
   1ae2d:	48 8b 00             	mov    (%rax),%rax
   1ae30:	48 85 c0             	test   %rax,%rax
   1ae33:	75 07                	jne    1ae3c <func_49+0x705>
   1ae35:	ba fd ff ff ff       	mov    $0xfffffffd,%edx
   1ae3a:	eb 05                	jmp    1ae41 <func_49+0x70a>
   1ae3c:	ba fc ff ff ff       	mov    $0xfffffffc,%edx
   1ae41:	48 8d 05 08 0d 01 00 	lea    0x10d08(%rip),%rax        # 2bb50 <g_1676+0x10>
   1ae48:	48 8b 00             	mov    (%rax),%rax
   1ae4b:	48 8b 00             	mov    (%rax),%rax
   1ae4e:	8b 00                	mov    (%rax),%eax
   1ae50:	89 d6                	mov    %edx,%esi
   1ae52:	89 c7                	mov    %eax,%edi
   1ae54:	e8 73 58 ff ff       	callq  106cc <safe_mod_func_int32_t_s_s>
   1ae59:	83 f0 18             	xor    $0x18,%eax
   1ae5c:	48 63 d0             	movslq %eax,%rdx
   1ae5f:	0f b7 85 f4 fe ff ff 	movzwl -0x10c(%rbp),%eax
   1ae66:	48 39 c2             	cmp    %rax,%rdx
   1ae69:	0f 9d c0             	setge  %al
   1ae6c:	88 05 46 cb 00 00    	mov    %al,0xcb46(%rip)        # 279b8 <g_2468>
   1ae72:	8b 05 bc ca 00 00    	mov    0xcabc(%rip),%eax        # 27934 <g_1350>
   1ae78:	83 c0 01             	add    $0x1,%eax
   1ae7b:	89 05 b3 ca 00 00    	mov    %eax,0xcab3(%rip)        # 27934 <g_1350>
   1ae81:	8b 05 ad ca 00 00    	mov    0xcaad(%rip),%eax        # 27934 <g_1350>
   1ae87:	83 f8 0b             	cmp    $0xb,%eax
   1ae8a:	0f 8f 04 fd ff ff    	jg     1ab94 <func_49+0x45d>
   1ae90:	48 8b 85 68 ff ff ff 	mov    -0x98(%rbp),%rax
   1ae97:	48 8b 00             	mov    (%rax),%rax
   1ae9a:	48 8b 00             	mov    (%rax),%rax
   1ae9d:	8b 00                	mov    (%rax),%eax
   1ae9f:	eb 6a                	jmp    1af0b <func_49+0x7d4>
   1aea1:	48 8b 85 68 ff ff ff 	mov    -0x98(%rbp),%rax
   1aea8:	48 8b 00             	mov    (%rax),%rax
   1aeab:	48 8b 00             	mov    (%rax),%rax
   1aeae:	8b 00                	mov    (%rax),%eax
   1aeb0:	0f b7 c0             	movzwl %ax,%eax
   1aeb3:	be 04 00 00 00       	mov    $0x4,%esi
   1aeb8:	89 c7                	mov    %eax,%edi
   1aeba:	e8 89 5f ff ff       	callq  10e48 <safe_rshift_func_uint16_t_u_s>
   1aebf:	0f b7 d0             	movzwl %ax,%edx
   1aec2:	48 8b 05 27 0b 01 00 	mov    0x10b27(%rip),%rax        # 2b9f0 <g_909>
   1aec9:	48 8b 00             	mov    (%rax),%rax
   1aecc:	48 39 c2             	cmp    %rax,%rdx
   1aecf:	0f 95 c2             	setne  %dl
   1aed2:	48 8b 05 5f 04 01 00 	mov    0x1045f(%rip),%rax        # 2b338 <g_380>
   1aed9:	48 8b 00             	mov    (%rax),%rax
   1aedc:	0f b6 d2             	movzbl %dl,%edx
   1aedf:	89 10                	mov    %edx,(%rax)
   1aee1:	c6 05 04 be 00 00 02 	movb   $0x2,0xbe04(%rip)        # 26cec <g_874>
   1aee8:	90                   	nop
   1aee9:	0f b6 05 fc bd 00 00 	movzbl 0xbdfc(%rip),%eax        # 26cec <g_874>
   1aef0:	84 c0                	test   %al,%al
   1aef2:	78 11                	js     1af05 <func_49+0x7ce>
   1aef4:	48 8b 85 68 ff ff ff 	mov    -0x98(%rbp),%rax
   1aefb:	48 8b 00             	mov    (%rax),%rax
   1aefe:	48 8b 00             	mov    (%rax),%rax
   1af01:	8b 00                	mov    (%rax),%eax
   1af03:	eb 06                	jmp    1af0b <func_49+0x7d4>
   1af05:	8b 05 b1 ca 00 00    	mov    0xcab1(%rip),%eax        # 279bc <g_2471>
   1af0b:	48 8b 5d c8          	mov    -0x38(%rbp),%rbx
   1af0f:	64 48 33 1c 25 28 00 	xor    %fs:0x28,%rbx
   1af16:	00 00 
   1af18:	74 05                	je     1af1f <func_49+0x7e8>
   1af1a:	e8 51 51 ff ff       	callq  10070 <__stack_chk_fail@plt>
   1af1f:	48 81 c4 e8 00 00 00 	add    $0xe8,%rsp
   1af26:	5b                   	pop    %rbx
   1af27:	41 5c                	pop    %r12
   1af29:	41 5d                	pop    %r13
   1af2b:	41 5e                	pop    %r14
   1af2d:	41 5f                	pop    %r15
   1af2f:	5d                   	pop    %rbp
   1af30:	c3                   	retq   

000000000001af31 <func_69>:
   1af31:	f3 0f 1e fa          	endbr64 
   1af35:	55                   	push   %rbp
   1af36:	48 89 e5             	mov    %rsp,%rbp
   1af39:	48 81 ec 30 0a 00 00 	sub    $0xa30,%rsp
   1af40:	48 89 bd e8 f5 ff ff 	mov    %rdi,-0xa18(%rbp)
   1af47:	89 f0                	mov    %esi,%eax
   1af49:	48 89 95 d8 f5 ff ff 	mov    %rdx,-0xa28(%rbp)
   1af50:	66 89 85 e4 f5 ff ff 	mov    %ax,-0xa1c(%rbp)
   1af57:	64 48 8b 04 25 28 00 	mov    %fs:0x28,%rax
   1af5e:	00 00 
   1af60:	48 89 45 f8          	mov    %rax,-0x8(%rbp)
   1af64:	31 c0                	xor    %eax,%eax
   1af66:	c7 85 14 f6 ff ff 3c 	movl   $0xaa962c3c,-0x9ec(%rbp)
   1af6d:	2c 96 aa 
   1af70:	66 c7 85 fe f5 ff ff 	movw   $0xfe25,-0xa02(%rbp)
   1af77:	25 fe 
   1af79:	48 b8 3e 04 1c 00 f5 	movabs $0x40bc80f5001c043e,%rax
   1af80:	80 bc 40 
   1af83:	48 89 85 48 f6 ff ff 	mov    %rax,-0x9b8(%rbp)
   1af8a:	c7 85 04 f6 ff ff fb 	movl   $0xfffffffb,-0x9fc(%rbp)
   1af91:	ff ff ff 
   1af94:	66 c7 85 00 f6 ff ff 	movw   $0x1,-0xa00(%rbp)
   1af9b:	01 00 
   1af9d:	48 8d 05 94 0b 01 00 	lea    0x10b94(%rip),%rax        # 2bb38 <g_1668>
   1afa4:	48 89 85 30 f6 ff ff 	mov    %rax,-0x9d0(%rbp)
   1afab:	48 8d 85 30 f6 ff ff 	lea    -0x9d0(%rbp),%rax
   1afb2:	48 89 85 50 f6 ff ff 	mov    %rax,-0x9b0(%rbp)
   1afb9:	48 8d 05 f4 c4 00 00 	lea    0xc4f4(%rip),%rax        # 274b4 <g_884>
   1afc0:	48 89 85 58 f6 ff ff 	mov    %rax,-0x9a8(%rbp)
   1afc7:	48 8d 05 d6 c9 00 00 	lea    0xc9d6(%rip),%rax        # 279a4 <g_2127>
   1afce:	48 89 85 60 f6 ff ff 	mov    %rax,-0x9a0(%rbp)
   1afd5:	c7 85 18 f6 ff ff ff 	movl   $0xffffffff,-0x9e8(%rbp)
   1afdc:	ff ff ff 
   1afdf:	48 8d 05 b4 b0 00 00 	lea    0xb0b4(%rip),%rax        # 2609a <g_176>
   1afe6:	48 89 85 68 f6 ff ff 	mov    %rax,-0x998(%rbp)
   1afed:	48 8d 05 7c 09 01 00 	lea    0x1097c(%rip),%rax        # 2b970 <g_738>
   1aff4:	48 89 85 70 f6 ff ff 	mov    %rax,-0x990(%rbp)
   1affb:	c7 85 1c f6 ff ff 8f 	movl   $0x6bd9598f,-0x9e4(%rbp)
   1b002:	59 d9 6b 
   1b005:	48 8d 05 9c c9 00 00 	lea    0xc99c(%rip),%rax        # 279a8 <g_2181>
   1b00c:	48 89 85 78 f6 ff ff 	mov    %rax,-0x988(%rbp)
   1b013:	48 b8 e7 c7 62 e4 0a 	movabs $0xb61ed80ae462c7e7,%rax
   1b01a:	d8 1e b6 
   1b01d:	48 89 85 80 f6 ff ff 	mov    %rax,-0x980(%rbp)
   1b024:	c7 85 08 f6 ff ff 00 	movl   $0x0,-0x9f8(%rbp)
   1b02b:	00 00 00 
   1b02e:	eb 1a                	jmp    1b04a <func_69+0x119>
   1b030:	8b 85 08 f6 ff ff    	mov    -0x9f8(%rbp),%eax
   1b036:	48 98                	cltq   
   1b038:	c7 84 85 b8 f6 ff ff 	movl   $0xfffffffd,-0x948(%rbp,%rax,4)
   1b03f:	fd ff ff ff 
   1b043:	83 85 08 f6 ff ff 01 	addl   $0x1,-0x9f8(%rbp)
   1b04a:	83 bd 08 f6 ff ff 01 	cmpl   $0x1,-0x9f8(%rbp)
   1b051:	7e dd                	jle    1b030 <func_69+0xff>
   1b053:	c7 85 08 f6 ff ff 00 	movl   $0x0,-0x9f8(%rbp)
   1b05a:	00 00 00 
   1b05d:	eb 1a                	jmp    1b079 <func_69+0x148>
   1b05f:	8b 85 08 f6 ff ff    	mov    -0x9f8(%rbp),%eax
   1b065:	48 98                	cltq   
   1b067:	c7 84 85 c0 f6 ff ff 	movl   $0xdab0593d,-0x940(%rbp,%rax,4)
   1b06e:	3d 59 b0 da 
   1b072:	83 85 08 f6 ff ff 01 	addl   $0x1,-0x9f8(%rbp)
   1b079:	83 bd 08 f6 ff ff 05 	cmpl   $0x5,-0x9f8(%rbp)
   1b080:	7e dd                	jle    1b05f <func_69+0x12e>
   1b082:	c7 05 a8 c8 00 00 08 	movl   $0x8,0xc8a8(%rip)        # 27934 <g_1350>
   1b089:	00 00 00 
   1b08c:	e9 18 0c 00 00       	jmpq   1bca9 <func_69+0xd78>
   1b091:	66 c7 85 fc f5 ff ff 	movw   $0x1,-0xa04(%rbp)
   1b098:	01 00 
   1b09a:	c7 85 20 f6 ff ff fe 	movl   $0xfffffffe,-0x9e0(%rbp)
   1b0a1:	ff ff ff 
   1b0a4:	48 8d 05 1d 40 01 00 	lea    0x1401d(%rip),%rax        # 2f0c8 <g_265>
   1b0ab:	48 89 85 88 f6 ff ff 	mov    %rax,-0x978(%rbp)
   1b0b2:	c7 85 24 f6 ff ff 12 	movl   $0x3b068212,-0x9dc(%rbp)
   1b0b9:	82 06 3b 
   1b0bc:	48 8d 05 b5 08 01 00 	lea    0x108b5(%rip),%rax        # 2b978 <g_797>
   1b0c3:	48 89 85 38 f6 ff ff 	mov    %rax,-0x9c8(%rbp)
   1b0ca:	48 8d 85 38 f6 ff ff 	lea    -0x9c8(%rbp),%rax
   1b0d1:	48 89 85 30 f7 ff ff 	mov    %rax,-0x8d0(%rbp)
   1b0d8:	48 8d 85 38 f6 ff ff 	lea    -0x9c8(%rbp),%rax
   1b0df:	48 89 85 38 f7 ff ff 	mov    %rax,-0x8c8(%rbp)
   1b0e6:	48 8d 85 38 f6 ff ff 	lea    -0x9c8(%rbp),%rax
   1b0ed:	48 89 85 40 f7 ff ff 	mov    %rax,-0x8c0(%rbp)
   1b0f4:	48 8d 85 38 f6 ff ff 	lea    -0x9c8(%rbp),%rax
   1b0fb:	48 89 85 48 f7 ff ff 	mov    %rax,-0x8b8(%rbp)
   1b102:	48 8d 85 38 f6 ff ff 	lea    -0x9c8(%rbp),%rax
   1b109:	48 89 85 50 f7 ff ff 	mov    %rax,-0x8b0(%rbp)
   1b110:	48 8d 85 38 f6 ff ff 	lea    -0x9c8(%rbp),%rax
   1b117:	48 89 85 58 f7 ff ff 	mov    %rax,-0x8a8(%rbp)
   1b11e:	48 8d 85 38 f6 ff ff 	lea    -0x9c8(%rbp),%rax
   1b125:	48 89 85 60 f7 ff ff 	mov    %rax,-0x8a0(%rbp)
   1b12c:	48 8d 85 38 f6 ff ff 	lea    -0x9c8(%rbp),%rax
   1b133:	48 89 85 68 f7 ff ff 	mov    %rax,-0x898(%rbp)
   1b13a:	48 8d 85 38 f6 ff ff 	lea    -0x9c8(%rbp),%rax
   1b141:	48 89 85 70 f7 ff ff 	mov    %rax,-0x890(%rbp)
   1b148:	48 c7 85 78 f7 ff ff 	movq   $0x0,-0x888(%rbp)
   1b14f:	00 00 00 00 
   1b153:	48 c7 85 80 f7 ff ff 	movq   $0x0,-0x880(%rbp)
   1b15a:	00 00 00 00 
   1b15e:	48 8d 85 38 f6 ff ff 	lea    -0x9c8(%rbp),%rax
   1b165:	48 89 85 88 f7 ff ff 	mov    %rax,-0x878(%rbp)
   1b16c:	48 8d 85 38 f6 ff ff 	lea    -0x9c8(%rbp),%rax
   1b173:	48 89 85 90 f7 ff ff 	mov    %rax,-0x870(%rbp)
   1b17a:	48 8d 85 38 f6 ff ff 	lea    -0x9c8(%rbp),%rax
   1b181:	48 89 85 98 f7 ff ff 	mov    %rax,-0x868(%rbp)
   1b188:	48 c7 85 a0 f7 ff ff 	movq   $0x0,-0x860(%rbp)
   1b18f:	00 00 00 00 
   1b193:	48 8d 85 38 f6 ff ff 	lea    -0x9c8(%rbp),%rax
   1b19a:	48 89 85 a8 f7 ff ff 	mov    %rax,-0x858(%rbp)
   1b1a1:	48 8d 85 38 f6 ff ff 	lea    -0x9c8(%rbp),%rax
   1b1a8:	48 89 85 b0 f7 ff ff 	mov    %rax,-0x850(%rbp)
   1b1af:	48 8d 85 38 f6 ff ff 	lea    -0x9c8(%rbp),%rax
   1b1b6:	48 89 85 b8 f7 ff ff 	mov    %rax,-0x848(%rbp)
   1b1bd:	48 8d 85 c0 f7 ff ff 	lea    -0x840(%rbp),%rax
   1b1c4:	48 8d 15 15 68 00 00 	lea    0x6815(%rip),%rdx        # 219e0 <g_2211+0x950>
   1b1cb:	b9 28 00 00 00       	mov    $0x28,%ecx
   1b1d0:	48 89 c7             	mov    %rax,%rdi
   1b1d3:	48 89 d6             	mov    %rdx,%rsi
   1b1d6:	f3 48 a5             	rep movsq %ds:(%rsi),%es:(%rdi)
   1b1d9:	48 8d 05 10 08 01 00 	lea    0x10810(%rip),%rax        # 2b9f0 <g_909>
   1b1e0:	48 89 85 90 f6 ff ff 	mov    %rax,-0x970(%rbp)
   1b1e7:	48 8d 85 fc f5 ff ff 	lea    -0xa04(%rbp),%rax
   1b1ee:	48 89 85 98 f6 ff ff 	mov    %rax,-0x968(%rbp)
   1b1f5:	48 8d 05 3c 01 01 00 	lea    0x1013c(%rip),%rax        # 2b338 <g_380>
   1b1fc:	48 89 85 40 f6 ff ff 	mov    %rax,-0x9c0(%rbp)
   1b203:	48 8d 85 40 f6 ff ff 	lea    -0x9c0(%rbp),%rax
   1b20a:	48 89 85 a0 f6 ff ff 	mov    %rax,-0x960(%rbp)
   1b211:	66 c7 85 02 f6 ff ff 	movw   $0x1168,-0x9fe(%rbp)
   1b218:	68 11 
   1b21a:	48 c7 85 50 fa ff ff 	movq   $0x0,-0x5b0(%rbp)
   1b221:	00 00 00 00 
   1b225:	48 8d 05 a4 ba 00 00 	lea    0xbaa4(%rip),%rax        # 26cd0 <g_858>
   1b22c:	48 89 85 58 fa ff ff 	mov    %rax,-0x5a8(%rbp)
   1b233:	48 8d 05 56 c7 00 00 	lea    0xc756(%rip),%rax        # 27990 <g_1605>
   1b23a:	48 89 85 60 fa ff ff 	mov    %rax,-0x5a0(%rbp)
   1b241:	48 c7 85 68 fa ff ff 	movq   $0x0,-0x598(%rbp)
   1b248:	00 00 00 00 
   1b24c:	48 8d 05 3d c7 00 00 	lea    0xc73d(%rip),%rax        # 27990 <g_1605>
   1b253:	48 89 85 70 fa ff ff 	mov    %rax,-0x590(%rbp)
   1b25a:	48 8d 05 2f c7 00 00 	lea    0xc72f(%rip),%rax        # 27990 <g_1605>
   1b261:	48 89 85 78 fa ff ff 	mov    %rax,-0x588(%rbp)
   1b268:	48 8d 05 61 ba 00 00 	lea    0xba61(%rip),%rax        # 26cd0 <g_858>
   1b26f:	48 89 85 80 fa ff ff 	mov    %rax,-0x580(%rbp)
   1b276:	48 8d 05 13 c7 00 00 	lea    0xc713(%rip),%rax        # 27990 <g_1605>
   1b27d:	48 89 85 88 fa ff ff 	mov    %rax,-0x578(%rbp)
   1b284:	48 8d 85 04 f6 ff ff 	lea    -0x9fc(%rbp),%rax
   1b28b:	48 89 85 90 fa ff ff 	mov    %rax,-0x570(%rbp)
   1b292:	48 8d 05 37 ba 00 00 	lea    0xba37(%rip),%rax        # 26cd0 <g_858>
   1b299:	48 89 85 98 fa ff ff 	mov    %rax,-0x568(%rbp)
   1b2a0:	48 c7 85 a0 fa ff ff 	movq   $0x0,-0x560(%rbp)
   1b2a7:	00 00 00 00 
   1b2ab:	48 8d 85 04 f6 ff ff 	lea    -0x9fc(%rbp),%rax
   1b2b2:	48 89 85 a8 fa ff ff 	mov    %rax,-0x558(%rbp)
   1b2b9:	48 8d 85 04 f6 ff ff 	lea    -0x9fc(%rbp),%rax
   1b2c0:	48 89 85 b0 fa ff ff 	mov    %rax,-0x550(%rbp)
   1b2c7:	48 8d 05 02 ba 00 00 	lea    0xba02(%rip),%rax        # 26cd0 <g_858>
   1b2ce:	48 89 85 b8 fa ff ff 	mov    %rax,-0x548(%rbp)
   1b2d5:	48 c7 85 c0 fa ff ff 	movq   $0x0,-0x540(%rbp)
   1b2dc:	00 00 00 00 
   1b2e0:	48 8d 05 a9 c6 00 00 	lea    0xc6a9(%rip),%rax        # 27990 <g_1605>
   1b2e7:	48 89 85 c8 fa ff ff 	mov    %rax,-0x538(%rbp)
   1b2ee:	48 c7 85 d0 fa ff ff 	movq   $0x0,-0x530(%rbp)
   1b2f5:	00 00 00 00 
   1b2f9:	48 8d 85 04 f6 ff ff 	lea    -0x9fc(%rbp),%rax
   1b300:	48 89 85 d8 fa ff ff 	mov    %rax,-0x528(%rbp)
   1b307:	48 8d 05 c2 b9 00 00 	lea    0xb9c2(%rip),%rax        # 26cd0 <g_858>
   1b30e:	48 89 85 e0 fa ff ff 	mov    %rax,-0x520(%rbp)
   1b315:	48 8d 05 74 c6 00 00 	lea    0xc674(%rip),%rax        # 27990 <g_1605>
   1b31c:	48 89 85 e8 fa ff ff 	mov    %rax,-0x518(%rbp)
   1b323:	48 c7 85 f0 fa ff ff 	movq   $0x0,-0x510(%rbp)
   1b32a:	00 00 00 00 
   1b32e:	48 8d 85 04 f6 ff ff 	lea    -0x9fc(%rbp),%rax
   1b335:	48 89 85 f8 fa ff ff 	mov    %rax,-0x508(%rbp)
   1b33c:	48 8d 05 4d c6 00 00 	lea    0xc64d(%rip),%rax        # 27990 <g_1605>
   1b343:	48 89 85 00 fb ff ff 	mov    %rax,-0x500(%rbp)
   1b34a:	48 8d 05 3f c6 00 00 	lea    0xc63f(%rip),%rax        # 27990 <g_1605>
   1b351:	48 89 85 08 fb ff ff 	mov    %rax,-0x4f8(%rbp)
   1b358:	48 c7 85 10 fb ff ff 	movq   $0x0,-0x4f0(%rbp)
   1b35f:	00 00 00 00 
   1b363:	48 8d 05 66 b9 00 00 	lea    0xb966(%rip),%rax        # 26cd0 <g_858>
   1b36a:	48 89 85 18 fb ff ff 	mov    %rax,-0x4e8(%rbp)
   1b371:	48 8d 05 58 b9 00 00 	lea    0xb958(%rip),%rax        # 26cd0 <g_858>
   1b378:	48 89 85 20 fb ff ff 	mov    %rax,-0x4e0(%rbp)
   1b37f:	48 8d 05 0a c6 00 00 	lea    0xc60a(%rip),%rax        # 27990 <g_1605>
   1b386:	48 89 85 28 fb ff ff 	mov    %rax,-0x4d8(%rbp)
   1b38d:	48 8d 05 3c b9 00 00 	lea    0xb93c(%rip),%rax        # 26cd0 <g_858>
   1b394:	48 89 85 30 fb ff ff 	mov    %rax,-0x4d0(%rbp)
   1b39b:	48 8d 85 04 f6 ff ff 	lea    -0x9fc(%rbp),%rax
   1b3a2:	48 89 85 38 fb ff ff 	mov    %rax,-0x4c8(%rbp)
   1b3a9:	48 8d 05 20 b9 00 00 	lea    0xb920(%rip),%rax        # 26cd0 <g_858>
   1b3b0:	48 89 85 40 fb ff ff 	mov    %rax,-0x4c0(%rbp)
   1b3b7:	48 c7 85 48 fb ff ff 	movq   $0x0,-0x4b8(%rbp)
   1b3be:	00 00 00 00 
   1b3c2:	48 8d 05 07 b9 00 00 	lea    0xb907(%rip),%rax        # 26cd0 <g_858>
   1b3c9:	48 89 85 50 fb ff ff 	mov    %rax,-0x4b0(%rbp)
   1b3d0:	48 8d 05 b9 c5 00 00 	lea    0xc5b9(%rip),%rax        # 27990 <g_1605>
   1b3d7:	48 89 85 58 fb ff ff 	mov    %rax,-0x4a8(%rbp)
   1b3de:	48 8d 05 ab c5 00 00 	lea    0xc5ab(%rip),%rax        # 27990 <g_1605>
   1b3e5:	48 89 85 60 fb ff ff 	mov    %rax,-0x4a0(%rbp)
   1b3ec:	48 8d 85 04 f6 ff ff 	lea    -0x9fc(%rbp),%rax
   1b3f3:	48 89 85 68 fb ff ff 	mov    %rax,-0x498(%rbp)
   1b3fa:	48 8d 05 8f c5 00 00 	lea    0xc58f(%rip),%rax        # 27990 <g_1605>
   1b401:	48 89 85 70 fb ff ff 	mov    %rax,-0x490(%rbp)
   1b408:	48 8d 05 c1 b8 00 00 	lea    0xb8c1(%rip),%rax        # 26cd0 <g_858>
   1b40f:	48 89 85 78 fb ff ff 	mov    %rax,-0x488(%rbp)
   1b416:	48 8d 05 b3 b8 00 00 	lea    0xb8b3(%rip),%rax        # 26cd0 <g_858>
   1b41d:	48 89 85 80 fb ff ff 	mov    %rax,-0x480(%rbp)
   1b424:	48 8d 05 a5 b8 00 00 	lea    0xb8a5(%rip),%rax        # 26cd0 <g_858>
   1b42b:	48 89 85 88 fb ff ff 	mov    %rax,-0x478(%rbp)
   1b432:	48 8d 05 97 b8 00 00 	lea    0xb897(%rip),%rax        # 26cd0 <g_858>
   1b439:	48 89 85 90 fb ff ff 	mov    %rax,-0x470(%rbp)
   1b440:	48 8d 05 49 c5 00 00 	lea    0xc549(%rip),%rax        # 27990 <g_1605>
   1b447:	48 89 85 98 fb ff ff 	mov    %rax,-0x468(%rbp)
   1b44e:	48 8d 85 04 f6 ff ff 	lea    -0x9fc(%rbp),%rax
   1b455:	48 89 85 a0 fb ff ff 	mov    %rax,-0x460(%rbp)
   1b45c:	48 8d 85 04 f6 ff ff 	lea    -0x9fc(%rbp),%rax
   1b463:	48 89 85 a8 fb ff ff 	mov    %rax,-0x458(%rbp)
   1b46a:	48 c7 85 b0 fb ff ff 	movq   $0x0,-0x450(%rbp)
   1b471:	00 00 00 00 
   1b475:	48 8d 85 04 f6 ff ff 	lea    -0x9fc(%rbp),%rax
   1b47c:	48 89 85 b8 fb ff ff 	mov    %rax,-0x448(%rbp)
   1b483:	48 8d 85 04 f6 ff ff 	lea    -0x9fc(%rbp),%rax
   1b48a:	48 89 85 c0 fb ff ff 	mov    %rax,-0x440(%rbp)
   1b491:	48 8d 85 04 f6 ff ff 	lea    -0x9fc(%rbp),%rax
   1b498:	48 89 85 c8 fb ff ff 	mov    %rax,-0x438(%rbp)
   1b49f:	48 8d 05 2a b8 00 00 	lea    0xb82a(%rip),%rax        # 26cd0 <g_858>
   1b4a6:	48 89 85 d0 fb ff ff 	mov    %rax,-0x430(%rbp)
   1b4ad:	48 8d 05 dc c4 00 00 	lea    0xc4dc(%rip),%rax        # 27990 <g_1605>
   1b4b4:	48 89 85 d8 fb ff ff 	mov    %rax,-0x428(%rbp)
   1b4bb:	48 c7 85 e0 fb ff ff 	movq   $0x0,-0x420(%rbp)
   1b4c2:	00 00 00 00 
   1b4c6:	48 8d 85 04 f6 ff ff 	lea    -0x9fc(%rbp),%rax
   1b4cd:	48 89 85 e8 fb ff ff 	mov    %rax,-0x418(%rbp)
   1b4d4:	48 8d 05 f5 b7 00 00 	lea    0xb7f5(%rip),%rax        # 26cd0 <g_858>
   1b4db:	48 89 85 f0 fb ff ff 	mov    %rax,-0x410(%rbp)
   1b4e2:	48 8d 85 04 f6 ff ff 	lea    -0x9fc(%rbp),%rax
   1b4e9:	48 89 85 f8 fb ff ff 	mov    %rax,-0x408(%rbp)
   1b4f0:	48 8d 05 d9 b7 00 00 	lea    0xb7d9(%rip),%rax        # 26cd0 <g_858>
   1b4f7:	48 89 85 00 fc ff ff 	mov    %rax,-0x400(%rbp)
   1b4fe:	48 8d 85 04 f6 ff ff 	lea    -0x9fc(%rbp),%rax
   1b505:	48 89 85 08 fc ff ff 	mov    %rax,-0x3f8(%rbp)
   1b50c:	48 8d 85 04 f6 ff ff 	lea    -0x9fc(%rbp),%rax
   1b513:	48 89 85 10 fc ff ff 	mov    %rax,-0x3f0(%rbp)
   1b51a:	48 8d 85 04 f6 ff ff 	lea    -0x9fc(%rbp),%rax
   1b521:	48 89 85 18 fc ff ff 	mov    %rax,-0x3e8(%rbp)
   1b528:	48 8d 85 04 f6 ff ff 	lea    -0x9fc(%rbp),%rax
   1b52f:	48 89 85 20 fc ff ff 	mov    %rax,-0x3e0(%rbp)
   1b536:	48 8d 05 53 c4 00 00 	lea    0xc453(%rip),%rax        # 27990 <g_1605>
   1b53d:	48 89 85 28 fc ff ff 	mov    %rax,-0x3d8(%rbp)
   1b544:	48 8d 85 04 f6 ff ff 	lea    -0x9fc(%rbp),%rax
   1b54b:	48 89 85 30 fc ff ff 	mov    %rax,-0x3d0(%rbp)
   1b552:	48 8d 85 04 f6 ff ff 	lea    -0x9fc(%rbp),%rax
   1b559:	48 89 85 38 fc ff ff 	mov    %rax,-0x3c8(%rbp)
   1b560:	48 8d 05 29 c4 00 00 	lea    0xc429(%rip),%rax        # 27990 <g_1605>
   1b567:	48 89 85 40 fc ff ff 	mov    %rax,-0x3c0(%rbp)
   1b56e:	48 8d 05 5b b7 00 00 	lea    0xb75b(%rip),%rax        # 26cd0 <g_858>
   1b575:	48 89 85 48 fc ff ff 	mov    %rax,-0x3b8(%rbp)
   1b57c:	48 8d 85 04 f6 ff ff 	lea    -0x9fc(%rbp),%rax
   1b583:	48 89 85 50 fc ff ff 	mov    %rax,-0x3b0(%rbp)
   1b58a:	48 c7 85 58 fc ff ff 	movq   $0x0,-0x3a8(%rbp)
   1b591:	00 00 00 00 
   1b595:	48 8d 05 f4 c3 00 00 	lea    0xc3f4(%rip),%rax        # 27990 <g_1605>
   1b59c:	48 89 85 60 fc ff ff 	mov    %rax,-0x3a0(%rbp)
   1b5a3:	48 8d 85 04 f6 ff ff 	lea    -0x9fc(%rbp),%rax
   1b5aa:	48 89 85 68 fc ff ff 	mov    %rax,-0x398(%rbp)
   1b5b1:	48 8d 85 04 f6 ff ff 	lea    -0x9fc(%rbp),%rax
   1b5b8:	48 89 85 70 fc ff ff 	mov    %rax,-0x390(%rbp)
   1b5bf:	48 8d 05 ca c3 00 00 	lea    0xc3ca(%rip),%rax        # 27990 <g_1605>
   1b5c6:	48 89 85 78 fc ff ff 	mov    %rax,-0x388(%rbp)
   1b5cd:	48 c7 85 80 fc ff ff 	movq   $0x0,-0x380(%rbp)
   1b5d4:	00 00 00 00 
   1b5d8:	48 8d 85 04 f6 ff ff 	lea    -0x9fc(%rbp),%rax
   1b5df:	48 89 85 88 fc ff ff 	mov    %rax,-0x378(%rbp)
   1b5e6:	48 8d 05 e3 b6 00 00 	lea    0xb6e3(%rip),%rax        # 26cd0 <g_858>
   1b5ed:	48 89 85 90 fc ff ff 	mov    %rax,-0x370(%rbp)
   1b5f4:	48 8d 85 04 f6 ff ff 	lea    -0x9fc(%rbp),%rax
   1b5fb:	48 89 85 98 fc ff ff 	mov    %rax,-0x368(%rbp)
   1b602:	48 8d 85 04 f6 ff ff 	lea    -0x9fc(%rbp),%rax
   1b609:	48 89 85 a0 fc ff ff 	mov    %rax,-0x360(%rbp)
   1b610:	48 8d 05 79 c3 00 00 	lea    0xc379(%rip),%rax        # 27990 <g_1605>
   1b617:	48 89 85 a8 fc ff ff 	mov    %rax,-0x358(%rbp)
   1b61e:	48 8d 85 04 f6 ff ff 	lea    -0x9fc(%rbp),%rax
   1b625:	48 89 85 b0 fc ff ff 	mov    %rax,-0x350(%rbp)
   1b62c:	48 8d 85 04 f6 ff ff 	lea    -0x9fc(%rbp),%rax
   1b633:	48 89 85 b8 fc ff ff 	mov    %rax,-0x348(%rbp)
   1b63a:	48 c7 85 c0 fc ff ff 	movq   $0x0,-0x340(%rbp)
   1b641:	00 00 00 00 
   1b645:	48 8d 85 04 f6 ff ff 	lea    -0x9fc(%rbp),%rax
   1b64c:	48 89 85 c8 fc ff ff 	mov    %rax,-0x338(%rbp)
   1b653:	48 8d 05 76 b6 00 00 	lea    0xb676(%rip),%rax        # 26cd0 <g_858>
   1b65a:	48 89 85 d0 fc ff ff 	mov    %rax,-0x330(%rbp)
   1b661:	48 8d 85 04 f6 ff ff 	lea    -0x9fc(%rbp),%rax
   1b668:	48 89 85 d8 fc ff ff 	mov    %rax,-0x328(%rbp)
   1b66f:	48 8d 85 04 f6 ff ff 	lea    -0x9fc(%rbp),%rax
   1b676:	48 89 85 e0 fc ff ff 	mov    %rax,-0x320(%rbp)
   1b67d:	48 8d 05 4c b6 00 00 	lea    0xb64c(%rip),%rax        # 26cd0 <g_858>
   1b684:	48 89 85 e8 fc ff ff 	mov    %rax,-0x318(%rbp)
   1b68b:	48 8d 05 3e b6 00 00 	lea    0xb63e(%rip),%rax        # 26cd0 <g_858>
   1b692:	48 89 85 f0 fc ff ff 	mov    %rax,-0x310(%rbp)
   1b699:	48 8d 85 04 f6 ff ff 	lea    -0x9fc(%rbp),%rax
   1b6a0:	48 89 85 f8 fc ff ff 	mov    %rax,-0x308(%rbp)
   1b6a7:	48 8d 85 04 f6 ff ff 	lea    -0x9fc(%rbp),%rax
   1b6ae:	48 89 85 00 fd ff ff 	mov    %rax,-0x300(%rbp)
   1b6b5:	48 8d 05 d4 c2 00 00 	lea    0xc2d4(%rip),%rax        # 27990 <g_1605>
   1b6bc:	48 89 85 08 fd ff ff 	mov    %rax,-0x2f8(%rbp)
   1b6c3:	48 8d 05 06 b6 00 00 	lea    0xb606(%rip),%rax        # 26cd0 <g_858>
   1b6ca:	48 89 85 10 fd ff ff 	mov    %rax,-0x2f0(%rbp)
   1b6d1:	48 8d 05 f8 b5 00 00 	lea    0xb5f8(%rip),%rax        # 26cd0 <g_858>
   1b6d8:	48 89 85 18 fd ff ff 	mov    %rax,-0x2e8(%rbp)
   1b6df:	48 8d 85 04 f6 ff ff 	lea    -0x9fc(%rbp),%rax
   1b6e6:	48 89 85 20 fd ff ff 	mov    %rax,-0x2e0(%rbp)
   1b6ed:	48 8d 05 9c c2 00 00 	lea    0xc29c(%rip),%rax        # 27990 <g_1605>
   1b6f4:	48 89 85 28 fd ff ff 	mov    %rax,-0x2d8(%rbp)
   1b6fb:	48 8d 85 04 f6 ff ff 	lea    -0x9fc(%rbp),%rax
   1b702:	48 89 85 30 fd ff ff 	mov    %rax,-0x2d0(%rbp)
   1b709:	48 8d 05 c0 b5 00 00 	lea    0xb5c0(%rip),%rax        # 26cd0 <g_858>
   1b710:	48 89 85 38 fd ff ff 	mov    %rax,-0x2c8(%rbp)
   1b717:	48 8d 85 04 f6 ff ff 	lea    -0x9fc(%rbp),%rax
   1b71e:	48 89 85 40 fd ff ff 	mov    %rax,-0x2c0(%rbp)
   1b725:	48 8d 05 a4 b5 00 00 	lea    0xb5a4(%rip),%rax        # 26cd0 <g_858>
   1b72c:	48 89 85 48 fd ff ff 	mov    %rax,-0x2b8(%rbp)
   1b733:	48 8d 05 96 b5 00 00 	lea    0xb596(%rip),%rax        # 26cd0 <g_858>
   1b73a:	48 89 85 50 fd ff ff 	mov    %rax,-0x2b0(%rbp)
   1b741:	48 8d 85 04 f6 ff ff 	lea    -0x9fc(%rbp),%rax
   1b748:	48 89 85 58 fd ff ff 	mov    %rax,-0x2a8(%rbp)
   1b74f:	48 8d 05 7a b5 00 00 	lea    0xb57a(%rip),%rax        # 26cd0 <g_858>
   1b756:	48 89 85 60 fd ff ff 	mov    %rax,-0x2a0(%rbp)
   1b75d:	48 c7 85 68 fd ff ff 	movq   $0x0,-0x298(%rbp)
   1b764:	00 00 00 00 
   1b768:	48 8d 05 61 b5 00 00 	lea    0xb561(%rip),%rax        # 26cd0 <g_858>
   1b76f:	48 89 85 70 fd ff ff 	mov    %rax,-0x290(%rbp)
   1b776:	48 8d 85 04 f6 ff ff 	lea    -0x9fc(%rbp),%rax
   1b77d:	48 89 85 78 fd ff ff 	mov    %rax,-0x288(%rbp)
   1b784:	48 c7 85 80 fd ff ff 	movq   $0x0,-0x280(%rbp)
   1b78b:	00 00 00 00 
   1b78f:	48 8d 05 3a b5 00 00 	lea    0xb53a(%rip),%rax        # 26cd0 <g_858>
   1b796:	48 89 85 88 fd ff ff 	mov    %rax,-0x278(%rbp)
   1b79d:	48 8d 85 04 f6 ff ff 	lea    -0x9fc(%rbp),%rax
   1b7a4:	48 89 85 90 fd ff ff 	mov    %rax,-0x270(%rbp)
   1b7ab:	48 c7 85 98 fd ff ff 	movq   $0x0,-0x268(%rbp)
   1b7b2:	00 00 00 00 
   1b7b6:	48 8d 05 d3 c1 00 00 	lea    0xc1d3(%rip),%rax        # 27990 <g_1605>
   1b7bd:	48 89 85 a0 fd ff ff 	mov    %rax,-0x260(%rbp)
   1b7c4:	48 8d 85 04 f6 ff ff 	lea    -0x9fc(%rbp),%rax
   1b7cb:	48 89 85 a8 fd ff ff 	mov    %rax,-0x258(%rbp)
   1b7d2:	48 8d 85 04 f6 ff ff 	lea    -0x9fc(%rbp),%rax
   1b7d9:	48 89 85 b0 fd ff ff 	mov    %rax,-0x250(%rbp)
   1b7e0:	48 c7 85 b8 fd ff ff 	movq   $0x0,-0x248(%rbp)
   1b7e7:	00 00 00 00 
   1b7eb:	48 8d 85 04 f6 ff ff 	lea    -0x9fc(%rbp),%rax
   1b7f2:	48 89 85 c0 fd ff ff 	mov    %rax,-0x240(%rbp)
   1b7f9:	48 c7 85 c8 fd ff ff 	movq   $0x0,-0x238(%rbp)
   1b800:	00 00 00 00 
   1b804:	48 8d 05 c5 b4 00 00 	lea    0xb4c5(%rip),%rax        # 26cd0 <g_858>
   1b80b:	48 89 85 d0 fd ff ff 	mov    %rax,-0x230(%rbp)
   1b812:	48 c7 85 d8 fd ff ff 	movq   $0x0,-0x228(%rbp)
   1b819:	00 00 00 00 
   1b81d:	48 c7 85 e0 fd ff ff 	movq   $0x0,-0x220(%rbp)
   1b824:	00 00 00 00 
   1b828:	48 8d 05 a1 b4 00 00 	lea    0xb4a1(%rip),%rax        # 26cd0 <g_858>
   1b82f:	48 89 85 e8 fd ff ff 	mov    %rax,-0x218(%rbp)
   1b836:	48 8d 05 53 c1 00 00 	lea    0xc153(%rip),%rax        # 27990 <g_1605>
   1b83d:	48 89 85 f0 fd ff ff 	mov    %rax,-0x210(%rbp)
   1b844:	48 c7 85 f8 fd ff ff 	movq   $0x0,-0x208(%rbp)
   1b84b:	00 00 00 00 
   1b84f:	48 8d 05 3a c1 00 00 	lea    0xc13a(%rip),%rax        # 27990 <g_1605>
   1b856:	48 89 85 00 fe ff ff 	mov    %rax,-0x200(%rbp)
   1b85d:	48 8d 05 2c c1 00 00 	lea    0xc12c(%rip),%rax        # 27990 <g_1605>
   1b864:	48 89 85 08 fe ff ff 	mov    %rax,-0x1f8(%rbp)
   1b86b:	48 8d 05 5e b4 00 00 	lea    0xb45e(%rip),%rax        # 26cd0 <g_858>
   1b872:	48 89 85 10 fe ff ff 	mov    %rax,-0x1f0(%rbp)
   1b879:	48 8d 05 10 c1 00 00 	lea    0xc110(%rip),%rax        # 27990 <g_1605>
   1b880:	48 89 85 18 fe ff ff 	mov    %rax,-0x1e8(%rbp)
   1b887:	48 8d 85 04 f6 ff ff 	lea    -0x9fc(%rbp),%rax
   1b88e:	48 89 85 20 fe ff ff 	mov    %rax,-0x1e0(%rbp)
   1b895:	48 8d 05 34 b4 00 00 	lea    0xb434(%rip),%rax        # 26cd0 <g_858>
   1b89c:	48 89 85 28 fe ff ff 	mov    %rax,-0x1d8(%rbp)
   1b8a3:	48 c7 85 30 fe ff ff 	movq   $0x0,-0x1d0(%rbp)
   1b8aa:	00 00 00 00 
   1b8ae:	48 8d 85 04 f6 ff ff 	lea    -0x9fc(%rbp),%rax
   1b8b5:	48 89 85 38 fe ff ff 	mov    %rax,-0x1c8(%rbp)
   1b8bc:	48 8d 85 04 f6 ff ff 	lea    -0x9fc(%rbp),%rax
   1b8c3:	48 89 85 40 fe ff ff 	mov    %rax,-0x1c0(%rbp)
   1b8ca:	48 8d 05 ff b3 00 00 	lea    0xb3ff(%rip),%rax        # 26cd0 <g_858>
   1b8d1:	48 89 85 48 fe ff ff 	mov    %rax,-0x1b8(%rbp)
   1b8d8:	48 c7 85 50 fe ff ff 	movq   $0x0,-0x1b0(%rbp)
   1b8df:	00 00 00 00 
   1b8e3:	48 8d 05 a6 c0 00 00 	lea    0xc0a6(%rip),%rax        # 27990 <g_1605>
   1b8ea:	48 89 85 58 fe ff ff 	mov    %rax,-0x1a8(%rbp)
   1b8f1:	48 c7 85 60 fe ff ff 	movq   $0x0,-0x1a0(%rbp)
   1b8f8:	00 00 00 00 
   1b8fc:	48 8d 85 04 f6 ff ff 	lea    -0x9fc(%rbp),%rax
   1b903:	48 89 85 68 fe ff ff 	mov    %rax,-0x198(%rbp)
   1b90a:	48 8d 05 bf b3 00 00 	lea    0xb3bf(%rip),%rax        # 26cd0 <g_858>
   1b911:	48 89 85 70 fe ff ff 	mov    %rax,-0x190(%rbp)
   1b918:	48 8d 05 71 c0 00 00 	lea    0xc071(%rip),%rax        # 27990 <g_1605>
   1b91f:	48 89 85 78 fe ff ff 	mov    %rax,-0x188(%rbp)
   1b926:	48 c7 85 80 fe ff ff 	movq   $0x0,-0x180(%rbp)
   1b92d:	00 00 00 00 
   1b931:	48 8d 85 04 f6 ff ff 	lea    -0x9fc(%rbp),%rax
   1b938:	48 89 85 88 fe ff ff 	mov    %rax,-0x178(%rbp)
   1b93f:	48 8d 05 4a c0 00 00 	lea    0xc04a(%rip),%rax        # 27990 <g_1605>
   1b946:	48 89 85 90 fe ff ff 	mov    %rax,-0x170(%rbp)
   1b94d:	48 8d 05 3c c0 00 00 	lea    0xc03c(%rip),%rax        # 27990 <g_1605>
   1b954:	48 89 85 98 fe ff ff 	mov    %rax,-0x168(%rbp)
   1b95b:	48 c7 85 a0 fe ff ff 	movq   $0x0,-0x160(%rbp)
   1b962:	00 00 00 00 
   1b966:	48 8d 05 63 b3 00 00 	lea    0xb363(%rip),%rax        # 26cd0 <g_858>
   1b96d:	48 89 85 a8 fe ff ff 	mov    %rax,-0x158(%rbp)
   1b974:	48 8d 05 55 b3 00 00 	lea    0xb355(%rip),%rax        # 26cd0 <g_858>
   1b97b:	48 89 85 b0 fe ff ff 	mov    %rax,-0x150(%rbp)
   1b982:	48 8d 05 07 c0 00 00 	lea    0xc007(%rip),%rax        # 27990 <g_1605>
   1b989:	48 89 85 b8 fe ff ff 	mov    %rax,-0x148(%rbp)
   1b990:	48 8d 05 39 b3 00 00 	lea    0xb339(%rip),%rax        # 26cd0 <g_858>
   1b997:	48 89 85 c0 fe ff ff 	mov    %rax,-0x140(%rbp)
   1b99e:	48 8d 85 04 f6 ff ff 	lea    -0x9fc(%rbp),%rax
   1b9a5:	48 89 85 c8 fe ff ff 	mov    %rax,-0x138(%rbp)
   1b9ac:	48 8d 05 1d b3 00 00 	lea    0xb31d(%rip),%rax        # 26cd0 <g_858>
   1b9b3:	48 89 85 d0 fe ff ff 	mov    %rax,-0x130(%rbp)
   1b9ba:	48 c7 85 d8 fe ff ff 	movq   $0x0,-0x128(%rbp)
   1b9c1:	00 00 00 00 
   1b9c5:	48 8d 05 04 b3 00 00 	lea    0xb304(%rip),%rax        # 26cd0 <g_858>
   1b9cc:	48 89 85 e0 fe ff ff 	mov    %rax,-0x120(%rbp)
   1b9d3:	48 8d 05 b6 bf 00 00 	lea    0xbfb6(%rip),%rax        # 27990 <g_1605>
   1b9da:	48 89 85 e8 fe ff ff 	mov    %rax,-0x118(%rbp)
   1b9e1:	48 8d 05 a8 bf 00 00 	lea    0xbfa8(%rip),%rax        # 27990 <g_1605>
   1b9e8:	48 89 85 f0 fe ff ff 	mov    %rax,-0x110(%rbp)
   1b9ef:	48 8d 85 04 f6 ff ff 	lea    -0x9fc(%rbp),%rax
   1b9f6:	48 89 85 f8 fe ff ff 	mov    %rax,-0x108(%rbp)
   1b9fd:	48 8d 05 8c bf 00 00 	lea    0xbf8c(%rip),%rax        # 27990 <g_1605>
   1ba04:	48 89 85 00 ff ff ff 	mov    %rax,-0x100(%rbp)
   1ba0b:	48 8d 05 be b2 00 00 	lea    0xb2be(%rip),%rax        # 26cd0 <g_858>
   1ba12:	48 89 85 08 ff ff ff 	mov    %rax,-0xf8(%rbp)
   1ba19:	48 8d 05 b0 b2 00 00 	lea    0xb2b0(%rip),%rax        # 26cd0 <g_858>
   1ba20:	48 89 85 10 ff ff ff 	mov    %rax,-0xf0(%rbp)
   1ba27:	48 8d 05 a2 b2 00 00 	lea    0xb2a2(%rip),%rax        # 26cd0 <g_858>
   1ba2e:	48 89 85 18 ff ff ff 	mov    %rax,-0xe8(%rbp)
   1ba35:	48 c7 85 20 ff ff ff 	movq   $0x0,-0xe0(%rbp)
   1ba3c:	00 00 00 00 
   1ba40:	48 8d 05 49 bf 00 00 	lea    0xbf49(%rip),%rax        # 27990 <g_1605>
   1ba47:	48 89 85 28 ff ff ff 	mov    %rax,-0xd8(%rbp)
   1ba4e:	48 c7 85 30 ff ff ff 	movq   $0x0,-0xd0(%rbp)
   1ba55:	00 00 00 00 
   1ba59:	48 8d 85 04 f6 ff ff 	lea    -0x9fc(%rbp),%rax
   1ba60:	48 89 85 38 ff ff ff 	mov    %rax,-0xc8(%rbp)
   1ba67:	48 c7 85 40 ff ff ff 	movq   $0x0,-0xc0(%rbp)
   1ba6e:	00 00 00 00 
   1ba72:	48 8d 85 04 f6 ff ff 	lea    -0x9fc(%rbp),%rax
   1ba79:	48 89 85 48 ff ff ff 	mov    %rax,-0xb8(%rbp)
   1ba80:	48 8d 85 04 f6 ff ff 	lea    -0x9fc(%rbp),%rax
   1ba87:	48 89 85 50 ff ff ff 	mov    %rax,-0xb0(%rbp)
   1ba8e:	48 8d 05 3b b2 00 00 	lea    0xb23b(%rip),%rax        # 26cd0 <g_858>
   1ba95:	48 89 85 58 ff ff ff 	mov    %rax,-0xa8(%rbp)
   1ba9c:	48 c7 85 60 ff ff ff 	movq   $0x0,-0xa0(%rbp)
   1baa3:	00 00 00 00 
   1baa7:	48 8d 85 04 f6 ff ff 	lea    -0x9fc(%rbp),%rax
   1baae:	48 89 85 68 ff ff ff 	mov    %rax,-0x98(%rbp)
   1bab5:	48 8d 05 d4 be 00 00 	lea    0xbed4(%rip),%rax        # 27990 <g_1605>
   1babc:	48 89 85 70 ff ff ff 	mov    %rax,-0x90(%rbp)
   1bac3:	48 8d 05 06 b2 00 00 	lea    0xb206(%rip),%rax        # 26cd0 <g_858>
   1baca:	48 89 85 78 ff ff ff 	mov    %rax,-0x88(%rbp)
   1bad1:	48 8d 85 04 f6 ff ff 	lea    -0x9fc(%rbp),%rax
   1bad8:	48 89 45 80          	mov    %rax,-0x80(%rbp)
   1badc:	48 8d 85 04 f6 ff ff 	lea    -0x9fc(%rbp),%rax
   1bae3:	48 89 45 88          	mov    %rax,-0x78(%rbp)
   1bae7:	48 c7 45 90 00 00 00 	movq   $0x0,-0x70(%rbp)
   1baee:	00 
   1baef:	48 8d 85 04 f6 ff ff 	lea    -0x9fc(%rbp),%rax
   1baf6:	48 89 45 98          	mov    %rax,-0x68(%rbp)
   1bafa:	48 8d 05 cf b1 00 00 	lea    0xb1cf(%rip),%rax        # 26cd0 <g_858>
   1bb01:	48 89 45 a0          	mov    %rax,-0x60(%rbp)
   1bb05:	48 8d 85 04 f6 ff ff 	lea    -0x9fc(%rbp),%rax
   1bb0c:	48 89 45 a8          	mov    %rax,-0x58(%rbp)
   1bb10:	48 8d 05 b9 b1 00 00 	lea    0xb1b9(%rip),%rax        # 26cd0 <g_858>
   1bb17:	48 89 45 b0          	mov    %rax,-0x50(%rbp)
   1bb1b:	48 c7 45 b8 00 00 00 	movq   $0x0,-0x48(%rbp)
   1bb22:	00 
   1bb23:	48 c7 45 c0 00 00 00 	movq   $0x0,-0x40(%rbp)
   1bb2a:	00 
   1bb2b:	48 8d 85 04 f6 ff ff 	lea    -0x9fc(%rbp),%rax
   1bb32:	48 89 45 c8          	mov    %rax,-0x38(%rbp)
   1bb36:	48 8d 85 04 f6 ff ff 	lea    -0x9fc(%rbp),%rax
   1bb3d:	48 89 45 d0          	mov    %rax,-0x30(%rbp)
   1bb41:	48 8d 85 04 f6 ff ff 	lea    -0x9fc(%rbp),%rax
   1bb48:	48 89 45 d8          	mov    %rax,-0x28(%rbp)
   1bb4c:	48 8d 85 04 f6 ff ff 	lea    -0x9fc(%rbp),%rax
   1bb53:	48 89 45 e0          	mov    %rax,-0x20(%rbp)
   1bb57:	48 c7 45 e8 00 00 00 	movq   $0x0,-0x18(%rbp)
   1bb5e:	00 
   1bb5f:	48 8d 05 d2 bd 00 00 	lea    0xbdd2(%rip),%rax        # 27938 <g_1365>
   1bb66:	48 89 85 a8 f6 ff ff 	mov    %rax,-0x958(%rbp)
   1bb6d:	48 8d 05 0c a5 00 00 	lea    0xa50c(%rip),%rax        # 26080 <g_138>
   1bb74:	48 89 85 e0 f6 ff ff 	mov    %rax,-0x920(%rbp)
   1bb7b:	48 8d 05 f6 a4 00 00 	lea    0xa4f6(%rip),%rax        # 26078 <g_136>
   1bb82:	48 89 85 e8 f6 ff ff 	mov    %rax,-0x918(%rbp)
   1bb89:	48 8d 05 f0 a4 00 00 	lea    0xa4f0(%rip),%rax        # 26080 <g_138>
   1bb90:	48 89 85 f0 f6 ff ff 	mov    %rax,-0x910(%rbp)
   1bb97:	48 8d 05 e2 a4 00 00 	lea    0xa4e2(%rip),%rax        # 26080 <g_138>
   1bb9e:	48 89 85 f8 f6 ff ff 	mov    %rax,-0x908(%rbp)
   1bba5:	48 8d 05 cc a4 00 00 	lea    0xa4cc(%rip),%rax        # 26078 <g_136>
   1bbac:	48 89 85 00 f7 ff ff 	mov    %rax,-0x900(%rbp)
   1bbb3:	48 8d 05 c6 a4 00 00 	lea    0xa4c6(%rip),%rax        # 26080 <g_138>
   1bbba:	48 89 85 08 f7 ff ff 	mov    %rax,-0x8f8(%rbp)
   1bbc1:	48 8d 05 b8 a4 00 00 	lea    0xa4b8(%rip),%rax        # 26080 <g_138>
   1bbc8:	48 89 85 10 f7 ff ff 	mov    %rax,-0x8f0(%rbp)
   1bbcf:	48 8d 05 a2 a4 00 00 	lea    0xa4a2(%rip),%rax        # 26078 <g_136>
   1bbd6:	48 89 85 18 f7 ff ff 	mov    %rax,-0x8e8(%rbp)
   1bbdd:	48 8d 05 9c a4 00 00 	lea    0xa49c(%rip),%rax        # 26080 <g_138>
   1bbe4:	48 89 85 20 f7 ff ff 	mov    %rax,-0x8e0(%rbp)
   1bbeb:	c6 85 fb f5 ff ff f7 	movb   $0xf7,-0xa05(%rbp)
   1bbf2:	c7 85 28 f6 ff ff 83 	movl   $0x695d4683,-0x9d8(%rbp)
   1bbf9:	46 5d 69 
   1bbfc:	c7 85 2c f6 ff ff 52 	movl   $0xc5958a52,-0x9d4(%rbp)
   1bc03:	8a 95 c5 
   1bc06:	c7 85 0c f6 ff ff 00 	movl   $0x0,-0x9f4(%rbp)
   1bc0d:	00 00 00 
   1bc10:	eb 51                	jmp    1bc63 <func_69+0xd32>
   1bc12:	c7 85 10 f6 ff ff 00 	movl   $0x0,-0x9f0(%rbp)
   1bc19:	00 00 00 
   1bc1c:	eb 35                	jmp    1bc53 <func_69+0xd22>
   1bc1e:	8b 85 10 f6 ff ff    	mov    -0x9f0(%rbp),%eax
   1bc24:	48 63 c8             	movslq %eax,%rcx
   1bc27:	8b 85 0c f6 ff ff    	mov    -0x9f4(%rbp),%eax
   1bc2d:	48 63 d0             	movslq %eax,%rdx
   1bc30:	48 89 d0             	mov    %rdx,%rax
   1bc33:	48 c1 e0 03          	shl    $0x3,%rax
   1bc37:	48 29 d0             	sub    %rdx,%rax
   1bc3a:	48 01 c8             	add    %rcx,%rax
   1bc3d:	48 8d 15 24 a4 00 00 	lea    0xa424(%rip),%rdx        # 26068 <g_125>
   1bc44:	48 89 94 c5 00 f9 ff 	mov    %rdx,-0x700(%rbp,%rax,8)
   1bc4b:	ff 
   1bc4c:	83 85 10 f6 ff ff 01 	addl   $0x1,-0x9f0(%rbp)
   1bc53:	83 bd 10 f6 ff ff 06 	cmpl   $0x6,-0x9f0(%rbp)
   1bc5a:	7e c2                	jle    1bc1e <func_69+0xced>
   1bc5c:	83 85 0c f6 ff ff 01 	addl   $0x1,-0x9f4(%rbp)
   1bc63:	83 bd 0c f6 ff ff 05 	cmpl   $0x5,-0x9f4(%rbp)
   1bc6a:	7e a6                	jle    1bc12 <func_69+0xce1>
   1bc6c:	c7 85 0c f6 ff ff 00 	movl   $0x0,-0x9f4(%rbp)
   1bc73:	00 00 00 
   1bc76:	eb 19                	jmp    1bc91 <func_69+0xd60>
   1bc78:	8b 85 0c f6 ff ff    	mov    -0x9f4(%rbp),%eax
   1bc7e:	48 98                	cltq   
   1bc80:	66 c7 84 45 b2 f6 ff 	movw   $0xffff,-0x94e(%rbp,%rax,2)
   1bc87:	ff ff ff 
   1bc8a:	83 85 0c f6 ff ff 01 	addl   $0x1,-0x9f4(%rbp)
   1bc91:	83 bd 0c f6 ff ff 02 	cmpl   $0x2,-0x9f4(%rbp)
   1bc98:	7e de                	jle    1bc78 <func_69+0xd47>
   1bc9a:	8b 05 94 bc 00 00    	mov    0xbc94(%rip),%eax        # 27934 <g_1350>
   1bca0:	83 e8 01             	sub    $0x1,%eax
   1bca3:	89 05 8b bc 00 00    	mov    %eax,0xbc8b(%rip)        # 27934 <g_1350>
   1bca9:	8b 05 85 bc 00 00    	mov    0xbc85(%rip),%eax        # 27934 <g_1350>
   1bcaf:	83 f8 06             	cmp    $0x6,%eax
   1bcb2:	0f 8e d9 f3 ff ff    	jle    1b091 <func_69+0x160>
   1bcb8:	0f b7 85 e4 f5 ff ff 	movzwl -0xa1c(%rbp),%eax
   1bcbf:	48 8b 75 f8          	mov    -0x8(%rbp),%rsi
   1bcc3:	64 48 33 34 25 28 00 	xor    %fs:0x28,%rsi
   1bcca:	00 00 
   1bccc:	74 05                	je     1bcd3 <func_69+0xda2>
   1bcce:	e8 9d 43 ff ff       	callq  10070 <__stack_chk_fail@plt>
   1bcd3:	c9                   	leaveq 
   1bcd4:	c3                   	retq   

000000000001bcd5 <func_73>:
   1bcd5:	f3 0f 1e fa          	endbr64 
   1bcd9:	55                   	push   %rbp
   1bcda:	48 89 e5             	mov    %rsp,%rbp
   1bcdd:	41 55                	push   %r13
   1bcdf:	41 54                	push   %r12
   1bce1:	53                   	push   %rbx
   1bce2:	48 81 ec 68 08 00 00 	sub    $0x868,%rsp
   1bce9:	89 f8                	mov    %edi,%eax
   1bceb:	66 89 85 8c f7 ff ff 	mov    %ax,-0x874(%rbp)
   1bcf2:	64 48 8b 04 25 28 00 	mov    %fs:0x28,%rax
   1bcf9:	00 00 
   1bcfb:	48 89 45 d8          	mov    %rax,-0x28(%rbp)
   1bcff:	31 c0                	xor    %eax,%eax
   1bd01:	48 8d 05 20 a3 00 00 	lea    0xa320(%rip),%rax        # 26028 <g_34>
   1bd08:	48 89 85 b8 f7 ff ff 	mov    %rax,-0x848(%rbp)
   1bd0f:	48 8d 05 2a 34 01 00 	lea    0x1342a(%rip),%rax        # 2f140 <g_1624>
   1bd16:	48 89 85 d8 f7 ff ff 	mov    %rax,-0x828(%rbp)
   1bd1d:	c7 85 a8 f7 ff ff ff 	movl   $0xffffffff,-0x858(%rbp)
   1bd24:	ff ff ff 
   1bd27:	c7 85 30 f8 ff ff 02 	movl   $0x2,-0x7d0(%rbp)
   1bd2e:	00 00 00 
   1bd31:	c7 85 34 f8 ff ff 2b 	movl   $0x5511832b,-0x7cc(%rbp)
   1bd38:	83 11 55 
   1bd3b:	c7 85 38 f8 ff ff 02 	movl   $0x2,-0x7c8(%rbp)
   1bd42:	00 00 00 
   1bd45:	c7 85 3c f8 ff ff 02 	movl   $0x2,-0x7c4(%rbp)
   1bd4c:	00 00 00 
   1bd4f:	c7 85 40 f8 ff ff 2b 	movl   $0x5511832b,-0x7c0(%rbp)
   1bd56:	83 11 55 
   1bd59:	c7 85 44 f8 ff ff 02 	movl   $0x2,-0x7bc(%rbp)
   1bd60:	00 00 00 
   1bd63:	c7 85 48 f8 ff ff 02 	movl   $0x2,-0x7b8(%rbp)
   1bd6a:	00 00 00 
   1bd6d:	c7 85 ac f7 ff ff 00 	movl   $0x0,-0x854(%rbp)
   1bd74:	00 00 00 
   1bd77:	c7 85 b0 f7 ff ff 42 	movl   $0x37d3f842,-0x850(%rbp)
   1bd7e:	f8 d3 37 
   1bd81:	48 8d 05 50 fc 00 00 	lea    0xfc50(%rip),%rax        # 2b9d8 <g_888+0x38>
   1bd88:	48 89 85 e0 f7 ff ff 	mov    %rax,-0x820(%rbp)
   1bd8f:	48 c7 85 e8 f7 ff ff 	movq   $0x0,-0x818(%rbp)
   1bd96:	00 00 00 00 
   1bd9a:	48 8d 85 b8 f7 ff ff 	lea    -0x848(%rbp),%rax
   1bda1:	48 89 85 c0 f7 ff ff 	mov    %rax,-0x840(%rbp)
   1bda8:	48 8d 85 c0 f7 ff ff 	lea    -0x840(%rbp),%rax
   1bdaf:	48 89 85 c8 f7 ff ff 	mov    %rax,-0x838(%rbp)
   1bdb6:	48 8d 85 c8 f7 ff ff 	lea    -0x838(%rbp),%rax
   1bdbd:	48 89 85 d0 f7 ff ff 	mov    %rax,-0x830(%rbp)
   1bdc4:	48 8d 85 d0 f7 ff ff 	lea    -0x830(%rbp),%rax
   1bdcb:	48 89 85 f0 f7 ff ff 	mov    %rax,-0x810(%rbp)
   1bdd2:	c7 05 4c a2 00 00 00 	movl   $0x0,0xa24c(%rip)        # 26028 <g_34>
   1bdd9:	00 00 00 
   1bddc:	e9 b4 00 00 00       	jmpq   1be95 <func_73+0x1c0>
   1bde1:	48 8d 85 50 f8 ff ff 	lea    -0x7b0(%rbp),%rax
   1bde8:	48 8d 15 71 f0 00 00 	lea    0xf071(%rip),%rdx        # 2ae60 <g_4305+0x2438>
   1bdef:	b9 90 00 00 00       	mov    $0x90,%ecx
   1bdf4:	48 89 c7             	mov    %rax,%rdi
   1bdf7:	48 89 d6             	mov    %rdx,%rsi
   1bdfa:	f3 48 a5             	rep movsq %ds:(%rsi),%es:(%rdi)
   1bdfd:	48 b8 da 0a dd b9 49 	movabs $0xcd78bb49b9dd0ada,%rax
   1be04:	bb 78 cd 
   1be07:	48 89 85 10 f8 ff ff 	mov    %rax,-0x7f0(%rbp)
   1be0e:	66 c7 85 8c f7 ff ff 	movw   $0x0,-0x874(%rbp)
   1be15:	00 00 
   1be17:	eb 4c                	jmp    1be65 <func_73+0x190>
   1be19:	48 8d 05 0c a2 00 00 	lea    0xa20c(%rip),%rax        # 2602c <g_83>
   1be20:	48 89 85 18 f8 ff ff 	mov    %rax,-0x7e8(%rbp)
   1be27:	c6 85 9f f7 ff ff f6 	movb   $0xf6,-0x861(%rbp)
   1be2e:	48 8d 05 af b6 00 00 	lea    0xb6af(%rip),%rax        # 274e4 <g_955>
   1be35:	48 89 85 20 f8 ff ff 	mov    %rax,-0x7e0(%rbp)
   1be3c:	48 8d 05 f5 f4 00 00 	lea    0xf4f5(%rip),%rax        # 2b338 <g_380>
   1be43:	48 89 85 28 f8 ff ff 	mov    %rax,-0x7d8(%rbp)
   1be4a:	c7 85 b4 f7 ff ff 01 	movl   $0x1,-0x84c(%rbp)
   1be51:	00 00 00 
   1be54:	0f b7 85 8c f7 ff ff 	movzwl -0x874(%rbp),%eax
   1be5b:	83 e8 01             	sub    $0x1,%eax
   1be5e:	66 89 85 8c f7 ff ff 	mov    %ax,-0x874(%rbp)
   1be65:	66 83 bd 8c f7 ff ff 	cmpw   $0xfff4,-0x874(%rbp)
   1be6c:	f4 
   1be6d:	7d aa                	jge    1be19 <func_73+0x144>
   1be6f:	48 83 ad 10 f8 ff ff 	subq   $0x1,-0x7f0(%rbp)
   1be76:	01 
   1be77:	8b 05 ab a1 00 00    	mov    0xa1ab(%rip),%eax        # 26028 <g_34>
   1be7d:	0f b7 c0             	movzwl %ax,%eax
   1be80:	be 03 00 00 00       	mov    $0x3,%esi
   1be85:	89 c7                	mov    %eax,%edi
   1be87:	e8 93 4e ff ff       	callq  10d1f <safe_sub_func_uint16_t_u_u>
   1be8c:	0f b7 c0             	movzwl %ax,%eax
   1be8f:	89 05 93 a1 00 00    	mov    %eax,0xa193(%rip)        # 26028 <g_34>
   1be95:	8b 05 8d a1 00 00    	mov    0xa18d(%rip),%eax        # 26028 <g_34>
   1be9b:	83 f8 f7             	cmp    $0xfffffff7,%eax
   1be9e:	0f 84 3d ff ff ff    	je     1bde1 <func_73+0x10c>
   1bea4:	48 8b 85 e0 f7 ff ff 	mov    -0x820(%rbp),%rax
   1beab:	48 c7 00 00 00 00 00 	movq   $0x0,(%rax)
   1beb2:	c7 85 a4 f7 ff ff 05 	movl   $0x5,-0x85c(%rbp)
   1beb9:	00 00 00 
   1bebc:	48 8d 05 cd fa 00 00 	lea    0xfacd(%rip),%rax        # 2b990 <g_834>
   1bec3:	48 89 85 f8 f7 ff ff 	mov    %rax,-0x808(%rbp)
   1beca:	c7 85 a0 f7 ff ff d6 	movl   $0x40d0d1d6,-0x860(%rbp)
   1bed1:	d1 d0 40 
   1bed4:	48 8d 05 1d f4 00 00 	lea    0xf41d(%rip),%rax        # 2b2f8 <g_197>
   1bedb:	48 89 85 00 f8 ff ff 	mov    %rax,-0x800(%rbp)
   1bee2:	66 c7 05 f9 b5 00 00 	movw   $0x0,0xb5f9(%rip)        # 274e4 <g_955>
   1bee9:	00 00 
   1beeb:	eb 40                	jmp    1bf2d <func_73+0x258>
   1beed:	48 8d 05 64 a1 00 00 	lea    0xa164(%rip),%rax        # 26058 <g_107>
   1bef4:	48 89 85 08 f8 ff ff 	mov    %rax,-0x7f8(%rbp)
   1befb:	83 85 a4 f7 ff ff 01 	addl   $0x1,-0x85c(%rbp)
   1bf02:	48 8b 85 b8 f7 ff ff 	mov    -0x848(%rbp),%rax
   1bf09:	8b 00                	mov    (%rax),%eax
   1bf0b:	0b 85 a4 f7 ff ff    	or     -0x85c(%rbp),%eax
   1bf11:	89 c2                	mov    %eax,%edx
   1bf13:	48 8b 85 b8 f7 ff ff 	mov    -0x848(%rbp),%rax
   1bf1a:	89 10                	mov    %edx,(%rax)
   1bf1c:	0f b7 05 c1 b5 00 00 	movzwl 0xb5c1(%rip),%eax        # 274e4 <g_955>
   1bf23:	83 c0 01             	add    $0x1,%eax
   1bf26:	66 89 05 b7 b5 00 00 	mov    %ax,0xb5b7(%rip)        # 274e4 <g_955>
   1bf2d:	0f b7 05 b0 b5 00 00 	movzwl 0xb5b0(%rip),%eax        # 274e4 <g_955>
   1bf34:	66 83 f8 20          	cmp    $0x20,%ax
   1bf38:	76 b3                	jbe    1beed <func_73+0x218>
   1bf3a:	48 8b 05 5f fb 00 00 	mov    0xfb5f(%rip),%rax        # 2baa0 <g_1121>
   1bf41:	48 8b 00             	mov    (%rax),%rax
   1bf44:	48 8b 18             	mov    (%rax),%rbx
   1bf47:	8b 85 a4 f7 ff ff    	mov    -0x85c(%rbp),%eax
   1bf4d:	44 0f be e0          	movsbl %al,%r12d
   1bf51:	44 0f bf ad 8c f7 ff 	movswl -0x874(%rbp),%r13d
   1bf58:	ff 
   1bf59:	48 0f bf 8d 8c f7 ff 	movswq -0x874(%rbp),%rcx
   1bf60:	ff 
   1bf61:	48 8b 05 28 fb 00 00 	mov    0xfb28(%rip),%rax        # 2ba90 <g_969>
   1bf68:	0f b6 10             	movzbl (%rax),%edx
   1bf6b:	8d 72 01             	lea    0x1(%rdx),%esi
   1bf6e:	40 88 30             	mov    %sil,(%rax)
   1bf71:	0f b6 d2             	movzbl %dl,%edx
   1bf74:	48 8b 85 b8 f7 ff ff 	mov    -0x848(%rbp),%rax
   1bf7b:	8b 00                	mov    (%rax),%eax
   1bf7d:	39 c2                	cmp    %eax,%edx
   1bf7f:	0f 9c c0             	setl   %al
   1bf82:	0f b6 c0             	movzbl %al,%eax
   1bf85:	48 89 ce             	mov    %rcx,%rsi
   1bf88:	48 89 c7             	mov    %rax,%rdi
   1bf8b:	e8 24 4a ff ff       	callq  109b4 <safe_mod_func_int64_t_s_s>
   1bf90:	48 83 bd f8 f7 ff ff 	cmpq   $0x0,-0x808(%rbp)
   1bf97:	00 
   1bf98:	0f 94 c0             	sete   %al
   1bf9b:	0f b6 d0             	movzbl %al,%edx
   1bf9e:	8b 85 a4 f7 ff ff    	mov    -0x85c(%rbp),%eax
   1bfa4:	48 89 d6             	mov    %rdx,%rsi
   1bfa7:	48 89 c7             	mov    %rax,%rdi
   1bfaa:	e8 92 48 ff ff       	callq  10841 <safe_add_func_int64_t_s_s>
   1bfaf:	48 3d ab 30 1b 0e    	cmp    $0xe1b30ab,%rax
   1bfb5:	0f 9f c0             	setg   %al
   1bfb8:	0f b6 c0             	movzbl %al,%eax
   1bfbb:	89 c6                	mov    %eax,%esi
   1bfbd:	bf 06 00 00 00       	mov    $0x6,%edi
   1bfc2:	e8 0d 42 ff ff       	callq  101d4 <safe_add_func_int8_t_s_s>
   1bfc7:	0f be c0             	movsbl %al,%eax
   1bfca:	44 89 ee             	mov    %r13d,%esi
   1bfcd:	89 c7                	mov    %eax,%edi
   1bfcf:	e8 31 46 ff ff       	callq  10605 <safe_sub_func_int32_t_s_s>
   1bfd4:	0f bf 95 8c f7 ff ff 	movswl -0x874(%rbp),%edx
   1bfdb:	39 d0                	cmp    %edx,%eax
   1bfdd:	0f 95 c0             	setne  %al
   1bfe0:	0f b6 c0             	movzbl %al,%eax
   1bfe3:	44 89 e6             	mov    %r12d,%esi
   1bfe6:	89 c7                	mov    %eax,%edi
   1bfe8:	e8 44 42 ff ff       	callq  10231 <safe_mod_func_int8_t_s_s>
   1bfed:	48 8d 05 54 ac 00 00 	lea    0xac54(%rip),%rax        # 26c48 <g_556>
   1bff4:	0f b7 00             	movzwl (%rax),%eax
   1bff7:	98                   	cwtl   
   1bff8:	be 01 00 00 00       	mov    $0x1,%esi
   1bffd:	89 c7                	mov    %eax,%edi
   1bfff:	e8 dd 44 ff ff       	callq  104e1 <safe_lshift_func_int16_t_s_u>
   1c004:	98                   	cwtl   
   1c005:	39 85 a4 f7 ff ff    	cmp    %eax,-0x85c(%rbp)
   1c00b:	0f 93 c0             	setae  %al
   1c00e:	0f b6 c0             	movzbl %al,%eax
   1c011:	48 89 de             	mov    %rbx,%rsi
   1c014:	48 89 c7             	mov    %rax,%rdi
   1c017:	e8 12 50 ff ff       	callq  1102e <safe_add_func_uint64_t_u_u>
   1c01c:	48 8b 95 b8 f7 ff ff 	mov    -0x848(%rbp),%rdx
   1c023:	8b 12                	mov    (%rdx),%edx
   1c025:	48 63 d2             	movslq %edx,%rdx
   1c028:	48 39 d0             	cmp    %rdx,%rax
   1c02b:	72 07                	jb     1c034 <func_73+0x35f>
   1c02d:	b8 01 00 00 00       	mov    $0x1,%eax
   1c032:	eb 05                	jmp    1c039 <func_73+0x364>
   1c034:	b8 00 00 00 00       	mov    $0x0,%eax
   1c039:	89 c2                	mov    %eax,%edx
   1c03b:	48 8b 05 4e f9 00 00 	mov    0xf94e(%rip),%rax        # 2b990 <g_834>
   1c042:	48 8b 00             	mov    (%rax),%rax
   1c045:	48 8b 00             	mov    (%rax),%rax
   1c048:	8b 00                	mov    (%rax),%eax
   1c04a:	09 d0                	or     %edx,%eax
   1c04c:	85 c0                	test   %eax,%eax
   1c04e:	74 08                	je     1c058 <func_73+0x383>
   1c050:	66 83 bd 8c f7 ff ff 	cmpw   $0x0,-0x874(%rbp)
   1c057:	00 
   1c058:	48 8d 05 e9 ab 00 00 	lea    0xabe9(%rip),%rax        # 26c48 <g_556>
   1c05f:	0f b7 00             	movzwl (%rax),%eax
   1c062:	66 85 c0             	test   %ax,%ax
   1c065:	0f 94 c0             	sete   %al
   1c068:	0f b6 c0             	movzbl %al,%eax
   1c06b:	39 85 a4 f7 ff ff    	cmp    %eax,-0x85c(%rbp)
   1c071:	0f 93 c0             	setae  %al
   1c074:	0f b6 d0             	movzbl %al,%edx
   1c077:	8b 85 a0 f7 ff ff    	mov    -0x860(%rbp),%eax
   1c07d:	09 d0                	or     %edx,%eax
   1c07f:	89 85 a0 f7 ff ff    	mov    %eax,-0x860(%rbp)
   1c085:	48 8d 95 a0 f7 ff ff 	lea    -0x860(%rbp),%rdx
   1c08c:	48 8d 85 a0 f7 ff ff 	lea    -0x860(%rbp),%rax
   1c093:	48 89 d6             	mov    %rdx,%rsi
   1c096:	48 89 c7             	mov    %rax,%rdi
   1c099:	e8 1c 29 00 00       	callq  1e9ba <func_96>
   1c09e:	48 8b 95 00 f8 ff ff 	mov    -0x800(%rbp),%rdx
   1c0a5:	48 89 02             	mov    %rax,(%rdx)
   1c0a8:	48 8b 85 00 f8 ff ff 	mov    -0x800(%rbp),%rax
   1c0af:	48 8b 00             	mov    (%rax),%rax
   1c0b2:	48 89 05 7f fa 00 00 	mov    %rax,0xfa7f(%rip)        # 2bb38 <g_1668>
   1c0b9:	48 8b 85 f0 f7 ff ff 	mov    -0x810(%rbp),%rax
   1c0c0:	48 89 05 99 02 01 00 	mov    %rax,0x10299(%rip)        # 2c360 <g_1673>
   1c0c7:	b9 01 00 00 00       	mov    $0x1,%ecx
   1c0cc:	48 8b 85 d0 f7 ff ff 	mov    -0x830(%rbp),%rax
   1c0d3:	48 8b 00             	mov    (%rax),%rax
   1c0d6:	48 8b 00             	mov    (%rax),%rax
   1c0d9:	48 8b 00             	mov    (%rax),%rax
   1c0dc:	8b 10                	mov    (%rax),%edx
   1c0de:	48 8b 85 d0 f7 ff ff 	mov    -0x830(%rbp),%rax
   1c0e5:	48 8b 00             	mov    (%rax),%rax
   1c0e8:	48 8b 00             	mov    (%rax),%rax
   1c0eb:	48 8b 00             	mov    (%rax),%rax
   1c0ee:	09 ca                	or     %ecx,%edx
   1c0f0:	89 10                	mov    %edx,(%rax)
   1c0f2:	48 8b 85 b8 f7 ff ff 	mov    -0x848(%rbp),%rax
   1c0f9:	8b 00                	mov    (%rax),%eax
   1c0fb:	48 8b 5d d8          	mov    -0x28(%rbp),%rbx
   1c0ff:	64 48 33 1c 25 28 00 	xor    %fs:0x28,%rbx
   1c106:	00 00 
   1c108:	74 05                	je     1c10f <func_73+0x43a>
   1c10a:	e8 61 3f ff ff       	callq  10070 <__stack_chk_fail@plt>
   1c10f:	48 81 c4 68 08 00 00 	add    $0x868,%rsp
   1c116:	5b                   	pop    %rbx
   1c117:	41 5c                	pop    %r12
   1c119:	41 5d                	pop    %r13
   1c11b:	5d                   	pop    %rbp
   1c11c:	c3                   	retq   

000000000001c11d <func_86>:
   1c11d:	f3 0f 1e fa          	endbr64 
   1c121:	55                   	push   %rbp
   1c122:	48 89 e5             	mov    %rsp,%rbp
   1c125:	41 57                	push   %r15
   1c127:	41 56                	push   %r14
   1c129:	41 55                	push   %r13
   1c12b:	41 54                	push   %r12
   1c12d:	53                   	push   %rbx
   1c12e:	48 81 ec 68 0f 00 00 	sub    $0xf68,%rsp
   1c135:	48 89 bd 88 f0 ff ff 	mov    %rdi,-0xf78(%rbp)
   1c13c:	89 b5 84 f0 ff ff    	mov    %esi,-0xf7c(%rbp)
   1c142:	89 d0                	mov    %edx,%eax
   1c144:	48 89 8d 78 f0 ff ff 	mov    %rcx,-0xf88(%rbp)
   1c14b:	66 89 85 80 f0 ff ff 	mov    %ax,-0xf80(%rbp)
   1c152:	64 48 8b 04 25 28 00 	mov    %fs:0x28,%rax
   1c159:	00 00 
   1c15b:	48 89 45 c8          	mov    %rax,-0x38(%rbp)
   1c15f:	31 c0                	xor    %eax,%eax
   1c161:	c7 85 c0 f0 ff ff 84 	movl   $0xe9426a84,-0xf40(%rbp)
   1c168:	6a 42 e9 
   1c16b:	48 8d 05 1e 9f 00 00 	lea    0x9f1e(%rip),%rax        # 26090 <g_163>
   1c172:	48 89 85 98 f1 ff ff 	mov    %rax,-0xe68(%rbp)
   1c179:	48 8d 05 a8 9e 00 00 	lea    0x9ea8(%rip),%rax        # 26028 <g_34>
   1c180:	48 89 85 a0 f1 ff ff 	mov    %rax,-0xe60(%rbp)
   1c187:	48 c7 85 a8 f1 ff ff 	movq   $0x0,-0xe58(%rbp)
   1c18e:	00 00 00 00 
   1c192:	48 c7 85 48 f1 ff ff 	movq   $0x0,-0xeb8(%rbp)
   1c199:	00 00 00 00 
   1c19d:	48 8d 85 48 f1 ff ff 	lea    -0xeb8(%rbp),%rax
   1c1a4:	48 89 85 20 f6 ff ff 	mov    %rax,-0x9e0(%rbp)
   1c1ab:	48 8d 85 48 f1 ff ff 	lea    -0xeb8(%rbp),%rax
   1c1b2:	48 89 85 28 f6 ff ff 	mov    %rax,-0x9d8(%rbp)
   1c1b9:	48 8d 85 48 f1 ff ff 	lea    -0xeb8(%rbp),%rax
   1c1c0:	48 89 85 30 f6 ff ff 	mov    %rax,-0x9d0(%rbp)
   1c1c7:	48 8d 85 48 f1 ff ff 	lea    -0xeb8(%rbp),%rax
   1c1ce:	48 89 85 38 f6 ff ff 	mov    %rax,-0x9c8(%rbp)
   1c1d5:	48 c7 85 40 f6 ff ff 	movq   $0x0,-0x9c0(%rbp)
   1c1dc:	00 00 00 00 
   1c1e0:	48 8d 85 48 f1 ff ff 	lea    -0xeb8(%rbp),%rax
   1c1e7:	48 89 85 48 f6 ff ff 	mov    %rax,-0x9b8(%rbp)
   1c1ee:	48 8d 85 48 f1 ff ff 	lea    -0xeb8(%rbp),%rax
   1c1f5:	48 89 85 50 f6 ff ff 	mov    %rax,-0x9b0(%rbp)
   1c1fc:	48 8d 85 48 f1 ff ff 	lea    -0xeb8(%rbp),%rax
   1c203:	48 89 85 58 f6 ff ff 	mov    %rax,-0x9a8(%rbp)
   1c20a:	48 8d 85 48 f1 ff ff 	lea    -0xeb8(%rbp),%rax
   1c211:	48 89 85 60 f6 ff ff 	mov    %rax,-0x9a0(%rbp)
   1c218:	48 8d 85 48 f1 ff ff 	lea    -0xeb8(%rbp),%rax
   1c21f:	48 89 85 68 f6 ff ff 	mov    %rax,-0x998(%rbp)
   1c226:	48 8d 85 48 f1 ff ff 	lea    -0xeb8(%rbp),%rax
   1c22d:	48 89 85 70 f6 ff ff 	mov    %rax,-0x990(%rbp)
   1c234:	48 8d 85 48 f1 ff ff 	lea    -0xeb8(%rbp),%rax
   1c23b:	48 89 85 78 f6 ff ff 	mov    %rax,-0x988(%rbp)
   1c242:	48 8d 85 48 f1 ff ff 	lea    -0xeb8(%rbp),%rax
   1c249:	48 89 85 80 f6 ff ff 	mov    %rax,-0x980(%rbp)
   1c250:	48 8d 85 48 f1 ff ff 	lea    -0xeb8(%rbp),%rax
   1c257:	48 89 85 88 f6 ff ff 	mov    %rax,-0x978(%rbp)
   1c25e:	48 8d 85 48 f1 ff ff 	lea    -0xeb8(%rbp),%rax
   1c265:	48 89 85 90 f6 ff ff 	mov    %rax,-0x970(%rbp)
   1c26c:	48 8d 85 48 f1 ff ff 	lea    -0xeb8(%rbp),%rax
   1c273:	48 89 85 98 f6 ff ff 	mov    %rax,-0x968(%rbp)
   1c27a:	48 8d 85 48 f1 ff ff 	lea    -0xeb8(%rbp),%rax
   1c281:	48 89 85 a0 f6 ff ff 	mov    %rax,-0x960(%rbp)
   1c288:	48 8d 85 48 f1 ff ff 	lea    -0xeb8(%rbp),%rax
   1c28f:	48 89 85 a8 f6 ff ff 	mov    %rax,-0x958(%rbp)
   1c296:	48 8d 85 48 f1 ff ff 	lea    -0xeb8(%rbp),%rax
   1c29d:	48 89 85 b0 f6 ff ff 	mov    %rax,-0x950(%rbp)
   1c2a4:	48 c7 85 b8 f6 ff ff 	movq   $0x0,-0x948(%rbp)
   1c2ab:	00 00 00 00 
   1c2af:	48 8d 85 48 f1 ff ff 	lea    -0xeb8(%rbp),%rax
   1c2b6:	48 89 85 c0 f6 ff ff 	mov    %rax,-0x940(%rbp)
   1c2bd:	48 8d 85 48 f1 ff ff 	lea    -0xeb8(%rbp),%rax
   1c2c4:	48 89 85 c8 f6 ff ff 	mov    %rax,-0x938(%rbp)
   1c2cb:	48 c7 85 d0 f6 ff ff 	movq   $0x0,-0x930(%rbp)
   1c2d2:	00 00 00 00 
   1c2d6:	48 8d 85 48 f1 ff ff 	lea    -0xeb8(%rbp),%rax
   1c2dd:	48 89 85 d8 f6 ff ff 	mov    %rax,-0x928(%rbp)
   1c2e4:	48 c7 85 e0 f6 ff ff 	movq   $0x0,-0x920(%rbp)
   1c2eb:	00 00 00 00 
   1c2ef:	48 8d 85 48 f1 ff ff 	lea    -0xeb8(%rbp),%rax
   1c2f6:	48 89 85 e8 f6 ff ff 	mov    %rax,-0x918(%rbp)
   1c2fd:	48 8d 85 48 f1 ff ff 	lea    -0xeb8(%rbp),%rax
   1c304:	48 89 85 f0 f6 ff ff 	mov    %rax,-0x910(%rbp)
   1c30b:	48 8d 85 48 f1 ff ff 	lea    -0xeb8(%rbp),%rax
   1c312:	48 89 85 f8 f6 ff ff 	mov    %rax,-0x908(%rbp)
   1c319:	48 8d 85 48 f1 ff ff 	lea    -0xeb8(%rbp),%rax
   1c320:	48 89 85 00 f7 ff ff 	mov    %rax,-0x900(%rbp)
   1c327:	48 8d 85 48 f1 ff ff 	lea    -0xeb8(%rbp),%rax
   1c32e:	48 89 85 08 f7 ff ff 	mov    %rax,-0x8f8(%rbp)
   1c335:	48 8d 85 48 f1 ff ff 	lea    -0xeb8(%rbp),%rax
   1c33c:	48 89 85 10 f7 ff ff 	mov    %rax,-0x8f0(%rbp)
   1c343:	48 8d 85 48 f1 ff ff 	lea    -0xeb8(%rbp),%rax
   1c34a:	48 89 85 18 f7 ff ff 	mov    %rax,-0x8e8(%rbp)
   1c351:	48 8d 85 48 f1 ff ff 	lea    -0xeb8(%rbp),%rax
   1c358:	48 89 85 20 f7 ff ff 	mov    %rax,-0x8e0(%rbp)
   1c35f:	48 8d 85 48 f1 ff ff 	lea    -0xeb8(%rbp),%rax
   1c366:	48 89 85 28 f7 ff ff 	mov    %rax,-0x8d8(%rbp)
   1c36d:	48 8d 85 48 f1 ff ff 	lea    -0xeb8(%rbp),%rax
   1c374:	48 89 85 30 f7 ff ff 	mov    %rax,-0x8d0(%rbp)
   1c37b:	48 8d 85 48 f1 ff ff 	lea    -0xeb8(%rbp),%rax
   1c382:	48 89 85 38 f7 ff ff 	mov    %rax,-0x8c8(%rbp)
   1c389:	48 8d 85 48 f1 ff ff 	lea    -0xeb8(%rbp),%rax
   1c390:	48 89 85 40 f7 ff ff 	mov    %rax,-0x8c0(%rbp)
   1c397:	48 c7 85 48 f7 ff ff 	movq   $0x0,-0x8b8(%rbp)
   1c39e:	00 00 00 00 
   1c3a2:	48 8d 85 48 f1 ff ff 	lea    -0xeb8(%rbp),%rax
   1c3a9:	48 89 85 50 f7 ff ff 	mov    %rax,-0x8b0(%rbp)
   1c3b0:	48 8d 85 48 f1 ff ff 	lea    -0xeb8(%rbp),%rax
   1c3b7:	48 89 85 58 f7 ff ff 	mov    %rax,-0x8a8(%rbp)
   1c3be:	48 8d 85 48 f1 ff ff 	lea    -0xeb8(%rbp),%rax
   1c3c5:	48 89 85 60 f7 ff ff 	mov    %rax,-0x8a0(%rbp)
   1c3cc:	48 8d 85 48 f1 ff ff 	lea    -0xeb8(%rbp),%rax
   1c3d3:	48 89 85 68 f7 ff ff 	mov    %rax,-0x898(%rbp)
   1c3da:	48 c7 85 70 f7 ff ff 	movq   $0x0,-0x890(%rbp)
   1c3e1:	00 00 00 00 
   1c3e5:	48 8d 85 48 f1 ff ff 	lea    -0xeb8(%rbp),%rax
   1c3ec:	48 89 85 78 f7 ff ff 	mov    %rax,-0x888(%rbp)
   1c3f3:	48 8d 85 48 f1 ff ff 	lea    -0xeb8(%rbp),%rax
   1c3fa:	48 89 85 80 f7 ff ff 	mov    %rax,-0x880(%rbp)
   1c401:	48 8d 85 48 f1 ff ff 	lea    -0xeb8(%rbp),%rax
   1c408:	48 89 85 88 f7 ff ff 	mov    %rax,-0x878(%rbp)
   1c40f:	48 8d 85 48 f1 ff ff 	lea    -0xeb8(%rbp),%rax
   1c416:	48 89 85 90 f7 ff ff 	mov    %rax,-0x870(%rbp)
   1c41d:	48 8d 85 48 f1 ff ff 	lea    -0xeb8(%rbp),%rax
   1c424:	48 89 85 98 f7 ff ff 	mov    %rax,-0x868(%rbp)
   1c42b:	48 8d 85 48 f1 ff ff 	lea    -0xeb8(%rbp),%rax
   1c432:	48 89 85 a0 f7 ff ff 	mov    %rax,-0x860(%rbp)
   1c439:	48 c7 85 a8 f7 ff ff 	movq   $0x0,-0x858(%rbp)
   1c440:	00 00 00 00 
   1c444:	48 8d 85 48 f1 ff ff 	lea    -0xeb8(%rbp),%rax
   1c44b:	48 89 85 b0 f7 ff ff 	mov    %rax,-0x850(%rbp)
   1c452:	48 8d 85 48 f1 ff ff 	lea    -0xeb8(%rbp),%rax
   1c459:	48 89 85 b8 f7 ff ff 	mov    %rax,-0x848(%rbp)
   1c460:	48 8d 85 48 f1 ff ff 	lea    -0xeb8(%rbp),%rax
   1c467:	48 89 85 c0 f7 ff ff 	mov    %rax,-0x840(%rbp)
   1c46e:	48 8d 85 48 f1 ff ff 	lea    -0xeb8(%rbp),%rax
   1c475:	48 89 85 c8 f7 ff ff 	mov    %rax,-0x838(%rbp)
   1c47c:	48 8d 85 48 f1 ff ff 	lea    -0xeb8(%rbp),%rax
   1c483:	48 89 85 d0 f7 ff ff 	mov    %rax,-0x830(%rbp)
   1c48a:	48 8d 85 48 f1 ff ff 	lea    -0xeb8(%rbp),%rax
   1c491:	48 89 85 d8 f7 ff ff 	mov    %rax,-0x828(%rbp)
   1c498:	48 8d 85 48 f1 ff ff 	lea    -0xeb8(%rbp),%rax
   1c49f:	48 89 85 e0 f7 ff ff 	mov    %rax,-0x820(%rbp)
   1c4a6:	48 8d 85 48 f1 ff ff 	lea    -0xeb8(%rbp),%rax
   1c4ad:	48 89 85 e8 f7 ff ff 	mov    %rax,-0x818(%rbp)
   1c4b4:	48 8d 85 48 f1 ff ff 	lea    -0xeb8(%rbp),%rax
   1c4bb:	48 89 85 f0 f7 ff ff 	mov    %rax,-0x810(%rbp)
   1c4c2:	48 8d 85 48 f1 ff ff 	lea    -0xeb8(%rbp),%rax
   1c4c9:	48 89 85 f8 f7 ff ff 	mov    %rax,-0x808(%rbp)
   1c4d0:	48 8d 85 48 f1 ff ff 	lea    -0xeb8(%rbp),%rax
   1c4d7:	48 89 85 00 f8 ff ff 	mov    %rax,-0x800(%rbp)
   1c4de:	48 8d 85 48 f1 ff ff 	lea    -0xeb8(%rbp),%rax
   1c4e5:	48 89 85 08 f8 ff ff 	mov    %rax,-0x7f8(%rbp)
   1c4ec:	48 8d 85 48 f1 ff ff 	lea    -0xeb8(%rbp),%rax
   1c4f3:	48 89 85 10 f8 ff ff 	mov    %rax,-0x7f0(%rbp)
   1c4fa:	48 8d 85 48 f1 ff ff 	lea    -0xeb8(%rbp),%rax
   1c501:	48 89 85 18 f8 ff ff 	mov    %rax,-0x7e8(%rbp)
   1c508:	48 c7 85 20 f8 ff ff 	movq   $0x0,-0x7e0(%rbp)
   1c50f:	00 00 00 00 
   1c513:	48 8d 85 48 f1 ff ff 	lea    -0xeb8(%rbp),%rax
   1c51a:	48 89 85 28 f8 ff ff 	mov    %rax,-0x7d8(%rbp)
   1c521:	48 8d 85 48 f1 ff ff 	lea    -0xeb8(%rbp),%rax
   1c528:	48 89 85 30 f8 ff ff 	mov    %rax,-0x7d0(%rbp)
   1c52f:	48 c7 85 38 f8 ff ff 	movq   $0x0,-0x7c8(%rbp)
   1c536:	00 00 00 00 
   1c53a:	48 8d 85 48 f1 ff ff 	lea    -0xeb8(%rbp),%rax
   1c541:	48 89 85 40 f8 ff ff 	mov    %rax,-0x7c0(%rbp)
   1c548:	48 c7 85 48 f8 ff ff 	movq   $0x0,-0x7b8(%rbp)
   1c54f:	00 00 00 00 
   1c553:	48 8d 85 48 f1 ff ff 	lea    -0xeb8(%rbp),%rax
   1c55a:	48 89 85 50 f8 ff ff 	mov    %rax,-0x7b0(%rbp)
   1c561:	48 8d 85 48 f1 ff ff 	lea    -0xeb8(%rbp),%rax
   1c568:	48 89 85 58 f8 ff ff 	mov    %rax,-0x7a8(%rbp)
   1c56f:	48 8d 85 48 f1 ff ff 	lea    -0xeb8(%rbp),%rax
   1c576:	48 89 85 60 f8 ff ff 	mov    %rax,-0x7a0(%rbp)
   1c57d:	48 8d 85 48 f1 ff ff 	lea    -0xeb8(%rbp),%rax
   1c584:	48 89 85 68 f8 ff ff 	mov    %rax,-0x798(%rbp)
   1c58b:	48 8d 85 48 f1 ff ff 	lea    -0xeb8(%rbp),%rax
   1c592:	48 89 85 70 f8 ff ff 	mov    %rax,-0x790(%rbp)
   1c599:	48 8d 85 48 f1 ff ff 	lea    -0xeb8(%rbp),%rax
   1c5a0:	48 89 85 78 f8 ff ff 	mov    %rax,-0x788(%rbp)
   1c5a7:	48 8d 85 48 f1 ff ff 	lea    -0xeb8(%rbp),%rax
   1c5ae:	48 89 85 80 f8 ff ff 	mov    %rax,-0x780(%rbp)
   1c5b5:	48 8d 85 48 f1 ff ff 	lea    -0xeb8(%rbp),%rax
   1c5bc:	48 89 85 88 f8 ff ff 	mov    %rax,-0x778(%rbp)
   1c5c3:	48 8d 85 48 f1 ff ff 	lea    -0xeb8(%rbp),%rax
   1c5ca:	48 89 85 90 f8 ff ff 	mov    %rax,-0x770(%rbp)
   1c5d1:	48 8d 85 48 f1 ff ff 	lea    -0xeb8(%rbp),%rax
   1c5d8:	48 89 85 98 f8 ff ff 	mov    %rax,-0x768(%rbp)
   1c5df:	48 8d 85 48 f1 ff ff 	lea    -0xeb8(%rbp),%rax
   1c5e6:	48 89 85 a0 f8 ff ff 	mov    %rax,-0x760(%rbp)
   1c5ed:	c7 85 c4 f0 ff ff 01 	movl   $0x1,-0xf3c(%rbp)
   1c5f4:	00 00 00 
   1c5f7:	c7 85 c8 f0 ff ff 75 	movl   $0x50e55875,-0xf38(%rbp)
   1c5fe:	58 e5 50 
   1c601:	c7 85 ac f0 ff ff 00 	movl   $0x0,-0xf54(%rbp)
   1c608:	00 00 00 
   1c60b:	c7 85 cc f0 ff ff f9 	movl   $0x8135aaf9,-0xf34(%rbp)
   1c612:	aa 35 81 
   1c615:	66 c7 85 a0 f0 ff ff 	movw   $0xffff,-0xf60(%rbp)
   1c61c:	ff ff 
   1c61e:	c7 85 d0 f0 ff ff 00 	movl   $0x0,-0xf30(%rbp)
   1c625:	00 00 00 
   1c628:	48 8d 05 6b 9a 00 00 	lea    0x9a6b(%rip),%rax        # 2609a <g_176>
   1c62f:	48 89 85 b0 f1 ff ff 	mov    %rax,-0xe50(%rbp)
   1c636:	48 8d 05 fb ec 00 00 	lea    0xecfb(%rip),%rax        # 2b338 <g_380>
   1c63d:	48 89 85 50 f1 ff ff 	mov    %rax,-0xeb0(%rbp)
   1c644:	48 8d 85 50 f1 ff ff 	lea    -0xeb0(%rbp),%rax
   1c64b:	48 89 85 d0 f4 ff ff 	mov    %rax,-0xb30(%rbp)
   1c652:	48 c7 85 d8 f4 ff ff 	movq   $0x0,-0xb28(%rbp)
   1c659:	00 00 00 00 
   1c65d:	48 8d 85 50 f1 ff ff 	lea    -0xeb0(%rbp),%rax
   1c664:	48 89 85 e0 f4 ff ff 	mov    %rax,-0xb20(%rbp)
   1c66b:	48 8d 85 50 f1 ff ff 	lea    -0xeb0(%rbp),%rax
   1c672:	48 89 85 e8 f4 ff ff 	mov    %rax,-0xb18(%rbp)
   1c679:	48 8d 85 50 f1 ff ff 	lea    -0xeb0(%rbp),%rax
   1c680:	48 89 85 f0 f4 ff ff 	mov    %rax,-0xb10(%rbp)
   1c687:	48 8d 85 50 f1 ff ff 	lea    -0xeb0(%rbp),%rax
   1c68e:	48 89 85 f8 f4 ff ff 	mov    %rax,-0xb08(%rbp)
   1c695:	48 8d 85 50 f1 ff ff 	lea    -0xeb0(%rbp),%rax
   1c69c:	48 89 85 00 f5 ff ff 	mov    %rax,-0xb00(%rbp)
   1c6a3:	48 8d 85 50 f1 ff ff 	lea    -0xeb0(%rbp),%rax
   1c6aa:	48 89 85 08 f5 ff ff 	mov    %rax,-0xaf8(%rbp)
   1c6b1:	48 8d 85 50 f1 ff ff 	lea    -0xeb0(%rbp),%rax
   1c6b8:	48 89 85 10 f5 ff ff 	mov    %rax,-0xaf0(%rbp)
   1c6bf:	48 c7 85 18 f5 ff ff 	movq   $0x0,-0xae8(%rbp)
   1c6c6:	00 00 00 00 
   1c6ca:	48 8d 85 50 f1 ff ff 	lea    -0xeb0(%rbp),%rax
   1c6d1:	48 89 85 20 f5 ff ff 	mov    %rax,-0xae0(%rbp)
   1c6d8:	48 8d 85 50 f1 ff ff 	lea    -0xeb0(%rbp),%rax
   1c6df:	48 89 85 28 f5 ff ff 	mov    %rax,-0xad8(%rbp)
   1c6e6:	48 c7 85 30 f5 ff ff 	movq   $0x0,-0xad0(%rbp)
   1c6ed:	00 00 00 00 
   1c6f1:	48 8d 85 50 f1 ff ff 	lea    -0xeb0(%rbp),%rax
   1c6f8:	48 89 85 38 f5 ff ff 	mov    %rax,-0xac8(%rbp)
   1c6ff:	48 8d 85 50 f1 ff ff 	lea    -0xeb0(%rbp),%rax
   1c706:	48 89 85 40 f5 ff ff 	mov    %rax,-0xac0(%rbp)
   1c70d:	48 8d 85 50 f1 ff ff 	lea    -0xeb0(%rbp),%rax
   1c714:	48 89 85 48 f5 ff ff 	mov    %rax,-0xab8(%rbp)
   1c71b:	48 c7 85 50 f5 ff ff 	movq   $0x0,-0xab0(%rbp)
   1c722:	00 00 00 00 
   1c726:	48 8d 85 50 f1 ff ff 	lea    -0xeb0(%rbp),%rax
   1c72d:	48 89 85 58 f5 ff ff 	mov    %rax,-0xaa8(%rbp)
   1c734:	48 8d 85 50 f1 ff ff 	lea    -0xeb0(%rbp),%rax
   1c73b:	48 89 85 60 f5 ff ff 	mov    %rax,-0xaa0(%rbp)
   1c742:	48 c7 85 68 f5 ff ff 	movq   $0x0,-0xa98(%rbp)
   1c749:	00 00 00 00 
   1c74d:	48 8d 85 50 f1 ff ff 	lea    -0xeb0(%rbp),%rax
   1c754:	48 89 85 70 f5 ff ff 	mov    %rax,-0xa90(%rbp)
   1c75b:	48 8d 85 50 f1 ff ff 	lea    -0xeb0(%rbp),%rax
   1c762:	48 89 85 78 f5 ff ff 	mov    %rax,-0xa88(%rbp)
   1c769:	48 8d 85 50 f1 ff ff 	lea    -0xeb0(%rbp),%rax
   1c770:	48 89 85 80 f5 ff ff 	mov    %rax,-0xa80(%rbp)
   1c777:	48 8d 85 50 f1 ff ff 	lea    -0xeb0(%rbp),%rax
   1c77e:	48 89 85 88 f5 ff ff 	mov    %rax,-0xa78(%rbp)
   1c785:	48 8d 85 50 f1 ff ff 	lea    -0xeb0(%rbp),%rax
   1c78c:	48 89 85 90 f5 ff ff 	mov    %rax,-0xa70(%rbp)
   1c793:	48 8d 85 50 f1 ff ff 	lea    -0xeb0(%rbp),%rax
   1c79a:	48 89 85 98 f5 ff ff 	mov    %rax,-0xa68(%rbp)
   1c7a1:	48 8d 85 50 f1 ff ff 	lea    -0xeb0(%rbp),%rax
   1c7a8:	48 89 85 a0 f5 ff ff 	mov    %rax,-0xa60(%rbp)
   1c7af:	48 c7 85 a8 f5 ff ff 	movq   $0x0,-0xa58(%rbp)
   1c7b6:	00 00 00 00 
   1c7ba:	48 8d 85 50 f1 ff ff 	lea    -0xeb0(%rbp),%rax
   1c7c1:	48 89 85 b0 f5 ff ff 	mov    %rax,-0xa50(%rbp)
   1c7c8:	48 8d 85 50 f1 ff ff 	lea    -0xeb0(%rbp),%rax
   1c7cf:	48 89 85 b8 f5 ff ff 	mov    %rax,-0xa48(%rbp)
   1c7d6:	48 c7 85 c0 f5 ff ff 	movq   $0x0,-0xa40(%rbp)
   1c7dd:	00 00 00 00 
   1c7e1:	48 8d 85 50 f1 ff ff 	lea    -0xeb0(%rbp),%rax
   1c7e8:	48 89 85 c8 f5 ff ff 	mov    %rax,-0xa38(%rbp)
   1c7ef:	48 8d 85 50 f1 ff ff 	lea    -0xeb0(%rbp),%rax
   1c7f6:	48 89 85 d0 f5 ff ff 	mov    %rax,-0xa30(%rbp)
   1c7fd:	48 8d 85 50 f1 ff ff 	lea    -0xeb0(%rbp),%rax
   1c804:	48 89 85 d8 f5 ff ff 	mov    %rax,-0xa28(%rbp)
   1c80b:	48 c7 85 e0 f5 ff ff 	movq   $0x0,-0xa20(%rbp)
   1c812:	00 00 00 00 
   1c816:	48 8d 85 50 f1 ff ff 	lea    -0xeb0(%rbp),%rax
   1c81d:	48 89 85 e8 f5 ff ff 	mov    %rax,-0xa18(%rbp)
   1c824:	48 8d 85 50 f1 ff ff 	lea    -0xeb0(%rbp),%rax
   1c82b:	48 89 85 f0 f5 ff ff 	mov    %rax,-0xa10(%rbp)
   1c832:	48 c7 85 f8 f5 ff ff 	movq   $0x0,-0xa08(%rbp)
   1c839:	00 00 00 00 
   1c83d:	48 8d 85 50 f1 ff ff 	lea    -0xeb0(%rbp),%rax
   1c844:	48 89 85 00 f6 ff ff 	mov    %rax,-0xa00(%rbp)
   1c84b:	48 8d 85 50 f1 ff ff 	lea    -0xeb0(%rbp),%rax
   1c852:	48 89 85 08 f6 ff ff 	mov    %rax,-0x9f8(%rbp)
   1c859:	48 8d 85 50 f1 ff ff 	lea    -0xeb0(%rbp),%rax
   1c860:	48 89 85 10 f6 ff ff 	mov    %rax,-0x9f0(%rbp)
   1c867:	48 8d 85 50 f1 ff ff 	lea    -0xeb0(%rbp),%rax
   1c86e:	48 89 85 18 f6 ff ff 	mov    %rax,-0x9e8(%rbp)
   1c875:	48 8d 05 94 ed 00 00 	lea    0xed94(%rip),%rax        # 2b610 <g_453+0xb0>
   1c87c:	48 89 85 b8 f1 ff ff 	mov    %rax,-0xe48(%rbp)
   1c883:	48 c7 85 58 f1 ff ff 	movq   $0x0,-0xea8(%rbp)
   1c88a:	00 00 00 00 
   1c88e:	48 8d 85 58 f1 ff ff 	lea    -0xea8(%rbp),%rax
   1c895:	48 89 85 60 f1 ff ff 	mov    %rax,-0xea0(%rbp)
   1c89c:	48 8d 05 9d ea 00 00 	lea    0xea9d(%rip),%rax        # 2b340 <g_379>
   1c8a3:	48 89 85 68 f1 ff ff 	mov    %rax,-0xe98(%rbp)
   1c8aa:	48 8d 85 68 f1 ff ff 	lea    -0xe98(%rbp),%rax
   1c8b1:	48 89 85 c0 f1 ff ff 	mov    %rax,-0xe40(%rbp)
   1c8b8:	c7 85 d4 f0 ff ff f9 	movl   $0xfffffff9,-0xf2c(%rbp)
   1c8bf:	ff ff ff 
   1c8c2:	66 c7 85 a2 f0 ff ff 	movw   $0x1,-0xf5e(%rbp)
   1c8c9:	01 00 
   1c8cb:	48 c7 85 70 f1 ff ff 	movq   $0x1,-0xe90(%rbp)
   1c8d2:	01 00 00 00 
   1c8d6:	c7 85 d8 f0 ff ff 00 	movl   $0x0,-0xf28(%rbp)
   1c8dd:	00 00 00 
   1c8e0:	c7 85 b0 f0 ff ff 00 	movl   $0x0,-0xf50(%rbp)
   1c8e7:	00 00 00 
   1c8ea:	c7 85 dc f0 ff ff 8b 	movl   $0xea55f78b,-0xf24(%rbp)
   1c8f1:	f7 55 ea 
   1c8f4:	c6 85 99 f0 ff ff 09 	movb   $0x9,-0xf67(%rbp)
   1c8fb:	48 8d 05 6e f0 00 00 	lea    0xf06e(%rip),%rax        # 2b970 <g_738>
   1c902:	48 89 85 78 f1 ff ff 	mov    %rax,-0xe88(%rbp)
   1c909:	48 8d 85 78 f1 ff ff 	lea    -0xe88(%rbp),%rax
   1c910:	48 89 85 c8 f1 ff ff 	mov    %rax,-0xe38(%rbp)
   1c917:	48 8d 85 70 f1 ff ff 	lea    -0xe90(%rbp),%rax
   1c91e:	48 89 85 80 f1 ff ff 	mov    %rax,-0xe80(%rbp)
   1c925:	48 8d 85 80 f1 ff ff 	lea    -0xe80(%rbp),%rax
   1c92c:	48 89 85 d0 f1 ff ff 	mov    %rax,-0xe30(%rbp)
   1c933:	c6 85 9a f0 ff ff fa 	movb   $0xfa,-0xf66(%rbp)
   1c93a:	48 8d 05 57 f1 00 00 	lea    0xf157(%rip),%rax        # 2ba98 <g_1122>
   1c941:	48 89 85 d8 f1 ff ff 	mov    %rax,-0xe28(%rbp)
   1c948:	48 8d 85 14 f3 ff ff 	lea    -0xcec(%rbp),%rax
   1c94f:	48 89 85 e0 f1 ff ff 	mov    %rax,-0xe20(%rbp)
   1c956:	c7 85 e0 f0 ff ff 08 	movl   $0x8,-0xf20(%rbp)
   1c95d:	00 00 00 
   1c960:	48 8d 85 1a f3 ff ff 	lea    -0xce6(%rbp),%rax
   1c967:	48 89 85 e8 f1 ff ff 	mov    %rax,-0xe18(%rbp)
   1c96e:	48 8d 05 c3 af 00 00 	lea    0xafc3(%rip),%rax        # 27938 <g_1365>
   1c975:	48 89 85 f0 f1 ff ff 	mov    %rax,-0xe10(%rbp)
   1c97c:	c6 85 9b f0 ff ff 06 	movb   $0x6,-0xf65(%rbp)
   1c983:	c7 85 b4 f0 ff ff 00 	movl   $0x0,-0xf4c(%rbp)
   1c98a:	00 00 00 
   1c98d:	eb 19                	jmp    1c9a8 <func_86+0x88b>
   1c98f:	8b 85 b4 f0 ff ff    	mov    -0xf4c(%rbp),%eax
   1c995:	48 98                	cltq   
   1c997:	66 c7 84 45 12 f3 ff 	movw   $0x1,-0xcee(%rbp,%rax,2)
   1c99e:	ff 01 00 
   1c9a1:	83 85 b4 f0 ff ff 01 	addl   $0x1,-0xf4c(%rbp)
   1c9a8:	83 bd b4 f0 ff ff 00 	cmpl   $0x0,-0xf4c(%rbp)
   1c9af:	7e de                	jle    1c98f <func_86+0x872>
   1c9b1:	c7 85 b4 f0 ff ff 00 	movl   $0x0,-0xf4c(%rbp)
   1c9b8:	00 00 00 
   1c9bb:	eb 1a                	jmp    1c9d7 <func_86+0x8ba>
   1c9bd:	8b 85 b4 f0 ff ff    	mov    -0xf4c(%rbp),%eax
   1c9c3:	48 98                	cltq   
   1c9c5:	c7 84 85 14 f3 ff ff 	movl   $0x4f6cba46,-0xcec(%rbp,%rax,4)
   1c9cc:	46 ba 6c 4f 
   1c9d0:	83 85 b4 f0 ff ff 01 	addl   $0x1,-0xf4c(%rbp)
   1c9d7:	83 bd b4 f0 ff ff 00 	cmpl   $0x0,-0xf4c(%rbp)
   1c9de:	7e dd                	jle    1c9bd <func_86+0x8a0>
   1c9e0:	c7 85 b4 f0 ff ff 00 	movl   $0x0,-0xf4c(%rbp)
   1c9e7:	00 00 00 
   1c9ea:	eb 1e                	jmp    1ca0a <func_86+0x8ed>
   1c9ec:	8b 85 b4 f0 ff ff    	mov    -0xf4c(%rbp),%eax
   1c9f2:	48 98                	cltq   
   1c9f4:	48 8d 95 60 f1 ff ff 	lea    -0xea0(%rbp),%rdx
   1c9fb:	48 89 94 c5 60 f3 ff 	mov    %rdx,-0xca0(%rbp,%rax,8)
   1ca02:	ff 
   1ca03:	83 85 b4 f0 ff ff 01 	addl   $0x1,-0xf4c(%rbp)
   1ca0a:	83 bd b4 f0 ff ff 02 	cmpl   $0x2,-0xf4c(%rbp)
   1ca11:	7e d9                	jle    1c9ec <func_86+0x8cf>
   1ca13:	c7 85 b4 f0 ff ff 00 	movl   $0x0,-0xf4c(%rbp)
   1ca1a:	00 00 00 
   1ca1d:	eb 1a                	jmp    1ca39 <func_86+0x91c>
   1ca1f:	8b 85 b4 f0 ff ff    	mov    -0xf4c(%rbp),%eax
   1ca25:	48 98                	cltq   
   1ca27:	c7 84 85 40 f3 ff ff 	movl   $0x52fbe6a1,-0xcc0(%rbp,%rax,4)
   1ca2e:	a1 e6 fb 52 
   1ca32:	83 85 b4 f0 ff ff 01 	addl   $0x1,-0xf4c(%rbp)
   1ca39:	83 bd b4 f0 ff ff 04 	cmpl   $0x4,-0xf4c(%rbp)
   1ca40:	7e dd                	jle    1ca1f <func_86+0x902>
   1ca42:	c7 85 b4 f0 ff ff 00 	movl   $0x0,-0xf4c(%rbp)
   1ca49:	00 00 00 
   1ca4c:	eb 1b                	jmp    1ca69 <func_86+0x94c>
   1ca4e:	8b 85 b4 f0 ff ff    	mov    -0xf4c(%rbp),%eax
   1ca54:	48 98                	cltq   
   1ca56:	48 c7 84 c5 28 f3 ff 	movq   $0x1,-0xcd8(%rbp,%rax,8)
   1ca5d:	ff 01 00 00 00 
   1ca62:	83 85 b4 f0 ff ff 01 	addl   $0x1,-0xf4c(%rbp)
   1ca69:	83 bd b4 f0 ff ff 00 	cmpl   $0x0,-0xf4c(%rbp)
   1ca70:	7e dc                	jle    1ca4e <func_86+0x931>
   1ca72:	c7 85 b4 f0 ff ff 00 	movl   $0x0,-0xf4c(%rbp)
   1ca79:	00 00 00 
   1ca7c:	eb 19                	jmp    1ca97 <func_86+0x97a>
   1ca7e:	8b 85 b4 f0 ff ff    	mov    -0xf4c(%rbp),%eax
   1ca84:	48 98                	cltq   
   1ca86:	66 c7 84 45 1a f3 ff 	movw   $0x9490,-0xce6(%rbp,%rax,2)
   1ca8d:	ff 90 94 
   1ca90:	83 85 b4 f0 ff ff 01 	addl   $0x1,-0xf4c(%rbp)
   1ca97:	83 bd b4 f0 ff ff 02 	cmpl   $0x2,-0xf4c(%rbp)
   1ca9e:	7e de                	jle    1ca7e <func_86+0x961>
   1caa0:	66 83 bd 80 f0 ff ff 	cmpw   $0x0,-0xf80(%rbp)
   1caa7:	00 
   1caa8:	0f 84 94 0c 00 00    	je     1d742 <func_86+0x1625>
   1caae:	48 8d 85 b0 f8 ff ff 	lea    -0x750(%rbp),%rax
   1cab5:	48 8d 15 64 50 00 00 	lea    0x5064(%rip),%rdx        # 21b20 <g_2211+0xa90>
   1cabc:	b9 64 00 00 00       	mov    $0x64,%ecx
   1cac1:	48 89 c7             	mov    %rax,%rdi
   1cac4:	48 89 d6             	mov    %rdx,%rsi
   1cac7:	f3 48 a5             	rep movsq %ds:(%rsi),%es:(%rdi)
   1caca:	c7 85 88 f1 ff ff 3a 	movl   $0x56b39c3a,-0xe78(%rbp)
   1cad1:	9c b3 56 
   1cad4:	48 8d 05 7d 95 00 00 	lea    0x957d(%rip),%rax        # 26058 <g_107>
   1cadb:	48 89 85 70 f2 ff ff 	mov    %rax,-0xd90(%rbp)
   1cae2:	48 8d 05 0f e8 00 00 	lea    0xe80f(%rip),%rax        # 2b2f8 <g_197>
   1cae9:	48 89 85 78 f2 ff ff 	mov    %rax,-0xd88(%rbp)
   1caf0:	48 c7 85 80 f2 ff ff 	movq   $0x0,-0xd80(%rbp)
   1caf7:	00 00 00 00 
   1cafb:	c7 85 fc f0 ff ff ff 	movl   $0xffffffff,-0xf04(%rbp)
   1cb02:	ff ff ff 
   1cb05:	c7 85 00 f1 ff ff fd 	movl   $0xfffffffd,-0xf00(%rbp)
   1cb0c:	ff ff ff 
   1cb0f:	48 c7 85 88 f2 ff ff 	movq   $0x0,-0xd78(%rbp)
   1cb16:	00 00 00 00 
   1cb1a:	c7 85 04 f1 ff ff 09 	movl   $0x9,-0xefc(%rbp)
   1cb21:	00 00 00 
   1cb24:	c7 85 21 f3 ff ff fe 	movl   $0xfefefffe,-0xcdf(%rbp)
   1cb2b:	ff fe fe 
   1cb2e:	66 c7 85 25 f3 ff ff 	movw   $0xfeff,-0xcdb(%rbp)
   1cb35:	ff fe 
   1cb37:	c6 85 27 f3 ff ff fe 	movb   $0xfe,-0xcd9(%rbp)
   1cb3e:	48 c7 85 90 f2 ff ff 	movq   $0x0,-0xd70(%rbp)
   1cb45:	00 00 00 00 
   1cb49:	c7 85 08 f1 ff ff 00 	movl   $0x0,-0xef8(%rbp)
   1cb50:	00 00 00 
   1cb53:	c7 85 0c f1 ff ff 04 	movl   $0x4,-0xef4(%rbp)
   1cb5a:	00 00 00 
   1cb5d:	c7 85 10 f1 ff ff f6 	movl   $0xfffffff6,-0xef0(%rbp)
   1cb64:	ff ff ff 
   1cb67:	c7 85 14 f1 ff ff ff 	movl   $0xffffffff,-0xeec(%rbp)
   1cb6e:	ff ff ff 
   1cb71:	c7 85 18 f1 ff ff cd 	movl   $0x6d05dbcd,-0xee8(%rbp)
   1cb78:	db 05 6d 
   1cb7b:	c7 85 1c f1 ff ff d6 	movl   $0x766876d6,-0xee4(%rbp)
   1cb82:	76 68 76 
   1cb85:	c7 85 20 f1 ff ff fe 	movl   $0xfffffffe,-0xee0(%rbp)
   1cb8c:	ff ff ff 
   1cb8f:	c7 85 24 f1 ff ff 01 	movl   $0x1,-0xedc(%rbp)
   1cb96:	00 00 00 
   1cb99:	c7 85 28 f1 ff ff fe 	movl   $0xfffffffe,-0xed8(%rbp)
   1cba0:	ff ff ff 
   1cba3:	c7 85 2c f1 ff ff e1 	movl   $0x1e13b9e1,-0xed4(%rbp)
   1cbaa:	b9 13 1e 
   1cbad:	c7 85 30 f1 ff ff 09 	movl   $0x9,-0xed0(%rbp)
   1cbb4:	00 00 00 
   1cbb7:	c7 85 80 f3 ff ff e8 	movl   $0xb7105de8,-0xc80(%rbp)
   1cbbe:	5d 10 b7 
   1cbc1:	c7 85 84 f3 ff ff e8 	movl   $0xb7105de8,-0xc7c(%rbp)
   1cbc8:	5d 10 b7 
   1cbcb:	c7 85 88 f3 ff ff 04 	movl   $0x4,-0xc78(%rbp)
   1cbd2:	00 00 00 
   1cbd5:	c7 85 8c f3 ff ff e8 	movl   $0xb7105de8,-0xc74(%rbp)
   1cbdc:	5d 10 b7 
   1cbdf:	c7 85 90 f3 ff ff e8 	movl   $0xb7105de8,-0xc70(%rbp)
   1cbe6:	5d 10 b7 
   1cbe9:	c7 85 94 f3 ff ff 01 	movl   $0x1,-0xc6c(%rbp)
   1cbf0:	00 00 00 
   1cbf3:	c7 85 98 f3 ff ff 01 	movl   $0x1,-0xc68(%rbp)
   1cbfa:	00 00 00 
   1cbfd:	c7 85 9c f3 ff ff 01 	movl   $0x1,-0xc64(%rbp)
   1cc04:	00 00 00 
   1cc07:	c7 85 a0 f3 ff ff 04 	movl   $0x4,-0xc60(%rbp)
   1cc0e:	00 00 00 
   1cc11:	c7 85 a4 f3 ff ff 01 	movl   $0x1,-0xc5c(%rbp)
   1cc18:	00 00 00 
   1cc1b:	c7 85 a8 f3 ff ff 04 	movl   $0x4,-0xc58(%rbp)
   1cc22:	00 00 00 
   1cc25:	c7 85 ac f3 ff ff 04 	movl   $0x4,-0xc54(%rbp)
   1cc2c:	00 00 00 
   1cc2f:	66 c7 85 34 f3 ff ff 	movw   $0xffff,-0xccc(%rbp)
   1cc36:	ff ff 
   1cc38:	66 c7 85 36 f3 ff ff 	movw   $0xffff,-0xcca(%rbp)
   1cc3f:	ff ff 
   1cc41:	66 c7 85 38 f3 ff ff 	movw   $0xffff,-0xcc8(%rbp)
   1cc48:	ff ff 
   1cc4a:	66 c7 85 3a f3 ff ff 	movw   $0xffff,-0xcc6(%rbp)
   1cc51:	ff ff 
   1cc53:	66 c7 85 3c f3 ff ff 	movw   $0xffff,-0xcc4(%rbp)
   1cc5a:	ff ff 
   1cc5c:	66 c7 85 3e f3 ff ff 	movw   $0xffff,-0xcc2(%rbp)
   1cc63:	ff ff 
   1cc65:	48 c7 85 98 f2 ff ff 	movq   $0x4,-0xd68(%rbp)
   1cc6c:	04 00 00 00 
   1cc70:	c7 85 f0 f3 ff ff 01 	movl   $0x1,-0xc10(%rbp)
   1cc77:	00 00 00 
   1cc7a:	c7 85 f4 f3 ff ff ec 	movl   $0x36b5cdec,-0xc0c(%rbp)
   1cc81:	cd b5 36 
   1cc84:	c7 85 f8 f3 ff ff 01 	movl   $0x1,-0xc08(%rbp)
   1cc8b:	00 00 00 
   1cc8e:	c7 85 fc f3 ff ff ec 	movl   $0x36b5cdec,-0xc04(%rbp)
   1cc95:	cd b5 36 
   1cc98:	c7 85 00 f4 ff ff 01 	movl   $0x1,-0xc00(%rbp)
   1cc9f:	00 00 00 
   1cca2:	c7 85 04 f4 ff ff ec 	movl   $0x36b5cdec,-0xbfc(%rbp)
   1cca9:	cd b5 36 
   1ccac:	c7 85 08 f4 ff ff 01 	movl   $0x1,-0xbf8(%rbp)
   1ccb3:	00 00 00 
   1ccb6:	c7 85 0c f4 ff ff ec 	movl   $0x36b5cdec,-0xbf4(%rbp)
   1ccbd:	cd b5 36 
   1ccc0:	c7 85 10 f4 ff ff 01 	movl   $0x1,-0xbf0(%rbp)
   1ccc7:	00 00 00 
   1ccca:	c7 85 14 f4 ff ff d7 	movl   $0xb04d01d7,-0xbec(%rbp)
   1ccd1:	01 4d b0 
   1ccd4:	c7 85 18 f4 ff ff d7 	movl   $0xb04d01d7,-0xbe8(%rbp)
   1ccdb:	01 4d b0 
   1ccde:	c7 85 1c f4 ff ff 4f 	movl   $0x2c4df94f,-0xbe4(%rbp)
   1cce5:	f9 4d 2c 
   1cce8:	c7 85 20 f4 ff ff 4f 	movl   $0x2c4df94f,-0xbe0(%rbp)
   1ccef:	f9 4d 2c 
   1ccf2:	c7 85 24 f4 ff ff d7 	movl   $0xb04d01d7,-0xbdc(%rbp)
   1ccf9:	01 4d b0 
   1ccfc:	c7 85 28 f4 ff ff d7 	movl   $0xb04d01d7,-0xbd8(%rbp)
   1cd03:	01 4d b0 
   1cd06:	c7 85 2c f4 ff ff 4f 	movl   $0x2c4df94f,-0xbd4(%rbp)
   1cd0d:	f9 4d 2c 
   1cd10:	c7 85 30 f4 ff ff 4f 	movl   $0x2c4df94f,-0xbd0(%rbp)
   1cd17:	f9 4d 2c 
   1cd1a:	c7 85 34 f4 ff ff d7 	movl   $0xb04d01d7,-0xbcc(%rbp)
   1cd21:	01 4d b0 
   1cd24:	c7 85 38 f4 ff ff 70 	movl   $0x5e0f970,-0xbc8(%rbp)
   1cd2b:	f9 e0 05 
   1cd2e:	c7 85 3c f4 ff ff ec 	movl   $0x36b5cdec,-0xbc4(%rbp)
   1cd35:	cd b5 36 
   1cd38:	c7 85 40 f4 ff ff 70 	movl   $0x5e0f970,-0xbc0(%rbp)
   1cd3f:	f9 e0 05 
   1cd42:	c7 85 44 f4 ff ff ec 	movl   $0x36b5cdec,-0xbbc(%rbp)
   1cd49:	cd b5 36 
   1cd4c:	c7 85 48 f4 ff ff 70 	movl   $0x5e0f970,-0xbb8(%rbp)
   1cd53:	f9 e0 05 
   1cd56:	c7 85 4c f4 ff ff ec 	movl   $0x36b5cdec,-0xbb4(%rbp)
   1cd5d:	cd b5 36 
   1cd60:	c7 85 50 f4 ff ff 70 	movl   $0x5e0f970,-0xbb0(%rbp)
   1cd67:	f9 e0 05 
   1cd6a:	c7 85 54 f4 ff ff ec 	movl   $0x36b5cdec,-0xbac(%rbp)
   1cd71:	cd b5 36 
   1cd74:	c7 85 58 f4 ff ff 70 	movl   $0x5e0f970,-0xba8(%rbp)
   1cd7b:	f9 e0 05 
   1cd7e:	48 8d 85 60 f1 ff ff 	lea    -0xea0(%rbp),%rax
   1cd85:	48 89 85 a0 f2 ff ff 	mov    %rax,-0xd60(%rbp)
   1cd8c:	c7 85 34 f1 ff ff 76 	movl   $0x8fcede76,-0xecc(%rbp)
   1cd93:	de ce 8f 
   1cd96:	48 8d 05 e3 9e 00 00 	lea    0x9ee3(%rip),%rax        # 26c80 <g_613+0x20>
   1cd9d:	48 89 85 a8 f2 ff ff 	mov    %rax,-0xd58(%rbp)
   1cda4:	c6 85 9e f0 ff ff 03 	movb   $0x3,-0xf62(%rbp)
   1cdab:	66 c7 85 60 f4 ff ff 	movw   $0x5dc5,-0xba0(%rbp)
   1cdb2:	c5 5d 
   1cdb4:	66 c7 85 62 f4 ff ff 	movw   $0x5dc5,-0xb9e(%rbp)
   1cdbb:	c5 5d 
   1cdbd:	66 c7 85 64 f4 ff ff 	movw   $0xfffd,-0xb9c(%rbp)
   1cdc4:	fd ff 
   1cdc6:	66 c7 85 66 f4 ff ff 	movw   $0xfa90,-0xb9a(%rbp)
   1cdcd:	90 fa 
   1cdcf:	66 c7 85 68 f4 ff ff 	movw   $0xc4fe,-0xb98(%rbp)
   1cdd6:	fe c4 
   1cdd8:	66 c7 85 6a f4 ff ff 	movw   $0xfffd,-0xb96(%rbp)
   1cddf:	fd ff 
   1cde1:	66 c7 85 6c f4 ff ff 	movw   $0xc4fe,-0xb94(%rbp)
   1cde8:	fe c4 
   1cdea:	66 c7 85 6e f4 ff ff 	movw   $0xfa90,-0xb92(%rbp)
   1cdf1:	90 fa 
   1cdf3:	66 c7 85 70 f4 ff ff 	movw   $0xfffd,-0xb90(%rbp)
   1cdfa:	fd ff 
   1cdfc:	66 c7 85 72 f4 ff ff 	movw   $0xa5cc,-0xb8e(%rbp)
   1ce03:	cc a5 
   1ce05:	66 c7 85 74 f4 ff ff 	movw   $0xa5cc,-0xb8c(%rbp)
   1ce0c:	cc a5 
   1ce0e:	66 c7 85 76 f4 ff ff 	movw   $0xac9a,-0xb8a(%rbp)
   1ce15:	9a ac 
   1ce17:	66 c7 85 78 f4 ff ff 	movw   $0x9fa6,-0xb88(%rbp)
   1ce1e:	a6 9f 
   1ce20:	66 c7 85 7a f4 ff ff 	movw   $0x631e,-0xb86(%rbp)
   1ce27:	1e 63 
   1ce29:	66 c7 85 7c f4 ff ff 	movw   $0xac9a,-0xb84(%rbp)
   1ce30:	9a ac 
   1ce32:	66 c7 85 7e f4 ff ff 	movw   $0x631e,-0xb82(%rbp)
   1ce39:	1e 63 
   1ce3b:	66 c7 85 80 f4 ff ff 	movw   $0x9fa6,-0xb80(%rbp)
   1ce42:	a6 9f 
   1ce44:	66 c7 85 82 f4 ff ff 	movw   $0xac9a,-0xb7e(%rbp)
   1ce4b:	9a ac 
   1ce4d:	66 c7 85 84 f4 ff ff 	movw   $0x5dc5,-0xb7c(%rbp)
   1ce54:	c5 5d 
   1ce56:	66 c7 85 86 f4 ff ff 	movw   $0x5dc5,-0xb7a(%rbp)
   1ce5d:	c5 5d 
   1ce5f:	66 c7 85 88 f4 ff ff 	movw   $0xfffd,-0xb78(%rbp)
   1ce66:	fd ff 
   1ce68:	66 c7 85 8a f4 ff ff 	movw   $0xfa90,-0xb76(%rbp)
   1ce6f:	90 fa 
   1ce71:	66 c7 85 8c f4 ff ff 	movw   $0xc4fe,-0xb74(%rbp)
   1ce78:	fe c4 
   1ce7a:	66 c7 85 8e f4 ff ff 	movw   $0xfffd,-0xb72(%rbp)
   1ce81:	fd ff 
   1ce83:	66 c7 85 90 f4 ff ff 	movw   $0xc4fe,-0xb70(%rbp)
   1ce8a:	fe c4 
   1ce8c:	66 c7 85 92 f4 ff ff 	movw   $0xfa90,-0xb6e(%rbp)
   1ce93:	90 fa 
   1ce95:	66 c7 85 94 f4 ff ff 	movw   $0xfffd,-0xb6c(%rbp)
   1ce9c:	fd ff 
   1ce9e:	66 c7 85 96 f4 ff ff 	movw   $0xa5cc,-0xb6a(%rbp)
   1cea5:	cc a5 
   1cea7:	66 c7 85 98 f4 ff ff 	movw   $0xa5cc,-0xb68(%rbp)
   1ceae:	cc a5 
   1ceb0:	66 c7 85 9a f4 ff ff 	movw   $0xac9a,-0xb66(%rbp)
   1ceb7:	9a ac 
   1ceb9:	66 c7 85 9c f4 ff ff 	movw   $0x9fa6,-0xb64(%rbp)
   1cec0:	a6 9f 
   1cec2:	66 c7 85 9e f4 ff ff 	movw   $0x631e,-0xb62(%rbp)
   1cec9:	1e 63 
   1cecb:	66 c7 85 a0 f4 ff ff 	movw   $0xac9a,-0xb60(%rbp)
   1ced2:	9a ac 
   1ced4:	66 c7 85 a2 f4 ff ff 	movw   $0x631e,-0xb5e(%rbp)
   1cedb:	1e 63 
   1cedd:	66 c7 85 a4 f4 ff ff 	movw   $0x9fa6,-0xb5c(%rbp)
   1cee4:	a6 9f 
   1cee6:	66 c7 85 a6 f4 ff ff 	movw   $0xac9a,-0xb5a(%rbp)
   1ceed:	9a ac 
   1ceef:	66 c7 85 a8 f4 ff ff 	movw   $0x5dc5,-0xb58(%rbp)
   1cef6:	c5 5d 
   1cef8:	66 c7 85 aa f4 ff ff 	movw   $0x5dc5,-0xb56(%rbp)
   1ceff:	c5 5d 
   1cf01:	66 c7 85 ac f4 ff ff 	movw   $0xfffd,-0xb54(%rbp)
   1cf08:	fd ff 
   1cf0a:	66 c7 85 ae f4 ff ff 	movw   $0xfa90,-0xb52(%rbp)
   1cf11:	90 fa 
   1cf13:	66 c7 85 b0 f4 ff ff 	movw   $0xc4fe,-0xb50(%rbp)
   1cf1a:	fe c4 
   1cf1c:	66 c7 85 b2 f4 ff ff 	movw   $0xfffd,-0xb4e(%rbp)
   1cf23:	fd ff 
   1cf25:	66 c7 85 b4 f4 ff ff 	movw   $0xc4fe,-0xb4c(%rbp)
   1cf2c:	fe c4 
   1cf2e:	66 c7 85 b6 f4 ff ff 	movw   $0xfa90,-0xb4a(%rbp)
   1cf35:	90 fa 
   1cf37:	66 c7 85 b8 f4 ff ff 	movw   $0xfffd,-0xb48(%rbp)
   1cf3e:	fd ff 
   1cf40:	66 c7 85 ba f4 ff ff 	movw   $0xa5cc,-0xb46(%rbp)
   1cf47:	cc a5 
   1cf49:	66 c7 85 bc f4 ff ff 	movw   $0xa5cc,-0xb44(%rbp)
   1cf50:	cc a5 
   1cf52:	66 c7 85 be f4 ff ff 	movw   $0xac9a,-0xb42(%rbp)
   1cf59:	9a ac 
   1cf5b:	66 c7 85 c0 f4 ff ff 	movw   $0x9fa6,-0xb40(%rbp)
   1cf62:	a6 9f 
   1cf64:	66 c7 85 c2 f4 ff ff 	movw   $0x631e,-0xb3e(%rbp)
   1cf6b:	1e 63 
   1cf6d:	66 c7 85 c4 f4 ff ff 	movw   $0xac9a,-0xb3c(%rbp)
   1cf74:	9a ac 
   1cf76:	66 c7 85 c6 f4 ff ff 	movw   $0x631e,-0xb3a(%rbp)
   1cf7d:	1e 63 
   1cf7f:	66 c7 85 c8 f4 ff ff 	movw   $0x9fa6,-0xb38(%rbp)
   1cf86:	a6 9f 
   1cf88:	66 c7 85 ca f4 ff ff 	movw   $0xac9a,-0xb36(%rbp)
   1cf8f:	9a ac 
   1cf91:	48 8d 05 58 e7 00 00 	lea    0xe758(%rip),%rax        # 2b6f0 <g_554+0x70>
   1cf98:	48 89 85 b0 f2 ff ff 	mov    %rax,-0xd50(%rbp)
   1cf9f:	c7 85 38 f1 ff ff d2 	movl   $0xa9432bd2,-0xec8(%rbp)
   1cfa6:	2b 43 a9 
   1cfa9:	c7 85 3c f1 ff ff 07 	movl   $0x7,-0xec4(%rbp)
   1cfb0:	00 00 00 
   1cfb3:	48 c7 85 b8 f2 ff ff 	movq   $0x0,-0xd48(%rbp)
   1cfba:	00 00 00 00 
   1cfbe:	c6 85 9f f0 ff ff 00 	movb   $0x0,-0xf61(%rbp)
   1cfc5:	48 c7 85 c0 f2 ff ff 	movq   $0x0,-0xd40(%rbp)
   1cfcc:	00 00 00 00 
   1cfd0:	48 8d 85 88 f1 ff ff 	lea    -0xe78(%rbp),%rax
   1cfd7:	48 89 85 90 f1 ff ff 	mov    %rax,-0xe70(%rbp)
   1cfde:	48 8d 85 90 f1 ff ff 	lea    -0xe70(%rbp),%rax
   1cfe5:	48 89 85 b0 f3 ff ff 	mov    %rax,-0xc50(%rbp)
   1cfec:	48 8d 85 90 f1 ff ff 	lea    -0xe70(%rbp),%rax
   1cff3:	48 89 85 b8 f3 ff ff 	mov    %rax,-0xc48(%rbp)
   1cffa:	48 8d 85 90 f1 ff ff 	lea    -0xe70(%rbp),%rax
   1d001:	48 89 85 c0 f3 ff ff 	mov    %rax,-0xc40(%rbp)
   1d008:	48 8d 85 90 f1 ff ff 	lea    -0xe70(%rbp),%rax
   1d00f:	48 89 85 c8 f3 ff ff 	mov    %rax,-0xc38(%rbp)
   1d016:	48 8d 85 90 f1 ff ff 	lea    -0xe70(%rbp),%rax
   1d01d:	48 89 85 d0 f3 ff ff 	mov    %rax,-0xc30(%rbp)
   1d024:	48 8d 85 90 f1 ff ff 	lea    -0xe70(%rbp),%rax
   1d02b:	48 89 85 d8 f3 ff ff 	mov    %rax,-0xc28(%rbp)
   1d032:	48 8d 85 90 f1 ff ff 	lea    -0xe70(%rbp),%rax
   1d039:	48 89 85 e0 f3 ff ff 	mov    %rax,-0xc20(%rbp)
   1d040:	48 8d 05 c1 9b 00 00 	lea    0x9bc1(%rip),%rax        # 26c08 <g_384>
   1d047:	48 89 85 c8 f2 ff ff 	mov    %rax,-0xd38(%rbp)
   1d04e:	48 c7 85 d0 f2 ff ff 	movq   $0x0,-0xd30(%rbp)
   1d055:	00 00 00 00 
   1d059:	48 8d 85 70 f1 ff ff 	lea    -0xe90(%rbp),%rax
   1d060:	48 89 85 d0 fb ff ff 	mov    %rax,-0x430(%rbp)
   1d067:	48 8d 05 92 96 00 00 	lea    0x9692(%rip),%rax        # 26700 <g_207+0x660>
   1d06e:	48 89 85 d8 fb ff ff 	mov    %rax,-0x428(%rbp)
   1d075:	48 8d 05 84 96 00 00 	lea    0x9684(%rip),%rax        # 26700 <g_207+0x660>
   1d07c:	48 89 85 e0 fb ff ff 	mov    %rax,-0x420(%rbp)
   1d083:	48 8d 05 76 96 00 00 	lea    0x9676(%rip),%rax        # 26700 <g_207+0x660>
   1d08a:	48 89 85 e8 fb ff ff 	mov    %rax,-0x418(%rbp)
   1d091:	48 8d 05 68 96 00 00 	lea    0x9668(%rip),%rax        # 26700 <g_207+0x660>
   1d098:	48 89 85 f0 fb ff ff 	mov    %rax,-0x410(%rbp)
   1d09f:	48 8d 05 5a 96 00 00 	lea    0x965a(%rip),%rax        # 26700 <g_207+0x660>
   1d0a6:	48 89 85 f8 fb ff ff 	mov    %rax,-0x408(%rbp)
   1d0ad:	48 8d 05 bc 93 00 00 	lea    0x93bc(%rip),%rax        # 26470 <g_207+0x3d0>
   1d0b4:	48 89 85 00 fc ff ff 	mov    %rax,-0x400(%rbp)
   1d0bb:	48 8d 85 70 f1 ff ff 	lea    -0xe90(%rbp),%rax
   1d0c2:	48 89 85 08 fc ff ff 	mov    %rax,-0x3f8(%rbp)
   1d0c9:	48 8d 85 70 f1 ff ff 	lea    -0xe90(%rbp),%rax
   1d0d0:	48 89 85 10 fc ff ff 	mov    %rax,-0x3f0(%rbp)
   1d0d7:	48 c7 85 18 fc ff ff 	movq   $0x0,-0x3e8(%rbp)
   1d0de:	00 00 00 00 
   1d0e2:	48 c7 85 20 fc ff ff 	movq   $0x0,-0x3e0(%rbp)
   1d0e9:	00 00 00 00 
   1d0ed:	48 c7 85 28 fc ff ff 	movq   $0x0,-0x3d8(%rbp)
   1d0f4:	00 00 00 00 
   1d0f8:	48 8d 05 01 96 00 00 	lea    0x9601(%rip),%rax        # 26700 <g_207+0x660>
   1d0ff:	48 89 85 30 fc ff ff 	mov    %rax,-0x3d0(%rbp)
   1d106:	48 8d 05 0b 96 00 00 	lea    0x960b(%rip),%rax        # 26718 <g_207+0x678>
   1d10d:	48 89 85 38 fc ff ff 	mov    %rax,-0x3c8(%rbp)
   1d114:	48 8d 85 70 f1 ff ff 	lea    -0xe90(%rbp),%rax
   1d11b:	48 89 85 40 fc ff ff 	mov    %rax,-0x3c0(%rbp)
   1d122:	48 8d 05 a7 92 00 00 	lea    0x92a7(%rip),%rax        # 263d0 <g_207+0x330>
   1d129:	48 89 85 48 fc ff ff 	mov    %rax,-0x3b8(%rbp)
   1d130:	48 8d 05 c9 95 00 00 	lea    0x95c9(%rip),%rax        # 26700 <g_207+0x660>
   1d137:	48 89 85 50 fc ff ff 	mov    %rax,-0x3b0(%rbp)
   1d13e:	48 8d 85 70 f1 ff ff 	lea    -0xe90(%rbp),%rax
   1d145:	48 89 85 58 fc ff ff 	mov    %rax,-0x3a8(%rbp)
   1d14c:	48 8d 85 70 f1 ff ff 	lea    -0xe90(%rbp),%rax
   1d153:	48 89 85 60 fc ff ff 	mov    %rax,-0x3a0(%rbp)
   1d15a:	48 8d 05 9f 95 00 00 	lea    0x959f(%rip),%rax        # 26700 <g_207+0x660>
   1d161:	48 89 85 68 fc ff ff 	mov    %rax,-0x398(%rbp)
   1d168:	48 8d 85 70 f1 ff ff 	lea    -0xe90(%rbp),%rax
   1d16f:	48 89 85 70 fc ff ff 	mov    %rax,-0x390(%rbp)
   1d176:	48 8d 05 a3 93 00 00 	lea    0x93a3(%rip),%rax        # 26520 <g_207+0x480>
   1d17d:	48 89 85 78 fc ff ff 	mov    %rax,-0x388(%rbp)
   1d184:	48 8d 05 75 95 00 00 	lea    0x9575(%rip),%rax        # 26700 <g_207+0x660>
   1d18b:	48 89 85 80 fc ff ff 	mov    %rax,-0x380(%rbp)
   1d192:	48 8d 05 87 93 00 00 	lea    0x9387(%rip),%rax        # 26520 <g_207+0x480>
   1d199:	48 89 85 88 fc ff ff 	mov    %rax,-0x378(%rbp)
   1d1a0:	48 8d 85 70 f1 ff ff 	lea    -0xe90(%rbp),%rax
   1d1a7:	48 89 85 90 fc ff ff 	mov    %rax,-0x370(%rbp)
   1d1ae:	48 8d 05 4b 95 00 00 	lea    0x954b(%rip),%rax        # 26700 <g_207+0x660>
   1d1b5:	48 89 85 98 fc ff ff 	mov    %rax,-0x368(%rbp)
   1d1bc:	48 8d 85 70 f1 ff ff 	lea    -0xe90(%rbp),%rax
   1d1c3:	48 89 85 a0 fc ff ff 	mov    %rax,-0x360(%rbp)
   1d1ca:	48 8d 85 70 f1 ff ff 	lea    -0xe90(%rbp),%rax
   1d1d1:	48 89 85 a8 fc ff ff 	mov    %rax,-0x358(%rbp)
   1d1d8:	48 8d 05 21 95 00 00 	lea    0x9521(%rip),%rax        # 26700 <g_207+0x660>
   1d1df:	48 89 85 b0 fc ff ff 	mov    %rax,-0x350(%rbp)
   1d1e6:	48 8d 05 e3 91 00 00 	lea    0x91e3(%rip),%rax        # 263d0 <g_207+0x330>
   1d1ed:	48 89 85 b8 fc ff ff 	mov    %rax,-0x348(%rbp)
   1d1f4:	48 8d 85 70 f1 ff ff 	lea    -0xe90(%rbp),%rax
   1d1fb:	48 89 85 c0 fc ff ff 	mov    %rax,-0x340(%rbp)
   1d202:	48 8d 05 0f 95 00 00 	lea    0x950f(%rip),%rax        # 26718 <g_207+0x678>
   1d209:	48 89 85 c8 fc ff ff 	mov    %rax,-0x338(%rbp)
   1d210:	48 8d 05 e9 94 00 00 	lea    0x94e9(%rip),%rax        # 26700 <g_207+0x660>
   1d217:	48 89 85 d0 fc ff ff 	mov    %rax,-0x330(%rbp)
   1d21e:	48 c7 85 d8 fc ff ff 	movq   $0x0,-0x328(%rbp)
   1d225:	00 00 00 00 
   1d229:	48 c7 85 e0 fc ff ff 	movq   $0x0,-0x320(%rbp)
   1d230:	00 00 00 00 
   1d234:	48 c7 85 e8 fc ff ff 	movq   $0x0,-0x318(%rbp)
   1d23b:	00 00 00 00 
   1d23f:	48 8d 85 70 f1 ff ff 	lea    -0xe90(%rbp),%rax
   1d246:	48 89 85 f0 fc ff ff 	mov    %rax,-0x310(%rbp)
   1d24d:	48 8d 85 70 f1 ff ff 	lea    -0xe90(%rbp),%rax
   1d254:	48 89 85 f8 fc ff ff 	mov    %rax,-0x308(%rbp)
   1d25b:	48 8d 05 0e 92 00 00 	lea    0x920e(%rip),%rax        # 26470 <g_207+0x3d0>
   1d262:	48 89 85 00 fd ff ff 	mov    %rax,-0x300(%rbp)
   1d269:	48 8d 05 90 94 00 00 	lea    0x9490(%rip),%rax        # 26700 <g_207+0x660>
   1d270:	48 89 85 08 fd ff ff 	mov    %rax,-0x2f8(%rbp)
   1d277:	48 8d 05 82 94 00 00 	lea    0x9482(%rip),%rax        # 26700 <g_207+0x660>
   1d27e:	48 89 85 10 fd ff ff 	mov    %rax,-0x2f0(%rbp)
   1d285:	48 8d 05 74 94 00 00 	lea    0x9474(%rip),%rax        # 26700 <g_207+0x660>
   1d28c:	48 89 85 18 fd ff ff 	mov    %rax,-0x2e8(%rbp)
   1d293:	48 8d 05 66 94 00 00 	lea    0x9466(%rip),%rax        # 26700 <g_207+0x660>
   1d29a:	48 89 85 20 fd ff ff 	mov    %rax,-0x2e0(%rbp)
   1d2a1:	48 8d 05 58 94 00 00 	lea    0x9458(%rip),%rax        # 26700 <g_207+0x660>
   1d2a8:	48 89 85 28 fd ff ff 	mov    %rax,-0x2d8(%rbp)
   1d2af:	48 8d 85 70 f1 ff ff 	lea    -0xe90(%rbp),%rax
   1d2b6:	48 89 85 30 fd ff ff 	mov    %rax,-0x2d0(%rbp)
   1d2bd:	48 8d 05 3c 94 00 00 	lea    0x943c(%rip),%rax        # 26700 <g_207+0x660>
   1d2c4:	48 89 85 38 fd ff ff 	mov    %rax,-0x2c8(%rbp)
   1d2cb:	48 8d 85 70 f1 ff ff 	lea    -0xe90(%rbp),%rax
   1d2d2:	48 89 85 40 fd ff ff 	mov    %rax,-0x2c0(%rbp)
   1d2d9:	48 8d 85 70 f1 ff ff 	lea    -0xe90(%rbp),%rax
   1d2e0:	48 89 85 48 fd ff ff 	mov    %rax,-0x2b8(%rbp)
   1d2e7:	48 8d 85 70 f1 ff ff 	lea    -0xe90(%rbp),%rax
   1d2ee:	48 89 85 50 fd ff ff 	mov    %rax,-0x2b0(%rbp)
   1d2f5:	48 8d 05 04 94 00 00 	lea    0x9404(%rip),%rax        # 26700 <g_207+0x660>
   1d2fc:	48 89 85 58 fd ff ff 	mov    %rax,-0x2a8(%rbp)
   1d303:	48 8d 85 70 f1 ff ff 	lea    -0xe90(%rbp),%rax
   1d30a:	48 89 85 60 fd ff ff 	mov    %rax,-0x2a0(%rbp)
   1d311:	48 8d 05 e8 93 00 00 	lea    0x93e8(%rip),%rax        # 26700 <g_207+0x660>
   1d318:	48 89 85 68 fd ff ff 	mov    %rax,-0x298(%rbp)
   1d31f:	48 8d 05 da 93 00 00 	lea    0x93da(%rip),%rax        # 26700 <g_207+0x660>
   1d326:	48 89 85 70 fd ff ff 	mov    %rax,-0x290(%rbp)
   1d32d:	48 8d 05 cc 93 00 00 	lea    0x93cc(%rip),%rax        # 26700 <g_207+0x660>
   1d334:	48 89 85 78 fd ff ff 	mov    %rax,-0x288(%rbp)
   1d33b:	48 8d 05 be 93 00 00 	lea    0x93be(%rip),%rax        # 26700 <g_207+0x660>
   1d342:	48 89 85 80 fd ff ff 	mov    %rax,-0x280(%rbp)
   1d349:	48 8d 05 b0 93 00 00 	lea    0x93b0(%rip),%rax        # 26700 <g_207+0x660>
   1d350:	48 89 85 88 fd ff ff 	mov    %rax,-0x278(%rbp)
   1d357:	48 8d 05 12 91 00 00 	lea    0x9112(%rip),%rax        # 26470 <g_207+0x3d0>
   1d35e:	48 89 85 90 fd ff ff 	mov    %rax,-0x270(%rbp)
   1d365:	48 8d 85 70 f1 ff ff 	lea    -0xe90(%rbp),%rax
   1d36c:	48 89 85 98 fd ff ff 	mov    %rax,-0x268(%rbp)
   1d373:	48 8d 85 70 f1 ff ff 	lea    -0xe90(%rbp),%rax
   1d37a:	48 89 85 a0 fd ff ff 	mov    %rax,-0x260(%rbp)
   1d381:	48 c7 85 a8 fd ff ff 	movq   $0x0,-0x258(%rbp)
   1d388:	00 00 00 00 
   1d38c:	48 c7 85 b0 fd ff ff 	movq   $0x0,-0x250(%rbp)
   1d393:	00 00 00 00 
   1d397:	48 c7 85 b8 fd ff ff 	movq   $0x0,-0x248(%rbp)
   1d39e:	00 00 00 00 
   1d3a2:	48 8d 05 57 93 00 00 	lea    0x9357(%rip),%rax        # 26700 <g_207+0x660>
   1d3a9:	48 89 85 c0 fd ff ff 	mov    %rax,-0x240(%rbp)
   1d3b0:	48 8d 05 61 93 00 00 	lea    0x9361(%rip),%rax        # 26718 <g_207+0x678>
   1d3b7:	48 89 85 c8 fd ff ff 	mov    %rax,-0x238(%rbp)
   1d3be:	48 8d 85 70 f1 ff ff 	lea    -0xe90(%rbp),%rax
   1d3c5:	48 89 85 d0 fd ff ff 	mov    %rax,-0x230(%rbp)
   1d3cc:	48 8d 05 fd 8f 00 00 	lea    0x8ffd(%rip),%rax        # 263d0 <g_207+0x330>
   1d3d3:	48 89 85 d8 fd ff ff 	mov    %rax,-0x228(%rbp)
   1d3da:	48 8d 05 1f 93 00 00 	lea    0x931f(%rip),%rax        # 26700 <g_207+0x660>
   1d3e1:	48 89 85 e0 fd ff ff 	mov    %rax,-0x220(%rbp)
   1d3e8:	48 8d 85 70 f1 ff ff 	lea    -0xe90(%rbp),%rax
   1d3ef:	48 89 85 e8 fd ff ff 	mov    %rax,-0x218(%rbp)
   1d3f6:	48 8d 85 70 f1 ff ff 	lea    -0xe90(%rbp),%rax
   1d3fd:	48 89 85 f0 fd ff ff 	mov    %rax,-0x210(%rbp)
   1d404:	48 8d 05 f5 92 00 00 	lea    0x92f5(%rip),%rax        # 26700 <g_207+0x660>
   1d40b:	48 89 85 f8 fd ff ff 	mov    %rax,-0x208(%rbp)
   1d412:	48 8d 85 70 f1 ff ff 	lea    -0xe90(%rbp),%rax
   1d419:	48 89 85 00 fe ff ff 	mov    %rax,-0x200(%rbp)
   1d420:	48 8d 05 f9 90 00 00 	lea    0x90f9(%rip),%rax        # 26520 <g_207+0x480>
   1d427:	48 89 85 08 fe ff ff 	mov    %rax,-0x1f8(%rbp)
   1d42e:	48 8d 05 cb 92 00 00 	lea    0x92cb(%rip),%rax        # 26700 <g_207+0x660>
   1d435:	48 89 85 10 fe ff ff 	mov    %rax,-0x1f0(%rbp)
   1d43c:	48 8d 05 dd 90 00 00 	lea    0x90dd(%rip),%rax        # 26520 <g_207+0x480>
   1d443:	48 89 85 18 fe ff ff 	mov    %rax,-0x1e8(%rbp)
   1d44a:	48 8d 85 70 f1 ff ff 	lea    -0xe90(%rbp),%rax
   1d451:	48 89 85 20 fe ff ff 	mov    %rax,-0x1e0(%rbp)
   1d458:	48 8d 05 a1 92 00 00 	lea    0x92a1(%rip),%rax        # 26700 <g_207+0x660>
   1d45f:	48 89 85 28 fe ff ff 	mov    %rax,-0x1d8(%rbp)
   1d466:	48 8d 85 70 f1 ff ff 	lea    -0xe90(%rbp),%rax
   1d46d:	48 89 85 30 fe ff ff 	mov    %rax,-0x1d0(%rbp)
   1d474:	48 8d 85 70 f1 ff ff 	lea    -0xe90(%rbp),%rax
   1d47b:	48 89 85 38 fe ff ff 	mov    %rax,-0x1c8(%rbp)
   1d482:	48 8d 05 77 92 00 00 	lea    0x9277(%rip),%rax        # 26700 <g_207+0x660>
   1d489:	48 89 85 40 fe ff ff 	mov    %rax,-0x1c0(%rbp)
   1d490:	48 8d 05 39 8f 00 00 	lea    0x8f39(%rip),%rax        # 263d0 <g_207+0x330>
   1d497:	48 89 85 48 fe ff ff 	mov    %rax,-0x1b8(%rbp)
   1d49e:	48 8d 85 70 f1 ff ff 	lea    -0xe90(%rbp),%rax
   1d4a5:	48 89 85 50 fe ff ff 	mov    %rax,-0x1b0(%rbp)
   1d4ac:	48 8d 05 65 92 00 00 	lea    0x9265(%rip),%rax        # 26718 <g_207+0x678>
   1d4b3:	48 89 85 58 fe ff ff 	mov    %rax,-0x1a8(%rbp)
   1d4ba:	48 8d 05 3f 92 00 00 	lea    0x923f(%rip),%rax        # 26700 <g_207+0x660>
   1d4c1:	48 89 85 60 fe ff ff 	mov    %rax,-0x1a0(%rbp)
   1d4c8:	48 c7 85 68 fe ff ff 	movq   $0x0,-0x198(%rbp)
   1d4cf:	00 00 00 00 
   1d4d3:	48 c7 85 70 fe ff ff 	movq   $0x0,-0x190(%rbp)
   1d4da:	00 00 00 00 
   1d4de:	48 c7 85 78 fe ff ff 	movq   $0x0,-0x188(%rbp)
   1d4e5:	00 00 00 00 
   1d4e9:	48 8d 85 70 f1 ff ff 	lea    -0xe90(%rbp),%rax
   1d4f0:	48 89 85 80 fe ff ff 	mov    %rax,-0x180(%rbp)
   1d4f7:	48 8d 85 70 f1 ff ff 	lea    -0xe90(%rbp),%rax
   1d4fe:	48 89 85 88 fe ff ff 	mov    %rax,-0x178(%rbp)
   1d505:	48 8d 05 64 8f 00 00 	lea    0x8f64(%rip),%rax        # 26470 <g_207+0x3d0>
   1d50c:	48 89 85 90 fe ff ff 	mov    %rax,-0x170(%rbp)
   1d513:	48 8d 05 e6 91 00 00 	lea    0x91e6(%rip),%rax        # 26700 <g_207+0x660>
   1d51a:	48 89 85 98 fe ff ff 	mov    %rax,-0x168(%rbp)
   1d521:	48 8d 05 d8 91 00 00 	lea    0x91d8(%rip),%rax        # 26700 <g_207+0x660>
   1d528:	48 89 85 a0 fe ff ff 	mov    %rax,-0x160(%rbp)
   1d52f:	48 8d 05 ca 91 00 00 	lea    0x91ca(%rip),%rax        # 26700 <g_207+0x660>
   1d536:	48 89 85 a8 fe ff ff 	mov    %rax,-0x158(%rbp)
   1d53d:	48 8d 85 70 f1 ff ff 	lea    -0xe90(%rbp),%rax
   1d544:	48 89 85 b0 fe ff ff 	mov    %rax,-0x150(%rbp)
   1d54b:	48 8d 85 70 f1 ff ff 	lea    -0xe90(%rbp),%rax
   1d552:	48 89 85 b8 fe ff ff 	mov    %rax,-0x148(%rbp)
   1d559:	48 8d 85 70 f1 ff ff 	lea    -0xe90(%rbp),%rax
   1d560:	48 89 85 c0 fe ff ff 	mov    %rax,-0x140(%rbp)
   1d567:	48 8d 85 70 f1 ff ff 	lea    -0xe90(%rbp),%rax
   1d56e:	48 89 85 c8 fe ff ff 	mov    %rax,-0x138(%rbp)
   1d575:	48 8d 05 84 91 00 00 	lea    0x9184(%rip),%rax        # 26700 <g_207+0x660>
   1d57c:	48 89 85 d0 fe ff ff 	mov    %rax,-0x130(%rbp)
   1d583:	48 8d 05 76 91 00 00 	lea    0x9176(%rip),%rax        # 26700 <g_207+0x660>
   1d58a:	48 89 85 d8 fe ff ff 	mov    %rax,-0x128(%rbp)
   1d591:	48 8d 05 68 91 00 00 	lea    0x9168(%rip),%rax        # 26700 <g_207+0x660>
   1d598:	48 89 85 e0 fe ff ff 	mov    %rax,-0x120(%rbp)
   1d59f:	48 8d 85 70 f1 ff ff 	lea    -0xe90(%rbp),%rax
   1d5a6:	48 89 85 e8 fe ff ff 	mov    %rax,-0x118(%rbp)
   1d5ad:	48 8d 85 70 f1 ff ff 	lea    -0xe90(%rbp),%rax
   1d5b4:	48 89 85 f0 fe ff ff 	mov    %rax,-0x110(%rbp)
   1d5bb:	48 8d 85 70 f1 ff ff 	lea    -0xe90(%rbp),%rax
   1d5c2:	48 89 85 f8 fe ff ff 	mov    %rax,-0x108(%rbp)
   1d5c9:	48 8d 85 70 f1 ff ff 	lea    -0xe90(%rbp),%rax
   1d5d0:	48 89 85 00 ff ff ff 	mov    %rax,-0x100(%rbp)
   1d5d7:	48 8d 05 22 91 00 00 	lea    0x9122(%rip),%rax        # 26700 <g_207+0x660>
   1d5de:	48 89 85 08 ff ff ff 	mov    %rax,-0xf8(%rbp)
   1d5e5:	48 8d 05 5c 8c 00 00 	lea    0x8c5c(%rip),%rax        # 26248 <g_207+0x1a8>
   1d5ec:	48 89 85 10 ff ff ff 	mov    %rax,-0xf0(%rbp)
   1d5f3:	48 8d 85 70 f1 ff ff 	lea    -0xe90(%rbp),%rax
   1d5fa:	48 89 85 18 ff ff ff 	mov    %rax,-0xe8(%rbp)
   1d601:	48 8d 05 f8 90 00 00 	lea    0x90f8(%rip),%rax        # 26700 <g_207+0x660>
   1d608:	48 89 85 20 ff ff ff 	mov    %rax,-0xe0(%rbp)
   1d60f:	48 8d 05 ea 90 00 00 	lea    0x90ea(%rip),%rax        # 26700 <g_207+0x660>
   1d616:	48 89 85 28 ff ff ff 	mov    %rax,-0xd8(%rbp)
   1d61d:	48 8d 05 dc 90 00 00 	lea    0x90dc(%rip),%rax        # 26700 <g_207+0x660>
   1d624:	48 89 85 30 ff ff ff 	mov    %rax,-0xd0(%rbp)
   1d62b:	48 c7 85 38 ff ff ff 	movq   $0x0,-0xc8(%rbp)
   1d632:	00 00 00 00 
   1d636:	48 8d 05 a3 8d 00 00 	lea    0x8da3(%rip),%rax        # 263e0 <g_207+0x340>
   1d63d:	48 89 85 40 ff ff ff 	mov    %rax,-0xc0(%rbp)
   1d644:	48 8d 85 70 f1 ff ff 	lea    -0xe90(%rbp),%rax
   1d64b:	48 89 85 48 ff ff ff 	mov    %rax,-0xb8(%rbp)
   1d652:	48 8d 85 70 f1 ff ff 	lea    -0xe90(%rbp),%rax
   1d659:	48 89 85 50 ff ff ff 	mov    %rax,-0xb0(%rbp)
   1d660:	48 8d 05 09 8e 00 00 	lea    0x8e09(%rip),%rax        # 26470 <g_207+0x3d0>
   1d667:	48 89 85 58 ff ff ff 	mov    %rax,-0xa8(%rbp)
   1d66e:	48 8d 05 8b 90 00 00 	lea    0x908b(%rip),%rax        # 26700 <g_207+0x660>
   1d675:	48 89 85 60 ff ff ff 	mov    %rax,-0xa0(%rbp)
   1d67c:	48 8d 05 7d 90 00 00 	lea    0x907d(%rip),%rax        # 26700 <g_207+0x660>
   1d683:	48 89 85 68 ff ff ff 	mov    %rax,-0x98(%rbp)
   1d68a:	48 c7 85 70 ff ff ff 	movq   $0x0,-0x90(%rbp)
   1d691:	00 00 00 00 
   1d695:	48 8d 05 64 90 00 00 	lea    0x9064(%rip),%rax        # 26700 <g_207+0x660>
   1d69c:	48 89 85 78 ff ff ff 	mov    %rax,-0x88(%rbp)
   1d6a3:	48 8d 05 26 8d 00 00 	lea    0x8d26(%rip),%rax        # 263d0 <g_207+0x330>
   1d6aa:	48 89 45 80          	mov    %rax,-0x80(%rbp)
   1d6ae:	48 8d 85 70 f1 ff ff 	lea    -0xe90(%rbp),%rax
   1d6b5:	48 89 45 88          	mov    %rax,-0x78(%rbp)
   1d6b9:	48 c7 45 90 00 00 00 	movq   $0x0,-0x70(%rbp)
   1d6c0:	00 
   1d6c1:	48 8d 85 70 f1 ff ff 	lea    -0xe90(%rbp),%rax
   1d6c8:	48 89 45 98          	mov    %rax,-0x68(%rbp)
   1d6cc:	48 8d 85 70 f1 ff ff 	lea    -0xe90(%rbp),%rax
   1d6d3:	48 89 45 a0          	mov    %rax,-0x60(%rbp)
   1d6d7:	48 8d 85 70 f1 ff ff 	lea    -0xe90(%rbp),%rax
   1d6de:	48 89 45 a8          	mov    %rax,-0x58(%rbp)
   1d6e2:	48 c7 45 b0 00 00 00 	movq   $0x0,-0x50(%rbp)
   1d6e9:	00 
   1d6ea:	48 8d 85 70 f1 ff ff 	lea    -0xe90(%rbp),%rax
   1d6f1:	48 89 45 b8          	mov    %rax,-0x48(%rbp)
   1d6f5:	48 8d 85 21 f3 ff ff 	lea    -0xcdf(%rbp),%rax
   1d6fc:	48 83 c0 04          	add    $0x4,%rax
   1d700:	48 89 85 d8 f2 ff ff 	mov    %rax,-0xd28(%rbp)
   1d707:	48 c7 85 e0 f2 ff ff 	movq   $0x0,-0xd20(%rbp)
   1d70e:	00 00 00 00 
   1d712:	48 c7 85 e8 f2 ff ff 	movq   $0x0,-0xd18(%rbp)
   1d719:	00 00 00 00 
   1d71d:	48 8d 05 fc db 00 00 	lea    0xdbfc(%rip),%rax        # 2b320 <g_268>
   1d724:	48 89 85 f0 f2 ff ff 	mov    %rax,-0xd10(%rbp)
   1d72b:	66 c7 85 a6 f0 ff ff 	movw   $0x4,-0xf5a(%rbp)
   1d732:	04 00 
   1d734:	66 c7 85 a8 f0 ff ff 	movw   $0x5263,-0xf58(%rbp)
   1d73b:	63 52 
   1d73d:	e9 c3 0b 00 00       	jmpq   1e305 <func_86+0x21e8>
   1d742:	c6 85 9c f0 ff ff 0e 	movb   $0xe,-0xf64(%rbp)
   1d749:	c7 85 e4 f0 ff ff cb 	movl   $0xd9eb61cb,-0xf1c(%rbp)
   1d750:	61 eb d9 
   1d753:	c7 85 e8 f0 ff ff 85 	movl   $0x941f8585,-0xf18(%rbp)
   1d75a:	85 1f 94 
   1d75d:	c7 85 f0 f3 ff ff fd 	movl   $0xfffffffd,-0xc10(%rbp)
   1d764:	ff ff ff 
   1d767:	c7 85 f4 f3 ff ff 01 	movl   $0x1,-0xc0c(%rbp)
   1d76e:	00 00 00 
   1d771:	c7 85 f8 f3 ff ff fd 	movl   $0xfffffffd,-0xc08(%rbp)
   1d778:	ff ff ff 
   1d77b:	c7 85 fc f3 ff ff 01 	movl   $0x1,-0xc04(%rbp)
   1d782:	00 00 00 
   1d785:	c7 85 00 f4 ff ff fd 	movl   $0xfffffffd,-0xc00(%rbp)
   1d78c:	ff ff ff 
   1d78f:	c7 85 04 f4 ff ff 01 	movl   $0x1,-0xbfc(%rbp)
   1d796:	00 00 00 
   1d799:	c7 85 08 f4 ff ff fd 	movl   $0xfffffffd,-0xbf8(%rbp)
   1d7a0:	ff ff ff 
   1d7a3:	c7 85 0c f4 ff ff 01 	movl   $0x1,-0xbf4(%rbp)
   1d7aa:	00 00 00 
   1d7ad:	c7 85 10 f4 ff ff fd 	movl   $0xfffffffd,-0xbf0(%rbp)
   1d7b4:	ff ff ff 
   1d7b7:	c7 85 14 f4 ff ff 01 	movl   $0x1,-0xbec(%rbp)
   1d7be:	00 00 00 
   1d7c1:	48 8d 05 d2 88 00 00 	lea    0x88d2(%rip),%rax        # 2609a <g_176>
   1d7c8:	48 89 85 f8 f1 ff ff 	mov    %rax,-0xe08(%rbp)
   1d7cf:	48 8d 85 48 f1 ff ff 	lea    -0xeb8(%rbp),%rax
   1d7d6:	48 89 85 b0 f8 ff ff 	mov    %rax,-0x750(%rbp)
   1d7dd:	48 8d 85 48 f1 ff ff 	lea    -0xeb8(%rbp),%rax
   1d7e4:	48 89 85 b8 f8 ff ff 	mov    %rax,-0x748(%rbp)
   1d7eb:	48 8d 85 48 f1 ff ff 	lea    -0xeb8(%rbp),%rax
   1d7f2:	48 89 85 c0 f8 ff ff 	mov    %rax,-0x740(%rbp)
   1d7f9:	48 8d 85 48 f1 ff ff 	lea    -0xeb8(%rbp),%rax
   1d800:	48 89 85 c8 f8 ff ff 	mov    %rax,-0x738(%rbp)
   1d807:	48 c7 85 d0 f8 ff ff 	movq   $0x0,-0x730(%rbp)
   1d80e:	00 00 00 00 
   1d812:	48 8d 85 48 f1 ff ff 	lea    -0xeb8(%rbp),%rax
   1d819:	48 89 85 d8 f8 ff ff 	mov    %rax,-0x728(%rbp)
   1d820:	48 8d 85 48 f1 ff ff 	lea    -0xeb8(%rbp),%rax
   1d827:	48 89 85 e0 f8 ff ff 	mov    %rax,-0x720(%rbp)
   1d82e:	48 8d 85 48 f1 ff ff 	lea    -0xeb8(%rbp),%rax
   1d835:	48 89 85 e8 f8 ff ff 	mov    %rax,-0x718(%rbp)
   1d83c:	48 8d 85 48 f1 ff ff 	lea    -0xeb8(%rbp),%rax
   1d843:	48 89 85 f0 f8 ff ff 	mov    %rax,-0x710(%rbp)
   1d84a:	48 8d 85 48 f1 ff ff 	lea    -0xeb8(%rbp),%rax
   1d851:	48 89 85 f8 f8 ff ff 	mov    %rax,-0x708(%rbp)
   1d858:	48 8d 85 48 f1 ff ff 	lea    -0xeb8(%rbp),%rax
   1d85f:	48 89 85 00 f9 ff ff 	mov    %rax,-0x700(%rbp)
   1d866:	48 8d 85 48 f1 ff ff 	lea    -0xeb8(%rbp),%rax
   1d86d:	48 89 85 08 f9 ff ff 	mov    %rax,-0x6f8(%rbp)
   1d874:	48 8d 85 48 f1 ff ff 	lea    -0xeb8(%rbp),%rax
   1d87b:	48 89 85 10 f9 ff ff 	mov    %rax,-0x6f0(%rbp)
   1d882:	48 8d 85 48 f1 ff ff 	lea    -0xeb8(%rbp),%rax
   1d889:	48 89 85 18 f9 ff ff 	mov    %rax,-0x6e8(%rbp)
   1d890:	48 c7 85 20 f9 ff ff 	movq   $0x0,-0x6e0(%rbp)
   1d897:	00 00 00 00 
   1d89b:	48 8d 85 48 f1 ff ff 	lea    -0xeb8(%rbp),%rax
   1d8a2:	48 89 85 28 f9 ff ff 	mov    %rax,-0x6d8(%rbp)
   1d8a9:	48 8d 85 48 f1 ff ff 	lea    -0xeb8(%rbp),%rax
   1d8b0:	48 89 85 30 f9 ff ff 	mov    %rax,-0x6d0(%rbp)
   1d8b7:	48 8d 85 48 f1 ff ff 	lea    -0xeb8(%rbp),%rax
   1d8be:	48 89 85 38 f9 ff ff 	mov    %rax,-0x6c8(%rbp)
   1d8c5:	48 8d 85 48 f1 ff ff 	lea    -0xeb8(%rbp),%rax
   1d8cc:	48 89 85 40 f9 ff ff 	mov    %rax,-0x6c0(%rbp)
   1d8d3:	48 c7 85 48 f9 ff ff 	movq   $0x0,-0x6b8(%rbp)
   1d8da:	00 00 00 00 
   1d8de:	48 c7 85 50 f9 ff ff 	movq   $0x0,-0x6b0(%rbp)
   1d8e5:	00 00 00 00 
   1d8e9:	48 8d 85 48 f1 ff ff 	lea    -0xeb8(%rbp),%rax
   1d8f0:	48 89 85 58 f9 ff ff 	mov    %rax,-0x6a8(%rbp)
   1d8f7:	48 c7 85 60 f9 ff ff 	movq   $0x0,-0x6a0(%rbp)
   1d8fe:	00 00 00 00 
   1d902:	48 8d 85 48 f1 ff ff 	lea    -0xeb8(%rbp),%rax
   1d909:	48 89 85 68 f9 ff ff 	mov    %rax,-0x698(%rbp)
   1d910:	48 c7 85 70 f9 ff ff 	movq   $0x0,-0x690(%rbp)
   1d917:	00 00 00 00 
   1d91b:	48 c7 85 78 f9 ff ff 	movq   $0x0,-0x688(%rbp)
   1d922:	00 00 00 00 
   1d926:	48 8d 85 48 f1 ff ff 	lea    -0xeb8(%rbp),%rax
   1d92d:	48 89 85 80 f9 ff ff 	mov    %rax,-0x680(%rbp)
   1d934:	48 c7 85 88 f9 ff ff 	movq   $0x0,-0x678(%rbp)
   1d93b:	00 00 00 00 
   1d93f:	48 c7 85 90 f9 ff ff 	movq   $0x0,-0x670(%rbp)
   1d946:	00 00 00 00 
   1d94a:	48 8d 85 48 f1 ff ff 	lea    -0xeb8(%rbp),%rax
   1d951:	48 89 85 98 f9 ff ff 	mov    %rax,-0x668(%rbp)
   1d958:	48 8d 85 48 f1 ff ff 	lea    -0xeb8(%rbp),%rax
   1d95f:	48 89 85 a0 f9 ff ff 	mov    %rax,-0x660(%rbp)
   1d966:	48 8d 85 48 f1 ff ff 	lea    -0xeb8(%rbp),%rax
   1d96d:	48 89 85 a8 f9 ff ff 	mov    %rax,-0x658(%rbp)
   1d974:	48 8d 85 48 f1 ff ff 	lea    -0xeb8(%rbp),%rax
   1d97b:	48 89 85 b0 f9 ff ff 	mov    %rax,-0x650(%rbp)
   1d982:	48 8d 85 48 f1 ff ff 	lea    -0xeb8(%rbp),%rax
   1d989:	48 89 85 b8 f9 ff ff 	mov    %rax,-0x648(%rbp)
   1d990:	48 8d 85 48 f1 ff ff 	lea    -0xeb8(%rbp),%rax
   1d997:	48 89 85 c0 f9 ff ff 	mov    %rax,-0x640(%rbp)
   1d99e:	48 8d 85 48 f1 ff ff 	lea    -0xeb8(%rbp),%rax
   1d9a5:	48 89 85 c8 f9 ff ff 	mov    %rax,-0x638(%rbp)
   1d9ac:	48 8d 85 48 f1 ff ff 	lea    -0xeb8(%rbp),%rax
   1d9b3:	48 89 85 d0 f9 ff ff 	mov    %rax,-0x630(%rbp)
   1d9ba:	48 c7 85 d8 f9 ff ff 	movq   $0x0,-0x628(%rbp)
   1d9c1:	00 00 00 00 
   1d9c5:	48 8d 85 48 f1 ff ff 	lea    -0xeb8(%rbp),%rax
   1d9cc:	48 89 85 e0 f9 ff ff 	mov    %rax,-0x620(%rbp)
   1d9d3:	48 8d 85 48 f1 ff ff 	lea    -0xeb8(%rbp),%rax
   1d9da:	48 89 85 e8 f9 ff ff 	mov    %rax,-0x618(%rbp)
   1d9e1:	48 c7 85 f0 f9 ff ff 	movq   $0x0,-0x610(%rbp)
   1d9e8:	00 00 00 00 
   1d9ec:	48 8d 85 48 f1 ff ff 	lea    -0xeb8(%rbp),%rax
   1d9f3:	48 89 85 f8 f9 ff ff 	mov    %rax,-0x608(%rbp)
   1d9fa:	48 8d 85 48 f1 ff ff 	lea    -0xeb8(%rbp),%rax
   1da01:	48 89 85 00 fa ff ff 	mov    %rax,-0x600(%rbp)
   1da08:	48 8d 85 48 f1 ff ff 	lea    -0xeb8(%rbp),%rax
   1da0f:	48 89 85 08 fa ff ff 	mov    %rax,-0x5f8(%rbp)
   1da16:	48 8d 85 48 f1 ff ff 	lea    -0xeb8(%rbp),%rax
   1da1d:	48 89 85 10 fa ff ff 	mov    %rax,-0x5f0(%rbp)
   1da24:	48 8d 85 48 f1 ff ff 	lea    -0xeb8(%rbp),%rax
   1da2b:	48 89 85 18 fa ff ff 	mov    %rax,-0x5e8(%rbp)
   1da32:	48 8d 85 48 f1 ff ff 	lea    -0xeb8(%rbp),%rax
   1da39:	48 89 85 20 fa ff ff 	mov    %rax,-0x5e0(%rbp)
   1da40:	48 8d 85 48 f1 ff ff 	lea    -0xeb8(%rbp),%rax
   1da47:	48 89 85 28 fa ff ff 	mov    %rax,-0x5d8(%rbp)
   1da4e:	48 8d 85 48 f1 ff ff 	lea    -0xeb8(%rbp),%rax
   1da55:	48 89 85 30 fa ff ff 	mov    %rax,-0x5d0(%rbp)
   1da5c:	48 8d 85 48 f1 ff ff 	lea    -0xeb8(%rbp),%rax
   1da63:	48 89 85 38 fa ff ff 	mov    %rax,-0x5c8(%rbp)
   1da6a:	48 8d 85 48 f1 ff ff 	lea    -0xeb8(%rbp),%rax
   1da71:	48 89 85 40 fa ff ff 	mov    %rax,-0x5c0(%rbp)
   1da78:	48 8d 85 48 f1 ff ff 	lea    -0xeb8(%rbp),%rax
   1da7f:	48 89 85 48 fa ff ff 	mov    %rax,-0x5b8(%rbp)
   1da86:	48 c7 85 50 fa ff ff 	movq   $0x0,-0x5b0(%rbp)
   1da8d:	00 00 00 00 
   1da91:	48 c7 85 58 fa ff ff 	movq   $0x0,-0x5a8(%rbp)
   1da98:	00 00 00 00 
   1da9c:	48 8d 85 48 f1 ff ff 	lea    -0xeb8(%rbp),%rax
   1daa3:	48 89 85 60 fa ff ff 	mov    %rax,-0x5a0(%rbp)
   1daaa:	48 8d 85 48 f1 ff ff 	lea    -0xeb8(%rbp),%rax
   1dab1:	48 89 85 68 fa ff ff 	mov    %rax,-0x598(%rbp)
   1dab8:	48 8d 85 48 f1 ff ff 	lea    -0xeb8(%rbp),%rax
   1dabf:	48 89 85 70 fa ff ff 	mov    %rax,-0x590(%rbp)
   1dac6:	48 8d 85 48 f1 ff ff 	lea    -0xeb8(%rbp),%rax
   1dacd:	48 89 85 78 fa ff ff 	mov    %rax,-0x588(%rbp)
   1dad4:	48 8d 85 48 f1 ff ff 	lea    -0xeb8(%rbp),%rax
   1dadb:	48 89 85 80 fa ff ff 	mov    %rax,-0x580(%rbp)
   1dae2:	48 8d 85 48 f1 ff ff 	lea    -0xeb8(%rbp),%rax
   1dae9:	48 89 85 88 fa ff ff 	mov    %rax,-0x578(%rbp)
   1daf0:	48 8d 85 48 f1 ff ff 	lea    -0xeb8(%rbp),%rax
   1daf7:	48 89 85 90 fa ff ff 	mov    %rax,-0x570(%rbp)
   1dafe:	48 8d 85 48 f1 ff ff 	lea    -0xeb8(%rbp),%rax
   1db05:	48 89 85 98 fa ff ff 	mov    %rax,-0x568(%rbp)
   1db0c:	48 8d 85 48 f1 ff ff 	lea    -0xeb8(%rbp),%rax
   1db13:	48 89 85 a0 fa ff ff 	mov    %rax,-0x560(%rbp)
   1db1a:	48 8d 85 48 f1 ff ff 	lea    -0xeb8(%rbp),%rax
   1db21:	48 89 85 a8 fa ff ff 	mov    %rax,-0x558(%rbp)
   1db28:	48 8d 85 48 f1 ff ff 	lea    -0xeb8(%rbp),%rax
   1db2f:	48 89 85 b0 fa ff ff 	mov    %rax,-0x550(%rbp)
   1db36:	48 8d 85 48 f1 ff ff 	lea    -0xeb8(%rbp),%rax
   1db3d:	48 89 85 b8 fa ff ff 	mov    %rax,-0x548(%rbp)
   1db44:	48 8d 85 48 f1 ff ff 	lea    -0xeb8(%rbp),%rax
   1db4b:	48 89 85 c0 fa ff ff 	mov    %rax,-0x540(%rbp)
   1db52:	48 8d 85 48 f1 ff ff 	lea    -0xeb8(%rbp),%rax
   1db59:	48 89 85 c8 fa ff ff 	mov    %rax,-0x538(%rbp)
   1db60:	48 c7 85 d0 fa ff ff 	movq   $0x0,-0x530(%rbp)
   1db67:	00 00 00 00 
   1db6b:	48 8d 85 48 f1 ff ff 	lea    -0xeb8(%rbp),%rax
   1db72:	48 89 85 d8 fa ff ff 	mov    %rax,-0x528(%rbp)
   1db79:	48 c7 85 e0 fa ff ff 	movq   $0x0,-0x520(%rbp)
   1db80:	00 00 00 00 
   1db84:	48 c7 85 e8 fa ff ff 	movq   $0x0,-0x518(%rbp)
   1db8b:	00 00 00 00 
   1db8f:	48 c7 85 f0 fa ff ff 	movq   $0x0,-0x510(%rbp)
   1db96:	00 00 00 00 
   1db9a:	48 8d 85 48 f1 ff ff 	lea    -0xeb8(%rbp),%rax
   1dba1:	48 89 85 f8 fa ff ff 	mov    %rax,-0x508(%rbp)
   1dba8:	48 c7 85 00 fb ff ff 	movq   $0x0,-0x500(%rbp)
   1dbaf:	00 00 00 00 
   1dbb3:	48 c7 85 08 fb ff ff 	movq   $0x0,-0x4f8(%rbp)
   1dbba:	00 00 00 00 
   1dbbe:	48 8d 85 48 f1 ff ff 	lea    -0xeb8(%rbp),%rax
   1dbc5:	48 89 85 10 fb ff ff 	mov    %rax,-0x4f0(%rbp)
   1dbcc:	48 8d 85 48 f1 ff ff 	lea    -0xeb8(%rbp),%rax
   1dbd3:	48 89 85 18 fb ff ff 	mov    %rax,-0x4e8(%rbp)
   1dbda:	48 8d 85 48 f1 ff ff 	lea    -0xeb8(%rbp),%rax
   1dbe1:	48 89 85 20 fb ff ff 	mov    %rax,-0x4e0(%rbp)
   1dbe8:	48 8d 85 48 f1 ff ff 	lea    -0xeb8(%rbp),%rax
   1dbef:	48 89 85 28 fb ff ff 	mov    %rax,-0x4d8(%rbp)
   1dbf6:	48 8d 85 48 f1 ff ff 	lea    -0xeb8(%rbp),%rax
   1dbfd:	48 89 85 30 fb ff ff 	mov    %rax,-0x4d0(%rbp)
   1dc04:	48 8d 85 48 f1 ff ff 	lea    -0xeb8(%rbp),%rax
   1dc0b:	48 89 85 38 fb ff ff 	mov    %rax,-0x4c8(%rbp)
   1dc12:	48 c7 85 40 fb ff ff 	movq   $0x0,-0x4c0(%rbp)
   1dc19:	00 00 00 00 
   1dc1d:	48 c7 85 48 fb ff ff 	movq   $0x0,-0x4b8(%rbp)
   1dc24:	00 00 00 00 
   1dc28:	48 b8 63 71 ec 29 f5 	movabs $0xa0d841f529ec7163,%rax
   1dc2f:	41 d8 a0 
   1dc32:	48 89 85 00 f2 ff ff 	mov    %rax,-0xe00(%rbp)
   1dc39:	48 8d 05 b0 dd 00 00 	lea    0xddb0(%rip),%rax        # 2b9f0 <g_909>
   1dc40:	48 89 85 08 f2 ff ff 	mov    %rax,-0xdf8(%rbp)
   1dc47:	48 b8 cf b7 5b 46 f5 	movabs $0xd3608ff5465bb7cf,%rax
   1dc4e:	8f 60 d3 
   1dc51:	48 89 85 88 f1 ff ff 	mov    %rax,-0xe78(%rbp)
   1dc58:	c7 85 ec f0 ff ff 06 	movl   $0x6,-0xf14(%rbp)
   1dc5f:	00 00 00 
   1dc62:	48 8d 85 b0 f0 ff ff 	lea    -0xf50(%rbp),%rax
   1dc69:	48 89 85 10 f2 ff ff 	mov    %rax,-0xdf0(%rbp)
   1dc70:	48 c7 85 18 f2 ff ff 	movq   $0x0,-0xde8(%rbp)
   1dc77:	00 00 00 00 
   1dc7b:	48 8d 85 88 f1 ff ff 	lea    -0xe78(%rbp),%rax
   1dc82:	48 89 85 90 f1 ff ff 	mov    %rax,-0xe70(%rbp)
   1dc89:	48 8d 85 90 f1 ff ff 	lea    -0xe70(%rbp),%rax
   1dc90:	48 89 85 d0 fb ff ff 	mov    %rax,-0x430(%rbp)
   1dc97:	48 8d 85 90 f1 ff ff 	lea    -0xe70(%rbp),%rax
   1dc9e:	48 89 85 d8 fb ff ff 	mov    %rax,-0x428(%rbp)
   1dca5:	48 8d 85 90 f1 ff ff 	lea    -0xe70(%rbp),%rax
   1dcac:	48 89 85 e0 fb ff ff 	mov    %rax,-0x420(%rbp)
   1dcb3:	48 c7 85 e8 fb ff ff 	movq   $0x0,-0x418(%rbp)
   1dcba:	00 00 00 00 
   1dcbe:	48 8d 85 90 f1 ff ff 	lea    -0xe70(%rbp),%rax
   1dcc5:	48 89 85 f0 fb ff ff 	mov    %rax,-0x410(%rbp)
   1dccc:	48 8d 85 90 f1 ff ff 	lea    -0xe70(%rbp),%rax
   1dcd3:	48 89 85 f8 fb ff ff 	mov    %rax,-0x408(%rbp)
   1dcda:	48 8d 85 90 f1 ff ff 	lea    -0xe70(%rbp),%rax
   1dce1:	48 89 85 00 fc ff ff 	mov    %rax,-0x400(%rbp)
   1dce8:	48 8d 85 90 f1 ff ff 	lea    -0xe70(%rbp),%rax
   1dcef:	48 89 85 08 fc ff ff 	mov    %rax,-0x3f8(%rbp)
   1dcf6:	48 8d 85 90 f1 ff ff 	lea    -0xe70(%rbp),%rax
   1dcfd:	48 89 85 10 fc ff ff 	mov    %rax,-0x3f0(%rbp)
   1dd04:	48 8d 85 90 f1 ff ff 	lea    -0xe70(%rbp),%rax
   1dd0b:	48 89 85 18 fc ff ff 	mov    %rax,-0x3e8(%rbp)
   1dd12:	48 8d 85 90 f1 ff ff 	lea    -0xe70(%rbp),%rax
   1dd19:	48 89 85 20 fc ff ff 	mov    %rax,-0x3e0(%rbp)
   1dd20:	48 c7 85 28 fc ff ff 	movq   $0x0,-0x3d8(%rbp)
   1dd27:	00 00 00 00 
   1dd2b:	48 8d 85 90 f1 ff ff 	lea    -0xe70(%rbp),%rax
   1dd32:	48 89 85 30 fc ff ff 	mov    %rax,-0x3d0(%rbp)
   1dd39:	48 c7 85 38 fc ff ff 	movq   $0x0,-0x3c8(%rbp)
   1dd40:	00 00 00 00 
   1dd44:	48 8d 85 90 f1 ff ff 	lea    -0xe70(%rbp),%rax
   1dd4b:	48 89 85 40 fc ff ff 	mov    %rax,-0x3c0(%rbp)
   1dd52:	48 c7 85 48 fc ff ff 	movq   $0x0,-0x3b8(%rbp)
   1dd59:	00 00 00 00 
   1dd5d:	48 8d 85 90 f1 ff ff 	lea    -0xe70(%rbp),%rax
   1dd64:	48 89 85 50 fc ff ff 	mov    %rax,-0x3b0(%rbp)
   1dd6b:	48 c7 85 58 fc ff ff 	movq   $0x0,-0x3a8(%rbp)
   1dd72:	00 00 00 00 
   1dd76:	48 8d 85 90 f1 ff ff 	lea    -0xe70(%rbp),%rax
   1dd7d:	48 89 85 60 fc ff ff 	mov    %rax,-0x3a0(%rbp)
   1dd84:	48 c7 85 68 fc ff ff 	movq   $0x0,-0x398(%rbp)
   1dd8b:	00 00 00 00 
   1dd8f:	48 8d 85 90 f1 ff ff 	lea    -0xe70(%rbp),%rax
   1dd96:	48 89 85 70 fc ff ff 	mov    %rax,-0x390(%rbp)
   1dd9d:	48 8d 85 90 f1 ff ff 	lea    -0xe70(%rbp),%rax
   1dda4:	48 89 85 78 fc ff ff 	mov    %rax,-0x388(%rbp)
   1ddab:	48 8d 85 90 f1 ff ff 	lea    -0xe70(%rbp),%rax
   1ddb2:	48 89 85 80 fc ff ff 	mov    %rax,-0x380(%rbp)
   1ddb9:	48 8d 85 90 f1 ff ff 	lea    -0xe70(%rbp),%rax
   1ddc0:	48 89 85 88 fc ff ff 	mov    %rax,-0x378(%rbp)
   1ddc7:	48 8d 85 90 f1 ff ff 	lea    -0xe70(%rbp),%rax
   1ddce:	48 89 85 90 fc ff ff 	mov    %rax,-0x370(%rbp)
   1ddd5:	48 8d 85 90 f1 ff ff 	lea    -0xe70(%rbp),%rax
   1dddc:	48 89 85 98 fc ff ff 	mov    %rax,-0x368(%rbp)
   1dde3:	48 8d 85 90 f1 ff ff 	lea    -0xe70(%rbp),%rax
   1ddea:	48 89 85 a0 fc ff ff 	mov    %rax,-0x360(%rbp)
   1ddf1:	48 8d 85 90 f1 ff ff 	lea    -0xe70(%rbp),%rax
   1ddf8:	48 89 85 a8 fc ff ff 	mov    %rax,-0x358(%rbp)
   1ddff:	48 8d 85 90 f1 ff ff 	lea    -0xe70(%rbp),%rax
   1de06:	48 89 85 b0 fc ff ff 	mov    %rax,-0x350(%rbp)
   1de0d:	48 8d 85 90 f1 ff ff 	lea    -0xe70(%rbp),%rax
   1de14:	48 89 85 b8 fc ff ff 	mov    %rax,-0x348(%rbp)
   1de1b:	48 c7 85 c0 fc ff ff 	movq   $0x0,-0x340(%rbp)
   1de22:	00 00 00 00 
   1de26:	48 8d 85 90 f1 ff ff 	lea    -0xe70(%rbp),%rax
   1de2d:	48 89 85 c8 fc ff ff 	mov    %rax,-0x338(%rbp)
   1de34:	48 8d 85 90 f1 ff ff 	lea    -0xe70(%rbp),%rax
   1de3b:	48 89 85 d0 fc ff ff 	mov    %rax,-0x330(%rbp)
   1de42:	48 8d 85 90 f1 ff ff 	lea    -0xe70(%rbp),%rax
   1de49:	48 89 85 d8 fc ff ff 	mov    %rax,-0x328(%rbp)
   1de50:	48 8d 85 90 f1 ff ff 	lea    -0xe70(%rbp),%rax
   1de57:	48 89 85 e0 fc ff ff 	mov    %rax,-0x320(%rbp)
   1de5e:	48 8d 85 90 f1 ff ff 	lea    -0xe70(%rbp),%rax
   1de65:	48 89 85 e8 fc ff ff 	mov    %rax,-0x318(%rbp)
   1de6c:	48 8d 85 90 f1 ff ff 	lea    -0xe70(%rbp),%rax
   1de73:	48 89 85 f0 fc ff ff 	mov    %rax,-0x310(%rbp)
   1de7a:	48 8d 85 90 f1 ff ff 	lea    -0xe70(%rbp),%rax
   1de81:	48 89 85 f8 fc ff ff 	mov    %rax,-0x308(%rbp)
   1de88:	48 8d 85 90 f1 ff ff 	lea    -0xe70(%rbp),%rax
   1de8f:	48 89 85 00 fd ff ff 	mov    %rax,-0x300(%rbp)
   1de96:	48 8d 85 90 f1 ff ff 	lea    -0xe70(%rbp),%rax
   1de9d:	48 89 85 08 fd ff ff 	mov    %rax,-0x2f8(%rbp)
   1dea4:	48 8d 85 90 f1 ff ff 	lea    -0xe70(%rbp),%rax
   1deab:	48 89 85 10 fd ff ff 	mov    %rax,-0x2f0(%rbp)
   1deb2:	48 8d 85 90 f1 ff ff 	lea    -0xe70(%rbp),%rax
   1deb9:	48 89 85 18 fd ff ff 	mov    %rax,-0x2e8(%rbp)
   1dec0:	48 c7 85 20 fd ff ff 	movq   $0x0,-0x2e0(%rbp)
   1dec7:	00 00 00 00 
   1decb:	48 c7 85 28 fd ff ff 	movq   $0x0,-0x2d8(%rbp)
   1ded2:	00 00 00 00 
   1ded6:	48 c7 85 30 fd ff ff 	movq   $0x0,-0x2d0(%rbp)
   1dedd:	00 00 00 00 
   1dee1:	48 c7 85 38 fd ff ff 	movq   $0x0,-0x2c8(%rbp)
   1dee8:	00 00 00 00 
   1deec:	48 8d 85 90 f1 ff ff 	lea    -0xe70(%rbp),%rax
   1def3:	48 89 85 40 fd ff ff 	mov    %rax,-0x2c0(%rbp)
   1defa:	48 8d 85 90 f1 ff ff 	lea    -0xe70(%rbp),%rax
   1df01:	48 89 85 48 fd ff ff 	mov    %rax,-0x2b8(%rbp)
   1df08:	48 8d 85 90 f1 ff ff 	lea    -0xe70(%rbp),%rax
   1df0f:	48 89 85 50 fd ff ff 	mov    %rax,-0x2b0(%rbp)
   1df16:	48 8d 85 90 f1 ff ff 	lea    -0xe70(%rbp),%rax
   1df1d:	48 89 85 58 fd ff ff 	mov    %rax,-0x2a8(%rbp)
   1df24:	48 c7 85 60 fd ff ff 	movq   $0x0,-0x2a0(%rbp)
   1df2b:	00 00 00 00 
   1df2f:	48 8d 85 90 f1 ff ff 	lea    -0xe70(%rbp),%rax
   1df36:	48 89 85 68 fd ff ff 	mov    %rax,-0x298(%rbp)
   1df3d:	48 8d 85 90 f1 ff ff 	lea    -0xe70(%rbp),%rax
   1df44:	48 89 85 70 fd ff ff 	mov    %rax,-0x290(%rbp)
   1df4b:	48 c7 85 78 fd ff ff 	movq   $0x0,-0x288(%rbp)
   1df52:	00 00 00 00 
   1df56:	48 8d 85 90 f1 ff ff 	lea    -0xe70(%rbp),%rax
   1df5d:	48 89 85 80 fd ff ff 	mov    %rax,-0x280(%rbp)
   1df64:	48 8d 85 90 f1 ff ff 	lea    -0xe70(%rbp),%rax
   1df6b:	48 89 85 88 fd ff ff 	mov    %rax,-0x278(%rbp)
   1df72:	48 8d 85 90 f1 ff ff 	lea    -0xe70(%rbp),%rax
   1df79:	48 89 85 90 fd ff ff 	mov    %rax,-0x270(%rbp)
   1df80:	48 8d 85 90 f1 ff ff 	lea    -0xe70(%rbp),%rax
   1df87:	48 89 85 98 fd ff ff 	mov    %rax,-0x268(%rbp)
   1df8e:	48 8d 85 90 f1 ff ff 	lea    -0xe70(%rbp),%rax
   1df95:	48 89 85 a0 fd ff ff 	mov    %rax,-0x260(%rbp)
   1df9c:	48 c7 85 a8 fd ff ff 	movq   $0x0,-0x258(%rbp)
   1dfa3:	00 00 00 00 
   1dfa7:	48 8d 85 90 f1 ff ff 	lea    -0xe70(%rbp),%rax
   1dfae:	48 89 85 b0 fd ff ff 	mov    %rax,-0x250(%rbp)
   1dfb5:	48 c7 85 b8 fd ff ff 	movq   $0x0,-0x248(%rbp)
   1dfbc:	00 00 00 00 
   1dfc0:	48 8d 85 90 f1 ff ff 	lea    -0xe70(%rbp),%rax
   1dfc7:	48 89 85 c0 fd ff ff 	mov    %rax,-0x240(%rbp)
   1dfce:	48 8d 85 90 f1 ff ff 	lea    -0xe70(%rbp),%rax
   1dfd5:	48 89 85 c8 fd ff ff 	mov    %rax,-0x238(%rbp)
   1dfdc:	48 8d 85 90 f1 ff ff 	lea    -0xe70(%rbp),%rax
   1dfe3:	48 89 85 d0 fd ff ff 	mov    %rax,-0x230(%rbp)
   1dfea:	48 8d 85 90 f1 ff ff 	lea    -0xe70(%rbp),%rax
   1dff1:	48 89 85 d8 fd ff ff 	mov    %rax,-0x228(%rbp)
   1dff8:	48 8d 85 90 f1 ff ff 	lea    -0xe70(%rbp),%rax
   1dfff:	48 89 85 e0 fd ff ff 	mov    %rax,-0x220(%rbp)
   1e006:	48 8d 85 90 f1 ff ff 	lea    -0xe70(%rbp),%rax
   1e00d:	48 89 85 e8 fd ff ff 	mov    %rax,-0x218(%rbp)
   1e014:	48 8d 85 90 f1 ff ff 	lea    -0xe70(%rbp),%rax
   1e01b:	48 89 85 f0 fd ff ff 	mov    %rax,-0x210(%rbp)
   1e022:	48 8d 85 90 f1 ff ff 	lea    -0xe70(%rbp),%rax
   1e029:	48 89 85 f8 fd ff ff 	mov    %rax,-0x208(%rbp)
   1e030:	48 c7 85 00 fe ff ff 	movq   $0x0,-0x200(%rbp)
   1e037:	00 00 00 00 
   1e03b:	48 c7 85 08 fe ff ff 	movq   $0x0,-0x1f8(%rbp)
   1e042:	00 00 00 00 
   1e046:	48 8d 85 90 f1 ff ff 	lea    -0xe70(%rbp),%rax
   1e04d:	48 89 85 10 fe ff ff 	mov    %rax,-0x1f0(%rbp)
   1e054:	48 8d 85 90 f1 ff ff 	lea    -0xe70(%rbp),%rax
   1e05b:	48 89 85 18 fe ff ff 	mov    %rax,-0x1e8(%rbp)
   1e062:	48 8d 85 90 f1 ff ff 	lea    -0xe70(%rbp),%rax
   1e069:	48 89 85 20 fe ff ff 	mov    %rax,-0x1e0(%rbp)
   1e070:	48 c7 85 28 fe ff ff 	movq   $0x0,-0x1d8(%rbp)
   1e077:	00 00 00 00 
   1e07b:	48 c7 85 30 fe ff ff 	movq   $0x0,-0x1d0(%rbp)
   1e082:	00 00 00 00 
   1e086:	48 8d 85 90 f1 ff ff 	lea    -0xe70(%rbp),%rax
   1e08d:	48 89 85 38 fe ff ff 	mov    %rax,-0x1c8(%rbp)
   1e094:	48 8d 85 90 f1 ff ff 	lea    -0xe70(%rbp),%rax
   1e09b:	48 89 85 40 fe ff ff 	mov    %rax,-0x1c0(%rbp)
   1e0a2:	48 c7 85 48 fe ff ff 	movq   $0x0,-0x1b8(%rbp)
   1e0a9:	00 00 00 00 
   1e0ad:	48 c7 85 50 fe ff ff 	movq   $0x0,-0x1b0(%rbp)
   1e0b4:	00 00 00 00 
   1e0b8:	48 8d 85 90 f1 ff ff 	lea    -0xe70(%rbp),%rax
   1e0bf:	48 89 85 58 fe ff ff 	mov    %rax,-0x1a8(%rbp)
   1e0c6:	48 8d 85 90 f1 ff ff 	lea    -0xe70(%rbp),%rax
   1e0cd:	48 89 85 60 fe ff ff 	mov    %rax,-0x1a0(%rbp)
   1e0d4:	48 c7 85 68 fe ff ff 	movq   $0x0,-0x198(%rbp)
   1e0db:	00 00 00 00 
   1e0df:	48 8d 85 90 f1 ff ff 	lea    -0xe70(%rbp),%rax
   1e0e6:	48 89 85 70 fe ff ff 	mov    %rax,-0x190(%rbp)
   1e0ed:	48 c7 85 78 fe ff ff 	movq   $0x0,-0x188(%rbp)
   1e0f4:	00 00 00 00 
   1e0f8:	48 8d 85 90 f1 ff ff 	lea    -0xe70(%rbp),%rax
   1e0ff:	48 89 85 80 fe ff ff 	mov    %rax,-0x180(%rbp)
   1e106:	48 8d 85 90 f1 ff ff 	lea    -0xe70(%rbp),%rax
   1e10d:	48 89 85 88 fe ff ff 	mov    %rax,-0x178(%rbp)
   1e114:	48 8d 85 90 f1 ff ff 	lea    -0xe70(%rbp),%rax
   1e11b:	48 89 85 90 fe ff ff 	mov    %rax,-0x170(%rbp)
   1e122:	48 8d 85 90 f1 ff ff 	lea    -0xe70(%rbp),%rax
   1e129:	48 89 85 98 fe ff ff 	mov    %rax,-0x168(%rbp)
   1e130:	48 8d 85 90 f1 ff ff 	lea    -0xe70(%rbp),%rax
   1e137:	48 89 85 a0 fe ff ff 	mov    %rax,-0x160(%rbp)
   1e13e:	48 8d 85 90 f1 ff ff 	lea    -0xe70(%rbp),%rax
   1e145:	48 89 85 a8 fe ff ff 	mov    %rax,-0x158(%rbp)
   1e14c:	48 8d 85 90 f1 ff ff 	lea    -0xe70(%rbp),%rax
   1e153:	48 89 85 b0 fe ff ff 	mov    %rax,-0x150(%rbp)
   1e15a:	48 8d 85 90 f1 ff ff 	lea    -0xe70(%rbp),%rax
   1e161:	48 89 85 b8 fe ff ff 	mov    %rax,-0x148(%rbp)
   1e168:	48 8d 85 90 f1 ff ff 	lea    -0xe70(%rbp),%rax
   1e16f:	48 89 85 c0 fe ff ff 	mov    %rax,-0x140(%rbp)
   1e176:	48 8d 85 90 f1 ff ff 	lea    -0xe70(%rbp),%rax
   1e17d:	48 89 85 c8 fe ff ff 	mov    %rax,-0x138(%rbp)
   1e184:	48 c7 85 d0 fe ff ff 	movq   $0x0,-0x130(%rbp)
   1e18b:	00 00 00 00 
   1e18f:	48 c7 85 d8 fe ff ff 	movq   $0x0,-0x128(%rbp)
   1e196:	00 00 00 00 
   1e19a:	48 c7 85 e0 fe ff ff 	movq   $0x0,-0x120(%rbp)
   1e1a1:	00 00 00 00 
   1e1a5:	48 c7 85 e8 fe ff ff 	movq   $0x0,-0x118(%rbp)
   1e1ac:	00 00 00 00 
   1e1b0:	48 8d 85 f0 f3 ff ff 	lea    -0xc10(%rbp),%rax
   1e1b7:	48 83 c0 18          	add    $0x18,%rax
   1e1bb:	48 89 85 20 f2 ff ff 	mov    %rax,-0xde0(%rbp)
   1e1c2:	c7 85 f0 f0 ff ff ff 	movl   $0xffffffff,-0xf10(%rbp)
   1e1c9:	ff ff ff 
   1e1cc:	48 8d 05 f5 d7 00 00 	lea    0xd7f5(%rip),%rax        # 2b9c8 <g_888+0x28>
   1e1d3:	48 89 85 28 f2 ff ff 	mov    %rax,-0xdd8(%rbp)
   1e1da:	48 8d 85 78 f1 ff ff 	lea    -0xe88(%rbp),%rax
   1e1e1:	48 89 85 30 f2 ff ff 	mov    %rax,-0xdd0(%rbp)
   1e1e8:	48 8d 05 39 7e 00 00 	lea    0x7e39(%rip),%rax        # 26028 <g_34>
   1e1ef:	48 89 85 38 f2 ff ff 	mov    %rax,-0xdc8(%rbp)
   1e1f6:	c7 85 f4 f0 ff ff 00 	movl   $0x0,-0xf0c(%rbp)
   1e1fd:	00 00 00 
   1e200:	66 c7 85 a4 f0 ff ff 	movw   $0xffff,-0xf5c(%rbp)
   1e207:	ff ff 
   1e209:	48 8d 85 12 f3 ff ff 	lea    -0xcee(%rbp),%rax
   1e210:	48 89 85 40 f2 ff ff 	mov    %rax,-0xdc0(%rbp)
   1e217:	48 c7 85 48 f2 ff ff 	movq   $0x2,-0xdb8(%rbp)
   1e21e:	02 00 00 00 
   1e222:	48 8d 05 97 d5 00 00 	lea    0xd597(%rip),%rax        # 2b7c0 <g_554+0x140>
   1e229:	48 89 85 50 f2 ff ff 	mov    %rax,-0xdb0(%rbp)
   1e230:	48 8d 05 51 d4 00 00 	lea    0xd451(%rip),%rax        # 2b688 <g_554+0x8>
   1e237:	48 89 85 58 f2 ff ff 	mov    %rax,-0xda8(%rbp)
   1e23e:	48 c7 85 60 f2 ff ff 	movq   $0x0,-0xda0(%rbp)
   1e245:	00 00 00 00 
   1e249:	c6 85 9d f0 ff ff f8 	movb   $0xf8,-0xf63(%rbp)
   1e250:	c7 85 f8 f0 ff ff a1 	movl   $0x40fe76a1,-0xf08(%rbp)
   1e257:	76 fe 40 
   1e25a:	48 c7 85 68 f2 ff ff 	movq   $0x0,-0xd98(%rbp)
   1e261:	00 00 00 00 
   1e265:	c7 85 b8 f0 ff ff 00 	movl   $0x0,-0xf48(%rbp)
   1e26c:	00 00 00 
   1e26f:	eb 1e                	jmp    1e28f <func_86+0x2172>
   1e271:	8b 85 b8 f0 ff ff    	mov    -0xf48(%rbp),%eax
   1e277:	48 98                	cltq   
   1e279:	48 8d 15 08 2e 00 00 	lea    0x2e08(%rip),%rdx        # 21088 <g_1083>
   1e280:	48 89 94 c5 b0 f3 ff 	mov    %rdx,-0xc50(%rbp,%rax,8)
   1e287:	ff 
   1e288:	83 85 b8 f0 ff ff 01 	addl   $0x1,-0xf48(%rbp)
   1e28f:	83 bd b8 f0 ff ff 02 	cmpl   $0x2,-0xf48(%rbp)
   1e296:	7e d9                	jle    1e271 <func_86+0x2154>
   1e298:	c7 85 b8 f0 ff ff 00 	movl   $0x0,-0xf48(%rbp)
   1e29f:	00 00 00 
   1e2a2:	eb 46                	jmp    1e2ea <func_86+0x21cd>
   1e2a4:	c7 85 bc f0 ff ff 00 	movl   $0x0,-0xf44(%rbp)
   1e2ab:	00 00 00 
   1e2ae:	eb 2a                	jmp    1e2da <func_86+0x21bd>
   1e2b0:	8b 85 bc f0 ff ff    	mov    -0xf44(%rbp),%eax
   1e2b6:	48 98                	cltq   
   1e2b8:	8b 95 b8 f0 ff ff    	mov    -0xf48(%rbp),%edx
   1e2be:	48 63 d2             	movslq %edx,%rdx
   1e2c1:	48 01 d2             	add    %rdx,%rdx
   1e2c4:	48 01 d0             	add    %rdx,%rax
   1e2c7:	48 c7 84 c5 60 f4 ff 	movq   $0x1,-0xba0(%rbp,%rax,8)
   1e2ce:	ff 01 00 00 00 
   1e2d3:	83 85 bc f0 ff ff 01 	addl   $0x1,-0xf44(%rbp)
   1e2da:	83 bd bc f0 ff ff 01 	cmpl   $0x1,-0xf44(%rbp)
   1e2e1:	7e cd                	jle    1e2b0 <func_86+0x2193>
   1e2e3:	83 85 b8 f0 ff ff 01 	addl   $0x1,-0xf48(%rbp)
   1e2ea:	83 bd b8 f0 ff ff 02 	cmpl   $0x2,-0xf48(%rbp)
   1e2f1:	7e b1                	jle    1e2a4 <func_86+0x2187>
   1e2f3:	48 8b 85 28 f3 ff ff 	mov    -0xcd8(%rbp),%rax
   1e2fa:	48 83 e8 01          	sub    $0x1,%rax
   1e2fe:	48 89 85 28 f3 ff ff 	mov    %rax,-0xcd8(%rbp)
   1e305:	66 83 bd 80 f0 ff ff 	cmpw   $0x0,-0xf80(%rbp)
   1e30c:	00 
   1e30d:	0f 85 2e 02 00 00    	jne    1e541 <func_86+0x2424>
   1e313:	48 8b 05 76 d6 00 00 	mov    0xd676(%rip),%rax        # 2b990 <g_834>
   1e31a:	48 8b 00             	mov    (%rax),%rax
   1e31d:	48 8b 00             	mov    (%rax),%rax
   1e320:	8b 10                	mov    (%rax),%edx
   1e322:	83 ea 01             	sub    $0x1,%edx
   1e325:	89 10                	mov    %edx,(%rax)
   1e327:	44 8b 38             	mov    (%rax),%r15d
   1e32a:	8b 85 84 f0 ff ff    	mov    -0xf7c(%rbp),%eax
   1e330:	0f be d8             	movsbl %al,%ebx
   1e333:	48 8b 85 78 f0 ff ff 	mov    -0xf88(%rbp),%rax
   1e33a:	0f b6 00             	movzbl (%rax),%eax
   1e33d:	44 0f be e0          	movsbl %al,%r12d
   1e341:	48 8b 05 a8 cf 00 00 	mov    0xcfa8(%rip),%rax        # 2b2f0 <g_188>
   1e348:	48 8b 00             	mov    (%rax),%rax
   1e34b:	48 8b 95 78 f0 ff ff 	mov    -0xf88(%rbp),%rdx
   1e352:	0f b6 12             	movzbl (%rdx),%edx
   1e355:	88 10                	mov    %dl,(%rax)
   1e357:	48 8d 05 ea 88 00 00 	lea    0x88ea(%rip),%rax        # 26c48 <g_556>
   1e35e:	44 0f b7 28          	movzwl (%rax),%r13d
   1e362:	48 8b 85 78 f0 ff ff 	mov    -0xf88(%rbp),%rax
   1e369:	0f b6 00             	movzbl (%rax),%eax
   1e36c:	0f be c0             	movsbl %al,%eax
   1e36f:	be 03 00 00 00       	mov    $0x3,%esi
   1e374:	89 c7                	mov    %eax,%edi
   1e376:	e8 f1 1f ff ff       	callq  1036c <safe_rshift_func_int8_t_s_u>
   1e37b:	66 98                	cbtw   
   1e37d:	66 41 39 c5          	cmp    %ax,%r13w
   1e381:	48 8b 85 78 f0 ff ff 	mov    -0xf88(%rbp),%rax
   1e388:	0f b6 00             	movzbl (%rax),%eax
   1e38b:	0f be c0             	movsbl %al,%eax
   1e38e:	89 85 74 f0 ff ff    	mov    %eax,-0xf8c(%rbp)
   1e394:	44 0f b7 ad 80 f0 ff 	movzwl -0xf80(%rbp),%r13d
   1e39b:	ff 
   1e39c:	48 8b 85 b8 f1 ff ff 	mov    -0xe48(%rbp),%rax
   1e3a3:	48 8b 00             	mov    (%rax),%rax
   1e3a6:	48 8b 00             	mov    (%rax),%rax
   1e3a9:	48 8b 00             	mov    (%rax),%rax
   1e3ac:	48 8b 00             	mov    (%rax),%rax
   1e3af:	8b 00                	mov    (%rax),%eax
   1e3b1:	89 85 70 f0 ff ff    	mov    %eax,-0xf90(%rbp)
   1e3b7:	44 8b b5 84 f0 ff ff 	mov    -0xf7c(%rbp),%r14d
   1e3be:	48 8d 05 83 88 00 00 	lea    0x8883(%rip),%rax        # 26c48 <g_556>
   1e3c5:	0f b7 00             	movzwl (%rax),%eax
   1e3c8:	8b 95 84 f0 ff ff    	mov    -0xf7c(%rbp),%edx
   1e3ce:	21 c2                	and    %eax,%edx
   1e3d0:	48 8b 85 e8 f1 ff ff 	mov    -0xe18(%rbp),%rax
   1e3d7:	66 89 10             	mov    %dx,(%rax)
   1e3da:	48 8b 85 e8 f1 ff ff 	mov    -0xe18(%rbp),%rax
   1e3e1:	0f b7 00             	movzwl (%rax),%eax
   1e3e4:	98                   	cwtl   
   1e3e5:	be 09 77 00 00       	mov    $0x7709,%esi
   1e3ea:	89 c7                	mov    %eax,%edi
   1e3ec:	e8 e2 1f ff ff       	callq  103d3 <safe_sub_func_int16_t_s_s>
   1e3f1:	98                   	cwtl   
   1e3f2:	44 89 f6             	mov    %r14d,%esi
   1e3f5:	89 c7                	mov    %eax,%edi
   1e3f7:	e8 e5 20 ff ff       	callq  104e1 <safe_lshift_func_int16_t_s_u>
   1e3fc:	0f bf d0             	movswl %ax,%edx
   1e3ff:	48 8b 05 32 d1 00 00 	mov    0xd132(%rip),%rax        # 2b538 <g_455>
   1e406:	48 8b 00             	mov    (%rax),%rax
   1e409:	8b 00                	mov    (%rax),%eax
   1e40b:	39 c2                	cmp    %eax,%edx
   1e40d:	0f 9e c2             	setle  %dl
   1e410:	48 8b 05 69 d5 00 00 	mov    0xd569(%rip),%rax        # 2b980 <g_796>
   1e417:	48 8b 00             	mov    (%rax),%rax
   1e41a:	48 8b 00             	mov    (%rax),%rax
   1e41d:	48 8b 00             	mov    (%rax),%rax
   1e420:	88 10                	mov    %dl,(%rax)
   1e422:	0f b6 00             	movzbl (%rax),%eax
   1e425:	0f be c0             	movsbl %al,%eax
   1e428:	8b b5 70 f0 ff ff    	mov    -0xf90(%rbp),%esi
   1e42e:	89 c7                	mov    %eax,%edi
   1e430:	e8 9b 2a ff ff       	callq  10ed0 <safe_sub_func_uint32_t_u_u>
   1e435:	3d 5c 29 15 13       	cmp    $0x1315295c,%eax
   1e43a:	0f 94 c0             	sete   %al
   1e43d:	0f b6 c0             	movzbl %al,%eax
   1e440:	be 35 1f 9f b5       	mov    $0xb59f1f35,%esi
   1e445:	89 c7                	mov    %eax,%edi
   1e447:	e8 80 22 ff ff       	callq  106cc <safe_mod_func_int32_t_s_s>
   1e44c:	89 c2                	mov    %eax,%edx
   1e44e:	48 8b 05 3b d6 00 00 	mov    0xd63b(%rip),%rax        # 2ba90 <g_969>
   1e455:	0f b6 00             	movzbl (%rax),%eax
   1e458:	89 c1                	mov    %eax,%ecx
   1e45a:	89 d0                	mov    %edx,%eax
   1e45c:	09 c1                	or     %eax,%ecx
   1e45e:	89 ca                	mov    %ecx,%edx
   1e460:	48 8b 05 29 d6 00 00 	mov    0xd629(%rip),%rax        # 2ba90 <g_969>
   1e467:	88 10                	mov    %dl,(%rax)
   1e469:	0f b6 00             	movzbl (%rax),%eax
   1e46c:	0f b6 d0             	movzbl %al,%edx
   1e46f:	48 8b 85 78 f0 ff ff 	mov    -0xf88(%rbp),%rax
   1e476:	0f b6 00             	movzbl (%rax),%eax
   1e479:	0f be c0             	movsbl %al,%eax
   1e47c:	39 c2                	cmp    %eax,%edx
   1e47e:	0f 9d c0             	setge  %al
   1e481:	0f b6 c0             	movzbl %al,%eax
   1e484:	44 89 ee             	mov    %r13d,%esi
   1e487:	89 c7                	mov    %eax,%edi
   1e489:	e8 de 1e ff ff       	callq  1036c <safe_rshift_func_int8_t_s_u>
   1e48e:	be ff ff ff ff       	mov    $0xffffffff,%esi
   1e493:	bf 00 00 00 00       	mov    $0x0,%edi
   1e498:	e8 55 1d ff ff       	callq  101f2 <safe_sub_func_int8_t_s_s>
   1e49d:	84 c0                	test   %al,%al
   1e49f:	0f 94 c0             	sete   %al
   1e4a2:	0f b6 c0             	movzbl %al,%eax
   1e4a5:	39 85 74 f0 ff ff    	cmp    %eax,-0xf8c(%rbp)
   1e4ab:	48 8b 05 76 d6 00 00 	mov    0xd676(%rip),%rax        # 2bb28 <g_1575>
   1e4b2:	48 89 05 77 d6 00 00 	mov    %rax,0xd677(%rip)        # 2bb30 <g_1577>
   1e4b9:	48 8b 05 70 d6 00 00 	mov    0xd670(%rip),%rax        # 2bb30 <g_1577>
   1e4c0:	48 89 05 61 d6 00 00 	mov    %rax,0xd661(%rip)        # 2bb28 <g_1575>
   1e4c7:	48 8b 05 5a d6 00 00 	mov    0xd65a(%rip),%rax        # 2bb28 <g_1575>
   1e4ce:	48 8d 15 1b d2 00 00 	lea    0xd21b(%rip),%rdx        # 2b6f0 <g_554+0x70>
   1e4d5:	48 39 d0             	cmp    %rdx,%rax
   1e4d8:	0f 94 c0             	sete   %al
   1e4db:	89 c2                	mov    %eax,%edx
   1e4dd:	48 8b 85 a0 f1 ff ff 	mov    -0xe60(%rbp),%rax
   1e4e4:	8b 00                	mov    (%rax),%eax
   1e4e6:	21 d0                	and    %edx,%eax
   1e4e8:	0f be c0             	movsbl %al,%eax
   1e4eb:	be f9 ff ff ff       	mov    $0xfffffff9,%esi
   1e4f0:	89 c7                	mov    %eax,%edi
   1e4f2:	e8 fb 1c ff ff       	callq  101f2 <safe_sub_func_int8_t_s_s>
   1e4f7:	0f be c0             	movsbl %al,%eax
   1e4fa:	89 c6                	mov    %eax,%esi
   1e4fc:	bf 01 00 00 00       	mov    $0x1,%edi
   1e501:	e8 cd 1e ff ff       	callq  103d3 <safe_sub_func_int16_t_s_s>
   1e506:	0f be c0             	movsbl %al,%eax
   1e509:	44 89 e6             	mov    %r12d,%esi
   1e50c:	89 c7                	mov    %eax,%edi
   1e50e:	e8 ff 1c ff ff       	callq  10212 <safe_mul_func_int8_t_s_s>
   1e513:	0f be c0             	movsbl %al,%eax
   1e516:	89 de                	mov    %ebx,%esi
   1e518:	89 c7                	mov    %eax,%edi
   1e51a:	e8 f3 1c ff ff       	callq  10212 <safe_mul_func_int8_t_s_s>
   1e51f:	0f be c0             	movsbl %al,%eax
   1e522:	41 39 c7             	cmp    %eax,%r15d
   1e525:	0f 97 c0             	seta   %al
   1e528:	89 c2                	mov    %eax,%edx
   1e52a:	48 8b 85 f0 f1 ff ff 	mov    -0xe10(%rbp),%rax
   1e531:	88 10                	mov    %dl,(%rax)
   1e533:	48 8b 85 f0 f1 ff ff 	mov    -0xe10(%rbp),%rax
   1e53a:	0f b6 00             	movzbl (%rax),%eax
   1e53d:	84 c0                	test   %al,%al
   1e53f:	74 07                	je     1e548 <func_86+0x242b>
   1e541:	ba 01 00 00 00       	mov    $0x1,%edx
   1e546:	eb 05                	jmp    1e54d <func_86+0x2430>
   1e548:	ba 00 00 00 00       	mov    $0x0,%edx
   1e54d:	48 8b 85 e0 f1 ff ff 	mov    -0xe20(%rbp),%rax
   1e554:	8b 00                	mov    (%rax),%eax
   1e556:	09 c2                	or     %eax,%edx
   1e558:	48 8b 85 e0 f1 ff ff 	mov    -0xe20(%rbp),%rax
   1e55f:	89 10                	mov    %edx,(%rax)
   1e561:	83 bd 84 f0 ff ff 00 	cmpl   $0x0,-0xf7c(%rbp)
   1e568:	74 72                	je     1e5dc <func_86+0x24bf>
   1e56a:	48 8d 05 87 cd 00 00 	lea    0xcd87(%rip),%rax        # 2b2f8 <g_197>
   1e571:	48 89 85 00 f3 ff ff 	mov    %rax,-0xd00(%rbp)
   1e578:	48 8d 85 ac f0 ff ff 	lea    -0xf54(%rbp),%rax
   1e57f:	48 89 85 90 f1 ff ff 	mov    %rax,-0xe70(%rbp)
   1e586:	48 8d 85 90 f1 ff ff 	lea    -0xe70(%rbp),%rax
   1e58d:	48 89 85 08 f3 ff ff 	mov    %rax,-0xcf8(%rbp)
   1e594:	48 8b 85 68 f1 ff ff 	mov    -0xe98(%rbp),%rax
   1e59b:	48 8b 00             	mov    (%rax),%rax
   1e59e:	48 8b 00             	mov    (%rax),%rax
   1e5a1:	48 8b 10             	mov    (%rax),%rdx
   1e5a4:	48 8b 85 00 f3 ff ff 	mov    -0xd00(%rbp),%rax
   1e5ab:	48 89 10             	mov    %rdx,(%rax)
   1e5ae:	48 8b 85 00 f3 ff ff 	mov    -0xd00(%rbp),%rax
   1e5b5:	48 8b 10             	mov    (%rax),%rdx
   1e5b8:	48 8b 85 08 f3 ff ff 	mov    -0xcf8(%rbp),%rax
   1e5bf:	48 89 10             	mov    %rdx,(%rax)
   1e5c2:	48 8b 15 df d4 00 00 	mov    0xd4df(%rip),%rdx        # 2baa8 <g_1228>
   1e5c9:	48 8b 05 68 cd 00 00 	mov    0xcd68(%rip),%rax        # 2b338 <g_380>
   1e5d0:	48 8b 00             	mov    (%rax),%rax
   1e5d3:	8b 12                	mov    (%rdx),%edx
   1e5d5:	89 10                	mov    %edx,(%rax)
   1e5d7:	e9 88 00 00 00       	jmpq   1e664 <func_86+0x2547>
   1e5dc:	48 b8 7e d5 49 ec f9 	movabs $0xdefed6f9ec49d57e,%rax
   1e5e3:	d6 fe de 
   1e5e6:	48 89 85 f8 f2 ff ff 	mov    %rax,-0xd08(%rbp)
   1e5ed:	c7 85 40 f1 ff ff fe 	movl   $0x18e7efe,-0xec0(%rbp)
   1e5f4:	7e 8e 01 
   1e5f7:	c7 85 44 f1 ff ff ff 	movl   $0xffffffff,-0xebc(%rbp)
   1e5fe:	ff ff ff 
   1e601:	48 8d 85 d0 fb ff ff 	lea    -0x430(%rbp),%rax
   1e608:	48 8d 15 31 38 00 00 	lea    0x3831(%rip),%rdx        # 21e40 <g_2211+0xdb0>
   1e60f:	b9 24 00 00 00       	mov    $0x24,%ecx
   1e614:	48 89 c7             	mov    %rax,%rdi
   1e617:	48 89 d6             	mov    %rdx,%rsi
   1e61a:	f3 48 a5             	rep movsq %ds:(%rsi),%es:(%rdi)
   1e61d:	66 c7 85 aa f0 ff ff 	movw   $0x0,-0xf56(%rbp)
   1e624:	00 00 
   1e626:	8b 05 64 93 00 00    	mov    0x9364(%rip),%eax        # 27990 <g_1605>
   1e62c:	83 e8 01             	sub    $0x1,%eax
   1e62f:	89 05 5b 93 00 00    	mov    %eax,0x935b(%rip)        # 27990 <g_1605>
   1e635:	48 8b 05 ec d4 00 00 	mov    0xd4ec(%rip),%rax        # 2bb28 <g_1575>
   1e63c:	48 8b 00             	mov    (%rax),%rax
   1e63f:	48 8b 00             	mov    (%rax),%rax
   1e642:	48 8b 00             	mov    (%rax),%rax
   1e645:	48 8b 00             	mov    (%rax),%rax
   1e648:	8b 00                	mov    (%rax),%eax
   1e64a:	31 85 84 f0 ff ff    	xor    %eax,-0xf7c(%rbp)
   1e650:	48 8b 05 21 d0 00 00 	mov    0xd021(%rip),%rax        # 2b678 <g_452>
   1e657:	48 8b 10             	mov    (%rax),%rdx
   1e65a:	48 8b 85 b8 f1 ff ff 	mov    -0xe48(%rbp),%rax
   1e661:	48 89 10             	mov    %rdx,(%rax)
   1e664:	48 c7 c0 ff ff ff ff 	mov    $0xffffffffffffffff,%rax
   1e66b:	48 8b 5d c8          	mov    -0x38(%rbp),%rbx
   1e66f:	64 48 33 1c 25 28 00 	xor    %fs:0x28,%rbx
   1e676:	00 00 
   1e678:	74 05                	je     1e67f <func_86+0x2562>
   1e67a:	e8 f1 19 ff ff       	callq  10070 <__stack_chk_fail@plt>
   1e67f:	48 81 c4 68 0f 00 00 	add    $0xf68,%rsp
   1e686:	5b                   	pop    %rbx
   1e687:	41 5c                	pop    %r12
   1e689:	41 5d                	pop    %r13
   1e68b:	41 5e                	pop    %r14
   1e68d:	41 5f                	pop    %r15
   1e68f:	5d                   	pop    %rbp
   1e690:	c3                   	retq   

000000000001e691 <func_91>:
   1e691:	f3 0f 1e fa          	endbr64 
   1e695:	55                   	push   %rbp
   1e696:	48 89 e5             	mov    %rsp,%rbp
   1e699:	41 55                	push   %r13
   1e69b:	41 54                	push   %r12
   1e69d:	53                   	push   %rbx
   1e69e:	48 81 ec 08 01 00 00 	sub    $0x108,%rsp
   1e6a5:	48 89 b5 f0 fe ff ff 	mov    %rsi,-0x110(%rbp)
   1e6ac:	89 d0                	mov    %edx,%eax
   1e6ae:	89 ca                	mov    %ecx,%edx
   1e6b0:	89 f9                	mov    %edi,%ecx
   1e6b2:	88 8d fc fe ff ff    	mov    %cl,-0x104(%rbp)
   1e6b8:	66 89 85 f8 fe ff ff 	mov    %ax,-0x108(%rbp)
   1e6bf:	89 d0                	mov    %edx,%eax
   1e6c1:	88 85 ec fe ff ff    	mov    %al,-0x114(%rbp)
   1e6c7:	64 48 8b 04 25 28 00 	mov    %fs:0x28,%rax
   1e6ce:	00 00 
   1e6d0:	48 89 45 d8          	mov    %rax,-0x28(%rbp)
   1e6d4:	31 c0                	xor    %eax,%eax
   1e6d6:	48 8d 05 7b 79 00 00 	lea    0x797b(%rip),%rax        # 26058 <g_107>
   1e6dd:	48 89 85 10 ff ff ff 	mov    %rax,-0xf0(%rbp)
   1e6e4:	c7 85 00 ff ff ff f6 	movl   $0xfffffff6,-0x100(%rbp)
   1e6eb:	ff ff ff 
   1e6ee:	48 8d 05 63 79 00 00 	lea    0x7963(%rip),%rax        # 26058 <g_107>
   1e6f5:	48 89 85 18 ff ff ff 	mov    %rax,-0xe8(%rbp)
   1e6fc:	48 8d 85 00 ff ff ff 	lea    -0x100(%rbp),%rax
   1e703:	48 89 85 20 ff ff ff 	mov    %rax,-0xe0(%rbp)
   1e70a:	48 8d 85 00 ff ff ff 	lea    -0x100(%rbp),%rax
   1e711:	48 89 85 28 ff ff ff 	mov    %rax,-0xd8(%rbp)
   1e718:	48 8d 85 00 ff ff ff 	lea    -0x100(%rbp),%rax
   1e71f:	48 89 85 30 ff ff ff 	mov    %rax,-0xd0(%rbp)
   1e726:	48 8d 05 2b 79 00 00 	lea    0x792b(%rip),%rax        # 26058 <g_107>
   1e72d:	48 89 85 38 ff ff ff 	mov    %rax,-0xc8(%rbp)
   1e734:	c7 85 04 ff ff ff 90 	movl   $0xad515890,-0xfc(%rbp)
   1e73b:	58 51 ad 
   1e73e:	48 8d 05 13 79 00 00 	lea    0x7913(%rip),%rax        # 26058 <g_107>
   1e745:	48 89 85 40 ff ff ff 	mov    %rax,-0xc0(%rbp)
   1e74c:	48 8d 85 04 ff ff ff 	lea    -0xfc(%rbp),%rax
   1e753:	48 89 85 48 ff ff ff 	mov    %rax,-0xb8(%rbp)
   1e75a:	48 8d 85 00 ff ff ff 	lea    -0x100(%rbp),%rax
   1e761:	48 89 85 50 ff ff ff 	mov    %rax,-0xb0(%rbp)
   1e768:	48 8d 85 00 ff ff ff 	lea    -0x100(%rbp),%rax
   1e76f:	48 89 85 58 ff ff ff 	mov    %rax,-0xa8(%rbp)
   1e776:	48 8d 85 00 ff ff ff 	lea    -0x100(%rbp),%rax
   1e77d:	48 89 45 80          	mov    %rax,-0x80(%rbp)
   1e781:	48 8d 85 04 ff ff ff 	lea    -0xfc(%rbp),%rax
   1e788:	48 89 45 88          	mov    %rax,-0x78(%rbp)
   1e78c:	48 8d 85 00 ff ff ff 	lea    -0x100(%rbp),%rax
   1e793:	48 89 45 90          	mov    %rax,-0x70(%rbp)
   1e797:	48 8d 85 04 ff ff ff 	lea    -0xfc(%rbp),%rax
   1e79e:	48 89 45 98          	mov    %rax,-0x68(%rbp)
   1e7a2:	48 8d 85 00 ff ff ff 	lea    -0x100(%rbp),%rax
   1e7a9:	48 89 45 a0          	mov    %rax,-0x60(%rbp)
   1e7ad:	48 8d 85 04 ff ff ff 	lea    -0xfc(%rbp),%rax
   1e7b4:	48 89 45 a8          	mov    %rax,-0x58(%rbp)
   1e7b8:	48 8d 85 00 ff ff ff 	lea    -0x100(%rbp),%rax
   1e7bf:	48 89 45 b0          	mov    %rax,-0x50(%rbp)
   1e7c3:	48 8d 85 04 ff ff ff 	lea    -0xfc(%rbp),%rax
   1e7ca:	48 89 45 b8          	mov    %rax,-0x48(%rbp)
   1e7ce:	48 8d 85 00 ff ff ff 	lea    -0x100(%rbp),%rax
   1e7d5:	48 89 45 c0          	mov    %rax,-0x40(%rbp)
   1e7d9:	48 8d 85 04 ff ff ff 	lea    -0xfc(%rbp),%rax
   1e7e0:	48 89 45 c8          	mov    %rax,-0x38(%rbp)
   1e7e4:	48 8d 05 7d 78 00 00 	lea    0x787d(%rip),%rax        # 26068 <g_125>
   1e7eb:	48 89 85 60 ff ff ff 	mov    %rax,-0xa0(%rbp)
   1e7f2:	48 8d 05 77 78 00 00 	lea    0x7877(%rip),%rax        # 26070 <g_133>
   1e7f9:	48 89 85 68 ff ff ff 	mov    %rax,-0x98(%rbp)
   1e800:	48 8d 05 71 78 00 00 	lea    0x7871(%rip),%rax        # 26078 <g_136>
   1e807:	48 89 85 08 ff ff ff 	mov    %rax,-0xf8(%rbp)
   1e80e:	48 8d 85 08 ff ff ff 	lea    -0xf8(%rbp),%rax
   1e815:	48 89 85 70 ff ff ff 	mov    %rax,-0x90(%rbp)
   1e81c:	48 8d 05 5d 78 00 00 	lea    0x785d(%rip),%rax        # 26080 <g_138>
   1e823:	48 89 85 78 ff ff ff 	mov    %rax,-0x88(%rbp)
   1e82a:	8b 05 30 78 00 00    	mov    0x7830(%rip),%eax        # 26060 <g_121>
   1e830:	83 e8 01             	sub    $0x1,%eax
   1e833:	89 05 27 78 00 00    	mov    %eax,0x7827(%rip)        # 26060 <g_121>
   1e839:	48 8b 85 60 ff ff ff 	mov    -0xa0(%rbp),%rax
   1e840:	48 8b 00             	mov    (%rax),%rax
   1e843:	48 83 e0 fb          	and    $0xfffffffffffffffb,%rax
   1e847:	48 89 c2             	mov    %rax,%rdx
   1e84a:	48 8b 85 60 ff ff ff 	mov    -0xa0(%rbp),%rax
   1e851:	48 89 10             	mov    %rdx,(%rax)
   1e854:	48 8b 85 60 ff ff ff 	mov    -0xa0(%rbp),%rax
   1e85b:	48 8b 00             	mov    (%rax),%rax
   1e85e:	48 ba 14 d2 05 54 f9 	movabs $0x24a3aaf95405d214,%rdx
   1e865:	aa a3 24 
   1e868:	48 39 d0             	cmp    %rdx,%rax
   1e86b:	41 0f 94 c5          	sete   %r13b
   1e86f:	48 8b 85 40 ff ff ff 	mov    -0xc0(%rbp),%rax
   1e876:	44 8b 20             	mov    (%rax),%r12d
   1e879:	66 83 bd f8 fe ff ff 	cmpw   $0x0,-0x108(%rbp)
   1e880:	00 
   1e881:	0f 84 dc 00 00 00    	je     1e963 <func_91+0x2d2>
   1e887:	0f b6 9d ec fe ff ff 	movzbl -0x114(%rbp),%ebx
   1e88e:	80 bd ec fe ff ff ff 	cmpb   $0xff,-0x114(%rbp)
   1e895:	0f 94 c0             	sete   %al
   1e898:	0f b6 d0             	movzbl %al,%edx
   1e89b:	48 8b 85 20 ff ff ff 	mov    -0xe0(%rbp),%rax
   1e8a2:	8b 00                	mov    (%rax),%eax
   1e8a4:	0f b7 c0             	movzwl %ax,%eax
   1e8a7:	89 d6                	mov    %edx,%esi
   1e8a9:	89 c7                	mov    %eax,%edi
   1e8ab:	e8 56 25 ff ff       	callq  10e06 <safe_lshift_func_uint16_t_u_u>
   1e8b0:	0f b6 05 79 77 00 00 	movzbl 0x7779(%rip),%eax        # 26030 <g_101>
   1e8b7:	84 c0                	test   %al,%al
   1e8b9:	75 0d                	jne    1e8c8 <func_91+0x237>
   1e8bb:	48 8b 85 40 ff ff ff 	mov    -0xc0(%rbp),%rax
   1e8c2:	8b 00                	mov    (%rax),%eax
   1e8c4:	85 c0                	test   %eax,%eax
   1e8c6:	74 07                	je     1e8cf <func_91+0x23e>
   1e8c8:	b8 01 00 00 00       	mov    $0x1,%eax
   1e8cd:	eb 05                	jmp    1e8d4 <func_91+0x243>
   1e8cf:	b8 00 00 00 00       	mov    $0x0,%eax
   1e8d4:	48 63 d0             	movslq %eax,%rdx
   1e8d7:	48 8b 85 68 ff ff ff 	mov    -0x98(%rbp),%rax
   1e8de:	48 89 10             	mov    %rdx,(%rax)
   1e8e1:	48 8b 85 70 ff ff ff 	mov    -0x90(%rbp),%rax
   1e8e8:	48 c7 00 00 00 00 00 	movq   $0x0,(%rax)
   1e8ef:	48 8b 85 70 ff ff ff 	mov    -0x90(%rbp),%rax
   1e8f6:	48 8b 00             	mov    (%rax),%rax
   1e8f9:	48 39 85 78 ff ff ff 	cmp    %rax,-0x88(%rbp)
   1e900:	0f 95 c0             	setne  %al
   1e903:	0f b6 d0             	movzbl %al,%edx
   1e906:	0f be 85 fc fe ff ff 	movsbl -0x104(%rbp),%eax
   1e90d:	39 c2                	cmp    %eax,%edx
   1e90f:	0f 94 c0             	sete   %al
   1e912:	0f b6 c0             	movzbl %al,%eax
   1e915:	89 de                	mov    %ebx,%esi
   1e917:	89 c7                	mov    %eax,%edi
   1e919:	e8 45 1c ff ff       	callq  10563 <safe_rshift_func_int16_t_s_u>
   1e91e:	98                   	cwtl   
   1e91f:	80 bd ec fe ff ff 00 	cmpb   $0x0,-0x114(%rbp)
   1e926:	74 10                	je     1e938 <func_91+0x2a7>
   1e928:	80 bd ec fe ff ff 00 	cmpb   $0x0,-0x114(%rbp)
   1e92f:	74 07                	je     1e938 <func_91+0x2a7>
   1e931:	ba 01 00 00 00       	mov    $0x1,%edx
   1e936:	eb 05                	jmp    1e93d <func_91+0x2ac>
   1e938:	ba 00 00 00 00       	mov    $0x0,%edx
   1e93d:	89 c6                	mov    %eax,%esi
   1e93f:	89 d7                	mov    %edx,%edi
   1e941:	e8 70 1c ff ff       	callq  105b6 <safe_add_func_int32_t_s_s>
   1e946:	0f b6 05 03 77 00 00 	movzbl 0x7703(%rip),%eax        # 26050 <g_103>
   1e94d:	84 c0                	test   %al,%al
   1e94f:	74 12                	je     1e963 <func_91+0x2d2>
   1e951:	0f b6 05 cc 76 00 00 	movzbl 0x76cc(%rip),%eax        # 26024 <g_5>
   1e958:	84 c0                	test   %al,%al
   1e95a:	74 07                	je     1e963 <func_91+0x2d2>
   1e95c:	b8 01 00 00 00       	mov    $0x1,%eax
   1e961:	eb 05                	jmp    1e968 <func_91+0x2d7>
   1e963:	b8 00 00 00 00       	mov    $0x0,%eax
   1e968:	44 39 e0             	cmp    %r12d,%eax
   1e96b:	0f 9e c0             	setle  %al
   1e96e:	0f b6 d0             	movzbl %al,%edx
   1e971:	0f b6 05 c8 76 00 00 	movzbl 0x76c8(%rip),%eax        # 26040 <g_102>
   1e978:	0f be c0             	movsbl %al,%eax
   1e97b:	39 c2                	cmp    %eax,%edx
   1e97d:	0f 9d c0             	setge  %al
   1e980:	44 31 e8             	xor    %r13d,%eax
   1e983:	0f b6 d0             	movzbl %al,%edx
   1e986:	48 8b 85 48 ff ff ff 	mov    -0xb8(%rbp),%rax
   1e98d:	89 10                	mov    %edx,(%rax)
   1e98f:	48 8b 85 38 ff ff ff 	mov    -0xc8(%rbp),%rax
   1e996:	8b 00                	mov    (%rax),%eax
   1e998:	48 8b 5d d8          	mov    -0x28(%rbp),%rbx
   1e99c:	64 48 33 1c 25 28 00 	xor    %fs:0x28,%rbx
   1e9a3:	00 00 
   1e9a5:	74 05                	je     1e9ac <func_91+0x31b>
   1e9a7:	e8 c4 16 ff ff       	callq  10070 <__stack_chk_fail@plt>
   1e9ac:	48 81 c4 08 01 00 00 	add    $0x108,%rsp
   1e9b3:	5b                   	pop    %rbx
   1e9b4:	41 5c                	pop    %r12
   1e9b6:	41 5d                	pop    %r13
   1e9b8:	5d                   	pop    %rbp
   1e9b9:	c3                   	retq   

000000000001e9ba <func_96>:
   1e9ba:	f3 0f 1e fa          	endbr64 
   1e9be:	55                   	push   %rbp
   1e9bf:	48 89 e5             	mov    %rsp,%rbp
   1e9c2:	48 81 ec 00 01 00 00 	sub    $0x100,%rsp
   1e9c9:	48 89 bd 08 ff ff ff 	mov    %rdi,-0xf8(%rbp)
   1e9d0:	48 89 b5 00 ff ff ff 	mov    %rsi,-0x100(%rbp)
   1e9d7:	64 48 8b 04 25 28 00 	mov    %fs:0x28,%rax
   1e9de:	00 00 
   1e9e0:	48 89 45 f8          	mov    %rax,-0x8(%rbp)
   1e9e4:	31 c0                	xor    %eax,%eax
   1e9e6:	48 8d 05 63 76 00 00 	lea    0x7663(%rip),%rax        # 26050 <g_103>
   1e9ed:	48 89 85 20 ff ff ff 	mov    %rax,-0xe0(%rbp)
   1e9f4:	48 8d 05 45 76 00 00 	lea    0x7645(%rip),%rax        # 26040 <g_102>
   1e9fb:	48 89 85 28 ff ff ff 	mov    %rax,-0xd8(%rbp)
   1ea02:	48 8d 05 47 76 00 00 	lea    0x7647(%rip),%rax        # 26050 <g_103>
   1ea09:	48 89 85 30 ff ff ff 	mov    %rax,-0xd0(%rbp)
   1ea10:	48 8d 05 19 76 00 00 	lea    0x7619(%rip),%rax        # 26030 <g_101>
   1ea17:	48 89 85 38 ff ff ff 	mov    %rax,-0xc8(%rbp)
   1ea1e:	48 8d 05 0b 76 00 00 	lea    0x760b(%rip),%rax        # 26030 <g_101>
   1ea25:	48 89 85 40 ff ff ff 	mov    %rax,-0xc0(%rbp)
   1ea2c:	48 8d 05 fd 75 00 00 	lea    0x75fd(%rip),%rax        # 26030 <g_101>
   1ea33:	48 89 85 48 ff ff ff 	mov    %rax,-0xb8(%rbp)
   1ea3a:	48 8d 05 0f 76 00 00 	lea    0x760f(%rip),%rax        # 26050 <g_103>
   1ea41:	48 89 85 50 ff ff ff 	mov    %rax,-0xb0(%rbp)
   1ea48:	48 8d 05 f1 75 00 00 	lea    0x75f1(%rip),%rax        # 26040 <g_102>
   1ea4f:	48 89 85 58 ff ff ff 	mov    %rax,-0xa8(%rbp)
   1ea56:	48 8d 05 f3 75 00 00 	lea    0x75f3(%rip),%rax        # 26050 <g_103>
   1ea5d:	48 89 85 60 ff ff ff 	mov    %rax,-0xa0(%rbp)
   1ea64:	48 8d 05 c5 75 00 00 	lea    0x75c5(%rip),%rax        # 26030 <g_101>
   1ea6b:	48 89 85 68 ff ff ff 	mov    %rax,-0x98(%rbp)
   1ea72:	48 8d 05 b7 75 00 00 	lea    0x75b7(%rip),%rax        # 26030 <g_101>
   1ea79:	48 89 85 70 ff ff ff 	mov    %rax,-0x90(%rbp)
   1ea80:	48 8d 05 a9 75 00 00 	lea    0x75a9(%rip),%rax        # 26030 <g_101>
   1ea87:	48 89 85 78 ff ff ff 	mov    %rax,-0x88(%rbp)
   1ea8e:	48 8d 05 bb 75 00 00 	lea    0x75bb(%rip),%rax        # 26050 <g_103>
   1ea95:	48 89 45 80          	mov    %rax,-0x80(%rbp)
   1ea99:	48 8d 05 a0 75 00 00 	lea    0x75a0(%rip),%rax        # 26040 <g_102>
   1eaa0:	48 89 45 88          	mov    %rax,-0x78(%rbp)
   1eaa4:	48 8d 05 a5 75 00 00 	lea    0x75a5(%rip),%rax        # 26050 <g_103>
   1eaab:	48 89 45 90          	mov    %rax,-0x70(%rbp)
   1eaaf:	48 8d 05 7a 75 00 00 	lea    0x757a(%rip),%rax        # 26030 <g_101>
   1eab6:	48 89 45 98          	mov    %rax,-0x68(%rbp)
   1eaba:	48 8d 05 6f 75 00 00 	lea    0x756f(%rip),%rax        # 26030 <g_101>
   1eac1:	48 89 45 a0          	mov    %rax,-0x60(%rbp)
   1eac5:	48 8d 05 64 75 00 00 	lea    0x7564(%rip),%rax        # 26030 <g_101>
   1eacc:	48 89 45 a8          	mov    %rax,-0x58(%rbp)
   1ead0:	48 8d 05 79 75 00 00 	lea    0x7579(%rip),%rax        # 26050 <g_103>
   1ead7:	48 89 45 b0          	mov    %rax,-0x50(%rbp)
   1eadb:	48 8d 05 5e 75 00 00 	lea    0x755e(%rip),%rax        # 26040 <g_102>
   1eae2:	48 89 45 b8          	mov    %rax,-0x48(%rbp)
   1eae6:	48 8d 05 63 75 00 00 	lea    0x7563(%rip),%rax        # 26050 <g_103>
   1eaed:	48 89 45 c0          	mov    %rax,-0x40(%rbp)
   1eaf1:	48 8d 05 38 75 00 00 	lea    0x7538(%rip),%rax        # 26030 <g_101>
   1eaf8:	48 89 45 c8          	mov    %rax,-0x38(%rbp)
   1eafc:	48 8d 05 2d 75 00 00 	lea    0x752d(%rip),%rax        # 26030 <g_101>
   1eb03:	48 89 45 d0          	mov    %rax,-0x30(%rbp)
   1eb07:	48 8d 05 22 75 00 00 	lea    0x7522(%rip),%rax        # 26030 <g_101>
   1eb0e:	48 89 45 d8          	mov    %rax,-0x28(%rbp)
   1eb12:	48 8d 05 37 75 00 00 	lea    0x7537(%rip),%rax        # 26050 <g_103>
   1eb19:	48 89 45 e0          	mov    %rax,-0x20(%rbp)
   1eb1d:	48 8d 05 1c 75 00 00 	lea    0x751c(%rip),%rax        # 26040 <g_102>
   1eb24:	48 89 45 e8          	mov    %rax,-0x18(%rbp)
   1eb28:	48 8d 05 21 75 00 00 	lea    0x7521(%rip),%rax        # 26050 <g_103>
   1eb2f:	48 89 45 f0          	mov    %rax,-0x10(%rbp)
   1eb33:	48 8d 85 20 ff ff ff 	lea    -0xe0(%rbp),%rax
   1eb3a:	48 83 c0 68          	add    $0x68,%rax
   1eb3e:	48 89 85 18 ff ff ff 	mov    %rax,-0xe8(%rbp)
   1eb45:	48 8b 55 88          	mov    -0x78(%rbp),%rdx
   1eb49:	48 8b 85 18 ff ff ff 	mov    -0xe8(%rbp),%rax
   1eb50:	48 89 10             	mov    %rdx,(%rax)
   1eb53:	48 8d 05 ce 74 00 00 	lea    0x74ce(%rip),%rax        # 26028 <g_34>
   1eb5a:	48 8b 4d f8          	mov    -0x8(%rbp),%rcx
   1eb5e:	64 48 33 0c 25 28 00 	xor    %fs:0x28,%rcx
   1eb65:	00 00 
   1eb67:	74 05                	je     1eb6e <func_96+0x1b4>
   1eb69:	e8 02 15 ff ff       	callq  10070 <__stack_chk_fail@plt>
   1eb6e:	c9                   	leaveq 
   1eb6f:	c3                   	retq   

000000000001eb70 <main>:
   1eb70:	f3 0f 1e fa          	endbr64 
   1eb74:	55                   	push   %rbp
   1eb75:	48 89 e5             	mov    %rsp,%rbp
   1eb78:	48 83 ec 20          	sub    $0x20,%rsp
   1eb7c:	89 7d ec             	mov    %edi,-0x14(%rbp)
   1eb7f:	48 89 75 e0          	mov    %rsi,-0x20(%rbp)
   1eb83:	c7 45 fc 00 00 00 00 	movl   $0x0,-0x4(%rbp)
   1eb8a:	83 7d ec 02          	cmpl   $0x2,-0x14(%rbp)
   1eb8e:	75 25                	jne    1ebb5 <main+0x45>
   1eb90:	48 8b 45 e0          	mov    -0x20(%rbp),%rax
   1eb94:	48 83 c0 08          	add    $0x8,%rax
   1eb98:	48 8b 00             	mov    (%rax),%rax
   1eb9b:	48 8d 35 be 33 00 00 	lea    0x33be(%rip),%rsi        # 21f60 <g_2211+0xed0>
   1eba2:	48 89 c7             	mov    %rax,%rdi
   1eba5:	e8 e6 14 ff ff       	callq  10090 <strcmp@plt>
   1ebaa:	85 c0                	test   %eax,%eax
   1ebac:	75 07                	jne    1ebb5 <main+0x45>
   1ebae:	c7 45 fc 01 00 00 00 	movl   $0x1,-0x4(%rbp)
   1ebb5:	e8 cf 15 ff ff       	callq  10189 <platform_main_begin>
   1ebba:	e8 d9 29 ff ff       	callq  11598 <crc32_gentab>
   1ebbf:	e8 f1 2b ff ff       	callq  117b5 <func_1>
   1ebc4:	0f b6 05 59 74 00 00 	movzbl 0x7459(%rip),%eax        # 26024 <g_5>
   1ebcb:	48 0f be c0          	movsbq %al,%rax
   1ebcf:	8b 55 fc             	mov    -0x4(%rbp),%edx
   1ebd2:	48 8d 35 89 33 00 00 	lea    0x3389(%rip),%rsi        # 21f62 <g_2211+0xed2>
   1ebd9:	48 89 c7             	mov    %rax,%rdi
   1ebdc:	e8 12 2b ff ff       	callq  116f3 <transparent_crc>
   1ebe1:	8b 05 41 74 00 00    	mov    0x7441(%rip),%eax        # 26028 <g_34>
   1ebe7:	48 98                	cltq   
   1ebe9:	8b 55 fc             	mov    -0x4(%rbp),%edx
   1ebec:	48 8d 35 73 33 00 00 	lea    0x3373(%rip),%rsi        # 21f66 <g_2211+0xed6>
   1ebf3:	48 89 c7             	mov    %rax,%rdi
   1ebf6:	e8 f8 2a ff ff       	callq  116f3 <transparent_crc>
   1ebfb:	0f b6 05 2a 74 00 00 	movzbl 0x742a(%rip),%eax        # 2602c <g_83>
   1ec02:	48 0f be c0          	movsbq %al,%rax
   1ec06:	8b 55 fc             	mov    -0x4(%rbp),%edx
   1ec09:	48 8d 35 5b 33 00 00 	lea    0x335b(%rip),%rsi        # 21f6b <g_2211+0xedb>
   1ec10:	48 89 c7             	mov    %rax,%rdi
   1ec13:	e8 db 2a ff ff       	callq  116f3 <transparent_crc>
   1ec18:	0f b6 05 11 74 00 00 	movzbl 0x7411(%rip),%eax        # 26030 <g_101>
   1ec1f:	48 0f be c0          	movsbq %al,%rax
   1ec23:	8b 55 fc             	mov    -0x4(%rbp),%edx
   1ec26:	48 8d 35 43 33 00 00 	lea    0x3343(%rip),%rsi        # 21f70 <g_2211+0xee0>
   1ec2d:	48 89 c7             	mov    %rax,%rdi
   1ec30:	e8 be 2a ff ff       	callq  116f3 <transparent_crc>
   1ec35:	c7 45 f0 00 00 00 00 	movl   $0x0,-0x10(%rbp)
   1ec3c:	eb 4e                	jmp    1ec8c <main+0x11c>
   1ec3e:	8b 45 f0             	mov    -0x10(%rbp),%eax
   1ec41:	48 98                	cltq   
   1ec43:	48 8d 14 c5 00 00 00 	lea    0x0(,%rax,8),%rdx
   1ec4a:	00 
   1ec4b:	48 8d 05 ee 73 00 00 	lea    0x73ee(%rip),%rax        # 26040 <g_102>
   1ec52:	0f b6 04 02          	movzbl (%rdx,%rax,1),%eax
   1ec56:	48 0f be c0          	movsbq %al,%rax
   1ec5a:	8b 55 fc             	mov    -0x4(%rbp),%edx
   1ec5d:	48 8d 35 15 33 00 00 	lea    0x3315(%rip),%rsi        # 21f79 <g_2211+0xee9>
   1ec64:	48 89 c7             	mov    %rax,%rdi
   1ec67:	e8 87 2a ff ff       	callq  116f3 <transparent_crc>
   1ec6c:	83 7d fc 00          	cmpl   $0x0,-0x4(%rbp)
   1ec70:	74 16                	je     1ec88 <main+0x118>
   1ec72:	8b 45 f0             	mov    -0x10(%rbp),%eax
   1ec75:	89 c6                	mov    %eax,%esi
   1ec77:	48 8d 3d 07 33 00 00 	lea    0x3307(%rip),%rdi        # 21f85 <g_2211+0xef5>
   1ec7e:	b8 00 00 00 00       	mov    $0x0,%eax
   1ec83:	e8 f8 13 ff ff       	callq  10080 <printf@plt>
   1ec88:	83 45 f0 01          	addl   $0x1,-0x10(%rbp)
   1ec8c:	83 7d f0 01          	cmpl   $0x1,-0x10(%rbp)
   1ec90:	7e ac                	jle    1ec3e <main+0xce>
   1ec92:	0f b6 05 b7 73 00 00 	movzbl 0x73b7(%rip),%eax        # 26050 <g_103>
   1ec99:	48 0f be c0          	movsbq %al,%rax
   1ec9d:	8b 55 fc             	mov    -0x4(%rbp),%edx
   1eca0:	48 8d 35 ec 32 00 00 	lea    0x32ec(%rip),%rsi        # 21f93 <g_2211+0xf03>
   1eca7:	48 89 c7             	mov    %rax,%rdi
   1ecaa:	e8 44 2a ff ff       	callq  116f3 <transparent_crc>
   1ecaf:	8b 05 a3 73 00 00    	mov    0x73a3(%rip),%eax        # 26058 <g_107>
   1ecb5:	48 98                	cltq   
   1ecb7:	8b 55 fc             	mov    -0x4(%rbp),%edx
   1ecba:	48 8d 35 db 32 00 00 	lea    0x32db(%rip),%rsi        # 21f9c <g_2211+0xf0c>
   1ecc1:	48 89 c7             	mov    %rax,%rdi
   1ecc4:	e8 2a 2a ff ff       	callq  116f3 <transparent_crc>
   1ecc9:	8b 05 8d 73 00 00    	mov    0x738d(%rip),%eax        # 2605c <g_120>
   1eccf:	48 98                	cltq   
   1ecd1:	8b 55 fc             	mov    -0x4(%rbp),%edx
   1ecd4:	48 8d 35 c7 32 00 00 	lea    0x32c7(%rip),%rsi        # 21fa2 <g_2211+0xf12>
   1ecdb:	48 89 c7             	mov    %rax,%rdi
   1ecde:	e8 10 2a ff ff       	callq  116f3 <transparent_crc>
   1ece3:	8b 05 77 73 00 00    	mov    0x7377(%rip),%eax        # 26060 <g_121>
   1ece9:	89 c1                	mov    %eax,%ecx
   1eceb:	8b 45 fc             	mov    -0x4(%rbp),%eax
   1ecee:	89 c2                	mov    %eax,%edx
   1ecf0:	48 8d 35 b1 32 00 00 	lea    0x32b1(%rip),%rsi        # 21fa8 <g_2211+0xf18>
   1ecf7:	48 89 cf             	mov    %rcx,%rdi
   1ecfa:	e8 f4 29 ff ff       	callq  116f3 <transparent_crc>
   1ecff:	48 8b 05 62 73 00 00 	mov    0x7362(%rip),%rax        # 26068 <g_125>
   1ed06:	8b 55 fc             	mov    -0x4(%rbp),%edx
   1ed09:	48 8d 35 9e 32 00 00 	lea    0x329e(%rip),%rsi        # 21fae <g_2211+0xf1e>
   1ed10:	48 89 c7             	mov    %rax,%rdi
   1ed13:	e8 db 29 ff ff       	callq  116f3 <transparent_crc>
   1ed18:	48 8b 05 51 73 00 00 	mov    0x7351(%rip),%rax        # 26070 <g_133>
   1ed1f:	8b 55 fc             	mov    -0x4(%rbp),%edx
   1ed22:	48 8d 35 8b 32 00 00 	lea    0x328b(%rip),%rsi        # 21fb4 <g_2211+0xf24>
   1ed29:	48 89 c7             	mov    %rax,%rdi
   1ed2c:	e8 c2 29 ff ff       	callq  116f3 <transparent_crc>
   1ed31:	0f b6 05 40 73 00 00 	movzbl 0x7340(%rip),%eax        # 26078 <g_136>
   1ed38:	48 0f be c0          	movsbq %al,%rax
   1ed3c:	8b 55 fc             	mov    -0x4(%rbp),%edx
   1ed3f:	48 8d 35 74 32 00 00 	lea    0x3274(%rip),%rsi        # 21fba <g_2211+0xf2a>
   1ed46:	48 89 c7             	mov    %rax,%rdi
   1ed49:	e8 a5 29 ff ff       	callq  116f3 <transparent_crc>
   1ed4e:	0f b6 05 2b 73 00 00 	movzbl 0x732b(%rip),%eax        # 26080 <g_138>
   1ed55:	48 0f be c0          	movsbq %al,%rax
   1ed59:	8b 55 fc             	mov    -0x4(%rbp),%edx
   1ed5c:	48 8d 35 60 32 00 00 	lea    0x3260(%rip),%rsi        # 21fc3 <g_2211+0xf33>
   1ed63:	48 89 c7             	mov    %rax,%rdi
   1ed66:	e8 88 29 ff ff       	callq  116f3 <transparent_crc>
   1ed6b:	48 8b 05 16 73 00 00 	mov    0x7316(%rip),%rax        # 26088 <g_149>
   1ed72:	8b 55 fc             	mov    -0x4(%rbp),%edx
   1ed75:	48 8d 35 50 32 00 00 	lea    0x3250(%rip),%rsi        # 21fcc <g_2211+0xf3c>
   1ed7c:	48 89 c7             	mov    %rax,%rdi
   1ed7f:	e8 6f 29 ff ff       	callq  116f3 <transparent_crc>
   1ed84:	0f b6 05 05 73 00 00 	movzbl 0x7305(%rip),%eax        # 26090 <g_163>
   1ed8b:	48 0f be c0          	movsbq %al,%rax
   1ed8f:	8b 55 fc             	mov    -0x4(%rbp),%edx
   1ed92:	48 8d 35 39 32 00 00 	lea    0x3239(%rip),%rsi        # 21fd2 <g_2211+0xf42>
   1ed99:	48 89 c7             	mov    %rax,%rdi
   1ed9c:	e8 52 29 ff ff       	callq  116f3 <transparent_crc>
   1eda1:	0f b7 05 f0 72 00 00 	movzwl 0x72f0(%rip),%eax        # 26098 <g_168>
   1eda8:	0f b7 c0             	movzwl %ax,%eax
   1edab:	8b 55 fc             	mov    -0x4(%rbp),%edx
   1edae:	48 8d 35 26 32 00 00 	lea    0x3226(%rip),%rsi        # 21fdb <g_2211+0xf4b>
   1edb5:	48 89 c7             	mov    %rax,%rdi
   1edb8:	e8 36 29 ff ff       	callq  116f3 <transparent_crc>
   1edbd:	0f b6 05 d6 72 00 00 	movzbl 0x72d6(%rip),%eax        # 2609a <g_176>
   1edc4:	0f b6 c0             	movzbl %al,%eax
   1edc7:	8b 55 fc             	mov    -0x4(%rbp),%edx
   1edca:	48 8d 35 10 32 00 00 	lea    0x3210(%rip),%rsi        # 21fe1 <g_2211+0xf51>
   1edd1:	48 89 c7             	mov    %rax,%rdi
   1edd4:	e8 1a 29 ff ff       	callq  116f3 <transparent_crc>
   1edd9:	c7 45 f0 00 00 00 00 	movl   $0x0,-0x10(%rbp)
   1ede0:	e9 bb 00 00 00       	jmpq   1eea0 <main+0x330>
   1ede5:	c7 45 f4 00 00 00 00 	movl   $0x0,-0xc(%rbp)
   1edec:	e9 a1 00 00 00       	jmpq   1ee92 <main+0x322>
   1edf1:	c7 45 f8 00 00 00 00 	movl   $0x0,-0x8(%rbp)
   1edf8:	e9 87 00 00 00       	jmpq   1ee84 <main+0x314>
   1edfd:	8b 45 f8             	mov    -0x8(%rbp),%eax
   1ee00:	48 63 f0             	movslq %eax,%rsi
   1ee03:	8b 45 f0             	mov    -0x10(%rbp),%eax
   1ee06:	48 63 d0             	movslq %eax,%rdx
   1ee09:	8b 45 f4             	mov    -0xc(%rbp),%eax
   1ee0c:	48 63 c8             	movslq %eax,%rcx
   1ee0f:	48 89 d0             	mov    %rdx,%rax
   1ee12:	48 c1 e0 02          	shl    $0x2,%rax
   1ee16:	48 01 d0             	add    %rdx,%rax
   1ee19:	48 8d 14 85 00 00 00 	lea    0x0(,%rax,4),%rdx
   1ee20:	00 
   1ee21:	48 01 d0             	add    %rdx,%rax
   1ee24:	48 89 ca             	mov    %rcx,%rdx
   1ee27:	48 c1 e2 02          	shl    $0x2,%rdx
   1ee2b:	48 01 ca             	add    %rcx,%rdx
   1ee2e:	48 01 d0             	add    %rdx,%rax
   1ee31:	48 01 f0             	add    %rsi,%rax
   1ee34:	48 8d 14 c5 00 00 00 	lea    0x0(,%rax,8),%rdx
   1ee3b:	00 
   1ee3c:	48 8d 05 5d 72 00 00 	lea    0x725d(%rip),%rax        # 260a0 <g_207>
   1ee43:	48 8b 04 02          	mov    (%rdx,%rax,1),%rax
   1ee47:	48 89 c1             	mov    %rax,%rcx
   1ee4a:	8b 45 fc             	mov    -0x4(%rbp),%eax
   1ee4d:	89 c2                	mov    %eax,%edx
   1ee4f:	48 8d 35 91 31 00 00 	lea    0x3191(%rip),%rsi        # 21fe7 <g_2211+0xf57>
   1ee56:	48 89 cf             	mov    %rcx,%rdi
   1ee59:	e8 95 28 ff ff       	callq  116f3 <transparent_crc>
   1ee5e:	83 7d fc 00          	cmpl   $0x0,-0x4(%rbp)
   1ee62:	74 1c                	je     1ee80 <main+0x310>
   1ee64:	8b 4d f8             	mov    -0x8(%rbp),%ecx
   1ee67:	8b 55 f4             	mov    -0xc(%rbp),%edx
   1ee6a:	8b 45 f0             	mov    -0x10(%rbp),%eax
   1ee6d:	89 c6                	mov    %eax,%esi
   1ee6f:	48 8d 3d 80 31 00 00 	lea    0x3180(%rip),%rdi        # 21ff6 <g_2211+0xf66>
   1ee76:	b8 00 00 00 00       	mov    $0x0,%eax
   1ee7b:	e8 00 12 ff ff       	callq  10080 <printf@plt>
   1ee80:	83 45 f8 01          	addl   $0x1,-0x8(%rbp)
   1ee84:	83 7d f8 04          	cmpl   $0x4,-0x8(%rbp)
   1ee88:	0f 8e 6f ff ff ff    	jle    1edfd <main+0x28d>
   1ee8e:	83 45 f4 01          	addl   $0x1,-0xc(%rbp)
   1ee92:	83 7d f4 04          	cmpl   $0x4,-0xc(%rbp)
   1ee96:	0f 8e 55 ff ff ff    	jle    1edf1 <main+0x281>
   1ee9c:	83 45 f0 01          	addl   $0x1,-0x10(%rbp)
   1eea0:	83 7d f0 09          	cmpl   $0x9,-0x10(%rbp)
   1eea4:	0f 8e 3b ff ff ff    	jle    1ede5 <main+0x275>
   1eeaa:	8b 05 c0 79 00 00    	mov    0x79c0(%rip),%eax        # 26870 <g_216>
   1eeb0:	89 c1                	mov    %eax,%ecx
   1eeb2:	8b 45 fc             	mov    -0x4(%rbp),%eax
   1eeb5:	89 c2                	mov    %eax,%edx
   1eeb7:	48 8d 35 4e 31 00 00 	lea    0x314e(%rip),%rsi        # 2200c <g_2211+0xf7c>
   1eebe:	48 89 cf             	mov    %rcx,%rdi
   1eec1:	e8 2d 28 ff ff       	callq  116f3 <transparent_crc>
   1eec6:	c7 45 f0 00 00 00 00 	movl   $0x0,-0x10(%rbp)
   1eecd:	e9 9f 00 00 00       	jmpq   1ef71 <main+0x401>
   1eed2:	c7 45 f4 00 00 00 00 	movl   $0x0,-0xc(%rbp)
   1eed9:	e9 85 00 00 00       	jmpq   1ef63 <main+0x3f3>
   1eede:	c7 45 f8 00 00 00 00 	movl   $0x0,-0x8(%rbp)
   1eee5:	eb 72                	jmp    1ef59 <main+0x3e9>
   1eee7:	8b 45 f8             	mov    -0x8(%rbp),%eax
   1eeea:	48 63 c8             	movslq %eax,%rcx
   1eeed:	8b 45 f0             	mov    -0x10(%rbp),%eax
   1eef0:	48 63 d0             	movslq %eax,%rdx
   1eef3:	8b 45 f4             	mov    -0xc(%rbp),%eax
   1eef6:	48 63 f0             	movslq %eax,%rsi
   1eef9:	48 89 d0             	mov    %rdx,%rax
   1eefc:	48 c1 e0 03          	shl    $0x3,%rax
   1ef00:	48 01 d0             	add    %rdx,%rax
   1ef03:	48 01 f0             	add    %rsi,%rax
   1ef06:	48 c1 e0 02          	shl    $0x2,%rax
   1ef0a:	48 01 c8             	add    %rcx,%rax
   1ef0d:	48 8d 14 85 00 00 00 	lea    0x0(,%rax,4),%rdx
   1ef14:	00 
   1ef15:	48 8d 05 64 79 00 00 	lea    0x7964(%rip),%rax        # 26880 <g_231>
   1ef1c:	8b 04 02             	mov    (%rdx,%rax,1),%eax
   1ef1f:	48 98                	cltq   
   1ef21:	8b 55 fc             	mov    -0x4(%rbp),%edx
   1ef24:	48 8d 35 e7 30 00 00 	lea    0x30e7(%rip),%rsi        # 22012 <g_2211+0xf82>
   1ef2b:	48 89 c7             	mov    %rax,%rdi
   1ef2e:	e8 c0 27 ff ff       	callq  116f3 <transparent_crc>
   1ef33:	83 7d fc 00          	cmpl   $0x0,-0x4(%rbp)
   1ef37:	74 1c                	je     1ef55 <main+0x3e5>
   1ef39:	8b 4d f8             	mov    -0x8(%rbp),%ecx
   1ef3c:	8b 55 f4             	mov    -0xc(%rbp),%edx
   1ef3f:	8b 45 f0             	mov    -0x10(%rbp),%eax
   1ef42:	89 c6                	mov    %eax,%esi
   1ef44:	48 8d 3d ab 30 00 00 	lea    0x30ab(%rip),%rdi        # 21ff6 <g_2211+0xf66>
   1ef4b:	b8 00 00 00 00       	mov    $0x0,%eax
   1ef50:	e8 2b 11 ff ff       	callq  10080 <printf@plt>
   1ef55:	83 45 f8 01          	addl   $0x1,-0x8(%rbp)
   1ef59:	83 7d f8 03          	cmpl   $0x3,-0x8(%rbp)
   1ef5d:	7e 88                	jle    1eee7 <main+0x377>
   1ef5f:	83 45 f4 01          	addl   $0x1,-0xc(%rbp)
   1ef63:	83 7d f4 08          	cmpl   $0x8,-0xc(%rbp)
   1ef67:	0f 8e 71 ff ff ff    	jle    1eede <main+0x36e>
   1ef6d:	83 45 f0 01          	addl   $0x1,-0x10(%rbp)
   1ef71:	83 7d f0 05          	cmpl   $0x5,-0x10(%rbp)
   1ef75:	0f 8e 57 ff ff ff    	jle    1eed2 <main+0x362>
   1ef7b:	48 8b 05 5e 7c 00 00 	mov    0x7c5e(%rip),%rax        # 26be0 <g_238>
   1ef82:	8b 55 fc             	mov    -0x4(%rbp),%edx
   1ef85:	48 8d 35 95 30 00 00 	lea    0x3095(%rip),%rsi        # 22021 <g_2211+0xf91>
   1ef8c:	48 89 c7             	mov    %rax,%rdi
   1ef8f:	e8 5f 27 ff ff       	callq  116f3 <transparent_crc>
   1ef94:	0f b6 05 4d 7c 00 00 	movzbl 0x7c4d(%rip),%eax        # 26be8 <g_261>
   1ef9b:	48 0f be c0          	movsbq %al,%rax
   1ef9f:	8b 55 fc             	mov    -0x4(%rbp),%edx
   1efa2:	48 8d 35 7e 30 00 00 	lea    0x307e(%rip),%rsi        # 22027 <g_2211+0xf97>
   1efa9:	48 89 c7             	mov    %rax,%rdi
   1efac:	e8 42 27 ff ff       	callq  116f3 <transparent_crc>
   1efb1:	b8 37 00 00 00       	mov    $0x37,%eax
   1efb6:	48 0f be c0          	movsbq %al,%rax
   1efba:	8b 55 fc             	mov    -0x4(%rbp),%edx
   1efbd:	48 8d 35 6c 30 00 00 	lea    0x306c(%rip),%rsi        # 22030 <g_2211+0xfa0>
   1efc4:	48 89 c7             	mov    %rax,%rdi
   1efc7:	e8 27 27 ff ff       	callq  116f3 <transparent_crc>
   1efcc:	0f b6 05 fd 00 01 00 	movzbl 0x100fd(%rip),%eax        # 2f0d0 <g_305>
   1efd3:	48 0f be c0          	movsbq %al,%rax
   1efd7:	8b 55 fc             	mov    -0x4(%rbp),%edx
   1efda:	48 8d 35 58 30 00 00 	lea    0x3058(%rip),%rsi        # 22039 <g_2211+0xfa9>
   1efe1:	48 89 c7             	mov    %rax,%rdi
   1efe4:	e8 0a 27 ff ff       	callq  116f3 <transparent_crc>
   1efe9:	c7 45 f0 00 00 00 00 	movl   $0x0,-0x10(%rbp)
   1eff0:	eb 74                	jmp    1f066 <main+0x4f6>
   1eff2:	c7 45 f4 00 00 00 00 	movl   $0x0,-0xc(%rbp)
   1eff9:	eb 61                	jmp    1f05c <main+0x4ec>
   1effb:	8b 45 f4             	mov    -0xc(%rbp),%eax
   1effe:	48 63 c8             	movslq %eax,%rcx
   1f001:	8b 45 f0             	mov    -0x10(%rbp),%eax
   1f004:	48 63 d0             	movslq %eax,%rdx
   1f007:	48 89 d0             	mov    %rdx,%rax
   1f00a:	48 01 c0             	add    %rax,%rax
   1f00d:	48 01 d0             	add    %rdx,%rax
   1f010:	48 01 c8             	add    %rcx,%rax
   1f013:	48 8d 14 85 00 00 00 	lea    0x0(,%rax,4),%rdx
   1f01a:	00 
   1f01b:	48 8d 05 ce 7b 00 00 	lea    0x7bce(%rip),%rax        # 26bf0 <g_337>
   1f022:	8b 04 02             	mov    (%rdx,%rax,1),%eax
   1f025:	48 98                	cltq   
   1f027:	8b 55 fc             	mov    -0x4(%rbp),%edx
   1f02a:	48 8d 35 11 30 00 00 	lea    0x3011(%rip),%rsi        # 22042 <g_2211+0xfb2>
   1f031:	48 89 c7             	mov    %rax,%rdi
   1f034:	e8 ba 26 ff ff       	callq  116f3 <transparent_crc>
   1f039:	83 7d fc 00          	cmpl   $0x0,-0x4(%rbp)
   1f03d:	74 19                	je     1f058 <main+0x4e8>
   1f03f:	8b 55 f4             	mov    -0xc(%rbp),%edx
   1f042:	8b 45 f0             	mov    -0x10(%rbp),%eax
   1f045:	89 c6                	mov    %eax,%esi
   1f047:	48 8d 3d 00 30 00 00 	lea    0x3000(%rip),%rdi        # 2204e <g_2211+0xfbe>
   1f04e:	b8 00 00 00 00       	mov    $0x0,%eax
   1f053:	e8 28 10 ff ff       	callq  10080 <printf@plt>
   1f058:	83 45 f4 01          	addl   $0x1,-0xc(%rbp)
   1f05c:	83 7d f4 02          	cmpl   $0x2,-0xc(%rbp)
   1f060:	7e 99                	jle    1effb <main+0x48b>
   1f062:	83 45 f0 01          	addl   $0x1,-0x10(%rbp)
   1f066:	83 7d f0 01          	cmpl   $0x1,-0x10(%rbp)
   1f06a:	7e 86                	jle    1eff2 <main+0x482>
   1f06c:	48 8b 05 95 7b 00 00 	mov    0x7b95(%rip),%rax        # 26c08 <g_384>
   1f073:	48 89 c1             	mov    %rax,%rcx
   1f076:	8b 45 fc             	mov    -0x4(%rbp),%eax
   1f079:	89 c2                	mov    %eax,%edx
   1f07b:	48 8d 35 de 2f 00 00 	lea    0x2fde(%rip),%rsi        # 22060 <g_2211+0xfd0>
   1f082:	48 89 cf             	mov    %rcx,%rdi
   1f085:	e8 69 26 ff ff       	callq  116f3 <transparent_crc>
   1f08a:	c7 45 f0 00 00 00 00 	movl   $0x0,-0x10(%rbp)
   1f091:	eb 4e                	jmp    1f0e1 <main+0x571>
   1f093:	8b 45 f0             	mov    -0x10(%rbp),%eax
   1f096:	48 98                	cltq   
   1f098:	48 8d 14 85 00 00 00 	lea    0x0(,%rax,4),%rdx
   1f09f:	00 
   1f0a0:	48 8d 05 79 7b 00 00 	lea    0x7b79(%rip),%rax        # 26c20 <g_429>
   1f0a7:	0f b6 04 02          	movzbl (%rdx,%rax,1),%eax
   1f0ab:	48 0f be c0          	movsbq %al,%rax
   1f0af:	8b 55 fc             	mov    -0x4(%rbp),%edx
   1f0b2:	48 8d 35 ad 2f 00 00 	lea    0x2fad(%rip),%rsi        # 22066 <g_2211+0xfd6>
   1f0b9:	48 89 c7             	mov    %rax,%rdi
   1f0bc:	e8 32 26 ff ff       	callq  116f3 <transparent_crc>
   1f0c1:	83 7d fc 00          	cmpl   $0x0,-0x4(%rbp)
   1f0c5:	74 16                	je     1f0dd <main+0x56d>
   1f0c7:	8b 45 f0             	mov    -0x10(%rbp),%eax
   1f0ca:	89 c6                	mov    %eax,%esi
   1f0cc:	48 8d 3d b2 2e 00 00 	lea    0x2eb2(%rip),%rdi        # 21f85 <g_2211+0xef5>
   1f0d3:	b8 00 00 00 00       	mov    $0x0,%eax
   1f0d8:	e8 a3 0f ff ff       	callq  10080 <printf@plt>
   1f0dd:	83 45 f0 01          	addl   $0x1,-0x10(%rbp)
   1f0e1:	83 7d f0 07          	cmpl   $0x7,-0x10(%rbp)
   1f0e5:	7e ac                	jle    1f093 <main+0x523>
   1f0e7:	0f b6 05 ea ff 00 00 	movzbl 0xffea(%rip),%eax        # 2f0d8 <g_445>
   1f0ee:	48 0f be c0          	movsbq %al,%rax
   1f0f2:	8b 55 fc             	mov    -0x4(%rbp),%edx
   1f0f5:	48 8d 35 76 2f 00 00 	lea    0x2f76(%rip),%rsi        # 22072 <g_2211+0xfe2>
   1f0fc:	48 89 c7             	mov    %rax,%rdi
   1f0ff:	e8 ef 25 ff ff       	callq  116f3 <transparent_crc>
   1f104:	0f b6 05 35 7b 00 00 	movzbl 0x7b35(%rip),%eax        # 26c40 <g_478>
   1f10b:	48 0f be c0          	movsbq %al,%rax
   1f10f:	8b 55 fc             	mov    -0x4(%rbp),%edx
   1f112:	48 8d 35 62 2f 00 00 	lea    0x2f62(%rip),%rsi        # 2207b <g_2211+0xfeb>
   1f119:	48 89 c7             	mov    %rax,%rdi
   1f11c:	e8 d2 25 ff ff       	callq  116f3 <transparent_crc>
   1f121:	0f b7 05 20 7b 00 00 	movzwl 0x7b20(%rip),%eax        # 26c48 <g_556>
   1f128:	48 0f bf c0          	movswq %ax,%rax
   1f12c:	8b 55 fc             	mov    -0x4(%rbp),%edx
   1f12f:	48 8d 35 4e 2f 00 00 	lea    0x2f4e(%rip),%rsi        # 22084 <g_2211+0xff4>
   1f136:	48 89 c7             	mov    %rax,%rdi
   1f139:	e8 b5 25 ff ff       	callq  116f3 <transparent_crc>
   1f13e:	c7 45 f0 00 00 00 00 	movl   $0x0,-0x10(%rbp)
   1f145:	eb 4e                	jmp    1f195 <main+0x625>
   1f147:	8b 45 f0             	mov    -0x10(%rbp),%eax
   1f14a:	48 98                	cltq   
   1f14c:	48 8d 14 85 00 00 00 	lea    0x0(,%rax,4),%rdx
   1f153:	00 
   1f154:	48 8d 05 f5 7a 00 00 	lea    0x7af5(%rip),%rax        # 26c50 <g_602>
   1f15b:	0f b6 04 02          	movzbl (%rdx,%rax,1),%eax
   1f15f:	48 0f be c0          	movsbq %al,%rax
   1f163:	8b 55 fc             	mov    -0x4(%rbp),%edx
   1f166:	48 8d 35 1d 2f 00 00 	lea    0x2f1d(%rip),%rsi        # 2208a <g_2211+0xffa>
   1f16d:	48 89 c7             	mov    %rax,%rdi
   1f170:	e8 7e 25 ff ff       	callq  116f3 <transparent_crc>
   1f175:	83 7d fc 00          	cmpl   $0x0,-0x4(%rbp)
   1f179:	74 16                	je     1f191 <main+0x621>
   1f17b:	8b 45 f0             	mov    -0x10(%rbp),%eax
   1f17e:	89 c6                	mov    %eax,%esi
   1f180:	48 8d 3d fe 2d 00 00 	lea    0x2dfe(%rip),%rdi        # 21f85 <g_2211+0xef5>
   1f187:	b8 00 00 00 00       	mov    $0x0,%eax
   1f18c:	e8 ef 0e ff ff       	callq  10080 <printf@plt>
   1f191:	83 45 f0 01          	addl   $0x1,-0x10(%rbp)
   1f195:	83 7d f0 03          	cmpl   $0x3,-0x10(%rbp)
   1f199:	7e ac                	jle    1f147 <main+0x5d7>
   1f19b:	c7 45 f0 00 00 00 00 	movl   $0x0,-0x10(%rbp)
   1f1a2:	eb 7a                	jmp    1f21e <main+0x6ae>
   1f1a4:	c7 45 f4 00 00 00 00 	movl   $0x0,-0xc(%rbp)
   1f1ab:	eb 67                	jmp    1f214 <main+0x6a4>
   1f1ad:	8b 45 f4             	mov    -0xc(%rbp),%eax
   1f1b0:	48 63 c8             	movslq %eax,%rcx
   1f1b3:	8b 45 f0             	mov    -0x10(%rbp),%eax
   1f1b6:	48 63 d0             	movslq %eax,%rdx
   1f1b9:	48 89 d0             	mov    %rdx,%rax
   1f1bc:	48 01 c0             	add    %rax,%rax
   1f1bf:	48 01 d0             	add    %rdx,%rax
   1f1c2:	48 01 c0             	add    %rax,%rax
   1f1c5:	48 01 c8             	add    %rcx,%rax
   1f1c8:	48 8d 14 85 00 00 00 	lea    0x0(,%rax,4),%rdx
   1f1cf:	00 
   1f1d0:	48 8d 05 89 7a 00 00 	lea    0x7a89(%rip),%rax        # 26c60 <g_613>
   1f1d7:	0f b6 04 02          	movzbl (%rdx,%rax,1),%eax
   1f1db:	48 0f be c0          	movsbq %al,%rax
   1f1df:	8b 55 fc             	mov    -0x4(%rbp),%edx
   1f1e2:	48 8d 35 ad 2e 00 00 	lea    0x2ead(%rip),%rsi        # 22096 <g_2211+0x1006>
   1f1e9:	48 89 c7             	mov    %rax,%rdi
   1f1ec:	e8 02 25 ff ff       	callq  116f3 <transparent_crc>
   1f1f1:	83 7d fc 00          	cmpl   $0x0,-0x4(%rbp)
   1f1f5:	74 19                	je     1f210 <main+0x6a0>
   1f1f7:	8b 55 f4             	mov    -0xc(%rbp),%edx
   1f1fa:	8b 45 f0             	mov    -0x10(%rbp),%eax
   1f1fd:	89 c6                	mov    %eax,%esi
   1f1ff:	48 8d 3d 48 2e 00 00 	lea    0x2e48(%rip),%rdi        # 2204e <g_2211+0xfbe>
   1f206:	b8 00 00 00 00       	mov    $0x0,%eax
   1f20b:	e8 70 0e ff ff       	callq  10080 <printf@plt>
   1f210:	83 45 f4 01          	addl   $0x1,-0xc(%rbp)
   1f214:	83 7d f4 05          	cmpl   $0x5,-0xc(%rbp)
   1f218:	7e 93                	jle    1f1ad <main+0x63d>
   1f21a:	83 45 f0 01          	addl   $0x1,-0x10(%rbp)
   1f21e:	83 7d f0 03          	cmpl   $0x3,-0x10(%rbp)
   1f222:	7e 80                	jle    1f1a4 <main+0x634>
   1f224:	b8 65 00 00 00       	mov    $0x65,%eax
   1f229:	48 0f be c0          	movsbq %al,%rax
   1f22d:	8b 55 fc             	mov    -0x4(%rbp),%edx
   1f230:	48 8d 35 6e 2e 00 00 	lea    0x2e6e(%rip),%rsi        # 220a5 <g_2211+0x1015>
   1f237:	48 89 c7             	mov    %rax,%rdi
   1f23a:	e8 b4 24 ff ff       	callq  116f3 <transparent_crc>
   1f23f:	b8 ff ff ff ff       	mov    $0xffffffff,%eax
   1f244:	48 0f be c0          	movsbq %al,%rax
   1f248:	8b 55 fc             	mov    -0x4(%rbp),%edx
   1f24b:	48 8d 35 5c 2e 00 00 	lea    0x2e5c(%rip),%rsi        # 220ae <g_2211+0x101e>
   1f252:	48 89 c7             	mov    %rax,%rdi
   1f255:	e8 99 24 ff ff       	callq  116f3 <transparent_crc>
   1f25a:	0f b6 05 5f 7a 00 00 	movzbl 0x7a5f(%rip),%eax        # 26cc0 <g_617>
   1f261:	48 0f be c0          	movsbq %al,%rax
   1f265:	8b 55 fc             	mov    -0x4(%rbp),%edx
   1f268:	48 8d 35 48 2e 00 00 	lea    0x2e48(%rip),%rsi        # 220b7 <g_2211+0x1027>
   1f26f:	48 89 c7             	mov    %rax,%rdi
   1f272:	e8 7c 24 ff ff       	callq  116f3 <transparent_crc>
   1f277:	b8 62 00 00 00       	mov    $0x62,%eax
   1f27c:	48 0f be c0          	movsbq %al,%rax
   1f280:	8b 55 fc             	mov    -0x4(%rbp),%edx
   1f283:	48 8d 35 36 2e 00 00 	lea    0x2e36(%rip),%rsi        # 220c0 <g_2211+0x1030>
   1f28a:	48 89 c7             	mov    %rax,%rdi
   1f28d:	e8 61 24 ff ff       	callq  116f3 <transparent_crc>
   1f292:	b8 ff ff ff ff       	mov    $0xffffffff,%eax
   1f297:	48 0f be c0          	movsbq %al,%rax
   1f29b:	8b 55 fc             	mov    -0x4(%rbp),%edx
   1f29e:	48 8d 35 24 2e 00 00 	lea    0x2e24(%rip),%rsi        # 220c9 <g_2211+0x1039>
   1f2a5:	48 89 c7             	mov    %rax,%rdi
   1f2a8:	e8 46 24 ff ff       	callq  116f3 <transparent_crc>
   1f2ad:	b8 30 00 00 00       	mov    $0x30,%eax
   1f2b2:	48 0f be c0          	movsbq %al,%rax
   1f2b6:	8b 55 fc             	mov    -0x4(%rbp),%edx
   1f2b9:	48 8d 35 12 2e 00 00 	lea    0x2e12(%rip),%rsi        # 220d2 <g_2211+0x1042>
   1f2c0:	48 89 c7             	mov    %rax,%rdi
   1f2c3:	e8 2b 24 ff ff       	callq  116f3 <transparent_crc>
   1f2c8:	b8 00 00 00 00       	mov    $0x0,%eax
   1f2cd:	48 0f be c0          	movsbq %al,%rax
   1f2d1:	8b 55 fc             	mov    -0x4(%rbp),%edx
   1f2d4:	48 8d 35 00 2e 00 00 	lea    0x2e00(%rip),%rsi        # 220db <g_2211+0x104b>
   1f2db:	48 89 c7             	mov    %rax,%rdi
   1f2de:	e8 10 24 ff ff       	callq  116f3 <transparent_crc>
   1f2e3:	b8 01 00 00 00       	mov    $0x1,%eax
   1f2e8:	48 0f be c0          	movsbq %al,%rax
   1f2ec:	8b 55 fc             	mov    -0x4(%rbp),%edx
   1f2ef:	48 8d 35 ee 2d 00 00 	lea    0x2dee(%rip),%rsi        # 220e4 <g_2211+0x1054>
   1f2f6:	48 89 c7             	mov    %rax,%rdi
   1f2f9:	e8 f5 23 ff ff       	callq  116f3 <transparent_crc>
   1f2fe:	0f b6 05 bf 79 00 00 	movzbl 0x79bf(%rip),%eax        # 26cc4 <g_623>
   1f305:	48 0f be c0          	movsbq %al,%rax
   1f309:	8b 55 fc             	mov    -0x4(%rbp),%edx
   1f30c:	48 8d 35 da 2d 00 00 	lea    0x2dda(%rip),%rsi        # 220ed <g_2211+0x105d>
   1f313:	48 89 c7             	mov    %rax,%rdi
   1f316:	e8 d8 23 ff ff       	callq  116f3 <transparent_crc>
   1f31b:	0f b6 05 a6 79 00 00 	movzbl 0x79a6(%rip),%eax        # 26cc8 <g_624>
   1f322:	48 0f be c0          	movsbq %al,%rax
   1f326:	8b 55 fc             	mov    -0x4(%rbp),%edx
   1f329:	48 8d 35 c6 2d 00 00 	lea    0x2dc6(%rip),%rsi        # 220f6 <g_2211+0x1066>
   1f330:	48 89 c7             	mov    %rax,%rdi
   1f333:	e8 bb 23 ff ff       	callq  116f3 <transparent_crc>
   1f338:	b8 19 00 00 00       	mov    $0x19,%eax
   1f33d:	48 0f be c0          	movsbq %al,%rax
   1f341:	8b 55 fc             	mov    -0x4(%rbp),%edx
   1f344:	48 8d 35 b4 2d 00 00 	lea    0x2db4(%rip),%rsi        # 220ff <g_2211+0x106f>
   1f34b:	48 89 c7             	mov    %rax,%rdi
   1f34e:	e8 a0 23 ff ff       	callq  116f3 <transparent_crc>
   1f353:	0f b7 05 72 79 00 00 	movzwl 0x7972(%rip),%eax        # 26ccc <g_692>
   1f35a:	48 0f bf c0          	movswq %ax,%rax
   1f35e:	8b 55 fc             	mov    -0x4(%rbp),%edx
   1f361:	48 8d 35 a0 2d 00 00 	lea    0x2da0(%rip),%rsi        # 22108 <g_2211+0x1078>
   1f368:	48 89 c7             	mov    %rax,%rdi
   1f36b:	e8 83 23 ff ff       	callq  116f3 <transparent_crc>
   1f370:	0f b7 05 57 79 00 00 	movzwl 0x7957(%rip),%eax        # 26cce <g_786>
   1f377:	48 0f bf c0          	movswq %ax,%rax
   1f37b:	8b 55 fc             	mov    -0x4(%rbp),%edx
   1f37e:	48 8d 35 89 2d 00 00 	lea    0x2d89(%rip),%rsi        # 2210e <g_2211+0x107e>
   1f385:	48 89 c7             	mov    %rax,%rdi
   1f388:	e8 66 23 ff ff       	callq  116f3 <transparent_crc>
   1f38d:	8b 05 3d 79 00 00    	mov    0x793d(%rip),%eax        # 26cd0 <g_858>
   1f393:	89 c1                	mov    %eax,%ecx
   1f395:	8b 45 fc             	mov    -0x4(%rbp),%eax
   1f398:	89 c2                	mov    %eax,%edx
   1f39a:	48 8d 35 73 2d 00 00 	lea    0x2d73(%rip),%rsi        # 22114 <g_2211+0x1084>
   1f3a1:	48 89 cf             	mov    %rcx,%rdi
   1f3a4:	e8 4a 23 ff ff       	callq  116f3 <transparent_crc>
   1f3a9:	0f b6 05 24 79 00 00 	movzbl 0x7924(%rip),%eax        # 26cd4 <g_868>
   1f3b0:	48 0f be c0          	movsbq %al,%rax
   1f3b4:	8b 55 fc             	mov    -0x4(%rbp),%edx
   1f3b7:	48 8d 35 5c 2d 00 00 	lea    0x2d5c(%rip),%rsi        # 2211a <g_2211+0x108a>
   1f3be:	48 89 c7             	mov    %rax,%rdi
   1f3c1:	e8 2d 23 ff ff       	callq  116f3 <transparent_crc>
   1f3c6:	0f b6 05 0b 79 00 00 	movzbl 0x790b(%rip),%eax        # 26cd8 <g_869>
   1f3cd:	48 0f be c0          	movsbq %al,%rax
   1f3d1:	8b 55 fc             	mov    -0x4(%rbp),%edx
   1f3d4:	48 8d 35 48 2d 00 00 	lea    0x2d48(%rip),%rsi        # 22123 <g_2211+0x1093>
   1f3db:	48 89 c7             	mov    %rax,%rdi
   1f3de:	e8 10 23 ff ff       	callq  116f3 <transparent_crc>
   1f3e3:	0f b6 05 f2 78 00 00 	movzbl 0x78f2(%rip),%eax        # 26cdc <g_870>
   1f3ea:	48 0f be c0          	movsbq %al,%rax
   1f3ee:	8b 55 fc             	mov    -0x4(%rbp),%edx
   1f3f1:	48 8d 35 34 2d 00 00 	lea    0x2d34(%rip),%rsi        # 2212c <g_2211+0x109c>
   1f3f8:	48 89 c7             	mov    %rax,%rdi
   1f3fb:	e8 f3 22 ff ff       	callq  116f3 <transparent_crc>
   1f400:	0f b6 05 d9 78 00 00 	movzbl 0x78d9(%rip),%eax        # 26ce0 <g_871>
   1f407:	48 0f be c0          	movsbq %al,%rax
   1f40b:	8b 55 fc             	mov    -0x4(%rbp),%edx
   1f40e:	48 8d 35 20 2d 00 00 	lea    0x2d20(%rip),%rsi        # 22135 <g_2211+0x10a5>
   1f415:	48 89 c7             	mov    %rax,%rdi
   1f418:	e8 d6 22 ff ff       	callq  116f3 <transparent_crc>
   1f41d:	0f b6 05 c0 78 00 00 	movzbl 0x78c0(%rip),%eax        # 26ce4 <g_872>
   1f424:	48 0f be c0          	movsbq %al,%rax
   1f428:	8b 55 fc             	mov    -0x4(%rbp),%edx
   1f42b:	48 8d 35 0c 2d 00 00 	lea    0x2d0c(%rip),%rsi        # 2213e <g_2211+0x10ae>
   1f432:	48 89 c7             	mov    %rax,%rdi
   1f435:	e8 b9 22 ff ff       	callq  116f3 <transparent_crc>
   1f43a:	0f b6 05 a7 78 00 00 	movzbl 0x78a7(%rip),%eax        # 26ce8 <g_873>
   1f441:	48 0f be c0          	movsbq %al,%rax
   1f445:	8b 55 fc             	mov    -0x4(%rbp),%edx
   1f448:	48 8d 35 f8 2c 00 00 	lea    0x2cf8(%rip),%rsi        # 22147 <g_2211+0x10b7>
   1f44f:	48 89 c7             	mov    %rax,%rdi
   1f452:	e8 9c 22 ff ff       	callq  116f3 <transparent_crc>
   1f457:	0f b6 05 8e 78 00 00 	movzbl 0x788e(%rip),%eax        # 26cec <g_874>
   1f45e:	48 0f be c0          	movsbq %al,%rax
   1f462:	8b 55 fc             	mov    -0x4(%rbp),%edx
   1f465:	48 8d 35 e4 2c 00 00 	lea    0x2ce4(%rip),%rsi        # 22150 <g_2211+0x10c0>
   1f46c:	48 89 c7             	mov    %rax,%rdi
   1f46f:	e8 7f 22 ff ff       	callq  116f3 <transparent_crc>
   1f474:	0f b6 05 75 78 00 00 	movzbl 0x7875(%rip),%eax        # 26cf0 <g_875>
   1f47b:	48 0f be c0          	movsbq %al,%rax
   1f47f:	8b 55 fc             	mov    -0x4(%rbp),%edx
   1f482:	48 8d 35 d0 2c 00 00 	lea    0x2cd0(%rip),%rsi        # 22159 <g_2211+0x10c9>
   1f489:	48 89 c7             	mov    %rax,%rdi
   1f48c:	e8 62 22 ff ff       	callq  116f3 <transparent_crc>
   1f491:	c7 45 f0 00 00 00 00 	movl   $0x0,-0x10(%rbp)
   1f498:	e9 a1 00 00 00       	jmpq   1f53e <main+0x9ce>
   1f49d:	c7 45 f4 00 00 00 00 	movl   $0x0,-0xc(%rbp)
   1f4a4:	e9 87 00 00 00       	jmpq   1f530 <main+0x9c0>
   1f4a9:	c7 45 f8 00 00 00 00 	movl   $0x0,-0x8(%rbp)
   1f4b0:	eb 74                	jmp    1f526 <main+0x9b6>
   1f4b2:	8b 45 f8             	mov    -0x8(%rbp),%eax
   1f4b5:	48 63 c8             	movslq %eax,%rcx
   1f4b8:	8b 45 f0             	mov    -0x10(%rbp),%eax
   1f4bb:	48 63 d0             	movslq %eax,%rdx
   1f4be:	8b 45 f4             	mov    -0xc(%rbp),%eax
   1f4c1:	48 63 f0             	movslq %eax,%rsi
   1f4c4:	48 89 d0             	mov    %rdx,%rax
   1f4c7:	48 01 c0             	add    %rax,%rax
   1f4ca:	48 01 d0             	add    %rdx,%rax
   1f4cd:	48 01 f0             	add    %rsi,%rax
   1f4d0:	48 c1 e0 03          	shl    $0x3,%rax
   1f4d4:	48 01 c8             	add    %rcx,%rax
   1f4d7:	48 8d 14 85 00 00 00 	lea    0x0(,%rax,4),%rdx
   1f4de:	00 
   1f4df:	48 8d 05 1a 78 00 00 	lea    0x781a(%rip),%rax        # 26d00 <g_876>
   1f4e6:	0f b6 04 02          	movzbl (%rdx,%rax,1),%eax
   1f4ea:	48 0f be c0          	movsbq %al,%rax
   1f4ee:	8b 55 fc             	mov    -0x4(%rbp),%edx
   1f4f1:	48 8d 35 6a 2c 00 00 	lea    0x2c6a(%rip),%rsi        # 22162 <g_2211+0x10d2>
   1f4f8:	48 89 c7             	mov    %rax,%rdi
   1f4fb:	e8 f3 21 ff ff       	callq  116f3 <transparent_crc>
   1f500:	83 7d fc 00          	cmpl   $0x0,-0x4(%rbp)
   1f504:	74 1c                	je     1f522 <main+0x9b2>
   1f506:	8b 4d f8             	mov    -0x8(%rbp),%ecx
   1f509:	8b 55 f4             	mov    -0xc(%rbp),%edx
   1f50c:	8b 45 f0             	mov    -0x10(%rbp),%eax
   1f50f:	89 c6                	mov    %eax,%esi
   1f511:	48 8d 3d de 2a 00 00 	lea    0x2ade(%rip),%rdi        # 21ff6 <g_2211+0xf66>
   1f518:	b8 00 00 00 00       	mov    $0x0,%eax
   1f51d:	e8 5e 0b ff ff       	callq  10080 <printf@plt>
   1f522:	83 45 f8 01          	addl   $0x1,-0x8(%rbp)
   1f526:	83 7d f8 07          	cmpl   $0x7,-0x8(%rbp)
   1f52a:	7e 86                	jle    1f4b2 <main+0x942>
   1f52c:	83 45 f4 01          	addl   $0x1,-0xc(%rbp)
   1f530:	83 7d f4 02          	cmpl   $0x2,-0xc(%rbp)
   1f534:	0f 8e 6f ff ff ff    	jle    1f4a9 <main+0x939>
   1f53a:	83 45 f0 01          	addl   $0x1,-0x10(%rbp)
   1f53e:	83 7d f0 09          	cmpl   $0x9,-0x10(%rbp)
   1f542:	0f 8e 55 ff ff ff    	jle    1f49d <main+0x92d>
   1f548:	0f b6 05 71 7b 00 00 	movzbl 0x7b71(%rip),%eax        # 270c0 <g_877>
   1f54f:	48 0f be c0          	movsbq %al,%rax
   1f553:	8b 55 fc             	mov    -0x4(%rbp),%edx
   1f556:	48 8d 35 17 2c 00 00 	lea    0x2c17(%rip),%rsi        # 22174 <g_2211+0x10e4>
   1f55d:	48 89 c7             	mov    %rax,%rdi
   1f560:	e8 8e 21 ff ff       	callq  116f3 <transparent_crc>
   1f565:	0f b6 05 58 7b 00 00 	movzbl 0x7b58(%rip),%eax        # 270c4 <g_878>
   1f56c:	48 0f be c0          	movsbq %al,%rax
   1f570:	8b 55 fc             	mov    -0x4(%rbp),%edx
   1f573:	48 8d 35 03 2c 00 00 	lea    0x2c03(%rip),%rsi        # 2217d <g_2211+0x10ed>
   1f57a:	48 89 c7             	mov    %rax,%rdi
   1f57d:	e8 71 21 ff ff       	callq  116f3 <transparent_crc>
   1f582:	0f b6 05 3f 7b 00 00 	movzbl 0x7b3f(%rip),%eax        # 270c8 <g_879>
   1f589:	48 0f be c0          	movsbq %al,%rax
   1f58d:	8b 55 fc             	mov    -0x4(%rbp),%edx
   1f590:	48 8d 35 ef 2b 00 00 	lea    0x2bef(%rip),%rsi        # 22186 <g_2211+0x10f6>
   1f597:	48 89 c7             	mov    %rax,%rdi
   1f59a:	e8 54 21 ff ff       	callq  116f3 <transparent_crc>
   1f59f:	c7 45 f0 00 00 00 00 	movl   $0x0,-0x10(%rbp)
   1f5a6:	e9 b8 00 00 00       	jmpq   1f663 <main+0xaf3>
   1f5ab:	c7 45 f4 00 00 00 00 	movl   $0x0,-0xc(%rbp)
   1f5b2:	e9 9e 00 00 00       	jmpq   1f655 <main+0xae5>
   1f5b7:	c7 45 f8 00 00 00 00 	movl   $0x0,-0x8(%rbp)
   1f5be:	e9 84 00 00 00       	jmpq   1f647 <main+0xad7>
   1f5c3:	8b 45 f8             	mov    -0x8(%rbp),%eax
   1f5c6:	48 63 f0             	movslq %eax,%rsi
   1f5c9:	8b 45 f0             	mov    -0x10(%rbp),%eax
   1f5cc:	48 63 d0             	movslq %eax,%rdx
   1f5cf:	8b 45 f4             	mov    -0xc(%rbp),%eax
   1f5d2:	48 63 c8             	movslq %eax,%rcx
   1f5d5:	48 89 d0             	mov    %rdx,%rax
   1f5d8:	48 01 c0             	add    %rax,%rax
   1f5db:	48 01 d0             	add    %rdx,%rax
   1f5de:	48 8d 14 c5 00 00 00 	lea    0x0(,%rax,8),%rdx
   1f5e5:	00 
   1f5e6:	48 01 d0             	add    %rdx,%rax
   1f5e9:	48 89 ca             	mov    %rcx,%rdx
   1f5ec:	48 01 d2             	add    %rdx,%rdx
   1f5ef:	48 01 ca             	add    %rcx,%rdx
   1f5f2:	48 01 d0             	add    %rdx,%rax
   1f5f5:	48 01 f0             	add    %rsi,%rax
   1f5f8:	48 8d 14 85 00 00 00 	lea    0x0(,%rax,4),%rdx
   1f5ff:	00 
   1f600:	48 8d 05 d9 7a 00 00 	lea    0x7ad9(%rip),%rax        # 270e0 <g_880>
   1f607:	0f b6 04 02          	movzbl (%rdx,%rax,1),%eax
   1f60b:	48 0f be c0          	movsbq %al,%rax
   1f60f:	8b 55 fc             	mov    -0x4(%rbp),%edx
   1f612:	48 8d 35 76 2b 00 00 	lea    0x2b76(%rip),%rsi        # 2218f <g_2211+0x10ff>
   1f619:	48 89 c7             	mov    %rax,%rdi
   1f61c:	e8 d2 20 ff ff       	callq  116f3 <transparent_crc>
   1f621:	83 7d fc 00          	cmpl   $0x0,-0x4(%rbp)
   1f625:	74 1c                	je     1f643 <main+0xad3>
   1f627:	8b 4d f8             	mov    -0x8(%rbp),%ecx
   1f62a:	8b 55 f4             	mov    -0xc(%rbp),%edx
   1f62d:	8b 45 f0             	mov    -0x10(%rbp),%eax
   1f630:	89 c6                	mov    %eax,%esi
   1f632:	48 8d 3d bd 29 00 00 	lea    0x29bd(%rip),%rdi        # 21ff6 <g_2211+0xf66>
   1f639:	b8 00 00 00 00       	mov    $0x0,%eax
   1f63e:	e8 3d 0a ff ff       	callq  10080 <printf@plt>
   1f643:	83 45 f8 01          	addl   $0x1,-0x8(%rbp)
   1f647:	83 7d f8 02          	cmpl   $0x2,-0x8(%rbp)
   1f64b:	0f 8e 72 ff ff ff    	jle    1f5c3 <main+0xa53>
   1f651:	83 45 f4 01          	addl   $0x1,-0xc(%rbp)
   1f655:	83 7d f4 08          	cmpl   $0x8,-0xc(%rbp)
   1f659:	0f 8e 58 ff ff ff    	jle    1f5b7 <main+0xa47>
   1f65f:	83 45 f0 01          	addl   $0x1,-0x10(%rbp)
   1f663:	83 7d f0 08          	cmpl   $0x8,-0x10(%rbp)
   1f667:	0f 8e 3e ff ff ff    	jle    1f5ab <main+0xa3b>
   1f66d:	0f b6 05 38 7e 00 00 	movzbl 0x7e38(%rip),%eax        # 274ac <g_881>
   1f674:	48 0f be c0          	movsbq %al,%rax
   1f678:	8b 55 fc             	mov    -0x4(%rbp),%edx
   1f67b:	48 8d 35 1f 2b 00 00 	lea    0x2b1f(%rip),%rsi        # 221a1 <g_2211+0x1111>
   1f682:	48 89 c7             	mov    %rax,%rdi
   1f685:	e8 69 20 ff ff       	callq  116f3 <transparent_crc>
   1f68a:	c7 45 f0 00 00 00 00 	movl   $0x0,-0x10(%rbp)
   1f691:	eb 4e                	jmp    1f6e1 <main+0xb71>
   1f693:	8b 45 f0             	mov    -0x10(%rbp),%eax
   1f696:	48 98                	cltq   
   1f698:	48 8d 14 85 00 00 00 	lea    0x0(,%rax,4),%rdx
   1f69f:	00 
   1f6a0:	48 8d 05 59 fa 00 00 	lea    0xfa59(%rip),%rax        # 2f100 <g_882>
   1f6a7:	0f b6 04 02          	movzbl (%rdx,%rax,1),%eax
   1f6ab:	48 0f be c0          	movsbq %al,%rax
   1f6af:	8b 55 fc             	mov    -0x4(%rbp),%edx
   1f6b2:	48 8d 35 f1 2a 00 00 	lea    0x2af1(%rip),%rsi        # 221aa <g_2211+0x111a>
   1f6b9:	48 89 c7             	mov    %rax,%rdi
   1f6bc:	e8 32 20 ff ff       	callq  116f3 <transparent_crc>
   1f6c1:	83 7d fc 00          	cmpl   $0x0,-0x4(%rbp)
   1f6c5:	74 16                	je     1f6dd <main+0xb6d>
   1f6c7:	8b 45 f0             	mov    -0x10(%rbp),%eax
   1f6ca:	89 c6                	mov    %eax,%esi
   1f6cc:	48 8d 3d b2 28 00 00 	lea    0x28b2(%rip),%rdi        # 21f85 <g_2211+0xef5>
   1f6d3:	b8 00 00 00 00       	mov    $0x0,%eax
   1f6d8:	e8 a3 09 ff ff       	callq  10080 <printf@plt>
   1f6dd:	83 45 f0 01          	addl   $0x1,-0x10(%rbp)
   1f6e1:	83 7d f0 08          	cmpl   $0x8,-0x10(%rbp)
   1f6e5:	7e ac                	jle    1f693 <main+0xb23>
   1f6e7:	0f b6 05 c2 7d 00 00 	movzbl 0x7dc2(%rip),%eax        # 274b0 <g_883>
   1f6ee:	48 0f be c0          	movsbq %al,%rax
   1f6f2:	8b 55 fc             	mov    -0x4(%rbp),%edx
   1f6f5:	48 8d 35 ba 2a 00 00 	lea    0x2aba(%rip),%rsi        # 221b6 <g_2211+0x1126>
   1f6fc:	48 89 c7             	mov    %rax,%rdi
   1f6ff:	e8 ef 1f ff ff       	callq  116f3 <transparent_crc>
   1f704:	0f b6 05 a9 7d 00 00 	movzbl 0x7da9(%rip),%eax        # 274b4 <g_884>
   1f70b:	48 0f be c0          	movsbq %al,%rax
   1f70f:	8b 55 fc             	mov    -0x4(%rbp),%edx
   1f712:	48 8d 35 a6 2a 00 00 	lea    0x2aa6(%rip),%rsi        # 221bf <g_2211+0x112f>
   1f719:	48 89 c7             	mov    %rax,%rdi
   1f71c:	e8 d2 1f ff ff       	callq  116f3 <transparent_crc>
   1f721:	0f b6 05 90 7d 00 00 	movzbl 0x7d90(%rip),%eax        # 274b8 <g_885>
   1f728:	48 0f be c0          	movsbq %al,%rax
   1f72c:	8b 55 fc             	mov    -0x4(%rbp),%edx
   1f72f:	48 8d 35 92 2a 00 00 	lea    0x2a92(%rip),%rsi        # 221c8 <g_2211+0x1138>
   1f736:	48 89 c7             	mov    %rax,%rdi
   1f739:	e8 b5 1f ff ff       	callq  116f3 <transparent_crc>
   1f73e:	0f b6 05 77 7d 00 00 	movzbl 0x7d77(%rip),%eax        # 274bc <g_886>
   1f745:	48 0f be c0          	movsbq %al,%rax
   1f749:	8b 55 fc             	mov    -0x4(%rbp),%edx
   1f74c:	48 8d 35 7e 2a 00 00 	lea    0x2a7e(%rip),%rsi        # 221d1 <g_2211+0x1141>
   1f753:	48 89 c7             	mov    %rax,%rdi
   1f756:	e8 98 1f ff ff       	callq  116f3 <transparent_crc>
   1f75b:	0f b6 05 5e 7d 00 00 	movzbl 0x7d5e(%rip),%eax        # 274c0 <g_887>
   1f762:	48 0f be c0          	movsbq %al,%rax
   1f766:	8b 55 fc             	mov    -0x4(%rbp),%edx
   1f769:	48 8d 35 6a 2a 00 00 	lea    0x2a6a(%rip),%rsi        # 221da <g_2211+0x114a>
   1f770:	48 89 c7             	mov    %rax,%rdi
   1f773:	e8 7b 1f ff ff       	callq  116f3 <transparent_crc>
   1f778:	0f b6 05 a5 f9 00 00 	movzbl 0xf9a5(%rip),%eax        # 2f124 <g_889>
   1f77f:	48 0f be c0          	movsbq %al,%rax
   1f783:	8b 55 fc             	mov    -0x4(%rbp),%edx
   1f786:	48 8d 35 56 2a 00 00 	lea    0x2a56(%rip),%rsi        # 221e3 <g_2211+0x1153>
   1f78d:	48 89 c7             	mov    %rax,%rdi
   1f790:	e8 5e 1f ff ff       	callq  116f3 <transparent_crc>
   1f795:	c7 45 f0 00 00 00 00 	movl   $0x0,-0x10(%rbp)
   1f79c:	eb 4e                	jmp    1f7ec <main+0xc7c>
   1f79e:	8b 45 f0             	mov    -0x10(%rbp),%eax
   1f7a1:	48 98                	cltq   
   1f7a3:	48 8d 14 85 00 00 00 	lea    0x0(,%rax,4),%rdx
   1f7aa:	00 
   1f7ab:	48 8d 05 1e 7d 00 00 	lea    0x7d1e(%rip),%rax        # 274d0 <g_890>
   1f7b2:	0f b6 04 02          	movzbl (%rdx,%rax,1),%eax
   1f7b6:	48 0f be c0          	movsbq %al,%rax
   1f7ba:	8b 55 fc             	mov    -0x4(%rbp),%edx
   1f7bd:	48 8d 35 28 2a 00 00 	lea    0x2a28(%rip),%rsi        # 221ec <g_2211+0x115c>
   1f7c4:	48 89 c7             	mov    %rax,%rdi
   1f7c7:	e8 27 1f ff ff       	callq  116f3 <transparent_crc>
   1f7cc:	83 7d fc 00          	cmpl   $0x0,-0x4(%rbp)
   1f7d0:	74 16                	je     1f7e8 <main+0xc78>
   1f7d2:	8b 45 f0             	mov    -0x10(%rbp),%eax
   1f7d5:	89 c6                	mov    %eax,%esi
   1f7d7:	48 8d 3d a7 27 00 00 	lea    0x27a7(%rip),%rdi        # 21f85 <g_2211+0xef5>
   1f7de:	b8 00 00 00 00       	mov    $0x0,%eax
   1f7e3:	e8 98 08 ff ff       	callq  10080 <printf@plt>
   1f7e8:	83 45 f0 01          	addl   $0x1,-0x10(%rbp)
   1f7ec:	83 7d f0 04          	cmpl   $0x4,-0x10(%rbp)
   1f7f0:	7e ac                	jle    1f79e <main+0xc2e>
   1f7f2:	0f b7 05 eb 7c 00 00 	movzwl 0x7ceb(%rip),%eax        # 274e4 <g_955>
   1f7f9:	0f b7 c0             	movzwl %ax,%eax
   1f7fc:	8b 55 fc             	mov    -0x4(%rbp),%edx
   1f7ff:	48 8d 35 f2 29 00 00 	lea    0x29f2(%rip),%rsi        # 221f8 <g_2211+0x1168>
   1f806:	48 89 c7             	mov    %rax,%rdi
   1f809:	e8 e5 1e ff ff       	callq  116f3 <transparent_crc>
   1f80e:	c7 45 f0 00 00 00 00 	movl   $0x0,-0x10(%rbp)
   1f815:	eb 6b                	jmp    1f882 <main+0xd12>
   1f817:	c7 45 f4 00 00 00 00 	movl   $0x0,-0xc(%rbp)
   1f81e:	eb 58                	jmp    1f878 <main+0xd08>
   1f820:	8b 45 f4             	mov    -0xc(%rbp),%eax
   1f823:	48 98                	cltq   
   1f825:	8b 55 f0             	mov    -0x10(%rbp),%edx
   1f828:	48 63 d2             	movslq %edx,%rdx
   1f82b:	48 c1 e2 02          	shl    $0x2,%rdx
   1f82f:	48 01 c2             	add    %rax,%rdx
   1f832:	48 8d 05 c7 7c 00 00 	lea    0x7cc7(%rip),%rax        # 27500 <g_1057>
   1f839:	48 01 d0             	add    %rdx,%rax
   1f83c:	0f b6 00             	movzbl (%rax),%eax
   1f83f:	48 0f be c0          	movsbq %al,%rax
   1f843:	8b 55 fc             	mov    -0x4(%rbp),%edx
   1f846:	48 8d 35 b1 29 00 00 	lea    0x29b1(%rip),%rsi        # 221fe <g_2211+0x116e>
   1f84d:	48 89 c7             	mov    %rax,%rdi
   1f850:	e8 9e 1e ff ff       	callq  116f3 <transparent_crc>
   1f855:	83 7d fc 00          	cmpl   $0x0,-0x4(%rbp)
   1f859:	74 19                	je     1f874 <main+0xd04>
   1f85b:	8b 55 f4             	mov    -0xc(%rbp),%edx
   1f85e:	8b 45 f0             	mov    -0x10(%rbp),%eax
   1f861:	89 c6                	mov    %eax,%esi
   1f863:	48 8d 3d e4 27 00 00 	lea    0x27e4(%rip),%rdi        # 2204e <g_2211+0xfbe>
   1f86a:	b8 00 00 00 00       	mov    $0x0,%eax
   1f86f:	e8 0c 08 ff ff       	callq  10080 <printf@plt>
   1f874:	83 45 f4 01          	addl   $0x1,-0xc(%rbp)
   1f878:	83 7d f4 03          	cmpl   $0x3,-0xc(%rbp)
   1f87c:	7e a2                	jle    1f820 <main+0xcb0>
   1f87e:	83 45 f0 01          	addl   $0x1,-0x10(%rbp)
   1f882:	83 7d f0 09          	cmpl   $0x9,-0x10(%rbp)
   1f886:	7e 8f                	jle    1f817 <main+0xca7>
   1f888:	48 b9 fe f7 9d f1 2c 	movabs $0x1fedd62cf19df7fe,%rcx
   1f88f:	d6 ed 1f 
   1f892:	8b 45 fc             	mov    -0x4(%rbp),%eax
   1f895:	89 c2                	mov    %eax,%edx
   1f897:	48 8d 35 6d 29 00 00 	lea    0x296d(%rip),%rsi        # 2220b <g_2211+0x117b>
   1f89e:	48 89 cf             	mov    %rcx,%rdi
   1f8a1:	e8 4d 1e ff ff       	callq  116f3 <transparent_crc>
   1f8a6:	48 c7 c1 ff ff ff ff 	mov    $0xffffffffffffffff,%rcx
   1f8ad:	8b 45 fc             	mov    -0x4(%rbp),%eax
   1f8b0:	89 c2                	mov    %eax,%edx
   1f8b2:	48 8d 35 59 29 00 00 	lea    0x2959(%rip),%rsi        # 22212 <g_2211+0x1182>
   1f8b9:	48 89 cf             	mov    %rcx,%rdi
   1f8bc:	e8 32 1e ff ff       	callq  116f3 <transparent_crc>
   1f8c1:	48 8b 05 60 7c 00 00 	mov    0x7c60(%rip),%rax        # 27528 <g_1131>
   1f8c8:	8b 55 fc             	mov    -0x4(%rbp),%edx
   1f8cb:	48 8d 35 47 29 00 00 	lea    0x2947(%rip),%rsi        # 22219 <g_2211+0x1189>
   1f8d2:	48 89 c7             	mov    %rax,%rdi
   1f8d5:	e8 19 1e ff ff       	callq  116f3 <transparent_crc>
   1f8da:	0f b7 05 4f 7c 00 00 	movzwl 0x7c4f(%rip),%eax        # 27530 <g_1246>
   1f8e1:	48 0f bf c0          	movswq %ax,%rax
   1f8e5:	8b 55 fc             	mov    -0x4(%rbp),%edx
   1f8e8:	48 8d 35 31 29 00 00 	lea    0x2931(%rip),%rsi        # 22220 <g_2211+0x1190>
   1f8ef:	48 89 c7             	mov    %rax,%rdi
   1f8f2:	e8 fc 1d ff ff       	callq  116f3 <transparent_crc>
   1f8f7:	c7 45 f0 00 00 00 00 	movl   $0x0,-0x10(%rbp)
   1f8fe:	eb 4d                	jmp    1f94d <main+0xddd>
   1f900:	8b 45 f0             	mov    -0x10(%rbp),%eax
   1f903:	48 98                	cltq   
   1f905:	48 8d 14 85 00 00 00 	lea    0x0(,%rax,4),%rdx
   1f90c:	00 
   1f90d:	48 8d 05 2c 7c 00 00 	lea    0x7c2c(%rip),%rax        # 27540 <g_1253>
   1f914:	8b 04 02             	mov    (%rdx,%rax,1),%eax
   1f917:	89 c1                	mov    %eax,%ecx
   1f919:	8b 45 fc             	mov    -0x4(%rbp),%eax
   1f91c:	89 c2                	mov    %eax,%edx
   1f91e:	48 8d 35 02 29 00 00 	lea    0x2902(%rip),%rsi        # 22227 <g_2211+0x1197>
   1f925:	48 89 cf             	mov    %rcx,%rdi
   1f928:	e8 c6 1d ff ff       	callq  116f3 <transparent_crc>
   1f92d:	83 7d fc 00          	cmpl   $0x0,-0x4(%rbp)
   1f931:	74 16                	je     1f949 <main+0xdd9>
   1f933:	8b 45 f0             	mov    -0x10(%rbp),%eax
   1f936:	89 c6                	mov    %eax,%esi
   1f938:	48 8d 3d 46 26 00 00 	lea    0x2646(%rip),%rdi        # 21f85 <g_2211+0xef5>
   1f93f:	b8 00 00 00 00       	mov    $0x0,%eax
   1f944:	e8 37 07 ff ff       	callq  10080 <printf@plt>
   1f949:	83 45 f0 01          	addl   $0x1,-0x10(%rbp)
   1f94d:	83 7d f0 05          	cmpl   $0x5,-0x10(%rbp)
   1f951:	7e ad                	jle    1f900 <main+0xd90>
   1f953:	c7 45 f0 00 00 00 00 	movl   $0x0,-0x10(%rbp)
   1f95a:	e9 b0 00 00 00       	jmpq   1fa0f <main+0xe9f>
   1f95f:	c7 45 f4 00 00 00 00 	movl   $0x0,-0xc(%rbp)
   1f966:	e9 96 00 00 00       	jmpq   1fa01 <main+0xe91>
   1f96b:	c7 45 f8 00 00 00 00 	movl   $0x0,-0x8(%rbp)
   1f972:	eb 7f                	jmp    1f9f3 <main+0xe83>
   1f974:	8b 45 f8             	mov    -0x8(%rbp),%eax
   1f977:	48 63 f0             	movslq %eax,%rsi
   1f97a:	8b 45 f0             	mov    -0x10(%rbp),%eax
   1f97d:	48 63 d0             	movslq %eax,%rdx
   1f980:	8b 45 f4             	mov    -0xc(%rbp),%eax
   1f983:	48 63 c8             	movslq %eax,%rcx
   1f986:	48 89 d0             	mov    %rdx,%rax
   1f989:	48 c1 e0 03          	shl    $0x3,%rax
   1f98d:	48 01 d0             	add    %rdx,%rax
   1f990:	48 c1 e0 02          	shl    $0x2,%rax
   1f994:	48 29 d0             	sub    %rdx,%rax
   1f997:	48 89 ca             	mov    %rcx,%rdx
   1f99a:	48 c1 e2 02          	shl    $0x2,%rdx
   1f99e:	48 01 ca             	add    %rcx,%rdx
   1f9a1:	48 01 d0             	add    %rdx,%rax
   1f9a4:	48 01 f0             	add    %rsi,%rax
   1f9a7:	48 8d 14 85 00 00 00 	lea    0x0(,%rax,4),%rdx
   1f9ae:	00 
   1f9af:	48 8d 05 aa 7b 00 00 	lea    0x7baa(%rip),%rax        # 27560 <g_1294>
   1f9b6:	8b 04 02             	mov    (%rdx,%rax,1),%eax
   1f9b9:	48 98                	cltq   
   1f9bb:	8b 55 fc             	mov    -0x4(%rbp),%edx
   1f9be:	48 8d 35 6c 28 00 00 	lea    0x286c(%rip),%rsi        # 22231 <g_2211+0x11a1>
   1f9c5:	48 89 c7             	mov    %rax,%rdi
   1f9c8:	e8 26 1d ff ff       	callq  116f3 <transparent_crc>
   1f9cd:	83 7d fc 00          	cmpl   $0x0,-0x4(%rbp)
   1f9d1:	74 1c                	je     1f9ef <main+0xe7f>
   1f9d3:	8b 4d f8             	mov    -0x8(%rbp),%ecx
   1f9d6:	8b 55 f4             	mov    -0xc(%rbp),%edx
   1f9d9:	8b 45 f0             	mov    -0x10(%rbp),%eax
   1f9dc:	89 c6                	mov    %eax,%esi
   1f9de:	48 8d 3d 11 26 00 00 	lea    0x2611(%rip),%rdi        # 21ff6 <g_2211+0xf66>
   1f9e5:	b8 00 00 00 00       	mov    $0x0,%eax
   1f9ea:	e8 91 06 ff ff       	callq  10080 <printf@plt>
   1f9ef:	83 45 f8 01          	addl   $0x1,-0x8(%rbp)
   1f9f3:	83 7d f8 04          	cmpl   $0x4,-0x8(%rbp)
   1f9f7:	0f 8e 77 ff ff ff    	jle    1f974 <main+0xe04>
   1f9fd:	83 45 f4 01          	addl   $0x1,-0xc(%rbp)
   1fa01:	83 7d f4 06          	cmpl   $0x6,-0xc(%rbp)
   1fa05:	0f 8e 60 ff ff ff    	jle    1f96b <main+0xdfb>
   1fa0b:	83 45 f0 01          	addl   $0x1,-0x10(%rbp)
   1fa0f:	83 7d f0 06          	cmpl   $0x6,-0x10(%rbp)
   1fa13:	0f 8e 46 ff ff ff    	jle    1f95f <main+0xdef>
   1fa19:	8b 05 15 7f 00 00    	mov    0x7f15(%rip),%eax        # 27934 <g_1350>
   1fa1f:	48 98                	cltq   
   1fa21:	8b 55 fc             	mov    -0x4(%rbp),%edx
   1fa24:	48 8d 35 16 28 00 00 	lea    0x2816(%rip),%rsi        # 22241 <g_2211+0x11b1>
   1fa2b:	48 89 c7             	mov    %rax,%rdi
   1fa2e:	e8 c0 1c ff ff       	callq  116f3 <transparent_crc>
   1fa33:	0f b6 05 fe 7e 00 00 	movzbl 0x7efe(%rip),%eax        # 27938 <g_1365>
   1fa3a:	0f b6 c0             	movzbl %al,%eax
   1fa3d:	8b 55 fc             	mov    -0x4(%rbp),%edx
   1fa40:	48 8d 35 01 28 00 00 	lea    0x2801(%rip),%rsi        # 22248 <g_2211+0x11b8>
   1fa47:	48 89 c7             	mov    %rax,%rdi
   1fa4a:	e8 a4 1c ff ff       	callq  116f3 <transparent_crc>
   1fa4f:	c7 45 f0 00 00 00 00 	movl   $0x0,-0x10(%rbp)
   1fa56:	eb 4a                	jmp    1faa2 <main+0xf32>
   1fa58:	8b 45 f0             	mov    -0x10(%rbp),%eax
   1fa5b:	48 98                	cltq   
   1fa5d:	48 8d 14 c5 00 00 00 	lea    0x0(,%rax,8),%rdx
   1fa64:	00 
   1fa65:	48 8d 05 d4 7e 00 00 	lea    0x7ed4(%rip),%rax        # 27940 <g_1453>
   1fa6c:	48 8b 04 02          	mov    (%rdx,%rax,1),%rax
   1fa70:	8b 55 fc             	mov    -0x4(%rbp),%edx
   1fa73:	48 8d 35 d5 27 00 00 	lea    0x27d5(%rip),%rsi        # 2224f <g_2211+0x11bf>
   1fa7a:	48 89 c7             	mov    %rax,%rdi
   1fa7d:	e8 71 1c ff ff       	callq  116f3 <transparent_crc>
   1fa82:	83 7d fc 00          	cmpl   $0x0,-0x4(%rbp)
   1fa86:	74 16                	je     1fa9e <main+0xf2e>
   1fa88:	8b 45 f0             	mov    -0x10(%rbp),%eax
   1fa8b:	89 c6                	mov    %eax,%esi
   1fa8d:	48 8d 3d f1 24 00 00 	lea    0x24f1(%rip),%rdi        # 21f85 <g_2211+0xef5>
   1fa94:	b8 00 00 00 00       	mov    $0x0,%eax
   1fa99:	e8 e2 05 ff ff       	callq  10080 <printf@plt>
   1fa9e:	83 45 f0 01          	addl   $0x1,-0x10(%rbp)
   1faa2:	83 7d f0 09          	cmpl   $0x9,-0x10(%rbp)
   1faa6:	7e b0                	jle    1fa58 <main+0xee8>
   1faa8:	8b 05 e2 7e 00 00    	mov    0x7ee2(%rip),%eax        # 27990 <g_1605>
   1faae:	89 c1                	mov    %eax,%ecx
   1fab0:	8b 45 fc             	mov    -0x4(%rbp),%eax
   1fab3:	89 c2                	mov    %eax,%edx
   1fab5:	48 8d 35 9d 27 00 00 	lea    0x279d(%rip),%rsi        # 22259 <g_2211+0x11c9>
   1fabc:	48 89 cf             	mov    %rcx,%rdi
   1fabf:	e8 2f 1c ff ff       	callq  116f3 <transparent_crc>
   1fac4:	c7 45 f0 00 00 00 00 	movl   $0x0,-0x10(%rbp)
   1facb:	eb 4e                	jmp    1fb1b <main+0xfab>
   1facd:	8b 45 f0             	mov    -0x10(%rbp),%eax
   1fad0:	48 98                	cltq   
   1fad2:	48 8d 14 c5 00 00 00 	lea    0x0(,%rax,8),%rdx
   1fad9:	00 
   1fada:	48 8d 05 5f f6 00 00 	lea    0xf65f(%rip),%rax        # 2f140 <g_1624>
   1fae1:	0f b6 04 02          	movzbl (%rdx,%rax,1),%eax
   1fae5:	48 0f be c0          	movsbq %al,%rax
   1fae9:	8b 55 fc             	mov    -0x4(%rbp),%edx
   1faec:	48 8d 35 6d 27 00 00 	lea    0x276d(%rip),%rsi        # 22260 <g_2211+0x11d0>
   1faf3:	48 89 c7             	mov    %rax,%rdi
   1faf6:	e8 f8 1b ff ff       	callq  116f3 <transparent_crc>
   1fafb:	83 7d fc 00          	cmpl   $0x0,-0x4(%rbp)
   1faff:	74 16                	je     1fb17 <main+0xfa7>
   1fb01:	8b 45 f0             	mov    -0x10(%rbp),%eax
   1fb04:	89 c6                	mov    %eax,%esi
   1fb06:	48 8d 3d 78 24 00 00 	lea    0x2478(%rip),%rdi        # 21f85 <g_2211+0xef5>
   1fb0d:	b8 00 00 00 00       	mov    $0x0,%eax
   1fb12:	e8 69 05 ff ff       	callq  10080 <printf@plt>
   1fb17:	83 45 f0 01          	addl   $0x1,-0x10(%rbp)
   1fb1b:	83 7d f0 03          	cmpl   $0x3,-0x10(%rbp)
   1fb1f:	7e ac                	jle    1facd <main+0xf5d>
   1fb21:	0f b6 05 6c 7e 00 00 	movzbl 0x7e6c(%rip),%eax        # 27994 <g_1638>
   1fb28:	0f b6 c0             	movzbl %al,%eax
   1fb2b:	8b 55 fc             	mov    -0x4(%rbp),%edx
   1fb2e:	48 8d 35 38 27 00 00 	lea    0x2738(%rip),%rsi        # 2226d <g_2211+0x11dd>
   1fb35:	48 89 c7             	mov    %rax,%rdi
   1fb38:	e8 b6 1b ff ff       	callq  116f3 <transparent_crc>
   1fb3d:	8b 05 55 7e 00 00    	mov    0x7e55(%rip),%eax        # 27998 <g_1678>
   1fb43:	48 98                	cltq   
   1fb45:	8b 55 fc             	mov    -0x4(%rbp),%edx
   1fb48:	48 8d 35 25 27 00 00 	lea    0x2725(%rip),%rsi        # 22274 <g_2211+0x11e4>
   1fb4f:	48 89 c7             	mov    %rax,%rdi
   1fb52:	e8 9c 1b ff ff       	callq  116f3 <transparent_crc>
   1fb57:	0f b7 05 3e 7e 00 00 	movzwl 0x7e3e(%rip),%eax        # 2799c <g_1740>
   1fb5e:	48 0f bf c0          	movswq %ax,%rax
   1fb62:	8b 55 fc             	mov    -0x4(%rbp),%edx
   1fb65:	48 8d 35 0f 27 00 00 	lea    0x270f(%rip),%rsi        # 2227b <g_2211+0x11eb>
   1fb6c:	48 89 c7             	mov    %rax,%rdi
   1fb6f:	e8 7f 1b ff ff       	callq  116f3 <transparent_crc>
   1fb74:	0f b6 05 25 7e 00 00 	movzbl 0x7e25(%rip),%eax        # 279a0 <g_2125>
   1fb7b:	48 0f be c0          	movsbq %al,%rax
   1fb7f:	8b 55 fc             	mov    -0x4(%rbp),%edx
   1fb82:	48 8d 35 f9 26 00 00 	lea    0x26f9(%rip),%rsi        # 22282 <g_2211+0x11f2>
   1fb89:	48 89 c7             	mov    %rax,%rdi
   1fb8c:	e8 62 1b ff ff       	callq  116f3 <transparent_crc>
   1fb91:	0f b6 05 0c 7e 00 00 	movzbl 0x7e0c(%rip),%eax        # 279a4 <g_2127>
   1fb98:	48 0f be c0          	movsbq %al,%rax
   1fb9c:	8b 55 fc             	mov    -0x4(%rbp),%edx
   1fb9f:	48 8d 35 e6 26 00 00 	lea    0x26e6(%rip),%rsi        # 2228c <g_2211+0x11fc>
   1fba6:	48 89 c7             	mov    %rax,%rdi
   1fba9:	e8 45 1b ff ff       	callq  116f3 <transparent_crc>
   1fbae:	8b 05 f4 7d 00 00    	mov    0x7df4(%rip),%eax        # 279a8 <g_2181>
   1fbb4:	48 98                	cltq   
   1fbb6:	8b 55 fc             	mov    -0x4(%rbp),%edx
   1fbb9:	48 8d 35 d6 26 00 00 	lea    0x26d6(%rip),%rsi        # 22296 <g_2211+0x1206>
   1fbc0:	48 89 c7             	mov    %rax,%rdi
   1fbc3:	e8 2b 1b ff ff       	callq  116f3 <transparent_crc>
   1fbc8:	8b 05 de 7d 00 00    	mov    0x7dde(%rip),%eax        # 279ac <g_2183>
   1fbce:	89 c1                	mov    %eax,%ecx
   1fbd0:	8b 45 fc             	mov    -0x4(%rbp),%eax
   1fbd3:	89 c2                	mov    %eax,%edx
   1fbd5:	48 8d 35 c1 26 00 00 	lea    0x26c1(%rip),%rsi        # 2229d <g_2211+0x120d>
   1fbdc:	48 89 cf             	mov    %rcx,%rdi
   1fbdf:	e8 0f 1b ff ff       	callq  116f3 <transparent_crc>
   1fbe4:	0f b6 05 c5 7d 00 00 	movzbl 0x7dc5(%rip),%eax        # 279b0 <g_2301>
   1fbeb:	48 0f be c0          	movsbq %al,%rax
   1fbef:	8b 55 fc             	mov    -0x4(%rbp),%edx
   1fbf2:	48 8d 35 ab 26 00 00 	lea    0x26ab(%rip),%rsi        # 222a4 <g_2211+0x1214>
   1fbf9:	48 89 c7             	mov    %rax,%rdi
   1fbfc:	e8 f2 1a ff ff       	callq  116f3 <transparent_crc>
   1fc01:	0f b6 05 ac 7d 00 00 	movzbl 0x7dac(%rip),%eax        # 279b4 <g_2322>
   1fc08:	48 0f be c0          	movsbq %al,%rax
   1fc0c:	8b 55 fc             	mov    -0x4(%rbp),%edx
   1fc0f:	48 8d 35 95 26 00 00 	lea    0x2695(%rip),%rsi        # 222ab <g_2211+0x121b>
   1fc16:	48 89 c7             	mov    %rax,%rdi
   1fc19:	e8 d5 1a ff ff       	callq  116f3 <transparent_crc>
   1fc1e:	0f b6 05 93 7d 00 00 	movzbl 0x7d93(%rip),%eax        # 279b8 <g_2468>
   1fc25:	0f b6 c0             	movzbl %al,%eax
   1fc28:	8b 55 fc             	mov    -0x4(%rbp),%edx
   1fc2b:	48 8d 35 83 26 00 00 	lea    0x2683(%rip),%rsi        # 222b5 <g_2211+0x1225>
   1fc32:	48 89 c7             	mov    %rax,%rdi
   1fc35:	e8 b9 1a ff ff       	callq  116f3 <transparent_crc>
   1fc3a:	8b 05 7c 7d 00 00    	mov    0x7d7c(%rip),%eax        # 279bc <g_2471>
   1fc40:	48 98                	cltq   
   1fc42:	8b 55 fc             	mov    -0x4(%rbp),%edx
   1fc45:	48 8d 35 70 26 00 00 	lea    0x2670(%rip),%rsi        # 222bc <g_2211+0x122c>
   1fc4c:	48 89 c7             	mov    %rax,%rdi
   1fc4f:	e8 9f 1a ff ff       	callq  116f3 <transparent_crc>
   1fc54:	8b 05 66 7d 00 00    	mov    0x7d66(%rip),%eax        # 279c0 <g_2590>
   1fc5a:	48 98                	cltq   
   1fc5c:	8b 55 fc             	mov    -0x4(%rbp),%edx
   1fc5f:	48 8d 35 5d 26 00 00 	lea    0x265d(%rip),%rsi        # 222c3 <g_2211+0x1233>
   1fc66:	48 89 c7             	mov    %rax,%rdi
   1fc69:	e8 85 1a ff ff       	callq  116f3 <transparent_crc>
   1fc6e:	0f b7 05 4f 7d 00 00 	movzwl 0x7d4f(%rip),%eax        # 279c4 <g_2601>
   1fc75:	48 0f bf c0          	movswq %ax,%rax
   1fc79:	8b 55 fc             	mov    -0x4(%rbp),%edx
   1fc7c:	48 8d 35 47 26 00 00 	lea    0x2647(%rip),%rsi        # 222ca <g_2211+0x123a>
   1fc83:	48 89 c7             	mov    %rax,%rdi
   1fc86:	e8 68 1a ff ff       	callq  116f3 <transparent_crc>
   1fc8b:	0f b6 05 36 7d 00 00 	movzbl 0x7d36(%rip),%eax        # 279c8 <g_2680>
   1fc92:	48 0f be c0          	movsbq %al,%rax
   1fc96:	8b 55 fc             	mov    -0x4(%rbp),%edx
   1fc99:	48 8d 35 31 26 00 00 	lea    0x2631(%rip),%rsi        # 222d1 <g_2211+0x1241>
   1fca0:	48 89 c7             	mov    %rax,%rdi
   1fca3:	e8 4b 1a ff ff       	callq  116f3 <transparent_crc>
   1fca8:	8b 05 ba f4 00 00    	mov    0xf4ba(%rip),%eax        # 2f168 <g_2728>
   1fcae:	89 c1                	mov    %eax,%ecx
   1fcb0:	8b 45 fc             	mov    -0x4(%rbp),%eax
   1fcb3:	89 c2                	mov    %eax,%edx
   1fcb5:	48 8d 35 1f 26 00 00 	lea    0x261f(%rip),%rsi        # 222db <g_2211+0x124b>
   1fcbc:	48 89 cf             	mov    %rcx,%rdi
   1fcbf:	e8 2f 1a ff ff       	callq  116f3 <transparent_crc>
   1fcc4:	c7 45 f0 00 00 00 00 	movl   $0x0,-0x10(%rbp)
   1fccb:	e9 8c 00 00 00       	jmpq   1fd5c <main+0x11ec>
   1fcd0:	c7 45 f4 00 00 00 00 	movl   $0x0,-0xc(%rbp)
   1fcd7:	eb 79                	jmp    1fd52 <main+0x11e2>
   1fcd9:	c7 45 f8 00 00 00 00 	movl   $0x0,-0x8(%rbp)
   1fce0:	eb 66                	jmp    1fd48 <main+0x11d8>
   1fce2:	8b 45 f8             	mov    -0x8(%rbp),%eax
   1fce5:	48 63 c8             	movslq %eax,%rcx
   1fce8:	8b 45 f4             	mov    -0xc(%rbp),%eax
   1fceb:	48 63 d0             	movslq %eax,%rdx
   1fcee:	8b 45 f0             	mov    -0x10(%rbp),%eax
   1fcf1:	48 98                	cltq   
   1fcf3:	48 01 ca             	add    %rcx,%rdx
   1fcf6:	48 01 d0             	add    %rdx,%rax
   1fcf9:	48 8d 14 c5 00 00 00 	lea    0x0(,%rax,8),%rdx
   1fd00:	00 
   1fd01:	48 8d 05 d8 7c 00 00 	lea    0x7cd8(%rip),%rax        # 279e0 <g_2781>
   1fd08:	0f b6 04 02          	movzbl (%rdx,%rax,1),%eax
   1fd0c:	48 0f be c0          	movsbq %al,%rax
   1fd10:	8b 55 fc             	mov    -0x4(%rbp),%edx
   1fd13:	48 8d 35 c8 25 00 00 	lea    0x25c8(%rip),%rsi        # 222e2 <g_2211+0x1252>
   1fd1a:	48 89 c7             	mov    %rax,%rdi
   1fd1d:	e8 d1 19 ff ff       	callq  116f3 <transparent_crc>
   1fd22:	83 7d fc 00          	cmpl   $0x0,-0x4(%rbp)
   1fd26:	74 1c                	je     1fd44 <main+0x11d4>
   1fd28:	8b 4d f8             	mov    -0x8(%rbp),%ecx
   1fd2b:	8b 55 f4             	mov    -0xc(%rbp),%edx
   1fd2e:	8b 45 f0             	mov    -0x10(%rbp),%eax
   1fd31:	89 c6                	mov    %eax,%esi
   1fd33:	48 8d 3d bc 22 00 00 	lea    0x22bc(%rip),%rdi        # 21ff6 <g_2211+0xf66>
   1fd3a:	b8 00 00 00 00       	mov    $0x0,%eax
   1fd3f:	e8 3c 03 ff ff       	callq  10080 <printf@plt>
   1fd44:	83 45 f8 01          	addl   $0x1,-0x8(%rbp)
   1fd48:	83 7d f8 00          	cmpl   $0x0,-0x8(%rbp)
   1fd4c:	7e 94                	jle    1fce2 <main+0x1172>
   1fd4e:	83 45 f4 01          	addl   $0x1,-0xc(%rbp)
   1fd52:	83 7d f4 00          	cmpl   $0x0,-0xc(%rbp)
   1fd56:	7e 81                	jle    1fcd9 <main+0x1169>
   1fd58:	83 45 f0 01          	addl   $0x1,-0x10(%rbp)
   1fd5c:	83 7d f0 08          	cmpl   $0x8,-0x10(%rbp)
   1fd60:	0f 8e 6a ff ff ff    	jle    1fcd0 <main+0x1160>
   1fd66:	0f b6 05 bb 7c 00 00 	movzbl 0x7cbb(%rip),%eax        # 27a28 <g_2844>
   1fd6d:	48 0f be c0          	movsbq %al,%rax
   1fd71:	8b 55 fc             	mov    -0x4(%rbp),%edx
   1fd74:	48 8d 35 7a 25 00 00 	lea    0x257a(%rip),%rsi        # 222f5 <g_2211+0x1265>
   1fd7b:	48 89 c7             	mov    %rax,%rdi
   1fd7e:	e8 70 19 ff ff       	callq  116f3 <transparent_crc>
   1fd83:	0f b6 05 a6 7c 00 00 	movzbl 0x7ca6(%rip),%eax        # 27a30 <g_2879>
   1fd8a:	48 0f be c0          	movsbq %al,%rax
   1fd8e:	8b 55 fc             	mov    -0x4(%rbp),%edx
   1fd91:	48 8d 35 67 25 00 00 	lea    0x2567(%rip),%rsi        # 222ff <g_2211+0x126f>
   1fd98:	48 89 c7             	mov    %rax,%rdi
   1fd9b:	e8 53 19 ff ff       	callq  116f3 <transparent_crc>
   1fda0:	8b 05 8e 7c 00 00    	mov    0x7c8e(%rip),%eax        # 27a34 <g_3060>
   1fda6:	89 c1                	mov    %eax,%ecx
   1fda8:	8b 45 fc             	mov    -0x4(%rbp),%eax
   1fdab:	89 c2                	mov    %eax,%edx
   1fdad:	48 8d 35 52 25 00 00 	lea    0x2552(%rip),%rsi        # 22306 <g_2211+0x1276>
   1fdb4:	48 89 cf             	mov    %rcx,%rdi
   1fdb7:	e8 37 19 ff ff       	callq  116f3 <transparent_crc>
   1fdbc:	c7 45 f0 00 00 00 00 	movl   $0x0,-0x10(%rbp)
   1fdc3:	e9 a2 00 00 00       	jmpq   1fe6a <main+0x12fa>
   1fdc8:	c7 45 f4 00 00 00 00 	movl   $0x0,-0xc(%rbp)
   1fdcf:	e9 88 00 00 00       	jmpq   1fe5c <main+0x12ec>
   1fdd4:	c7 45 f8 00 00 00 00 	movl   $0x0,-0x8(%rbp)
   1fddb:	eb 75                	jmp    1fe52 <main+0x12e2>
   1fddd:	8b 45 f8             	mov    -0x8(%rbp),%eax
   1fde0:	48 63 c8             	movslq %eax,%rcx
   1fde3:	8b 45 f0             	mov    -0x10(%rbp),%eax
   1fde6:	48 63 d0             	movslq %eax,%rdx
   1fde9:	8b 45 f4             	mov    -0xc(%rbp),%eax
   1fdec:	48 63 f0             	movslq %eax,%rsi
   1fdef:	48 89 d0             	mov    %rdx,%rax
   1fdf2:	48 c1 e0 03          	shl    $0x3,%rax
   1fdf6:	48 29 d0             	sub    %rdx,%rax
   1fdf9:	48 01 f0             	add    %rsi,%rax
   1fdfc:	48 c1 e0 02          	shl    $0x2,%rax
   1fe00:	48 01 c8             	add    %rcx,%rax
   1fe03:	48 8d 14 c5 00 00 00 	lea    0x0(,%rax,8),%rdx
   1fe0a:	00 
   1fe0b:	48 8d 05 2e 7c 00 00 	lea    0x7c2e(%rip),%rax        # 27a40 <g_3204>
   1fe12:	0f b6 04 02          	movzbl (%rdx,%rax,1),%eax
   1fe16:	48 0f be c0          	movsbq %al,%rax
   1fe1a:	8b 55 fc             	mov    -0x4(%rbp),%edx
   1fe1d:	48 8d 35 e9 24 00 00 	lea    0x24e9(%rip),%rsi        # 2230d <g_2211+0x127d>
   1fe24:	48 89 c7             	mov    %rax,%rdi
   1fe27:	e8 c7 18 ff ff       	callq  116f3 <transparent_crc>
   1fe2c:	83 7d fc 00          	cmpl   $0x0,-0x4(%rbp)
   1fe30:	74 1c                	je     1fe4e <main+0x12de>
   1fe32:	8b 4d f8             	mov    -0x8(%rbp),%ecx
   1fe35:	8b 55 f4             	mov    -0xc(%rbp),%edx
   1fe38:	8b 45 f0             	mov    -0x10(%rbp),%eax
   1fe3b:	89 c6                	mov    %eax,%esi
   1fe3d:	48 8d 3d b2 21 00 00 	lea    0x21b2(%rip),%rdi        # 21ff6 <g_2211+0xf66>
   1fe44:	b8 00 00 00 00       	mov    $0x0,%eax
   1fe49:	e8 32 02 ff ff       	callq  10080 <printf@plt>
   1fe4e:	83 45 f8 01          	addl   $0x1,-0x8(%rbp)
   1fe52:	83 7d f8 03          	cmpl   $0x3,-0x8(%rbp)
   1fe56:	7e 85                	jle    1fddd <main+0x126d>
   1fe58:	83 45 f4 01          	addl   $0x1,-0xc(%rbp)
   1fe5c:	83 7d f4 06          	cmpl   $0x6,-0xc(%rbp)
   1fe60:	0f 8e 6e ff ff ff    	jle    1fdd4 <main+0x1264>
   1fe66:	83 45 f0 01          	addl   $0x1,-0x10(%rbp)
   1fe6a:	83 7d f0 07          	cmpl   $0x7,-0x10(%rbp)
   1fe6e:	0f 8e 54 ff ff ff    	jle    1fdc8 <main+0x1258>
   1fe74:	0f b6 05 c5 82 00 00 	movzbl 0x82c5(%rip),%eax        # 28140 <g_3367>
   1fe7b:	48 0f be c0          	movsbq %al,%rax
   1fe7f:	8b 55 fc             	mov    -0x4(%rbp),%edx
   1fe82:	48 8d 35 97 24 00 00 	lea    0x2497(%rip),%rsi        # 22320 <g_2211+0x1290>
   1fe89:	48 89 c7             	mov    %rax,%rdi
   1fe8c:	e8 62 18 ff ff       	callq  116f3 <transparent_crc>
   1fe91:	0f b6 05 ac 82 00 00 	movzbl 0x82ac(%rip),%eax        # 28144 <g_3370>
   1fe98:	48 0f be c0          	movsbq %al,%rax
   1fe9c:	8b 55 fc             	mov    -0x4(%rbp),%edx
   1fe9f:	48 8d 35 84 24 00 00 	lea    0x2484(%rip),%rsi        # 2232a <g_2211+0x129a>
   1fea6:	48 89 c7             	mov    %rax,%rdi
   1fea9:	e8 45 18 ff ff       	callq  116f3 <transparent_crc>
   1feae:	0f b6 05 93 82 00 00 	movzbl 0x8293(%rip),%eax        # 28148 <g_3701>
   1feb5:	0f b6 c0             	movzbl %al,%eax
   1feb8:	8b 55 fc             	mov    -0x4(%rbp),%edx
   1febb:	48 8d 35 72 24 00 00 	lea    0x2472(%rip),%rsi        # 22334 <g_2211+0x12a4>
   1fec2:	48 89 c7             	mov    %rax,%rdi
   1fec5:	e8 29 18 ff ff       	callq  116f3 <transparent_crc>
   1feca:	c7 45 f0 00 00 00 00 	movl   $0x0,-0x10(%rbp)
   1fed1:	eb 45                	jmp    1ff18 <main+0x13a8>
   1fed3:	8b 45 f0             	mov    -0x10(%rbp),%eax
   1fed6:	48 98                	cltq   
   1fed8:	48 8d 15 71 82 00 00 	lea    0x8271(%rip),%rdx        # 28150 <g_3704>
   1fedf:	0f b6 04 10          	movzbl (%rax,%rdx,1),%eax
   1fee3:	0f b6 c0             	movzbl %al,%eax
   1fee6:	8b 55 fc             	mov    -0x4(%rbp),%edx
   1fee9:	48 8d 35 4b 24 00 00 	lea    0x244b(%rip),%rsi        # 2233b <g_2211+0x12ab>
   1fef0:	48 89 c7             	mov    %rax,%rdi
   1fef3:	e8 fb 17 ff ff       	callq  116f3 <transparent_crc>
   1fef8:	83 7d fc 00          	cmpl   $0x0,-0x4(%rbp)
   1fefc:	74 16                	je     1ff14 <main+0x13a4>
   1fefe:	8b 45 f0             	mov    -0x10(%rbp),%eax
   1ff01:	89 c6                	mov    %eax,%esi
   1ff03:	48 8d 3d 7b 20 00 00 	lea    0x207b(%rip),%rdi        # 21f85 <g_2211+0xef5>
   1ff0a:	b8 00 00 00 00       	mov    $0x0,%eax
   1ff0f:	e8 6c 01 ff ff       	callq  10080 <printf@plt>
   1ff14:	83 45 f0 01          	addl   $0x1,-0x10(%rbp)
   1ff18:	83 7d f0 09          	cmpl   $0x9,-0x10(%rbp)
   1ff1c:	7e b5                	jle    1fed3 <main+0x1363>
   1ff1e:	48 8b 05 83 f2 00 00 	mov    0xf283(%rip),%rax        # 2f1a8 <g_3767>
   1ff25:	8b 55 fc             	mov    -0x4(%rbp),%edx
   1ff28:	48 8d 35 16 24 00 00 	lea    0x2416(%rip),%rsi        # 22345 <g_2211+0x12b5>
   1ff2f:	48 89 c7             	mov    %rax,%rdi
   1ff32:	e8 bc 17 ff ff       	callq  116f3 <transparent_crc>
   1ff37:	0f b6 05 22 82 00 00 	movzbl 0x8222(%rip),%eax        # 28160 <g_3794>
   1ff3e:	48 0f be c0          	movsbq %al,%rax
   1ff42:	8b 55 fc             	mov    -0x4(%rbp),%edx
   1ff45:	48 8d 35 00 24 00 00 	lea    0x2400(%rip),%rsi        # 2234c <g_2211+0x12bc>
   1ff4c:	48 89 c7             	mov    %rax,%rdi
   1ff4f:	e8 9f 17 ff ff       	callq  116f3 <transparent_crc>
   1ff54:	0f b6 05 0d 82 00 00 	movzbl 0x820d(%rip),%eax        # 28168 <g_3796>
   1ff5b:	48 0f be c0          	movsbq %al,%rax
   1ff5f:	8b 55 fc             	mov    -0x4(%rbp),%edx
   1ff62:	48 8d 35 ed 23 00 00 	lea    0x23ed(%rip),%rsi        # 22356 <g_2211+0x12c6>
   1ff69:	48 89 c7             	mov    %rax,%rdi
   1ff6c:	e8 82 17 ff ff       	callq  116f3 <transparent_crc>
   1ff71:	0f b6 05 38 f2 00 00 	movzbl 0xf238(%rip),%eax        # 2f1b0 <g_3797>
   1ff78:	48 0f be c0          	movsbq %al,%rax
   1ff7c:	8b 55 fc             	mov    -0x4(%rbp),%edx
   1ff7f:	48 8d 35 da 23 00 00 	lea    0x23da(%rip),%rsi        # 22360 <g_2211+0x12d0>
   1ff86:	48 89 c7             	mov    %rax,%rdi
   1ff89:	e8 65 17 ff ff       	callq  116f3 <transparent_crc>
   1ff8e:	c7 45 f0 00 00 00 00 	movl   $0x0,-0x10(%rbp)
   1ff95:	eb 4e                	jmp    1ffe5 <main+0x1475>
   1ff97:	8b 45 f0             	mov    -0x10(%rbp),%eax
   1ff9a:	48 98                	cltq   
   1ff9c:	48 8d 14 c5 00 00 00 	lea    0x0(,%rax,8),%rdx
   1ffa3:	00 
   1ffa4:	48 8d 05 d5 81 00 00 	lea    0x81d5(%rip),%rax        # 28180 <g_3798>
   1ffab:	0f b6 04 02          	movzbl (%rdx,%rax,1),%eax
   1ffaf:	48 0f be c0          	movsbq %al,%rax
   1ffb3:	8b 55 fc             	mov    -0x4(%rbp),%edx
   1ffb6:	48 8d 35 ad 23 00 00 	lea    0x23ad(%rip),%rsi        # 2236a <g_2211+0x12da>
   1ffbd:	48 89 c7             	mov    %rax,%rdi
   1ffc0:	e8 2e 17 ff ff       	callq  116f3 <transparent_crc>
   1ffc5:	83 7d fc 00          	cmpl   $0x0,-0x4(%rbp)
   1ffc9:	74 16                	je     1ffe1 <main+0x1471>
   1ffcb:	8b 45 f0             	mov    -0x10(%rbp),%eax
   1ffce:	89 c6                	mov    %eax,%esi
   1ffd0:	48 8d 3d ae 1f 00 00 	lea    0x1fae(%rip),%rdi        # 21f85 <g_2211+0xef5>
   1ffd7:	b8 00 00 00 00       	mov    $0x0,%eax
   1ffdc:	e8 9f 00 ff ff       	callq  10080 <printf@plt>
   1ffe1:	83 45 f0 01          	addl   $0x1,-0x10(%rbp)
   1ffe5:	83 7d f0 03          	cmpl   $0x3,-0x10(%rbp)
   1ffe9:	7e ac                	jle    1ff97 <main+0x1427>
   1ffeb:	0f b6 05 ae 81 00 00 	movzbl 0x81ae(%rip),%eax        # 281a0 <g_3799>
   1fff2:	48 0f be c0          	movsbq %al,%rax
   1fff6:	8b 55 fc             	mov    -0x4(%rbp),%edx
   1fff9:	48 8d 35 77 23 00 00 	lea    0x2377(%rip),%rsi        # 22377 <g_2211+0x12e7>
   20000:	48 89 c7             	mov    %rax,%rdi
   20003:	e8 eb 16 ff ff       	callq  116f3 <transparent_crc>
   20008:	0f b6 05 a9 f1 00 00 	movzbl 0xf1a9(%rip),%eax        # 2f1b8 <g_3800>
   2000f:	48 0f be c0          	movsbq %al,%rax
   20013:	8b 55 fc             	mov    -0x4(%rbp),%edx
   20016:	48 8d 35 64 23 00 00 	lea    0x2364(%rip),%rsi        # 22381 <g_2211+0x12f1>
   2001d:	48 89 c7             	mov    %rax,%rdi
   20020:	e8 ce 16 ff ff       	callq  116f3 <transparent_crc>
   20025:	c7 45 f0 00 00 00 00 	movl   $0x0,-0x10(%rbp)
   2002c:	e9 94 00 00 00       	jmpq   200c5 <main+0x1555>
   20031:	c7 45 f4 00 00 00 00 	movl   $0x0,-0xc(%rbp)
   20038:	eb 7d                	jmp    200b7 <main+0x1547>
   2003a:	c7 45 f8 00 00 00 00 	movl   $0x0,-0x8(%rbp)
   20041:	eb 6a                	jmp    200ad <main+0x153d>
   20043:	8b 45 f8             	mov    -0x8(%rbp),%eax
   20046:	48 98                	cltq   
   20048:	8b 55 f0             	mov    -0x10(%rbp),%edx
   2004b:	48 63 ca             	movslq %edx,%rcx
   2004e:	8b 55 f4             	mov    -0xc(%rbp),%edx
   20051:	48 63 d2             	movslq %edx,%rdx
   20054:	48 01 ca             	add    %rcx,%rdx
   20057:	48 c1 e2 02          	shl    $0x2,%rdx
   2005b:	48 01 d0             	add    %rdx,%rax
   2005e:	48 8d 14 c5 00 00 00 	lea    0x0(,%rax,8),%rdx
   20065:	00 
   20066:	48 8d 05 53 81 00 00 	lea    0x8153(%rip),%rax        # 281c0 <g_3801>
   2006d:	0f b6 04 02          	movzbl (%rdx,%rax,1),%eax
   20071:	48 0f be c0          	movsbq %al,%rax
   20075:	8b 55 fc             	mov    -0x4(%rbp),%edx
   20078:	48 8d 35 0c 23 00 00 	lea    0x230c(%rip),%rsi        # 2238b <g_2211+0x12fb>
   2007f:	48 89 c7             	mov    %rax,%rdi
   20082:	e8 6c 16 ff ff       	callq  116f3 <transparent_crc>
   20087:	83 7d fc 00          	cmpl   $0x0,-0x4(%rbp)
   2008b:	74 1c                	je     200a9 <main+0x1539>
   2008d:	8b 4d f8             	mov    -0x8(%rbp),%ecx
   20090:	8b 55 f4             	mov    -0xc(%rbp),%edx
   20093:	8b 45 f0             	mov    -0x10(%rbp),%eax
   20096:	89 c6                	mov    %eax,%esi
   20098:	48 8d 3d 57 1f 00 00 	lea    0x1f57(%rip),%rdi        # 21ff6 <g_2211+0xf66>
   2009f:	b8 00 00 00 00       	mov    $0x0,%eax
   200a4:	e8 d7 ff fe ff       	callq  10080 <printf@plt>
   200a9:	83 45 f8 01          	addl   $0x1,-0x8(%rbp)
   200ad:	83 7d f8 03          	cmpl   $0x3,-0x8(%rbp)
   200b1:	7e 90                	jle    20043 <main+0x14d3>
   200b3:	83 45 f4 01          	addl   $0x1,-0xc(%rbp)
   200b7:	83 7d f4 00          	cmpl   $0x0,-0xc(%rbp)
   200bb:	0f 8e 79 ff ff ff    	jle    2003a <main+0x14ca>
   200c1:	83 45 f0 01          	addl   $0x1,-0x10(%rbp)
   200c5:	83 7d f0 03          	cmpl   $0x3,-0x10(%rbp)
   200c9:	0f 8e 62 ff ff ff    	jle    20031 <main+0x14c1>
   200cf:	0f b6 05 6a 81 00 00 	movzbl 0x816a(%rip),%eax        # 28240 <g_3802>
   200d6:	48 0f be c0          	movsbq %al,%rax
   200da:	8b 55 fc             	mov    -0x4(%rbp),%edx
   200dd:	48 8d 35 ba 22 00 00 	lea    0x22ba(%rip),%rsi        # 2239e <g_2211+0x130e>
   200e4:	48 89 c7             	mov    %rax,%rdi
   200e7:	e8 07 16 ff ff       	callq  116f3 <transparent_crc>
   200ec:	0f b6 05 55 81 00 00 	movzbl 0x8155(%rip),%eax        # 28248 <g_3803>
   200f3:	48 0f be c0          	movsbq %al,%rax
   200f7:	8b 55 fc             	mov    -0x4(%rbp),%edx
   200fa:	48 8d 35 a7 22 00 00 	lea    0x22a7(%rip),%rsi        # 223a8 <g_2211+0x1318>
   20101:	48 89 c7             	mov    %rax,%rdi
   20104:	e8 ea 15 ff ff       	callq  116f3 <transparent_crc>
   20109:	0f b6 05 40 81 00 00 	movzbl 0x8140(%rip),%eax        # 28250 <g_3804>
   20110:	48 0f be c0          	movsbq %al,%rax
   20114:	8b 55 fc             	mov    -0x4(%rbp),%edx
   20117:	48 8d 35 94 22 00 00 	lea    0x2294(%rip),%rsi        # 223b2 <g_2211+0x1322>
   2011e:	48 89 c7             	mov    %rax,%rdi
   20121:	e8 cd 15 ff ff       	callq  116f3 <transparent_crc>
   20126:	0f b6 05 2b 81 00 00 	movzbl 0x812b(%rip),%eax        # 28258 <g_3859>
   2012d:	48 0f be c0          	movsbq %al,%rax
   20131:	8b 55 fc             	mov    -0x4(%rbp),%edx
   20134:	48 8d 35 81 22 00 00 	lea    0x2281(%rip),%rsi        # 223bc <g_2211+0x132c>
   2013b:	48 89 c7             	mov    %rax,%rdi
   2013e:	e8 b0 15 ff ff       	callq  116f3 <transparent_crc>
   20143:	c7 45 f0 00 00 00 00 	movl   $0x0,-0x10(%rbp)
   2014a:	eb 4a                	jmp    20196 <main+0x1626>
   2014c:	8b 45 f0             	mov    -0x10(%rbp),%eax
   2014f:	48 98                	cltq   
   20151:	48 8d 14 c5 00 00 00 	lea    0x0(,%rax,8),%rdx
   20158:	00 
   20159:	48 8d 05 00 81 00 00 	lea    0x8100(%rip),%rax        # 28260 <g_3897>
   20160:	48 8b 04 02          	mov    (%rdx,%rax,1),%rax
   20164:	8b 55 fc             	mov    -0x4(%rbp),%edx
   20167:	48 8d 35 58 22 00 00 	lea    0x2258(%rip),%rsi        # 223c6 <g_2211+0x1336>
   2016e:	48 89 c7             	mov    %rax,%rdi
   20171:	e8 7d 15 ff ff       	callq  116f3 <transparent_crc>
   20176:	83 7d fc 00          	cmpl   $0x0,-0x4(%rbp)
   2017a:	74 16                	je     20192 <main+0x1622>
   2017c:	8b 45 f0             	mov    -0x10(%rbp),%eax
   2017f:	89 c6                	mov    %eax,%esi
   20181:	48 8d 3d fd 1d 00 00 	lea    0x1dfd(%rip),%rdi        # 21f85 <g_2211+0xef5>
   20188:	b8 00 00 00 00       	mov    $0x0,%eax
   2018d:	e8 ee fe fe ff       	callq  10080 <printf@plt>
   20192:	83 45 f0 01          	addl   $0x1,-0x10(%rbp)
   20196:	83 7d f0 01          	cmpl   $0x1,-0x10(%rbp)
   2019a:	7e b0                	jle    2014c <main+0x15dc>
   2019c:	c7 45 f0 00 00 00 00 	movl   $0x0,-0x10(%rbp)
   201a3:	e9 9c 00 00 00       	jmpq   20244 <main+0x16d4>
   201a8:	c7 45 f4 00 00 00 00 	movl   $0x0,-0xc(%rbp)
   201af:	e9 82 00 00 00       	jmpq   20236 <main+0x16c6>
   201b4:	c7 45 f8 00 00 00 00 	movl   $0x0,-0x8(%rbp)
   201bb:	eb 6f                	jmp    2022c <main+0x16bc>
   201bd:	8b 45 f8             	mov    -0x8(%rbp),%eax
   201c0:	48 63 c8             	movslq %eax,%rcx
   201c3:	8b 45 f0             	mov    -0x10(%rbp),%eax
   201c6:	48 63 d0             	movslq %eax,%rdx
   201c9:	8b 45 f4             	mov    -0xc(%rbp),%eax
   201cc:	48 98                	cltq   
   201ce:	48 01 c2             	add    %rax,%rdx
   201d1:	48 89 d0             	mov    %rdx,%rax
   201d4:	48 c1 e0 02          	shl    $0x2,%rax
   201d8:	48 01 d0             	add    %rdx,%rax
   201db:	48 01 c8             	add    %rcx,%rax
   201de:	48 8d 14 85 00 00 00 	lea    0x0(,%rax,4),%rdx
   201e5:	00 
   201e6:	48 8d 05 93 80 00 00 	lea    0x8093(%rip),%rax        # 28280 <g_3946>
   201ed:	8b 04 02             	mov    (%rdx,%rax,1),%eax
   201f0:	89 c1                	mov    %eax,%ecx
   201f2:	8b 45 fc             	mov    -0x4(%rbp),%eax
   201f5:	89 c2                	mov    %eax,%edx
   201f7:	48 8d 35 d2 21 00 00 	lea    0x21d2(%rip),%rsi        # 223d0 <g_2211+0x1340>
   201fe:	48 89 cf             	mov    %rcx,%rdi
   20201:	e8 ed 14 ff ff       	callq  116f3 <transparent_crc>
   20206:	83 7d fc 00          	cmpl   $0x0,-0x4(%rbp)
   2020a:	74 1c                	je     20228 <main+0x16b8>
   2020c:	8b 4d f8             	mov    -0x8(%rbp),%ecx
   2020f:	8b 55 f4             	mov    -0xc(%rbp),%edx
   20212:	8b 45 f0             	mov    -0x10(%rbp),%eax
   20215:	89 c6                	mov    %eax,%esi
   20217:	48 8d 3d d8 1d 00 00 	lea    0x1dd8(%rip),%rdi        # 21ff6 <g_2211+0xf66>
   2021e:	b8 00 00 00 00       	mov    $0x0,%eax
   20223:	e8 58 fe fe ff       	callq  10080 <printf@plt>
   20228:	83 45 f8 01          	addl   $0x1,-0x8(%rbp)
   2022c:	83 7d f8 04          	cmpl   $0x4,-0x8(%rbp)
   20230:	7e 8b                	jle    201bd <main+0x164d>
   20232:	83 45 f4 01          	addl   $0x1,-0xc(%rbp)
   20236:	83 7d f4 00          	cmpl   $0x0,-0xc(%rbp)
   2023a:	0f 8e 74 ff ff ff    	jle    201b4 <main+0x1644>
   20240:	83 45 f0 01          	addl   $0x1,-0x10(%rbp)
   20244:	83 7d f0 04          	cmpl   $0x4,-0x10(%rbp)
   20248:	0f 8e 5a ff ff ff    	jle    201a8 <main+0x1638>
   2024e:	c7 45 f0 00 00 00 00 	movl   $0x0,-0x10(%rbp)
   20255:	e9 b8 00 00 00       	jmpq   20312 <main+0x17a2>
   2025a:	c7 45 f4 00 00 00 00 	movl   $0x0,-0xc(%rbp)
   20261:	e9 9e 00 00 00       	jmpq   20304 <main+0x1794>
   20266:	c7 45 f8 00 00 00 00 	movl   $0x0,-0x8(%rbp)
   2026d:	e9 84 00 00 00       	jmpq   202f6 <main+0x1786>
   20272:	8b 45 f8             	mov    -0x8(%rbp),%eax
   20275:	48 63 f0             	movslq %eax,%rsi
   20278:	8b 45 f0             	mov    -0x10(%rbp),%eax
   2027b:	48 63 d0             	movslq %eax,%rdx
   2027e:	8b 45 f4             	mov    -0xc(%rbp),%eax
   20281:	48 63 c8             	movslq %eax,%rcx
   20284:	48 89 d0             	mov    %rdx,%rax
   20287:	48 01 c0             	add    %rax,%rax
   2028a:	48 01 d0             	add    %rdx,%rax
   2028d:	48 89 c2             	mov    %rax,%rdx
   20290:	48 c1 e2 04          	shl    $0x4,%rdx
   20294:	48 29 c2             	sub    %rax,%rdx
   20297:	48 89 c8             	mov    %rcx,%rax
   2029a:	48 c1 e0 02          	shl    $0x2,%rax
   2029e:	48 01 c8             	add    %rcx,%rax
   202a1:	48 01 d0             	add    %rdx,%rax
   202a4:	48 01 f0             	add    %rsi,%rax
   202a7:	48 8d 14 c5 00 00 00 	lea    0x0(,%rax,8),%rdx
   202ae:	00 
   202af:	48 8d 05 4a 80 00 00 	lea    0x804a(%rip),%rax        # 28300 <g_4029>
   202b6:	0f b6 04 02          	movzbl (%rdx,%rax,1),%eax
   202ba:	48 0f be c0          	movsbq %al,%rax
   202be:	8b 55 fc             	mov    -0x4(%rbp),%edx
   202c1:	48 8d 35 18 21 00 00 	lea    0x2118(%rip),%rsi        # 223e0 <g_2211+0x1350>
   202c8:	48 89 c7             	mov    %rax,%rdi
   202cb:	e8 23 14 ff ff       	callq  116f3 <transparent_crc>
   202d0:	83 7d fc 00          	cmpl   $0x0,-0x4(%rbp)
   202d4:	74 1c                	je     202f2 <main+0x1782>
   202d6:	8b 4d f8             	mov    -0x8(%rbp),%ecx
   202d9:	8b 55 f4             	mov    -0xc(%rbp),%edx
   202dc:	8b 45 f0             	mov    -0x10(%rbp),%eax
   202df:	89 c6                	mov    %eax,%esi
   202e1:	48 8d 3d 0e 1d 00 00 	lea    0x1d0e(%rip),%rdi        # 21ff6 <g_2211+0xf66>
   202e8:	b8 00 00 00 00       	mov    $0x0,%eax
   202ed:	e8 8e fd fe ff       	callq  10080 <printf@plt>
   202f2:	83 45 f8 01          	addl   $0x1,-0x8(%rbp)
   202f6:	83 7d f8 04          	cmpl   $0x4,-0x8(%rbp)
   202fa:	0f 8e 72 ff ff ff    	jle    20272 <main+0x1702>
   20300:	83 45 f4 01          	addl   $0x1,-0xc(%rbp)
   20304:	83 7d f4 08          	cmpl   $0x8,-0xc(%rbp)
   20308:	0f 8e 58 ff ff ff    	jle    20266 <main+0x16f6>
   2030e:	83 45 f0 01          	addl   $0x1,-0x10(%rbp)
   20312:	83 7d f0 04          	cmpl   $0x4,-0x10(%rbp)
   20316:	0f 8e 3e ff ff ff    	jle    2025a <main+0x16ea>
   2031c:	0f b6 05 e5 86 00 00 	movzbl 0x86e5(%rip),%eax        # 28a08 <g_4057>
   20323:	48 0f be c0          	movsbq %al,%rax
   20327:	8b 55 fc             	mov    -0x4(%rbp),%edx
   2032a:	48 8d 35 c2 20 00 00 	lea    0x20c2(%rip),%rsi        # 223f3 <g_2211+0x1363>
   20331:	48 89 c7             	mov    %rax,%rdi
   20334:	e8 ba 13 ff ff       	callq  116f3 <transparent_crc>
   20339:	0f b6 05 d0 86 00 00 	movzbl 0x86d0(%rip),%eax        # 28a10 <g_4215>
   20340:	48 0f be c0          	movsbq %al,%rax
   20344:	8b 55 fc             	mov    -0x4(%rbp),%edx
   20347:	48 8d 35 af 20 00 00 	lea    0x20af(%rip),%rsi        # 223fd <g_2211+0x136d>
   2034e:	48 89 c7             	mov    %rax,%rdi
   20351:	e8 9d 13 ff ff       	callq  116f3 <transparent_crc>
   20356:	c7 45 f0 00 00 00 00 	movl   $0x0,-0x10(%rbp)
   2035d:	eb 46                	jmp    203a5 <main+0x1835>
   2035f:	8b 45 f0             	mov    -0x10(%rbp),%eax
   20362:	48 98                	cltq   
   20364:	48 8d 15 a6 86 00 00 	lea    0x86a6(%rip),%rdx        # 28a11 <g_4240>
   2036b:	0f b6 04 10          	movzbl (%rax,%rdx,1),%eax
   2036f:	48 0f be c0          	movsbq %al,%rax
   20373:	8b 55 fc             	mov    -0x4(%rbp),%edx
   20376:	48 8d 35 87 20 00 00 	lea    0x2087(%rip),%rsi        # 22404 <g_2211+0x1374>
   2037d:	48 89 c7             	mov    %rax,%rdi
   20380:	e8 6e 13 ff ff       	callq  116f3 <transparent_crc>
   20385:	83 7d fc 00          	cmpl   $0x0,-0x4(%rbp)
   20389:	74 16                	je     203a1 <main+0x1831>
   2038b:	8b 45 f0             	mov    -0x10(%rbp),%eax
   2038e:	89 c6                	mov    %eax,%esi
   20390:	48 8d 3d ee 1b 00 00 	lea    0x1bee(%rip),%rdi        # 21f85 <g_2211+0xef5>
   20397:	b8 00 00 00 00       	mov    $0x0,%eax
   2039c:	e8 df fc fe ff       	callq  10080 <printf@plt>
   203a1:	83 45 f0 01          	addl   $0x1,-0x10(%rbp)
   203a5:	83 7d f0 05          	cmpl   $0x5,-0x10(%rbp)
   203a9:	7e b4                	jle    2035f <main+0x17ef>
   203ab:	0f b6 05 66 86 00 00 	movzbl 0x8666(%rip),%eax        # 28a18 <g_4269>
   203b2:	48 0f be c0          	movsbq %al,%rax
   203b6:	8b 55 fc             	mov    -0x4(%rbp),%edx
   203b9:	48 8d 35 4e 20 00 00 	lea    0x204e(%rip),%rsi        # 2240e <g_2211+0x137e>
   203c0:	48 89 c7             	mov    %rax,%rdi
   203c3:	e8 2b 13 ff ff       	callq  116f3 <transparent_crc>
   203c8:	8b 05 52 86 00 00    	mov    0x8652(%rip),%eax        # 28a20 <g_4285>
   203ce:	48 98                	cltq   
   203d0:	8b 55 fc             	mov    -0x4(%rbp),%edx
   203d3:	48 8d 35 3e 20 00 00 	lea    0x203e(%rip),%rsi        # 22418 <g_2211+0x1388>
   203da:	48 89 c7             	mov    %rax,%rdi
   203dd:	e8 11 13 ff ff       	callq  116f3 <transparent_crc>
   203e2:	0f b6 05 3f 86 00 00 	movzbl 0x863f(%rip),%eax        # 28a28 <g_4305>
   203e9:	48 0f be c0          	movsbq %al,%rax
   203ed:	8b 55 fc             	mov    -0x4(%rbp),%edx
   203f0:	48 8d 35 28 20 00 00 	lea    0x2028(%rip),%rsi        # 2241f <g_2211+0x138f>
   203f7:	48 89 c7             	mov    %rax,%rdi
   203fa:	e8 f4 12 ff ff       	callq  116f3 <transparent_crc>
   203ff:	8b 05 1b 5c 00 00    	mov    0x5c1b(%rip),%eax        # 26020 <crc32_context>
   20405:	f7 d0                	not    %eax
   20407:	89 c2                	mov    %eax,%edx
   20409:	8b 45 fc             	mov    -0x4(%rbp),%eax
   2040c:	89 c6                	mov    %eax,%esi
   2040e:	89 d7                	mov    %edx,%edi
   20410:	e8 7f fd fe ff       	callq  10194 <platform_main_end>
   20415:	b8 00 00 00 00       	mov    $0x0,%eax
   2041a:	c9                   	leaveq 
   2041b:	c3                   	retq   
   2041c:	0f 1f 40 00          	nopl   0x0(%rax)

0000000000020420 <__libc_csu_init>:
   20420:	f3 0f 1e fa          	endbr64 
   20424:	41 57                	push   %r15
   20426:	4c 8d 3d 83 51 00 00 	lea    0x5183(%rip),%r15        # 255b0 <__frame_dummy_init_array_entry>
   2042d:	41 56                	push   %r14
   2042f:	49 89 d6             	mov    %rdx,%r14
   20432:	41 55                	push   %r13
   20434:	49 89 f5             	mov    %rsi,%r13
   20437:	41 54                	push   %r12
   20439:	41 89 fc             	mov    %edi,%r12d
   2043c:	55                   	push   %rbp
   2043d:	48 8d 2d 74 51 00 00 	lea    0x5174(%rip),%rbp        # 255b8 <__do_global_dtors_aux_fini_array_entry>
   20444:	53                   	push   %rbx
   20445:	4c 29 fd             	sub    %r15,%rbp
   20448:	48 83 ec 08          	sub    $0x8,%rsp
   2044c:	e8 af fb fe ff       	callq  10000 <_init>
   20451:	48 c1 fd 03          	sar    $0x3,%rbp
   20455:	74 1f                	je     20476 <__libc_csu_init+0x56>
   20457:	31 db                	xor    %ebx,%ebx
   20459:	0f 1f 80 00 00 00 00 	nopl   0x0(%rax)
   20460:	4c 89 f2             	mov    %r14,%rdx
   20463:	4c 89 ee             	mov    %r13,%rsi
   20466:	44 89 e7             	mov    %r12d,%edi
   20469:	41 ff 14 df          	callq  *(%r15,%rbx,8)
   2046d:	48 83 c3 01          	add    $0x1,%rbx
   20471:	48 39 dd             	cmp    %rbx,%rbp
   20474:	75 ea                	jne    20460 <__libc_csu_init+0x40>
   20476:	48 83 c4 08          	add    $0x8,%rsp
   2047a:	5b                   	pop    %rbx
   2047b:	5d                   	pop    %rbp
   2047c:	41 5c                	pop    %r12
   2047e:	41 5d                	pop    %r13
   20480:	41 5e                	pop    %r14
   20482:	41 5f                	pop    %r15
   20484:	c3                   	retq   
   20485:	66 66 2e 0f 1f 84 00 	data16 nopw %cs:0x0(%rax,%rax,1)
   2048c:	00 00 00 00 

0000000000020490 <__libc_csu_fini>:
   20490:	f3 0f 1e fa          	endbr64 
   20494:	c3                   	retq   
