


Disassembly of section .text:

00000000000090a0 <_start>:
    90a0:	f3 0f 1e fa          	endbr64 
    90a4:	31 ed                	xor    %ebp,%ebp
    90a6:	49 89 d1             	mov    %rdx,%r9
    90a9:	5e                   	pop    %rsi
    90aa:	48 89 e2             	mov    %rsp,%rdx
    90ad:	48 83 e4 f0          	and    $0xfffffffffffffff0,%rsp
    90b1:	50                   	push   %rax
    90b2:	54                   	push   %rsp
    90b3:	4c 8d 05 c6 fb 00 00 	lea    0xfbc6(%rip),%r8        # 18c80 <__libc_csu_fini>
    90ba:	48 8d 0d 4f fb 00 00 	lea    0xfb4f(%rip),%rcx        # 18c10 <__libc_csu_init>
    90c1:	48 8d 3d 03 e1 00 00 	lea    0xe103(%rip),%rdi        # 171cb <main>
    90c8:	ff 15 12 4f 01 00    	callq  *0x14f12(%rip)        # 1dfe0 <__libc_start_main@GLIBC_2.2.5>
    90ce:	f4                   	hlt    
    90cf:	90                   	nop

00000000000090d0 <deregister_tm_clones>:
    90d0:	48 8d 3d c9 b3 01 00 	lea    0x1b3c9(%rip),%rdi        # 244a0 <__TMC_END__>
    90d7:	48 8d 05 c2 b3 01 00 	lea    0x1b3c2(%rip),%rax        # 244a0 <__TMC_END__>
    90de:	48 39 f8             	cmp    %rdi,%rax
    90e1:	74 15                	je     90f8 <deregister_tm_clones+0x28>
    90e3:	48 8b 05 ee 4e 01 00 	mov    0x14eee(%rip),%rax        # 1dfd8 <_ITM_deregisterTMCloneTable>
    90ea:	48 85 c0             	test   %rax,%rax
    90ed:	74 09                	je     90f8 <deregister_tm_clones+0x28>
    90ef:	ff e0                	jmpq   *%rax
    90f1:	0f 1f 80 00 00 00 00 	nopl   0x0(%rax)
    90f8:	c3                   	retq   
    90f9:	0f 1f 80 00 00 00 00 	nopl   0x0(%rax)

0000000000009100 <register_tm_clones>:
    9100:	48 8d 3d 99 b3 01 00 	lea    0x1b399(%rip),%rdi        # 244a0 <__TMC_END__>
    9107:	48 8d 35 92 b3 01 00 	lea    0x1b392(%rip),%rsi        # 244a0 <__TMC_END__>
    910e:	48 29 fe             	sub    %rdi,%rsi
    9111:	48 89 f0             	mov    %rsi,%rax
    9114:	48 c1 ee 3f          	shr    $0x3f,%rsi
    9118:	48 c1 f8 03          	sar    $0x3,%rax
    911c:	48 01 c6             	add    %rax,%rsi
    911f:	48 d1 fe             	sar    %rsi
    9122:	74 14                	je     9138 <register_tm_clones+0x38>
    9124:	48 8b 05 c5 4e 01 00 	mov    0x14ec5(%rip),%rax        # 1dff0 <_ITM_registerTMCloneTable>
    912b:	48 85 c0             	test   %rax,%rax
    912e:	74 08                	je     9138 <register_tm_clones+0x38>
    9130:	ff e0                	jmpq   *%rax
    9132:	66 0f 1f 44 00 00    	nopw   0x0(%rax,%rax,1)
    9138:	c3                   	retq   
    9139:	0f 1f 80 00 00 00 00 	nopl   0x0(%rax)

0000000000009140 <__do_global_dtors_aux>:
    9140:	f3 0f 1e fa          	endbr64 
    9144:	80 3d 55 b3 01 00 00 	cmpb   $0x0,0x1b355(%rip)        # 244a0 <__TMC_END__>
    914b:	75 2b                	jne    9178 <__do_global_dtors_aux+0x38>
    914d:	55                   	push   %rbp
    914e:	48 83 3d a2 4e 01 00 	cmpq   $0x0,0x14ea2(%rip)        # 1dff8 <__cxa_finalize@GLIBC_2.2.5>
    9155:	00 
    9156:	48 89 e5             	mov    %rsp,%rbp
    9159:	74 0c                	je     9167 <__do_global_dtors_aux+0x27>
    915b:	48 8b 3d a6 4e 01 00 	mov    0x14ea6(%rip),%rdi        # 1e008 <__dso_handle>
    9162:	e8 f9 fe ff ff       	callq  9060 <__cxa_finalize@plt>
    9167:	e8 64 ff ff ff       	callq  90d0 <deregister_tm_clones>
    916c:	c6 05 2d b3 01 00 01 	movb   $0x1,0x1b32d(%rip)        # 244a0 <__TMC_END__>
    9173:	5d                   	pop    %rbp
    9174:	c3                   	retq   
    9175:	0f 1f 00             	nopl   (%rax)
    9178:	c3                   	retq   
    9179:	0f 1f 80 00 00 00 00 	nopl   0x0(%rax)

0000000000009180 <frame_dummy>:
    9180:	f3 0f 1e fa          	endbr64 
    9184:	e9 77 ff ff ff       	jmpq   9100 <register_tm_clones>

0000000000009189 <platform_main_begin>:
    9189:	f3 0f 1e fa          	endbr64 
    918d:	55                   	push   %rbp
    918e:	48 89 e5             	mov    %rsp,%rbp
    9191:	90                   	nop
    9192:	5d                   	pop    %rbp
    9193:	c3                   	retq   

0000000000009194 <platform_main_end>:
    9194:	f3 0f 1e fa          	endbr64 
    9198:	55                   	push   %rbp
    9199:	48 89 e5             	mov    %rsp,%rbp
    919c:	48 83 ec 10          	sub    $0x10,%rsp
    91a0:	89 7d fc             	mov    %edi,-0x4(%rbp)
    91a3:	89 75 f8             	mov    %esi,-0x8(%rbp)
    91a6:	8b 45 fc             	mov    -0x4(%rbp),%eax
    91a9:	89 c6                	mov    %eax,%esi
    91ab:	48 8d 3d 6e fe 00 00 	lea    0xfe6e(%rip),%rdi        # 19020 <_IO_stdin_used+0x20>
    91b2:	b8 00 00 00 00       	mov    $0x0,%eax
    91b7:	e8 c4 fe ff ff       	callq  9080 <printf@plt>
    91bc:	90                   	nop
    91bd:	c9                   	leaveq 
    91be:	c3                   	retq   

00000000000091bf <safe_unary_minus_func_int8_t_s>:
    91bf:	f3 0f 1e fa          	endbr64 
    91c3:	55                   	push   %rbp
    91c4:	48 89 e5             	mov    %rsp,%rbp
    91c7:	89 f8                	mov    %edi,%eax
    91c9:	88 45 fc             	mov    %al,-0x4(%rbp)
    91cc:	0f b6 45 fc          	movzbl -0x4(%rbp),%eax
    91d0:	f7 d8                	neg    %eax
    91d2:	5d                   	pop    %rbp
    91d3:	c3                   	retq   

00000000000091d4 <safe_add_func_int8_t_s_s>:
    91d4:	f3 0f 1e fa          	endbr64 
    91d8:	55                   	push   %rbp
    91d9:	48 89 e5             	mov    %rsp,%rbp
    91dc:	89 fa                	mov    %edi,%edx
    91de:	89 f0                	mov    %esi,%eax
    91e0:	88 55 fc             	mov    %dl,-0x4(%rbp)
    91e3:	88 45 f8             	mov    %al,-0x8(%rbp)
    91e6:	0f b6 55 fc          	movzbl -0x4(%rbp),%edx
    91ea:	0f b6 45 f8          	movzbl -0x8(%rbp),%eax
    91ee:	01 d0                	add    %edx,%eax
    91f0:	5d                   	pop    %rbp
    91f1:	c3                   	retq   

00000000000091f2 <safe_sub_func_int8_t_s_s>:
    91f2:	f3 0f 1e fa          	endbr64 
    91f6:	55                   	push   %rbp
    91f7:	48 89 e5             	mov    %rsp,%rbp
    91fa:	89 fa                	mov    %edi,%edx
    91fc:	89 f0                	mov    %esi,%eax
    91fe:	88 55 fc             	mov    %dl,-0x4(%rbp)
    9201:	88 45 f8             	mov    %al,-0x8(%rbp)
    9204:	0f b6 55 fc          	movzbl -0x4(%rbp),%edx
    9208:	0f b6 45 f8          	movzbl -0x8(%rbp),%eax
    920c:	29 c2                	sub    %eax,%edx
    920e:	89 d0                	mov    %edx,%eax
    9210:	5d                   	pop    %rbp
    9211:	c3                   	retq   

0000000000009212 <safe_mul_func_int8_t_s_s>:
    9212:	f3 0f 1e fa          	endbr64 
    9216:	55                   	push   %rbp
    9217:	48 89 e5             	mov    %rsp,%rbp
    921a:	89 fa                	mov    %edi,%edx
    921c:	89 f0                	mov    %esi,%eax
    921e:	88 55 fc             	mov    %dl,-0x4(%rbp)
    9221:	88 45 f8             	mov    %al,-0x8(%rbp)
    9224:	0f b6 45 fc          	movzbl -0x4(%rbp),%eax
    9228:	0f b6 55 f8          	movzbl -0x8(%rbp),%edx
    922c:	0f af c2             	imul   %edx,%eax
    922f:	5d                   	pop    %rbp
    9230:	c3                   	retq   

0000000000009231 <safe_mod_func_int8_t_s_s>:
    9231:	f3 0f 1e fa          	endbr64 
    9235:	55                   	push   %rbp
    9236:	48 89 e5             	mov    %rsp,%rbp
    9239:	89 fa                	mov    %edi,%edx
    923b:	89 f0                	mov    %esi,%eax
    923d:	88 55 fc             	mov    %dl,-0x4(%rbp)
    9240:	88 45 f8             	mov    %al,-0x8(%rbp)
    9243:	80 7d f8 00          	cmpb   $0x0,-0x8(%rbp)
    9247:	74 1b                	je     9264 <safe_mod_func_int8_t_s_s+0x33>
    9249:	80 7d fc 80          	cmpb   $0x80,-0x4(%rbp)
    924d:	75 06                	jne    9255 <safe_mod_func_int8_t_s_s+0x24>
    924f:	80 7d f8 ff          	cmpb   $0xff,-0x8(%rbp)
    9253:	74 0f                	je     9264 <safe_mod_func_int8_t_s_s+0x33>
    9255:	0f be 45 fc          	movsbl -0x4(%rbp),%eax
    9259:	0f be 4d f8          	movsbl -0x8(%rbp),%ecx
    925d:	99                   	cltd   
    925e:	f7 f9                	idiv   %ecx
    9260:	89 d0                	mov    %edx,%eax
    9262:	eb 04                	jmp    9268 <safe_mod_func_int8_t_s_s+0x37>
    9264:	0f b6 45 fc          	movzbl -0x4(%rbp),%eax
    9268:	5d                   	pop    %rbp
    9269:	c3                   	retq   

000000000000926a <safe_div_func_int8_t_s_s>:
    926a:	f3 0f 1e fa          	endbr64 
    926e:	55                   	push   %rbp
    926f:	48 89 e5             	mov    %rsp,%rbp
    9272:	89 fa                	mov    %edi,%edx
    9274:	89 f0                	mov    %esi,%eax
    9276:	88 55 fc             	mov    %dl,-0x4(%rbp)
    9279:	88 45 f8             	mov    %al,-0x8(%rbp)
    927c:	80 7d f8 00          	cmpb   $0x0,-0x8(%rbp)
    9280:	74 19                	je     929b <safe_div_func_int8_t_s_s+0x31>
    9282:	80 7d fc 80          	cmpb   $0x80,-0x4(%rbp)
    9286:	75 06                	jne    928e <safe_div_func_int8_t_s_s+0x24>
    9288:	80 7d f8 ff          	cmpb   $0xff,-0x8(%rbp)
    928c:	74 0d                	je     929b <safe_div_func_int8_t_s_s+0x31>
    928e:	0f be 45 fc          	movsbl -0x4(%rbp),%eax
    9292:	0f be 4d f8          	movsbl -0x8(%rbp),%ecx
    9296:	99                   	cltd   
    9297:	f7 f9                	idiv   %ecx
    9299:	eb 04                	jmp    929f <safe_div_func_int8_t_s_s+0x35>
    929b:	0f b6 45 fc          	movzbl -0x4(%rbp),%eax
    929f:	5d                   	pop    %rbp
    92a0:	c3                   	retq   

00000000000092a1 <safe_lshift_func_int8_t_s_s>:
    92a1:	f3 0f 1e fa          	endbr64 
    92a5:	55                   	push   %rbp
    92a6:	48 89 e5             	mov    %rsp,%rbp
    92a9:	89 f8                	mov    %edi,%eax
    92ab:	89 75 f8             	mov    %esi,-0x8(%rbp)
    92ae:	88 45 fc             	mov    %al,-0x4(%rbp)
    92b1:	80 7d fc 00          	cmpb   $0x0,-0x4(%rbp)
    92b5:	78 31                	js     92e8 <safe_lshift_func_int8_t_s_s+0x47>
    92b7:	83 7d f8 00          	cmpl   $0x0,-0x8(%rbp)
    92bb:	78 2b                	js     92e8 <safe_lshift_func_int8_t_s_s+0x47>
    92bd:	83 7d f8 1f          	cmpl   $0x1f,-0x8(%rbp)
    92c1:	7f 25                	jg     92e8 <safe_lshift_func_int8_t_s_s+0x47>
    92c3:	0f be 55 fc          	movsbl -0x4(%rbp),%edx
    92c7:	8b 45 f8             	mov    -0x8(%rbp),%eax
    92ca:	be 7f 00 00 00       	mov    $0x7f,%esi
    92cf:	89 c1                	mov    %eax,%ecx
    92d1:	d3 fe                	sar    %cl,%esi
    92d3:	89 f0                	mov    %esi,%eax
    92d5:	39 c2                	cmp    %eax,%edx
    92d7:	7f 0f                	jg     92e8 <safe_lshift_func_int8_t_s_s+0x47>
    92d9:	0f be 55 fc          	movsbl -0x4(%rbp),%edx
    92dd:	8b 45 f8             	mov    -0x8(%rbp),%eax
    92e0:	89 c1                	mov    %eax,%ecx
    92e2:	d3 e2                	shl    %cl,%edx
    92e4:	89 d0                	mov    %edx,%eax
    92e6:	eb 04                	jmp    92ec <safe_lshift_func_int8_t_s_s+0x4b>
    92e8:	0f b6 45 fc          	movzbl -0x4(%rbp),%eax
    92ec:	5d                   	pop    %rbp
    92ed:	c3                   	retq   

00000000000092ee <safe_lshift_func_int8_t_s_u>:
    92ee:	f3 0f 1e fa          	endbr64 
    92f2:	55                   	push   %rbp
    92f3:	48 89 e5             	mov    %rsp,%rbp
    92f6:	89 f8                	mov    %edi,%eax
    92f8:	89 75 f8             	mov    %esi,-0x8(%rbp)
    92fb:	88 45 fc             	mov    %al,-0x4(%rbp)
    92fe:	80 7d fc 00          	cmpb   $0x0,-0x4(%rbp)
    9302:	78 2b                	js     932f <safe_lshift_func_int8_t_s_u+0x41>
    9304:	83 7d f8 1f          	cmpl   $0x1f,-0x8(%rbp)
    9308:	77 25                	ja     932f <safe_lshift_func_int8_t_s_u+0x41>
    930a:	0f be 55 fc          	movsbl -0x4(%rbp),%edx
    930e:	8b 45 f8             	mov    -0x8(%rbp),%eax
    9311:	be 7f 00 00 00       	mov    $0x7f,%esi
    9316:	89 c1                	mov    %eax,%ecx
    9318:	d3 fe                	sar    %cl,%esi
    931a:	89 f0                	mov    %esi,%eax
    931c:	39 c2                	cmp    %eax,%edx
    931e:	7f 0f                	jg     932f <safe_lshift_func_int8_t_s_u+0x41>
    9320:	0f be 55 fc          	movsbl -0x4(%rbp),%edx
    9324:	8b 45 f8             	mov    -0x8(%rbp),%eax
    9327:	89 c1                	mov    %eax,%ecx
    9329:	d3 e2                	shl    %cl,%edx
    932b:	89 d0                	mov    %edx,%eax
    932d:	eb 04                	jmp    9333 <safe_lshift_func_int8_t_s_u+0x45>
    932f:	0f b6 45 fc          	movzbl -0x4(%rbp),%eax
    9333:	5d                   	pop    %rbp
    9334:	c3                   	retq   

0000000000009335 <safe_rshift_func_int8_t_s_s>:
    9335:	f3 0f 1e fa          	endbr64 
    9339:	55                   	push   %rbp
    933a:	48 89 e5             	mov    %rsp,%rbp
    933d:	89 f8                	mov    %edi,%eax
    933f:	89 75 f8             	mov    %esi,-0x8(%rbp)
    9342:	88 45 fc             	mov    %al,-0x4(%rbp)
    9345:	80 7d fc 00          	cmpb   $0x0,-0x4(%rbp)
    9349:	78 1b                	js     9366 <safe_rshift_func_int8_t_s_s+0x31>
    934b:	83 7d f8 00          	cmpl   $0x0,-0x8(%rbp)
    934f:	78 15                	js     9366 <safe_rshift_func_int8_t_s_s+0x31>
    9351:	83 7d f8 1f          	cmpl   $0x1f,-0x8(%rbp)
    9355:	7f 0f                	jg     9366 <safe_rshift_func_int8_t_s_s+0x31>
    9357:	0f be 55 fc          	movsbl -0x4(%rbp),%edx
    935b:	8b 45 f8             	mov    -0x8(%rbp),%eax
    935e:	89 c1                	mov    %eax,%ecx
    9360:	d3 fa                	sar    %cl,%edx
    9362:	89 d0                	mov    %edx,%eax
    9364:	eb 04                	jmp    936a <safe_rshift_func_int8_t_s_s+0x35>
    9366:	0f b6 45 fc          	movzbl -0x4(%rbp),%eax
    936a:	5d                   	pop    %rbp
    936b:	c3                   	retq   

000000000000936c <safe_rshift_func_int8_t_s_u>:
    936c:	f3 0f 1e fa          	endbr64 
    9370:	55                   	push   %rbp
    9371:	48 89 e5             	mov    %rsp,%rbp
    9374:	89 f8                	mov    %edi,%eax
    9376:	89 75 f8             	mov    %esi,-0x8(%rbp)
    9379:	88 45 fc             	mov    %al,-0x4(%rbp)
    937c:	80 7d fc 00          	cmpb   $0x0,-0x4(%rbp)
    9380:	78 15                	js     9397 <safe_rshift_func_int8_t_s_u+0x2b>
    9382:	83 7d f8 1f          	cmpl   $0x1f,-0x8(%rbp)
    9386:	77 0f                	ja     9397 <safe_rshift_func_int8_t_s_u+0x2b>
    9388:	0f be 55 fc          	movsbl -0x4(%rbp),%edx
    938c:	8b 45 f8             	mov    -0x8(%rbp),%eax
    938f:	89 c1                	mov    %eax,%ecx
    9391:	d3 fa                	sar    %cl,%edx
    9393:	89 d0                	mov    %edx,%eax
    9395:	eb 04                	jmp    939b <safe_rshift_func_int8_t_s_u+0x2f>
    9397:	0f b6 45 fc          	movzbl -0x4(%rbp),%eax
    939b:	5d                   	pop    %rbp
    939c:	c3                   	retq   

000000000000939d <safe_unary_minus_func_int16_t_s>:
    939d:	f3 0f 1e fa          	endbr64 
    93a1:	55                   	push   %rbp
    93a2:	48 89 e5             	mov    %rsp,%rbp
    93a5:	89 f8                	mov    %edi,%eax
    93a7:	66 89 45 fc          	mov    %ax,-0x4(%rbp)
    93ab:	0f b7 45 fc          	movzwl -0x4(%rbp),%eax
    93af:	f7 d8                	neg    %eax
    93b1:	5d                   	pop    %rbp
    93b2:	c3                   	retq   

00000000000093b3 <safe_add_func_int16_t_s_s>:
    93b3:	f3 0f 1e fa          	endbr64 
    93b7:	55                   	push   %rbp
    93b8:	48 89 e5             	mov    %rsp,%rbp
    93bb:	89 fa                	mov    %edi,%edx
    93bd:	89 f0                	mov    %esi,%eax
    93bf:	66 89 55 fc          	mov    %dx,-0x4(%rbp)
    93c3:	66 89 45 f8          	mov    %ax,-0x8(%rbp)
    93c7:	0f b7 55 fc          	movzwl -0x4(%rbp),%edx
    93cb:	0f b7 45 f8          	movzwl -0x8(%rbp),%eax
    93cf:	01 d0                	add    %edx,%eax
    93d1:	5d                   	pop    %rbp
    93d2:	c3                   	retq   

00000000000093d3 <safe_sub_func_int16_t_s_s>:
    93d3:	f3 0f 1e fa          	endbr64 
    93d7:	55                   	push   %rbp
    93d8:	48 89 e5             	mov    %rsp,%rbp
    93db:	89 fa                	mov    %edi,%edx
    93dd:	89 f0                	mov    %esi,%eax
    93df:	66 89 55 fc          	mov    %dx,-0x4(%rbp)
    93e3:	66 89 45 f8          	mov    %ax,-0x8(%rbp)
    93e7:	0f b7 55 fc          	movzwl -0x4(%rbp),%edx
    93eb:	0f b7 45 f8          	movzwl -0x8(%rbp),%eax
    93ef:	29 c2                	sub    %eax,%edx
    93f1:	89 d0                	mov    %edx,%eax
    93f3:	5d                   	pop    %rbp
    93f4:	c3                   	retq   

00000000000093f5 <safe_mul_func_int16_t_s_s>:
    93f5:	f3 0f 1e fa          	endbr64 
    93f9:	55                   	push   %rbp
    93fa:	48 89 e5             	mov    %rsp,%rbp
    93fd:	89 fa                	mov    %edi,%edx
    93ff:	89 f0                	mov    %esi,%eax
    9401:	66 89 55 fc          	mov    %dx,-0x4(%rbp)
    9405:	66 89 45 f8          	mov    %ax,-0x8(%rbp)
    9409:	0f b7 55 fc          	movzwl -0x4(%rbp),%edx
    940d:	0f b7 45 f8          	movzwl -0x8(%rbp),%eax
    9411:	0f af c2             	imul   %edx,%eax
    9414:	5d                   	pop    %rbp
    9415:	c3                   	retq   

0000000000009416 <safe_mod_func_int16_t_s_s>:
    9416:	f3 0f 1e fa          	endbr64 
    941a:	55                   	push   %rbp
    941b:	48 89 e5             	mov    %rsp,%rbp
    941e:	89 fa                	mov    %edi,%edx
    9420:	89 f0                	mov    %esi,%eax
    9422:	66 89 55 fc          	mov    %dx,-0x4(%rbp)
    9426:	66 89 45 f8          	mov    %ax,-0x8(%rbp)
    942a:	66 83 7d f8 00       	cmpw   $0x0,-0x8(%rbp)
    942f:	74 1e                	je     944f <safe_mod_func_int16_t_s_s+0x39>
    9431:	66 81 7d fc 00 80    	cmpw   $0x8000,-0x4(%rbp)
    9437:	75 07                	jne    9440 <safe_mod_func_int16_t_s_s+0x2a>
    9439:	66 83 7d f8 ff       	cmpw   $0xffff,-0x8(%rbp)
    943e:	74 0f                	je     944f <safe_mod_func_int16_t_s_s+0x39>
    9440:	0f bf 45 fc          	movswl -0x4(%rbp),%eax
    9444:	0f bf 4d f8          	movswl -0x8(%rbp),%ecx
    9448:	99                   	cltd   
    9449:	f7 f9                	idiv   %ecx
    944b:	89 d0                	mov    %edx,%eax
    944d:	eb 04                	jmp    9453 <safe_mod_func_int16_t_s_s+0x3d>
    944f:	0f b7 45 fc          	movzwl -0x4(%rbp),%eax
    9453:	5d                   	pop    %rbp
    9454:	c3                   	retq   

0000000000009455 <safe_div_func_int16_t_s_s>:
    9455:	f3 0f 1e fa          	endbr64 
    9459:	55                   	push   %rbp
    945a:	48 89 e5             	mov    %rsp,%rbp
    945d:	89 fa                	mov    %edi,%edx
    945f:	89 f0                	mov    %esi,%eax
    9461:	66 89 55 fc          	mov    %dx,-0x4(%rbp)
    9465:	66 89 45 f8          	mov    %ax,-0x8(%rbp)
    9469:	66 83 7d f8 00       	cmpw   $0x0,-0x8(%rbp)
    946e:	74 1c                	je     948c <safe_div_func_int16_t_s_s+0x37>
    9470:	66 81 7d fc 00 80    	cmpw   $0x8000,-0x4(%rbp)
    9476:	75 07                	jne    947f <safe_div_func_int16_t_s_s+0x2a>
    9478:	66 83 7d f8 ff       	cmpw   $0xffff,-0x8(%rbp)
    947d:	74 0d                	je     948c <safe_div_func_int16_t_s_s+0x37>
    947f:	0f bf 45 fc          	movswl -0x4(%rbp),%eax
    9483:	0f bf 4d f8          	movswl -0x8(%rbp),%ecx
    9487:	99                   	cltd   
    9488:	f7 f9                	idiv   %ecx
    948a:	eb 04                	jmp    9490 <safe_div_func_int16_t_s_s+0x3b>
    948c:	0f b7 45 fc          	movzwl -0x4(%rbp),%eax
    9490:	5d                   	pop    %rbp
    9491:	c3                   	retq   

0000000000009492 <safe_lshift_func_int16_t_s_s>:
    9492:	f3 0f 1e fa          	endbr64 
    9496:	55                   	push   %rbp
    9497:	48 89 e5             	mov    %rsp,%rbp
    949a:	89 f8                	mov    %edi,%eax
    949c:	89 75 f8             	mov    %esi,-0x8(%rbp)
    949f:	66 89 45 fc          	mov    %ax,-0x4(%rbp)
    94a3:	66 83 7d fc 00       	cmpw   $0x0,-0x4(%rbp)
    94a8:	78 31                	js     94db <safe_lshift_func_int16_t_s_s+0x49>
    94aa:	83 7d f8 00          	cmpl   $0x0,-0x8(%rbp)
    94ae:	78 2b                	js     94db <safe_lshift_func_int16_t_s_s+0x49>
    94b0:	83 7d f8 1f          	cmpl   $0x1f,-0x8(%rbp)
    94b4:	7f 25                	jg     94db <safe_lshift_func_int16_t_s_s+0x49>
    94b6:	0f bf 55 fc          	movswl -0x4(%rbp),%edx
    94ba:	8b 45 f8             	mov    -0x8(%rbp),%eax
    94bd:	be ff 7f 00 00       	mov    $0x7fff,%esi
    94c2:	89 c1                	mov    %eax,%ecx
    94c4:	d3 fe                	sar    %cl,%esi
    94c6:	89 f0                	mov    %esi,%eax
    94c8:	39 c2                	cmp    %eax,%edx
    94ca:	7f 0f                	jg     94db <safe_lshift_func_int16_t_s_s+0x49>
    94cc:	0f bf 55 fc          	movswl -0x4(%rbp),%edx
    94d0:	8b 45 f8             	mov    -0x8(%rbp),%eax
    94d3:	89 c1                	mov    %eax,%ecx
    94d5:	d3 e2                	shl    %cl,%edx
    94d7:	89 d0                	mov    %edx,%eax
    94d9:	eb 04                	jmp    94df <safe_lshift_func_int16_t_s_s+0x4d>
    94db:	0f b7 45 fc          	movzwl -0x4(%rbp),%eax
    94df:	5d                   	pop    %rbp
    94e0:	c3                   	retq   

00000000000094e1 <safe_lshift_func_int16_t_s_u>:
    94e1:	f3 0f 1e fa          	endbr64 
    94e5:	55                   	push   %rbp
    94e6:	48 89 e5             	mov    %rsp,%rbp
    94e9:	89 f8                	mov    %edi,%eax
    94eb:	89 75 f8             	mov    %esi,-0x8(%rbp)
    94ee:	66 89 45 fc          	mov    %ax,-0x4(%rbp)
    94f2:	66 83 7d fc 00       	cmpw   $0x0,-0x4(%rbp)
    94f7:	78 2b                	js     9524 <safe_lshift_func_int16_t_s_u+0x43>
    94f9:	83 7d f8 1f          	cmpl   $0x1f,-0x8(%rbp)
    94fd:	77 25                	ja     9524 <safe_lshift_func_int16_t_s_u+0x43>
    94ff:	0f bf 55 fc          	movswl -0x4(%rbp),%edx
    9503:	8b 45 f8             	mov    -0x8(%rbp),%eax
    9506:	be ff 7f 00 00       	mov    $0x7fff,%esi
    950b:	89 c1                	mov    %eax,%ecx
    950d:	d3 fe                	sar    %cl,%esi
    950f:	89 f0                	mov    %esi,%eax
    9511:	39 c2                	cmp    %eax,%edx
    9513:	7f 0f                	jg     9524 <safe_lshift_func_int16_t_s_u+0x43>
    9515:	0f bf 55 fc          	movswl -0x4(%rbp),%edx
    9519:	8b 45 f8             	mov    -0x8(%rbp),%eax
    951c:	89 c1                	mov    %eax,%ecx
    951e:	d3 e2                	shl    %cl,%edx
    9520:	89 d0                	mov    %edx,%eax
    9522:	eb 04                	jmp    9528 <safe_lshift_func_int16_t_s_u+0x47>
    9524:	0f b7 45 fc          	movzwl -0x4(%rbp),%eax
    9528:	5d                   	pop    %rbp
    9529:	c3                   	retq   

000000000000952a <safe_rshift_func_int16_t_s_s>:
    952a:	f3 0f 1e fa          	endbr64 
    952e:	55                   	push   %rbp
    952f:	48 89 e5             	mov    %rsp,%rbp
    9532:	89 f8                	mov    %edi,%eax
    9534:	89 75 f8             	mov    %esi,-0x8(%rbp)
    9537:	66 89 45 fc          	mov    %ax,-0x4(%rbp)
    953b:	66 83 7d fc 00       	cmpw   $0x0,-0x4(%rbp)
    9540:	78 1b                	js     955d <safe_rshift_func_int16_t_s_s+0x33>
    9542:	83 7d f8 00          	cmpl   $0x0,-0x8(%rbp)
    9546:	78 15                	js     955d <safe_rshift_func_int16_t_s_s+0x33>
    9548:	83 7d f8 1f          	cmpl   $0x1f,-0x8(%rbp)
    954c:	7f 0f                	jg     955d <safe_rshift_func_int16_t_s_s+0x33>
    954e:	0f bf 55 fc          	movswl -0x4(%rbp),%edx
    9552:	8b 45 f8             	mov    -0x8(%rbp),%eax
    9555:	89 c1                	mov    %eax,%ecx
    9557:	d3 fa                	sar    %cl,%edx
    9559:	89 d0                	mov    %edx,%eax
    955b:	eb 04                	jmp    9561 <safe_rshift_func_int16_t_s_s+0x37>
    955d:	0f b7 45 fc          	movzwl -0x4(%rbp),%eax
    9561:	5d                   	pop    %rbp
    9562:	c3                   	retq   

0000000000009563 <safe_rshift_func_int16_t_s_u>:
    9563:	f3 0f 1e fa          	endbr64 
    9567:	55                   	push   %rbp
    9568:	48 89 e5             	mov    %rsp,%rbp
    956b:	89 f8                	mov    %edi,%eax
    956d:	89 75 f8             	mov    %esi,-0x8(%rbp)
    9570:	66 89 45 fc          	mov    %ax,-0x4(%rbp)
    9574:	66 83 7d fc 00       	cmpw   $0x0,-0x4(%rbp)
    9579:	78 15                	js     9590 <safe_rshift_func_int16_t_s_u+0x2d>
    957b:	83 7d f8 1f          	cmpl   $0x1f,-0x8(%rbp)
    957f:	77 0f                	ja     9590 <safe_rshift_func_int16_t_s_u+0x2d>
    9581:	0f bf 55 fc          	movswl -0x4(%rbp),%edx
    9585:	8b 45 f8             	mov    -0x8(%rbp),%eax
    9588:	89 c1                	mov    %eax,%ecx
    958a:	d3 fa                	sar    %cl,%edx
    958c:	89 d0                	mov    %edx,%eax
    958e:	eb 04                	jmp    9594 <safe_rshift_func_int16_t_s_u+0x31>
    9590:	0f b7 45 fc          	movzwl -0x4(%rbp),%eax
    9594:	5d                   	pop    %rbp
    9595:	c3                   	retq   

0000000000009596 <safe_unary_minus_func_int32_t_s>:
    9596:	f3 0f 1e fa          	endbr64 
    959a:	55                   	push   %rbp
    959b:	48 89 e5             	mov    %rsp,%rbp
    959e:	89 7d fc             	mov    %edi,-0x4(%rbp)
    95a1:	81 7d fc 00 00 00 80 	cmpl   $0x80000000,-0x4(%rbp)
    95a8:	74 07                	je     95b1 <safe_unary_minus_func_int32_t_s+0x1b>
    95aa:	8b 45 fc             	mov    -0x4(%rbp),%eax
    95ad:	f7 d8                	neg    %eax
    95af:	eb 03                	jmp    95b4 <safe_unary_minus_func_int32_t_s+0x1e>
    95b1:	8b 45 fc             	mov    -0x4(%rbp),%eax
    95b4:	5d                   	pop    %rbp
    95b5:	c3                   	retq   

00000000000095b6 <safe_add_func_int32_t_s_s>:
    95b6:	f3 0f 1e fa          	endbr64 
    95ba:	55                   	push   %rbp
    95bb:	48 89 e5             	mov    %rsp,%rbp
    95be:	89 7d fc             	mov    %edi,-0x4(%rbp)
    95c1:	89 75 f8             	mov    %esi,-0x8(%rbp)
    95c4:	83 7d fc 00          	cmpl   $0x0,-0x4(%rbp)
    95c8:	7e 13                	jle    95dd <safe_add_func_int32_t_s_s+0x27>
    95ca:	83 7d f8 00          	cmpl   $0x0,-0x8(%rbp)
    95ce:	7e 0d                	jle    95dd <safe_add_func_int32_t_s_s+0x27>
    95d0:	b8 ff ff ff 7f       	mov    $0x7fffffff,%eax
    95d5:	2b 45 f8             	sub    -0x8(%rbp),%eax
    95d8:	39 45 fc             	cmp    %eax,-0x4(%rbp)
    95db:	7f 23                	jg     9600 <safe_add_func_int32_t_s_s+0x4a>
    95dd:	83 7d fc 00          	cmpl   $0x0,-0x4(%rbp)
    95e1:	79 13                	jns    95f6 <safe_add_func_int32_t_s_s+0x40>
    95e3:	83 7d f8 00          	cmpl   $0x0,-0x8(%rbp)
    95e7:	79 0d                	jns    95f6 <safe_add_func_int32_t_s_s+0x40>
    95e9:	b8 00 00 00 80       	mov    $0x80000000,%eax
    95ee:	2b 45 f8             	sub    -0x8(%rbp),%eax
    95f1:	39 45 fc             	cmp    %eax,-0x4(%rbp)
    95f4:	7c 0a                	jl     9600 <safe_add_func_int32_t_s_s+0x4a>
    95f6:	8b 55 fc             	mov    -0x4(%rbp),%edx
    95f9:	8b 45 f8             	mov    -0x8(%rbp),%eax
    95fc:	01 d0                	add    %edx,%eax
    95fe:	eb 03                	jmp    9603 <safe_add_func_int32_t_s_s+0x4d>
    9600:	8b 45 fc             	mov    -0x4(%rbp),%eax
    9603:	5d                   	pop    %rbp
    9604:	c3                   	retq   

0000000000009605 <safe_sub_func_int32_t_s_s>:
    9605:	f3 0f 1e fa          	endbr64 
    9609:	55                   	push   %rbp
    960a:	48 89 e5             	mov    %rsp,%rbp
    960d:	89 7d fc             	mov    %edi,-0x4(%rbp)
    9610:	89 75 f8             	mov    %esi,-0x8(%rbp)
    9613:	8b 45 fc             	mov    -0x4(%rbp),%eax
    9616:	33 45 f8             	xor    -0x8(%rbp),%eax
    9619:	89 c2                	mov    %eax,%edx
    961b:	8b 45 fc             	mov    -0x4(%rbp),%eax
    961e:	33 45 f8             	xor    -0x8(%rbp),%eax
    9621:	25 00 00 00 80       	and    $0x80000000,%eax
    9626:	33 45 fc             	xor    -0x4(%rbp),%eax
    9629:	2b 45 f8             	sub    -0x8(%rbp),%eax
    962c:	33 45 f8             	xor    -0x8(%rbp),%eax
    962f:	21 d0                	and    %edx,%eax
    9631:	85 c0                	test   %eax,%eax
    9633:	78 08                	js     963d <safe_sub_func_int32_t_s_s+0x38>
    9635:	8b 45 fc             	mov    -0x4(%rbp),%eax
    9638:	2b 45 f8             	sub    -0x8(%rbp),%eax
    963b:	eb 03                	jmp    9640 <safe_sub_func_int32_t_s_s+0x3b>
    963d:	8b 45 fc             	mov    -0x4(%rbp),%eax
    9640:	5d                   	pop    %rbp
    9641:	c3                   	retq   

0000000000009642 <safe_mul_func_int32_t_s_s>:
    9642:	f3 0f 1e fa          	endbr64 
    9646:	55                   	push   %rbp
    9647:	48 89 e5             	mov    %rsp,%rbp
    964a:	89 7d fc             	mov    %edi,-0x4(%rbp)
    964d:	89 75 f8             	mov    %esi,-0x8(%rbp)
    9650:	83 7d fc 00          	cmpl   $0x0,-0x4(%rbp)
    9654:	7e 14                	jle    966a <safe_mul_func_int32_t_s_s+0x28>
    9656:	83 7d f8 00          	cmpl   $0x0,-0x8(%rbp)
    965a:	7e 0e                	jle    966a <safe_mul_func_int32_t_s_s+0x28>
    965c:	b8 ff ff ff 7f       	mov    $0x7fffffff,%eax
    9661:	99                   	cltd   
    9662:	f7 7d f8             	idivl  -0x8(%rbp)
    9665:	39 45 fc             	cmp    %eax,-0x4(%rbp)
    9668:	7f 5d                	jg     96c7 <safe_mul_func_int32_t_s_s+0x85>
    966a:	83 7d fc 00          	cmpl   $0x0,-0x4(%rbp)
    966e:	7e 14                	jle    9684 <safe_mul_func_int32_t_s_s+0x42>
    9670:	83 7d f8 00          	cmpl   $0x0,-0x8(%rbp)
    9674:	7f 0e                	jg     9684 <safe_mul_func_int32_t_s_s+0x42>
    9676:	b8 00 00 00 80       	mov    $0x80000000,%eax
    967b:	99                   	cltd   
    967c:	f7 7d fc             	idivl  -0x4(%rbp)
    967f:	39 45 f8             	cmp    %eax,-0x8(%rbp)
    9682:	7c 43                	jl     96c7 <safe_mul_func_int32_t_s_s+0x85>
    9684:	83 7d fc 00          	cmpl   $0x0,-0x4(%rbp)
    9688:	7f 14                	jg     969e <safe_mul_func_int32_t_s_s+0x5c>
    968a:	83 7d f8 00          	cmpl   $0x0,-0x8(%rbp)
    968e:	7e 0e                	jle    969e <safe_mul_func_int32_t_s_s+0x5c>
    9690:	b8 00 00 00 80       	mov    $0x80000000,%eax
    9695:	99                   	cltd   
    9696:	f7 7d f8             	idivl  -0x8(%rbp)
    9699:	39 45 fc             	cmp    %eax,-0x4(%rbp)
    969c:	7c 29                	jl     96c7 <safe_mul_func_int32_t_s_s+0x85>
    969e:	83 7d fc 00          	cmpl   $0x0,-0x4(%rbp)
    96a2:	7f 1a                	jg     96be <safe_mul_func_int32_t_s_s+0x7c>
    96a4:	83 7d f8 00          	cmpl   $0x0,-0x8(%rbp)
    96a8:	7f 14                	jg     96be <safe_mul_func_int32_t_s_s+0x7c>
    96aa:	83 7d fc 00          	cmpl   $0x0,-0x4(%rbp)
    96ae:	74 0e                	je     96be <safe_mul_func_int32_t_s_s+0x7c>
    96b0:	b8 ff ff ff 7f       	mov    $0x7fffffff,%eax
    96b5:	99                   	cltd   
    96b6:	f7 7d fc             	idivl  -0x4(%rbp)
    96b9:	39 45 f8             	cmp    %eax,-0x8(%rbp)
    96bc:	7c 09                	jl     96c7 <safe_mul_func_int32_t_s_s+0x85>
    96be:	8b 45 fc             	mov    -0x4(%rbp),%eax
    96c1:	0f af 45 f8          	imul   -0x8(%rbp),%eax
    96c5:	eb 03                	jmp    96ca <safe_mul_func_int32_t_s_s+0x88>
    96c7:	8b 45 fc             	mov    -0x4(%rbp),%eax
    96ca:	5d                   	pop    %rbp
    96cb:	c3                   	retq   

00000000000096cc <safe_mod_func_int32_t_s_s>:
    96cc:	f3 0f 1e fa          	endbr64 
    96d0:	55                   	push   %rbp
    96d1:	48 89 e5             	mov    %rsp,%rbp
    96d4:	89 7d fc             	mov    %edi,-0x4(%rbp)
    96d7:	89 75 f8             	mov    %esi,-0x8(%rbp)
    96da:	83 7d f8 00          	cmpl   $0x0,-0x8(%rbp)
    96de:	74 1a                	je     96fa <safe_mod_func_int32_t_s_s+0x2e>
    96e0:	81 7d fc 00 00 00 80 	cmpl   $0x80000000,-0x4(%rbp)
    96e7:	75 06                	jne    96ef <safe_mod_func_int32_t_s_s+0x23>
    96e9:	83 7d f8 ff          	cmpl   $0xffffffff,-0x8(%rbp)
    96ed:	74 0b                	je     96fa <safe_mod_func_int32_t_s_s+0x2e>
    96ef:	8b 45 fc             	mov    -0x4(%rbp),%eax
    96f2:	99                   	cltd   
    96f3:	f7 7d f8             	idivl  -0x8(%rbp)
    96f6:	89 d0                	mov    %edx,%eax
    96f8:	eb 03                	jmp    96fd <safe_mod_func_int32_t_s_s+0x31>
    96fa:	8b 45 fc             	mov    -0x4(%rbp),%eax
    96fd:	5d                   	pop    %rbp
    96fe:	c3                   	retq   

00000000000096ff <safe_div_func_int32_t_s_s>:
    96ff:	f3 0f 1e fa          	endbr64 
    9703:	55                   	push   %rbp
    9704:	48 89 e5             	mov    %rsp,%rbp
    9707:	89 7d fc             	mov    %edi,-0x4(%rbp)
    970a:	89 75 f8             	mov    %esi,-0x8(%rbp)
    970d:	83 7d f8 00          	cmpl   $0x0,-0x8(%rbp)
    9711:	74 18                	je     972b <safe_div_func_int32_t_s_s+0x2c>
    9713:	81 7d fc 00 00 00 80 	cmpl   $0x80000000,-0x4(%rbp)
    971a:	75 06                	jne    9722 <safe_div_func_int32_t_s_s+0x23>
    971c:	83 7d f8 ff          	cmpl   $0xffffffff,-0x8(%rbp)
    9720:	74 09                	je     972b <safe_div_func_int32_t_s_s+0x2c>
    9722:	8b 45 fc             	mov    -0x4(%rbp),%eax
    9725:	99                   	cltd   
    9726:	f7 7d f8             	idivl  -0x8(%rbp)
    9729:	eb 03                	jmp    972e <safe_div_func_int32_t_s_s+0x2f>
    972b:	8b 45 fc             	mov    -0x4(%rbp),%eax
    972e:	5d                   	pop    %rbp
    972f:	c3                   	retq   

0000000000009730 <safe_lshift_func_int32_t_s_s>:
    9730:	f3 0f 1e fa          	endbr64 
    9734:	55                   	push   %rbp
    9735:	48 89 e5             	mov    %rsp,%rbp
    9738:	89 7d fc             	mov    %edi,-0x4(%rbp)
    973b:	89 75 f8             	mov    %esi,-0x8(%rbp)
    973e:	83 7d fc 00          	cmpl   $0x0,-0x4(%rbp)
    9742:	78 2d                	js     9771 <safe_lshift_func_int32_t_s_s+0x41>
    9744:	83 7d f8 00          	cmpl   $0x0,-0x8(%rbp)
    9748:	78 27                	js     9771 <safe_lshift_func_int32_t_s_s+0x41>
    974a:	83 7d f8 1f          	cmpl   $0x1f,-0x8(%rbp)
    974e:	7f 21                	jg     9771 <safe_lshift_func_int32_t_s_s+0x41>
    9750:	8b 45 f8             	mov    -0x8(%rbp),%eax
    9753:	ba ff ff ff 7f       	mov    $0x7fffffff,%edx
    9758:	89 c1                	mov    %eax,%ecx
    975a:	d3 fa                	sar    %cl,%edx
    975c:	89 d0                	mov    %edx,%eax
    975e:	39 45 fc             	cmp    %eax,-0x4(%rbp)
    9761:	7f 0e                	jg     9771 <safe_lshift_func_int32_t_s_s+0x41>
    9763:	8b 45 f8             	mov    -0x8(%rbp),%eax
    9766:	8b 55 fc             	mov    -0x4(%rbp),%edx
    9769:	89 c1                	mov    %eax,%ecx
    976b:	d3 e2                	shl    %cl,%edx
    976d:	89 d0                	mov    %edx,%eax
    976f:	eb 03                	jmp    9774 <safe_lshift_func_int32_t_s_s+0x44>
    9771:	8b 45 fc             	mov    -0x4(%rbp),%eax
    9774:	5d                   	pop    %rbp
    9775:	c3                   	retq   

0000000000009776 <safe_lshift_func_int32_t_s_u>:
    9776:	f3 0f 1e fa          	endbr64 
    977a:	55                   	push   %rbp
    977b:	48 89 e5             	mov    %rsp,%rbp
    977e:	89 7d fc             	mov    %edi,-0x4(%rbp)
    9781:	89 75 f8             	mov    %esi,-0x8(%rbp)
    9784:	83 7d fc 00          	cmpl   $0x0,-0x4(%rbp)
    9788:	78 27                	js     97b1 <safe_lshift_func_int32_t_s_u+0x3b>
    978a:	83 7d f8 1f          	cmpl   $0x1f,-0x8(%rbp)
    978e:	77 21                	ja     97b1 <safe_lshift_func_int32_t_s_u+0x3b>
    9790:	8b 45 f8             	mov    -0x8(%rbp),%eax
    9793:	ba ff ff ff 7f       	mov    $0x7fffffff,%edx
    9798:	89 c1                	mov    %eax,%ecx
    979a:	d3 fa                	sar    %cl,%edx
    979c:	89 d0                	mov    %edx,%eax
    979e:	39 45 fc             	cmp    %eax,-0x4(%rbp)
    97a1:	7f 0e                	jg     97b1 <safe_lshift_func_int32_t_s_u+0x3b>
    97a3:	8b 45 f8             	mov    -0x8(%rbp),%eax
    97a6:	8b 55 fc             	mov    -0x4(%rbp),%edx
    97a9:	89 c1                	mov    %eax,%ecx
    97ab:	d3 e2                	shl    %cl,%edx
    97ad:	89 d0                	mov    %edx,%eax
    97af:	eb 03                	jmp    97b4 <safe_lshift_func_int32_t_s_u+0x3e>
    97b1:	8b 45 fc             	mov    -0x4(%rbp),%eax
    97b4:	5d                   	pop    %rbp
    97b5:	c3                   	retq   

00000000000097b6 <safe_rshift_func_int32_t_s_s>:
    97b6:	f3 0f 1e fa          	endbr64 
    97ba:	55                   	push   %rbp
    97bb:	48 89 e5             	mov    %rsp,%rbp
    97be:	89 7d fc             	mov    %edi,-0x4(%rbp)
    97c1:	89 75 f8             	mov    %esi,-0x8(%rbp)
    97c4:	83 7d fc 00          	cmpl   $0x0,-0x4(%rbp)
    97c8:	78 1a                	js     97e4 <safe_rshift_func_int32_t_s_s+0x2e>
    97ca:	83 7d f8 00          	cmpl   $0x0,-0x8(%rbp)
    97ce:	78 14                	js     97e4 <safe_rshift_func_int32_t_s_s+0x2e>
    97d0:	83 7d f8 1f          	cmpl   $0x1f,-0x8(%rbp)
    97d4:	7f 0e                	jg     97e4 <safe_rshift_func_int32_t_s_s+0x2e>
    97d6:	8b 45 f8             	mov    -0x8(%rbp),%eax
    97d9:	8b 55 fc             	mov    -0x4(%rbp),%edx
    97dc:	89 c1                	mov    %eax,%ecx
    97de:	d3 fa                	sar    %cl,%edx
    97e0:	89 d0                	mov    %edx,%eax
    97e2:	eb 03                	jmp    97e7 <safe_rshift_func_int32_t_s_s+0x31>
    97e4:	8b 45 fc             	mov    -0x4(%rbp),%eax
    97e7:	5d                   	pop    %rbp
    97e8:	c3                   	retq   

00000000000097e9 <safe_rshift_func_int32_t_s_u>:
    97e9:	f3 0f 1e fa          	endbr64 
    97ed:	55                   	push   %rbp
    97ee:	48 89 e5             	mov    %rsp,%rbp
    97f1:	89 7d fc             	mov    %edi,-0x4(%rbp)
    97f4:	89 75 f8             	mov    %esi,-0x8(%rbp)
    97f7:	83 7d fc 00          	cmpl   $0x0,-0x4(%rbp)
    97fb:	78 14                	js     9811 <safe_rshift_func_int32_t_s_u+0x28>
    97fd:	83 7d f8 1f          	cmpl   $0x1f,-0x8(%rbp)
    9801:	77 0e                	ja     9811 <safe_rshift_func_int32_t_s_u+0x28>
    9803:	8b 45 f8             	mov    -0x8(%rbp),%eax
    9806:	8b 55 fc             	mov    -0x4(%rbp),%edx
    9809:	89 c1                	mov    %eax,%ecx
    980b:	d3 fa                	sar    %cl,%edx
    980d:	89 d0                	mov    %edx,%eax
    980f:	eb 03                	jmp    9814 <safe_rshift_func_int32_t_s_u+0x2b>
    9811:	8b 45 fc             	mov    -0x4(%rbp),%eax
    9814:	5d                   	pop    %rbp
    9815:	c3                   	retq   

0000000000009816 <safe_unary_minus_func_int64_t_s>:
    9816:	f3 0f 1e fa          	endbr64 
    981a:	55                   	push   %rbp
    981b:	48 89 e5             	mov    %rsp,%rbp
    981e:	48 89 7d f8          	mov    %rdi,-0x8(%rbp)
    9822:	48 b8 00 00 00 00 00 	movabs $0x8000000000000000,%rax
    9829:	00 00 80 
    982c:	48 39 45 f8          	cmp    %rax,-0x8(%rbp)
    9830:	74 09                	je     983b <safe_unary_minus_func_int64_t_s+0x25>
    9832:	48 8b 45 f8          	mov    -0x8(%rbp),%rax
    9836:	48 f7 d8             	neg    %rax
    9839:	eb 04                	jmp    983f <safe_unary_minus_func_int64_t_s+0x29>
    983b:	48 8b 45 f8          	mov    -0x8(%rbp),%rax
    983f:	5d                   	pop    %rbp
    9840:	c3                   	retq   

0000000000009841 <safe_add_func_int64_t_s_s>:
    9841:	f3 0f 1e fa          	endbr64 
    9845:	55                   	push   %rbp
    9846:	48 89 e5             	mov    %rsp,%rbp
    9849:	48 89 7d f8          	mov    %rdi,-0x8(%rbp)
    984d:	48 89 75 f0          	mov    %rsi,-0x10(%rbp)
    9851:	48 83 7d f8 00       	cmpq   $0x0,-0x8(%rbp)
    9856:	7e 1b                	jle    9873 <safe_add_func_int64_t_s_s+0x32>
    9858:	48 83 7d f0 00       	cmpq   $0x0,-0x10(%rbp)
    985d:	7e 14                	jle    9873 <safe_add_func_int64_t_s_s+0x32>
    985f:	48 b8 ff ff ff ff ff 	movabs $0x7fffffffffffffff,%rax
    9866:	ff ff 7f 
    9869:	48 2b 45 f0          	sub    -0x10(%rbp),%rax
    986d:	48 39 45 f8          	cmp    %rax,-0x8(%rbp)
    9871:	7f 2f                	jg     98a2 <safe_add_func_int64_t_s_s+0x61>
    9873:	48 83 7d f8 00       	cmpq   $0x0,-0x8(%rbp)
    9878:	79 1b                	jns    9895 <safe_add_func_int64_t_s_s+0x54>
    987a:	48 83 7d f0 00       	cmpq   $0x0,-0x10(%rbp)
    987f:	79 14                	jns    9895 <safe_add_func_int64_t_s_s+0x54>
    9881:	48 b8 00 00 00 00 00 	movabs $0x8000000000000000,%rax
    9888:	00 00 80 
    988b:	48 2b 45 f0          	sub    -0x10(%rbp),%rax
    988f:	48 39 45 f8          	cmp    %rax,-0x8(%rbp)
    9893:	7c 0d                	jl     98a2 <safe_add_func_int64_t_s_s+0x61>
    9895:	48 8b 55 f8          	mov    -0x8(%rbp),%rdx
    9899:	48 8b 45 f0          	mov    -0x10(%rbp),%rax
    989d:	48 01 d0             	add    %rdx,%rax
    98a0:	eb 04                	jmp    98a6 <safe_add_func_int64_t_s_s+0x65>
    98a2:	48 8b 45 f8          	mov    -0x8(%rbp),%rax
    98a6:	5d                   	pop    %rbp
    98a7:	c3                   	retq   

00000000000098a8 <safe_sub_func_int64_t_s_s>:
    98a8:	f3 0f 1e fa          	endbr64 
    98ac:	55                   	push   %rbp
    98ad:	48 89 e5             	mov    %rsp,%rbp
    98b0:	48 89 7d f8          	mov    %rdi,-0x8(%rbp)
    98b4:	48 89 75 f0          	mov    %rsi,-0x10(%rbp)
    98b8:	48 8b 45 f8          	mov    -0x8(%rbp),%rax
    98bc:	48 33 45 f0          	xor    -0x10(%rbp),%rax
    98c0:	48 89 c2             	mov    %rax,%rdx
    98c3:	48 8b 45 f8          	mov    -0x8(%rbp),%rax
    98c7:	48 33 45 f0          	xor    -0x10(%rbp),%rax
    98cb:	48 b9 00 00 00 00 00 	movabs $0x8000000000000000,%rcx
    98d2:	00 00 80 
    98d5:	48 21 c8             	and    %rcx,%rax
    98d8:	48 33 45 f8          	xor    -0x8(%rbp),%rax
    98dc:	48 2b 45 f0          	sub    -0x10(%rbp),%rax
    98e0:	48 33 45 f0          	xor    -0x10(%rbp),%rax
    98e4:	48 21 d0             	and    %rdx,%rax
    98e7:	48 85 c0             	test   %rax,%rax
    98ea:	78 0a                	js     98f6 <safe_sub_func_int64_t_s_s+0x4e>
    98ec:	48 8b 45 f8          	mov    -0x8(%rbp),%rax
    98f0:	48 2b 45 f0          	sub    -0x10(%rbp),%rax
    98f4:	eb 04                	jmp    98fa <safe_sub_func_int64_t_s_s+0x52>
    98f6:	48 8b 45 f8          	mov    -0x8(%rbp),%rax
    98fa:	5d                   	pop    %rbp
    98fb:	c3                   	retq   

00000000000098fc <safe_mul_func_int64_t_s_s>:
    98fc:	f3 0f 1e fa          	endbr64 
    9900:	55                   	push   %rbp
    9901:	48 89 e5             	mov    %rsp,%rbp
    9904:	48 89 7d f8          	mov    %rdi,-0x8(%rbp)
    9908:	48 89 75 f0          	mov    %rsi,-0x10(%rbp)
    990c:	48 83 7d f8 00       	cmpq   $0x0,-0x8(%rbp)
    9911:	7e 1d                	jle    9930 <safe_mul_func_int64_t_s_s+0x34>
    9913:	48 83 7d f0 00       	cmpq   $0x0,-0x10(%rbp)
    9918:	7e 16                	jle    9930 <safe_mul_func_int64_t_s_s+0x34>
    991a:	48 b8 ff ff ff ff ff 	movabs $0x7fffffffffffffff,%rax
    9921:	ff ff 7f 
    9924:	48 99                	cqto   
    9926:	48 f7 7d f0          	idivq  -0x10(%rbp)
    992a:	48 39 45 f8          	cmp    %rax,-0x8(%rbp)
    992e:	7f 7e                	jg     99ae <safe_mul_func_int64_t_s_s+0xb2>
    9930:	48 83 7d f8 00       	cmpq   $0x0,-0x8(%rbp)
    9935:	7e 1d                	jle    9954 <safe_mul_func_int64_t_s_s+0x58>
    9937:	48 83 7d f0 00       	cmpq   $0x0,-0x10(%rbp)
    993c:	7f 16                	jg     9954 <safe_mul_func_int64_t_s_s+0x58>
    993e:	48 b8 00 00 00 00 00 	movabs $0x8000000000000000,%rax
    9945:	00 00 80 
    9948:	48 99                	cqto   
    994a:	48 f7 7d f8          	idivq  -0x8(%rbp)
    994e:	48 39 45 f0          	cmp    %rax,-0x10(%rbp)
    9952:	7c 5a                	jl     99ae <safe_mul_func_int64_t_s_s+0xb2>
    9954:	48 83 7d f8 00       	cmpq   $0x0,-0x8(%rbp)
    9959:	7f 1d                	jg     9978 <safe_mul_func_int64_t_s_s+0x7c>
    995b:	48 83 7d f0 00       	cmpq   $0x0,-0x10(%rbp)
    9960:	7e 16                	jle    9978 <safe_mul_func_int64_t_s_s+0x7c>
    9962:	48 b8 00 00 00 00 00 	movabs $0x8000000000000000,%rax
    9969:	00 00 80 
    996c:	48 99                	cqto   
    996e:	48 f7 7d f0          	idivq  -0x10(%rbp)
    9972:	48 39 45 f8          	cmp    %rax,-0x8(%rbp)
    9976:	7c 36                	jl     99ae <safe_mul_func_int64_t_s_s+0xb2>
    9978:	48 83 7d f8 00       	cmpq   $0x0,-0x8(%rbp)
    997d:	7f 24                	jg     99a3 <safe_mul_func_int64_t_s_s+0xa7>
    997f:	48 83 7d f0 00       	cmpq   $0x0,-0x10(%rbp)
    9984:	7f 1d                	jg     99a3 <safe_mul_func_int64_t_s_s+0xa7>
    9986:	48 83 7d f8 00       	cmpq   $0x0,-0x8(%rbp)
    998b:	74 16                	je     99a3 <safe_mul_func_int64_t_s_s+0xa7>
    998d:	48 b8 ff ff ff ff ff 	movabs $0x7fffffffffffffff,%rax
    9994:	ff ff 7f 
    9997:	48 99                	cqto   
    9999:	48 f7 7d f8          	idivq  -0x8(%rbp)
    999d:	48 39 45 f0          	cmp    %rax,-0x10(%rbp)
    99a1:	7c 0b                	jl     99ae <safe_mul_func_int64_t_s_s+0xb2>
    99a3:	48 8b 45 f8          	mov    -0x8(%rbp),%rax
    99a7:	48 0f af 45 f0       	imul   -0x10(%rbp),%rax
    99ac:	eb 04                	jmp    99b2 <safe_mul_func_int64_t_s_s+0xb6>
    99ae:	48 8b 45 f8          	mov    -0x8(%rbp),%rax
    99b2:	5d                   	pop    %rbp
    99b3:	c3                   	retq   

00000000000099b4 <safe_mod_func_int64_t_s_s>:
    99b4:	f3 0f 1e fa          	endbr64 
    99b8:	55                   	push   %rbp
    99b9:	48 89 e5             	mov    %rsp,%rbp
    99bc:	48 89 7d f8          	mov    %rdi,-0x8(%rbp)
    99c0:	48 89 75 f0          	mov    %rsi,-0x10(%rbp)
    99c4:	48 83 7d f0 00       	cmpq   $0x0,-0x10(%rbp)
    99c9:	74 26                	je     99f1 <safe_mod_func_int64_t_s_s+0x3d>
    99cb:	48 b8 00 00 00 00 00 	movabs $0x8000000000000000,%rax
    99d2:	00 00 80 
    99d5:	48 39 45 f8          	cmp    %rax,-0x8(%rbp)
    99d9:	75 07                	jne    99e2 <safe_mod_func_int64_t_s_s+0x2e>
    99db:	48 83 7d f0 ff       	cmpq   $0xffffffffffffffff,-0x10(%rbp)
    99e0:	74 0f                	je     99f1 <safe_mod_func_int64_t_s_s+0x3d>
    99e2:	48 8b 45 f8          	mov    -0x8(%rbp),%rax
    99e6:	48 99                	cqto   
    99e8:	48 f7 7d f0          	idivq  -0x10(%rbp)
    99ec:	48 89 d0             	mov    %rdx,%rax
    99ef:	eb 04                	jmp    99f5 <safe_mod_func_int64_t_s_s+0x41>
    99f1:	48 8b 45 f8          	mov    -0x8(%rbp),%rax
    99f5:	5d                   	pop    %rbp
    99f6:	c3                   	retq   

00000000000099f7 <safe_div_func_int64_t_s_s>:
    99f7:	f3 0f 1e fa          	endbr64 
    99fb:	55                   	push   %rbp
    99fc:	48 89 e5             	mov    %rsp,%rbp
    99ff:	48 89 7d f8          	mov    %rdi,-0x8(%rbp)
    9a03:	48 89 75 f0          	mov    %rsi,-0x10(%rbp)
    9a07:	48 83 7d f0 00       	cmpq   $0x0,-0x10(%rbp)
    9a0c:	74 23                	je     9a31 <safe_div_func_int64_t_s_s+0x3a>
    9a0e:	48 b8 00 00 00 00 00 	movabs $0x8000000000000000,%rax
    9a15:	00 00 80 
    9a18:	48 39 45 f8          	cmp    %rax,-0x8(%rbp)
    9a1c:	75 07                	jne    9a25 <safe_div_func_int64_t_s_s+0x2e>
    9a1e:	48 83 7d f0 ff       	cmpq   $0xffffffffffffffff,-0x10(%rbp)
    9a23:	74 0c                	je     9a31 <safe_div_func_int64_t_s_s+0x3a>
    9a25:	48 8b 45 f8          	mov    -0x8(%rbp),%rax
    9a29:	48 99                	cqto   
    9a2b:	48 f7 7d f0          	idivq  -0x10(%rbp)
    9a2f:	eb 04                	jmp    9a35 <safe_div_func_int64_t_s_s+0x3e>
    9a31:	48 8b 45 f8          	mov    -0x8(%rbp),%rax
    9a35:	5d                   	pop    %rbp
    9a36:	c3                   	retq   

0000000000009a37 <safe_lshift_func_int64_t_s_s>:
    9a37:	f3 0f 1e fa          	endbr64 
    9a3b:	55                   	push   %rbp
    9a3c:	48 89 e5             	mov    %rsp,%rbp
    9a3f:	48 89 7d f8          	mov    %rdi,-0x8(%rbp)
    9a43:	89 75 f4             	mov    %esi,-0xc(%rbp)
    9a46:	48 83 7d f8 00       	cmpq   $0x0,-0x8(%rbp)
    9a4b:	78 38                	js     9a85 <safe_lshift_func_int64_t_s_s+0x4e>
    9a4d:	83 7d f4 00          	cmpl   $0x0,-0xc(%rbp)
    9a51:	78 32                	js     9a85 <safe_lshift_func_int64_t_s_s+0x4e>
    9a53:	83 7d f4 1f          	cmpl   $0x1f,-0xc(%rbp)
    9a57:	7f 2c                	jg     9a85 <safe_lshift_func_int64_t_s_s+0x4e>
    9a59:	8b 45 f4             	mov    -0xc(%rbp),%eax
    9a5c:	48 ba ff ff ff ff ff 	movabs $0x7fffffffffffffff,%rdx
    9a63:	ff ff 7f 
    9a66:	89 c1                	mov    %eax,%ecx
    9a68:	48 d3 fa             	sar    %cl,%rdx
    9a6b:	48 89 d0             	mov    %rdx,%rax
    9a6e:	48 39 45 f8          	cmp    %rax,-0x8(%rbp)
    9a72:	7f 11                	jg     9a85 <safe_lshift_func_int64_t_s_s+0x4e>
    9a74:	8b 45 f4             	mov    -0xc(%rbp),%eax
    9a77:	48 8b 55 f8          	mov    -0x8(%rbp),%rdx
    9a7b:	89 c1                	mov    %eax,%ecx
    9a7d:	48 d3 e2             	shl    %cl,%rdx
    9a80:	48 89 d0             	mov    %rdx,%rax
    9a83:	eb 04                	jmp    9a89 <safe_lshift_func_int64_t_s_s+0x52>
    9a85:	48 8b 45 f8          	mov    -0x8(%rbp),%rax
    9a89:	5d                   	pop    %rbp
    9a8a:	c3                   	retq   

0000000000009a8b <safe_lshift_func_int64_t_s_u>:
    9a8b:	f3 0f 1e fa          	endbr64 
    9a8f:	55                   	push   %rbp
    9a90:	48 89 e5             	mov    %rsp,%rbp
    9a93:	48 89 7d f8          	mov    %rdi,-0x8(%rbp)
    9a97:	89 75 f4             	mov    %esi,-0xc(%rbp)
    9a9a:	48 83 7d f8 00       	cmpq   $0x0,-0x8(%rbp)
    9a9f:	78 32                	js     9ad3 <safe_lshift_func_int64_t_s_u+0x48>
    9aa1:	83 7d f4 1f          	cmpl   $0x1f,-0xc(%rbp)
    9aa5:	77 2c                	ja     9ad3 <safe_lshift_func_int64_t_s_u+0x48>
    9aa7:	8b 45 f4             	mov    -0xc(%rbp),%eax
    9aaa:	48 ba ff ff ff ff ff 	movabs $0x7fffffffffffffff,%rdx
    9ab1:	ff ff 7f 
    9ab4:	89 c1                	mov    %eax,%ecx
    9ab6:	48 d3 fa             	sar    %cl,%rdx
    9ab9:	48 89 d0             	mov    %rdx,%rax
    9abc:	48 39 45 f8          	cmp    %rax,-0x8(%rbp)
    9ac0:	7f 11                	jg     9ad3 <safe_lshift_func_int64_t_s_u+0x48>
    9ac2:	8b 45 f4             	mov    -0xc(%rbp),%eax
    9ac5:	48 8b 55 f8          	mov    -0x8(%rbp),%rdx
    9ac9:	89 c1                	mov    %eax,%ecx
    9acb:	48 d3 e2             	shl    %cl,%rdx
    9ace:	48 89 d0             	mov    %rdx,%rax
    9ad1:	eb 04                	jmp    9ad7 <safe_lshift_func_int64_t_s_u+0x4c>
    9ad3:	48 8b 45 f8          	mov    -0x8(%rbp),%rax
    9ad7:	5d                   	pop    %rbp
    9ad8:	c3                   	retq   

0000000000009ad9 <safe_rshift_func_int64_t_s_s>:
    9ad9:	f3 0f 1e fa          	endbr64 
    9add:	55                   	push   %rbp
    9ade:	48 89 e5             	mov    %rsp,%rbp
    9ae1:	48 89 7d f8          	mov    %rdi,-0x8(%rbp)
    9ae5:	89 75 f4             	mov    %esi,-0xc(%rbp)
    9ae8:	48 83 7d f8 00       	cmpq   $0x0,-0x8(%rbp)
    9aed:	78 1d                	js     9b0c <safe_rshift_func_int64_t_s_s+0x33>
    9aef:	83 7d f4 00          	cmpl   $0x0,-0xc(%rbp)
    9af3:	78 17                	js     9b0c <safe_rshift_func_int64_t_s_s+0x33>
    9af5:	83 7d f4 1f          	cmpl   $0x1f,-0xc(%rbp)
    9af9:	7f 11                	jg     9b0c <safe_rshift_func_int64_t_s_s+0x33>
    9afb:	8b 45 f4             	mov    -0xc(%rbp),%eax
    9afe:	48 8b 55 f8          	mov    -0x8(%rbp),%rdx
    9b02:	89 c1                	mov    %eax,%ecx
    9b04:	48 d3 fa             	sar    %cl,%rdx
    9b07:	48 89 d0             	mov    %rdx,%rax
    9b0a:	eb 04                	jmp    9b10 <safe_rshift_func_int64_t_s_s+0x37>
    9b0c:	48 8b 45 f8          	mov    -0x8(%rbp),%rax
    9b10:	5d                   	pop    %rbp
    9b11:	c3                   	retq   

0000000000009b12 <safe_rshift_func_int64_t_s_u>:
    9b12:	f3 0f 1e fa          	endbr64 
    9b16:	55                   	push   %rbp
    9b17:	48 89 e5             	mov    %rsp,%rbp
    9b1a:	48 89 7d f8          	mov    %rdi,-0x8(%rbp)
    9b1e:	89 75 f4             	mov    %esi,-0xc(%rbp)
    9b21:	48 83 7d f8 00       	cmpq   $0x0,-0x8(%rbp)
    9b26:	78 17                	js     9b3f <safe_rshift_func_int64_t_s_u+0x2d>
    9b28:	83 7d f4 1f          	cmpl   $0x1f,-0xc(%rbp)
    9b2c:	77 11                	ja     9b3f <safe_rshift_func_int64_t_s_u+0x2d>
    9b2e:	8b 45 f4             	mov    -0xc(%rbp),%eax
    9b31:	48 8b 55 f8          	mov    -0x8(%rbp),%rdx
    9b35:	89 c1                	mov    %eax,%ecx
    9b37:	48 d3 fa             	sar    %cl,%rdx
    9b3a:	48 89 d0             	mov    %rdx,%rax
    9b3d:	eb 04                	jmp    9b43 <safe_rshift_func_int64_t_s_u+0x31>
    9b3f:	48 8b 45 f8          	mov    -0x8(%rbp),%rax
    9b43:	5d                   	pop    %rbp
    9b44:	c3                   	retq   

0000000000009b45 <safe_unary_minus_func_uint8_t_u>:
    9b45:	f3 0f 1e fa          	endbr64 
    9b49:	55                   	push   %rbp
    9b4a:	48 89 e5             	mov    %rsp,%rbp
    9b4d:	89 f8                	mov    %edi,%eax
    9b4f:	88 45 fc             	mov    %al,-0x4(%rbp)
    9b52:	0f b6 45 fc          	movzbl -0x4(%rbp),%eax
    9b56:	f7 d8                	neg    %eax
    9b58:	5d                   	pop    %rbp
    9b59:	c3                   	retq   

0000000000009b5a <safe_add_func_uint8_t_u_u>:
    9b5a:	f3 0f 1e fa          	endbr64 
    9b5e:	55                   	push   %rbp
    9b5f:	48 89 e5             	mov    %rsp,%rbp
    9b62:	89 fa                	mov    %edi,%edx
    9b64:	89 f0                	mov    %esi,%eax
    9b66:	88 55 fc             	mov    %dl,-0x4(%rbp)
    9b69:	88 45 f8             	mov    %al,-0x8(%rbp)
    9b6c:	0f b6 55 fc          	movzbl -0x4(%rbp),%edx
    9b70:	0f b6 45 f8          	movzbl -0x8(%rbp),%eax
    9b74:	01 d0                	add    %edx,%eax
    9b76:	5d                   	pop    %rbp
    9b77:	c3                   	retq   

0000000000009b78 <safe_sub_func_uint8_t_u_u>:
    9b78:	f3 0f 1e fa          	endbr64 
    9b7c:	55                   	push   %rbp
    9b7d:	48 89 e5             	mov    %rsp,%rbp
    9b80:	89 fa                	mov    %edi,%edx
    9b82:	89 f0                	mov    %esi,%eax
    9b84:	88 55 fc             	mov    %dl,-0x4(%rbp)
    9b87:	88 45 f8             	mov    %al,-0x8(%rbp)
    9b8a:	0f b6 45 fc          	movzbl -0x4(%rbp),%eax
    9b8e:	2a 45 f8             	sub    -0x8(%rbp),%al
    9b91:	5d                   	pop    %rbp
    9b92:	c3                   	retq   

0000000000009b93 <safe_mul_func_uint8_t_u_u>:
    9b93:	f3 0f 1e fa          	endbr64 
    9b97:	55                   	push   %rbp
    9b98:	48 89 e5             	mov    %rsp,%rbp
    9b9b:	89 fa                	mov    %edi,%edx
    9b9d:	89 f0                	mov    %esi,%eax
    9b9f:	88 55 fc             	mov    %dl,-0x4(%rbp)
    9ba2:	88 45 f8             	mov    %al,-0x8(%rbp)
    9ba5:	0f b6 45 fc          	movzbl -0x4(%rbp),%eax
    9ba9:	f6 65 f8             	mulb   -0x8(%rbp)
    9bac:	5d                   	pop    %rbp
    9bad:	c3                   	retq   

0000000000009bae <safe_mod_func_uint8_t_u_u>:
    9bae:	f3 0f 1e fa          	endbr64 
    9bb2:	55                   	push   %rbp
    9bb3:	48 89 e5             	mov    %rsp,%rbp
    9bb6:	89 fa                	mov    %edi,%edx
    9bb8:	89 f0                	mov    %esi,%eax
    9bba:	88 55 fc             	mov    %dl,-0x4(%rbp)
    9bbd:	88 45 f8             	mov    %al,-0x8(%rbp)
    9bc0:	80 7d f8 00          	cmpb   $0x0,-0x8(%rbp)
    9bc4:	74 0f                	je     9bd5 <safe_mod_func_uint8_t_u_u+0x27>
    9bc6:	0f b6 45 fc          	movzbl -0x4(%rbp),%eax
    9bca:	0f b6 c0             	movzbl %al,%eax
    9bcd:	f6 75 f8             	divb   -0x8(%rbp)
    9bd0:	0f b6 c4             	movzbl %ah,%eax
    9bd3:	eb 04                	jmp    9bd9 <safe_mod_func_uint8_t_u_u+0x2b>
    9bd5:	0f b6 45 fc          	movzbl -0x4(%rbp),%eax
    9bd9:	5d                   	pop    %rbp
    9bda:	c3                   	retq   

0000000000009bdb <safe_div_func_uint8_t_u_u>:
    9bdb:	f3 0f 1e fa          	endbr64 
    9bdf:	55                   	push   %rbp
    9be0:	48 89 e5             	mov    %rsp,%rbp
    9be3:	89 fa                	mov    %edi,%edx
    9be5:	89 f0                	mov    %esi,%eax
    9be7:	88 55 fc             	mov    %dl,-0x4(%rbp)
    9bea:	88 45 f8             	mov    %al,-0x8(%rbp)
    9bed:	80 7d f8 00          	cmpb   $0x0,-0x8(%rbp)
    9bf1:	74 0c                	je     9bff <safe_div_func_uint8_t_u_u+0x24>
    9bf3:	0f b6 45 fc          	movzbl -0x4(%rbp),%eax
    9bf7:	0f b6 c0             	movzbl %al,%eax
    9bfa:	f6 75 f8             	divb   -0x8(%rbp)
    9bfd:	eb 04                	jmp    9c03 <safe_div_func_uint8_t_u_u+0x28>
    9bff:	0f b6 45 fc          	movzbl -0x4(%rbp),%eax
    9c03:	5d                   	pop    %rbp
    9c04:	c3                   	retq   

0000000000009c05 <safe_lshift_func_uint8_t_u_s>:
    9c05:	f3 0f 1e fa          	endbr64 
    9c09:	55                   	push   %rbp
    9c0a:	48 89 e5             	mov    %rsp,%rbp
    9c0d:	89 f8                	mov    %edi,%eax
    9c0f:	89 75 f8             	mov    %esi,-0x8(%rbp)
    9c12:	88 45 fc             	mov    %al,-0x4(%rbp)
    9c15:	83 7d f8 00          	cmpl   $0x0,-0x8(%rbp)
    9c19:	78 2b                	js     9c46 <safe_lshift_func_uint8_t_u_s+0x41>
    9c1b:	83 7d f8 1f          	cmpl   $0x1f,-0x8(%rbp)
    9c1f:	7f 25                	jg     9c46 <safe_lshift_func_uint8_t_u_s+0x41>
    9c21:	0f b6 55 fc          	movzbl -0x4(%rbp),%edx
    9c25:	8b 45 f8             	mov    -0x8(%rbp),%eax
    9c28:	be ff 00 00 00       	mov    $0xff,%esi
    9c2d:	89 c1                	mov    %eax,%ecx
    9c2f:	d3 fe                	sar    %cl,%esi
    9c31:	89 f0                	mov    %esi,%eax
    9c33:	39 c2                	cmp    %eax,%edx
    9c35:	7f 0f                	jg     9c46 <safe_lshift_func_uint8_t_u_s+0x41>
    9c37:	0f b6 55 fc          	movzbl -0x4(%rbp),%edx
    9c3b:	8b 45 f8             	mov    -0x8(%rbp),%eax
    9c3e:	89 c1                	mov    %eax,%ecx
    9c40:	d3 e2                	shl    %cl,%edx
    9c42:	89 d0                	mov    %edx,%eax
    9c44:	eb 04                	jmp    9c4a <safe_lshift_func_uint8_t_u_s+0x45>
    9c46:	0f b6 45 fc          	movzbl -0x4(%rbp),%eax
    9c4a:	5d                   	pop    %rbp
    9c4b:	c3                   	retq   

0000000000009c4c <safe_lshift_func_uint8_t_u_u>:
    9c4c:	f3 0f 1e fa          	endbr64 
    9c50:	55                   	push   %rbp
    9c51:	48 89 e5             	mov    %rsp,%rbp
    9c54:	89 f8                	mov    %edi,%eax
    9c56:	89 75 f8             	mov    %esi,-0x8(%rbp)
    9c59:	88 45 fc             	mov    %al,-0x4(%rbp)
    9c5c:	83 7d f8 1f          	cmpl   $0x1f,-0x8(%rbp)
    9c60:	77 25                	ja     9c87 <safe_lshift_func_uint8_t_u_u+0x3b>
    9c62:	0f b6 55 fc          	movzbl -0x4(%rbp),%edx
    9c66:	8b 45 f8             	mov    -0x8(%rbp),%eax
    9c69:	be ff 00 00 00       	mov    $0xff,%esi
    9c6e:	89 c1                	mov    %eax,%ecx
    9c70:	d3 fe                	sar    %cl,%esi
    9c72:	89 f0                	mov    %esi,%eax
    9c74:	39 c2                	cmp    %eax,%edx
    9c76:	7f 0f                	jg     9c87 <safe_lshift_func_uint8_t_u_u+0x3b>
    9c78:	0f b6 55 fc          	movzbl -0x4(%rbp),%edx
    9c7c:	8b 45 f8             	mov    -0x8(%rbp),%eax
    9c7f:	89 c1                	mov    %eax,%ecx
    9c81:	d3 e2                	shl    %cl,%edx
    9c83:	89 d0                	mov    %edx,%eax
    9c85:	eb 04                	jmp    9c8b <safe_lshift_func_uint8_t_u_u+0x3f>
    9c87:	0f b6 45 fc          	movzbl -0x4(%rbp),%eax
    9c8b:	5d                   	pop    %rbp
    9c8c:	c3                   	retq   

0000000000009c8d <safe_rshift_func_uint8_t_u_s>:
    9c8d:	f3 0f 1e fa          	endbr64 
    9c91:	55                   	push   %rbp
    9c92:	48 89 e5             	mov    %rsp,%rbp
    9c95:	89 f8                	mov    %edi,%eax
    9c97:	89 75 f8             	mov    %esi,-0x8(%rbp)
    9c9a:	88 45 fc             	mov    %al,-0x4(%rbp)
    9c9d:	83 7d f8 00          	cmpl   $0x0,-0x8(%rbp)
    9ca1:	78 15                	js     9cb8 <safe_rshift_func_uint8_t_u_s+0x2b>
    9ca3:	83 7d f8 1f          	cmpl   $0x1f,-0x8(%rbp)
    9ca7:	7f 0f                	jg     9cb8 <safe_rshift_func_uint8_t_u_s+0x2b>
    9ca9:	0f b6 55 fc          	movzbl -0x4(%rbp),%edx
    9cad:	8b 45 f8             	mov    -0x8(%rbp),%eax
    9cb0:	89 c1                	mov    %eax,%ecx
    9cb2:	d3 fa                	sar    %cl,%edx
    9cb4:	89 d0                	mov    %edx,%eax
    9cb6:	eb 04                	jmp    9cbc <safe_rshift_func_uint8_t_u_s+0x2f>
    9cb8:	0f b6 45 fc          	movzbl -0x4(%rbp),%eax
    9cbc:	5d                   	pop    %rbp
    9cbd:	c3                   	retq   

0000000000009cbe <safe_rshift_func_uint8_t_u_u>:
    9cbe:	f3 0f 1e fa          	endbr64 
    9cc2:	55                   	push   %rbp
    9cc3:	48 89 e5             	mov    %rsp,%rbp
    9cc6:	89 f8                	mov    %edi,%eax
    9cc8:	89 75 f8             	mov    %esi,-0x8(%rbp)
    9ccb:	88 45 fc             	mov    %al,-0x4(%rbp)
    9cce:	83 7d f8 1f          	cmpl   $0x1f,-0x8(%rbp)
    9cd2:	77 0f                	ja     9ce3 <safe_rshift_func_uint8_t_u_u+0x25>
    9cd4:	0f b6 55 fc          	movzbl -0x4(%rbp),%edx
    9cd8:	8b 45 f8             	mov    -0x8(%rbp),%eax
    9cdb:	89 c1                	mov    %eax,%ecx
    9cdd:	d3 fa                	sar    %cl,%edx
    9cdf:	89 d0                	mov    %edx,%eax
    9ce1:	eb 04                	jmp    9ce7 <safe_rshift_func_uint8_t_u_u+0x29>
    9ce3:	0f b6 45 fc          	movzbl -0x4(%rbp),%eax
    9ce7:	5d                   	pop    %rbp
    9ce8:	c3                   	retq   

0000000000009ce9 <safe_unary_minus_func_uint16_t_u>:
    9ce9:	f3 0f 1e fa          	endbr64 
    9ced:	55                   	push   %rbp
    9cee:	48 89 e5             	mov    %rsp,%rbp
    9cf1:	89 f8                	mov    %edi,%eax
    9cf3:	66 89 45 fc          	mov    %ax,-0x4(%rbp)
    9cf7:	0f b7 45 fc          	movzwl -0x4(%rbp),%eax
    9cfb:	f7 d8                	neg    %eax
    9cfd:	5d                   	pop    %rbp
    9cfe:	c3                   	retq   

0000000000009cff <safe_add_func_uint16_t_u_u>:
    9cff:	f3 0f 1e fa          	endbr64 
    9d03:	55                   	push   %rbp
    9d04:	48 89 e5             	mov    %rsp,%rbp
    9d07:	89 fa                	mov    %edi,%edx
    9d09:	89 f0                	mov    %esi,%eax
    9d0b:	66 89 55 fc          	mov    %dx,-0x4(%rbp)
    9d0f:	66 89 45 f8          	mov    %ax,-0x8(%rbp)
    9d13:	0f b7 55 fc          	movzwl -0x4(%rbp),%edx
    9d17:	0f b7 45 f8          	movzwl -0x8(%rbp),%eax
    9d1b:	01 d0                	add    %edx,%eax
    9d1d:	5d                   	pop    %rbp
    9d1e:	c3                   	retq   

0000000000009d1f <safe_sub_func_uint16_t_u_u>:
    9d1f:	f3 0f 1e fa          	endbr64 
    9d23:	55                   	push   %rbp
    9d24:	48 89 e5             	mov    %rsp,%rbp
    9d27:	89 fa                	mov    %edi,%edx
    9d29:	89 f0                	mov    %esi,%eax
    9d2b:	66 89 55 fc          	mov    %dx,-0x4(%rbp)
    9d2f:	66 89 45 f8          	mov    %ax,-0x8(%rbp)
    9d33:	0f b7 45 fc          	movzwl -0x4(%rbp),%eax
    9d37:	66 2b 45 f8          	sub    -0x8(%rbp),%ax
    9d3b:	5d                   	pop    %rbp
    9d3c:	c3                   	retq   

0000000000009d3d <safe_mul_func_uint16_t_u_u>:
    9d3d:	f3 0f 1e fa          	endbr64 
    9d41:	55                   	push   %rbp
    9d42:	48 89 e5             	mov    %rsp,%rbp
    9d45:	89 fa                	mov    %edi,%edx
    9d47:	89 f0                	mov    %esi,%eax
    9d49:	66 89 55 fc          	mov    %dx,-0x4(%rbp)
    9d4d:	66 89 45 f8          	mov    %ax,-0x8(%rbp)
    9d51:	0f b7 45 fc          	movzwl -0x4(%rbp),%eax
    9d55:	66 0f af 45 f8       	imul   -0x8(%rbp),%ax
    9d5a:	5d                   	pop    %rbp
    9d5b:	c3                   	retq   

0000000000009d5c <safe_mod_func_uint16_t_u_u>:
    9d5c:	f3 0f 1e fa          	endbr64 
    9d60:	55                   	push   %rbp
    9d61:	48 89 e5             	mov    %rsp,%rbp
    9d64:	89 fa                	mov    %edi,%edx
    9d66:	89 f0                	mov    %esi,%eax
    9d68:	66 89 55 fc          	mov    %dx,-0x4(%rbp)
    9d6c:	66 89 45 f8          	mov    %ax,-0x8(%rbp)
    9d70:	66 83 7d f8 00       	cmpw   $0x0,-0x8(%rbp)
    9d75:	74 11                	je     9d88 <safe_mod_func_uint16_t_u_u+0x2c>
    9d77:	0f b7 45 fc          	movzwl -0x4(%rbp),%eax
    9d7b:	ba 00 00 00 00       	mov    $0x0,%edx
    9d80:	66 f7 75 f8          	divw   -0x8(%rbp)
    9d84:	89 d0                	mov    %edx,%eax
    9d86:	eb 04                	jmp    9d8c <safe_mod_func_uint16_t_u_u+0x30>
    9d88:	0f b7 45 fc          	movzwl -0x4(%rbp),%eax
    9d8c:	5d                   	pop    %rbp
    9d8d:	c3                   	retq   

0000000000009d8e <safe_div_func_uint16_t_u_u>:
    9d8e:	f3 0f 1e fa          	endbr64 
    9d92:	55                   	push   %rbp
    9d93:	48 89 e5             	mov    %rsp,%rbp
    9d96:	89 fa                	mov    %edi,%edx
    9d98:	89 f0                	mov    %esi,%eax
    9d9a:	66 89 55 fc          	mov    %dx,-0x4(%rbp)
    9d9e:	66 89 45 f8          	mov    %ax,-0x8(%rbp)
    9da2:	66 83 7d f8 00       	cmpw   $0x0,-0x8(%rbp)
    9da7:	74 0f                	je     9db8 <safe_div_func_uint16_t_u_u+0x2a>
    9da9:	0f b7 45 fc          	movzwl -0x4(%rbp),%eax
    9dad:	ba 00 00 00 00       	mov    $0x0,%edx
    9db2:	66 f7 75 f8          	divw   -0x8(%rbp)
    9db6:	eb 04                	jmp    9dbc <safe_div_func_uint16_t_u_u+0x2e>
    9db8:	0f b7 45 fc          	movzwl -0x4(%rbp),%eax
    9dbc:	5d                   	pop    %rbp
    9dbd:	c3                   	retq   

0000000000009dbe <safe_lshift_func_uint16_t_u_s>:
    9dbe:	f3 0f 1e fa          	endbr64 
    9dc2:	55                   	push   %rbp
    9dc3:	48 89 e5             	mov    %rsp,%rbp
    9dc6:	89 f8                	mov    %edi,%eax
    9dc8:	89 75 f8             	mov    %esi,-0x8(%rbp)
    9dcb:	66 89 45 fc          	mov    %ax,-0x4(%rbp)
    9dcf:	83 7d f8 00          	cmpl   $0x0,-0x8(%rbp)
    9dd3:	78 2b                	js     9e00 <safe_lshift_func_uint16_t_u_s+0x42>
    9dd5:	83 7d f8 1f          	cmpl   $0x1f,-0x8(%rbp)
    9dd9:	7f 25                	jg     9e00 <safe_lshift_func_uint16_t_u_s+0x42>
    9ddb:	0f b7 55 fc          	movzwl -0x4(%rbp),%edx
    9ddf:	8b 45 f8             	mov    -0x8(%rbp),%eax
    9de2:	be ff ff 00 00       	mov    $0xffff,%esi
    9de7:	89 c1                	mov    %eax,%ecx
    9de9:	d3 fe                	sar    %cl,%esi
    9deb:	89 f0                	mov    %esi,%eax
    9ded:	39 c2                	cmp    %eax,%edx
    9def:	7f 0f                	jg     9e00 <safe_lshift_func_uint16_t_u_s+0x42>
    9df1:	0f b7 55 fc          	movzwl -0x4(%rbp),%edx
    9df5:	8b 45 f8             	mov    -0x8(%rbp),%eax
    9df8:	89 c1                	mov    %eax,%ecx
    9dfa:	d3 e2                	shl    %cl,%edx
    9dfc:	89 d0                	mov    %edx,%eax
    9dfe:	eb 04                	jmp    9e04 <safe_lshift_func_uint16_t_u_s+0x46>
    9e00:	0f b7 45 fc          	movzwl -0x4(%rbp),%eax
    9e04:	5d                   	pop    %rbp
    9e05:	c3                   	retq   

0000000000009e06 <safe_lshift_func_uint16_t_u_u>:
    9e06:	f3 0f 1e fa          	endbr64 
    9e0a:	55                   	push   %rbp
    9e0b:	48 89 e5             	mov    %rsp,%rbp
    9e0e:	89 f8                	mov    %edi,%eax
    9e10:	89 75 f8             	mov    %esi,-0x8(%rbp)
    9e13:	66 89 45 fc          	mov    %ax,-0x4(%rbp)
    9e17:	83 7d f8 1f          	cmpl   $0x1f,-0x8(%rbp)
    9e1b:	77 25                	ja     9e42 <safe_lshift_func_uint16_t_u_u+0x3c>
    9e1d:	0f b7 55 fc          	movzwl -0x4(%rbp),%edx
    9e21:	8b 45 f8             	mov    -0x8(%rbp),%eax
    9e24:	be ff ff 00 00       	mov    $0xffff,%esi
    9e29:	89 c1                	mov    %eax,%ecx
    9e2b:	d3 fe                	sar    %cl,%esi
    9e2d:	89 f0                	mov    %esi,%eax
    9e2f:	39 c2                	cmp    %eax,%edx
    9e31:	7f 0f                	jg     9e42 <safe_lshift_func_uint16_t_u_u+0x3c>
    9e33:	0f b7 55 fc          	movzwl -0x4(%rbp),%edx
    9e37:	8b 45 f8             	mov    -0x8(%rbp),%eax
    9e3a:	89 c1                	mov    %eax,%ecx
    9e3c:	d3 e2                	shl    %cl,%edx
    9e3e:	89 d0                	mov    %edx,%eax
    9e40:	eb 04                	jmp    9e46 <safe_lshift_func_uint16_t_u_u+0x40>
    9e42:	0f b7 45 fc          	movzwl -0x4(%rbp),%eax
    9e46:	5d                   	pop    %rbp
    9e47:	c3                   	retq   

0000000000009e48 <safe_rshift_func_uint16_t_u_s>:
    9e48:	f3 0f 1e fa          	endbr64 
    9e4c:	55                   	push   %rbp
    9e4d:	48 89 e5             	mov    %rsp,%rbp
    9e50:	89 f8                	mov    %edi,%eax
    9e52:	89 75 f8             	mov    %esi,-0x8(%rbp)
    9e55:	66 89 45 fc          	mov    %ax,-0x4(%rbp)
    9e59:	83 7d f8 00          	cmpl   $0x0,-0x8(%rbp)
    9e5d:	78 15                	js     9e74 <safe_rshift_func_uint16_t_u_s+0x2c>
    9e5f:	83 7d f8 1f          	cmpl   $0x1f,-0x8(%rbp)
    9e63:	7f 0f                	jg     9e74 <safe_rshift_func_uint16_t_u_s+0x2c>
    9e65:	0f b7 55 fc          	movzwl -0x4(%rbp),%edx
    9e69:	8b 45 f8             	mov    -0x8(%rbp),%eax
    9e6c:	89 c1                	mov    %eax,%ecx
    9e6e:	d3 fa                	sar    %cl,%edx
    9e70:	89 d0                	mov    %edx,%eax
    9e72:	eb 04                	jmp    9e78 <safe_rshift_func_uint16_t_u_s+0x30>
    9e74:	0f b7 45 fc          	movzwl -0x4(%rbp),%eax
    9e78:	5d                   	pop    %rbp
    9e79:	c3                   	retq   

0000000000009e7a <safe_rshift_func_uint16_t_u_u>:
    9e7a:	f3 0f 1e fa          	endbr64 
    9e7e:	55                   	push   %rbp
    9e7f:	48 89 e5             	mov    %rsp,%rbp
    9e82:	89 f8                	mov    %edi,%eax
    9e84:	89 75 f8             	mov    %esi,-0x8(%rbp)
    9e87:	66 89 45 fc          	mov    %ax,-0x4(%rbp)
    9e8b:	83 7d f8 1f          	cmpl   $0x1f,-0x8(%rbp)
    9e8f:	77 0f                	ja     9ea0 <safe_rshift_func_uint16_t_u_u+0x26>
    9e91:	0f b7 55 fc          	movzwl -0x4(%rbp),%edx
    9e95:	8b 45 f8             	mov    -0x8(%rbp),%eax
    9e98:	89 c1                	mov    %eax,%ecx
    9e9a:	d3 fa                	sar    %cl,%edx
    9e9c:	89 d0                	mov    %edx,%eax
    9e9e:	eb 04                	jmp    9ea4 <safe_rshift_func_uint16_t_u_u+0x2a>
    9ea0:	0f b7 45 fc          	movzwl -0x4(%rbp),%eax
    9ea4:	5d                   	pop    %rbp
    9ea5:	c3                   	retq   

0000000000009ea6 <safe_unary_minus_func_uint32_t_u>:
    9ea6:	f3 0f 1e fa          	endbr64 
    9eaa:	55                   	push   %rbp
    9eab:	48 89 e5             	mov    %rsp,%rbp
    9eae:	89 7d fc             	mov    %edi,-0x4(%rbp)
    9eb1:	8b 45 fc             	mov    -0x4(%rbp),%eax
    9eb4:	f7 d8                	neg    %eax
    9eb6:	5d                   	pop    %rbp
    9eb7:	c3                   	retq   

0000000000009eb8 <safe_add_func_uint32_t_u_u>:
    9eb8:	f3 0f 1e fa          	endbr64 
    9ebc:	55                   	push   %rbp
    9ebd:	48 89 e5             	mov    %rsp,%rbp
    9ec0:	89 7d fc             	mov    %edi,-0x4(%rbp)
    9ec3:	89 75 f8             	mov    %esi,-0x8(%rbp)
    9ec6:	8b 55 fc             	mov    -0x4(%rbp),%edx
    9ec9:	8b 45 f8             	mov    -0x8(%rbp),%eax
    9ecc:	01 d0                	add    %edx,%eax
    9ece:	5d                   	pop    %rbp
    9ecf:	c3                   	retq   

0000000000009ed0 <safe_sub_func_uint32_t_u_u>:
    9ed0:	f3 0f 1e fa          	endbr64 
    9ed4:	55                   	push   %rbp
    9ed5:	48 89 e5             	mov    %rsp,%rbp
    9ed8:	89 7d fc             	mov    %edi,-0x4(%rbp)
    9edb:	89 75 f8             	mov    %esi,-0x8(%rbp)
    9ede:	8b 45 fc             	mov    -0x4(%rbp),%eax
    9ee1:	2b 45 f8             	sub    -0x8(%rbp),%eax
    9ee4:	5d                   	pop    %rbp
    9ee5:	c3                   	retq   

0000000000009ee6 <safe_mul_func_uint32_t_u_u>:
    9ee6:	f3 0f 1e fa          	endbr64 
    9eea:	55                   	push   %rbp
    9eeb:	48 89 e5             	mov    %rsp,%rbp
    9eee:	89 7d fc             	mov    %edi,-0x4(%rbp)
    9ef1:	89 75 f8             	mov    %esi,-0x8(%rbp)
    9ef4:	8b 45 fc             	mov    -0x4(%rbp),%eax
    9ef7:	0f af 45 f8          	imul   -0x8(%rbp),%eax
    9efb:	5d                   	pop    %rbp
    9efc:	c3                   	retq   

0000000000009efd <safe_mod_func_uint32_t_u_u>:
    9efd:	f3 0f 1e fa          	endbr64 
    9f01:	55                   	push   %rbp
    9f02:	48 89 e5             	mov    %rsp,%rbp
    9f05:	89 7d fc             	mov    %edi,-0x4(%rbp)
    9f08:	89 75 f8             	mov    %esi,-0x8(%rbp)
    9f0b:	83 7d f8 00          	cmpl   $0x0,-0x8(%rbp)
    9f0f:	74 0f                	je     9f20 <safe_mod_func_uint32_t_u_u+0x23>
    9f11:	8b 45 fc             	mov    -0x4(%rbp),%eax
    9f14:	ba 00 00 00 00       	mov    $0x0,%edx
    9f19:	f7 75 f8             	divl   -0x8(%rbp)
    9f1c:	89 d0                	mov    %edx,%eax
    9f1e:	eb 03                	jmp    9f23 <safe_mod_func_uint32_t_u_u+0x26>
    9f20:	8b 45 fc             	mov    -0x4(%rbp),%eax
    9f23:	5d                   	pop    %rbp
    9f24:	c3                   	retq   

0000000000009f25 <safe_div_func_uint32_t_u_u>:
    9f25:	f3 0f 1e fa          	endbr64 
    9f29:	55                   	push   %rbp
    9f2a:	48 89 e5             	mov    %rsp,%rbp
    9f2d:	89 7d fc             	mov    %edi,-0x4(%rbp)
    9f30:	89 75 f8             	mov    %esi,-0x8(%rbp)
    9f33:	83 7d f8 00          	cmpl   $0x0,-0x8(%rbp)
    9f37:	74 0d                	je     9f46 <safe_div_func_uint32_t_u_u+0x21>
    9f39:	8b 45 fc             	mov    -0x4(%rbp),%eax
    9f3c:	ba 00 00 00 00       	mov    $0x0,%edx
    9f41:	f7 75 f8             	divl   -0x8(%rbp)
    9f44:	eb 03                	jmp    9f49 <safe_div_func_uint32_t_u_u+0x24>
    9f46:	8b 45 fc             	mov    -0x4(%rbp),%eax
    9f49:	5d                   	pop    %rbp
    9f4a:	c3                   	retq   

0000000000009f4b <safe_lshift_func_uint32_t_u_s>:
    9f4b:	f3 0f 1e fa          	endbr64 
    9f4f:	55                   	push   %rbp
    9f50:	48 89 e5             	mov    %rsp,%rbp
    9f53:	89 7d fc             	mov    %edi,-0x4(%rbp)
    9f56:	89 75 f8             	mov    %esi,-0x8(%rbp)
    9f59:	83 7d f8 00          	cmpl   $0x0,-0x8(%rbp)
    9f5d:	78 27                	js     9f86 <safe_lshift_func_uint32_t_u_s+0x3b>
    9f5f:	83 7d f8 1f          	cmpl   $0x1f,-0x8(%rbp)
    9f63:	7f 21                	jg     9f86 <safe_lshift_func_uint32_t_u_s+0x3b>
    9f65:	8b 45 f8             	mov    -0x8(%rbp),%eax
    9f68:	ba ff ff ff ff       	mov    $0xffffffff,%edx
    9f6d:	89 c1                	mov    %eax,%ecx
    9f6f:	d3 ea                	shr    %cl,%edx
    9f71:	89 d0                	mov    %edx,%eax
    9f73:	39 45 fc             	cmp    %eax,-0x4(%rbp)
    9f76:	77 0e                	ja     9f86 <safe_lshift_func_uint32_t_u_s+0x3b>
    9f78:	8b 45 f8             	mov    -0x8(%rbp),%eax
    9f7b:	8b 55 fc             	mov    -0x4(%rbp),%edx
    9f7e:	89 c1                	mov    %eax,%ecx
    9f80:	d3 e2                	shl    %cl,%edx
    9f82:	89 d0                	mov    %edx,%eax
    9f84:	eb 03                	jmp    9f89 <safe_lshift_func_uint32_t_u_s+0x3e>
    9f86:	8b 45 fc             	mov    -0x4(%rbp),%eax
    9f89:	5d                   	pop    %rbp
    9f8a:	c3                   	retq   

0000000000009f8b <safe_lshift_func_uint32_t_u_u>:
    9f8b:	f3 0f 1e fa          	endbr64 
    9f8f:	55                   	push   %rbp
    9f90:	48 89 e5             	mov    %rsp,%rbp
    9f93:	89 7d fc             	mov    %edi,-0x4(%rbp)
    9f96:	89 75 f8             	mov    %esi,-0x8(%rbp)
    9f99:	83 7d f8 1f          	cmpl   $0x1f,-0x8(%rbp)
    9f9d:	77 21                	ja     9fc0 <safe_lshift_func_uint32_t_u_u+0x35>
    9f9f:	8b 45 f8             	mov    -0x8(%rbp),%eax
    9fa2:	ba ff ff ff ff       	mov    $0xffffffff,%edx
    9fa7:	89 c1                	mov    %eax,%ecx
    9fa9:	d3 ea                	shr    %cl,%edx
    9fab:	89 d0                	mov    %edx,%eax
    9fad:	39 45 fc             	cmp    %eax,-0x4(%rbp)
    9fb0:	77 0e                	ja     9fc0 <safe_lshift_func_uint32_t_u_u+0x35>
    9fb2:	8b 45 f8             	mov    -0x8(%rbp),%eax
    9fb5:	8b 55 fc             	mov    -0x4(%rbp),%edx
    9fb8:	89 c1                	mov    %eax,%ecx
    9fba:	d3 e2                	shl    %cl,%edx
    9fbc:	89 d0                	mov    %edx,%eax
    9fbe:	eb 03                	jmp    9fc3 <safe_lshift_func_uint32_t_u_u+0x38>
    9fc0:	8b 45 fc             	mov    -0x4(%rbp),%eax
    9fc3:	5d                   	pop    %rbp
    9fc4:	c3                   	retq   

0000000000009fc5 <safe_rshift_func_uint32_t_u_s>:
    9fc5:	f3 0f 1e fa          	endbr64 
    9fc9:	55                   	push   %rbp
    9fca:	48 89 e5             	mov    %rsp,%rbp
    9fcd:	89 7d fc             	mov    %edi,-0x4(%rbp)
    9fd0:	89 75 f8             	mov    %esi,-0x8(%rbp)
    9fd3:	83 7d f8 00          	cmpl   $0x0,-0x8(%rbp)
    9fd7:	78 14                	js     9fed <safe_rshift_func_uint32_t_u_s+0x28>
    9fd9:	83 7d f8 1f          	cmpl   $0x1f,-0x8(%rbp)
    9fdd:	7f 0e                	jg     9fed <safe_rshift_func_uint32_t_u_s+0x28>
    9fdf:	8b 45 f8             	mov    -0x8(%rbp),%eax
    9fe2:	8b 55 fc             	mov    -0x4(%rbp),%edx
    9fe5:	89 c1                	mov    %eax,%ecx
    9fe7:	d3 ea                	shr    %cl,%edx
    9fe9:	89 d0                	mov    %edx,%eax
    9feb:	eb 03                	jmp    9ff0 <safe_rshift_func_uint32_t_u_s+0x2b>
    9fed:	8b 45 fc             	mov    -0x4(%rbp),%eax
    9ff0:	5d                   	pop    %rbp
    9ff1:	c3                   	retq   

0000000000009ff2 <safe_rshift_func_uint32_t_u_u>:
    9ff2:	f3 0f 1e fa          	endbr64 
    9ff6:	55                   	push   %rbp
    9ff7:	48 89 e5             	mov    %rsp,%rbp
    9ffa:	89 7d fc             	mov    %edi,-0x4(%rbp)
    9ffd:	89 75 f8             	mov    %esi,-0x8(%rbp)
    a000:	83 7d f8 1f          	cmpl   $0x1f,-0x8(%rbp)
    a004:	77 0e                	ja     a014 <safe_rshift_func_uint32_t_u_u+0x22>
    a006:	8b 45 f8             	mov    -0x8(%rbp),%eax
    a009:	8b 55 fc             	mov    -0x4(%rbp),%edx
    a00c:	89 c1                	mov    %eax,%ecx
    a00e:	d3 ea                	shr    %cl,%edx
    a010:	89 d0                	mov    %edx,%eax
    a012:	eb 03                	jmp    a017 <safe_rshift_func_uint32_t_u_u+0x25>
    a014:	8b 45 fc             	mov    -0x4(%rbp),%eax
    a017:	5d                   	pop    %rbp
    a018:	c3                   	retq   

000000000000a019 <safe_unary_minus_func_uint64_t_u>:
    a019:	f3 0f 1e fa          	endbr64 
    a01d:	55                   	push   %rbp
    a01e:	48 89 e5             	mov    %rsp,%rbp
    a021:	48 89 7d f8          	mov    %rdi,-0x8(%rbp)
    a025:	48 8b 45 f8          	mov    -0x8(%rbp),%rax
    a029:	48 f7 d8             	neg    %rax
    a02c:	5d                   	pop    %rbp
    a02d:	c3                   	retq   

000000000000a02e <safe_add_func_uint64_t_u_u>:
    a02e:	f3 0f 1e fa          	endbr64 
    a032:	55                   	push   %rbp
    a033:	48 89 e5             	mov    %rsp,%rbp
    a036:	48 89 7d f8          	mov    %rdi,-0x8(%rbp)
    a03a:	48 89 75 f0          	mov    %rsi,-0x10(%rbp)
    a03e:	48 8b 55 f8          	mov    -0x8(%rbp),%rdx
    a042:	48 8b 45 f0          	mov    -0x10(%rbp),%rax
    a046:	48 01 d0             	add    %rdx,%rax
    a049:	5d                   	pop    %rbp
    a04a:	c3                   	retq   

000000000000a04b <safe_sub_func_uint64_t_u_u>:
    a04b:	f3 0f 1e fa          	endbr64 
    a04f:	55                   	push   %rbp
    a050:	48 89 e5             	mov    %rsp,%rbp
    a053:	48 89 7d f8          	mov    %rdi,-0x8(%rbp)
    a057:	48 89 75 f0          	mov    %rsi,-0x10(%rbp)
    a05b:	48 8b 45 f8          	mov    -0x8(%rbp),%rax
    a05f:	48 2b 45 f0          	sub    -0x10(%rbp),%rax
    a063:	5d                   	pop    %rbp
    a064:	c3                   	retq   

000000000000a065 <safe_mul_func_uint64_t_u_u>:
    a065:	f3 0f 1e fa          	endbr64 
    a069:	55                   	push   %rbp
    a06a:	48 89 e5             	mov    %rsp,%rbp
    a06d:	48 89 7d f8          	mov    %rdi,-0x8(%rbp)
    a071:	48 89 75 f0          	mov    %rsi,-0x10(%rbp)
    a075:	48 8b 45 f8          	mov    -0x8(%rbp),%rax
    a079:	48 0f af 45 f0       	imul   -0x10(%rbp),%rax
    a07e:	5d                   	pop    %rbp
    a07f:	c3                   	retq   

000000000000a080 <safe_mod_func_uint64_t_u_u>:
    a080:	f3 0f 1e fa          	endbr64 
    a084:	55                   	push   %rbp
    a085:	48 89 e5             	mov    %rsp,%rbp
    a088:	48 89 7d f8          	mov    %rdi,-0x8(%rbp)
    a08c:	48 89 75 f0          	mov    %rsi,-0x10(%rbp)
    a090:	48 83 7d f0 00       	cmpq   $0x0,-0x10(%rbp)
    a095:	74 12                	je     a0a9 <safe_mod_func_uint64_t_u_u+0x29>
    a097:	48 8b 45 f8          	mov    -0x8(%rbp),%rax
    a09b:	ba 00 00 00 00       	mov    $0x0,%edx
    a0a0:	48 f7 75 f0          	divq   -0x10(%rbp)
    a0a4:	48 89 d0             	mov    %rdx,%rax
    a0a7:	eb 04                	jmp    a0ad <safe_mod_func_uint64_t_u_u+0x2d>
    a0a9:	48 8b 45 f8          	mov    -0x8(%rbp),%rax
    a0ad:	5d                   	pop    %rbp
    a0ae:	c3                   	retq   

000000000000a0af <safe_div_func_uint64_t_u_u>:
    a0af:	f3 0f 1e fa          	endbr64 
    a0b3:	55                   	push   %rbp
    a0b4:	48 89 e5             	mov    %rsp,%rbp
    a0b7:	48 89 7d f8          	mov    %rdi,-0x8(%rbp)
    a0bb:	48 89 75 f0          	mov    %rsi,-0x10(%rbp)
    a0bf:	48 83 7d f0 00       	cmpq   $0x0,-0x10(%rbp)
    a0c4:	74 0f                	je     a0d5 <safe_div_func_uint64_t_u_u+0x26>
    a0c6:	48 8b 45 f8          	mov    -0x8(%rbp),%rax
    a0ca:	ba 00 00 00 00       	mov    $0x0,%edx
    a0cf:	48 f7 75 f0          	divq   -0x10(%rbp)
    a0d3:	eb 04                	jmp    a0d9 <safe_div_func_uint64_t_u_u+0x2a>
    a0d5:	48 8b 45 f8          	mov    -0x8(%rbp),%rax
    a0d9:	5d                   	pop    %rbp
    a0da:	c3                   	retq   

000000000000a0db <safe_lshift_func_uint64_t_u_s>:
    a0db:	f3 0f 1e fa          	endbr64 
    a0df:	55                   	push   %rbp
    a0e0:	48 89 e5             	mov    %rsp,%rbp
    a0e3:	48 89 7d f8          	mov    %rdi,-0x8(%rbp)
    a0e7:	89 75 f4             	mov    %esi,-0xc(%rbp)
    a0ea:	83 7d f4 00          	cmpl   $0x0,-0xc(%rbp)
    a0ee:	78 2f                	js     a11f <safe_lshift_func_uint64_t_u_s+0x44>
    a0f0:	83 7d f4 1f          	cmpl   $0x1f,-0xc(%rbp)
    a0f4:	7f 29                	jg     a11f <safe_lshift_func_uint64_t_u_s+0x44>
    a0f6:	8b 45 f4             	mov    -0xc(%rbp),%eax
    a0f9:	48 c7 c2 ff ff ff ff 	mov    $0xffffffffffffffff,%rdx
    a100:	89 c1                	mov    %eax,%ecx
    a102:	48 d3 ea             	shr    %cl,%rdx
    a105:	48 89 d0             	mov    %rdx,%rax
    a108:	48 39 45 f8          	cmp    %rax,-0x8(%rbp)
    a10c:	77 11                	ja     a11f <safe_lshift_func_uint64_t_u_s+0x44>
    a10e:	8b 45 f4             	mov    -0xc(%rbp),%eax
    a111:	48 8b 55 f8          	mov    -0x8(%rbp),%rdx
    a115:	89 c1                	mov    %eax,%ecx
    a117:	48 d3 e2             	shl    %cl,%rdx
    a11a:	48 89 d0             	mov    %rdx,%rax
    a11d:	eb 04                	jmp    a123 <safe_lshift_func_uint64_t_u_s+0x48>
    a11f:	48 8b 45 f8          	mov    -0x8(%rbp),%rax
    a123:	5d                   	pop    %rbp
    a124:	c3                   	retq   

000000000000a125 <safe_lshift_func_uint64_t_u_u>:
    a125:	f3 0f 1e fa          	endbr64 
    a129:	55                   	push   %rbp
    a12a:	48 89 e5             	mov    %rsp,%rbp
    a12d:	48 89 7d f8          	mov    %rdi,-0x8(%rbp)
    a131:	89 75 f4             	mov    %esi,-0xc(%rbp)
    a134:	83 7d f4 1f          	cmpl   $0x1f,-0xc(%rbp)
    a138:	77 29                	ja     a163 <safe_lshift_func_uint64_t_u_u+0x3e>
    a13a:	8b 45 f4             	mov    -0xc(%rbp),%eax
    a13d:	48 c7 c2 ff ff ff ff 	mov    $0xffffffffffffffff,%rdx
    a144:	89 c1                	mov    %eax,%ecx
    a146:	48 d3 ea             	shr    %cl,%rdx
    a149:	48 89 d0             	mov    %rdx,%rax
    a14c:	48 39 45 f8          	cmp    %rax,-0x8(%rbp)
    a150:	77 11                	ja     a163 <safe_lshift_func_uint64_t_u_u+0x3e>
    a152:	8b 45 f4             	mov    -0xc(%rbp),%eax
    a155:	48 8b 55 f8          	mov    -0x8(%rbp),%rdx
    a159:	89 c1                	mov    %eax,%ecx
    a15b:	48 d3 e2             	shl    %cl,%rdx
    a15e:	48 89 d0             	mov    %rdx,%rax
    a161:	eb 04                	jmp    a167 <safe_lshift_func_uint64_t_u_u+0x42>
    a163:	48 8b 45 f8          	mov    -0x8(%rbp),%rax
    a167:	5d                   	pop    %rbp
    a168:	c3                   	retq   

000000000000a169 <safe_rshift_func_uint64_t_u_s>:
    a169:	f3 0f 1e fa          	endbr64 
    a16d:	55                   	push   %rbp
    a16e:	48 89 e5             	mov    %rsp,%rbp
    a171:	48 89 7d f8          	mov    %rdi,-0x8(%rbp)
    a175:	89 75 f4             	mov    %esi,-0xc(%rbp)
    a178:	83 7d f4 00          	cmpl   $0x0,-0xc(%rbp)
    a17c:	78 17                	js     a195 <safe_rshift_func_uint64_t_u_s+0x2c>
    a17e:	83 7d f4 1f          	cmpl   $0x1f,-0xc(%rbp)
    a182:	7f 11                	jg     a195 <safe_rshift_func_uint64_t_u_s+0x2c>
    a184:	8b 45 f4             	mov    -0xc(%rbp),%eax
    a187:	48 8b 55 f8          	mov    -0x8(%rbp),%rdx
    a18b:	89 c1                	mov    %eax,%ecx
    a18d:	48 d3 ea             	shr    %cl,%rdx
    a190:	48 89 d0             	mov    %rdx,%rax
    a193:	eb 04                	jmp    a199 <safe_rshift_func_uint64_t_u_s+0x30>
    a195:	48 8b 45 f8          	mov    -0x8(%rbp),%rax
    a199:	5d                   	pop    %rbp
    a19a:	c3                   	retq   

000000000000a19b <safe_rshift_func_uint64_t_u_u>:
    a19b:	f3 0f 1e fa          	endbr64 
    a19f:	55                   	push   %rbp
    a1a0:	48 89 e5             	mov    %rsp,%rbp
    a1a3:	48 89 7d f8          	mov    %rdi,-0x8(%rbp)
    a1a7:	89 75 f4             	mov    %esi,-0xc(%rbp)
    a1aa:	83 7d f4 1f          	cmpl   $0x1f,-0xc(%rbp)
    a1ae:	77 11                	ja     a1c1 <safe_rshift_func_uint64_t_u_u+0x26>
    a1b0:	8b 45 f4             	mov    -0xc(%rbp),%eax
    a1b3:	48 8b 55 f8          	mov    -0x8(%rbp),%rdx
    a1b7:	89 c1                	mov    %eax,%ecx
    a1b9:	48 d3 ea             	shr    %cl,%rdx
    a1bc:	48 89 d0             	mov    %rdx,%rax
    a1bf:	eb 04                	jmp    a1c5 <safe_rshift_func_uint64_t_u_u+0x2a>
    a1c1:	48 8b 45 f8          	mov    -0x8(%rbp),%rax
    a1c5:	5d                   	pop    %rbp
    a1c6:	c3                   	retq   

000000000000a1c7 <safe_add_func_float_f_f>:
    a1c7:	f3 0f 1e fa          	endbr64 
    a1cb:	55                   	push   %rbp
    a1cc:	48 89 e5             	mov    %rsp,%rbp
    a1cf:	f3 0f 11 45 fc       	movss  %xmm0,-0x4(%rbp)
    a1d4:	f3 0f 11 4d f8       	movss  %xmm1,-0x8(%rbp)
    a1d9:	f3 0f 10 4d fc       	movss  -0x4(%rbp),%xmm1
    a1de:	f3 0f 10 05 82 0a 01 	movss  0x10a82(%rip),%xmm0        # 1ac68 <g_1290+0x1c00>
    a1e5:	00 
    a1e6:	f3 0f 59 c8          	mulss  %xmm0,%xmm1
    a1ea:	f3 0f 10 55 f8       	movss  -0x8(%rbp),%xmm2
    a1ef:	f3 0f 10 05 71 0a 01 	movss  0x10a71(%rip),%xmm0        # 1ac68 <g_1290+0x1c00>
    a1f6:	00 
    a1f7:	f3 0f 59 c2          	mulss  %xmm2,%xmm0
    a1fb:	f3 0f 58 c1          	addss  %xmm1,%xmm0
    a1ff:	f3 0f 10 0d 69 0a 01 	movss  0x10a69(%rip),%xmm1        # 1ac70 <g_1290+0x1c08>
    a206:	00 
    a207:	0f 54 c1             	andps  %xmm1,%xmm0
    a20a:	0f 2f 05 6f 0a 01 00 	comiss 0x10a6f(%rip),%xmm0        # 1ac80 <g_1290+0x1c18>
    a211:	76 07                	jbe    a21a <safe_add_func_float_f_f+0x53>
    a213:	f3 0f 10 45 fc       	movss  -0x4(%rbp),%xmm0
    a218:	eb 0a                	jmp    a224 <safe_add_func_float_f_f+0x5d>
    a21a:	f3 0f 10 45 fc       	movss  -0x4(%rbp),%xmm0
    a21f:	f3 0f 58 45 f8       	addss  -0x8(%rbp),%xmm0
    a224:	5d                   	pop    %rbp
    a225:	c3                   	retq   

000000000000a226 <safe_sub_func_float_f_f>:
    a226:	f3 0f 1e fa          	endbr64 
    a22a:	55                   	push   %rbp
    a22b:	48 89 e5             	mov    %rsp,%rbp
    a22e:	f3 0f 11 45 fc       	movss  %xmm0,-0x4(%rbp)
    a233:	f3 0f 11 4d f8       	movss  %xmm1,-0x8(%rbp)
    a238:	f3 0f 10 4d fc       	movss  -0x4(%rbp),%xmm1
    a23d:	f3 0f 10 05 23 0a 01 	movss  0x10a23(%rip),%xmm0        # 1ac68 <g_1290+0x1c00>
    a244:	00 
    a245:	f3 0f 59 c1          	mulss  %xmm1,%xmm0
    a249:	f3 0f 10 55 f8       	movss  -0x8(%rbp),%xmm2
    a24e:	f3 0f 10 0d 12 0a 01 	movss  0x10a12(%rip),%xmm1        # 1ac68 <g_1290+0x1c00>
    a255:	00 
    a256:	f3 0f 59 ca          	mulss  %xmm2,%xmm1
    a25a:	f3 0f 5c c1          	subss  %xmm1,%xmm0
    a25e:	f3 0f 10 0d 0a 0a 01 	movss  0x10a0a(%rip),%xmm1        # 1ac70 <g_1290+0x1c08>
    a265:	00 
    a266:	0f 54 c1             	andps  %xmm1,%xmm0
    a269:	0f 2f 05 10 0a 01 00 	comiss 0x10a10(%rip),%xmm0        # 1ac80 <g_1290+0x1c18>
    a270:	76 07                	jbe    a279 <safe_sub_func_float_f_f+0x53>
    a272:	f3 0f 10 45 fc       	movss  -0x4(%rbp),%xmm0
    a277:	eb 0a                	jmp    a283 <safe_sub_func_float_f_f+0x5d>
    a279:	f3 0f 10 45 fc       	movss  -0x4(%rbp),%xmm0
    a27e:	f3 0f 5c 45 f8       	subss  -0x8(%rbp),%xmm0
    a283:	5d                   	pop    %rbp
    a284:	c3                   	retq   

000000000000a285 <safe_mul_func_float_f_f>:
    a285:	f3 0f 1e fa          	endbr64 
    a289:	55                   	push   %rbp
    a28a:	48 89 e5             	mov    %rsp,%rbp
    a28d:	f3 0f 11 45 fc       	movss  %xmm0,-0x4(%rbp)
    a292:	f3 0f 11 4d f8       	movss  %xmm1,-0x8(%rbp)
    a297:	f3 0f 10 4d fc       	movss  -0x4(%rbp),%xmm1
    a29c:	f3 0f 10 05 e0 09 01 	movss  0x109e0(%rip),%xmm0        # 1ac84 <g_1290+0x1c1c>
    a2a3:	00 
    a2a4:	f3 0f 59 c8          	mulss  %xmm0,%xmm1
    a2a8:	f3 0f 10 55 f8       	movss  -0x8(%rbp),%xmm2
    a2ad:	f3 0f 10 05 d3 09 01 	movss  0x109d3(%rip),%xmm0        # 1ac88 <g_1290+0x1c20>
    a2b4:	00 
    a2b5:	f3 0f 59 c2          	mulss  %xmm2,%xmm0
    a2b9:	f3 0f 59 c1          	mulss  %xmm1,%xmm0
    a2bd:	f3 0f 10 0d ab 09 01 	movss  0x109ab(%rip),%xmm1        # 1ac70 <g_1290+0x1c08>
    a2c4:	00 
    a2c5:	0f 54 c1             	andps  %xmm1,%xmm0
    a2c8:	0f 2f 05 bd 09 01 00 	comiss 0x109bd(%rip),%xmm0        # 1ac8c <g_1290+0x1c24>
    a2cf:	76 07                	jbe    a2d8 <safe_mul_func_float_f_f+0x53>
    a2d1:	f3 0f 10 45 fc       	movss  -0x4(%rbp),%xmm0
    a2d6:	eb 0a                	jmp    a2e2 <safe_mul_func_float_f_f+0x5d>
    a2d8:	f3 0f 10 45 fc       	movss  -0x4(%rbp),%xmm0
    a2dd:	f3 0f 59 45 f8       	mulss  -0x8(%rbp),%xmm0
    a2e2:	5d                   	pop    %rbp
    a2e3:	c3                   	retq   

000000000000a2e4 <safe_div_func_float_f_f>:
    a2e4:	f3 0f 1e fa          	endbr64 
    a2e8:	55                   	push   %rbp
    a2e9:	48 89 e5             	mov    %rsp,%rbp
    a2ec:	f3 0f 11 45 fc       	movss  %xmm0,-0x4(%rbp)
    a2f1:	f3 0f 11 4d f8       	movss  %xmm1,-0x8(%rbp)
    a2f6:	f3 0f 10 45 f8       	movss  -0x8(%rbp),%xmm0
    a2fb:	f3 0f 10 0d 6d 09 01 	movss  0x1096d(%rip),%xmm1        # 1ac70 <g_1290+0x1c08>
    a302:	00 
    a303:	0f 54 c8             	andps  %xmm0,%xmm1
    a306:	f3 0f 10 05 82 09 01 	movss  0x10982(%rip),%xmm0        # 1ac90 <g_1290+0x1c28>
    a30d:	00 
    a30e:	0f 2f c1             	comiss %xmm1,%xmm0
    a311:	0f 97 c0             	seta   %al
    a314:	83 f0 01             	xor    $0x1,%eax
    a317:	84 c0                	test   %al,%al
    a319:	75 56                	jne    a371 <safe_div_func_float_f_f+0x8d>
    a31b:	66 0f ef c0          	pxor   %xmm0,%xmm0
    a31f:	0f 2e 45 f8          	ucomiss -0x8(%rbp),%xmm0
    a323:	7a 0a                	jp     a32f <safe_div_func_float_f_f+0x4b>
    a325:	66 0f ef c0          	pxor   %xmm0,%xmm0
    a329:	0f 2e 45 f8          	ucomiss -0x8(%rbp),%xmm0
    a32d:	74 4e                	je     a37d <safe_div_func_float_f_f+0x99>
    a32f:	f3 0f 10 4d fc       	movss  -0x4(%rbp),%xmm1
    a334:	f3 0f 10 05 58 09 01 	movss  0x10958(%rip),%xmm0        # 1ac94 <g_1290+0x1c2c>
    a33b:	00 
    a33c:	f3 0f 59 c1          	mulss  %xmm1,%xmm0
    a340:	f3 0f 10 55 f8       	movss  -0x8(%rbp),%xmm2
    a345:	f3 0f 10 0d 4b 09 01 	movss  0x1094b(%rip),%xmm1        # 1ac98 <g_1290+0x1c30>
    a34c:	00 
    a34d:	f3 0f 59 ca          	mulss  %xmm2,%xmm1
    a351:	f3 0f 5e c1          	divss  %xmm1,%xmm0
    a355:	f3 0f 10 0d 13 09 01 	movss  0x10913(%rip),%xmm1        # 1ac70 <g_1290+0x1c08>
    a35c:	00 
    a35d:	0f 54 c1             	andps  %xmm1,%xmm0
    a360:	0f 2f 05 35 09 01 00 	comiss 0x10935(%rip),%xmm0        # 1ac9c <g_1290+0x1c34>
    a367:	0f 97 c0             	seta   %al
    a36a:	83 f0 01             	xor    $0x1,%eax
    a36d:	84 c0                	test   %al,%al
    a36f:	74 0c                	je     a37d <safe_div_func_float_f_f+0x99>
    a371:	f3 0f 10 45 fc       	movss  -0x4(%rbp),%xmm0
    a376:	f3 0f 5e 45 f8       	divss  -0x8(%rbp),%xmm0
    a37b:	eb 05                	jmp    a382 <safe_div_func_float_f_f+0x9e>
    a37d:	f3 0f 10 45 fc       	movss  -0x4(%rbp),%xmm0
    a382:	5d                   	pop    %rbp
    a383:	c3                   	retq   

000000000000a384 <safe_add_func_double_f_f>:
    a384:	f3 0f 1e fa          	endbr64 
    a388:	55                   	push   %rbp
    a389:	48 89 e5             	mov    %rsp,%rbp
    a38c:	f2 0f 11 45 f8       	movsd  %xmm0,-0x8(%rbp)
    a391:	f2 0f 11 4d f0       	movsd  %xmm1,-0x10(%rbp)
    a396:	f2 0f 10 4d f8       	movsd  -0x8(%rbp),%xmm1
    a39b:	f2 0f 10 05 fd 08 01 	movsd  0x108fd(%rip),%xmm0        # 1aca0 <g_1290+0x1c38>
    a3a2:	00 
    a3a3:	f2 0f 59 c8          	mulsd  %xmm0,%xmm1
    a3a7:	f2 0f 10 55 f0       	movsd  -0x10(%rbp),%xmm2
    a3ac:	f2 0f 10 05 ec 08 01 	movsd  0x108ec(%rip),%xmm0        # 1aca0 <g_1290+0x1c38>
    a3b3:	00 
    a3b4:	f2 0f 59 c2          	mulsd  %xmm2,%xmm0
    a3b8:	f2 0f 58 c1          	addsd  %xmm1,%xmm0
    a3bc:	f3 0f 7e 0d ec 08 01 	movq   0x108ec(%rip),%xmm1        # 1acb0 <g_1290+0x1c48>
    a3c3:	00 
    a3c4:	66 0f 54 c1          	andpd  %xmm1,%xmm0
    a3c8:	66 0f 2f 05 f0 08 01 	comisd 0x108f0(%rip),%xmm0        # 1acc0 <g_1290+0x1c58>
    a3cf:	00 
    a3d0:	76 07                	jbe    a3d9 <safe_add_func_double_f_f+0x55>
    a3d2:	f2 0f 10 45 f8       	movsd  -0x8(%rbp),%xmm0
    a3d7:	eb 0a                	jmp    a3e3 <safe_add_func_double_f_f+0x5f>
    a3d9:	f2 0f 10 45 f8       	movsd  -0x8(%rbp),%xmm0
    a3de:	f2 0f 58 45 f0       	addsd  -0x10(%rbp),%xmm0
    a3e3:	5d                   	pop    %rbp
    a3e4:	c3                   	retq   

000000000000a3e5 <safe_sub_func_double_f_f>:
    a3e5:	f3 0f 1e fa          	endbr64 
    a3e9:	55                   	push   %rbp
    a3ea:	48 89 e5             	mov    %rsp,%rbp
    a3ed:	f2 0f 11 45 f8       	movsd  %xmm0,-0x8(%rbp)
    a3f2:	f2 0f 11 4d f0       	movsd  %xmm1,-0x10(%rbp)
    a3f7:	f2 0f 10 4d f8       	movsd  -0x8(%rbp),%xmm1
    a3fc:	f2 0f 10 05 9c 08 01 	movsd  0x1089c(%rip),%xmm0        # 1aca0 <g_1290+0x1c38>
    a403:	00 
    a404:	f2 0f 59 c1          	mulsd  %xmm1,%xmm0
    a408:	f2 0f 10 55 f0       	movsd  -0x10(%rbp),%xmm2
    a40d:	f2 0f 10 0d 8b 08 01 	movsd  0x1088b(%rip),%xmm1        # 1aca0 <g_1290+0x1c38>
    a414:	00 
    a415:	f2 0f 59 ca          	mulsd  %xmm2,%xmm1
    a419:	f2 0f 5c c1          	subsd  %xmm1,%xmm0
    a41d:	f3 0f 7e 0d 8b 08 01 	movq   0x1088b(%rip),%xmm1        # 1acb0 <g_1290+0x1c48>
    a424:	00 
    a425:	66 0f 54 c1          	andpd  %xmm1,%xmm0
    a429:	66 0f 2f 05 8f 08 01 	comisd 0x1088f(%rip),%xmm0        # 1acc0 <g_1290+0x1c58>
    a430:	00 
    a431:	76 07                	jbe    a43a <safe_sub_func_double_f_f+0x55>
    a433:	f2 0f 10 45 f8       	movsd  -0x8(%rbp),%xmm0
    a438:	eb 0a                	jmp    a444 <safe_sub_func_double_f_f+0x5f>
    a43a:	f2 0f 10 45 f8       	movsd  -0x8(%rbp),%xmm0
    a43f:	f2 0f 5c 45 f0       	subsd  -0x10(%rbp),%xmm0
    a444:	5d                   	pop    %rbp
    a445:	c3                   	retq   

000000000000a446 <safe_mul_func_double_f_f>:
    a446:	f3 0f 1e fa          	endbr64 
    a44a:	55                   	push   %rbp
    a44b:	48 89 e5             	mov    %rsp,%rbp
    a44e:	f2 0f 11 45 f8       	movsd  %xmm0,-0x8(%rbp)
    a453:	f2 0f 11 4d f0       	movsd  %xmm1,-0x10(%rbp)
    a458:	f2 0f 10 4d f8       	movsd  -0x8(%rbp),%xmm1
    a45d:	f2 0f 10 05 63 08 01 	movsd  0x10863(%rip),%xmm0        # 1acc8 <g_1290+0x1c60>
    a464:	00 
    a465:	f2 0f 59 c8          	mulsd  %xmm0,%xmm1
    a469:	f2 0f 10 55 f0       	movsd  -0x10(%rbp),%xmm2
    a46e:	f2 0f 10 05 5a 08 01 	movsd  0x1085a(%rip),%xmm0        # 1acd0 <g_1290+0x1c68>
    a475:	00 
    a476:	f2 0f 59 c2          	mulsd  %xmm2,%xmm0
    a47a:	f2 0f 59 c1          	mulsd  %xmm1,%xmm0
    a47e:	f3 0f 7e 0d 2a 08 01 	movq   0x1082a(%rip),%xmm1        # 1acb0 <g_1290+0x1c48>
    a485:	00 
    a486:	66 0f 54 c1          	andpd  %xmm1,%xmm0
    a48a:	66 0f 2f 05 46 08 01 	comisd 0x10846(%rip),%xmm0        # 1acd8 <g_1290+0x1c70>
    a491:	00 
    a492:	76 07                	jbe    a49b <safe_mul_func_double_f_f+0x55>
    a494:	f2 0f 10 45 f8       	movsd  -0x8(%rbp),%xmm0
    a499:	eb 0a                	jmp    a4a5 <safe_mul_func_double_f_f+0x5f>
    a49b:	f2 0f 10 45 f8       	movsd  -0x8(%rbp),%xmm0
    a4a0:	f2 0f 59 45 f0       	mulsd  -0x10(%rbp),%xmm0
    a4a5:	5d                   	pop    %rbp
    a4a6:	c3                   	retq   

000000000000a4a7 <safe_div_func_double_f_f>:
    a4a7:	f3 0f 1e fa          	endbr64 
    a4ab:	55                   	push   %rbp
    a4ac:	48 89 e5             	mov    %rsp,%rbp
    a4af:	f2 0f 11 45 f8       	movsd  %xmm0,-0x8(%rbp)
    a4b4:	f2 0f 11 4d f0       	movsd  %xmm1,-0x10(%rbp)
    a4b9:	f2 0f 10 45 f0       	movsd  -0x10(%rbp),%xmm0
    a4be:	f3 0f 7e 0d ea 07 01 	movq   0x107ea(%rip),%xmm1        # 1acb0 <g_1290+0x1c48>
    a4c5:	00 
    a4c6:	66 0f 54 c8          	andpd  %xmm0,%xmm1
    a4ca:	f2 0f 10 05 0e 08 01 	movsd  0x1080e(%rip),%xmm0        # 1ace0 <g_1290+0x1c78>
    a4d1:	00 
    a4d2:	66 0f 2f c1          	comisd %xmm1,%xmm0
    a4d6:	0f 97 c0             	seta   %al
    a4d9:	83 f0 01             	xor    $0x1,%eax
    a4dc:	84 c0                	test   %al,%al
    a4de:	75 5a                	jne    a53a <safe_div_func_double_f_f+0x93>
    a4e0:	66 0f ef c0          	pxor   %xmm0,%xmm0
    a4e4:	66 0f 2e 45 f0       	ucomisd -0x10(%rbp),%xmm0
    a4e9:	7a 0b                	jp     a4f6 <safe_div_func_double_f_f+0x4f>
    a4eb:	66 0f ef c0          	pxor   %xmm0,%xmm0
    a4ef:	66 0f 2e 45 f0       	ucomisd -0x10(%rbp),%xmm0
    a4f4:	74 50                	je     a546 <safe_div_func_double_f_f+0x9f>
    a4f6:	f2 0f 10 4d f8       	movsd  -0x8(%rbp),%xmm1
    a4fb:	f2 0f 10 05 e5 07 01 	movsd  0x107e5(%rip),%xmm0        # 1ace8 <g_1290+0x1c80>
    a502:	00 
    a503:	f2 0f 59 c1          	mulsd  %xmm1,%xmm0
    a507:	f2 0f 10 55 f0       	movsd  -0x10(%rbp),%xmm2
    a50c:	f2 0f 10 0d dc 07 01 	movsd  0x107dc(%rip),%xmm1        # 1acf0 <g_1290+0x1c88>
    a513:	00 
    a514:	f2 0f 59 ca          	mulsd  %xmm2,%xmm1
    a518:	f2 0f 5e c1          	divsd  %xmm1,%xmm0
    a51c:	f3 0f 7e 0d 8c 07 01 	movq   0x1078c(%rip),%xmm1        # 1acb0 <g_1290+0x1c48>
    a523:	00 
    a524:	66 0f 54 c1          	andpd  %xmm1,%xmm0
    a528:	66 0f 2f 05 c8 07 01 	comisd 0x107c8(%rip),%xmm0        # 1acf8 <g_1290+0x1c90>
    a52f:	00 
    a530:	0f 97 c0             	seta   %al
    a533:	83 f0 01             	xor    $0x1,%eax
    a536:	84 c0                	test   %al,%al
    a538:	74 0c                	je     a546 <safe_div_func_double_f_f+0x9f>
    a53a:	f2 0f 10 45 f8       	movsd  -0x8(%rbp),%xmm0
    a53f:	f2 0f 5e 45 f0       	divsd  -0x10(%rbp),%xmm0
    a544:	eb 05                	jmp    a54b <safe_div_func_double_f_f+0xa4>
    a546:	f2 0f 10 45 f8       	movsd  -0x8(%rbp),%xmm0
    a54b:	5d                   	pop    %rbp
    a54c:	c3                   	retq   

000000000000a54d <safe_convert_func_float_to_int32_t>:
    a54d:	f3 0f 1e fa          	endbr64 
    a551:	55                   	push   %rbp
    a552:	48 89 e5             	mov    %rsp,%rbp
    a555:	f3 0f 11 45 fc       	movss  %xmm0,-0x4(%rbp)
    a55a:	f3 0f 10 05 9e 07 01 	movss  0x1079e(%rip),%xmm0        # 1ad00 <g_1290+0x1c98>
    a561:	00 
    a562:	0f 2f 45 fc          	comiss -0x4(%rbp),%xmm0
    a566:	0f 93 c0             	setae  %al
    a569:	83 f0 01             	xor    $0x1,%eax
    a56c:	84 c0                	test   %al,%al
    a56e:	74 21                	je     a591 <safe_convert_func_float_to_int32_t+0x44>
    a570:	f3 0f 10 45 fc       	movss  -0x4(%rbp),%xmm0
    a575:	0f 2f 05 88 07 01 00 	comiss 0x10788(%rip),%xmm0        # 1ad04 <g_1290+0x1c9c>
    a57c:	0f 93 c0             	setae  %al
    a57f:	83 f0 01             	xor    $0x1,%eax
    a582:	84 c0                	test   %al,%al
    a584:	74 0b                	je     a591 <safe_convert_func_float_to_int32_t+0x44>
    a586:	f3 0f 10 45 fc       	movss  -0x4(%rbp),%xmm0
    a58b:	f3 0f 2c c0          	cvttss2si %xmm0,%eax
    a58f:	eb 05                	jmp    a596 <safe_convert_func_float_to_int32_t+0x49>
    a591:	b8 ff ff ff 7f       	mov    $0x7fffffff,%eax
    a596:	5d                   	pop    %rbp
    a597:	c3                   	retq   

000000000000a598 <crc32_gentab>:
    a598:	f3 0f 1e fa          	endbr64 
    a59c:	55                   	push   %rbp
    a59d:	48 89 e5             	mov    %rsp,%rbp
    a5a0:	c7 45 fc 20 83 b8 ed 	movl   $0xedb88320,-0x4(%rbp)
    a5a7:	c7 45 f4 00 00 00 00 	movl   $0x0,-0xc(%rbp)
    a5ae:	eb 51                	jmp    a601 <crc32_gentab+0x69>
    a5b0:	8b 45 f4             	mov    -0xc(%rbp),%eax
    a5b3:	89 45 f0             	mov    %eax,-0x10(%rbp)
    a5b6:	c7 45 f8 08 00 00 00 	movl   $0x8,-0x8(%rbp)
    a5bd:	eb 1e                	jmp    a5dd <crc32_gentab+0x45>
    a5bf:	8b 45 f0             	mov    -0x10(%rbp),%eax
    a5c2:	83 e0 01             	and    $0x1,%eax
    a5c5:	85 c0                	test   %eax,%eax
    a5c7:	74 0d                	je     a5d6 <crc32_gentab+0x3e>
    a5c9:	8b 45 f0             	mov    -0x10(%rbp),%eax
    a5cc:	d1 e8                	shr    %eax
    a5ce:	33 45 fc             	xor    -0x4(%rbp),%eax
    a5d1:	89 45 f0             	mov    %eax,-0x10(%rbp)
    a5d4:	eb 03                	jmp    a5d9 <crc32_gentab+0x41>
    a5d6:	d1 6d f0             	shrl   -0x10(%rbp)
    a5d9:	83 6d f8 01          	subl   $0x1,-0x8(%rbp)
    a5dd:	83 7d f8 00          	cmpl   $0x0,-0x8(%rbp)
    a5e1:	7f dc                	jg     a5bf <crc32_gentab+0x27>
    a5e3:	8b 45 f4             	mov    -0xc(%rbp),%eax
    a5e6:	48 98                	cltq   
    a5e8:	48 8d 0c 85 00 00 00 	lea    0x0(,%rax,4),%rcx
    a5ef:	00 
    a5f0:	48 8d 15 c9 9e 01 00 	lea    0x19ec9(%rip),%rdx        # 244c0 <crc32_tab>
    a5f7:	8b 45 f0             	mov    -0x10(%rbp),%eax
    a5fa:	89 04 11             	mov    %eax,(%rcx,%rdx,1)
    a5fd:	83 45 f4 01          	addl   $0x1,-0xc(%rbp)
    a601:	81 7d f4 ff 00 00 00 	cmpl   $0xff,-0xc(%rbp)
    a608:	7e a6                	jle    a5b0 <crc32_gentab+0x18>
    a60a:	90                   	nop
    a60b:	90                   	nop
    a60c:	5d                   	pop    %rbp
    a60d:	c3                   	retq   

000000000000a60e <crc32_byte>:
    a60e:	f3 0f 1e fa          	endbr64 
    a612:	55                   	push   %rbp
    a613:	48 89 e5             	mov    %rsp,%rbp
    a616:	89 f8                	mov    %edi,%eax
    a618:	88 45 fc             	mov    %al,-0x4(%rbp)
    a61b:	8b 05 ff 39 01 00    	mov    0x139ff(%rip),%eax        # 1e020 <crc32_context>
    a621:	c1 e8 08             	shr    $0x8,%eax
    a624:	89 c1                	mov    %eax,%ecx
    a626:	0f b6 55 fc          	movzbl -0x4(%rbp),%edx
    a62a:	8b 05 f0 39 01 00    	mov    0x139f0(%rip),%eax        # 1e020 <crc32_context>
    a630:	31 d0                	xor    %edx,%eax
    a632:	0f b6 c0             	movzbl %al,%eax
    a635:	89 c0                	mov    %eax,%eax
    a637:	48 8d 14 85 00 00 00 	lea    0x0(,%rax,4),%rdx
    a63e:	00 
    a63f:	48 8d 05 7a 9e 01 00 	lea    0x19e7a(%rip),%rax        # 244c0 <crc32_tab>
    a646:	8b 04 02             	mov    (%rdx,%rax,1),%eax
    a649:	31 c8                	xor    %ecx,%eax
    a64b:	89 05 cf 39 01 00    	mov    %eax,0x139cf(%rip)        # 1e020 <crc32_context>
    a651:	90                   	nop
    a652:	5d                   	pop    %rbp
    a653:	c3                   	retq   

000000000000a654 <crc32_8bytes>:
    a654:	f3 0f 1e fa          	endbr64 
    a658:	55                   	push   %rbp
    a659:	48 89 e5             	mov    %rsp,%rbp
    a65c:	48 83 ec 08          	sub    $0x8,%rsp
    a660:	48 89 7d f8          	mov    %rdi,-0x8(%rbp)
    a664:	48 8b 45 f8          	mov    -0x8(%rbp),%rax
    a668:	0f b6 c0             	movzbl %al,%eax
    a66b:	89 c7                	mov    %eax,%edi
    a66d:	e8 9c ff ff ff       	callq  a60e <crc32_byte>
    a672:	48 8b 45 f8          	mov    -0x8(%rbp),%rax
    a676:	48 c1 e8 08          	shr    $0x8,%rax
    a67a:	0f b6 c0             	movzbl %al,%eax
    a67d:	89 c7                	mov    %eax,%edi
    a67f:	e8 8a ff ff ff       	callq  a60e <crc32_byte>
    a684:	48 8b 45 f8          	mov    -0x8(%rbp),%rax
    a688:	48 c1 e8 10          	shr    $0x10,%rax
    a68c:	0f b6 c0             	movzbl %al,%eax
    a68f:	89 c7                	mov    %eax,%edi
    a691:	e8 78 ff ff ff       	callq  a60e <crc32_byte>
    a696:	48 8b 45 f8          	mov    -0x8(%rbp),%rax
    a69a:	48 c1 e8 18          	shr    $0x18,%rax
    a69e:	0f b6 c0             	movzbl %al,%eax
    a6a1:	89 c7                	mov    %eax,%edi
    a6a3:	e8 66 ff ff ff       	callq  a60e <crc32_byte>
    a6a8:	48 8b 45 f8          	mov    -0x8(%rbp),%rax
    a6ac:	48 c1 e8 20          	shr    $0x20,%rax
    a6b0:	0f b6 c0             	movzbl %al,%eax
    a6b3:	89 c7                	mov    %eax,%edi
    a6b5:	e8 54 ff ff ff       	callq  a60e <crc32_byte>
    a6ba:	48 8b 45 f8          	mov    -0x8(%rbp),%rax
    a6be:	48 c1 e8 28          	shr    $0x28,%rax
    a6c2:	0f b6 c0             	movzbl %al,%eax
    a6c5:	89 c7                	mov    %eax,%edi
    a6c7:	e8 42 ff ff ff       	callq  a60e <crc32_byte>
    a6cc:	48 8b 45 f8          	mov    -0x8(%rbp),%rax
    a6d0:	48 c1 e8 30          	shr    $0x30,%rax
    a6d4:	0f b6 c0             	movzbl %al,%eax
    a6d7:	89 c7                	mov    %eax,%edi
    a6d9:	e8 30 ff ff ff       	callq  a60e <crc32_byte>
    a6de:	48 8b 45 f8          	mov    -0x8(%rbp),%rax
    a6e2:	48 c1 e8 38          	shr    $0x38,%rax
    a6e6:	0f b6 c0             	movzbl %al,%eax
    a6e9:	89 c7                	mov    %eax,%edi
    a6eb:	e8 1e ff ff ff       	callq  a60e <crc32_byte>
    a6f0:	90                   	nop
    a6f1:	c9                   	leaveq 
    a6f2:	c3                   	retq   

000000000000a6f3 <transparent_crc>:
    a6f3:	f3 0f 1e fa          	endbr64 
    a6f7:	55                   	push   %rbp
    a6f8:	48 89 e5             	mov    %rsp,%rbp
    a6fb:	48 83 ec 20          	sub    $0x20,%rsp
    a6ff:	48 89 7d f8          	mov    %rdi,-0x8(%rbp)
    a703:	48 89 75 f0          	mov    %rsi,-0x10(%rbp)
    a707:	89 55 ec             	mov    %edx,-0x14(%rbp)
    a70a:	48 8b 45 f8          	mov    -0x8(%rbp),%rax
    a70e:	48 89 c7             	mov    %rax,%rdi
    a711:	e8 3e ff ff ff       	callq  a654 <crc32_8bytes>
    a716:	83 7d ec 00          	cmpl   $0x0,-0x14(%rbp)
    a71a:	74 22                	je     a73e <transparent_crc+0x4b>
    a71c:	8b 05 fe 38 01 00    	mov    0x138fe(%rip),%eax        # 1e020 <crc32_context>
    a722:	f7 d0                	not    %eax
    a724:	89 c2                	mov    %eax,%edx
    a726:	48 8b 45 f0          	mov    -0x10(%rbp),%rax
    a72a:	48 89 c6             	mov    %rax,%rsi
    a72d:	48 8d 3d fc e8 00 00 	lea    0xe8fc(%rip),%rdi        # 19030 <_IO_stdin_used+0x30>
    a734:	b8 00 00 00 00       	mov    $0x0,%eax
    a739:	e8 42 e9 ff ff       	callq  9080 <printf@plt>
    a73e:	90                   	nop
    a73f:	c9                   	leaveq 
    a740:	c3                   	retq   

000000000000a741 <transparent_crc_bytes>:
    a741:	f3 0f 1e fa          	endbr64 
    a745:	55                   	push   %rbp
    a746:	48 89 e5             	mov    %rsp,%rbp
    a749:	48 83 ec 30          	sub    $0x30,%rsp
    a74d:	48 89 7d e8          	mov    %rdi,-0x18(%rbp)
    a751:	89 75 e4             	mov    %esi,-0x1c(%rbp)
    a754:	48 89 55 d8          	mov    %rdx,-0x28(%rbp)
    a758:	89 4d e0             	mov    %ecx,-0x20(%rbp)
    a75b:	c7 45 fc 00 00 00 00 	movl   $0x0,-0x4(%rbp)
    a762:	eb 1e                	jmp    a782 <transparent_crc_bytes+0x41>
    a764:	8b 45 fc             	mov    -0x4(%rbp),%eax
    a767:	48 63 d0             	movslq %eax,%rdx
    a76a:	48 8b 45 e8          	mov    -0x18(%rbp),%rax
    a76e:	48 01 d0             	add    %rdx,%rax
    a771:	0f b6 00             	movzbl (%rax),%eax
    a774:	0f b6 c0             	movzbl %al,%eax
    a777:	89 c7                	mov    %eax,%edi
    a779:	e8 90 fe ff ff       	callq  a60e <crc32_byte>
    a77e:	83 45 fc 01          	addl   $0x1,-0x4(%rbp)
    a782:	8b 45 fc             	mov    -0x4(%rbp),%eax
    a785:	3b 45 e4             	cmp    -0x1c(%rbp),%eax
    a788:	7c da                	jl     a764 <transparent_crc_bytes+0x23>
    a78a:	83 7d e0 00          	cmpl   $0x0,-0x20(%rbp)
    a78e:	74 22                	je     a7b2 <transparent_crc_bytes+0x71>
    a790:	8b 05 8a 38 01 00    	mov    0x1388a(%rip),%eax        # 1e020 <crc32_context>
    a796:	f7 d0                	not    %eax
    a798:	89 c2                	mov    %eax,%edx
    a79a:	48 8b 45 d8          	mov    -0x28(%rbp),%rax
    a79e:	48 89 c6             	mov    %rax,%rsi
    a7a1:	48 8d 3d 88 e8 00 00 	lea    0xe888(%rip),%rdi        # 19030 <_IO_stdin_used+0x30>
    a7a8:	b8 00 00 00 00       	mov    $0x0,%eax
    a7ad:	e8 ce e8 ff ff       	callq  9080 <printf@plt>
    a7b2:	90                   	nop
    a7b3:	c9                   	leaveq 
    a7b4:	c3                   	retq   

000000000000a7b5 <func_1>:
    a7b5:	f3 0f 1e fa          	endbr64 
    a7b9:	55                   	push   %rbp
    a7ba:	48 89 e5             	mov    %rsp,%rbp
    a7bd:	53                   	push   %rbx
    a7be:	48 81 ec 00 10 00 00 	sub    $0x1000,%rsp
    a7c5:	48 83 0c 24 00       	orq    $0x0,(%rsp)
    a7ca:	48 81 ec c8 0f 00 00 	sub    $0xfc8,%rsp
    a7d1:	64 48 8b 04 25 28 00 	mov    %fs:0x28,%rax
    a7d8:	00 00 
    a7da:	48 89 45 e8          	mov    %rax,-0x18(%rbp)
    a7de:	31 c0                	xor    %eax,%eax
    a7e0:	66 c7 85 90 e1 ff ff 	movw   $0x2d1,-0x1e70(%rbp)
    a7e7:	d1 02 
    a7e9:	66 c7 85 92 e1 ff ff 	movw   $0xffff,-0x1e6e(%rbp)
    a7f0:	ff ff 
    a7f2:	66 c7 85 94 e1 ff ff 	movw   $0x182a,-0x1e6c(%rbp)
    a7f9:	2a 18 
    a7fb:	66 c7 85 96 e1 ff ff 	movw   $0xd1e8,-0x1e6a(%rbp)
    a802:	e8 d1 
    a804:	66 c7 85 98 e1 ff ff 	movw   $0x33c6,-0x1e68(%rbp)
    a80b:	c6 33 
    a80d:	66 c7 85 9a e1 ff ff 	movw   $0x1,-0x1e66(%rbp)
    a814:	01 00 
    a816:	66 c7 85 9c e1 ff ff 	movw   $0x2d1,-0x1e64(%rbp)
    a81d:	d1 02 
    a81f:	66 c7 85 9e e1 ff ff 	movw   $0x2d1,-0x1e62(%rbp)
    a826:	d1 02 
    a828:	66 c7 85 a0 e1 ff ff 	movw   $0x6eb6,-0x1e60(%rbp)
    a82f:	b6 6e 
    a831:	66 c7 85 a2 e1 ff ff 	movw   $0x2579,-0x1e5e(%rbp)
    a838:	79 25 
    a83a:	66 c7 85 a4 e1 ff ff 	movw   $0xffff,-0x1e5c(%rbp)
    a841:	ff ff 
    a843:	66 c7 85 a6 e1 ff ff 	movw   $0x0,-0x1e5a(%rbp)
    a84a:	00 00 
    a84c:	66 c7 85 a8 e1 ff ff 	movw   $0xffff,-0x1e58(%rbp)
    a853:	ff ff 
    a855:	66 c7 85 aa e1 ff ff 	movw   $0x2d1,-0x1e56(%rbp)
    a85c:	d1 02 
    a85e:	66 c7 85 ac e1 ff ff 	movw   $0xffff,-0x1e54(%rbp)
    a865:	ff ff 
    a867:	66 c7 85 ae e1 ff ff 	movw   $0x9c14,-0x1e52(%rbp)
    a86e:	14 9c 
    a870:	66 c7 85 b0 e1 ff ff 	movw   $0x33c6,-0x1e50(%rbp)
    a877:	c6 33 
    a879:	66 c7 85 b2 e1 ff ff 	movw   $0x0,-0x1e4e(%rbp)
    a880:	00 00 
    a882:	66 c7 85 b4 e1 ff ff 	movw   $0xfff9,-0x1e4c(%rbp)
    a889:	f9 ff 
    a88b:	66 c7 85 b6 e1 ff ff 	movw   $0xffff,-0x1e4a(%rbp)
    a892:	ff ff 
    a894:	66 c7 85 b8 e1 ff ff 	movw   $0xffff,-0x1e48(%rbp)
    a89b:	ff ff 
    a89d:	66 c7 85 ba e1 ff ff 	movw   $0x0,-0x1e46(%rbp)
    a8a4:	00 00 
    a8a6:	66 c7 85 bc e1 ff ff 	movw   $0x6576,-0x1e44(%rbp)
    a8ad:	76 65 
    a8af:	66 c7 85 be e1 ff ff 	movw   $0x0,-0x1e42(%rbp)
    a8b6:	00 00 
    a8b8:	66 c7 85 c0 e1 ff ff 	movw   $0x85ed,-0x1e40(%rbp)
    a8bf:	ed 85 
    a8c1:	66 c7 85 c2 e1 ff ff 	movw   $0xfff9,-0x1e3e(%rbp)
    a8c8:	f9 ff 
    a8ca:	66 c7 85 c4 e1 ff ff 	movw   $0x6eb6,-0x1e3c(%rbp)
    a8d1:	b6 6e 
    a8d3:	66 c7 85 c6 e1 ff ff 	movw   $0x1,-0x1e3a(%rbp)
    a8da:	01 00 
    a8dc:	66 c7 85 c8 e1 ff ff 	movw   $0x6efa,-0x1e38(%rbp)
    a8e3:	fa 6e 
    a8e5:	66 c7 85 ca e1 ff ff 	movw   $0x0,-0x1e36(%rbp)
    a8ec:	00 00 
    a8ee:	66 c7 85 cc e1 ff ff 	movw   $0xffff,-0x1e34(%rbp)
    a8f5:	ff ff 
    a8f7:	66 c7 85 ce e1 ff ff 	movw   $0x182a,-0x1e32(%rbp)
    a8fe:	2a 18 
    a900:	66 c7 85 d0 e1 ff ff 	movw   $0x6eb6,-0x1e30(%rbp)
    a907:	b6 6e 
    a909:	66 c7 85 d2 e1 ff ff 	movw   $0xd1e8,-0x1e2e(%rbp)
    a910:	e8 d1 
    a912:	66 c7 85 d4 e1 ff ff 	movw   $0x6efa,-0x1e2c(%rbp)
    a919:	fa 6e 
    a91b:	66 c7 85 d6 e1 ff ff 	movw   $0xd1e8,-0x1e2a(%rbp)
    a922:	e8 d1 
    a924:	66 c7 85 d8 e1 ff ff 	movw   $0x85ed,-0x1e28(%rbp)
    a92b:	ed 85 
    a92d:	66 c7 85 da e1 ff ff 	movw   $0xffff,-0x1e26(%rbp)
    a934:	ff ff 
    a936:	66 c7 85 dc e1 ff ff 	movw   $0x53a3,-0x1e24(%rbp)
    a93d:	a3 53 
    a93f:	66 c7 85 de e1 ff ff 	movw   $0x9c14,-0x1e22(%rbp)
    a946:	14 9c 
    a948:	66 c7 85 e0 e1 ff ff 	movw   $0xffff,-0x1e20(%rbp)
    a94f:	ff ff 
    a951:	66 c7 85 e2 e1 ff ff 	movw   $0xd1e8,-0x1e1e(%rbp)
    a958:	e8 d1 
    a95a:	66 c7 85 e4 e1 ff ff 	movw   $0x53a3,-0x1e1c(%rbp)
    a961:	a3 53 
    a963:	66 c7 85 e6 e1 ff ff 	movw   $0x85ed,-0x1e1a(%rbp)
    a96a:	ed 85 
    a96c:	66 c7 85 e8 e1 ff ff 	movw   $0x6eb6,-0x1e18(%rbp)
    a973:	b6 6e 
    a975:	66 c7 85 ea e1 ff ff 	movw   $0x0,-0x1e16(%rbp)
    a97c:	00 00 
    a97e:	66 c7 85 ec e1 ff ff 	movw   $0x6576,-0x1e14(%rbp)
    a985:	76 65 
    a987:	66 c7 85 ee e1 ff ff 	movw   $0x0,-0x1e12(%rbp)
    a98e:	00 00 
    a990:	66 c7 85 f0 e1 ff ff 	movw   $0x53a3,-0x1e10(%rbp)
    a997:	a3 53 
    a999:	66 c7 85 f2 e1 ff ff 	movw   $0x53a3,-0x1e0e(%rbp)
    a9a0:	a3 53 
    a9a2:	66 c7 85 f4 e1 ff ff 	movw   $0x2d1,-0x1e0c(%rbp)
    a9a9:	d1 02 
    a9ab:	66 c7 85 f6 e1 ff ff 	movw   $0x9c14,-0x1e0a(%rbp)
    a9b2:	14 9c 
    a9b4:	66 c7 85 f8 e1 ff ff 	movw   $0x9dd9,-0x1e08(%rbp)
    a9bb:	d9 9d 
    a9bd:	66 c7 85 fa e1 ff ff 	movw   $0x1,-0x1e06(%rbp)
    a9c4:	01 00 
    a9c6:	66 c7 85 fc e1 ff ff 	movw   $0x85ed,-0x1e04(%rbp)
    a9cd:	ed 85 
    a9cf:	66 c7 85 fe e1 ff ff 	movw   $0x53a3,-0x1e02(%rbp)
    a9d6:	a3 53 
    a9d8:	66 c7 85 00 e2 ff ff 	movw   $0x85ed,-0x1e00(%rbp)
    a9df:	ed 85 
    a9e1:	66 c7 85 02 e2 ff ff 	movw   $0xd1e8,-0x1dfe(%rbp)
    a9e8:	e8 d1 
    a9ea:	66 c7 85 04 e2 ff ff 	movw   $0x6576,-0x1dfc(%rbp)
    a9f1:	76 65 
    a9f3:	66 c7 85 06 e2 ff ff 	movw   $0x1,-0x1dfa(%rbp)
    a9fa:	01 00 
    a9fc:	66 c7 85 08 e2 ff ff 	movw   $0xffff,-0x1df8(%rbp)
    aa03:	ff ff 
    aa05:	66 c7 85 0a e2 ff ff 	movw   $0x85ed,-0x1df6(%rbp)
    aa0c:	ed 85 
    aa0e:	66 c7 85 0c e2 ff ff 	movw   $0x85ed,-0x1df4(%rbp)
    aa15:	ed 85 
    aa17:	66 c7 85 0e e2 ff ff 	movw   $0x1,-0x1df2(%rbp)
    aa1e:	01 00 
    aa20:	66 c7 85 10 e2 ff ff 	movw   $0xffff,-0x1df0(%rbp)
    aa27:	ff ff 
    aa29:	66 c7 85 12 e2 ff ff 	movw   $0x1,-0x1dee(%rbp)
    aa30:	01 00 
    aa32:	66 c7 85 14 e2 ff ff 	movw   $0x182a,-0x1dec(%rbp)
    aa39:	2a 18 
    aa3b:	66 c7 85 16 e2 ff ff 	movw   $0xffff,-0x1dea(%rbp)
    aa42:	ff ff 
    aa44:	66 c7 85 18 e2 ff ff 	movw   $0x2d1,-0x1de8(%rbp)
    aa4b:	d1 02 
    aa4d:	66 c7 85 1a e2 ff ff 	movw   $0x1,-0x1de6(%rbp)
    aa54:	01 00 
    aa56:	66 c7 85 1c e2 ff ff 	movw   $0x6efa,-0x1de4(%rbp)
    aa5d:	fa 6e 
    aa5f:	66 c7 85 1e e2 ff ff 	movw   $0x0,-0x1de2(%rbp)
    aa66:	00 00 
    aa68:	66 c7 85 20 e2 ff ff 	movw   $0xffff,-0x1de0(%rbp)
    aa6f:	ff ff 
    aa71:	66 c7 85 22 e2 ff ff 	movw   $0x182a,-0x1dde(%rbp)
    aa78:	2a 18 
    aa7a:	66 c7 85 24 e2 ff ff 	movw   $0x6eb6,-0x1ddc(%rbp)
    aa81:	b6 6e 
    aa83:	66 c7 85 26 e2 ff ff 	movw   $0xd1e8,-0x1dda(%rbp)
    aa8a:	e8 d1 
    aa8c:	66 c7 85 28 e2 ff ff 	movw   $0x6efa,-0x1dd8(%rbp)
    aa93:	fa 6e 
    aa95:	66 c7 85 2a e2 ff ff 	movw   $0xd1e8,-0x1dd6(%rbp)
    aa9c:	e8 d1 
    aa9e:	66 c7 85 2c e2 ff ff 	movw   $0x85ed,-0x1dd4(%rbp)
    aaa5:	ed 85 
    aaa7:	66 c7 85 2e e2 ff ff 	movw   $0xffff,-0x1dd2(%rbp)
    aaae:	ff ff 
    aab0:	66 c7 85 30 e2 ff ff 	movw   $0x53a3,-0x1dd0(%rbp)
    aab7:	a3 53 
    aab9:	66 c7 85 32 e2 ff ff 	movw   $0x9c14,-0x1dce(%rbp)
    aac0:	14 9c 
    aac2:	66 c7 85 34 e2 ff ff 	movw   $0xffff,-0x1dcc(%rbp)
    aac9:	ff ff 
    aacb:	66 c7 85 36 e2 ff ff 	movw   $0xd1e8,-0x1dca(%rbp)
    aad2:	e8 d1 
    aad4:	66 c7 85 38 e2 ff ff 	movw   $0x53a3,-0x1dc8(%rbp)
    aadb:	a3 53 
    aadd:	66 c7 85 3a e2 ff ff 	movw   $0x85ed,-0x1dc6(%rbp)
    aae4:	ed 85 
    aae6:	66 c7 85 3c e2 ff ff 	movw   $0x6eb6,-0x1dc4(%rbp)
    aaed:	b6 6e 
    aaef:	66 c7 85 3e e2 ff ff 	movw   $0x0,-0x1dc2(%rbp)
    aaf6:	00 00 
    aaf8:	66 c7 85 40 e2 ff ff 	movw   $0x6576,-0x1dc0(%rbp)
    aaff:	76 65 
    ab01:	66 c7 85 42 e2 ff ff 	movw   $0x0,-0x1dbe(%rbp)
    ab08:	00 00 
    ab0a:	66 c7 85 44 e2 ff ff 	movw   $0x53a3,-0x1dbc(%rbp)
    ab11:	a3 53 
    ab13:	66 c7 85 46 e2 ff ff 	movw   $0x53a3,-0x1dba(%rbp)
    ab1a:	a3 53 
    ab1c:	66 c7 85 48 e2 ff ff 	movw   $0x2d1,-0x1db8(%rbp)
    ab23:	d1 02 
    ab25:	66 c7 85 4a e2 ff ff 	movw   $0x9c14,-0x1db6(%rbp)
    ab2c:	14 9c 
    ab2e:	66 c7 85 4c e2 ff ff 	movw   $0x9dd9,-0x1db4(%rbp)
    ab35:	d9 9d 
    ab37:	66 c7 85 4e e2 ff ff 	movw   $0x1,-0x1db2(%rbp)
    ab3e:	01 00 
    ab40:	c7 85 40 e0 ff ff 03 	movl   $0x3,-0x1fc0(%rbp)
    ab47:	00 00 00 
    ab4a:	c7 85 80 e0 ff ff 06 	movl   $0x6,-0x1f80(%rbp)
    ab51:	00 00 00 
    ab54:	c7 85 44 e0 ff ff ee 	movl   $0x48f04fee,-0x1fbc(%rbp)
    ab5b:	4f f0 48 
    ab5e:	c7 85 48 e0 ff ff 2e 	movl   $0xf04cfe2e,-0x1fb8(%rbp)
    ab65:	fe 4c f0 
    ab68:	48 8d 85 20 e3 ff ff 	lea    -0x1ce0(%rbp),%rax
    ab6f:	48 8d 15 0a e5 00 00 	lea    0xe50a(%rip),%rdx        # 19080 <g_1290+0x18>
    ab76:	b9 1f 00 00 00       	mov    $0x1f,%ecx
    ab7b:	48 89 c7             	mov    %rax,%rdi
    ab7e:	48 89 d6             	mov    %rdx,%rsi
    ab81:	f3 48 a5             	rep movsq %ds:(%rsi),%es:(%rdi)
    ab84:	48 89 f2             	mov    %rsi,%rdx
    ab87:	48 89 f8             	mov    %rdi,%rax
    ab8a:	8b 0a                	mov    (%rdx),%ecx
    ab8c:	89 08                	mov    %ecx,(%rax)
    ab8e:	48 8d 40 04          	lea    0x4(%rax),%rax
    ab92:	48 8d 52 04          	lea    0x4(%rdx),%rdx
    ab96:	c7 05 90 34 01 00 00 	movl   $0x0,0x13490(%rip)        # 1e030 <g_3>
    ab9d:	00 00 00 
    aba0:	e9 43 21 00 00       	jmpq   cce8 <func_1+0x2533>
    aba5:	c7 85 4c e0 ff ff ff 	movl   $0xffffffff,-0x1fb4(%rbp)
    abac:	ff ff ff 
    abaf:	c7 85 50 e2 ff ff f9 	movl   $0xfffffff9,-0x1db0(%rbp)
    abb6:	ff ff ff 
    abb9:	c7 85 54 e2 ff ff 50 	movl   $0x5b20ba50,-0x1dac(%rbp)
    abc0:	ba 20 5b 
    abc3:	c7 85 58 e2 ff ff f9 	movl   $0xfffffff9,-0x1da8(%rbp)
    abca:	ff ff ff 
    abcd:	c7 85 5c e2 ff ff 05 	movl   $0x5,-0x1da4(%rbp)
    abd4:	00 00 00 
    abd7:	c7 85 60 e2 ff ff 2a 	movl   $0x4c560d2a,-0x1da0(%rbp)
    abde:	0d 56 4c 
    abe1:	c7 85 64 e2 ff ff fc 	movl   $0xeb5adffc,-0x1d9c(%rbp)
    abe8:	df 5a eb 
    abeb:	c7 85 68 e2 ff ff ff 	movl   $0xffffffff,-0x1d98(%rbp)
    abf2:	ff ff ff 
    abf5:	c7 85 6c e2 ff ff d1 	movl   $0x83c302d1,-0x1d94(%rbp)
    abfc:	02 c3 83 
    abff:	c7 85 70 e2 ff ff 94 	movl   $0x27f30c94,-0x1d90(%rbp)
    ac06:	0c f3 27 
    ac09:	c7 85 74 e2 ff ff 01 	movl   $0x1,-0x1d8c(%rbp)
    ac10:	00 00 00 
    ac13:	c7 85 78 e2 ff ff 01 	movl   $0x1,-0x1d88(%rbp)
    ac1a:	00 00 00 
    ac1d:	c7 85 7c e2 ff ff 94 	movl   $0x27f30c94,-0x1d84(%rbp)
    ac24:	0c f3 27 
    ac27:	c7 85 80 e2 ff ff d1 	movl   $0x83c302d1,-0x1d80(%rbp)
    ac2e:	02 c3 83 
    ac31:	c7 85 84 e2 ff ff 94 	movl   $0x27f30c94,-0x1d7c(%rbp)
    ac38:	0c f3 27 
    ac3b:	c7 85 88 e2 ff ff f9 	movl   $0xfffffff9,-0x1d78(%rbp)
    ac42:	ff ff ff 
    ac45:	c7 85 8c e2 ff ff 05 	movl   $0x5,-0x1d74(%rbp)
    ac4c:	00 00 00 
    ac4f:	c7 85 90 e2 ff ff 2a 	movl   $0x4c560d2a,-0x1d70(%rbp)
    ac56:	0d 56 4c 
    ac59:	c7 85 94 e2 ff ff fc 	movl   $0xeb5adffc,-0x1d6c(%rbp)
    ac60:	df 5a eb 
    ac63:	c7 85 98 e2 ff ff ff 	movl   $0xffffffff,-0x1d68(%rbp)
    ac6a:	ff ff ff 
    ac6d:	c7 85 9c e2 ff ff fc 	movl   $0xeb5adffc,-0x1d64(%rbp)
    ac74:	df 5a eb 
    ac77:	c7 85 a0 e2 ff ff 2a 	movl   $0x4c560d2a,-0x1d60(%rbp)
    ac7e:	0d 56 4c 
    ac81:	c7 85 a4 e2 ff ff df 	movl   $0xf5efd2df,-0x1d5c(%rbp)
    ac88:	d2 ef f5 
    ac8b:	c7 85 a8 e2 ff ff df 	movl   $0xf5efd2df,-0x1d58(%rbp)
    ac92:	d2 ef f5 
    ac95:	c7 85 ac e2 ff ff d1 	movl   $0x83c302d1,-0x1d54(%rbp)
    ac9c:	02 c3 83 
    ac9f:	c7 85 b0 e2 ff ff 01 	movl   $0x1,-0x1d50(%rbp)
    aca6:	00 00 00 
    aca9:	c7 85 b4 e2 ff ff d1 	movl   $0x83c302d1,-0x1d4c(%rbp)
    acb0:	02 c3 83 
    acb3:	c7 85 b8 e2 ff ff df 	movl   $0xf5efd2df,-0x1d48(%rbp)
    acba:	d2 ef f5 
    acbd:	c7 85 bc e2 ff ff df 	movl   $0xf5efd2df,-0x1d44(%rbp)
    acc4:	d2 ef f5 
    acc7:	c7 85 c0 e2 ff ff f8 	movl   $0xfffffff8,-0x1d40(%rbp)
    acce:	ff ff ff 
    acd1:	c7 85 c4 e2 ff ff 05 	movl   $0x5,-0x1d3c(%rbp)
    acd8:	00 00 00 
    acdb:	c7 85 c8 e2 ff ff 00 	movl   $0x0,-0x1d38(%rbp)
    ace2:	00 00 00 
    ace5:	c7 85 cc e2 ff ff 05 	movl   $0x5,-0x1d34(%rbp)
    acec:	00 00 00 
    acef:	c7 85 d0 e2 ff ff f8 	movl   $0xfffffff8,-0x1d30(%rbp)
    acf6:	ff ff ff 
    acf9:	c7 85 d4 e2 ff ff 01 	movl   $0x1,-0x1d2c(%rbp)
    ad00:	00 00 00 
    ad03:	c7 85 d8 e2 ff ff 2a 	movl   $0x4c560d2a,-0x1d28(%rbp)
    ad0a:	0d 56 4c 
    ad0d:	c7 85 dc e2 ff ff 86 	movl   $0xd8867186,-0x1d24(%rbp)
    ad14:	71 86 d8 
    ad17:	c7 85 e0 e2 ff ff 94 	movl   $0x27f30c94,-0x1d20(%rbp)
    ad1e:	0c f3 27 
    ad21:	c7 85 e4 e2 ff ff 86 	movl   $0xd8867186,-0x1d1c(%rbp)
    ad28:	71 86 d8 
    ad2b:	c7 85 e8 e2 ff ff d1 	movl   $0x83c302d1,-0x1d18(%rbp)
    ad32:	02 c3 83 
    ad35:	c7 85 ec e2 ff ff d1 	movl   $0x83c302d1,-0x1d14(%rbp)
    ad3c:	02 c3 83 
    ad3f:	c7 85 f0 e2 ff ff 86 	movl   $0xd8867186,-0x1d10(%rbp)
    ad46:	71 86 d8 
    ad49:	c7 85 f4 e2 ff ff 94 	movl   $0x27f30c94,-0x1d0c(%rbp)
    ad50:	0c f3 27 
    ad53:	c7 85 f8 e2 ff ff 2a 	movl   $0x4c560d2a,-0x1d08(%rbp)
    ad5a:	0d 56 4c 
    ad5d:	c7 85 fc e2 ff ff 50 	movl   $0x5b20ba50,-0x1d04(%rbp)
    ad64:	ba 20 5b 
    ad67:	c7 85 00 e3 ff ff 00 	movl   $0x0,-0x1d00(%rbp)
    ad6e:	00 00 00 
    ad71:	c7 85 04 e3 ff ff fe 	movl   $0xd95563fe,-0x1cfc(%rbp)
    ad78:	63 55 d9 
    ad7b:	c7 85 08 e3 ff ff ff 	movl   $0xffffffff,-0x1cf8(%rbp)
    ad82:	ff ff ff 
    ad85:	c7 85 0c e3 ff ff 05 	movl   $0x5,-0x1cf4(%rbp)
    ad8c:	00 00 00 
    ad8f:	c7 85 10 e3 ff ff ff 	movl   $0xffffffff,-0x1cf0(%rbp)
    ad96:	ff ff ff 
    ad99:	48 c7 85 d0 e0 ff ff 	movq   $0x0,-0x1f30(%rbp)
    ada0:	00 00 00 00 
    ada4:	48 8d 85 d0 e0 ff ff 	lea    -0x1f30(%rbp),%rax
    adab:	48 89 85 00 f8 ff ff 	mov    %rax,-0x800(%rbp)
    adb2:	48 c7 85 08 f8 ff ff 	movq   $0x0,-0x7f8(%rbp)
    adb9:	00 00 00 00 
    adbd:	48 c7 85 10 f8 ff ff 	movq   $0x0,-0x7f0(%rbp)
    adc4:	00 00 00 00 
    adc8:	48 c7 85 18 f8 ff ff 	movq   $0x0,-0x7e8(%rbp)
    adcf:	00 00 00 00 
    add3:	48 c7 85 20 f8 ff ff 	movq   $0x0,-0x7e0(%rbp)
    adda:	00 00 00 00 
    adde:	48 8d 85 d0 e0 ff ff 	lea    -0x1f30(%rbp),%rax
    ade5:	48 89 85 28 f8 ff ff 	mov    %rax,-0x7d8(%rbp)
    adec:	48 8d 85 d0 e0 ff ff 	lea    -0x1f30(%rbp),%rax
    adf3:	48 89 85 30 f8 ff ff 	mov    %rax,-0x7d0(%rbp)
    adfa:	48 8d 85 d0 e0 ff ff 	lea    -0x1f30(%rbp),%rax
    ae01:	48 89 85 38 f8 ff ff 	mov    %rax,-0x7c8(%rbp)
    ae08:	48 c7 85 40 f8 ff ff 	movq   $0x0,-0x7c0(%rbp)
    ae0f:	00 00 00 00 
    ae13:	48 8d 85 d0 e0 ff ff 	lea    -0x1f30(%rbp),%rax
    ae1a:	48 89 85 48 f8 ff ff 	mov    %rax,-0x7b8(%rbp)
    ae21:	48 8d 85 d0 e0 ff ff 	lea    -0x1f30(%rbp),%rax
    ae28:	48 89 85 50 f8 ff ff 	mov    %rax,-0x7b0(%rbp)
    ae2f:	48 8d 85 d0 e0 ff ff 	lea    -0x1f30(%rbp),%rax
    ae36:	48 89 85 58 f8 ff ff 	mov    %rax,-0x7a8(%rbp)
    ae3d:	48 8d 85 d0 e0 ff ff 	lea    -0x1f30(%rbp),%rax
    ae44:	48 89 85 60 f8 ff ff 	mov    %rax,-0x7a0(%rbp)
    ae4b:	48 c7 85 68 f8 ff ff 	movq   $0x0,-0x798(%rbp)
    ae52:	00 00 00 00 
    ae56:	48 8d 85 d0 e0 ff ff 	lea    -0x1f30(%rbp),%rax
    ae5d:	48 89 85 70 f8 ff ff 	mov    %rax,-0x790(%rbp)
    ae64:	48 8d 85 d0 e0 ff ff 	lea    -0x1f30(%rbp),%rax
    ae6b:	48 89 85 78 f8 ff ff 	mov    %rax,-0x788(%rbp)
    ae72:	48 c7 85 80 f8 ff ff 	movq   $0x0,-0x780(%rbp)
    ae79:	00 00 00 00 
    ae7d:	48 8d 85 d0 e0 ff ff 	lea    -0x1f30(%rbp),%rax
    ae84:	48 89 85 88 f8 ff ff 	mov    %rax,-0x778(%rbp)
    ae8b:	48 8d 85 d0 e0 ff ff 	lea    -0x1f30(%rbp),%rax
    ae92:	48 89 85 90 f8 ff ff 	mov    %rax,-0x770(%rbp)
    ae99:	48 8d 85 d0 e0 ff ff 	lea    -0x1f30(%rbp),%rax
    aea0:	48 89 85 98 f8 ff ff 	mov    %rax,-0x768(%rbp)
    aea7:	48 c7 85 a0 f8 ff ff 	movq   $0x0,-0x760(%rbp)
    aeae:	00 00 00 00 
    aeb2:	48 8d 85 d0 e0 ff ff 	lea    -0x1f30(%rbp),%rax
    aeb9:	48 89 85 a8 f8 ff ff 	mov    %rax,-0x758(%rbp)
    aec0:	48 8d 85 d0 e0 ff ff 	lea    -0x1f30(%rbp),%rax
    aec7:	48 89 85 b0 f8 ff ff 	mov    %rax,-0x750(%rbp)
    aece:	48 c7 85 b8 f8 ff ff 	movq   $0x0,-0x748(%rbp)
    aed5:	00 00 00 00 
    aed9:	48 8d 85 d0 e0 ff ff 	lea    -0x1f30(%rbp),%rax
    aee0:	48 89 85 c0 f8 ff ff 	mov    %rax,-0x740(%rbp)
    aee7:	48 8d 85 d0 e0 ff ff 	lea    -0x1f30(%rbp),%rax
    aeee:	48 89 85 c8 f8 ff ff 	mov    %rax,-0x738(%rbp)
    aef5:	48 c7 85 d0 f8 ff ff 	movq   $0x0,-0x730(%rbp)
    aefc:	00 00 00 00 
    af00:	48 c7 85 d8 f8 ff ff 	movq   $0x0,-0x728(%rbp)
    af07:	00 00 00 00 
    af0b:	48 8d 85 d0 e0 ff ff 	lea    -0x1f30(%rbp),%rax
    af12:	48 89 85 e0 f8 ff ff 	mov    %rax,-0x720(%rbp)
    af19:	48 c7 85 e8 f8 ff ff 	movq   $0x0,-0x718(%rbp)
    af20:	00 00 00 00 
    af24:	48 8d 85 d0 e0 ff ff 	lea    -0x1f30(%rbp),%rax
    af2b:	48 89 85 f0 f8 ff ff 	mov    %rax,-0x710(%rbp)
    af32:	48 8d 85 d0 e0 ff ff 	lea    -0x1f30(%rbp),%rax
    af39:	48 89 85 f8 f8 ff ff 	mov    %rax,-0x708(%rbp)
    af40:	48 c7 85 00 f9 ff ff 	movq   $0x0,-0x700(%rbp)
    af47:	00 00 00 00 
    af4b:	48 8d 85 d0 e0 ff ff 	lea    -0x1f30(%rbp),%rax
    af52:	48 89 85 08 f9 ff ff 	mov    %rax,-0x6f8(%rbp)
    af59:	48 8d 85 d0 e0 ff ff 	lea    -0x1f30(%rbp),%rax
    af60:	48 89 85 10 f9 ff ff 	mov    %rax,-0x6f0(%rbp)
    af67:	48 8d 85 d0 e0 ff ff 	lea    -0x1f30(%rbp),%rax
    af6e:	48 89 85 18 f9 ff ff 	mov    %rax,-0x6e8(%rbp)
    af75:	48 c7 85 20 f9 ff ff 	movq   $0x0,-0x6e0(%rbp)
    af7c:	00 00 00 00 
    af80:	48 c7 85 28 f9 ff ff 	movq   $0x0,-0x6d8(%rbp)
    af87:	00 00 00 00 
    af8b:	48 8d 85 d0 e0 ff ff 	lea    -0x1f30(%rbp),%rax
    af92:	48 89 85 30 f9 ff ff 	mov    %rax,-0x6d0(%rbp)
    af99:	48 c7 85 38 f9 ff ff 	movq   $0x0,-0x6c8(%rbp)
    afa0:	00 00 00 00 
    afa4:	48 8d 85 d0 e0 ff ff 	lea    -0x1f30(%rbp),%rax
    afab:	48 89 85 40 f9 ff ff 	mov    %rax,-0x6c0(%rbp)
    afb2:	48 8d 85 d0 e0 ff ff 	lea    -0x1f30(%rbp),%rax
    afb9:	48 89 85 48 f9 ff ff 	mov    %rax,-0x6b8(%rbp)
    afc0:	48 8d 85 d0 e0 ff ff 	lea    -0x1f30(%rbp),%rax
    afc7:	48 89 85 50 f9 ff ff 	mov    %rax,-0x6b0(%rbp)
    afce:	48 c7 85 58 f9 ff ff 	movq   $0x0,-0x6a8(%rbp)
    afd5:	00 00 00 00 
    afd9:	48 8d 85 d0 e0 ff ff 	lea    -0x1f30(%rbp),%rax
    afe0:	48 89 85 60 f9 ff ff 	mov    %rax,-0x6a0(%rbp)
    afe7:	48 8d 85 d0 e0 ff ff 	lea    -0x1f30(%rbp),%rax
    afee:	48 89 85 68 f9 ff ff 	mov    %rax,-0x698(%rbp)
    aff5:	48 8d 85 d0 e0 ff ff 	lea    -0x1f30(%rbp),%rax
    affc:	48 89 85 70 f9 ff ff 	mov    %rax,-0x690(%rbp)
    b003:	48 8d 85 d0 e0 ff ff 	lea    -0x1f30(%rbp),%rax
    b00a:	48 89 85 78 f9 ff ff 	mov    %rax,-0x688(%rbp)
    b011:	48 8d 85 d0 e0 ff ff 	lea    -0x1f30(%rbp),%rax
    b018:	48 89 85 80 f9 ff ff 	mov    %rax,-0x680(%rbp)
    b01f:	48 8d 85 d0 e0 ff ff 	lea    -0x1f30(%rbp),%rax
    b026:	48 89 85 88 f9 ff ff 	mov    %rax,-0x678(%rbp)
    b02d:	48 8d 85 d0 e0 ff ff 	lea    -0x1f30(%rbp),%rax
    b034:	48 89 85 90 f9 ff ff 	mov    %rax,-0x670(%rbp)
    b03b:	48 8d 85 d0 e0 ff ff 	lea    -0x1f30(%rbp),%rax
    b042:	48 89 85 98 f9 ff ff 	mov    %rax,-0x668(%rbp)
    b049:	48 8d 85 d0 e0 ff ff 	lea    -0x1f30(%rbp),%rax
    b050:	48 89 85 a0 f9 ff ff 	mov    %rax,-0x660(%rbp)
    b057:	48 c7 85 a8 f9 ff ff 	movq   $0x0,-0x658(%rbp)
    b05e:	00 00 00 00 
    b062:	48 8d 85 d0 e0 ff ff 	lea    -0x1f30(%rbp),%rax
    b069:	48 89 85 b0 f9 ff ff 	mov    %rax,-0x650(%rbp)
    b070:	48 8d 85 d0 e0 ff ff 	lea    -0x1f30(%rbp),%rax
    b077:	48 89 85 b8 f9 ff ff 	mov    %rax,-0x648(%rbp)
    b07e:	48 c7 85 c0 f9 ff ff 	movq   $0x0,-0x640(%rbp)
    b085:	00 00 00 00 
    b089:	48 c7 85 c8 f9 ff ff 	movq   $0x0,-0x638(%rbp)
    b090:	00 00 00 00 
    b094:	48 c7 85 d0 f9 ff ff 	movq   $0x0,-0x630(%rbp)
    b09b:	00 00 00 00 
    b09f:	48 8d 85 d0 e0 ff ff 	lea    -0x1f30(%rbp),%rax
    b0a6:	48 89 85 d8 f9 ff ff 	mov    %rax,-0x628(%rbp)
    b0ad:	48 c7 85 e0 f9 ff ff 	movq   $0x0,-0x620(%rbp)
    b0b4:	00 00 00 00 
    b0b8:	48 c7 85 e8 f9 ff ff 	movq   $0x0,-0x618(%rbp)
    b0bf:	00 00 00 00 
    b0c3:	48 8d 85 d0 e0 ff ff 	lea    -0x1f30(%rbp),%rax
    b0ca:	48 89 85 f0 f9 ff ff 	mov    %rax,-0x610(%rbp)
    b0d1:	48 8d 85 d0 e0 ff ff 	lea    -0x1f30(%rbp),%rax
    b0d8:	48 89 85 f8 f9 ff ff 	mov    %rax,-0x608(%rbp)
    b0df:	48 8d 85 d0 e0 ff ff 	lea    -0x1f30(%rbp),%rax
    b0e6:	48 89 85 00 fa ff ff 	mov    %rax,-0x600(%rbp)
    b0ed:	48 8d 85 d0 e0 ff ff 	lea    -0x1f30(%rbp),%rax
    b0f4:	48 89 85 08 fa ff ff 	mov    %rax,-0x5f8(%rbp)
    b0fb:	48 8d 85 d0 e0 ff ff 	lea    -0x1f30(%rbp),%rax
    b102:	48 89 85 10 fa ff ff 	mov    %rax,-0x5f0(%rbp)
    b109:	48 c7 85 18 fa ff ff 	movq   $0x0,-0x5e8(%rbp)
    b110:	00 00 00 00 
    b114:	48 c7 85 20 fa ff ff 	movq   $0x0,-0x5e0(%rbp)
    b11b:	00 00 00 00 
    b11f:	48 8d 85 d0 e0 ff ff 	lea    -0x1f30(%rbp),%rax
    b126:	48 89 85 28 fa ff ff 	mov    %rax,-0x5d8(%rbp)
    b12d:	48 8d 85 d0 e0 ff ff 	lea    -0x1f30(%rbp),%rax
    b134:	48 89 85 30 fa ff ff 	mov    %rax,-0x5d0(%rbp)
    b13b:	48 8d 85 d0 e0 ff ff 	lea    -0x1f30(%rbp),%rax
    b142:	48 89 85 38 fa ff ff 	mov    %rax,-0x5c8(%rbp)
    b149:	48 8d 85 d0 e0 ff ff 	lea    -0x1f30(%rbp),%rax
    b150:	48 89 85 40 fa ff ff 	mov    %rax,-0x5c0(%rbp)
    b157:	48 8d 85 d0 e0 ff ff 	lea    -0x1f30(%rbp),%rax
    b15e:	48 89 85 48 fa ff ff 	mov    %rax,-0x5b8(%rbp)
    b165:	48 8d 85 d0 e0 ff ff 	lea    -0x1f30(%rbp),%rax
    b16c:	48 89 85 50 fa ff ff 	mov    %rax,-0x5b0(%rbp)
    b173:	48 8d 85 d0 e0 ff ff 	lea    -0x1f30(%rbp),%rax
    b17a:	48 89 85 58 fa ff ff 	mov    %rax,-0x5a8(%rbp)
    b181:	48 c7 85 60 fa ff ff 	movq   $0x0,-0x5a0(%rbp)
    b188:	00 00 00 00 
    b18c:	48 8d 85 d0 e0 ff ff 	lea    -0x1f30(%rbp),%rax
    b193:	48 89 85 68 fa ff ff 	mov    %rax,-0x598(%rbp)
    b19a:	48 c7 85 70 fa ff ff 	movq   $0x0,-0x590(%rbp)
    b1a1:	00 00 00 00 
    b1a5:	48 8d 85 d0 e0 ff ff 	lea    -0x1f30(%rbp),%rax
    b1ac:	48 89 85 78 fa ff ff 	mov    %rax,-0x588(%rbp)
    b1b3:	48 c7 85 80 fa ff ff 	movq   $0x0,-0x580(%rbp)
    b1ba:	00 00 00 00 
    b1be:	48 8d 85 d0 e0 ff ff 	lea    -0x1f30(%rbp),%rax
    b1c5:	48 89 85 88 fa ff ff 	mov    %rax,-0x578(%rbp)
    b1cc:	48 8d 85 d0 e0 ff ff 	lea    -0x1f30(%rbp),%rax
    b1d3:	48 89 85 90 fa ff ff 	mov    %rax,-0x570(%rbp)
    b1da:	48 8d 85 d0 e0 ff ff 	lea    -0x1f30(%rbp),%rax
    b1e1:	48 89 85 98 fa ff ff 	mov    %rax,-0x568(%rbp)
    b1e8:	48 8d 85 d0 e0 ff ff 	lea    -0x1f30(%rbp),%rax
    b1ef:	48 89 85 a0 fa ff ff 	mov    %rax,-0x560(%rbp)
    b1f6:	48 8d 85 d0 e0 ff ff 	lea    -0x1f30(%rbp),%rax
    b1fd:	48 89 85 a8 fa ff ff 	mov    %rax,-0x558(%rbp)
    b204:	48 8d 85 d0 e0 ff ff 	lea    -0x1f30(%rbp),%rax
    b20b:	48 89 85 b0 fa ff ff 	mov    %rax,-0x550(%rbp)
    b212:	48 8d 85 d0 e0 ff ff 	lea    -0x1f30(%rbp),%rax
    b219:	48 89 85 b8 fa ff ff 	mov    %rax,-0x548(%rbp)
    b220:	48 8d 85 d0 e0 ff ff 	lea    -0x1f30(%rbp),%rax
    b227:	48 89 85 c0 fa ff ff 	mov    %rax,-0x540(%rbp)
    b22e:	48 8d 85 d0 e0 ff ff 	lea    -0x1f30(%rbp),%rax
    b235:	48 89 85 c8 fa ff ff 	mov    %rax,-0x538(%rbp)
    b23c:	48 8d 85 d0 e0 ff ff 	lea    -0x1f30(%rbp),%rax
    b243:	48 89 85 d0 fa ff ff 	mov    %rax,-0x530(%rbp)
    b24a:	48 8d 85 d0 e0 ff ff 	lea    -0x1f30(%rbp),%rax
    b251:	48 89 85 d8 fa ff ff 	mov    %rax,-0x528(%rbp)
    b258:	48 8d 85 d0 e0 ff ff 	lea    -0x1f30(%rbp),%rax
    b25f:	48 89 85 e0 fa ff ff 	mov    %rax,-0x520(%rbp)
    b266:	48 8d 85 d0 e0 ff ff 	lea    -0x1f30(%rbp),%rax
    b26d:	48 89 85 e8 fa ff ff 	mov    %rax,-0x518(%rbp)
    b274:	48 8d 85 d0 e0 ff ff 	lea    -0x1f30(%rbp),%rax
    b27b:	48 89 85 f0 fa ff ff 	mov    %rax,-0x510(%rbp)
    b282:	48 8d 85 d0 e0 ff ff 	lea    -0x1f30(%rbp),%rax
    b289:	48 89 85 f8 fa ff ff 	mov    %rax,-0x508(%rbp)
    b290:	48 8d 85 d0 e0 ff ff 	lea    -0x1f30(%rbp),%rax
    b297:	48 89 85 00 fb ff ff 	mov    %rax,-0x500(%rbp)
    b29e:	48 8d 85 d0 e0 ff ff 	lea    -0x1f30(%rbp),%rax
    b2a5:	48 89 85 08 fb ff ff 	mov    %rax,-0x4f8(%rbp)
    b2ac:	48 8d 85 d0 e0 ff ff 	lea    -0x1f30(%rbp),%rax
    b2b3:	48 89 85 10 fb ff ff 	mov    %rax,-0x4f0(%rbp)
    b2ba:	48 8d 85 d0 e0 ff ff 	lea    -0x1f30(%rbp),%rax
    b2c1:	48 89 85 18 fb ff ff 	mov    %rax,-0x4e8(%rbp)
    b2c8:	48 c7 85 20 fb ff ff 	movq   $0x0,-0x4e0(%rbp)
    b2cf:	00 00 00 00 
    b2d3:	48 8d 85 d0 e0 ff ff 	lea    -0x1f30(%rbp),%rax
    b2da:	48 89 85 28 fb ff ff 	mov    %rax,-0x4d8(%rbp)
    b2e1:	48 8d 85 d0 e0 ff ff 	lea    -0x1f30(%rbp),%rax
    b2e8:	48 89 85 30 fb ff ff 	mov    %rax,-0x4d0(%rbp)
    b2ef:	48 8d 85 d0 e0 ff ff 	lea    -0x1f30(%rbp),%rax
    b2f6:	48 89 85 38 fb ff ff 	mov    %rax,-0x4c8(%rbp)
    b2fd:	48 c7 85 40 fb ff ff 	movq   $0x0,-0x4c0(%rbp)
    b304:	00 00 00 00 
    b308:	48 8d 85 d0 e0 ff ff 	lea    -0x1f30(%rbp),%rax
    b30f:	48 89 85 48 fb ff ff 	mov    %rax,-0x4b8(%rbp)
    b316:	48 8d 85 d0 e0 ff ff 	lea    -0x1f30(%rbp),%rax
    b31d:	48 89 85 50 fb ff ff 	mov    %rax,-0x4b0(%rbp)
    b324:	48 8d 85 d0 e0 ff ff 	lea    -0x1f30(%rbp),%rax
    b32b:	48 89 85 58 fb ff ff 	mov    %rax,-0x4a8(%rbp)
    b332:	48 8d 85 d0 e0 ff ff 	lea    -0x1f30(%rbp),%rax
    b339:	48 89 85 60 fb ff ff 	mov    %rax,-0x4a0(%rbp)
    b340:	48 8d 85 d0 e0 ff ff 	lea    -0x1f30(%rbp),%rax
    b347:	48 89 85 68 fb ff ff 	mov    %rax,-0x498(%rbp)
    b34e:	48 c7 85 70 fb ff ff 	movq   $0x0,-0x490(%rbp)
    b355:	00 00 00 00 
    b359:	48 8d 85 d0 e0 ff ff 	lea    -0x1f30(%rbp),%rax
    b360:	48 89 85 78 fb ff ff 	mov    %rax,-0x488(%rbp)
    b367:	48 8d 85 d0 e0 ff ff 	lea    -0x1f30(%rbp),%rax
    b36e:	48 89 85 80 fb ff ff 	mov    %rax,-0x480(%rbp)
    b375:	48 8d 85 d0 e0 ff ff 	lea    -0x1f30(%rbp),%rax
    b37c:	48 89 85 88 fb ff ff 	mov    %rax,-0x478(%rbp)
    b383:	48 8d 85 d0 e0 ff ff 	lea    -0x1f30(%rbp),%rax
    b38a:	48 89 85 90 fb ff ff 	mov    %rax,-0x470(%rbp)
    b391:	48 8d 85 d0 e0 ff ff 	lea    -0x1f30(%rbp),%rax
    b398:	48 89 85 98 fb ff ff 	mov    %rax,-0x468(%rbp)
    b39f:	48 c7 85 a0 fb ff ff 	movq   $0x0,-0x460(%rbp)
    b3a6:	00 00 00 00 
    b3aa:	48 8d 85 d0 e0 ff ff 	lea    -0x1f30(%rbp),%rax
    b3b1:	48 89 85 a8 fb ff ff 	mov    %rax,-0x458(%rbp)
    b3b8:	48 8d 85 d0 e0 ff ff 	lea    -0x1f30(%rbp),%rax
    b3bf:	48 89 85 b0 fb ff ff 	mov    %rax,-0x450(%rbp)
    b3c6:	48 8d 85 d0 e0 ff ff 	lea    -0x1f30(%rbp),%rax
    b3cd:	48 89 85 b8 fb ff ff 	mov    %rax,-0x448(%rbp)
    b3d4:	48 c7 85 c0 fb ff ff 	movq   $0x0,-0x440(%rbp)
    b3db:	00 00 00 00 
    b3df:	48 8d 85 d0 e0 ff ff 	lea    -0x1f30(%rbp),%rax
    b3e6:	48 89 85 c8 fb ff ff 	mov    %rax,-0x438(%rbp)
    b3ed:	48 8d 85 d0 e0 ff ff 	lea    -0x1f30(%rbp),%rax
    b3f4:	48 89 85 d0 fb ff ff 	mov    %rax,-0x430(%rbp)
    b3fb:	48 8d 85 d0 e0 ff ff 	lea    -0x1f30(%rbp),%rax
    b402:	48 89 85 d8 fb ff ff 	mov    %rax,-0x428(%rbp)
    b409:	48 8d 85 d0 e0 ff ff 	lea    -0x1f30(%rbp),%rax
    b410:	48 89 85 e0 fb ff ff 	mov    %rax,-0x420(%rbp)
    b417:	48 8d 85 d0 e0 ff ff 	lea    -0x1f30(%rbp),%rax
    b41e:	48 89 85 e8 fb ff ff 	mov    %rax,-0x418(%rbp)
    b425:	48 8d 85 d0 e0 ff ff 	lea    -0x1f30(%rbp),%rax
    b42c:	48 89 85 f0 fb ff ff 	mov    %rax,-0x410(%rbp)
    b433:	48 8d 85 d0 e0 ff ff 	lea    -0x1f30(%rbp),%rax
    b43a:	48 89 85 f8 fb ff ff 	mov    %rax,-0x408(%rbp)
    b441:	48 8d 85 d0 e0 ff ff 	lea    -0x1f30(%rbp),%rax
    b448:	48 89 85 00 fc ff ff 	mov    %rax,-0x400(%rbp)
    b44f:	48 8d 85 d0 e0 ff ff 	lea    -0x1f30(%rbp),%rax
    b456:	48 89 85 08 fc ff ff 	mov    %rax,-0x3f8(%rbp)
    b45d:	48 8d 85 d0 e0 ff ff 	lea    -0x1f30(%rbp),%rax
    b464:	48 89 85 10 fc ff ff 	mov    %rax,-0x3f0(%rbp)
    b46b:	48 8d 85 d0 e0 ff ff 	lea    -0x1f30(%rbp),%rax
    b472:	48 89 85 18 fc ff ff 	mov    %rax,-0x3e8(%rbp)
    b479:	48 c7 85 20 fc ff ff 	movq   $0x0,-0x3e0(%rbp)
    b480:	00 00 00 00 
    b484:	48 8d 85 d0 e0 ff ff 	lea    -0x1f30(%rbp),%rax
    b48b:	48 89 85 28 fc ff ff 	mov    %rax,-0x3d8(%rbp)
    b492:	48 8d 85 d0 e0 ff ff 	lea    -0x1f30(%rbp),%rax
    b499:	48 89 85 30 fc ff ff 	mov    %rax,-0x3d0(%rbp)
    b4a0:	48 8d 85 d0 e0 ff ff 	lea    -0x1f30(%rbp),%rax
    b4a7:	48 89 85 38 fc ff ff 	mov    %rax,-0x3c8(%rbp)
    b4ae:	48 c7 85 40 fc ff ff 	movq   $0x0,-0x3c0(%rbp)
    b4b5:	00 00 00 00 
    b4b9:	48 8d 85 d0 e0 ff ff 	lea    -0x1f30(%rbp),%rax
    b4c0:	48 89 85 48 fc ff ff 	mov    %rax,-0x3b8(%rbp)
    b4c7:	48 c7 85 50 fc ff ff 	movq   $0x0,-0x3b0(%rbp)
    b4ce:	00 00 00 00 
    b4d2:	48 c7 85 58 fc ff ff 	movq   $0x0,-0x3a8(%rbp)
    b4d9:	00 00 00 00 
    b4dd:	48 c7 85 60 fc ff ff 	movq   $0x0,-0x3a0(%rbp)
    b4e4:	00 00 00 00 
    b4e8:	48 8d 85 d0 e0 ff ff 	lea    -0x1f30(%rbp),%rax
    b4ef:	48 89 85 68 fc ff ff 	mov    %rax,-0x398(%rbp)
    b4f6:	48 8d 85 d0 e0 ff ff 	lea    -0x1f30(%rbp),%rax
    b4fd:	48 89 85 70 fc ff ff 	mov    %rax,-0x390(%rbp)
    b504:	48 8d 85 d0 e0 ff ff 	lea    -0x1f30(%rbp),%rax
    b50b:	48 89 85 78 fc ff ff 	mov    %rax,-0x388(%rbp)
    b512:	48 c7 85 80 fc ff ff 	movq   $0x0,-0x380(%rbp)
    b519:	00 00 00 00 
    b51d:	48 c7 85 88 fc ff ff 	movq   $0x0,-0x378(%rbp)
    b524:	00 00 00 00 
    b528:	48 8d 85 d0 e0 ff ff 	lea    -0x1f30(%rbp),%rax
    b52f:	48 89 85 90 fc ff ff 	mov    %rax,-0x370(%rbp)
    b536:	48 8d 85 d0 e0 ff ff 	lea    -0x1f30(%rbp),%rax
    b53d:	48 89 85 98 fc ff ff 	mov    %rax,-0x368(%rbp)
    b544:	48 8d 85 d0 e0 ff ff 	lea    -0x1f30(%rbp),%rax
    b54b:	48 89 85 a0 fc ff ff 	mov    %rax,-0x360(%rbp)
    b552:	48 c7 85 a8 fc ff ff 	movq   $0x0,-0x358(%rbp)
    b559:	00 00 00 00 
    b55d:	48 8d 85 d0 e0 ff ff 	lea    -0x1f30(%rbp),%rax
    b564:	48 89 85 b0 fc ff ff 	mov    %rax,-0x350(%rbp)
    b56b:	48 8d 85 d0 e0 ff ff 	lea    -0x1f30(%rbp),%rax
    b572:	48 89 85 b8 fc ff ff 	mov    %rax,-0x348(%rbp)
    b579:	48 8d 85 d0 e0 ff ff 	lea    -0x1f30(%rbp),%rax
    b580:	48 89 85 c0 fc ff ff 	mov    %rax,-0x340(%rbp)
    b587:	48 c7 85 c8 fc ff ff 	movq   $0x0,-0x338(%rbp)
    b58e:	00 00 00 00 
    b592:	48 8d 85 d0 e0 ff ff 	lea    -0x1f30(%rbp),%rax
    b599:	48 89 85 d0 fc ff ff 	mov    %rax,-0x330(%rbp)
    b5a0:	48 8d 85 d0 e0 ff ff 	lea    -0x1f30(%rbp),%rax
    b5a7:	48 89 85 d8 fc ff ff 	mov    %rax,-0x328(%rbp)
    b5ae:	48 c7 85 e0 fc ff ff 	movq   $0x0,-0x320(%rbp)
    b5b5:	00 00 00 00 
    b5b9:	48 8d 85 d0 e0 ff ff 	lea    -0x1f30(%rbp),%rax
    b5c0:	48 89 85 e8 fc ff ff 	mov    %rax,-0x318(%rbp)
    b5c7:	48 8d 85 d0 e0 ff ff 	lea    -0x1f30(%rbp),%rax
    b5ce:	48 89 85 f0 fc ff ff 	mov    %rax,-0x310(%rbp)
    b5d5:	48 8d 85 d0 e0 ff ff 	lea    -0x1f30(%rbp),%rax
    b5dc:	48 89 85 f8 fc ff ff 	mov    %rax,-0x308(%rbp)
    b5e3:	48 c7 85 00 fd ff ff 	movq   $0x0,-0x300(%rbp)
    b5ea:	00 00 00 00 
    b5ee:	48 8d 85 d0 e0 ff ff 	lea    -0x1f30(%rbp),%rax
    b5f5:	48 89 85 08 fd ff ff 	mov    %rax,-0x2f8(%rbp)
    b5fc:	48 8d 85 d0 e0 ff ff 	lea    -0x1f30(%rbp),%rax
    b603:	48 89 85 10 fd ff ff 	mov    %rax,-0x2f0(%rbp)
    b60a:	48 c7 85 18 fd ff ff 	movq   $0x0,-0x2e8(%rbp)
    b611:	00 00 00 00 
    b615:	48 8d 85 d0 e0 ff ff 	lea    -0x1f30(%rbp),%rax
    b61c:	48 89 85 20 fd ff ff 	mov    %rax,-0x2e0(%rbp)
    b623:	48 8d 85 d0 e0 ff ff 	lea    -0x1f30(%rbp),%rax
    b62a:	48 89 85 28 fd ff ff 	mov    %rax,-0x2d8(%rbp)
    b631:	48 c7 85 30 fd ff ff 	movq   $0x0,-0x2d0(%rbp)
    b638:	00 00 00 00 
    b63c:	48 c7 85 38 fd ff ff 	movq   $0x0,-0x2c8(%rbp)
    b643:	00 00 00 00 
    b647:	48 8d 85 d0 e0 ff ff 	lea    -0x1f30(%rbp),%rax
    b64e:	48 89 85 40 fd ff ff 	mov    %rax,-0x2c0(%rbp)
    b655:	48 c7 85 48 fd ff ff 	movq   $0x0,-0x2b8(%rbp)
    b65c:	00 00 00 00 
    b660:	48 8d 85 d0 e0 ff ff 	lea    -0x1f30(%rbp),%rax
    b667:	48 89 85 50 fd ff ff 	mov    %rax,-0x2b0(%rbp)
    b66e:	48 8d 85 d0 e0 ff ff 	lea    -0x1f30(%rbp),%rax
    b675:	48 89 85 58 fd ff ff 	mov    %rax,-0x2a8(%rbp)
    b67c:	48 c7 85 60 fd ff ff 	movq   $0x0,-0x2a0(%rbp)
    b683:	00 00 00 00 
    b687:	48 8d 85 d0 e0 ff ff 	lea    -0x1f30(%rbp),%rax
    b68e:	48 89 85 68 fd ff ff 	mov    %rax,-0x298(%rbp)
    b695:	48 8d 85 d0 e0 ff ff 	lea    -0x1f30(%rbp),%rax
    b69c:	48 89 85 70 fd ff ff 	mov    %rax,-0x290(%rbp)
    b6a3:	48 8d 85 d0 e0 ff ff 	lea    -0x1f30(%rbp),%rax
    b6aa:	48 89 85 78 fd ff ff 	mov    %rax,-0x288(%rbp)
    b6b1:	48 c7 85 80 fd ff ff 	movq   $0x0,-0x280(%rbp)
    b6b8:	00 00 00 00 
    b6bc:	48 c7 85 88 fd ff ff 	movq   $0x0,-0x278(%rbp)
    b6c3:	00 00 00 00 
    b6c7:	48 8d 85 d0 e0 ff ff 	lea    -0x1f30(%rbp),%rax
    b6ce:	48 89 85 90 fd ff ff 	mov    %rax,-0x270(%rbp)
    b6d5:	48 c7 85 98 fd ff ff 	movq   $0x0,-0x268(%rbp)
    b6dc:	00 00 00 00 
    b6e0:	48 8d 85 d0 e0 ff ff 	lea    -0x1f30(%rbp),%rax
    b6e7:	48 89 85 a0 fd ff ff 	mov    %rax,-0x260(%rbp)
    b6ee:	48 8d 85 d0 e0 ff ff 	lea    -0x1f30(%rbp),%rax
    b6f5:	48 89 85 a8 fd ff ff 	mov    %rax,-0x258(%rbp)
    b6fc:	48 8d 85 d0 e0 ff ff 	lea    -0x1f30(%rbp),%rax
    b703:	48 89 85 b0 fd ff ff 	mov    %rax,-0x250(%rbp)
    b70a:	48 c7 85 b8 fd ff ff 	movq   $0x0,-0x248(%rbp)
    b711:	00 00 00 00 
    b715:	48 8d 85 d0 e0 ff ff 	lea    -0x1f30(%rbp),%rax
    b71c:	48 89 85 c0 fd ff ff 	mov    %rax,-0x240(%rbp)
    b723:	48 8d 85 d0 e0 ff ff 	lea    -0x1f30(%rbp),%rax
    b72a:	48 89 85 c8 fd ff ff 	mov    %rax,-0x238(%rbp)
    b731:	48 8d 85 d0 e0 ff ff 	lea    -0x1f30(%rbp),%rax
    b738:	48 89 85 d0 fd ff ff 	mov    %rax,-0x230(%rbp)
    b73f:	48 8d 85 d0 e0 ff ff 	lea    -0x1f30(%rbp),%rax
    b746:	48 89 85 d8 fd ff ff 	mov    %rax,-0x228(%rbp)
    b74d:	48 8d 85 d0 e0 ff ff 	lea    -0x1f30(%rbp),%rax
    b754:	48 89 85 e0 fd ff ff 	mov    %rax,-0x220(%rbp)
    b75b:	48 8d 85 d0 e0 ff ff 	lea    -0x1f30(%rbp),%rax
    b762:	48 89 85 e8 fd ff ff 	mov    %rax,-0x218(%rbp)
    b769:	48 8d 85 d0 e0 ff ff 	lea    -0x1f30(%rbp),%rax
    b770:	48 89 85 f0 fd ff ff 	mov    %rax,-0x210(%rbp)
    b777:	48 8d 85 d0 e0 ff ff 	lea    -0x1f30(%rbp),%rax
    b77e:	48 89 85 f8 fd ff ff 	mov    %rax,-0x208(%rbp)
    b785:	48 8d 85 d0 e0 ff ff 	lea    -0x1f30(%rbp),%rax
    b78c:	48 89 85 00 fe ff ff 	mov    %rax,-0x200(%rbp)
    b793:	48 c7 85 08 fe ff ff 	movq   $0x0,-0x1f8(%rbp)
    b79a:	00 00 00 00 
    b79e:	48 8d 85 d0 e0 ff ff 	lea    -0x1f30(%rbp),%rax
    b7a5:	48 89 85 10 fe ff ff 	mov    %rax,-0x1f0(%rbp)
    b7ac:	48 8d 85 d0 e0 ff ff 	lea    -0x1f30(%rbp),%rax
    b7b3:	48 89 85 18 fe ff ff 	mov    %rax,-0x1e8(%rbp)
    b7ba:	48 c7 85 20 fe ff ff 	movq   $0x0,-0x1e0(%rbp)
    b7c1:	00 00 00 00 
    b7c5:	48 c7 85 28 fe ff ff 	movq   $0x0,-0x1d8(%rbp)
    b7cc:	00 00 00 00 
    b7d0:	48 c7 85 30 fe ff ff 	movq   $0x0,-0x1d0(%rbp)
    b7d7:	00 00 00 00 
    b7db:	48 8d 85 d0 e0 ff ff 	lea    -0x1f30(%rbp),%rax
    b7e2:	48 89 85 38 fe ff ff 	mov    %rax,-0x1c8(%rbp)
    b7e9:	48 8d 85 d0 e0 ff ff 	lea    -0x1f30(%rbp),%rax
    b7f0:	48 89 85 40 fe ff ff 	mov    %rax,-0x1c0(%rbp)
    b7f7:	48 8d 85 d0 e0 ff ff 	lea    -0x1f30(%rbp),%rax
    b7fe:	48 89 85 48 fe ff ff 	mov    %rax,-0x1b8(%rbp)
    b805:	48 8d 85 d0 e0 ff ff 	lea    -0x1f30(%rbp),%rax
    b80c:	48 89 85 50 fe ff ff 	mov    %rax,-0x1b0(%rbp)
    b813:	48 8d 85 d0 e0 ff ff 	lea    -0x1f30(%rbp),%rax
    b81a:	48 89 85 58 fe ff ff 	mov    %rax,-0x1a8(%rbp)
    b821:	48 c7 85 60 fe ff ff 	movq   $0x0,-0x1a0(%rbp)
    b828:	00 00 00 00 
    b82c:	48 8d 85 d0 e0 ff ff 	lea    -0x1f30(%rbp),%rax
    b833:	48 89 85 68 fe ff ff 	mov    %rax,-0x198(%rbp)
    b83a:	48 c7 85 70 fe ff ff 	movq   $0x0,-0x190(%rbp)
    b841:	00 00 00 00 
    b845:	48 8d 85 d0 e0 ff ff 	lea    -0x1f30(%rbp),%rax
    b84c:	48 89 85 78 fe ff ff 	mov    %rax,-0x188(%rbp)
    b853:	48 8d 85 d0 e0 ff ff 	lea    -0x1f30(%rbp),%rax
    b85a:	48 89 85 80 fe ff ff 	mov    %rax,-0x180(%rbp)
    b861:	48 8d 85 d0 e0 ff ff 	lea    -0x1f30(%rbp),%rax
    b868:	48 89 85 88 fe ff ff 	mov    %rax,-0x178(%rbp)
    b86f:	48 c7 85 90 fe ff ff 	movq   $0x0,-0x170(%rbp)
    b876:	00 00 00 00 
    b87a:	48 8d 85 d0 e0 ff ff 	lea    -0x1f30(%rbp),%rax
    b881:	48 89 85 98 fe ff ff 	mov    %rax,-0x168(%rbp)
    b888:	48 c7 85 a0 fe ff ff 	movq   $0x0,-0x160(%rbp)
    b88f:	00 00 00 00 
    b893:	48 c7 85 a8 fe ff ff 	movq   $0x0,-0x158(%rbp)
    b89a:	00 00 00 00 
    b89e:	48 8d 85 d0 e0 ff ff 	lea    -0x1f30(%rbp),%rax
    b8a5:	48 89 85 b0 fe ff ff 	mov    %rax,-0x150(%rbp)
    b8ac:	48 c7 85 b8 fe ff ff 	movq   $0x0,-0x148(%rbp)
    b8b3:	00 00 00 00 
    b8b7:	48 8d 85 d0 e0 ff ff 	lea    -0x1f30(%rbp),%rax
    b8be:	48 89 85 c0 fe ff ff 	mov    %rax,-0x140(%rbp)
    b8c5:	48 8d 85 d0 e0 ff ff 	lea    -0x1f30(%rbp),%rax
    b8cc:	48 89 85 c8 fe ff ff 	mov    %rax,-0x138(%rbp)
    b8d3:	48 8d 85 d0 e0 ff ff 	lea    -0x1f30(%rbp),%rax
    b8da:	48 89 85 d0 fe ff ff 	mov    %rax,-0x130(%rbp)
    b8e1:	48 c7 85 d8 fe ff ff 	movq   $0x0,-0x128(%rbp)
    b8e8:	00 00 00 00 
    b8ec:	48 8d 85 d0 e0 ff ff 	lea    -0x1f30(%rbp),%rax
    b8f3:	48 89 85 e0 fe ff ff 	mov    %rax,-0x120(%rbp)
    b8fa:	48 c7 85 e8 fe ff ff 	movq   $0x0,-0x118(%rbp)
    b901:	00 00 00 00 
    b905:	48 8d 85 d0 e0 ff ff 	lea    -0x1f30(%rbp),%rax
    b90c:	48 89 85 f0 fe ff ff 	mov    %rax,-0x110(%rbp)
    b913:	48 8d 85 d0 e0 ff ff 	lea    -0x1f30(%rbp),%rax
    b91a:	48 89 85 f8 fe ff ff 	mov    %rax,-0x108(%rbp)
    b921:	48 c7 85 00 ff ff ff 	movq   $0x0,-0x100(%rbp)
    b928:	00 00 00 00 
    b92c:	48 8d 85 d0 e0 ff ff 	lea    -0x1f30(%rbp),%rax
    b933:	48 89 85 08 ff ff ff 	mov    %rax,-0xf8(%rbp)
    b93a:	48 8d 85 d0 e0 ff ff 	lea    -0x1f30(%rbp),%rax
    b941:	48 89 85 10 ff ff ff 	mov    %rax,-0xf0(%rbp)
    b948:	48 8d 85 d0 e0 ff ff 	lea    -0x1f30(%rbp),%rax
    b94f:	48 89 85 18 ff ff ff 	mov    %rax,-0xe8(%rbp)
    b956:	48 c7 85 20 ff ff ff 	movq   $0x0,-0xe0(%rbp)
    b95d:	00 00 00 00 
    b961:	48 8d 85 d0 e0 ff ff 	lea    -0x1f30(%rbp),%rax
    b968:	48 89 85 28 ff ff ff 	mov    %rax,-0xd8(%rbp)
    b96f:	48 8d 85 d0 e0 ff ff 	lea    -0x1f30(%rbp),%rax
    b976:	48 89 85 30 ff ff ff 	mov    %rax,-0xd0(%rbp)
    b97d:	48 8d 85 d0 e0 ff ff 	lea    -0x1f30(%rbp),%rax
    b984:	48 89 85 38 ff ff ff 	mov    %rax,-0xc8(%rbp)
    b98b:	48 c7 85 40 ff ff ff 	movq   $0x0,-0xc0(%rbp)
    b992:	00 00 00 00 
    b996:	48 c7 85 48 ff ff ff 	movq   $0x0,-0xb8(%rbp)
    b99d:	00 00 00 00 
    b9a1:	48 c7 85 50 ff ff ff 	movq   $0x0,-0xb0(%rbp)
    b9a8:	00 00 00 00 
    b9ac:	48 8d 85 d0 e0 ff ff 	lea    -0x1f30(%rbp),%rax
    b9b3:	48 89 85 58 ff ff ff 	mov    %rax,-0xa8(%rbp)
    b9ba:	48 8d 85 d0 e0 ff ff 	lea    -0x1f30(%rbp),%rax
    b9c1:	48 89 85 60 ff ff ff 	mov    %rax,-0xa0(%rbp)
    b9c8:	48 8d 85 d0 e0 ff ff 	lea    -0x1f30(%rbp),%rax
    b9cf:	48 89 85 68 ff ff ff 	mov    %rax,-0x98(%rbp)
    b9d6:	48 c7 85 70 ff ff ff 	movq   $0x0,-0x90(%rbp)
    b9dd:	00 00 00 00 
    b9e1:	48 c7 85 78 ff ff ff 	movq   $0x0,-0x88(%rbp)
    b9e8:	00 00 00 00 
    b9ec:	48 8d 85 d0 e0 ff ff 	lea    -0x1f30(%rbp),%rax
    b9f3:	48 89 45 80          	mov    %rax,-0x80(%rbp)
    b9f7:	48 8d 85 d0 e0 ff ff 	lea    -0x1f30(%rbp),%rax
    b9fe:	48 89 45 88          	mov    %rax,-0x78(%rbp)
    ba02:	48 8d 85 d0 e0 ff ff 	lea    -0x1f30(%rbp),%rax
    ba09:	48 89 45 90          	mov    %rax,-0x70(%rbp)
    ba0d:	48 c7 45 98 00 00 00 	movq   $0x0,-0x68(%rbp)
    ba14:	00 
    ba15:	48 8d 85 d0 e0 ff ff 	lea    -0x1f30(%rbp),%rax
    ba1c:	48 89 45 a0          	mov    %rax,-0x60(%rbp)
    ba20:	48 8d 85 d0 e0 ff ff 	lea    -0x1f30(%rbp),%rax
    ba27:	48 89 45 a8          	mov    %rax,-0x58(%rbp)
    ba2b:	48 8d 85 d0 e0 ff ff 	lea    -0x1f30(%rbp),%rax
    ba32:	48 89 45 b0          	mov    %rax,-0x50(%rbp)
    ba36:	48 c7 45 b8 00 00 00 	movq   $0x0,-0x48(%rbp)
    ba3d:	00 
    ba3e:	48 8d 85 d0 e0 ff ff 	lea    -0x1f30(%rbp),%rax
    ba45:	48 89 45 c0          	mov    %rax,-0x40(%rbp)
    ba49:	48 8d 85 d0 e0 ff ff 	lea    -0x1f30(%rbp),%rax
    ba50:	48 89 45 c8          	mov    %rax,-0x38(%rbp)
    ba54:	48 c7 45 d0 00 00 00 	movq   $0x0,-0x30(%rbp)
    ba5b:	00 
    ba5c:	48 8d 85 d0 e0 ff ff 	lea    -0x1f30(%rbp),%rax
    ba63:	48 89 45 d8          	mov    %rax,-0x28(%rbp)
    ba67:	66 c7 85 42 e1 ff ff 	movw   $0x8326,-0x1ebe(%rbp)
    ba6e:	26 83 
    ba70:	66 c7 85 44 e1 ff ff 	movw   $0x8326,-0x1ebc(%rbp)
    ba77:	26 83 
    ba79:	66 c7 85 46 e1 ff ff 	movw   $0x8326,-0x1eba(%rbp)
    ba80:	26 83 
    ba82:	66 c7 85 48 e1 ff ff 	movw   $0x8326,-0x1eb8(%rbp)
    ba89:	26 83 
    ba8b:	66 c7 85 4a e1 ff ff 	movw   $0x8326,-0x1eb6(%rbp)
    ba92:	26 83 
    ba94:	66 c7 85 4c e1 ff ff 	movw   $0x8326,-0x1eb4(%rbp)
    ba9b:	26 83 
    ba9d:	66 c7 85 4e e1 ff ff 	movw   $0x8326,-0x1eb2(%rbp)
    baa4:	26 83 
    baa6:	c6 85 3a e0 ff ff 00 	movb   $0x0,-0x1fc6(%rbp)
    baad:	c7 85 78 e0 ff ff 00 	movl   $0x0,-0x1f88(%rbp)
    bab4:	00 00 00 
    bab7:	eb 1a                	jmp    bad3 <func_1+0x131e>
    bab9:	8b 85 78 e0 ff ff    	mov    -0x1f88(%rbp),%eax
    babf:	48 98                	cltq   
    bac1:	c7 84 85 50 e1 ff ff 	movl   $0xea0c8d46,-0x1eb0(%rbp,%rax,4)
    bac8:	46 8d 0c ea 
    bacc:	83 85 78 e0 ff ff 01 	addl   $0x1,-0x1f88(%rbp)
    bad3:	83 bd 78 e0 ff ff 03 	cmpl   $0x3,-0x1f88(%rbp)
    bada:	7e dd                	jle    bab9 <func_1+0x1304>
    badc:	c7 05 5a 25 01 00 00 	movl   $0x0,0x1255a(%rip)        # 1e040 <g_4>
    bae3:	00 00 00 
    bae6:	90                   	nop
    bae7:	8b 05 53 25 01 00    	mov    0x12553(%rip),%eax        # 1e040 <g_4>
    baed:	83 f8 02             	cmp    $0x2,%eax
    baf0:	7f 0b                	jg     bafd <func_1+0x1348>
    baf2:	8b 85 58 e1 ff ff    	mov    -0x1ea8(%rbp),%eax
    baf8:	e9 00 12 00 00       	jmpq   ccfd <func_1+0x2548>
    bafd:	c7 05 39 25 01 00 02 	movl   $0x2,0x12539(%rip)        # 1e040 <g_4>
    bb04:	00 00 00 
    bb07:	90                   	nop
    bb08:	8b 05 32 25 01 00    	mov    0x12532(%rip),%eax        # 1e040 <g_4>
    bb0e:	85 c0                	test   %eax,%eax
    bb10:	0f 88 c3 11 00 00    	js     ccd9 <func_1+0x2524>
    bb16:	c7 85 84 e0 ff ff ff 	movl   $0xffffffff,-0x1f7c(%rbp)
    bb1d:	ff ff ff 
    bb20:	c7 85 88 e0 ff ff 62 	movl   $0x8ecc8862,-0x1f78(%rbp)
    bb27:	88 cc 8e 
    bb2a:	c7 85 50 e0 ff ff 01 	movl   $0x1,-0x1fb0(%rbp)
    bb31:	00 00 00 
    bb34:	c7 85 54 e0 ff ff f1 	movl   $0x2e06f8f1,-0x1fac(%rbp)
    bb3b:	f8 06 2e 
    bb3e:	c7 85 8c e0 ff ff 00 	movl   $0x0,-0x1f74(%rbp)
    bb45:	00 00 00 
    bb48:	c7 85 58 e0 ff ff cc 	movl   $0x271997cc,-0x1fa8(%rbp)
    bb4f:	97 19 27 
    bb52:	c7 85 90 e0 ff ff ff 	movl   $0xffffffff,-0x1f70(%rbp)
    bb59:	ff ff ff 
    bb5c:	c7 85 94 e0 ff ff 01 	movl   $0x1,-0x1f6c(%rbp)
    bb63:	00 00 00 
    bb66:	c7 85 98 e0 ff ff ff 	movl   $0xffffffff,-0x1f68(%rbp)
    bb6d:	ff ff ff 
    bb70:	c7 85 9c e0 ff ff 00 	movl   $0x0,-0x1f64(%rbp)
    bb77:	00 00 00 
    bb7a:	c7 05 44 8d 01 00 02 	movl   $0x2,0x18d44(%rip)        # 248c8 <g_6>
    bb81:	00 00 00 
    bb84:	90                   	nop
    bb85:	8b 05 3d 8d 01 00    	mov    0x18d3d(%rip),%eax        # 248c8 <g_6>
    bb8b:	85 c0                	test   %eax,%eax
    bb8d:	0f 88 3e 11 00 00    	js     ccd1 <func_1+0x251c>
    bb93:	48 8d 05 e0 25 01 00 	lea    0x125e0(%rip),%rax        # 1e17a <g_145+0xa>
    bb9a:	48 89 85 e0 e0 ff ff 	mov    %rax,-0x1f20(%rbp)
    bba1:	66 c7 85 3c e0 ff ff 	movw   $0x3e2d,-0x1fc4(%rbp)
    bba8:	2d 3e 
    bbaa:	48 8d 85 20 e4 ff ff 	lea    -0x1be0(%rbp),%rax
    bbb1:	48 8d 15 08 56 01 00 	lea    0x15608(%rip),%rdx        # 211c0 <g_1852+0x18>
    bbb8:	b9 6c 00 00 00       	mov    $0x6c,%ecx
    bbbd:	48 89 c7             	mov    %rax,%rdi
    bbc0:	48 89 d6             	mov    %rdx,%rsi
    bbc3:	f3 48 a5             	rep movsq %ds:(%rsi),%es:(%rdi)
    bbc6:	c7 85 a0 e0 ff ff 01 	movl   $0x1,-0x1f60(%rbp)
    bbcd:	00 00 00 
    bbd0:	c7 85 a4 e0 ff ff 09 	movl   $0xc8014e09,-0x1f5c(%rbp)
    bbd7:	4e 01 c8 
    bbda:	c7 85 a8 e0 ff ff 27 	movl   $0x6e5f6f27,-0x1f58(%rbp)
    bbe1:	6f 5f 6e 
    bbe4:	c7 85 ac e0 ff ff 10 	movl   $0xa2780110,-0x1f54(%rbp)
    bbeb:	01 78 a2 
    bbee:	48 8d 85 60 e1 ff ff 	lea    -0x1ea0(%rbp),%rax
    bbf5:	48 83 c0 08          	add    $0x8,%rax
    bbf9:	48 89 85 e8 e0 ff ff 	mov    %rax,-0x1f18(%rbp)
    bc00:	c7 85 5c e0 ff ff e8 	movl   $0xb00c66e8,-0x1fa4(%rbp)
    bc07:	66 0c b0 
    bc0a:	48 8d 05 67 47 01 00 	lea    0x14767(%rip),%rax        # 20378 <g_1725+0x78>
    bc11:	48 89 85 d8 e0 ff ff 	mov    %rax,-0x1f28(%rbp)
    bc18:	c7 85 b0 e0 ff ff 67 	movl   $0x9ed6cc67,-0x1f50(%rbp)
    bc1f:	cc d6 9e 
    bc22:	48 8d 85 50 f0 ff ff 	lea    -0xfb0(%rbp),%rax
    bc29:	48 8d 15 f0 58 01 00 	lea    0x158f0(%rip),%rdx        # 21520 <g_1852+0x378>
    bc30:	b9 f5 00 00 00       	mov    $0xf5,%ecx
    bc35:	48 89 c7             	mov    %rax,%rdi
    bc38:	48 89 d6             	mov    %rdx,%rsi
    bc3b:	f3 48 a5             	rep movsq %ds:(%rsi),%es:(%rdi)
    bc3e:	c7 85 7c e0 ff ff 00 	movl   $0x0,-0x1f84(%rbp)
    bc45:	00 00 00 
    bc48:	eb 43                	jmp    bc8d <func_1+0x14d8>
    bc4a:	c7 85 70 e0 ff ff 00 	movl   $0x0,-0x1f90(%rbp)
    bc51:	00 00 00 
    bc54:	eb 27                	jmp    bc7d <func_1+0x14c8>
    bc56:	8b 85 70 e0 ff ff    	mov    -0x1f90(%rbp),%eax
    bc5c:	48 63 d0             	movslq %eax,%rdx
    bc5f:	8b 85 7c e0 ff ff    	mov    -0x1f84(%rbp),%eax
    bc65:	48 98                	cltq   
    bc67:	48 01 d0             	add    %rdx,%rax
    bc6a:	48 c7 84 c5 60 e1 ff 	movq   $0x0,-0x1ea0(%rbp,%rax,8)
    bc71:	ff 00 00 00 00 
    bc76:	83 85 70 e0 ff ff 01 	addl   $0x1,-0x1f90(%rbp)
    bc7d:	83 bd 70 e0 ff ff 00 	cmpl   $0x0,-0x1f90(%rbp)
    bc84:	7e d0                	jle    bc56 <func_1+0x14a1>
    bc86:	83 85 7c e0 ff ff 01 	addl   $0x1,-0x1f84(%rbp)
    bc8d:	83 bd 7c e0 ff ff 05 	cmpl   $0x5,-0x1f84(%rbp)
    bc94:	7e b4                	jle    bc4a <func_1+0x1495>
    bc96:	0f b7 85 e8 e1 ff ff 	movzwl -0x1e18(%rbp),%eax
    bc9d:	0f b7 d8             	movzwl %ax,%ebx
    bca0:	0f b7 85 c4 e1 ff ff 	movzwl -0x1e3c(%rbp),%eax
    bca7:	98                   	cwtl   
    bca8:	89 c7                	mov    %eax,%edi
    bcaa:	e8 75 5b 00 00       	callq  11824 <func_18>
    bcaf:	48 8b 95 e0 e0 ff ff 	mov    -0x1f20(%rbp),%rdx
    bcb6:	88 02                	mov    %al,(%rdx)
    bcb8:	8b 05 72 23 01 00    	mov    0x12372(%rip),%eax        # 1e030 <g_3>
    bcbe:	39 85 84 e0 ff ff    	cmp    %eax,-0x1f7c(%rbp)
    bcc4:	8b 85 84 e0 ff ff    	mov    -0x1f7c(%rbp),%eax
    bcca:	48 63 d0             	movslq %eax,%rdx
    bccd:	8b 85 88 e0 ff ff    	mov    -0x1f78(%rbp),%eax
    bcd3:	35 f0 41 99 fe       	xor    $0xfe9941f0,%eax
    bcd8:	89 85 88 e0 ff ff    	mov    %eax,-0x1f78(%rbp)
    bcde:	8b 85 88 e0 ff ff    	mov    -0x1f78(%rbp),%eax
    bce4:	48 98                	cltq   
    bce6:	48 89 d6             	mov    %rdx,%rsi
    bce9:	48 89 c7             	mov    %rax,%rdi
    bcec:	e8 b7 db ff ff       	callq  98a8 <safe_sub_func_int64_t_s_s>
    bcf1:	8b 05 39 23 01 00    	mov    0x12339(%rip),%eax        # 1e030 <g_3>
    bcf7:	83 c0 01             	add    $0x1,%eax
    bcfa:	48 63 d0             	movslq %eax,%rdx
    bcfd:	48 89 d0             	mov    %rdx,%rax
    bd00:	48 01 c0             	add    %rax,%rax
    bd03:	48 01 d0             	add    %rdx,%rax
    bd06:	48 c1 e0 02          	shl    $0x2,%rax
    bd0a:	48 0f bf 85 3c e0 ff 	movswq -0x1fc4(%rbp),%rax
    bd11:	ff 
    bd12:	48 be 46 77 e2 67 e7 	movabs $0xe49504e767e27746,%rsi
    bd19:	04 95 e4 
    bd1c:	48 89 c7             	mov    %rax,%rdi
    bd1f:	e8 d3 dc ff ff       	callq  99f7 <safe_div_func_int64_t_s_s>
    bd24:	0f b6 f0             	movzbl %al,%esi
    bd27:	8b 05 03 23 01 00    	mov    0x12303(%rip),%eax        # 1e030 <g_3>
    bd2d:	8d 50 01             	lea    0x1(%rax),%edx
    bd30:	8b 05 0a 23 01 00    	mov    0x1230a(%rip),%eax        # 1e040 <g_4>
    bd36:	8d 48 01             	lea    0x1(%rax),%ecx
    bd39:	8b 05 f1 22 01 00    	mov    0x122f1(%rip),%eax        # 1e030 <g_3>
    bd3f:	48 63 f8             	movslq %eax,%rdi
    bd42:	48 63 d2             	movslq %edx,%rdx
    bd45:	48 63 c9             	movslq %ecx,%rcx
    bd48:	48 89 d0             	mov    %rdx,%rax
    bd4b:	48 01 c0             	add    %rax,%rax
    bd4e:	48 01 d0             	add    %rdx,%rax
    bd51:	48 c1 e0 02          	shl    $0x2,%rax
    bd55:	48 89 ca             	mov    %rcx,%rdx
    bd58:	48 01 d2             	add    %rdx,%rdx
    bd5b:	48 01 ca             	add    %rcx,%rdx
    bd5e:	48 01 d0             	add    %rdx,%rax
    bd61:	48 01 f8             	add    %rdi,%rax
    bd64:	0f b7 84 45 90 e1 ff 	movzwl -0x1e70(%rbp,%rax,2),%eax
    bd6b:	ff 
    bd6c:	0f b7 d0             	movzwl %ax,%edx
    bd6f:	8b 05 c7 22 01 00    	mov    0x122c7(%rip),%eax        # 1e03c <g_3+0xc>
    bd75:	39 c2                	cmp    %eax,%edx
    bd77:	0f 95 c0             	setne  %al
    bd7a:	0f b6 c0             	movzbl %al,%eax
    bd7d:	89 c7                	mov    %eax,%edi
    bd7f:	e8 7c 40 00 00       	callq  fe00 <func_12>
    bd84:	8b 15 02 43 01 00    	mov    0x14302(%rip),%edx        # 2008c <g_972+0xc>
    bd8a:	8b 85 84 e0 ff ff    	mov    -0x1f7c(%rbp),%eax
    bd90:	09 c2                	or     %eax,%edx
    bd92:	48 8b 05 37 80 01 00 	mov    0x18037(%rip),%rax        # 23dd0 <g_846>
    bd99:	89 d2                	mov    %edx,%edx
    bd9b:	48 89 10             	mov    %rdx,(%rax)
    bd9e:	48 8b 00             	mov    (%rax),%rax
    bda1:	48 ba 40 14 01 dc a2 	movabs $0x473cc9a2dc011440,%rdx
    bda8:	c9 3c 47 
    bdab:	48 21 d0             	and    %rdx,%rax
    bdae:	48 89 c6             	mov    %rax,%rsi
    bdb1:	8b 05 89 22 01 00    	mov    0x12289(%rip),%eax        # 1e040 <g_4>
    bdb7:	8d 50 03             	lea    0x3(%rax),%edx
    bdba:	8b 05 80 22 01 00    	mov    0x12280(%rip),%eax        # 1e040 <g_4>
    bdc0:	8d 48 01             	lea    0x1(%rax),%ecx
    bdc3:	8b 05 67 22 01 00    	mov    0x12267(%rip),%eax        # 1e030 <g_3>
    bdc9:	48 63 f8             	movslq %eax,%rdi
    bdcc:	48 63 d2             	movslq %edx,%rdx
    bdcf:	48 63 c9             	movslq %ecx,%rcx
    bdd2:	48 89 d0             	mov    %rdx,%rax
    bdd5:	48 01 c0             	add    %rax,%rax
    bdd8:	48 01 d0             	add    %rdx,%rax
    bddb:	48 c1 e0 02          	shl    $0x2,%rax
    bddf:	48 89 ca             	mov    %rcx,%rdx
    bde2:	48 01 d2             	add    %rdx,%rdx
    bde5:	48 01 ca             	add    %rcx,%rdx
    bde8:	48 01 d0             	add    %rdx,%rax
    bdeb:	48 01 f8             	add    %rdi,%rax
    bdee:	0f b7 84 45 90 e1 ff 	movzwl -0x1e70(%rbp,%rax,2),%eax
    bdf5:	ff 
    bdf6:	0f b7 c0             	movzwl %ax,%eax
    bdf9:	89 c7                	mov    %eax,%edi
    bdfb:	e8 1b 0f 00 00       	callq  cd1b <func_9>
    be00:	8b 95 a0 e0 ff ff    	mov    -0x1f60(%rbp),%edx
    be06:	09 d0                	or     %edx,%eax
    be08:	89 85 a0 e0 ff ff    	mov    %eax,-0x1f60(%rbp)
    be0e:	8b 05 1c 22 01 00    	mov    0x1221c(%rip),%eax        # 1e030 <g_3>
    be14:	83 c0 01             	add    $0x1,%eax
    be17:	48 63 d0             	movslq %eax,%rdx
    be1a:	48 89 d0             	mov    %rdx,%rax
    be1d:	48 01 c0             	add    %rax,%rax
    be20:	48 01 d0             	add    %rdx,%rax
    be23:	48 c1 e0 02          	shl    $0x2,%rax
    be27:	48 89 de             	mov    %rbx,%rsi
    be2a:	bf 00 00 00 00       	mov    $0x0,%edi
    be2f:	e8 fa e1 ff ff       	callq  a02e <safe_add_func_uint64_t_u_u>
    be34:	48 85 c0             	test   %rax,%rax
    be37:	0f 84 ee 00 00 00    	je     bf2b <func_1+0x1776>
    be3d:	c7 85 b4 e0 ff ff fc 	movl   $0xfffffffc,-0x1f4c(%rbp)
    be44:	ff ff ff 
    be47:	c7 85 b8 e0 ff ff 03 	movl   $0x3,-0x1f48(%rbp)
    be4e:	00 00 00 
    be51:	c7 85 bc e0 ff ff 2c 	movl   $0xf4a0692c,-0x1f44(%rbp)
    be58:	69 a0 f4 
    be5b:	c7 85 c0 e0 ff ff fe 	movl   $0xfffffffe,-0x1f40(%rbp)
    be62:	ff ff ff 
    be65:	48 8b 15 3c 77 01 00 	mov    0x1773c(%rip),%rdx        # 235a8 <g_152>
    be6c:	48 8b 05 35 77 01 00 	mov    0x17735(%rip),%rax        # 235a8 <g_152>
    be73:	48 8b 12             	mov    (%rdx),%rdx
    be76:	48 89 10             	mov    %rdx,(%rax)
    be79:	48 c7 05 54 8a 01 00 	movq   $0x0,0x18a54(%rip)        # 248d8 <g_308>
    be80:	00 00 00 00 
    be84:	e9 8c 00 00 00       	jmpq   bf15 <func_1+0x1760>
    be89:	66 c7 85 80 e7 ff ff 	movw   $0x2,-0x1880(%rbp)
    be90:	02 00 
    be92:	66 c7 85 82 e7 ff ff 	movw   $0x2,-0x187e(%rbp)
    be99:	02 00 
    be9b:	66 c7 85 84 e7 ff ff 	movw   $0x2,-0x187c(%rbp)
    bea2:	02 00 
    bea4:	66 c7 85 86 e7 ff ff 	movw   $0x2,-0x187a(%rbp)
    beab:	02 00 
    bead:	48 8d 85 40 e0 ff ff 	lea    -0x1fc0(%rbp),%rax
    beb4:	48 89 85 f8 e0 ff ff 	mov    %rax,-0x1f08(%rbp)
    bebb:	c7 85 c4 e0 ff ff d6 	movl   $0xeeb4d5d6,-0x1f3c(%rbp)
    bec2:	d5 b4 ee 
    bec5:	c6 85 3b e0 ff ff 00 	movb   $0x0,-0x1fc5(%rbp)
    becc:	c7 85 74 e0 ff ff 00 	movl   $0x0,-0x1f8c(%rbp)
    bed3:	00 00 00 
    bed6:	eb 1b                	jmp    bef3 <func_1+0x173e>
    bed8:	8b 85 74 e0 ff ff    	mov    -0x1f8c(%rbp),%eax
    bede:	48 98                	cltq   
    bee0:	48 c7 84 c5 40 eb ff 	movq   $0x0,-0x14c0(%rbp,%rax,8)
    bee7:	ff 00 00 00 00 
    beec:	83 85 74 e0 ff ff 01 	addl   $0x1,-0x1f8c(%rbp)
    bef3:	83 bd 74 e0 ff ff 03 	cmpl   $0x3,-0x1f8c(%rbp)
    befa:	7e dc                	jle    bed8 <func_1+0x1723>
    befc:	80 ad 3b e0 ff ff 01 	subb   $0x1,-0x1fc5(%rbp)
    bf03:	48 8b 05 ce 89 01 00 	mov    0x189ce(%rip),%rax        # 248d8 <g_308>
    bf0a:	48 83 c0 01          	add    $0x1,%rax
    bf0e:	48 89 05 c3 89 01 00 	mov    %rax,0x189c3(%rip)        # 248d8 <g_308>
    bf15:	48 8b 05 bc 89 01 00 	mov    0x189bc(%rip),%rax        # 248d8 <g_308>
    bf1c:	48 83 f8 02          	cmp    $0x2,%rax
    bf20:	0f 86 63 ff ff ff    	jbe    be89 <func_1+0x16d4>
    bf26:	e9 ab 01 00 00       	jmpq   c0d6 <func_1+0x1921>
    bf2b:	66 c7 85 40 eb ff ff 	movw   $0x303,-0x14c0(%rbp)
    bf32:	03 03 
    bf34:	c6 85 42 eb ff ff ae 	movb   $0xae,-0x14be(%rbp)
    bf3b:	66 c7 85 43 eb ff ff 	movw   $0x47,-0x14bd(%rbp)
    bf42:	47 00 
    bf44:	c6 85 45 eb ff ff 47 	movb   $0x47,-0x14bb(%rbp)
    bf4b:	66 c7 85 46 eb ff ff 	movw   $0xae03,-0x14ba(%rbp)
    bf52:	03 ae 
    bf54:	c6 85 48 eb ff ff ae 	movb   $0xae,-0x14b8(%rbp)
    bf5b:	66 c7 85 49 eb ff ff 	movw   $0x72,-0x14b7(%rbp)
    bf62:	72 00 
    bf64:	c6 85 4b eb ff ff 72 	movb   $0x72,-0x14b5(%rbp)
    bf6b:	66 c7 85 4c eb ff ff 	movw   $0x303,-0x14b4(%rbp)
    bf72:	03 03 
    bf74:	c6 85 4e eb ff ff ae 	movb   $0xae,-0x14b2(%rbp)
    bf7b:	66 c7 85 4f eb ff ff 	movw   $0x47,-0x14b1(%rbp)
    bf82:	47 00 
    bf84:	c6 85 51 eb ff ff 47 	movb   $0x47,-0x14af(%rbp)
    bf8b:	66 c7 85 52 eb ff ff 	movw   $0xae03,-0x14ae(%rbp)
    bf92:	03 ae 
    bf94:	c6 85 54 eb ff ff ae 	movb   $0xae,-0x14ac(%rbp)
    bf9b:	66 c7 85 55 eb ff ff 	movw   $0x72,-0x14ab(%rbp)
    bfa2:	72 00 
    bfa4:	c6 85 57 eb ff ff 72 	movb   $0x72,-0x14a9(%rbp)
    bfab:	66 c7 85 58 eb ff ff 	movw   $0x303,-0x14a8(%rbp)
    bfb2:	03 03 
    bfb4:	c6 85 5a eb ff ff ae 	movb   $0xae,-0x14a6(%rbp)
    bfbb:	c7 85 48 e0 ff ff 00 	movl   $0x0,-0x1fb8(%rbp)
    bfc2:	00 00 00 
    bfc5:	e9 fd 00 00 00       	jmpq   c0c7 <func_1+0x1912>
    bfca:	48 8d 85 40 e0 ff ff 	lea    -0x1fc0(%rbp),%rax
    bfd1:	48 89 85 f0 e0 ff ff 	mov    %rax,-0x1f10(%rbp)
    bfd8:	0f b7 85 3c e0 ff ff 	movzwl -0x1fc4(%rbp),%eax
    bfdf:	89 c2                	mov    %eax,%edx
    bfe1:	48 8b 85 e0 e0 ff ff 	mov    -0x1f20(%rbp),%rax
    bfe8:	88 10                	mov    %dl,(%rax)
    bfea:	48 8b 85 e0 e0 ff ff 	mov    -0x1f20(%rbp),%rax
    bff1:	0f b6 00             	movzbl (%rax),%eax
    bff4:	0f be d0             	movsbl %al,%edx
    bff7:	8b 85 4c e0 ff ff    	mov    -0x1fb4(%rbp),%eax
    bffd:	39 c2                	cmp    %eax,%edx
    bfff:	0f 9f c0             	setg   %al
    c002:	0f b6 c0             	movzbl %al,%eax
    c005:	be 00 00 00 00       	mov    $0x0,%esi
    c00a:	89 c7                	mov    %eax,%edi
    c00c:	e8 19 d5 ff ff       	callq  952a <safe_rshift_func_int16_t_s_s>
    c011:	8b 05 29 20 01 00    	mov    0x12029(%rip),%eax        # 1e040 <g_4>
    c017:	8d 48 04             	lea    0x4(%rax),%ecx
    c01a:	8b 05 a8 88 01 00    	mov    0x188a8(%rip),%eax        # 248c8 <g_6>
    c020:	8b 15 1a 20 01 00    	mov    0x1201a(%rip),%edx        # 1e040 <g_4>
    c026:	48 63 f2             	movslq %edx,%rsi
    c029:	48 63 d1             	movslq %ecx,%rdx
    c02c:	48 63 c8             	movslq %eax,%rcx
    c02f:	48 89 d0             	mov    %rdx,%rax
    c032:	48 01 c0             	add    %rax,%rax
    c035:	48 01 d0             	add    %rdx,%rax
    c038:	48 c1 e0 02          	shl    $0x2,%rax
    c03c:	48 89 ca             	mov    %rcx,%rdx
    c03f:	48 01 d2             	add    %rdx,%rdx
    c042:	48 01 ca             	add    %rcx,%rdx
    c045:	48 01 d0             	add    %rdx,%rax
    c048:	48 01 f0             	add    %rsi,%rax
    c04b:	66 c7 84 45 90 e1 ff 	movw   $0xfffe,-0x1e70(%rbp,%rax,2)
    c052:	ff fe ff 
    c055:	48 8b 05 74 83 01 00 	mov    0x18374(%rip),%rax        # 243d0 <g_1333>
    c05c:	48 8b 00             	mov    (%rax),%rax
    c05f:	48 8b 00             	mov    (%rax),%rax
    c062:	48 8b 00             	mov    (%rax),%rax
    c065:	48 8b 00             	mov    (%rax),%rax
    c068:	8b 00                	mov    (%rax),%eax
    c06a:	0f b6 85 42 eb ff ff 	movzbl -0x14be(%rbp),%eax
    c071:	0f b6 c0             	movzbl %al,%eax
    c074:	be ff ff 00 00       	mov    $0xffff,%esi
    c079:	89 c7                	mov    %eax,%edi
    c07b:	e8 0e dd ff ff       	callq  9d8e <safe_div_func_uint16_t_u_u>
    c080:	66 3d 60 24          	cmp    $0x2460,%ax
    c084:	0f 95 c0             	setne  %al
    c087:	0f b6 c0             	movzbl %al,%eax
    c08a:	be fe ff ff ff       	mov    $0xfffffffe,%esi
    c08f:	89 c7                	mov    %eax,%edi
    c091:	e8 5f d3 ff ff       	callq  93f5 <safe_mul_func_int16_t_s_s>
    c096:	48 0f bf c0          	movswq %ax,%rax
    c09a:	48 83 f8 02          	cmp    $0x2,%rax
    c09e:	0f 96 c0             	setbe  %al
    c0a1:	0f b6 d0             	movzbl %al,%edx
    c0a4:	48 8b 85 f0 e0 ff ff 	mov    -0x1f10(%rbp),%rax
    c0ab:	8b 00                	mov    (%rax),%eax
    c0ad:	31 c2                	xor    %eax,%edx
    c0af:	48 8b 85 f0 e0 ff ff 	mov    -0x1f10(%rbp),%rax
    c0b6:	89 10                	mov    %edx,(%rax)
    c0b8:	8b 85 48 e0 ff ff    	mov    -0x1fb8(%rbp),%eax
    c0be:	83 c0 01             	add    $0x1,%eax
    c0c1:	89 85 48 e0 ff ff    	mov    %eax,-0x1fb8(%rbp)
    c0c7:	8b 85 48 e0 ff ff    	mov    -0x1fb8(%rbp),%eax
    c0cd:	83 f8 02             	cmp    $0x2,%eax
    c0d0:	0f 8e f4 fe ff ff    	jle    bfca <func_1+0x1815>
    c0d6:	48 8b 05 cb 74 01 00 	mov    0x174cb(%rip),%rax        # 235a8 <g_152>
    c0dd:	48 8b 10             	mov    (%rax),%rdx
    c0e0:	48 8b 05 e1 82 01 00 	mov    0x182e1(%rip),%rax        # 243c8 <g_1334>
    c0e7:	48 8b 00             	mov    (%rax),%rax
    c0ea:	48 8b 00             	mov    (%rax),%rax
    c0ed:	48 8b 00             	mov    (%rax),%rax
    c0f0:	8b 12                	mov    (%rdx),%edx
    c0f2:	89 10                	mov    %edx,(%rax)
    c0f4:	c7 05 46 1f 01 00 02 	movl   $0x2,0x11f46(%rip)        # 1e044 <g_21>
    c0fb:	00 00 00 
    c0fe:	90                   	nop
    c0ff:	8b 05 3f 1f 01 00    	mov    0x11f3f(%rip),%eax        # 1e044 <g_21>
    c105:	85 c0                	test   %eax,%eax
    c107:	0f 88 d9 09 00 00    	js     cae6 <func_1+0x2331>
    c10d:	48 8d 85 40 eb ff ff 	lea    -0x14c0(%rbp),%rax
    c114:	48 8d 15 65 d0 00 00 	lea    0xd065(%rip),%rdx        # 19180 <g_1290+0x118>
    c11b:	b9 a2 00 00 00       	mov    $0xa2,%ecx
    c120:	48 89 c7             	mov    %rax,%rdi
    c123:	48 89 d6             	mov    %rdx,%rsi
    c126:	f3 48 a5             	rep movsq %ds:(%rsi),%es:(%rdi)
    c129:	c7 85 c8 e0 ff ff ff 	movl   $0xffffffff,-0x1f38(%rbp)
    c130:	ff ff ff 
    c133:	c7 85 60 e0 ff ff 7a 	movl   $0x13760a7a,-0x1fa0(%rbp)
    c13a:	0a 76 13 
    c13d:	c7 85 64 e0 ff ff 00 	movl   $0x0,-0x1f9c(%rbp)
    c144:	00 00 00 
    c147:	c7 85 68 e0 ff ff 02 	movl   $0x2,-0x1f98(%rbp)
    c14e:	00 00 00 
    c151:	c7 85 cc e0 ff ff 00 	movl   $0x0,-0x1f34(%rbp)
    c158:	00 00 00 
    c15b:	48 c7 85 00 e1 ff ff 	movq   $0xffffffffffffffff,-0x1f00(%rbp)
    c162:	ff ff ff ff 
    c166:	48 8d 85 d8 e0 ff ff 	lea    -0x1f28(%rbp),%rax
    c16d:	48 89 85 08 e1 ff ff 	mov    %rax,-0x1ef8(%rbp)
    c174:	48 8b 85 20 ff ff ff 	mov    -0xe0(%rbp),%rax
    c17b:	48 39 85 e8 e0 ff ff 	cmp    %rax,-0x1f18(%rbp)
    c182:	0f 84 ad 06 00 00    	je     c835 <func_1+0x2080>
    c188:	48 8d 85 44 e0 ff ff 	lea    -0x1fbc(%rbp),%rax
    c18f:	48 89 85 28 e1 ff ff 	mov    %rax,-0x1ed8(%rbp)
    c196:	48 c7 85 30 e1 ff ff 	movq   $0x0,-0x1ed0(%rbp)
    c19d:	00 00 00 00 
    c1a1:	c7 85 6c e0 ff ff 01 	movl   $0x4ba8d901,-0x1f94(%rbp)
    c1a8:	d9 a8 4b 
    c1ab:	48 8d 85 50 e2 ff ff 	lea    -0x1db0(%rbp),%rax
    c1b2:	48 83 c0 08          	add    $0x8,%rax
    c1b6:	48 89 85 80 e7 ff ff 	mov    %rax,-0x1880(%rbp)
    c1bd:	48 c7 85 88 e7 ff ff 	movq   $0x0,-0x1878(%rbp)
    c1c4:	00 00 00 00 
    c1c8:	48 8d 05 65 1e 01 00 	lea    0x11e65(%rip),%rax        # 1e034 <g_3+0x4>
    c1cf:	48 89 85 90 e7 ff ff 	mov    %rax,-0x1870(%rbp)
    c1d6:	48 c7 85 98 e7 ff ff 	movq   $0x0,-0x1868(%rbp)
    c1dd:	00 00 00 00 
    c1e1:	48 c7 85 a0 e7 ff ff 	movq   $0x0,-0x1860(%rbp)
    c1e8:	00 00 00 00 
    c1ec:	48 c7 85 a8 e7 ff ff 	movq   $0x0,-0x1858(%rbp)
    c1f3:	00 00 00 00 
    c1f7:	48 8d 85 20 e3 ff ff 	lea    -0x1ce0(%rbp),%rax
    c1fe:	48 83 c0 1c          	add    $0x1c,%rax
    c202:	48 89 85 b0 e7 ff ff 	mov    %rax,-0x1850(%rbp)
    c209:	48 8d 85 50 e0 ff ff 	lea    -0x1fb0(%rbp),%rax
    c210:	48 89 85 b8 e7 ff ff 	mov    %rax,-0x1848(%rbp)
    c217:	48 8d 85 20 e3 ff ff 	lea    -0x1ce0(%rbp),%rax
    c21e:	48 83 c0 1c          	add    $0x1c,%rax
    c222:	48 89 85 c0 e7 ff ff 	mov    %rax,-0x1840(%rbp)
    c229:	48 c7 85 c8 e7 ff ff 	movq   $0x0,-0x1838(%rbp)
    c230:	00 00 00 00 
    c234:	48 8d 85 44 e0 ff ff 	lea    -0x1fbc(%rbp),%rax
    c23b:	48 89 85 d0 e7 ff ff 	mov    %rax,-0x1830(%rbp)
    c242:	48 8d 85 44 e0 ff ff 	lea    -0x1fbc(%rbp),%rax
    c249:	48 89 85 d8 e7 ff ff 	mov    %rax,-0x1828(%rbp)
    c250:	48 c7 85 e0 e7 ff ff 	movq   $0x0,-0x1820(%rbp)
    c257:	00 00 00 00 
    c25b:	48 8d 85 44 e0 ff ff 	lea    -0x1fbc(%rbp),%rax
    c262:	48 89 85 e8 e7 ff ff 	mov    %rax,-0x1818(%rbp)
    c269:	48 8d 85 44 e0 ff ff 	lea    -0x1fbc(%rbp),%rax
    c270:	48 89 85 f0 e7 ff ff 	mov    %rax,-0x1810(%rbp)
    c277:	48 8d 05 b6 1d 01 00 	lea    0x11db6(%rip),%rax        # 1e034 <g_3+0x4>
    c27e:	48 89 85 f8 e7 ff ff 	mov    %rax,-0x1808(%rbp)
    c285:	48 c7 85 00 e8 ff ff 	movq   $0x0,-0x1800(%rbp)
    c28c:	00 00 00 00 
    c290:	48 8d 85 44 e0 ff ff 	lea    -0x1fbc(%rbp),%rax
    c297:	48 89 85 08 e8 ff ff 	mov    %rax,-0x17f8(%rbp)
    c29e:	48 c7 85 10 e8 ff ff 	movq   $0x0,-0x17f0(%rbp)
    c2a5:	00 00 00 00 
    c2a9:	48 8d 85 58 e0 ff ff 	lea    -0x1fa8(%rbp),%rax
    c2b0:	48 89 85 18 e8 ff ff 	mov    %rax,-0x17e8(%rbp)
    c2b7:	48 8d 05 72 1d 01 00 	lea    0x11d72(%rip),%rax        # 1e030 <g_3>
    c2be:	48 89 85 20 e8 ff ff 	mov    %rax,-0x17e0(%rbp)
    c2c5:	48 c7 85 28 e8 ff ff 	movq   $0x0,-0x17d8(%rbp)
    c2cc:	00 00 00 00 
    c2d0:	48 8d 85 40 e0 ff ff 	lea    -0x1fc0(%rbp),%rax
    c2d7:	48 89 85 30 e8 ff ff 	mov    %rax,-0x17d0(%rbp)
    c2de:	48 8d 85 50 e2 ff ff 	lea    -0x1db0(%rbp),%rax
    c2e5:	48 83 c0 08          	add    $0x8,%rax
    c2e9:	48 89 85 38 e8 ff ff 	mov    %rax,-0x17c8(%rbp)
    c2f0:	48 c7 85 40 e8 ff ff 	movq   $0x0,-0x17c0(%rbp)
    c2f7:	00 00 00 00 
    c2fb:	48 8d 85 58 e0 ff ff 	lea    -0x1fa8(%rbp),%rax
    c302:	48 89 85 48 e8 ff ff 	mov    %rax,-0x17b8(%rbp)
    c309:	48 8d 05 24 1d 01 00 	lea    0x11d24(%rip),%rax        # 1e034 <g_3+0x4>
    c310:	48 89 85 50 e8 ff ff 	mov    %rax,-0x17b0(%rbp)
    c317:	48 8d 85 48 e0 ff ff 	lea    -0x1fb8(%rbp),%rax
    c31e:	48 89 85 58 e8 ff ff 	mov    %rax,-0x17a8(%rbp)
    c325:	48 8d 85 58 e0 ff ff 	lea    -0x1fa8(%rbp),%rax
    c32c:	48 89 85 60 e8 ff ff 	mov    %rax,-0x17a0(%rbp)
    c333:	48 8d 85 58 e0 ff ff 	lea    -0x1fa8(%rbp),%rax
    c33a:	48 89 85 68 e8 ff ff 	mov    %rax,-0x1798(%rbp)
    c341:	48 c7 85 70 e8 ff ff 	movq   $0x0,-0x1790(%rbp)
    c348:	00 00 00 00 
    c34c:	48 8d 85 50 e2 ff ff 	lea    -0x1db0(%rbp),%rax
    c353:	48 83 c0 08          	add    $0x8,%rax
    c357:	48 89 85 78 e8 ff ff 	mov    %rax,-0x1788(%rbp)
    c35e:	48 8d 05 cb 1c 01 00 	lea    0x11ccb(%rip),%rax        # 1e030 <g_3>
    c365:	48 89 85 80 e8 ff ff 	mov    %rax,-0x1780(%rbp)
    c36c:	48 8d 85 44 e0 ff ff 	lea    -0x1fbc(%rbp),%rax
    c373:	48 89 85 88 e8 ff ff 	mov    %rax,-0x1778(%rbp)
    c37a:	48 8d 85 44 e0 ff ff 	lea    -0x1fbc(%rbp),%rax
    c381:	48 89 85 90 e8 ff ff 	mov    %rax,-0x1770(%rbp)
    c388:	48 8d 05 a1 1c 01 00 	lea    0x11ca1(%rip),%rax        # 1e030 <g_3>
    c38f:	48 89 85 98 e8 ff ff 	mov    %rax,-0x1768(%rbp)
    c396:	48 8d 85 50 e2 ff ff 	lea    -0x1db0(%rbp),%rax
    c39d:	48 83 c0 08          	add    $0x8,%rax
    c3a1:	48 89 85 a0 e8 ff ff 	mov    %rax,-0x1760(%rbp)
    c3a8:	48 c7 85 a8 e8 ff ff 	movq   $0x0,-0x1758(%rbp)
    c3af:	00 00 00 00 
    c3b3:	48 8d 85 44 e0 ff ff 	lea    -0x1fbc(%rbp),%rax
    c3ba:	48 89 85 b0 e8 ff ff 	mov    %rax,-0x1750(%rbp)
    c3c1:	48 c7 85 b8 e8 ff ff 	movq   $0x0,-0x1748(%rbp)
    c3c8:	00 00 00 00 
    c3cc:	48 c7 85 c0 e8 ff ff 	movq   $0x0,-0x1740(%rbp)
    c3d3:	00 00 00 00 
    c3d7:	48 8d 85 58 e0 ff ff 	lea    -0x1fa8(%rbp),%rax
    c3de:	48 89 85 c8 e8 ff ff 	mov    %rax,-0x1738(%rbp)
    c3e5:	48 8d 85 48 e0 ff ff 	lea    -0x1fb8(%rbp),%rax
    c3ec:	48 89 85 d0 e8 ff ff 	mov    %rax,-0x1730(%rbp)
    c3f3:	48 8d 05 36 1c 01 00 	lea    0x11c36(%rip),%rax        # 1e030 <g_3>
    c3fa:	48 89 85 d8 e8 ff ff 	mov    %rax,-0x1728(%rbp)
    c401:	48 c7 85 e0 e8 ff ff 	movq   $0x0,-0x1720(%rbp)
    c408:	00 00 00 00 
    c40c:	48 8d 85 48 e0 ff ff 	lea    -0x1fb8(%rbp),%rax
    c413:	48 89 85 e8 e8 ff ff 	mov    %rax,-0x1718(%rbp)
    c41a:	48 c7 85 f0 e8 ff ff 	movq   $0x0,-0x1710(%rbp)
    c421:	00 00 00 00 
    c425:	48 8d 85 6c e0 ff ff 	lea    -0x1f94(%rbp),%rax
    c42c:	48 89 85 f8 e8 ff ff 	mov    %rax,-0x1708(%rbp)
    c433:	48 8d 85 50 e0 ff ff 	lea    -0x1fb0(%rbp),%rax
    c43a:	48 89 85 00 e9 ff ff 	mov    %rax,-0x1700(%rbp)
    c441:	48 8d 85 44 e0 ff ff 	lea    -0x1fbc(%rbp),%rax
    c448:	48 89 85 08 e9 ff ff 	mov    %rax,-0x16f8(%rbp)
    c44f:	48 8d 05 22 3c 01 00 	lea    0x13c22(%rip),%rax        # 20078 <g_897>
    c456:	48 89 85 10 e9 ff ff 	mov    %rax,-0x16f0(%rbp)
    c45d:	48 8d 85 48 e0 ff ff 	lea    -0x1fb8(%rbp),%rax
    c464:	48 89 85 18 e9 ff ff 	mov    %rax,-0x16e8(%rbp)
    c46b:	48 8d 85 48 e0 ff ff 	lea    -0x1fb8(%rbp),%rax
    c472:	48 89 85 20 e9 ff ff 	mov    %rax,-0x16e0(%rbp)
    c479:	48 c7 85 28 e9 ff ff 	movq   $0x0,-0x16d8(%rbp)
    c480:	00 00 00 00 
    c484:	48 c7 85 30 e9 ff ff 	movq   $0x0,-0x16d0(%rbp)
    c48b:	00 00 00 00 
    c48f:	48 8d 85 6c e0 ff ff 	lea    -0x1f94(%rbp),%rax
    c496:	48 89 85 38 e9 ff ff 	mov    %rax,-0x16c8(%rbp)
    c49d:	48 c7 85 40 e9 ff ff 	movq   $0x0,-0x16c0(%rbp)
    c4a4:	00 00 00 00 
    c4a8:	48 c7 85 48 e9 ff ff 	movq   $0x0,-0x16b8(%rbp)
    c4af:	00 00 00 00 
    c4b3:	48 8d 85 48 e0 ff ff 	lea    -0x1fb8(%rbp),%rax
    c4ba:	48 89 85 50 e9 ff ff 	mov    %rax,-0x16b0(%rbp)
    c4c1:	48 8d 85 48 e0 ff ff 	lea    -0x1fb8(%rbp),%rax
    c4c8:	48 89 85 58 e9 ff ff 	mov    %rax,-0x16a8(%rbp)
    c4cf:	48 8d 85 44 e0 ff ff 	lea    -0x1fbc(%rbp),%rax
    c4d6:	48 89 85 60 e9 ff ff 	mov    %rax,-0x16a0(%rbp)
    c4dd:	48 8d 85 58 e0 ff ff 	lea    -0x1fa8(%rbp),%rax
    c4e4:	48 89 85 68 e9 ff ff 	mov    %rax,-0x1698(%rbp)
    c4eb:	48 8d 05 3e 1b 01 00 	lea    0x11b3e(%rip),%rax        # 1e030 <g_3>
    c4f2:	48 89 85 70 e9 ff ff 	mov    %rax,-0x1690(%rbp)
    c4f9:	48 c7 85 78 e9 ff ff 	movq   $0x0,-0x1688(%rbp)
    c500:	00 00 00 00 
    c504:	48 c7 85 80 e9 ff ff 	movq   $0x0,-0x1680(%rbp)
    c50b:	00 00 00 00 
    c50f:	48 8d 85 44 e0 ff ff 	lea    -0x1fbc(%rbp),%rax
    c516:	48 89 85 88 e9 ff ff 	mov    %rax,-0x1678(%rbp)
    c51d:	48 8d 85 58 e0 ff ff 	lea    -0x1fa8(%rbp),%rax
    c524:	48 89 85 90 e9 ff ff 	mov    %rax,-0x1670(%rbp)
    c52b:	48 8d 85 48 e0 ff ff 	lea    -0x1fb8(%rbp),%rax
    c532:	48 89 85 98 e9 ff ff 	mov    %rax,-0x1668(%rbp)
    c539:	48 c7 85 a0 e9 ff ff 	movq   $0x0,-0x1660(%rbp)
    c540:	00 00 00 00 
    c544:	48 8d 05 2d 3b 01 00 	lea    0x13b2d(%rip),%rax        # 20078 <g_897>
    c54b:	48 89 85 a8 e9 ff ff 	mov    %rax,-0x1658(%rbp)
    c552:	48 8d 85 48 e0 ff ff 	lea    -0x1fb8(%rbp),%rax
    c559:	48 89 85 b0 e9 ff ff 	mov    %rax,-0x1650(%rbp)
    c560:	48 8d 05 cd 1a 01 00 	lea    0x11acd(%rip),%rax        # 1e034 <g_3+0x4>
    c567:	48 89 85 b8 e9 ff ff 	mov    %rax,-0x1648(%rbp)
    c56e:	48 8d 85 40 e0 ff ff 	lea    -0x1fc0(%rbp),%rax
    c575:	48 89 85 c0 e9 ff ff 	mov    %rax,-0x1640(%rbp)
    c57c:	48 8d 05 f5 3a 01 00 	lea    0x13af5(%rip),%rax        # 20078 <g_897>
    c583:	48 89 85 c8 e9 ff ff 	mov    %rax,-0x1638(%rbp)
    c58a:	48 8d 85 20 e3 ff ff 	lea    -0x1ce0(%rbp),%rax
    c591:	48 83 c0 1c          	add    $0x1c,%rax
    c595:	48 89 85 d0 e9 ff ff 	mov    %rax,-0x1630(%rbp)
    c59c:	48 8d 85 44 e0 ff ff 	lea    -0x1fbc(%rbp),%rax
    c5a3:	48 89 85 d8 e9 ff ff 	mov    %rax,-0x1628(%rbp)
    c5aa:	48 8d 85 44 e0 ff ff 	lea    -0x1fbc(%rbp),%rax
    c5b1:	48 89 85 e0 e9 ff ff 	mov    %rax,-0x1620(%rbp)
    c5b8:	48 8d 85 44 e0 ff ff 	lea    -0x1fbc(%rbp),%rax
    c5bf:	48 89 85 e8 e9 ff ff 	mov    %rax,-0x1618(%rbp)
    c5c6:	48 8d 85 44 e0 ff ff 	lea    -0x1fbc(%rbp),%rax
    c5cd:	48 89 85 f0 e9 ff ff 	mov    %rax,-0x1610(%rbp)
    c5d4:	48 8d 85 20 e3 ff ff 	lea    -0x1ce0(%rbp),%rax
    c5db:	48 83 c0 1c          	add    $0x1c,%rax
    c5df:	48 89 85 f8 e9 ff ff 	mov    %rax,-0x1608(%rbp)
    c5e6:	48 8d 85 44 e0 ff ff 	lea    -0x1fbc(%rbp),%rax
    c5ed:	48 89 85 00 ea ff ff 	mov    %rax,-0x1600(%rbp)
    c5f4:	48 c7 85 08 ea ff ff 	movq   $0x0,-0x15f8(%rbp)
    c5fb:	00 00 00 00 
    c5ff:	48 c7 85 10 ea ff ff 	movq   $0x0,-0x15f0(%rbp)
    c606:	00 00 00 00 
    c60a:	48 8d 85 44 e0 ff ff 	lea    -0x1fbc(%rbp),%rax
    c611:	48 89 85 18 ea ff ff 	mov    %rax,-0x15e8(%rbp)
    c618:	48 8d 05 11 1a 01 00 	lea    0x11a11(%rip),%rax        # 1e030 <g_3>
    c61f:	48 89 85 20 ea ff ff 	mov    %rax,-0x15e0(%rbp)
    c626:	48 8d 85 6c e0 ff ff 	lea    -0x1f94(%rbp),%rax
    c62d:	48 89 85 28 ea ff ff 	mov    %rax,-0x15d8(%rbp)
    c634:	48 c7 85 30 ea ff ff 	movq   $0x0,-0x15d0(%rbp)
    c63b:	00 00 00 00 
    c63f:	48 8d 85 50 e0 ff ff 	lea    -0x1fb0(%rbp),%rax
    c646:	48 89 85 38 ea ff ff 	mov    %rax,-0x15c8(%rbp)
    c64d:	48 c7 85 40 ea ff ff 	movq   $0x0,-0x15c0(%rbp)
    c654:	00 00 00 00 
    c658:	48 8d 85 50 e2 ff ff 	lea    -0x1db0(%rbp),%rax
    c65f:	48 83 c0 08          	add    $0x8,%rax
    c663:	48 89 85 48 ea ff ff 	mov    %rax,-0x15b8(%rbp)
    c66a:	48 8d 05 07 3a 01 00 	lea    0x13a07(%rip),%rax        # 20078 <g_897>
    c671:	48 89 85 50 ea ff ff 	mov    %rax,-0x15b0(%rbp)
    c678:	48 8d 85 40 e0 ff ff 	lea    -0x1fc0(%rbp),%rax
    c67f:	48 89 85 58 ea ff ff 	mov    %rax,-0x15a8(%rbp)
    c686:	48 8d 05 a7 19 01 00 	lea    0x119a7(%rip),%rax        # 1e034 <g_3+0x4>
    c68d:	48 89 85 60 ea ff ff 	mov    %rax,-0x15a0(%rbp)
    c694:	48 8d 85 48 e0 ff ff 	lea    -0x1fb8(%rbp),%rax
    c69b:	48 89 85 68 ea ff ff 	mov    %rax,-0x1598(%rbp)
    c6a2:	48 8d 85 6c e0 ff ff 	lea    -0x1f94(%rbp),%rax
    c6a9:	48 89 85 70 ea ff ff 	mov    %rax,-0x1590(%rbp)
    c6b0:	48 8d 85 48 e0 ff ff 	lea    -0x1fb8(%rbp),%rax
    c6b7:	48 89 85 78 ea ff ff 	mov    %rax,-0x1588(%rbp)
    c6be:	48 c7 85 80 ea ff ff 	movq   $0x0,-0x1580(%rbp)
    c6c5:	00 00 00 00 
    c6c9:	48 c7 85 88 ea ff ff 	movq   $0x0,-0x1578(%rbp)
    c6d0:	00 00 00 00 
    c6d4:	48 c7 85 90 ea ff ff 	movq   $0x0,-0x1570(%rbp)
    c6db:	00 00 00 00 
    c6df:	48 c7 85 98 ea ff ff 	movq   $0x0,-0x1568(%rbp)
    c6e6:	00 00 00 00 
    c6ea:	48 c7 85 a0 ea ff ff 	movq   $0x0,-0x1560(%rbp)
    c6f1:	00 00 00 00 
    c6f5:	48 8d 05 34 19 01 00 	lea    0x11934(%rip),%rax        # 1e030 <g_3>
    c6fc:	48 89 85 a8 ea ff ff 	mov    %rax,-0x1558(%rbp)
    c703:	48 8d 85 58 e0 ff ff 	lea    -0x1fa8(%rbp),%rax
    c70a:	48 89 85 b0 ea ff ff 	mov    %rax,-0x1550(%rbp)
    c711:	48 8d 85 44 e0 ff ff 	lea    -0x1fbc(%rbp),%rax
    c718:	48 89 85 b8 ea ff ff 	mov    %rax,-0x1548(%rbp)
    c71f:	48 8d 85 58 e0 ff ff 	lea    -0x1fa8(%rbp),%rax
    c726:	48 89 85 c0 ea ff ff 	mov    %rax,-0x1540(%rbp)
    c72d:	48 8d 05 fc 18 01 00 	lea    0x118fc(%rip),%rax        # 1e030 <g_3>
    c734:	48 89 85 c8 ea ff ff 	mov    %rax,-0x1538(%rbp)
    c73b:	48 c7 85 d0 ea ff ff 	movq   $0x0,-0x1530(%rbp)
    c742:	00 00 00 00 
    c746:	48 c7 85 d8 ea ff ff 	movq   $0x0,-0x1528(%rbp)
    c74d:	00 00 00 00 
    c751:	48 8d 85 44 e0 ff ff 	lea    -0x1fbc(%rbp),%rax
    c758:	48 89 85 e0 ea ff ff 	mov    %rax,-0x1520(%rbp)
    c75f:	48 8d 85 58 e0 ff ff 	lea    -0x1fa8(%rbp),%rax
    c766:	48 89 85 e8 ea ff ff 	mov    %rax,-0x1518(%rbp)
    c76d:	48 c7 85 f0 ea ff ff 	movq   $0x0,-0x1510(%rbp)
    c774:	00 00 00 00 
    c778:	48 8d 85 48 e0 ff ff 	lea    -0x1fb8(%rbp),%rax
    c77f:	48 89 85 f8 ea ff ff 	mov    %rax,-0x1508(%rbp)
    c786:	48 8d 85 48 e0 ff ff 	lea    -0x1fb8(%rbp),%rax
    c78d:	48 89 85 00 eb ff ff 	mov    %rax,-0x1500(%rbp)
    c794:	48 8d 05 dd 38 01 00 	lea    0x138dd(%rip),%rax        # 20078 <g_897>
    c79b:	48 89 85 08 eb ff ff 	mov    %rax,-0x14f8(%rbp)
    c7a2:	48 8d 85 44 e0 ff ff 	lea    -0x1fbc(%rbp),%rax
    c7a9:	48 89 85 10 eb ff ff 	mov    %rax,-0x14f0(%rbp)
    c7b0:	48 8d 85 58 e0 ff ff 	lea    -0x1fa8(%rbp),%rax
    c7b7:	48 89 85 18 eb ff ff 	mov    %rax,-0x14e8(%rbp)
    c7be:	48 8d 85 50 e0 ff ff 	lea    -0x1fb0(%rbp),%rax
    c7c5:	48 89 85 20 eb ff ff 	mov    %rax,-0x14e0(%rbp)
    c7cc:	48 8d 85 44 e0 ff ff 	lea    -0x1fbc(%rbp),%rax
    c7d3:	48 89 85 28 eb ff ff 	mov    %rax,-0x14d8(%rbp)
    c7da:	48 c7 85 30 eb ff ff 	movq   $0x0,-0x14d0(%rbp)
    c7e1:	00 00 00 00 
    c7e5:	48 c7 85 38 eb ff ff 	movq   $0x0,-0x14c8(%rbp)
    c7ec:	00 00 00 00 
    c7f0:	66 c7 85 3e e0 ff ff 	movw   $0xffff,-0x1fc2(%rbp)
    c7f7:	ff ff 
    c7f9:	48 c7 85 38 e1 ff ff 	movq   $0x0,-0x1ec8(%rbp)
    c800:	00 00 00 00 
    c804:	0f b7 85 46 e1 ff ff 	movzwl -0x1eba(%rbp),%eax
    c80b:	83 c0 01             	add    $0x1,%eax
    c80e:	66 89 85 46 e1 ff ff 	mov    %ax,-0x1eba(%rbp)
    c815:	48 8b 05 7c 7c 01 00 	mov    0x17c7c(%rip),%rax        # 24498 <g_1912>
    c81c:	48 8b 95 d8 e0 ff ff 	mov    -0x1f28(%rbp),%rdx
    c823:	48 89 10             	mov    %rdx,(%rax)
    c826:	48 8b 05 6b 75 01 00 	mov    0x1756b(%rip),%rax        # 23d98 <g_195>
    c82d:	0f b7 00             	movzwl (%rax),%eax
    c830:	e9 c8 04 00 00       	jmpq   ccfd <func_1+0x2548>
    c835:	48 c7 85 10 e1 ff ff 	movq   $0x0,-0x1ef0(%rbp)
    c83c:	00 00 00 00 
    c840:	48 8d 85 48 e0 ff ff 	lea    -0x1fb8(%rbp),%rax
    c847:	48 89 85 18 e1 ff ff 	mov    %rax,-0x1ee8(%rbp)
    c84e:	48 c7 85 20 e1 ff ff 	movq   $0x0,-0x1ee0(%rbp)
    c855:	00 00 00 00 
    c859:	48 8d 85 20 e3 ff ff 	lea    -0x1ce0(%rbp),%rax
    c860:	48 05 b4 00 00 00    	add    $0xb4,%rax
    c866:	48 89 85 80 e7 ff ff 	mov    %rax,-0x1880(%rbp)
    c86d:	48 8d 85 60 e0 ff ff 	lea    -0x1fa0(%rbp),%rax
    c874:	48 89 85 88 e7 ff ff 	mov    %rax,-0x1878(%rbp)
    c87b:	48 8d 85 64 e0 ff ff 	lea    -0x1f9c(%rbp),%rax
    c882:	48 89 85 90 e7 ff ff 	mov    %rax,-0x1870(%rbp)
    c889:	48 8d 85 20 e3 ff ff 	lea    -0x1ce0(%rbp),%rax
    c890:	48 05 b4 00 00 00    	add    $0xb4,%rax
    c896:	48 89 85 98 e7 ff ff 	mov    %rax,-0x1868(%rbp)
    c89d:	48 8d 85 4c e0 ff ff 	lea    -0x1fb4(%rbp),%rax
    c8a4:	48 89 85 a0 e7 ff ff 	mov    %rax,-0x1860(%rbp)
    c8ab:	48 8d 85 68 e0 ff ff 	lea    -0x1f98(%rbp),%rax
    c8b2:	48 89 85 a8 e7 ff ff 	mov    %rax,-0x1858(%rbp)
    c8b9:	48 8d 85 20 e3 ff ff 	lea    -0x1ce0(%rbp),%rax
    c8c0:	48 05 b4 00 00 00    	add    $0xb4,%rax
    c8c6:	48 89 85 b0 e7 ff ff 	mov    %rax,-0x1850(%rbp)
    c8cd:	48 8d 85 20 e3 ff ff 	lea    -0x1ce0(%rbp),%rax
    c8d4:	48 83 c0 04          	add    $0x4,%rax
    c8d8:	48 89 85 b8 e7 ff ff 	mov    %rax,-0x1848(%rbp)
    c8df:	48 8d 85 20 e3 ff ff 	lea    -0x1ce0(%rbp),%rax
    c8e6:	48 05 b4 00 00 00    	add    $0xb4,%rax
    c8ec:	48 89 85 c0 e7 ff ff 	mov    %rax,-0x1840(%rbp)
    c8f3:	48 8d 85 20 e3 ff ff 	lea    -0x1ce0(%rbp),%rax
    c8fa:	48 05 b4 00 00 00    	add    $0xb4,%rax
    c900:	48 89 85 c8 e7 ff ff 	mov    %rax,-0x1838(%rbp)
    c907:	48 8d 85 60 e0 ff ff 	lea    -0x1fa0(%rbp),%rax
    c90e:	48 89 85 d0 e7 ff ff 	mov    %rax,-0x1830(%rbp)
    c915:	48 8d 85 64 e0 ff ff 	lea    -0x1f9c(%rbp),%rax
    c91c:	48 89 85 d8 e7 ff ff 	mov    %rax,-0x1828(%rbp)
    c923:	48 8d 85 20 e3 ff ff 	lea    -0x1ce0(%rbp),%rax
    c92a:	48 05 b4 00 00 00    	add    $0xb4,%rax
    c930:	48 89 85 e0 e7 ff ff 	mov    %rax,-0x1820(%rbp)
    c937:	48 8d 85 4c e0 ff ff 	lea    -0x1fb4(%rbp),%rax
    c93e:	48 89 85 e8 e7 ff ff 	mov    %rax,-0x1818(%rbp)
    c945:	48 8d 85 68 e0 ff ff 	lea    -0x1f98(%rbp),%rax
    c94c:	48 89 85 f0 e7 ff ff 	mov    %rax,-0x1810(%rbp)
    c953:	48 8d 85 20 e3 ff ff 	lea    -0x1ce0(%rbp),%rax
    c95a:	48 05 b4 00 00 00    	add    $0xb4,%rax
    c960:	48 89 85 f8 e7 ff ff 	mov    %rax,-0x1808(%rbp)
    c967:	48 8d 85 20 e3 ff ff 	lea    -0x1ce0(%rbp),%rax
    c96e:	48 83 c0 04          	add    $0x4,%rax
    c972:	48 89 85 00 e8 ff ff 	mov    %rax,-0x1800(%rbp)
    c979:	48 8d 85 20 e3 ff ff 	lea    -0x1ce0(%rbp),%rax
    c980:	48 05 b4 00 00 00    	add    $0xb4,%rax
    c986:	48 89 85 08 e8 ff ff 	mov    %rax,-0x17f8(%rbp)
    c98d:	48 8d 85 20 e3 ff ff 	lea    -0x1ce0(%rbp),%rax
    c994:	48 05 b4 00 00 00    	add    $0xb4,%rax
    c99a:	48 89 85 10 e8 ff ff 	mov    %rax,-0x17f0(%rbp)
    c9a1:	48 8d 85 60 e0 ff ff 	lea    -0x1fa0(%rbp),%rax
    c9a8:	48 89 85 18 e8 ff ff 	mov    %rax,-0x17e8(%rbp)
    c9af:	48 8d 85 64 e0 ff ff 	lea    -0x1f9c(%rbp),%rax
    c9b6:	48 89 85 20 e8 ff ff 	mov    %rax,-0x17e0(%rbp)
    c9bd:	48 8d 85 20 e3 ff ff 	lea    -0x1ce0(%rbp),%rax
    c9c4:	48 05 b4 00 00 00    	add    $0xb4,%rax
    c9ca:	48 89 85 28 e8 ff ff 	mov    %rax,-0x17d8(%rbp)
    c9d1:	48 8d 85 4c e0 ff ff 	lea    -0x1fb4(%rbp),%rax
    c9d8:	48 89 85 30 e8 ff ff 	mov    %rax,-0x17d0(%rbp)
    c9df:	48 8d 85 68 e0 ff ff 	lea    -0x1f98(%rbp),%rax
    c9e6:	48 89 85 38 e8 ff ff 	mov    %rax,-0x17c8(%rbp)
    c9ed:	48 8d 85 20 e3 ff ff 	lea    -0x1ce0(%rbp),%rax
    c9f4:	48 05 b4 00 00 00    	add    $0xb4,%rax
    c9fa:	48 89 85 40 e8 ff ff 	mov    %rax,-0x17c0(%rbp)
    ca01:	48 8d 85 20 e3 ff ff 	lea    -0x1ce0(%rbp),%rax
    ca08:	48 83 c0 04          	add    $0x4,%rax
    ca0c:	48 89 85 48 e8 ff ff 	mov    %rax,-0x17b8(%rbp)
    ca13:	48 8d 85 20 e3 ff ff 	lea    -0x1ce0(%rbp),%rax
    ca1a:	48 05 b4 00 00 00    	add    $0xb4,%rax
    ca20:	48 89 85 50 e8 ff ff 	mov    %rax,-0x17b0(%rbp)
    ca27:	48 8d 85 20 e3 ff ff 	lea    -0x1ce0(%rbp),%rax
    ca2e:	48 05 b4 00 00 00    	add    $0xb4,%rax
    ca34:	48 89 85 58 e8 ff ff 	mov    %rax,-0x17a8(%rbp)
    ca3b:	48 8d 85 60 e0 ff ff 	lea    -0x1fa0(%rbp),%rax
    ca42:	48 89 85 60 e8 ff ff 	mov    %rax,-0x17a0(%rbp)
    ca49:	48 8d 85 64 e0 ff ff 	lea    -0x1f9c(%rbp),%rax
    ca50:	48 89 85 68 e8 ff ff 	mov    %rax,-0x1798(%rbp)
    ca57:	48 8d 85 20 e3 ff ff 	lea    -0x1ce0(%rbp),%rax
    ca5e:	48 05 b4 00 00 00    	add    $0xb4,%rax
    ca64:	48 89 85 70 e8 ff ff 	mov    %rax,-0x1790(%rbp)
    ca6b:	48 8d 85 4c e0 ff ff 	lea    -0x1fb4(%rbp),%rax
    ca72:	48 89 85 78 e8 ff ff 	mov    %rax,-0x1788(%rbp)
    ca79:	48 8d 85 68 e0 ff ff 	lea    -0x1f98(%rbp),%rax
    ca80:	48 89 85 80 e8 ff ff 	mov    %rax,-0x1780(%rbp)
    ca87:	48 8d 85 20 e3 ff ff 	lea    -0x1ce0(%rbp),%rax
    ca8e:	48 05 b4 00 00 00    	add    $0xb4,%rax
    ca94:	48 89 85 88 e8 ff ff 	mov    %rax,-0x1778(%rbp)
    ca9b:	48 8d 85 20 e3 ff ff 	lea    -0x1ce0(%rbp),%rax
    caa2:	48 83 c0 04          	add    $0x4,%rax
    caa6:	48 89 85 90 e8 ff ff 	mov    %rax,-0x1770(%rbp)
    caad:	48 8d 85 20 e3 ff ff 	lea    -0x1ce0(%rbp),%rax
    cab4:	48 05 b4 00 00 00    	add    $0xb4,%rax
    caba:	48 89 85 98 e8 ff ff 	mov    %rax,-0x1768(%rbp)
    cac1:	48 83 85 00 e1 ff ff 	addq   $0x1,-0x1f00(%rbp)
    cac8:	01 
    cac9:	48 8b 85 08 e1 ff ff 	mov    -0x1ef8(%rbp),%rax
    cad0:	48 c7 00 00 00 00 00 	movq   $0x0,(%rax)
    cad7:	48 8b 05 ba 72 01 00 	mov    0x172ba(%rip),%rax        # 23d98 <g_195>
    cade:	0f b7 00             	movzwl (%rax),%eax
    cae1:	e9 17 02 00 00       	jmpq   ccfd <func_1+0x2548>
    cae6:	8b 85 a0 e0 ff ff    	mov    -0x1f60(%rbp),%eax
    caec:	48 63 d8             	movslq %eax,%rbx
    caef:	0f b7 85 44 e1 ff ff 	movzwl -0x1ebc(%rbp),%eax
    caf6:	0f b6 d0             	movzbl %al,%edx
    caf9:	8b 05 79 35 01 00    	mov    0x13579(%rip),%eax        # 20078 <g_897>
    caff:	0f b6 c0             	movzbl %al,%eax
    cb02:	89 d6                	mov    %edx,%esi
    cb04:	89 c7                	mov    %eax,%edi
    cb06:	e8 a3 d0 ff ff       	callq  9bae <safe_mod_func_uint8_t_u_u>
    cb0b:	8b 85 b0 e0 ff ff    	mov    -0x1f50(%rbp),%eax
    cb11:	89 c6                	mov    %eax,%esi
    cb13:	bf 00 00 00 00       	mov    $0x0,%edi
    cb18:	e8 c4 c9 ff ff       	callq  94e1 <safe_lshift_func_int16_t_s_u>
    cb1d:	8b 85 54 e3 ff ff    	mov    -0x1cac(%rbp),%eax
    cb23:	89 85 94 e0 ff ff    	mov    %eax,-0x1f6c(%rbp)
    cb29:	8b 85 94 e0 ff ff    	mov    -0x1f6c(%rbp),%eax
    cb2f:	48 98                	cltq   
    cb31:	48 be f1 5d c0 29 1a 	movabs $0x721acb1a29c05df1,%rsi
    cb38:	cb 1a 72 
    cb3b:	48 89 c7             	mov    %rax,%rdi
    cb3e:	e8 b4 ce ff ff       	callq  99f7 <safe_div_func_int64_t_s_s>
    cb43:	48 89 c2             	mov    %rax,%rdx
    cb46:	48 8b 05 83 72 01 00 	mov    0x17283(%rip),%rax        # 23dd0 <g_846>
    cb4d:	48 8b 08             	mov    (%rax),%rcx
    cb50:	48 8b 05 79 72 01 00 	mov    0x17279(%rip),%rax        # 23dd0 <g_846>
    cb57:	48 be e8 b2 a9 86 17 	movabs $0x3809d31786a9b2e8,%rsi
    cb5e:	d3 09 38 
    cb61:	48 09 f1             	or     %rsi,%rcx
    cb64:	48 89 08             	mov    %rcx,(%rax)
    cb67:	48 8b 00             	mov    (%rax),%rax
    cb6a:	48 89 d6             	mov    %rdx,%rsi
    cb6d:	48 89 c7             	mov    %rax,%rdi
    cb70:	e8 cc cc ff ff       	callq  9841 <safe_add_func_int64_t_s_s>
    cb75:	48 39 c3             	cmp    %rax,%rbx
    cb78:	0f 9e c0             	setle  %al
    cb7b:	0f b6 c0             	movzbl %al,%eax
    cb7e:	89 c7                	mov    %eax,%edi
    cb80:	e8 c0 cf ff ff       	callq  9b45 <safe_unary_minus_func_uint8_t_u>
    cb85:	48 8b 05 2c 78 01 00 	mov    0x1782c(%rip),%rax        # 243b8 <g_1336>
    cb8c:	48 8b 00             	mov    (%rax),%rax
    cb8f:	8b 00                	mov    (%rax),%eax
    cb91:	83 bd ac e0 ff ff 00 	cmpl   $0x0,-0x1f54(%rbp)
    cb98:	44 8b 8d 44 e0 ff ff 	mov    -0x1fbc(%rbp),%r9d
    cb9f:	48 8b 05 b2 77 01 00 	mov    0x177b2(%rip),%rax        # 24358 <g_910>
    cba6:	48 8b 00             	mov    (%rax),%rax
    cba9:	8b 15 81 14 01 00    	mov    0x11481(%rip),%edx        # 1e030 <g_3>
    cbaf:	44 8d 42 05          	lea    0x5(%rdx),%r8d
    cbb3:	8b 0d 0f 7d 01 00    	mov    0x17d0f(%rip),%ecx        # 248c8 <g_6>
    cbb9:	8b 35 09 7d 01 00    	mov    0x17d09(%rip),%esi        # 248c8 <g_6>
    cbbf:	44 0f b7 10          	movzwl (%rax),%r10d
    cbc3:	4c 63 de             	movslq %esi,%r11
    cbc6:	49 63 d0             	movslq %r8d,%rdx
    cbc9:	48 63 f9             	movslq %ecx,%rdi
    cbcc:	48 89 d0             	mov    %rdx,%rax
    cbcf:	48 01 c0             	add    %rax,%rax
    cbd2:	48 01 d0             	add    %rdx,%rax
    cbd5:	48 c1 e0 02          	shl    $0x2,%rax
    cbd9:	48 89 fa             	mov    %rdi,%rdx
    cbdc:	48 01 d2             	add    %rdx,%rdx
    cbdf:	48 01 fa             	add    %rdi,%rdx
    cbe2:	48 01 d0             	add    %rdx,%rax
    cbe5:	4c 01 d8             	add    %r11,%rax
    cbe8:	66 44 89 94 45 90 e1 	mov    %r10w,-0x1e70(%rbp,%rax,2)
    cbef:	ff ff 
    cbf1:	48 63 f6             	movslq %esi,%rsi
    cbf4:	49 63 d0             	movslq %r8d,%rdx
    cbf7:	48 63 c9             	movslq %ecx,%rcx
    cbfa:	48 89 d0             	mov    %rdx,%rax
    cbfd:	48 01 c0             	add    %rax,%rax
    cc00:	48 01 d0             	add    %rdx,%rax
    cc03:	48 c1 e0 02          	shl    $0x2,%rax
    cc07:	48 89 ca             	mov    %rcx,%rdx
    cc0a:	48 01 d2             	add    %rdx,%rdx
    cc0d:	48 01 ca             	add    %rcx,%rdx
    cc10:	48 01 d0             	add    %rdx,%rax
    cc13:	48 01 f0             	add    %rsi,%rax
    cc16:	0f b7 84 45 90 e1 ff 	movzwl -0x1e70(%rbp,%rax,2),%eax
    cc1d:	ff 
    cc1e:	f7 d0                	not    %eax
    cc20:	0f be c0             	movsbl %al,%eax
    cc23:	44 89 ce             	mov    %r9d,%esi
    cc26:	89 c7                	mov    %eax,%edi
    cc28:	e8 74 c6 ff ff       	callq  92a1 <safe_lshift_func_int8_t_s_s>
    cc2d:	0f b7 85 48 e2 ff ff 	movzwl -0x1db8(%rbp),%eax
    cc34:	66 3d ee 7a          	cmp    $0x7aee,%ax
    cc38:	0f 97 c0             	seta   %al
    cc3b:	0f b6 d0             	movzbl %al,%edx
    cc3e:	8b 85 44 e0 ff ff    	mov    -0x1fbc(%rbp),%eax
    cc44:	39 c2                	cmp    %eax,%edx
    cc46:	74 0f                	je     cc57 <func_1+0x24a2>
    cc48:	48 8b 05 49 71 01 00 	mov    0x17149(%rip),%rax        # 23d98 <g_195>
    cc4f:	0f b7 00             	movzwl (%rax),%eax
    cc52:	e9 a6 00 00 00       	jmpq   ccfd <func_1+0x2548>
    cc57:	48 8b 05 32 71 01 00 	mov    0x17132(%rip),%rax        # 23d90 <g_165>
    cc5e:	48 8d 95 54 e0 ff ff 	lea    -0x1fac(%rbp),%rdx
    cc65:	48 89 10             	mov    %rdx,(%rax)
    cc68:	c7 05 f6 13 01 00 f1 	movl   $0xfffffff1,0x113f6(%rip)        # 1e068 <g_37>
    cc6f:	ff ff ff 
    cc72:	eb 47                	jmp    ccbb <func_1+0x2506>
    cc74:	8b 85 60 e2 ff ff    	mov    -0x1da0(%rbp),%eax
    cc7a:	85 c0                	test   %eax,%eax
    cc7c:	75 4a                	jne    ccc8 <func_1+0x2513>
    cc7e:	48 8b 05 43 77 01 00 	mov    0x17743(%rip),%rax        # 243c8 <g_1334>
    cc85:	48 8b 00             	mov    (%rax),%rax
    cc88:	48 8b 00             	mov    (%rax),%rax
    cc8b:	48 c7 00 00 00 00 00 	movq   $0x0,(%rax)
    cc92:	48 8b 05 1f 71 01 00 	mov    0x1711f(%rip),%rax        # 23db8 <g_564>
    cc99:	48 8d 95 5c e0 ff ff 	lea    -0x1fa4(%rbp),%rdx
    cca0:	48 89 10             	mov    %rdx,(%rax)
    cca3:	8b 05 bf 13 01 00    	mov    0x113bf(%rip),%eax        # 1e068 <g_37>
    cca9:	be 03 00 00 00       	mov    $0x3,%esi
    ccae:	89 c7                	mov    %eax,%edi
    ccb0:	e8 03 d2 ff ff       	callq  9eb8 <safe_add_func_uint32_t_u_u>
    ccb5:	89 05 ad 13 01 00    	mov    %eax,0x113ad(%rip)        # 1e068 <g_37>
    ccbb:	8b 05 a7 13 01 00    	mov    0x113a7(%rip),%eax        # 1e068 <g_37>
    ccc1:	83 f8 06             	cmp    $0x6,%eax
    ccc4:	76 ae                	jbe    cc74 <func_1+0x24bf>
    ccc6:	eb 01                	jmp    ccc9 <func_1+0x2514>
    ccc8:	90                   	nop
    ccc9:	8b 85 dc e2 ff ff    	mov    -0x1d24(%rbp),%eax
    cccf:	eb 2c                	jmp    ccfd <func_1+0x2548>
    ccd1:	8b 85 50 e0 ff ff    	mov    -0x1fb0(%rbp),%eax
    ccd7:	eb 24                	jmp    ccfd <func_1+0x2548>
    ccd9:	8b 05 51 13 01 00    	mov    0x11351(%rip),%eax        # 1e030 <g_3>
    ccdf:	83 c0 01             	add    $0x1,%eax
    cce2:	89 05 48 13 01 00    	mov    %eax,0x11348(%rip)        # 1e030 <g_3>
    cce8:	8b 05 42 13 01 00    	mov    0x11342(%rip),%eax        # 1e030 <g_3>
    ccee:	83 f8 02             	cmp    $0x2,%eax
    ccf1:	0f 8e ae de ff ff    	jle    aba5 <func_1+0x3f0>
    ccf7:	8b 85 80 e0 ff ff    	mov    -0x1f80(%rbp),%eax
    ccfd:	48 8b 5d e8          	mov    -0x18(%rbp),%rbx
    cd01:	64 48 33 1c 25 28 00 	xor    %fs:0x28,%rbx
    cd08:	00 00 
    cd0a:	74 05                	je     cd11 <func_1+0x255c>
    cd0c:	e8 5f c3 ff ff       	callq  9070 <__stack_chk_fail@plt>
    cd11:	48 81 c4 c8 1f 00 00 	add    $0x1fc8,%rsp
    cd18:	5b                   	pop    %rbx
    cd19:	5d                   	pop    %rbp
    cd1a:	c3                   	retq   

000000000000cd1b <func_9>:
    cd1b:	f3 0f 1e fa          	endbr64 
    cd1f:	55                   	push   %rbp
    cd20:	48 89 e5             	mov    %rsp,%rbp
    cd23:	41 57                	push   %r15
    cd25:	41 56                	push   %r14
    cd27:	41 55                	push   %r13
    cd29:	41 54                	push   %r12
    cd2b:	53                   	push   %rbx
    cd2c:	48 81 ec 00 10 00 00 	sub    $0x1000,%rsp
    cd33:	48 83 0c 24 00       	orq    $0x0,(%rsp)
    cd38:	48 81 ec 08 06 00 00 	sub    $0x608,%rsp
    cd3f:	89 bd ec e9 ff ff    	mov    %edi,-0x1614(%rbp)
    cd45:	48 89 b5 e0 e9 ff ff 	mov    %rsi,-0x1620(%rbp)
    cd4c:	64 48 8b 04 25 28 00 	mov    %fs:0x28,%rax
    cd53:	00 00 
    cd55:	48 89 45 c8          	mov    %rax,-0x38(%rbp)
    cd59:	31 c0                	xor    %eax,%eax
    cd5b:	c7 85 14 ea ff ff 07 	movl   $0x7,-0x15ec(%rbp)
    cd62:	00 00 00 
    cd65:	48 8d 05 24 70 01 00 	lea    0x17024(%rip),%rax        # 23d90 <g_165>
    cd6c:	48 89 85 60 ed ff ff 	mov    %rax,-0x12a0(%rbp)
    cd73:	48 8d 05 16 70 01 00 	lea    0x17016(%rip),%rax        # 23d90 <g_165>
    cd7a:	48 89 85 68 ed ff ff 	mov    %rax,-0x1298(%rbp)
    cd81:	48 8d 05 08 70 01 00 	lea    0x17008(%rip),%rax        # 23d90 <g_165>
    cd88:	48 89 85 70 ed ff ff 	mov    %rax,-0x1290(%rbp)
    cd8f:	48 8d 05 fa 6f 01 00 	lea    0x16ffa(%rip),%rax        # 23d90 <g_165>
    cd96:	48 89 85 78 ed ff ff 	mov    %rax,-0x1288(%rbp)
    cd9d:	48 8d 05 ec 6f 01 00 	lea    0x16fec(%rip),%rax        # 23d90 <g_165>
    cda4:	48 89 85 80 ed ff ff 	mov    %rax,-0x1280(%rbp)
    cdab:	48 8d 05 de 6f 01 00 	lea    0x16fde(%rip),%rax        # 23d90 <g_165>
    cdb2:	48 89 85 88 ed ff ff 	mov    %rax,-0x1278(%rbp)
    cdb9:	48 8d 05 d0 6f 01 00 	lea    0x16fd0(%rip),%rax        # 23d90 <g_165>
    cdc0:	48 89 85 90 ed ff ff 	mov    %rax,-0x1270(%rbp)
    cdc7:	48 8d 05 c2 6f 01 00 	lea    0x16fc2(%rip),%rax        # 23d90 <g_165>
    cdce:	48 89 85 98 ed ff ff 	mov    %rax,-0x1268(%rbp)
    cdd5:	48 8d 05 b4 6f 01 00 	lea    0x16fb4(%rip),%rax        # 23d90 <g_165>
    cddc:	48 89 85 a0 ed ff ff 	mov    %rax,-0x1260(%rbp)
    cde3:	48 8d 05 a6 6f 01 00 	lea    0x16fa6(%rip),%rax        # 23d90 <g_165>
    cdea:	48 89 85 a8 ed ff ff 	mov    %rax,-0x1258(%rbp)
    cdf1:	48 8d 85 60 ed ff ff 	lea    -0x12a0(%rbp),%rax
    cdf8:	48 83 c0 08          	add    $0x8,%rax
    cdfc:	48 89 85 a8 ea ff ff 	mov    %rax,-0x1558(%rbp)
    ce03:	48 8d 85 a8 ea ff ff 	lea    -0x1558(%rbp),%rax
    ce0a:	48 89 85 88 eb ff ff 	mov    %rax,-0x1478(%rbp)
    ce11:	48 8d 85 60 ed ff ff 	lea    -0x12a0(%rbp),%rax
    ce18:	48 83 c0 18          	add    $0x18,%rax
    ce1c:	48 89 85 b0 ea ff ff 	mov    %rax,-0x1550(%rbp)
    ce23:	48 8d 85 b0 ea ff ff 	lea    -0x1550(%rbp),%rax
    ce2a:	48 89 85 60 ee ff ff 	mov    %rax,-0x11a0(%rbp)
    ce31:	48 8d 85 b0 ea ff ff 	lea    -0x1550(%rbp),%rax
    ce38:	48 89 85 68 ee ff ff 	mov    %rax,-0x1198(%rbp)
    ce3f:	48 8d 85 b0 ea ff ff 	lea    -0x1550(%rbp),%rax
    ce46:	48 89 85 70 ee ff ff 	mov    %rax,-0x1190(%rbp)
    ce4d:	48 8d 85 b0 ea ff ff 	lea    -0x1550(%rbp),%rax
    ce54:	48 89 85 78 ee ff ff 	mov    %rax,-0x1188(%rbp)
    ce5b:	48 8d 85 b0 ea ff ff 	lea    -0x1550(%rbp),%rax
    ce62:	48 89 85 80 ee ff ff 	mov    %rax,-0x1180(%rbp)
    ce69:	48 8d 85 b0 ea ff ff 	lea    -0x1550(%rbp),%rax
    ce70:	48 89 85 88 ee ff ff 	mov    %rax,-0x1178(%rbp)
    ce77:	48 8d 85 b0 ea ff ff 	lea    -0x1550(%rbp),%rax
    ce7e:	48 89 85 90 ee ff ff 	mov    %rax,-0x1170(%rbp)
    ce85:	48 8d 85 b0 ea ff ff 	lea    -0x1550(%rbp),%rax
    ce8c:	48 89 85 98 ee ff ff 	mov    %rax,-0x1168(%rbp)
    ce93:	48 8d 85 b0 ea ff ff 	lea    -0x1550(%rbp),%rax
    ce9a:	48 89 85 a0 ee ff ff 	mov    %rax,-0x1160(%rbp)
    cea1:	48 8d 85 b0 ea ff ff 	lea    -0x1550(%rbp),%rax
    cea8:	48 89 85 a8 ee ff ff 	mov    %rax,-0x1158(%rbp)
    ceaf:	48 8d 85 b0 ea ff ff 	lea    -0x1550(%rbp),%rax
    ceb6:	48 89 85 b0 ee ff ff 	mov    %rax,-0x1150(%rbp)
    cebd:	48 8d 85 b0 ea ff ff 	lea    -0x1550(%rbp),%rax
    cec4:	48 89 85 b8 ee ff ff 	mov    %rax,-0x1148(%rbp)
    cecb:	48 8d 85 b0 ea ff ff 	lea    -0x1550(%rbp),%rax
    ced2:	48 89 85 c0 ee ff ff 	mov    %rax,-0x1140(%rbp)
    ced9:	48 8d 85 b0 ea ff ff 	lea    -0x1550(%rbp),%rax
    cee0:	48 89 85 c8 ee ff ff 	mov    %rax,-0x1138(%rbp)
    cee7:	48 8d 85 b0 ea ff ff 	lea    -0x1550(%rbp),%rax
    ceee:	48 89 85 d0 ee ff ff 	mov    %rax,-0x1130(%rbp)
    cef5:	48 8d 05 fc 21 01 00 	lea    0x121fc(%rip),%rax        # 1f0f8 <g_578>
    cefc:	48 89 85 b8 ea ff ff 	mov    %rax,-0x1548(%rbp)
    cf03:	48 8d 05 46 74 01 00 	lea    0x17446(%rip),%rax        # 24350 <g_911>
    cf0a:	48 89 85 80 eb ff ff 	mov    %rax,-0x1480(%rbp)
    cf11:	48 b8 21 97 7d c1 87 	movabs $0xa8d4a287c17d9721,%rax
    cf18:	a2 d4 a8 
    cf1b:	48 89 85 b0 ec ff ff 	mov    %rax,-0x1350(%rbp)
    cf22:	48 89 85 b8 ec ff ff 	mov    %rax,-0x1348(%rbp)
    cf29:	48 89 85 c0 ec ff ff 	mov    %rax,-0x1340(%rbp)
    cf30:	48 89 85 c8 ec ff ff 	mov    %rax,-0x1338(%rbp)
    cf37:	48 8d 05 5a 12 01 00 	lea    0x1125a(%rip),%rax        # 1e198 <g_188>
    cf3e:	48 89 85 50 eb ff ff 	mov    %rax,-0x14b0(%rbp)
    cf45:	48 c7 85 58 eb ff ff 	movq   $0x3,-0x14a8(%rbp)
    cf4c:	03 00 00 00 
    cf50:	c7 85 18 ea ff ff ff 	movl   $0xffffffff,-0x15e8(%rbp)
    cf57:	ff ff ff 
    cf5a:	48 b8 cd 66 22 51 6d 	movabs $0xc224506d512266cd,%rax
    cf61:	50 24 c2 
    cf64:	48 89 85 60 eb ff ff 	mov    %rax,-0x14a0(%rbp)
    cf6b:	48 8d 05 3e 31 01 00 	lea    0x1313e(%rip),%rax        # 200b0 <g_1096>
    cf72:	48 89 85 c0 ea ff ff 	mov    %rax,-0x1540(%rbp)
    cf79:	c7 85 2c ea ff ff 01 	movl   $0x1,-0x15d4(%rbp)
    cf80:	00 00 00 
    cf83:	48 c7 85 68 eb ff ff 	movq   $0xffffffffffffffff,-0x1498(%rbp)
    cf8a:	ff ff ff ff 
    cf8e:	48 8d 05 ab 10 01 00 	lea    0x110ab(%rip),%rax        # 1e040 <g_4>
    cf95:	48 89 85 70 eb ff ff 	mov    %rax,-0x1490(%rbp)
    cf9c:	48 8d 05 1d 6e 01 00 	lea    0x16e1d(%rip),%rax        # 23dc0 <g_608>
    cfa3:	48 89 85 78 eb ff ff 	mov    %rax,-0x1488(%rbp)
    cfaa:	48 8d 05 93 21 01 00 	lea    0x12193(%rip),%rax        # 1f144 <g_748+0x24>
    cfb1:	48 89 85 c8 ea ff ff 	mov    %rax,-0x1538(%rbp)
    cfb8:	48 8d 85 c8 ea ff ff 	lea    -0x1538(%rbp),%rax
    cfbf:	48 89 85 f0 ec ff ff 	mov    %rax,-0x1310(%rbp)
    cfc6:	48 8d 85 c8 ea ff ff 	lea    -0x1538(%rbp),%rax
    cfcd:	48 89 85 f8 ec ff ff 	mov    %rax,-0x1308(%rbp)
    cfd4:	48 8d 85 c8 ea ff ff 	lea    -0x1538(%rbp),%rax
    cfdb:	48 89 85 00 ed ff ff 	mov    %rax,-0x1300(%rbp)
    cfe2:	48 8d 85 c8 ea ff ff 	lea    -0x1538(%rbp),%rax
    cfe9:	48 89 85 08 ed ff ff 	mov    %rax,-0x12f8(%rbp)
    cff0:	48 8d 85 c8 ea ff ff 	lea    -0x1538(%rbp),%rax
    cff7:	48 89 85 10 ed ff ff 	mov    %rax,-0x12f0(%rbp)
    cffe:	48 8d 85 f0 ec ff ff 	lea    -0x1310(%rbp),%rax
    d005:	48 83 c0 18          	add    $0x18,%rax
    d009:	48 89 85 48 eb ff ff 	mov    %rax,-0x14b8(%rbp)
    d010:	66 c7 85 06 ea ff ff 	movw   $0x1,-0x15fa(%rbp)
    d017:	01 00 
    d019:	c7 85 e0 ee ff ff 9e 	movl   $0x744a39e,-0x1120(%rbp)
    d020:	a3 44 07 
    d023:	c7 85 e4 ee ff ff 03 	movl   $0x3,-0x111c(%rbp)
    d02a:	00 00 00 
    d02d:	c7 85 e8 ee ff ff 00 	movl   $0x0,-0x1118(%rbp)
    d034:	00 00 00 
    d037:	c7 85 ec ee ff ff 03 	movl   $0x3,-0x1114(%rbp)
    d03e:	00 00 00 
    d041:	c7 85 f0 ee ff ff 9e 	movl   $0x744a39e,-0x1110(%rbp)
    d048:	a3 44 07 
    d04b:	c7 85 f4 ee ff ff 09 	movl   $0x9,-0x110c(%rbp)
    d052:	00 00 00 
    d055:	c7 85 f8 ee ff ff 9e 	movl   $0x744a39e,-0x1108(%rbp)
    d05c:	a3 44 07 
    d05f:	c7 85 fc ee ff ff 03 	movl   $0x3,-0x1104(%rbp)
    d066:	00 00 00 
    d069:	c7 85 00 ef ff ff 00 	movl   $0x0,-0x1100(%rbp)
    d070:	00 00 00 
    d073:	c7 85 04 ef ff ff f8 	movl   $0xfffffff8,-0x10fc(%rbp)
    d07a:	ff ff ff 
    d07d:	c7 85 08 ef ff ff f8 	movl   $0xfffffff8,-0x10f8(%rbp)
    d084:	ff ff ff 
    d087:	c7 85 0c ef ff ff de 	movl   $0x33115ede,-0x10f4(%rbp)
    d08e:	5e 11 33 
    d091:	c7 85 10 ef ff ff f8 	movl   $0xfffffff8,-0x10f0(%rbp)
    d098:	ff ff ff 
    d09b:	c7 85 14 ef ff ff f8 	movl   $0xfffffff8,-0x10ec(%rbp)
    d0a2:	ff ff ff 
    d0a5:	c7 85 18 ef ff ff de 	movl   $0x33115ede,-0x10e8(%rbp)
    d0ac:	5e 11 33 
    d0af:	c7 85 1c ef ff ff f8 	movl   $0xfffffff8,-0x10e4(%rbp)
    d0b6:	ff ff ff 
    d0b9:	c7 85 20 ef ff ff f8 	movl   $0xfffffff8,-0x10e0(%rbp)
    d0c0:	ff ff ff 
    d0c3:	c7 85 24 ef ff ff de 	movl   $0x33115ede,-0x10dc(%rbp)
    d0ca:	5e 11 33 
    d0cd:	c7 85 28 ef ff ff 9e 	movl   $0x744a39e,-0x10d8(%rbp)
    d0d4:	a3 44 07 
    d0d7:	c7 85 2c ef ff ff 03 	movl   $0x3,-0x10d4(%rbp)
    d0de:	00 00 00 
    d0e1:	c7 85 30 ef ff ff 00 	movl   $0x0,-0x10d0(%rbp)
    d0e8:	00 00 00 
    d0eb:	c7 85 34 ef ff ff 03 	movl   $0x3,-0x10cc(%rbp)
    d0f2:	00 00 00 
    d0f5:	c7 85 38 ef ff ff 9e 	movl   $0x744a39e,-0x10c8(%rbp)
    d0fc:	a3 44 07 
    d0ff:	c7 85 3c ef ff ff 09 	movl   $0x9,-0x10c4(%rbp)
    d106:	00 00 00 
    d109:	c7 85 40 ef ff ff 9e 	movl   $0x744a39e,-0x10c0(%rbp)
    d110:	a3 44 07 
    d113:	c7 85 44 ef ff ff 03 	movl   $0x3,-0x10bc(%rbp)
    d11a:	00 00 00 
    d11d:	c7 85 48 ef ff ff 00 	movl   $0x0,-0x10b8(%rbp)
    d124:	00 00 00 
    d127:	c7 85 4c ef ff ff f8 	movl   $0xfffffff8,-0x10b4(%rbp)
    d12e:	ff ff ff 
    d131:	c7 85 50 ef ff ff f8 	movl   $0xfffffff8,-0x10b0(%rbp)
    d138:	ff ff ff 
    d13b:	c7 85 54 ef ff ff de 	movl   $0x33115ede,-0x10ac(%rbp)
    d142:	5e 11 33 
    d145:	c7 85 58 ef ff ff f8 	movl   $0xfffffff8,-0x10a8(%rbp)
    d14c:	ff ff ff 
    d14f:	c7 85 5c ef ff ff f8 	movl   $0xfffffff8,-0x10a4(%rbp)
    d156:	ff ff ff 
    d159:	c7 85 60 ef ff ff de 	movl   $0x33115ede,-0x10a0(%rbp)
    d160:	5e 11 33 
    d163:	c7 85 64 ef ff ff f8 	movl   $0xfffffff8,-0x109c(%rbp)
    d16a:	ff ff ff 
    d16d:	c7 85 68 ef ff ff f8 	movl   $0xfffffff8,-0x1098(%rbp)
    d174:	ff ff ff 
    d177:	c7 85 6c ef ff ff de 	movl   $0x33115ede,-0x1094(%rbp)
    d17e:	5e 11 33 
    d181:	c7 85 70 ef ff ff 9e 	movl   $0x744a39e,-0x1090(%rbp)
    d188:	a3 44 07 
    d18b:	c7 85 74 ef ff ff 03 	movl   $0x3,-0x108c(%rbp)
    d192:	00 00 00 
    d195:	c7 85 78 ef ff ff 00 	movl   $0x0,-0x1088(%rbp)
    d19c:	00 00 00 
    d19f:	c7 85 7c ef ff ff 03 	movl   $0x3,-0x1084(%rbp)
    d1a6:	00 00 00 
    d1a9:	c7 85 80 ef ff ff 9e 	movl   $0x744a39e,-0x1080(%rbp)
    d1b0:	a3 44 07 
    d1b3:	c7 85 84 ef ff ff 09 	movl   $0x9,-0x107c(%rbp)
    d1ba:	00 00 00 
    d1bd:	c7 85 88 ef ff ff 9e 	movl   $0x744a39e,-0x1078(%rbp)
    d1c4:	a3 44 07 
    d1c7:	c7 85 8c ef ff ff 03 	movl   $0x3,-0x1074(%rbp)
    d1ce:	00 00 00 
    d1d1:	c7 85 90 ef ff ff 00 	movl   $0x0,-0x1070(%rbp)
    d1d8:	00 00 00 
    d1db:	c7 85 94 ef ff ff f8 	movl   $0xfffffff8,-0x106c(%rbp)
    d1e2:	ff ff ff 
    d1e5:	c7 85 98 ef ff ff f8 	movl   $0xfffffff8,-0x1068(%rbp)
    d1ec:	ff ff ff 
    d1ef:	c7 85 9c ef ff ff de 	movl   $0x33115ede,-0x1064(%rbp)
    d1f6:	5e 11 33 
    d1f9:	c7 85 a0 ef ff ff f8 	movl   $0xfffffff8,-0x1060(%rbp)
    d200:	ff ff ff 
    d203:	c7 85 a4 ef ff ff f8 	movl   $0xfffffff8,-0x105c(%rbp)
    d20a:	ff ff ff 
    d20d:	c7 85 a8 ef ff ff de 	movl   $0x33115ede,-0x1058(%rbp)
    d214:	5e 11 33 
    d217:	c7 85 ac ef ff ff f8 	movl   $0xfffffff8,-0x1054(%rbp)
    d21e:	ff ff ff 
    d221:	c7 85 b0 ef ff ff f8 	movl   $0xfffffff8,-0x1050(%rbp)
    d228:	ff ff ff 
    d22b:	c7 85 b4 ef ff ff de 	movl   $0x33115ede,-0x104c(%rbp)
    d232:	5e 11 33 
    d235:	48 c7 85 40 eb ff ff 	movq   $0x0,-0x14c0(%rbp)
    d23c:	00 00 00 00 
    d240:	48 8d 85 e0 ee ff ff 	lea    -0x1120(%rbp),%rax
    d247:	48 83 c0 54          	add    $0x54,%rax
    d24b:	48 89 85 38 eb ff ff 	mov    %rax,-0x14c8(%rbp)
    d252:	c7 85 28 ea ff ff b7 	movl   $0xc960ebb7,-0x15d8(%rbp)
    d259:	eb 60 c9 
    d25c:	48 c7 85 d0 ea ff ff 	movq   $0x0,-0x1530(%rbp)
    d263:	00 00 00 00 
    d267:	48 8d 85 d0 ea ff ff 	lea    -0x1530(%rbp),%rax
    d26e:	48 89 85 20 ed ff ff 	mov    %rax,-0x12e0(%rbp)
    d275:	48 8d 85 d0 ea ff ff 	lea    -0x1530(%rbp),%rax
    d27c:	48 89 85 28 ed ff ff 	mov    %rax,-0x12d8(%rbp)
    d283:	48 8d 85 d0 ea ff ff 	lea    -0x1530(%rbp),%rax
    d28a:	48 89 85 30 ed ff ff 	mov    %rax,-0x12d0(%rbp)
    d291:	48 8d 85 d0 ea ff ff 	lea    -0x1530(%rbp),%rax
    d298:	48 89 85 38 ed ff ff 	mov    %rax,-0x12c8(%rbp)
    d29f:	48 8d 85 d0 ea ff ff 	lea    -0x1530(%rbp),%rax
    d2a6:	48 89 85 40 ed ff ff 	mov    %rax,-0x12c0(%rbp)
    d2ad:	48 8d 85 d0 ea ff ff 	lea    -0x1530(%rbp),%rax
    d2b4:	48 89 85 48 ed ff ff 	mov    %rax,-0x12b8(%rbp)
    d2bb:	48 8d 85 d0 ea ff ff 	lea    -0x1530(%rbp),%rax
    d2c2:	48 89 85 50 ed ff ff 	mov    %rax,-0x12b0(%rbp)
    d2c9:	48 c7 85 30 eb ff ff 	movq   $0xffffffffffffffff,-0x14d0(%rbp)
    d2d0:	ff ff ff ff 
    d2d4:	66 c7 85 04 ea ff ff 	movw   $0xf55f,-0x15fc(%rbp)
    d2db:	5f f5 
    d2dd:	c7 85 00 ee ff ff cc 	movl   $0x258e4acc,-0x1200(%rbp)
    d2e4:	4a 8e 25 
    d2e7:	c7 85 04 ee ff ff cc 	movl   $0x258e4acc,-0x11fc(%rbp)
    d2ee:	4a 8e 25 
    d2f1:	c7 85 08 ee ff ff cc 	movl   $0x258e4acc,-0x11f8(%rbp)
    d2f8:	4a 8e 25 
    d2fb:	c7 85 0c ee ff ff cc 	movl   $0x258e4acc,-0x11f4(%rbp)
    d302:	4a 8e 25 
    d305:	c7 85 10 ee ff ff cc 	movl   $0x258e4acc,-0x11f0(%rbp)
    d30c:	4a 8e 25 
    d30f:	c7 85 14 ee ff ff cc 	movl   $0x258e4acc,-0x11ec(%rbp)
    d316:	4a 8e 25 
    d319:	c7 85 18 ee ff ff cc 	movl   $0x258e4acc,-0x11e8(%rbp)
    d320:	4a 8e 25 
    d323:	c7 85 1c ee ff ff cc 	movl   $0x258e4acc,-0x11e4(%rbp)
    d32a:	4a 8e 25 
    d32d:	c7 85 20 ee ff ff cc 	movl   $0x258e4acc,-0x11e0(%rbp)
    d334:	4a 8e 25 
    d337:	c7 85 24 ee ff ff cc 	movl   $0x258e4acc,-0x11dc(%rbp)
    d33e:	4a 8e 25 
    d341:	c7 85 28 ee ff ff cc 	movl   $0x258e4acc,-0x11d8(%rbp)
    d348:	4a 8e 25 
    d34b:	c7 85 2c ee ff ff cc 	movl   $0x258e4acc,-0x11d4(%rbp)
    d352:	4a 8e 25 
    d355:	c7 85 30 ee ff ff cc 	movl   $0x258e4acc,-0x11d0(%rbp)
    d35c:	4a 8e 25 
    d35f:	c7 85 34 ee ff ff cc 	movl   $0x258e4acc,-0x11cc(%rbp)
    d366:	4a 8e 25 
    d369:	c7 85 38 ee ff ff cc 	movl   $0x258e4acc,-0x11c8(%rbp)
    d370:	4a 8e 25 
    d373:	c7 85 3c ee ff ff cc 	movl   $0x258e4acc,-0x11c4(%rbp)
    d37a:	4a 8e 25 
    d37d:	c7 85 40 ee ff ff cc 	movl   $0x258e4acc,-0x11c0(%rbp)
    d384:	4a 8e 25 
    d387:	c7 85 44 ee ff ff cc 	movl   $0x258e4acc,-0x11bc(%rbp)
    d38e:	4a 8e 25 
    d391:	c7 85 48 ee ff ff cc 	movl   $0x258e4acc,-0x11b8(%rbp)
    d398:	4a 8e 25 
    d39b:	c7 85 4c ee ff ff cc 	movl   $0x258e4acc,-0x11b4(%rbp)
    d3a2:	4a 8e 25 
    d3a5:	c7 85 50 ee ff ff cc 	movl   $0x258e4acc,-0x11b0(%rbp)
    d3ac:	4a 8e 25 
    d3af:	c7 85 54 ee ff ff cc 	movl   $0x258e4acc,-0x11ac(%rbp)
    d3b6:	4a 8e 25 
    d3b9:	c7 85 58 ee ff ff cc 	movl   $0x258e4acc,-0x11a8(%rbp)
    d3c0:	4a 8e 25 
    d3c3:	c7 85 5c ee ff ff cc 	movl   $0x258e4acc,-0x11a4(%rbp)
    d3ca:	4a 8e 25 
    d3cd:	c6 85 01 ea ff ff f6 	movb   $0xf6,-0x15ff(%rbp)
    d3d4:	c6 85 00 ea ff ff 01 	movb   $0x1,-0x1600(%rbp)
    d3db:	c7 85 24 ea ff ff ff 	movl   $0xffffffff,-0x15dc(%rbp)
    d3e2:	ff ff ff 
    d3e5:	48 8d 05 ec 69 01 00 	lea    0x169ec(%rip),%rax        # 23dd8 <g_845>
    d3ec:	48 89 85 28 eb ff ff 	mov    %rax,-0x14d8(%rbp)
    d3f3:	48 8d 85 80 f1 ff ff 	lea    -0xe80(%rbp),%rax
    d3fa:	48 8d 15 9f c2 00 00 	lea    0xc29f(%rip),%rdx        # 196a0 <g_1290+0x638>
    d401:	b9 80 00 00 00       	mov    $0x80,%ecx
    d406:	48 89 c7             	mov    %rax,%rdi
    d409:	48 89 d6             	mov    %rdx,%rsi
    d40c:	f3 48 a5             	rep movsq %ds:(%rsi),%es:(%rdi)
    d40f:	48 c7 85 d0 ec ff ff 	movq   $0x0,-0x1330(%rbp)
    d416:	00 00 00 00 
    d41a:	48 c7 85 d8 ec ff ff 	movq   $0x0,-0x1328(%rbp)
    d421:	00 00 00 00 
    d425:	48 c7 85 e0 ec ff ff 	movq   $0x0,-0x1320(%rbp)
    d42c:	00 00 00 00 
    d430:	48 c7 85 e8 ec ff ff 	movq   $0x0,-0x1318(%rbp)
    d437:	00 00 00 00 
    d43b:	c7 85 1c ea ff ff 00 	movl   $0x0,-0x15e4(%rbp)
    d442:	00 00 00 
    d445:	c7 85 20 ea ff ff 00 	movl   $0x0,-0x15e0(%rbp)
    d44c:	00 00 00 
    d44f:	eb 1a                	jmp    d46b <func_9+0x750>
    d451:	8b 85 20 ea ff ff    	mov    -0x15e0(%rbp),%eax
    d457:	48 98                	cltq   
    d459:	c7 84 85 90 ec ff ff 	movl   $0x4cdf5e1,-0x1370(%rbp,%rax,4)
    d460:	e1 f5 cd 04 
    d464:	83 85 20 ea ff ff 01 	addl   $0x1,-0x15e0(%rbp)
    d46b:	83 bd 20 ea ff ff 05 	cmpl   $0x5,-0x15e0(%rbp)
    d472:	7e dd                	jle    d451 <func_9+0x736>
    d474:	48 8b 05 2d 61 01 00 	mov    0x1612d(%rip),%rax        # 235a8 <g_152>
    d47b:	48 8b 00             	mov    (%rax),%rax
    d47e:	c7 00 fe ff ff ff    	movl   $0xfffffffe,(%rax)
    d484:	48 8b 05 cd 6e 01 00 	mov    0x16ecd(%rip),%rax        # 24358 <g_910>
    d48b:	48 8b 00             	mov    (%rax),%rax
    d48e:	44 0f b7 20          	movzwl (%rax),%r12d
    d492:	8b 85 ec e9 ff ff    	mov    -0x1614(%rbp),%eax
    d498:	41 89 c5             	mov    %eax,%r13d
    d49b:	0f b7 05 12 2c 01 00 	movzwl 0x12c12(%rip),%eax        # 200b4 <g_1153>
    d4a2:	0f b6 d8             	movzbl %al,%ebx
    d4a5:	48 8b 05 14 69 01 00 	mov    0x16914(%rip),%rax        # 23dc0 <g_608>
    d4ac:	8b 10                	mov    (%rax),%edx
    d4ae:	48 8b 85 c8 ee ff ff 	mov    -0x1138(%rbp),%rax
    d4b5:	48 89 85 c8 ee ff ff 	mov    %rax,-0x1138(%rbp)
    d4bc:	48 8b 85 c8 ee ff ff 	mov    -0x1138(%rbp),%rax
    d4c3:	48 39 85 88 eb ff ff 	cmp    %rax,-0x1478(%rbp)
    d4ca:	0f 94 c0             	sete   %al
    d4cd:	0f b6 c0             	movzbl %al,%eax
    d4d0:	89 d6                	mov    %edx,%esi
    d4d2:	89 c7                	mov    %eax,%edi
    d4d4:	e8 f7 c9 ff ff       	callq  9ed0 <safe_sub_func_uint32_t_u_u>
    d4d9:	0f b7 c0             	movzwl %ax,%eax
    d4dc:	be 0f 00 00 00       	mov    $0xf,%esi
    d4e1:	89 c7                	mov    %eax,%edi
    d4e3:	e8 92 c9 ff ff       	callq  9e7a <safe_rshift_func_uint16_t_u_u>
    d4e8:	0f b6 c0             	movzbl %al,%eax
    d4eb:	89 de                	mov    %ebx,%esi
    d4ed:	89 c7                	mov    %eax,%edi
    d4ef:	e8 ba c6 ff ff       	callq  9bae <safe_mod_func_uint8_t_u_u>
    d4f4:	8b 85 ec e9 ff ff    	mov    -0x1614(%rbp),%eax
    d4fa:	89 c3                	mov    %eax,%ebx
    d4fc:	48 8b 05 6b 11 01 00 	mov    0x1116b(%rip),%rax        # 1e66e <g_462+0x44e>
    d503:	48 83 f8 01          	cmp    $0x1,%rax
    d507:	0f 95 c0             	setne  %al
    d50a:	0f b6 c0             	movzbl %al,%eax
    d50d:	be 07 00 00 00       	mov    $0x7,%esi
    d512:	89 c7                	mov    %eax,%edi
    d514:	e8 a5 c8 ff ff       	callq  9dbe <safe_lshift_func_uint16_t_u_s>
    d519:	66 85 c0             	test   %ax,%ax
    d51c:	0f 95 c0             	setne  %al
    d51f:	0f b6 c0             	movzbl %al,%eax
    d522:	48 89 de             	mov    %rbx,%rsi
    d525:	48 89 c7             	mov    %rax,%rdi
    d528:	e8 01 cb ff ff       	callq  a02e <safe_add_func_uint64_t_u_u>
    d52d:	0f b6 c0             	movzbl %al,%eax
    d530:	be 3d 00 00 00       	mov    $0x3d,%esi
    d535:	89 c7                	mov    %eax,%edi
    d537:	e8 3c c6 ff ff       	callq  9b78 <safe_sub_func_uint8_t_u_u>
    d53c:	8b 85 ec e9 ff ff    	mov    -0x1614(%rbp),%eax
    d542:	85 c0                	test   %eax,%eax
    d544:	74 11                	je     d557 <func_9+0x83c>
    d546:	48 83 bd e0 e9 ff ff 	cmpq   $0x0,-0x1620(%rbp)
    d54d:	00 
    d54e:	74 07                	je     d557 <func_9+0x83c>
    d550:	b8 01 00 00 00       	mov    $0x1,%eax
    d555:	eb 05                	jmp    d55c <func_9+0x841>
    d557:	b8 00 00 00 00       	mov    $0x0,%eax
    d55c:	89 c2                	mov    %eax,%edx
    d55e:	8b 05 28 2b 01 00    	mov    0x12b28(%rip),%eax        # 2008c <g_972+0xc>
    d564:	09 d0                	or     %edx,%eax
    d566:	85 c0                	test   %eax,%eax
    d568:	75 0a                	jne    d574 <func_9+0x859>
    d56a:	8b 85 a0 ec ff ff    	mov    -0x1360(%rbp),%eax
    d570:	85 c0                	test   %eax,%eax
    d572:	74 07                	je     d57b <func_9+0x860>
    d574:	b8 01 00 00 00       	mov    $0x1,%eax
    d579:	eb 05                	jmp    d580 <func_9+0x865>
    d57b:	b8 00 00 00 00       	mov    $0x0,%eax
    d580:	0f b7 c0             	movzwl %ax,%eax
    d583:	44 89 ee             	mov    %r13d,%esi
    d586:	89 c7                	mov    %eax,%edi
    d588:	e8 bb c8 ff ff       	callq  9e48 <safe_rshift_func_uint16_t_u_s>
    d58d:	0f b7 c0             	movzwl %ax,%eax
    d590:	be 01 00 00 00       	mov    $0x1,%esi
    d595:	89 c7                	mov    %eax,%edi
    d597:	e8 6a c8 ff ff       	callq  9e06 <safe_lshift_func_uint16_t_u_u>
    d59c:	be 02 00 00 00       	mov    $0x2,%esi
    d5a1:	bf 00 00 00 00       	mov    $0x0,%edi
    d5a6:	e8 a1 c6 ff ff       	callq  9c4c <safe_lshift_func_uint8_t_u_u>
    d5ab:	0f b6 c0             	movzbl %al,%eax
    d5ae:	66 41 39 c4          	cmp    %ax,%r12w
    d5b2:	0f 84 2b 09 00 00    	je     dee3 <func_9+0x11c8>
    d5b8:	c6 85 fe e9 ff ff ff 	movb   $0xff,-0x1602(%rbp)
    d5bf:	48 8d 05 f2 64 01 00 	lea    0x164f2(%rip),%rax        # 23ab8 <g_166+0x4f8>
    d5c6:	48 89 85 c0 ef ff ff 	mov    %rax,-0x1040(%rbp)
    d5cd:	48 8d 05 e4 64 01 00 	lea    0x164e4(%rip),%rax        # 23ab8 <g_166+0x4f8>
    d5d4:	48 89 85 c8 ef ff ff 	mov    %rax,-0x1038(%rbp)
    d5db:	48 8d 05 d6 64 01 00 	lea    0x164d6(%rip),%rax        # 23ab8 <g_166+0x4f8>
    d5e2:	48 89 85 d0 ef ff ff 	mov    %rax,-0x1030(%rbp)
    d5e9:	48 8d 05 c8 64 01 00 	lea    0x164c8(%rip),%rax        # 23ab8 <g_166+0x4f8>
    d5f0:	48 89 85 d8 ef ff ff 	mov    %rax,-0x1028(%rbp)
    d5f7:	48 8d 05 ba 64 01 00 	lea    0x164ba(%rip),%rax        # 23ab8 <g_166+0x4f8>
    d5fe:	48 89 85 e0 ef ff ff 	mov    %rax,-0x1020(%rbp)
    d605:	48 8d 05 ac 64 01 00 	lea    0x164ac(%rip),%rax        # 23ab8 <g_166+0x4f8>
    d60c:	48 89 85 e8 ef ff ff 	mov    %rax,-0x1018(%rbp)
    d613:	48 8d 05 a6 67 01 00 	lea    0x167a6(%rip),%rax        # 23dc0 <g_608>
    d61a:	48 89 85 f0 ea ff ff 	mov    %rax,-0x1510(%rbp)
    d621:	48 8d 85 f0 ea ff ff 	lea    -0x1510(%rbp),%rax
    d628:	48 89 85 f8 ea ff ff 	mov    %rax,-0x1508(%rbp)
    d62f:	48 8d 05 b2 1a 01 00 	lea    0x11ab2(%rip),%rax        # 1f0e8 <g_516>
    d636:	48 89 85 80 f5 ff ff 	mov    %rax,-0xa80(%rbp)
    d63d:	48 8d 05 84 0b 01 00 	lea    0x10b84(%rip),%rax        # 1e1c8 <g_292+0x28>
    d644:	48 89 85 88 f5 ff ff 	mov    %rax,-0xa78(%rbp)
    d64b:	48 c7 85 90 f5 ff ff 	movq   $0x0,-0xa70(%rbp)
    d652:	00 00 00 00 
    d656:	48 c7 85 98 f5 ff ff 	movq   $0x0,-0xa68(%rbp)
    d65d:	00 00 00 00 
    d661:	48 8d 05 60 0b 01 00 	lea    0x10b60(%rip),%rax        # 1e1c8 <g_292+0x28>
    d668:	48 89 85 a0 f5 ff ff 	mov    %rax,-0xa60(%rbp)
    d66f:	48 8d 05 72 1a 01 00 	lea    0x11a72(%rip),%rax        # 1f0e8 <g_516>
    d676:	48 89 85 a8 f5 ff ff 	mov    %rax,-0xa58(%rbp)
    d67d:	48 8d 05 44 0b 01 00 	lea    0x10b44(%rip),%rax        # 1e1c8 <g_292+0x28>
    d684:	48 89 85 b0 f5 ff ff 	mov    %rax,-0xa50(%rbp)
    d68b:	48 c7 85 b8 f5 ff ff 	movq   $0x0,-0xa48(%rbp)
    d692:	00 00 00 00 
    d696:	48 c7 85 c0 f5 ff ff 	movq   $0x0,-0xa40(%rbp)
    d69d:	00 00 00 00 
    d6a1:	48 8d 05 20 0b 01 00 	lea    0x10b20(%rip),%rax        # 1e1c8 <g_292+0x28>
    d6a8:	48 89 85 c8 f5 ff ff 	mov    %rax,-0xa38(%rbp)
    d6af:	48 8d 05 32 1a 01 00 	lea    0x11a32(%rip),%rax        # 1f0e8 <g_516>
    d6b6:	48 89 85 d0 f5 ff ff 	mov    %rax,-0xa30(%rbp)
    d6bd:	48 8d 05 04 0b 01 00 	lea    0x10b04(%rip),%rax        # 1e1c8 <g_292+0x28>
    d6c4:	48 89 85 d8 f5 ff ff 	mov    %rax,-0xa28(%rbp)
    d6cb:	48 c7 85 e0 f5 ff ff 	movq   $0x0,-0xa20(%rbp)
    d6d2:	00 00 00 00 
    d6d6:	48 c7 85 e8 f5 ff ff 	movq   $0x0,-0xa18(%rbp)
    d6dd:	00 00 00 00 
    d6e1:	48 8d 05 e0 0a 01 00 	lea    0x10ae0(%rip),%rax        # 1e1c8 <g_292+0x28>
    d6e8:	48 89 85 f0 f5 ff ff 	mov    %rax,-0xa10(%rbp)
    d6ef:	48 8d 05 f2 19 01 00 	lea    0x119f2(%rip),%rax        # 1f0e8 <g_516>
    d6f6:	48 89 85 f8 f5 ff ff 	mov    %rax,-0xa08(%rbp)
    d6fd:	48 8d 05 c4 0a 01 00 	lea    0x10ac4(%rip),%rax        # 1e1c8 <g_292+0x28>
    d704:	48 89 85 00 f6 ff ff 	mov    %rax,-0xa00(%rbp)
    d70b:	48 c7 85 08 f6 ff ff 	movq   $0x0,-0x9f8(%rbp)
    d712:	00 00 00 00 
    d716:	48 c7 85 10 f6 ff ff 	movq   $0x0,-0x9f0(%rbp)
    d71d:	00 00 00 00 
    d721:	48 8d 05 a0 0a 01 00 	lea    0x10aa0(%rip),%rax        # 1e1c8 <g_292+0x28>
    d728:	48 89 85 18 f6 ff ff 	mov    %rax,-0x9e8(%rbp)
    d72f:	c7 85 50 ea ff ff ec 	movl   $0xa12facec,-0x15b0(%rbp)
    d736:	ac 2f a1 
    d739:	48 8d 05 10 09 01 00 	lea    0x10910(%rip),%rax        # 1e050 <g_34>
    d740:	48 89 85 00 eb ff ff 	mov    %rax,-0x1500(%rbp)
    d747:	c7 85 54 ea ff ff ed 	movl   $0x45ef86ed,-0x15ac(%rbp)
    d74e:	86 ef 45 
    d751:	48 8d 05 0f 0f 01 00 	lea    0x10f0f(%rip),%rax        # 1e667 <g_462+0x447>
    d758:	48 89 85 90 eb ff ff 	mov    %rax,-0x1470(%rbp)
    d75f:	c7 85 4c ea ff ff 72 	movl   $0x13dd5e72,-0x15b4(%rbp)
    d766:	5e dd 13 
    d769:	48 8d 05 40 6c 01 00 	lea    0x16c40(%rip),%rax        # 243b0 <g_1242>
    d770:	48 89 85 98 eb ff ff 	mov    %rax,-0x1468(%rbp)
    d777:	c7 85 3c ea ff ff 00 	movl   $0x0,-0x15c4(%rbp)
    d77e:	00 00 00 
    d781:	eb 14                	jmp    d797 <func_9+0xa7c>
    d783:	8b 85 3c ea ff ff    	mov    -0x15c4(%rbp),%eax
    d789:	48 98                	cltq   
    d78b:	c6 44 05 c0 89       	movb   $0x89,-0x40(%rbp,%rax,1)
    d790:	83 85 3c ea ff ff 01 	addl   $0x1,-0x15c4(%rbp)
    d797:	83 bd 3c ea ff ff 02 	cmpl   $0x2,-0x15c4(%rbp)
    d79e:	7e e3                	jle    d783 <func_9+0xa68>
    d7a0:	66 c7 05 5f 19 01 00 	movw   $0x0,0x1195f(%rip)        # 1f108 <g_606>
    d7a7:	00 00 
    d7a9:	e9 ce 00 00 00       	jmpq   d87c <func_9+0xb61>
    d7ae:	c7 85 70 ea ff ff 76 	movl   $0x3d90a476,-0x1590(%rbp)
    d7b5:	a4 90 3d 
    d7b8:	48 8d 05 75 08 01 00 	lea    0x10875(%rip),%rax        # 1e034 <g_3+0x4>
    d7bf:	48 89 85 d0 eb ff ff 	mov    %rax,-0x1430(%rbp)
    d7c6:	48 8d 05 9a 0e 01 00 	lea    0x10e9a(%rip),%rax        # 1e667 <g_462+0x447>
    d7cd:	48 89 85 d8 eb ff ff 	mov    %rax,-0x1428(%rbp)
    d7d4:	48 c7 85 e0 eb ff ff 	movq   $0x0,-0x1420(%rbp)
    d7db:	00 00 00 00 
    d7df:	c7 85 74 ea ff ff ff 	movl   $0xffffffff,-0x158c(%rbp)
    d7e6:	ff ff ff 
    d7e9:	c7 85 78 ea ff ff ff 	movl   $0xffffffff,-0x1588(%rbp)
    d7f0:	ff ff ff 
    d7f3:	48 c7 85 e8 eb ff ff 	movq   $0x0,-0x1418(%rbp)
    d7fa:	00 00 00 00 
    d7fe:	c7 85 7c ea ff ff ff 	movl   $0xdcb00ff,-0x1584(%rbp)
    d805:	00 cb 0d 
    d808:	c7 85 80 ea ff ff c7 	movl   $0x80ab7c7,-0x1580(%rbp)
    d80f:	b7 0a 08 
    d812:	48 8d 05 57 19 01 00 	lea    0x11957(%rip),%rax        # 1f170 <g_748+0x50>
    d819:	48 89 85 08 eb ff ff 	mov    %rax,-0x14f8(%rbp)
    d820:	48 8d 85 08 eb ff ff 	lea    -0x14f8(%rbp),%rax
    d827:	48 89 85 f0 eb ff ff 	mov    %rax,-0x1410(%rbp)
    d82e:	48 8d 05 d5 18 01 00 	lea    0x118d5(%rip),%rax        # 1f10a <g_701>
    d835:	48 89 85 f8 eb ff ff 	mov    %rax,-0x1408(%rbp)
    d83c:	c7 85 40 ea ff ff 00 	movl   $0x0,-0x15c0(%rbp)
    d843:	00 00 00 
    d846:	eb 1a                	jmp    d862 <func_9+0xb47>
    d848:	8b 85 40 ea ff ff    	mov    -0x15c0(%rbp),%eax
    d84e:	48 98                	cltq   
    d850:	c7 84 85 20 fa ff ff 	movl   $0xffffffff,-0x5e0(%rbp,%rax,4)
    d857:	ff ff ff ff 
    d85b:	83 85 40 ea ff ff 01 	addl   $0x1,-0x15c0(%rbp)
    d862:	83 bd 40 ea ff ff 06 	cmpl   $0x6,-0x15c0(%rbp)
    d869:	7e dd                	jle    d848 <func_9+0xb2d>
    d86b:	0f b7 05 96 18 01 00 	movzwl 0x11896(%rip),%eax        # 1f108 <g_606>
    d872:	83 e8 01             	sub    $0x1,%eax
    d875:	66 89 05 8c 18 01 00 	mov    %ax,0x1188c(%rip)        # 1f108 <g_606>
    d87c:	0f b7 05 85 18 01 00 	movzwl 0x11885(%rip),%eax        # 1f108 <g_606>
    d883:	66 83 f8 f8          	cmp    $0xfff8,%ax
    d887:	0f 8d 21 ff ff ff    	jge    d7ae <func_9+0xa93>
    d88d:	48 8b 05 3c 6b 01 00 	mov    0x16b3c(%rip),%rax        # 243d0 <g_1333>
    d894:	48 8b 00             	mov    (%rax),%rax
    d897:	48 8b 00             	mov    (%rax),%rax
    d89a:	48 8b 00             	mov    (%rax),%rax
    d89d:	48 8b 10             	mov    (%rax),%rdx
    d8a0:	48 8b 05 f9 5c 01 00 	mov    0x15cf9(%rip),%rax        # 235a0 <g_153>
    d8a7:	8b 12                	mov    (%rdx),%edx
    d8a9:	89 10                	mov    %edx,(%rax)
    d8ab:	48 c7 85 60 eb ff ff 	movq   $0x15,-0x14a0(%rbp)
    d8b2:	15 00 00 00 
    d8b6:	e9 fe 05 00 00       	jmpq   deb9 <func_9+0x119e>
    d8bb:	c7 45 c3 04 04 04 04 	movl   $0x4040404,-0x3d(%rbp)
    d8c2:	c6 45 c7 04          	movb   $0x4,-0x39(%rbp)
    d8c6:	48 8d 05 7b 07 01 00 	lea    0x1077b(%rip),%rax        # 1e048 <g_22>
    d8cd:	48 89 85 a0 eb ff ff 	mov    %rax,-0x1460(%rbp)
    d8d4:	48 8d 85 c0 ea ff ff 	lea    -0x1540(%rbp),%rax
    d8db:	48 89 85 20 fa ff ff 	mov    %rax,-0x5e0(%rbp)
    d8e2:	48 8d 85 c0 ea ff ff 	lea    -0x1540(%rbp),%rax
    d8e9:	48 89 85 28 fa ff ff 	mov    %rax,-0x5d8(%rbp)
    d8f0:	48 8d 85 c0 ea ff ff 	lea    -0x1540(%rbp),%rax
    d8f7:	48 89 85 30 fa ff ff 	mov    %rax,-0x5d0(%rbp)
    d8fe:	48 8d 85 c0 ea ff ff 	lea    -0x1540(%rbp),%rax
    d905:	48 89 85 38 fa ff ff 	mov    %rax,-0x5c8(%rbp)
    d90c:	48 8d 85 c0 ea ff ff 	lea    -0x1540(%rbp),%rax
    d913:	48 89 85 40 fa ff ff 	mov    %rax,-0x5c0(%rbp)
    d91a:	48 8d 85 c0 ea ff ff 	lea    -0x1540(%rbp),%rax
    d921:	48 89 85 48 fa ff ff 	mov    %rax,-0x5b8(%rbp)
    d928:	48 8d 85 c0 ea ff ff 	lea    -0x1540(%rbp),%rax
    d92f:	48 89 85 50 fa ff ff 	mov    %rax,-0x5b0(%rbp)
    d936:	48 8d 85 c0 ea ff ff 	lea    -0x1540(%rbp),%rax
    d93d:	48 89 85 58 fa ff ff 	mov    %rax,-0x5a8(%rbp)
    d944:	48 8d 85 c0 ea ff ff 	lea    -0x1540(%rbp),%rax
    d94b:	48 89 85 60 fa ff ff 	mov    %rax,-0x5a0(%rbp)
    d952:	48 8d 85 c0 ea ff ff 	lea    -0x1540(%rbp),%rax
    d959:	48 89 85 68 fa ff ff 	mov    %rax,-0x598(%rbp)
    d960:	48 8d 85 c0 ea ff ff 	lea    -0x1540(%rbp),%rax
    d967:	48 89 85 70 fa ff ff 	mov    %rax,-0x590(%rbp)
    d96e:	48 8d 85 c0 ea ff ff 	lea    -0x1540(%rbp),%rax
    d975:	48 89 85 78 fa ff ff 	mov    %rax,-0x588(%rbp)
    d97c:	48 c7 85 80 fa ff ff 	movq   $0x0,-0x580(%rbp)
    d983:	00 00 00 00 
    d987:	48 8d 85 c0 ea ff ff 	lea    -0x1540(%rbp),%rax
    d98e:	48 89 85 88 fa ff ff 	mov    %rax,-0x578(%rbp)
    d995:	48 c7 85 90 fa ff ff 	movq   $0x0,-0x570(%rbp)
    d99c:	00 00 00 00 
    d9a0:	48 8d 85 c0 ea ff ff 	lea    -0x1540(%rbp),%rax
    d9a7:	48 89 85 98 fa ff ff 	mov    %rax,-0x568(%rbp)
    d9ae:	48 8d 85 c0 ea ff ff 	lea    -0x1540(%rbp),%rax
    d9b5:	48 89 85 a0 fa ff ff 	mov    %rax,-0x560(%rbp)
    d9bc:	48 8d 85 c0 ea ff ff 	lea    -0x1540(%rbp),%rax
    d9c3:	48 89 85 a8 fa ff ff 	mov    %rax,-0x558(%rbp)
    d9ca:	48 8d 85 c0 ea ff ff 	lea    -0x1540(%rbp),%rax
    d9d1:	48 89 85 b0 fa ff ff 	mov    %rax,-0x550(%rbp)
    d9d8:	48 c7 85 b8 fa ff ff 	movq   $0x0,-0x548(%rbp)
    d9df:	00 00 00 00 
    d9e3:	48 8d 85 c0 ea ff ff 	lea    -0x1540(%rbp),%rax
    d9ea:	48 89 85 c0 fa ff ff 	mov    %rax,-0x540(%rbp)
    d9f1:	48 8d 85 c0 ea ff ff 	lea    -0x1540(%rbp),%rax
    d9f8:	48 89 85 c8 fa ff ff 	mov    %rax,-0x538(%rbp)
    d9ff:	48 8d 85 c0 ea ff ff 	lea    -0x1540(%rbp),%rax
    da06:	48 89 85 d0 fa ff ff 	mov    %rax,-0x530(%rbp)
    da0d:	48 8d 85 c0 ea ff ff 	lea    -0x1540(%rbp),%rax
    da14:	48 89 85 d8 fa ff ff 	mov    %rax,-0x528(%rbp)
    da1b:	48 8d 85 c0 ea ff ff 	lea    -0x1540(%rbp),%rax
    da22:	48 89 85 e0 fa ff ff 	mov    %rax,-0x520(%rbp)
    da29:	48 8d 85 c0 ea ff ff 	lea    -0x1540(%rbp),%rax
    da30:	48 89 85 e8 fa ff ff 	mov    %rax,-0x518(%rbp)
    da37:	48 8d 85 c0 ea ff ff 	lea    -0x1540(%rbp),%rax
    da3e:	48 89 85 f0 fa ff ff 	mov    %rax,-0x510(%rbp)
    da45:	48 8d 85 c0 ea ff ff 	lea    -0x1540(%rbp),%rax
    da4c:	48 89 85 f8 fa ff ff 	mov    %rax,-0x508(%rbp)
    da53:	48 8d 85 c0 ea ff ff 	lea    -0x1540(%rbp),%rax
    da5a:	48 89 85 00 fb ff ff 	mov    %rax,-0x500(%rbp)
    da61:	48 8d 85 c0 ea ff ff 	lea    -0x1540(%rbp),%rax
    da68:	48 89 85 08 fb ff ff 	mov    %rax,-0x4f8(%rbp)
    da6f:	48 8d 85 c0 ea ff ff 	lea    -0x1540(%rbp),%rax
    da76:	48 89 85 10 fb ff ff 	mov    %rax,-0x4f0(%rbp)
    da7d:	48 8d 85 c0 ea ff ff 	lea    -0x1540(%rbp),%rax
    da84:	48 89 85 18 fb ff ff 	mov    %rax,-0x4e8(%rbp)
    da8b:	48 8d 85 c0 ea ff ff 	lea    -0x1540(%rbp),%rax
    da92:	48 89 85 20 fb ff ff 	mov    %rax,-0x4e0(%rbp)
    da99:	48 8d 85 c0 ea ff ff 	lea    -0x1540(%rbp),%rax
    daa0:	48 89 85 28 fb ff ff 	mov    %rax,-0x4d8(%rbp)
    daa7:	48 8d 85 c0 ea ff ff 	lea    -0x1540(%rbp),%rax
    daae:	48 89 85 30 fb ff ff 	mov    %rax,-0x4d0(%rbp)
    dab5:	48 8d 85 c0 ea ff ff 	lea    -0x1540(%rbp),%rax
    dabc:	48 89 85 38 fb ff ff 	mov    %rax,-0x4c8(%rbp)
    dac3:	c7 85 58 ea ff ff 47 	movl   $0x33c99747,-0x15a8(%rbp)
    daca:	97 c9 33 
    dacd:	c7 85 5c ea ff ff 5a 	movl   $0xd8ca55a,-0x15a4(%rbp)
    dad4:	a5 8c 0d 
    dad7:	48 8d 05 9b 06 01 00 	lea    0x1069b(%rip),%rax        # 1e179 <g_145+0x9>
    dade:	48 89 85 a8 eb ff ff 	mov    %rax,-0x1458(%rbp)
    dae5:	48 8d 05 a4 06 01 00 	lea    0x106a4(%rip),%rax        # 1e190 <g_148>
    daec:	48 89 85 b0 eb ff ff 	mov    %rax,-0x1450(%rbp)
    daf3:	c7 85 08 eb ff ff ff 	movl   $0xffffffff,-0x14f8(%rbp)
    dafa:	ff ff ff 
    dafd:	48 8b 85 c0 ea ff ff 	mov    -0x1540(%rbp),%rax
    db04:	48 89 05 ed 6d 01 00 	mov    %rax,0x16ded(%rip)        # 248f8 <g_1395>
    db0b:	48 8b 05 46 68 01 00 	mov    0x16846(%rip),%rax        # 24358 <g_910>
    db12:	48 8b 00             	mov    (%rax),%rax
    db15:	0f b7 00             	movzwl (%rax),%eax
    db18:	89 c2                	mov    %eax,%edx
    db1a:	48 8b 85 e0 e9 ff ff 	mov    -0x1620(%rbp),%rax
    db21:	09 d0                	or     %edx,%eax
    db23:	88 45 c3             	mov    %al,-0x3d(%rbp)
    db26:	0f b6 45 c3          	movzbl -0x3d(%rbp),%eax
    db2a:	89 c2                	mov    %eax,%edx
    db2c:	48 8b 85 a0 eb ff ff 	mov    -0x1460(%rbp),%rax
    db33:	88 10                	mov    %dl,(%rax)
    db35:	48 8b 85 a0 eb ff ff 	mov    -0x1460(%rbp),%rax
    db3c:	0f b6 00             	movzbl (%rax),%eax
    db3f:	48 0f be d8          	movsbq %al,%rbx
    db43:	83 bd 58 ea ff ff 08 	cmpl   $0x8,-0x15a8(%rbp)
    db4a:	0f 94 c0             	sete   %al
    db4d:	0f b6 d0             	movzbl %al,%edx
    db50:	48 8b 05 49 25 01 00 	mov    0x12549(%rip),%rax        # 200a0 <g_1010>
    db57:	48 c1 e8 1b          	shr    $0x1b,%rax
    db5b:	83 e0 0f             	and    $0xf,%eax
    db5e:	0f b6 c0             	movzbl %al,%eax
    db61:	39 c2                	cmp    %eax,%edx
    db63:	0f 9f c0             	setg   %al
    db66:	0f b6 c0             	movzbl %al,%eax
    db69:	be 00 00 00 00       	mov    $0x0,%esi
    db6e:	89 c7                	mov    %eax,%edi
    db70:	e8 2c b7 ff ff       	callq  92a1 <safe_lshift_func_int8_t_s_s>
    db75:	0f be c0             	movsbl %al,%eax
    db78:	89 85 5c ea ff ff    	mov    %eax,-0x15a4(%rbp)
    db7e:	b8 01 00 00 00       	mov    $0x1,%eax
    db83:	0f b6 c0             	movzbl %al,%eax
    db86:	39 85 5c ea ff ff    	cmp    %eax,-0x15a4(%rbp)
    db8c:	0f 9d c0             	setge  %al
    db8f:	0f b6 c0             	movzbl %al,%eax
    db92:	48 33 85 e0 e9 ff ff 	xor    -0x1620(%rbp),%rax
    db99:	48 39 c3             	cmp    %rax,%rbx
    db9c:	74 08                	je     dba6 <func_9+0xe8b>
    db9e:	0f b6 45 c3          	movzbl -0x3d(%rbp),%eax
    dba2:	84 c0                	test   %al,%al
    dba4:	74 07                	je     dbad <func_9+0xe92>
    dba6:	b8 01 00 00 00       	mov    $0x1,%eax
    dbab:	eb 05                	jmp    dbb2 <func_9+0xe97>
    dbad:	b8 00 00 00 00       	mov    $0x0,%eax
    dbb2:	89 c2                	mov    %eax,%edx
    dbb4:	48 8b 85 a8 eb ff ff 	mov    -0x1458(%rbp),%rax
    dbbb:	88 10                	mov    %dl,(%rax)
    dbbd:	48 8b 85 a8 eb ff ff 	mov    -0x1458(%rbp),%rax
    dbc4:	0f b6 10             	movzbl (%rax),%edx
    dbc7:	48 8b 85 b0 eb ff ff 	mov    -0x1450(%rbp),%rax
    dbce:	88 10                	mov    %dl,(%rax)
    dbd0:	0f b6 45 c2          	movzbl -0x3e(%rbp),%eax
    dbd4:	0f b6 c0             	movzbl %al,%eax
    dbd7:	89 85 08 eb ff ff    	mov    %eax,-0x14f8(%rbp)
    dbdd:	8b 85 08 eb ff ff    	mov    -0x14f8(%rbp),%eax
    dbe3:	85 c0                	test   %eax,%eax
    dbe5:	0f 84 91 02 00 00    	je     de7c <func_9+0x1161>
    dbeb:	c7 85 60 ea ff ff 01 	movl   $0x1,-0x15a0(%rbp)
    dbf2:	00 00 00 
    dbf5:	48 8d 85 08 eb ff ff 	lea    -0x14f8(%rbp),%rax
    dbfc:	48 89 85 b8 eb ff ff 	mov    %rax,-0x1448(%rbp)
    dc03:	48 8b 05 96 59 01 00 	mov    0x15996(%rip),%rax        # 235a0 <g_153>
    dc0a:	8b 00                	mov    (%rax),%eax
    dc0c:	85 c0                	test   %eax,%eax
    dc0e:	0f 85 b5 02 00 00    	jne    dec9 <func_9+0x11ae>
    dc14:	48 c7 05 41 05 01 00 	movq   $0xffffffffffffffff,0x10541(%rip)        # 1e160 <g_110>
    dc1b:	ff ff ff ff 
    dc1f:	e9 39 02 00 00       	jmpq   de5d <func_9+0x1142>
    dc24:	c7 85 64 ea ff ff 00 	movl   $0x0,-0x159c(%rbp)
    dc2b:	00 00 00 
    dc2e:	c7 85 68 ea ff ff f7 	movl   $0xfffffff7,-0x1598(%rbp)
    dc35:	ff ff ff 
    dc38:	83 ad 64 ea ff ff 01 	subl   $0x1,-0x159c(%rbp)
    dc3f:	8b 85 ec e9 ff ff    	mov    -0x1614(%rbp),%eax
    dc45:	89 c0                	mov    %eax,%eax
    dc47:	48 23 85 e0 e9 ff ff 	and    -0x1620(%rbp),%rax
    dc4e:	48 85 c0             	test   %rax,%rax
    dc51:	0f 84 55 01 00 00    	je     ddac <func_9+0x1091>
    dc57:	48 8d 85 f8 ea ff ff 	lea    -0x1508(%rbp),%rax
    dc5e:	48 89 85 c8 eb ff ff 	mov    %rax,-0x1438(%rbp)
    dc65:	c7 85 6c ea ff ff ff 	movl   $0xffffffff,-0x1594(%rbp)
    dc6c:	ff ff ff 
    dc6f:	8b 85 ec e9 ff ff    	mov    -0x1614(%rbp),%eax
    dc75:	41 89 c6             	mov    %eax,%r14d
    dc78:	8b 85 6c ea ff ff    	mov    -0x1594(%rbp),%eax
    dc7e:	4c 63 e0             	movslq %eax,%r12
    dc81:	8b 85 ec e9 ff ff    	mov    -0x1614(%rbp),%eax
    dc87:	41 89 c7             	mov    %eax,%r15d
    dc8a:	48 8b 05 3f 61 01 00 	mov    0x1613f(%rip),%rax        # 23dd0 <g_846>
    dc91:	48 8b 00             	mov    (%rax),%rax
    dc94:	48 89 85 d8 e9 ff ff 	mov    %rax,-0x1628(%rbp)
    dc9b:	48 8d 05 56 61 01 00 	lea    0x16156(%rip),%rax        # 23df8 <g_865+0x8>
    dca2:	48 39 85 c8 eb ff ff 	cmp    %rax,-0x1438(%rbp)
    dca9:	0f 95 c0             	setne  %al
    dcac:	0f b6 c0             	movzbl %al,%eax
    dcaf:	be 01 00 00 00       	mov    $0x1,%esi
    dcb4:	89 c7                	mov    %eax,%edi
    dcb6:	e8 7a b6 ff ff       	callq  9335 <safe_rshift_func_int8_t_s_s>
    dcbb:	41 89 c5             	mov    %eax,%r13d
    dcbe:	48 8b 05 fb 60 01 00 	mov    0x160fb(%rip),%rax        # 23dc0 <g_608>
    dcc5:	8b 18                	mov    (%rax),%ebx
    dcc7:	48 8b 05 f2 66 01 00 	mov    0x166f2(%rip),%rax        # 243c0 <g_1335>
    dcce:	48 8b 00             	mov    (%rax),%rax
    dcd1:	48 8b 00             	mov    (%rax),%rax
    dcd4:	8b 00                	mov    (%rax),%eax
    dcd6:	85 c0                	test   %eax,%eax
    dcd8:	74 07                	je     dce1 <func_9+0xfc6>
    dcda:	b8 01 00 00 00       	mov    $0x1,%eax
    dcdf:	eb 05                	jmp    dce6 <func_9+0xfcb>
    dce1:	b8 00 00 00 00       	mov    $0x0,%eax
    dce6:	89 c2                	mov    %eax,%edx
    dce8:	8b 85 6c ea ff ff    	mov    -0x1594(%rbp),%eax
    dcee:	0f b6 c0             	movzbl %al,%eax
    dcf1:	89 d6                	mov    %edx,%esi
    dcf3:	89 c7                	mov    %eax,%edi
    dcf5:	e8 52 bf ff ff       	callq  9c4c <safe_lshift_func_uint8_t_u_u>
    dcfa:	0f b6 d0             	movzbl %al,%edx
    dcfd:	48 8b 05 cc 60 01 00 	mov    0x160cc(%rip),%rax        # 23dd0 <g_846>
    dd04:	48 8b 00             	mov    (%rax),%rax
    dd07:	48 39 c2             	cmp    %rax,%rdx
    dd0a:	0f 94 c0             	sete   %al
    dd0d:	0f b6 c0             	movzbl %al,%eax
    dd10:	89 de                	mov    %ebx,%esi
    dd12:	89 c7                	mov    %eax,%edi
    dd14:	e8 b7 c1 ff ff       	callq  9ed0 <safe_sub_func_uint32_t_u_u>
    dd19:	39 85 64 ea ff ff    	cmp    %eax,-0x159c(%rbp)
    dd1f:	49 0f be c5          	movsbq %r13b,%rax
    dd23:	48 21 85 e0 e9 ff ff 	and    %rax,-0x1620(%rbp)
    dd2a:	8b 85 64 ea ff ff    	mov    -0x159c(%rbp),%eax
    dd30:	48 39 85 e0 e9 ff ff 	cmp    %rax,-0x1620(%rbp)
    dd37:	0f 95 c0             	setne  %al
    dd3a:	0f b6 c0             	movzbl %al,%eax
    dd3d:	48 8b b5 d8 e9 ff ff 	mov    -0x1628(%rbp),%rsi
    dd44:	48 89 c7             	mov    %rax,%rdi
    dd47:	e8 ff c2 ff ff       	callq  a04b <safe_sub_func_uint64_t_u_u>
    dd4c:	0f b7 c0             	movzwl %ax,%eax
    dd4f:	44 89 fe             	mov    %r15d,%esi
    dd52:	89 c7                	mov    %eax,%edi
    dd54:	e8 ef c0 ff ff       	callq  9e48 <safe_rshift_func_uint16_t_u_s>
    dd59:	66 83 f8 09          	cmp    $0x9,%ax
    dd5d:	0f 97 c0             	seta   %al
    dd60:	0f b6 c0             	movzbl %al,%eax
    dd63:	48 8b 1d 66 60 01 00 	mov    0x16066(%rip),%rbx        # 23dd0 <g_846>
    dd6a:	4c 89 e6             	mov    %r12,%rsi
    dd6d:	48 89 c7             	mov    %rax,%rdi
    dd70:	e8 3f bc ff ff       	callq  99b4 <safe_mod_func_int64_t_s_s>
    dd75:	48 89 03             	mov    %rax,(%rbx)
    dd78:	48 8b 03             	mov    (%rbx),%rax
    dd7b:	35 71 ac 8e aa       	xor    $0xaa8eac71,%eax
    dd80:	44 89 f6             	mov    %r14d,%esi
    dd83:	89 c7                	mov    %eax,%edi
    dd85:	e8 75 b9 ff ff       	callq  96ff <safe_div_func_int32_t_s_s>
    dd8a:	48 8b 85 b0 ea ff ff 	mov    -0x1550(%rbp),%rax
    dd91:	48 8b 00             	mov    (%rax),%rax
    dd94:	48 8b 00             	mov    (%rax),%rax
    dd97:	48 8b 95 b8 eb ff ff 	mov    -0x1448(%rbp),%rdx
    dd9e:	48 89 10             	mov    %rdx,(%rax)
    dda1:	8b 05 09 25 01 00    	mov    0x12509(%rip),%eax        # 202b0 <g_1429>
    dda7:	e9 2e 20 00 00       	jmpq   fdda <func_9+0x30bf>
    ddac:	48 8b 05 ed 57 01 00 	mov    0x157ed(%rip),%rax        # 235a0 <g_153>
    ddb3:	8b 00                	mov    (%rax),%eax
    ddb5:	89 c2                	mov    %eax,%edx
    ddb7:	8b 85 ec e9 ff ff    	mov    -0x1614(%rbp),%eax
    ddbd:	21 c2                	and    %eax,%edx
    ddbf:	48 8b 05 da 57 01 00 	mov    0x157da(%rip),%rax        # 235a0 <g_153>
    ddc6:	89 10                	mov    %edx,(%rax)
    ddc8:	8b 85 ec e9 ff ff    	mov    -0x1614(%rbp),%eax
    ddce:	89 c3                	mov    %eax,%ebx
    ddd0:	48 8b 05 f9 5f 01 00 	mov    0x15ff9(%rip),%rax        # 23dd0 <g_846>
    ddd7:	48 8b 00             	mov    (%rax),%rax
    ddda:	48 be 13 35 78 75 ba 	movabs $0x539030ba75783513,%rsi
    dde1:	30 90 53 
    dde4:	48 89 c7             	mov    %rax,%rdi
    dde7:	e8 0b bc ff ff       	callq  99f7 <safe_div_func_int64_t_s_s>
    ddec:	48 39 c3             	cmp    %rax,%rbx
    ddef:	0f 9f c0             	setg   %al
    ddf2:	0f b6 d0             	movzbl %al,%edx
    ddf5:	48 8b 05 f9 23 01 00 	mov    0x123f9(%rip),%rax        # 201f5 <g_1243+0x115>
    ddfc:	48 09 d0             	or     %rdx,%rax
    ddff:	48 85 c0             	test   %rax,%rax
    de02:	74 1d                	je     de21 <func_9+0x1106>
    de04:	48 8b 05 9d 57 01 00 	mov    0x1579d(%rip),%rax        # 235a8 <g_152>
    de0b:	48 8b 10             	mov    (%rax),%rdx
    de0e:	48 8b 05 ab 65 01 00 	mov    0x165ab(%rip),%rax        # 243c0 <g_1335>
    de15:	48 8b 00             	mov    (%rax),%rax
    de18:	48 8b 00             	mov    (%rax),%rax
    de1b:	8b 12                	mov    (%rdx),%edx
    de1d:	89 10                	mov    %edx,(%rax)
    de1f:	eb 20                	jmp    de41 <func_9+0x1126>
    de21:	48 c7 85 c0 eb ff ff 	movq   $0x0,-0x1440(%rbp)
    de28:	00 00 00 00 
    de2c:	48 8b 05 7d 5f 01 00 	mov    0x15f7d(%rip),%rax        # 23db0 <g_565>
    de33:	8b 00                	mov    (%rax),%eax
    de35:	85 c0                	test   %eax,%eax
    de37:	75 37                	jne    de70 <func_9+0x1155>
    de39:	48 83 85 c0 eb ff ff 	addq   $0x1,-0x1440(%rbp)
    de40:	01 
    de41:	48 8b 05 18 03 01 00 	mov    0x10318(%rip),%rax        # 1e160 <g_110>
    de48:	be 06 00 00 00       	mov    $0x6,%esi
    de4d:	89 c7                	mov    %eax,%edi
    de4f:	e8 62 b7 ff ff       	callq  95b6 <safe_add_func_int32_t_s_s>
    de54:	48 98                	cltq   
    de56:	48 89 05 03 03 01 00 	mov    %rax,0x10303(%rip)        # 1e160 <g_110>
    de5d:	48 8b 05 fc 02 01 00 	mov    0x102fc(%rip),%rax        # 1e160 <g_110>
    de64:	48 83 f8 03          	cmp    $0x3,%rax
    de68:	0f 86 b6 fd ff ff    	jbe    dc24 <func_9+0xf09>
    de6e:	eb 01                	jmp    de71 <func_9+0x1156>
    de70:	90                   	nop
    de71:	8b 85 ec e9 ff ff    	mov    -0x1614(%rbp),%eax
    de77:	e9 5e 1f 00 00       	jmpq   fdda <func_9+0x30bf>
    de7c:	66 c7 85 0a ea ff ff 	movw   $0x2962,-0x15f6(%rbp)
    de83:	62 29 
    de85:	66 83 bd 0a ea ff ff 	cmpw   $0x0,-0x15f6(%rbp)
    de8c:	00 
    de8d:	75 3d                	jne    decc <func_9+0x11b1>
    de8f:	0f b6 45 c5          	movzbl -0x3b(%rbp),%eax
    de93:	84 c0                	test   %al,%al
    de95:	75 16                	jne    dead <func_9+0x1192>
    de97:	48 8b 05 02 57 01 00 	mov    0x15702(%rip),%rax        # 235a0 <g_153>
    de9e:	8b 00                	mov    (%rax),%eax
    dea0:	85 c0                	test   %eax,%eax
    dea2:	75 0c                	jne    deb0 <func_9+0x1195>
    dea4:	83 85 4c ea ff ff 01 	addl   $0x1,-0x15b4(%rbp)
    deab:	eb 04                	jmp    deb1 <func_9+0x1196>
    dead:	90                   	nop
    deae:	eb 01                	jmp    deb1 <func_9+0x1196>
    deb0:	90                   	nop
    deb1:	48 83 ad 60 eb ff ff 	subq   $0x1,-0x14a0(%rbp)
    deb8:	01 
    deb9:	48 83 bd 60 eb ff ff 	cmpq   $0x1,-0x14a0(%rbp)
    dec0:	01 
    dec1:	0f 87 f4 f9 ff ff    	ja     d8bb <func_9+0xba0>
    dec7:	eb 04                	jmp    decd <func_9+0x11b2>
    dec9:	90                   	nop
    deca:	eb 01                	jmp    decd <func_9+0x11b2>
    decc:	90                   	nop
    decd:	48 8b 85 98 eb ff ff 	mov    -0x1468(%rbp),%rax
    ded4:	48 8b 95 90 eb ff ff 	mov    -0x1470(%rbp),%rdx
    dedb:	48 89 10             	mov    %rdx,(%rax)
    dede:	e9 ae 02 00 00       	jmpq   e191 <func_9+0x1476>
    dee3:	c7 85 00 eb ff ff 00 	movl   $0x0,-0x1500(%rbp)
    deea:	00 00 00 
    deed:	48 8d 85 20 fa ff ff 	lea    -0x5e0(%rbp),%rax
    def4:	48 8d 15 a5 bb 00 00 	lea    0xbba5(%rip),%rdx        # 19aa0 <g_1290+0xa38>
    defb:	b9 69 00 00 00       	mov    $0x69,%ecx
    df00:	48 89 c7             	mov    %rax,%rdi
    df03:	48 89 d6             	mov    %rdx,%rsi
    df06:	f3 48 a5             	rep movsq %ds:(%rsi),%es:(%rdi)
    df09:	66 c7 85 f8 ea ff ff 	movw   $0x1,-0x1508(%rbp)
    df10:	01 00 
    df12:	48 8d 05 d7 11 01 00 	lea    0x111d7(%rip),%rax        # 1f0f0 <g_538>
    df19:	48 89 85 80 f5 ff ff 	mov    %rax,-0xa80(%rbp)
    df20:	48 8d 05 55 21 01 00 	lea    0x12155(%rip),%rax        # 2007c <g_943>
    df27:	48 89 85 88 f5 ff ff 	mov    %rax,-0xa78(%rbp)
    df2e:	48 8d 05 bb 11 01 00 	lea    0x111bb(%rip),%rax        # 1f0f0 <g_538>
    df35:	48 89 85 90 f5 ff ff 	mov    %rax,-0xa70(%rbp)
    df3c:	48 8d 05 ad 11 01 00 	lea    0x111ad(%rip),%rax        # 1f0f0 <g_538>
    df43:	48 89 85 98 f5 ff ff 	mov    %rax,-0xa68(%rbp)
    df4a:	48 8d 05 2b 21 01 00 	lea    0x1212b(%rip),%rax        # 2007c <g_943>
    df51:	48 89 85 a0 f5 ff ff 	mov    %rax,-0xa60(%rbp)
    df58:	48 8d 05 91 11 01 00 	lea    0x11191(%rip),%rax        # 1f0f0 <g_538>
    df5f:	48 89 85 a8 f5 ff ff 	mov    %rax,-0xa58(%rbp)
    df66:	48 8d 05 83 11 01 00 	lea    0x11183(%rip),%rax        # 1f0f0 <g_538>
    df6d:	48 89 85 b0 f5 ff ff 	mov    %rax,-0xa50(%rbp)
    df74:	48 8d 85 80 f5 ff ff 	lea    -0xa80(%rbp),%rax
    df7b:	48 83 c0 18          	add    $0x18,%rax
    df7f:	48 89 85 10 eb ff ff 	mov    %rax,-0x14f0(%rbp)
    df86:	48 8d 05 db 01 01 00 	lea    0x101db(%rip),%rax        # 1e168 <g_144>
    df8d:	48 89 85 18 eb ff ff 	mov    %rax,-0x14e8(%rbp)
    df94:	c6 85 ff e9 ff ff 1c 	movb   $0x1c,-0x1601(%rbp)
    df9b:	48 c7 85 08 eb ff ff 	movq   $0x0,-0x14f8(%rbp)
    dfa2:	00 00 00 00 
    dfa6:	48 8d 85 08 eb ff ff 	lea    -0x14f8(%rbp),%rax
    dfad:	48 89 85 20 eb ff ff 	mov    %rax,-0x14e0(%rbp)
    dfb4:	66 c7 85 02 ea ff ff 	movw   $0xfd6d,-0x15fe(%rbp)
    dfbb:	6d fd 
    dfbd:	90                   	nop
    dfbe:	f3 0f 1e fa          	endbr64 
    dfc2:	48 c7 05 93 01 01 00 	movq   $0x0,0x10193(%rip)        # 1e160 <g_110>
    dfc9:	00 00 00 00 
    dfcd:	90                   	nop
    dfce:	48 8b 05 8b 01 01 00 	mov    0x1018b(%rip),%rax        # 1e160 <g_110>
    dfd5:	48 83 f8 2b          	cmp    $0x2b,%rax
    dfd9:	77 0b                	ja     dfe6 <func_9+0x12cb>
    dfdb:	8b 85 ec e9 ff ff    	mov    -0x1614(%rbp),%eax
    dfe1:	e9 f4 1d 00 00       	jmpq   fdda <func_9+0x30bf>
    dfe6:	48 8b 05 e3 63 01 00 	mov    0x163e3(%rip),%rax        # 243d0 <g_1333>
    dfed:	48 8b 00             	mov    (%rax),%rax
    dff0:	48 8b 00             	mov    (%rax),%rax
    dff3:	48 8b 00             	mov    (%rax),%rax
    dff6:	48 8b 00             	mov    (%rax),%rax
    dff9:	8b 00                	mov    (%rax),%eax
    dffb:	41 89 c6             	mov    %eax,%r14d
    dffe:	48 8b 85 e0 e9 ff ff 	mov    -0x1620(%rbp),%rax
    e005:	41 89 c7             	mov    %eax,%r15d
    e008:	8b 85 00 eb ff ff    	mov    -0x1500(%rbp),%eax
    e00e:	0f be d8             	movsbl %al,%ebx
    e011:	48 8b 85 e0 e9 ff ff 	mov    -0x1620(%rbp),%rax
    e018:	44 0f b6 e0          	movzbl %al,%r12d
    e01c:	8b 85 ec e9 ff ff    	mov    -0x1614(%rbp),%eax
    e022:	89 c0                	mov    %eax,%eax
    e024:	48 89 85 d8 e9 ff ff 	mov    %rax,-0x1628(%rbp)
    e02b:	8b 85 ec e9 ff ff    	mov    -0x1614(%rbp),%eax
    e031:	89 85 e8 e9 ff ff    	mov    %eax,-0x1618(%rbp)
    e037:	8b 85 00 eb ff ff    	mov    -0x1500(%rbp),%eax
    e03d:	44 0f b7 e8          	movzwl %ax,%r13d
    e041:	48 8b 85 20 eb ff ff 	mov    -0x14e0(%rbp),%rax
    e048:	48 89 05 c1 63 01 00 	mov    %rax,0x163c1(%rip)        # 24410 <g_1636+0x10>
    e04f:	48 8b 05 ba 63 01 00 	mov    0x163ba(%rip),%rax        # 24410 <g_1636+0x10>
    e056:	48 85 c0             	test   %rax,%rax
    e059:	0f 94 c0             	sete   %al
    e05c:	0f b6 c0             	movzbl %al,%eax
    e05f:	48 be 34 6d 88 1e f0 	movabs $0xa4c58ef01e886d34,%rsi
    e066:	8e c5 a4 
    e069:	48 89 c7             	mov    %rax,%rdi
    e06c:	e8 0f c0 ff ff       	callq  a080 <safe_mod_func_uint64_t_u_u>
    e071:	48 89 c7             	mov    %rax,%rdi
    e074:	e8 9d b7 ff ff       	callq  9816 <safe_unary_minus_func_int64_t_s>
    e079:	0f b7 c0             	movzwl %ax,%eax
    e07c:	44 89 ee             	mov    %r13d,%esi
    e07f:	89 c7                	mov    %eax,%edi
    e081:	e8 99 bc ff ff       	callq  9d1f <safe_sub_func_uint16_t_u_u>
    e086:	8b 95 ec e9 ff ff    	mov    -0x1614(%rbp),%edx
    e08c:	8b 85 ec e9 ff ff    	mov    -0x1614(%rbp),%eax
    e092:	0f be c0             	movsbl %al,%eax
    e095:	89 d6                	mov    %edx,%esi
    e097:	89 c7                	mov    %eax,%edi
    e099:	e8 ce b2 ff ff       	callq  936c <safe_rshift_func_int8_t_s_u>
    e09e:	84 c0                	test   %al,%al
    e0a0:	74 11                	je     e0b3 <func_9+0x1398>
    e0a2:	48 83 bd e0 e9 ff ff 	cmpq   $0x0,-0x1620(%rbp)
    e0a9:	00 
    e0aa:	74 07                	je     e0b3 <func_9+0x1398>
    e0ac:	b8 01 00 00 00       	mov    $0x1,%eax
    e0b1:	eb 05                	jmp    e0b8 <func_9+0x139d>
    e0b3:	b8 00 00 00 00       	mov    $0x0,%eax
    e0b8:	89 c2                	mov    %eax,%edx
    e0ba:	0f b7 85 02 ea ff ff 	movzwl -0x15fe(%rbp),%eax
    e0c1:	31 d0                	xor    %edx,%eax
    e0c3:	0f b7 d0             	movzwl %ax,%edx
    e0c6:	48 8b 05 8b 62 01 00 	mov    0x1628b(%rip),%rax        # 24358 <g_910>
    e0cd:	48 8b 00             	mov    (%rax),%rax
    e0d0:	0f b6 8d ff e9 ff ff 	movzbl -0x1601(%rbp),%ecx
    e0d7:	66 89 08             	mov    %cx,(%rax)
    e0da:	0f b7 00             	movzwl (%rax),%eax
    e0dd:	0f b7 c0             	movzwl %ax,%eax
    e0e0:	89 d6                	mov    %edx,%esi
    e0e2:	89 c7                	mov    %eax,%edi
    e0e4:	e8 36 bc ff ff       	callq  9d1f <safe_sub_func_uint16_t_u_u>
    e0e9:	98                   	cwtl   
    e0ea:	8b b5 e8 e9 ff ff    	mov    -0x1618(%rbp),%esi
    e0f0:	89 c7                	mov    %eax,%edi
    e0f2:	e8 33 b4 ff ff       	callq  952a <safe_rshift_func_int16_t_s_s>
    e0f7:	48 0f bf c0          	movswq %ax,%rax
    e0fb:	25 5b b6 1e 59       	and    $0x591eb65b,%eax
    e100:	48 8b b5 d8 e9 ff ff 	mov    -0x1628(%rbp),%rsi
    e107:	48 89 c7             	mov    %rax,%rdi
    e10a:	e8 a5 b8 ff ff       	callq  99b4 <safe_mod_func_int64_t_s_s>
    e10f:	8b 95 ec e9 ff ff    	mov    -0x1614(%rbp),%edx
    e115:	89 d2                	mov    %edx,%edx
    e117:	48 39 d0             	cmp    %rdx,%rax
    e11a:	0f 9d c0             	setge  %al
    e11d:	0f b6 c0             	movzbl %al,%eax
    e120:	44 89 e6             	mov    %r12d,%esi
    e123:	89 c7                	mov    %eax,%edi
    e125:	e8 69 ba ff ff       	callq  9b93 <safe_mul_func_uint8_t_u_u>
    e12a:	0f be c0             	movsbl %al,%eax
    e12d:	89 de                	mov    %ebx,%esi
    e12f:	89 c7                	mov    %eax,%edi
    e131:	e8 fb b0 ff ff       	callq  9231 <safe_mod_func_int8_t_s_s>
    e136:	0f be c0             	movsbl %al,%eax
    e139:	89 c6                	mov    %eax,%esi
    e13b:	bf ff ff ff ff       	mov    $0xffffffff,%edi
    e140:	e8 ec b0 ff ff       	callq  9231 <safe_mod_func_int8_t_s_s>
    e145:	48 0f be c0          	movsbq %al,%rax
    e149:	48 39 85 e0 e9 ff ff 	cmp    %rax,-0x1620(%rbp)
    e150:	0f 9c c0             	setl   %al
    e153:	0f b6 c0             	movzbl %al,%eax
    e156:	44 89 fe             	mov    %r15d,%esi
    e159:	89 c7                	mov    %eax,%edi
    e15b:	e8 d5 b1 ff ff       	callq  9335 <safe_rshift_func_int8_t_s_s>
    e160:	48 c7 c6 fd ff ff ff 	mov    $0xfffffffffffffffd,%rsi
    e167:	48 bf d4 ef 7b 9f 64 	movabs $0xb43ce7649f7befd4,%rdi
    e16e:	e7 3c b4 
    e171:	e8 d5 be ff ff       	callq  a04b <safe_sub_func_uint64_t_u_u>
    e176:	44 89 f6             	mov    %r14d,%esi
    e179:	bf 00 00 00 00       	mov    $0x0,%edi
    e17e:	e8 a2 bd ff ff       	callq  9f25 <safe_div_func_uint32_t_u_u>
    e183:	8b 95 20 fa ff ff    	mov    -0x5e0(%rbp),%edx
    e189:	09 d0                	or     %edx,%eax
    e18b:	89 85 20 fa ff ff    	mov    %eax,-0x5e0(%rbp)
    e191:	8b 85 ec e9 ff ff    	mov    -0x1614(%rbp),%eax
    e197:	0f bf d8             	movswl %ax,%ebx
    e19a:	48 8b 05 b7 61 01 00 	mov    0x161b7(%rip),%rax        # 24358 <g_910>
    e1a1:	48 8b 00             	mov    (%rax),%rax
    e1a4:	0f b7 00             	movzwl (%rax),%eax
    e1a7:	44 0f b7 e0          	movzwl %ax,%r12d
    e1ab:	8b 85 ec e9 ff ff    	mov    -0x1614(%rbp),%eax
    e1b1:	83 f8 ff             	cmp    $0xffffffff,%eax
    e1b4:	0f 85 0b 01 00 00    	jne    e2c5 <func_9+0x15aa>
    e1ba:	44 8b 2d c3 1e 01 00 	mov    0x11ec3(%rip),%r13d        # 20084 <g_972+0x4>
    e1c1:	48 8b 85 e0 e9 ff ff 	mov    -0x1620(%rbp),%rax
    e1c8:	89 85 d8 e9 ff ff    	mov    %eax,-0x1628(%rbp)
    e1ce:	8b 85 ec e9 ff ff    	mov    -0x1614(%rbp),%eax
    e1d4:	44 0f b6 f0          	movzbl %al,%r14d
    e1d8:	48 8b 85 e0 e9 ff ff 	mov    -0x1620(%rbp),%rax
    e1df:	89 85 e8 e9 ff ff    	mov    %eax,-0x1618(%rbp)
    e1e5:	48 8b 85 e0 e9 ff ff 	mov    -0x1620(%rbp),%rax
    e1ec:	44 0f b7 f8          	movzwl %ax,%r15d
    e1f0:	48 8b 85 20 ed ff ff 	mov    -0x12e0(%rbp),%rax
    e1f7:	48 89 05 52 62 01 00 	mov    %rax,0x16252(%rip)        # 24450 <g_1668+0x10>
    e1fe:	48 8b 85 e0 e9 ff ff 	mov    -0x1620(%rbp),%rax
    e205:	89 85 d4 e9 ff ff    	mov    %eax,-0x162c(%rbp)
    e20b:	8b 85 ec e9 ff ff    	mov    -0x1614(%rbp),%eax
    e211:	89 c6                	mov    %eax,%esi
    e213:	bf 01 00 00 00       	mov    $0x1,%edi
    e218:	e8 d1 b0 ff ff       	callq  92ee <safe_lshift_func_int8_t_s_u>
    e21d:	0f b6 c0             	movzbl %al,%eax
    e220:	8b b5 d4 e9 ff ff    	mov    -0x162c(%rbp),%esi
    e226:	89 c7                	mov    %eax,%edi
    e228:	e8 d8 b9 ff ff       	callq  9c05 <safe_lshift_func_uint8_t_u_s>
    e22d:	0f b6 c0             	movzbl %al,%eax
    e230:	f7 d0                	not    %eax
    e232:	0f b7 c0             	movzwl %ax,%eax
    e235:	44 89 fe             	mov    %r15d,%esi
    e238:	89 c7                	mov    %eax,%edi
    e23a:	e8 c0 ba ff ff       	callq  9cff <safe_add_func_uint16_t_u_u>
    e23f:	0f b7 c0             	movzwl %ax,%eax
    e242:	8b b5 e8 e9 ff ff    	mov    -0x1618(%rbp),%esi
    e248:	89 c7                	mov    %eax,%edi
    e24a:	e8 69 bc ff ff       	callq  9eb8 <safe_add_func_uint32_t_u_u>
    e24f:	89 c0                	mov    %eax,%eax
    e251:	48 be d3 c5 b8 db 46 	movabs $0x774f6f46dbb8c5d3,%rsi
    e258:	6f 4f 77 
    e25b:	48 89 c7             	mov    %rax,%rdi
    e25e:	e8 45 b6 ff ff       	callq  98a8 <safe_sub_func_int64_t_s_s>
    e263:	be be 28 00 00       	mov    $0x28be,%esi
    e268:	bf 07 00 00 00       	mov    $0x7,%edi
    e26d:	e8 1c bb ff ff       	callq  9d8e <safe_div_func_uint16_t_u_u>
    e272:	8b 85 ec e9 ff ff    	mov    -0x1614(%rbp),%eax
    e278:	3d f9 ff 00 00       	cmp    $0xfff9,%eax
    e27d:	0f 97 c0             	seta   %al
    e280:	0f b6 c0             	movzbl %al,%eax
    e283:	44 89 f6             	mov    %r14d,%esi
    e286:	89 c7                	mov    %eax,%edi
    e288:	e8 06 b9 ff ff       	callq  9b93 <safe_mul_func_uint8_t_u_u>
    e28d:	84 c0                	test   %al,%al
    e28f:	74 11                	je     e2a2 <func_9+0x1587>
    e291:	8b 85 ec e9 ff ff    	mov    -0x1614(%rbp),%eax
    e297:	85 c0                	test   %eax,%eax
    e299:	74 07                	je     e2a2 <func_9+0x1587>
    e29b:	b8 01 00 00 00       	mov    $0x1,%eax
    e2a0:	eb 05                	jmp    e2a7 <func_9+0x158c>
    e2a2:	b8 00 00 00 00       	mov    $0x0,%eax
    e2a7:	8b b5 d8 e9 ff ff    	mov    -0x1628(%rbp),%esi
    e2ad:	89 c7                	mov    %eax,%edi
    e2af:	e8 1c bc ff ff       	callq  9ed0 <safe_sub_func_uint32_t_u_u>
    e2b4:	0f b6 c0             	movzbl %al,%eax
    e2b7:	44 89 ee             	mov    %r13d,%esi
    e2ba:	89 c7                	mov    %eax,%edi
    e2bc:	e8 fd b9 ff ff       	callq  9cbe <safe_rshift_func_uint8_t_u_u>
    e2c1:	84 c0                	test   %al,%al
    e2c3:	74 08                	je     e2cd <func_9+0x15b2>
    e2c5:	41 be 01 00 00 00    	mov    $0x1,%r14d
    e2cb:	eb 06                	jmp    e2d3 <func_9+0x15b8>
    e2cd:	41 be 00 00 00 00    	mov    $0x0,%r14d
    e2d3:	48 8b 85 48 eb ff ff 	mov    -0x14b8(%rbp),%rax
    e2da:	48 8b 00             	mov    (%rax),%rax
    e2dd:	48 85 c0             	test   %rax,%rax
    e2e0:	0f 95 c0             	setne  %al
    e2e3:	44 0f b6 e8          	movzbl %al,%r13d
    e2e7:	48 8b 05 02 61 01 00 	mov    0x16102(%rip),%rax        # 243f0 <g_1562>
    e2ee:	0f b6 00             	movzbl (%rax),%eax
    e2f1:	0f b6 d0             	movzbl %al,%edx
    e2f4:	8b 85 28 ea ff ff    	mov    -0x15d8(%rbp),%eax
    e2fa:	0f b6 c0             	movzbl %al,%eax
    e2fd:	89 d6                	mov    %edx,%esi
    e2ff:	89 c7                	mov    %eax,%edi
    e301:	e8 b8 b9 ff ff       	callq  9cbe <safe_rshift_func_uint8_t_u_u>
    e306:	0f b6 c0             	movzbl %al,%eax
    e309:	41 39 c5             	cmp    %eax,%r13d
    e30c:	0f 9c c0             	setl   %al
    e30f:	0f b6 c0             	movzbl %al,%eax
    e312:	44 89 f6             	mov    %r14d,%esi
    e315:	89 c7                	mov    %eax,%edi
    e317:	e8 9a b2 ff ff       	callq  95b6 <safe_add_func_int32_t_s_s>
    e31c:	ba 6e f0 ff ff       	mov    $0xfffff06e,%edx
    e321:	39 d0                	cmp    %edx,%eax
    e323:	0f 95 c0             	setne  %al
    e326:	0f b6 c0             	movzbl %al,%eax
    e329:	44 89 e6             	mov    %r12d,%esi
    e32c:	89 c7                	mov    %eax,%edi
    e32e:	e8 d3 ba ff ff       	callq  9e06 <safe_lshift_func_uint16_t_u_u>
    e333:	48 8b 05 16 60 01 00 	mov    0x16016(%rip),%rax        # 24350 <g_911>
    e33a:	66 c7 00 00 00       	movw   $0x0,(%rax)
    e33f:	0f b7 00             	movzwl (%rax),%eax
    e342:	0f b7 d0             	movzwl %ax,%edx
    e345:	8b 85 ec e9 ff ff    	mov    -0x1614(%rbp),%eax
    e34b:	39 c2                	cmp    %eax,%edx
    e34d:	0f 93 c0             	setae  %al
    e350:	0f b6 d0             	movzbl %al,%edx
    e353:	8b 85 ec e9 ff ff    	mov    -0x1614(%rbp),%eax
    e359:	39 c2                	cmp    %eax,%edx
    e35b:	0f 96 c0             	setbe  %al
    e35e:	0f b6 c0             	movzbl %al,%eax
    e361:	89 de                	mov    %ebx,%esi
    e363:	89 c7                	mov    %eax,%edi
    e365:	e8 69 b0 ff ff       	callq  93d3 <safe_sub_func_int16_t_s_s>
    e36a:	88 85 01 ea ff ff    	mov    %al,-0x15ff(%rbp)
    e370:	80 bd 01 ea ff ff 00 	cmpb   $0x0,-0x15ff(%rbp)
    e377:	0f 84 82 15 00 00    	je     f8ff <func_9+0x2be4>
    e37d:	48 8d 85 14 ea ff ff 	lea    -0x15ec(%rbp),%rax
    e384:	48 89 85 20 ec ff ff 	mov    %rax,-0x13e0(%rbp)
    e38b:	c7 85 88 ea ff ff 01 	movl   $0x1,-0x1578(%rbp)
    e392:	00 00 00 
    e395:	c7 85 8c ea ff ff 00 	movl   $0x0,-0x1574(%rbp)
    e39c:	00 00 00 
    e39f:	c7 85 90 ea ff ff b1 	movl   $0xab415bb1,-0x1570(%rbp)
    e3a6:	5b 41 ab 
    e3a9:	48 c7 85 28 ec ff ff 	movq   $0x0,-0x13d8(%rbp)
    e3b0:	00 00 00 00 
    e3b4:	48 8d 05 55 60 01 00 	lea    0x16055(%rip),%rax        # 24410 <g_1636+0x10>
    e3bb:	48 89 85 30 ec ff ff 	mov    %rax,-0x13d0(%rbp)
    e3c2:	c7 85 94 ea ff ff ac 	movl   $0x2e1ed7ac,-0x156c(%rbp)
    e3c9:	d7 1e 2e 
    e3cc:	66 c7 85 08 ea ff ff 	movw   $0xffff,-0x15f8(%rbp)
    e3d3:	ff ff 
    e3d5:	48 8b 05 b4 59 01 00 	mov    0x159b4(%rip),%rax        # 23d90 <g_165>
    e3dc:	48 8b 95 20 ec ff ff 	mov    -0x13e0(%rbp),%rdx
    e3e3:	48 89 10             	mov    %rdx,(%rax)
    e3e6:	80 85 00 ea ff ff 01 	addb   $0x1,-0x1600(%rbp)
    e3ed:	c6 05 9c fd 00 00 00 	movb   $0x0,0xfd9c(%rip)        # 1e190 <g_148>
    e3f4:	90                   	nop
    e3f5:	0f b6 05 94 fd 00 00 	movzbl 0xfd94(%rip),%eax        # 1e190 <g_148>
    e3fc:	3c fe                	cmp    $0xfe,%al
    e3fe:	74 1d                	je     e41d <func_9+0x1702>
    e400:	48 b8 1a f1 cb b8 b3 	movabs $0xf83876b3b8cbf11a,%rax
    e407:	76 38 f8 
    e40a:	48 89 85 80 ec ff ff 	mov    %rax,-0x1380(%rbp)
    e411:	48 8b 85 80 ec ff ff 	mov    -0x1380(%rbp),%rax
    e418:	e9 bd 19 00 00       	jmpq   fdda <func_9+0x30bf>
    e41d:	c7 05 51 1c 01 00 04 	movl   $0x4,0x11c51(%rip)        # 20078 <g_897>
    e424:	00 00 00 
    e427:	e9 c0 14 00 00       	jmpq   f8ec <func_9+0x2bd1>
    e42c:	48 c7 85 d8 ea ff ff 	movq   $0x1,-0x1528(%rbp)
    e433:	01 00 00 00 
    e437:	48 c7 85 e0 ea ff ff 	movq   $0x0,-0x1520(%rbp)
    e43e:	00 00 00 00 
    e442:	48 8d 85 e0 ea ff ff 	lea    -0x1520(%rbp),%rax
    e449:	48 89 85 38 ec ff ff 	mov    %rax,-0x13c8(%rbp)
    e450:	48 8d 05 31 fd 00 00 	lea    0xfd31(%rip),%rax        # 1e188 <g_147>
    e457:	48 89 85 e8 ea ff ff 	mov    %rax,-0x1518(%rbp)
    e45e:	48 8d 85 e8 ea ff ff 	lea    -0x1518(%rbp),%rax
    e465:	48 89 85 20 fa ff ff 	mov    %rax,-0x5e0(%rbp)
    e46c:	48 8d 05 5d 59 01 00 	lea    0x1595d(%rip),%rax        # 23dd0 <g_846>
    e473:	48 89 85 28 fa ff ff 	mov    %rax,-0x5d8(%rbp)
    e47a:	48 8d 85 e8 ea ff ff 	lea    -0x1518(%rbp),%rax
    e481:	48 89 85 30 fa ff ff 	mov    %rax,-0x5d0(%rbp)
    e488:	48 8d 05 41 59 01 00 	lea    0x15941(%rip),%rax        # 23dd0 <g_846>
    e48f:	48 89 85 38 fa ff ff 	mov    %rax,-0x5c8(%rbp)
    e496:	48 8d 85 e8 ea ff ff 	lea    -0x1518(%rbp),%rax
    e49d:	48 89 85 40 fa ff ff 	mov    %rax,-0x5c0(%rbp)
    e4a4:	48 8d 05 25 59 01 00 	lea    0x15925(%rip),%rax        # 23dd0 <g_846>
    e4ab:	48 89 85 48 fa ff ff 	mov    %rax,-0x5b8(%rbp)
    e4b2:	48 8d 05 17 59 01 00 	lea    0x15917(%rip),%rax        # 23dd0 <g_846>
    e4b9:	48 89 85 50 fa ff ff 	mov    %rax,-0x5b0(%rbp)
    e4c0:	48 c7 85 58 fa ff ff 	movq   $0x0,-0x5a8(%rbp)
    e4c7:	00 00 00 00 
    e4cb:	48 c7 85 60 fa ff ff 	movq   $0x0,-0x5a0(%rbp)
    e4d2:	00 00 00 00 
    e4d6:	48 8d 05 f3 58 01 00 	lea    0x158f3(%rip),%rax        # 23dd0 <g_846>
    e4dd:	48 89 85 68 fa ff ff 	mov    %rax,-0x598(%rbp)
    e4e4:	48 8d 05 e5 58 01 00 	lea    0x158e5(%rip),%rax        # 23dd0 <g_846>
    e4eb:	48 89 85 70 fa ff ff 	mov    %rax,-0x590(%rbp)
    e4f2:	48 8d 85 e8 ea ff ff 	lea    -0x1518(%rbp),%rax
    e4f9:	48 89 85 78 fa ff ff 	mov    %rax,-0x588(%rbp)
    e500:	48 8d 85 e8 ea ff ff 	lea    -0x1518(%rbp),%rax
    e507:	48 89 85 80 fa ff ff 	mov    %rax,-0x580(%rbp)
    e50e:	48 c7 85 88 fa ff ff 	movq   $0x0,-0x578(%rbp)
    e515:	00 00 00 00 
    e519:	48 8d 85 e8 ea ff ff 	lea    -0x1518(%rbp),%rax
    e520:	48 89 85 90 fa ff ff 	mov    %rax,-0x570(%rbp)
    e527:	48 8d 85 e8 ea ff ff 	lea    -0x1518(%rbp),%rax
    e52e:	48 89 85 98 fa ff ff 	mov    %rax,-0x568(%rbp)
    e535:	48 c7 85 a0 fa ff ff 	movq   $0x0,-0x560(%rbp)
    e53c:	00 00 00 00 
    e540:	48 8d 85 e8 ea ff ff 	lea    -0x1518(%rbp),%rax
    e547:	48 89 85 a8 fa ff ff 	mov    %rax,-0x558(%rbp)
    e54e:	48 8d 05 7b 58 01 00 	lea    0x1587b(%rip),%rax        # 23dd0 <g_846>
    e555:	48 89 85 b0 fa ff ff 	mov    %rax,-0x550(%rbp)
    e55c:	48 8d 85 e8 ea ff ff 	lea    -0x1518(%rbp),%rax
    e563:	48 89 85 b8 fa ff ff 	mov    %rax,-0x548(%rbp)
    e56a:	48 c7 85 c0 fa ff ff 	movq   $0x0,-0x540(%rbp)
    e571:	00 00 00 00 
    e575:	48 8d 05 54 58 01 00 	lea    0x15854(%rip),%rax        # 23dd0 <g_846>
    e57c:	48 89 85 c8 fa ff ff 	mov    %rax,-0x538(%rbp)
    e583:	48 8d 05 46 58 01 00 	lea    0x15846(%rip),%rax        # 23dd0 <g_846>
    e58a:	48 89 85 d0 fa ff ff 	mov    %rax,-0x530(%rbp)
    e591:	48 c7 85 d8 fa ff ff 	movq   $0x0,-0x528(%rbp)
    e598:	00 00 00 00 
    e59c:	48 8d 05 2d 58 01 00 	lea    0x1582d(%rip),%rax        # 23dd0 <g_846>
    e5a3:	48 89 85 e0 fa ff ff 	mov    %rax,-0x520(%rbp)
    e5aa:	48 8d 05 1f 58 01 00 	lea    0x1581f(%rip),%rax        # 23dd0 <g_846>
    e5b1:	48 89 85 e8 fa ff ff 	mov    %rax,-0x518(%rbp)
    e5b8:	48 8d 85 e8 ea ff ff 	lea    -0x1518(%rbp),%rax
    e5bf:	48 89 85 f0 fa ff ff 	mov    %rax,-0x510(%rbp)
    e5c6:	48 c7 85 f8 fa ff ff 	movq   $0x0,-0x508(%rbp)
    e5cd:	00 00 00 00 
    e5d1:	48 8d 05 f8 57 01 00 	lea    0x157f8(%rip),%rax        # 23dd0 <g_846>
    e5d8:	48 89 85 00 fb ff ff 	mov    %rax,-0x500(%rbp)
    e5df:	48 8d 05 ea 57 01 00 	lea    0x157ea(%rip),%rax        # 23dd0 <g_846>
    e5e6:	48 89 85 08 fb ff ff 	mov    %rax,-0x4f8(%rbp)
    e5ed:	48 8d 05 dc 57 01 00 	lea    0x157dc(%rip),%rax        # 23dd0 <g_846>
    e5f4:	48 89 85 10 fb ff ff 	mov    %rax,-0x4f0(%rbp)
    e5fb:	48 8d 85 e8 ea ff ff 	lea    -0x1518(%rbp),%rax
    e602:	48 89 85 18 fb ff ff 	mov    %rax,-0x4e8(%rbp)
    e609:	48 8d 05 c0 57 01 00 	lea    0x157c0(%rip),%rax        # 23dd0 <g_846>
    e610:	48 89 85 20 fb ff ff 	mov    %rax,-0x4e0(%rbp)
    e617:	48 c7 85 28 fb ff ff 	movq   $0x0,-0x4d8(%rbp)
    e61e:	00 00 00 00 
    e622:	48 8d 05 a7 57 01 00 	lea    0x157a7(%rip),%rax        # 23dd0 <g_846>
    e629:	48 89 85 30 fb ff ff 	mov    %rax,-0x4d0(%rbp)
    e630:	48 8d 05 99 57 01 00 	lea    0x15799(%rip),%rax        # 23dd0 <g_846>
    e637:	48 89 85 38 fb ff ff 	mov    %rax,-0x4c8(%rbp)
    e63e:	48 c7 85 40 fb ff ff 	movq   $0x0,-0x4c0(%rbp)
    e645:	00 00 00 00 
    e649:	48 c7 85 48 fb ff ff 	movq   $0x0,-0x4b8(%rbp)
    e650:	00 00 00 00 
    e654:	48 8d 05 75 57 01 00 	lea    0x15775(%rip),%rax        # 23dd0 <g_846>
    e65b:	48 89 85 50 fb ff ff 	mov    %rax,-0x4b0(%rbp)
    e662:	48 8d 85 e8 ea ff ff 	lea    -0x1518(%rbp),%rax
    e669:	48 89 85 58 fb ff ff 	mov    %rax,-0x4a8(%rbp)
    e670:	48 8d 05 59 57 01 00 	lea    0x15759(%rip),%rax        # 23dd0 <g_846>
    e677:	48 89 85 60 fb ff ff 	mov    %rax,-0x4a0(%rbp)
    e67e:	48 8d 85 e8 ea ff ff 	lea    -0x1518(%rbp),%rax
    e685:	48 89 85 68 fb ff ff 	mov    %rax,-0x498(%rbp)
    e68c:	48 8d 05 3d 57 01 00 	lea    0x1573d(%rip),%rax        # 23dd0 <g_846>
    e693:	48 89 85 70 fb ff ff 	mov    %rax,-0x490(%rbp)
    e69a:	48 8d 85 e8 ea ff ff 	lea    -0x1518(%rbp),%rax
    e6a1:	48 89 85 78 fb ff ff 	mov    %rax,-0x488(%rbp)
    e6a8:	48 c7 85 80 fb ff ff 	movq   $0x0,-0x480(%rbp)
    e6af:	00 00 00 00 
    e6b3:	48 8d 05 16 57 01 00 	lea    0x15716(%rip),%rax        # 23dd0 <g_846>
    e6ba:	48 89 85 88 fb ff ff 	mov    %rax,-0x478(%rbp)
    e6c1:	48 c7 85 90 fb ff ff 	movq   $0x0,-0x470(%rbp)
    e6c8:	00 00 00 00 
    e6cc:	48 8d 85 e8 ea ff ff 	lea    -0x1518(%rbp),%rax
    e6d3:	48 89 85 98 fb ff ff 	mov    %rax,-0x468(%rbp)
    e6da:	48 8d 85 e8 ea ff ff 	lea    -0x1518(%rbp),%rax
    e6e1:	48 89 85 a0 fb ff ff 	mov    %rax,-0x460(%rbp)
    e6e8:	48 8d 85 e8 ea ff ff 	lea    -0x1518(%rbp),%rax
    e6ef:	48 89 85 a8 fb ff ff 	mov    %rax,-0x458(%rbp)
    e6f6:	48 8d 85 e8 ea ff ff 	lea    -0x1518(%rbp),%rax
    e6fd:	48 89 85 b0 fb ff ff 	mov    %rax,-0x450(%rbp)
    e704:	48 8d 05 c5 56 01 00 	lea    0x156c5(%rip),%rax        # 23dd0 <g_846>
    e70b:	48 89 85 b8 fb ff ff 	mov    %rax,-0x448(%rbp)
    e712:	48 8d 85 e8 ea ff ff 	lea    -0x1518(%rbp),%rax
    e719:	48 89 85 c0 fb ff ff 	mov    %rax,-0x440(%rbp)
    e720:	48 8d 05 a9 56 01 00 	lea    0x156a9(%rip),%rax        # 23dd0 <g_846>
    e727:	48 89 85 c8 fb ff ff 	mov    %rax,-0x438(%rbp)
    e72e:	48 8d 05 9b 56 01 00 	lea    0x1569b(%rip),%rax        # 23dd0 <g_846>
    e735:	48 89 85 d0 fb ff ff 	mov    %rax,-0x430(%rbp)
    e73c:	48 c7 85 d8 fb ff ff 	movq   $0x0,-0x428(%rbp)
    e743:	00 00 00 00 
    e747:	48 8d 05 82 56 01 00 	lea    0x15682(%rip),%rax        # 23dd0 <g_846>
    e74e:	48 89 85 e0 fb ff ff 	mov    %rax,-0x420(%rbp)
    e755:	48 8d 85 e8 ea ff ff 	lea    -0x1518(%rbp),%rax
    e75c:	48 89 85 e8 fb ff ff 	mov    %rax,-0x418(%rbp)
    e763:	48 8d 85 e8 ea ff ff 	lea    -0x1518(%rbp),%rax
    e76a:	48 89 85 f0 fb ff ff 	mov    %rax,-0x410(%rbp)
    e771:	48 8d 05 58 56 01 00 	lea    0x15658(%rip),%rax        # 23dd0 <g_846>
    e778:	48 89 85 f8 fb ff ff 	mov    %rax,-0x408(%rbp)
    e77f:	48 8d 85 e8 ea ff ff 	lea    -0x1518(%rbp),%rax
    e786:	48 89 85 00 fc ff ff 	mov    %rax,-0x400(%rbp)
    e78d:	48 8d 05 3c 56 01 00 	lea    0x1563c(%rip),%rax        # 23dd0 <g_846>
    e794:	48 89 85 08 fc ff ff 	mov    %rax,-0x3f8(%rbp)
    e79b:	48 8d 05 2e 56 01 00 	lea    0x1562e(%rip),%rax        # 23dd0 <g_846>
    e7a2:	48 89 85 10 fc ff ff 	mov    %rax,-0x3f0(%rbp)
    e7a9:	48 8d 05 20 56 01 00 	lea    0x15620(%rip),%rax        # 23dd0 <g_846>
    e7b0:	48 89 85 18 fc ff ff 	mov    %rax,-0x3e8(%rbp)
    e7b7:	48 8d 05 12 56 01 00 	lea    0x15612(%rip),%rax        # 23dd0 <g_846>
    e7be:	48 89 85 20 fc ff ff 	mov    %rax,-0x3e0(%rbp)
    e7c5:	48 8d 05 04 56 01 00 	lea    0x15604(%rip),%rax        # 23dd0 <g_846>
    e7cc:	48 89 85 28 fc ff ff 	mov    %rax,-0x3d8(%rbp)
    e7d3:	48 8d 85 e8 ea ff ff 	lea    -0x1518(%rbp),%rax
    e7da:	48 89 85 30 fc ff ff 	mov    %rax,-0x3d0(%rbp)
    e7e1:	48 8d 85 e8 ea ff ff 	lea    -0x1518(%rbp),%rax
    e7e8:	48 89 85 38 fc ff ff 	mov    %rax,-0x3c8(%rbp)
    e7ef:	48 c7 85 40 fc ff ff 	movq   $0x0,-0x3c0(%rbp)
    e7f6:	00 00 00 00 
    e7fa:	48 c7 85 48 fc ff ff 	movq   $0x0,-0x3b8(%rbp)
    e801:	00 00 00 00 
    e805:	48 8d 05 c4 55 01 00 	lea    0x155c4(%rip),%rax        # 23dd0 <g_846>
    e80c:	48 89 85 50 fc ff ff 	mov    %rax,-0x3b0(%rbp)
    e813:	48 8d 05 b6 55 01 00 	lea    0x155b6(%rip),%rax        # 23dd0 <g_846>
    e81a:	48 89 85 58 fc ff ff 	mov    %rax,-0x3a8(%rbp)
    e821:	48 8d 85 e8 ea ff ff 	lea    -0x1518(%rbp),%rax
    e828:	48 89 85 60 fc ff ff 	mov    %rax,-0x3a0(%rbp)
    e82f:	48 c7 85 68 fc ff ff 	movq   $0x0,-0x398(%rbp)
    e836:	00 00 00 00 
    e83a:	48 8d 85 e8 ea ff ff 	lea    -0x1518(%rbp),%rax
    e841:	48 89 85 70 fc ff ff 	mov    %rax,-0x390(%rbp)
    e848:	48 c7 85 78 fc ff ff 	movq   $0x0,-0x388(%rbp)
    e84f:	00 00 00 00 
    e853:	48 8d 85 e8 ea ff ff 	lea    -0x1518(%rbp),%rax
    e85a:	48 89 85 80 fc ff ff 	mov    %rax,-0x380(%rbp)
    e861:	48 8d 05 68 55 01 00 	lea    0x15568(%rip),%rax        # 23dd0 <g_846>
    e868:	48 89 85 88 fc ff ff 	mov    %rax,-0x378(%rbp)
    e86f:	48 8d 05 5a 55 01 00 	lea    0x1555a(%rip),%rax        # 23dd0 <g_846>
    e876:	48 89 85 90 fc ff ff 	mov    %rax,-0x370(%rbp)
    e87d:	48 8d 05 4c 55 01 00 	lea    0x1554c(%rip),%rax        # 23dd0 <g_846>
    e884:	48 89 85 98 fc ff ff 	mov    %rax,-0x368(%rbp)
    e88b:	48 8d 05 3e 55 01 00 	lea    0x1553e(%rip),%rax        # 23dd0 <g_846>
    e892:	48 89 85 a0 fc ff ff 	mov    %rax,-0x360(%rbp)
    e899:	48 8d 05 30 55 01 00 	lea    0x15530(%rip),%rax        # 23dd0 <g_846>
    e8a0:	48 89 85 a8 fc ff ff 	mov    %rax,-0x358(%rbp)
    e8a7:	48 8d 85 e8 ea ff ff 	lea    -0x1518(%rbp),%rax
    e8ae:	48 89 85 b0 fc ff ff 	mov    %rax,-0x350(%rbp)
    e8b5:	48 8d 05 14 55 01 00 	lea    0x15514(%rip),%rax        # 23dd0 <g_846>
    e8bc:	48 89 85 b8 fc ff ff 	mov    %rax,-0x348(%rbp)
    e8c3:	48 8d 05 06 55 01 00 	lea    0x15506(%rip),%rax        # 23dd0 <g_846>
    e8ca:	48 89 85 c0 fc ff ff 	mov    %rax,-0x340(%rbp)
    e8d1:	48 8d 05 f8 54 01 00 	lea    0x154f8(%rip),%rax        # 23dd0 <g_846>
    e8d8:	48 89 85 c8 fc ff ff 	mov    %rax,-0x338(%rbp)
    e8df:	48 8d 85 e8 ea ff ff 	lea    -0x1518(%rbp),%rax
    e8e6:	48 89 85 d0 fc ff ff 	mov    %rax,-0x330(%rbp)
    e8ed:	48 8d 05 dc 54 01 00 	lea    0x154dc(%rip),%rax        # 23dd0 <g_846>
    e8f4:	48 89 85 d8 fc ff ff 	mov    %rax,-0x328(%rbp)
    e8fb:	48 8d 05 ce 54 01 00 	lea    0x154ce(%rip),%rax        # 23dd0 <g_846>
    e902:	48 89 85 e0 fc ff ff 	mov    %rax,-0x320(%rbp)
    e909:	48 8d 05 c0 54 01 00 	lea    0x154c0(%rip),%rax        # 23dd0 <g_846>
    e910:	48 89 85 e8 fc ff ff 	mov    %rax,-0x318(%rbp)
    e917:	48 8d 85 e8 ea ff ff 	lea    -0x1518(%rbp),%rax
    e91e:	48 89 85 f0 fc ff ff 	mov    %rax,-0x310(%rbp)
    e925:	48 8d 85 e8 ea ff ff 	lea    -0x1518(%rbp),%rax
    e92c:	48 89 85 f8 fc ff ff 	mov    %rax,-0x308(%rbp)
    e933:	48 8d 05 96 54 01 00 	lea    0x15496(%rip),%rax        # 23dd0 <g_846>
    e93a:	48 89 85 00 fd ff ff 	mov    %rax,-0x300(%rbp)
    e941:	48 8d 05 88 54 01 00 	lea    0x15488(%rip),%rax        # 23dd0 <g_846>
    e948:	48 89 85 08 fd ff ff 	mov    %rax,-0x2f8(%rbp)
    e94f:	48 c7 85 10 fd ff ff 	movq   $0x0,-0x2f0(%rbp)
    e956:	00 00 00 00 
    e95a:	48 8d 05 6f 54 01 00 	lea    0x1546f(%rip),%rax        # 23dd0 <g_846>
    e961:	48 89 85 18 fd ff ff 	mov    %rax,-0x2e8(%rbp)
    e968:	48 8d 85 e8 ea ff ff 	lea    -0x1518(%rbp),%rax
    e96f:	48 89 85 20 fd ff ff 	mov    %rax,-0x2e0(%rbp)
    e976:	48 8d 05 53 54 01 00 	lea    0x15453(%rip),%rax        # 23dd0 <g_846>
    e97d:	48 89 85 28 fd ff ff 	mov    %rax,-0x2d8(%rbp)
    e984:	48 8d 05 45 54 01 00 	lea    0x15445(%rip),%rax        # 23dd0 <g_846>
    e98b:	48 89 85 30 fd ff ff 	mov    %rax,-0x2d0(%rbp)
    e992:	48 8d 85 e8 ea ff ff 	lea    -0x1518(%rbp),%rax
    e999:	48 89 85 38 fd ff ff 	mov    %rax,-0x2c8(%rbp)
    e9a0:	48 8d 85 e8 ea ff ff 	lea    -0x1518(%rbp),%rax
    e9a7:	48 89 85 40 fd ff ff 	mov    %rax,-0x2c0(%rbp)
    e9ae:	48 8d 85 e8 ea ff ff 	lea    -0x1518(%rbp),%rax
    e9b5:	48 89 85 48 fd ff ff 	mov    %rax,-0x2b8(%rbp)
    e9bc:	48 8d 05 0d 54 01 00 	lea    0x1540d(%rip),%rax        # 23dd0 <g_846>
    e9c3:	48 89 85 50 fd ff ff 	mov    %rax,-0x2b0(%rbp)
    e9ca:	48 8d 05 ff 53 01 00 	lea    0x153ff(%rip),%rax        # 23dd0 <g_846>
    e9d1:	48 89 85 58 fd ff ff 	mov    %rax,-0x2a8(%rbp)
    e9d8:	48 8d 05 f1 53 01 00 	lea    0x153f1(%rip),%rax        # 23dd0 <g_846>
    e9df:	48 89 85 60 fd ff ff 	mov    %rax,-0x2a0(%rbp)
    e9e6:	48 8d 05 e3 53 01 00 	lea    0x153e3(%rip),%rax        # 23dd0 <g_846>
    e9ed:	48 89 85 68 fd ff ff 	mov    %rax,-0x298(%rbp)
    e9f4:	48 8d 85 e8 ea ff ff 	lea    -0x1518(%rbp),%rax
    e9fb:	48 89 85 70 fd ff ff 	mov    %rax,-0x290(%rbp)
    ea02:	48 8d 05 c7 53 01 00 	lea    0x153c7(%rip),%rax        # 23dd0 <g_846>
    ea09:	48 89 85 78 fd ff ff 	mov    %rax,-0x288(%rbp)
    ea10:	48 8d 85 e8 ea ff ff 	lea    -0x1518(%rbp),%rax
    ea17:	48 89 85 80 fd ff ff 	mov    %rax,-0x280(%rbp)
    ea1e:	48 8d 05 ab 53 01 00 	lea    0x153ab(%rip),%rax        # 23dd0 <g_846>
    ea25:	48 89 85 88 fd ff ff 	mov    %rax,-0x278(%rbp)
    ea2c:	48 8d 85 e8 ea ff ff 	lea    -0x1518(%rbp),%rax
    ea33:	48 89 85 90 fd ff ff 	mov    %rax,-0x270(%rbp)
    ea3a:	48 8d 85 e8 ea ff ff 	lea    -0x1518(%rbp),%rax
    ea41:	48 89 85 98 fd ff ff 	mov    %rax,-0x268(%rbp)
    ea48:	48 8d 85 e8 ea ff ff 	lea    -0x1518(%rbp),%rax
    ea4f:	48 89 85 a0 fd ff ff 	mov    %rax,-0x260(%rbp)
    ea56:	48 8d 85 e8 ea ff ff 	lea    -0x1518(%rbp),%rax
    ea5d:	48 89 85 a8 fd ff ff 	mov    %rax,-0x258(%rbp)
    ea64:	48 8d 85 e8 ea ff ff 	lea    -0x1518(%rbp),%rax
    ea6b:	48 89 85 b0 fd ff ff 	mov    %rax,-0x250(%rbp)
    ea72:	48 8d 85 e8 ea ff ff 	lea    -0x1518(%rbp),%rax
    ea79:	48 89 85 b8 fd ff ff 	mov    %rax,-0x248(%rbp)
    ea80:	48 8d 85 e8 ea ff ff 	lea    -0x1518(%rbp),%rax
    ea87:	48 89 85 c0 fd ff ff 	mov    %rax,-0x240(%rbp)
    ea8e:	48 8d 05 3b 53 01 00 	lea    0x1533b(%rip),%rax        # 23dd0 <g_846>
    ea95:	48 89 85 c8 fd ff ff 	mov    %rax,-0x238(%rbp)
    ea9c:	48 8d 05 2d 53 01 00 	lea    0x1532d(%rip),%rax        # 23dd0 <g_846>
    eaa3:	48 89 85 d0 fd ff ff 	mov    %rax,-0x230(%rbp)
    eaaa:	48 c7 85 d8 fd ff ff 	movq   $0x0,-0x228(%rbp)
    eab1:	00 00 00 00 
    eab5:	48 c7 85 e0 fd ff ff 	movq   $0x0,-0x220(%rbp)
    eabc:	00 00 00 00 
    eac0:	48 8d 05 09 53 01 00 	lea    0x15309(%rip),%rax        # 23dd0 <g_846>
    eac7:	48 89 85 e8 fd ff ff 	mov    %rax,-0x218(%rbp)
    eace:	48 8d 05 fb 52 01 00 	lea    0x152fb(%rip),%rax        # 23dd0 <g_846>
    ead5:	48 89 85 f0 fd ff ff 	mov    %rax,-0x210(%rbp)
    eadc:	48 8d 85 e8 ea ff ff 	lea    -0x1518(%rbp),%rax
    eae3:	48 89 85 f8 fd ff ff 	mov    %rax,-0x208(%rbp)
    eaea:	48 c7 85 00 fe ff ff 	movq   $0x0,-0x200(%rbp)
    eaf1:	00 00 00 00 
    eaf5:	48 8d 05 d4 52 01 00 	lea    0x152d4(%rip),%rax        # 23dd0 <g_846>
    eafc:	48 89 85 08 fe ff ff 	mov    %rax,-0x1f8(%rbp)
    eb03:	48 8d 05 c6 52 01 00 	lea    0x152c6(%rip),%rax        # 23dd0 <g_846>
    eb0a:	48 89 85 10 fe ff ff 	mov    %rax,-0x1f0(%rbp)
    eb11:	48 8d 05 b8 52 01 00 	lea    0x152b8(%rip),%rax        # 23dd0 <g_846>
    eb18:	48 89 85 18 fe ff ff 	mov    %rax,-0x1e8(%rbp)
    eb1f:	48 c7 85 20 fe ff ff 	movq   $0x0,-0x1e0(%rbp)
    eb26:	00 00 00 00 
    eb2a:	48 8d 85 e8 ea ff ff 	lea    -0x1518(%rbp),%rax
    eb31:	48 89 85 28 fe ff ff 	mov    %rax,-0x1d8(%rbp)
    eb38:	48 8d 05 91 52 01 00 	lea    0x15291(%rip),%rax        # 23dd0 <g_846>
    eb3f:	48 89 85 30 fe ff ff 	mov    %rax,-0x1d0(%rbp)
    eb46:	48 8d 85 e8 ea ff ff 	lea    -0x1518(%rbp),%rax
    eb4d:	48 89 85 38 fe ff ff 	mov    %rax,-0x1c8(%rbp)
    eb54:	48 8d 05 75 52 01 00 	lea    0x15275(%rip),%rax        # 23dd0 <g_846>
    eb5b:	48 89 85 40 fe ff ff 	mov    %rax,-0x1c0(%rbp)
    eb62:	48 8d 05 67 52 01 00 	lea    0x15267(%rip),%rax        # 23dd0 <g_846>
    eb69:	48 89 85 48 fe ff ff 	mov    %rax,-0x1b8(%rbp)
    eb70:	48 8d 05 59 52 01 00 	lea    0x15259(%rip),%rax        # 23dd0 <g_846>
    eb77:	48 89 85 50 fe ff ff 	mov    %rax,-0x1b0(%rbp)
    eb7e:	48 8d 85 e8 ea ff ff 	lea    -0x1518(%rbp),%rax
    eb85:	48 89 85 58 fe ff ff 	mov    %rax,-0x1a8(%rbp)
    eb8c:	48 8d 85 e8 ea ff ff 	lea    -0x1518(%rbp),%rax
    eb93:	48 89 85 60 fe ff ff 	mov    %rax,-0x1a0(%rbp)
    eb9a:	48 c7 85 68 fe ff ff 	movq   $0x0,-0x198(%rbp)
    eba1:	00 00 00 00 
    eba5:	48 8d 85 e8 ea ff ff 	lea    -0x1518(%rbp),%rax
    ebac:	48 89 85 70 fe ff ff 	mov    %rax,-0x190(%rbp)
    ebb3:	48 8d 85 e8 ea ff ff 	lea    -0x1518(%rbp),%rax
    ebba:	48 89 85 78 fe ff ff 	mov    %rax,-0x188(%rbp)
    ebc1:	48 8d 05 08 52 01 00 	lea    0x15208(%rip),%rax        # 23dd0 <g_846>
    ebc8:	48 89 85 80 fe ff ff 	mov    %rax,-0x180(%rbp)
    ebcf:	48 8d 05 fa 51 01 00 	lea    0x151fa(%rip),%rax        # 23dd0 <g_846>
    ebd6:	48 89 85 88 fe ff ff 	mov    %rax,-0x178(%rbp)
    ebdd:	48 8d 05 ec 51 01 00 	lea    0x151ec(%rip),%rax        # 23dd0 <g_846>
    ebe4:	48 89 85 90 fe ff ff 	mov    %rax,-0x170(%rbp)
    ebeb:	48 8d 05 de 51 01 00 	lea    0x151de(%rip),%rax        # 23dd0 <g_846>
    ebf2:	48 89 85 98 fe ff ff 	mov    %rax,-0x168(%rbp)
    ebf9:	48 8d 05 d0 51 01 00 	lea    0x151d0(%rip),%rax        # 23dd0 <g_846>
    ec00:	48 89 85 a0 fe ff ff 	mov    %rax,-0x160(%rbp)
    ec07:	48 8d 85 e8 ea ff ff 	lea    -0x1518(%rbp),%rax
    ec0e:	48 89 85 a8 fe ff ff 	mov    %rax,-0x158(%rbp)
    ec15:	48 c7 85 b0 fe ff ff 	movq   $0x0,-0x150(%rbp)
    ec1c:	00 00 00 00 
    ec20:	48 8d 85 e8 ea ff ff 	lea    -0x1518(%rbp),%rax
    ec27:	48 89 85 b8 fe ff ff 	mov    %rax,-0x148(%rbp)
    ec2e:	48 8d 05 9b 51 01 00 	lea    0x1519b(%rip),%rax        # 23dd0 <g_846>
    ec35:	48 89 85 c0 fe ff ff 	mov    %rax,-0x140(%rbp)
    ec3c:	48 c7 85 c8 fe ff ff 	movq   $0x0,-0x138(%rbp)
    ec43:	00 00 00 00 
    ec47:	48 8d 05 82 51 01 00 	lea    0x15182(%rip),%rax        # 23dd0 <g_846>
    ec4e:	48 89 85 d0 fe ff ff 	mov    %rax,-0x130(%rbp)
    ec55:	48 8d 85 e8 ea ff ff 	lea    -0x1518(%rbp),%rax
    ec5c:	48 89 85 d8 fe ff ff 	mov    %rax,-0x128(%rbp)
    ec63:	48 8d 05 66 51 01 00 	lea    0x15166(%rip),%rax        # 23dd0 <g_846>
    ec6a:	48 89 85 e0 fe ff ff 	mov    %rax,-0x120(%rbp)
    ec71:	48 c7 85 e8 fe ff ff 	movq   $0x0,-0x118(%rbp)
    ec78:	00 00 00 00 
    ec7c:	48 8d 85 e8 ea ff ff 	lea    -0x1518(%rbp),%rax
    ec83:	48 89 85 f0 fe ff ff 	mov    %rax,-0x110(%rbp)
    ec8a:	48 8d 85 e8 ea ff ff 	lea    -0x1518(%rbp),%rax
    ec91:	48 89 85 f8 fe ff ff 	mov    %rax,-0x108(%rbp)
    ec98:	48 8d 85 e8 ea ff ff 	lea    -0x1518(%rbp),%rax
    ec9f:	48 89 85 00 ff ff ff 	mov    %rax,-0x100(%rbp)
    eca6:	48 8d 85 e8 ea ff ff 	lea    -0x1518(%rbp),%rax
    ecad:	48 89 85 08 ff ff ff 	mov    %rax,-0xf8(%rbp)
    ecb4:	48 8d 85 e8 ea ff ff 	lea    -0x1518(%rbp),%rax
    ecbb:	48 89 85 10 ff ff ff 	mov    %rax,-0xf0(%rbp)
    ecc2:	48 8d 85 e8 ea ff ff 	lea    -0x1518(%rbp),%rax
    ecc9:	48 89 85 18 ff ff ff 	mov    %rax,-0xe8(%rbp)
    ecd0:	48 8d 85 e8 ea ff ff 	lea    -0x1518(%rbp),%rax
    ecd7:	48 89 85 20 ff ff ff 	mov    %rax,-0xe0(%rbp)
    ecde:	48 c7 85 28 ff ff ff 	movq   $0x0,-0xd8(%rbp)
    ece5:	00 00 00 00 
    ece9:	48 8d 05 e0 50 01 00 	lea    0x150e0(%rip),%rax        # 23dd0 <g_846>
    ecf0:	48 89 85 30 ff ff ff 	mov    %rax,-0xd0(%rbp)
    ecf7:	48 8d 85 e8 ea ff ff 	lea    -0x1518(%rbp),%rax
    ecfe:	48 89 85 38 ff ff ff 	mov    %rax,-0xc8(%rbp)
    ed05:	48 8d 05 c4 50 01 00 	lea    0x150c4(%rip),%rax        # 23dd0 <g_846>
    ed0c:	48 89 85 40 ff ff ff 	mov    %rax,-0xc0(%rbp)
    ed13:	48 8d 05 b6 50 01 00 	lea    0x150b6(%rip),%rax        # 23dd0 <g_846>
    ed1a:	48 89 85 48 ff ff ff 	mov    %rax,-0xb8(%rbp)
    ed21:	48 c7 85 50 ff ff ff 	movq   $0x0,-0xb0(%rbp)
    ed28:	00 00 00 00 
    ed2c:	48 8d 05 9d 50 01 00 	lea    0x1509d(%rip),%rax        # 23dd0 <g_846>
    ed33:	48 89 85 58 ff ff ff 	mov    %rax,-0xa8(%rbp)
    ed3a:	48 c7 85 60 ff ff ff 	movq   $0x0,-0xa0(%rbp)
    ed41:	00 00 00 00 
    ed45:	48 8d 05 84 50 01 00 	lea    0x15084(%rip),%rax        # 23dd0 <g_846>
    ed4c:	48 89 85 68 ff ff ff 	mov    %rax,-0x98(%rbp)
    ed53:	48 8d 05 76 50 01 00 	lea    0x15076(%rip),%rax        # 23dd0 <g_846>
    ed5a:	48 89 85 70 ff ff ff 	mov    %rax,-0x90(%rbp)
    ed61:	48 8d 85 e8 ea ff ff 	lea    -0x1518(%rbp),%rax
    ed68:	48 89 85 78 ff ff ff 	mov    %rax,-0x88(%rbp)
    ed6f:	48 8d 05 5a 50 01 00 	lea    0x1505a(%rip),%rax        # 23dd0 <g_846>
    ed76:	48 89 45 80          	mov    %rax,-0x80(%rbp)
    ed7a:	48 c7 45 88 00 00 00 	movq   $0x0,-0x78(%rbp)
    ed81:	00 
    ed82:	48 8d 85 e8 ea ff ff 	lea    -0x1518(%rbp),%rax
    ed89:	48 89 45 90          	mov    %rax,-0x70(%rbp)
    ed8d:	48 8d 85 e8 ea ff ff 	lea    -0x1518(%rbp),%rax
    ed94:	48 89 45 98          	mov    %rax,-0x68(%rbp)
    ed98:	48 8d 85 e8 ea ff ff 	lea    -0x1518(%rbp),%rax
    ed9f:	48 89 45 a0          	mov    %rax,-0x60(%rbp)
    eda3:	48 8d 85 e8 ea ff ff 	lea    -0x1518(%rbp),%rax
    edaa:	48 89 45 a8          	mov    %rax,-0x58(%rbp)
    edae:	48 8d 85 e8 ea ff ff 	lea    -0x1518(%rbp),%rax
    edb5:	48 89 45 b0          	mov    %rax,-0x50(%rbp)
    edb9:	48 8d 85 e8 ea ff ff 	lea    -0x1518(%rbp),%rax
    edc0:	48 89 45 b8          	mov    %rax,-0x48(%rbp)
    edc4:	48 8d 05 0d 50 01 00 	lea    0x1500d(%rip),%rax        # 23dd8 <g_845>
    edcb:	48 89 85 f0 ea ff ff 	mov    %rax,-0x1510(%rbp)
    edd2:	48 8d 85 f0 ea ff ff 	lea    -0x1510(%rbp),%rax
    edd9:	48 89 85 b0 ed ff ff 	mov    %rax,-0x1250(%rbp)
    ede0:	48 8d 85 f0 ea ff ff 	lea    -0x1510(%rbp),%rax
    ede7:	48 89 85 b8 ed ff ff 	mov    %rax,-0x1248(%rbp)
    edee:	48 8d 85 f0 ea ff ff 	lea    -0x1510(%rbp),%rax
    edf5:	48 89 85 c0 ed ff ff 	mov    %rax,-0x1240(%rbp)
    edfc:	48 8d 85 f0 ea ff ff 	lea    -0x1510(%rbp),%rax
    ee03:	48 89 85 c8 ed ff ff 	mov    %rax,-0x1238(%rbp)
    ee0a:	48 8d 85 f0 ea ff ff 	lea    -0x1510(%rbp),%rax
    ee11:	48 89 85 d0 ed ff ff 	mov    %rax,-0x1230(%rbp)
    ee18:	48 8d 85 f0 ea ff ff 	lea    -0x1510(%rbp),%rax
    ee1f:	48 89 85 d8 ed ff ff 	mov    %rax,-0x1228(%rbp)
    ee26:	48 8d 85 f0 ea ff ff 	lea    -0x1510(%rbp),%rax
    ee2d:	48 89 85 e0 ed ff ff 	mov    %rax,-0x1220(%rbp)
    ee34:	48 8d 85 f0 ea ff ff 	lea    -0x1510(%rbp),%rax
    ee3b:	48 89 85 e8 ed ff ff 	mov    %rax,-0x1218(%rbp)
    ee42:	48 8d 85 f0 ea ff ff 	lea    -0x1510(%rbp),%rax
    ee49:	48 89 85 f0 ed ff ff 	mov    %rax,-0x1210(%rbp)
    ee50:	48 8d 85 f0 ea ff ff 	lea    -0x1510(%rbp),%rax
    ee57:	48 89 85 f8 ed ff ff 	mov    %rax,-0x1208(%rbp)
    ee5e:	48 c7 85 f8 ea ff ff 	movq   $0x0,-0x1508(%rbp)
    ee65:	00 00 00 00 
    ee69:	48 8d 05 60 5a 01 00 	lea    0x15a60(%rip),%rax        # 248d0 <g_270>
    ee70:	48 89 85 40 ec ff ff 	mov    %rax,-0x13c0(%rbp)
    ee77:	66 c7 85 0e ea ff ff 	movw   $0x1,-0x15f2(%rbp)
    ee7e:	01 00 
    ee80:	c7 85 98 ea ff ff 01 	movl   $0x1,-0x1568(%rbp)
    ee87:	00 00 00 
    ee8a:	8b 85 ec e9 ff ff    	mov    -0x1614(%rbp),%eax
    ee90:	85 c0                	test   %eax,%eax
    ee92:	0f 85 37 0f 00 00    	jne    fdcf <func_9+0x30b4>
    ee98:	48 8b 85 20 ec ff ff 	mov    -0x13e0(%rbp),%rax
    ee9f:	8b 00                	mov    (%rax),%eax
    eea1:	85 c0                	test   %eax,%eax
    eea3:	0f 85 33 0a 00 00    	jne    f8dc <func_9+0x2bc1>
    eea9:	48 8b 85 e0 e9 ff ff 	mov    -0x1620(%rbp),%rax
    eeb0:	0f b6 d8             	movzbl %al,%ebx
    eeb3:	48 8b 85 d8 ea ff ff 	mov    -0x1528(%rbp),%rax
    eeba:	0f b6 d0             	movzbl %al,%edx
    eebd:	48 8b 85 38 ec ff ff 	mov    -0x13c8(%rbp),%rax
    eec4:	48 8d 8d d8 ea ff ff 	lea    -0x1528(%rbp),%rcx
    eecb:	48 89 08             	mov    %rcx,(%rax)
    eece:	48 8b 85 38 ec ff ff 	mov    -0x13c8(%rbp),%rax
    eed5:	48 8b 00             	mov    (%rax),%rax
    eed8:	48 89 05 a1 55 01 00 	mov    %rax,0x155a1(%rip)        # 24480 <g_1702>
    eedf:	48 8b 05 0a 55 01 00 	mov    0x1550a(%rip),%rax        # 243f0 <g_1562>
    eee6:	0f b6 00             	movzbl (%rax),%eax
    eee9:	0f b6 c0             	movzbl %al,%eax
    eeec:	89 d6                	mov    %edx,%esi
    eeee:	89 c7                	mov    %eax,%edi
    eef0:	e8 e6 ac ff ff       	callq  9bdb <safe_div_func_uint8_t_u_u>
    eef5:	0f b6 d0             	movzbl %al,%edx
    eef8:	48 8b 85 d8 ea ff ff 	mov    -0x1528(%rbp),%rax
    eeff:	48 39 c2             	cmp    %rax,%rdx
    ef02:	0f 9e c0             	setle  %al
    ef05:	0f b6 d0             	movzbl %al,%edx
    ef08:	48 8b 05 a9 4e 01 00 	mov    0x14ea9(%rip),%rax        # 23db8 <g_564>
    ef0f:	48 8b 00             	mov    (%rax),%rax
    ef12:	8b 00                	mov    (%rax),%eax
    ef14:	39 c2                	cmp    %eax,%edx
    ef16:	0f 95 c0             	setne  %al
    ef19:	0f b6 c0             	movzbl %al,%eax
    ef1c:	be fd ff ff ff       	mov    $0xfffffffd,%esi
    ef21:	89 c7                	mov    %eax,%edi
    ef23:	e8 ea a2 ff ff       	callq  9212 <safe_mul_func_int8_t_s_s>
    ef28:	48 8b 05 91 4e 01 00 	mov    0x14e91(%rip),%rax        # 23dc0 <g_608>
    ef2f:	8b 00                	mov    (%rax),%eax
    ef31:	83 f8 01             	cmp    $0x1,%eax
    ef34:	0f 97 c0             	seta   %al
    ef37:	89 c2                	mov    %eax,%edx
    ef39:	48 8b 85 e0 e9 ff ff 	mov    -0x1620(%rbp),%rax
    ef40:	31 d0                	xor    %edx,%eax
    ef42:	0f b6 c0             	movzbl %al,%eax
    ef45:	89 de                	mov    %ebx,%esi
    ef47:	89 c7                	mov    %eax,%edi
    ef49:	e8 8d ac ff ff       	callq  9bdb <safe_div_func_uint8_t_u_u>
    ef4e:	0f b6 c0             	movzbl %al,%eax
    ef51:	48 8b 95 20 ec ff ff 	mov    -0x13e0(%rbp),%rdx
    ef58:	8b 0a                	mov    (%rdx),%ecx
    ef5a:	48 8b 15 6f 4e 01 00 	mov    0x14e6f(%rip),%rdx        # 23dd0 <g_846>
    ef61:	48 8b 12             	mov    (%rdx),%rdx
    ef64:	09 d1                	or     %edx,%ecx
    ef66:	48 8b 95 20 ec ff ff 	mov    -0x13e0(%rbp),%rdx
    ef6d:	89 0a                	mov    %ecx,(%rdx)
    ef6f:	48 89 c6             	mov    %rax,%rsi
    ef72:	bf 00 00 00 00       	mov    $0x0,%edi
    ef77:	e8 2c a9 ff ff       	callq  98a8 <safe_sub_func_int64_t_s_s>
    ef7c:	48 85 c0             	test   %rax,%rax
    ef7f:	75 0e                	jne    ef8f <func_9+0x2274>
    ef81:	8b 85 ec e9 ff ff    	mov    -0x1614(%rbp),%eax
    ef87:	85 c0                	test   %eax,%eax
    ef89:	0f 84 71 01 00 00    	je     f100 <func_9+0x23e5>
    ef8f:	48 8d 05 42 4e 01 00 	lea    0x14e42(%rip),%rax        # 23dd8 <g_845>
    ef96:	48 89 85 08 eb ff ff 	mov    %rax,-0x14f8(%rbp)
    ef9d:	48 8d 85 08 eb ff ff 	lea    -0x14f8(%rbp),%rax
    efa4:	48 89 85 48 ec ff ff 	mov    %rax,-0x13b8(%rbp)
    efab:	c7 85 a0 ea ff ff 4b 	movl   $0xb870264b,-0x1560(%rbp)
    efb2:	26 70 b8 
    efb5:	c7 05 31 01 01 00 00 	movl   $0x0,0x10131(%rip)        # 1f0f0 <g_538>
    efbc:	00 00 00 
    efbf:	90                   	nop
    efc0:	8b 05 2a 01 01 00    	mov    0x1012a(%rip),%eax        # 1f0f0 <g_538>
    efc6:	83 f8 04             	cmp    $0x4,%eax
    efc9:	77 30                	ja     effb <func_9+0x22e0>
    efcb:	48 83 bd 28 ec ff ff 	cmpq   $0x0,-0x13d8(%rbp)
    efd2:	00 
    efd3:	0f 94 c0             	sete   %al
    efd6:	0f b6 c0             	movzbl %al,%eax
    efd9:	48 39 85 e0 e9 ff ff 	cmp    %rax,-0x1620(%rbp)
    efe0:	74 0e                	je     eff0 <func_9+0x22d5>
    efe2:	48 8b 05 d7 4d 01 00 	mov    0x14dd7(%rip),%rax        # 23dc0 <g_608>
    efe9:	8b 00                	mov    (%rax),%eax
    efeb:	e9 ea 0d 00 00       	jmpq   fdda <func_9+0x30bf>
    eff0:	8b 85 ec e9 ff ff    	mov    -0x1614(%rbp),%eax
    eff6:	e9 df 0d 00 00       	jmpq   fdda <func_9+0x30bf>
    effb:	48 8b 05 8e 54 01 00 	mov    0x1548e(%rip),%rax        # 24490 <g_1706>
    f002:	48 8b 95 30 ec ff ff 	mov    -0x13d0(%rbp),%rdx
    f009:	48 89 10             	mov    %rdx,(%rax)
    f00c:	8b 85 a0 ea ff ff    	mov    -0x1560(%rbp),%eax
    f012:	44 0f bf e0          	movswl %ax,%r12d
    f016:	8b 05 64 01 01 00    	mov    0x10164(%rip),%eax        # 1f180 <g_748+0x60>
    f01c:	0f b6 d8             	movzbl %al,%ebx
    f01f:	8b 85 ec e9 ff ff    	mov    -0x1614(%rbp),%eax
    f025:	41 89 c6             	mov    %eax,%r14d
    f028:	48 8b 85 e0 ed ff ff 	mov    -0x1220(%rbp),%rax
    f02f:	48 39 85 48 ec ff ff 	cmp    %rax,-0x13b8(%rbp)
    f036:	48 8b 85 20 ec ff ff 	mov    -0x13e0(%rbp),%rax
    f03d:	44 8b 28             	mov    (%rax),%r13d
    f040:	48 8b 85 f8 ea ff ff 	mov    -0x1508(%rbp),%rax
    f047:	48 85 c0             	test   %rax,%rax
    f04a:	0f 94 c0             	sete   %al
    f04d:	0f b6 d0             	movzbl %al,%edx
    f050:	8b 85 ec e9 ff ff    	mov    -0x1614(%rbp),%eax
    f056:	34 8f                	xor    $0x8f,%al
    f058:	98                   	cwtl   
    f059:	89 d6                	mov    %edx,%esi
    f05b:	89 c7                	mov    %eax,%edi
    f05d:	e8 71 a3 ff ff       	callq  93d3 <safe_sub_func_int16_t_s_s>
    f062:	0f be c0             	movsbl %al,%eax
    f065:	89 c6                	mov    %eax,%esi
    f067:	bf 00 00 00 00       	mov    $0x0,%edi
    f06c:	e8 a1 a1 ff ff       	callq  9212 <safe_mul_func_int8_t_s_s>
    f071:	66 98                	cbtw   
    f073:	0f b7 c0             	movzwl %ax,%eax
    f076:	44 89 ee             	mov    %r13d,%esi
    f079:	89 c7                	mov    %eax,%edi
    f07b:	e8 3e ad ff ff       	callq  9dbe <safe_lshift_func_uint16_t_u_s>
    f080:	48 8b 05 49 4d 01 00 	mov    0x14d49(%rip),%rax        # 23dd0 <g_846>
    f087:	48 8b 00             	mov    (%rax),%rax
    f08a:	48 c1 e8 3f          	shr    $0x3f,%rax
    f08e:	0f b6 d0             	movzbl %al,%edx
    f091:	48 8b 05 10 45 01 00 	mov    0x14510(%rip),%rax        # 235a8 <g_152>
    f098:	48 8b 00             	mov    (%rax),%rax
    f09b:	8b 00                	mov    (%rax),%eax
    f09d:	09 d0                	or     %edx,%eax
    f09f:	48 98                	cltq   
    f0a1:	48 39 85 e0 e9 ff ff 	cmp    %rax,-0x1620(%rbp)
    f0a8:	0f 95 c0             	setne  %al
    f0ab:	0f b6 c0             	movzbl %al,%eax
    f0ae:	48 39 85 e0 e9 ff ff 	cmp    %rax,-0x1620(%rbp)
    f0b5:	0f 95 c0             	setne  %al
    f0b8:	0f b6 c0             	movzbl %al,%eax
    f0bb:	be 01 00 00 00       	mov    $0x1,%esi
    f0c0:	89 c7                	mov    %eax,%edi
    f0c2:	e8 da a1 ff ff       	callq  92a1 <safe_lshift_func_int8_t_s_s>
    f0c7:	84 c0                	test   %al,%al
    f0c9:	74 0b                	je     f0d6 <func_9+0x23bb>
    f0cb:	48 8b 85 20 ec ff ff 	mov    -0x13e0(%rbp),%rax
    f0d2:	8b 00                	mov    (%rax),%eax
    f0d4:	85 c0                	test   %eax,%eax
    f0d6:	b8 00 00 00 00       	mov    $0x0,%eax
    f0db:	89 c7                	mov    %eax,%edi
    f0dd:	48 8b 85 b0 ea ff ff 	mov    -0x1550(%rbp),%rax
    f0e4:	48 8b 00             	mov    (%rax),%rax
    f0e7:	4c 8b 28             	mov    (%rax),%r13
    f0ea:	44 89 e1             	mov    %r12d,%ecx
    f0ed:	89 da                	mov    %ebx,%edx
    f0ef:	44 89 f6             	mov    %r14d,%esi
    f0f2:	e8 06 4d 00 00       	callq  13dfd <func_59>
    f0f7:	49 89 45 00          	mov    %rax,0x0(%r13)
    f0fb:	e9 8f 01 00 00       	jmpq   f28f <func_9+0x2574>
    f100:	c7 85 9c ea ff ff fa 	movl   $0xfffffffa,-0x1564(%rbp)
    f107:	ff ff ff 
    f10a:	48 8d 05 a7 0f 01 00 	lea    0x10fa7(%rip),%rax        # 200b8 <g_1196>
    f111:	48 89 85 80 f5 ff ff 	mov    %rax,-0xa80(%rbp)
    f118:	48 8d 05 99 0f 01 00 	lea    0x10f99(%rip),%rax        # 200b8 <g_1196>
    f11f:	48 89 85 88 f5 ff ff 	mov    %rax,-0xa78(%rbp)
    f126:	48 8d 05 8b 0f 01 00 	lea    0x10f8b(%rip),%rax        # 200b8 <g_1196>
    f12d:	48 89 85 90 f5 ff ff 	mov    %rax,-0xa70(%rbp)
    f134:	48 8d 05 7d 0f 01 00 	lea    0x10f7d(%rip),%rax        # 200b8 <g_1196>
    f13b:	48 89 85 98 f5 ff ff 	mov    %rax,-0xa68(%rbp)
    f142:	48 8b 9d d8 ea ff ff 	mov    -0x1528(%rbp),%rbx
    f149:	48 8b 05 08 52 01 00 	mov    0x15208(%rip),%rax        # 24358 <g_910>
    f150:	48 8b 00             	mov    (%rax),%rax
    f153:	0f b7 00             	movzwl (%rax),%eax
    f156:	44 0f bf e0          	movswl %ax,%r12d
    f15a:	48 8b 85 78 eb ff ff 	mov    -0x1488(%rbp),%rax
    f161:	48 8b 10             	mov    (%rax),%rdx
    f164:	8b 02                	mov    (%rdx),%eax
    f166:	8d 48 ff             	lea    -0x1(%rax),%ecx
    f169:	89 0a                	mov    %ecx,(%rdx)
    f16b:	85 c0                	test   %eax,%eax
    f16d:	74 11                	je     f180 <func_9+0x2465>
    f16f:	48 b8 3f 56 dd 3a 9b 	movabs $0x19b4b59b3add563f,%rax
    f176:	b5 b4 19 
    f179:	48 39 85 e0 e9 ff ff 	cmp    %rax,-0x1620(%rbp)
    f180:	8b 85 9c ea ff ff    	mov    -0x1564(%rbp),%eax
    f186:	48 39 85 e0 e9 ff ff 	cmp    %rax,-0x1620(%rbp)
    f18d:	0f 94 c0             	sete   %al
    f190:	0f b6 d0             	movzbl %al,%edx
    f193:	8b 85 ec e9 ff ff    	mov    -0x1614(%rbp),%eax
    f199:	39 c2                	cmp    %eax,%edx
    f19b:	0f 95 c0             	setne  %al
    f19e:	0f b6 d0             	movzbl %al,%edx
    f1a1:	48 8b 05 48 52 01 00 	mov    0x15248(%rip),%rax        # 243f0 <g_1562>
    f1a8:	0f b6 00             	movzbl (%rax),%eax
    f1ab:	0f b6 c0             	movzbl %al,%eax
    f1ae:	89 d6                	mov    %edx,%esi
    f1b0:	89 c7                	mov    %eax,%edi
    f1b2:	e8 4e aa ff ff       	callq  9c05 <safe_lshift_func_uint8_t_u_s>
    f1b7:	0f b6 c0             	movzbl %al,%eax
    f1ba:	be 7c 4e 00 00       	mov    $0x4e7c,%esi
    f1bf:	89 c7                	mov    %eax,%edi
    f1c1:	e8 39 ab ff ff       	callq  9cff <safe_add_func_uint16_t_u_u>
    f1c6:	48 8b 85 80 f5 ff ff 	mov    -0xa80(%rbp),%rax
    f1cd:	48 85 c0             	test   %rax,%rax
    f1d0:	8b 85 94 ea ff ff    	mov    -0x156c(%rbp),%eax
    f1d6:	0f be c0             	movsbl %al,%eax
    f1d9:	89 c7                	mov    %eax,%edi
    f1db:	e8 df 9f ff ff       	callq  91bf <safe_unary_minus_func_int8_t_s>
    f1e0:	0f be c0             	movsbl %al,%eax
    f1e3:	be 72 7e a4 28       	mov    $0x28a47e72,%esi
    f1e8:	89 c7                	mov    %eax,%edi
    f1ea:	e8 36 ad ff ff       	callq  9f25 <safe_div_func_uint32_t_u_u>
    f1ef:	83 c8 71             	or     $0x71,%eax
    f1f2:	0f be d0             	movsbl %al,%edx
    f1f5:	48 83 bd 28 eb ff ff 	cmpq   $0x0,-0x14d8(%rbp)
    f1fc:	00 
    f1fd:	0f 95 c0             	setne  %al
    f200:	0f b6 c0             	movzbl %al,%eax
    f203:	89 d6                	mov    %edx,%esi
    f205:	89 c7                	mov    %eax,%edi
    f207:	e8 e6 9f ff ff       	callq  91f2 <safe_sub_func_int8_t_s_s>
    f20c:	66 0f be d0          	movsbw %al,%dx
    f210:	48 8b 85 50 eb ff ff 	mov    -0x14b0(%rbp),%rax
    f217:	66 89 10             	mov    %dx,(%rax)
    f21a:	48 8b 85 50 eb ff ff 	mov    -0x14b0(%rbp),%rax
    f221:	0f b7 00             	movzwl (%rax),%eax
    f224:	98                   	cwtl   
    f225:	44 89 e6             	mov    %r12d,%esi
    f228:	89 c7                	mov    %eax,%edi
    f22a:	e8 a4 a1 ff ff       	callq  93d3 <safe_sub_func_int16_t_s_s>
    f22f:	66 85 c0             	test   %ax,%ax
    f232:	74 07                	je     f23b <func_9+0x2520>
    f234:	b8 01 00 00 00       	mov    $0x1,%eax
    f239:	eb 05                	jmp    f240 <func_9+0x2525>
    f23b:	b8 00 00 00 00       	mov    $0x0,%eax
    f240:	0f b6 c0             	movzbl %al,%eax
    f243:	be 06 00 00 00       	mov    $0x6,%esi
    f248:	89 c7                	mov    %eax,%edi
    f24a:	e8 6f aa ff ff       	callq  9cbe <safe_rshift_func_uint8_t_u_u>
    f24f:	0f b6 c0             	movzbl %al,%eax
    f252:	48 89 de             	mov    %rbx,%rsi
    f255:	48 89 c7             	mov    %rax,%rdi
    f258:	e8 9a a7 ff ff       	callq  99f7 <safe_div_func_int64_t_s_s>
    f25d:	48 39 85 e0 e9 ff ff 	cmp    %rax,-0x1620(%rbp)
    f264:	0f 94 c0             	sete   %al
    f267:	0f b6 d0             	movzbl %al,%edx
    f26a:	8b 85 ec e9 ff ff    	mov    -0x1614(%rbp),%eax
    f270:	21 d0                	and    %edx,%eax
    f272:	89 c2                	mov    %eax,%edx
    f274:	48 8b 85 20 ec ff ff 	mov    -0x13e0(%rbp),%rax
    f27b:	89 10                	mov    %edx,(%rax)
    f27d:	48 8b 05 1c 43 01 00 	mov    0x1431c(%rip),%rax        # 235a0 <g_153>
    f284:	48 8b 95 20 ec ff ff 	mov    -0x13e0(%rbp),%rdx
    f28b:	8b 12                	mov    (%rdx),%edx
    f28d:	89 10                	mov    %edx,(%rax)
    f28f:	48 8b 85 b8 ea ff ff 	mov    -0x1548(%rbp),%rax
    f296:	48 8b 15 e3 17 01 00 	mov    0x117e3(%rip),%rdx        # 20a80 <g_1748>
    f29d:	48 89 10             	mov    %rdx,(%rax)
    f2a0:	8b 15 e2 17 01 00    	mov    0x117e2(%rip),%edx        # 20a88 <g_1748+0x8>
    f2a6:	89 50 08             	mov    %edx,0x8(%rax)
    f2a9:	0f b7 15 dc 17 01 00 	movzwl 0x117dc(%rip),%edx        # 20a8c <g_1748+0xc>
    f2b0:	66 89 50 0c          	mov    %dx,0xc(%rax)
    f2b4:	0f b6 15 d3 17 01 00 	movzbl 0x117d3(%rip),%edx        # 20a8e <g_1748+0xe>
    f2bb:	88 50 0e             	mov    %dl,0xe(%rax)
    f2be:	c7 85 28 ea ff ff 00 	movl   $0x0,-0x15d8(%rbp)
    f2c5:	00 00 00 
    f2c8:	e9 00 06 00 00       	jmpq   f8cd <func_9+0x2bb2>
    f2cd:	66 c7 85 10 ea ff ff 	movw   $0x1,-0x15f0(%rbp)
    f2d4:	01 00 
    f2d6:	48 8d 05 c3 4a 01 00 	lea    0x14ac3(%rip),%rax        # 23da0 <g_269>
    f2dd:	48 89 85 00 eb ff ff 	mov    %rax,-0x1500(%rbp)
    f2e4:	48 8d 85 f8 ea ff ff 	lea    -0x1508(%rbp),%rax
    f2eb:	48 89 85 08 eb ff ff 	mov    %rax,-0x14f8(%rbp)
    f2f2:	48 8d 85 08 eb ff ff 	lea    -0x14f8(%rbp),%rax
    f2f9:	48 89 85 50 ec ff ff 	mov    %rax,-0x13b0(%rbp)
    f300:	c7 85 a4 ea ff ff 95 	movl   $0xe5e39195,-0x155c(%rbp)
    f307:	91 e3 e5 
    f30a:	48 8d 85 80 f5 ff ff 	lea    -0xa80(%rbp),%rax
    f311:	48 8d 15 c8 29 01 00 	lea    0x129c8(%rip),%rdx        # 21ce0 <g_1852+0xb38>
    f318:	b9 93 00 00 00       	mov    $0x93,%ecx
    f31d:	48 89 c7             	mov    %rax,%rdi
    f320:	48 89 d6             	mov    %rdx,%rsi
    f323:	f3 48 a5             	rep movsq %ds:(%rsi),%es:(%rdi)
    f326:	48 8d 85 88 ec ff ff 	lea    -0x1378(%rbp),%rax
    f32d:	48 89 85 58 ec ff ff 	mov    %rax,-0x13a8(%rbp)
    f334:	48 c7 85 60 ec ff ff 	movq   $0x0,-0x13a0(%rbp)
    f33b:	00 00 00 00 
    f33f:	c7 85 44 ea ff ff 00 	movl   $0x0,-0x15bc(%rbp)
    f346:	00 00 00 
    f349:	eb 1b                	jmp    f366 <func_9+0x264b>
    f34b:	8b 85 44 ea ff ff    	mov    -0x15bc(%rbp),%eax
    f351:	48 98                	cltq   
    f353:	48 c7 84 c5 88 ec ff 	movq   $0x0,-0x1378(%rbp,%rax,8)
    f35a:	ff 00 00 00 00 
    f35f:	83 85 44 ea ff ff 01 	addl   $0x1,-0x15bc(%rbp)
    f366:	83 bd 44 ea ff ff 00 	cmpl   $0x0,-0x15bc(%rbp)
    f36d:	7e dc                	jle    f34b <func_9+0x2630>
    f36f:	66 83 85 10 ea ff ff 	addw   $0x1,-0x15f0(%rbp)
    f376:	01 
    f377:	48 c7 85 68 eb ff ff 	movq   $0x0,-0x1498(%rbp)
    f37e:	00 00 00 00 
    f382:	e9 f8 01 00 00       	jmpq   f57f <func_9+0x2864>
    f387:	48 8d 05 12 4a 01 00 	lea    0x14a12(%rip),%rax        # 23da0 <g_269>
    f38e:	48 89 85 68 ec ff ff 	mov    %rax,-0x1398(%rbp)
    f395:	48 8d 85 00 eb ff ff 	lea    -0x1500(%rbp),%rax
    f39c:	48 89 85 70 ec ff ff 	mov    %rax,-0x1390(%rbp)
    f3a3:	48 8d 05 5e 55 01 00 	lea    0x1555e(%rip),%rax        # 24908 <g_1508>
    f3aa:	48 89 85 c0 ef ff ff 	mov    %rax,-0x1040(%rbp)
    f3b1:	48 8d 05 50 55 01 00 	lea    0x15550(%rip),%rax        # 24908 <g_1508>
    f3b8:	48 89 85 c8 ef ff ff 	mov    %rax,-0x1038(%rbp)
    f3bf:	48 8d 05 42 55 01 00 	lea    0x15542(%rip),%rax        # 24908 <g_1508>
    f3c6:	48 89 85 d0 ef ff ff 	mov    %rax,-0x1030(%rbp)
    f3cd:	48 8d 05 34 55 01 00 	lea    0x15534(%rip),%rax        # 24908 <g_1508>
    f3d4:	48 89 85 d8 ef ff ff 	mov    %rax,-0x1028(%rbp)
    f3db:	48 8d 85 c0 ef ff ff 	lea    -0x1040(%rbp),%rax
    f3e2:	48 89 85 78 ec ff ff 	mov    %rax,-0x1388(%rbp)
    f3e9:	66 c7 85 12 ea ff ff 	movw   $0x5958,-0x15ee(%rbp)
    f3f0:	58 59 
    f3f2:	48 8b 85 e0 e9 ff ff 	mov    -0x1620(%rbp),%rax
    f3f9:	0f b6 d8             	movzbl %al,%ebx
    f3fc:	48 8b 85 78 ec ff ff 	mov    -0x1388(%rbp),%rax
    f403:	48 8d 15 fe 54 01 00 	lea    0x154fe(%rip),%rdx        # 24908 <g_1508>
    f40a:	48 89 10             	mov    %rdx,(%rax)
    f40d:	8b 85 28 ea ff ff    	mov    -0x15d8(%rbp),%eax
    f413:	83 c0 01             	add    $0x1,%eax
    f416:	89 c2                	mov    %eax,%edx
    f418:	8b 85 28 ea ff ff    	mov    -0x15d8(%rbp),%eax
    f41e:	48 c1 e0 02          	shl    $0x2,%rax
    f422:	48 01 d0             	add    %rdx,%rax
    f425:	48 8d 14 c5 00 00 00 	lea    0x0(,%rax,8),%rdx
    f42c:	00 
    f42d:	48 8d 05 6c ed 00 00 	lea    0xed6c(%rip),%rax        # 1e1a0 <g_292>
    f434:	48 8b 04 02          	mov    (%rdx,%rax,1),%rax
    f438:	48 89 c2             	mov    %rax,%rdx
    f43b:	48 8b 85 d8 ea ff ff 	mov    -0x1528(%rbp),%rax
    f442:	48 89 d6             	mov    %rdx,%rsi
    f445:	48 89 c7             	mov    %rax,%rdi
    f448:	e8 aa a5 ff ff       	callq  99f7 <safe_div_func_int64_t_s_s>
    f44d:	48 8b 05 fc 4e 01 00 	mov    0x14efc(%rip),%rax        # 24350 <g_911>
    f454:	0f b7 00             	movzwl (%rax),%eax
    f457:	44 0f b7 e0          	movzwl %ax,%r12d
    f45b:	48 8b 85 78 f5 ff ff 	mov    -0xa88(%rbp),%rax
    f462:	44 0f bf e8          	movswl %ax,%r13d
    f466:	48 8b 05 e3 4e 01 00 	mov    0x14ee3(%rip),%rax        # 24350 <g_911>
    f46d:	0f b7 00             	movzwl (%rax),%eax
    f470:	0f b7 d0             	movzwl %ax,%edx
    f473:	48 8b 85 e0 e9 ff ff 	mov    -0x1620(%rbp),%rax
    f47a:	0f b7 c0             	movzwl %ax,%eax
    f47d:	89 d6                	mov    %edx,%esi
    f47f:	89 c7                	mov    %eax,%edi
    f481:	e8 80 a9 ff ff       	callq  9e06 <safe_lshift_func_uint16_t_u_u>
    f486:	98                   	cwtl   
    f487:	44 89 ee             	mov    %r13d,%esi
    f48a:	89 c7                	mov    %eax,%edi
    f48c:	e8 64 9f ff ff       	callq  93f5 <safe_mul_func_int16_t_s_s>
    f491:	0f b7 85 0e ea ff ff 	movzwl -0x15f2(%rbp),%eax
    f498:	44 89 e6             	mov    %r12d,%esi
    f49b:	89 c7                	mov    %eax,%edi
    f49d:	e8 9b a8 ff ff       	callq  9d3d <safe_mul_func_uint16_t_u_u>
    f4a2:	66 85 c0             	test   %ax,%ax
    f4a5:	74 0b                	je     f4b2 <func_9+0x2797>
    f4a7:	48 8b 05 02 49 01 00 	mov    0x14902(%rip),%rax        # 23db0 <g_565>
    f4ae:	8b 00                	mov    (%rax),%eax
    f4b0:	85 c0                	test   %eax,%eax
    f4b2:	48 8b 95 00 eb ff ff 	mov    -0x1500(%rbp),%rdx
    f4b9:	48 8b 85 70 ec ff ff 	mov    -0x1390(%rbp),%rax
    f4c0:	48 89 10             	mov    %rdx,(%rax)
    f4c3:	48 8b 85 70 ec ff ff 	mov    -0x1390(%rbp),%rax
    f4ca:	48 8b 00             	mov    (%rax),%rax
    f4cd:	48 39 85 68 ec ff ff 	cmp    %rax,-0x1398(%rbp)
    f4d4:	0f 94 c0             	sete   %al
    f4d7:	44 0f b6 e0          	movzbl %al,%r12d
    f4db:	8b 85 28 ea ff ff    	mov    -0x15d8(%rbp),%eax
    f4e1:	83 c0 01             	add    $0x1,%eax
    f4e4:	89 c2                	mov    %eax,%edx
    f4e6:	8b 85 28 ea ff ff    	mov    -0x15d8(%rbp),%eax
    f4ec:	48 c1 e0 02          	shl    $0x2,%rax
    f4f0:	48 01 d0             	add    %rdx,%rax
    f4f3:	48 8d 14 c5 00 00 00 	lea    0x0(,%rax,8),%rdx
    f4fa:	00 
    f4fb:	48 8d 05 9e ec 00 00 	lea    0xec9e(%rip),%rax        # 1e1a0 <g_292>
    f502:	48 8b 04 02          	mov    (%rdx,%rax,1),%rax
    f506:	98                   	cwtl   
    f507:	be 09 00 00 00       	mov    $0x9,%esi
    f50c:	89 c7                	mov    %eax,%edi
    f50e:	e8 ce 9f ff ff       	callq  94e1 <safe_lshift_func_int16_t_s_u>
    f513:	44 31 e0             	xor    %r12d,%eax
    f516:	66 89 85 08 ea ff ff 	mov    %ax,-0x15f8(%rbp)
    f51d:	0f bf 85 08 ea ff ff 	movswl -0x15f8(%rbp),%eax
    f524:	48 8d 15 dd 53 01 00 	lea    0x153dd(%rip),%rdx        # 24908 <g_1508>
    f52b:	48 39 95 50 ec ff ff 	cmp    %rdx,-0x13b0(%rbp)
    f532:	0f 95 c2             	setne  %dl
    f535:	0f b6 ca             	movzbl %dl,%ecx
    f538:	0f b7 95 12 ea ff ff 	movzwl -0x15ee(%rbp),%edx
    f53f:	09 ca                	or     %ecx,%edx
    f541:	39 d0                	cmp    %edx,%eax
    f543:	0f 94 c0             	sete   %al
    f546:	0f b6 d0             	movzbl %al,%edx
    f549:	8b 85 ec e9 ff ff    	mov    -0x1614(%rbp),%eax
    f54f:	39 c2                	cmp    %eax,%edx
    f551:	0f 96 c0             	setbe  %al
    f554:	0f b6 c0             	movzbl %al,%eax
    f557:	89 de                	mov    %ebx,%esi
    f559:	89 c7                	mov    %eax,%edi
    f55b:	e8 7b a6 ff ff       	callq  9bdb <safe_div_func_uint8_t_u_u>
    f560:	48 8b 95 20 ec ff ff 	mov    -0x13e0(%rbp),%rdx
    f567:	8b 12                	mov    (%rdx),%edx
    f569:	0f b6 c0             	movzbl %al,%eax
    f56c:	31 c2                	xor    %eax,%edx
    f56e:	48 8b 85 20 ec ff ff 	mov    -0x13e0(%rbp),%rax
    f575:	89 10                	mov    %edx,(%rax)
    f577:	48 83 85 68 eb ff ff 	addq   $0x1,-0x1498(%rbp)
    f57e:	01 
    f57f:	48 83 bd 68 eb ff ff 	cmpq   $0x2,-0x1498(%rbp)
    f586:	02 
    f587:	0f 86 fa fd ff ff    	jbe    f387 <func_9+0x266c>
    f58d:	48 8b 9d e0 e9 ff ff 	mov    -0x1620(%rbp),%rbx
    f594:	8b 85 ec e9 ff ff    	mov    -0x1614(%rbp),%eax
    f59a:	41 89 c5             	mov    %eax,%r13d
    f59d:	8b 85 ec e9 ff ff    	mov    -0x1614(%rbp),%eax
    f5a3:	89 c2                	mov    %eax,%edx
    f5a5:	48 8b 05 ac 4d 01 00 	mov    0x14dac(%rip),%rax        # 24358 <g_910>
    f5ac:	48 8b 00             	mov    (%rax),%rax
    f5af:	0f b7 00             	movzwl (%rax),%eax
    f5b2:	0f b7 c0             	movzwl %ax,%eax
    f5b5:	89 d6                	mov    %edx,%esi
    f5b7:	89 c7                	mov    %eax,%edi
    f5b9:	e8 8a a8 ff ff       	callq  9e48 <safe_rshift_func_uint16_t_u_s>
    f5be:	98                   	cwtl   
    f5bf:	be 02 00 00 00       	mov    $0x2,%esi
    f5c4:	89 c7                	mov    %eax,%edi
    f5c6:	e8 c7 9e ff ff       	callq  9492 <safe_lshift_func_int16_t_s_s>
    f5cb:	44 0f bf e0          	movswl %ax,%r12d
    f5cf:	48 8b 85 e0 e9 ff ff 	mov    -0x1620(%rbp),%rax
    f5d6:	89 c2                	mov    %eax,%edx
    f5d8:	48 8b 85 20 ec ff ff 	mov    -0x13e0(%rbp),%rax
    f5df:	8b 00                	mov    (%rax),%eax
    f5e1:	89 d6                	mov    %edx,%esi
    f5e3:	89 c7                	mov    %eax,%edi
    f5e5:	e8 e6 a8 ff ff       	callq  9ed0 <safe_sub_func_uint32_t_u_u>
    f5ea:	85 c0                	test   %eax,%eax
    f5ec:	0f 95 c0             	setne  %al
    f5ef:	0f b6 c0             	movzbl %al,%eax
    f5f2:	41 39 c4             	cmp    %eax,%r12d
    f5f5:	48 8b 05 5c 4d 01 00 	mov    0x14d5c(%rip),%rax        # 24358 <g_910>
    f5fc:	48 8b 00             	mov    (%rax),%rax
    f5ff:	0f b7 00             	movzwl (%rax),%eax
    f602:	0f b7 c0             	movzwl %ax,%eax
    f605:	48 39 85 e0 e9 ff ff 	cmp    %rax,-0x1620(%rbp)
    f60c:	0f 9d c0             	setge  %al
    f60f:	0f b6 d0             	movzbl %al,%edx
    f612:	0f b7 05 81 eb 00 00 	movzwl 0xeb81(%rip),%eax        # 1e19a <g_236>
    f619:	98                   	cwtl   
    f61a:	09 d0                	or     %edx,%eax
    f61c:	85 c0                	test   %eax,%eax
    f61e:	74 11                	je     f631 <func_9+0x2916>
    f620:	8b 85 ec e9 ff ff    	mov    -0x1614(%rbp),%eax
    f626:	85 c0                	test   %eax,%eax
    f628:	74 07                	je     f631 <func_9+0x2916>
    f62a:	b8 01 00 00 00       	mov    $0x1,%eax
    f62f:	eb 05                	jmp    f636 <func_9+0x291b>
    f631:	b8 00 00 00 00       	mov    $0x0,%eax
    f636:	0f b6 c0             	movzbl %al,%eax
    f639:	89 c6                	mov    %eax,%esi
    f63b:	bf 8c 00 00 00       	mov    $0x8c,%edi
    f640:	e8 96 a5 ff ff       	callq  9bdb <safe_div_func_uint8_t_u_u>
    f645:	0f b6 d0             	movzbl %al,%edx
    f648:	48 8b 05 71 47 01 00 	mov    0x14771(%rip),%rax        # 23dc0 <g_608>
    f64f:	8b 00                	mov    (%rax),%eax
    f651:	09 d0                	or     %edx,%eax
    f653:	89 c0                	mov    %eax,%eax
    f655:	4c 89 ee             	mov    %r13,%rsi
    f658:	48 89 c7             	mov    %rax,%rdi
    f65b:	e8 20 aa ff ff       	callq  a080 <safe_mod_func_uint64_t_u_u>
    f660:	48 89 de             	mov    %rbx,%rsi
    f663:	48 89 c7             	mov    %rax,%rdi
    f666:	e8 44 aa ff ff       	callq  a0af <safe_div_func_uint64_t_u_u>
    f66b:	48 8b 85 e0 e9 ff ff 	mov    -0x1620(%rbp),%rax
    f672:	0f be c0             	movsbl %al,%eax
    f675:	be 06 00 00 00       	mov    $0x6,%esi
    f67a:	89 c7                	mov    %eax,%edi
    f67c:	e8 71 9b ff ff       	callq  91f2 <safe_sub_func_int8_t_s_s>
    f681:	66 98                	cbtw   
    f683:	0f b7 c0             	movzwl %ax,%eax
    f686:	be 0f 00 00 00       	mov    $0xf,%esi
    f68b:	89 c7                	mov    %eax,%edi
    f68d:	e8 e8 a7 ff ff       	callq  9e7a <safe_rshift_func_uint16_t_u_u>
    f692:	48 c7 85 e0 e9 ff ff 	movq   $0x0,-0x1620(%rbp)
    f699:	00 00 00 00 
    f69d:	48 8b 05 24 4d 01 00 	mov    0x14d24(%rip),%rax        # 243c8 <g_1334>
    f6a4:	48 8b 00             	mov    (%rax),%rax
    f6a7:	48 85 c0             	test   %rax,%rax
    f6aa:	0f 95 c0             	setne  %al
    f6ad:	0f b6 c0             	movzbl %al,%eax
    f6b0:	48 8b 95 e0 e9 ff ff 	mov    -0x1620(%rbp),%rdx
    f6b7:	48 89 d6             	mov    %rdx,%rsi
    f6ba:	48 89 c7             	mov    %rax,%rdi
    f6bd:	e8 e6 a1 ff ff       	callq  98a8 <safe_sub_func_int64_t_s_s>
    f6c2:	48 8b 05 cf 46 01 00 	mov    0x146cf(%rip),%rax        # 23d98 <g_195>
    f6c9:	0f b7 00             	movzwl (%rax),%eax
    f6cc:	83 f0 09             	xor    $0x9,%eax
    f6cf:	89 c2                	mov    %eax,%edx
    f6d1:	48 8b 05 c8 3e 01 00 	mov    0x13ec8(%rip),%rax        # 235a0 <g_153>
    f6d8:	0f bf d2             	movswl %dx,%edx
    f6db:	89 10                	mov    %edx,(%rax)
    f6dd:	66 c7 85 08 ea ff ff 	movw   $0x0,-0x15f8(%rbp)
    f6e4:	00 00 
    f6e6:	e9 ca 01 00 00       	jmpq   f8b5 <func_9+0x2b9a>
    f6eb:	c7 85 48 ea ff ff 00 	movl   $0x0,-0x15b8(%rbp)
    f6f2:	00 00 00 
    f6f5:	eb 78                	jmp    f76f <func_9+0x2a54>
    f6f7:	c7 85 38 ea ff ff 00 	movl   $0x0,-0x15c8(%rbp)
    f6fe:	00 00 00 
    f701:	eb 5c                	jmp    f75f <func_9+0x2a44>
    f703:	c7 85 34 ea ff ff 00 	movl   $0x0,-0x15cc(%rbp)
    f70a:	00 00 00 
    f70d:	eb 40                	jmp    f74f <func_9+0x2a34>
    f70f:	8b 85 34 ea ff ff    	mov    -0x15cc(%rbp),%eax
    f715:	48 63 c8             	movslq %eax,%rcx
    f718:	8b 85 48 ea ff ff    	mov    -0x15b8(%rbp),%eax
    f71e:	48 63 d0             	movslq %eax,%rdx
    f721:	8b 85 38 ea ff ff    	mov    -0x15c8(%rbp),%eax
    f727:	48 63 f0             	movslq %eax,%rsi
    f72a:	48 89 d0             	mov    %rdx,%rax
    f72d:	48 c1 e0 03          	shl    $0x3,%rax
    f731:	48 29 d0             	sub    %rdx,%rax
    f734:	48 01 f0             	add    %rsi,%rax
    f737:	48 01 c0             	add    %rax,%rax
    f73a:	48 01 c8             	add    %rcx,%rax
    f73d:	c7 84 85 c0 ef ff ff 	movl   $0xaca961f6,-0x1040(%rbp,%rax,4)
    f744:	f6 61 a9 ac 
    f748:	83 85 34 ea ff ff 01 	addl   $0x1,-0x15cc(%rbp)
    f74f:	83 bd 34 ea ff ff 01 	cmpl   $0x1,-0x15cc(%rbp)
    f756:	7e b7                	jle    f70f <func_9+0x29f4>
    f758:	83 85 38 ea ff ff 01 	addl   $0x1,-0x15c8(%rbp)
    f75f:	83 bd 38 ea ff ff 06 	cmpl   $0x6,-0x15c8(%rbp)
    f766:	7e 9b                	jle    f703 <func_9+0x29e8>
    f768:	83 85 48 ea ff ff 01 	addl   $0x1,-0x15b8(%rbp)
    f76f:	83 bd 48 ea ff ff 07 	cmpl   $0x7,-0x15b8(%rbp)
    f776:	0f 8e 7b ff ff ff    	jle    f6f7 <func_9+0x29dc>
    f77c:	48 8b 05 0d 13 01 00 	mov    0x1130d(%rip),%rax        # 20a90 <g_1796>
    f783:	48 83 e8 01          	sub    $0x1,%rax
    f787:	48 89 05 02 13 01 00 	mov    %rax,0x11302(%rip)        # 20a90 <g_1796>
    f78e:	8b 05 e4 08 01 00    	mov    0x108e4(%rip),%eax        # 20078 <g_897>
    f794:	8d 50 01             	lea    0x1(%rax),%edx
    f797:	48 8b 85 e0 ec ff ff 	mov    -0x1320(%rbp),%rax
    f79e:	48 63 d2             	movslq %edx,%rdx
    f7a1:	48 8d 0c d5 00 00 00 	lea    0x0(,%rdx,8),%rcx
    f7a8:	00 
    f7a9:	48 8d 15 50 4c 01 00 	lea    0x14c50(%rip),%rdx        # 24400 <g_1636>
    f7b0:	48 89 04 11          	mov    %rax,(%rcx,%rdx,1)
    f7b4:	48 8b 05 15 4c 01 00 	mov    0x14c15(%rip),%rax        # 243d0 <g_1333>
    f7bb:	48 8b 00             	mov    (%rax),%rax
    f7be:	48 8b 00             	mov    (%rax),%rax
    f7c1:	48 8b 00             	mov    (%rax),%rax
    f7c4:	48 8b 00             	mov    (%rax),%rax
    f7c7:	8b 00                	mov    (%rax),%eax
    f7c9:	85 c0                	test   %eax,%eax
    f7cb:	0f 85 f4 00 00 00    	jne    f8c5 <func_9+0x2baa>
    f7d1:	0f b6 05 a8 e9 00 00 	movzbl 0xe9a8(%rip),%eax        # 1e180 <g_145+0x10>
    f7d8:	0f be d8             	movsbl %al,%ebx
    f7db:	8b 85 ec e9 ff ff    	mov    -0x1614(%rbp),%eax
    f7e1:	41 89 c4             	mov    %eax,%r12d
    f7e4:	66 83 bd 10 ea ff ff 	cmpw   $0x3,-0x15f0(%rbp)
    f7eb:	03 
    f7ec:	48 8b 85 20 ec ff ff 	mov    -0x13e0(%rbp),%rax
    f7f3:	8b 00                	mov    (%rax),%eax
    f7f5:	0f be d0             	movsbl %al,%edx
    f7f8:	48 8b 85 d0 f7 ff ff 	mov    -0x830(%rbp),%rax
    f7ff:	48 85 c0             	test   %rax,%rax
    f802:	0f 94 c0             	sete   %al
    f805:	0f b6 c0             	movzbl %al,%eax
    f808:	89 d6                	mov    %edx,%esi
    f80a:	89 c7                	mov    %eax,%edi
    f80c:	e8 01 9a ff ff       	callq  9212 <safe_mul_func_int8_t_s_s>
    f811:	84 c0                	test   %al,%al
    f813:	74 24                	je     f839 <func_9+0x2b1e>
    f815:	48 8b 05 34 4b 01 00 	mov    0x14b34(%rip),%rax        # 24350 <g_911>
    f81c:	0f b7 00             	movzwl (%rax),%eax
    f81f:	98                   	cwtl   
    f820:	89 c6                	mov    %eax,%esi
    f822:	bf 00 00 00 00       	mov    $0x0,%edi
    f827:	e8 c9 9b ff ff       	callq  93f5 <safe_mul_func_int16_t_s_s>
    f82c:	48 8b 05 65 45 01 00 	mov    0x14565(%rip),%rax        # 23d98 <g_195>
    f833:	0f b7 00             	movzwl (%rax),%eax
    f836:	66 85 c0             	test   %ax,%ax
    f839:	8b 85 ec e9 ff ff    	mov    -0x1614(%rbp),%eax
    f83f:	3d 02 a9 ce fd       	cmp    $0xfdcea902,%eax
    f844:	76 11                	jbe    f857 <func_9+0x2b3c>
    f846:	66 83 bd 0e ea ff ff 	cmpw   $0x0,-0x15f2(%rbp)
    f84d:	00 
    f84e:	74 07                	je     f857 <func_9+0x2b3c>
    f850:	ba 01 00 00 00       	mov    $0x1,%edx
    f855:	eb 05                	jmp    f85c <func_9+0x2b41>
    f857:	ba 00 00 00 00       	mov    $0x0,%edx
    f85c:	48 8b 05 1d 4c 01 00 	mov    0x14c1d(%rip),%rax        # 24480 <g_1702>
    f863:	48 8b 08             	mov    (%rax),%rcx
    f866:	48 63 d2             	movslq %edx,%rdx
    f869:	48 8b 05 10 4c 01 00 	mov    0x14c10(%rip),%rax        # 24480 <g_1702>
    f870:	48 09 ca             	or     %rcx,%rdx
    f873:	48 89 10             	mov    %rdx,(%rax)
    f876:	48 8b 00             	mov    (%rax),%rax
    f879:	4c 89 e6             	mov    %r12,%rsi
    f87c:	48 89 c7             	mov    %rax,%rdi
    f87f:	e8 bd 9f ff ff       	callq  9841 <safe_add_func_int64_t_s_s>
    f884:	0f be c0             	movsbl %al,%eax
    f887:	89 de                	mov    %ebx,%esi
    f889:	89 c7                	mov    %eax,%edi
    f88b:	e8 82 99 ff ff       	callq  9212 <safe_mul_func_int8_t_s_s>
    f890:	48 8b 85 b0 ea ff ff 	mov    -0x1550(%rbp),%rax
    f897:	48 8b 00             	mov    (%rax),%rax
    f89a:	48 8b 00             	mov    (%rax),%rax
    f89d:	48 c7 00 00 00 00 00 	movq   $0x0,(%rax)
    f8a4:	0f b7 85 08 ea ff ff 	movzwl -0x15f8(%rbp),%eax
    f8ab:	83 c0 01             	add    $0x1,%eax
    f8ae:	66 89 85 08 ea ff ff 	mov    %ax,-0x15f8(%rbp)
    f8b5:	66 83 bd 08 ea ff ff 	cmpw   $0x2,-0x15f8(%rbp)
    f8bc:	02 
    f8bd:	0f 8e 28 fe ff ff    	jle    f6eb <func_9+0x29d0>
    f8c3:	eb 01                	jmp    f8c6 <func_9+0x2bab>
    f8c5:	90                   	nop
    f8c6:	83 85 28 ea ff ff 01 	addl   $0x1,-0x15d8(%rbp)
    f8cd:	83 bd 28 ea ff ff 02 	cmpl   $0x2,-0x15d8(%rbp)
    f8d4:	0f 86 f3 f9 ff ff    	jbe    f2cd <func_9+0x25b2>
    f8da:	eb 01                	jmp    f8dd <func_9+0x2bc2>
    f8dc:	90                   	nop
    f8dd:	8b 05 95 07 01 00    	mov    0x10795(%rip),%eax        # 20078 <g_897>
    f8e3:	83 e8 01             	sub    $0x1,%eax
    f8e6:	89 05 8c 07 01 00    	mov    %eax,0x1078c(%rip)        # 20078 <g_897>
    f8ec:	8b 05 86 07 01 00    	mov    0x10786(%rip),%eax        # 20078 <g_897>
    f8f2:	85 c0                	test   %eax,%eax
    f8f4:	0f 89 32 eb ff ff    	jns    e42c <func_9+0x1711>
    f8fa:	e9 d4 04 00 00       	jmpq   fdd3 <func_9+0x30b8>
    f8ff:	66 c7 85 0c ea ff ff 	movw   $0x3,-0x15f4(%rbp)
    f906:	03 00 
    f908:	48 8d 05 a1 e8 00 00 	lea    0xe8a1(%rip),%rax        # 1e1b0 <g_292+0x10>
    f90f:	48 89 85 00 ec ff ff 	mov    %rax,-0x1400(%rbp)
    f916:	48 c7 85 08 ec ff ff 	movq   $0x0,-0x13f8(%rbp)
    f91d:	00 00 00 00 
    f921:	48 8d 85 20 fa ff ff 	lea    -0x5e0(%rbp),%rax
    f928:	48 8d 15 51 28 01 00 	lea    0x12851(%rip),%rdx        # 22180 <g_1852+0xfd8>
    f92f:	b9 23 00 00 00       	mov    $0x23,%ecx
    f934:	48 89 c7             	mov    %rax,%rdi
    f937:	48 89 d6             	mov    %rdx,%rsi
    f93a:	f3 48 a5             	rep movsq %ds:(%rsi),%es:(%rdi)
    f93d:	c7 85 08 eb ff ff 83 	movl   $0xaaae4b83,-0x14f8(%rbp)
    f944:	4b ae aa 
    f947:	48 8d 05 4c e8 00 00 	lea    0xe84c(%rip),%rax        # 1e19a <g_236>
    f94e:	48 89 85 10 ec ff ff 	mov    %rax,-0x13f0(%rbp)
    f955:	48 8d 05 40 e8 00 00 	lea    0xe840(%rip),%rax        # 1e19c <g_281>
    f95c:	48 89 85 80 f5 ff ff 	mov    %rax,-0xa80(%rbp)
    f963:	48 8d 05 32 e8 00 00 	lea    0xe832(%rip),%rax        # 1e19c <g_281>
    f96a:	48 89 85 88 f5 ff ff 	mov    %rax,-0xa78(%rbp)
    f971:	48 8d 05 24 e8 00 00 	lea    0xe824(%rip),%rax        # 1e19c <g_281>
    f978:	48 89 85 90 f5 ff ff 	mov    %rax,-0xa70(%rbp)
    f97f:	48 8d 05 16 e8 00 00 	lea    0xe816(%rip),%rax        # 1e19c <g_281>
    f986:	48 89 85 98 f5 ff ff 	mov    %rax,-0xa68(%rbp)
    f98d:	48 8d 05 08 e8 00 00 	lea    0xe808(%rip),%rax        # 1e19c <g_281>
    f994:	48 89 85 a0 f5 ff ff 	mov    %rax,-0xa60(%rbp)
    f99b:	48 8d 05 fa e7 00 00 	lea    0xe7fa(%rip),%rax        # 1e19c <g_281>
    f9a2:	48 89 85 a8 f5 ff ff 	mov    %rax,-0xa58(%rbp)
    f9a9:	48 8d 05 ec e7 00 00 	lea    0xe7ec(%rip),%rax        # 1e19c <g_281>
    f9b0:	48 89 85 b0 f5 ff ff 	mov    %rax,-0xa50(%rbp)
    f9b7:	48 8d 05 de e7 00 00 	lea    0xe7de(%rip),%rax        # 1e19c <g_281>
    f9be:	48 89 85 b8 f5 ff ff 	mov    %rax,-0xa48(%rbp)
    f9c5:	48 8d 05 d0 e7 00 00 	lea    0xe7d0(%rip),%rax        # 1e19c <g_281>
    f9cc:	48 89 85 c0 f5 ff ff 	mov    %rax,-0xa40(%rbp)
    f9d3:	48 8d 05 c2 e7 00 00 	lea    0xe7c2(%rip),%rax        # 1e19c <g_281>
    f9da:	48 89 85 c8 f5 ff ff 	mov    %rax,-0xa38(%rbp)
    f9e1:	48 8d 05 b4 e7 00 00 	lea    0xe7b4(%rip),%rax        # 1e19c <g_281>
    f9e8:	48 89 85 d0 f5 ff ff 	mov    %rax,-0xa30(%rbp)
    f9ef:	48 8d 05 a6 e7 00 00 	lea    0xe7a6(%rip),%rax        # 1e19c <g_281>
    f9f6:	48 89 85 d8 f5 ff ff 	mov    %rax,-0xa28(%rbp)
    f9fd:	48 8d 05 98 e7 00 00 	lea    0xe798(%rip),%rax        # 1e19c <g_281>
    fa04:	48 89 85 e0 f5 ff ff 	mov    %rax,-0xa20(%rbp)
    fa0b:	48 8d 05 8a e7 00 00 	lea    0xe78a(%rip),%rax        # 1e19c <g_281>
    fa12:	48 89 85 e8 f5 ff ff 	mov    %rax,-0xa18(%rbp)
    fa19:	48 8d 05 7c e7 00 00 	lea    0xe77c(%rip),%rax        # 1e19c <g_281>
    fa20:	48 89 85 f0 f5 ff ff 	mov    %rax,-0xa10(%rbp)
    fa27:	48 8d 05 6e e7 00 00 	lea    0xe76e(%rip),%rax        # 1e19c <g_281>
    fa2e:	48 89 85 f8 f5 ff ff 	mov    %rax,-0xa08(%rbp)
    fa35:	48 8d 05 60 e7 00 00 	lea    0xe760(%rip),%rax        # 1e19c <g_281>
    fa3c:	48 89 85 00 f6 ff ff 	mov    %rax,-0xa00(%rbp)
    fa43:	48 8d 05 52 e7 00 00 	lea    0xe752(%rip),%rax        # 1e19c <g_281>
    fa4a:	48 89 85 08 f6 ff ff 	mov    %rax,-0x9f8(%rbp)
    fa51:	48 8d 05 44 e7 00 00 	lea    0xe744(%rip),%rax        # 1e19c <g_281>
    fa58:	48 89 85 10 f6 ff ff 	mov    %rax,-0x9f0(%rbp)
    fa5f:	48 8d 05 36 e7 00 00 	lea    0xe736(%rip),%rax        # 1e19c <g_281>
    fa66:	48 89 85 18 f6 ff ff 	mov    %rax,-0x9e8(%rbp)
    fa6d:	48 8d 05 28 e7 00 00 	lea    0xe728(%rip),%rax        # 1e19c <g_281>
    fa74:	48 89 85 20 f6 ff ff 	mov    %rax,-0x9e0(%rbp)
    fa7b:	48 8d 05 1a e7 00 00 	lea    0xe71a(%rip),%rax        # 1e19c <g_281>
    fa82:	48 89 85 28 f6 ff ff 	mov    %rax,-0x9d8(%rbp)
    fa89:	48 8d 05 0c e7 00 00 	lea    0xe70c(%rip),%rax        # 1e19c <g_281>
    fa90:	48 89 85 30 f6 ff ff 	mov    %rax,-0x9d0(%rbp)
    fa97:	48 8d 05 fe e6 00 00 	lea    0xe6fe(%rip),%rax        # 1e19c <g_281>
    fa9e:	48 89 85 38 f6 ff ff 	mov    %rax,-0x9c8(%rbp)
    faa5:	48 8d 05 f0 e6 00 00 	lea    0xe6f0(%rip),%rax        # 1e19c <g_281>
    faac:	48 89 85 40 f6 ff ff 	mov    %rax,-0x9c0(%rbp)
    fab3:	48 8d 05 e2 e6 00 00 	lea    0xe6e2(%rip),%rax        # 1e19c <g_281>
    faba:	48 89 85 48 f6 ff ff 	mov    %rax,-0x9b8(%rbp)
    fac1:	48 8d 05 d4 e6 00 00 	lea    0xe6d4(%rip),%rax        # 1e19c <g_281>
    fac8:	48 89 85 50 f6 ff ff 	mov    %rax,-0x9b0(%rbp)
    facf:	48 8d 05 c6 e6 00 00 	lea    0xe6c6(%rip),%rax        # 1e19c <g_281>
    fad6:	48 89 85 58 f6 ff ff 	mov    %rax,-0x9a8(%rbp)
    fadd:	48 8d 05 b8 e6 00 00 	lea    0xe6b8(%rip),%rax        # 1e19c <g_281>
    fae4:	48 89 85 60 f6 ff ff 	mov    %rax,-0x9a0(%rbp)
    faeb:	48 8d 05 aa e6 00 00 	lea    0xe6aa(%rip),%rax        # 1e19c <g_281>
    faf2:	48 89 85 68 f6 ff ff 	mov    %rax,-0x998(%rbp)
    faf9:	48 8d 05 9c e6 00 00 	lea    0xe69c(%rip),%rax        # 1e19c <g_281>
    fb00:	48 89 85 70 f6 ff ff 	mov    %rax,-0x990(%rbp)
    fb07:	48 8d 05 8e e6 00 00 	lea    0xe68e(%rip),%rax        # 1e19c <g_281>
    fb0e:	48 89 85 78 f6 ff ff 	mov    %rax,-0x988(%rbp)
    fb15:	c7 85 84 ea ff ff ff 	movl   $0xffffffff,-0x157c(%rbp)
    fb1c:	ff ff ff 
    fb1f:	c7 85 30 ea ff ff fe 	movl   $0xf07cf5fe,-0x15d0(%rbp)
    fb26:	f5 7c f0 
    fb29:	48 8b 85 e0 e9 ff ff 	mov    -0x1620(%rbp),%rax
    fb30:	0f be d8             	movsbl %al,%ebx
    fb33:	0f b7 05 7a 05 01 00 	movzwl 0x1057a(%rip),%eax        # 200b4 <g_1153>
    fb3a:	44 0f be e0          	movsbl %al,%r12d
    fb3e:	8b 85 ec e9 ff ff    	mov    -0x1614(%rbp),%eax
    fb44:	44 0f bf e8          	movswl %ax,%r13d
    fb48:	8b 05 2e 05 01 00    	mov    0x1052e(%rip),%eax        # 2007c <g_943>
    fb4e:	44 0f be f0          	movsbl %al,%r14d
    fb52:	48 8b 05 77 42 01 00 	mov    0x14277(%rip),%rax        # 23dd0 <g_846>
    fb59:	48 8b 00             	mov    (%rax),%rax
    fb5c:	be 01 00 00 00       	mov    $0x1,%esi
    fb61:	48 89 c7             	mov    %rax,%rdi
    fb64:	e8 d8 9c ff ff       	callq  9841 <safe_add_func_int64_t_s_s>
    fb69:	c6 05 0d e6 00 00 00 	movb   $0x0,0xe60d(%rip)        # 1e17d <g_145+0xd>
    fb70:	0f b6 15 06 e6 00 00 	movzbl 0xe606(%rip),%edx        # 1e17d <g_145+0xd>
    fb77:	0f b6 05 ca e4 00 00 	movzbl 0xe4ca(%rip),%eax        # 1e048 <g_22>
    fb7e:	31 d0                	xor    %edx,%eax
    fb80:	88 05 c2 e4 00 00    	mov    %al,0xe4c2(%rip)        # 1e048 <g_22>
    fb86:	0f b6 05 bb e4 00 00 	movzbl 0xe4bb(%rip),%eax        # 1e048 <g_22>
    fb8d:	0f be c0             	movsbl %al,%eax
    fb90:	44 89 f6             	mov    %r14d,%esi
    fb93:	89 c7                	mov    %eax,%edi
    fb95:	e8 78 96 ff ff       	callq  9212 <safe_mul_func_int8_t_s_s>
    fb9a:	48 8b 15 f7 41 01 00 	mov    0x141f7(%rip),%rdx        # 23d98 <g_195>
    fba1:	0f b7 0a             	movzwl (%rdx),%ecx
    fba4:	66 0f be d0          	movsbw %al,%dx
    fba8:	48 8b 05 e9 41 01 00 	mov    0x141e9(%rip),%rax        # 23d98 <g_195>
    fbaf:	31 ca                	xor    %ecx,%edx
    fbb1:	66 89 10             	mov    %dx,(%rax)
    fbb4:	0f b7 00             	movzwl (%rax),%eax
    fbb7:	66 83 f8 ff          	cmp    $0xffff,%ax
    fbbb:	0f 95 c0             	setne  %al
    fbbe:	0f b6 c0             	movzbl %al,%eax
    fbc1:	f7 d0                	not    %eax
    fbc3:	89 c2                	mov    %eax,%edx
    fbc5:	8b 85 08 eb ff ff    	mov    -0x14f8(%rbp),%eax
    fbcb:	21 d0                	and    %edx,%eax
    fbcd:	89 85 08 eb ff ff    	mov    %eax,-0x14f8(%rbp)
    fbd3:	44 89 ee             	mov    %r13d,%esi
    fbd6:	bf 88 79 00 00       	mov    $0x7988,%edi
    fbdb:	e8 f3 97 ff ff       	callq  93d3 <safe_sub_func_int16_t_s_s>
    fbe0:	0f be c0             	movsbl %al,%eax
    fbe3:	44 89 e6             	mov    %r12d,%esi
    fbe6:	89 c7                	mov    %eax,%edi
    fbe8:	e8 25 96 ff ff       	callq  9212 <safe_mul_func_int8_t_s_s>
    fbed:	3c f9                	cmp    $0xf9,%al
    fbef:	0f 97 c0             	seta   %al
    fbf2:	0f b6 c0             	movzbl %al,%eax
    fbf5:	89 de                	mov    %ebx,%esi
    fbf7:	89 c7                	mov    %eax,%edi
    fbf9:	e8 33 96 ff ff       	callq  9231 <safe_mod_func_int8_t_s_s>
    fbfe:	84 c0                	test   %al,%al
    fc00:	74 07                	je     fc09 <func_9+0x2eee>
    fc02:	b8 01 00 00 00       	mov    $0x1,%eax
    fc07:	eb 05                	jmp    fc0e <func_9+0x2ef3>
    fc09:	b8 00 00 00 00       	mov    $0x0,%eax
    fc0e:	0f b6 d0             	movzbl %al,%edx
    fc11:	48 8b 05 d8 47 01 00 	mov    0x147d8(%rip),%rax        # 243f0 <g_1562>
    fc18:	0f b6 00             	movzbl (%rax),%eax
    fc1b:	0f b6 c0             	movzbl %al,%eax
    fc1e:	89 d6                	mov    %edx,%esi
    fc20:	89 c7                	mov    %eax,%edi
    fc22:	e8 51 9f ff ff       	callq  9b78 <safe_sub_func_uint8_t_u_u>
    fc27:	84 c0                	test   %al,%al
    fc29:	0f 95 c0             	setne  %al
    fc2c:	0f b6 c0             	movzbl %al,%eax
    fc2f:	be cd 03 00 00       	mov    $0x3cd,%esi
    fc34:	89 c7                	mov    %eax,%edi
    fc36:	e8 db 97 ff ff       	callq  9416 <safe_mod_func_int16_t_s_s>
    fc3b:	48 8b 95 10 ec ff ff 	mov    -0x13f0(%rbp),%rdx
    fc42:	66 89 02             	mov    %ax,(%rdx)
    fc45:	48 8b 85 10 ec ff ff 	mov    -0x13f0(%rbp),%rax
    fc4c:	0f b7 00             	movzwl (%rax),%eax
    fc4f:	66 89 05 b2 f4 00 00 	mov    %ax,0xf4b2(%rip)        # 1f108 <g_606>
    fc56:	0f b7 05 ab f4 00 00 	movzwl 0xf4ab(%rip),%eax        # 1f108 <g_606>
    fc5d:	66 89 05 38 e5 00 00 	mov    %ax,0xe538(%rip)        # 1e19c <g_281>
    fc64:	48 8b 95 e0 e9 ff ff 	mov    -0x1620(%rbp),%rdx
    fc6b:	48 8b 85 e0 e9 ff ff 	mov    -0x1620(%rbp),%rax
    fc72:	48 89 d6             	mov    %rdx,%rsi
    fc75:	48 89 c7             	mov    %rax,%rdi
    fc78:	e8 c4 9b ff ff       	callq  9841 <safe_add_func_int64_t_s_s>
    fc7d:	89 c2                	mov    %eax,%edx
    fc7f:	48 8b 05 ca 46 01 00 	mov    0x146ca(%rip),%rax        # 24350 <g_911>
    fc86:	0f b7 00             	movzwl (%rax),%eax
    fc89:	0f b7 c0             	movzwl %ax,%eax
    fc8c:	89 d6                	mov    %edx,%esi
    fc8e:	89 c7                	mov    %eax,%edi
    fc90:	e8 e5 a1 ff ff       	callq  9e7a <safe_rshift_func_uint16_t_u_u>
    fc95:	48 8b 15 e4 47 01 00 	mov    0x147e4(%rip),%rdx        # 24480 <g_1702>
    fc9c:	48 8b 0a             	mov    (%rdx),%rcx
    fc9f:	0f b7 d0             	movzwl %ax,%edx
    fca2:	48 8b 05 d7 47 01 00 	mov    0x147d7(%rip),%rax        # 24480 <g_1702>
    fca9:	48 31 ca             	xor    %rcx,%rdx
    fcac:	48 89 10             	mov    %rdx,(%rax)
    fcaf:	48 8b 00             	mov    (%rax),%rax
    fcb2:	89 c2                	mov    %eax,%edx
    fcb4:	0f b7 85 0c ea ff ff 	movzwl -0x15f4(%rbp),%eax
    fcbb:	09 d0                	or     %edx,%eax
    fcbd:	89 85 84 ea ff ff    	mov    %eax,-0x157c(%rbp)
    fcc3:	48 8b 05 de 38 01 00 	mov    0x138de(%rip),%rax        # 235a8 <g_152>
    fcca:	48 8b 00             	mov    (%rax),%rax
    fccd:	c7 00 03 00 00 00    	movl   $0x3,(%rax)
    fcd3:	48 c7 05 e2 03 01 00 	movq   $0x12,0x103e2(%rip)        # 200c0 <g_1197>
    fcda:	12 00 00 00 
    fcde:	e9 d9 00 00 00       	jmpq   fdbc <func_9+0x30a1>
    fce3:	48 8d 85 08 eb ff ff 	lea    -0x14f8(%rbp),%rax
    fcea:	48 89 85 18 ec ff ff 	mov    %rax,-0x13e8(%rbp)
    fcf1:	66 c7 05 fa f3 00 00 	movw   $0x0,0xf3fa(%rip)        # 1f0f4 <g_542>
    fcf8:	00 00 
    fcfa:	eb 6d                	jmp    fd69 <func_9+0x304e>
    fcfc:	48 8b 85 e0 e9 ff ff 	mov    -0x1620(%rbp),%rax
    fd03:	31 85 30 ea ff ff    	xor    %eax,-0x15d0(%rbp)
    fd09:	83 bd 30 ea ff ff 00 	cmpl   $0x0,-0x15d0(%rbp)
    fd10:	74 1d                	je     fd2f <func_9+0x3014>
    fd12:	48 8b 05 9f 40 01 00 	mov    0x1409f(%rip),%rax        # 23db8 <g_564>
    fd19:	48 8b 95 18 ec ff ff 	mov    -0x13e8(%rbp),%rdx
    fd20:	48 89 10             	mov    %rdx,(%rax)
    fd23:	0f b7 85 0c ea ff ff 	movzwl -0x15f4(%rbp),%eax
    fd2a:	e9 ab 00 00 00       	jmpq   fdda <func_9+0x30bf>
    fd2f:	48 8b 95 b8 ea ff ff 	mov    -0x1548(%rbp),%rdx
    fd36:	48 8b 85 b8 ea ff ff 	mov    -0x1548(%rbp),%rax
    fd3d:	48 8b 0a             	mov    (%rdx),%rcx
    fd40:	48 89 08             	mov    %rcx,(%rax)
    fd43:	8b 4a 08             	mov    0x8(%rdx),%ecx
    fd46:	89 48 08             	mov    %ecx,0x8(%rax)
    fd49:	0f b7 4a 0c          	movzwl 0xc(%rdx),%ecx
    fd4d:	66 89 48 0c          	mov    %cx,0xc(%rax)
    fd51:	0f b6 52 0e          	movzbl 0xe(%rdx),%edx
    fd55:	88 50 0e             	mov    %dl,0xe(%rax)
    fd58:	0f b7 05 95 f3 00 00 	movzwl 0xf395(%rip),%eax        # 1f0f4 <g_542>
    fd5f:	83 c0 01             	add    $0x1,%eax
    fd62:	66 89 05 8b f3 00 00 	mov    %ax,0xf38b(%rip)        # 1f0f4 <g_542>
    fd69:	0f b7 05 84 f3 00 00 	movzwl 0xf384(%rip),%eax        # 1f0f4 <g_542>
    fd70:	66 83 f8 16          	cmp    $0x16,%ax
    fd74:	75 86                	jne    fcfc <func_9+0x2fe1>
    fd76:	8b 85 ec e9 ff ff    	mov    -0x1614(%rbp),%eax
    fd7c:	85 c0                	test   %eax,%eax
    fd7e:	75 52                	jne    fdd2 <func_9+0x30b7>
    fd80:	48 8b 05 d1 45 01 00 	mov    0x145d1(%rip),%rax        # 24358 <g_910>
    fd87:	48 8b 00             	mov    (%rax),%rax
    fd8a:	0f b7 00             	movzwl (%rax),%eax
    fd8d:	0f b7 c0             	movzwl %ax,%eax
    fd90:	be 04 00 00 00       	mov    $0x4,%esi
    fd95:	89 c7                	mov    %eax,%edi
    fd97:	e8 ac a0 ff ff       	callq  9e48 <safe_rshift_func_uint16_t_u_s>
    fd9c:	89 c2                	mov    %eax,%edx
    fd9e:	48 8b 05 fb 37 01 00 	mov    0x137fb(%rip),%rax        # 235a0 <g_153>
    fda5:	0f b7 d2             	movzwl %dx,%edx
    fda8:	89 10                	mov    %edx,(%rax)
    fdaa:	48 8b 05 0f 03 01 00 	mov    0x1030f(%rip),%rax        # 200c0 <g_1197>
    fdb1:	48 83 c0 01          	add    $0x1,%rax
    fdb5:	48 89 05 04 03 01 00 	mov    %rax,0x10304(%rip)        # 200c0 <g_1197>
    fdbc:	48 8b 05 fd 02 01 00 	mov    0x102fd(%rip),%rax        # 200c0 <g_1197>
    fdc3:	48 83 f8 3c          	cmp    $0x3c,%rax
    fdc7:	0f 86 16 ff ff ff    	jbe    fce3 <func_9+0x2fc8>
    fdcd:	eb 04                	jmp    fdd3 <func_9+0x30b8>
    fdcf:	90                   	nop
    fdd0:	eb 01                	jmp    fdd3 <func_9+0x30b8>
    fdd2:	90                   	nop
    fdd3:	48 8b 85 e0 e9 ff ff 	mov    -0x1620(%rbp),%rax
    fdda:	48 8b 5d c8          	mov    -0x38(%rbp),%rbx
    fdde:	64 48 33 1c 25 28 00 	xor    %fs:0x28,%rbx
    fde5:	00 00 
    fde7:	74 05                	je     fdee <func_9+0x30d3>
    fde9:	e8 82 92 ff ff       	callq  9070 <__stack_chk_fail@plt>
    fdee:	48 81 c4 08 16 00 00 	add    $0x1608,%rsp
    fdf5:	5b                   	pop    %rbx
    fdf6:	41 5c                	pop    %r12
    fdf8:	41 5d                	pop    %r13
    fdfa:	41 5e                	pop    %r14
    fdfc:	41 5f                	pop    %r15
    fdfe:	5d                   	pop    %rbp
    fdff:	c3                   	retq   

000000000000fe00 <func_12>:
    fe00:	f3 0f 1e fa          	endbr64 
    fe04:	55                   	push   %rbp
    fe05:	48 89 e5             	mov    %rsp,%rbp
    fe08:	48 81 ec d0 09 00 00 	sub    $0x9d0,%rsp
    fe0f:	89 fa                	mov    %edi,%edx
    fe11:	89 f0                	mov    %esi,%eax
    fe13:	88 95 3c f6 ff ff    	mov    %dl,-0x9c4(%rbp)
    fe19:	88 85 38 f6 ff ff    	mov    %al,-0x9c8(%rbp)
    fe1f:	64 48 8b 04 25 28 00 	mov    %fs:0x28,%rax
    fe26:	00 00 
    fe28:	48 89 45 f8          	mov    %rax,-0x8(%rbp)
    fe2c:	31 c0                	xor    %eax,%eax
    fe2e:	66 c7 85 4e f6 ff ff 	movw   $0xffff,-0x9b2(%rbp)
    fe35:	ff ff 
    fe37:	48 8d 05 12 e3 00 00 	lea    0xe312(%rip),%rax        # 1e150 <g_105>
    fe3e:	48 89 85 98 f6 ff ff 	mov    %rax,-0x968(%rbp)
    fe45:	48 8d 85 98 f6 ff ff 	lea    -0x968(%rbp),%rax
    fe4c:	48 89 85 60 f7 ff ff 	mov    %rax,-0x8a0(%rbp)
    fe53:	48 8d 85 98 f6 ff ff 	lea    -0x968(%rbp),%rax
    fe5a:	48 89 85 68 f7 ff ff 	mov    %rax,-0x898(%rbp)
    fe61:	48 8d 85 98 f6 ff ff 	lea    -0x968(%rbp),%rax
    fe68:	48 89 85 70 f7 ff ff 	mov    %rax,-0x890(%rbp)
    fe6f:	48 8d 85 98 f6 ff ff 	lea    -0x968(%rbp),%rax
    fe76:	48 89 85 78 f7 ff ff 	mov    %rax,-0x888(%rbp)
    fe7d:	48 c7 85 c0 f6 ff ff 	movq   $0x0,-0x940(%rbp)
    fe84:	00 00 00 00 
    fe88:	48 c7 85 00 f8 ff ff 	movq   $0x0,-0x800(%rbp)
    fe8f:	00 00 00 00 
    fe93:	48 c7 85 08 f8 ff ff 	movq   $0x0,-0x7f8(%rbp)
    fe9a:	00 00 00 00 
    fe9e:	48 8d 85 60 f7 ff ff 	lea    -0x8a0(%rbp),%rax
    fea5:	48 83 c0 18          	add    $0x18,%rax
    fea9:	48 89 85 10 f8 ff ff 	mov    %rax,-0x7f0(%rbp)
    feb0:	48 c7 85 18 f8 ff ff 	movq   $0x0,-0x7e8(%rbp)
    feb7:	00 00 00 00 
    febb:	48 c7 85 20 f8 ff ff 	movq   $0x0,-0x7e0(%rbp)
    fec2:	00 00 00 00 
    fec6:	48 8d 85 60 f7 ff ff 	lea    -0x8a0(%rbp),%rax
    fecd:	48 83 c0 18          	add    $0x18,%rax
    fed1:	48 89 85 28 f8 ff ff 	mov    %rax,-0x7d8(%rbp)
    fed8:	48 c7 85 30 f8 ff ff 	movq   $0x0,-0x7d0(%rbp)
    fedf:	00 00 00 00 
    fee3:	48 c7 85 38 f8 ff ff 	movq   $0x0,-0x7c8(%rbp)
    feea:	00 00 00 00 
    feee:	48 8d 85 60 f7 ff ff 	lea    -0x8a0(%rbp),%rax
    fef5:	48 83 c0 18          	add    $0x18,%rax
    fef9:	48 89 85 40 f8 ff ff 	mov    %rax,-0x7c0(%rbp)
    ff00:	48 c7 85 48 f8 ff ff 	movq   $0x0,-0x7b8(%rbp)
    ff07:	00 00 00 00 
    ff0b:	48 c7 85 50 f8 ff ff 	movq   $0x0,-0x7b0(%rbp)
    ff12:	00 00 00 00 
    ff16:	48 8d 85 60 f7 ff ff 	lea    -0x8a0(%rbp),%rax
    ff1d:	48 83 c0 18          	add    $0x18,%rax
    ff21:	48 89 85 58 f8 ff ff 	mov    %rax,-0x7a8(%rbp)
    ff28:	48 c7 85 60 f8 ff ff 	movq   $0x0,-0x7a0(%rbp)
    ff2f:	00 00 00 00 
    ff33:	48 c7 85 68 f8 ff ff 	movq   $0x0,-0x798(%rbp)
    ff3a:	00 00 00 00 
    ff3e:	48 8d 85 60 f7 ff ff 	lea    -0x8a0(%rbp),%rax
    ff45:	48 83 c0 18          	add    $0x18,%rax
    ff49:	48 89 85 70 f8 ff ff 	mov    %rax,-0x790(%rbp)
    ff50:	48 c7 85 78 f8 ff ff 	movq   $0x0,-0x788(%rbp)
    ff57:	00 00 00 00 
    ff5b:	48 c7 85 80 f8 ff ff 	movq   $0x0,-0x780(%rbp)
    ff62:	00 00 00 00 
    ff66:	48 8d 85 60 f7 ff ff 	lea    -0x8a0(%rbp),%rax
    ff6d:	48 83 c0 18          	add    $0x18,%rax
    ff71:	48 89 85 88 f8 ff ff 	mov    %rax,-0x778(%rbp)
    ff78:	48 8d 05 49 49 01 00 	lea    0x14949(%rip),%rax        # 248c8 <g_6>
    ff7f:	48 89 85 a0 f6 ff ff 	mov    %rax,-0x960(%rbp)
    ff86:	48 c7 85 b0 f7 ff ff 	movq   $0x0,-0x850(%rbp)
    ff8d:	00 00 00 00 
    ff91:	48 c7 85 b8 f7 ff ff 	movq   $0x0,-0x848(%rbp)
    ff98:	00 00 00 00 
    ff9c:	48 c7 85 c0 f7 ff ff 	movq   $0x0,-0x840(%rbp)
    ffa3:	00 00 00 00 
    ffa7:	48 c7 85 c8 f7 ff ff 	movq   $0x0,-0x838(%rbp)
    ffae:	00 00 00 00 
    ffb2:	48 c7 85 d0 f7 ff ff 	movq   $0x0,-0x830(%rbp)
    ffb9:	00 00 00 00 
    ffbd:	48 c7 85 d8 f7 ff ff 	movq   $0x0,-0x828(%rbp)
    ffc4:	00 00 00 00 
    ffc8:	48 c7 85 e0 f7 ff ff 	movq   $0x0,-0x820(%rbp)
    ffcf:	00 00 00 00 
    ffd3:	48 c7 85 e8 f7 ff ff 	movq   $0x0,-0x818(%rbp)
    ffda:	00 00 00 00 
    ffde:	48 c7 85 f0 f7 ff ff 	movq   $0x0,-0x810(%rbp)
    ffe5:	00 00 00 00 
    ffe9:	48 c7 85 f8 f7 ff ff 	movq   $0x0,-0x808(%rbp)
    fff0:	00 00 00 00 
    fff4:	48 8d 05 dd ed 00 00 	lea    0xeddd(%rip),%rax        # 1edd8 <g_462+0xbb8>
    fffb:	48 89 85 c8 f6 ff ff 	mov    %rax,-0x938(%rbp)
   10002:	48 8d 95 90 f8 ff ff 	lea    -0x770(%rbp),%rdx
   10009:	b8 00 00 00 00       	mov    $0x0,%eax
   1000e:	b9 14 00 00 00       	mov    $0x14,%ecx
   10013:	48 89 d7             	mov    %rdx,%rdi
   10016:	f3 48 ab             	rep stos %rax,%es:(%rdi)
   10019:	48 8d 05 a0 3d 01 00 	lea    0x13da0(%rip),%rax        # 23dc0 <g_608>
   10020:	48 89 85 d0 f6 ff ff 	mov    %rax,-0x930(%rbp)
   10027:	c7 85 54 f6 ff ff fb 	movl   $0xfffffffb,-0x9ac(%rbp)
   1002e:	ff ff ff 
   10031:	48 c7 85 a8 f6 ff ff 	movq   $0x0,-0x958(%rbp)
   10038:	00 00 00 00 
   1003c:	48 8d 85 a8 f6 ff ff 	lea    -0x958(%rbp),%rax
   10043:	48 89 85 d8 f6 ff ff 	mov    %rax,-0x928(%rbp)
   1004a:	48 c7 85 e0 f6 ff ff 	movq   $0x1,-0x920(%rbp)
   10051:	01 00 00 00 
   10055:	48 8b 85 78 f7 ff ff 	mov    -0x888(%rbp),%rax
   1005c:	48 89 05 75 3d 01 00 	mov    %rax,0x13d75(%rip)        # 23dd8 <g_845>
   10063:	48 8b 05 6e 3d 01 00 	mov    0x13d6e(%rip),%rax        # 23dd8 <g_845>
   1006a:	48 85 c0             	test   %rax,%rax
   1006d:	0f 95 c0             	setne  %al
   10070:	0f b6 d0             	movzbl %al,%edx
   10073:	0f b7 85 4e f6 ff ff 	movzwl -0x9b2(%rbp),%eax
   1007a:	31 d0                	xor    %edx,%eax
   1007c:	0f bf d0             	movswl %ax,%edx
   1007f:	0f be 8d 3c f6 ff ff 	movsbl -0x9c4(%rbp),%ecx
   10086:	0f b7 85 4e f6 ff ff 	movzwl -0x9b2(%rbp),%eax
   1008d:	39 c1                	cmp    %eax,%ecx
   1008f:	0f 9e c0             	setle  %al
   10092:	0f b6 c0             	movzbl %al,%eax
   10095:	89 d6                	mov    %edx,%esi
   10097:	89 c7                	mov    %eax,%edi
   10099:	e8 78 93 ff ff       	callq  9416 <safe_mod_func_int16_t_s_s>
   1009e:	66 83 bd 4e f6 ff ff 	cmpw   $0x0,-0x9b2(%rbp)
   100a5:	00 
   100a6:	74 67                	je     1010f <func_12+0x30f>
   100a8:	48 8d 05 95 df 00 00 	lea    0xdf95(%rip),%rax        # 1e044 <g_21>
   100af:	48 89 85 48 f7 ff ff 	mov    %rax,-0x8b8(%rbp)
   100b6:	66 c7 05 49 f0 00 00 	movw   $0xfffa,0xf049(%rip)        # 1f108 <g_606>
   100bd:	fa ff 
   100bf:	eb 3c                	jmp    100fd <func_12+0x2fd>
   100c1:	48 8d 05 68 df 00 00 	lea    0xdf68(%rip),%rax        # 1e030 <g_3>
   100c8:	48 89 85 50 f7 ff ff 	mov    %rax,-0x8b0(%rbp)
   100cf:	48 8b 85 50 f7 ff ff 	mov    -0x8b0(%rbp),%rax
   100d6:	48 89 85 48 f7 ff ff 	mov    %rax,-0x8b8(%rbp)
   100dd:	0f b7 05 24 f0 00 00 	movzwl 0xf024(%rip),%eax        # 1f108 <g_606>
   100e4:	0f b6 c0             	movzbl %al,%eax
   100e7:	be 09 00 00 00       	mov    $0x9,%esi
   100ec:	89 c7                	mov    %eax,%edi
   100ee:	e8 85 9a ff ff       	callq  9b78 <safe_sub_func_uint8_t_u_u>
   100f3:	0f b6 c0             	movzbl %al,%eax
   100f6:	66 89 05 0b f0 00 00 	mov    %ax,0xf00b(%rip)        # 1f108 <g_606>
   100fd:	0f b7 05 04 f0 00 00 	movzwl 0xf004(%rip),%eax        # 1f108 <g_606>
   10104:	66 83 f8 e9          	cmp    $0xffe9,%ax
   10108:	7d b7                	jge    100c1 <func_12+0x2c1>
   1010a:	e9 2a 16 00 00       	jmpq   11739 <func_12+0x1939>
   1010f:	c7 85 68 f6 ff ff d1 	movl   $0x714e4dd1,-0x998(%rbp)
   10116:	4d 4e 71 
   10119:	48 8d 05 78 3c 01 00 	lea    0x13c78(%rip),%rax        # 23d98 <g_195>
   10120:	48 89 85 e8 f6 ff ff 	mov    %rax,-0x918(%rbp)
   10127:	48 8d 05 41 f4 00 00 	lea    0xf441(%rip),%rax        # 1f56f <g_795+0x3cf>
   1012e:	48 89 85 b0 f6 ff ff 	mov    %rax,-0x950(%rbp)
   10135:	c7 85 58 f6 ff ff 01 	movl   $0x1,-0x9a8(%rbp)
   1013c:	00 00 00 
   1013f:	c7 85 6c f6 ff ff b6 	movl   $0x4a219b6,-0x994(%rbp)
   10146:	19 a2 04 
   10149:	48 c7 85 f0 f6 ff ff 	movq   $0xfffffffffffffff7,-0x910(%rbp)
   10150:	f7 ff ff ff 
   10154:	c6 85 4b f6 ff ff ff 	movb   $0xff,-0x9b5(%rbp)
   1015b:	c7 85 70 f6 ff ff 08 	movl   $0x8,-0x990(%rbp)
   10162:	00 00 00 
   10165:	c7 85 74 f6 ff ff fb 	movl   $0xfffffffb,-0x98c(%rbp)
   1016c:	ff ff ff 
   1016f:	c7 85 78 f6 ff ff 91 	movl   $0x15fcde91,-0x988(%rbp)
   10176:	de fc 15 
   10179:	c6 85 4c f6 ff ff ff 	movb   $0xff,-0x9b4(%rbp)
   10180:	c7 85 7c f6 ff ff 06 	movl   $0x6,-0x984(%rbp)
   10187:	00 00 00 
   1018a:	c7 85 80 f6 ff ff 8c 	movl   $0x430a928c,-0x980(%rbp)
   10191:	92 0a 43 
   10194:	c6 05 f5 df 00 00 00 	movb   $0x0,0xdff5(%rip)        # 1e190 <g_148>
   1019b:	e9 e7 0b 00 00       	jmpq   10d87 <func_12+0xf87>
   101a0:	48 c7 85 28 f7 ff ff 	movq   $0x0,-0x8d8(%rbp)
   101a7:	00 00 00 00 
   101ab:	48 c7 85 b8 f6 ff ff 	movq   $0x0,-0x948(%rbp)
   101b2:	00 00 00 00 
   101b6:	48 8d 85 b8 f6 ff ff 	lea    -0x948(%rbp),%rax
   101bd:	48 89 85 30 f9 ff ff 	mov    %rax,-0x6d0(%rbp)
   101c4:	48 8d 85 b8 f6 ff ff 	lea    -0x948(%rbp),%rax
   101cb:	48 89 85 38 f9 ff ff 	mov    %rax,-0x6c8(%rbp)
   101d2:	48 8d 85 b8 f6 ff ff 	lea    -0x948(%rbp),%rax
   101d9:	48 89 85 40 f9 ff ff 	mov    %rax,-0x6c0(%rbp)
   101e0:	48 8d 85 b8 f6 ff ff 	lea    -0x948(%rbp),%rax
   101e7:	48 89 85 48 f9 ff ff 	mov    %rax,-0x6b8(%rbp)
   101ee:	48 8d 85 b8 f6 ff ff 	lea    -0x948(%rbp),%rax
   101f5:	48 89 85 50 f9 ff ff 	mov    %rax,-0x6b0(%rbp)
   101fc:	48 8d 85 b8 f6 ff ff 	lea    -0x948(%rbp),%rax
   10203:	48 89 85 58 f9 ff ff 	mov    %rax,-0x6a8(%rbp)
   1020a:	48 8d 85 b8 f6 ff ff 	lea    -0x948(%rbp),%rax
   10211:	48 89 85 60 f9 ff ff 	mov    %rax,-0x6a0(%rbp)
   10218:	48 8d 85 b8 f6 ff ff 	lea    -0x948(%rbp),%rax
   1021f:	48 89 85 68 f9 ff ff 	mov    %rax,-0x698(%rbp)
   10226:	48 c7 85 70 f9 ff ff 	movq   $0x0,-0x690(%rbp)
   1022d:	00 00 00 00 
   10231:	48 8d 85 b8 f6 ff ff 	lea    -0x948(%rbp),%rax
   10238:	48 89 85 78 f9 ff ff 	mov    %rax,-0x688(%rbp)
   1023f:	48 8d 85 b8 f6 ff ff 	lea    -0x948(%rbp),%rax
   10246:	48 89 85 80 f9 ff ff 	mov    %rax,-0x680(%rbp)
   1024d:	48 8d 85 b8 f6 ff ff 	lea    -0x948(%rbp),%rax
   10254:	48 89 85 88 f9 ff ff 	mov    %rax,-0x678(%rbp)
   1025b:	48 8d 85 b8 f6 ff ff 	lea    -0x948(%rbp),%rax
   10262:	48 89 85 90 f9 ff ff 	mov    %rax,-0x670(%rbp)
   10269:	48 c7 85 98 f9 ff ff 	movq   $0x0,-0x668(%rbp)
   10270:	00 00 00 00 
   10274:	48 c7 85 a0 f9 ff ff 	movq   $0x0,-0x660(%rbp)
   1027b:	00 00 00 00 
   1027f:	48 8d 85 b8 f6 ff ff 	lea    -0x948(%rbp),%rax
   10286:	48 89 85 a8 f9 ff ff 	mov    %rax,-0x658(%rbp)
   1028d:	48 8d 85 b8 f6 ff ff 	lea    -0x948(%rbp),%rax
   10294:	48 89 85 b0 f9 ff ff 	mov    %rax,-0x650(%rbp)
   1029b:	48 8d 85 b8 f6 ff ff 	lea    -0x948(%rbp),%rax
   102a2:	48 89 85 b8 f9 ff ff 	mov    %rax,-0x648(%rbp)
   102a9:	48 c7 85 c0 f9 ff ff 	movq   $0x0,-0x640(%rbp)
   102b0:	00 00 00 00 
   102b4:	48 c7 85 c8 f9 ff ff 	movq   $0x0,-0x638(%rbp)
   102bb:	00 00 00 00 
   102bf:	48 8d 85 b8 f6 ff ff 	lea    -0x948(%rbp),%rax
   102c6:	48 89 85 d0 f9 ff ff 	mov    %rax,-0x630(%rbp)
   102cd:	48 8d 85 b8 f6 ff ff 	lea    -0x948(%rbp),%rax
   102d4:	48 89 85 d8 f9 ff ff 	mov    %rax,-0x628(%rbp)
   102db:	48 c7 85 e0 f9 ff ff 	movq   $0x0,-0x620(%rbp)
   102e2:	00 00 00 00 
   102e6:	48 8d 85 b8 f6 ff ff 	lea    -0x948(%rbp),%rax
   102ed:	48 89 85 e8 f9 ff ff 	mov    %rax,-0x618(%rbp)
   102f4:	48 8d 85 b8 f6 ff ff 	lea    -0x948(%rbp),%rax
   102fb:	48 89 85 f0 f9 ff ff 	mov    %rax,-0x610(%rbp)
   10302:	48 8d 85 b8 f6 ff ff 	lea    -0x948(%rbp),%rax
   10309:	48 89 85 f8 f9 ff ff 	mov    %rax,-0x608(%rbp)
   10310:	48 8d 85 b8 f6 ff ff 	lea    -0x948(%rbp),%rax
   10317:	48 89 85 00 fa ff ff 	mov    %rax,-0x600(%rbp)
   1031e:	48 8d 85 b8 f6 ff ff 	lea    -0x948(%rbp),%rax
   10325:	48 89 85 08 fa ff ff 	mov    %rax,-0x5f8(%rbp)
   1032c:	48 8d 85 b8 f6 ff ff 	lea    -0x948(%rbp),%rax
   10333:	48 89 85 10 fa ff ff 	mov    %rax,-0x5f0(%rbp)
   1033a:	48 8d 85 b8 f6 ff ff 	lea    -0x948(%rbp),%rax
   10341:	48 89 85 18 fa ff ff 	mov    %rax,-0x5e8(%rbp)
   10348:	48 8d 85 b8 f6 ff ff 	lea    -0x948(%rbp),%rax
   1034f:	48 89 85 20 fa ff ff 	mov    %rax,-0x5e0(%rbp)
   10356:	48 8d 85 b8 f6 ff ff 	lea    -0x948(%rbp),%rax
   1035d:	48 89 85 28 fa ff ff 	mov    %rax,-0x5d8(%rbp)
   10364:	48 8d 85 b8 f6 ff ff 	lea    -0x948(%rbp),%rax
   1036b:	48 89 85 30 fa ff ff 	mov    %rax,-0x5d0(%rbp)
   10372:	48 c7 85 38 fa ff ff 	movq   $0x0,-0x5c8(%rbp)
   10379:	00 00 00 00 
   1037d:	48 8d 85 b8 f6 ff ff 	lea    -0x948(%rbp),%rax
   10384:	48 89 85 40 fa ff ff 	mov    %rax,-0x5c0(%rbp)
   1038b:	48 8d 85 b8 f6 ff ff 	lea    -0x948(%rbp),%rax
   10392:	48 89 85 48 fa ff ff 	mov    %rax,-0x5b8(%rbp)
   10399:	48 8d 85 b8 f6 ff ff 	lea    -0x948(%rbp),%rax
   103a0:	48 89 85 50 fa ff ff 	mov    %rax,-0x5b0(%rbp)
   103a7:	48 8d 85 b8 f6 ff ff 	lea    -0x948(%rbp),%rax
   103ae:	48 89 85 58 fa ff ff 	mov    %rax,-0x5a8(%rbp)
   103b5:	48 8d 85 b8 f6 ff ff 	lea    -0x948(%rbp),%rax
   103bc:	48 89 85 60 fa ff ff 	mov    %rax,-0x5a0(%rbp)
   103c3:	48 8d 85 b8 f6 ff ff 	lea    -0x948(%rbp),%rax
   103ca:	48 89 85 68 fa ff ff 	mov    %rax,-0x598(%rbp)
   103d1:	48 8d 85 b8 f6 ff ff 	lea    -0x948(%rbp),%rax
   103d8:	48 89 85 70 fa ff ff 	mov    %rax,-0x590(%rbp)
   103df:	48 8d 85 b8 f6 ff ff 	lea    -0x948(%rbp),%rax
   103e6:	48 89 85 78 fa ff ff 	mov    %rax,-0x588(%rbp)
   103ed:	48 8d 85 b8 f6 ff ff 	lea    -0x948(%rbp),%rax
   103f4:	48 89 85 80 fa ff ff 	mov    %rax,-0x580(%rbp)
   103fb:	48 8d 85 b8 f6 ff ff 	lea    -0x948(%rbp),%rax
   10402:	48 89 85 88 fa ff ff 	mov    %rax,-0x578(%rbp)
   10409:	48 8d 85 b8 f6 ff ff 	lea    -0x948(%rbp),%rax
   10410:	48 89 85 90 fa ff ff 	mov    %rax,-0x570(%rbp)
   10417:	48 8d 85 b8 f6 ff ff 	lea    -0x948(%rbp),%rax
   1041e:	48 89 85 98 fa ff ff 	mov    %rax,-0x568(%rbp)
   10425:	48 8d 85 b8 f6 ff ff 	lea    -0x948(%rbp),%rax
   1042c:	48 89 85 a0 fa ff ff 	mov    %rax,-0x560(%rbp)
   10433:	48 8d 85 b8 f6 ff ff 	lea    -0x948(%rbp),%rax
   1043a:	48 89 85 a8 fa ff ff 	mov    %rax,-0x558(%rbp)
   10441:	48 c7 85 b0 fa ff ff 	movq   $0x0,-0x550(%rbp)
   10448:	00 00 00 00 
   1044c:	48 c7 85 b8 fa ff ff 	movq   $0x0,-0x548(%rbp)
   10453:	00 00 00 00 
   10457:	48 8d 85 b8 f6 ff ff 	lea    -0x948(%rbp),%rax
   1045e:	48 89 85 c0 fa ff ff 	mov    %rax,-0x540(%rbp)
   10465:	48 c7 85 c8 fa ff ff 	movq   $0x0,-0x538(%rbp)
   1046c:	00 00 00 00 
   10470:	48 c7 85 d0 fa ff ff 	movq   $0x0,-0x530(%rbp)
   10477:	00 00 00 00 
   1047b:	48 8d 85 b8 f6 ff ff 	lea    -0x948(%rbp),%rax
   10482:	48 89 85 d8 fa ff ff 	mov    %rax,-0x528(%rbp)
   10489:	48 8d 85 b8 f6 ff ff 	lea    -0x948(%rbp),%rax
   10490:	48 89 85 e0 fa ff ff 	mov    %rax,-0x520(%rbp)
   10497:	48 c7 85 e8 fa ff ff 	movq   $0x0,-0x518(%rbp)
   1049e:	00 00 00 00 
   104a2:	48 8d 85 b8 f6 ff ff 	lea    -0x948(%rbp),%rax
   104a9:	48 89 85 f0 fa ff ff 	mov    %rax,-0x510(%rbp)
   104b0:	48 8d 85 b8 f6 ff ff 	lea    -0x948(%rbp),%rax
   104b7:	48 89 85 f8 fa ff ff 	mov    %rax,-0x508(%rbp)
   104be:	48 8d 85 b8 f6 ff ff 	lea    -0x948(%rbp),%rax
   104c5:	48 89 85 00 fb ff ff 	mov    %rax,-0x500(%rbp)
   104cc:	48 8d 85 b8 f6 ff ff 	lea    -0x948(%rbp),%rax
   104d3:	48 89 85 08 fb ff ff 	mov    %rax,-0x4f8(%rbp)
   104da:	48 8d 85 b8 f6 ff ff 	lea    -0x948(%rbp),%rax
   104e1:	48 89 85 10 fb ff ff 	mov    %rax,-0x4f0(%rbp)
   104e8:	48 c7 85 18 fb ff ff 	movq   $0x0,-0x4e8(%rbp)
   104ef:	00 00 00 00 
   104f3:	48 8d 85 b8 f6 ff ff 	lea    -0x948(%rbp),%rax
   104fa:	48 89 85 20 fb ff ff 	mov    %rax,-0x4e0(%rbp)
   10501:	48 8d 85 b8 f6 ff ff 	lea    -0x948(%rbp),%rax
   10508:	48 89 85 28 fb ff ff 	mov    %rax,-0x4d8(%rbp)
   1050f:	48 8d 85 b8 f6 ff ff 	lea    -0x948(%rbp),%rax
   10516:	48 89 85 30 fb ff ff 	mov    %rax,-0x4d0(%rbp)
   1051d:	48 8d 85 b8 f6 ff ff 	lea    -0x948(%rbp),%rax
   10524:	48 89 85 38 fb ff ff 	mov    %rax,-0x4c8(%rbp)
   1052b:	48 8d 85 b8 f6 ff ff 	lea    -0x948(%rbp),%rax
   10532:	48 89 85 40 fb ff ff 	mov    %rax,-0x4c0(%rbp)
   10539:	48 8d 85 b8 f6 ff ff 	lea    -0x948(%rbp),%rax
   10540:	48 89 85 48 fb ff ff 	mov    %rax,-0x4b8(%rbp)
   10547:	48 8d 85 b8 f6 ff ff 	lea    -0x948(%rbp),%rax
   1054e:	48 89 85 50 fb ff ff 	mov    %rax,-0x4b0(%rbp)
   10555:	48 c7 85 58 fb ff ff 	movq   $0x0,-0x4a8(%rbp)
   1055c:	00 00 00 00 
   10560:	48 c7 85 60 fb ff ff 	movq   $0x0,-0x4a0(%rbp)
   10567:	00 00 00 00 
   1056b:	48 8d 85 b8 f6 ff ff 	lea    -0x948(%rbp),%rax
   10572:	48 89 85 68 fb ff ff 	mov    %rax,-0x498(%rbp)
   10579:	48 8d 85 b8 f6 ff ff 	lea    -0x948(%rbp),%rax
   10580:	48 89 85 70 fb ff ff 	mov    %rax,-0x490(%rbp)
   10587:	48 8d 85 b8 f6 ff ff 	lea    -0x948(%rbp),%rax
   1058e:	48 89 85 78 fb ff ff 	mov    %rax,-0x488(%rbp)
   10595:	48 8d 85 b8 f6 ff ff 	lea    -0x948(%rbp),%rax
   1059c:	48 89 85 80 fb ff ff 	mov    %rax,-0x480(%rbp)
   105a3:	48 c7 85 88 fb ff ff 	movq   $0x0,-0x478(%rbp)
   105aa:	00 00 00 00 
   105ae:	48 8d 85 b8 f6 ff ff 	lea    -0x948(%rbp),%rax
   105b5:	48 89 85 90 fb ff ff 	mov    %rax,-0x470(%rbp)
   105bc:	48 8d 85 b8 f6 ff ff 	lea    -0x948(%rbp),%rax
   105c3:	48 89 85 98 fb ff ff 	mov    %rax,-0x468(%rbp)
   105ca:	48 8d 85 b8 f6 ff ff 	lea    -0x948(%rbp),%rax
   105d1:	48 89 85 a0 fb ff ff 	mov    %rax,-0x460(%rbp)
   105d8:	48 c7 85 a8 fb ff ff 	movq   $0x0,-0x458(%rbp)
   105df:	00 00 00 00 
   105e3:	48 8d 85 b8 f6 ff ff 	lea    -0x948(%rbp),%rax
   105ea:	48 89 85 b0 fb ff ff 	mov    %rax,-0x450(%rbp)
   105f1:	48 c7 85 b8 fb ff ff 	movq   $0x0,-0x448(%rbp)
   105f8:	00 00 00 00 
   105fc:	48 8d 85 b8 f6 ff ff 	lea    -0x948(%rbp),%rax
   10603:	48 89 85 c0 fb ff ff 	mov    %rax,-0x440(%rbp)
   1060a:	48 8d 85 b8 f6 ff ff 	lea    -0x948(%rbp),%rax
   10611:	48 89 85 c8 fb ff ff 	mov    %rax,-0x438(%rbp)
   10618:	48 c7 85 d0 fb ff ff 	movq   $0x0,-0x430(%rbp)
   1061f:	00 00 00 00 
   10623:	48 8d 85 b8 f6 ff ff 	lea    -0x948(%rbp),%rax
   1062a:	48 89 85 d8 fb ff ff 	mov    %rax,-0x428(%rbp)
   10631:	48 8d 85 b8 f6 ff ff 	lea    -0x948(%rbp),%rax
   10638:	48 89 85 e0 fb ff ff 	mov    %rax,-0x420(%rbp)
   1063f:	48 8d 85 b8 f6 ff ff 	lea    -0x948(%rbp),%rax
   10646:	48 89 85 e8 fb ff ff 	mov    %rax,-0x418(%rbp)
   1064d:	48 8d 85 b8 f6 ff ff 	lea    -0x948(%rbp),%rax
   10654:	48 89 85 f0 fb ff ff 	mov    %rax,-0x410(%rbp)
   1065b:	48 8d 85 b8 f6 ff ff 	lea    -0x948(%rbp),%rax
   10662:	48 89 85 f8 fb ff ff 	mov    %rax,-0x408(%rbp)
   10669:	48 8d 85 b8 f6 ff ff 	lea    -0x948(%rbp),%rax
   10670:	48 89 85 00 fc ff ff 	mov    %rax,-0x400(%rbp)
   10677:	48 8d 85 b8 f6 ff ff 	lea    -0x948(%rbp),%rax
   1067e:	48 89 85 08 fc ff ff 	mov    %rax,-0x3f8(%rbp)
   10685:	48 8d 85 b8 f6 ff ff 	lea    -0x948(%rbp),%rax
   1068c:	48 89 85 10 fc ff ff 	mov    %rax,-0x3f0(%rbp)
   10693:	48 8d 85 b8 f6 ff ff 	lea    -0x948(%rbp),%rax
   1069a:	48 89 85 18 fc ff ff 	mov    %rax,-0x3e8(%rbp)
   106a1:	48 8d 85 b8 f6 ff ff 	lea    -0x948(%rbp),%rax
   106a8:	48 89 85 20 fc ff ff 	mov    %rax,-0x3e0(%rbp)
   106af:	48 8d 85 b8 f6 ff ff 	lea    -0x948(%rbp),%rax
   106b6:	48 89 85 28 fc ff ff 	mov    %rax,-0x3d8(%rbp)
   106bd:	48 8d 85 b8 f6 ff ff 	lea    -0x948(%rbp),%rax
   106c4:	48 89 85 30 fc ff ff 	mov    %rax,-0x3d0(%rbp)
   106cb:	48 c7 85 38 fc ff ff 	movq   $0x0,-0x3c8(%rbp)
   106d2:	00 00 00 00 
   106d6:	48 8d 85 b8 f6 ff ff 	lea    -0x948(%rbp),%rax
   106dd:	48 89 85 40 fc ff ff 	mov    %rax,-0x3c0(%rbp)
   106e4:	48 8d 85 b8 f6 ff ff 	lea    -0x948(%rbp),%rax
   106eb:	48 89 85 48 fc ff ff 	mov    %rax,-0x3b8(%rbp)
   106f2:	48 8d 85 b8 f6 ff ff 	lea    -0x948(%rbp),%rax
   106f9:	48 89 85 50 fc ff ff 	mov    %rax,-0x3b0(%rbp)
   10700:	48 8d 85 b8 f6 ff ff 	lea    -0x948(%rbp),%rax
   10707:	48 89 85 58 fc ff ff 	mov    %rax,-0x3a8(%rbp)
   1070e:	48 8d 85 b8 f6 ff ff 	lea    -0x948(%rbp),%rax
   10715:	48 89 85 60 fc ff ff 	mov    %rax,-0x3a0(%rbp)
   1071c:	48 8d 85 b8 f6 ff ff 	lea    -0x948(%rbp),%rax
   10723:	48 89 85 68 fc ff ff 	mov    %rax,-0x398(%rbp)
   1072a:	48 c7 85 70 fc ff ff 	movq   $0x0,-0x390(%rbp)
   10731:	00 00 00 00 
   10735:	48 8d 85 b8 f6 ff ff 	lea    -0x948(%rbp),%rax
   1073c:	48 89 85 78 fc ff ff 	mov    %rax,-0x388(%rbp)
   10743:	48 c7 85 80 fc ff ff 	movq   $0x0,-0x380(%rbp)
   1074a:	00 00 00 00 
   1074e:	48 8d 85 b8 f6 ff ff 	lea    -0x948(%rbp),%rax
   10755:	48 89 85 88 fc ff ff 	mov    %rax,-0x378(%rbp)
   1075c:	48 c7 85 90 fc ff ff 	movq   $0x0,-0x370(%rbp)
   10763:	00 00 00 00 
   10767:	48 8d 85 b8 f6 ff ff 	lea    -0x948(%rbp),%rax
   1076e:	48 89 85 98 fc ff ff 	mov    %rax,-0x368(%rbp)
   10775:	48 8d 85 b8 f6 ff ff 	lea    -0x948(%rbp),%rax
   1077c:	48 89 85 a0 fc ff ff 	mov    %rax,-0x360(%rbp)
   10783:	48 c7 85 a8 fc ff ff 	movq   $0x0,-0x358(%rbp)
   1078a:	00 00 00 00 
   1078e:	48 8d 85 b8 f6 ff ff 	lea    -0x948(%rbp),%rax
   10795:	48 89 85 b0 fc ff ff 	mov    %rax,-0x350(%rbp)
   1079c:	48 8d 85 b8 f6 ff ff 	lea    -0x948(%rbp),%rax
   107a3:	48 89 85 b8 fc ff ff 	mov    %rax,-0x348(%rbp)
   107aa:	48 8d 85 b8 f6 ff ff 	lea    -0x948(%rbp),%rax
   107b1:	48 89 85 c0 fc ff ff 	mov    %rax,-0x340(%rbp)
   107b8:	48 8d 85 b8 f6 ff ff 	lea    -0x948(%rbp),%rax
   107bf:	48 89 85 c8 fc ff ff 	mov    %rax,-0x338(%rbp)
   107c6:	48 c7 85 d0 fc ff ff 	movq   $0x0,-0x330(%rbp)
   107cd:	00 00 00 00 
   107d1:	48 c7 85 d8 fc ff ff 	movq   $0x0,-0x328(%rbp)
   107d8:	00 00 00 00 
   107dc:	48 8d 85 b8 f6 ff ff 	lea    -0x948(%rbp),%rax
   107e3:	48 89 85 e0 fc ff ff 	mov    %rax,-0x320(%rbp)
   107ea:	48 8d 85 b8 f6 ff ff 	lea    -0x948(%rbp),%rax
   107f1:	48 89 85 e8 fc ff ff 	mov    %rax,-0x318(%rbp)
   107f8:	48 8d 85 b8 f6 ff ff 	lea    -0x948(%rbp),%rax
   107ff:	48 89 85 f0 fc ff ff 	mov    %rax,-0x310(%rbp)
   10806:	48 8d 85 b8 f6 ff ff 	lea    -0x948(%rbp),%rax
   1080d:	48 89 85 f8 fc ff ff 	mov    %rax,-0x308(%rbp)
   10814:	48 8d 85 b8 f6 ff ff 	lea    -0x948(%rbp),%rax
   1081b:	48 89 85 00 fd ff ff 	mov    %rax,-0x300(%rbp)
   10822:	48 8d 85 b8 f6 ff ff 	lea    -0x948(%rbp),%rax
   10829:	48 89 85 08 fd ff ff 	mov    %rax,-0x2f8(%rbp)
   10830:	48 8d 85 b8 f6 ff ff 	lea    -0x948(%rbp),%rax
   10837:	48 89 85 10 fd ff ff 	mov    %rax,-0x2f0(%rbp)
   1083e:	48 8d 85 b8 f6 ff ff 	lea    -0x948(%rbp),%rax
   10845:	48 89 85 18 fd ff ff 	mov    %rax,-0x2e8(%rbp)
   1084c:	48 8d 85 b8 f6 ff ff 	lea    -0x948(%rbp),%rax
   10853:	48 89 85 20 fd ff ff 	mov    %rax,-0x2e0(%rbp)
   1085a:	48 8d 85 b8 f6 ff ff 	lea    -0x948(%rbp),%rax
   10861:	48 89 85 28 fd ff ff 	mov    %rax,-0x2d8(%rbp)
   10868:	48 8d 85 b8 f6 ff ff 	lea    -0x948(%rbp),%rax
   1086f:	48 89 85 30 fd ff ff 	mov    %rax,-0x2d0(%rbp)
   10876:	48 8d 85 b8 f6 ff ff 	lea    -0x948(%rbp),%rax
   1087d:	48 89 85 38 fd ff ff 	mov    %rax,-0x2c8(%rbp)
   10884:	48 8d 85 b8 f6 ff ff 	lea    -0x948(%rbp),%rax
   1088b:	48 89 85 40 fd ff ff 	mov    %rax,-0x2c0(%rbp)
   10892:	48 8d 85 b8 f6 ff ff 	lea    -0x948(%rbp),%rax
   10899:	48 89 85 48 fd ff ff 	mov    %rax,-0x2b8(%rbp)
   108a0:	48 8d 85 b8 f6 ff ff 	lea    -0x948(%rbp),%rax
   108a7:	48 89 85 50 fd ff ff 	mov    %rax,-0x2b0(%rbp)
   108ae:	48 c7 85 58 fd ff ff 	movq   $0x0,-0x2a8(%rbp)
   108b5:	00 00 00 00 
   108b9:	48 8d 85 b8 f6 ff ff 	lea    -0x948(%rbp),%rax
   108c0:	48 89 85 60 fd ff ff 	mov    %rax,-0x2a0(%rbp)
   108c7:	48 8d 85 b8 f6 ff ff 	lea    -0x948(%rbp),%rax
   108ce:	48 89 85 68 fd ff ff 	mov    %rax,-0x298(%rbp)
   108d5:	48 8d 85 b8 f6 ff ff 	lea    -0x948(%rbp),%rax
   108dc:	48 89 85 70 fd ff ff 	mov    %rax,-0x290(%rbp)
   108e3:	48 8d 85 b8 f6 ff ff 	lea    -0x948(%rbp),%rax
   108ea:	48 89 85 78 fd ff ff 	mov    %rax,-0x288(%rbp)
   108f1:	48 8d 85 b8 f6 ff ff 	lea    -0x948(%rbp),%rax
   108f8:	48 89 85 80 fd ff ff 	mov    %rax,-0x280(%rbp)
   108ff:	48 c7 85 88 fd ff ff 	movq   $0x0,-0x278(%rbp)
   10906:	00 00 00 00 
   1090a:	48 8d 85 b8 f6 ff ff 	lea    -0x948(%rbp),%rax
   10911:	48 89 85 90 fd ff ff 	mov    %rax,-0x270(%rbp)
   10918:	48 8d 85 b8 f6 ff ff 	lea    -0x948(%rbp),%rax
   1091f:	48 89 85 98 fd ff ff 	mov    %rax,-0x268(%rbp)
   10926:	48 8d 85 b8 f6 ff ff 	lea    -0x948(%rbp),%rax
   1092d:	48 89 85 a0 fd ff ff 	mov    %rax,-0x260(%rbp)
   10934:	48 8d 85 b8 f6 ff ff 	lea    -0x948(%rbp),%rax
   1093b:	48 89 85 a8 fd ff ff 	mov    %rax,-0x258(%rbp)
   10942:	48 8d 85 b8 f6 ff ff 	lea    -0x948(%rbp),%rax
   10949:	48 89 85 b0 fd ff ff 	mov    %rax,-0x250(%rbp)
   10950:	48 c7 85 b8 fd ff ff 	movq   $0x0,-0x248(%rbp)
   10957:	00 00 00 00 
   1095b:	48 8d 85 b8 f6 ff ff 	lea    -0x948(%rbp),%rax
   10962:	48 89 85 c0 fd ff ff 	mov    %rax,-0x240(%rbp)
   10969:	48 8d 85 b8 f6 ff ff 	lea    -0x948(%rbp),%rax
   10970:	48 89 85 c8 fd ff ff 	mov    %rax,-0x238(%rbp)
   10977:	48 8d 85 b8 f6 ff ff 	lea    -0x948(%rbp),%rax
   1097e:	48 89 85 d0 fd ff ff 	mov    %rax,-0x230(%rbp)
   10985:	48 c7 85 d8 fd ff ff 	movq   $0x0,-0x228(%rbp)
   1098c:	00 00 00 00 
   10990:	48 8d 85 b8 f6 ff ff 	lea    -0x948(%rbp),%rax
   10997:	48 89 85 e0 fd ff ff 	mov    %rax,-0x220(%rbp)
   1099e:	48 8d 85 b8 f6 ff ff 	lea    -0x948(%rbp),%rax
   109a5:	48 89 85 e8 fd ff ff 	mov    %rax,-0x218(%rbp)
   109ac:	48 8d 85 b8 f6 ff ff 	lea    -0x948(%rbp),%rax
   109b3:	48 89 85 f0 fd ff ff 	mov    %rax,-0x210(%rbp)
   109ba:	48 8d 85 b8 f6 ff ff 	lea    -0x948(%rbp),%rax
   109c1:	48 89 85 f8 fd ff ff 	mov    %rax,-0x208(%rbp)
   109c8:	48 8d 85 b8 f6 ff ff 	lea    -0x948(%rbp),%rax
   109cf:	48 89 85 00 fe ff ff 	mov    %rax,-0x200(%rbp)
   109d6:	48 c7 85 08 fe ff ff 	movq   $0x0,-0x1f8(%rbp)
   109dd:	00 00 00 00 
   109e1:	48 8d 85 b8 f6 ff ff 	lea    -0x948(%rbp),%rax
   109e8:	48 89 85 10 fe ff ff 	mov    %rax,-0x1f0(%rbp)
   109ef:	48 c7 85 18 fe ff ff 	movq   $0x0,-0x1e8(%rbp)
   109f6:	00 00 00 00 
   109fa:	48 8d 85 b8 f6 ff ff 	lea    -0x948(%rbp),%rax
   10a01:	48 89 85 20 fe ff ff 	mov    %rax,-0x1e0(%rbp)
   10a08:	48 8d 85 b8 f6 ff ff 	lea    -0x948(%rbp),%rax
   10a0f:	48 89 85 28 fe ff ff 	mov    %rax,-0x1d8(%rbp)
   10a16:	48 c7 85 30 fe ff ff 	movq   $0x0,-0x1d0(%rbp)
   10a1d:	00 00 00 00 
   10a21:	48 8d 85 b8 f6 ff ff 	lea    -0x948(%rbp),%rax
   10a28:	48 89 85 38 fe ff ff 	mov    %rax,-0x1c8(%rbp)
   10a2f:	48 8d 85 b8 f6 ff ff 	lea    -0x948(%rbp),%rax
   10a36:	48 89 85 40 fe ff ff 	mov    %rax,-0x1c0(%rbp)
   10a3d:	48 c7 85 48 fe ff ff 	movq   $0x0,-0x1b8(%rbp)
   10a44:	00 00 00 00 
   10a48:	48 8d 85 b8 f6 ff ff 	lea    -0x948(%rbp),%rax
   10a4f:	48 89 85 50 fe ff ff 	mov    %rax,-0x1b0(%rbp)
   10a56:	48 8d 85 b8 f6 ff ff 	lea    -0x948(%rbp),%rax
   10a5d:	48 89 85 58 fe ff ff 	mov    %rax,-0x1a8(%rbp)
   10a64:	48 8d 85 b8 f6 ff ff 	lea    -0x948(%rbp),%rax
   10a6b:	48 89 85 60 fe ff ff 	mov    %rax,-0x1a0(%rbp)
   10a72:	48 c7 85 68 fe ff ff 	movq   $0x0,-0x198(%rbp)
   10a79:	00 00 00 00 
   10a7d:	48 c7 85 70 fe ff ff 	movq   $0x0,-0x190(%rbp)
   10a84:	00 00 00 00 
   10a88:	48 8d 85 b8 f6 ff ff 	lea    -0x948(%rbp),%rax
   10a8f:	48 89 85 78 fe ff ff 	mov    %rax,-0x188(%rbp)
   10a96:	48 c7 85 80 fe ff ff 	movq   $0x0,-0x180(%rbp)
   10a9d:	00 00 00 00 
   10aa1:	48 c7 85 88 fe ff ff 	movq   $0x0,-0x178(%rbp)
   10aa8:	00 00 00 00 
   10aac:	48 c7 85 90 fe ff ff 	movq   $0x0,-0x170(%rbp)
   10ab3:	00 00 00 00 
   10ab7:	48 8d 85 b8 f6 ff ff 	lea    -0x948(%rbp),%rax
   10abe:	48 89 85 98 fe ff ff 	mov    %rax,-0x168(%rbp)
   10ac5:	48 8d 85 b8 f6 ff ff 	lea    -0x948(%rbp),%rax
   10acc:	48 89 85 a0 fe ff ff 	mov    %rax,-0x160(%rbp)
   10ad3:	48 8d 85 b8 f6 ff ff 	lea    -0x948(%rbp),%rax
   10ada:	48 89 85 a8 fe ff ff 	mov    %rax,-0x158(%rbp)
   10ae1:	48 8d 85 b8 f6 ff ff 	lea    -0x948(%rbp),%rax
   10ae8:	48 89 85 b0 fe ff ff 	mov    %rax,-0x150(%rbp)
   10aef:	48 8d 85 b8 f6 ff ff 	lea    -0x948(%rbp),%rax
   10af6:	48 89 85 b8 fe ff ff 	mov    %rax,-0x148(%rbp)
   10afd:	48 8d 85 b8 f6 ff ff 	lea    -0x948(%rbp),%rax
   10b04:	48 89 85 c0 fe ff ff 	mov    %rax,-0x140(%rbp)
   10b0b:	48 8d 85 b8 f6 ff ff 	lea    -0x948(%rbp),%rax
   10b12:	48 89 85 c8 fe ff ff 	mov    %rax,-0x138(%rbp)
   10b19:	48 8d 85 b8 f6 ff ff 	lea    -0x948(%rbp),%rax
   10b20:	48 89 85 d0 fe ff ff 	mov    %rax,-0x130(%rbp)
   10b27:	48 8d 85 b8 f6 ff ff 	lea    -0x948(%rbp),%rax
   10b2e:	48 89 85 d8 fe ff ff 	mov    %rax,-0x128(%rbp)
   10b35:	48 8d 85 b8 f6 ff ff 	lea    -0x948(%rbp),%rax
   10b3c:	48 89 85 e0 fe ff ff 	mov    %rax,-0x120(%rbp)
   10b43:	48 8d 85 b8 f6 ff ff 	lea    -0x948(%rbp),%rax
   10b4a:	48 89 85 e8 fe ff ff 	mov    %rax,-0x118(%rbp)
   10b51:	48 8d 85 b8 f6 ff ff 	lea    -0x948(%rbp),%rax
   10b58:	48 89 85 f0 fe ff ff 	mov    %rax,-0x110(%rbp)
   10b5f:	48 8d 85 b8 f6 ff ff 	lea    -0x948(%rbp),%rax
   10b66:	48 89 85 f8 fe ff ff 	mov    %rax,-0x108(%rbp)
   10b6d:	48 8d 85 b8 f6 ff ff 	lea    -0x948(%rbp),%rax
   10b74:	48 89 85 00 ff ff ff 	mov    %rax,-0x100(%rbp)
   10b7b:	48 8d 85 b8 f6 ff ff 	lea    -0x948(%rbp),%rax
   10b82:	48 89 85 08 ff ff ff 	mov    %rax,-0xf8(%rbp)
   10b89:	48 8d 85 b8 f6 ff ff 	lea    -0x948(%rbp),%rax
   10b90:	48 89 85 10 ff ff ff 	mov    %rax,-0xf0(%rbp)
   10b97:	48 8d 85 b8 f6 ff ff 	lea    -0x948(%rbp),%rax
   10b9e:	48 89 85 18 ff ff ff 	mov    %rax,-0xe8(%rbp)
   10ba5:	48 8d 85 b8 f6 ff ff 	lea    -0x948(%rbp),%rax
   10bac:	48 89 85 20 ff ff ff 	mov    %rax,-0xe0(%rbp)
   10bb3:	48 8d 85 b8 f6 ff ff 	lea    -0x948(%rbp),%rax
   10bba:	48 89 85 28 ff ff ff 	mov    %rax,-0xd8(%rbp)
   10bc1:	48 c7 85 30 ff ff ff 	movq   $0x0,-0xd0(%rbp)
   10bc8:	00 00 00 00 
   10bcc:	48 8d 85 b8 f6 ff ff 	lea    -0x948(%rbp),%rax
   10bd3:	48 89 85 38 ff ff ff 	mov    %rax,-0xc8(%rbp)
   10bda:	48 8d 85 b8 f6 ff ff 	lea    -0x948(%rbp),%rax
   10be1:	48 89 85 40 ff ff ff 	mov    %rax,-0xc0(%rbp)
   10be8:	48 8d 85 b8 f6 ff ff 	lea    -0x948(%rbp),%rax
   10bef:	48 89 85 48 ff ff ff 	mov    %rax,-0xb8(%rbp)
   10bf6:	48 8d 85 b8 f6 ff ff 	lea    -0x948(%rbp),%rax
   10bfd:	48 89 85 50 ff ff ff 	mov    %rax,-0xb0(%rbp)
   10c04:	48 8d 85 b8 f6 ff ff 	lea    -0x948(%rbp),%rax
   10c0b:	48 89 85 58 ff ff ff 	mov    %rax,-0xa8(%rbp)
   10c12:	48 8d 85 b8 f6 ff ff 	lea    -0x948(%rbp),%rax
   10c19:	48 89 85 60 ff ff ff 	mov    %rax,-0xa0(%rbp)
   10c20:	48 8d 85 b8 f6 ff ff 	lea    -0x948(%rbp),%rax
   10c27:	48 89 85 68 ff ff ff 	mov    %rax,-0x98(%rbp)
   10c2e:	48 c7 85 70 ff ff ff 	movq   $0x0,-0x90(%rbp)
   10c35:	00 00 00 00 
   10c39:	48 c7 85 78 ff ff ff 	movq   $0x0,-0x88(%rbp)
   10c40:	00 00 00 00 
   10c44:	48 8d 85 b8 f6 ff ff 	lea    -0x948(%rbp),%rax
   10c4b:	48 89 45 80          	mov    %rax,-0x80(%rbp)
   10c4f:	48 8d 85 b8 f6 ff ff 	lea    -0x948(%rbp),%rax
   10c56:	48 89 45 88          	mov    %rax,-0x78(%rbp)
   10c5a:	48 c7 45 90 00 00 00 	movq   $0x0,-0x70(%rbp)
   10c61:	00 
   10c62:	48 8d 85 b8 f6 ff ff 	lea    -0x948(%rbp),%rax
   10c69:	48 89 45 98          	mov    %rax,-0x68(%rbp)
   10c6d:	48 c7 45 a0 00 00 00 	movq   $0x0,-0x60(%rbp)
   10c74:	00 
   10c75:	48 8d 85 b8 f6 ff ff 	lea    -0x948(%rbp),%rax
   10c7c:	48 89 45 a8          	mov    %rax,-0x58(%rbp)
   10c80:	48 8d 85 b8 f6 ff ff 	lea    -0x948(%rbp),%rax
   10c87:	48 89 45 b0          	mov    %rax,-0x50(%rbp)
   10c8b:	48 c7 45 b8 00 00 00 	movq   $0x0,-0x48(%rbp)
   10c92:	00 
   10c93:	48 8d 85 b8 f6 ff ff 	lea    -0x948(%rbp),%rax
   10c9a:	48 89 45 c0          	mov    %rax,-0x40(%rbp)
   10c9e:	48 c7 45 c8 00 00 00 	movq   $0x0,-0x38(%rbp)
   10ca5:	00 
   10ca6:	48 8d 85 b8 f6 ff ff 	lea    -0x948(%rbp),%rax
   10cad:	48 89 45 d0          	mov    %rax,-0x30(%rbp)
   10cb1:	48 c7 45 d8 00 00 00 	movq   $0x0,-0x28(%rbp)
   10cb8:	00 
   10cb9:	48 8d 85 b8 f6 ff ff 	lea    -0x948(%rbp),%rax
   10cc0:	48 89 45 e0          	mov    %rax,-0x20(%rbp)
   10cc4:	48 8d 85 b8 f6 ff ff 	lea    -0x948(%rbp),%rax
   10ccb:	48 89 45 e8          	mov    %rax,-0x18(%rbp)
   10ccf:	c7 85 84 f6 ff ff 01 	movl   $0x1,-0x97c(%rbp)
   10cd6:	00 00 00 
   10cd9:	48 8d 05 c8 30 01 00 	lea    0x130c8(%rip),%rax        # 23da8 <g_323>
   10ce0:	48 89 85 80 f7 ff ff 	mov    %rax,-0x880(%rbp)
   10ce7:	48 8d 05 ba 30 01 00 	lea    0x130ba(%rip),%rax        # 23da8 <g_323>
   10cee:	48 89 85 88 f7 ff ff 	mov    %rax,-0x878(%rbp)
   10cf5:	48 8d 05 ac 30 01 00 	lea    0x130ac(%rip),%rax        # 23da8 <g_323>
   10cfc:	48 89 85 90 f7 ff ff 	mov    %rax,-0x870(%rbp)
   10d03:	48 8d 05 9e 30 01 00 	lea    0x1309e(%rip),%rax        # 23da8 <g_323>
   10d0a:	48 89 85 98 f7 ff ff 	mov    %rax,-0x868(%rbp)
   10d11:	48 8d 05 90 30 01 00 	lea    0x13090(%rip),%rax        # 23da8 <g_323>
   10d18:	48 89 85 a0 f7 ff ff 	mov    %rax,-0x860(%rbp)
   10d1f:	48 c7 85 30 f7 ff ff 	movq   $0x1,-0x8d0(%rbp)
   10d26:	01 00 00 00 
   10d2a:	c7 85 88 f6 ff ff 08 	movl   $0x8,-0x978(%rbp)
   10d31:	00 00 00 
   10d34:	c7 85 8c f6 ff ff f9 	movl   $0xfffffff9,-0x974(%rbp)
   10d3b:	ff ff ff 
   10d3e:	c7 85 90 f6 ff ff 46 	movl   $0x31309e46,-0x970(%rbp)
   10d45:	9e 30 31 
   10d48:	48 8d 05 01 d4 00 00 	lea    0xd401(%rip),%rax        # 1e150 <g_105>
   10d4f:	48 89 85 38 f7 ff ff 	mov    %rax,-0x8c8(%rbp)
   10d56:	66 c7 85 52 f6 ff ff 	movw   $0x1,-0x9ae(%rbp)
   10d5d:	01 00 
   10d5f:	c7 85 94 f6 ff ff 01 	movl   $0x1,-0x96c(%rbp)
   10d66:	00 00 00 
   10d69:	48 8d 85 a0 f6 ff ff 	lea    -0x960(%rbp),%rax
   10d70:	48 89 85 40 f7 ff ff 	mov    %rax,-0x8c0(%rbp)
   10d77:	0f b6 05 12 d4 00 00 	movzbl 0xd412(%rip),%eax        # 1e190 <g_148>
   10d7e:	83 c0 01             	add    $0x1,%eax
   10d81:	88 05 09 d4 00 00    	mov    %al,0xd409(%rip)        # 1e190 <g_148>
   10d87:	0f b6 05 02 d4 00 00 	movzbl 0xd402(%rip),%eax        # 1e190 <g_148>
   10d8e:	3c 02                	cmp    $0x2,%al
   10d90:	0f 8e 0a f4 ff ff    	jle    101a0 <func_12+0x3a0>
   10d96:	c6 85 38 f6 ff ff 03 	movb   $0x3,-0x9c8(%rbp)
   10d9d:	e9 8a 09 00 00       	jmpq   1172c <func_12+0x192c>
   10da2:	c7 85 5c f6 ff ff 32 	movl   $0xdcb86632,-0x9a4(%rbp)
   10da9:	66 b8 dc 
   10dac:	48 c7 85 b8 f6 ff ff 	movq   $0x0,-0x948(%rbp)
   10db3:	00 00 00 00 
   10db7:	48 8d 85 b8 f6 ff ff 	lea    -0x948(%rbp),%rax
   10dbe:	48 89 85 f8 f6 ff ff 	mov    %rax,-0x908(%rbp)
   10dc5:	48 c7 85 00 f7 ff ff 	movq   $0x0,-0x900(%rbp)
   10dcc:	00 00 00 00 
   10dd0:	48 8d 05 33 e3 00 00 	lea    0xe333(%rip),%rax        # 1f10a <g_701>
   10dd7:	48 89 85 08 f7 ff ff 	mov    %rax,-0x8f8(%rbp)
   10dde:	c7 85 60 f6 ff ff 06 	movl   $0x6,-0x9a0(%rbp)
   10de5:	00 00 00 
   10de8:	48 8d 05 51 d2 00 00 	lea    0xd251(%rip),%rax        # 1e040 <g_4>
   10def:	48 89 85 30 f9 ff ff 	mov    %rax,-0x6d0(%rbp)
   10df6:	48 c7 85 38 f9 ff ff 	movq   $0x0,-0x6c8(%rbp)
   10dfd:	00 00 00 00 
   10e01:	48 8d 05 70 f2 00 00 	lea    0xf270(%rip),%rax        # 20078 <g_897>
   10e08:	48 89 85 40 f9 ff ff 	mov    %rax,-0x6c0(%rbp)
   10e0f:	48 8d 85 5c f6 ff ff 	lea    -0x9a4(%rbp),%rax
   10e16:	48 89 85 48 f9 ff ff 	mov    %rax,-0x6b8(%rbp)
   10e1d:	48 8d 85 60 f6 ff ff 	lea    -0x9a0(%rbp),%rax
   10e24:	48 89 85 50 f9 ff ff 	mov    %rax,-0x6b0(%rbp)
   10e2b:	48 8d 05 12 d2 00 00 	lea    0xd212(%rip),%rax        # 1e044 <g_21>
   10e32:	48 89 85 58 f9 ff ff 	mov    %rax,-0x6a8(%rbp)
   10e39:	48 8d 05 00 d2 00 00 	lea    0xd200(%rip),%rax        # 1e040 <g_4>
   10e40:	48 89 85 60 f9 ff ff 	mov    %rax,-0x6a0(%rbp)
   10e47:	48 c7 85 68 f9 ff ff 	movq   $0x0,-0x698(%rbp)
   10e4e:	00 00 00 00 
   10e52:	48 8d 85 5c f6 ff ff 	lea    -0x9a4(%rbp),%rax
   10e59:	48 89 85 70 f9 ff ff 	mov    %rax,-0x690(%rbp)
   10e60:	48 8d 05 c9 d1 00 00 	lea    0xd1c9(%rip),%rax        # 1e030 <g_3>
   10e67:	48 89 85 78 f9 ff ff 	mov    %rax,-0x688(%rbp)
   10e6e:	48 8d 05 03 f2 00 00 	lea    0xf203(%rip),%rax        # 20078 <g_897>
   10e75:	48 89 85 80 f9 ff ff 	mov    %rax,-0x680(%rbp)
   10e7c:	48 8d 85 60 f6 ff ff 	lea    -0x9a0(%rbp),%rax
   10e83:	48 89 85 88 f9 ff ff 	mov    %rax,-0x678(%rbp)
   10e8a:	48 8d 85 90 f8 ff ff 	lea    -0x770(%rbp),%rax
   10e91:	48 83 c0 44          	add    $0x44,%rax
   10e95:	48 89 85 90 f9 ff ff 	mov    %rax,-0x670(%rbp)
   10e9c:	48 8d 05 a1 d1 00 00 	lea    0xd1a1(%rip),%rax        # 1e044 <g_21>
   10ea3:	48 89 85 98 f9 ff ff 	mov    %rax,-0x668(%rbp)
   10eaa:	48 8d 85 60 f6 ff ff 	lea    -0x9a0(%rbp),%rax
   10eb1:	48 89 85 a0 f9 ff ff 	mov    %rax,-0x660(%rbp)
   10eb8:	48 c7 85 a8 f9 ff ff 	movq   $0x0,-0x658(%rbp)
   10ebf:	00 00 00 00 
   10ec3:	48 8d 85 60 f6 ff ff 	lea    -0x9a0(%rbp),%rax
   10eca:	48 89 85 b0 f9 ff ff 	mov    %rax,-0x650(%rbp)
   10ed1:	48 8d 05 6c d1 00 00 	lea    0xd16c(%rip),%rax        # 1e044 <g_21>
   10ed8:	48 89 85 b8 f9 ff ff 	mov    %rax,-0x648(%rbp)
   10edf:	48 c7 85 c0 f9 ff ff 	movq   $0x0,-0x640(%rbp)
   10ee6:	00 00 00 00 
   10eea:	48 8d 05 53 d1 00 00 	lea    0xd153(%rip),%rax        # 1e044 <g_21>
   10ef1:	48 89 85 c8 f9 ff ff 	mov    %rax,-0x638(%rbp)
   10ef8:	48 8d 85 60 f6 ff ff 	lea    -0x9a0(%rbp),%rax
   10eff:	48 89 85 d0 f9 ff ff 	mov    %rax,-0x630(%rbp)
   10f06:	48 8d 85 90 f8 ff ff 	lea    -0x770(%rbp),%rax
   10f0d:	48 83 c0 5c          	add    $0x5c,%rax
   10f11:	48 89 85 d8 f9 ff ff 	mov    %rax,-0x628(%rbp)
   10f18:	48 8d 05 59 f1 00 00 	lea    0xf159(%rip),%rax        # 20078 <g_897>
   10f1f:	48 89 85 e0 f9 ff ff 	mov    %rax,-0x620(%rbp)
   10f26:	48 c7 85 e8 f9 ff ff 	movq   $0x0,-0x618(%rbp)
   10f2d:	00 00 00 00 
   10f31:	48 8d 05 08 d1 00 00 	lea    0xd108(%rip),%rax        # 1e040 <g_4>
   10f38:	48 89 85 f0 f9 ff ff 	mov    %rax,-0x610(%rbp)
   10f3f:	48 8d 05 ea d0 00 00 	lea    0xd0ea(%rip),%rax        # 1e030 <g_3>
   10f46:	48 89 85 f8 f9 ff ff 	mov    %rax,-0x608(%rbp)
   10f4d:	48 8d 05 f0 d0 00 00 	lea    0xd0f0(%rip),%rax        # 1e044 <g_21>
   10f54:	48 89 85 00 fa ff ff 	mov    %rax,-0x600(%rbp)
   10f5b:	48 8d 05 16 f1 00 00 	lea    0xf116(%rip),%rax        # 20078 <g_897>
   10f62:	48 89 85 08 fa ff ff 	mov    %rax,-0x5f8(%rbp)
   10f69:	48 8d 05 d4 d0 00 00 	lea    0xd0d4(%rip),%rax        # 1e044 <g_21>
   10f70:	48 89 85 10 fa ff ff 	mov    %rax,-0x5f0(%rbp)
   10f77:	48 8d 05 fa f0 00 00 	lea    0xf0fa(%rip),%rax        # 20078 <g_897>
   10f7e:	48 89 85 18 fa ff ff 	mov    %rax,-0x5e8(%rbp)
   10f85:	48 8d 05 b8 d0 00 00 	lea    0xd0b8(%rip),%rax        # 1e044 <g_21>
   10f8c:	48 89 85 20 fa ff ff 	mov    %rax,-0x5e0(%rbp)
   10f93:	48 8d 05 96 d0 00 00 	lea    0xd096(%rip),%rax        # 1e030 <g_3>
   10f9a:	48 89 85 28 fa ff ff 	mov    %rax,-0x5d8(%rbp)
   10fa1:	48 8d 85 5c f6 ff ff 	lea    -0x9a4(%rbp),%rax
   10fa8:	48 89 85 30 fa ff ff 	mov    %rax,-0x5d0(%rbp)
   10faf:	48 8d 85 5c f6 ff ff 	lea    -0x9a4(%rbp),%rax
   10fb6:	48 89 85 38 fa ff ff 	mov    %rax,-0x5c8(%rbp)
   10fbd:	48 8d 05 b4 f0 00 00 	lea    0xf0b4(%rip),%rax        # 20078 <g_897>
   10fc4:	48 89 85 40 fa ff ff 	mov    %rax,-0x5c0(%rbp)
   10fcb:	48 8d 05 a6 f0 00 00 	lea    0xf0a6(%rip),%rax        # 20078 <g_897>
   10fd2:	48 89 85 48 fa ff ff 	mov    %rax,-0x5b8(%rbp)
   10fd9:	48 8d 85 60 f6 ff ff 	lea    -0x9a0(%rbp),%rax
   10fe0:	48 89 85 50 fa ff ff 	mov    %rax,-0x5b0(%rbp)
   10fe7:	48 8d 05 56 d0 00 00 	lea    0xd056(%rip),%rax        # 1e044 <g_21>
   10fee:	48 89 85 58 fa ff ff 	mov    %rax,-0x5a8(%rbp)
   10ff5:	48 8d 85 5c f6 ff ff 	lea    -0x9a4(%rbp),%rax
   10ffc:	48 89 85 60 fa ff ff 	mov    %rax,-0x5a0(%rbp)
   11003:	48 8d 85 60 f6 ff ff 	lea    -0x9a0(%rbp),%rax
   1100a:	48 89 85 68 fa ff ff 	mov    %rax,-0x598(%rbp)
   11011:	48 8d 85 60 f6 ff ff 	lea    -0x9a0(%rbp),%rax
   11018:	48 89 85 70 fa ff ff 	mov    %rax,-0x590(%rbp)
   1101f:	48 8d 85 5c f6 ff ff 	lea    -0x9a4(%rbp),%rax
   11026:	48 89 85 78 fa ff ff 	mov    %rax,-0x588(%rbp)
   1102d:	48 8d 05 10 d0 00 00 	lea    0xd010(%rip),%rax        # 1e044 <g_21>
   11034:	48 89 85 80 fa ff ff 	mov    %rax,-0x580(%rbp)
   1103b:	48 8d 05 02 d0 00 00 	lea    0xd002(%rip),%rax        # 1e044 <g_21>
   11042:	48 89 85 88 fa ff ff 	mov    %rax,-0x578(%rbp)
   11049:	48 c7 85 90 fa ff ff 	movq   $0x0,-0x570(%rbp)
   11050:	00 00 00 00 
   11054:	48 8d 85 60 f6 ff ff 	lea    -0x9a0(%rbp),%rax
   1105b:	48 89 85 98 fa ff ff 	mov    %rax,-0x568(%rbp)
   11062:	48 8d 05 0f f0 00 00 	lea    0xf00f(%rip),%rax        # 20078 <g_897>
   11069:	48 89 85 a0 fa ff ff 	mov    %rax,-0x560(%rbp)
   11070:	48 8d 05 c5 cf 00 00 	lea    0xcfc5(%rip),%rax        # 1e03c <g_3+0xc>
   11077:	48 89 85 a8 fa ff ff 	mov    %rax,-0x558(%rbp)
   1107e:	48 c7 85 b0 fa ff ff 	movq   $0x0,-0x550(%rbp)
   11085:	00 00 00 00 
   11089:	48 c7 85 b8 fa ff ff 	movq   $0x0,-0x548(%rbp)
   11090:	00 00 00 00 
   11094:	48 8d 05 2d 38 01 00 	lea    0x1382d(%rip),%rax        # 248c8 <g_6>
   1109b:	48 89 85 c0 fa ff ff 	mov    %rax,-0x540(%rbp)
   110a2:	48 8d 05 9b cf 00 00 	lea    0xcf9b(%rip),%rax        # 1e044 <g_21>
   110a9:	48 89 85 c8 fa ff ff 	mov    %rax,-0x538(%rbp)
   110b0:	48 8d 85 60 f6 ff ff 	lea    -0x9a0(%rbp),%rax
   110b7:	48 89 85 d0 fa ff ff 	mov    %rax,-0x530(%rbp)
   110be:	48 c7 85 d8 fa ff ff 	movq   $0x0,-0x528(%rbp)
   110c5:	00 00 00 00 
   110c9:	48 8d 05 a8 ef 00 00 	lea    0xefa8(%rip),%rax        # 20078 <g_897>
   110d0:	48 89 85 e0 fa ff ff 	mov    %rax,-0x520(%rbp)
   110d7:	48 c7 85 e8 fa ff ff 	movq   $0x0,-0x518(%rbp)
   110de:	00 00 00 00 
   110e2:	48 8d 05 df 37 01 00 	lea    0x137df(%rip),%rax        # 248c8 <g_6>
   110e9:	48 89 85 f0 fa ff ff 	mov    %rax,-0x510(%rbp)
   110f0:	48 8d 85 5c f6 ff ff 	lea    -0x9a4(%rbp),%rax
   110f7:	48 89 85 f8 fa ff ff 	mov    %rax,-0x508(%rbp)
   110fe:	48 8d 05 3f cf 00 00 	lea    0xcf3f(%rip),%rax        # 1e044 <g_21>
   11105:	48 89 85 00 fb ff ff 	mov    %rax,-0x500(%rbp)
   1110c:	48 8d 05 29 cf 00 00 	lea    0xcf29(%rip),%rax        # 1e03c <g_3+0xc>
   11113:	48 89 85 08 fb ff ff 	mov    %rax,-0x4f8(%rbp)
   1111a:	48 8d 05 57 ef 00 00 	lea    0xef57(%rip),%rax        # 20078 <g_897>
   11121:	48 89 85 10 fb ff ff 	mov    %rax,-0x4f0(%rbp)
   11128:	48 8d 85 5c f6 ff ff 	lea    -0x9a4(%rbp),%rax
   1112f:	48 89 85 18 fb ff ff 	mov    %rax,-0x4e8(%rbp)
   11136:	48 c7 85 20 fb ff ff 	movq   $0x0,-0x4e0(%rbp)
   1113d:	00 00 00 00 
   11141:	48 8d 85 5c f6 ff ff 	lea    -0x9a4(%rbp),%rax
   11148:	48 89 85 28 fb ff ff 	mov    %rax,-0x4d8(%rbp)
   1114f:	48 8d 85 58 f6 ff ff 	lea    -0x9a8(%rbp),%rax
   11156:	48 89 85 30 fb ff ff 	mov    %rax,-0x4d0(%rbp)
   1115d:	48 8d 85 5c f6 ff ff 	lea    -0x9a4(%rbp),%rax
   11164:	48 89 85 38 fb ff ff 	mov    %rax,-0x4c8(%rbp)
   1116b:	48 8d 85 5c f6 ff ff 	lea    -0x9a4(%rbp),%rax
   11172:	48 89 85 40 fb ff ff 	mov    %rax,-0x4c0(%rbp)
   11179:	48 8d 85 58 f6 ff ff 	lea    -0x9a8(%rbp),%rax
   11180:	48 89 85 48 fb ff ff 	mov    %rax,-0x4b8(%rbp)
   11187:	48 8d 85 5c f6 ff ff 	lea    -0x9a4(%rbp),%rax
   1118e:	48 89 85 50 fb ff ff 	mov    %rax,-0x4b0(%rbp)
   11195:	48 c7 85 58 fb ff ff 	movq   $0x0,-0x4a8(%rbp)
   1119c:	00 00 00 00 
   111a0:	48 8d 85 5c f6 ff ff 	lea    -0x9a4(%rbp),%rax
   111a7:	48 89 85 60 fb ff ff 	mov    %rax,-0x4a0(%rbp)
   111ae:	48 8d 05 c3 ee 00 00 	lea    0xeec3(%rip),%rax        # 20078 <g_897>
   111b5:	48 89 85 68 fb ff ff 	mov    %rax,-0x498(%rbp)
   111bc:	48 8d 05 79 ce 00 00 	lea    0xce79(%rip),%rax        # 1e03c <g_3+0xc>
   111c3:	48 89 85 70 fb ff ff 	mov    %rax,-0x490(%rbp)
   111ca:	48 8d 05 73 ce 00 00 	lea    0xce73(%rip),%rax        # 1e044 <g_21>
   111d1:	48 89 85 78 fb ff ff 	mov    %rax,-0x488(%rbp)
   111d8:	48 8d 85 5c f6 ff ff 	lea    -0x9a4(%rbp),%rax
   111df:	48 89 85 80 fb ff ff 	mov    %rax,-0x480(%rbp)
   111e6:	48 8d 05 db 36 01 00 	lea    0x136db(%rip),%rax        # 248c8 <g_6>
   111ed:	48 89 85 88 fb ff ff 	mov    %rax,-0x478(%rbp)
   111f4:	48 c7 85 90 fb ff ff 	movq   $0x0,-0x470(%rbp)
   111fb:	00 00 00 00 
   111ff:	48 8d 05 72 ee 00 00 	lea    0xee72(%rip),%rax        # 20078 <g_897>
   11206:	48 89 85 98 fb ff ff 	mov    %rax,-0x468(%rbp)
   1120d:	48 c7 85 a0 fb ff ff 	movq   $0x0,-0x460(%rbp)
   11214:	00 00 00 00 
   11218:	48 8d 85 60 f6 ff ff 	lea    -0x9a0(%rbp),%rax
   1121f:	48 89 85 a8 fb ff ff 	mov    %rax,-0x458(%rbp)
   11226:	48 8d 05 17 ce 00 00 	lea    0xce17(%rip),%rax        # 1e044 <g_21>
   1122d:	48 89 85 b0 fb ff ff 	mov    %rax,-0x450(%rbp)
   11234:	48 8d 05 8d 36 01 00 	lea    0x1368d(%rip),%rax        # 248c8 <g_6>
   1123b:	48 89 85 b8 fb ff ff 	mov    %rax,-0x448(%rbp)
   11242:	48 c7 85 c0 fb ff ff 	movq   $0x0,-0x440(%rbp)
   11249:	00 00 00 00 
   1124d:	48 c7 85 c8 fb ff ff 	movq   $0x0,-0x438(%rbp)
   11254:	00 00 00 00 
   11258:	48 8d 05 dd cd 00 00 	lea    0xcddd(%rip),%rax        # 1e03c <g_3+0xc>
   1125f:	48 89 85 d0 fb ff ff 	mov    %rax,-0x430(%rbp)
   11266:	48 8d 05 0b ee 00 00 	lea    0xee0b(%rip),%rax        # 20078 <g_897>
   1126d:	48 89 85 d8 fb ff ff 	mov    %rax,-0x428(%rbp)
   11274:	48 8d 85 60 f6 ff ff 	lea    -0x9a0(%rbp),%rax
   1127b:	48 89 85 e0 fb ff ff 	mov    %rax,-0x420(%rbp)
   11282:	48 c7 85 e8 fb ff ff 	movq   $0x0,-0x418(%rbp)
   11289:	00 00 00 00 
   1128d:	48 8d 05 b0 cd 00 00 	lea    0xcdb0(%rip),%rax        # 1e044 <g_21>
   11294:	48 89 85 f0 fb ff ff 	mov    %rax,-0x410(%rbp)
   1129b:	48 8d 05 a2 cd 00 00 	lea    0xcda2(%rip),%rax        # 1e044 <g_21>
   112a2:	48 89 85 f8 fb ff ff 	mov    %rax,-0x408(%rbp)
   112a9:	48 8d 85 5c f6 ff ff 	lea    -0x9a4(%rbp),%rax
   112b0:	48 89 85 00 fc ff ff 	mov    %rax,-0x400(%rbp)
   112b7:	48 8d 85 60 f6 ff ff 	lea    -0x9a0(%rbp),%rax
   112be:	48 89 85 08 fc ff ff 	mov    %rax,-0x3f8(%rbp)
   112c5:	48 8d 85 60 f6 ff ff 	lea    -0x9a0(%rbp),%rax
   112cc:	48 89 85 10 fc ff ff 	mov    %rax,-0x3f0(%rbp)
   112d3:	48 8d 85 5c f6 ff ff 	lea    -0x9a4(%rbp),%rax
   112da:	48 89 85 18 fc ff ff 	mov    %rax,-0x3e8(%rbp)
   112e1:	48 8d 05 5c cd 00 00 	lea    0xcd5c(%rip),%rax        # 1e044 <g_21>
   112e8:	48 89 85 20 fc ff ff 	mov    %rax,-0x3e0(%rbp)
   112ef:	48 8d 85 60 f6 ff ff 	lea    -0x9a0(%rbp),%rax
   112f6:	48 89 85 28 fc ff ff 	mov    %rax,-0x3d8(%rbp)
   112fd:	48 8d 05 74 ed 00 00 	lea    0xed74(%rip),%rax        # 20078 <g_897>
   11304:	48 89 85 30 fc ff ff 	mov    %rax,-0x3d0(%rbp)
   1130b:	48 8d 05 66 ed 00 00 	lea    0xed66(%rip),%rax        # 20078 <g_897>
   11312:	48 89 85 38 fc ff ff 	mov    %rax,-0x3c8(%rbp)
   11319:	48 8d 85 5c f6 ff ff 	lea    -0x9a4(%rbp),%rax
   11320:	48 89 85 40 fc ff ff 	mov    %rax,-0x3c0(%rbp)
   11327:	48 8d 85 5c f6 ff ff 	lea    -0x9a4(%rbp),%rax
   1132e:	48 89 85 48 fc ff ff 	mov    %rax,-0x3b8(%rbp)
   11335:	48 8d 05 f4 cc 00 00 	lea    0xccf4(%rip),%rax        # 1e030 <g_3>
   1133c:	48 89 85 50 fc ff ff 	mov    %rax,-0x3b0(%rbp)
   11343:	48 8d 05 fa cc 00 00 	lea    0xccfa(%rip),%rax        # 1e044 <g_21>
   1134a:	48 89 85 58 fc ff ff 	mov    %rax,-0x3a8(%rbp)
   11351:	48 8d 05 20 ed 00 00 	lea    0xed20(%rip),%rax        # 20078 <g_897>
   11358:	48 89 85 60 fc ff ff 	mov    %rax,-0x3a0(%rbp)
   1135f:	48 8d 05 de cc 00 00 	lea    0xccde(%rip),%rax        # 1e044 <g_21>
   11366:	48 89 85 68 fc ff ff 	mov    %rax,-0x398(%rbp)
   1136d:	48 8d 05 04 ed 00 00 	lea    0xed04(%rip),%rax        # 20078 <g_897>
   11374:	48 89 85 70 fc ff ff 	mov    %rax,-0x390(%rbp)
   1137b:	48 8d 05 c2 cc 00 00 	lea    0xccc2(%rip),%rax        # 1e044 <g_21>
   11382:	48 89 85 78 fc ff ff 	mov    %rax,-0x388(%rbp)
   11389:	48 8d 05 a0 cc 00 00 	lea    0xcca0(%rip),%rax        # 1e030 <g_3>
   11390:	48 89 85 80 fc ff ff 	mov    %rax,-0x380(%rbp)
   11397:	48 8d 05 a2 cc 00 00 	lea    0xcca2(%rip),%rax        # 1e040 <g_4>
   1139e:	48 89 85 88 fc ff ff 	mov    %rax,-0x378(%rbp)
   113a5:	48 c7 85 90 fc ff ff 	movq   $0x0,-0x370(%rbp)
   113ac:	00 00 00 00 
   113b0:	48 8d 05 c1 ec 00 00 	lea    0xecc1(%rip),%rax        # 20078 <g_897>
   113b7:	48 89 85 98 fc ff ff 	mov    %rax,-0x368(%rbp)
   113be:	48 8d 85 90 f8 ff ff 	lea    -0x770(%rbp),%rax
   113c5:	48 83 c0 5c          	add    $0x5c,%rax
   113c9:	48 89 85 a0 fc ff ff 	mov    %rax,-0x360(%rbp)
   113d0:	48 8d 85 60 f6 ff ff 	lea    -0x9a0(%rbp),%rax
   113d7:	48 89 85 a8 fc ff ff 	mov    %rax,-0x358(%rbp)
   113de:	48 8d 05 5f cc 00 00 	lea    0xcc5f(%rip),%rax        # 1e044 <g_21>
   113e5:	48 89 85 b0 fc ff ff 	mov    %rax,-0x350(%rbp)
   113ec:	48 c7 85 b8 fc ff ff 	movq   $0x0,-0x348(%rbp)
   113f3:	00 00 00 00 
   113f7:	48 8d 05 46 cc 00 00 	lea    0xcc46(%rip),%rax        # 1e044 <g_21>
   113fe:	48 89 85 c0 fc ff ff 	mov    %rax,-0x340(%rbp)
   11405:	48 8d 85 60 f6 ff ff 	lea    -0x9a0(%rbp),%rax
   1140c:	48 89 85 c8 fc ff ff 	mov    %rax,-0x338(%rbp)
   11413:	48 c7 85 d0 fc ff ff 	movq   $0x0,-0x330(%rbp)
   1141a:	00 00 00 00 
   1141e:	48 8d 85 60 f6 ff ff 	lea    -0x9a0(%rbp),%rax
   11425:	48 89 85 d8 fc ff ff 	mov    %rax,-0x328(%rbp)
   1142c:	48 8d 05 11 cc 00 00 	lea    0xcc11(%rip),%rax        # 1e044 <g_21>
   11433:	48 89 85 e0 fc ff ff 	mov    %rax,-0x320(%rbp)
   1143a:	48 8d 85 90 f8 ff ff 	lea    -0x770(%rbp),%rax
   11441:	48 83 c0 44          	add    $0x44,%rax
   11445:	48 89 85 e8 fc ff ff 	mov    %rax,-0x318(%rbp)
   1144c:	48 8d 85 60 f6 ff ff 	lea    -0x9a0(%rbp),%rax
   11453:	48 89 85 f0 fc ff ff 	mov    %rax,-0x310(%rbp)
   1145a:	48 8d 05 17 ec 00 00 	lea    0xec17(%rip),%rax        # 20078 <g_897>
   11461:	48 89 85 f8 fc ff ff 	mov    %rax,-0x308(%rbp)
   11468:	48 8d 05 c1 cb 00 00 	lea    0xcbc1(%rip),%rax        # 1e030 <g_3>
   1146f:	48 89 85 00 fd ff ff 	mov    %rax,-0x300(%rbp)
   11476:	48 8d 85 5c f6 ff ff 	lea    -0x9a4(%rbp),%rax
   1147d:	48 89 85 08 fd ff ff 	mov    %rax,-0x2f8(%rbp)
   11484:	48 c7 85 10 fd ff ff 	movq   $0x0,-0x2f0(%rbp)
   1148b:	00 00 00 00 
   1148f:	48 8d 05 aa cb 00 00 	lea    0xcbaa(%rip),%rax        # 1e040 <g_4>
   11496:	48 89 85 18 fd ff ff 	mov    %rax,-0x2e8(%rbp)
   1149d:	48 8d 05 a0 cb 00 00 	lea    0xcba0(%rip),%rax        # 1e044 <g_21>
   114a4:	48 89 85 20 fd ff ff 	mov    %rax,-0x2e0(%rbp)
   114ab:	48 8d 85 60 f6 ff ff 	lea    -0x9a0(%rbp),%rax
   114b2:	48 89 85 28 fd ff ff 	mov    %rax,-0x2d8(%rbp)
   114b9:	48 8d 85 5c f6 ff ff 	lea    -0x9a4(%rbp),%rax
   114c0:	48 89 85 30 fd ff ff 	mov    %rax,-0x2d0(%rbp)
   114c7:	48 8d 05 aa eb 00 00 	lea    0xebaa(%rip),%rax        # 20078 <g_897>
   114ce:	48 89 85 38 fd ff ff 	mov    %rax,-0x2c8(%rbp)
   114d5:	48 c7 85 40 fd ff ff 	movq   $0x0,-0x2c0(%rbp)
   114dc:	00 00 00 00 
   114e0:	48 8d 05 59 cb 00 00 	lea    0xcb59(%rip),%rax        # 1e040 <g_4>
   114e7:	48 89 85 48 fd ff ff 	mov    %rax,-0x2b8(%rbp)
   114ee:	48 8d 05 4b cb 00 00 	lea    0xcb4b(%rip),%rax        # 1e040 <g_4>
   114f5:	48 89 85 50 fd ff ff 	mov    %rax,-0x2b0(%rbp)
   114fc:	48 8d 05 41 cb 00 00 	lea    0xcb41(%rip),%rax        # 1e044 <g_21>
   11503:	48 89 85 58 fd ff ff 	mov    %rax,-0x2a8(%rbp)
   1150a:	48 8d 05 1f cb 00 00 	lea    0xcb1f(%rip),%rax        # 1e030 <g_3>
   11511:	48 89 85 60 fd ff ff 	mov    %rax,-0x2a0(%rbp)
   11518:	48 8d 85 90 f8 ff ff 	lea    -0x770(%rbp),%rax
   1151f:	48 83 c0 5c          	add    $0x5c,%rax
   11523:	48 89 85 68 fd ff ff 	mov    %rax,-0x298(%rbp)
   1152a:	48 8d 85 5c f6 ff ff 	lea    -0x9a4(%rbp),%rax
   11531:	48 89 85 70 fd ff ff 	mov    %rax,-0x290(%rbp)
   11538:	48 8d 85 90 f8 ff ff 	lea    -0x770(%rbp),%rax
   1153f:	48 83 c0 44          	add    $0x44,%rax
   11543:	48 89 85 78 fd ff ff 	mov    %rax,-0x288(%rbp)
   1154a:	48 c7 85 80 fd ff ff 	movq   $0x0,-0x280(%rbp)
   11551:	00 00 00 00 
   11555:	48 8d 85 58 f6 ff ff 	lea    -0x9a8(%rbp),%rax
   1155c:	48 89 85 88 fd ff ff 	mov    %rax,-0x278(%rbp)
   11563:	48 c7 85 90 fd ff ff 	movq   $0x0,-0x270(%rbp)
   1156a:	00 00 00 00 
   1156e:	48 c7 85 98 fd ff ff 	movq   $0x0,-0x268(%rbp)
   11575:	00 00 00 00 
   11579:	48 8d 85 58 f6 ff ff 	lea    -0x9a8(%rbp),%rax
   11580:	48 89 85 a0 fd ff ff 	mov    %rax,-0x260(%rbp)
   11587:	48 c7 85 a8 fd ff ff 	movq   $0x0,-0x258(%rbp)
   1158e:	00 00 00 00 
   11592:	48 8d 85 5c f6 ff ff 	lea    -0x9a4(%rbp),%rax
   11599:	48 89 85 b0 fd ff ff 	mov    %rax,-0x250(%rbp)
   115a0:	48 8d 85 60 f6 ff ff 	lea    -0x9a0(%rbp),%rax
   115a7:	48 89 85 b8 fd ff ff 	mov    %rax,-0x248(%rbp)
   115ae:	48 8d 85 60 f6 ff ff 	lea    -0x9a0(%rbp),%rax
   115b5:	48 89 85 c0 fd ff ff 	mov    %rax,-0x240(%rbp)
   115bc:	48 8d 05 7d ca 00 00 	lea    0xca7d(%rip),%rax        # 1e040 <g_4>
   115c3:	48 89 85 c8 fd ff ff 	mov    %rax,-0x238(%rbp)
   115ca:	48 c7 85 d0 fd ff ff 	movq   $0x0,-0x230(%rbp)
   115d1:	00 00 00 00 
   115d5:	48 8d 05 9c ea 00 00 	lea    0xea9c(%rip),%rax        # 20078 <g_897>
   115dc:	48 89 85 d8 fd ff ff 	mov    %rax,-0x228(%rbp)
   115e3:	48 c7 85 e0 fd ff ff 	movq   $0x0,-0x220(%rbp)
   115ea:	00 00 00 00 
   115ee:	48 8d 05 4f ca 00 00 	lea    0xca4f(%rip),%rax        # 1e044 <g_21>
   115f5:	48 89 85 e8 fd ff ff 	mov    %rax,-0x218(%rbp)
   115fc:	48 8d 05 75 ea 00 00 	lea    0xea75(%rip),%rax        # 20078 <g_897>
   11603:	48 89 85 f0 fd ff ff 	mov    %rax,-0x210(%rbp)
   1160a:	48 8d 05 33 ca 00 00 	lea    0xca33(%rip),%rax        # 1e044 <g_21>
   11611:	48 89 85 f8 fd ff ff 	mov    %rax,-0x208(%rbp)
   11618:	48 8d 05 59 ea 00 00 	lea    0xea59(%rip),%rax        # 20078 <g_897>
   1161f:	48 89 85 00 fe ff ff 	mov    %rax,-0x200(%rbp)
   11626:	48 8d 85 60 f6 ff ff 	lea    -0x9a0(%rbp),%rax
   1162d:	48 89 85 08 fe ff ff 	mov    %rax,-0x1f8(%rbp)
   11634:	48 c7 85 10 fe ff ff 	movq   $0x0,-0x1f0(%rbp)
   1163b:	00 00 00 00 
   1163f:	48 8d 05 fa c9 00 00 	lea    0xc9fa(%rip),%rax        # 1e040 <g_4>
   11646:	48 89 85 18 fe ff ff 	mov    %rax,-0x1e8(%rbp)
   1164d:	48 8d 05 f0 c9 00 00 	lea    0xc9f0(%rip),%rax        # 1e044 <g_21>
   11654:	48 89 85 20 fe ff ff 	mov    %rax,-0x1e0(%rbp)
   1165b:	48 8d 05 de c9 00 00 	lea    0xc9de(%rip),%rax        # 1e040 <g_4>
   11662:	48 89 85 28 fe ff ff 	mov    %rax,-0x1d8(%rbp)
   11669:	48 8d 05 08 ea 00 00 	lea    0xea08(%rip),%rax        # 20078 <g_897>
   11670:	48 89 85 30 fe ff ff 	mov    %rax,-0x1d0(%rbp)
   11677:	48 8d 85 90 f8 ff ff 	lea    -0x770(%rbp),%rax
   1167e:	48 83 c0 5c          	add    $0x5c,%rax
   11682:	48 89 85 38 fe ff ff 	mov    %rax,-0x1c8(%rbp)
   11689:	c6 85 4d f6 ff ff 6b 	movb   $0x6b,-0x9b3(%rbp)
   11690:	66 c7 85 50 f6 ff ff 	movw   $0xd73,-0x9b0(%rbp)
   11697:	73 0d 
   11699:	48 8d 05 68 da 00 00 	lea    0xda68(%rip),%rax        # 1f108 <g_606>
   116a0:	48 89 85 10 f7 ff ff 	mov    %rax,-0x8f0(%rbp)
   116a7:	48 8d 85 54 f6 ff ff 	lea    -0x9ac(%rbp),%rax
   116ae:	48 89 85 18 f7 ff ff 	mov    %rax,-0x8e8(%rbp)
   116b5:	48 8d 85 b0 f6 ff ff 	lea    -0x950(%rbp),%rax
   116bc:	48 89 85 20 f7 ff ff 	mov    %rax,-0x8e0(%rbp)
   116c3:	c7 85 64 f6 ff ff 00 	movl   $0x0,-0x99c(%rbp)
   116ca:	00 00 00 
   116cd:	eb 1a                	jmp    116e9 <func_12+0x18e9>
   116cf:	8b 85 64 f6 ff ff    	mov    -0x99c(%rbp),%eax
   116d5:	48 98                	cltq   
   116d7:	c7 84 85 5c f7 ff ff 	movl   $0x1,-0x8a4(%rbp,%rax,4)
   116de:	01 00 00 00 
   116e2:	83 85 64 f6 ff ff 01 	addl   $0x1,-0x99c(%rbp)
   116e9:	83 bd 64 f6 ff ff 00 	cmpl   $0x0,-0x99c(%rbp)
   116f0:	7e dd                	jle    116cf <func_12+0x18cf>
   116f2:	c7 85 64 f6 ff ff 00 	movl   $0x0,-0x99c(%rbp)
   116f9:	00 00 00 
   116fc:	eb 1e                	jmp    1171c <func_12+0x191c>
   116fe:	8b 85 64 f6 ff ff    	mov    -0x99c(%rbp),%eax
   11704:	48 98                	cltq   
   11706:	48 8d 15 53 ca 00 00 	lea    0xca53(%rip),%rdx        # 1e160 <g_110>
   1170d:	48 89 94 c5 80 f7 ff 	mov    %rdx,-0x880(%rbp,%rax,8)
   11714:	ff 
   11715:	83 85 64 f6 ff ff 01 	addl   $0x1,-0x99c(%rbp)
   1171c:	83 bd 64 f6 ff ff 00 	cmpl   $0x0,-0x99c(%rbp)
   11723:	7e d9                	jle    116fe <func_12+0x18fe>
   11725:	80 85 38 f6 ff ff 01 	addb   $0x1,-0x9c8(%rbp)
   1172c:	80 bd 38 f6 ff ff 09 	cmpb   $0x9,-0x9c8(%rbp)
   11733:	0f 86 69 f6 ff ff    	jbe    10da2 <func_12+0xfa2>
   11739:	66 c7 05 be ca 00 00 	movw   $0xfff0,0xcabe(%rip)        # 1e200 <g_318>
   11740:	f0 ff 
   11742:	e9 ab 00 00 00       	jmpq   117f2 <func_12+0x19f2>
   11747:	c7 05 17 c9 00 00 00 	movl   $0x0,0xc917(%rip)        # 1e068 <g_37>
   1174e:	00 00 00 
   11751:	eb 63                	jmp    117b6 <func_12+0x19b6>
   11753:	c6 05 36 ca 00 00 00 	movb   $0x0,0xca36(%rip)        # 1e190 <g_148>
   1175a:	eb 40                	jmp    1179c <func_12+0x199c>
   1175c:	8b 0d 06 c9 00 00    	mov    0xc906(%rip),%ecx        # 1e068 <g_37>
   11762:	0f b6 05 27 ca 00 00 	movzbl 0xca27(%rip),%eax        # 1e190 <g_148>
   11769:	0f be c0             	movsbl %al,%eax
   1176c:	48 63 d0             	movslq %eax,%rdx
   1176f:	89 c9                	mov    %ecx,%ecx
   11771:	48 89 c8             	mov    %rcx,%rax
   11774:	48 c1 e0 02          	shl    $0x2,%rax
   11778:	48 01 c8             	add    %rcx,%rax
   1177b:	48 01 c0             	add    %rax,%rax
   1177e:	48 01 d0             	add    %rdx,%rax
   11781:	c7 84 85 90 f8 ff ff 	movl   $0xc91d5f65,-0x770(%rbp,%rax,4)
   11788:	65 5f 1d c9 
   1178c:	0f b6 05 fd c9 00 00 	movzbl 0xc9fd(%rip),%eax        # 1e190 <g_148>
   11793:	83 c0 01             	add    $0x1,%eax
   11796:	88 05 f4 c9 00 00    	mov    %al,0xc9f4(%rip)        # 1e190 <g_148>
   1179c:	0f b6 05 ed c9 00 00 	movzbl 0xc9ed(%rip),%eax        # 1e190 <g_148>
   117a3:	3c 09                	cmp    $0x9,%al
   117a5:	7e b5                	jle    1175c <func_12+0x195c>
   117a7:	8b 05 bb c8 00 00    	mov    0xc8bb(%rip),%eax        # 1e068 <g_37>
   117ad:	83 c0 01             	add    $0x1,%eax
   117b0:	89 05 b2 c8 00 00    	mov    %eax,0xc8b2(%rip)        # 1e068 <g_37>
   117b6:	8b 05 ac c8 00 00    	mov    0xc8ac(%rip),%eax        # 1e068 <g_37>
   117bc:	83 f8 03             	cmp    $0x3,%eax
   117bf:	76 92                	jbe    11753 <func_12+0x1953>
   117c1:	80 bd 3c f6 ff ff 00 	cmpb   $0x0,-0x9c4(%rbp)
   117c8:	75 3b                	jne    11805 <func_12+0x1a05>
   117ca:	80 bd 38 f6 ff ff 00 	cmpb   $0x0,-0x9c8(%rbp)
   117d1:	75 0d                	jne    117e0 <func_12+0x19e0>
   117d3:	48 8b 05 c6 1d 01 00 	mov    0x11dc6(%rip),%rax        # 235a0 <g_153>
   117da:	8b 00                	mov    (%rax),%eax
   117dc:	85 c0                	test   %eax,%eax
   117de:	eb 01                	jmp    117e1 <func_12+0x19e1>
   117e0:	90                   	nop
   117e1:	0f b7 05 18 ca 00 00 	movzwl 0xca18(%rip),%eax        # 1e200 <g_318>
   117e8:	83 c0 01             	add    $0x1,%eax
   117eb:	66 89 05 0e ca 00 00 	mov    %ax,0xca0e(%rip)        # 1e200 <g_318>
   117f2:	0f b7 05 07 ca 00 00 	movzwl 0xca07(%rip),%eax        # 1e200 <g_318>
   117f9:	66 83 f8 32          	cmp    $0x32,%ax
   117fd:	0f 84 44 ff ff ff    	je     11747 <func_12+0x1947>
   11803:	eb 01                	jmp    11806 <func_12+0x1a06>
   11805:	90                   	nop
   11806:	48 0f be 85 3c f6 ff 	movsbq -0x9c4(%rbp),%rax
   1180d:	ff 
   1180e:	48 8b 75 f8          	mov    -0x8(%rbp),%rsi
   11812:	64 48 33 34 25 28 00 	xor    %fs:0x28,%rsi
   11819:	00 00 
   1181b:	74 05                	je     11822 <func_12+0x1a22>
   1181d:	e8 4e 78 ff ff       	callq  9070 <__stack_chk_fail@plt>
   11822:	c9                   	leaveq 
   11823:	c3                   	retq   

0000000000011824 <func_18>:
   11824:	f3 0f 1e fa          	endbr64 
   11828:	55                   	push   %rbp
   11829:	48 89 e5             	mov    %rsp,%rbp
   1182c:	41 57                	push   %r15
   1182e:	41 56                	push   %r14
   11830:	41 55                	push   %r13
   11832:	41 54                	push   %r12
   11834:	53                   	push   %rbx
   11835:	48 81 ec 00 10 00 00 	sub    $0x1000,%rsp
   1183c:	48 83 0c 24 00       	orq    $0x0,(%rsp)
   11841:	48 81 ec f8 00 00 00 	sub    $0xf8,%rsp
   11848:	89 f8                	mov    %edi,%eax
   1184a:	66 89 85 0c ef ff ff 	mov    %ax,-0x10f4(%rbp)
   11851:	64 48 8b 04 25 28 00 	mov    %fs:0x28,%rax
   11858:	00 00 
   1185a:	48 89 45 c8          	mov    %rax,-0x38(%rbp)
   1185e:	31 c0                	xor    %eax,%eax
   11860:	48 8d 85 30 f6 ff ff 	lea    -0x9d0(%rbp),%rax
   11867:	48 8d 15 32 0a 01 00 	lea    0x10a32(%rip),%rdx        # 222a0 <g_1852+0x10f8>
   1186e:	b9 5a 00 00 00       	mov    $0x5a,%ecx
   11873:	48 89 c7             	mov    %rax,%rdi
   11876:	48 89 d6             	mov    %rdx,%rsi
   11879:	f3 48 a5             	rep movsq %ds:(%rsi),%es:(%rdi)
   1187c:	66 c7 85 24 ef ff ff 	movw   $0xfffb,-0x10dc(%rbp)
   11883:	fb ff 
   11885:	48 8d 85 f0 f3 ff ff 	lea    -0xc10(%rbp),%rax
   1188c:	48 8d 15 ed 0c 01 00 	lea    0x10ced(%rip),%rdx        # 22580 <g_1852+0x13d8>
   11893:	b9 48 00 00 00       	mov    $0x48,%ecx
   11898:	48 89 c7             	mov    %rax,%rdi
   1189b:	48 89 d6             	mov    %rdx,%rsi
   1189e:	f3 48 a5             	rep movsq %ds:(%rsi),%es:(%rdi)
   118a1:	c7 85 28 ef ff ff 04 	movl   $0x4,-0x10d8(%rbp)
   118a8:	00 00 00 
   118ab:	c7 85 34 ef ff ff ea 	movl   $0x7f40a0ea,-0x10cc(%rbp)
   118b2:	a0 40 7f 
   118b5:	48 c7 85 70 ef ff ff 	movq   $0x0,-0x1090(%rbp)
   118bc:	00 00 00 00 
   118c0:	48 8d 85 70 ef ff ff 	lea    -0x1090(%rbp),%rax
   118c7:	48 89 85 c0 f0 ff ff 	mov    %rax,-0xf40(%rbp)
   118ce:	48 8d 85 70 ef ff ff 	lea    -0x1090(%rbp),%rax
   118d5:	48 89 85 c8 f0 ff ff 	mov    %rax,-0xf38(%rbp)
   118dc:	48 8d 85 70 ef ff ff 	lea    -0x1090(%rbp),%rax
   118e3:	48 89 85 d0 f0 ff ff 	mov    %rax,-0xf30(%rbp)
   118ea:	48 8d 85 70 ef ff ff 	lea    -0x1090(%rbp),%rax
   118f1:	48 89 85 d8 f0 ff ff 	mov    %rax,-0xf28(%rbp)
   118f8:	48 c7 85 e0 f0 ff ff 	movq   $0x0,-0xf20(%rbp)
   118ff:	00 00 00 00 
   11903:	48 c7 85 e8 f0 ff ff 	movq   $0x0,-0xf18(%rbp)
   1190a:	00 00 00 00 
   1190e:	48 8d 85 70 ef ff ff 	lea    -0x1090(%rbp),%rax
   11915:	48 89 85 f0 f0 ff ff 	mov    %rax,-0xf10(%rbp)
   1191c:	48 8d 85 70 ef ff ff 	lea    -0x1090(%rbp),%rax
   11923:	48 89 85 f8 f0 ff ff 	mov    %rax,-0xf08(%rbp)
   1192a:	48 8d 85 70 ef ff ff 	lea    -0x1090(%rbp),%rax
   11931:	48 89 85 00 f1 ff ff 	mov    %rax,-0xf00(%rbp)
   11938:	48 8d 85 70 ef ff ff 	lea    -0x1090(%rbp),%rax
   1193f:	48 89 85 08 f1 ff ff 	mov    %rax,-0xef8(%rbp)
   11946:	48 8d 85 70 ef ff ff 	lea    -0x1090(%rbp),%rax
   1194d:	48 89 85 10 f1 ff ff 	mov    %rax,-0xef0(%rbp)
   11954:	48 8d 85 70 ef ff ff 	lea    -0x1090(%rbp),%rax
   1195b:	48 89 85 18 f1 ff ff 	mov    %rax,-0xee8(%rbp)
   11962:	48 8d 85 70 ef ff ff 	lea    -0x1090(%rbp),%rax
   11969:	48 89 85 20 f1 ff ff 	mov    %rax,-0xee0(%rbp)
   11970:	48 8d 85 70 ef ff ff 	lea    -0x1090(%rbp),%rax
   11977:	48 89 85 28 f1 ff ff 	mov    %rax,-0xed8(%rbp)
   1197e:	48 8d 85 70 ef ff ff 	lea    -0x1090(%rbp),%rax
   11985:	48 89 85 30 f1 ff ff 	mov    %rax,-0xed0(%rbp)
   1198c:	48 8d 85 70 ef ff ff 	lea    -0x1090(%rbp),%rax
   11993:	48 89 85 38 f1 ff ff 	mov    %rax,-0xec8(%rbp)
   1199a:	48 8d 85 70 ef ff ff 	lea    -0x1090(%rbp),%rax
   119a1:	48 89 85 40 f1 ff ff 	mov    %rax,-0xec0(%rbp)
   119a8:	48 8d 85 70 ef ff ff 	lea    -0x1090(%rbp),%rax
   119af:	48 89 85 48 f1 ff ff 	mov    %rax,-0xeb8(%rbp)
   119b6:	48 c7 85 50 f1 ff ff 	movq   $0x0,-0xeb0(%rbp)
   119bd:	00 00 00 00 
   119c1:	48 8d 85 70 ef ff ff 	lea    -0x1090(%rbp),%rax
   119c8:	48 89 85 58 f1 ff ff 	mov    %rax,-0xea8(%rbp)
   119cf:	48 8d 85 70 ef ff ff 	lea    -0x1090(%rbp),%rax
   119d6:	48 89 85 60 f1 ff ff 	mov    %rax,-0xea0(%rbp)
   119dd:	48 c7 85 68 f1 ff ff 	movq   $0x0,-0xe98(%rbp)
   119e4:	00 00 00 00 
   119e8:	48 8d 85 70 ef ff ff 	lea    -0x1090(%rbp),%rax
   119ef:	48 89 85 70 f1 ff ff 	mov    %rax,-0xe90(%rbp)
   119f6:	48 8d 85 70 ef ff ff 	lea    -0x1090(%rbp),%rax
   119fd:	48 89 85 78 f1 ff ff 	mov    %rax,-0xe88(%rbp)
   11a04:	48 c7 85 80 f1 ff ff 	movq   $0x0,-0xe80(%rbp)
   11a0b:	00 00 00 00 
   11a0f:	48 8d 85 70 ef ff ff 	lea    -0x1090(%rbp),%rax
   11a16:	48 89 85 88 f1 ff ff 	mov    %rax,-0xe78(%rbp)
   11a1d:	48 8d 85 70 ef ff ff 	lea    -0x1090(%rbp),%rax
   11a24:	48 89 85 90 f1 ff ff 	mov    %rax,-0xe70(%rbp)
   11a2b:	48 8d 85 70 ef ff ff 	lea    -0x1090(%rbp),%rax
   11a32:	48 89 85 98 f1 ff ff 	mov    %rax,-0xe68(%rbp)
   11a39:	48 8d 85 70 ef ff ff 	lea    -0x1090(%rbp),%rax
   11a40:	48 89 85 a0 f1 ff ff 	mov    %rax,-0xe60(%rbp)
   11a47:	48 8d 85 70 ef ff ff 	lea    -0x1090(%rbp),%rax
   11a4e:	48 89 85 a8 f1 ff ff 	mov    %rax,-0xe58(%rbp)
   11a55:	48 8d 85 70 ef ff ff 	lea    -0x1090(%rbp),%rax
   11a5c:	48 89 85 b0 f1 ff ff 	mov    %rax,-0xe50(%rbp)
   11a63:	48 8d 85 70 ef ff ff 	lea    -0x1090(%rbp),%rax
   11a6a:	48 89 85 b8 f1 ff ff 	mov    %rax,-0xe48(%rbp)
   11a71:	48 8d 85 70 ef ff ff 	lea    -0x1090(%rbp),%rax
   11a78:	48 89 85 c0 f1 ff ff 	mov    %rax,-0xe40(%rbp)
   11a7f:	48 8d 85 70 ef ff ff 	lea    -0x1090(%rbp),%rax
   11a86:	48 89 85 c8 f1 ff ff 	mov    %rax,-0xe38(%rbp)
   11a8d:	48 8d 85 70 ef ff ff 	lea    -0x1090(%rbp),%rax
   11a94:	48 89 85 d0 f1 ff ff 	mov    %rax,-0xe30(%rbp)
   11a9b:	48 8d 85 70 ef ff ff 	lea    -0x1090(%rbp),%rax
   11aa2:	48 89 85 d8 f1 ff ff 	mov    %rax,-0xe28(%rbp)
   11aa9:	48 c7 85 e0 f1 ff ff 	movq   $0x0,-0xe20(%rbp)
   11ab0:	00 00 00 00 
   11ab4:	48 8d 85 70 ef ff ff 	lea    -0x1090(%rbp),%rax
   11abb:	48 89 85 e8 f1 ff ff 	mov    %rax,-0xe18(%rbp)
   11ac2:	48 8d 85 70 ef ff ff 	lea    -0x1090(%rbp),%rax
   11ac9:	48 89 85 f0 f1 ff ff 	mov    %rax,-0xe10(%rbp)
   11ad0:	48 c7 85 f8 f1 ff ff 	movq   $0x0,-0xe08(%rbp)
   11ad7:	00 00 00 00 
   11adb:	48 8d 85 70 ef ff ff 	lea    -0x1090(%rbp),%rax
   11ae2:	48 89 85 00 f2 ff ff 	mov    %rax,-0xe00(%rbp)
   11ae9:	48 8d 85 70 ef ff ff 	lea    -0x1090(%rbp),%rax
   11af0:	48 89 85 08 f2 ff ff 	mov    %rax,-0xdf8(%rbp)
   11af7:	48 c7 85 10 f2 ff ff 	movq   $0x0,-0xdf0(%rbp)
   11afe:	00 00 00 00 
   11b02:	48 8d 85 70 ef ff ff 	lea    -0x1090(%rbp),%rax
   11b09:	48 89 85 18 f2 ff ff 	mov    %rax,-0xde8(%rbp)
   11b10:	48 8d 85 70 ef ff ff 	lea    -0x1090(%rbp),%rax
   11b17:	48 89 85 20 f2 ff ff 	mov    %rax,-0xde0(%rbp)
   11b1e:	48 8d 05 cf d5 00 00 	lea    0xd5cf(%rip),%rax        # 1f0f4 <g_542>
   11b25:	48 89 85 78 ef ff ff 	mov    %rax,-0x1088(%rbp)
   11b2c:	c7 85 4c ef ff ff 00 	movl   $0x0,-0x10b4(%rbp)
   11b33:	00 00 00 
   11b36:	48 8d 05 9b 2d 01 00 	lea    0x12d9b(%rip),%rax        # 248d8 <g_308>
   11b3d:	48 89 85 a0 ef ff ff 	mov    %rax,-0x1060(%rbp)
   11b44:	c6 85 1d ef ff ff 43 	movb   $0x43,-0x10e3(%rbp)
   11b4b:	c7 85 50 ef ff ff ff 	movl   $0xffffffff,-0x10b0(%rbp)
   11b52:	ff ff ff 
   11b55:	c6 85 1e ef ff ff 16 	movb   $0x16,-0x10e2(%rbp)
   11b5c:	c6 85 1f ef ff ff ff 	movb   $0xff,-0x10e1(%rbp)
   11b63:	48 8d 05 fd ca 00 00 	lea    0xcafd(%rip),%rax        # 1e667 <g_462+0x447>
   11b6a:	48 89 85 a8 ef ff ff 	mov    %rax,-0x1058(%rbp)
   11b71:	66 c7 85 26 ef ff ff 	movw   $0x426c,-0x10da(%rbp)
   11b78:	6c 42 
   11b7a:	c7 85 2c ef ff ff 00 	movl   $0x0,-0x10d4(%rbp)
   11b81:	00 00 00 
   11b84:	eb 7f                	jmp    11c05 <func_18+0x3e1>
   11b86:	c7 85 30 ef ff ff 00 	movl   $0x0,-0x10d0(%rbp)
   11b8d:	00 00 00 
   11b90:	eb 63                	jmp    11bf5 <func_18+0x3d1>
   11b92:	c7 85 38 ef ff ff 00 	movl   $0x0,-0x10c8(%rbp)
   11b99:	00 00 00 
   11b9c:	eb 47                	jmp    11be5 <func_18+0x3c1>
   11b9e:	8b 85 38 ef ff ff    	mov    -0x10c8(%rbp),%eax
   11ba4:	48 63 c8             	movslq %eax,%rcx
   11ba7:	8b 85 2c ef ff ff    	mov    -0x10d4(%rbp),%eax
   11bad:	48 63 d0             	movslq %eax,%rdx
   11bb0:	8b 85 30 ef ff ff    	mov    -0x10d0(%rbp),%eax
   11bb6:	48 63 f0             	movslq %eax,%rsi
   11bb9:	48 89 d0             	mov    %rdx,%rax
   11bbc:	48 01 c0             	add    %rax,%rax
   11bbf:	48 01 d0             	add    %rdx,%rax
   11bc2:	48 01 c0             	add    %rax,%rax
   11bc5:	48 01 f0             	add    %rsi,%rax
   11bc8:	48 c1 e0 02          	shl    $0x2,%rax
   11bcc:	48 01 c8             	add    %rcx,%rax
   11bcf:	48 8d 15 ba 21 01 00 	lea    0x121ba(%rip),%rdx        # 23d90 <g_165>
   11bd6:	48 89 94 c5 00 f9 ff 	mov    %rdx,-0x700(%rbp,%rax,8)
   11bdd:	ff 
   11bde:	83 85 38 ef ff ff 01 	addl   $0x1,-0x10c8(%rbp)
   11be5:	83 bd 38 ef ff ff 03 	cmpl   $0x3,-0x10c8(%rbp)
   11bec:	7e b0                	jle    11b9e <func_18+0x37a>
   11bee:	83 85 30 ef ff ff 01 	addl   $0x1,-0x10d0(%rbp)
   11bf5:	83 bd 30 ef ff ff 05 	cmpl   $0x5,-0x10d0(%rbp)
   11bfc:	7e 94                	jle    11b92 <func_18+0x36e>
   11bfe:	83 85 2c ef ff ff 01 	addl   $0x1,-0x10d4(%rbp)
   11c05:	83 bd 2c ef ff ff 08 	cmpl   $0x8,-0x10d4(%rbp)
   11c0c:	0f 8e 74 ff ff ff    	jle    11b86 <func_18+0x362>
   11c12:	c7 85 2c ef ff ff 00 	movl   $0x0,-0x10d4(%rbp)
   11c19:	00 00 00 
   11c1c:	eb 1e                	jmp    11c3c <func_18+0x418>
   11c1e:	8b 85 2c ef ff ff    	mov    -0x10d4(%rbp),%eax
   11c24:	48 98                	cltq   
   11c26:	48 8d 15 1b c5 00 00 	lea    0xc51b(%rip),%rdx        # 1e148 <g_90>
   11c2d:	48 89 94 c5 50 f0 ff 	mov    %rdx,-0xfb0(%rbp,%rax,8)
   11c34:	ff 
   11c35:	83 85 2c ef ff ff 01 	addl   $0x1,-0x10d4(%rbp)
   11c3c:	83 bd 2c ef ff ff 02 	cmpl   $0x2,-0x10d4(%rbp)
   11c43:	7e d9                	jle    11c1e <func_18+0x3fa>
   11c45:	8b 05 01 c4 00 00    	mov    0xc401(%rip),%eax        # 1e04c <g_24>
   11c4b:	83 c0 01             	add    $0x1,%eax
   11c4e:	89 05 f8 c3 00 00    	mov    %eax,0xc3f8(%rip)        # 1e04c <g_24>
   11c54:	0f b6 05 ed c3 00 00 	movzbl 0xc3ed(%rip),%eax        # 1e048 <g_22>
   11c5b:	0f be d8             	movsbl %al,%ebx
   11c5e:	8b 95 28 ef ff ff    	mov    -0x10d8(%rbp),%edx
   11c64:	8b 05 da c3 00 00    	mov    0xc3da(%rip),%eax        # 1e044 <g_21>
   11c6a:	21 d0                	and    %edx,%eax
   11c6c:	89 85 28 ef ff ff    	mov    %eax,-0x10d8(%rbp)
   11c72:	8b 95 28 ef ff ff    	mov    -0x10d8(%rbp),%edx
   11c78:	8b 05 d2 c3 00 00    	mov    0xc3d2(%rip),%eax        # 1e050 <g_34>
   11c7e:	31 d0                	xor    %edx,%eax
   11c80:	89 05 ca c3 00 00    	mov    %eax,0xc3ca(%rip)        # 1e050 <g_34>
   11c86:	0f b7 85 0c ef ff ff 	movzwl -0x10f4(%rbp),%eax
   11c8d:	0f b6 c0             	movzbl %al,%eax
   11c90:	be 00 00 00 00       	mov    $0x0,%esi
   11c95:	89 c7                	mov    %eax,%edi
   11c97:	e8 dc 7e ff ff       	callq  9b78 <safe_sub_func_uint8_t_u_u>
   11c9c:	41 89 c4             	mov    %eax,%r12d
   11c9f:	0f bf 85 0c ef ff ff 	movswl -0x10f4(%rbp),%eax
   11ca6:	89 c6                	mov    %eax,%esi
   11ca8:	bf 08 00 00 00       	mov    $0x8,%edi
   11cad:	e8 53 7f ff ff       	callq  9c05 <safe_lshift_func_uint8_t_u_s>
   11cb2:	0f b6 d0             	movzbl %al,%edx
   11cb5:	41 0f b6 cc          	movzbl %r12b,%ecx
   11cb9:	8b 05 a9 c3 00 00    	mov    0xc3a9(%rip),%eax        # 1e068 <g_37>
   11cbf:	31 c8                	xor    %ecx,%eax
   11cc1:	89 05 a1 c3 00 00    	mov    %eax,0xc3a1(%rip)        # 1e068 <g_37>
   11cc7:	8b 05 9b c3 00 00    	mov    0xc39b(%rip),%eax        # 1e068 <g_37>
   11ccd:	39 c2                	cmp    %eax,%edx
   11ccf:	0f 93 c0             	setae  %al
   11cd2:	0f b6 c0             	movzbl %al,%eax
   11cd5:	89 de                	mov    %ebx,%esi
   11cd7:	89 c7                	mov    %eax,%edi
   11cd9:	e8 85 78 ff ff       	callq  9563 <safe_rshift_func_int16_t_s_u>
   11cde:	48 8b 85 18 f7 ff ff 	mov    -0x8e8(%rbp),%rax
   11ce5:	48 8d 15 44 c3 00 00 	lea    0xc344(%rip),%rdx        # 1e030 <g_3>
   11cec:	48 39 d0             	cmp    %rdx,%rax
   11cef:	0f 84 da 02 00 00    	je     11fcf <func_18+0x7ab>
   11cf5:	48 c7 85 d8 ef ff ff 	movq   $0x0,-0x1028(%rbp)
   11cfc:	00 00 00 00 
   11d00:	c6 85 21 ef ff ff 72 	movb   $0x72,-0x10df(%rbp)
   11d07:	48 8d 05 fc d3 00 00 	lea    0xd3fc(%rip),%rax        # 1f10a <g_701>
   11d0e:	48 89 85 e0 ef ff ff 	mov    %rax,-0x1020(%rbp)
   11d15:	c7 85 28 ef ff ff 00 	movl   $0x0,-0x10d8(%rbp)
   11d1c:	00 00 00 
   11d1f:	eb 5c                	jmp    11d7d <func_18+0x559>
   11d21:	c7 05 19 c3 00 00 00 	movl   $0x0,0xc319(%rip)        # 1e044 <g_21>
   11d28:	00 00 00 
   11d2b:	eb 36                	jmp    11d63 <func_18+0x53f>
   11d2d:	8b 95 28 ef ff ff    	mov    -0x10d8(%rbp),%edx
   11d33:	8b 05 0b c3 00 00    	mov    0xc30b(%rip),%eax        # 1e044 <g_21>
   11d39:	48 98                	cltq   
   11d3b:	48 63 d2             	movslq %edx,%rdx
   11d3e:	48 c1 e2 03          	shl    $0x3,%rdx
   11d42:	48 01 d0             	add    %rdx,%rax
   11d45:	48 8d 15 04 c3 00 00 	lea    0xc304(%rip),%rdx        # 1e050 <g_34>
   11d4c:	48 89 94 c5 f0 f3 ff 	mov    %rdx,-0xc10(%rbp,%rax,8)
   11d53:	ff 
   11d54:	8b 05 ea c2 00 00    	mov    0xc2ea(%rip),%eax        # 1e044 <g_21>
   11d5a:	83 c0 01             	add    $0x1,%eax
   11d5d:	89 05 e1 c2 00 00    	mov    %eax,0xc2e1(%rip)        # 1e044 <g_21>
   11d63:	8b 05 db c2 00 00    	mov    0xc2db(%rip),%eax        # 1e044 <g_21>
   11d69:	83 f8 07             	cmp    $0x7,%eax
   11d6c:	7e bf                	jle    11d2d <func_18+0x509>
   11d6e:	8b 85 28 ef ff ff    	mov    -0x10d8(%rbp),%eax
   11d74:	83 c0 01             	add    $0x1,%eax
   11d77:	89 85 28 ef ff ff    	mov    %eax,-0x10d8(%rbp)
   11d7d:	8b 85 28 ef ff ff    	mov    -0x10d8(%rbp),%eax
   11d83:	83 f8 08             	cmp    $0x8,%eax
   11d86:	7e 99                	jle    11d21 <func_18+0x4fd>
   11d88:	0f b6 9d 21 ef ff ff 	movzbl -0x10df(%rbp),%ebx
   11d8f:	48 8b 05 2a 20 01 00 	mov    0x1202a(%rip),%rax        # 23dc0 <g_608>
   11d96:	48 89 85 00 ef ff ff 	mov    %rax,-0x1100(%rbp)
   11d9d:	44 0f bf ad 0c ef ff 	movswl -0x10f4(%rbp),%r13d
   11da4:	ff 
   11da5:	48 c7 c0 f9 ff ff ff 	mov    $0xfffffffffffffff9,%rax
   11dac:	89 85 08 ef ff ff    	mov    %eax,-0x10f8(%rbp)
   11db2:	4c 8b a5 28 f5 ff ff 	mov    -0xad8(%rbp),%r12
   11db9:	4c 8b b5 80 f5 ff ff 	mov    -0xa80(%rbp),%r14
   11dc0:	8b 05 a2 c2 00 00    	mov    0xc2a2(%rip),%eax        # 1e068 <g_37>
   11dc6:	89 85 fc ee ff ff    	mov    %eax,-0x1104(%rbp)
   11dcc:	0f bf 85 0c ef ff ff 	movswl -0x10f4(%rbp),%eax
   11dd3:	89 85 f8 ee ff ff    	mov    %eax,-0x1108(%rbp)
   11dd9:	0f b7 05 14 d3 00 00 	movzwl 0xd314(%rip),%eax        # 1f0f4 <g_542>
   11de0:	0f b6 c0             	movzbl %al,%eax
   11de3:	89 85 f4 ee ff ff    	mov    %eax,-0x110c(%rbp)
   11de9:	0f b6 05 8a c3 00 00 	movzbl 0xc38a(%rip),%eax        # 1e17a <g_145+0xa>
   11df0:	44 0f be f8          	movsbl %al,%r15d
   11df4:	48 8b 85 80 f5 ff ff 	mov    -0xa80(%rbp),%rax
   11dfb:	48 89 85 e8 ee ff ff 	mov    %rax,-0x1118(%rbp)
   11e02:	8b 05 28 c2 00 00    	mov    0xc228(%rip),%eax        # 1e030 <g_3>
   11e08:	0f b7 c8             	movzwl %ax,%ecx
   11e0b:	89 8d f0 ee ff ff    	mov    %ecx,-0x1110(%rbp)
   11e11:	0f bf 85 0c ef ff ff 	movswl -0x10f4(%rbp),%eax
   11e18:	be b9 25 00 00       	mov    $0x25b9,%esi
   11e1d:	89 c7                	mov    %eax,%edi
   11e1f:	e8 af 75 ff ff       	callq  93d3 <safe_sub_func_int16_t_s_s>
   11e24:	0f b7 c0             	movzwl %ax,%eax
   11e27:	8b b5 f0 ee ff ff    	mov    -0x1110(%rbp),%esi
   11e2d:	89 c7                	mov    %eax,%edi
   11e2f:	e8 5a 7f ff ff       	callq  9d8e <safe_div_func_uint16_t_u_u>
   11e34:	0f b6 f0             	movzbl %al,%esi
   11e37:	48 8b 95 d8 ef ff ff 	mov    -0x1028(%rbp),%rdx
   11e3e:	48 8d 85 28 ef ff ff 	lea    -0x10d8(%rbp),%rax
   11e45:	48 89 d1             	mov    %rdx,%rcx
   11e48:	48 8b 95 e8 ee ff ff 	mov    -0x1118(%rbp),%rdx
   11e4f:	48 89 c7             	mov    %rax,%rdi
   11e52:	e8 fa 42 00 00       	callq  16151 <func_73>
   11e57:	be 05 00 00 00       	mov    $0x5,%esi
   11e5c:	bf 00 00 00 00       	mov    $0x0,%edi
   11e61:	e8 e6 7d ff ff       	callq  9c4c <safe_lshift_func_uint8_t_u_u>
   11e66:	0f b6 c0             	movzbl %al,%eax
   11e69:	48 be 1f 10 d2 e3 ba 	movabs $0xd0c483bae3d2101f,%rsi
   11e70:	83 c4 d0 
   11e73:	48 89 c7             	mov    %rax,%rdi
   11e76:	e8 7c 7b ff ff       	callq  99f7 <safe_div_func_int64_t_s_s>
   11e7b:	89 c2                	mov    %eax,%edx
   11e7d:	0f bf 85 0c ef ff ff 	movswl -0x10f4(%rbp),%eax
   11e84:	89 d6                	mov    %edx,%esi
   11e86:	89 c7                	mov    %eax,%edi
   11e88:	e8 e2 1f 00 00       	callq  13e6f <func_66>
   11e8d:	48 8b 05 c4 c1 00 00 	mov    0xc1c4(%rip),%rax        # 1e058 <g_36>
   11e94:	48 c1 e8 1f          	shr    $0x1f,%rax
   11e98:	25 ff ff 3f 00       	and    $0x3fffff,%eax
   11e9d:	98                   	cwtl   
   11e9e:	89 c6                	mov    %eax,%esi
   11ea0:	bf fa ff ff ff       	mov    $0xfffffffa,%edi
   11ea5:	e8 6c 75 ff ff       	callq  9416 <safe_mod_func_int16_t_s_s>
   11eaa:	0f bf d0             	movswl %ax,%edx
   11ead:	0f b6 85 21 ef ff ff 	movzbl -0x10df(%rbp),%eax
   11eb4:	39 c2                	cmp    %eax,%edx
   11eb6:	7e 09                	jle    11ec1 <func_18+0x69d>
   11eb8:	80 bd 21 ef ff ff 00 	cmpb   $0x0,-0x10df(%rbp)
   11ebf:	74 07                	je     11ec8 <func_18+0x6a4>
   11ec1:	b8 01 00 00 00       	mov    $0x1,%eax
   11ec6:	eb 05                	jmp    11ecd <func_18+0x6a9>
   11ec8:	b8 00 00 00 00       	mov    $0x0,%eax
   11ecd:	8b 8d f8 ee ff ff    	mov    -0x1108(%rbp),%ecx
   11ed3:	8b 95 f4 ee ff ff    	mov    -0x110c(%rbp),%edx
   11ed9:	44 89 fe             	mov    %r15d,%esi
   11edc:	89 c7                	mov    %eax,%edi
   11ede:	e8 1a 1f 00 00       	callq  13dfd <func_59>
   11ee3:	8b b5 fc ee ff ff    	mov    -0x1104(%rbp),%esi
   11ee9:	48 89 c7             	mov    %rax,%rdi
   11eec:	e8 3d 12 00 00       	callq  1312e <func_56>
   11ef1:	0f b7 c8             	movzwl %ax,%ecx
   11ef4:	0f bf 85 0c ef ff ff 	movswl -0x10f4(%rbp),%eax
   11efb:	4c 89 f2             	mov    %r14,%rdx
   11efe:	89 ce                	mov    %ecx,%esi
   11f00:	89 c7                	mov    %eax,%edi
   11f02:	e8 5c 10 00 00       	callq  12f63 <func_52>
   11f07:	4c 8b 85 00 ef ff ff 	mov    -0x1100(%rbp),%r8
   11f0e:	44 89 e9             	mov    %r13d,%ecx
   11f11:	8b 95 08 ef ff ff    	mov    -0x10f8(%rbp),%edx
   11f17:	4c 89 e6             	mov    %r12,%rsi
   11f1a:	48 89 c7             	mov    %rax,%rdi
   11f1d:	e8 14 10 00 00       	callq  12f36 <func_46>
   11f22:	48 8b 05 9f 1e 01 00 	mov    0x11e9f(%rip),%rax        # 23dc8 <g_607>
   11f29:	48 8b 00             	mov    (%rax),%rax
   11f2c:	8b 10                	mov    (%rax),%edx
   11f2e:	0f bf 85 0c ef ff ff 	movswl -0x10f4(%rbp),%eax
   11f35:	39 c2                	cmp    %eax,%edx
   11f37:	0f 95 c0             	setne  %al
   11f3a:	0f b6 d0             	movzbl %al,%edx
   11f3d:	0f b7 85 0c ef ff ff 	movzwl -0x10f4(%rbp),%eax
   11f44:	0f b7 c0             	movzwl %ax,%eax
   11f47:	89 d6                	mov    %edx,%esi
   11f49:	89 c7                	mov    %eax,%edi
   11f4b:	e8 2a 7f ff ff       	callq  9e7a <safe_rshift_func_uint16_t_u_u>
   11f50:	0f b7 d0             	movzwl %ax,%edx
   11f53:	0f b6 85 21 ef ff ff 	movzbl -0x10df(%rbp),%eax
   11f5a:	21 c2                	and    %eax,%edx
   11f5c:	0f b6 85 21 ef ff ff 	movzbl -0x10df(%rbp),%eax
   11f63:	39 c2                	cmp    %eax,%edx
   11f65:	0f 9f c0             	setg   %al
   11f68:	0f b6 c0             	movzbl %al,%eax
   11f6b:	89 de                	mov    %ebx,%esi
   11f6d:	89 c7                	mov    %eax,%edi
   11f6f:	e8 b1 7f ff ff       	callq  9f25 <safe_div_func_uint32_t_u_u>
   11f74:	b9 01 00 00 00       	mov    $0x1,%ecx
   11f79:	48 8b 85 e0 ef ff ff 	mov    -0x1020(%rbp),%rax
   11f80:	0f b6 00             	movzbl (%rax),%eax
   11f83:	89 c2                	mov    %eax,%edx
   11f85:	89 c8                	mov    %ecx,%eax
   11f87:	31 d0                	xor    %edx,%eax
   11f89:	89 c2                	mov    %eax,%edx
   11f8b:	48 8b 85 e0 ef ff ff 	mov    -0x1020(%rbp),%rax
   11f92:	88 10                	mov    %dl,(%rax)
   11f94:	48 8b 85 e0 ef ff ff 	mov    -0x1020(%rbp),%rax
   11f9b:	0f b6 00             	movzbl (%rax),%eax
   11f9e:	0f b6 c0             	movzbl %al,%eax
   11fa1:	be ff 00 00 00       	mov    $0xff,%esi
   11fa6:	89 c7                	mov    %eax,%edi
   11fa8:	e8 e6 7b ff ff       	callq  9b93 <safe_mul_func_uint8_t_u_u>
   11fad:	0f b6 c0             	movzbl %al,%eax
   11fb0:	89 c6                	mov    %eax,%esi
   11fb2:	bf 44 83 ff ff       	mov    $0xffff8344,%edi
   11fb7:	e8 39 74 ff ff       	callq  93f5 <safe_mul_func_int16_t_s_s>
   11fbc:	89 c2                	mov    %eax,%edx
   11fbe:	48 8b 05 db 15 01 00 	mov    0x115db(%rip),%rax        # 235a0 <g_153>
   11fc5:	0f bf d2             	movswl %dx,%edx
   11fc8:	89 10                	mov    %edx,(%rax)
   11fca:	e9 37 06 00 00       	jmpq   12606 <func_18+0xde2>
   11fcf:	48 c7 85 b0 ef ff ff 	movq   $0x2,-0x1050(%rbp)
   11fd6:	02 00 00 00 
   11fda:	c7 85 3c ef ff ff ff 	movl   $0xffffffff,-0x10c4(%rbp)
   11fe1:	ff ff ff 
   11fe4:	c7 05 2a c2 00 00 00 	movl   $0x0,0xc22a(%rip)        # 1e218 <g_396>
   11feb:	00 00 00 
   11fee:	e9 04 06 00 00       	jmpq   125f7 <func_18+0xdd3>
   11ff3:	48 c7 85 b8 ef ff ff 	movq   $0x0,-0x1048(%rbp)
   11ffa:	00 00 00 00 
   11ffe:	48 8d 05 8b 1d 01 00 	lea    0x11d8b(%rip),%rax        # 23d90 <g_165>
   12005:	48 89 85 90 ef ff ff 	mov    %rax,-0x1070(%rbp)
   1200c:	48 8d 85 90 ef ff ff 	lea    -0x1070(%rbp),%rax
   12013:	48 89 85 c0 ef ff ff 	mov    %rax,-0x1040(%rbp)
   1201a:	48 8d 05 e9 d0 00 00 	lea    0xd0e9(%rip),%rax        # 1f10a <g_701>
   12021:	48 89 85 c8 ef ff ff 	mov    %rax,-0x1038(%rbp)
   12028:	c6 85 20 ef ff ff ff 	movb   $0xff,-0x10e0(%rbp)
   1202f:	48 8d 05 96 28 01 00 	lea    0x12896(%rip),%rax        # 248cc <g_184>
   12036:	48 89 85 90 f0 ff ff 	mov    %rax,-0xf70(%rbp)
   1203d:	48 8d 05 88 28 01 00 	lea    0x12888(%rip),%rax        # 248cc <g_184>
   12044:	48 89 85 98 f0 ff ff 	mov    %rax,-0xf68(%rbp)
   1204b:	48 8d 05 7a 28 01 00 	lea    0x1287a(%rip),%rax        # 248cc <g_184>
   12052:	48 89 85 a0 f0 ff ff 	mov    %rax,-0xf60(%rbp)
   12059:	48 8d 05 6c 28 01 00 	lea    0x1286c(%rip),%rax        # 248cc <g_184>
   12060:	48 89 85 a8 f0 ff ff 	mov    %rax,-0xf58(%rbp)
   12067:	48 8d 05 e2 c0 00 00 	lea    0xc0e2(%rip),%rax        # 1e150 <g_105>
   1206e:	48 89 85 98 ef ff ff 	mov    %rax,-0x1068(%rbp)
   12075:	48 8d 85 98 ef ff ff 	lea    -0x1068(%rbp),%rax
   1207c:	48 89 85 d0 ef ff ff 	mov    %rax,-0x1030(%rbp)
   12083:	48 8d 85 c0 f0 ff ff 	lea    -0xf40(%rbp),%rax
   1208a:	48 83 c0 48          	add    $0x48,%rax
   1208e:	48 89 85 30 f2 ff ff 	mov    %rax,-0xdd0(%rbp)
   12095:	48 c7 85 38 f2 ff ff 	movq   $0x0,-0xdc8(%rbp)
   1209c:	00 00 00 00 
   120a0:	48 8d 85 c0 f0 ff ff 	lea    -0xf40(%rbp),%rax
   120a7:	48 83 c0 40          	add    $0x40,%rax
   120ab:	48 89 85 40 f2 ff ff 	mov    %rax,-0xdc0(%rbp)
   120b2:	48 c7 85 48 f2 ff ff 	movq   $0x0,-0xdb8(%rbp)
   120b9:	00 00 00 00 
   120bd:	48 8d 85 c0 f0 ff ff 	lea    -0xf40(%rbp),%rax
   120c4:	48 83 c0 48          	add    $0x48,%rax
   120c8:	48 89 85 50 f2 ff ff 	mov    %rax,-0xdb0(%rbp)
   120cf:	48 8d 85 c0 f0 ff ff 	lea    -0xf40(%rbp),%rax
   120d6:	48 83 c0 40          	add    $0x40,%rax
   120da:	48 89 85 58 f2 ff ff 	mov    %rax,-0xda8(%rbp)
   120e1:	48 8d 85 c0 f0 ff ff 	lea    -0xf40(%rbp),%rax
   120e8:	48 83 c0 40          	add    $0x40,%rax
   120ec:	48 89 85 60 f2 ff ff 	mov    %rax,-0xda0(%rbp)
   120f3:	48 8d 85 c0 f0 ff ff 	lea    -0xf40(%rbp),%rax
   120fa:	48 83 c0 40          	add    $0x40,%rax
   120fe:	48 89 85 68 f2 ff ff 	mov    %rax,-0xd98(%rbp)
   12105:	48 8d 85 c0 f0 ff ff 	lea    -0xf40(%rbp),%rax
   1210c:	48 89 85 70 f2 ff ff 	mov    %rax,-0xd90(%rbp)
   12113:	48 c7 85 78 f2 ff ff 	movq   $0x0,-0xd88(%rbp)
   1211a:	00 00 00 00 
   1211e:	48 8d 85 c0 f0 ff ff 	lea    -0xf40(%rbp),%rax
   12125:	48 83 c0 40          	add    $0x40,%rax
   12129:	48 89 85 80 f2 ff ff 	mov    %rax,-0xd80(%rbp)
   12130:	48 8d 85 c0 f0 ff ff 	lea    -0xf40(%rbp),%rax
   12137:	48 83 c0 40          	add    $0x40,%rax
   1213b:	48 89 85 88 f2 ff ff 	mov    %rax,-0xd78(%rbp)
   12142:	48 8d 85 c0 f0 ff ff 	lea    -0xf40(%rbp),%rax
   12149:	48 05 a0 00 00 00    	add    $0xa0,%rax
   1214f:	48 89 85 90 f2 ff ff 	mov    %rax,-0xd70(%rbp)
   12156:	48 c7 85 98 f2 ff ff 	movq   $0x0,-0xd68(%rbp)
   1215d:	00 00 00 00 
   12161:	48 c7 85 a0 f2 ff ff 	movq   $0x0,-0xd60(%rbp)
   12168:	00 00 00 00 
   1216c:	48 8d 85 c0 f0 ff ff 	lea    -0xf40(%rbp),%rax
   12173:	48 83 c0 40          	add    $0x40,%rax
   12177:	48 89 85 a8 f2 ff ff 	mov    %rax,-0xd58(%rbp)
   1217e:	48 c7 85 b0 f2 ff ff 	movq   $0x0,-0xd50(%rbp)
   12185:	00 00 00 00 
   12189:	48 c7 85 b8 f2 ff ff 	movq   $0x0,-0xd48(%rbp)
   12190:	00 00 00 00 
   12194:	48 8d 85 c0 f0 ff ff 	lea    -0xf40(%rbp),%rax
   1219b:	48 05 c0 00 00 00    	add    $0xc0,%rax
   121a1:	48 89 85 c0 f2 ff ff 	mov    %rax,-0xd40(%rbp)
   121a8:	48 8d 85 c0 f0 ff ff 	lea    -0xf40(%rbp),%rax
   121af:	48 83 c0 48          	add    $0x48,%rax
   121b3:	48 89 85 c8 f2 ff ff 	mov    %rax,-0xd38(%rbp)
   121ba:	48 8d 85 c0 f0 ff ff 	lea    -0xf40(%rbp),%rax
   121c1:	48 83 c0 30          	add    $0x30,%rax
   121c5:	48 89 85 d0 f2 ff ff 	mov    %rax,-0xd30(%rbp)
   121cc:	48 8d 85 c0 f0 ff ff 	lea    -0xf40(%rbp),%rax
   121d3:	48 83 c0 40          	add    $0x40,%rax
   121d7:	48 89 85 d8 f2 ff ff 	mov    %rax,-0xd28(%rbp)
   121de:	48 8d 85 c0 f0 ff ff 	lea    -0xf40(%rbp),%rax
   121e5:	48 83 c0 40          	add    $0x40,%rax
   121e9:	48 89 85 e0 f2 ff ff 	mov    %rax,-0xd20(%rbp)
   121f0:	48 8d 85 c0 f0 ff ff 	lea    -0xf40(%rbp),%rax
   121f7:	48 83 c0 40          	add    $0x40,%rax
   121fb:	48 89 85 e8 f2 ff ff 	mov    %rax,-0xd18(%rbp)
   12202:	48 8d 85 c0 f0 ff ff 	lea    -0xf40(%rbp),%rax
   12209:	48 83 c0 30          	add    $0x30,%rax
   1220d:	48 89 85 f0 f2 ff ff 	mov    %rax,-0xd10(%rbp)
   12214:	48 8d 85 c0 f0 ff ff 	lea    -0xf40(%rbp),%rax
   1221b:	48 83 c0 40          	add    $0x40,%rax
   1221f:	48 89 85 f8 f2 ff ff 	mov    %rax,-0xd08(%rbp)
   12226:	48 8d 85 c0 f0 ff ff 	lea    -0xf40(%rbp),%rax
   1222d:	48 83 c0 40          	add    $0x40,%rax
   12231:	48 89 85 00 f3 ff ff 	mov    %rax,-0xd00(%rbp)
   12238:	48 8d 85 c0 f0 ff ff 	lea    -0xf40(%rbp),%rax
   1223f:	48 83 c0 40          	add    $0x40,%rax
   12243:	48 89 85 08 f3 ff ff 	mov    %rax,-0xcf8(%rbp)
   1224a:	48 8d 85 c0 f0 ff ff 	lea    -0xf40(%rbp),%rax
   12251:	48 83 c0 48          	add    $0x48,%rax
   12255:	48 89 85 10 f3 ff ff 	mov    %rax,-0xcf0(%rbp)
   1225c:	48 8d 85 c0 f0 ff ff 	lea    -0xf40(%rbp),%rax
   12263:	48 83 c0 40          	add    $0x40,%rax
   12267:	48 89 85 18 f3 ff ff 	mov    %rax,-0xce8(%rbp)
   1226e:	48 8d 85 c0 f0 ff ff 	lea    -0xf40(%rbp),%rax
   12275:	48 83 c0 40          	add    $0x40,%rax
   12279:	48 89 85 20 f3 ff ff 	mov    %rax,-0xce0(%rbp)
   12280:	48 8d 85 c0 f0 ff ff 	lea    -0xf40(%rbp),%rax
   12287:	48 83 c0 40          	add    $0x40,%rax
   1228b:	48 89 85 28 f3 ff ff 	mov    %rax,-0xcd8(%rbp)
   12292:	48 c7 85 30 f3 ff ff 	movq   $0x0,-0xcd0(%rbp)
   12299:	00 00 00 00 
   1229d:	48 8d 85 c0 f0 ff ff 	lea    -0xf40(%rbp),%rax
   122a4:	48 83 c0 40          	add    $0x40,%rax
   122a8:	48 89 85 38 f3 ff ff 	mov    %rax,-0xcc8(%rbp)
   122af:	48 8d 85 c0 f0 ff ff 	lea    -0xf40(%rbp),%rax
   122b6:	48 83 c0 40          	add    $0x40,%rax
   122ba:	48 89 85 40 f3 ff ff 	mov    %rax,-0xcc0(%rbp)
   122c1:	48 8d 85 c0 f0 ff ff 	lea    -0xf40(%rbp),%rax
   122c8:	48 83 c0 40          	add    $0x40,%rax
   122cc:	48 89 85 48 f3 ff ff 	mov    %rax,-0xcb8(%rbp)
   122d3:	48 8d 85 c0 f0 ff ff 	lea    -0xf40(%rbp),%rax
   122da:	48 83 c0 40          	add    $0x40,%rax
   122de:	48 89 85 50 f3 ff ff 	mov    %rax,-0xcb0(%rbp)
   122e5:	48 8d 85 c0 f0 ff ff 	lea    -0xf40(%rbp),%rax
   122ec:	48 83 c0 48          	add    $0x48,%rax
   122f0:	48 89 85 58 f3 ff ff 	mov    %rax,-0xca8(%rbp)
   122f7:	48 8d 85 c0 f0 ff ff 	lea    -0xf40(%rbp),%rax
   122fe:	48 83 c0 40          	add    $0x40,%rax
   12302:	48 89 85 60 f3 ff ff 	mov    %rax,-0xca0(%rbp)
   12309:	48 8d 85 c0 f0 ff ff 	lea    -0xf40(%rbp),%rax
   12310:	48 83 c0 30          	add    $0x30,%rax
   12314:	48 89 85 68 f3 ff ff 	mov    %rax,-0xc98(%rbp)
   1231b:	48 c7 85 70 f3 ff ff 	movq   $0x0,-0xc90(%rbp)
   12322:	00 00 00 00 
   12326:	48 8d 85 c0 f0 ff ff 	lea    -0xf40(%rbp),%rax
   1232d:	48 89 85 78 f3 ff ff 	mov    %rax,-0xc88(%rbp)
   12334:	48 c7 85 80 f3 ff ff 	movq   $0x0,-0xc80(%rbp)
   1233b:	00 00 00 00 
   1233f:	48 8d 85 c0 f0 ff ff 	lea    -0xf40(%rbp),%rax
   12346:	48 89 85 88 f3 ff ff 	mov    %rax,-0xc78(%rbp)
   1234d:	48 8d 85 c0 f0 ff ff 	lea    -0xf40(%rbp),%rax
   12354:	48 83 c0 40          	add    $0x40,%rax
   12358:	48 89 85 90 f3 ff ff 	mov    %rax,-0xc70(%rbp)
   1235f:	48 8d 85 c0 f0 ff ff 	lea    -0xf40(%rbp),%rax
   12366:	48 05 50 01 00 00    	add    $0x150,%rax
   1236c:	48 89 85 98 f3 ff ff 	mov    %rax,-0xc68(%rbp)
   12373:	48 8d 85 c0 f0 ff ff 	lea    -0xf40(%rbp),%rax
   1237a:	48 83 c0 40          	add    $0x40,%rax
   1237e:	48 89 85 a0 f3 ff ff 	mov    %rax,-0xc60(%rbp)
   12385:	48 8d 85 c0 f0 ff ff 	lea    -0xf40(%rbp),%rax
   1238c:	48 05 50 01 00 00    	add    $0x150,%rax
   12392:	48 89 85 a8 f3 ff ff 	mov    %rax,-0xc58(%rbp)
   12399:	48 8d 85 c0 f0 ff ff 	lea    -0xf40(%rbp),%rax
   123a0:	48 83 c0 40          	add    $0x40,%rax
   123a4:	48 89 85 b0 f3 ff ff 	mov    %rax,-0xc50(%rbp)
   123ab:	48 8b 85 c0 ef ff ff 	mov    -0x1040(%rbp),%rax
   123b2:	48 8d 15 d7 19 01 00 	lea    0x119d7(%rip),%rdx        # 23d90 <g_165>
   123b9:	48 89 10             	mov    %rdx,(%rax)
   123bc:	8b 05 8a bc 00 00    	mov    0xbc8a(%rip),%eax        # 1e04c <g_24>
   123c2:	48 8b 05 cf 19 01 00 	mov    0x119cf(%rip),%rax        # 23d98 <g_195>
   123c9:	0f b7 00             	movzwl (%rax),%eax
   123cc:	98                   	cwtl   
   123cd:	be 0e 00 00 00       	mov    $0xe,%esi
   123d2:	89 c7                	mov    %eax,%edi
   123d4:	e8 08 71 ff ff       	callq  94e1 <safe_lshift_func_int16_t_s_u>
   123d9:	48 8b 05 b8 19 01 00 	mov    0x119b8(%rip),%rax        # 23d98 <g_195>
   123e0:	0f b7 00             	movzwl (%rax),%eax
   123e3:	66 85 c0             	test   %ax,%ax
   123e6:	0f 84 b8 00 00 00    	je     124a4 <func_18+0xc80>
   123ec:	0f b6 05 18 be 00 00 	movzbl 0xbe18(%rip),%eax        # 1e20b <g_324+0x3>
   123f3:	c0 e8 03             	shr    $0x3,%al
   123f6:	83 e0 0f             	and    $0xf,%eax
   123f9:	0f b6 d8             	movzbl %al,%ebx
   123fc:	0f b7 85 0c ef ff ff 	movzwl -0x10f4(%rbp),%eax
   12403:	0f be d0             	movsbl %al,%edx
   12406:	48 8b 85 b0 ef ff ff 	mov    -0x1050(%rbp),%rax
   1240d:	0f be c0             	movsbl %al,%eax
   12410:	89 d6                	mov    %edx,%esi
   12412:	89 c7                	mov    %eax,%edi
   12414:	e8 18 6e ff ff       	callq  9231 <safe_mod_func_int8_t_s_s>
   12419:	0f b7 05 e8 cc 00 00 	movzwl 0xcce8(%rip),%eax        # 1f108 <g_606>
   12420:	66 3d e6 4b          	cmp    $0x4be6,%ax
   12424:	74 0f                	je     12435 <func_18+0xc11>
   12426:	48 8b 05 6b 19 01 00 	mov    0x1196b(%rip),%rax        # 23d98 <g_195>
   1242d:	0f b7 00             	movzwl (%rax),%eax
   12430:	66 85 c0             	test   %ax,%ax
   12433:	74 07                	je     1243c <func_18+0xc18>
   12435:	b8 01 00 00 00       	mov    $0x1,%eax
   1243a:	eb 05                	jmp    12441 <func_18+0xc1d>
   1243c:	b8 00 00 00 00       	mov    $0x0,%eax
   12441:	89 c2                	mov    %eax,%edx
   12443:	0f b7 85 0c ef ff ff 	movzwl -0x10f4(%rbp),%eax
   1244a:	09 d0                	or     %edx,%eax
   1244c:	0f be c0             	movsbl %al,%eax
   1244f:	89 de                	mov    %ebx,%esi
   12451:	89 c7                	mov    %eax,%edi
   12453:	e8 9a 6d ff ff       	callq  91f2 <safe_sub_func_int8_t_s_s>
   12458:	84 c0                	test   %al,%al
   1245a:	74 07                	je     12463 <func_18+0xc3f>
   1245c:	b8 01 00 00 00       	mov    $0x1,%eax
   12461:	eb 05                	jmp    12468 <func_18+0xc44>
   12463:	b8 00 00 00 00       	mov    $0x0,%eax
   12468:	98                   	cwtl   
   12469:	be 56 3e 00 00       	mov    $0x3e56,%esi
   1246e:	89 c7                	mov    %eax,%edi
   12470:	e8 80 6f ff ff       	callq  93f5 <safe_mul_func_int16_t_s_s>
   12475:	98                   	cwtl   
   12476:	be fa ff ff ff       	mov    $0xfffffffa,%esi
   1247b:	89 c7                	mov    %eax,%edi
   1247d:	e8 34 71 ff ff       	callq  95b6 <safe_add_func_int32_t_s_s>
   12482:	48 be 44 4d 05 8b ae 	movabs $0xc4f06ae8b054d44,%rsi
   12489:	06 4f 0c 
   1248c:	48 c7 c7 ff ff ff ff 	mov    $0xffffffffffffffff,%rdi
   12493:	e8 a9 73 ff ff       	callq  9841 <safe_add_func_int64_t_s_s>
   12498:	48 85 c0             	test   %rax,%rax
   1249b:	74 07                	je     124a4 <func_18+0xc80>
   1249d:	b8 01 00 00 00       	mov    $0x1,%eax
   124a2:	eb 05                	jmp    124a9 <func_18+0xc85>
   124a4:	b8 00 00 00 00       	mov    $0x0,%eax
   124a9:	48 63 d0             	movslq %eax,%rdx
   124ac:	48 8b 05 35 cc 00 00 	mov    0xcc35(%rip),%rax        # 1f0e8 <g_516>
   124b3:	48 39 c2             	cmp    %rax,%rdx
   124b6:	0f 97 c0             	seta   %al
   124b9:	0f b6 d0             	movzbl %al,%edx
   124bc:	0f b7 85 0c ef ff ff 	movzwl -0x10f4(%rbp),%eax
   124c3:	89 c1                	mov    %eax,%ecx
   124c5:	48 8b 85 c8 ef ff ff 	mov    -0x1038(%rbp),%rax
   124cc:	88 08                	mov    %cl,(%rax)
   124ce:	48 8b 85 c8 ef ff ff 	mov    -0x1038(%rbp),%rax
   124d5:	0f b6 00             	movzbl (%rax),%eax
   124d8:	0f b6 c0             	movzbl %al,%eax
   124db:	89 d6                	mov    %edx,%esi
   124dd:	89 c7                	mov    %eax,%edi
   124df:	e8 94 76 ff ff       	callq  9b78 <safe_sub_func_uint8_t_u_u>
   124e4:	83 f0 08             	xor    $0x8,%eax
   124e7:	0f b6 d0             	movzbl %al,%edx
   124ea:	48 8b 05 cf 18 01 00 	mov    0x118cf(%rip),%rax        # 23dc0 <g_608>
   124f1:	8b 00                	mov    (%rax),%eax
   124f3:	39 c2                	cmp    %eax,%edx
   124f5:	0f 93 c0             	setae  %al
   124f8:	0f b6 c0             	movzbl %al,%eax
   124fb:	66 89 05 f2 cb 00 00 	mov    %ax,0xcbf2(%rip)        # 1f0f4 <g_542>
   12502:	0f b7 05 eb cb 00 00 	movzwl 0xcbeb(%rip),%eax        # 1f0f4 <g_542>
   12509:	0f b7 c0             	movzwl %ax,%eax
   1250c:	be 01 00 00 00       	mov    $0x1,%esi
   12511:	89 c7                	mov    %eax,%edi
   12513:	e8 25 78 ff ff       	callq  9d3d <safe_mul_func_uint16_t_u_u>
   12518:	66 85 c0             	test   %ax,%ax
   1251b:	75 0c                	jne    12529 <func_18+0xd05>
   1251d:	0f b7 05 ee cb 00 00 	movzwl 0xcbee(%rip),%eax        # 1f112 <g_734+0x2>
   12524:	66 85 c0             	test   %ax,%ax
   12527:	74 07                	je     12530 <func_18+0xd0c>
   12529:	b8 01 00 00 00       	mov    $0x1,%eax
   1252e:	eb 05                	jmp    12535 <func_18+0xd11>
   12530:	b8 00 00 00 00       	mov    $0x0,%eax
   12535:	89 c6                	mov    %eax,%esi
   12537:	bf 00 00 00 00       	mov    $0x0,%edi
   1253c:	e8 7d 78 ff ff       	callq  9dbe <safe_lshift_func_uint16_t_u_s>
   12541:	66 85 c0             	test   %ax,%ax
   12544:	75 0a                	jne    12550 <func_18+0xd2c>
   12546:	48 83 bd b0 ef ff ff 	cmpq   $0x0,-0x1050(%rbp)
   1254d:	00 
   1254e:	74 07                	je     12557 <func_18+0xd33>
   12550:	b8 01 00 00 00       	mov    $0x1,%eax
   12555:	eb 05                	jmp    1255c <func_18+0xd38>
   12557:	b8 00 00 00 00       	mov    $0x0,%eax
   1255c:	48 98                	cltq   
   1255e:	48 8b 95 b0 ef ff ff 	mov    -0x1050(%rbp),%rdx
   12565:	48 89 d6             	mov    %rdx,%rsi
   12568:	48 89 c7             	mov    %rax,%rdi
   1256b:	e8 10 7b ff ff       	callq  a080 <safe_mod_func_uint64_t_u_u>
   12570:	48 85 c0             	test   %rax,%rax
   12573:	0f 95 c0             	setne  %al
   12576:	0f b6 c0             	movzbl %al,%eax
   12579:	be fe ff ff ff       	mov    $0xfffffffe,%esi
   1257e:	89 c7                	mov    %eax,%edi
   12580:	e8 7a 71 ff ff       	callq  96ff <safe_div_func_int32_t_s_s>
   12585:	0f b7 85 0c ef ff ff 	movzwl -0x10f4(%rbp),%eax
   1258c:	98                   	cwtl   
   1258d:	09 85 3c ef ff ff    	or     %eax,-0x10c4(%rbp)
   12593:	48 8b 05 0e 10 01 00 	mov    0x1100e(%rip),%rax        # 235a8 <g_152>
   1259a:	48 8b 00             	mov    (%rax),%rax
   1259d:	8b 00                	mov    (%rax),%eax
   1259f:	85 c0                	test   %eax,%eax
   125a1:	75 44                	jne    125e7 <func_18+0xdc3>
   125a3:	48 8b 85 00 f1 ff ff 	mov    -0xf00(%rbp),%rax
   125aa:	48 89 85 00 f1 ff ff 	mov    %rax,-0xf00(%rbp)
   125b1:	48 8b 85 00 f1 ff ff 	mov    -0xf00(%rbp),%rax
   125b8:	48 39 85 d0 ef ff ff 	cmp    %rax,-0x1030(%rbp)
   125bf:	0f 94 c0             	sete   %al
   125c2:	0f b6 c0             	movzbl %al,%eax
   125c5:	89 85 3c ef ff ff    	mov    %eax,-0x10c4(%rbp)
   125cb:	48 8b 85 90 ef ff ff 	mov    -0x1070(%rbp),%rax
   125d2:	48 8b 10             	mov    (%rax),%rdx
   125d5:	48 8b 85 90 ef ff ff 	mov    -0x1070(%rbp),%rax
   125dc:	48 8b 00             	mov    (%rax),%rax
   125df:	48 8b 12             	mov    (%rdx),%rdx
   125e2:	48 89 10             	mov    %rdx,(%rax)
   125e5:	eb 01                	jmp    125e8 <func_18+0xdc4>
   125e7:	90                   	nop
   125e8:	8b 05 2a bc 00 00    	mov    0xbc2a(%rip),%eax        # 1e218 <g_396>
   125ee:	83 c0 01             	add    $0x1,%eax
   125f1:	89 05 21 bc 00 00    	mov    %eax,0xbc21(%rip)        # 1e218 <g_396>
   125f7:	8b 05 1b bc 00 00    	mov    0xbc1b(%rip),%eax        # 1e218 <g_396>
   125fd:	83 f8 21             	cmp    $0x21,%eax
   12600:	0f 84 ed f9 ff ff    	je     11ff3 <func_18+0x7cf>
   12606:	c6 05 83 bb 00 00 03 	movb   $0x3,0xbb83(%rip)        # 1e190 <g_148>
   1260d:	e9 20 02 00 00       	jmpq   12832 <func_18+0x100e>
   12612:	48 8d 05 2f bb 00 00 	lea    0xbb2f(%rip),%rax        # 1e148 <g_90>
   12619:	48 89 85 20 f0 ff ff 	mov    %rax,-0xfe0(%rbp)
   12620:	48 8d 05 e3 ca 00 00 	lea    0xcae3(%rip),%rax        # 1f10a <g_701>
   12627:	48 89 85 28 f0 ff ff 	mov    %rax,-0xfd8(%rbp)
   1262e:	48 c7 85 30 f0 ff ff 	movq   $0x0,-0xfd0(%rbp)
   12635:	00 00 00 00 
   12639:	c7 85 40 ef ff ff ca 	movl   $0xc5b03bca,-0x10c0(%rbp)
   12640:	3b b0 c5 
   12643:	48 8d 85 30 f2 ff ff 	lea    -0xdd0(%rbp),%rax
   1264a:	48 8d 15 6f 01 01 00 	lea    0x1016f(%rip),%rdx        # 227c0 <g_1852+0x1618>
   12651:	b9 38 00 00 00       	mov    $0x38,%ecx
   12656:	48 89 c7             	mov    %rax,%rdi
   12659:	48 89 d6             	mov    %rdx,%rsi
   1265c:	f3 48 a5             	rep movsq %ds:(%rsi),%es:(%rdi)
   1265f:	48 8b 05 72 22 01 00 	mov    0x12272(%rip),%rax        # 248d8 <g_308>
   12666:	89 c2                	mov    %eax,%edx
   12668:	8b 85 40 ef ff ff    	mov    -0x10c0(%rbp),%eax
   1266e:	09 d0                	or     %edx,%eax
   12670:	89 c7                	mov    %eax,%edi
   12672:	e8 1f 6f ff ff       	callq  9596 <safe_unary_minus_func_int32_t_s>
   12677:	0f b6 d0             	movzbl %al,%edx
   1267a:	0f bf 85 0c ef ff ff 	movswl -0x10f4(%rbp),%eax
   12681:	89 05 bd ca 00 00    	mov    %eax,0xcabd(%rip)        # 1f144 <g_748+0x24>
   12687:	8b 05 b7 ca 00 00    	mov    0xcab7(%rip),%eax        # 1f144 <g_748+0x24>
   1268d:	0f b6 c0             	movzbl %al,%eax
   12690:	89 d6                	mov    %edx,%esi
   12692:	89 c7                	mov    %eax,%edi
   12694:	e8 fa 74 ff ff       	callq  9b93 <safe_mul_func_uint8_t_u_u>
   12699:	0f b6 d0             	movzbl %al,%edx
   1269c:	48 8b 85 20 f0 ff ff 	mov    -0xfe0(%rbp),%rax
   126a3:	0f b6 00             	movzbl (%rax),%eax
   126a6:	89 c1                	mov    %eax,%ecx
   126a8:	0f b7 85 0c ef ff ff 	movzwl -0x10f4(%rbp),%eax
   126af:	09 c8                	or     %ecx,%eax
   126b1:	89 c1                	mov    %eax,%ecx
   126b3:	48 8b 85 20 f0 ff ff 	mov    -0xfe0(%rbp),%rax
   126ba:	88 08                	mov    %cl,(%rax)
   126bc:	48 8b 85 20 f0 ff ff 	mov    -0xfe0(%rbp),%rax
   126c3:	0f b6 08             	movzbl (%rax),%ecx
   126c6:	48 8b 85 28 f0 ff ff 	mov    -0xfd8(%rbp),%rax
   126cd:	88 08                	mov    %cl,(%rax)
   126cf:	48 8b 85 28 f0 ff ff 	mov    -0xfd8(%rbp),%rax
   126d6:	0f b6 00             	movzbl (%rax),%eax
   126d9:	0f b6 c0             	movzbl %al,%eax
   126dc:	89 d6                	mov    %edx,%esi
   126de:	89 c7                	mov    %eax,%edi
   126e0:	e8 75 74 ff ff       	callq  9b5a <safe_add_func_uint8_t_u_u>
   126e5:	0f b6 c0             	movzbl %al,%eax
   126e8:	89 85 40 ef ff ff    	mov    %eax,-0x10c0(%rbp)
   126ee:	48 c7 05 df 21 01 00 	movq   $0x0,0x121df(%rip)        # 248d8 <g_308>
   126f5:	00 00 00 00 
   126f9:	e9 11 01 00 00       	jmpq   1280f <func_18+0xfeb>
   126fe:	c7 85 68 ef ff ff ae 	movl   $0x59ed69ae,-0x1098(%rbp)
   12705:	69 ed 59 
   12708:	66 83 bd 0c ef ff ff 	cmpw   $0x0,-0x10f4(%rbp)
   1270f:	00 
   12710:	0f 85 0b 01 00 00    	jne    12821 <func_18+0xffd>
   12716:	c7 85 40 ef ff ff 00 	movl   $0x0,-0x10c0(%rbp)
   1271d:	00 00 00 
   12720:	e9 cb 00 00 00       	jmpq   127f0 <func_18+0xfcc>
   12725:	48 c7 85 38 f0 ff ff 	movq   $0x0,-0xfc8(%rbp)
   1272c:	00 00 00 00 
   12730:	c6 85 23 ef ff ff 00 	movb   $0x0,-0x10dd(%rbp)
   12737:	c7 85 6c ef ff ff fe 	movl   $0xfffffffe,-0x1094(%rbp)
   1273e:	ff ff ff 
   12741:	c7 85 44 ef ff ff 00 	movl   $0x0,-0x10bc(%rbp)
   12748:	00 00 00 
   1274b:	eb 1e                	jmp    1276b <func_18+0xf47>
   1274d:	8b 85 44 ef ff ff    	mov    -0x10bc(%rbp),%eax
   12753:	48 98                	cltq   
   12755:	48 8d 15 4c 16 01 00 	lea    0x1164c(%rip),%rdx        # 23da8 <g_323>
   1275c:	48 89 94 c5 90 f0 ff 	mov    %rdx,-0xf70(%rbp,%rax,8)
   12763:	ff 
   12764:	83 85 44 ef ff ff 01 	addl   $0x1,-0x10bc(%rbp)
   1276b:	83 bd 44 ef ff ff 01 	cmpl   $0x1,-0x10bc(%rbp)
   12772:	7e d9                	jle    1274d <func_18+0xf29>
   12774:	48 c7 85 08 f3 ff ff 	movq   $0x0,-0xcf8(%rbp)
   1277b:	00 00 00 00 
   1277f:	48 8b 85 08 f3 ff ff 	mov    -0xcf8(%rbp),%rax
   12786:	48 89 05 1b 16 01 00 	mov    %rax,0x1161b(%rip)        # 23da8 <g_323>
   1278d:	48 8b 05 7b ba 00 00 	mov    0xba7b(%rip),%rax        # 1e20f <g_324+0x7>
   12794:	48 85 c0             	test   %rax,%rax
   12797:	74 24                	je     127bd <func_18+0xf99>
   12799:	48 8b 05 f8 15 01 00 	mov    0x115f8(%rip),%rax        # 23d98 <g_195>
   127a0:	66 c7 00 00 00       	movw   $0x0,(%rax)
   127a5:	83 bd 68 ef ff ff 00 	cmpl   $0x0,-0x1098(%rbp)
   127ac:	75 0e                	jne    127bc <func_18+0xf98>
   127ae:	48 8b 05 13 16 01 00 	mov    0x11613(%rip),%rax        # 23dc8 <g_607>
   127b5:	48 8b 00             	mov    (%rax),%rax
   127b8:	8b 00                	mov    (%rax),%eax
   127ba:	85 c0                	test   %eax,%eax
   127bc:	90                   	nop
   127bd:	48 8b 05 e4 0d 01 00 	mov    0x10de4(%rip),%rax        # 235a8 <g_152>
   127c4:	48 8b 00             	mov    (%rax),%rax
   127c7:	c7 00 f7 ff ff ff    	movl   $0xfffffff7,(%rax)
   127cd:	0f bf 85 0c ef ff ff 	movswl -0x10f4(%rbp),%eax
   127d4:	09 85 6c ef ff ff    	or     %eax,-0x1094(%rbp)
   127da:	48 8b 05 bf 0d 01 00 	mov    0x10dbf(%rip),%rax        # 235a0 <g_153>
   127e1:	8b 95 6c ef ff ff    	mov    -0x1094(%rbp),%edx
   127e7:	89 10                	mov    %edx,(%rax)
   127e9:	83 ad 40 ef ff ff 01 	subl   $0x1,-0x10c0(%rbp)
   127f0:	83 bd 40 ef ff ff 00 	cmpl   $0x0,-0x10c0(%rbp)
   127f7:	0f 89 28 ff ff ff    	jns    12725 <func_18+0xf01>
   127fd:	48 8b 05 d4 20 01 00 	mov    0x120d4(%rip),%rax        # 248d8 <g_308>
   12804:	48 83 c0 01          	add    $0x1,%rax
   12808:	48 89 05 c9 20 01 00 	mov    %rax,0x120c9(%rip)        # 248d8 <g_308>
   1280f:	48 8b 05 c2 20 01 00 	mov    0x120c2(%rip),%rax        # 248d8 <g_308>
   12816:	48 85 c0             	test   %rax,%rax
   12819:	0f 84 df fe ff ff    	je     126fe <func_18+0xeda>
   1281f:	eb 01                	jmp    12822 <func_18+0xffe>
   12821:	90                   	nop
   12822:	0f b6 05 67 b9 00 00 	movzbl 0xb967(%rip),%eax        # 1e190 <g_148>
   12829:	83 e8 01             	sub    $0x1,%eax
   1282c:	88 05 5e b9 00 00    	mov    %al,0xb95e(%rip)        # 1e190 <g_148>
   12832:	0f b6 05 57 b9 00 00 	movzbl 0xb957(%rip),%eax        # 1e190 <g_148>
   12839:	84 c0                	test   %al,%al
   1283b:	0f 89 d1 fd ff ff    	jns    12612 <func_18+0xdee>
   12841:	0f b7 85 0c ef ff ff 	movzwl -0x10f4(%rbp),%eax
   12848:	0f be d8             	movsbl %al,%ebx
   1284b:	44 0f bf a5 0c ef ff 	movswl -0x10f4(%rbp),%r12d
   12852:	ff 
   12853:	48 8b 95 78 ef ff ff 	mov    -0x1088(%rbp),%rdx
   1285a:	0f b7 02             	movzwl (%rdx),%eax
   1285d:	8d 48 ff             	lea    -0x1(%rax),%ecx
   12860:	66 89 0a             	mov    %cx,(%rdx)
   12863:	66 85 c0             	test   %ax,%ax
   12866:	0f 85 6b 01 00 00    	jne    129d7 <func_18+0x11b3>
   1286c:	8b 85 50 ef ff ff    	mov    -0x10b0(%rbp),%eax
   12872:	44 0f b7 e8          	movzwl %ax,%r13d
   12876:	0f b6 05 cb b7 00 00 	movzbl 0xb7cb(%rip),%eax        # 1e048 <g_22>
   1287d:	44 0f be f0          	movsbl %al,%r14d
   12881:	48 8b 85 78 ef ff ff 	mov    -0x1088(%rbp),%rax
   12888:	0f b7 10             	movzwl (%rax),%edx
   1288b:	83 c2 01             	add    $0x1,%edx
   1288e:	66 89 10             	mov    %dx,(%rax)
   12891:	48 8b 05 28 15 01 00 	mov    0x11528(%rip),%rax        # 23dc0 <g_608>
   12898:	0f bf 95 0c ef ff ff 	movswl -0x10f4(%rbp),%edx
   1289f:	89 10                	mov    %edx,(%rax)
   128a1:	8b 00                	mov    (%rax),%eax
   128a3:	85 c0                	test   %eax,%eax
   128a5:	74 45                	je     128ec <func_18+0x10c8>
   128a7:	0f b7 85 0c ef ff ff 	movzwl -0x10f4(%rbp),%eax
   128ae:	0f be d0             	movsbl %al,%edx
   128b1:	0f b6 05 af bd 00 00 	movzbl 0xbdaf(%rip),%eax        # 1e667 <g_462+0x447>
   128b8:	8b 0d aa bd 00 00    	mov    0xbdaa(%rip),%ecx        # 1e668 <g_462+0x448>
   128be:	81 e1 ff ff 07 00    	and    $0x7ffff,%ecx
   128c4:	48 c1 e1 08          	shl    $0x8,%rcx
   128c8:	48 09 c8             	or     %rcx,%rax
   128cb:	48 c1 e0 25          	shl    $0x25,%rax
   128cf:	48 c1 f8 25          	sar    $0x25,%rax
   128d3:	f7 d0                	not    %eax
   128d5:	0f be c0             	movsbl %al,%eax
   128d8:	89 d6                	mov    %edx,%esi
   128da:	89 c7                	mov    %eax,%edi
   128dc:	e8 89 69 ff ff       	callq  926a <safe_div_func_int8_t_s_s>
   128e1:	84 c0                	test   %al,%al
   128e3:	74 07                	je     128ec <func_18+0x10c8>
   128e5:	ba 01 00 00 00       	mov    $0x1,%edx
   128ea:	eb 05                	jmp    128f1 <func_18+0x10cd>
   128ec:	ba 00 00 00 00       	mov    $0x0,%edx
   128f1:	0f bf 85 0c ef ff ff 	movswl -0x10f4(%rbp),%eax
   128f8:	09 d0                	or     %edx,%eax
   128fa:	3d 92 00 00 00       	cmp    $0x92,%eax
   128ff:	0f 94 c0             	sete   %al
   12902:	0f b6 d0             	movzbl %al,%edx
   12905:	0f bf 85 0c ef ff ff 	movswl -0x10f4(%rbp),%eax
   1290c:	39 c2                	cmp    %eax,%edx
   1290e:	0f 9e c0             	setle  %al
   12911:	0f b6 c0             	movzbl %al,%eax
   12914:	48 89 c6             	mov    %rax,%rsi
   12917:	48 bf a5 8b e5 9f ca 	movabs $0x43f7a0ca9fe58ba5,%rdi
   1291e:	a0 f7 43 
   12921:	e8 08 77 ff ff       	callq  a02e <safe_add_func_uint64_t_u_u>
   12926:	48 8b 05 6b 14 01 00 	mov    0x1146b(%rip),%rax        # 23d98 <g_195>
   1292d:	0f b7 95 0c ef ff ff 	movzwl -0x10f4(%rbp),%edx
   12934:	66 89 10             	mov    %dx,(%rax)
   12937:	0f b7 00             	movzwl (%rax),%eax
   1293a:	98                   	cwtl   
   1293b:	44 89 f6             	mov    %r14d,%esi
   1293e:	89 c7                	mov    %eax,%edi
   12940:	e8 10 6b ff ff       	callq  9455 <safe_div_func_int16_t_s_s>
   12945:	98                   	cwtl   
   12946:	c1 e0 05             	shl    $0x5,%eax
   12949:	c1 f8 05             	sar    $0x5,%eax
   1294c:	8b 15 a6 c7 00 00    	mov    0xc7a6(%rip),%edx        # 1f0f8 <g_578>
   12952:	c1 e2 05             	shl    $0x5,%edx
   12955:	c1 fa 05             	sar    $0x5,%edx
   12958:	39 d0                	cmp    %edx,%eax
   1295a:	0f 95 c0             	setne  %al
   1295d:	0f b6 c0             	movzbl %al,%eax
   12960:	44 89 ee             	mov    %r13d,%esi
   12963:	89 c7                	mov    %eax,%edi
   12965:	e8 24 74 ff ff       	callq  9d8e <safe_div_func_uint16_t_u_u>
   1296a:	89 c2                	mov    %eax,%edx
   1296c:	48 8b 05 e5 b6 00 00 	mov    0xb6e5(%rip),%rax        # 1e058 <g_36>
   12973:	c1 e0 05             	shl    $0x5,%eax
   12976:	c1 f8 05             	sar    $0x5,%eax
   12979:	09 d0                	or     %edx,%eax
   1297b:	88 05 c7 b7 00 00    	mov    %al,0xb7c7(%rip)        # 1e148 <g_90>
   12981:	ba 01 00 00 00       	mov    $0x1,%edx
   12986:	48 8b 05 fb b7 00 00 	mov    0xb7fb(%rip),%rax        # 1e188 <g_147>
   1298d:	48 09 d0             	or     %rdx,%rax
   12990:	48 89 05 f1 b7 00 00 	mov    %rax,0xb7f1(%rip)        # 1e188 <g_147>
   12997:	4c 8b 2d ea b7 00 00 	mov    0xb7ea(%rip),%r13        # 1e188 <g_147>
   1299e:	48 8b 85 a0 ef ff ff 	mov    -0x1060(%rbp),%rax
   129a5:	48 8b 00             	mov    (%rax),%rax
   129a8:	48 8d 48 ff          	lea    -0x1(%rax),%rcx
   129ac:	48 8b 95 a0 ef ff ff 	mov    -0x1060(%rbp),%rdx
   129b3:	48 89 0a             	mov    %rcx,(%rdx)
   129b6:	8b 95 4c ef ff ff    	mov    -0x10b4(%rbp),%edx
   129bc:	48 89 c6             	mov    %rax,%rsi
   129bf:	48 89 d7             	mov    %rdx,%rdi
   129c2:	e8 67 76 ff ff       	callq  a02e <safe_add_func_uint64_t_u_u>
   129c7:	4c 89 ee             	mov    %r13,%rsi
   129ca:	48 89 c7             	mov    %rax,%rdi
   129cd:	e8 25 70 ff ff       	callq  99f7 <safe_div_func_int64_t_s_s>
   129d2:	48 85 c0             	test   %rax,%rax
   129d5:	74 07                	je     129de <func_18+0x11ba>
   129d7:	b8 01 00 00 00       	mov    $0x1,%eax
   129dc:	eb 05                	jmp    129e3 <func_18+0x11bf>
   129de:	b8 00 00 00 00       	mov    $0x0,%eax
   129e3:	44 89 e6             	mov    %r12d,%esi
   129e6:	89 c7                	mov    %eax,%edi
   129e8:	e8 18 6c ff ff       	callq  9605 <safe_sub_func_int32_t_s_s>
   129ed:	0f b7 85 0c ef ff ff 	movzwl -0x10f4(%rbp),%eax
   129f4:	0f be c0             	movsbl %al,%eax
   129f7:	89 de                	mov    %ebx,%esi
   129f9:	89 c7                	mov    %eax,%edi
   129fb:	e8 31 68 ff ff       	callq  9231 <safe_mod_func_int8_t_s_s>
   12a00:	0f be c0             	movsbl %al,%eax
   12a03:	be 03 00 00 00       	mov    $0x3,%esi
   12a08:	89 c7                	mov    %eax,%edi
   12a0a:	e8 26 69 ff ff       	callq  9335 <safe_rshift_func_int8_t_s_s>
   12a0f:	0f be d0             	movsbl %al,%edx
   12a12:	0f b6 85 1e ef ff ff 	movzbl -0x10e2(%rbp),%eax
   12a19:	39 c2                	cmp    %eax,%edx
   12a1b:	0f 9e c0             	setle  %al
   12a1e:	88 85 1f ef ff ff    	mov    %al,-0x10e1(%rbp)
   12a24:	80 bd 1f ef ff ff 00 	cmpb   $0x0,-0x10e1(%rbp)
   12a2b:	0f 84 cb 01 00 00    	je     12bfc <func_18+0x13d8>
   12a31:	c7 85 64 ef ff ff 00 	movl   $0x0,-0x109c(%rbp)
   12a38:	00 00 00 
   12a3b:	48 8d 85 30 f6 ff ff 	lea    -0x9d0(%rbp),%rax
   12a42:	48 83 c0 38          	add    $0x38,%rax
   12a46:	48 89 85 18 f0 ff ff 	mov    %rax,-0xfe8(%rbp)
   12a4d:	48 8d 85 30 f6 ff ff 	lea    -0x9d0(%rbp),%rax
   12a54:	48 05 18 01 00 00    	add    $0x118,%rax
   12a5a:	48 89 85 30 f2 ff ff 	mov    %rax,-0xdd0(%rbp)
   12a61:	48 8d 85 30 f6 ff ff 	lea    -0x9d0(%rbp),%rax
   12a68:	48 05 28 01 00 00    	add    $0x128,%rax
   12a6e:	48 89 85 38 f2 ff ff 	mov    %rax,-0xdc8(%rbp)
   12a75:	48 8d 85 30 f6 ff ff 	lea    -0x9d0(%rbp),%rax
   12a7c:	48 05 f0 00 00 00    	add    $0xf0,%rax
   12a82:	48 89 85 40 f2 ff ff 	mov    %rax,-0xdc0(%rbp)
   12a89:	48 8d 85 30 f6 ff ff 	lea    -0x9d0(%rbp),%rax
   12a90:	48 05 f0 00 00 00    	add    $0xf0,%rax
   12a96:	48 89 85 48 f2 ff ff 	mov    %rax,-0xdb8(%rbp)
   12a9d:	48 8d 85 30 f6 ff ff 	lea    -0x9d0(%rbp),%rax
   12aa4:	48 05 28 01 00 00    	add    $0x128,%rax
   12aaa:	48 89 85 50 f2 ff ff 	mov    %rax,-0xdb0(%rbp)
   12ab1:	48 8d 85 30 f6 ff ff 	lea    -0x9d0(%rbp),%rax
   12ab8:	48 05 18 01 00 00    	add    $0x118,%rax
   12abe:	48 89 85 58 f2 ff ff 	mov    %rax,-0xda8(%rbp)
   12ac5:	48 8d 85 30 f6 ff ff 	lea    -0x9d0(%rbp),%rax
   12acc:	48 05 28 01 00 00    	add    $0x128,%rax
   12ad2:	48 89 85 60 f2 ff ff 	mov    %rax,-0xda0(%rbp)
   12ad9:	48 8d 85 30 f6 ff ff 	lea    -0x9d0(%rbp),%rax
   12ae0:	48 05 f0 00 00 00    	add    $0xf0,%rax
   12ae6:	48 89 85 68 f2 ff ff 	mov    %rax,-0xd98(%rbp)
   12aed:	48 8d 85 30 f6 ff ff 	lea    -0x9d0(%rbp),%rax
   12af4:	48 05 f0 00 00 00    	add    $0xf0,%rax
   12afa:	48 89 85 70 f2 ff ff 	mov    %rax,-0xd90(%rbp)
   12b01:	48 8d 85 30 f6 ff ff 	lea    -0x9d0(%rbp),%rax
   12b08:	48 05 28 01 00 00    	add    $0x128,%rax
   12b0e:	48 89 85 78 f2 ff ff 	mov    %rax,-0xd88(%rbp)
   12b15:	83 85 64 ef ff ff 01 	addl   $0x1,-0x109c(%rbp)
   12b1c:	0f b7 85 0c ef ff ff 	movzwl -0x10f4(%rbp),%eax
   12b23:	0f be d8             	movsbl %al,%ebx
   12b26:	0f b7 85 0c ef ff ff 	movzwl -0x10f4(%rbp),%eax
   12b2d:	44 0f be e0          	movsbl %al,%r12d
   12b31:	be 01 00 00 00       	mov    $0x1,%esi
   12b36:	bf 01 00 00 00       	mov    $0x1,%edi
   12b3b:	e8 ae 67 ff ff       	callq  92ee <safe_lshift_func_int8_t_s_u>
   12b40:	0f be c0             	movsbl %al,%eax
   12b43:	44 89 e6             	mov    %r12d,%esi
   12b46:	89 c7                	mov    %eax,%edi
   12b48:	e8 e4 66 ff ff       	callq  9231 <safe_mod_func_int8_t_s_s>
   12b4d:	66 98                	cbtw   
   12b4f:	0f b7 c0             	movzwl %ax,%eax
   12b52:	89 c7                	mov    %eax,%edi
   12b54:	e8 90 71 ff ff       	callq  9ce9 <safe_unary_minus_func_uint16_t_u>
   12b59:	48 8b 85 50 f2 ff ff 	mov    -0xdb0(%rbp),%rax
   12b60:	48 39 85 18 f0 ff ff 	cmp    %rax,-0xfe8(%rbp)
   12b67:	74 07                	je     12b70 <func_18+0x134c>
   12b69:	b8 01 00 00 00       	mov    $0x1,%eax
   12b6e:	eb 05                	jmp    12b75 <func_18+0x1351>
   12b70:	b8 00 00 00 00       	mov    $0x0,%eax
   12b75:	48 98                	cltq   
   12b77:	48 89 05 d2 b5 00 00 	mov    %rax,0xb5d2(%rip)        # 1e150 <g_105>
   12b7e:	48 8b 05 cb b5 00 00 	mov    0xb5cb(%rip),%rax        # 1e150 <g_105>
   12b85:	48 89 05 fc b5 00 00 	mov    %rax,0xb5fc(%rip)        # 1e188 <g_147>
   12b8c:	48 8b 15 2d 12 01 00 	mov    0x1122d(%rip),%rdx        # 23dc0 <g_608>
   12b93:	48 8b 05 26 12 01 00 	mov    0x11226(%rip),%rax        # 23dc0 <g_608>
   12b9a:	8b 12                	mov    (%rdx),%edx
   12b9c:	89 10                	mov    %edx,(%rax)
   12b9e:	8b 10                	mov    (%rax),%edx
   12ba0:	48 83 bd a8 ef ff ff 	cmpq   $0x0,-0x1058(%rbp)
   12ba7:	00 
   12ba8:	0f 94 c1             	sete   %cl
   12bab:	48 8b 05 fe 11 01 00 	mov    0x111fe(%rip),%rax        # 23db0 <g_565>
   12bb2:	8b 00                	mov    (%rax),%eax
   12bb4:	f7 d0                	not    %eax
   12bb6:	c1 e8 1f             	shr    $0x1f,%eax
   12bb9:	31 c8                	xor    %ecx,%eax
   12bbb:	0f b6 c0             	movzbl %al,%eax
   12bbe:	21 d0                	and    %edx,%eax
   12bc0:	0c f9                	or     $0xf9,%al
   12bc2:	89 c2                	mov    %eax,%edx
   12bc4:	48 0f bf 85 0c ef ff 	movswq -0x10f4(%rbp),%rax
   12bcb:	ff 
   12bcc:	48 39 c2             	cmp    %rax,%rdx
   12bcf:	7d 07                	jge    12bd8 <func_18+0x13b4>
   12bd1:	b8 09 00 00 00       	mov    $0x9,%eax
   12bd6:	eb 05                	jmp    12bdd <func_18+0x13b9>
   12bd8:	b8 08 00 00 00       	mov    $0x8,%eax
   12bdd:	89 de                	mov    %ebx,%esi
   12bdf:	89 c7                	mov    %eax,%edi
   12be1:	e8 2c 66 ff ff       	callq  9212 <safe_mul_func_int8_t_s_s>
   12be6:	89 c2                	mov    %eax,%edx
   12be8:	48 8b 05 b9 09 01 00 	mov    0x109b9(%rip),%rax        # 235a8 <g_152>
   12bef:	48 8b 00             	mov    (%rax),%rax
   12bf2:	0f be d2             	movsbl %dl,%edx
   12bf5:	89 10                	mov    %edx,(%rax)
   12bf7:	e9 0d 03 00 00       	jmpq   12f09 <func_18+0x16e5>
   12bfc:	48 8d 05 41 b4 00 00 	lea    0xb441(%rip),%rax        # 1e044 <g_21>
   12c03:	48 89 85 e8 ef ff ff 	mov    %rax,-0x1018(%rbp)
   12c0a:	48 8d 05 af 11 01 00 	lea    0x111af(%rip),%rax        # 23dc0 <g_608>
   12c11:	48 89 85 80 ef ff ff 	mov    %rax,-0x1080(%rbp)
   12c18:	48 8d 85 80 ef ff ff 	lea    -0x1080(%rbp),%rax
   12c1f:	48 89 85 88 ef ff ff 	mov    %rax,-0x1078(%rbp)
   12c26:	48 8d 85 88 ef ff ff 	lea    -0x1078(%rbp),%rax
   12c2d:	48 89 85 f0 ef ff ff 	mov    %rax,-0x1010(%rbp)
   12c34:	48 c7 85 90 ef ff ff 	movq   $0x0,-0x1070(%rbp)
   12c3b:	00 00 00 00 
   12c3f:	48 8d 85 90 ef ff ff 	lea    -0x1070(%rbp),%rax
   12c46:	48 89 85 f8 ef ff ff 	mov    %rax,-0x1008(%rbp)
   12c4d:	48 8d 85 30 f2 ff ff 	lea    -0xdd0(%rbp),%rax
   12c54:	48 8d 15 25 fd 00 00 	lea    0xfd25(%rip),%rdx        # 22980 <g_1852+0x17d8>
   12c5b:	b9 38 00 00 00       	mov    $0x38,%ecx
   12c60:	48 89 c7             	mov    %rax,%rdi
   12c63:	48 89 d6             	mov    %rdx,%rsi
   12c66:	f3 48 a5             	rep movsq %ds:(%rsi),%es:(%rdi)
   12c69:	48 8d 85 30 f2 ff ff 	lea    -0xdd0(%rbp),%rax
   12c70:	48 83 c0 30          	add    $0x30,%rax
   12c74:	48 89 85 00 f0 ff ff 	mov    %rax,-0x1000(%rbp)
   12c7b:	c7 85 54 ef ff ff 4e 	movl   $0x693f894e,-0x10ac(%rbp)
   12c82:	89 3f 69 
   12c85:	c7 85 58 ef ff ff 01 	movl   $0x1,-0x10a8(%rbp)
   12c8c:	00 00 00 
   12c8f:	c7 85 5c ef ff ff b0 	movl   $0x23bb6cb0,-0x10a4(%rbp)
   12c96:	6c bb 23 
   12c99:	c7 85 60 ef ff ff 12 	movl   $0x806aae12,-0x10a0(%rbp)
   12ca0:	ae 6a 80 
   12ca3:	c6 85 22 ef ff ff fd 	movb   $0xfd,-0x10de(%rbp)
   12caa:	c7 85 48 ef ff ff 00 	movl   $0x0,-0x10b8(%rbp)
   12cb1:	00 00 00 
   12cb4:	eb 1a                	jmp    12cd0 <func_18+0x14ac>
   12cb6:	8b 85 48 ef ff ff    	mov    -0x10b8(%rbp),%eax
   12cbc:	48 98                	cltq   
   12cbe:	c7 84 85 44 f0 ff ff 	movl   $0x71f320a0,-0xfbc(%rbp,%rax,4)
   12cc5:	a0 20 f3 71 
   12cc9:	83 85 48 ef ff ff 01 	addl   $0x1,-0x10b8(%rbp)
   12cd0:	83 bd 48 ef ff ff 02 	cmpl   $0x2,-0x10b8(%rbp)
   12cd7:	7e dd                	jle    12cb6 <func_18+0x1492>
   12cd9:	48 c7 05 04 c4 00 00 	movq   $0x0,0xc404(%rip)        # 1f0e8 <g_516>
   12ce0:	00 00 00 00 
   12ce4:	90                   	nop
   12ce5:	48 8b 05 fc c3 00 00 	mov    0xc3fc(%rip),%rax        # 1f0e8 <g_516>
   12cec:	48 83 f8 27          	cmp    $0x27,%rax
   12cf0:	0f 87 cf 01 00 00    	ja     12ec5 <func_18+0x16a1>
   12cf6:	48 8d 85 78 ef ff ff 	lea    -0x1088(%rbp),%rax
   12cfd:	48 89 85 08 f0 ff ff 	mov    %rax,-0xff8(%rbp)
   12d04:	48 8d 05 c1 1b 01 00 	lea    0x11bc1(%rip),%rax        # 248cc <g_184>
   12d0b:	48 89 85 98 ef ff ff 	mov    %rax,-0x1068(%rbp)
   12d12:	48 8d 85 98 ef ff ff 	lea    -0x1068(%rbp),%rax
   12d19:	48 89 85 10 f0 ff ff 	mov    %rax,-0xff0(%rbp)
   12d20:	c7 85 70 f0 ff ff fe 	movl   $0xfffffffe,-0xf90(%rbp)
   12d27:	ff ff ff 
   12d2a:	c7 85 74 f0 ff ff ff 	movl   $0xffffffff,-0xf8c(%rbp)
   12d31:	ff ff ff 
   12d34:	c7 85 78 f0 ff ff fe 	movl   $0xfffffffe,-0xf88(%rbp)
   12d3b:	ff ff ff 
   12d3e:	c7 85 7c f0 ff ff ff 	movl   $0xffffffff,-0xf84(%rbp)
   12d45:	ff ff ff 
   12d48:	c7 85 80 f0 ff ff fe 	movl   $0xfffffffe,-0xf80(%rbp)
   12d4f:	ff ff ff 
   12d52:	c7 85 84 f0 ff ff ff 	movl   $0xffffffff,-0xf7c(%rbp)
   12d59:	ff ff ff 
   12d5c:	c7 85 88 f0 ff ff fe 	movl   $0xfffffffe,-0xf78(%rbp)
   12d63:	ff ff ff 
   12d66:	c7 85 8c f0 ff ff ff 	movl   $0xffffffff,-0xf74(%rbp)
   12d6d:	ff ff ff 
   12d70:	48 8b 85 08 f0 ff ff 	mov    -0xff8(%rbp),%rax
   12d77:	48 8d 15 76 c3 00 00 	lea    0xc376(%rip),%rdx        # 1f0f4 <g_542>
   12d7e:	48 89 10             	mov    %rdx,(%rax)
   12d81:	48 8b 85 08 f0 ff ff 	mov    -0xff8(%rbp),%rax
   12d88:	48 8b 08             	mov    (%rax),%rcx
   12d8b:	48 8b 95 98 ef ff ff 	mov    -0x1068(%rbp),%rdx
   12d92:	48 8b 85 10 f0 ff ff 	mov    -0xff0(%rbp),%rax
   12d99:	48 89 10             	mov    %rdx,(%rax)
   12d9c:	48 8b 85 10 f0 ff ff 	mov    -0xff0(%rbp),%rax
   12da3:	48 8b 00             	mov    (%rax),%rax
   12da6:	48 39 c1             	cmp    %rax,%rcx
   12da9:	0f 95 c0             	setne  %al
   12dac:	0f b6 d0             	movzbl %al,%edx
   12daf:	8b 85 80 f0 ff ff    	mov    -0xf80(%rbp),%eax
   12db5:	21 d0                	and    %edx,%eax
   12db7:	89 85 80 f0 ff ff    	mov    %eax,-0xf80(%rbp)
   12dbd:	8b 95 80 f0 ff ff    	mov    -0xf80(%rbp),%edx
   12dc3:	48 8b 05 de 07 01 00 	mov    0x107de(%rip),%rax        # 235a8 <g_152>
   12dca:	48 8b 00             	mov    (%rax),%rax
   12dcd:	8b 08                	mov    (%rax),%ecx
   12dcf:	09 ca                	or     %ecx,%edx
   12dd1:	89 10                	mov    %edx,(%rax)
   12dd3:	c7 85 34 ef ff ff 00 	movl   $0x0,-0x10cc(%rbp)
   12dda:	00 00 00 
   12ddd:	83 bd 34 ef ff ff 15 	cmpl   $0x15,-0x10cc(%rbp)
   12de4:	0f 86 81 00 00 00    	jbe    12e6b <func_18+0x1647>
   12dea:	c7 85 90 f0 ff ff 00 	movl   $0x0,-0xf70(%rbp)
   12df1:	00 00 00 
   12df4:	c7 85 94 f0 ff ff ff 	movl   $0xffffffff,-0xf6c(%rbp)
   12dfb:	ff ff ff 
   12dfe:	c7 85 98 f0 ff ff 00 	movl   $0x0,-0xf68(%rbp)
   12e05:	00 00 00 
   12e08:	c7 85 9c f0 ff ff ff 	movl   $0xffffffff,-0xf64(%rbp)
   12e0f:	ff ff ff 
   12e12:	c7 85 a0 f0 ff ff 00 	movl   $0x0,-0xf60(%rbp)
   12e19:	00 00 00 
   12e1c:	c7 85 a4 f0 ff ff ff 	movl   $0xffffffff,-0xf5c(%rbp)
   12e23:	ff ff ff 
   12e26:	c7 85 a8 f0 ff ff 00 	movl   $0x0,-0xf58(%rbp)
   12e2d:	00 00 00 
   12e30:	c7 85 ac f0 ff ff ff 	movl   $0xffffffff,-0xf54(%rbp)
   12e37:	ff ff ff 
   12e3a:	c7 85 b0 f0 ff ff 00 	movl   $0x0,-0xf50(%rbp)
   12e41:	00 00 00 
   12e44:	c7 85 b4 f0 ff ff ff 	movl   $0xffffffff,-0xf4c(%rbp)
   12e4b:	ff ff ff 
   12e4e:	48 8b 15 4b 07 01 00 	mov    0x1074b(%rip),%rdx        # 235a0 <g_153>
   12e55:	48 8b 05 44 07 01 00 	mov    0x10744(%rip),%rax        # 235a0 <g_153>
   12e5c:	8b 12                	mov    (%rdx),%edx
   12e5e:	89 10                	mov    %edx,(%rax)
   12e60:	8b 85 90 f0 ff ff    	mov    -0xf70(%rbp),%eax
   12e66:	e9 a5 00 00 00       	jmpq   12f10 <func_18+0x16ec>
   12e6b:	c7 85 34 ef ff ff 00 	movl   $0x0,-0x10cc(%rbp)
   12e72:	00 00 00 
   12e75:	eb 39                	jmp    12eb0 <func_18+0x168c>
   12e77:	48 8b 05 3a 0f 01 00 	mov    0x10f3a(%rip),%rax        # 23db8 <g_564>
   12e7e:	48 8b 95 e8 ef ff ff 	mov    -0x1018(%rbp),%rdx
   12e85:	48 89 10             	mov    %rdx,(%rax)
   12e88:	8b 85 80 f0 ff ff    	mov    -0xf80(%rbp),%eax
   12e8e:	85 c0                	test   %eax,%eax
   12e90:	75 29                	jne    12ebb <func_18+0x1697>
   12e92:	8b 85 34 ef ff ff    	mov    -0x10cc(%rbp),%eax
   12e98:	0f be c0             	movsbl %al,%eax
   12e9b:	be 06 00 00 00       	mov    $0x6,%esi
   12ea0:	89 c7                	mov    %eax,%edi
   12ea2:	e8 2d 63 ff ff       	callq  91d4 <safe_add_func_int8_t_s_s>
   12ea7:	0f be c0             	movsbl %al,%eax
   12eaa:	89 85 34 ef ff ff    	mov    %eax,-0x10cc(%rbp)
   12eb0:	83 bd 34 ef ff ff 2a 	cmpl   $0x2a,-0x10cc(%rbp)
   12eb7:	75 be                	jne    12e77 <func_18+0x1653>
   12eb9:	eb 01                	jmp    12ebc <func_18+0x1698>
   12ebb:	90                   	nop
   12ebc:	0f b7 85 0c ef ff ff 	movzwl -0x10f4(%rbp),%eax
   12ec3:	eb 4b                	jmp    12f10 <func_18+0x16ec>
   12ec5:	48 8b 85 f0 ef ff ff 	mov    -0x1010(%rbp),%rax
   12ecc:	48 c7 00 00 00 00 00 	movq   $0x0,(%rax)
   12ed3:	48 8b 85 f8 ef ff ff 	mov    -0x1008(%rbp),%rax
   12eda:	48 8d 15 b7 0e 01 00 	lea    0x10eb7(%rip),%rdx        # 23d98 <g_195>
   12ee1:	48 89 10             	mov    %rdx,(%rax)
   12ee4:	48 8b 85 f8 ef ff ff 	mov    -0x1008(%rbp),%rax
   12eeb:	48 8b 10             	mov    (%rax),%rdx
   12eee:	48 8b 85 00 f0 ff ff 	mov    -0x1000(%rbp),%rax
   12ef5:	48 89 10             	mov    %rdx,(%rax)
   12ef8:	0f b7 85 26 ef ff ff 	movzwl -0x10da(%rbp),%eax
   12eff:	83 c0 01             	add    $0x1,%eax
   12f02:	66 89 85 26 ef ff ff 	mov    %ax,-0x10da(%rbp)
   12f09:	48 8b 05 40 b2 00 00 	mov    0xb240(%rip),%rax        # 1e150 <g_105>
   12f10:	48 8b 5d c8          	mov    -0x38(%rbp),%rbx
   12f14:	64 48 33 1c 25 28 00 	xor    %fs:0x28,%rbx
   12f1b:	00 00 
   12f1d:	74 05                	je     12f24 <func_18+0x1700>
   12f1f:	e8 4c 61 ff ff       	callq  9070 <__stack_chk_fail@plt>
   12f24:	48 81 c4 f8 10 00 00 	add    $0x10f8,%rsp
   12f2b:	5b                   	pop    %rbx
   12f2c:	41 5c                	pop    %r12
   12f2e:	41 5d                	pop    %r13
   12f30:	41 5e                	pop    %r14
   12f32:	41 5f                	pop    %r15
   12f34:	5d                   	pop    %rbp
   12f35:	c3                   	retq   

0000000000012f36 <func_46>:
   12f36:	f3 0f 1e fa          	endbr64 
   12f3a:	55                   	push   %rbp
   12f3b:	48 89 e5             	mov    %rsp,%rbp
   12f3e:	48 89 7d f8          	mov    %rdi,-0x8(%rbp)
   12f42:	48 89 75 f0          	mov    %rsi,-0x10(%rbp)
   12f46:	89 55 ec             	mov    %edx,-0x14(%rbp)
   12f49:	89 4d e8             	mov    %ecx,-0x18(%rbp)
   12f4c:	4c 89 45 e0          	mov    %r8,-0x20(%rbp)
   12f50:	48 8b 05 61 0e 01 00 	mov    0x10e61(%rip),%rax        # 23db8 <g_564>
   12f57:	48 8b 55 f8          	mov    -0x8(%rbp),%rdx
   12f5b:	48 89 10             	mov    %rdx,(%rax)
   12f5e:	8b 45 ec             	mov    -0x14(%rbp),%eax
   12f61:	5d                   	pop    %rbp
   12f62:	c3                   	retq   

0000000000012f63 <func_52>:
   12f63:	f3 0f 1e fa          	endbr64 
   12f67:	55                   	push   %rbp
   12f68:	48 89 e5             	mov    %rsp,%rbp
   12f6b:	41 54                	push   %r12
   12f6d:	53                   	push   %rbx
   12f6e:	48 83 c4 80          	add    $0xffffffffffffff80,%rsp
   12f72:	89 bd 7c ff ff ff    	mov    %edi,-0x84(%rbp)
   12f78:	89 f0                	mov    %esi,%eax
   12f7a:	48 89 95 70 ff ff ff 	mov    %rdx,-0x90(%rbp)
   12f81:	66 89 85 78 ff ff ff 	mov    %ax,-0x88(%rbp)
   12f88:	64 48 8b 04 25 28 00 	mov    %fs:0x28,%rax
   12f8f:	00 00 
   12f91:	48 89 45 e8          	mov    %rax,-0x18(%rbp)
   12f95:	31 c0                	xor    %eax,%eax
   12f97:	48 8d 05 f2 0d 01 00 	lea    0x10df2(%rip),%rax        # 23d90 <g_165>
   12f9e:	48 89 45 88          	mov    %rax,-0x78(%rbp)
   12fa2:	48 8d 45 88          	lea    -0x78(%rbp),%rax
   12fa6:	48 89 45 90          	mov    %rax,-0x70(%rbp)
   12faa:	48 8d 45 90          	lea    -0x70(%rbp),%rax
   12fae:	48 89 45 98          	mov    %rax,-0x68(%rbp)
   12fb2:	48 8d 05 97 b1 00 00 	lea    0xb197(%rip),%rax        # 1e150 <g_105>
   12fb9:	48 89 45 a0          	mov    %rax,-0x60(%rbp)
   12fbd:	48 8d 05 80 b0 00 00 	lea    0xb080(%rip),%rax        # 1e044 <g_21>
   12fc4:	48 89 45 a8          	mov    %rax,-0x58(%rbp)
   12fc8:	48 8d 05 29 c1 00 00 	lea    0xc129(%rip),%rax        # 1f0f8 <g_578>
   12fcf:	48 89 45 b0          	mov    %rax,-0x50(%rbp)
   12fd3:	48 c7 45 b8 ff ff ff 	movq   $0xffffffffffffffff,-0x48(%rbp)
   12fda:	ff 
   12fdb:	c7 45 84 00 00 00 00 	movl   $0x0,-0x7c(%rbp)
   12fe2:	eb 15                	jmp    12ff9 <func_52+0x96>
   12fe4:	8b 45 84             	mov    -0x7c(%rbp),%eax
   12fe7:	48 98                	cltq   
   12fe9:	48 8d 15 e0 18 01 00 	lea    0x118e0(%rip),%rdx        # 248d0 <g_270>
   12ff0:	48 89 54 c5 c0       	mov    %rdx,-0x40(%rbp,%rax,8)
   12ff5:	83 45 84 01          	addl   $0x1,-0x7c(%rbp)
   12ff9:	83 7d 84 03          	cmpl   $0x3,-0x7c(%rbp)
   12ffd:	7e e5                	jle    12fe4 <func_52+0x81>
   12fff:	48 8b 55 90          	mov    -0x70(%rbp),%rdx
   13003:	48 8b 45 98          	mov    -0x68(%rbp),%rax
   13007:	48 89 10             	mov    %rdx,(%rax)
   1300a:	48 8b 45 98          	mov    -0x68(%rbp),%rax
   1300e:	48 8b 00             	mov    (%rax),%rax
   13011:	ba 00 00 00 00       	mov    $0x0,%edx
   13016:	48 39 d0             	cmp    %rdx,%rax
   13019:	0f 94 c0             	sete   %al
   1301c:	0f b6 d0             	movzbl %al,%edx
   1301f:	48 8b 05 a2 0d 01 00 	mov    0x10da2(%rip),%rax        # 23dc8 <g_607>
   13026:	48 8b 00             	mov    (%rax),%rax
   13029:	8b 00                	mov    (%rax),%eax
   1302b:	21 d0                	and    %edx,%eax
   1302d:	85 c0                	test   %eax,%eax
   1302f:	0f 84 9e 00 00 00    	je     130d3 <func_52+0x170>
   13035:	8b 85 7c ff ff ff    	mov    -0x84(%rbp),%eax
   1303b:	0f b7 d8             	movzwl %ax,%ebx
   1303e:	8b 85 7c ff ff ff    	mov    -0x84(%rbp),%eax
   13044:	44 0f b7 e0          	movzwl %ax,%r12d
   13048:	48 8b 45 d8          	mov    -0x28(%rbp),%rax
   1304c:	48 85 c0             	test   %rax,%rax
   1304f:	0f 94 c0             	sete   %al
   13052:	0f b6 d0             	movzbl %al,%edx
   13055:	0f b6 05 0e b6 00 00 	movzbl 0xb60e(%rip),%eax        # 1e66a <g_462+0x44a>
   1305c:	c0 e8 03             	shr    $0x3,%al
   1305f:	83 e0 0f             	and    $0xf,%eax
   13062:	0f b6 c8             	movzbl %al,%ecx
   13065:	48 83 7d a0 00       	cmpq   $0x0,-0x60(%rbp)
   1306a:	0f 95 c0             	setne  %al
   1306d:	0f b6 c0             	movzbl %al,%eax
   13070:	39 c1                	cmp    %eax,%ecx
   13072:	0f 9d c0             	setge  %al
   13075:	0f b6 c0             	movzbl %al,%eax
   13078:	89 d6                	mov    %edx,%esi
   1307a:	89 c7                	mov    %eax,%edi
   1307c:	e8 b4 62 ff ff       	callq  9335 <safe_rshift_func_int8_t_s_s>
   13081:	66 98                	cbtw   
   13083:	0f b7 c0             	movzwl %ax,%eax
   13086:	44 89 e6             	mov    %r12d,%esi
   13089:	89 c7                	mov    %eax,%edi
   1308b:	e8 fe 6c ff ff       	callq  9d8e <safe_div_func_uint16_t_u_u>
   13090:	0f b7 c0             	movzwl %ax,%eax
   13093:	39 85 7c ff ff ff    	cmp    %eax,-0x84(%rbp)
   13099:	0f 96 c0             	setbe  %al
   1309c:	0f b6 c0             	movzbl %al,%eax
   1309f:	89 de                	mov    %ebx,%esi
   130a1:	89 c7                	mov    %eax,%edi
   130a3:	e8 b4 6c ff ff       	callq  9d5c <safe_mod_func_uint16_t_u_u>
   130a8:	0f b7 c0             	movzwl %ax,%eax
   130ab:	be 00 00 00 00       	mov    $0x0,%esi
   130b0:	89 c7                	mov    %eax,%edi
   130b2:	e8 4f 6d ff ff       	callq  9e06 <safe_lshift_func_uint16_t_u_u>
   130b7:	be 07 00 00 00       	mov    $0x7,%esi
   130bc:	bf f6 ff ff ff       	mov    $0xfffffff6,%edi
   130c1:	e8 28 62 ff ff       	callq  92ee <safe_lshift_func_int8_t_s_u>
   130c6:	84 c0                	test   %al,%al
   130c8:	74 09                	je     130d3 <func_52+0x170>
   130ca:	66 83 bd 78 ff ff ff 	cmpw   $0x0,-0x88(%rbp)
   130d1:	00 
   130d2:	90                   	nop
   130d3:	8b 95 7c ff ff ff    	mov    -0x84(%rbp),%edx
   130d9:	48 8b 45 a8          	mov    -0x58(%rbp),%rax
   130dd:	89 10                	mov    %edx,(%rax)
   130df:	48 83 7d b8 00       	cmpq   $0x0,-0x48(%rbp)
   130e4:	74 07                	je     130ed <func_52+0x18a>
   130e6:	83 bd 7c ff ff ff 00 	cmpl   $0x0,-0x84(%rbp)
   130ed:	be 07 00 00 00       	mov    $0x7,%esi
   130f2:	bf 01 00 00 00       	mov    $0x1,%edi
   130f7:	e8 f2 61 ff ff       	callq  92ee <safe_lshift_func_int8_t_s_u>
   130fc:	48 8b 45 88          	mov    -0x78(%rbp),%rax
   13100:	48 8b 00             	mov    (%rax),%rax
   13103:	48 8b 95 70 ff ff ff 	mov    -0x90(%rbp),%rdx
   1310a:	48 89 10             	mov    %rdx,(%rax)
   1310d:	48 8b 45 a8          	mov    -0x58(%rbp),%rax
   13111:	48 8b 4d e8          	mov    -0x18(%rbp),%rcx
   13115:	64 48 33 0c 25 28 00 	xor    %fs:0x28,%rcx
   1311c:	00 00 
   1311e:	74 05                	je     13125 <func_52+0x1c2>
   13120:	e8 4b 5f ff ff       	callq  9070 <__stack_chk_fail@plt>
   13125:	48 83 ec 80          	sub    $0xffffffffffffff80,%rsp
   13129:	5b                   	pop    %rbx
   1312a:	41 5c                	pop    %r12
   1312c:	5d                   	pop    %rbp
   1312d:	c3                   	retq   

000000000001312e <func_56>:
   1312e:	f3 0f 1e fa          	endbr64 
   13132:	55                   	push   %rbp
   13133:	48 89 e5             	mov    %rsp,%rbp
   13136:	41 55                	push   %r13
   13138:	41 54                	push   %r12
   1313a:	53                   	push   %rbx
   1313b:	48 81 ec 28 07 00 00 	sub    $0x728,%rsp
   13142:	48 89 bd c8 f8 ff ff 	mov    %rdi,-0x738(%rbp)
   13149:	89 b5 c4 f8 ff ff    	mov    %esi,-0x73c(%rbp)
   1314f:	64 48 8b 04 25 28 00 	mov    %fs:0x28,%rax
   13156:	00 00 
   13158:	48 89 45 d8          	mov    %rax,-0x28(%rbp)
   1315c:	31 c0                	xor    %eax,%eax
   1315e:	c7 85 e8 f8 ff ff 00 	movl   $0x0,-0x718(%rbp)
   13165:	00 00 00 
   13168:	c7 85 ec f8 ff ff 01 	movl   $0xb9166101,-0x714(%rbp)
   1316f:	61 16 b9 
   13172:	48 b8 00 00 ff e4 ff 	movabs $0xff0000ffe4ff0000,%rax
   13179:	00 00 ff 
   1317c:	48 89 85 e0 f9 ff ff 	mov    %rax,-0x620(%rbp)
   13183:	66 c7 85 e8 f9 ff ff 	movw   $0xffe4,-0x618(%rbp)
   1318a:	e4 ff 
   1318c:	48 bb 00 00 01 02 ff 	movabs $0xff00ffff02010000,%rbx
   13193:	ff 00 ff 
   13196:	48 89 9d ea f9 ff ff 	mov    %rbx,-0x616(%rbp)
   1319d:	66 c7 85 f2 f9 ff ff 	movw   $0xff01,-0x60e(%rbp)
   131a4:	01 ff 
   131a6:	48 bf 00 00 ff 02 ff 	movabs $0xff0000ff02ff0000,%rdi
   131ad:	00 00 ff 
   131b0:	48 89 bd f4 f9 ff ff 	mov    %rdi,-0x60c(%rbp)
   131b7:	66 c7 85 fc f9 ff ff 	movw   $0xffe4,-0x604(%rbp)
   131be:	e4 ff 
   131c0:	48 89 85 fe f9 ff ff 	mov    %rax,-0x602(%rbp)
   131c7:	66 c7 85 06 fa ff ff 	movw   $0xffe4,-0x5fa(%rbp)
   131ce:	e4 ff 
   131d0:	48 89 9d 08 fa ff ff 	mov    %rbx,-0x5f8(%rbp)
   131d7:	66 c7 85 10 fa ff ff 	movw   $0xff01,-0x5f0(%rbp)
   131de:	01 ff 
   131e0:	48 89 bd 12 fa ff ff 	mov    %rdi,-0x5ee(%rbp)
   131e7:	66 c7 85 1a fa ff ff 	movw   $0xffe4,-0x5e6(%rbp)
   131ee:	e4 ff 
   131f0:	48 89 85 1c fa ff ff 	mov    %rax,-0x5e4(%rbp)
   131f7:	66 c7 85 24 fa ff ff 	movw   $0xffe4,-0x5dc(%rbp)
   131fe:	e4 ff 
   13200:	48 89 9d 26 fa ff ff 	mov    %rbx,-0x5da(%rbp)
   13207:	66 c7 85 2e fa ff ff 	movw   $0xff01,-0x5d2(%rbp)
   1320e:	01 ff 
   13210:	48 89 bd 30 fa ff ff 	mov    %rdi,-0x5d0(%rbp)
   13217:	66 c7 85 38 fa ff ff 	movw   $0xffe4,-0x5c8(%rbp)
   1321e:	e4 ff 
   13220:	48 89 85 3a fa ff ff 	mov    %rax,-0x5c6(%rbp)
   13227:	66 c7 85 42 fa ff ff 	movw   $0xffe4,-0x5be(%rbp)
   1322e:	e4 ff 
   13230:	48 89 9d 44 fa ff ff 	mov    %rbx,-0x5bc(%rbp)
   13237:	66 c7 85 4c fa ff ff 	movw   $0xff01,-0x5b4(%rbp)
   1323e:	01 ff 
   13240:	48 89 bd 4e fa ff ff 	mov    %rdi,-0x5b2(%rbp)
   13247:	66 c7 85 56 fa ff ff 	movw   $0xffe4,-0x5aa(%rbp)
   1324e:	e4 ff 
   13250:	48 89 85 58 fa ff ff 	mov    %rax,-0x5a8(%rbp)
   13257:	66 c7 85 60 fa ff ff 	movw   $0xffe4,-0x5a0(%rbp)
   1325e:	e4 ff 
   13260:	48 89 9d 62 fa ff ff 	mov    %rbx,-0x59e(%rbp)
   13267:	66 c7 85 6a fa ff ff 	movw   $0xff01,-0x596(%rbp)
   1326e:	01 ff 
   13270:	48 89 bd 6c fa ff ff 	mov    %rdi,-0x594(%rbp)
   13277:	66 c7 85 74 fa ff ff 	movw   $0xffe4,-0x58c(%rbp)
   1327e:	e4 ff 
   13280:	48 b8 00 00 ff e4 06 	movabs $0x6010106e4ff0000,%rax
   13287:	01 01 06 
   1328a:	48 89 85 76 fa ff ff 	mov    %rax,-0x58a(%rbp)
   13291:	66 c7 85 7e fa ff ff 	movw   $0x5219,-0x582(%rbp)
   13298:	19 52 
   1329a:	48 b8 ff ff 00 cb 06 	movabs $0x6ffff06cb00ffff,%rax
   132a1:	ff ff 06 
   132a4:	48 89 85 80 fa ff ff 	mov    %rax,-0x580(%rbp)
   132ab:	66 c7 85 88 fa ff ff 	movw   $0x6fd,-0x578(%rbp)
   132b2:	fd 06 
   132b4:	48 bb ff 01 52 cb 52 	movabs $0x52ff0152cb5201ff,%rbx
   132bb:	01 ff 52 
   132be:	48 89 9d 8a fa ff ff 	mov    %rbx,-0x576(%rbp)
   132c5:	66 c7 85 92 fa ff ff 	movw   $0x619,-0x56e(%rbp)
   132cc:	19 06 
   132ce:	48 be 01 ff 52 19 06 	movabs $0x60101061952ff01,%rsi
   132d5:	01 01 06 
   132d8:	48 89 b5 94 fa ff ff 	mov    %rsi,-0x56c(%rbp)
   132df:	66 c7 85 9c fa ff ff 	movw   $0x5219,-0x564(%rbp)
   132e6:	19 52 
   132e8:	48 89 85 9e fa ff ff 	mov    %rax,-0x562(%rbp)
   132ef:	66 c7 85 a6 fa ff ff 	movw   $0x6fd,-0x55a(%rbp)
   132f6:	fd 06 
   132f8:	48 89 9d a8 fa ff ff 	mov    %rbx,-0x558(%rbp)
   132ff:	66 c7 85 b0 fa ff ff 	movw   $0x619,-0x550(%rbp)
   13306:	19 06 
   13308:	48 89 b5 b2 fa ff ff 	mov    %rsi,-0x54e(%rbp)
   1330f:	66 c7 85 ba fa ff ff 	movw   $0x5219,-0x546(%rbp)
   13316:	19 52 
   13318:	48 89 85 bc fa ff ff 	mov    %rax,-0x544(%rbp)
   1331f:	66 c7 85 c4 fa ff ff 	movw   $0x6fd,-0x53c(%rbp)
   13326:	fd 06 
   13328:	48 89 9d c6 fa ff ff 	mov    %rbx,-0x53a(%rbp)
   1332f:	66 c7 85 ce fa ff ff 	movw   $0x619,-0x532(%rbp)
   13336:	19 06 
   13338:	48 b8 a3 77 df 67 24 	movabs $0xafdbf2467df77a3,%rax
   1333f:	bf fd 0a 
   13342:	48 89 85 20 f9 ff ff 	mov    %rax,-0x6e0(%rbp)
   13349:	48 c7 85 08 f9 ff ff 	movq   $0x3,-0x6f8(%rbp)
   13350:	03 00 00 00 
   13354:	66 c7 85 e0 f8 ff ff 	movw   $0x7,-0x720(%rbp)
   1335b:	07 00 
   1335d:	c7 85 80 f9 ff ff 02 	movl   $0x2,-0x680(%rbp)
   13364:	00 00 00 
   13367:	c7 85 84 f9 ff ff 02 	movl   $0x2,-0x67c(%rbp)
   1336e:	00 00 00 
   13371:	c7 85 88 f9 ff ff 02 	movl   $0x2,-0x678(%rbp)
   13378:	00 00 00 
   1337b:	c7 85 8c f9 ff ff 02 	movl   $0x2,-0x674(%rbp)
   13382:	00 00 00 
   13385:	c7 85 f0 f8 ff ff ff 	movl   $0xffffffff,-0x710(%rbp)
   1338c:	ff ff ff 
   1338f:	c7 85 e4 f8 ff ff 00 	movl   $0x0,-0x71c(%rbp)
   13396:	00 00 00 
   13399:	eb 1e                	jmp    133b9 <func_56+0x28b>
   1339b:	8b 85 e4 f8 ff ff    	mov    -0x71c(%rbp),%eax
   133a1:	48 98                	cltq   
   133a3:	48 8d 15 9a ac 00 00 	lea    0xac9a(%rip),%rdx        # 1e044 <g_21>
   133aa:	48 89 94 c5 90 f9 ff 	mov    %rdx,-0x670(%rbp,%rax,8)
   133b1:	ff 
   133b2:	83 85 e4 f8 ff ff 01 	addl   $0x1,-0x71c(%rbp)
   133b9:	83 bd e4 f8 ff ff 02 	cmpl   $0x2,-0x71c(%rbp)
   133c0:	7e d9                	jle    1339b <func_56+0x26d>
   133c2:	48 83 ad 20 f9 ff ff 	subq   $0x1,-0x6e0(%rbp)
   133c9:	01 
   133ca:	0f b7 85 e0 f8 ff ff 	movzwl -0x720(%rbp),%eax
   133d1:	83 c0 01             	add    $0x1,%eax
   133d4:	66 89 85 e0 f8 ff ff 	mov    %ax,-0x720(%rbp)
   133db:	48 c7 05 7a ad 00 00 	movq   $0x0,0xad7a(%rip)        # 1e160 <g_110>
   133e2:	00 00 00 00 
   133e6:	e9 d6 09 00 00       	jmpq   13dc1 <func_56+0xc93>
   133eb:	48 c7 85 28 f9 ff ff 	movq   $0x0,-0x6d8(%rbp)
   133f2:	00 00 00 00 
   133f6:	48 8d 05 b3 09 01 00 	lea    0x109b3(%rip),%rax        # 23db0 <g_565>
   133fd:	48 89 85 30 f9 ff ff 	mov    %rax,-0x6d0(%rbp)
   13404:	48 8d 05 5d ac 00 00 	lea    0xac5d(%rip),%rax        # 1e068 <g_37>
   1340b:	48 89 85 38 f9 ff ff 	mov    %rax,-0x6c8(%rbp)
   13412:	c7 85 f4 f8 ff ff 87 	movl   $0x2a0ddc87,-0x70c(%rbp)
   13419:	dc 0d 2a 
   1341c:	c7 85 f8 f8 ff ff ff 	movl   $0xffffffff,-0x708(%rbp)
   13423:	ff ff ff 
   13426:	48 8b 05 73 01 01 00 	mov    0x10173(%rip),%rax        # 235a0 <g_153>
   1342d:	8b 00                	mov    (%rax),%eax
   1342f:	85 c0                	test   %eax,%eax
   13431:	0f 85 9d 09 00 00    	jne    13dd4 <func_56+0xca6>
   13437:	48 8b 05 ca ad 00 00 	mov    0xadca(%rip),%rax        # 1e208 <g_324>
   1343e:	48 c1 e8 1f          	shr    $0x1f,%rax
   13442:	25 ff ff 3f 00       	and    $0x3fffff,%eax
   13447:	89 c3                	mov    %eax,%ebx
   13449:	48 8b 85 38 f9 ff ff 	mov    -0x6c8(%rbp),%rax
   13450:	8b 00                	mov    (%rax),%eax
   13452:	8d 50 ff             	lea    -0x1(%rax),%edx
   13455:	48 8b 85 38 f9 ff ff 	mov    -0x6c8(%rbp),%rax
   1345c:	89 10                	mov    %edx,(%rax)
   1345e:	48 8b 05 4b 09 01 00 	mov    0x1094b(%rip),%rax        # 23db0 <g_565>
   13465:	8b 00                	mov    (%rax),%eax
   13467:	41 89 c4             	mov    %eax,%r12d
   1346a:	be 77 ac ff ff       	mov    $0xffffac77,%esi
   1346f:	bf 00 00 00 00       	mov    $0x0,%edi
   13474:	e8 7c 5f ff ff       	callq  93f5 <safe_mul_func_int16_t_s_s>
   13479:	98                   	cwtl   
   1347a:	44 89 e6             	mov    %r12d,%esi
   1347d:	89 c7                	mov    %eax,%edi
   1347f:	e8 34 6a ff ff       	callq  9eb8 <safe_add_func_uint32_t_u_u>
   13484:	48 8b 15 0d 09 01 00 	mov    0x1090d(%rip),%rdx        # 23d98 <g_195>
   1348b:	48 8b 05 06 09 01 00 	mov    0x10906(%rip),%rax        # 23d98 <g_195>
   13492:	0f b7 12             	movzwl (%rdx),%edx
   13495:	66 89 10             	mov    %dx,(%rax)
   13498:	0f b7 00             	movzwl (%rax),%eax
   1349b:	89 c2                	mov    %eax,%edx
   1349d:	8b 85 f4 f8 ff ff    	mov    -0x70c(%rbp),%eax
   134a3:	21 d0                	and    %edx,%eax
   134a5:	0f be c0             	movsbl %al,%eax
   134a8:	89 de                	mov    %ebx,%esi
   134aa:	89 c7                	mov    %eax,%edi
   134ac:	e8 3d 5e ff ff       	callq  92ee <safe_lshift_func_int8_t_s_u>
   134b1:	0f be d8             	movsbl %al,%ebx
   134b4:	0f b7 05 df ac 00 00 	movzwl 0xacdf(%rip),%eax        # 1e19a <g_236>
   134bb:	0f b7 d0             	movzwl %ax,%edx
   134be:	48 8b 05 f3 08 01 00 	mov    0x108f3(%rip),%rax        # 23db8 <g_564>
   134c5:	48 89 85 30 f9 ff ff 	mov    %rax,-0x6d0(%rbp)
   134cc:	48 8d 85 c8 f8 ff ff 	lea    -0x738(%rbp),%rax
   134d3:	48 39 85 30 f9 ff ff 	cmp    %rax,-0x6d0(%rbp)
   134da:	0f 94 c0             	sete   %al
   134dd:	0f b6 c0             	movzbl %al,%eax
   134e0:	89 d6                	mov    %edx,%esi
   134e2:	89 c7                	mov    %eax,%edi
   134e4:	e8 54 68 ff ff       	callq  9d3d <safe_mul_func_uint16_t_u_u>
   134e9:	0f b7 d0             	movzwl %ax,%edx
   134ec:	8b 85 c4 f8 ff ff    	mov    -0x73c(%rbp),%eax
   134f2:	0f b7 c0             	movzwl %ax,%eax
   134f5:	89 d6                	mov    %edx,%esi
   134f7:	89 c7                	mov    %eax,%edi
   134f9:	e8 3f 68 ff ff       	callq  9d3d <safe_mul_func_uint16_t_u_u>
   134fe:	83 e0 0f             	and    $0xf,%eax
   13501:	83 e0 0f             	and    $0xf,%eax
   13504:	8d 14 c5 00 00 00 00 	lea    0x0(,%rax,8),%edx
   1350b:	0f b6 05 58 b1 00 00 	movzbl 0xb158(%rip),%eax        # 1e66a <g_462+0x44a>
   13512:	83 e0 87             	and    $0xffffff87,%eax
   13515:	09 d0                	or     %edx,%eax
   13517:	88 05 4d b1 00 00    	mov    %al,0xb14d(%rip)        # 1e66a <g_462+0x44a>
   1351d:	0f b6 05 46 b1 00 00 	movzbl 0xb146(%rip),%eax        # 1e66a <g_462+0x44a>
   13524:	c0 e8 03             	shr    $0x3,%al
   13527:	83 e0 0f             	and    $0xf,%eax
   1352a:	0f b6 c0             	movzbl %al,%eax
   1352d:	89 de                	mov    %ebx,%esi
   1352f:	89 c7                	mov    %eax,%edi
   13531:	e8 9a 69 ff ff       	callq  9ed0 <safe_sub_func_uint32_t_u_u>
   13536:	89 85 f4 f8 ff ff    	mov    %eax,-0x70c(%rbp)
   1353c:	c6 05 05 ac 00 00 00 	movb   $0x0,0xac05(%rip)        # 1e148 <g_90>
   13543:	e9 58 08 00 00       	jmpq   13da0 <func_56+0xc72>
   13548:	48 8d 05 a9 bb 00 00 	lea    0xbba9(%rip),%rax        # 1f0f8 <g_578>
   1354f:	48 89 85 40 f9 ff ff 	mov    %rax,-0x6c0(%rbp)
   13556:	c7 85 fc f8 ff ff 06 	movl   $0x6,-0x704(%rbp)
   1355d:	00 00 00 
   13560:	48 8d 05 59 08 01 00 	lea    0x10859(%rip),%rax        # 23dc0 <g_608>
   13567:	48 89 85 48 f9 ff ff 	mov    %rax,-0x6b8(%rbp)
   1356e:	c7 85 c4 f8 ff ff 02 	movl   $0x2,-0x73c(%rbp)
   13575:	00 00 00 
   13578:	e9 34 02 00 00       	jmpq   137b1 <func_56+0x683>
   1357d:	c7 85 00 f9 ff ff fe 	movl   $0xfffffffe,-0x700(%rbp)
   13584:	ff ff ff 
   13587:	c6 85 df f8 ff ff 01 	movb   $0x1,-0x721(%rbp)
   1358e:	48 c7 85 10 f9 ff ff 	movq   $0x0,-0x6f0(%rbp)
   13595:	00 00 00 00 
   13599:	48 c7 85 70 f9 ff ff 	movq   $0x0,-0x690(%rbp)
   135a0:	00 00 00 00 
   135a4:	48 c7 05 39 bb 00 00 	movq   $0x0,0xbb39(%rip)        # 1f0e8 <g_516>
   135ab:	00 00 00 00 
   135af:	e9 ee 00 00 00       	jmpq   136a2 <func_56+0x574>
   135b4:	48 8b 05 a5 ab 00 00 	mov    0xaba5(%rip),%rax        # 1e160 <g_110>
   135bb:	4c 8d 40 02          	lea    0x2(%rax),%r8
   135bf:	0f b6 05 82 ab 00 00 	movzbl 0xab82(%rip),%eax        # 1e148 <g_90>
   135c6:	0f b6 f0             	movzbl %al,%esi
   135c9:	48 8b 05 90 ab 00 00 	mov    0xab90(%rip),%rax        # 1e160 <g_110>
   135d0:	48 8d 78 01          	lea    0x1(%rax),%rdi
   135d4:	48 8b 05 85 ab 00 00 	mov    0xab85(%rip),%rax        # 1e160 <g_110>
   135db:	4c 8d 48 03          	lea    0x3(%rax),%r9
   135df:	8b 85 c4 f8 ff ff    	mov    -0x73c(%rbp),%eax
   135e5:	8d 50 01             	lea    0x1(%rax),%edx
   135e8:	0f b6 05 59 ab 00 00 	movzbl 0xab59(%rip),%eax        # 1e148 <g_90>
   135ef:	0f b6 c0             	movzbl %al,%eax
   135f2:	83 c0 02             	add    $0x2,%eax
   135f5:	48 98                	cltq   
   135f7:	48 63 d2             	movslq %edx,%rdx
   135fa:	48 89 c1             	mov    %rax,%rcx
   135fd:	48 c1 e1 04          	shl    $0x4,%rcx
   13601:	48 29 c1             	sub    %rax,%rcx
   13604:	48 89 d0             	mov    %rdx,%rax
   13607:	48 01 c0             	add    %rax,%rax
   1360a:	48 01 d0             	add    %rdx,%rax
   1360d:	48 c1 e0 02          	shl    $0x2,%rax
   13611:	48 01 d0             	add    %rdx,%rax
   13614:	48 c1 e0 03          	shl    $0x3,%rax
   13618:	48 01 d0             	add    %rdx,%rax
   1361b:	48 8d 14 01          	lea    (%rcx,%rax,1),%rdx
   1361f:	49 69 c1 a4 01 00 00 	imul   $0x1a4,%r9,%rax
   13626:	48 01 c2             	add    %rax,%rdx
   13629:	48 8d 05 f0 ab 00 00 	lea    0xabf0(%rip),%rax        # 1e220 <g_462>
   13630:	48 01 c2             	add    %rax,%rdx
   13633:	48 63 ce             	movslq %esi,%rcx
   13636:	48 89 fe             	mov    %rdi,%rsi
   13639:	48 89 f0             	mov    %rsi,%rax
   1363c:	48 c1 e0 04          	shl    $0x4,%rax
   13640:	48 89 c6             	mov    %rax,%rsi
   13643:	48 29 fe             	sub    %rdi,%rsi
   13646:	48 89 c8             	mov    %rcx,%rax
   13649:	48 01 c0             	add    %rax,%rax
   1364c:	48 01 c8             	add    %rcx,%rax
   1364f:	48 c1 e0 02          	shl    $0x2,%rax
   13653:	48 01 c8             	add    %rcx,%rax
   13656:	48 c1 e0 03          	shl    $0x3,%rax
   1365a:	48 01 c8             	add    %rcx,%rax
   1365d:	48 8d 0c 06          	lea    (%rsi,%rax,1),%rcx
   13661:	49 69 c0 a4 01 00 00 	imul   $0x1a4,%r8,%rax
   13668:	48 01 c1             	add    %rax,%rcx
   1366b:	48 8d 05 ae ab 00 00 	lea    0xabae(%rip),%rax        # 1e220 <g_462>
   13672:	48 01 c8             	add    %rcx,%rax
   13675:	48 8b 08             	mov    (%rax),%rcx
   13678:	48 89 0a             	mov    %rcx,(%rdx)
   1367b:	8b 48 08             	mov    0x8(%rax),%ecx
   1367e:	89 4a 08             	mov    %ecx,0x8(%rdx)
   13681:	0f b7 48 0c          	movzwl 0xc(%rax),%ecx
   13685:	66 89 4a 0c          	mov    %cx,0xc(%rdx)
   13689:	0f b6 40 0e          	movzbl 0xe(%rax),%eax
   1368d:	88 42 0e             	mov    %al,0xe(%rdx)
   13690:	48 8b 05 51 ba 00 00 	mov    0xba51(%rip),%rax        # 1f0e8 <g_516>
   13697:	48 83 c0 01          	add    $0x1,%rax
   1369b:	48 89 05 46 ba 00 00 	mov    %rax,0xba46(%rip)        # 1f0e8 <g_516>
   136a2:	48 8b 05 3f ba 00 00 	mov    0xba3f(%rip),%rax        # 1f0e8 <g_516>
   136a9:	48 83 f8 03          	cmp    $0x3,%rax
   136ad:	0f 86 01 ff ff ff    	jbe    135b4 <func_56+0x486>
   136b3:	48 8b 05 ee 06 01 00 	mov    0x106ee(%rip),%rax        # 23da8 <g_323>
   136ba:	48 8b 10             	mov    (%rax),%rdx
   136bd:	48 89 15 34 ba 00 00 	mov    %rdx,0xba34(%rip)        # 1f0f8 <g_578>
   136c4:	8b 50 08             	mov    0x8(%rax),%edx
   136c7:	89 15 33 ba 00 00    	mov    %edx,0xba33(%rip)        # 1f100 <g_578+0x8>
   136cd:	0f b7 50 0c          	movzwl 0xc(%rax),%edx
   136d1:	66 89 15 2c ba 00 00 	mov    %dx,0xba2c(%rip)        # 1f104 <g_578+0xc>
   136d8:	0f b6 40 0e          	movzbl 0xe(%rax),%eax
   136dc:	88 05 24 ba 00 00    	mov    %al,0xba24(%rip)        # 1f106 <g_578+0xe>
   136e2:	66 c7 85 e0 f8 ff ff 	movw   $0x0,-0x720(%rbp)
   136e9:	00 00 
   136eb:	e9 ac 00 00 00       	jmpq   1379c <func_56+0x66e>
   136f0:	48 8d 05 70 af 00 00 	lea    0xaf70(%rip),%rax        # 1e667 <g_462+0x447>
   136f7:	48 89 85 18 f9 ff ff 	mov    %rax,-0x6e8(%rbp)
   136fe:	48 8d 85 18 f9 ff ff 	lea    -0x6e8(%rbp),%rax
   13705:	48 89 85 b0 f9 ff ff 	mov    %rax,-0x650(%rbp)
   1370c:	48 8d 85 18 f9 ff ff 	lea    -0x6e8(%rbp),%rax
   13713:	48 89 85 b8 f9 ff ff 	mov    %rax,-0x648(%rbp)
   1371a:	48 8d 85 18 f9 ff ff 	lea    -0x6e8(%rbp),%rax
   13721:	48 89 85 c0 f9 ff ff 	mov    %rax,-0x640(%rbp)
   13728:	48 8d 85 18 f9 ff ff 	lea    -0x6e8(%rbp),%rax
   1372f:	48 89 85 c8 f9 ff ff 	mov    %rax,-0x638(%rbp)
   13736:	48 8d 85 18 f9 ff ff 	lea    -0x6e8(%rbp),%rax
   1373d:	48 89 85 d0 f9 ff ff 	mov    %rax,-0x630(%rbp)
   13744:	48 8d 85 08 f9 ff ff 	lea    -0x6f8(%rbp),%rax
   1374b:	48 89 85 78 f9 ff ff 	mov    %rax,-0x688(%rbp)
   13752:	48 8d 85 10 fc ff ff 	lea    -0x3f0(%rbp),%rax
   13759:	48 8d 15 a0 66 00 00 	lea    0x66a0(%rip),%rdx        # 19e00 <g_1290+0xd98>
   13760:	b9 78 00 00 00       	mov    $0x78,%ecx
   13765:	48 89 c7             	mov    %rax,%rdi
   13768:	48 89 d6             	mov    %rdx,%rsi
   1376b:	f3 48 a5             	rep movsq %ds:(%rsi),%es:(%rdi)
   1376e:	c7 85 04 f9 ff ff 2d 	movl   $0xbefaf82d,-0x6fc(%rbp)
   13775:	f8 fa be 
   13778:	48 8d 85 d0 fa ff ff 	lea    -0x530(%rbp),%rax
   1377f:	48 8d 15 ba f3 00 00 	lea    0xf3ba(%rip),%rdx        # 22b40 <g_1852+0x1998>
   13786:	b9 28 00 00 00       	mov    $0x28,%ecx
   1378b:	48 89 c7             	mov    %rax,%rdi
   1378e:	48 89 d6             	mov    %rdx,%rsi
   13791:	f3 48 a5             	rep movsq %ds:(%rsi),%es:(%rdi)
   13794:	66 83 85 e0 f8 ff ff 	addw   $0x1,-0x720(%rbp)
   1379b:	01 
   1379c:	66 83 bd e0 f8 ff ff 	cmpw   $0x2,-0x720(%rbp)
   137a3:	02 
   137a4:	0f 86 46 ff ff ff    	jbe    136f0 <func_56+0x5c2>
   137aa:	83 ad c4 f8 ff ff 01 	subl   $0x1,-0x73c(%rbp)
   137b1:	83 bd c4 f8 ff ff 00 	cmpl   $0x0,-0x73c(%rbp)
   137b8:	0f 89 bf fd ff ff    	jns    1357d <func_56+0x44f>
   137be:	48 8b 15 e3 05 01 00 	mov    0x105e3(%rip),%rdx        # 23da8 <g_323>
   137c5:	48 8b 05 dc 05 01 00 	mov    0x105dc(%rip),%rax        # 23da8 <g_323>
   137cc:	48 8b 0a             	mov    (%rdx),%rcx
   137cf:	48 89 08             	mov    %rcx,(%rax)
   137d2:	8b 4a 08             	mov    0x8(%rdx),%ecx
   137d5:	89 48 08             	mov    %ecx,0x8(%rax)
   137d8:	0f b7 4a 0c          	movzwl 0xc(%rdx),%ecx
   137dc:	66 89 48 0c          	mov    %cx,0xc(%rax)
   137e0:	0f b6 52 0e          	movzbl 0xe(%rdx),%edx
   137e4:	88 50 0e             	mov    %dl,0xe(%rax)
   137e7:	48 8b 05 ba fd 00 00 	mov    0xfdba(%rip),%rax        # 235a8 <g_152>
   137ee:	48 8b 00             	mov    (%rax),%rax
   137f1:	8b 08                	mov    (%rax),%ecx
   137f3:	48 83 bd 48 f9 ff ff 	cmpq   $0x0,-0x6b8(%rbp)
   137fa:	00 
   137fb:	0f 95 c2             	setne  %dl
   137fe:	0f b6 d2             	movzbl %dl,%edx
   13801:	09 ca                	or     %ecx,%edx
   13803:	89 10                	mov    %edx,(%rax)
   13805:	c7 05 41 a8 00 00 00 	movl   $0x0,0xa841(%rip)        # 1e050 <g_34>
   1380c:	00 00 00 
   1380f:	e9 6d 05 00 00       	jmpq   13d81 <func_56+0xc53>
   13814:	c6 05 75 a9 00 00 00 	movb   $0x0,0xa975(%rip)        # 1e190 <g_148>
   1381b:	e9 43 05 00 00       	jmpq   13d63 <func_56+0xc35>
   13820:	66 c7 85 e2 f8 ff ff 	movw   $0xfffa,-0x71e(%rbp)
   13827:	fa ff 
   13829:	48 8d 05 20 a8 00 00 	lea    0xa820(%rip),%rax        # 1e050 <g_34>
   13830:	48 89 85 50 f9 ff ff 	mov    %rax,-0x6b0(%rbp)
   13837:	66 c7 05 5a a9 00 00 	movw   $0x3,0xa95a(%rip)        # 1e19a <g_236>
   1383e:	03 00 
   13840:	e9 68 04 00 00       	jmpq   13cad <func_56+0xb7f>
   13845:	48 8d 05 3c a9 00 00 	lea    0xa93c(%rip),%rax        # 1e188 <g_147>
   1384c:	48 89 85 58 f9 ff ff 	mov    %rax,-0x6a8(%rbp)
   13853:	48 8d 05 f6 a7 00 00 	lea    0xa7f6(%rip),%rax        # 1e050 <g_34>
   1385a:	48 89 85 10 fc ff ff 	mov    %rax,-0x3f0(%rbp)
   13861:	48 c7 85 18 fc ff ff 	movq   $0x0,-0x3e8(%rbp)
   13868:	00 00 00 00 
   1386c:	48 8b 15 ed a8 00 00 	mov    0xa8ed(%rip),%rdx        # 1e160 <g_110>
   13873:	0f b6 05 ce a8 00 00 	movzbl 0xa8ce(%rip),%eax        # 1e148 <g_90>
   1387a:	0f b6 c0             	movzbl %al,%eax
   1387d:	48 63 c8             	movslq %eax,%rcx
   13880:	48 89 d0             	mov    %rdx,%rax
   13883:	48 c1 e0 02          	shl    $0x2,%rax
   13887:	48 01 d0             	add    %rdx,%rax
   1388a:	48 01 c0             	add    %rax,%rax
   1388d:	48 01 c8             	add    %rcx,%rax
   13890:	48 8d 14 85 00 00 00 	lea    0x0(,%rax,4),%rdx
   13897:	00 
   13898:	48 8d 05 e1 a7 00 00 	lea    0xa7e1(%rip),%rax        # 1e080 <g_89>
   1389f:	48 01 d0             	add    %rdx,%rax
   138a2:	48 89 85 20 fc ff ff 	mov    %rax,-0x3e0(%rbp)
   138a9:	48 8d 05 38 a8 00 00 	lea    0xa838(%rip),%rax        # 1e0e8 <g_89+0x68>
   138b0:	48 89 85 28 fc ff ff 	mov    %rax,-0x3d8(%rbp)
   138b7:	48 c7 85 30 fc ff ff 	movq   $0x0,-0x3d0(%rbp)
   138be:	00 00 00 00 
   138c2:	48 8d 05 1f a8 00 00 	lea    0xa81f(%rip),%rax        # 1e0e8 <g_89+0x68>
   138c9:	48 89 85 38 fc ff ff 	mov    %rax,-0x3c8(%rbp)
   138d0:	48 8d 05 79 a7 00 00 	lea    0xa779(%rip),%rax        # 1e050 <g_34>
   138d7:	48 89 85 40 fc ff ff 	mov    %rax,-0x3c0(%rbp)
   138de:	48 8d 05 03 a8 00 00 	lea    0xa803(%rip),%rax        # 1e0e8 <g_89+0x68>
   138e5:	48 89 85 48 fc ff ff 	mov    %rax,-0x3b8(%rbp)
   138ec:	48 8b 15 6d a8 00 00 	mov    0xa86d(%rip),%rdx        # 1e160 <g_110>
   138f3:	0f b6 05 4e a8 00 00 	movzbl 0xa84e(%rip),%eax        # 1e148 <g_90>
   138fa:	0f b6 c0             	movzbl %al,%eax
   138fd:	48 63 c8             	movslq %eax,%rcx
   13900:	48 89 d0             	mov    %rdx,%rax
   13903:	48 c1 e0 02          	shl    $0x2,%rax
   13907:	48 01 d0             	add    %rdx,%rax
   1390a:	48 01 c0             	add    %rax,%rax
   1390d:	48 01 c8             	add    %rcx,%rax
   13910:	48 8d 14 85 00 00 00 	lea    0x0(,%rax,4),%rdx
   13917:	00 
   13918:	48 8d 05 61 a7 00 00 	lea    0xa761(%rip),%rax        # 1e080 <g_89>
   1391f:	48 01 d0             	add    %rdx,%rax
   13922:	48 89 85 50 fc ff ff 	mov    %rax,-0x3b0(%rbp)
   13929:	48 8d 05 b8 a7 00 00 	lea    0xa7b8(%rip),%rax        # 1e0e8 <g_89+0x68>
   13930:	48 89 85 58 fc ff ff 	mov    %rax,-0x3a8(%rbp)
   13937:	48 8d 05 aa a7 00 00 	lea    0xa7aa(%rip),%rax        # 1e0e8 <g_89+0x68>
   1393e:	48 89 85 60 fc ff ff 	mov    %rax,-0x3a0(%rbp)
   13945:	48 c7 85 68 fc ff ff 	movq   $0x0,-0x398(%rbp)
   1394c:	00 00 00 00 
   13950:	48 c7 85 70 fc ff ff 	movq   $0x0,-0x390(%rbp)
   13957:	00 00 00 00 
   1395b:	48 8d 05 ee a6 00 00 	lea    0xa6ee(%rip),%rax        # 1e050 <g_34>
   13962:	48 89 85 78 fc ff ff 	mov    %rax,-0x388(%rbp)
   13969:	48 8d 05 78 a7 00 00 	lea    0xa778(%rip),%rax        # 1e0e8 <g_89+0x68>
   13970:	48 89 85 80 fc ff ff 	mov    %rax,-0x380(%rbp)
   13977:	48 8d 05 d2 a6 00 00 	lea    0xa6d2(%rip),%rax        # 1e050 <g_34>
   1397e:	48 89 85 88 fc ff ff 	mov    %rax,-0x378(%rbp)
   13985:	48 c7 85 90 fc ff ff 	movq   $0x0,-0x370(%rbp)
   1398c:	00 00 00 00 
   13990:	48 c7 85 98 fc ff ff 	movq   $0x0,-0x368(%rbp)
   13997:	00 00 00 00 
   1399b:	48 c7 85 a0 fc ff ff 	movq   $0x0,-0x360(%rbp)
   139a2:	00 00 00 00 
   139a6:	48 c7 85 a8 fc ff ff 	movq   $0x0,-0x358(%rbp)
   139ad:	00 00 00 00 
   139b1:	48 8d 05 30 a7 00 00 	lea    0xa730(%rip),%rax        # 1e0e8 <g_89+0x68>
   139b8:	48 89 85 b0 fc ff ff 	mov    %rax,-0x350(%rbp)
   139bf:	48 8d 05 22 a7 00 00 	lea    0xa722(%rip),%rax        # 1e0e8 <g_89+0x68>
   139c6:	48 89 85 b8 fc ff ff 	mov    %rax,-0x348(%rbp)
   139cd:	48 c7 85 c0 fc ff ff 	movq   $0x0,-0x340(%rbp)
   139d4:	00 00 00 00 
   139d8:	48 8d 05 09 a7 00 00 	lea    0xa709(%rip),%rax        # 1e0e8 <g_89+0x68>
   139df:	48 89 85 c8 fc ff ff 	mov    %rax,-0x338(%rbp)
   139e6:	48 8d 05 63 a6 00 00 	lea    0xa663(%rip),%rax        # 1e050 <g_34>
   139ed:	48 89 85 d0 fc ff ff 	mov    %rax,-0x330(%rbp)
   139f4:	48 8d 05 ed a6 00 00 	lea    0xa6ed(%rip),%rax        # 1e0e8 <g_89+0x68>
   139fb:	48 89 85 d8 fc ff ff 	mov    %rax,-0x328(%rbp)
   13a02:	48 c7 85 e0 fc ff ff 	movq   $0x0,-0x320(%rbp)
   13a09:	00 00 00 00 
   13a0d:	48 8d 85 10 fc ff ff 	lea    -0x3f0(%rbp),%rax
   13a14:	48 05 90 00 00 00    	add    $0x90,%rax
   13a1a:	48 89 85 60 f9 ff ff 	mov    %rax,-0x6a0(%rbp)
   13a21:	c6 85 de f8 ff ff 09 	movb   $0x9,-0x722(%rbp)
   13a28:	48 8d 05 9d 0e 01 00 	lea    0x10e9d(%rip),%rax        # 248cc <g_184>
   13a2f:	48 89 85 68 f9 ff ff 	mov    %rax,-0x698(%rbp)
   13a36:	8b 85 c4 f8 ff ff    	mov    -0x73c(%rbp),%eax
   13a3c:	48 63 d8             	movslq %eax,%rbx
   13a3f:	8b 85 c4 f8 ff ff    	mov    -0x73c(%rbp),%eax
   13a45:	44 0f be e0          	movsbl %al,%r12d
   13a49:	48 8b 15 10 a7 00 00 	mov    0xa710(%rip),%rdx        # 1e160 <g_110>
   13a50:	0f b6 05 f1 a6 00 00 	movzbl 0xa6f1(%rip),%eax        # 1e148 <g_90>
   13a57:	0f b6 c0             	movzbl %al,%eax
   13a5a:	48 63 c8             	movslq %eax,%rcx
   13a5d:	48 89 d0             	mov    %rdx,%rax
   13a60:	48 c1 e0 02          	shl    $0x2,%rax
   13a64:	48 01 d0             	add    %rdx,%rax
   13a67:	48 01 c0             	add    %rax,%rax
   13a6a:	48 01 c8             	add    %rcx,%rax
   13a6d:	48 8d 14 85 00 00 00 	lea    0x0(,%rax,4),%rdx
   13a74:	00 
   13a75:	48 8d 05 04 a6 00 00 	lea    0xa604(%rip),%rax        # 1e080 <g_89>
   13a7c:	8b 04 02             	mov    (%rdx,%rax,1),%eax
   13a7f:	85 c0                	test   %eax,%eax
   13a81:	74 20                	je     13aa3 <func_56+0x975>
   13a83:	8b 85 fc f8 ff ff    	mov    -0x704(%rbp),%eax
   13a89:	48 63 d0             	movslq %eax,%rdx
   13a8c:	48 8b 85 58 f9 ff ff 	mov    -0x6a8(%rbp),%rax
   13a93:	48 89 10             	mov    %rdx,(%rax)
   13a96:	48 8b 85 58 f9 ff ff 	mov    -0x6a8(%rbp),%rax
   13a9d:	48 8b 00             	mov    (%rax),%rax
   13aa0:	48 85 c0             	test   %rax,%rax
   13aa3:	0f b7 05 4a b6 00 00 	movzwl 0xb64a(%rip),%eax        # 1f0f4 <g_542>
   13aaa:	44 0f b7 e8          	movzwl %ax,%r13d
   13aae:	0f b6 05 93 a6 00 00 	movzbl 0xa693(%rip),%eax        # 1e148 <g_90>
   13ab5:	0f b6 c0             	movzbl %al,%eax
   13ab8:	8d 50 01             	lea    0x1(%rax),%edx
   13abb:	0f b7 05 d8 a6 00 00 	movzwl 0xa6d8(%rip),%eax        # 1e19a <g_236>
   13ac2:	98                   	cwtl   
   13ac3:	8d 48 04             	lea    0x4(%rax),%ecx
   13ac6:	0f b7 05 cd a6 00 00 	movzwl 0xa6cd(%rip),%eax        # 1e19a <g_236>
   13acd:	98                   	cwtl   
   13ace:	48 63 f0             	movslq %eax,%rsi
   13ad1:	48 63 d2             	movslq %edx,%rdx
   13ad4:	48 63 c9             	movslq %ecx,%rcx
   13ad7:	48 89 d0             	mov    %rdx,%rax
   13ada:	48 c1 e0 02          	shl    $0x2,%rax
   13ade:	48 01 d0             	add    %rdx,%rax
   13ae1:	48 8d 14 85 00 00 00 	lea    0x0(,%rax,4),%rdx
   13ae8:	00 
   13ae9:	48 01 d0             	add    %rdx,%rax
   13aec:	48 01 c0             	add    %rax,%rax
   13aef:	48 89 ca             	mov    %rcx,%rdx
   13af2:	48 c1 e2 02          	shl    $0x2,%rdx
   13af6:	48 01 ca             	add    %rcx,%rdx
   13af9:	48 01 d0             	add    %rdx,%rax
   13afc:	48 01 f0             	add    %rsi,%rax
   13aff:	48 8d 14 c5 00 00 00 	lea    0x0(,%rax,8),%rdx
   13b06:	00 
   13b07:	48 8d 05 b2 fa 00 00 	lea    0xfab2(%rip),%rax        # 235c0 <g_166>
   13b0e:	48 8b 14 02          	mov    (%rdx,%rax,1),%rdx
   13b12:	48 8b 85 60 f9 ff ff 	mov    -0x6a0(%rbp),%rax
   13b19:	48 c7 00 00 00 00 00 	movq   $0x0,(%rax)
   13b20:	48 8b 85 60 f9 ff ff 	mov    -0x6a0(%rbp),%rax
   13b27:	48 8b 00             	mov    (%rax),%rax
   13b2a:	48 39 c2             	cmp    %rax,%rdx
   13b2d:	0f 95 c0             	setne  %al
   13b30:	0f b6 c0             	movzbl %al,%eax
   13b33:	39 85 c4 f8 ff ff    	cmp    %eax,-0x73c(%rbp)
   13b39:	0f 9e c0             	setle  %al
   13b3c:	0f b6 c0             	movzbl %al,%eax
   13b3f:	8b 95 c4 f8 ff ff    	mov    -0x73c(%rbp),%edx
   13b45:	21 d0                	and    %edx,%eax
   13b47:	98                   	cwtl   
   13b48:	8b 95 fc f8 ff ff    	mov    -0x704(%rbp),%edx
   13b4e:	89 d6                	mov    %edx,%esi
   13b50:	89 c7                	mov    %eax,%edi
   13b52:	e8 3b 59 ff ff       	callq  9492 <safe_lshift_func_int16_t_s_s>
   13b57:	98                   	cwtl   
   13b58:	41 39 c5             	cmp    %eax,%r13d
   13b5b:	0f 9c c0             	setl   %al
   13b5e:	0f b6 c0             	movzbl %al,%eax
   13b61:	66 89 85 e2 f8 ff ff 	mov    %ax,-0x71e(%rbp)
   13b68:	0f b7 95 e2 f8 ff ff 	movzwl -0x71e(%rbp),%edx
   13b6f:	8b 05 53 0d 01 00    	mov    0x10d53(%rip),%eax        # 248c8 <g_6>
   13b75:	0f b7 c0             	movzwl %ax,%eax
   13b78:	89 d6                	mov    %edx,%esi
   13b7a:	89 c7                	mov    %eax,%edi
   13b7c:	e8 c7 62 ff ff       	callq  9e48 <safe_rshift_func_uint16_t_u_s>
   13b81:	89 c2                	mov    %eax,%edx
   13b83:	48 8b 85 48 f9 ff ff 	mov    -0x6b8(%rbp),%rax
   13b8a:	48 8b 00             	mov    (%rax),%rax
   13b8d:	0f b7 d2             	movzwl %dx,%edx
   13b90:	89 10                	mov    %edx,(%rax)
   13b92:	8b 00                	mov    (%rax),%eax
   13b94:	89 c2                	mov    %eax,%edx
   13b96:	8b 85 c4 f8 ff ff    	mov    -0x73c(%rbp),%eax
   13b9c:	21 d0                	and    %edx,%eax
   13b9e:	98                   	cwtl   
   13b9f:	be 00 00 00 00       	mov    $0x0,%esi
   13ba4:	89 c7                	mov    %eax,%edi
   13ba6:	e8 08 58 ff ff       	callq  93b3 <safe_add_func_int16_t_s_s>
   13bab:	0f be c0             	movsbl %al,%eax
   13bae:	be 01 00 00 00       	mov    $0x1,%esi
   13bb3:	89 c7                	mov    %eax,%edi
   13bb5:	e8 38 56 ff ff       	callq  91f2 <safe_sub_func_int8_t_s_s>
   13bba:	be 00 00 00 00       	mov    $0x0,%esi
   13bbf:	bf 01 00 00 00       	mov    $0x1,%edi
   13bc4:	e8 91 5f ff ff       	callq  9b5a <safe_add_func_uint8_t_u_u>
   13bc9:	0f be c0             	movsbl %al,%eax
   13bcc:	44 89 e6             	mov    %r12d,%esi
   13bcf:	89 c7                	mov    %eax,%edi
   13bd1:	e8 94 56 ff ff       	callq  926a <safe_div_func_int8_t_s_s>
   13bd6:	48 0f be c0          	movsbq %al,%rax
   13bda:	48 89 de             	mov    %rbx,%rsi
   13bdd:	48 89 c7             	mov    %rax,%rdi
   13be0:	e8 c3 5c ff ff       	callq  98a8 <safe_sub_func_int64_t_s_s>
   13be5:	48 8b 95 68 f9 ff ff 	mov    -0x698(%rbp),%rdx
   13bec:	0f b7 12             	movzwl (%rdx),%edx
   13bef:	21 d0                	and    %edx,%eax
   13bf1:	89 c2                	mov    %eax,%edx
   13bf3:	48 8b 85 68 f9 ff ff 	mov    -0x698(%rbp),%rax
   13bfa:	66 89 10             	mov    %dx,(%rax)
   13bfd:	48 8b 85 68 f9 ff ff 	mov    -0x698(%rbp),%rax
   13c04:	0f b7 00             	movzwl (%rax),%eax
   13c07:	0f b7 f0             	movzwl %ax,%esi
   13c0a:	0f b7 05 89 a5 00 00 	movzwl 0xa589(%rip),%eax        # 1e19a <g_236>
   13c11:	98                   	cwtl   
   13c12:	0f b6 15 77 a5 00 00 	movzbl 0xa577(%rip),%edx        # 1e190 <g_148>
   13c19:	0f be d2             	movsbl %dl,%edx
   13c1c:	8d 4a 02             	lea    0x2(%rdx),%ecx
   13c1f:	0f b7 15 74 a5 00 00 	movzwl 0xa574(%rip),%edx        # 1e19a <g_236>
   13c26:	0f bf d2             	movswl %dx,%edx
   13c29:	83 c2 05             	add    $0x5,%edx
   13c2c:	48 63 fa             	movslq %edx,%rdi
   13c2f:	48 98                	cltq   
   13c31:	48 63 c9             	movslq %ecx,%rcx
   13c34:	48 89 c2             	mov    %rax,%rdx
   13c37:	48 c1 e2 04          	shl    $0x4,%rdx
   13c3b:	48 29 c2             	sub    %rax,%rdx
   13c3e:	48 8d 04 95 00 00 00 	lea    0x0(,%rdx,4),%rax
   13c45:	00 
   13c46:	48 89 c2             	mov    %rax,%rdx
   13c49:	48 89 c8             	mov    %rcx,%rax
   13c4c:	48 c1 e0 02          	shl    $0x2,%rax
   13c50:	48 01 c8             	add    %rcx,%rax
   13c53:	48 01 c0             	add    %rax,%rax
   13c56:	48 01 d0             	add    %rdx,%rax
   13c59:	48 8d 5d e0          	lea    -0x20(%rbp),%rbx
   13c5d:	48 01 d8             	add    %rbx,%rax
   13c60:	48 01 f8             	add    %rdi,%rax
   13c63:	48 2d 00 06 00 00    	sub    $0x600,%rax
   13c69:	0f b6 00             	movzbl (%rax),%eax
   13c6c:	0f be c0             	movsbl %al,%eax
   13c6f:	89 c7                	mov    %eax,%edi
   13c71:	e8 ed 58 ff ff       	callq  9563 <safe_rshift_func_int16_t_s_u>
   13c76:	0f b6 c0             	movzbl %al,%eax
   13c79:	be 00 00 00 00       	mov    $0x0,%esi
   13c7e:	89 c7                	mov    %eax,%edi
   13c80:	e8 39 60 ff ff       	callq  9cbe <safe_rshift_func_uint8_t_u_u>
   13c85:	48 8b 15 14 f9 00 00 	mov    0xf914(%rip),%rdx        # 235a0 <g_153>
   13c8c:	8b 0a                	mov    (%rdx),%ecx
   13c8e:	0f b6 d0             	movzbl %al,%edx
   13c91:	48 8b 05 08 f9 00 00 	mov    0xf908(%rip),%rax        # 235a0 <g_153>
   13c98:	31 ca                	xor    %ecx,%edx
   13c9a:	89 10                	mov    %edx,(%rax)
   13c9c:	0f b7 05 f7 a4 00 00 	movzwl 0xa4f7(%rip),%eax        # 1e19a <g_236>
   13ca3:	83 e8 01             	sub    $0x1,%eax
   13ca6:	66 89 05 ed a4 00 00 	mov    %ax,0xa4ed(%rip)        # 1e19a <g_236>
   13cad:	0f b7 05 e6 a4 00 00 	movzwl 0xa4e6(%rip),%eax        # 1e19a <g_236>
   13cb4:	66 85 c0             	test   %ax,%ax
   13cb7:	0f 89 88 fb ff ff    	jns    13845 <func_56+0x717>
   13cbd:	48 8b 05 e4 f8 00 00 	mov    0xf8e4(%rip),%rax        # 235a8 <g_152>
   13cc4:	48 8b 08             	mov    (%rax),%rcx
   13cc7:	8b 39                	mov    (%rcx),%edi
   13cc9:	0f b6 05 78 a4 00 00 	movzbl 0xa478(%rip),%eax        # 1e148 <g_90>
   13cd0:	0f b6 c0             	movzbl %al,%eax
   13cd3:	8b 15 77 a3 00 00    	mov    0xa377(%rip),%edx        # 1e050 <g_34>
   13cd9:	8d 72 01             	lea    0x1(%rdx),%esi
   13cdc:	0f b6 15 65 a4 00 00 	movzbl 0xa465(%rip),%edx        # 1e148 <g_90>
   13ce3:	0f b6 d2             	movzbl %dl,%edx
   13ce6:	83 c2 05             	add    $0x5,%edx
   13ce9:	4c 63 c2             	movslq %edx,%r8
   13cec:	48 98                	cltq   
   13cee:	48 63 f6             	movslq %esi,%rsi
   13cf1:	48 89 c2             	mov    %rax,%rdx
   13cf4:	48 c1 e2 04          	shl    $0x4,%rdx
   13cf8:	48 29 c2             	sub    %rax,%rdx
   13cfb:	48 8d 04 95 00 00 00 	lea    0x0(,%rdx,4),%rax
   13d02:	00 
   13d03:	48 89 c2             	mov    %rax,%rdx
   13d06:	48 89 f0             	mov    %rsi,%rax
   13d09:	48 c1 e0 02          	shl    $0x2,%rax
   13d0d:	48 01 f0             	add    %rsi,%rax
   13d10:	48 01 c0             	add    %rax,%rax
   13d13:	48 01 d0             	add    %rdx,%rax
   13d16:	48 8d 5d e0          	lea    -0x20(%rbp),%rbx
   13d1a:	48 01 d8             	add    %rbx,%rax
   13d1d:	4c 01 c0             	add    %r8,%rax
   13d20:	48 2d 00 06 00 00    	sub    $0x600,%rax
   13d26:	0f b6 00             	movzbl (%rax),%eax
   13d29:	0f be d0             	movsbl %al,%edx
   13d2c:	48 8d 05 55 a3 00 00 	lea    0xa355(%rip),%rax        # 1e088 <g_89+0x8>
   13d33:	48 39 85 50 f9 ff ff 	cmp    %rax,-0x6b0(%rbp)
   13d3a:	0f 94 c0             	sete   %al
   13d3d:	0f b6 c0             	movzbl %al,%eax
   13d40:	39 c2                	cmp    %eax,%edx
   13d42:	b8 01 00 00 00       	mov    $0x1,%eax
   13d47:	85 c0                	test   %eax,%eax
   13d49:	0f 94 c0             	sete   %al
   13d4c:	0f b6 c0             	movzbl %al,%eax
   13d4f:	31 f8                	xor    %edi,%eax
   13d51:	89 01                	mov    %eax,(%rcx)
   13d53:	0f b6 05 36 a4 00 00 	movzbl 0xa436(%rip),%eax        # 1e190 <g_148>
   13d5a:	83 c0 01             	add    $0x1,%eax
   13d5d:	88 05 2d a4 00 00    	mov    %al,0xa42d(%rip)        # 1e190 <g_148>
   13d63:	0f b6 05 26 a4 00 00 	movzbl 0xa426(%rip),%eax        # 1e190 <g_148>
   13d6a:	3c 03                	cmp    $0x3,%al
   13d6c:	0f 8e ae fa ff ff    	jle    13820 <func_56+0x6f2>
   13d72:	8b 05 d8 a2 00 00    	mov    0xa2d8(%rip),%eax        # 1e050 <g_34>
   13d78:	83 c0 01             	add    $0x1,%eax
   13d7b:	89 05 cf a2 00 00    	mov    %eax,0xa2cf(%rip)        # 1e050 <g_34>
   13d81:	8b 05 c9 a2 00 00    	mov    0xa2c9(%rip),%eax        # 1e050 <g_34>
   13d87:	83 f8 03             	cmp    $0x3,%eax
   13d8a:	0f 8e 84 fa ff ff    	jle    13814 <func_56+0x6e6>
   13d90:	0f b6 05 b1 a3 00 00 	movzbl 0xa3b1(%rip),%eax        # 1e148 <g_90>
   13d97:	83 c0 01             	add    $0x1,%eax
   13d9a:	88 05 a8 a3 00 00    	mov    %al,0xa3a8(%rip)        # 1e148 <g_90>
   13da0:	0f b6 05 a1 a3 00 00 	movzbl 0xa3a1(%rip),%eax        # 1e148 <g_90>
   13da7:	3c 03                	cmp    $0x3,%al
   13da9:	0f 86 99 f7 ff ff    	jbe    13548 <func_56+0x41a>
   13daf:	48 8b 05 aa a3 00 00 	mov    0xa3aa(%rip),%rax        # 1e160 <g_110>
   13db6:	48 83 c0 01          	add    $0x1,%rax
   13dba:	48 89 05 9f a3 00 00 	mov    %rax,0xa39f(%rip)        # 1e160 <g_110>
   13dc1:	48 8b 05 98 a3 00 00 	mov    0xa398(%rip),%rax        # 1e160 <g_110>
   13dc8:	48 83 f8 03          	cmp    $0x3,%rax
   13dcc:	0f 86 19 f6 ff ff    	jbe    133eb <func_56+0x2bd>
   13dd2:	eb 01                	jmp    13dd5 <func_56+0xca7>
   13dd4:	90                   	nop
   13dd5:	8b 85 c4 f8 ff ff    	mov    -0x73c(%rbp),%eax
   13ddb:	48 8b 75 d8          	mov    -0x28(%rbp),%rsi
   13ddf:	64 48 33 34 25 28 00 	xor    %fs:0x28,%rsi
   13de6:	00 00 
   13de8:	74 05                	je     13def <func_56+0xcc1>
   13dea:	e8 81 52 ff ff       	callq  9070 <__stack_chk_fail@plt>
   13def:	48 81 c4 28 07 00 00 	add    $0x728,%rsp
   13df6:	5b                   	pop    %rbx
   13df7:	41 5c                	pop    %r12
   13df9:	41 5d                	pop    %r13
   13dfb:	5d                   	pop    %rbp
   13dfc:	c3                   	retq   

0000000000013dfd <func_59>:
   13dfd:	f3 0f 1e fa          	endbr64 
   13e01:	55                   	push   %rbp
   13e02:	48 89 e5             	mov    %rsp,%rbp
   13e05:	48 81 ec 60 06 00 00 	sub    $0x660,%rsp
   13e0c:	89 bd ac f9 ff ff    	mov    %edi,-0x654(%rbp)
   13e12:	89 b5 a8 f9 ff ff    	mov    %esi,-0x658(%rbp)
   13e18:	89 c8                	mov    %ecx,%eax
   13e1a:	88 95 a4 f9 ff ff    	mov    %dl,-0x65c(%rbp)
   13e20:	66 89 85 a0 f9 ff ff 	mov    %ax,-0x660(%rbp)
   13e27:	64 48 8b 04 25 28 00 	mov    %fs:0x28,%rax
   13e2e:	00 00 
   13e30:	48 89 45 f8          	mov    %rax,-0x8(%rbp)
   13e34:	31 c0                	xor    %eax,%eax
   13e36:	48 8d 85 b0 f9 ff ff 	lea    -0x650(%rbp),%rax
   13e3d:	48 8d 15 3c ee 00 00 	lea    0xee3c(%rip),%rdx        # 22c80 <g_1852+0x1ad8>
   13e44:	b9 c8 00 00 00       	mov    $0xc8,%ecx
   13e49:	48 89 c7             	mov    %rax,%rdi
   13e4c:	48 89 d6             	mov    %rdx,%rsi
   13e4f:	f3 48 a5             	rep movsq %ds:(%rsi),%es:(%rdi)
   13e52:	48 8b 85 80 fd ff ff 	mov    -0x280(%rbp),%rax
   13e59:	48 8b 4d f8          	mov    -0x8(%rbp),%rcx
   13e5d:	64 48 33 0c 25 28 00 	xor    %fs:0x28,%rcx
   13e64:	00 00 
   13e66:	74 05                	je     13e6d <func_59+0x70>
   13e68:	e8 03 52 ff ff       	callq  9070 <__stack_chk_fail@plt>
   13e6d:	c9                   	leaveq 
   13e6e:	c3                   	retq   

0000000000013e6f <func_66>:
   13e6f:	f3 0f 1e fa          	endbr64 
   13e73:	55                   	push   %rbp
   13e74:	48 89 e5             	mov    %rsp,%rbp
   13e77:	41 57                	push   %r15
   13e79:	41 56                	push   %r14
   13e7b:	41 55                	push   %r13
   13e7d:	41 54                	push   %r12
   13e7f:	53                   	push   %rbx
   13e80:	48 81 ec 18 0f 00 00 	sub    $0xf18,%rsp
   13e87:	89 f8                	mov    %edi,%eax
   13e89:	89 b5 d8 f0 ff ff    	mov    %esi,-0xf28(%rbp)
   13e8f:	66 89 85 dc f0 ff ff 	mov    %ax,-0xf24(%rbp)
   13e96:	64 48 8b 04 25 28 00 	mov    %fs:0x28,%rax
   13e9d:	00 00 
   13e9f:	48 89 45 c8          	mov    %rax,-0x38(%rbp)
   13ea3:	31 c0                	xor    %eax,%eax
   13ea5:	48 8d 05 98 a1 00 00 	lea    0xa198(%rip),%rax        # 1e044 <g_21>
   13eac:	48 89 85 a8 f1 ff ff 	mov    %rax,-0xe58(%rbp)
   13eb3:	c7 85 00 f1 ff ff 6a 	movl   $0xd5cc336a,-0xf00(%rbp)
   13eba:	33 cc d5 
   13ebd:	48 8d 05 cc a2 00 00 	lea    0xa2cc(%rip),%rax        # 1e190 <g_148>
   13ec4:	48 89 85 88 f1 ff ff 	mov    %rax,-0xe78(%rbp)
   13ecb:	48 b8 f0 f0 f0 f0 f0 	movabs $0xf0f0f0f0f0f0f0f0,%rax
   13ed2:	f0 f0 f0 
   13ed5:	48 89 45 c0          	mov    %rax,-0x40(%rbp)
   13ed9:	66 c7 85 6a f2 ff ff 	movw   $0x9,-0xd96(%rbp)
   13ee0:	09 00 
   13ee2:	66 c7 85 6c f2 ff ff 	movw   $0x9,-0xd94(%rbp)
   13ee9:	09 00 
   13eeb:	66 c7 85 6e f2 ff ff 	movw   $0x9,-0xd92(%rbp)
   13ef2:	09 00 
   13ef4:	66 c7 85 70 f2 ff ff 	movw   $0x9,-0xd90(%rbp)
   13efb:	09 00 
   13efd:	66 c7 85 72 f2 ff ff 	movw   $0x9,-0xd8e(%rbp)
   13f04:	09 00 
   13f06:	c7 85 b0 f2 ff ff 01 	movl   $0x1,-0xd50(%rbp)
   13f0d:	00 00 00 
   13f10:	c7 85 b4 f2 ff ff 01 	movl   $0x1,-0xd4c(%rbp)
   13f17:	00 00 00 
   13f1a:	c7 85 b8 f2 ff ff 00 	movl   $0x0,-0xd48(%rbp)
   13f21:	00 00 00 
   13f24:	c7 85 bc f2 ff ff 01 	movl   $0x1,-0xd44(%rbp)
   13f2b:	00 00 00 
   13f2e:	c7 85 c0 f2 ff ff 01 	movl   $0x1,-0xd40(%rbp)
   13f35:	00 00 00 
   13f38:	c7 85 c4 f2 ff ff 00 	movl   $0x0,-0xd3c(%rbp)
   13f3f:	00 00 00 
   13f42:	c7 85 2c f1 ff ff 62 	movl   $0x851df562,-0xed4(%rbp)
   13f49:	f5 1d 85 
   13f4c:	c6 85 ea f0 ff ff 36 	movb   $0x36,-0xf16(%rbp)
   13f53:	c7 85 f4 f0 ff ff 03 	movl   $0x9fd4003,-0xf0c(%rbp)
   13f5a:	40 fd 09 
   13f5d:	48 c7 85 90 f1 ff ff 	movq   $0x0,-0xe70(%rbp)
   13f64:	00 00 00 00 
   13f68:	c7 85 f8 f0 ff ff fa 	movl   $0xfffffffa,-0xf08(%rbp)
   13f6f:	ff ff ff 
   13f72:	48 8d 05 9f a2 00 00 	lea    0xa29f(%rip),%rax        # 1e218 <g_396>
   13f79:	48 89 85 b0 f1 ff ff 	mov    %rax,-0xe50(%rbp)
   13f80:	48 8d 05 01 a2 00 00 	lea    0xa201(%rip),%rax        # 1e188 <g_147>
   13f87:	48 89 85 b8 f1 ff ff 	mov    %rax,-0xe48(%rbp)
   13f8e:	48 8d 05 5b b1 00 00 	lea    0xb15b(%rip),%rax        # 1f0f0 <g_538>
   13f95:	48 89 85 c0 f1 ff ff 	mov    %rax,-0xe40(%rbp)
   13f9c:	c7 85 30 f1 ff ff 01 	movl   $0x1,-0xed0(%rbp)
   13fa3:	00 00 00 
   13fa6:	48 8d 05 bb a1 00 00 	lea    0xa1bb(%rip),%rax        # 1e168 <g_144>
   13fad:	48 89 85 c8 f1 ff ff 	mov    %rax,-0xe38(%rbp)
   13fb4:	48 8d 05 95 a0 00 00 	lea    0xa095(%rip),%rax        # 1e050 <g_34>
   13fbb:	48 89 85 50 f5 ff ff 	mov    %rax,-0xab0(%rbp)
   13fc2:	48 8d 05 87 a0 00 00 	lea    0xa087(%rip),%rax        # 1e050 <g_34>
   13fc9:	48 89 85 58 f5 ff ff 	mov    %rax,-0xaa8(%rbp)
   13fd0:	48 8d 05 79 a0 00 00 	lea    0xa079(%rip),%rax        # 1e050 <g_34>
   13fd7:	48 89 85 60 f5 ff ff 	mov    %rax,-0xaa0(%rbp)
   13fde:	48 8d 85 b0 f2 ff ff 	lea    -0xd50(%rbp),%rax
   13fe5:	48 83 c0 10          	add    $0x10,%rax
   13fe9:	48 89 85 68 f5 ff ff 	mov    %rax,-0xa98(%rbp)
   13ff0:	48 c7 85 70 f5 ff ff 	movq   $0x0,-0xa90(%rbp)
   13ff7:	00 00 00 00 
   13ffb:	48 8d 85 b0 f2 ff ff 	lea    -0xd50(%rbp),%rax
   14002:	48 83 c0 14          	add    $0x14,%rax
   14006:	48 89 85 78 f5 ff ff 	mov    %rax,-0xa88(%rbp)
   1400d:	48 c7 85 80 f5 ff ff 	movq   $0x0,-0xa80(%rbp)
   14014:	00 00 00 00 
   14018:	48 8d 05 31 a0 00 00 	lea    0xa031(%rip),%rax        # 1e050 <g_34>
   1401f:	48 89 85 88 f5 ff ff 	mov    %rax,-0xa78(%rbp)
   14026:	48 c7 85 90 f5 ff ff 	movq   $0x0,-0xa70(%rbp)
   1402d:	00 00 00 00 
   14031:	48 8d 05 18 a0 00 00 	lea    0xa018(%rip),%rax        # 1e050 <g_34>
   14038:	48 89 85 98 f5 ff ff 	mov    %rax,-0xa68(%rbp)
   1403f:	48 8d 05 0a a0 00 00 	lea    0xa00a(%rip),%rax        # 1e050 <g_34>
   14046:	48 89 85 a0 f5 ff ff 	mov    %rax,-0xa60(%rbp)
   1404d:	48 c7 85 a8 f5 ff ff 	movq   $0x0,-0xa58(%rbp)
   14054:	00 00 00 00 
   14058:	48 8d 05 f1 9f 00 00 	lea    0x9ff1(%rip),%rax        # 1e050 <g_34>
   1405f:	48 89 85 b0 f5 ff ff 	mov    %rax,-0xa50(%rbp)
   14066:	48 8d 05 e3 9f 00 00 	lea    0x9fe3(%rip),%rax        # 1e050 <g_34>
   1406d:	48 89 85 b8 f5 ff ff 	mov    %rax,-0xa48(%rbp)
   14074:	48 8d 85 b0 f2 ff ff 	lea    -0xd50(%rbp),%rax
   1407b:	48 83 c0 10          	add    $0x10,%rax
   1407f:	48 89 85 c0 f5 ff ff 	mov    %rax,-0xa40(%rbp)
   14086:	48 8d 05 c3 9f 00 00 	lea    0x9fc3(%rip),%rax        # 1e050 <g_34>
   1408d:	48 89 85 c8 f5 ff ff 	mov    %rax,-0xa38(%rbp)
   14094:	48 8d 05 b5 9f 00 00 	lea    0x9fb5(%rip),%rax        # 1e050 <g_34>
   1409b:	48 89 85 d0 f5 ff ff 	mov    %rax,-0xa30(%rbp)
   140a2:	48 8d 85 b0 f2 ff ff 	lea    -0xd50(%rbp),%rax
   140a9:	48 83 c0 14          	add    $0x14,%rax
   140ad:	48 89 85 d8 f5 ff ff 	mov    %rax,-0xa28(%rbp)
   140b4:	48 8d 85 b0 f2 ff ff 	lea    -0xd50(%rbp),%rax
   140bb:	48 83 c0 10          	add    $0x10,%rax
   140bf:	48 89 85 e0 f5 ff ff 	mov    %rax,-0xa20(%rbp)
   140c6:	48 8d 85 b0 f2 ff ff 	lea    -0xd50(%rbp),%rax
   140cd:	48 83 c0 10          	add    $0x10,%rax
   140d1:	48 89 85 e8 f5 ff ff 	mov    %rax,-0xa18(%rbp)
   140d8:	48 8d 05 71 9f 00 00 	lea    0x9f71(%rip),%rax        # 1e050 <g_34>
   140df:	48 89 85 f0 f5 ff ff 	mov    %rax,-0xa10(%rbp)
   140e6:	48 8d 05 63 9f 00 00 	lea    0x9f63(%rip),%rax        # 1e050 <g_34>
   140ed:	48 89 85 f8 f5 ff ff 	mov    %rax,-0xa08(%rbp)
   140f4:	48 8d 05 55 9f 00 00 	lea    0x9f55(%rip),%rax        # 1e050 <g_34>
   140fb:	48 89 85 00 f6 ff ff 	mov    %rax,-0xa00(%rbp)
   14102:	48 8d 85 b0 f2 ff ff 	lea    -0xd50(%rbp),%rax
   14109:	48 83 c0 10          	add    $0x10,%rax
   1410d:	48 89 85 08 f6 ff ff 	mov    %rax,-0x9f8(%rbp)
   14114:	48 c7 85 10 f6 ff ff 	movq   $0x0,-0x9f0(%rbp)
   1411b:	00 00 00 00 
   1411f:	48 8d 85 b0 f2 ff ff 	lea    -0xd50(%rbp),%rax
   14126:	48 83 c0 14          	add    $0x14,%rax
   1412a:	48 89 85 18 f6 ff ff 	mov    %rax,-0x9e8(%rbp)
   14131:	48 c7 85 20 f6 ff ff 	movq   $0x0,-0x9e0(%rbp)
   14138:	00 00 00 00 
   1413c:	48 8d 05 0d 9f 00 00 	lea    0x9f0d(%rip),%rax        # 1e050 <g_34>
   14143:	48 89 85 28 f6 ff ff 	mov    %rax,-0x9d8(%rbp)
   1414a:	48 c7 85 30 f6 ff ff 	movq   $0x0,-0x9d0(%rbp)
   14151:	00 00 00 00 
   14155:	48 8d 05 f4 9e 00 00 	lea    0x9ef4(%rip),%rax        # 1e050 <g_34>
   1415c:	48 89 85 38 f6 ff ff 	mov    %rax,-0x9c8(%rbp)
   14163:	48 8d 05 e6 9e 00 00 	lea    0x9ee6(%rip),%rax        # 1e050 <g_34>
   1416a:	48 89 85 40 f6 ff ff 	mov    %rax,-0x9c0(%rbp)
   14171:	48 c7 85 48 f6 ff ff 	movq   $0x0,-0x9b8(%rbp)
   14178:	00 00 00 00 
   1417c:	48 8d 05 cd 9e 00 00 	lea    0x9ecd(%rip),%rax        # 1e050 <g_34>
   14183:	48 89 85 50 f6 ff ff 	mov    %rax,-0x9b0(%rbp)
   1418a:	48 8d 05 bf 9e 00 00 	lea    0x9ebf(%rip),%rax        # 1e050 <g_34>
   14191:	48 89 85 58 f6 ff ff 	mov    %rax,-0x9a8(%rbp)
   14198:	48 8d 85 b0 f2 ff ff 	lea    -0xd50(%rbp),%rax
   1419f:	48 83 c0 10          	add    $0x10,%rax
   141a3:	48 89 85 60 f6 ff ff 	mov    %rax,-0x9a0(%rbp)
   141aa:	48 8d 05 9f 9e 00 00 	lea    0x9e9f(%rip),%rax        # 1e050 <g_34>
   141b1:	48 89 85 68 f6 ff ff 	mov    %rax,-0x998(%rbp)
   141b8:	48 8d 05 91 9e 00 00 	lea    0x9e91(%rip),%rax        # 1e050 <g_34>
   141bf:	48 89 85 70 f6 ff ff 	mov    %rax,-0x990(%rbp)
   141c6:	48 8d 85 b0 f2 ff ff 	lea    -0xd50(%rbp),%rax
   141cd:	48 83 c0 14          	add    $0x14,%rax
   141d1:	48 89 85 78 f6 ff ff 	mov    %rax,-0x988(%rbp)
   141d8:	48 8d 85 b0 f2 ff ff 	lea    -0xd50(%rbp),%rax
   141df:	48 83 c0 10          	add    $0x10,%rax
   141e3:	48 89 85 80 f6 ff ff 	mov    %rax,-0x980(%rbp)
   141ea:	48 8d 85 b0 f2 ff ff 	lea    -0xd50(%rbp),%rax
   141f1:	48 83 c0 10          	add    $0x10,%rax
   141f5:	48 89 85 88 f6 ff ff 	mov    %rax,-0x978(%rbp)
   141fc:	48 8d 05 4d 9e 00 00 	lea    0x9e4d(%rip),%rax        # 1e050 <g_34>
   14203:	48 89 85 90 f6 ff ff 	mov    %rax,-0x970(%rbp)
   1420a:	48 8d 05 3f 9e 00 00 	lea    0x9e3f(%rip),%rax        # 1e050 <g_34>
   14211:	48 89 85 98 f6 ff ff 	mov    %rax,-0x968(%rbp)
   14218:	48 8d 05 31 9e 00 00 	lea    0x9e31(%rip),%rax        # 1e050 <g_34>
   1421f:	48 89 85 a0 f6 ff ff 	mov    %rax,-0x960(%rbp)
   14226:	48 8d 85 b0 f2 ff ff 	lea    -0xd50(%rbp),%rax
   1422d:	48 83 c0 10          	add    $0x10,%rax
   14231:	48 89 85 a8 f6 ff ff 	mov    %rax,-0x958(%rbp)
   14238:	48 c7 85 b0 f6 ff ff 	movq   $0x0,-0x950(%rbp)
   1423f:	00 00 00 00 
   14243:	48 8d 85 b0 f2 ff ff 	lea    -0xd50(%rbp),%rax
   1424a:	48 83 c0 14          	add    $0x14,%rax
   1424e:	48 89 85 b8 f6 ff ff 	mov    %rax,-0x948(%rbp)
   14255:	48 c7 85 c0 f6 ff ff 	movq   $0x0,-0x940(%rbp)
   1425c:	00 00 00 00 
   14260:	48 8d 05 e9 9d 00 00 	lea    0x9de9(%rip),%rax        # 1e050 <g_34>
   14267:	48 89 85 c8 f6 ff ff 	mov    %rax,-0x938(%rbp)
   1426e:	48 c7 85 d0 f6 ff ff 	movq   $0x0,-0x930(%rbp)
   14275:	00 00 00 00 
   14279:	48 8d 05 d0 9d 00 00 	lea    0x9dd0(%rip),%rax        # 1e050 <g_34>
   14280:	48 89 85 d8 f6 ff ff 	mov    %rax,-0x928(%rbp)
   14287:	48 8d 05 c2 9d 00 00 	lea    0x9dc2(%rip),%rax        # 1e050 <g_34>
   1428e:	48 89 85 e0 f6 ff ff 	mov    %rax,-0x920(%rbp)
   14295:	48 c7 85 e8 f6 ff ff 	movq   $0x0,-0x918(%rbp)
   1429c:	00 00 00 00 
   142a0:	48 8d 05 a9 9d 00 00 	lea    0x9da9(%rip),%rax        # 1e050 <g_34>
   142a7:	48 89 85 f0 f6 ff ff 	mov    %rax,-0x910(%rbp)
   142ae:	48 8d 05 9b 9d 00 00 	lea    0x9d9b(%rip),%rax        # 1e050 <g_34>
   142b5:	48 89 85 f8 f6 ff ff 	mov    %rax,-0x908(%rbp)
   142bc:	48 8d 85 b0 f2 ff ff 	lea    -0xd50(%rbp),%rax
   142c3:	48 83 c0 10          	add    $0x10,%rax
   142c7:	48 89 85 00 f7 ff ff 	mov    %rax,-0x900(%rbp)
   142ce:	48 8d 05 7b 9d 00 00 	lea    0x9d7b(%rip),%rax        # 1e050 <g_34>
   142d5:	48 89 85 08 f7 ff ff 	mov    %rax,-0x8f8(%rbp)
   142dc:	48 8d 05 6d 9d 00 00 	lea    0x9d6d(%rip),%rax        # 1e050 <g_34>
   142e3:	48 89 85 10 f7 ff ff 	mov    %rax,-0x8f0(%rbp)
   142ea:	48 8d 85 b0 f2 ff ff 	lea    -0xd50(%rbp),%rax
   142f1:	48 83 c0 14          	add    $0x14,%rax
   142f5:	48 89 85 18 f7 ff ff 	mov    %rax,-0x8e8(%rbp)
   142fc:	48 8d 85 b0 f2 ff ff 	lea    -0xd50(%rbp),%rax
   14303:	48 83 c0 10          	add    $0x10,%rax
   14307:	48 89 85 20 f7 ff ff 	mov    %rax,-0x8e0(%rbp)
   1430e:	48 8d 85 b0 f2 ff ff 	lea    -0xd50(%rbp),%rax
   14315:	48 83 c0 10          	add    $0x10,%rax
   14319:	48 89 85 28 f7 ff ff 	mov    %rax,-0x8d8(%rbp)
   14320:	48 8d 05 29 9d 00 00 	lea    0x9d29(%rip),%rax        # 1e050 <g_34>
   14327:	48 89 85 30 f7 ff ff 	mov    %rax,-0x8d0(%rbp)
   1432e:	48 8d 05 1b 9d 00 00 	lea    0x9d1b(%rip),%rax        # 1e050 <g_34>
   14335:	48 89 85 38 f7 ff ff 	mov    %rax,-0x8c8(%rbp)
   1433c:	48 8d 05 0d 9d 00 00 	lea    0x9d0d(%rip),%rax        # 1e050 <g_34>
   14343:	48 89 85 40 f7 ff ff 	mov    %rax,-0x8c0(%rbp)
   1434a:	48 8d 85 b0 f2 ff ff 	lea    -0xd50(%rbp),%rax
   14351:	48 83 c0 10          	add    $0x10,%rax
   14355:	48 89 85 48 f7 ff ff 	mov    %rax,-0x8b8(%rbp)
   1435c:	48 c7 85 50 f7 ff ff 	movq   $0x0,-0x8b0(%rbp)
   14363:	00 00 00 00 
   14367:	48 8d 85 b0 f2 ff ff 	lea    -0xd50(%rbp),%rax
   1436e:	48 83 c0 14          	add    $0x14,%rax
   14372:	48 89 85 58 f7 ff ff 	mov    %rax,-0x8a8(%rbp)
   14379:	48 c7 85 60 f7 ff ff 	movq   $0x0,-0x8a0(%rbp)
   14380:	00 00 00 00 
   14384:	48 8d 05 c5 9c 00 00 	lea    0x9cc5(%rip),%rax        # 1e050 <g_34>
   1438b:	48 89 85 68 f7 ff ff 	mov    %rax,-0x898(%rbp)
   14392:	48 c7 85 70 f7 ff ff 	movq   $0x0,-0x890(%rbp)
   14399:	00 00 00 00 
   1439d:	48 8d 05 ac 9c 00 00 	lea    0x9cac(%rip),%rax        # 1e050 <g_34>
   143a4:	48 89 85 78 f7 ff ff 	mov    %rax,-0x888(%rbp)
   143ab:	48 8d 05 9e 9c 00 00 	lea    0x9c9e(%rip),%rax        # 1e050 <g_34>
   143b2:	48 89 85 80 f7 ff ff 	mov    %rax,-0x880(%rbp)
   143b9:	48 c7 85 88 f7 ff ff 	movq   $0x0,-0x878(%rbp)
   143c0:	00 00 00 00 
   143c4:	48 8d 05 85 9c 00 00 	lea    0x9c85(%rip),%rax        # 1e050 <g_34>
   143cb:	48 89 85 90 f7 ff ff 	mov    %rax,-0x870(%rbp)
   143d2:	48 8d 05 77 9c 00 00 	lea    0x9c77(%rip),%rax        # 1e050 <g_34>
   143d9:	48 89 85 98 f7 ff ff 	mov    %rax,-0x868(%rbp)
   143e0:	48 8d 85 b0 f2 ff ff 	lea    -0xd50(%rbp),%rax
   143e7:	48 83 c0 10          	add    $0x10,%rax
   143eb:	48 89 85 a0 f7 ff ff 	mov    %rax,-0x860(%rbp)
   143f2:	48 8d 05 57 9c 00 00 	lea    0x9c57(%rip),%rax        # 1e050 <g_34>
   143f9:	48 89 85 a8 f7 ff ff 	mov    %rax,-0x858(%rbp)
   14400:	48 8d 05 49 9c 00 00 	lea    0x9c49(%rip),%rax        # 1e050 <g_34>
   14407:	48 89 85 b0 f7 ff ff 	mov    %rax,-0x850(%rbp)
   1440e:	48 8d 85 b0 f2 ff ff 	lea    -0xd50(%rbp),%rax
   14415:	48 83 c0 14          	add    $0x14,%rax
   14419:	48 89 85 b8 f7 ff ff 	mov    %rax,-0x848(%rbp)
   14420:	48 8d 85 b0 f2 ff ff 	lea    -0xd50(%rbp),%rax
   14427:	48 83 c0 10          	add    $0x10,%rax
   1442b:	48 89 85 c0 f7 ff ff 	mov    %rax,-0x840(%rbp)
   14432:	48 8d 85 b0 f2 ff ff 	lea    -0xd50(%rbp),%rax
   14439:	48 83 c0 10          	add    $0x10,%rax
   1443d:	48 89 85 c8 f7 ff ff 	mov    %rax,-0x838(%rbp)
   14444:	48 8d 05 05 9c 00 00 	lea    0x9c05(%rip),%rax        # 1e050 <g_34>
   1444b:	48 89 85 d0 f7 ff ff 	mov    %rax,-0x830(%rbp)
   14452:	48 8d 05 f7 9b 00 00 	lea    0x9bf7(%rip),%rax        # 1e050 <g_34>
   14459:	48 89 85 d8 f7 ff ff 	mov    %rax,-0x828(%rbp)
   14460:	48 8d 05 e9 9b 00 00 	lea    0x9be9(%rip),%rax        # 1e050 <g_34>
   14467:	48 89 85 e0 f7 ff ff 	mov    %rax,-0x820(%rbp)
   1446e:	48 8d 85 b0 f2 ff ff 	lea    -0xd50(%rbp),%rax
   14475:	48 83 c0 10          	add    $0x10,%rax
   14479:	48 89 85 e8 f7 ff ff 	mov    %rax,-0x818(%rbp)
   14480:	48 c7 85 f0 f7 ff ff 	movq   $0x0,-0x810(%rbp)
   14487:	00 00 00 00 
   1448b:	48 8d 85 b0 f2 ff ff 	lea    -0xd50(%rbp),%rax
   14492:	48 83 c0 14          	add    $0x14,%rax
   14496:	48 89 85 f8 f7 ff ff 	mov    %rax,-0x808(%rbp)
   1449d:	48 c7 85 00 f8 ff ff 	movq   $0x0,-0x800(%rbp)
   144a4:	00 00 00 00 
   144a8:	48 8d 05 a1 9b 00 00 	lea    0x9ba1(%rip),%rax        # 1e050 <g_34>
   144af:	48 89 85 08 f8 ff ff 	mov    %rax,-0x7f8(%rbp)
   144b6:	48 c7 85 10 f8 ff ff 	movq   $0x0,-0x7f0(%rbp)
   144bd:	00 00 00 00 
   144c1:	48 8d 05 88 9b 00 00 	lea    0x9b88(%rip),%rax        # 1e050 <g_34>
   144c8:	48 89 85 18 f8 ff ff 	mov    %rax,-0x7e8(%rbp)
   144cf:	48 8d 05 7a 9b 00 00 	lea    0x9b7a(%rip),%rax        # 1e050 <g_34>
   144d6:	48 89 85 20 f8 ff ff 	mov    %rax,-0x7e0(%rbp)
   144dd:	48 c7 85 28 f8 ff ff 	movq   $0x0,-0x7d8(%rbp)
   144e4:	00 00 00 00 
   144e8:	48 8d 05 61 9b 00 00 	lea    0x9b61(%rip),%rax        # 1e050 <g_34>
   144ef:	48 89 85 30 f8 ff ff 	mov    %rax,-0x7d0(%rbp)
   144f6:	48 8d 05 53 9b 00 00 	lea    0x9b53(%rip),%rax        # 1e050 <g_34>
   144fd:	48 89 85 38 f8 ff ff 	mov    %rax,-0x7c8(%rbp)
   14504:	48 8d 85 b0 f2 ff ff 	lea    -0xd50(%rbp),%rax
   1450b:	48 83 c0 10          	add    $0x10,%rax
   1450f:	48 89 85 40 f8 ff ff 	mov    %rax,-0x7c0(%rbp)
   14516:	48 8d 05 33 9b 00 00 	lea    0x9b33(%rip),%rax        # 1e050 <g_34>
   1451d:	48 89 85 48 f8 ff ff 	mov    %rax,-0x7b8(%rbp)
   14524:	48 8d 05 25 9b 00 00 	lea    0x9b25(%rip),%rax        # 1e050 <g_34>
   1452b:	48 89 85 50 f8 ff ff 	mov    %rax,-0x7b0(%rbp)
   14532:	48 8d 85 b0 f2 ff ff 	lea    -0xd50(%rbp),%rax
   14539:	48 83 c0 14          	add    $0x14,%rax
   1453d:	48 89 85 58 f8 ff ff 	mov    %rax,-0x7a8(%rbp)
   14544:	48 8d 85 b0 f2 ff ff 	lea    -0xd50(%rbp),%rax
   1454b:	48 83 c0 10          	add    $0x10,%rax
   1454f:	48 89 85 60 f8 ff ff 	mov    %rax,-0x7a0(%rbp)
   14556:	48 8d 85 b0 f2 ff ff 	lea    -0xd50(%rbp),%rax
   1455d:	48 83 c0 10          	add    $0x10,%rax
   14561:	48 89 85 68 f8 ff ff 	mov    %rax,-0x798(%rbp)
   14568:	48 8d 05 e1 9a 00 00 	lea    0x9ae1(%rip),%rax        # 1e050 <g_34>
   1456f:	48 89 85 70 f8 ff ff 	mov    %rax,-0x790(%rbp)
   14576:	48 8d 05 d3 9a 00 00 	lea    0x9ad3(%rip),%rax        # 1e050 <g_34>
   1457d:	48 89 85 78 f8 ff ff 	mov    %rax,-0x788(%rbp)
   14584:	48 8d 05 c5 9a 00 00 	lea    0x9ac5(%rip),%rax        # 1e050 <g_34>
   1458b:	48 89 85 80 f8 ff ff 	mov    %rax,-0x780(%rbp)
   14592:	48 8d 85 b0 f2 ff ff 	lea    -0xd50(%rbp),%rax
   14599:	48 83 c0 10          	add    $0x10,%rax
   1459d:	48 89 85 88 f8 ff ff 	mov    %rax,-0x778(%rbp)
   145a4:	48 c7 85 90 f8 ff ff 	movq   $0x0,-0x770(%rbp)
   145ab:	00 00 00 00 
   145af:	48 8d 85 b0 f2 ff ff 	lea    -0xd50(%rbp),%rax
   145b6:	48 83 c0 14          	add    $0x14,%rax
   145ba:	48 89 85 98 f8 ff ff 	mov    %rax,-0x768(%rbp)
   145c1:	48 c7 85 a0 f8 ff ff 	movq   $0x0,-0x760(%rbp)
   145c8:	00 00 00 00 
   145cc:	48 8d 05 7d 9a 00 00 	lea    0x9a7d(%rip),%rax        # 1e050 <g_34>
   145d3:	48 89 85 a8 f8 ff ff 	mov    %rax,-0x758(%rbp)
   145da:	48 c7 85 b0 f8 ff ff 	movq   $0x0,-0x750(%rbp)
   145e1:	00 00 00 00 
   145e5:	48 8d 05 64 9a 00 00 	lea    0x9a64(%rip),%rax        # 1e050 <g_34>
   145ec:	48 89 85 b8 f8 ff ff 	mov    %rax,-0x748(%rbp)
   145f3:	48 8d 05 56 9a 00 00 	lea    0x9a56(%rip),%rax        # 1e050 <g_34>
   145fa:	48 89 85 c0 f8 ff ff 	mov    %rax,-0x740(%rbp)
   14601:	48 c7 85 c8 f8 ff ff 	movq   $0x0,-0x738(%rbp)
   14608:	00 00 00 00 
   1460c:	48 8d 05 3d 9a 00 00 	lea    0x9a3d(%rip),%rax        # 1e050 <g_34>
   14613:	48 89 85 d0 f8 ff ff 	mov    %rax,-0x730(%rbp)
   1461a:	48 8d 05 2f 9a 00 00 	lea    0x9a2f(%rip),%rax        # 1e050 <g_34>
   14621:	48 89 85 d8 f8 ff ff 	mov    %rax,-0x728(%rbp)
   14628:	48 8d 85 b0 f2 ff ff 	lea    -0xd50(%rbp),%rax
   1462f:	48 83 c0 10          	add    $0x10,%rax
   14633:	48 89 85 e0 f8 ff ff 	mov    %rax,-0x720(%rbp)
   1463a:	48 8d 05 0f 9a 00 00 	lea    0x9a0f(%rip),%rax        # 1e050 <g_34>
   14641:	48 89 85 e8 f8 ff ff 	mov    %rax,-0x718(%rbp)
   14648:	48 8d 05 01 9a 00 00 	lea    0x9a01(%rip),%rax        # 1e050 <g_34>
   1464f:	48 89 85 f0 f8 ff ff 	mov    %rax,-0x710(%rbp)
   14656:	48 8d 85 b0 f2 ff ff 	lea    -0xd50(%rbp),%rax
   1465d:	48 83 c0 14          	add    $0x14,%rax
   14661:	48 89 85 f8 f8 ff ff 	mov    %rax,-0x708(%rbp)
   14668:	48 8d 85 b0 f2 ff ff 	lea    -0xd50(%rbp),%rax
   1466f:	48 83 c0 10          	add    $0x10,%rax
   14673:	48 89 85 00 f9 ff ff 	mov    %rax,-0x700(%rbp)
   1467a:	48 8d 85 b0 f2 ff ff 	lea    -0xd50(%rbp),%rax
   14681:	48 83 c0 10          	add    $0x10,%rax
   14685:	48 89 85 08 f9 ff ff 	mov    %rax,-0x6f8(%rbp)
   1468c:	48 8d 05 bd 99 00 00 	lea    0x99bd(%rip),%rax        # 1e050 <g_34>
   14693:	48 89 85 10 f9 ff ff 	mov    %rax,-0x6f0(%rbp)
   1469a:	48 8d 05 af 99 00 00 	lea    0x99af(%rip),%rax        # 1e050 <g_34>
   146a1:	48 89 85 18 f9 ff ff 	mov    %rax,-0x6e8(%rbp)
   146a8:	48 8d 05 a1 99 00 00 	lea    0x99a1(%rip),%rax        # 1e050 <g_34>
   146af:	48 89 85 20 f9 ff ff 	mov    %rax,-0x6e0(%rbp)
   146b6:	48 8d 85 b0 f2 ff ff 	lea    -0xd50(%rbp),%rax
   146bd:	48 83 c0 10          	add    $0x10,%rax
   146c1:	48 89 85 28 f9 ff ff 	mov    %rax,-0x6d8(%rbp)
   146c8:	48 c7 85 30 f9 ff ff 	movq   $0x0,-0x6d0(%rbp)
   146cf:	00 00 00 00 
   146d3:	48 8d 85 b0 f2 ff ff 	lea    -0xd50(%rbp),%rax
   146da:	48 83 c0 14          	add    $0x14,%rax
   146de:	48 89 85 38 f9 ff ff 	mov    %rax,-0x6c8(%rbp)
   146e5:	48 c7 85 40 f9 ff ff 	movq   $0x0,-0x6c0(%rbp)
   146ec:	00 00 00 00 
   146f0:	48 8d 05 59 99 00 00 	lea    0x9959(%rip),%rax        # 1e050 <g_34>
   146f7:	48 89 85 48 f9 ff ff 	mov    %rax,-0x6b8(%rbp)
   146fe:	48 c7 85 50 f9 ff ff 	movq   $0x0,-0x6b0(%rbp)
   14705:	00 00 00 00 
   14709:	48 8d 05 40 99 00 00 	lea    0x9940(%rip),%rax        # 1e050 <g_34>
   14710:	48 89 85 58 f9 ff ff 	mov    %rax,-0x6a8(%rbp)
   14717:	48 8d 05 32 99 00 00 	lea    0x9932(%rip),%rax        # 1e050 <g_34>
   1471e:	48 89 85 60 f9 ff ff 	mov    %rax,-0x6a0(%rbp)
   14725:	48 c7 85 68 f9 ff ff 	movq   $0x0,-0x698(%rbp)
   1472c:	00 00 00 00 
   14730:	48 8d 05 19 99 00 00 	lea    0x9919(%rip),%rax        # 1e050 <g_34>
   14737:	48 89 85 70 f9 ff ff 	mov    %rax,-0x690(%rbp)
   1473e:	48 8d 05 0b 99 00 00 	lea    0x990b(%rip),%rax        # 1e050 <g_34>
   14745:	48 89 85 78 f9 ff ff 	mov    %rax,-0x688(%rbp)
   1474c:	48 8d 85 b0 f2 ff ff 	lea    -0xd50(%rbp),%rax
   14753:	48 83 c0 10          	add    $0x10,%rax
   14757:	48 89 85 80 f9 ff ff 	mov    %rax,-0x680(%rbp)
   1475e:	48 8d 05 eb 98 00 00 	lea    0x98eb(%rip),%rax        # 1e050 <g_34>
   14765:	48 89 85 88 f9 ff ff 	mov    %rax,-0x678(%rbp)
   1476c:	48 8d 05 dd 98 00 00 	lea    0x98dd(%rip),%rax        # 1e050 <g_34>
   14773:	48 89 85 90 f9 ff ff 	mov    %rax,-0x670(%rbp)
   1477a:	48 8d 85 b0 f2 ff ff 	lea    -0xd50(%rbp),%rax
   14781:	48 83 c0 14          	add    $0x14,%rax
   14785:	48 89 85 98 f9 ff ff 	mov    %rax,-0x668(%rbp)
   1478c:	48 8d 85 b0 f2 ff ff 	lea    -0xd50(%rbp),%rax
   14793:	48 83 c0 10          	add    $0x10,%rax
   14797:	48 89 85 a0 f9 ff ff 	mov    %rax,-0x660(%rbp)
   1479e:	48 8d 85 b0 f2 ff ff 	lea    -0xd50(%rbp),%rax
   147a5:	48 83 c0 10          	add    $0x10,%rax
   147a9:	48 89 85 a8 f9 ff ff 	mov    %rax,-0x658(%rbp)
   147b0:	48 8d 05 99 98 00 00 	lea    0x9899(%rip),%rax        # 1e050 <g_34>
   147b7:	48 89 85 b0 f9 ff ff 	mov    %rax,-0x650(%rbp)
   147be:	48 8d 05 8b 98 00 00 	lea    0x988b(%rip),%rax        # 1e050 <g_34>
   147c5:	48 89 85 b8 f9 ff ff 	mov    %rax,-0x648(%rbp)
   147cc:	48 c7 85 c0 f9 ff ff 	movq   $0x0,-0x640(%rbp)
   147d3:	00 00 00 00 
   147d7:	48 8d 85 b0 f2 ff ff 	lea    -0xd50(%rbp),%rax
   147de:	48 83 c0 14          	add    $0x14,%rax
   147e2:	48 89 85 c8 f9 ff ff 	mov    %rax,-0x638(%rbp)
   147e9:	66 c7 85 f0 f0 ff ff 	movw   $0x915d,-0xf10(%rbp)
   147f0:	5d 91 
   147f2:	48 8d 85 d0 f9 ff ff 	lea    -0x630(%rbp),%rax
   147f9:	48 8d 15 c0 59 00 00 	lea    0x59c0(%rip),%rdx        # 1a1c0 <g_1290+0x1158>
   14800:	b9 bd 00 00 00       	mov    $0xbd,%ecx
   14805:	48 89 c7             	mov    %rax,%rdi
   14808:	48 89 d6             	mov    %rdx,%rsi
   1480b:	f3 48 a5             	rep movsq %ds:(%rsi),%es:(%rdi)
   1480e:	c7 85 04 f1 ff ff 00 	movl   $0x0,-0xefc(%rbp)
   14815:	00 00 00 
   14818:	eb 1b                	jmp    14835 <func_66+0x9c6>
   1481a:	8b 85 04 f1 ff ff    	mov    -0xefc(%rbp),%eax
   14820:	48 98                	cltq   
   14822:	48 c7 84 c5 80 f2 ff 	movq   $0x0,-0xd80(%rbp,%rax,8)
   14829:	ff 00 00 00 00 
   1482e:	83 85 04 f1 ff ff 01 	addl   $0x1,-0xefc(%rbp)
   14835:	83 bd 04 f1 ff ff 01 	cmpl   $0x1,-0xefc(%rbp)
   1483c:	7e dc                	jle    1481a <func_66+0x9ab>
   1483e:	90                   	nop
   1483f:	83 ad 00 f1 ff ff 01 	subl   $0x1,-0xf00(%rbp)
   14846:	48 8b 85 88 f1 ff ff 	mov    -0xe78(%rbp),%rax
   1484d:	0f b6 00             	movzbl (%rax),%eax
   14850:	89 c2                	mov    %eax,%edx
   14852:	8b 85 d8 f0 ff ff    	mov    -0xf28(%rbp),%eax
   14858:	31 c2                	xor    %eax,%edx
   1485a:	48 8b 85 88 f1 ff ff 	mov    -0xe78(%rbp),%rax
   14861:	88 10                	mov    %dl,(%rax)
   14863:	0f bf 95 dc f0 ff ff 	movswl -0xf24(%rbp),%edx
   1486a:	66 83 bd dc f0 ff ff 	cmpw   $0x0,-0xf24(%rbp)
   14871:	00 
   14872:	75 0a                	jne    1487e <func_66+0xa0f>
   14874:	66 83 bd dc f0 ff ff 	cmpw   $0x0,-0xf24(%rbp)
   1487b:	00 
   1487c:	74 07                	je     14885 <func_66+0xa16>
   1487e:	b8 01 00 00 00       	mov    $0x1,%eax
   14883:	eb 05                	jmp    1488a <func_66+0xa1b>
   14885:	b8 00 00 00 00       	mov    $0x0,%eax
   1488a:	88 45 c7             	mov    %al,-0x39(%rbp)
   1488d:	0f b6 45 c7          	movzbl -0x39(%rbp),%eax
   14891:	0f b6 c0             	movzbl %al,%eax
   14894:	66 89 85 6c f2 ff ff 	mov    %ax,-0xd94(%rbp)
   1489b:	0f b7 85 6c f2 ff ff 	movzwl -0xd94(%rbp),%eax
   148a2:	0f b7 c0             	movzwl %ax,%eax
   148a5:	39 c2                	cmp    %eax,%edx
   148a7:	b8 00 00 00 00       	mov    $0x0,%eax
   148ac:	89 85 bc f2 ff ff    	mov    %eax,-0xd44(%rbp)
   148b2:	c7 85 00 f1 ff ff 00 	movl   $0x0,-0xf00(%rbp)
   148b9:	00 00 00 
   148bc:	e9 2b 17 00 00       	jmpq   15fec <func_66+0x217d>
   148c1:	c7 85 fc f0 ff ff fd 	movl   $0xfffffffd,-0xf04(%rbp)
   148c8:	ff ff ff 
   148cb:	c7 85 08 f1 ff ff 00 	movl   $0x0,-0xef8(%rbp)
   148d2:	00 00 00 
   148d5:	48 c7 85 d0 f1 ff ff 	movq   $0x0,-0xe30(%rbp)
   148dc:	00 00 00 00 
   148e0:	c7 85 34 f1 ff ff 02 	movl   $0x2,-0xecc(%rbp)
   148e7:	00 00 00 
   148ea:	48 8d 05 67 47 00 00 	lea    0x4767(%rip),%rax        # 19058 <g_459>
   148f1:	48 89 85 d8 f1 ff ff 	mov    %rax,-0xe28(%rbp)
   148f8:	c7 85 0c f1 ff ff 00 	movl   $0x0,-0xef4(%rbp)
   148ff:	00 00 00 
   14902:	eb 1a                	jmp    1491e <func_66+0xaaf>
   14904:	8b 85 0c f1 ff ff    	mov    -0xef4(%rbp),%eax
   1490a:	48 98                	cltq   
   1490c:	c7 84 85 90 f2 ff ff 	movl   $0x1,-0xd70(%rbp,%rax,4)
   14913:	01 00 00 00 
   14917:	83 85 0c f1 ff ff 01 	addl   $0x1,-0xef4(%rbp)
   1491e:	83 bd 0c f1 ff ff 04 	cmpl   $0x4,-0xef4(%rbp)
   14925:	7e dd                	jle    14904 <func_66+0xa95>
   14927:	8b 85 fc f0 ff ff    	mov    -0xf04(%rbp),%eax
   1492d:	83 e8 01             	sub    $0x1,%eax
   14930:	89 85 fc f0 ff ff    	mov    %eax,-0xf04(%rbp)
   14936:	66 c7 05 8d ff 00 00 	movw   $0x0,0xff8d(%rip)        # 248cc <g_184>
   1493d:	00 00 
   1493f:	e9 90 16 00 00       	jmpq   15fd4 <func_66+0x2165>
   14944:	48 8d 85 fc f0 ff ff 	lea    -0xf04(%rbp),%rax
   1494b:	48 89 85 30 f3 ff ff 	mov    %rax,-0xcd0(%rbp)
   14952:	48 8d 85 fc f0 ff ff 	lea    -0xf04(%rbp),%rax
   14959:	48 89 85 38 f3 ff ff 	mov    %rax,-0xcc8(%rbp)
   14960:	48 8d 85 fc f0 ff ff 	lea    -0xf04(%rbp),%rax
   14967:	48 89 85 40 f3 ff ff 	mov    %rax,-0xcc0(%rbp)
   1496e:	48 8d 85 fc f0 ff ff 	lea    -0xf04(%rbp),%rax
   14975:	48 89 85 48 f3 ff ff 	mov    %rax,-0xcb8(%rbp)
   1497c:	48 8d 85 fc f0 ff ff 	lea    -0xf04(%rbp),%rax
   14983:	48 89 85 50 f3 ff ff 	mov    %rax,-0xcb0(%rbp)
   1498a:	48 8d 85 fc f0 ff ff 	lea    -0xf04(%rbp),%rax
   14991:	48 89 85 58 f3 ff ff 	mov    %rax,-0xca8(%rbp)
   14998:	48 8d 85 fc f0 ff ff 	lea    -0xf04(%rbp),%rax
   1499f:	48 89 85 60 f3 ff ff 	mov    %rax,-0xca0(%rbp)
   149a6:	48 8d 85 fc f0 ff ff 	lea    -0xf04(%rbp),%rax
   149ad:	48 89 85 68 f3 ff ff 	mov    %rax,-0xc98(%rbp)
   149b4:	48 8d 05 a5 97 00 00 	lea    0x97a5(%rip),%rax        # 1e160 <g_110>
   149bb:	48 89 85 e0 f1 ff ff 	mov    %rax,-0xe20(%rbp)
   149c2:	48 8d 05 c7 f3 00 00 	lea    0xf3c7(%rip),%rax        # 23d90 <g_165>
   149c9:	48 89 85 e8 f1 ff ff 	mov    %rax,-0xe18(%rbp)
   149d0:	c7 85 10 f1 ff ff 00 	movl   $0x0,-0xef0(%rbp)
   149d7:	00 00 00 
   149da:	c7 85 38 f1 ff ff ff 	movl   $0xffffffff,-0xec8(%rbp)
   149e1:	ff ff ff 
   149e4:	c7 85 3c f1 ff ff 00 	movl   $0x0,-0xec4(%rbp)
   149eb:	00 00 00 
   149ee:	c7 85 40 f1 ff ff e9 	movl   $0xdd3528e9,-0xec0(%rbp)
   149f5:	28 35 dd 
   149f8:	c7 85 44 f1 ff ff 07 	movl   $0x7,-0xebc(%rbp)
   149ff:	00 00 00 
   14a02:	c7 85 48 f1 ff ff ff 	movl   $0xffffffff,-0xeb8(%rbp)
   14a09:	ff ff ff 
   14a0c:	c7 85 e0 f3 ff ff 2d 	movl   $0xb450562d,-0xc20(%rbp)
   14a13:	56 50 b4 
   14a16:	c7 85 e4 f3 ff ff 01 	movl   $0x1,-0xc1c(%rbp)
   14a1d:	00 00 00 
   14a20:	c7 85 e8 f3 ff ff f7 	movl   $0xfffffff7,-0xc18(%rbp)
   14a27:	ff ff ff 
   14a2a:	c7 85 ec f3 ff ff 01 	movl   $0x1,-0xc14(%rbp)
   14a31:	00 00 00 
   14a34:	c7 85 f0 f3 ff ff 2d 	movl   $0xb450562d,-0xc10(%rbp)
   14a3b:	56 50 b4 
   14a3e:	c7 85 f4 f3 ff ff 01 	movl   $0x1,-0xc0c(%rbp)
   14a45:	00 00 00 
   14a48:	c7 85 f8 f3 ff ff d9 	movl   $0x20e440d9,-0xc08(%rbp)
   14a4f:	40 e4 20 
   14a52:	c7 85 fc f3 ff ff 08 	movl   $0x8,-0xc04(%rbp)
   14a59:	00 00 00 
   14a5c:	c7 85 00 f4 ff ff d9 	movl   $0x20e440d9,-0xc00(%rbp)
   14a63:	40 e4 20 
   14a66:	c7 85 04 f4 ff ff 01 	movl   $0x1,-0xbfc(%rbp)
   14a6d:	00 00 00 
   14a70:	c7 85 08 f4 ff ff d9 	movl   $0x20e440d9,-0xbf8(%rbp)
   14a77:	40 e4 20 
   14a7a:	c7 85 0c f4 ff ff 08 	movl   $0x8,-0xbf4(%rbp)
   14a81:	00 00 00 
   14a84:	c7 85 10 f4 ff ff 2d 	movl   $0xb450562d,-0xbf0(%rbp)
   14a8b:	56 50 b4 
   14a8e:	c7 85 14 f4 ff ff 08 	movl   $0x8,-0xbec(%rbp)
   14a95:	00 00 00 
   14a98:	c7 85 18 f4 ff ff f7 	movl   $0xfffffff7,-0xbe8(%rbp)
   14a9f:	ff ff ff 
   14aa2:	c7 85 1c f4 ff ff 08 	movl   $0x8,-0xbe4(%rbp)
   14aa9:	00 00 00 
   14aac:	c7 85 20 f4 ff ff 2d 	movl   $0xb450562d,-0xbe0(%rbp)
   14ab3:	56 50 b4 
   14ab6:	c7 85 24 f4 ff ff 08 	movl   $0x8,-0xbdc(%rbp)
   14abd:	00 00 00 
   14ac0:	c7 85 28 f4 ff ff d9 	movl   $0x20e440d9,-0xbd8(%rbp)
   14ac7:	40 e4 20 
   14aca:	c7 85 2c f4 ff ff 01 	movl   $0x1,-0xbd4(%rbp)
   14ad1:	00 00 00 
   14ad4:	c7 85 30 f4 ff ff d9 	movl   $0x20e440d9,-0xbd0(%rbp)
   14adb:	40 e4 20 
   14ade:	c7 85 34 f4 ff ff 08 	movl   $0x8,-0xbcc(%rbp)
   14ae5:	00 00 00 
   14ae8:	c7 85 38 f4 ff ff d9 	movl   $0x20e440d9,-0xbc8(%rbp)
   14aef:	40 e4 20 
   14af2:	c7 85 3c f4 ff ff 01 	movl   $0x1,-0xbc4(%rbp)
   14af9:	00 00 00 
   14afc:	c7 85 40 f4 ff ff 2d 	movl   $0xb450562d,-0xbc0(%rbp)
   14b03:	56 50 b4 
   14b06:	c7 85 44 f4 ff ff 01 	movl   $0x1,-0xbbc(%rbp)
   14b0d:	00 00 00 
   14b10:	c7 85 48 f4 ff ff f7 	movl   $0xfffffff7,-0xbb8(%rbp)
   14b17:	ff ff ff 
   14b1a:	c7 85 4c f4 ff ff 01 	movl   $0x1,-0xbb4(%rbp)
   14b21:	00 00 00 
   14b24:	c7 85 50 f4 ff ff 2d 	movl   $0xb450562d,-0xbb0(%rbp)
   14b2b:	56 50 b4 
   14b2e:	c7 85 54 f4 ff ff 01 	movl   $0x1,-0xbac(%rbp)
   14b35:	00 00 00 
   14b38:	c7 85 58 f4 ff ff d9 	movl   $0x20e440d9,-0xba8(%rbp)
   14b3f:	40 e4 20 
   14b42:	c7 85 5c f4 ff ff 08 	movl   $0x8,-0xba4(%rbp)
   14b49:	00 00 00 
   14b4c:	c7 85 60 f4 ff ff d9 	movl   $0x20e440d9,-0xba0(%rbp)
   14b53:	40 e4 20 
   14b56:	c7 85 64 f4 ff ff 01 	movl   $0x1,-0xb9c(%rbp)
   14b5d:	00 00 00 
   14b60:	c7 85 68 f4 ff ff d9 	movl   $0x20e440d9,-0xb98(%rbp)
   14b67:	40 e4 20 
   14b6a:	c7 85 6c f4 ff ff 08 	movl   $0x8,-0xb94(%rbp)
   14b71:	00 00 00 
   14b74:	66 c7 85 ec f0 ff ff 	movw   $0xb63e,-0xf14(%rbp)
   14b7b:	3e b6 
   14b7d:	48 8d 45 c0          	lea    -0x40(%rbp),%rax
   14b81:	48 83 c0 07          	add    $0x7,%rax
   14b85:	48 89 85 f0 f1 ff ff 	mov    %rax,-0xe10(%rbp)
   14b8c:	48 83 bd a8 f1 ff ff 	cmpq   $0x0,-0xe58(%rbp)
   14b93:	00 
   14b94:	0f 94 c0             	sete   %al
   14b97:	0f b6 d0             	movzbl %al,%edx
   14b9a:	0f b7 05 2b fd 00 00 	movzwl 0xfd2b(%rip),%eax        # 248cc <g_184>
   14ba1:	0f b7 c0             	movzwl %ax,%eax
   14ba4:	48 98                	cltq   
   14ba6:	0f b7 84 45 6a f2 ff 	movzwl -0xd96(%rbp,%rax,2),%eax
   14bad:	ff 
   14bae:	0f b7 c0             	movzwl %ax,%eax
   14bb1:	89 85 08 f1 ff ff    	mov    %eax,-0xef8(%rbp)
   14bb7:	8b 85 08 f1 ff ff    	mov    -0xef8(%rbp),%eax
   14bbd:	89 85 d8 f0 ff ff    	mov    %eax,-0xf28(%rbp)
   14bc3:	8b 85 fc f0 ff ff    	mov    -0xf04(%rbp),%eax
   14bc9:	89 85 98 f2 ff ff    	mov    %eax,-0xd68(%rbp)
   14bcf:	8b 85 98 f2 ff ff    	mov    -0xd68(%rbp),%eax
   14bd5:	39 85 d8 f0 ff ff    	cmp    %eax,-0xf28(%rbp)
   14bdb:	0f 92 c0             	setb   %al
   14bde:	0f b6 c8             	movzbl %al,%ecx
   14be1:	48 8b 85 a8 f1 ff ff 	mov    -0xe58(%rbp),%rax
   14be8:	89 08                	mov    %ecx,(%rax)
   14bea:	48 8b 85 a8 f1 ff ff 	mov    -0xe58(%rbp),%rax
   14bf1:	8b 00                	mov    (%rax),%eax
   14bf3:	85 c0                	test   %eax,%eax
   14bf5:	0f 9e c0             	setle  %al
   14bf8:	89 c1                	mov    %eax,%ecx
   14bfa:	0f b7 05 cb fc 00 00 	movzwl 0xfccb(%rip),%eax        # 248cc <g_184>
   14c01:	0f b7 c0             	movzwl %ax,%eax
   14c04:	83 c0 02             	add    $0x2,%eax
   14c07:	f7 d1                	not    %ecx
   14c09:	89 ce                	mov    %ecx,%esi
   14c0b:	48 63 c8             	movslq %eax,%rcx
   14c0e:	40 88 74 0d c0       	mov    %sil,-0x40(%rbp,%rcx,1)
   14c13:	48 98                	cltq   
   14c15:	0f b6 44 05 c0       	movzbl -0x40(%rbp,%rax,1),%eax
   14c1a:	0f b6 c0             	movzbl %al,%eax
   14c1d:	89 d6                	mov    %edx,%esi
   14c1f:	89 c7                	mov    %eax,%edi
   14c21:	e8 67 50 ff ff       	callq  9c8d <safe_rshift_func_uint8_t_u_s>
   14c26:	84 c0                	test   %al,%al
   14c28:	0f 84 ff 03 00 00    	je     1502d <func_66+0x11be>
   14c2e:	66 c7 85 a0 f1 ff ff 	movw   $0xffff,-0xe60(%rbp)
   14c35:	ff ff 
   14c37:	48 8d 05 52 f1 00 00 	lea    0xf152(%rip),%rax        # 23d90 <g_165>
   14c3e:	48 89 85 20 f2 ff ff 	mov    %rax,-0xde0(%rbp)
   14c45:	c7 85 74 f1 ff ff f6 	movl   $0xfffffff6,-0xe8c(%rbp)
   14c4c:	ff ff ff 
   14c4f:	c7 85 78 f1 ff ff fa 	movl   $0xfffffffa,-0xe88(%rbp)
   14c56:	ff ff ff 
   14c59:	c7 85 14 f1 ff ff 00 	movl   $0x0,-0xeec(%rbp)
   14c60:	00 00 00 
   14c63:	eb 1b                	jmp    14c80 <func_66+0xe11>
   14c65:	8b 85 14 f1 ff ff    	mov    -0xeec(%rbp),%eax
   14c6b:	48 98                	cltq   
   14c6d:	48 c7 84 c5 70 f4 ff 	movq   $0x0,-0xb90(%rbp,%rax,8)
   14c74:	ff 00 00 00 00 
   14c79:	83 85 14 f1 ff ff 01 	addl   $0x1,-0xeec(%rbp)
   14c80:	83 bd 14 f1 ff ff 00 	cmpl   $0x0,-0xeec(%rbp)
   14c87:	7e dc                	jle    14c65 <func_66+0xdf6>
   14c89:	c6 05 b8 93 00 00 01 	movb   $0x1,0x93b8(%rip)        # 1e048 <g_22>
   14c90:	90                   	nop
   14c91:	0f b6 05 b0 93 00 00 	movzbl 0x93b0(%rip),%eax        # 1e048 <g_22>
   14c98:	3c 04                	cmp    $0x4,%al
   14c9a:	0f 8f 7e 02 00 00    	jg     14f1e <func_66+0x10af>
   14ca0:	c7 85 18 f1 ff ff 00 	movl   $0x0,-0xee8(%rbp)
   14ca7:	00 00 00 
   14caa:	eb 14                	jmp    14cc0 <func_66+0xe51>
   14cac:	8b 85 18 f1 ff ff    	mov    -0xee8(%rbp),%eax
   14cb2:	48 98                	cltq   
   14cb4:	c6 44 05 ba f5       	movb   $0xf5,-0x46(%rbp,%rax,1)
   14cb9:	83 85 18 f1 ff ff 01 	addl   $0x1,-0xee8(%rbp)
   14cc0:	83 bd 18 f1 ff ff 02 	cmpl   $0x2,-0xee8(%rbp)
   14cc7:	7e e3                	jle    14cac <func_66+0xe3d>
   14cc9:	48 c7 05 b4 94 00 00 	movq   $0x4,0x94b4(%rip)        # 1e188 <g_147>
   14cd0:	04 00 00 00 
   14cd4:	e9 26 02 00 00       	jmpq   14eff <func_66+0x1090>
   14cd9:	8b 05 89 93 00 00    	mov    0x9389(%rip),%eax        # 1e068 <g_37>
   14cdf:	0f be d8             	movsbl %al,%ebx
   14ce2:	44 0f bf a5 dc f0 ff 	movswl -0xf24(%rbp),%r12d
   14ce9:	ff 
   14cea:	66 83 bd dc f0 ff ff 	cmpw   $0x0,-0xf24(%rbp)
   14cf1:	00 
   14cf2:	0f 84 d8 00 00 00    	je     14dd0 <func_66+0xf61>
   14cf8:	8b 85 d8 f0 ff ff    	mov    -0xf28(%rbp),%eax
   14cfe:	0f b7 c0             	movzwl %ax,%eax
   14d01:	be 0a 00 00 00       	mov    $0xa,%esi
   14d06:	89 c7                	mov    %eax,%edi
   14d08:	e8 b1 50 ff ff       	callq  9dbe <safe_lshift_func_uint16_t_u_s>
   14d0d:	0f b7 d0             	movzwl %ax,%edx
   14d10:	48 8b 85 e0 f1 ff ff 	mov    -0xe20(%rbp),%rax
   14d17:	48 89 10             	mov    %rdx,(%rax)
   14d1a:	48 8b 85 e0 f1 ff ff 	mov    -0xe20(%rbp),%rax
   14d21:	4c 8b 30             	mov    (%rax),%r14
   14d24:	0f b6 05 4f 94 00 00 	movzbl 0x944f(%rip),%eax        # 1e17a <g_145+0xa>
   14d2b:	44 0f be e8          	movsbl %al,%r13d
   14d2f:	0f b6 45 bc          	movzbl -0x44(%rbp),%eax
   14d33:	0f be c0             	movsbl %al,%eax
   14d36:	89 c6                	mov    %eax,%esi
   14d38:	bf ee ff ff ff       	mov    $0xffffffee,%edi
   14d3d:	e8 d0 44 ff ff       	callq  9212 <safe_mul_func_int8_t_s_s>
   14d42:	0f be c0             	movsbl %al,%eax
   14d45:	44 89 ee             	mov    %r13d,%esi
   14d48:	89 c7                	mov    %eax,%edi
   14d4a:	e8 43 47 ff ff       	callq  9492 <safe_lshift_func_int16_t_s_s>
   14d4f:	0f be c0             	movsbl %al,%eax
   14d52:	be 06 00 00 00       	mov    $0x6,%esi
   14d57:	89 c7                	mov    %eax,%edi
   14d59:	e8 d7 45 ff ff       	callq  9335 <safe_rshift_func_int8_t_s_s>
   14d5e:	0f be c0             	movsbl %al,%eax
   14d61:	39 85 d8 f0 ff ff    	cmp    %eax,-0xf28(%rbp)
   14d67:	74 0a                	je     14d73 <func_66+0xf04>
   14d69:	8b 05 e1 92 00 00    	mov    0x92e1(%rip),%eax        # 1e050 <g_34>
   14d6f:	85 c0                	test   %eax,%eax
   14d71:	74 07                	je     14d7a <func_66+0xf0b>
   14d73:	b8 01 00 00 00       	mov    $0x1,%eax
   14d78:	eb 05                	jmp    14d7f <func_66+0xf10>
   14d7a:	b8 00 00 00 00       	mov    $0x0,%eax
   14d7f:	f7 d0                	not    %eax
   14d81:	39 85 d8 f0 ff ff    	cmp    %eax,-0xf28(%rbp)
   14d87:	0f 92 c0             	setb   %al
   14d8a:	0f b6 c0             	movzbl %al,%eax
   14d8d:	49 39 c6             	cmp    %rax,%r14
   14d90:	0f 96 c0             	setbe  %al
   14d93:	0f b6 d0             	movzbl %al,%edx
   14d96:	48 8b 05 fb ef 00 00 	mov    0xeffb(%rip),%rax        # 23d98 <g_195>
   14d9d:	0f b7 08             	movzwl (%rax),%ecx
   14da0:	48 8b 05 f1 ef 00 00 	mov    0xeff1(%rip),%rax        # 23d98 <g_195>
   14da7:	66 33 8d dc f0 ff ff 	xor    -0xf24(%rbp),%cx
   14dae:	66 89 08             	mov    %cx,(%rax)
   14db1:	0f b7 00             	movzwl (%rax),%eax
   14db4:	98                   	cwtl   
   14db5:	89 d6                	mov    %edx,%esi
   14db7:	89 c7                	mov    %eax,%edi
   14db9:	e8 37 46 ff ff       	callq  93f5 <safe_mul_func_int16_t_s_s>
   14dbe:	be 0d 00 00 00       	mov    $0xd,%esi
   14dc3:	bf 8a a1 00 00       	mov    $0xa18a,%edi
   14dc8:	e8 39 50 ff ff       	callq  9e06 <safe_lshift_func_uint16_t_u_u>
   14dcd:	66 85 c0             	test   %ax,%ax
   14dd0:	0f bf 85 dc f0 ff ff 	movswl -0xf24(%rbp),%eax
   14dd7:	89 c6                	mov    %eax,%esi
   14dd9:	bf 01 00 00 00       	mov    $0x1,%edi
   14dde:	e8 1c 49 ff ff       	callq  96ff <safe_div_func_int32_t_s_s>
   14de3:	83 f8 ff             	cmp    $0xffffffff,%eax
   14de6:	0f 94 c0             	sete   %al
   14de9:	0f b6 c0             	movzbl %al,%eax
   14dec:	44 89 e6             	mov    %r12d,%esi
   14def:	89 c7                	mov    %eax,%edi
   14df1:	e8 07 51 ff ff       	callq  9efd <safe_mod_func_uint32_t_u_u>
   14df6:	89 c2                	mov    %eax,%edx
   14df8:	8b 85 fc f0 ff ff    	mov    -0xf04(%rbp),%eax
   14dfe:	09 d0                	or     %edx,%eax
   14e00:	0f be c0             	movsbl %al,%eax
   14e03:	89 de                	mov    %ebx,%esi
   14e05:	89 c7                	mov    %eax,%edi
   14e07:	e8 c8 43 ff ff       	callq  91d4 <safe_add_func_int8_t_s_s>
   14e0c:	0f be d0             	movsbl %al,%edx
   14e0f:	8b 05 53 92 00 00    	mov    0x9253(%rip),%eax        # 1e068 <g_37>
   14e15:	39 c2                	cmp    %eax,%edx
   14e17:	0f 97 c0             	seta   %al
   14e1a:	0f b6 d0             	movzbl %al,%edx
   14e1d:	0f bf 85 dc f0 ff ff 	movswl -0xf24(%rbp),%eax
   14e24:	39 c2                	cmp    %eax,%edx
   14e26:	0f 95 c0             	setne  %al
   14e29:	0f b6 d0             	movzbl %al,%edx
   14e2c:	8b 05 36 92 00 00    	mov    0x9236(%rip),%eax        # 1e068 <g_37>
   14e32:	39 c2                	cmp    %eax,%edx
   14e34:	0f 93 c0             	setae  %al
   14e37:	88 05 0b 93 00 00    	mov    %al,0x930b(%rip)        # 1e148 <g_90>
   14e3d:	0f b6 05 04 93 00 00 	movzbl 0x9304(%rip),%eax        # 1e148 <g_90>
   14e44:	84 c0                	test   %al,%al
   14e46:	75 0a                	jne    14e52 <func_66+0xfe3>
   14e48:	0f b7 05 4b 93 00 00 	movzwl 0x934b(%rip),%eax        # 1e19a <g_236>
   14e4f:	66 85 c0             	test   %ax,%ax
   14e52:	0f b7 05 73 fa 00 00 	movzwl 0xfa73(%rip),%eax        # 248cc <g_184>
   14e59:	0f b7 c0             	movzwl %ax,%eax
   14e5c:	48 98                	cltq   
   14e5e:	8b 94 85 90 f2 ff ff 	mov    -0xd70(%rbp,%rax,4),%edx
   14e65:	0f b6 05 dc 91 00 00 	movzbl 0x91dc(%rip),%eax        # 1e048 <g_22>
   14e6c:	0f be c0             	movsbl %al,%eax
   14e6f:	48 98                	cltq   
   14e71:	8b 84 85 90 f2 ff ff 	mov    -0xd70(%rbp,%rax,4),%eax
   14e78:	39 c2                	cmp    %eax,%edx
   14e7a:	0f 94 c0             	sete   %al
   14e7d:	0f b6 d0             	movzbl %al,%edx
   14e80:	8b 05 e2 91 00 00    	mov    0x91e2(%rip),%eax        # 1e068 <g_37>
   14e86:	39 c2                	cmp    %eax,%edx
   14e88:	0f 96 c0             	setbe  %al
   14e8b:	0f b6 c0             	movzbl %al,%eax
   14e8e:	f7 d0                	not    %eax
   14e90:	89 c2                	mov    %eax,%edx
   14e92:	0f bf 85 dc f0 ff ff 	movswl -0xf24(%rbp),%eax
   14e99:	39 c2                	cmp    %eax,%edx
   14e9b:	0f 95 c0             	setne  %al
   14e9e:	0f b6 c0             	movzbl %al,%eax
   14ea1:	be 00 00 00 00       	mov    $0x0,%esi
   14ea6:	89 c7                	mov    %eax,%edi
   14ea8:	e8 39 50 ff ff       	callq  9ee6 <safe_mul_func_uint32_t_u_u>
   14ead:	0f b7 d0             	movzwl %ax,%edx
   14eb0:	48 8b 05 d1 92 00 00 	mov    0x92d1(%rip),%rax        # 1e188 <g_147>
   14eb7:	8b 84 85 90 f2 ff ff 	mov    -0xd70(%rbp,%rax,4),%eax
   14ebe:	0f b7 c0             	movzwl %ax,%eax
   14ec1:	89 d6                	mov    %edx,%esi
   14ec3:	89 c7                	mov    %eax,%edi
   14ec5:	e8 35 4e ff ff       	callq  9cff <safe_add_func_uint16_t_u_u>
   14eca:	48 8b 95 a8 f1 ff ff 	mov    -0xe58(%rbp),%rdx
   14ed1:	8b 12                	mov    (%rdx),%edx
   14ed3:	0f b7 c0             	movzwl %ax,%eax
   14ed6:	31 c2                	xor    %eax,%edx
   14ed8:	48 8b 85 a8 f1 ff ff 	mov    -0xe58(%rbp),%rax
   14edf:	89 10                	mov    %edx,(%rax)
   14ee1:	0f b7 85 a0 f1 ff ff 	movzwl -0xe60(%rbp),%eax
   14ee8:	66 85 c0             	test   %ax,%ax
   14eeb:	75 24                	jne    14f11 <func_66+0x10a2>
   14eed:	48 8b 05 94 92 00 00 	mov    0x9294(%rip),%rax        # 1e188 <g_147>
   14ef4:	48 83 e8 01          	sub    $0x1,%rax
   14ef8:	48 89 05 89 92 00 00 	mov    %rax,0x9289(%rip)        # 1e188 <g_147>
   14eff:	48 8b 05 82 92 00 00 	mov    0x9282(%rip),%rax        # 1e188 <g_147>
   14f06:	48 85 c0             	test   %rax,%rax
   14f09:	0f 89 ca fd ff ff    	jns    14cd9 <func_66+0xe6a>
   14f0f:	eb 01                	jmp    14f12 <func_66+0x10a3>
   14f11:	90                   	nop
   14f12:	0f b6 05 77 92 00 00 	movzbl 0x9277(%rip),%eax        # 1e190 <g_148>
   14f19:	e9 0d 12 00 00       	jmpq   1612b <func_66+0x22bc>
   14f1e:	c7 85 d8 f0 ff ff 00 	movl   $0x0,-0xf28(%rbp)
   14f25:	00 00 00 
   14f28:	eb 70                	jmp    14f9a <func_66+0x112b>
   14f2a:	c7 85 7c f1 ff ff 01 	movl   $0x1,-0xe84(%rbp)
   14f31:	00 00 00 
   14f34:	c7 85 80 f1 ff ff ff 	movl   $0xffffffff,-0xe80(%rbp)
   14f3b:	ff ff ff 
   14f3e:	c7 85 84 f1 ff ff b4 	movl   $0x9902eab4,-0xe7c(%rbp)
   14f45:	ea 02 99 
   14f48:	48 c7 85 30 f2 ff ff 	movq   $0x0,-0xdd0(%rbp)
   14f4f:	00 00 00 00 
   14f53:	48 8d 05 46 ee 00 00 	lea    0xee46(%rip),%rax        # 23da0 <g_269>
   14f5a:	48 89 85 38 f2 ff ff 	mov    %rax,-0xdc8(%rbp)
   14f61:	48 8d 05 32 92 00 00 	lea    0x9232(%rip),%rax        # 1e19a <g_236>
   14f68:	48 89 85 40 f2 ff ff 	mov    %rax,-0xdc0(%rbp)
   14f6f:	48 c7 85 48 f2 ff ff 	movq   $0x0,-0xdb8(%rbp)
   14f76:	00 00 00 00 
   14f7a:	48 c7 85 50 f2 ff ff 	movq   $0x0,-0xdb0(%rbp)
   14f81:	00 00 00 00 
   14f85:	48 8d 85 a0 f1 ff ff 	lea    -0xe60(%rbp),%rax
   14f8c:	48 89 85 58 f2 ff ff 	mov    %rax,-0xda8(%rbp)
   14f93:	83 85 d8 f0 ff ff 01 	addl   $0x1,-0xf28(%rbp)
   14f9a:	83 bd d8 f0 ff ff 04 	cmpl   $0x4,-0xf28(%rbp)
   14fa1:	76 87                	jbe    14f2a <func_66+0x10bb>
   14fa3:	48 8b 85 a8 f1 ff ff 	mov    -0xe58(%rbp),%rax
   14faa:	c7 00 39 dc f0 ac    	movl   $0xacf0dc39,(%rax)
   14fb0:	48 c7 05 9d 91 00 00 	movq   $0x5,0x919d(%rip)        # 1e158 <g_107>
   14fb7:	05 00 00 00 
   14fbb:	eb 5e                	jmp    1501b <func_66+0x11ac>
   14fbd:	c7 85 1c f1 ff ff 01 	movl   $0x1,-0xee4(%rbp)
   14fc4:	00 00 00 
   14fc7:	c7 85 10 f1 ff ff ef 	movl   $0xffffffef,-0xef0(%rbp)
   14fce:	ff ff ff 
   14fd1:	eb 2d                	jmp    15000 <func_66+0x1191>
   14fd3:	48 8d 05 ce ed 00 00 	lea    0xedce(%rip),%rax        # 23da8 <g_323>
   14fda:	48 89 85 28 f2 ff ff 	mov    %rax,-0xdd8(%rbp)
   14fe1:	48 8b 15 c0 ed 00 00 	mov    0xedc0(%rip),%rdx        # 23da8 <g_323>
   14fe8:	48 8b 85 28 f2 ff ff 	mov    -0xdd8(%rbp),%rax
   14fef:	48 89 10             	mov    %rdx,(%rax)
   14ff2:	83 85 1c f1 ff ff 01 	addl   $0x1,-0xee4(%rbp)
   14ff9:	83 85 10 f1 ff ff 01 	addl   $0x1,-0xef0(%rbp)
   15000:	83 bd 10 f1 ff ff 00 	cmpl   $0x0,-0xef0(%rbp)
   15007:	7f ca                	jg     14fd3 <func_66+0x1164>
   15009:	48 8b 05 48 91 00 00 	mov    0x9148(%rip),%rax        # 1e158 <g_107>
   15010:	48 83 c0 01          	add    $0x1,%rax
   15014:	48 89 05 3d 91 00 00 	mov    %rax,0x913d(%rip)        # 1e158 <g_107>
   1501b:	48 8b 05 36 91 00 00 	mov    0x9136(%rip),%rax        # 1e158 <g_107>
   15022:	48 83 f8 2d          	cmp    $0x2d,%rax
   15026:	76 95                	jbe    14fbd <func_66+0x114e>
   15028:	e9 27 0e 00 00       	jmpq   15e54 <func_66+0x1fe5>
   1502d:	66 c7 85 f2 f0 ff ff 	movw   $0x3,-0xf0e(%rbp)
   15034:	03 00 
   15036:	c7 85 70 f4 ff ff fd 	movl   $0xfffffffd,-0xb90(%rbp)
   1503d:	ff ff ff 
   15040:	c7 85 74 f4 ff ff 78 	movl   $0x798a5078,-0xb8c(%rbp)
   15047:	50 8a 79 
   1504a:	c7 85 78 f4 ff ff 00 	movl   $0x0,-0xb88(%rbp)
   15051:	00 00 00 
   15054:	c7 85 7c f4 ff ff f6 	movl   $0x1f93e2f6,-0xb84(%rbp)
   1505b:	e2 93 1f 
   1505e:	c7 85 80 f4 ff ff 00 	movl   $0x0,-0xb80(%rbp)
   15065:	00 00 00 
   15068:	c7 85 84 f4 ff ff 75 	movl   $0xdb14e475,-0xb7c(%rbp)
   1506f:	e4 14 db 
   15072:	c7 85 88 f4 ff ff b8 	movl   $0x4e99e3b8,-0xb78(%rbp)
   15079:	e3 99 4e 
   1507c:	c7 85 8c f4 ff ff 00 	movl   $0x0,-0xb74(%rbp)
   15083:	00 00 00 
   15086:	c7 85 90 f4 ff ff 00 	movl   $0x0,-0xb70(%rbp)
   1508d:	00 00 00 
   15090:	c7 85 94 f4 ff ff 5d 	movl   $0xc691c45d,-0xb6c(%rbp)
   15097:	c4 91 c6 
   1509a:	c7 85 98 f4 ff ff 00 	movl   $0x0,-0xb68(%rbp)
   150a1:	00 00 00 
   150a4:	c7 85 9c f4 ff ff f6 	movl   $0x1f93e2f6,-0xb64(%rbp)
   150ab:	e2 93 1f 
   150ae:	c7 85 a0 f4 ff ff 00 	movl   $0x0,-0xb60(%rbp)
   150b5:	00 00 00 
   150b8:	c7 85 a4 f4 ff ff 00 	movl   $0x0,-0xb5c(%rbp)
   150bf:	00 00 00 
   150c2:	c7 85 a8 f4 ff ff 00 	movl   $0x0,-0xb58(%rbp)
   150c9:	00 00 00 
   150cc:	c7 85 ac f4 ff ff 00 	movl   $0x0,-0xb54(%rbp)
   150d3:	00 00 00 
   150d6:	c7 85 b0 f4 ff ff f6 	movl   $0x1f93e2f6,-0xb50(%rbp)
   150dd:	e2 93 1f 
   150e0:	c7 85 b4 f4 ff ff 00 	movl   $0x0,-0xb4c(%rbp)
   150e7:	00 00 00 
   150ea:	c7 85 b8 f4 ff ff fd 	movl   $0xfffffffd,-0xb48(%rbp)
   150f1:	ff ff ff 
   150f4:	c7 85 bc f4 ff ff 00 	movl   $0x0,-0xb44(%rbp)
   150fb:	00 00 00 
   150fe:	c7 85 c0 f4 ff ff b8 	movl   $0x4e99e3b8,-0xb40(%rbp)
   15105:	e3 99 4e 
   15108:	c7 85 c4 f4 ff ff 59 	movl   $0x3cb3b459,-0xb3c(%rbp)
   1510f:	b4 b3 3c 
   15112:	c7 85 c8 f4 ff ff 06 	movl   $0x6,-0xb38(%rbp)
   15119:	00 00 00 
   1511c:	c7 85 cc f4 ff ff 00 	movl   $0x0,-0xb34(%rbp)
   15123:	00 00 00 
   15126:	c7 85 d0 f4 ff ff ec 	movl   $0xf537b5ec,-0xb30(%rbp)
   1512d:	b5 37 f5 
   15130:	c7 85 d4 f4 ff ff 75 	movl   $0xdb14e475,-0xb2c(%rbp)
   15137:	e4 14 db 
   1513a:	c7 85 d8 f4 ff ff 5d 	movl   $0xc691c45d,-0xb28(%rbp)
   15141:	c4 91 c6 
   15144:	c7 85 dc f4 ff ff ec 	movl   $0xf537b5ec,-0xb24(%rbp)
   1514b:	b5 37 f5 
   1514e:	c7 85 e0 f4 ff ff 00 	movl   $0x0,-0xb20(%rbp)
   15155:	00 00 00 
   15158:	c7 85 e4 f4 ff ff 00 	movl   $0x0,-0xb1c(%rbp)
   1515f:	00 00 00 
   15162:	c7 85 e8 f4 ff ff 00 	movl   $0x0,-0xb18(%rbp)
   15169:	00 00 00 
   1516c:	c7 85 ec f4 ff ff f6 	movl   $0x1f93e2f6,-0xb14(%rbp)
   15173:	e2 93 1f 
   15176:	c7 85 f0 f4 ff ff 75 	movl   $0xdb14e475,-0xb10(%rbp)
   1517d:	e4 14 db 
   15180:	c7 85 f4 f4 ff ff f6 	movl   $0x1f93e2f6,-0xb0c(%rbp)
   15187:	e2 93 1f 
   1518a:	c7 85 f8 f4 ff ff 00 	movl   $0x0,-0xb08(%rbp)
   15191:	00 00 00 
   15194:	c7 85 fc f4 ff ff 00 	movl   $0x0,-0xb04(%rbp)
   1519b:	00 00 00 
   1519e:	c7 85 00 f5 ff ff 00 	movl   $0x0,-0xb00(%rbp)
   151a5:	00 00 00 
   151a8:	c7 85 04 f5 ff ff 00 	movl   $0x0,-0xafc(%rbp)
   151af:	00 00 00 
   151b2:	c7 85 08 f5 ff ff 00 	movl   $0x0,-0xaf8(%rbp)
   151b9:	00 00 00 
   151bc:	c7 85 0c f5 ff ff 5d 	movl   $0xc691c45d,-0xaf4(%rbp)
   151c3:	c4 91 c6 
   151c6:	c7 85 10 f5 ff ff f8 	movl   $0xfffffff8,-0xaf0(%rbp)
   151cd:	ff ff ff 
   151d0:	c7 85 14 f5 ff ff 78 	movl   $0x798a5078,-0xaec(%rbp)
   151d7:	50 8a 79 
   151da:	c7 85 18 f5 ff ff f6 	movl   $0x1f93e2f6,-0xae8(%rbp)
   151e1:	e2 93 1f 
   151e4:	c7 85 1c f5 ff ff 01 	movl   $0x1,-0xae4(%rbp)
   151eb:	00 00 00 
   151ee:	c7 85 20 f5 ff ff fd 	movl   $0xfffffffd,-0xae0(%rbp)
   151f5:	ff ff ff 
   151f8:	c7 85 24 f5 ff ff 59 	movl   $0x3cb3b459,-0xadc(%rbp)
   151ff:	b4 b3 3c 
   15202:	c7 85 28 f5 ff ff 00 	movl   $0x0,-0xad8(%rbp)
   15209:	00 00 00 
   1520c:	c7 85 2c f5 ff ff f8 	movl   $0xfffffff8,-0xad4(%rbp)
   15213:	ff ff ff 
   15216:	c7 85 30 f5 ff ff b8 	movl   $0x4e99e3b8,-0xad0(%rbp)
   1521d:	e3 99 4e 
   15220:	c7 85 34 f5 ff ff fd 	movl   $0xfffffffd,-0xacc(%rbp)
   15227:	ff ff ff 
   1522a:	c7 85 38 f5 ff ff ec 	movl   $0xf537b5ec,-0xac8(%rbp)
   15231:	b5 37 f5 
   15234:	c7 85 3c f5 ff ff ec 	movl   $0xf537b5ec,-0xac4(%rbp)
   1523b:	b5 37 f5 
   1523e:	c7 85 40 f5 ff ff fd 	movl   $0xfffffffd,-0xac0(%rbp)
   15245:	ff ff ff 
   15248:	c7 85 44 f5 ff ff b8 	movl   $0x4e99e3b8,-0xabc(%rbp)
   1524f:	e3 99 4e 
   15252:	48 8d 05 f7 8e 00 00 	lea    0x8ef7(%rip),%rax        # 1e150 <g_105>
   15259:	48 89 85 98 f1 ff ff 	mov    %rax,-0xe68(%rbp)
   15260:	48 8d 85 88 f1 ff ff 	lea    -0xe78(%rbp),%rax
   15267:	48 89 85 f8 f1 ff ff 	mov    %rax,-0xe08(%rbp)
   1526e:	48 8d 05 f2 93 00 00 	lea    0x93f2(%rip),%rax        # 1e667 <g_462+0x447>
   15275:	48 89 85 a0 f1 ff ff 	mov    %rax,-0xe60(%rbp)
   1527c:	48 8d 85 a0 f1 ff ff 	lea    -0xe60(%rbp),%rax
   15283:	48 89 85 00 f2 ff ff 	mov    %rax,-0xe00(%rbp)
   1528a:	c7 85 20 f1 ff ff 00 	movl   $0x0,-0xee0(%rbp)
   15291:	00 00 00 
   15294:	eb 1a                	jmp    152b0 <func_66+0x1441>
   15296:	8b 85 20 f1 ff ff    	mov    -0xee0(%rbp),%eax
   1529c:	48 98                	cltq   
   1529e:	c7 84 85 74 f2 ff ff 	movl   $0x77593932,-0xd8c(%rbp,%rax,4)
   152a5:	32 39 59 77 
   152a9:	83 85 20 f1 ff ff 01 	addl   $0x1,-0xee0(%rbp)
   152b0:	83 bd 20 f1 ff ff 02 	cmpl   $0x2,-0xee0(%rbp)
   152b7:	7e dd                	jle    15296 <func_66+0x1427>
   152b9:	c6 05 d0 8e 00 00 00 	movb   $0x0,0x8ed0(%rip)        # 1e190 <g_148>
   152c0:	e9 38 05 00 00       	jmpq   157fd <func_66+0x198e>
   152c5:	48 8d 05 bc 8e 00 00 	lea    0x8ebc(%rip),%rax        # 1e188 <g_147>
   152cc:	48 89 85 70 f3 ff ff 	mov    %rax,-0xc90(%rbp)
   152d3:	48 8d 05 ae 8e 00 00 	lea    0x8eae(%rip),%rax        # 1e188 <g_147>
   152da:	48 89 85 78 f3 ff ff 	mov    %rax,-0xc88(%rbp)
   152e1:	48 8d 05 a0 8e 00 00 	lea    0x8ea0(%rip),%rax        # 1e188 <g_147>
   152e8:	48 89 85 80 f3 ff ff 	mov    %rax,-0xc80(%rbp)
   152ef:	48 8d 05 92 8e 00 00 	lea    0x8e92(%rip),%rax        # 1e188 <g_147>
   152f6:	48 89 85 88 f3 ff ff 	mov    %rax,-0xc78(%rbp)
   152fd:	48 8d 05 84 8e 00 00 	lea    0x8e84(%rip),%rax        # 1e188 <g_147>
   15304:	48 89 85 90 f3 ff ff 	mov    %rax,-0xc70(%rbp)
   1530b:	48 8d 05 76 8e 00 00 	lea    0x8e76(%rip),%rax        # 1e188 <g_147>
   15312:	48 89 85 98 f3 ff ff 	mov    %rax,-0xc68(%rbp)
   15319:	48 8d 05 68 8e 00 00 	lea    0x8e68(%rip),%rax        # 1e188 <g_147>
   15320:	48 89 85 a0 f3 ff ff 	mov    %rax,-0xc60(%rbp)
   15327:	48 8d 05 5a 8e 00 00 	lea    0x8e5a(%rip),%rax        # 1e188 <g_147>
   1532e:	48 89 85 a8 f3 ff ff 	mov    %rax,-0xc58(%rbp)
   15335:	48 8d 05 4c 8e 00 00 	lea    0x8e4c(%rip),%rax        # 1e188 <g_147>
   1533c:	48 89 85 b0 f3 ff ff 	mov    %rax,-0xc50(%rbp)
   15343:	48 8d 85 6a f2 ff ff 	lea    -0xd96(%rbp),%rax
   1534a:	48 83 c0 02          	add    $0x2,%rax
   1534e:	48 89 85 00 f3 ff ff 	mov    %rax,-0xd00(%rbp)
   15355:	48 8d 85 6a f2 ff ff 	lea    -0xd96(%rbp),%rax
   1535c:	48 83 c0 02          	add    $0x2,%rax
   15360:	48 89 85 08 f3 ff ff 	mov    %rax,-0xcf8(%rbp)
   15367:	48 8d 85 6a f2 ff ff 	lea    -0xd96(%rbp),%rax
   1536e:	48 83 c0 02          	add    $0x2,%rax
   15372:	48 89 85 10 f3 ff ff 	mov    %rax,-0xcf0(%rbp)
   15379:	48 8d 85 6a f2 ff ff 	lea    -0xd96(%rbp),%rax
   15380:	48 83 c0 02          	add    $0x2,%rax
   15384:	48 89 85 18 f3 ff ff 	mov    %rax,-0xce8(%rbp)
   1538b:	48 8d 85 6a f2 ff ff 	lea    -0xd96(%rbp),%rax
   15392:	48 83 c0 02          	add    $0x2,%rax
   15396:	48 89 85 20 f3 ff ff 	mov    %rax,-0xce0(%rbp)
   1539d:	48 8d 85 6a f2 ff ff 	lea    -0xd96(%rbp),%rax
   153a4:	48 83 c0 02          	add    $0x2,%rax
   153a8:	48 89 85 28 f3 ff ff 	mov    %rax,-0xcd8(%rbp)
   153af:	c7 85 5c f1 ff ff 34 	movl   $0x5b0dab34,-0xea4(%rbp)
   153b6:	ab 0d 5b 
   153b9:	c7 85 60 f1 ff ff 03 	movl   $0x3,-0xea0(%rbp)
   153c0:	00 00 00 
   153c3:	c7 85 d0 f2 ff ff 04 	movl   $0x4,-0xd30(%rbp)
   153ca:	00 00 00 
   153cd:	c7 85 d4 f2 ff ff 04 	movl   $0x4,-0xd2c(%rbp)
   153d4:	00 00 00 
   153d7:	c7 85 d8 f2 ff ff 04 	movl   $0x4,-0xd28(%rbp)
   153de:	00 00 00 
   153e1:	c7 85 dc f2 ff ff 04 	movl   $0x4,-0xd24(%rbp)
   153e8:	00 00 00 
   153eb:	c7 85 e0 f2 ff ff 04 	movl   $0x4,-0xd20(%rbp)
   153f2:	00 00 00 
   153f5:	c7 85 e4 f2 ff ff 04 	movl   $0x4,-0xd1c(%rbp)
   153fc:	00 00 00 
   153ff:	c7 85 e8 f2 ff ff 04 	movl   $0x4,-0xd18(%rbp)
   15406:	00 00 00 
   15409:	c7 85 ec f2 ff ff 04 	movl   $0x4,-0xd14(%rbp)
   15410:	00 00 00 
   15413:	c7 85 f0 f2 ff ff 04 	movl   $0x4,-0xd10(%rbp)
   1541a:	00 00 00 
   1541d:	c6 85 eb f0 ff ff fd 	movb   $0xfd,-0xf15(%rbp)
   15424:	c7 85 24 f1 ff ff 00 	movl   $0x0,-0xedc(%rbp)
   1542b:	00 00 00 
   1542e:	eb 14                	jmp    15444 <func_66+0x15d5>
   15430:	8b 85 24 f1 ff ff    	mov    -0xedc(%rbp),%eax
   15436:	48 98                	cltq   
   15438:	c6 44 05 ba 02       	movb   $0x2,-0x46(%rbp,%rax,1)
   1543d:	83 85 24 f1 ff ff 01 	addl   $0x1,-0xedc(%rbp)
   15444:	83 bd 24 f1 ff ff 05 	cmpl   $0x5,-0xedc(%rbp)
   1544b:	7e e3                	jle    15430 <func_66+0x15c1>
   1544d:	48 8b 15 3c e9 00 00 	mov    0xe93c(%rip),%rdx        # 23d90 <g_165>
   15454:	48 8b 05 35 e9 00 00 	mov    0xe935(%rip),%rax        # 23d90 <g_165>
   1545b:	48 8b 12             	mov    (%rdx),%rdx
   1545e:	48 89 10             	mov    %rdx,(%rax)
   15461:	c7 85 fc f0 ff ff e5 	movl   $0xffffffe5,-0xf04(%rbp)
   15468:	ff ff ff 
   1546b:	eb 4a                	jmp    154b7 <func_66+0x1648>
   1546d:	c7 85 6c f1 ff ff 05 	movl   $0x5,-0xe94(%rbp)
   15474:	00 00 00 
   15477:	c7 85 70 f1 ff ff 01 	movl   $0x1,-0xe90(%rbp)
   1547e:	00 00 00 
   15481:	80 ad ea f0 ff ff 01 	subb   $0x1,-0xf16(%rbp)
   15488:	48 8b 85 e8 f1 ff ff 	mov    -0xe18(%rbp),%rax
   1548f:	48 8b 00             	mov    (%rax),%rax
   15492:	48 8b 95 88 f2 ff ff 	mov    -0xd78(%rbp),%rdx
   15499:	48 89 10             	mov    %rdx,(%rax)
   1549c:	8b 85 fc f0 ff ff    	mov    -0xf04(%rbp),%eax
   154a2:	89 c0                	mov    %eax,%eax
   154a4:	be 02 00 00 00       	mov    $0x2,%esi
   154a9:	48 89 c7             	mov    %rax,%rdi
   154ac:	e8 90 43 ff ff       	callq  9841 <safe_add_func_int64_t_s_s>
   154b1:	89 85 fc f0 ff ff    	mov    %eax,-0xf04(%rbp)
   154b7:	8b 85 fc f0 ff ff    	mov    -0xf04(%rbp),%eax
   154bd:	83 f8 2a             	cmp    $0x2a,%eax
   154c0:	74 ab                	je     1546d <func_66+0x15fe>
   154c2:	48 c7 05 8b 8c 00 00 	movq   $0x0,0x8c8b(%rip)        # 1e158 <g_107>
   154c9:	00 00 00 00 
   154cd:	90                   	nop
   154ce:	48 8b 05 83 8c 00 00 	mov    0x8c83(%rip),%rax        # 1e158 <g_107>
   154d5:	48 83 f8 18          	cmp    $0x18,%rax
   154d9:	75 0c                	jne    154e7 <func_66+0x1678>
   154db:	0f b7 85 dc f0 ff ff 	movzwl -0xf24(%rbp),%eax
   154e2:	e9 44 0c 00 00       	jmpq   1612b <func_66+0x22bc>
   154e7:	0f bf 9d f2 f0 ff ff 	movswl -0xf0e(%rbp),%ebx
   154ee:	be 00 00 00 00       	mov    $0x0,%esi
   154f3:	bf 36 00 00 00       	mov    $0x36,%edi
   154f8:	e8 38 3e ff ff       	callq  9335 <safe_rshift_func_int8_t_s_s>
   154fd:	0f be d0             	movsbl %al,%edx
   15500:	8b 85 f4 f0 ff ff    	mov    -0xf0c(%rbp),%eax
   15506:	39 c2                	cmp    %eax,%edx
   15508:	0f b6 45 be          	movzbl -0x42(%rbp),%eax
   1550c:	0f b6 c0             	movzbl %al,%eax
   1550f:	66 89 85 d0 f0 ff ff 	mov    %ax,-0xf30(%rbp)
   15516:	44 0f bf a5 dc f0 ff 	movswl -0xf24(%rbp),%r12d
   1551d:	ff 
   1551e:	44 0f bf ad f2 f0 ff 	movswl -0xf0e(%rbp),%r13d
   15525:	ff 
   15526:	44 0f bf b5 dc f0 ff 	movswl -0xf24(%rbp),%r14d
   1552d:	ff 
   1552e:	0f b7 85 dc f0 ff ff 	movzwl -0xf24(%rbp),%eax
   15535:	44 0f b6 f8          	movzbl %al,%r15d
   15539:	8b 05 c9 8c 00 00    	mov    0x8cc9(%rip),%eax        # 1e208 <g_324>
   1553f:	c1 e0 05             	shl    $0x5,%eax
   15542:	c1 f8 05             	sar    $0x5,%eax
   15545:	85 c0                	test   %eax,%eax
   15547:	0f 85 82 00 00 00    	jne    155cf <func_66+0x1760>
   1554d:	8b 05 dd 8a 00 00    	mov    0x8add(%rip),%eax        # 1e030 <g_3>
   15553:	98                   	cwtl   
   15554:	89 85 cc f0 ff ff    	mov    %eax,-0xf34(%rbp)
   1555a:	0f bf 8d f2 f0 ff ff 	movswl -0xf0e(%rbp),%ecx
   15561:	89 8d c8 f0 ff ff    	mov    %ecx,-0xf38(%rbp)
   15567:	0f b6 45 ba          	movzbl -0x46(%rbp),%eax
   1556b:	0f b6 d0             	movzbl %al,%edx
   1556e:	8b 85 fc f0 ff ff    	mov    -0xf04(%rbp),%eax
   15574:	21 d0                	and    %edx,%eax
   15576:	39 85 d8 f0 ff ff    	cmp    %eax,-0xf28(%rbp)
   1557c:	0f 97 c0             	seta   %al
   1557f:	0f b6 d0             	movzbl %al,%edx
   15582:	0f b6 45 be          	movzbl -0x42(%rbp),%eax
   15586:	0f b6 c0             	movzbl %al,%eax
   15589:	89 d6                	mov    %edx,%esi
   1558b:	89 c7                	mov    %eax,%edi
   1558d:	e8 63 3e ff ff       	callq  93f5 <safe_mul_func_int16_t_s_s>
   15592:	0f b6 c0             	movzbl %al,%eax
   15595:	8b b5 c8 f0 ff ff    	mov    -0xf38(%rbp),%esi
   1559b:	89 c7                	mov    %eax,%edi
   1559d:	e8 eb 46 ff ff       	callq  9c8d <safe_rshift_func_uint8_t_u_s>
   155a2:	0f b6 c0             	movzbl %al,%eax
   155a5:	be 0c 24 00 00       	mov    $0x240c,%esi
   155aa:	89 c7                	mov    %eax,%edi
   155ac:	e8 ab 47 ff ff       	callq  9d5c <safe_mod_func_uint16_t_u_u>
   155b1:	98                   	cwtl   
   155b2:	8b b5 cc f0 ff ff    	mov    -0xf34(%rbp),%esi
   155b8:	89 c7                	mov    %eax,%edi
   155ba:	e8 f4 3d ff ff       	callq  93b3 <safe_add_func_int16_t_s_s>
   155bf:	98                   	cwtl   
   155c0:	89 85 10 f1 ff ff    	mov    %eax,-0xef0(%rbp)
   155c6:	83 bd 10 f1 ff ff ff 	cmpl   $0xffffffff,-0xef0(%rbp)
   155cd:	74 07                	je     155d6 <func_66+0x1767>
   155cf:	b8 01 00 00 00       	mov    $0x1,%eax
   155d4:	eb 05                	jmp    155db <func_66+0x176c>
   155d6:	b8 00 00 00 00       	mov    $0x0,%eax
   155db:	0f b6 c0             	movzbl %al,%eax
   155de:	44 89 fe             	mov    %r15d,%esi
   155e1:	89 c7                	mov    %eax,%edi
   155e3:	e8 c6 45 ff ff       	callq  9bae <safe_mod_func_uint8_t_u_u>
   155e8:	0f b6 c0             	movzbl %al,%eax
   155eb:	83 e0 26             	and    $0x26,%eax
   155ee:	44 89 f6             	mov    %r14d,%esi
   155f1:	89 c7                	mov    %eax,%edi
   155f3:	e8 fd 3d ff ff       	callq  93f5 <safe_mul_func_int16_t_s_s>
   155f8:	66 89 05 01 8c 00 00 	mov    %ax,0x8c01(%rip)        # 1e200 <g_318>
   155ff:	0f b7 05 fa 8b 00 00 	movzwl 0x8bfa(%rip),%eax        # 1e200 <g_318>
   15606:	0f b7 c0             	movzwl %ax,%eax
   15609:	44 89 ee             	mov    %r13d,%esi
   1560c:	89 c7                	mov    %eax,%edi
   1560e:	e8 35 48 ff ff       	callq  9e48 <safe_rshift_func_uint16_t_u_s>
   15613:	66 85 c0             	test   %ax,%ax
   15616:	66 83 bd f2 f0 ff ff 	cmpw   $0x0,-0xf0e(%rbp)
   1561d:	00 
   1561e:	75 09                	jne    15629 <func_66+0x17ba>
   15620:	83 bd d8 f0 ff ff 00 	cmpl   $0x0,-0xf28(%rbp)
   15627:	74 07                	je     15630 <func_66+0x17c1>
   15629:	b8 01 00 00 00       	mov    $0x1,%eax
   1562e:	eb 05                	jmp    15635 <func_66+0x17c6>
   15630:	b8 00 00 00 00       	mov    $0x0,%eax
   15635:	0f b7 c0             	movzwl %ax,%eax
   15638:	44 89 e6             	mov    %r12d,%esi
   1563b:	89 c7                	mov    %eax,%edi
   1563d:	e8 38 48 ff ff       	callq  9e7a <safe_rshift_func_uint16_t_u_u>
   15642:	66 39 85 d0 f0 ff ff 	cmp    %ax,-0xf30(%rbp)
   15649:	0f 97 c0             	seta   %al
   1564c:	0f b6 d0             	movzbl %al,%edx
   1564f:	8b 05 93 8a 00 00    	mov    0x8a93(%rip),%eax        # 1e0e8 <g_89+0x68>
   15655:	39 c2                	cmp    %eax,%edx
   15657:	0f 95 c0             	setne  %al
   1565a:	0f b6 c0             	movzbl %al,%eax
   1565d:	8b 95 d8 f0 ff ff    	mov    -0xf28(%rbp),%edx
   15663:	89 d6                	mov    %edx,%esi
   15665:	89 c7                	mov    %eax,%edi
   15667:	e8 e0 45 ff ff       	callq  9c4c <safe_lshift_func_uint8_t_u_u>
   1566c:	66 83 bd dc f0 ff ff 	cmpw   $0x0,-0xf24(%rbp)
   15673:	00 
   15674:	74 07                	je     1567d <func_66+0x180e>
   15676:	b8 01 00 00 00       	mov    $0x1,%eax
   1567b:	eb 05                	jmp    15682 <func_66+0x1813>
   1567d:	b8 00 00 00 00       	mov    $0x0,%eax
   15682:	89 de                	mov    %ebx,%esi
   15684:	89 c7                	mov    %eax,%edi
   15686:	e8 7a 3f ff ff       	callq  9605 <safe_sub_func_int32_t_s_s>
   1568b:	89 c2                	mov    %eax,%edx
   1568d:	8b 85 d8 f0 ff ff    	mov    -0xf28(%rbp),%eax
   15693:	09 d0                	or     %edx,%eax
   15695:	0f be d0             	movsbl %al,%edx
   15698:	8b 85 98 f2 ff ff    	mov    -0xd68(%rbp),%eax
   1569e:	0f be c0             	movsbl %al,%eax
   156a1:	89 d6                	mov    %edx,%esi
   156a3:	89 c7                	mov    %eax,%edi
   156a5:	e8 48 3b ff ff       	callq  91f2 <safe_sub_func_int8_t_s_s>
   156aa:	0f be c0             	movsbl %al,%eax
   156ad:	89 c7                	mov    %eax,%edi
   156af:	e8 e2 3e ff ff       	callq  9596 <safe_unary_minus_func_int32_t_s>
   156b4:	89 c2                	mov    %eax,%edx
   156b6:	8b 85 d8 f0 ff ff    	mov    -0xf28(%rbp),%eax
   156bc:	89 c6                	mov    %eax,%esi
   156be:	89 d7                	mov    %edx,%edi
   156c0:	e8 f3 47 ff ff       	callq  9eb8 <safe_add_func_uint32_t_u_u>
   156c5:	48 8b 95 a8 f1 ff ff 	mov    -0xe58(%rbp),%rdx
   156cc:	8b 12                	mov    (%rdx),%edx
   156ce:	09 d0                	or     %edx,%eax
   156d0:	89 c2                	mov    %eax,%edx
   156d2:	48 8b 85 a8 f1 ff ff 	mov    -0xe58(%rbp),%rax
   156d9:	89 10                	mov    %edx,(%rax)
   156db:	48 8b 85 a8 f1 ff ff 	mov    -0xe58(%rbp),%rax
   156e2:	8b 00                	mov    (%rax),%eax
   156e4:	85 c0                	test   %eax,%eax
   156e6:	74 72                	je     1575a <func_66+0x18eb>
   156e8:	c7 85 68 f1 ff ff fa 	movl   $0x8e73a4fa,-0xe98(%rbp)
   156ef:	a4 73 8e 
   156f2:	c7 85 28 f1 ff ff 00 	movl   $0x0,-0xed8(%rbp)
   156f9:	00 00 00 
   156fc:	eb 1a                	jmp    15718 <func_66+0x18a9>
   156fe:	8b 85 28 f1 ff ff    	mov    -0xed8(%rbp),%eax
   15704:	48 98                	cltq   
   15706:	c7 84 85 60 f2 ff ff 	movl   $0x7526d6e5,-0xda0(%rbp,%rax,4)
   1570d:	e5 d6 26 75 
   15711:	83 85 28 f1 ff ff 01 	addl   $0x1,-0xed8(%rbp)
   15718:	83 bd 28 f1 ff ff 01 	cmpl   $0x1,-0xed8(%rbp)
   1571f:	7e dd                	jle    156fe <func_66+0x188f>
   15721:	0f bf 95 dc f0 ff ff 	movswl -0xf24(%rbp),%edx
   15728:	8b 85 d8 f0 ff ff    	mov    -0xf28(%rbp),%eax
   1572e:	89 85 98 f2 ff ff    	mov    %eax,-0xd68(%rbp)
   15734:	8b 85 98 f2 ff ff    	mov    -0xd68(%rbp),%eax
   1573a:	21 d0                	and    %edx,%eax
   1573c:	89 85 68 f1 ff ff    	mov    %eax,-0xe98(%rbp)
   15742:	8b 85 68 f1 ff ff    	mov    -0xe98(%rbp),%eax
   15748:	89 85 a0 f4 ff ff    	mov    %eax,-0xb60(%rbp)
   1574e:	80 ad eb f0 ff ff 01 	subb   $0x1,-0xf15(%rbp)
   15755:	e9 87 00 00 00       	jmpq   157e1 <func_66+0x1972>
   1575a:	c7 85 64 f1 ff ff 77 	movl   $0xb271dc77,-0xe9c(%rbp)
   15761:	dc 71 b2 
   15764:	83 8d d8 f0 ff ff 01 	orl    $0x1,-0xf28(%rbp)
   1576b:	48 8b 05 16 8a 00 00 	mov    0x8a16(%rip),%rax        # 1e188 <g_147>
   15772:	89 c2                	mov    %eax,%edx
   15774:	0f b6 05 cd 89 00 00 	movzbl 0x89cd(%rip),%eax        # 1e148 <g_90>
   1577b:	84 c0                	test   %al,%al
   1577d:	74 11                	je     15790 <func_66+0x1921>
   1577f:	66 83 bd dc f0 ff ff 	cmpw   $0x0,-0xf24(%rbp)
   15786:	00 
   15787:	74 07                	je     15790 <func_66+0x1921>
   15789:	b8 01 00 00 00       	mov    $0x1,%eax
   1578e:	eb 05                	jmp    15795 <func_66+0x1926>
   15790:	b8 00 00 00 00       	mov    $0x0,%eax
   15795:	83 f8 36             	cmp    $0x36,%eax
   15798:	0f 9e c0             	setle  %al
   1579b:	0f b6 c0             	movzbl %al,%eax
   1579e:	89 d6                	mov    %edx,%esi
   157a0:	89 c7                	mov    %eax,%edi
   157a2:	e8 47 3b ff ff       	callq  92ee <safe_lshift_func_int8_t_s_u>
   157a7:	0f be d0             	movsbl %al,%edx
   157aa:	8b 85 98 f2 ff ff    	mov    -0xd68(%rbp),%eax
   157b0:	98                   	cwtl   
   157b1:	89 d6                	mov    %edx,%esi
   157b3:	89 c7                	mov    %eax,%edi
   157b5:	e8 f9 3b ff ff       	callq  93b3 <safe_add_func_int16_t_s_s>
   157ba:	98                   	cwtl   
   157bb:	89 c6                	mov    %eax,%esi
   157bd:	bf 01 00 00 00       	mov    $0x1,%edi
   157c2:	e8 09 47 ff ff       	callq  9ed0 <safe_sub_func_uint32_t_u_u>
   157c7:	b8 01 00 00 00       	mov    $0x1,%eax
   157cc:	21 85 64 f1 ff ff    	and    %eax,-0xe9c(%rbp)
   157d2:	8b 05 40 8a 00 00    	mov    0x8a40(%rip),%eax        # 1e218 <g_396>
   157d8:	83 c0 01             	add    $0x1,%eax
   157db:	89 05 37 8a 00 00    	mov    %eax,0x8a37(%rip)        # 1e218 <g_396>
   157e1:	0f b6 05 a8 89 00 00 	movzbl 0x89a8(%rip),%eax        # 1e190 <g_148>
   157e8:	0f be c0             	movsbl %al,%eax
   157eb:	be 08 00 00 00       	mov    $0x8,%esi
   157f0:	89 c7                	mov    %eax,%edi
   157f2:	e8 fb 39 ff ff       	callq  91f2 <safe_sub_func_int8_t_s_s>
   157f7:	88 05 93 89 00 00    	mov    %al,0x8993(%rip)        # 1e190 <g_148>
   157fd:	0f b6 05 8c 89 00 00 	movzbl 0x898c(%rip),%eax        # 1e190 <g_148>
   15804:	3c f7                	cmp    $0xf7,%al
   15806:	0f 8d b9 fa ff ff    	jge    152c5 <func_66+0x1456>
   1580c:	48 8b 15 7d e5 00 00 	mov    0xe57d(%rip),%rdx        # 23d90 <g_165>
   15813:	48 8b 05 76 e5 00 00 	mov    0xe576(%rip),%rax        # 23d90 <g_165>
   1581a:	48 8b 12             	mov    (%rdx),%rdx
   1581d:	48 89 10             	mov    %rdx,(%rax)
   15820:	48 0f bf 85 f2 f0 ff 	movswq -0xf0e(%rbp),%rax
   15827:	ff 
   15828:	48 35 fa ff 00 00    	xor    $0xfffa,%rax
   1582e:	48 89 c2             	mov    %rax,%rdx
   15831:	8b 05 69 88 00 00    	mov    0x8869(%rip),%eax        # 1e0a0 <g_89+0x20>
   15837:	48 98                	cltq   
   15839:	48 39 c2             	cmp    %rax,%rdx
   1583c:	0f 93 c0             	setae  %al
   1583f:	44 0f b6 e0          	movzbl %al,%r12d
   15843:	0f bf 9d dc f0 ff ff 	movswl -0xf24(%rbp),%ebx
   1584a:	48 8b 05 47 e5 00 00 	mov    0xe547(%rip),%rax        # 23d98 <g_195>
   15851:	66 c7 00 00 00       	movw   $0x0,(%rax)
   15856:	48 8b 85 a8 f1 ff ff 	mov    -0xe58(%rbp),%rax
   1585d:	8b 00                	mov    (%rax),%eax
   1585f:	0f be c0             	movsbl %al,%eax
   15862:	be 07 00 00 00       	mov    $0x7,%esi
   15867:	89 c7                	mov    %eax,%edi
   15869:	e8 80 3a ff ff       	callq  92ee <safe_lshift_func_int8_t_s_u>
   1586e:	c0 e8 07             	shr    $0x7,%al
   15871:	0f b6 d0             	movzbl %al,%edx
   15874:	48 8b 85 e0 f1 ff ff 	mov    -0xe20(%rbp),%rax
   1587b:	48 89 10             	mov    %rdx,(%rax)
   1587e:	48 8b 85 e0 f1 ff ff 	mov    -0xe20(%rbp),%rax
   15885:	48 8b 00             	mov    (%rax),%rax
   15888:	83 f0 fc             	xor    $0xfffffffc,%eax
   1588b:	89 de                	mov    %ebx,%esi
   1588d:	89 c7                	mov    %eax,%edi
   1588f:	e8 22 3d ff ff       	callq  95b6 <safe_add_func_int32_t_s_s>
   15894:	48 8b 05 b5 88 00 00 	mov    0x88b5(%rip),%rax        # 1e150 <g_105>
   1589b:	89 c1                	mov    %eax,%ecx
   1589d:	48 8b 85 98 f1 ff ff 	mov    -0xe68(%rbp),%rax
   158a4:	48 39 85 d0 f1 ff ff 	cmp    %rax,-0xe30(%rbp)
   158ab:	0f 94 c0             	sete   %al
   158ae:	0f b6 d0             	movzbl %al,%edx
   158b1:	8b 05 61 89 00 00    	mov    0x8961(%rip),%eax        # 1e218 <g_396>
   158b7:	09 d0                	or     %edx,%eax
   158b9:	89 05 59 89 00 00    	mov    %eax,0x8959(%rip)        # 1e218 <g_396>
   158bf:	8b 05 53 89 00 00    	mov    0x8953(%rip),%eax        # 1e218 <g_396>
   158c5:	89 ce                	mov    %ecx,%esi
   158c7:	89 c7                	mov    %eax,%edi
   158c9:	e8 2f 46 ff ff       	callq  9efd <safe_mod_func_uint32_t_u_u>
   158ce:	89 c0                	mov    %eax,%eax
   158d0:	48 be 5d ad 1e c7 f6 	movabs $0xefbbbdf6c71ead5d,%rsi
   158d7:	bd bb ef 
   158da:	48 89 c7             	mov    %rax,%rdi
   158dd:	e8 c6 3f ff ff       	callq  98a8 <safe_sub_func_int64_t_s_s>
   158e2:	48 0f bf 95 dc f0 ff 	movswq -0xf24(%rbp),%rdx
   158e9:	ff 
   158ea:	48 21 c2             	and    %rax,%rdx
   158ed:	48 8b 05 94 88 00 00 	mov    0x8894(%rip),%rax        # 1e188 <g_147>
   158f4:	48 39 c2             	cmp    %rax,%rdx
   158f7:	0f 9f c0             	setg   %al
   158fa:	0f b6 c0             	movzbl %al,%eax
   158fd:	44 31 e0             	xor    %r12d,%eax
   15900:	89 85 f8 f0 ff ff    	mov    %eax,-0xf08(%rbp)
   15906:	0f b6 05 6d 88 00 00 	movzbl 0x886d(%rip),%eax        # 1e17a <g_145+0xa>
   1590d:	0f b6 d8             	movzbl %al,%ebx
   15910:	0f b7 05 85 88 00 00 	movzwl 0x8885(%rip),%eax        # 1e19c <g_281>
   15917:	44 0f bf e0          	movswl %ax,%r12d
   1591b:	48 8b 05 76 e4 00 00 	mov    0xe476(%rip),%rax        # 23d98 <g_195>
   15922:	0f b7 00             	movzwl (%rax),%eax
   15925:	66 85 c0             	test   %ax,%ax
   15928:	0f 85 49 01 00 00    	jne    15a77 <func_66+0x1c08>
   1592e:	44 0f bf ad dc f0 ff 	movswl -0xf24(%rbp),%r13d
   15935:	ff 
   15936:	0f b6 05 ce 88 00 00 	movzbl 0x88ce(%rip),%eax        # 1e20b <g_324+0x3>
   1593d:	c0 e8 03             	shr    $0x3,%al
   15940:	83 e0 0f             	and    $0xf,%eax
   15943:	44 0f b6 f0          	movzbl %al,%r14d
   15947:	48 8b 05 7a 88 00 00 	mov    0x887a(%rip),%rax        # 1e1c8 <g_292+0x28>
   1594e:	48 89 85 d0 f0 ff ff 	mov    %rax,-0xf30(%rbp)
   15955:	48 8b 85 e0 f1 ff ff 	mov    -0xe20(%rbp),%rax
   1595c:	48 c7 00 00 00 00 00 	movq   $0x0,(%rax)
   15963:	4c 0f bf bd dc f0 ff 	movswq -0xf24(%rbp),%r15
   1596a:	ff 
   1596b:	8b 85 08 f1 ff ff    	mov    -0xef8(%rbp),%eax
   15971:	8b 15 bd 86 00 00    	mov    0x86bd(%rip),%edx        # 1e034 <g_3+0x4>
   15977:	89 c6                	mov    %eax,%esi
   15979:	89 d7                	mov    %edx,%edi
   1597b:	e8 38 45 ff ff       	callq  9eb8 <safe_add_func_uint32_t_u_u>
   15980:	89 c0                	mov    %eax,%eax
   15982:	4c 89 fe             	mov    %r15,%rsi
   15985:	48 89 c7             	mov    %rax,%rdi
   15988:	e8 a1 46 ff ff       	callq  a02e <safe_add_func_uint64_t_u_u>
   1598d:	89 c2                	mov    %eax,%edx
   1598f:	0f bf 85 dc f0 ff ff 	movswl -0xf24(%rbp),%eax
   15996:	89 d6                	mov    %edx,%esi
   15998:	89 c7                	mov    %eax,%edi
   1599a:	e8 2d 3d ff ff       	callq  96cc <safe_mod_func_int32_t_s_s>
   1599f:	98                   	cwtl   
   159a0:	89 c6                	mov    %eax,%esi
   159a2:	bf 3c c2 ff ff       	mov    $0xffffc23c,%edi
   159a7:	e8 a9 3a ff ff       	callq  9455 <safe_div_func_int16_t_s_s>
   159ac:	0f bf 95 dc f0 ff ff 	movswl -0xf24(%rbp),%edx
   159b3:	8b 05 0f ef 00 00    	mov    0xef0f(%rip),%eax        # 248c8 <g_6>
   159b9:	39 c2                	cmp    %eax,%edx
   159bb:	0f 9d c0             	setge  %al
   159be:	0f b6 c0             	movzbl %al,%eax
   159c1:	be 0a 00 00 00       	mov    $0xa,%esi
   159c6:	89 c7                	mov    %eax,%edi
   159c8:	e8 f1 43 ff ff       	callq  9dbe <safe_lshift_func_uint16_t_u_s>
   159cd:	0f b7 c0             	movzwl %ax,%eax
   159d0:	48 8b b5 d0 f0 ff ff 	mov    -0xf30(%rbp),%rsi
   159d7:	48 89 c7             	mov    %rax,%rdi
   159da:	e8 18 40 ff ff       	callq  99f7 <safe_div_func_int64_t_s_s>
   159df:	25 3c ce 9d 7a       	and    $0x7a9dce3c,%eax
   159e4:	48 85 c0             	test   %rax,%rax
   159e7:	0f 94 c0             	sete   %al
   159ea:	0f b6 c0             	movzbl %al,%eax
   159ed:	44 89 f6             	mov    %r14d,%esi
   159f0:	89 c7                	mov    %eax,%edi
   159f2:	e8 ea 3a ff ff       	callq  94e1 <safe_lshift_func_int16_t_s_u>
   159f7:	0f b6 c0             	movzbl %al,%eax
   159fa:	be 89 00 00 00       	mov    $0x89,%esi
   159ff:	89 c7                	mov    %eax,%edi
   15a01:	e8 a8 41 ff ff       	callq  9bae <safe_mod_func_uint8_t_u_u>
   15a06:	0f b6 c0             	movzbl %al,%eax
   15a09:	44 89 ee             	mov    %r13d,%esi
   15a0c:	89 c7                	mov    %eax,%edi
   15a0e:	e8 42 3a ff ff       	callq  9455 <safe_div_func_int16_t_s_s>
   15a13:	98                   	cwtl   
   15a14:	89 05 fe 87 00 00    	mov    %eax,0x87fe(%rip)        # 1e218 <g_396>
   15a1a:	8b 05 f8 87 00 00    	mov    0x87f8(%rip),%eax        # 1e218 <g_396>
   15a20:	8b 95 34 f1 ff ff    	mov    -0xecc(%rbp),%edx
   15a26:	89 d6                	mov    %edx,%esi
   15a28:	89 c7                	mov    %eax,%edi
   15a2a:	e8 89 44 ff ff       	callq  9eb8 <safe_add_func_uint32_t_u_u>
   15a2f:	0f b6 c0             	movzbl %al,%eax
   15a32:	be 02 00 00 00       	mov    $0x2,%esi
   15a37:	89 c7                	mov    %eax,%edi
   15a39:	e8 80 42 ff ff       	callq  9cbe <safe_rshift_func_uint8_t_u_u>
   15a3e:	0f b6 d0             	movzbl %al,%edx
   15a41:	8b 85 d8 f0 ff ff    	mov    -0xf28(%rbp),%eax
   15a47:	0f b6 c0             	movzbl %al,%eax
   15a4a:	89 d6                	mov    %edx,%esi
   15a4c:	89 c7                	mov    %eax,%edi
   15a4e:	e8 07 41 ff ff       	callq  9b5a <safe_add_func_uint8_t_u_u>
   15a53:	48 8b 05 3e e3 00 00 	mov    0xe33e(%rip),%rax        # 23d98 <g_195>
   15a5a:	0f b7 00             	movzwl (%rax),%eax
   15a5d:	48 0f bf c0          	movswq %ax,%rax
   15a61:	48 35 fd ea 00 00    	xor    $0xeafd,%rax
   15a67:	48 89 c2             	mov    %rax,%rdx
   15a6a:	48 0f bf 85 dc f0 ff 	movswq -0xf24(%rbp),%rax
   15a71:	ff 
   15a72:	48 39 c2             	cmp    %rax,%rdx
   15a75:	7e 07                	jle    15a7e <func_66+0x1c0f>
   15a77:	b8 01 00 00 00       	mov    $0x1,%eax
   15a7c:	eb 05                	jmp    15a83 <func_66+0x1c14>
   15a7e:	b8 00 00 00 00       	mov    $0x0,%eax
   15a83:	44 89 e6             	mov    %r12d,%esi
   15a86:	89 c7                	mov    %eax,%edi
   15a88:	e8 29 3b ff ff       	callq  95b6 <safe_add_func_int32_t_s_s>
   15a8d:	0f be c0             	movsbl %al,%eax
   15a90:	83 e0 01             	and    $0x1,%eax
   15a93:	be f7 ff ff ff       	mov    $0xfffffff7,%esi
   15a98:	89 c7                	mov    %eax,%edi
   15a9a:	e8 cb 37 ff ff       	callq  926a <safe_div_func_int8_t_s_s>
   15a9f:	0f b6 c0             	movzbl %al,%eax
   15aa2:	89 de                	mov    %ebx,%esi
   15aa4:	89 c7                	mov    %eax,%edi
   15aa6:	e8 03 41 ff ff       	callq  9bae <safe_mod_func_uint8_t_u_u>
   15aab:	0f b6 c0             	movzbl %al,%eax
   15aae:	39 85 d8 f0 ff ff    	cmp    %eax,-0xf28(%rbp)
   15ab4:	0f 87 14 03 00 00    	ja     15dce <func_66+0x1f5f>
   15aba:	48 8d 85 f4 f0 ff ff 	lea    -0xf0c(%rbp),%rax
   15ac1:	48 89 85 08 f2 ff ff 	mov    %rax,-0xdf8(%rbp)
   15ac8:	48 c7 85 70 f3 ff ff 	movq   $0x0,-0xc90(%rbp)
   15acf:	00 00 00 00 
   15ad3:	48 c7 85 78 f3 ff ff 	movq   $0x0,-0xc88(%rbp)
   15ada:	00 00 00 00 
   15ade:	48 c7 85 80 f3 ff ff 	movq   $0x0,-0xc80(%rbp)
   15ae5:	00 00 00 00 
   15ae9:	48 8d 85 98 f1 ff ff 	lea    -0xe68(%rbp),%rax
   15af0:	48 89 85 88 f3 ff ff 	mov    %rax,-0xc78(%rbp)
   15af7:	48 8d 85 98 f1 ff ff 	lea    -0xe68(%rbp),%rax
   15afe:	48 89 85 90 f3 ff ff 	mov    %rax,-0xc70(%rbp)
   15b05:	48 8d 85 98 f1 ff ff 	lea    -0xe68(%rbp),%rax
   15b0c:	48 89 85 98 f3 ff ff 	mov    %rax,-0xc68(%rbp)
   15b13:	48 c7 85 a0 f3 ff ff 	movq   $0x0,-0xc60(%rbp)
   15b1a:	00 00 00 00 
   15b1e:	48 c7 85 a8 f3 ff ff 	movq   $0x0,-0xc58(%rbp)
   15b25:	00 00 00 00 
   15b29:	48 c7 85 b0 f3 ff ff 	movq   $0x0,-0xc50(%rbp)
   15b30:	00 00 00 00 
   15b34:	48 c7 85 b8 f3 ff ff 	movq   $0x0,-0xc48(%rbp)
   15b3b:	00 00 00 00 
   15b3f:	48 8d 85 98 f1 ff ff 	lea    -0xe68(%rbp),%rax
   15b46:	48 89 85 c0 f3 ff ff 	mov    %rax,-0xc40(%rbp)
   15b4d:	48 8d 85 98 f1 ff ff 	lea    -0xe68(%rbp),%rax
   15b54:	48 89 85 c8 f3 ff ff 	mov    %rax,-0xc38(%rbp)
   15b5b:	48 8d 85 98 f1 ff ff 	lea    -0xe68(%rbp),%rax
   15b62:	48 89 85 d0 f3 ff ff 	mov    %rax,-0xc30(%rbp)
   15b69:	48 c7 85 d8 f3 ff ff 	movq   $0x0,-0xc28(%rbp)
   15b70:	00 00 00 00 
   15b74:	c7 85 54 f1 ff ff 96 	movl   $0xecf0c196,-0xeac(%rbp)
   15b7b:	c1 f0 ec 
   15b7e:	48 8b 85 08 f2 ff ff 	mov    -0xdf8(%rbp),%rax
   15b85:	8b 00                	mov    (%rax),%eax
   15b87:	0b 85 d8 f0 ff ff    	or     -0xf28(%rbp),%eax
   15b8d:	89 c2                	mov    %eax,%edx
   15b8f:	48 8b 85 08 f2 ff ff 	mov    -0xdf8(%rbp),%rax
   15b96:	89 10                	mov    %edx,(%rax)
   15b98:	48 8b 05 f1 e1 00 00 	mov    0xe1f1(%rip),%rax        # 23d90 <g_165>
   15b9f:	48 8b 00             	mov    (%rax),%rax
   15ba2:	48 8d 95 70 f4 ff ff 	lea    -0xb90(%rbp),%rdx
   15ba9:	48 83 c2 30          	add    $0x30,%rdx
   15bad:	48 39 d0             	cmp    %rdx,%rax
   15bb0:	0f bf 95 dc f0 ff ff 	movswl -0xf24(%rbp),%edx
   15bb7:	48 8b 85 98 f1 ff ff 	mov    -0xe68(%rbp),%rax
   15bbe:	48 89 85 d8 f1 ff ff 	mov    %rax,-0xe28(%rbp)
   15bc5:	48 8d 05 8c 34 00 00 	lea    0x348c(%rip),%rax        # 19058 <g_459>
   15bcc:	48 39 85 d8 f1 ff ff 	cmp    %rax,-0xe28(%rbp)
   15bd3:	0f 94 c0             	sete   %al
   15bd6:	0f b6 c0             	movzbl %al,%eax
   15bd9:	39 c2                	cmp    %eax,%edx
   15bdb:	48 8d 85 90 f1 ff ff 	lea    -0xe70(%rbp),%rax
   15be2:	48 39 85 00 f2 ff ff 	cmp    %rax,-0xe00(%rbp)
   15be9:	0f 94 c0             	sete   %al
   15bec:	0f b6 d0             	movzbl %al,%edx
   15bef:	8b 05 47 84 00 00    	mov    0x8447(%rip),%eax        # 1e03c <g_3+0xc>
   15bf5:	39 c2                	cmp    %eax,%edx
   15bf7:	0f 9c c0             	setl   %al
   15bfa:	0f b6 c0             	movzbl %al,%eax
   15bfd:	8b 95 d8 f0 ff ff    	mov    -0xf28(%rbp),%edx
   15c03:	89 d6                	mov    %edx,%esi
   15c05:	89 c7                	mov    %eax,%edi
   15c07:	e8 c4 42 ff ff       	callq  9ed0 <safe_sub_func_uint32_t_u_u>
   15c0c:	be 06 00 00 00       	mov    $0x6,%esi
   15c11:	bf 01 00 00 00       	mov    $0x1,%edi
   15c16:	e8 a3 40 ff ff       	callq  9cbe <safe_rshift_func_uint8_t_u_u>
   15c1b:	0f b6 d0             	movzbl %al,%edx
   15c1e:	48 8b 85 a8 f1 ff ff 	mov    -0xe58(%rbp),%rax
   15c25:	8b 00                	mov    (%rax),%eax
   15c27:	0f b7 c0             	movzwl %ax,%eax
   15c2a:	89 d6                	mov    %edx,%esi
   15c2c:	89 c7                	mov    %eax,%edi
   15c2e:	e8 47 42 ff ff       	callq  9e7a <safe_rshift_func_uint16_t_u_u>
   15c33:	66 85 c0             	test   %ax,%ax
   15c36:	75 0a                	jne    15c42 <func_66+0x1dd3>
   15c38:	0f b7 85 ec f0 ff ff 	movzwl -0xf14(%rbp),%eax
   15c3f:	66 85 c0             	test   %ax,%ax
   15c42:	48 8b 05 17 85 00 00 	mov    0x8517(%rip),%rax        # 1e160 <g_110>
   15c49:	98                   	cwtl   
   15c4a:	83 e0 01             	and    $0x1,%eax
   15c4d:	be 08 00 00 00       	mov    $0x8,%esi
   15c52:	89 c7                	mov    %eax,%edi
   15c54:	e8 9c 37 ff ff       	callq  93f5 <safe_mul_func_int16_t_s_s>
   15c59:	66 85 c0             	test   %ax,%ax
   15c5c:	0f 84 53 01 00 00    	je     15db5 <func_66+0x1f46>
   15c62:	c7 85 58 f1 ff ff fd 	movl   $0xfd8fbafd,-0xea8(%rbp)
   15c69:	ba 8f fd 
   15c6c:	48 8d 85 ec f0 ff ff 	lea    -0xf14(%rbp),%rax
   15c73:	48 89 85 10 f2 ff ff 	mov    %rax,-0xdf0(%rbp)
   15c7a:	0f b7 05 4b ec 00 00 	movzwl 0xec4b(%rip),%eax        # 248cc <g_184>
   15c81:	0f b7 d0             	movzwl %ax,%edx
   15c84:	48 8d 85 6a f2 ff ff 	lea    -0xd96(%rbp),%rax
   15c8b:	48 63 d2             	movslq %edx,%rdx
   15c8e:	48 01 d2             	add    %rdx,%rdx
   15c91:	48 01 d0             	add    %rdx,%rax
   15c94:	48 89 85 18 f2 ff ff 	mov    %rax,-0xde8(%rbp)
   15c9b:	0f bf 9d dc f0 ff ff 	movswl -0xf24(%rbp),%ebx
   15ca2:	0f b7 05 57 85 00 00 	movzwl 0x8557(%rip),%eax        # 1e200 <g_318>
   15ca9:	0f b7 c0             	movzwl %ax,%eax
   15cac:	89 c6                	mov    %eax,%esi
   15cae:	bf 01 00 00 00       	mov    $0x1,%edi
   15cb3:	e8 a4 40 ff ff       	callq  9d5c <safe_mod_func_uint16_t_u_u>
   15cb8:	0f b7 c0             	movzwl %ax,%eax
   15cbb:	39 85 58 f1 ff ff    	cmp    %eax,-0xea8(%rbp)
   15cc1:	0f 94 c0             	sete   %al
   15cc4:	0f b6 c0             	movzbl %al,%eax
   15cc7:	89 de                	mov    %ebx,%esi
   15cc9:	89 c7                	mov    %eax,%edi
   15ccb:	e8 46 37 ff ff       	callq  9416 <safe_mod_func_int16_t_s_s>
   15cd0:	48 c7 c3 f9 ff ff ff 	mov    $0xfffffffffffffff9,%rbx
   15cd7:	48 8b 85 00 f2 ff ff 	mov    -0xe00(%rbp),%rax
   15cde:	48 8b 00             	mov    (%rax),%rax
   15ce1:	48 85 c0             	test   %rax,%rax
   15ce4:	0f 94 c0             	sete   %al
   15ce7:	0f b6 c0             	movzbl %al,%eax
   15cea:	be 2b cf 00 00       	mov    $0xcf2b,%esi
   15cef:	89 c7                	mov    %eax,%edi
   15cf1:	e8 09 40 ff ff       	callq  9cff <safe_add_func_uint16_t_u_u>
   15cf6:	0f b7 c0             	movzwl %ax,%eax
   15cf9:	48 89 de             	mov    %rbx,%rsi
   15cfc:	48 89 c7             	mov    %rax,%rdi
   15cff:	e8 b0 3c ff ff       	callq  99b4 <safe_mod_func_int64_t_s_s>
   15d04:	89 c2                	mov    %eax,%edx
   15d06:	48 8b 05 53 84 00 00 	mov    0x8453(%rip),%rax        # 1e160 <g_110>
   15d0d:	31 c2                	xor    %eax,%edx
   15d0f:	48 8b 85 10 f2 ff ff 	mov    -0xdf0(%rbp),%rax
   15d16:	66 89 10             	mov    %dx,(%rax)
   15d19:	48 8b 85 10 f2 ff ff 	mov    -0xdf0(%rbp),%rax
   15d20:	0f b7 00             	movzwl (%rax),%eax
   15d23:	0f b7 d8             	movzwl %ax,%ebx
   15d26:	48 8b 05 6b e0 00 00 	mov    0xe06b(%rip),%rax        # 23d98 <g_195>
   15d2d:	0f b7 00             	movzwl (%rax),%eax
   15d30:	98                   	cwtl   
   15d31:	be f8 ff ff ff       	mov    $0xfffffff8,%esi
   15d36:	89 c7                	mov    %eax,%edi
   15d38:	e8 96 36 ff ff       	callq  93d3 <safe_sub_func_int16_t_s_s>
   15d3d:	0f b7 c0             	movzwl %ax,%eax
   15d40:	89 de                	mov    %ebx,%esi
   15d42:	89 c7                	mov    %eax,%edi
   15d44:	e8 31 41 ff ff       	callq  9e7a <safe_rshift_func_uint16_t_u_u>
   15d49:	83 bd d8 f0 ff ff 06 	cmpl   $0x6,-0xf28(%rbp)
   15d50:	77 07                	ja     15d59 <func_66+0x1eea>
   15d52:	ba 01 00 00 00       	mov    $0x1,%edx
   15d57:	eb 05                	jmp    15d5e <func_66+0x1eef>
   15d59:	ba 00 00 00 00       	mov    $0x0,%edx
   15d5e:	48 8b 85 18 f2 ff ff 	mov    -0xde8(%rbp),%rax
   15d65:	0f b7 00             	movzwl (%rax),%eax
   15d68:	89 c1                	mov    %eax,%ecx
   15d6a:	89 d0                	mov    %edx,%eax
   15d6c:	21 c8                	and    %ecx,%eax
   15d6e:	89 c2                	mov    %eax,%edx
   15d70:	48 8b 85 18 f2 ff ff 	mov    -0xde8(%rbp),%rax
   15d77:	66 89 10             	mov    %dx,(%rax)
   15d7a:	8b 95 54 f1 ff ff    	mov    -0xeac(%rbp),%edx
   15d80:	8b 85 a0 f4 ff ff    	mov    -0xb60(%rbp),%eax
   15d86:	09 d0                	or     %edx,%eax
   15d88:	89 85 a0 f4 ff ff    	mov    %eax,-0xb60(%rbp)
   15d8e:	90                   	nop
   15d8f:	83 b5 08 f1 ff ff fe 	xorl   $0xfffffffe,-0xef8(%rbp)
   15d96:	8b 95 08 f1 ff ff    	mov    -0xef8(%rbp),%edx
   15d9c:	48 8b 85 a8 f1 ff ff 	mov    -0xe58(%rbp),%rax
   15da3:	8b 00                	mov    (%rax),%eax
   15da5:	09 c2                	or     %eax,%edx
   15da7:	48 8b 85 a8 f1 ff ff 	mov    -0xe58(%rbp),%rax
   15dae:	89 10                	mov    %edx,(%rax)
   15db0:	e9 9f 00 00 00       	jmpq   15e54 <func_66+0x1fe5>
   15db5:	83 bd d8 f0 ff ff 00 	cmpl   $0x0,-0xf28(%rbp)
   15dbc:	0f 85 86 00 00 00    	jne    15e48 <func_66+0x1fd9>
   15dc2:	0f b7 85 dc f0 ff ff 	movzwl -0xf24(%rbp),%eax
   15dc9:	e9 5d 03 00 00       	jmpq   1612b <func_66+0x22bc>
   15dce:	c7 85 4c f1 ff ff 01 	movl   $0x1,-0xeb4(%rbp)
   15dd5:	00 00 00 
   15dd8:	c7 85 50 f1 ff ff 00 	movl   $0x0,-0xeb0(%rbp)
   15ddf:	00 00 00 
   15de2:	66 c7 85 ee f0 ff ff 	movw   $0x0,-0xf12(%rbp)
   15de9:	00 00 
   15deb:	66 c7 85 dc f0 ff ff 	movw   $0xffe7,-0xf24(%rbp)
   15df2:	e7 ff 
   15df4:	eb 46                	jmp    15e3c <func_66+0x1fcd>
   15df6:	66 83 85 ee f0 ff ff 	addw   $0x1,-0xf12(%rbp)
   15dfd:	01 
   15dfe:	8b 95 74 f2 ff ff    	mov    -0xd8c(%rbp),%edx
   15e04:	8b 8d f8 f4 ff ff    	mov    -0xb08(%rbp),%ecx
   15e0a:	0f bf 85 dc f0 ff ff 	movswl -0xf24(%rbp),%eax
   15e11:	39 c1                	cmp    %eax,%ecx
   15e13:	0f 9c c0             	setl   %al
   15e16:	0f b6 c0             	movzbl %al,%eax
   15e19:	21 d0                	and    %edx,%eax
   15e1b:	89 85 74 f2 ff ff    	mov    %eax,-0xd8c(%rbp)
   15e21:	8b 05 41 82 00 00    	mov    0x8241(%rip),%eax        # 1e068 <g_37>
   15e27:	85 c0                	test   %eax,%eax
   15e29:	75 23                	jne    15e4e <func_66+0x1fdf>
   15e2b:	0f b7 85 dc f0 ff ff 	movzwl -0xf24(%rbp),%eax
   15e32:	83 c0 01             	add    $0x1,%eax
   15e35:	66 89 85 dc f0 ff ff 	mov    %ax,-0xf24(%rbp)
   15e3c:	66 83 bd dc f0 ff ff 	cmpw   $0xe,-0xf24(%rbp)
   15e43:	0e 
   15e44:	7f b0                	jg     15df6 <func_66+0x1f87>
   15e46:	eb 0c                	jmp    15e54 <func_66+0x1fe5>
   15e48:	90                   	nop
   15e49:	e9 f1 e9 ff ff       	jmpq   1483f <func_66+0x9d0>
   15e4e:	90                   	nop
   15e4f:	e9 eb e9 ff ff       	jmpq   1483f <func_66+0x9d0>
   15e54:	8b 9d 34 f1 ff ff    	mov    -0xecc(%rbp),%ebx
   15e5a:	48 8b 05 ff 82 00 00 	mov    0x82ff(%rip),%rax        # 1e160 <g_110>
   15e61:	41 89 c5             	mov    %eax,%r13d
   15e64:	48 8b 85 e8 f1 ff ff 	mov    -0xe18(%rbp),%rax
   15e6b:	48 8b 00             	mov    (%rax),%rax
   15e6e:	48 8b 10             	mov    (%rax),%rdx
   15e71:	48 8d 85 f8 f0 ff ff 	lea    -0xf08(%rbp),%rax
   15e78:	48 39 c2             	cmp    %rax,%rdx
   15e7b:	0f 94 c0             	sete   %al
   15e7e:	0f b6 c0             	movzbl %al,%eax
   15e81:	48 8b 15 d8 82 00 00 	mov    0x82d8(%rip),%rdx        # 1e160 <g_110>
   15e88:	48 89 c6             	mov    %rax,%rsi
   15e8b:	48 89 d7             	mov    %rdx,%rdi
   15e8e:	e8 15 3a ff ff       	callq  98a8 <safe_sub_func_int64_t_s_s>
   15e93:	0f b7 c0             	movzwl %ax,%eax
   15e96:	89 c7                	mov    %eax,%edi
   15e98:	e8 4c 3e ff ff       	callq  9ce9 <safe_unary_minus_func_uint16_t_u>
   15e9d:	0f b7 c0             	movzwl %ax,%eax
   15ea0:	89 85 98 f2 ff ff    	mov    %eax,-0xd68(%rbp)
   15ea6:	66 83 bd dc f0 ff ff 	cmpw   $0x0,-0xf24(%rbp)
   15ead:	00 
   15eae:	0f 95 c0             	setne  %al
   15eb1:	44 0f b6 e0          	movzbl %al,%r12d
   15eb5:	48 8b 85 a8 f1 ff ff 	mov    -0xe58(%rbp),%rax
   15ebc:	8b 00                	mov    (%rax),%eax
   15ebe:	85 c0                	test   %eax,%eax
   15ec0:	75 0c                	jne    15ece <func_66+0x205f>
   15ec2:	48 8b 05 8f 82 00 00 	mov    0x828f(%rip),%rax        # 1e158 <g_107>
   15ec9:	48 85 c0             	test   %rax,%rax
   15ecc:	74 07                	je     15ed5 <func_66+0x2066>
   15ece:	b8 01 00 00 00       	mov    $0x1,%eax
   15ed3:	eb 05                	jmp    15eda <func_66+0x206b>
   15ed5:	b8 00 00 00 00       	mov    $0x0,%eax
   15eda:	09 85 08 f1 ff ff    	or     %eax,-0xef8(%rbp)
   15ee0:	66 83 bd dc f0 ff ff 	cmpw   $0x0,-0xf24(%rbp)
   15ee7:	00 
   15ee8:	0f 95 c0             	setne  %al
   15eeb:	0f b6 d0             	movzbl %al,%edx
   15eee:	48 8b 85 f0 f1 ff ff 	mov    -0xe10(%rbp),%rax
   15ef5:	0f b6 00             	movzbl (%rax),%eax
   15ef8:	8d 70 01             	lea    0x1(%rax),%esi
   15efb:	48 8b 8d f0 f1 ff ff 	mov    -0xe10(%rbp),%rcx
   15f02:	40 88 31             	mov    %sil,(%rcx)
   15f05:	0f b6 c0             	movzbl %al,%eax
   15f08:	89 d6                	mov    %edx,%esi
   15f0a:	89 c7                	mov    %eax,%edi
   15f0c:	e8 82 3c ff ff       	callq  9b93 <safe_mul_func_uint8_t_u_u>
   15f11:	0f b6 d0             	movzbl %al,%edx
   15f14:	0f bf 85 dc f0 ff ff 	movswl -0xf24(%rbp),%eax
   15f1b:	39 c2                	cmp    %eax,%edx
   15f1d:	0f 94 c0             	sete   %al
   15f20:	0f b6 c0             	movzbl %al,%eax
   15f23:	89 c6                	mov    %eax,%esi
   15f25:	bf fb ff ff ff       	mov    $0xfffffffb,%edi
   15f2a:	e8 c6 34 ff ff       	callq  93f5 <safe_mul_func_int16_t_s_s>
   15f2f:	0f bf d0             	movswl %ax,%edx
   15f32:	8b 85 d8 f0 ff ff    	mov    -0xf28(%rbp),%eax
   15f38:	89 d6                	mov    %edx,%esi
   15f3a:	89 c7                	mov    %eax,%edi
   15f3c:	e8 bc 3f ff ff       	callq  9efd <safe_mod_func_uint32_t_u_u>
   15f41:	be 01 00 00 00       	mov    $0x1,%esi
   15f46:	89 c7                	mov    %eax,%edi
   15f48:	e8 b0 3f ff ff       	callq  9efd <safe_mod_func_uint32_t_u_u>
   15f4d:	89 c2                	mov    %eax,%edx
   15f4f:	48 8b 05 92 91 00 00 	mov    0x9192(%rip),%rax        # 1f0e8 <g_516>
   15f56:	48 39 c2             	cmp    %rax,%rdx
   15f59:	0f 95 c0             	setne  %al
   15f5c:	0f b6 d0             	movzbl %al,%edx
   15f5f:	48 8b 85 a8 f1 ff ff 	mov    -0xe58(%rbp),%rax
   15f66:	8b 00                	mov    (%rax),%eax
   15f68:	39 c2                	cmp    %eax,%edx
   15f6a:	0f 9c c0             	setl   %al
   15f6d:	0f b6 c0             	movzbl %al,%eax
   15f70:	44 31 e0             	xor    %r12d,%eax
   15f73:	44 89 ee             	mov    %r13d,%esi
   15f76:	89 c7                	mov    %eax,%edi
   15f78:	e8 88 36 ff ff       	callq  9605 <safe_sub_func_int32_t_s_s>
   15f7d:	48 98                	cltq   
   15f7f:	48 89 de             	mov    %rbx,%rsi
   15f82:	48 89 c7             	mov    %rax,%rdi
   15f85:	e8 b7 38 ff ff       	callq  9841 <safe_add_func_int64_t_s_s>
   15f8a:	0f b6 c0             	movzbl %al,%eax
   15f8d:	be 05 00 00 00       	mov    $0x5,%esi
   15f92:	89 c7                	mov    %eax,%edi
   15f94:	e8 25 3d ff ff       	callq  9cbe <safe_rshift_func_uint8_t_u_u>
   15f99:	0f b6 c0             	movzbl %al,%eax
   15f9c:	be 02 00 00 00       	mov    $0x2,%esi
   15fa1:	89 c7                	mov    %eax,%edi
   15fa3:	e8 5e 3e ff ff       	callq  9e06 <safe_lshift_func_uint16_t_u_u>
   15fa8:	0f b7 d0             	movzwl %ax,%edx
   15fab:	48 8b 85 a8 f1 ff ff 	mov    -0xe58(%rbp),%rax
   15fb2:	89 10                	mov    %edx,(%rax)
   15fb4:	48 8b 85 a8 f1 ff ff 	mov    -0xe58(%rbp),%rax
   15fbb:	8b 00                	mov    (%rax),%eax
   15fbd:	89 85 44 f1 ff ff    	mov    %eax,-0xebc(%rbp)
   15fc3:	0f b7 05 02 e9 00 00 	movzwl 0xe902(%rip),%eax        # 248cc <g_184>
   15fca:	83 c0 01             	add    $0x1,%eax
   15fcd:	66 89 05 f8 e8 00 00 	mov    %ax,0xe8f8(%rip)        # 248cc <g_184>
   15fd4:	0f b7 05 f1 e8 00 00 	movzwl 0xe8f1(%rip),%eax        # 248cc <g_184>
   15fdb:	66 83 f8 04          	cmp    $0x4,%ax
   15fdf:	0f 86 5f e9 ff ff    	jbe    14944 <func_66+0xad5>
   15fe5:	83 85 00 f1 ff ff 01 	addl   $0x1,-0xf00(%rbp)
   15fec:	83 bd 00 f1 ff ff 07 	cmpl   $0x7,-0xf00(%rbp)
   15ff3:	0f 86 c8 e8 ff ff    	jbe    148c1 <func_66+0xa52>
   15ff9:	48 8b 85 b0 f1 ff ff 	mov    -0xe50(%rbp),%rax
   16000:	8b 00                	mov    (%rax),%eax
   16002:	8d 50 01             	lea    0x1(%rax),%edx
   16005:	48 8b 85 b0 f1 ff ff 	mov    -0xe50(%rbp),%rax
   1600c:	89 10                	mov    %edx,(%rax)
   1600e:	8b 9d d8 f0 ff ff    	mov    -0xf28(%rbp),%ebx
   16014:	48 83 bd b8 f1 ff ff 	cmpq   $0x0,-0xe48(%rbp)
   1601b:	00 
   1601c:	0f 94 c0             	sete   %al
   1601f:	0f b6 d0             	movzbl %al,%edx
   16022:	8b 85 d8 f0 ff ff    	mov    -0xf28(%rbp),%eax
   16028:	98                   	cwtl   
   16029:	89 d6                	mov    %edx,%esi
   1602b:	89 c7                	mov    %eax,%edi
   1602d:	e8 a1 33 ff ff       	callq  93d3 <safe_sub_func_int16_t_s_s>
   16032:	0f b6 c0             	movzbl %al,%eax
   16035:	89 de                	mov    %ebx,%esi
   16037:	89 c7                	mov    %eax,%edi
   16039:	e8 c7 3b ff ff       	callq  9c05 <safe_lshift_func_uint8_t_u_s>
   1603e:	0f b6 d0             	movzbl %al,%edx
   16041:	48 8b 85 a8 f1 ff ff 	mov    -0xe58(%rbp),%rax
   16048:	8b 00                	mov    (%rax),%eax
   1604a:	31 d0                	xor    %edx,%eax
   1604c:	89 c2                	mov    %eax,%edx
   1604e:	48 8b 85 c0 f1 ff ff 	mov    -0xe40(%rbp),%rax
   16055:	89 10                	mov    %edx,(%rax)
   16057:	48 8b 85 c0 f1 ff ff 	mov    -0xe40(%rbp),%rax
   1605e:	8b 00                	mov    (%rax),%eax
   16060:	be c5 85 bf 96       	mov    $0x96bf85c5,%esi
   16065:	89 c7                	mov    %eax,%edi
   16067:	e8 b9 3e ff ff       	callq  9f25 <safe_div_func_uint32_t_u_u>
   1606c:	85 c0                	test   %eax,%eax
   1606e:	75 08                	jne    16078 <func_66+0x2209>
   16070:	66 83 bd dc f0 ff ff 	cmpw   $0x0,-0xf24(%rbp)
   16077:	00 
   16078:	83 bd 30 f1 ff ff 00 	cmpl   $0x0,-0xed0(%rbp)
   1607f:	0f b6 05 0a 81 00 00 	movzbl 0x810a(%rip),%eax        # 1e190 <g_148>
   16086:	3c 01                	cmp    $0x1,%al
   16088:	0f 9e c0             	setle  %al
   1608b:	0f b6 c0             	movzbl %al,%eax
   1608e:	be 65 0f 00 00       	mov    $0xf65,%esi
   16093:	89 c7                	mov    %eax,%edi
   16095:	e8 a3 3c ff ff       	callq  9d3d <safe_mul_func_uint16_t_u_u>
   1609a:	be 5e 20 00 00       	mov    $0x205e,%esi
   1609f:	bf 00 00 00 00       	mov    $0x0,%edi
   160a4:	e8 4c 33 ff ff       	callq  93f5 <safe_mul_func_int16_t_s_s>
   160a9:	0f bf d0             	movswl %ax,%edx
   160ac:	48 8b 05 e5 dc 00 00 	mov    0xdce5(%rip),%rax        # 23d98 <g_195>
   160b3:	66 c7 00 01 00       	movw   $0x1,(%rax)
   160b8:	0f b7 00             	movzwl (%rax),%eax
   160bb:	98                   	cwtl   
   160bc:	89 d6                	mov    %edx,%esi
   160be:	89 c7                	mov    %eax,%edi
   160c0:	e8 65 34 ff ff       	callq  952a <safe_rshift_func_int16_t_s_s>
   160c5:	0f bf d0             	movswl %ax,%edx
   160c8:	0f b6 05 a1 80 00 00 	movzbl 0x80a1(%rip),%eax        # 1e170 <g_145>
   160cf:	0f be c0             	movsbl %al,%eax
   160d2:	31 c2                	xor    %eax,%edx
   160d4:	0f bf 85 dc f0 ff ff 	movswl -0xf24(%rbp),%eax
   160db:	09 c2                	or     %eax,%edx
   160dd:	48 8b 85 c8 f1 ff ff 	mov    -0xe38(%rbp),%rax
   160e4:	89 10                	mov    %edx,(%rax)
   160e6:	48 8b 85 c8 f1 ff ff 	mov    -0xe38(%rbp),%rax
   160ed:	8b 00                	mov    (%rax),%eax
   160ef:	89 05 f3 7f 00 00    	mov    %eax,0x7ff3(%rip)        # 1e0e8 <g_89+0x68>
   160f5:	66 81 bd f0 f0 ff ff 	cmpw   $0xf1,-0xf10(%rbp)
   160fc:	f1 00 
   160fe:	0f 95 c0             	setne  %al
   16101:	0f b6 c0             	movzbl %al,%eax
   16104:	be fa ff 00 00       	mov    $0xfffa,%esi
   16109:	89 c7                	mov    %eax,%edi
   1610b:	e8 0f 3c ff ff       	callq  9d1f <safe_sub_func_uint16_t_u_u>
   16110:	48 8b 95 28 fb ff ff 	mov    -0x4d8(%rbp),%rdx
   16117:	0f b7 c0             	movzwl %ax,%eax
   1611a:	48 21 d0             	and    %rdx,%rax
   1611d:	48 89 85 28 fb ff ff 	mov    %rax,-0x4d8(%rbp)
   16124:	48 8b 05 9d 80 00 00 	mov    0x809d(%rip),%rax        # 1e1c8 <g_292+0x28>
   1612b:	48 8b 5d c8          	mov    -0x38(%rbp),%rbx
   1612f:	64 48 33 1c 25 28 00 	xor    %fs:0x28,%rbx
   16136:	00 00 
   16138:	74 05                	je     1613f <func_66+0x22d0>
   1613a:	e8 31 2f ff ff       	callq  9070 <__stack_chk_fail@plt>
   1613f:	48 81 c4 18 0f 00 00 	add    $0xf18,%rsp
   16146:	5b                   	pop    %rbx
   16147:	41 5c                	pop    %r12
   16149:	41 5d                	pop    %r13
   1614b:	41 5e                	pop    %r14
   1614d:	41 5f                	pop    %r15
   1614f:	5d                   	pop    %rbp
   16150:	c3                   	retq   

0000000000016151 <func_73>:
   16151:	f3 0f 1e fa          	endbr64 
   16155:	55                   	push   %rbp
   16156:	48 89 e5             	mov    %rsp,%rbp
   16159:	41 57                	push   %r15
   1615b:	41 56                	push   %r14
   1615d:	41 55                	push   %r13
   1615f:	41 54                	push   %r12
   16161:	53                   	push   %rbx
   16162:	48 81 ec f8 09 00 00 	sub    $0x9f8,%rsp
   16169:	48 89 bd f8 f5 ff ff 	mov    %rdi,-0xa08(%rbp)
   16170:	89 f0                	mov    %esi,%eax
   16172:	48 89 95 e8 f5 ff ff 	mov    %rdx,-0xa18(%rbp)
   16179:	48 89 8d e0 f5 ff ff 	mov    %rcx,-0xa20(%rbp)
   16180:	88 85 f4 f5 ff ff    	mov    %al,-0xa0c(%rbp)
   16186:	64 48 8b 04 25 28 00 	mov    %fs:0x28,%rax
   1618d:	00 00 
   1618f:	48 89 45 c8          	mov    %rax,-0x38(%rbp)
   16193:	31 c0                	xor    %eax,%eax
   16195:	48 c7 85 38 f6 ff ff 	movq   $0x0,-0x9c8(%rbp)
   1619c:	00 00 00 00 
   161a0:	c7 85 10 f6 ff ff 00 	movl   $0x0,-0x9f0(%rbp)
   161a7:	00 00 00 
   161aa:	48 c7 85 28 f6 ff ff 	movq   $0x0,-0x9d8(%rbp)
   161b1:	00 00 00 00 
   161b5:	48 8d 85 10 f6 ff ff 	lea    -0x9f0(%rbp),%rax
   161bc:	48 89 85 40 f6 ff ff 	mov    %rax,-0x9c0(%rbp)
   161c3:	48 8d 05 7a 7e 00 00 	lea    0x7e7a(%rip),%rax        # 1e044 <g_21>
   161ca:	48 89 85 d0 f9 ff ff 	mov    %rax,-0x630(%rbp)
   161d1:	48 8d 05 6c 7e 00 00 	lea    0x7e6c(%rip),%rax        # 1e044 <g_21>
   161d8:	48 89 85 d8 f9 ff ff 	mov    %rax,-0x628(%rbp)
   161df:	48 8d 05 e2 e6 00 00 	lea    0xe6e2(%rip),%rax        # 248c8 <g_6>
   161e6:	48 89 85 e0 f9 ff ff 	mov    %rax,-0x620(%rbp)
   161ed:	48 8d 05 d4 e6 00 00 	lea    0xe6d4(%rip),%rax        # 248c8 <g_6>
   161f4:	48 89 85 e8 f9 ff ff 	mov    %rax,-0x618(%rbp)
   161fb:	48 8d 85 10 f6 ff ff 	lea    -0x9f0(%rbp),%rax
   16202:	48 89 85 f0 f9 ff ff 	mov    %rax,-0x610(%rbp)
   16209:	48 8d 05 b8 e6 00 00 	lea    0xe6b8(%rip),%rax        # 248c8 <g_6>
   16210:	48 89 85 f8 f9 ff ff 	mov    %rax,-0x608(%rbp)
   16217:	48 8d 05 aa e6 00 00 	lea    0xe6aa(%rip),%rax        # 248c8 <g_6>
   1621e:	48 89 85 00 fa ff ff 	mov    %rax,-0x600(%rbp)
   16225:	48 8d 85 10 f6 ff ff 	lea    -0x9f0(%rbp),%rax
   1622c:	48 89 85 08 fa ff ff 	mov    %rax,-0x5f8(%rbp)
   16233:	48 8d 85 10 f6 ff ff 	lea    -0x9f0(%rbp),%rax
   1623a:	48 89 85 10 fa ff ff 	mov    %rax,-0x5f0(%rbp)
   16241:	48 c7 85 18 fa ff ff 	movq   $0x0,-0x5e8(%rbp)
   16248:	00 00 00 00 
   1624c:	48 8d 05 f1 7d 00 00 	lea    0x7df1(%rip),%rax        # 1e044 <g_21>
   16253:	48 89 85 20 fa ff ff 	mov    %rax,-0x5e0(%rbp)
   1625a:	48 8d 85 10 f6 ff ff 	lea    -0x9f0(%rbp),%rax
   16261:	48 89 85 28 fa ff ff 	mov    %rax,-0x5d8(%rbp)
   16268:	48 8d 85 10 f6 ff ff 	lea    -0x9f0(%rbp),%rax
   1626f:	48 89 85 30 fa ff ff 	mov    %rax,-0x5d0(%rbp)
   16276:	48 8d 85 10 f6 ff ff 	lea    -0x9f0(%rbp),%rax
   1627d:	48 89 85 38 fa ff ff 	mov    %rax,-0x5c8(%rbp)
   16284:	48 8d 05 b9 7d 00 00 	lea    0x7db9(%rip),%rax        # 1e044 <g_21>
   1628b:	48 89 85 40 fa ff ff 	mov    %rax,-0x5c0(%rbp)
   16292:	48 8d 05 ab 7d 00 00 	lea    0x7dab(%rip),%rax        # 1e044 <g_21>
   16299:	48 89 85 48 fa ff ff 	mov    %rax,-0x5b8(%rbp)
   162a0:	48 8d 05 95 7d 00 00 	lea    0x7d95(%rip),%rax        # 1e03c <g_3+0xc>
   162a7:	48 89 85 50 fa ff ff 	mov    %rax,-0x5b0(%rbp)
   162ae:	48 8d 85 10 f6 ff ff 	lea    -0x9f0(%rbp),%rax
   162b5:	48 89 85 58 fa ff ff 	mov    %rax,-0x5a8(%rbp)
   162bc:	48 8d 85 10 f6 ff ff 	lea    -0x9f0(%rbp),%rax
   162c3:	48 89 85 60 fa ff ff 	mov    %rax,-0x5a0(%rbp)
   162ca:	48 8d 05 73 7d 00 00 	lea    0x7d73(%rip),%rax        # 1e044 <g_21>
   162d1:	48 89 85 68 fa ff ff 	mov    %rax,-0x598(%rbp)
   162d8:	48 8d 85 10 f6 ff ff 	lea    -0x9f0(%rbp),%rax
   162df:	48 89 85 70 fa ff ff 	mov    %rax,-0x590(%rbp)
   162e6:	48 c7 85 78 fa ff ff 	movq   $0x0,-0x588(%rbp)
   162ed:	00 00 00 00 
   162f1:	48 8d 05 38 7d 00 00 	lea    0x7d38(%rip),%rax        # 1e030 <g_3>
   162f8:	48 89 85 80 fa ff ff 	mov    %rax,-0x580(%rbp)
   162ff:	48 c7 85 88 fa ff ff 	movq   $0x0,-0x578(%rbp)
   16306:	00 00 00 00 
   1630a:	48 8d 85 10 f6 ff ff 	lea    -0x9f0(%rbp),%rax
   16311:	48 89 85 90 fa ff ff 	mov    %rax,-0x570(%rbp)
   16318:	48 8d 85 10 f6 ff ff 	lea    -0x9f0(%rbp),%rax
   1631f:	48 89 85 98 fa ff ff 	mov    %rax,-0x568(%rbp)
   16326:	48 8d 05 17 7d 00 00 	lea    0x7d17(%rip),%rax        # 1e044 <g_21>
   1632d:	48 89 85 a0 fa ff ff 	mov    %rax,-0x560(%rbp)
   16334:	48 8d 05 09 7d 00 00 	lea    0x7d09(%rip),%rax        # 1e044 <g_21>
   1633b:	48 89 85 a8 fa ff ff 	mov    %rax,-0x558(%rbp)
   16342:	48 c7 85 b0 fa ff ff 	movq   $0x0,-0x550(%rbp)
   16349:	00 00 00 00 
   1634d:	48 8d 85 10 f6 ff ff 	lea    -0x9f0(%rbp),%rax
   16354:	48 89 85 b8 fa ff ff 	mov    %rax,-0x548(%rbp)
   1635b:	48 8d 05 e2 7c 00 00 	lea    0x7ce2(%rip),%rax        # 1e044 <g_21>
   16362:	48 89 85 c0 fa ff ff 	mov    %rax,-0x540(%rbp)
   16369:	48 8d 05 d4 7c 00 00 	lea    0x7cd4(%rip),%rax        # 1e044 <g_21>
   16370:	48 89 85 c8 fa ff ff 	mov    %rax,-0x538(%rbp)
   16377:	48 8d 85 10 f6 ff ff 	lea    -0x9f0(%rbp),%rax
   1637e:	48 89 85 d0 fa ff ff 	mov    %rax,-0x530(%rbp)
   16385:	48 8d 85 10 f6 ff ff 	lea    -0x9f0(%rbp),%rax
   1638c:	48 89 85 d8 fa ff ff 	mov    %rax,-0x528(%rbp)
   16393:	48 c7 85 e0 fa ff ff 	movq   $0x0,-0x520(%rbp)
   1639a:	00 00 00 00 
   1639e:	48 8d 85 10 f6 ff ff 	lea    -0x9f0(%rbp),%rax
   163a5:	48 89 85 e8 fa ff ff 	mov    %rax,-0x518(%rbp)
   163ac:	48 c7 85 f0 fa ff ff 	movq   $0x0,-0x510(%rbp)
   163b3:	00 00 00 00 
   163b7:	48 8d 85 10 f6 ff ff 	lea    -0x9f0(%rbp),%rax
   163be:	48 89 85 f8 fa ff ff 	mov    %rax,-0x508(%rbp)
   163c5:	48 8d 05 78 7c 00 00 	lea    0x7c78(%rip),%rax        # 1e044 <g_21>
   163cc:	48 89 85 00 fb ff ff 	mov    %rax,-0x500(%rbp)
   163d3:	48 8d 85 10 f6 ff ff 	lea    -0x9f0(%rbp),%rax
   163da:	48 89 85 08 fb ff ff 	mov    %rax,-0x4f8(%rbp)
   163e1:	48 8d 85 10 f6 ff ff 	lea    -0x9f0(%rbp),%rax
   163e8:	48 89 85 10 fb ff ff 	mov    %rax,-0x4f0(%rbp)
   163ef:	48 8d 05 46 7c 00 00 	lea    0x7c46(%rip),%rax        # 1e03c <g_3+0xc>
   163f6:	48 89 85 18 fb ff ff 	mov    %rax,-0x4e8(%rbp)
   163fd:	48 8d 05 2c 7c 00 00 	lea    0x7c2c(%rip),%rax        # 1e030 <g_3>
   16404:	48 89 85 20 fb ff ff 	mov    %rax,-0x4e0(%rbp)
   1640b:	48 c7 85 28 fb ff ff 	movq   $0x0,-0x4d8(%rbp)
   16412:	00 00 00 00 
   16416:	48 8d 85 10 f6 ff ff 	lea    -0x9f0(%rbp),%rax
   1641d:	48 89 85 30 fb ff ff 	mov    %rax,-0x4d0(%rbp)
   16424:	48 8d 85 10 f6 ff ff 	lea    -0x9f0(%rbp),%rax
   1642b:	48 89 85 38 fb ff ff 	mov    %rax,-0x4c8(%rbp)
   16432:	48 8d 85 10 f6 ff ff 	lea    -0x9f0(%rbp),%rax
   16439:	48 89 85 40 fb ff ff 	mov    %rax,-0x4c0(%rbp)
   16440:	48 8d 05 fd 7b 00 00 	lea    0x7bfd(%rip),%rax        # 1e044 <g_21>
   16447:	48 89 85 48 fb ff ff 	mov    %rax,-0x4b8(%rbp)
   1644e:	48 c7 85 50 fb ff ff 	movq   $0x0,-0x4b0(%rbp)
   16455:	00 00 00 00 
   16459:	48 8d 05 e4 7b 00 00 	lea    0x7be4(%rip),%rax        # 1e044 <g_21>
   16460:	48 89 85 58 fb ff ff 	mov    %rax,-0x4a8(%rbp)
   16467:	48 8d 05 d6 7b 00 00 	lea    0x7bd6(%rip),%rax        # 1e044 <g_21>
   1646e:	48 89 85 60 fb ff ff 	mov    %rax,-0x4a0(%rbp)
   16475:	48 8d 05 4c e4 00 00 	lea    0xe44c(%rip),%rax        # 248c8 <g_6>
   1647c:	48 89 85 68 fb ff ff 	mov    %rax,-0x498(%rbp)
   16483:	48 8d 05 3e e4 00 00 	lea    0xe43e(%rip),%rax        # 248c8 <g_6>
   1648a:	48 89 85 70 fb ff ff 	mov    %rax,-0x490(%rbp)
   16491:	48 8d 85 10 f6 ff ff 	lea    -0x9f0(%rbp),%rax
   16498:	48 89 85 78 fb ff ff 	mov    %rax,-0x488(%rbp)
   1649f:	48 8d 05 22 e4 00 00 	lea    0xe422(%rip),%rax        # 248c8 <g_6>
   164a6:	48 89 85 80 fb ff ff 	mov    %rax,-0x480(%rbp)
   164ad:	48 8d 05 90 7b 00 00 	lea    0x7b90(%rip),%rax        # 1e044 <g_21>
   164b4:	48 89 85 88 fb ff ff 	mov    %rax,-0x478(%rbp)
   164bb:	48 8d 05 7e 7b 00 00 	lea    0x7b7e(%rip),%rax        # 1e040 <g_4>
   164c2:	48 89 85 90 fb ff ff 	mov    %rax,-0x470(%rbp)
   164c9:	48 8d 05 70 7b 00 00 	lea    0x7b70(%rip),%rax        # 1e040 <g_4>
   164d0:	48 89 85 98 fb ff ff 	mov    %rax,-0x468(%rbp)
   164d7:	48 8d 05 52 7b 00 00 	lea    0x7b52(%rip),%rax        # 1e030 <g_3>
   164de:	48 89 85 a0 fb ff ff 	mov    %rax,-0x460(%rbp)
   164e5:	48 8d 05 4c 7b 00 00 	lea    0x7b4c(%rip),%rax        # 1e038 <g_3+0x8>
   164ec:	48 89 85 a8 fb ff ff 	mov    %rax,-0x458(%rbp)
   164f3:	48 8d 05 36 7b 00 00 	lea    0x7b36(%rip),%rax        # 1e030 <g_3>
   164fa:	48 89 85 b0 fb ff ff 	mov    %rax,-0x450(%rbp)
   16501:	48 8d 05 28 7b 00 00 	lea    0x7b28(%rip),%rax        # 1e030 <g_3>
   16508:	48 89 85 b8 fb ff ff 	mov    %rax,-0x448(%rbp)
   1650f:	48 8d 85 10 f6 ff ff 	lea    -0x9f0(%rbp),%rax
   16516:	48 89 85 c0 fb ff ff 	mov    %rax,-0x440(%rbp)
   1651d:	48 c7 85 c8 fb ff ff 	movq   $0x0,-0x438(%rbp)
   16524:	00 00 00 00 
   16528:	48 8d 85 10 f6 ff ff 	lea    -0x9f0(%rbp),%rax
   1652f:	48 89 85 d0 fb ff ff 	mov    %rax,-0x430(%rbp)
   16536:	48 c7 85 d8 fb ff ff 	movq   $0x0,-0x428(%rbp)
   1653d:	00 00 00 00 
   16541:	48 8d 05 f8 7a 00 00 	lea    0x7af8(%rip),%rax        # 1e040 <g_4>
   16548:	48 89 85 e0 fb ff ff 	mov    %rax,-0x420(%rbp)
   1654f:	48 8d 05 da 7a 00 00 	lea    0x7ada(%rip),%rax        # 1e030 <g_3>
   16556:	48 89 85 e8 fb ff ff 	mov    %rax,-0x418(%rbp)
   1655d:	48 8d 05 dc 7a 00 00 	lea    0x7adc(%rip),%rax        # 1e040 <g_4>
   16564:	48 89 85 f0 fb ff ff 	mov    %rax,-0x410(%rbp)
   1656b:	48 8d 85 10 f6 ff ff 	lea    -0x9f0(%rbp),%rax
   16572:	48 89 85 f8 fb ff ff 	mov    %rax,-0x408(%rbp)
   16579:	48 8d 05 c0 7a 00 00 	lea    0x7ac0(%rip),%rax        # 1e040 <g_4>
   16580:	48 89 85 00 fc ff ff 	mov    %rax,-0x400(%rbp)
   16587:	48 8d 85 10 f6 ff ff 	lea    -0x9f0(%rbp),%rax
   1658e:	48 89 85 08 fc ff ff 	mov    %rax,-0x3f8(%rbp)
   16595:	48 8d 05 a8 7a 00 00 	lea    0x7aa8(%rip),%rax        # 1e044 <g_21>
   1659c:	48 89 85 10 fc ff ff 	mov    %rax,-0x3f0(%rbp)
   165a3:	48 c7 85 18 fc ff ff 	movq   $0x0,-0x3e8(%rbp)
   165aa:	00 00 00 00 
   165ae:	48 8d 05 7b 7a 00 00 	lea    0x7a7b(%rip),%rax        # 1e030 <g_3>
   165b5:	48 89 85 20 fc ff ff 	mov    %rax,-0x3e0(%rbp)
   165bc:	48 8d 05 81 7a 00 00 	lea    0x7a81(%rip),%rax        # 1e044 <g_21>
   165c3:	48 89 85 28 fc ff ff 	mov    %rax,-0x3d8(%rbp)
   165ca:	48 c7 85 30 fc ff ff 	movq   $0x0,-0x3d0(%rbp)
   165d1:	00 00 00 00 
   165d5:	48 8d 05 60 7a 00 00 	lea    0x7a60(%rip),%rax        # 1e03c <g_3+0xc>
   165dc:	48 89 85 38 fc ff ff 	mov    %rax,-0x3c8(%rbp)
   165e3:	48 c7 85 40 fc ff ff 	movq   $0x0,-0x3c0(%rbp)
   165ea:	00 00 00 00 
   165ee:	48 c7 85 48 fc ff ff 	movq   $0x0,-0x3b8(%rbp)
   165f5:	00 00 00 00 
   165f9:	48 8d 05 44 7a 00 00 	lea    0x7a44(%rip),%rax        # 1e044 <g_21>
   16600:	48 89 85 50 fc ff ff 	mov    %rax,-0x3b0(%rbp)
   16607:	48 8d 05 22 7a 00 00 	lea    0x7a22(%rip),%rax        # 1e030 <g_3>
   1660e:	48 89 85 58 fc ff ff 	mov    %rax,-0x3a8(%rbp)
   16615:	48 c7 85 60 fc ff ff 	movq   $0x0,-0x3a0(%rbp)
   1661c:	00 00 00 00 
   16620:	48 8d 05 1d 7a 00 00 	lea    0x7a1d(%rip),%rax        # 1e044 <g_21>
   16627:	48 89 85 68 fc ff ff 	mov    %rax,-0x398(%rbp)
   1662e:	48 c7 85 70 fc ff ff 	movq   $0x0,-0x390(%rbp)
   16635:	00 00 00 00 
   16639:	48 8d 05 fc 79 00 00 	lea    0x79fc(%rip),%rax        # 1e03c <g_3+0xc>
   16640:	48 89 85 78 fc ff ff 	mov    %rax,-0x388(%rbp)
   16647:	48 8d 85 10 f6 ff ff 	lea    -0x9f0(%rbp),%rax
   1664e:	48 89 85 80 fc ff ff 	mov    %rax,-0x380(%rbp)
   16655:	48 8d 05 e4 79 00 00 	lea    0x79e4(%rip),%rax        # 1e040 <g_4>
   1665c:	48 89 85 88 fc ff ff 	mov    %rax,-0x378(%rbp)
   16663:	48 8d 05 c6 79 00 00 	lea    0x79c6(%rip),%rax        # 1e030 <g_3>
   1666a:	48 89 85 90 fc ff ff 	mov    %rax,-0x370(%rbp)
   16671:	48 8d 05 c8 79 00 00 	lea    0x79c8(%rip),%rax        # 1e040 <g_4>
   16678:	48 89 85 98 fc ff ff 	mov    %rax,-0x368(%rbp)
   1667f:	48 c7 85 a0 fc ff ff 	movq   $0x0,-0x360(%rbp)
   16686:	00 00 00 00 
   1668a:	48 8d 85 10 f6 ff ff 	lea    -0x9f0(%rbp),%rax
   16691:	48 89 85 a8 fc ff ff 	mov    %rax,-0x358(%rbp)
   16698:	48 8d 05 a1 79 00 00 	lea    0x79a1(%rip),%rax        # 1e040 <g_4>
   1669f:	48 89 85 b0 fc ff ff 	mov    %rax,-0x350(%rbp)
   166a6:	48 8d 85 10 f6 ff ff 	lea    -0x9f0(%rbp),%rax
   166ad:	48 89 85 b8 fc ff ff 	mov    %rax,-0x348(%rbp)
   166b4:	48 8d 05 75 79 00 00 	lea    0x7975(%rip),%rax        # 1e030 <g_3>
   166bb:	48 89 85 c0 fc ff ff 	mov    %rax,-0x340(%rbp)
   166c2:	48 8d 05 67 79 00 00 	lea    0x7967(%rip),%rax        # 1e030 <g_3>
   166c9:	48 89 85 c8 fc ff ff 	mov    %rax,-0x338(%rbp)
   166d0:	48 8d 05 61 79 00 00 	lea    0x7961(%rip),%rax        # 1e038 <g_3+0x8>
   166d7:	48 89 85 d0 fc ff ff 	mov    %rax,-0x330(%rbp)
   166de:	48 8d 05 4b 79 00 00 	lea    0x794b(%rip),%rax        # 1e030 <g_3>
   166e5:	48 89 85 d8 fc ff ff 	mov    %rax,-0x328(%rbp)
   166ec:	48 8d 85 10 f6 ff ff 	lea    -0x9f0(%rbp),%rax
   166f3:	48 89 85 e0 fc ff ff 	mov    %rax,-0x320(%rbp)
   166fa:	48 c7 85 e8 fc ff ff 	movq   $0x0,-0x318(%rbp)
   16701:	00 00 00 00 
   16705:	48 8d 05 38 79 00 00 	lea    0x7938(%rip),%rax        # 1e044 <g_21>
   1670c:	48 89 85 f0 fc ff ff 	mov    %rax,-0x310(%rbp)
   16713:	48 8d 05 ae e1 00 00 	lea    0xe1ae(%rip),%rax        # 248c8 <g_6>
   1671a:	48 89 85 f8 fc ff ff 	mov    %rax,-0x308(%rbp)
   16721:	48 8d 05 08 79 00 00 	lea    0x7908(%rip),%rax        # 1e030 <g_3>
   16728:	48 89 85 00 fd ff ff 	mov    %rax,-0x300(%rbp)
   1672f:	48 8d 05 92 e1 00 00 	lea    0xe192(%rip),%rax        # 248c8 <g_6>
   16736:	48 89 85 08 fd ff ff 	mov    %rax,-0x2f8(%rbp)
   1673d:	48 8d 05 00 79 00 00 	lea    0x7900(%rip),%rax        # 1e044 <g_21>
   16744:	48 89 85 10 fd ff ff 	mov    %rax,-0x2f0(%rbp)
   1674b:	48 8d 05 ee 78 00 00 	lea    0x78ee(%rip),%rax        # 1e040 <g_4>
   16752:	48 89 85 18 fd ff ff 	mov    %rax,-0x2e8(%rbp)
   16759:	48 8d 05 e0 78 00 00 	lea    0x78e0(%rip),%rax        # 1e040 <g_4>
   16760:	48 89 85 20 fd ff ff 	mov    %rax,-0x2e0(%rbp)
   16767:	48 8d 05 c2 78 00 00 	lea    0x78c2(%rip),%rax        # 1e030 <g_3>
   1676e:	48 89 85 28 fd ff ff 	mov    %rax,-0x2d8(%rbp)
   16775:	48 8d 05 bc 78 00 00 	lea    0x78bc(%rip),%rax        # 1e038 <g_3+0x8>
   1677c:	48 89 85 30 fd ff ff 	mov    %rax,-0x2d0(%rbp)
   16783:	48 8d 05 a6 78 00 00 	lea    0x78a6(%rip),%rax        # 1e030 <g_3>
   1678a:	48 89 85 38 fd ff ff 	mov    %rax,-0x2c8(%rbp)
   16791:	48 8d 05 98 78 00 00 	lea    0x7898(%rip),%rax        # 1e030 <g_3>
   16798:	48 89 85 40 fd ff ff 	mov    %rax,-0x2c0(%rbp)
   1679f:	48 8d 85 10 f6 ff ff 	lea    -0x9f0(%rbp),%rax
   167a6:	48 89 85 48 fd ff ff 	mov    %rax,-0x2b8(%rbp)
   167ad:	48 c7 85 50 fd ff ff 	movq   $0x0,-0x2b0(%rbp)
   167b4:	00 00 00 00 
   167b8:	48 8d 85 10 f6 ff ff 	lea    -0x9f0(%rbp),%rax
   167bf:	48 89 85 58 fd ff ff 	mov    %rax,-0x2a8(%rbp)
   167c6:	48 c7 85 60 fd ff ff 	movq   $0x0,-0x2a0(%rbp)
   167cd:	00 00 00 00 
   167d1:	48 8d 05 68 78 00 00 	lea    0x7868(%rip),%rax        # 1e040 <g_4>
   167d8:	48 89 85 68 fd ff ff 	mov    %rax,-0x298(%rbp)
   167df:	48 8d 05 4a 78 00 00 	lea    0x784a(%rip),%rax        # 1e030 <g_3>
   167e6:	48 89 85 70 fd ff ff 	mov    %rax,-0x290(%rbp)
   167ed:	48 8d 05 4c 78 00 00 	lea    0x784c(%rip),%rax        # 1e040 <g_4>
   167f4:	48 89 85 78 fd ff ff 	mov    %rax,-0x288(%rbp)
   167fb:	48 8d 85 10 f6 ff ff 	lea    -0x9f0(%rbp),%rax
   16802:	48 89 85 80 fd ff ff 	mov    %rax,-0x280(%rbp)
   16809:	48 8d 05 30 78 00 00 	lea    0x7830(%rip),%rax        # 1e040 <g_4>
   16810:	48 89 85 88 fd ff ff 	mov    %rax,-0x278(%rbp)
   16817:	48 8d 85 10 f6 ff ff 	lea    -0x9f0(%rbp),%rax
   1681e:	48 89 85 90 fd ff ff 	mov    %rax,-0x270(%rbp)
   16825:	48 8d 05 18 78 00 00 	lea    0x7818(%rip),%rax        # 1e044 <g_21>
   1682c:	48 89 85 98 fd ff ff 	mov    %rax,-0x268(%rbp)
   16833:	48 c7 85 a0 fd ff ff 	movq   $0x0,-0x260(%rbp)
   1683a:	00 00 00 00 
   1683e:	48 8d 05 eb 77 00 00 	lea    0x77eb(%rip),%rax        # 1e030 <g_3>
   16845:	48 89 85 a8 fd ff ff 	mov    %rax,-0x258(%rbp)
   1684c:	48 8d 05 f1 77 00 00 	lea    0x77f1(%rip),%rax        # 1e044 <g_21>
   16853:	48 89 85 b0 fd ff ff 	mov    %rax,-0x250(%rbp)
   1685a:	48 c7 85 b8 fd ff ff 	movq   $0x0,-0x248(%rbp)
   16861:	00 00 00 00 
   16865:	48 8d 05 d0 77 00 00 	lea    0x77d0(%rip),%rax        # 1e03c <g_3+0xc>
   1686c:	48 89 85 c0 fd ff ff 	mov    %rax,-0x240(%rbp)
   16873:	48 c7 85 c8 fd ff ff 	movq   $0x0,-0x238(%rbp)
   1687a:	00 00 00 00 
   1687e:	48 c7 85 d0 fd ff ff 	movq   $0x0,-0x230(%rbp)
   16885:	00 00 00 00 
   16889:	48 8d 05 b4 77 00 00 	lea    0x77b4(%rip),%rax        # 1e044 <g_21>
   16890:	48 89 85 d8 fd ff ff 	mov    %rax,-0x228(%rbp)
   16897:	48 8d 05 92 77 00 00 	lea    0x7792(%rip),%rax        # 1e030 <g_3>
   1689e:	48 89 85 e0 fd ff ff 	mov    %rax,-0x220(%rbp)
   168a5:	48 c7 85 e8 fd ff ff 	movq   $0x0,-0x218(%rbp)
   168ac:	00 00 00 00 
   168b0:	48 8d 05 8d 77 00 00 	lea    0x778d(%rip),%rax        # 1e044 <g_21>
   168b7:	48 89 85 f0 fd ff ff 	mov    %rax,-0x210(%rbp)
   168be:	48 c7 85 f8 fd ff ff 	movq   $0x0,-0x208(%rbp)
   168c5:	00 00 00 00 
   168c9:	48 8d 05 6c 77 00 00 	lea    0x776c(%rip),%rax        # 1e03c <g_3+0xc>
   168d0:	48 89 85 00 fe ff ff 	mov    %rax,-0x200(%rbp)
   168d7:	48 8d 85 10 f6 ff ff 	lea    -0x9f0(%rbp),%rax
   168de:	48 89 85 08 fe ff ff 	mov    %rax,-0x1f8(%rbp)
   168e5:	48 8d 05 54 77 00 00 	lea    0x7754(%rip),%rax        # 1e040 <g_4>
   168ec:	48 89 85 10 fe ff ff 	mov    %rax,-0x1f0(%rbp)
   168f3:	48 8d 05 36 77 00 00 	lea    0x7736(%rip),%rax        # 1e030 <g_3>
   168fa:	48 89 85 18 fe ff ff 	mov    %rax,-0x1e8(%rbp)
   16901:	48 8d 05 38 77 00 00 	lea    0x7738(%rip),%rax        # 1e040 <g_4>
   16908:	48 89 85 20 fe ff ff 	mov    %rax,-0x1e0(%rbp)
   1690f:	48 c7 85 28 fe ff ff 	movq   $0x0,-0x1d8(%rbp)
   16916:	00 00 00 00 
   1691a:	48 8d 85 10 f6 ff ff 	lea    -0x9f0(%rbp),%rax
   16921:	48 89 85 30 fe ff ff 	mov    %rax,-0x1d0(%rbp)
   16928:	48 8d 05 11 77 00 00 	lea    0x7711(%rip),%rax        # 1e040 <g_4>
   1692f:	48 89 85 38 fe ff ff 	mov    %rax,-0x1c8(%rbp)
   16936:	48 8d 85 10 f6 ff ff 	lea    -0x9f0(%rbp),%rax
   1693d:	48 89 85 40 fe ff ff 	mov    %rax,-0x1c0(%rbp)
   16944:	48 8d 05 e5 76 00 00 	lea    0x76e5(%rip),%rax        # 1e030 <g_3>
   1694b:	48 89 85 48 fe ff ff 	mov    %rax,-0x1b8(%rbp)
   16952:	48 8d 05 d7 76 00 00 	lea    0x76d7(%rip),%rax        # 1e030 <g_3>
   16959:	48 89 85 50 fe ff ff 	mov    %rax,-0x1b0(%rbp)
   16960:	48 8d 05 d1 76 00 00 	lea    0x76d1(%rip),%rax        # 1e038 <g_3+0x8>
   16967:	48 89 85 58 fe ff ff 	mov    %rax,-0x1a8(%rbp)
   1696e:	48 8d 05 bb 76 00 00 	lea    0x76bb(%rip),%rax        # 1e030 <g_3>
   16975:	48 89 85 60 fe ff ff 	mov    %rax,-0x1a0(%rbp)
   1697c:	48 8d 85 10 f6 ff ff 	lea    -0x9f0(%rbp),%rax
   16983:	48 89 85 68 fe ff ff 	mov    %rax,-0x198(%rbp)
   1698a:	48 c7 85 70 fe ff ff 	movq   $0x0,-0x190(%rbp)
   16991:	00 00 00 00 
   16995:	48 8d 05 a8 76 00 00 	lea    0x76a8(%rip),%rax        # 1e044 <g_21>
   1699c:	48 89 85 78 fe ff ff 	mov    %rax,-0x188(%rbp)
   169a3:	48 8d 05 1e df 00 00 	lea    0xdf1e(%rip),%rax        # 248c8 <g_6>
   169aa:	48 89 85 80 fe ff ff 	mov    %rax,-0x180(%rbp)
   169b1:	48 8d 05 78 76 00 00 	lea    0x7678(%rip),%rax        # 1e030 <g_3>
   169b8:	48 89 85 88 fe ff ff 	mov    %rax,-0x178(%rbp)
   169bf:	48 8d 05 02 df 00 00 	lea    0xdf02(%rip),%rax        # 248c8 <g_6>
   169c6:	48 89 85 90 fe ff ff 	mov    %rax,-0x170(%rbp)
   169cd:	48 8d 05 70 76 00 00 	lea    0x7670(%rip),%rax        # 1e044 <g_21>
   169d4:	48 89 85 98 fe ff ff 	mov    %rax,-0x168(%rbp)
   169db:	48 8d 05 5e 76 00 00 	lea    0x765e(%rip),%rax        # 1e040 <g_4>
   169e2:	48 89 85 a0 fe ff ff 	mov    %rax,-0x160(%rbp)
   169e9:	48 8d 05 50 76 00 00 	lea    0x7650(%rip),%rax        # 1e040 <g_4>
   169f0:	48 89 85 a8 fe ff ff 	mov    %rax,-0x158(%rbp)
   169f7:	48 8d 05 32 76 00 00 	lea    0x7632(%rip),%rax        # 1e030 <g_3>
   169fe:	48 89 85 b0 fe ff ff 	mov    %rax,-0x150(%rbp)
   16a05:	48 8d 05 2c 76 00 00 	lea    0x762c(%rip),%rax        # 1e038 <g_3+0x8>
   16a0c:	48 89 85 b8 fe ff ff 	mov    %rax,-0x148(%rbp)
   16a13:	48 8d 05 16 76 00 00 	lea    0x7616(%rip),%rax        # 1e030 <g_3>
   16a1a:	48 89 85 c0 fe ff ff 	mov    %rax,-0x140(%rbp)
   16a21:	48 8d 05 08 76 00 00 	lea    0x7608(%rip),%rax        # 1e030 <g_3>
   16a28:	48 89 85 c8 fe ff ff 	mov    %rax,-0x138(%rbp)
   16a2f:	48 8d 85 10 f6 ff ff 	lea    -0x9f0(%rbp),%rax
   16a36:	48 89 85 d0 fe ff ff 	mov    %rax,-0x130(%rbp)
   16a3d:	48 c7 85 d8 fe ff ff 	movq   $0x0,-0x128(%rbp)
   16a44:	00 00 00 00 
   16a48:	48 8d 85 10 f6 ff ff 	lea    -0x9f0(%rbp),%rax
   16a4f:	48 89 85 e0 fe ff ff 	mov    %rax,-0x120(%rbp)
   16a56:	48 c7 85 e8 fe ff ff 	movq   $0x0,-0x118(%rbp)
   16a5d:	00 00 00 00 
   16a61:	48 8d 05 d8 75 00 00 	lea    0x75d8(%rip),%rax        # 1e040 <g_4>
   16a68:	48 89 85 f0 fe ff ff 	mov    %rax,-0x110(%rbp)
   16a6f:	48 8d 05 ba 75 00 00 	lea    0x75ba(%rip),%rax        # 1e030 <g_3>
   16a76:	48 89 85 f8 fe ff ff 	mov    %rax,-0x108(%rbp)
   16a7d:	48 8d 05 bc 75 00 00 	lea    0x75bc(%rip),%rax        # 1e040 <g_4>
   16a84:	48 89 85 00 ff ff ff 	mov    %rax,-0x100(%rbp)
   16a8b:	48 8d 85 10 f6 ff ff 	lea    -0x9f0(%rbp),%rax
   16a92:	48 89 85 08 ff ff ff 	mov    %rax,-0xf8(%rbp)
   16a99:	48 8d 05 a0 75 00 00 	lea    0x75a0(%rip),%rax        # 1e040 <g_4>
   16aa0:	48 89 85 10 ff ff ff 	mov    %rax,-0xf0(%rbp)
   16aa7:	48 8d 85 10 f6 ff ff 	lea    -0x9f0(%rbp),%rax
   16aae:	48 89 85 18 ff ff ff 	mov    %rax,-0xe8(%rbp)
   16ab5:	48 8d 05 88 75 00 00 	lea    0x7588(%rip),%rax        # 1e044 <g_21>
   16abc:	48 89 85 20 ff ff ff 	mov    %rax,-0xe0(%rbp)
   16ac3:	48 c7 85 28 ff ff ff 	movq   $0x0,-0xd8(%rbp)
   16aca:	00 00 00 00 
   16ace:	48 8d 05 5b 75 00 00 	lea    0x755b(%rip),%rax        # 1e030 <g_3>
   16ad5:	48 89 85 30 ff ff ff 	mov    %rax,-0xd0(%rbp)
   16adc:	48 8d 05 61 75 00 00 	lea    0x7561(%rip),%rax        # 1e044 <g_21>
   16ae3:	48 89 85 38 ff ff ff 	mov    %rax,-0xc8(%rbp)
   16aea:	48 c7 85 40 ff ff ff 	movq   $0x0,-0xc0(%rbp)
   16af1:	00 00 00 00 
   16af5:	48 8d 05 40 75 00 00 	lea    0x7540(%rip),%rax        # 1e03c <g_3+0xc>
   16afc:	48 89 85 48 ff ff ff 	mov    %rax,-0xb8(%rbp)
   16b03:	48 c7 85 50 ff ff ff 	movq   $0x0,-0xb0(%rbp)
   16b0a:	00 00 00 00 
   16b0e:	48 c7 85 58 ff ff ff 	movq   $0x0,-0xa8(%rbp)
   16b15:	00 00 00 00 
   16b19:	48 8d 05 24 75 00 00 	lea    0x7524(%rip),%rax        # 1e044 <g_21>
   16b20:	48 89 85 60 ff ff ff 	mov    %rax,-0xa0(%rbp)
   16b27:	48 8d 05 02 75 00 00 	lea    0x7502(%rip),%rax        # 1e030 <g_3>
   16b2e:	48 89 85 68 ff ff ff 	mov    %rax,-0x98(%rbp)
   16b35:	48 c7 85 70 ff ff ff 	movq   $0x0,-0x90(%rbp)
   16b3c:	00 00 00 00 
   16b40:	48 8d 05 fd 74 00 00 	lea    0x74fd(%rip),%rax        # 1e044 <g_21>
   16b47:	48 89 85 78 ff ff ff 	mov    %rax,-0x88(%rbp)
   16b4e:	48 c7 45 80 00 00 00 	movq   $0x0,-0x80(%rbp)
   16b55:	00 
   16b56:	48 8d 05 df 74 00 00 	lea    0x74df(%rip),%rax        # 1e03c <g_3+0xc>
   16b5d:	48 89 45 88          	mov    %rax,-0x78(%rbp)
   16b61:	48 8d 85 10 f6 ff ff 	lea    -0x9f0(%rbp),%rax
   16b68:	48 89 45 90          	mov    %rax,-0x70(%rbp)
   16b6c:	48 8d 05 cd 74 00 00 	lea    0x74cd(%rip),%rax        # 1e040 <g_4>
   16b73:	48 89 45 98          	mov    %rax,-0x68(%rbp)
   16b77:	48 8d 05 b2 74 00 00 	lea    0x74b2(%rip),%rax        # 1e030 <g_3>
   16b7e:	48 89 45 a0          	mov    %rax,-0x60(%rbp)
   16b82:	48 8d 05 b7 74 00 00 	lea    0x74b7(%rip),%rax        # 1e040 <g_4>
   16b89:	48 89 45 a8          	mov    %rax,-0x58(%rbp)
   16b8d:	48 c7 45 b0 00 00 00 	movq   $0x0,-0x50(%rbp)
   16b94:	00 
   16b95:	c7 85 14 f6 ff ff 06 	movl   $0x6,-0x9ec(%rbp)
   16b9c:	00 00 00 
   16b9f:	48 8d 05 b2 75 00 00 	lea    0x75b2(%rip),%rax        # 1e158 <g_107>
   16ba6:	48 89 85 48 f6 ff ff 	mov    %rax,-0x9b8(%rbp)
   16bad:	c7 85 18 f6 ff ff e3 	movl   $0xcd882e3,-0x9e8(%rbp)
   16bb4:	82 d8 0c 
   16bb7:	c6 85 0b f6 ff ff c4 	movb   $0xc4,-0x9f5(%rbp)
   16bbe:	48 b8 ff 7f 7f ff 7f 	movabs $0x7fff7f7fff7f7fff,%rax
   16bc5:	7f ff 7f 
   16bc8:	48 89 45 c0          	mov    %rax,-0x40(%rbp)
   16bcc:	0f b6 05 75 75 00 00 	movzbl 0x7575(%rip),%eax        # 1e148 <g_90>
   16bd3:	83 e8 01             	sub    $0x1,%eax
   16bd6:	88 05 6c 75 00 00    	mov    %al,0x756c(%rip)        # 1e148 <g_90>
   16bdc:	8b 05 62 74 00 00    	mov    0x7462(%rip),%eax        # 1e044 <g_21>
   16be2:	89 c3                	mov    %eax,%ebx
   16be4:	8b 05 7e 74 00 00    	mov    0x747e(%rip),%eax        # 1e068 <g_37>
   16bea:	0f b6 d0             	movzbl %al,%edx
   16bed:	0f b6 05 54 74 00 00 	movzbl 0x7454(%rip),%eax        # 1e048 <g_22>
   16bf4:	0f be c8             	movsbl %al,%ecx
   16bf7:	0f b6 85 f4 f5 ff ff 	movzbl -0xa0c(%rbp),%eax
   16bfe:	39 c1                	cmp    %eax,%ecx
   16c00:	0f 9c c0             	setl   %al
   16c03:	0f b6 c8             	movzbl %al,%ecx
   16c06:	8b 05 34 74 00 00    	mov    0x7434(%rip),%eax        # 1e040 <g_4>
   16c0c:	48 98                	cltq   
   16c0e:	48 39 c1             	cmp    %rax,%rcx
   16c11:	0f 92 c0             	setb   %al
   16c14:	0f b6 c0             	movzbl %al,%eax
   16c17:	89 d6                	mov    %edx,%esi
   16c19:	89 c7                	mov    %eax,%edi
   16c1b:	e8 3a 2f ff ff       	callq  9b5a <safe_add_func_uint8_t_u_u>
   16c20:	0f b6 85 f4 f5 ff ff 	movzbl -0xa0c(%rbp),%eax
   16c27:	48 89 05 22 75 00 00 	mov    %rax,0x7522(%rip)        # 1e150 <g_105>
   16c2e:	48 8b 05 1b 75 00 00 	mov    0x751b(%rip),%rax        # 1e150 <g_105>
   16c35:	48 89 c2             	mov    %rax,%rdx
   16c38:	48 8b 85 48 f6 ff ff 	mov    -0x9b8(%rbp),%rax
   16c3f:	48 89 10             	mov    %rdx,(%rax)
   16c42:	48 8b 85 48 f6 ff ff 	mov    -0x9b8(%rbp),%rax
   16c49:	48 8b 00             	mov    (%rax),%rax
   16c4c:	49 89 c4             	mov    %rax,%r12
   16c4f:	8b 05 73 dc 00 00    	mov    0xdc73(%rip),%eax        # 248c8 <g_6>
   16c55:	0f b6 c0             	movzbl %al,%eax
   16c58:	be 01 00 00 00       	mov    $0x1,%esi
   16c5d:	89 c7                	mov    %eax,%edi
   16c5f:	e8 5a 30 ff ff       	callq  9cbe <safe_rshift_func_uint8_t_u_u>
   16c64:	0f b6 d0             	movzbl %al,%edx
   16c67:	0f b6 85 f4 f5 ff ff 	movzbl -0xa0c(%rbp),%eax
   16c6e:	48 89 d6             	mov    %rdx,%rsi
   16c71:	48 89 c7             	mov    %rax,%rdi
   16c74:	e8 d2 33 ff ff       	callq  a04b <safe_sub_func_uint64_t_u_u>
   16c79:	ba 5b c3 02 8a       	mov    $0x8a02c35b,%edx
   16c7e:	48 39 d0             	cmp    %rdx,%rax
   16c81:	0f 95 c0             	setne  %al
   16c84:	0f b6 c0             	movzbl %al,%eax
   16c87:	4c 89 e6             	mov    %r12,%rsi
   16c8a:	48 89 c7             	mov    %rax,%rdi
   16c8d:	e8 16 2c ff ff       	callq  98a8 <safe_sub_func_int64_t_s_s>
   16c92:	8b 05 a8 73 00 00    	mov    0x73a8(%rip),%eax        # 1e040 <g_4>
   16c98:	3d e8 9a a3 3e       	cmp    $0x3ea39ae8,%eax
   16c9d:	0f 95 c0             	setne  %al
   16ca0:	0f b6 c0             	movzbl %al,%eax
   16ca3:	89 de                	mov    %ebx,%esi
   16ca5:	89 c7                	mov    %eax,%edi
   16ca7:	e8 79 32 ff ff       	callq  9f25 <safe_div_func_uint32_t_u_u>
   16cac:	8b 85 18 f6 ff ff    	mov    -0x9e8(%rbp),%eax
   16cb2:	83 f0 01             	xor    $0x1,%eax
   16cb5:	89 c2                	mov    %eax,%edx
   16cb7:	48 8d 85 10 f6 ff ff 	lea    -0x9f0(%rbp),%rax
   16cbe:	48 39 85 e8 f5 ff ff 	cmp    %rax,-0xa18(%rbp)
   16cc5:	0f 94 c0             	sete   %al
   16cc8:	0f b6 c0             	movzbl %al,%eax
   16ccb:	89 d6                	mov    %edx,%esi
   16ccd:	89 c7                	mov    %eax,%edi
   16ccf:	e8 1a 26 ff ff       	callq  92ee <safe_lshift_func_int8_t_s_u>
   16cd4:	84 c0                	test   %al,%al
   16cd6:	0f 84 57 01 00 00    	je     16e33 <func_73+0xce2>
   16cdc:	66 c7 85 0e f6 ff ff 	movw   $0xfff9,-0x9f2(%rbp)
   16ce3:	f9 ff 
   16ce5:	48 c7 85 78 f6 ff ff 	movq   $0x0,-0x988(%rbp)
   16cec:	00 00 00 00 
   16cf0:	c7 85 24 f6 ff ff a5 	movl   $0xd20874a5,-0x9dc(%rbp)
   16cf7:	74 08 d2 
   16cfa:	48 8d 05 4f 74 00 00 	lea    0x744f(%rip),%rax        # 1e150 <g_105>
   16d01:	48 89 85 80 f6 ff ff 	mov    %rax,-0x980(%rbp)
   16d08:	48 8d 85 28 f6 ff ff 	lea    -0x9d8(%rbp),%rax
   16d0f:	48 89 85 88 f6 ff ff 	mov    %rax,-0x978(%rbp)
   16d16:	48 8b 05 43 74 00 00 	mov    0x7443(%rip),%rax        # 1e160 <g_110>
   16d1d:	48 83 c0 01          	add    $0x1,%rax
   16d21:	48 89 05 38 74 00 00 	mov    %rax,0x7438(%rip)        # 1e160 <g_110>
   16d28:	0f b6 05 19 74 00 00 	movzbl 0x7419(%rip),%eax        # 1e148 <g_90>
   16d2f:	0f be d8             	movsbl %al,%ebx
   16d32:	48 8b 85 f8 f5 ff ff 	mov    -0xa08(%rbp),%rax
   16d39:	8b 00                	mov    (%rax),%eax
   16d3b:	c7 85 24 f6 ff ff 01 	movl   $0x1,-0x9dc(%rbp)
   16d42:	00 00 00 
   16d45:	39 85 24 f6 ff ff    	cmp    %eax,-0x9dc(%rbp)
   16d4b:	0f 9d c0             	setge  %al
   16d4e:	44 0f b6 e8          	movzbl %al,%r13d
   16d52:	8b 05 ec 72 00 00    	mov    0x72ec(%rip),%eax        # 1e044 <g_21>
   16d58:	44 0f bf e0          	movswl %ax,%r12d
   16d5c:	0f bf 85 0e f6 ff ff 	movswl -0x9f2(%rbp),%eax
   16d63:	48 8b 15 f6 73 00 00 	mov    0x73f6(%rip),%rdx        # 1e160 <g_110>
   16d6a:	89 c6                	mov    %eax,%esi
   16d6c:	89 d7                	mov    %edx,%edi
   16d6e:	e8 45 31 ff ff       	callq  9eb8 <safe_add_func_uint32_t_u_u>
   16d73:	8b 05 4f 73 00 00    	mov    0x734f(%rip),%eax        # 1e0c8 <g_89+0x48>
   16d79:	0f b6 c0             	movzbl %al,%eax
   16d7c:	89 c6                	mov    %eax,%esi
   16d7e:	bf e3 00 00 00       	mov    $0xe3,%edi
   16d83:	e8 0b 2e ff ff       	callq  9b93 <safe_mul_func_uint8_t_u_u>
   16d88:	48 8b 85 80 f6 ff ff 	mov    -0x980(%rbp),%rax
   16d8f:	48 c7 00 fe ff ff ff 	movq   $0xfffffffffffffffe,(%rax)
   16d96:	48 8b 85 80 f6 ff ff 	mov    -0x980(%rbp),%rax
   16d9d:	48 8b 00             	mov    (%rax),%rax
   16da0:	89 c2                	mov    %eax,%edx
   16da2:	0f b7 85 0e f6 ff ff 	movzwl -0x9f2(%rbp),%eax
   16da9:	31 d0                	xor    %edx,%eax
   16dab:	0f b6 c0             	movzbl %al,%eax
   16dae:	be 45 00 00 00       	mov    $0x45,%esi
   16db3:	89 c7                	mov    %eax,%edi
   16db5:	e8 f4 2d ff ff       	callq  9bae <safe_mod_func_uint8_t_u_u>
   16dba:	84 c0                	test   %al,%al
   16dbc:	75 09                	jne    16dc7 <func_73+0xc76>
   16dbe:	80 bd f4 f5 ff ff 00 	cmpb   $0x0,-0xa0c(%rbp)
   16dc5:	74 07                	je     16dce <func_73+0xc7d>
   16dc7:	b8 01 00 00 00       	mov    $0x1,%eax
   16dcc:	eb 05                	jmp    16dd3 <func_73+0xc82>
   16dce:	b8 00 00 00 00       	mov    $0x0,%eax
   16dd3:	98                   	cwtl   
   16dd4:	44 89 e6             	mov    %r12d,%esi
   16dd7:	89 c7                	mov    %eax,%edi
   16dd9:	e8 17 26 ff ff       	callq  93f5 <safe_mul_func_int16_t_s_s>
   16dde:	0f b6 c0             	movzbl %al,%eax
   16de1:	be fd 00 00 00       	mov    $0xfd,%esi
   16de6:	89 c7                	mov    %eax,%edi
   16de8:	e8 a6 2d ff ff       	callq  9b93 <safe_mul_func_uint8_t_u_u>
   16ded:	0f b6 c0             	movzbl %al,%eax
   16df0:	44 09 e8             	or     %r13d,%eax
   16df3:	85 c0                	test   %eax,%eax
   16df5:	75 07                	jne    16dfe <func_73+0xcad>
   16df7:	80 bd f4 f5 ff ff 00 	cmpb   $0x0,-0xa0c(%rbp)
   16dfe:	be 00 00 00 00       	mov    $0x0,%esi
   16e03:	bf fd 00 00 00       	mov    $0xfd,%edi
   16e08:	e8 86 2d ff ff       	callq  9b93 <safe_mul_func_uint8_t_u_u>
   16e0d:	0f b6 05 34 73 00 00 	movzbl 0x7334(%rip),%eax        # 1e148 <g_90>
   16e14:	0f be c0             	movsbl %al,%eax
   16e17:	89 de                	mov    %ebx,%esi
   16e19:	89 c7                	mov    %eax,%edi
   16e1b:	e8 4a 24 ff ff       	callq  926a <safe_div_func_int8_t_s_s>
   16e20:	48 8b 85 88 f6 ff ff 	mov    -0x978(%rbp),%rax
   16e27:	48 c7 00 00 00 00 00 	movq   $0x0,(%rax)
   16e2e:	e9 6c 03 00 00       	jmpq   1719f <func_73+0x104e>
   16e33:	66 c7 85 0c f6 ff ff 	movw   $0xffff,-0x9f4(%rbp)
   16e3a:	ff ff 
   16e3c:	c7 85 1c f6 ff ff 01 	movl   $0x1,-0x9e4(%rbp)
   16e43:	00 00 00 
   16e46:	c7 85 20 f6 ff ff ff 	movl   $0xffffffff,-0x9e0(%rbp)
   16e4d:	ff ff ff 
   16e50:	c7 85 90 f6 ff ff b3 	movl   $0xc868a9b3,-0x970(%rbp)
   16e57:	a9 68 c8 
   16e5a:	c7 85 94 f6 ff ff b3 	movl   $0xc868a9b3,-0x96c(%rbp)
   16e61:	a9 68 c8 
   16e64:	c7 85 98 f6 ff ff b3 	movl   $0xc868a9b3,-0x968(%rbp)
   16e6b:	a9 68 c8 
   16e6e:	c7 85 9c f6 ff ff b3 	movl   $0xc868a9b3,-0x964(%rbp)
   16e75:	a9 68 c8 
   16e78:	c7 85 a0 f6 ff ff b3 	movl   $0xc868a9b3,-0x960(%rbp)
   16e7f:	a9 68 c8 
   16e82:	48 b8 61 19 20 3d 7f 	movabs $0xe676b47f3d201961,%rax
   16e89:	b4 76 e6 
   16e8c:	48 89 85 50 f6 ff ff 	mov    %rax,-0x9b0(%rbp)
   16e93:	48 c7 85 58 f6 ff ff 	movq   $0x0,-0x9a8(%rbp)
   16e9a:	00 00 00 00 
   16e9e:	48 8d 85 d0 f9 ff ff 	lea    -0x630(%rbp),%rax
   16ea5:	48 83 c0 28          	add    $0x28,%rax
   16ea9:	48 89 85 b0 f6 ff ff 	mov    %rax,-0x950(%rbp)
   16eb0:	48 8d 85 d0 f9 ff ff 	lea    -0x630(%rbp),%rax
   16eb7:	48 83 c0 28          	add    $0x28,%rax
   16ebb:	48 89 85 b8 f6 ff ff 	mov    %rax,-0x948(%rbp)
   16ec2:	48 8d 85 d0 f9 ff ff 	lea    -0x630(%rbp),%rax
   16ec9:	48 83 c0 28          	add    $0x28,%rax
   16ecd:	48 89 85 c0 f6 ff ff 	mov    %rax,-0x940(%rbp)
   16ed4:	48 8d 85 d0 f9 ff ff 	lea    -0x630(%rbp),%rax
   16edb:	48 83 c0 28          	add    $0x28,%rax
   16edf:	48 89 85 c8 f6 ff ff 	mov    %rax,-0x938(%rbp)
   16ee6:	48 8d 85 d0 f9 ff ff 	lea    -0x630(%rbp),%rax
   16eed:	48 83 c0 28          	add    $0x28,%rax
   16ef1:	48 89 85 d0 f6 ff ff 	mov    %rax,-0x930(%rbp)
   16ef8:	48 8d 85 d0 f9 ff ff 	lea    -0x630(%rbp),%rax
   16eff:	48 83 c0 28          	add    $0x28,%rax
   16f03:	48 89 85 d8 f6 ff ff 	mov    %rax,-0x928(%rbp)
   16f0a:	48 8d 85 d0 f9 ff ff 	lea    -0x630(%rbp),%rax
   16f11:	48 83 c0 28          	add    $0x28,%rax
   16f15:	48 89 85 e0 f6 ff ff 	mov    %rax,-0x920(%rbp)
   16f1c:	48 8d 85 d0 f9 ff ff 	lea    -0x630(%rbp),%rax
   16f23:	48 83 c0 28          	add    $0x28,%rax
   16f27:	48 89 85 e8 f6 ff ff 	mov    %rax,-0x918(%rbp)
   16f2e:	48 8d 85 d0 f9 ff ff 	lea    -0x630(%rbp),%rax
   16f35:	48 83 c0 28          	add    $0x28,%rax
   16f39:	48 89 85 f0 f6 ff ff 	mov    %rax,-0x910(%rbp)
   16f40:	48 8d 85 d0 f9 ff ff 	lea    -0x630(%rbp),%rax
   16f47:	48 83 c0 28          	add    $0x28,%rax
   16f4b:	48 89 85 f8 f6 ff ff 	mov    %rax,-0x908(%rbp)
   16f52:	48 8d 05 ef 70 00 00 	lea    0x70ef(%rip),%rax        # 1e048 <g_22>
   16f59:	48 89 85 60 f6 ff ff 	mov    %rax,-0x9a0(%rbp)
   16f60:	48 8d 05 11 72 00 00 	lea    0x7211(%rip),%rax        # 1e178 <g_145+0x8>
   16f67:	48 89 85 30 f6 ff ff 	mov    %rax,-0x9d0(%rbp)
   16f6e:	48 8d 85 30 f6 ff ff 	lea    -0x9d0(%rbp),%rax
   16f75:	48 89 85 68 f6 ff ff 	mov    %rax,-0x998(%rbp)
   16f7c:	48 8d 85 00 f7 ff ff 	lea    -0x900(%rbp),%rax
   16f83:	48 8d 15 36 c3 00 00 	lea    0xc336(%rip),%rdx        # 232c0 <g_1852+0x2118>
   16f8a:	b9 5a 00 00 00       	mov    $0x5a,%ecx
   16f8f:	48 89 c7             	mov    %rax,%rdi
   16f92:	48 89 d6             	mov    %rdx,%rsi
   16f95:	f3 48 a5             	rep movsq %ds:(%rsi),%es:(%rdi)
   16f98:	48 8d 05 f9 71 00 00 	lea    0x71f9(%rip),%rax        # 1e198 <g_188>
   16f9f:	48 89 85 70 f6 ff ff 	mov    %rax,-0x990(%rbp)
   16fa6:	48 8b 85 f8 f5 ff ff 	mov    -0xa08(%rbp),%rax
   16fad:	8b 10                	mov    (%rax),%edx
   16faf:	48 8b 85 f8 f5 ff ff 	mov    -0xa08(%rbp),%rax
   16fb6:	83 e2 01             	and    $0x1,%edx
   16fb9:	89 10                	mov    %edx,(%rax)
   16fbb:	48 8b 05 8e 71 00 00 	mov    0x718e(%rip),%rax        # 1e150 <g_105>
   16fc2:	0f be d8             	movsbl %al,%ebx
   16fc5:	8b 15 1d 71 00 00    	mov    0x711d(%rip),%edx        # 1e0e8 <g_89+0x68>
   16fcb:	48 8b 85 40 f6 ff ff 	mov    -0x9c0(%rbp),%rax
   16fd2:	89 10                	mov    %edx,(%rax)
   16fd4:	48 8b 85 40 f6 ff ff 	mov    -0x9c0(%rbp),%rax
   16fdb:	8b 00                	mov    (%rax),%eax
   16fdd:	85 c0                	test   %eax,%eax
   16fdf:	75 13                	jne    16ff4 <func_73+0xea3>
   16fe1:	be 63 66 e8 83       	mov    $0x83e86663,%esi
   16fe6:	bf fc ff ff ff       	mov    $0xfffffffc,%edi
   16feb:	e8 15 26 ff ff       	callq  9605 <safe_sub_func_int32_t_s_s>
   16ff0:	85 c0                	test   %eax,%eax
   16ff2:	74 07                	je     16ffb <func_73+0xeaa>
   16ff4:	ba 01 00 00 00       	mov    $0x1,%edx
   16ff9:	eb 05                	jmp    17000 <func_73+0xeaf>
   16ffb:	ba 00 00 00 00       	mov    $0x0,%edx
   17000:	0f b7 85 0c f6 ff ff 	movzwl -0x9f4(%rbp),%eax
   17007:	0f b6 c0             	movzbl %al,%eax
   1700a:	89 d6                	mov    %edx,%esi
   1700c:	89 c7                	mov    %eax,%edi
   1700e:	e8 7a 2c ff ff       	callq  9c8d <safe_rshift_func_uint8_t_u_s>
   17013:	89 de                	mov    %ebx,%esi
   17015:	bf 01 00 00 00       	mov    $0x1,%edi
   1701a:	e8 12 22 ff ff       	callq  9231 <safe_mod_func_int8_t_s_s>
   1701f:	0f be d0             	movsbl %al,%edx
   17022:	8b 05 1c 70 00 00    	mov    0x701c(%rip),%eax        # 1e044 <g_21>
   17028:	31 d0                	xor    %edx,%eax
   1702a:	89 05 14 70 00 00    	mov    %eax,0x7014(%rip)        # 1e044 <g_21>
   17030:	48 83 ad 50 f6 ff ff 	subq   $0x1,-0x9b0(%rbp)
   17037:	01 
   17038:	48 8b 05 69 c5 00 00 	mov    0xc569(%rip),%rax        # 235a8 <g_152>
   1703f:	48 85 c0             	test   %rax,%rax
   17042:	0f 94 c0             	sete   %al
   17045:	44 0f b6 e0          	movzbl %al,%r12d
   17049:	8b 05 19 70 00 00    	mov    0x7019(%rip),%eax        # 1e068 <g_37>
   1704f:	41 89 c5             	mov    %eax,%r13d
   17052:	48 8b 85 40 f6 ff ff 	mov    -0x9c0(%rbp),%rax
   17059:	8b 00                	mov    (%rax),%eax
   1705b:	41 89 c6             	mov    %eax,%r14d
   1705e:	0f b6 9d f4 f5 ff ff 	movzbl -0xa0c(%rbp),%ebx
   17065:	48 8b 05 1c 71 00 00 	mov    0x711c(%rip),%rax        # 1e188 <g_147>
   1706c:	41 89 c7             	mov    %eax,%r15d
   1706f:	48 8b 85 68 f6 ff ff 	mov    -0x998(%rbp),%rax
   17076:	48 8d 15 fd 70 00 00 	lea    0x70fd(%rip),%rdx        # 1e17a <g_145+0xa>
   1707d:	48 89 10             	mov    %rdx,(%rax)
   17080:	be 05 00 00 00       	mov    $0x5,%esi
   17085:	bf 00 00 00 00       	mov    $0x0,%edi
   1708a:	e8 12 22 ff ff       	callq  92a1 <safe_lshift_func_int8_t_s_s>
   1708f:	0f be c0             	movsbl %al,%eax
   17092:	48 8b 95 60 f6 ff ff 	mov    -0x9a0(%rbp),%rdx
   17099:	c6 02 01             	movb   $0x1,(%rdx)
   1709c:	89 c6                	mov    %eax,%esi
   1709e:	bf 01 00 00 00       	mov    $0x1,%edi
   170a3:	e8 8d 22 ff ff       	callq  9335 <safe_rshift_func_int8_t_s_s>
   170a8:	44 89 fe             	mov    %r15d,%esi
   170ab:	bf 01 00 00 00       	mov    $0x1,%edi
   170b0:	e8 75 24 ff ff       	callq  952a <safe_rshift_func_int16_t_s_s>
   170b5:	8b 05 89 6f 00 00    	mov    0x6f89(%rip),%eax        # 1e044 <g_21>
   170bb:	66 89 05 0a d8 00 00 	mov    %ax,0xd80a(%rip)        # 248cc <g_184>
   170c2:	be 07 00 00 00       	mov    $0x7,%esi
   170c7:	bf 00 00 00 00       	mov    $0x0,%edi
   170cc:	e8 bc 2b ff ff       	callq  9c8d <safe_rshift_func_uint8_t_u_s>
   170d1:	38 85 f4 f5 ff ff    	cmp    %al,-0xa0c(%rbp)
   170d7:	0f 93 c0             	setae  %al
   170da:	0f b6 c0             	movzbl %al,%eax
   170dd:	23 85 20 f6 ff ff    	and    -0x9e0(%rbp),%eax
   170e3:	48 98                	cltq   
   170e5:	48 89 de             	mov    %rbx,%rsi
   170e8:	48 89 c7             	mov    %rax,%rdi
   170eb:	e8 bf 2f ff ff       	callq  a0af <safe_div_func_uint64_t_u_u>
   170f0:	0f b6 85 0b f6 ff ff 	movzbl -0x9f5(%rbp),%eax
   170f7:	89 85 98 f6 ff ff    	mov    %eax,-0x968(%rbp)
   170fd:	48 8b 05 8c cc 00 00 	mov    0xcc8c(%rip),%rax        # 23d90 <g_165>
   17104:	48 89 85 f0 f6 ff ff 	mov    %rax,-0x910(%rbp)
   1710b:	48 8b 95 f0 f6 ff ff 	mov    -0x910(%rbp),%rdx
   17112:	48 8d 85 f8 f5 ff ff 	lea    -0xa08(%rbp),%rax
   17119:	48 39 c2             	cmp    %rax,%rdx
   1711c:	0f 95 c0             	setne  %al
   1711f:	0f b6 c0             	movzbl %al,%eax
   17122:	be 0e 00 00 00       	mov    $0xe,%esi
   17127:	89 c7                	mov    %eax,%edi
   17129:	e8 d8 2c ff ff       	callq  9e06 <safe_lshift_func_uint16_t_u_u>
   1712e:	0f b6 95 f4 f5 ff ff 	movzbl -0xa0c(%rbp),%edx
   17135:	66 39 d0             	cmp    %dx,%ax
   17138:	0f 92 c0             	setb   %al
   1713b:	0f b6 c0             	movzbl %al,%eax
   1713e:	89 c6                	mov    %eax,%esi
   17140:	bf 00 00 00 00       	mov    $0x0,%edi
   17145:	e8 6c 24 ff ff       	callq  95b6 <safe_add_func_int32_t_s_s>
   1714a:	44 89 f6             	mov    %r14d,%esi
   1714d:	bf 01 00 00 00       	mov    $0x1,%edi
   17152:	e8 79 2d ff ff       	callq  9ed0 <safe_sub_func_uint32_t_u_u>
   17157:	89 c2                	mov    %eax,%edx
   17159:	48 8b 85 70 f6 ff ff 	mov    -0x990(%rbp),%rax
   17160:	66 89 10             	mov    %dx,(%rax)
   17163:	48 8b 85 70 f6 ff ff 	mov    -0x990(%rbp),%rax
   1716a:	0f b7 00             	movzwl (%rax),%eax
   1716d:	98                   	cwtl   
   1716e:	44 89 ee             	mov    %r13d,%esi
   17171:	89 c7                	mov    %eax,%edi
   17173:	e8 b2 23 ff ff       	callq  952a <safe_rshift_func_int16_t_s_s>
   17178:	98                   	cwtl   
   17179:	be fd ff ff ff       	mov    $0xfffffffd,%esi
   1717e:	89 c7                	mov    %eax,%edi
   17180:	e8 70 22 ff ff       	callq  93f5 <safe_mul_func_int16_t_s_s>
   17185:	98                   	cwtl   
   17186:	44 89 e1             	mov    %r12d,%ecx
   17189:	09 c1                	or     %eax,%ecx
   1718b:	48 8b 85 f8 f5 ff ff 	mov    -0xa08(%rbp),%rax
   17192:	8b 10                	mov    (%rax),%edx
   17194:	48 8b 85 f8 f5 ff ff 	mov    -0xa08(%rbp),%rax
   1719b:	21 ca                	and    %ecx,%edx
   1719d:	89 10                	mov    %edx,(%rax)
   1719f:	8b 05 9b 6e 00 00    	mov    0x6e9b(%rip),%eax        # 1e040 <g_4>
   171a5:	48 8b 5d c8          	mov    -0x38(%rbp),%rbx
   171a9:	64 48 33 1c 25 28 00 	xor    %fs:0x28,%rbx
   171b0:	00 00 
   171b2:	74 05                	je     171b9 <func_73+0x1068>
   171b4:	e8 b7 1e ff ff       	callq  9070 <__stack_chk_fail@plt>
   171b9:	48 81 c4 f8 09 00 00 	add    $0x9f8,%rsp
   171c0:	5b                   	pop    %rbx
   171c1:	41 5c                	pop    %r12
   171c3:	41 5d                	pop    %r13
   171c5:	41 5e                	pop    %r14
   171c7:	41 5f                	pop    %r15
   171c9:	5d                   	pop    %rbp
   171ca:	c3                   	retq   

00000000000171cb <main>:
   171cb:	f3 0f 1e fa          	endbr64 
   171cf:	55                   	push   %rbp
   171d0:	48 89 e5             	mov    %rsp,%rbp
   171d3:	48 83 ec 20          	sub    $0x20,%rsp
   171d7:	89 7d ec             	mov    %edi,-0x14(%rbp)
   171da:	48 89 75 e0          	mov    %rsi,-0x20(%rbp)
   171de:	c7 45 fc 00 00 00 00 	movl   $0x0,-0x4(%rbp)
   171e5:	83 7d ec 02          	cmpl   $0x2,-0x14(%rbp)
   171e9:	75 25                	jne    17210 <main+0x45>
   171eb:	48 8b 45 e0          	mov    -0x20(%rbp),%rax
   171ef:	48 83 c0 08          	add    $0x8,%rax
   171f3:	48 8b 00             	mov    (%rax),%rax
   171f6:	48 8d 35 ab 35 00 00 	lea    0x35ab(%rip),%rsi        # 1a7a8 <g_1290+0x1740>
   171fd:	48 89 c7             	mov    %rax,%rdi
   17200:	e8 8b 1e ff ff       	callq  9090 <strcmp@plt>
   17205:	85 c0                	test   %eax,%eax
   17207:	75 07                	jne    17210 <main+0x45>
   17209:	c7 45 fc 01 00 00 00 	movl   $0x1,-0x4(%rbp)
   17210:	e8 74 1f ff ff       	callq  9189 <platform_main_begin>
   17215:	e8 7e 33 ff ff       	callq  a598 <crc32_gentab>
   1721a:	e8 96 35 ff ff       	callq  a7b5 <func_1>
   1721f:	c7 45 f0 00 00 00 00 	movl   $0x0,-0x10(%rbp)
   17226:	eb 4b                	jmp    17273 <main+0xa8>
   17228:	8b 45 f0             	mov    -0x10(%rbp),%eax
   1722b:	48 98                	cltq   
   1722d:	48 8d 14 85 00 00 00 	lea    0x0(,%rax,4),%rdx
   17234:	00 
   17235:	48 8d 05 f4 6d 00 00 	lea    0x6df4(%rip),%rax        # 1e030 <g_3>
   1723c:	8b 04 02             	mov    (%rdx,%rax,1),%eax
   1723f:	48 98                	cltq   
   17241:	8b 55 fc             	mov    -0x4(%rbp),%edx
   17244:	48 8d 35 5f 35 00 00 	lea    0x355f(%rip),%rsi        # 1a7aa <g_1290+0x1742>
   1724b:	48 89 c7             	mov    %rax,%rdi
   1724e:	e8 a0 34 ff ff       	callq  a6f3 <transparent_crc>
   17253:	83 7d fc 00          	cmpl   $0x0,-0x4(%rbp)
   17257:	74 16                	je     1726f <main+0xa4>
   17259:	8b 45 f0             	mov    -0x10(%rbp),%eax
   1725c:	89 c6                	mov    %eax,%esi
   1725e:	48 8d 3d 4c 35 00 00 	lea    0x354c(%rip),%rdi        # 1a7b1 <g_1290+0x1749>
   17265:	b8 00 00 00 00       	mov    $0x0,%eax
   1726a:	e8 11 1e ff ff       	callq  9080 <printf@plt>
   1726f:	83 45 f0 01          	addl   $0x1,-0x10(%rbp)
   17273:	83 7d f0 03          	cmpl   $0x3,-0x10(%rbp)
   17277:	7e af                	jle    17228 <main+0x5d>
   17279:	8b 05 c1 6d 00 00    	mov    0x6dc1(%rip),%eax        # 1e040 <g_4>
   1727f:	48 98                	cltq   
   17281:	8b 55 fc             	mov    -0x4(%rbp),%edx
   17284:	48 8d 35 34 35 00 00 	lea    0x3534(%rip),%rsi        # 1a7bf <g_1290+0x1757>
   1728b:	48 89 c7             	mov    %rax,%rdi
   1728e:	e8 60 34 ff ff       	callq  a6f3 <transparent_crc>
   17293:	8b 05 2f d6 00 00    	mov    0xd62f(%rip),%eax        # 248c8 <g_6>
   17299:	48 98                	cltq   
   1729b:	8b 55 fc             	mov    -0x4(%rbp),%edx
   1729e:	48 8d 35 1e 35 00 00 	lea    0x351e(%rip),%rsi        # 1a7c3 <g_1290+0x175b>
   172a5:	48 89 c7             	mov    %rax,%rdi
   172a8:	e8 46 34 ff ff       	callq  a6f3 <transparent_crc>
   172ad:	8b 05 91 6d 00 00    	mov    0x6d91(%rip),%eax        # 1e044 <g_21>
   172b3:	48 98                	cltq   
   172b5:	8b 55 fc             	mov    -0x4(%rbp),%edx
   172b8:	48 8d 35 08 35 00 00 	lea    0x3508(%rip),%rsi        # 1a7c7 <g_1290+0x175f>
   172bf:	48 89 c7             	mov    %rax,%rdi
   172c2:	e8 2c 34 ff ff       	callq  a6f3 <transparent_crc>
   172c7:	0f b6 05 7a 6d 00 00 	movzbl 0x6d7a(%rip),%eax        # 1e048 <g_22>
   172ce:	48 0f be c0          	movsbq %al,%rax
   172d2:	8b 55 fc             	mov    -0x4(%rbp),%edx
   172d5:	48 8d 35 f0 34 00 00 	lea    0x34f0(%rip),%rsi        # 1a7cc <g_1290+0x1764>
   172dc:	48 89 c7             	mov    %rax,%rdi
   172df:	e8 0f 34 ff ff       	callq  a6f3 <transparent_crc>
   172e4:	8b 05 62 6d 00 00    	mov    0x6d62(%rip),%eax        # 1e04c <g_24>
   172ea:	89 c1                	mov    %eax,%ecx
   172ec:	8b 45 fc             	mov    -0x4(%rbp),%eax
   172ef:	89 c2                	mov    %eax,%edx
   172f1:	48 8d 35 d9 34 00 00 	lea    0x34d9(%rip),%rsi        # 1a7d1 <g_1290+0x1769>
   172f8:	48 89 cf             	mov    %rcx,%rdi
   172fb:	e8 f3 33 ff ff       	callq  a6f3 <transparent_crc>
   17300:	8b 05 4a 6d 00 00    	mov    0x6d4a(%rip),%eax        # 1e050 <g_34>
   17306:	48 98                	cltq   
   17308:	8b 55 fc             	mov    -0x4(%rbp),%edx
   1730b:	48 8d 35 c4 34 00 00 	lea    0x34c4(%rip),%rsi        # 1a7d6 <g_1290+0x176e>
   17312:	48 89 c7             	mov    %rax,%rdi
   17315:	e8 d9 33 ff ff       	callq  a6f3 <transparent_crc>
   1731a:	48 8b 05 37 6d 00 00 	mov    0x6d37(%rip),%rax        # 1e058 <g_36>
   17321:	c1 e0 05             	shl    $0x5,%eax
   17324:	c1 f8 05             	sar    $0x5,%eax
   17327:	48 98                	cltq   
   17329:	8b 55 fc             	mov    -0x4(%rbp),%edx
   1732c:	48 8d 35 a8 34 00 00 	lea    0x34a8(%rip),%rsi        # 1a7db <g_1290+0x1773>
   17333:	48 89 c7             	mov    %rax,%rdi
   17336:	e8 b8 33 ff ff       	callq  a6f3 <transparent_crc>
   1733b:	48 8b 05 16 6d 00 00 	mov    0x6d16(%rip),%rax        # 1e058 <g_36>
   17342:	48 c1 e8 1b          	shr    $0x1b,%rax
   17346:	83 e0 0f             	and    $0xf,%eax
   17349:	0f b6 c0             	movzbl %al,%eax
   1734c:	8b 55 fc             	mov    -0x4(%rbp),%edx
   1734f:	48 8d 35 8d 34 00 00 	lea    0x348d(%rip),%rsi        # 1a7e3 <g_1290+0x177b>
   17356:	48 89 c7             	mov    %rax,%rdi
   17359:	e8 95 33 ff ff       	callq  a6f3 <transparent_crc>
   1735e:	48 8b 05 f3 6c 00 00 	mov    0x6cf3(%rip),%rax        # 1e058 <g_36>
   17365:	48 c1 e8 1f          	shr    $0x1f,%rax
   17369:	25 ff ff 3f 00       	and    $0x3fffff,%eax
   1736e:	89 c1                	mov    %eax,%ecx
   17370:	8b 45 fc             	mov    -0x4(%rbp),%eax
   17373:	89 c2                	mov    %eax,%edx
   17375:	48 8d 35 6f 34 00 00 	lea    0x346f(%rip),%rsi        # 1a7eb <g_1290+0x1783>
   1737c:	48 89 cf             	mov    %rcx,%rdi
   1737f:	e8 6f 33 ff ff       	callq  a6f3 <transparent_crc>
   17384:	48 8b 05 d4 6c 00 00 	mov    0x6cd4(%rip),%rax        # 1e05f <g_36+0x7>
   1738b:	8b 55 fc             	mov    -0x4(%rbp),%edx
   1738e:	48 8d 35 5e 34 00 00 	lea    0x345e(%rip),%rsi        # 1a7f3 <g_1290+0x178b>
   17395:	48 89 c7             	mov    %rax,%rdi
   17398:	e8 56 33 ff ff       	callq  a6f3 <transparent_crc>
   1739d:	8b 05 c5 6c 00 00    	mov    0x6cc5(%rip),%eax        # 1e068 <g_37>
   173a3:	89 c1                	mov    %eax,%ecx
   173a5:	8b 45 fc             	mov    -0x4(%rbp),%eax
   173a8:	89 c2                	mov    %eax,%edx
   173aa:	48 8d 35 4a 34 00 00 	lea    0x344a(%rip),%rsi        # 1a7fb <g_1290+0x1793>
   173b1:	48 89 cf             	mov    %rcx,%rdi
   173b4:	e8 3a 33 ff ff       	callq  a6f3 <transparent_crc>
   173b9:	c7 45 f0 00 00 00 00 	movl   $0x0,-0x10(%rbp)
   173c0:	eb 78                	jmp    1743a <main+0x26f>
   173c2:	c7 45 f4 00 00 00 00 	movl   $0x0,-0xc(%rbp)
   173c9:	eb 65                	jmp    17430 <main+0x265>
   173cb:	8b 45 f4             	mov    -0xc(%rbp),%eax
   173ce:	48 63 c8             	movslq %eax,%rcx
   173d1:	8b 45 f0             	mov    -0x10(%rbp),%eax
   173d4:	48 63 d0             	movslq %eax,%rdx
   173d7:	48 89 d0             	mov    %rdx,%rax
   173da:	48 c1 e0 02          	shl    $0x2,%rax
   173de:	48 01 d0             	add    %rdx,%rax
   173e1:	48 01 c0             	add    %rax,%rax
   173e4:	48 01 c8             	add    %rcx,%rax
   173e7:	48 8d 14 85 00 00 00 	lea    0x0(,%rax,4),%rdx
   173ee:	00 
   173ef:	48 8d 05 8a 6c 00 00 	lea    0x6c8a(%rip),%rax        # 1e080 <g_89>
   173f6:	8b 04 02             	mov    (%rdx,%rax,1),%eax
   173f9:	48 98                	cltq   
   173fb:	8b 55 fc             	mov    -0x4(%rbp),%edx
   173fe:	48 8d 35 fb 33 00 00 	lea    0x33fb(%rip),%rsi        # 1a800 <g_1290+0x1798>
   17405:	48 89 c7             	mov    %rax,%rdi
   17408:	e8 e6 32 ff ff       	callq  a6f3 <transparent_crc>
   1740d:	83 7d fc 00          	cmpl   $0x0,-0x4(%rbp)
   17411:	74 19                	je     1742c <main+0x261>
   17413:	8b 55 f4             	mov    -0xc(%rbp),%edx
   17416:	8b 45 f0             	mov    -0x10(%rbp),%eax
   17419:	89 c6                	mov    %eax,%esi
   1741b:	48 8d 3d e9 33 00 00 	lea    0x33e9(%rip),%rdi        # 1a80b <g_1290+0x17a3>
   17422:	b8 00 00 00 00       	mov    $0x0,%eax
   17427:	e8 54 1c ff ff       	callq  9080 <printf@plt>
   1742c:	83 45 f4 01          	addl   $0x1,-0xc(%rbp)
   17430:	83 7d f4 09          	cmpl   $0x9,-0xc(%rbp)
   17434:	7e 95                	jle    173cb <main+0x200>
   17436:	83 45 f0 01          	addl   $0x1,-0x10(%rbp)
   1743a:	83 7d f0 04          	cmpl   $0x4,-0x10(%rbp)
   1743e:	7e 82                	jle    173c2 <main+0x1f7>
   17440:	0f b6 05 01 6d 00 00 	movzbl 0x6d01(%rip),%eax        # 1e148 <g_90>
   17447:	0f b6 c0             	movzbl %al,%eax
   1744a:	8b 55 fc             	mov    -0x4(%rbp),%edx
   1744d:	48 8d 35 c9 33 00 00 	lea    0x33c9(%rip),%rsi        # 1a81d <g_1290+0x17b5>
   17454:	48 89 c7             	mov    %rax,%rdi
   17457:	e8 97 32 ff ff       	callq  a6f3 <transparent_crc>
   1745c:	48 8b 05 ed 6c 00 00 	mov    0x6ced(%rip),%rax        # 1e150 <g_105>
   17463:	48 89 c1             	mov    %rax,%rcx
   17466:	8b 45 fc             	mov    -0x4(%rbp),%eax
   17469:	89 c2                	mov    %eax,%edx
   1746b:	48 8d 35 b0 33 00 00 	lea    0x33b0(%rip),%rsi        # 1a822 <g_1290+0x17ba>
   17472:	48 89 cf             	mov    %rcx,%rdi
   17475:	e8 79 32 ff ff       	callq  a6f3 <transparent_crc>
   1747a:	48 8b 05 d7 6c 00 00 	mov    0x6cd7(%rip),%rax        # 1e158 <g_107>
   17481:	8b 55 fc             	mov    -0x4(%rbp),%edx
   17484:	48 8d 35 9d 33 00 00 	lea    0x339d(%rip),%rsi        # 1a828 <g_1290+0x17c0>
   1748b:	48 89 c7             	mov    %rax,%rdi
   1748e:	e8 60 32 ff ff       	callq  a6f3 <transparent_crc>
   17493:	48 8b 05 c6 6c 00 00 	mov    0x6cc6(%rip),%rax        # 1e160 <g_110>
   1749a:	8b 55 fc             	mov    -0x4(%rbp),%edx
   1749d:	48 8d 35 8a 33 00 00 	lea    0x338a(%rip),%rsi        # 1a82e <g_1290+0x17c6>
   174a4:	48 89 c7             	mov    %rax,%rdi
   174a7:	e8 47 32 ff ff       	callq  a6f3 <transparent_crc>
   174ac:	8b 05 b6 6c 00 00    	mov    0x6cb6(%rip),%eax        # 1e168 <g_144>
   174b2:	48 98                	cltq   
   174b4:	8b 55 fc             	mov    -0x4(%rbp),%edx
   174b7:	48 8d 35 76 33 00 00 	lea    0x3376(%rip),%rsi        # 1a834 <g_1290+0x17cc>
   174be:	48 89 c7             	mov    %rax,%rdi
   174c1:	e8 2d 32 ff ff       	callq  a6f3 <transparent_crc>
   174c6:	c7 45 f0 00 00 00 00 	movl   $0x0,-0x10(%rbp)
   174cd:	e9 9a 00 00 00       	jmpq   1756c <main+0x3a1>
   174d2:	c7 45 f4 00 00 00 00 	movl   $0x0,-0xc(%rbp)
   174d9:	e9 80 00 00 00       	jmpq   1755e <main+0x393>
   174de:	c7 45 f8 00 00 00 00 	movl   $0x0,-0x8(%rbp)
   174e5:	eb 6d                	jmp    17554 <main+0x389>
   174e7:	8b 45 f8             	mov    -0x8(%rbp),%eax
   174ea:	48 63 c8             	movslq %eax,%rcx
   174ed:	8b 45 f0             	mov    -0x10(%rbp),%eax
   174f0:	48 63 d0             	movslq %eax,%rdx
   174f3:	8b 45 f4             	mov    -0xc(%rbp),%eax
   174f6:	48 98                	cltq   
   174f8:	48 01 c2             	add    %rax,%rdx
   174fb:	48 89 d0             	mov    %rdx,%rax
   174fe:	48 01 c0             	add    %rax,%rax
   17501:	48 01 d0             	add    %rdx,%rax
   17504:	48 01 c0             	add    %rax,%rax
   17507:	48 8d 14 08          	lea    (%rax,%rcx,1),%rdx
   1750b:	48 8d 05 5e 6c 00 00 	lea    0x6c5e(%rip),%rax        # 1e170 <g_145>
   17512:	48 01 d0             	add    %rdx,%rax
   17515:	0f b6 00             	movzbl (%rax),%eax
   17518:	48 0f be c0          	movsbq %al,%rax
   1751c:	8b 55 fc             	mov    -0x4(%rbp),%edx
   1751f:	48 8d 35 14 33 00 00 	lea    0x3314(%rip),%rsi        # 1a83a <g_1290+0x17d2>
   17526:	48 89 c7             	mov    %rax,%rdi
   17529:	e8 c5 31 ff ff       	callq  a6f3 <transparent_crc>
   1752e:	83 7d fc 00          	cmpl   $0x0,-0x4(%rbp)
   17532:	74 1c                	je     17550 <main+0x385>
   17534:	8b 4d f8             	mov    -0x8(%rbp),%ecx
   17537:	8b 55 f4             	mov    -0xc(%rbp),%edx
   1753a:	8b 45 f0             	mov    -0x10(%rbp),%eax
   1753d:	89 c6                	mov    %eax,%esi
   1753f:	48 8d 3d 03 33 00 00 	lea    0x3303(%rip),%rdi        # 1a849 <g_1290+0x17e1>
   17546:	b8 00 00 00 00       	mov    $0x0,%eax
   1754b:	e8 30 1b ff ff       	callq  9080 <printf@plt>
   17550:	83 45 f8 01          	addl   $0x1,-0x8(%rbp)
   17554:	83 7d f8 05          	cmpl   $0x5,-0x8(%rbp)
   17558:	7e 8d                	jle    174e7 <main+0x31c>
   1755a:	83 45 f4 01          	addl   $0x1,-0xc(%rbp)
   1755e:	83 7d f4 00          	cmpl   $0x0,-0xc(%rbp)
   17562:	0f 8e 76 ff ff ff    	jle    174de <main+0x313>
   17568:	83 45 f0 01          	addl   $0x1,-0x10(%rbp)
   1756c:	83 7d f0 02          	cmpl   $0x2,-0x10(%rbp)
   17570:	0f 8e 5c ff ff ff    	jle    174d2 <main+0x307>
   17576:	48 8b 05 0b 6c 00 00 	mov    0x6c0b(%rip),%rax        # 1e188 <g_147>
   1757d:	48 89 c1             	mov    %rax,%rcx
   17580:	8b 45 fc             	mov    -0x4(%rbp),%eax
   17583:	89 c2                	mov    %eax,%edx
   17585:	48 8d 35 d3 32 00 00 	lea    0x32d3(%rip),%rsi        # 1a85f <g_1290+0x17f7>
   1758c:	48 89 cf             	mov    %rcx,%rdi
   1758f:	e8 5f 31 ff ff       	callq  a6f3 <transparent_crc>
   17594:	0f b6 05 f5 6b 00 00 	movzbl 0x6bf5(%rip),%eax        # 1e190 <g_148>
   1759b:	48 0f be c0          	movsbq %al,%rax
   1759f:	8b 55 fc             	mov    -0x4(%rbp),%edx
   175a2:	48 8d 35 bc 32 00 00 	lea    0x32bc(%rip),%rsi        # 1a865 <g_1290+0x17fd>
   175a9:	48 89 c7             	mov    %rax,%rdi
   175ac:	e8 42 31 ff ff       	callq  a6f3 <transparent_crc>
   175b1:	8b 05 dd 6b 00 00    	mov    0x6bdd(%rip),%eax        # 1e194 <g_154>
   175b7:	48 98                	cltq   
   175b9:	8b 55 fc             	mov    -0x4(%rbp),%edx
   175bc:	48 8d 35 a8 32 00 00 	lea    0x32a8(%rip),%rsi        # 1a86b <g_1290+0x1803>
   175c3:	48 89 c7             	mov    %rax,%rdi
   175c6:	e8 28 31 ff ff       	callq  a6f3 <transparent_crc>
   175cb:	0f b7 05 fa d2 00 00 	movzwl 0xd2fa(%rip),%eax        # 248cc <g_184>
   175d2:	0f b7 c0             	movzwl %ax,%eax
   175d5:	8b 55 fc             	mov    -0x4(%rbp),%edx
   175d8:	48 8d 35 92 32 00 00 	lea    0x3292(%rip),%rsi        # 1a871 <g_1290+0x1809>
   175df:	48 89 c7             	mov    %rax,%rdi
   175e2:	e8 0c 31 ff ff       	callq  a6f3 <transparent_crc>
   175e7:	0f b7 05 aa 6b 00 00 	movzwl 0x6baa(%rip),%eax        # 1e198 <g_188>
   175ee:	48 0f bf c0          	movswq %ax,%rax
   175f2:	8b 55 fc             	mov    -0x4(%rbp),%edx
   175f5:	48 8d 35 7b 32 00 00 	lea    0x327b(%rip),%rsi        # 1a877 <g_1290+0x180f>
   175fc:	48 89 c7             	mov    %rax,%rdi
   175ff:	e8 ef 30 ff ff       	callq  a6f3 <transparent_crc>
   17604:	0f b7 05 8f 6b 00 00 	movzwl 0x6b8f(%rip),%eax        # 1e19a <g_236>
   1760b:	48 0f bf c0          	movswq %ax,%rax
   1760f:	8b 55 fc             	mov    -0x4(%rbp),%edx
   17612:	48 8d 35 64 32 00 00 	lea    0x3264(%rip),%rsi        # 1a87d <g_1290+0x1815>
   17619:	48 89 c7             	mov    %rax,%rdi
   1761c:	e8 d2 30 ff ff       	callq  a6f3 <transparent_crc>
   17621:	0f b7 05 74 6b 00 00 	movzwl 0x6b74(%rip),%eax        # 1e19c <g_281>
   17628:	48 0f bf c0          	movswq %ax,%rax
   1762c:	8b 55 fc             	mov    -0x4(%rbp),%edx
   1762f:	48 8d 35 4d 32 00 00 	lea    0x324d(%rip),%rsi        # 1a883 <g_1290+0x181b>
   17636:	48 89 c7             	mov    %rax,%rdi
   17639:	e8 b5 30 ff ff       	callq  a6f3 <transparent_crc>
   1763e:	c7 45 f0 00 00 00 00 	movl   $0x0,-0x10(%rbp)
   17645:	eb 6d                	jmp    176b4 <main+0x4e9>
   17647:	c7 45 f4 00 00 00 00 	movl   $0x0,-0xc(%rbp)
   1764e:	eb 5a                	jmp    176aa <main+0x4df>
   17650:	8b 45 f4             	mov    -0xc(%rbp),%eax
   17653:	48 98                	cltq   
   17655:	8b 55 f0             	mov    -0x10(%rbp),%edx
   17658:	48 63 d2             	movslq %edx,%rdx
   1765b:	48 c1 e2 02          	shl    $0x2,%rdx
   1765f:	48 01 d0             	add    %rdx,%rax
   17662:	48 8d 14 c5 00 00 00 	lea    0x0(,%rax,8),%rdx
   17669:	00 
   1766a:	48 8d 05 2f 6b 00 00 	lea    0x6b2f(%rip),%rax        # 1e1a0 <g_292>
   17671:	48 8b 04 02          	mov    (%rdx,%rax,1),%rax
   17675:	8b 55 fc             	mov    -0x4(%rbp),%edx
   17678:	48 8d 35 0a 32 00 00 	lea    0x320a(%rip),%rsi        # 1a889 <g_1290+0x1821>
   1767f:	48 89 c7             	mov    %rax,%rdi
   17682:	e8 6c 30 ff ff       	callq  a6f3 <transparent_crc>
   17687:	83 7d fc 00          	cmpl   $0x0,-0x4(%rbp)
   1768b:	74 19                	je     176a6 <main+0x4db>
   1768d:	8b 55 f4             	mov    -0xc(%rbp),%edx
   17690:	8b 45 f0             	mov    -0x10(%rbp),%eax
   17693:	89 c6                	mov    %eax,%esi
   17695:	48 8d 3d 6f 31 00 00 	lea    0x316f(%rip),%rdi        # 1a80b <g_1290+0x17a3>
   1769c:	b8 00 00 00 00       	mov    $0x0,%eax
   176a1:	e8 da 19 ff ff       	callq  9080 <printf@plt>
   176a6:	83 45 f4 01          	addl   $0x1,-0xc(%rbp)
   176aa:	83 7d f4 03          	cmpl   $0x3,-0xc(%rbp)
   176ae:	7e a0                	jle    17650 <main+0x485>
   176b0:	83 45 f0 01          	addl   $0x1,-0x10(%rbp)
   176b4:	83 7d f0 02          	cmpl   $0x2,-0x10(%rbp)
   176b8:	7e 8d                	jle    17647 <main+0x47c>
   176ba:	48 8b 05 17 d2 00 00 	mov    0xd217(%rip),%rax        # 248d8 <g_308>
   176c1:	8b 55 fc             	mov    -0x4(%rbp),%edx
   176c4:	48 8d 35 ca 31 00 00 	lea    0x31ca(%rip),%rsi        # 1a895 <g_1290+0x182d>
   176cb:	48 89 c7             	mov    %rax,%rdi
   176ce:	e8 20 30 ff ff       	callq  a6f3 <transparent_crc>
   176d3:	0f b7 05 26 6b 00 00 	movzwl 0x6b26(%rip),%eax        # 1e200 <g_318>
   176da:	0f b7 c0             	movzwl %ax,%eax
   176dd:	8b 55 fc             	mov    -0x4(%rbp),%edx
   176e0:	48 8d 35 b4 31 00 00 	lea    0x31b4(%rip),%rsi        # 1a89b <g_1290+0x1833>
   176e7:	48 89 c7             	mov    %rax,%rdi
   176ea:	e8 04 30 ff ff       	callq  a6f3 <transparent_crc>
   176ef:	8b 05 13 6b 00 00    	mov    0x6b13(%rip),%eax        # 1e208 <g_324>
   176f5:	c1 e0 05             	shl    $0x5,%eax
   176f8:	c1 f8 05             	sar    $0x5,%eax
   176fb:	48 98                	cltq   
   176fd:	8b 55 fc             	mov    -0x4(%rbp),%edx
   17700:	48 8d 35 9a 31 00 00 	lea    0x319a(%rip),%rsi        # 1a8a1 <g_1290+0x1839>
   17707:	48 89 c7             	mov    %rax,%rdi
   1770a:	e8 e4 2f ff ff       	callq  a6f3 <transparent_crc>
   1770f:	0f b6 05 f5 6a 00 00 	movzbl 0x6af5(%rip),%eax        # 1e20b <g_324+0x3>
   17716:	c0 e8 03             	shr    $0x3,%al
   17719:	83 e0 0f             	and    $0xf,%eax
   1771c:	0f b6 c0             	movzbl %al,%eax
   1771f:	8b 55 fc             	mov    -0x4(%rbp),%edx
   17722:	48 8d 35 81 31 00 00 	lea    0x3181(%rip),%rsi        # 1a8aa <g_1290+0x1842>
   17729:	48 89 c7             	mov    %rax,%rdi
   1772c:	e8 c2 2f ff ff       	callq  a6f3 <transparent_crc>
   17731:	48 8b 05 d0 6a 00 00 	mov    0x6ad0(%rip),%rax        # 1e208 <g_324>
   17738:	48 c1 e8 1f          	shr    $0x1f,%rax
   1773c:	25 ff ff 3f 00       	and    $0x3fffff,%eax
   17741:	89 c1                	mov    %eax,%ecx
   17743:	8b 45 fc             	mov    -0x4(%rbp),%eax
   17746:	89 c2                	mov    %eax,%edx
   17748:	48 8d 35 64 31 00 00 	lea    0x3164(%rip),%rsi        # 1a8b3 <g_1290+0x184b>
   1774f:	48 89 cf             	mov    %rcx,%rdi
   17752:	e8 9c 2f ff ff       	callq  a6f3 <transparent_crc>
   17757:	48 8b 05 b1 6a 00 00 	mov    0x6ab1(%rip),%rax        # 1e20f <g_324+0x7>
   1775e:	8b 55 fc             	mov    -0x4(%rbp),%edx
   17761:	48 8d 35 54 31 00 00 	lea    0x3154(%rip),%rsi        # 1a8bc <g_1290+0x1854>
   17768:	48 89 c7             	mov    %rax,%rdi
   1776b:	e8 83 2f ff ff       	callq  a6f3 <transparent_crc>
   17770:	8b 05 a2 6a 00 00    	mov    0x6aa2(%rip),%eax        # 1e218 <g_396>
   17776:	89 c1                	mov    %eax,%ecx
   17778:	8b 45 fc             	mov    -0x4(%rbp),%eax
   1777b:	89 c2                	mov    %eax,%edx
   1777d:	48 8d 35 41 31 00 00 	lea    0x3141(%rip),%rsi        # 1a8c5 <g_1290+0x185d>
   17784:	48 89 cf             	mov    %rcx,%rdi
   17787:	e8 67 2f ff ff       	callq  a6f3 <transparent_crc>
   1778c:	48 c7 c0 f9 ff ff ff 	mov    $0xfffffffffffffff9,%rax
   17793:	48 89 c1             	mov    %rax,%rcx
   17796:	8b 45 fc             	mov    -0x4(%rbp),%eax
   17799:	89 c2                	mov    %eax,%edx
   1779b:	48 8d 35 29 31 00 00 	lea    0x3129(%rip),%rsi        # 1a8cb <g_1290+0x1863>
   177a2:	48 89 cf             	mov    %rcx,%rdi
   177a5:	e8 49 2f ff ff       	callq  a6f3 <transparent_crc>
   177aa:	c7 45 f0 00 00 00 00 	movl   $0x0,-0x10(%rbp)
   177b1:	e9 46 02 00 00       	jmpq   179fc <main+0x831>
   177b6:	c7 45 f4 00 00 00 00 	movl   $0x0,-0xc(%rbp)
   177bd:	e9 2c 02 00 00       	jmpq   179ee <main+0x823>
   177c2:	c7 45 f8 00 00 00 00 	movl   $0x0,-0x8(%rbp)
   177c9:	e9 12 02 00 00       	jmpq   179e0 <main+0x815>
   177ce:	8b 45 f8             	mov    -0x8(%rbp),%eax
   177d1:	48 98                	cltq   
   177d3:	8b 55 f4             	mov    -0xc(%rbp),%edx
   177d6:	48 63 d2             	movslq %edx,%rdx
   177d9:	8b 4d f0             	mov    -0x10(%rbp),%ecx
   177dc:	48 63 f1             	movslq %ecx,%rsi
   177df:	48 89 c1             	mov    %rax,%rcx
   177e2:	48 c1 e1 04          	shl    $0x4,%rcx
   177e6:	48 29 c1             	sub    %rax,%rcx
   177e9:	48 89 d0             	mov    %rdx,%rax
   177ec:	48 01 c0             	add    %rax,%rax
   177ef:	48 01 d0             	add    %rdx,%rax
   177f2:	48 c1 e0 02          	shl    $0x2,%rax
   177f6:	48 01 d0             	add    %rdx,%rax
   177f9:	48 c1 e0 03          	shl    $0x3,%rax
   177fd:	48 01 d0             	add    %rdx,%rax
   17800:	48 8d 14 01          	lea    (%rcx,%rax,1),%rdx
   17804:	48 69 c6 a4 01 00 00 	imul   $0x1a4,%rsi,%rax
   1780b:	48 01 c2             	add    %rax,%rdx
   1780e:	48 8d 05 0b 6a 00 00 	lea    0x6a0b(%rip),%rax        # 1e220 <g_462>
   17815:	48 01 d0             	add    %rdx,%rax
   17818:	0f b6 10             	movzbl (%rax),%edx
   1781b:	0f b6 48 01          	movzbl 0x1(%rax),%ecx
   1781f:	48 c1 e1 08          	shl    $0x8,%rcx
   17823:	48 09 d1             	or     %rdx,%rcx
   17826:	0f b6 50 02          	movzbl 0x2(%rax),%edx
   1782a:	48 c1 e2 10          	shl    $0x10,%rdx
   1782e:	48 09 ca             	or     %rcx,%rdx
   17831:	0f b6 40 03          	movzbl 0x3(%rax),%eax
   17835:	83 e0 07             	and    $0x7,%eax
   17838:	48 c1 e0 18          	shl    $0x18,%rax
   1783c:	48 09 d0             	or     %rdx,%rax
   1783f:	48 c1 e0 25          	shl    $0x25,%rax
   17843:	48 c1 f8 25          	sar    $0x25,%rax
   17847:	48 98                	cltq   
   17849:	8b 55 fc             	mov    -0x4(%rbp),%edx
   1784c:	48 8d 35 7e 30 00 00 	lea    0x307e(%rip),%rsi        # 1a8d1 <g_1290+0x1869>
   17853:	48 89 c7             	mov    %rax,%rdi
   17856:	e8 98 2e ff ff       	callq  a6f3 <transparent_crc>
   1785b:	8b 45 f8             	mov    -0x8(%rbp),%eax
   1785e:	48 98                	cltq   
   17860:	8b 55 f4             	mov    -0xc(%rbp),%edx
   17863:	48 63 d2             	movslq %edx,%rdx
   17866:	8b 4d f0             	mov    -0x10(%rbp),%ecx
   17869:	48 63 f1             	movslq %ecx,%rsi
   1786c:	48 89 c1             	mov    %rax,%rcx
   1786f:	48 c1 e1 04          	shl    $0x4,%rcx
   17873:	48 29 c1             	sub    %rax,%rcx
   17876:	48 89 d0             	mov    %rdx,%rax
   17879:	48 01 c0             	add    %rax,%rax
   1787c:	48 01 d0             	add    %rdx,%rax
   1787f:	48 c1 e0 02          	shl    $0x2,%rax
   17883:	48 01 d0             	add    %rdx,%rax
   17886:	48 c1 e0 03          	shl    $0x3,%rax
   1788a:	48 01 d0             	add    %rdx,%rax
   1788d:	48 8d 14 01          	lea    (%rcx,%rax,1),%rdx
   17891:	48 69 c6 a4 01 00 00 	imul   $0x1a4,%rsi,%rax
   17898:	48 01 c2             	add    %rax,%rdx
   1789b:	48 8d 05 7e 69 00 00 	lea    0x697e(%rip),%rax        # 1e220 <g_462>
   178a2:	48 01 d0             	add    %rdx,%rax
   178a5:	0f b6 40 03          	movzbl 0x3(%rax),%eax
   178a9:	c0 e8 03             	shr    $0x3,%al
   178ac:	83 e0 0f             	and    $0xf,%eax
   178af:	0f b6 c0             	movzbl %al,%eax
   178b2:	8b 55 fc             	mov    -0x4(%rbp),%edx
   178b5:	48 8d 35 27 30 00 00 	lea    0x3027(%rip),%rsi        # 1a8e3 <g_1290+0x187b>
   178bc:	48 89 c7             	mov    %rax,%rdi
   178bf:	e8 2f 2e ff ff       	callq  a6f3 <transparent_crc>
   178c4:	8b 45 f8             	mov    -0x8(%rbp),%eax
   178c7:	48 98                	cltq   
   178c9:	8b 55 f4             	mov    -0xc(%rbp),%edx
   178cc:	48 63 d2             	movslq %edx,%rdx
   178cf:	8b 4d f0             	mov    -0x10(%rbp),%ecx
   178d2:	48 63 f1             	movslq %ecx,%rsi
   178d5:	48 89 c1             	mov    %rax,%rcx
   178d8:	48 c1 e1 04          	shl    $0x4,%rcx
   178dc:	48 29 c1             	sub    %rax,%rcx
   178df:	48 89 d0             	mov    %rdx,%rax
   178e2:	48 01 c0             	add    %rax,%rax
   178e5:	48 01 d0             	add    %rdx,%rax
   178e8:	48 c1 e0 02          	shl    $0x2,%rax
   178ec:	48 01 d0             	add    %rdx,%rax
   178ef:	48 c1 e0 03          	shl    $0x3,%rax
   178f3:	48 01 d0             	add    %rdx,%rax
   178f6:	48 8d 14 01          	lea    (%rcx,%rax,1),%rdx
   178fa:	48 69 c6 a4 01 00 00 	imul   $0x1a4,%rsi,%rax
   17901:	48 01 c2             	add    %rax,%rdx
   17904:	48 8d 05 15 69 00 00 	lea    0x6915(%rip),%rax        # 1e220 <g_462>
   1790b:	48 01 d0             	add    %rdx,%rax
   1790e:	0f b6 50 03          	movzbl 0x3(%rax),%edx
   17912:	c0 ea 07             	shr    $0x7,%dl
   17915:	0f b6 d2             	movzbl %dl,%edx
   17918:	0f b6 48 04          	movzbl 0x4(%rax),%ecx
   1791c:	0f b6 c9             	movzbl %cl,%ecx
   1791f:	48 01 c9             	add    %rcx,%rcx
   17922:	48 09 d1             	or     %rdx,%rcx
   17925:	0f b6 50 05          	movzbl 0x5(%rax),%edx
   17929:	0f b6 d2             	movzbl %dl,%edx
   1792c:	48 c1 e2 09          	shl    $0x9,%rdx
   17930:	48 09 ca             	or     %rcx,%rdx
   17933:	0f b6 40 06          	movzbl 0x6(%rax),%eax
   17937:	0f b6 c0             	movzbl %al,%eax
   1793a:	83 e0 1f             	and    $0x1f,%eax
   1793d:	48 c1 e0 11          	shl    $0x11,%rax
   17941:	48 09 d0             	or     %rdx,%rax
   17944:	89 c1                	mov    %eax,%ecx
   17946:	8b 45 fc             	mov    -0x4(%rbp),%eax
   17949:	89 c2                	mov    %eax,%edx
   1794b:	48 8d 35 a3 2f 00 00 	lea    0x2fa3(%rip),%rsi        # 1a8f5 <g_1290+0x188d>
   17952:	48 89 cf             	mov    %rcx,%rdi
   17955:	e8 99 2d ff ff       	callq  a6f3 <transparent_crc>
   1795a:	8b 45 f8             	mov    -0x8(%rbp),%eax
   1795d:	48 98                	cltq   
   1795f:	8b 55 f4             	mov    -0xc(%rbp),%edx
   17962:	48 63 d2             	movslq %edx,%rdx
   17965:	8b 4d f0             	mov    -0x10(%rbp),%ecx
   17968:	48 63 f1             	movslq %ecx,%rsi
   1796b:	48 89 c1             	mov    %rax,%rcx
   1796e:	48 c1 e1 04          	shl    $0x4,%rcx
   17972:	48 29 c1             	sub    %rax,%rcx
   17975:	48 89 d0             	mov    %rdx,%rax
   17978:	48 01 c0             	add    %rax,%rax
   1797b:	48 01 d0             	add    %rdx,%rax
   1797e:	48 c1 e0 02          	shl    $0x2,%rax
   17982:	48 01 d0             	add    %rdx,%rax
   17985:	48 c1 e0 03          	shl    $0x3,%rax
   17989:	48 01 d0             	add    %rdx,%rax
   1798c:	48 8d 14 01          	lea    (%rcx,%rax,1),%rdx
   17990:	48 69 c6 a4 01 00 00 	imul   $0x1a4,%rsi,%rax
   17997:	48 01 c2             	add    %rax,%rdx
   1799a:	48 8d 05 7f 68 00 00 	lea    0x687f(%rip),%rax        # 1e220 <g_462>
   179a1:	48 01 d0             	add    %rdx,%rax
   179a4:	48 8b 40 07          	mov    0x7(%rax),%rax
   179a8:	8b 55 fc             	mov    -0x4(%rbp),%edx
   179ab:	48 8d 35 55 2f 00 00 	lea    0x2f55(%rip),%rsi        # 1a907 <g_1290+0x189f>
   179b2:	48 89 c7             	mov    %rax,%rdi
   179b5:	e8 39 2d ff ff       	callq  a6f3 <transparent_crc>
   179ba:	83 7d fc 00          	cmpl   $0x0,-0x4(%rbp)
   179be:	74 1c                	je     179dc <main+0x811>
   179c0:	8b 4d f8             	mov    -0x8(%rbp),%ecx
   179c3:	8b 55 f4             	mov    -0xc(%rbp),%edx
   179c6:	8b 45 f0             	mov    -0x10(%rbp),%eax
   179c9:	89 c6                	mov    %eax,%esi
   179cb:	48 8d 3d 77 2e 00 00 	lea    0x2e77(%rip),%rdi        # 1a849 <g_1290+0x17e1>
   179d2:	b8 00 00 00 00       	mov    $0x0,%eax
   179d7:	e8 a4 16 ff ff       	callq  9080 <printf@plt>
   179dc:	83 45 f8 01          	addl   $0x1,-0x8(%rbp)
   179e0:	83 7d f8 06          	cmpl   $0x6,-0x8(%rbp)
   179e4:	0f 8e e4 fd ff ff    	jle    177ce <main+0x603>
   179ea:	83 45 f4 01          	addl   $0x1,-0xc(%rbp)
   179ee:	83 7d f4 03          	cmpl   $0x3,-0xc(%rbp)
   179f2:	0f 8e ca fd ff ff    	jle    177c2 <main+0x5f7>
   179f8:	83 45 f0 01          	addl   $0x1,-0x10(%rbp)
   179fc:	83 7d f0 08          	cmpl   $0x8,-0x10(%rbp)
   17a00:	0f 8e b0 fd ff ff    	jle    177b6 <main+0x5eb>
   17a06:	48 8b 05 db 76 00 00 	mov    0x76db(%rip),%rax        # 1f0e8 <g_516>
   17a0d:	8b 55 fc             	mov    -0x4(%rbp),%edx
   17a10:	48 8d 35 02 2f 00 00 	lea    0x2f02(%rip),%rsi        # 1a919 <g_1290+0x18b1>
   17a17:	48 89 c7             	mov    %rax,%rdi
   17a1a:	e8 d4 2c ff ff       	callq  a6f3 <transparent_crc>
   17a1f:	8b 05 cb 76 00 00    	mov    0x76cb(%rip),%eax        # 1f0f0 <g_538>
   17a25:	89 c1                	mov    %eax,%ecx
   17a27:	8b 45 fc             	mov    -0x4(%rbp),%eax
   17a2a:	89 c2                	mov    %eax,%edx
   17a2c:	48 8d 35 ec 2e 00 00 	lea    0x2eec(%rip),%rsi        # 1a91f <g_1290+0x18b7>
   17a33:	48 89 cf             	mov    %rcx,%rdi
   17a36:	e8 b8 2c ff ff       	callq  a6f3 <transparent_crc>
   17a3b:	0f b7 05 b2 76 00 00 	movzwl 0x76b2(%rip),%eax        # 1f0f4 <g_542>
   17a42:	0f b7 c0             	movzwl %ax,%eax
   17a45:	8b 55 fc             	mov    -0x4(%rbp),%edx
   17a48:	48 8d 35 d6 2e 00 00 	lea    0x2ed6(%rip),%rsi        # 1a925 <g_1290+0x18bd>
   17a4f:	48 89 c7             	mov    %rax,%rdi
   17a52:	e8 9c 2c ff ff       	callq  a6f3 <transparent_crc>
   17a57:	8b 05 9b 76 00 00    	mov    0x769b(%rip),%eax        # 1f0f8 <g_578>
   17a5d:	c1 e0 05             	shl    $0x5,%eax
   17a60:	c1 f8 05             	sar    $0x5,%eax
   17a63:	48 98                	cltq   
   17a65:	8b 55 fc             	mov    -0x4(%rbp),%edx
   17a68:	48 8d 35 bc 2e 00 00 	lea    0x2ebc(%rip),%rsi        # 1a92b <g_1290+0x18c3>
   17a6f:	48 89 c7             	mov    %rax,%rdi
   17a72:	e8 7c 2c ff ff       	callq  a6f3 <transparent_crc>
   17a77:	0f b6 05 7d 76 00 00 	movzbl 0x767d(%rip),%eax        # 1f0fb <g_578+0x3>
   17a7e:	c0 e8 03             	shr    $0x3,%al
   17a81:	83 e0 0f             	and    $0xf,%eax
   17a84:	0f b6 c0             	movzbl %al,%eax
   17a87:	8b 55 fc             	mov    -0x4(%rbp),%edx
   17a8a:	48 8d 35 a3 2e 00 00 	lea    0x2ea3(%rip),%rsi        # 1a934 <g_1290+0x18cc>
   17a91:	48 89 c7             	mov    %rax,%rdi
   17a94:	e8 5a 2c ff ff       	callq  a6f3 <transparent_crc>
   17a99:	48 8b 05 58 76 00 00 	mov    0x7658(%rip),%rax        # 1f0f8 <g_578>
   17aa0:	48 c1 e8 1f          	shr    $0x1f,%rax
   17aa4:	25 ff ff 3f 00       	and    $0x3fffff,%eax
   17aa9:	89 c1                	mov    %eax,%ecx
   17aab:	8b 45 fc             	mov    -0x4(%rbp),%eax
   17aae:	89 c2                	mov    %eax,%edx
   17ab0:	48 8d 35 86 2e 00 00 	lea    0x2e86(%rip),%rsi        # 1a93d <g_1290+0x18d5>
   17ab7:	48 89 cf             	mov    %rcx,%rdi
   17aba:	e8 34 2c ff ff       	callq  a6f3 <transparent_crc>
   17abf:	48 8b 05 39 76 00 00 	mov    0x7639(%rip),%rax        # 1f0ff <g_578+0x7>
   17ac6:	8b 55 fc             	mov    -0x4(%rbp),%edx
   17ac9:	48 8d 35 76 2e 00 00 	lea    0x2e76(%rip),%rsi        # 1a946 <g_1290+0x18de>
   17ad0:	48 89 c7             	mov    %rax,%rdi
   17ad3:	e8 1b 2c ff ff       	callq  a6f3 <transparent_crc>
   17ad8:	0f b7 05 29 76 00 00 	movzwl 0x7629(%rip),%eax        # 1f108 <g_606>
   17adf:	48 0f bf c0          	movswq %ax,%rax
   17ae3:	8b 55 fc             	mov    -0x4(%rbp),%edx
   17ae6:	48 8d 35 62 2e 00 00 	lea    0x2e62(%rip),%rsi        # 1a94f <g_1290+0x18e7>
   17aed:	48 89 c7             	mov    %rax,%rdi
   17af0:	e8 fe 2b ff ff       	callq  a6f3 <transparent_crc>
   17af5:	0f b6 05 0e 76 00 00 	movzbl 0x760e(%rip),%eax        # 1f10a <g_701>
   17afc:	0f b6 c0             	movzbl %al,%eax
   17aff:	8b 55 fc             	mov    -0x4(%rbp),%edx
   17b02:	48 8d 35 4c 2e 00 00 	lea    0x2e4c(%rip),%rsi        # 1a955 <g_1290+0x18ed>
   17b09:	48 89 c7             	mov    %rax,%rdi
   17b0c:	e8 e2 2b ff ff       	callq  a6f3 <transparent_crc>
   17b11:	c7 45 f0 00 00 00 00 	movl   $0x0,-0x10(%rbp)
   17b18:	eb 49                	jmp    17b63 <main+0x998>
   17b1a:	8b 45 f0             	mov    -0x10(%rbp),%eax
   17b1d:	48 98                	cltq   
   17b1f:	48 8d 14 00          	lea    (%rax,%rax,1),%rdx
   17b23:	48 8d 05 e6 75 00 00 	lea    0x75e6(%rip),%rax        # 1f110 <g_734>
   17b2a:	0f b7 04 02          	movzwl (%rdx,%rax,1),%eax
   17b2e:	0f b7 c0             	movzwl %ax,%eax
   17b31:	8b 55 fc             	mov    -0x4(%rbp),%edx
   17b34:	48 8d 35 20 2e 00 00 	lea    0x2e20(%rip),%rsi        # 1a95b <g_1290+0x18f3>
   17b3b:	48 89 c7             	mov    %rax,%rdi
   17b3e:	e8 b0 2b ff ff       	callq  a6f3 <transparent_crc>
   17b43:	83 7d fc 00          	cmpl   $0x0,-0x4(%rbp)
   17b47:	74 16                	je     17b5f <main+0x994>
   17b49:	8b 45 f0             	mov    -0x10(%rbp),%eax
   17b4c:	89 c6                	mov    %eax,%esi
   17b4e:	48 8d 3d 5c 2c 00 00 	lea    0x2c5c(%rip),%rdi        # 1a7b1 <g_1290+0x1749>
   17b55:	b8 00 00 00 00       	mov    $0x0,%eax
   17b5a:	e8 21 15 ff ff       	callq  9080 <printf@plt>
   17b5f:	83 45 f0 01          	addl   $0x1,-0x10(%rbp)
   17b63:	83 7d f0 05          	cmpl   $0x5,-0x10(%rbp)
   17b67:	7e b1                	jle    17b1a <main+0x94f>
   17b69:	c7 45 f0 00 00 00 00 	movl   $0x0,-0x10(%rbp)
   17b70:	eb 78                	jmp    17bea <main+0xa1f>
   17b72:	c7 45 f4 00 00 00 00 	movl   $0x0,-0xc(%rbp)
   17b79:	eb 65                	jmp    17be0 <main+0xa15>
   17b7b:	8b 45 f4             	mov    -0xc(%rbp),%eax
   17b7e:	48 63 c8             	movslq %eax,%rcx
   17b81:	8b 45 f0             	mov    -0x10(%rbp),%eax
   17b84:	48 63 d0             	movslq %eax,%rdx
   17b87:	48 89 d0             	mov    %rdx,%rax
   17b8a:	48 c1 e0 02          	shl    $0x2,%rax
   17b8e:	48 01 d0             	add    %rdx,%rax
   17b91:	48 01 c0             	add    %rax,%rax
   17b94:	48 01 c8             	add    %rcx,%rax
   17b97:	48 8d 14 85 00 00 00 	lea    0x0(,%rax,4),%rdx
   17b9e:	00 
   17b9f:	48 8d 05 7a 75 00 00 	lea    0x757a(%rip),%rax        # 1f120 <g_748>
   17ba6:	8b 04 02             	mov    (%rdx,%rax,1),%eax
   17ba9:	48 98                	cltq   
   17bab:	8b 55 fc             	mov    -0x4(%rbp),%edx
   17bae:	48 8d 35 af 2d 00 00 	lea    0x2daf(%rip),%rsi        # 1a964 <g_1290+0x18fc>
   17bb5:	48 89 c7             	mov    %rax,%rdi
   17bb8:	e8 36 2b ff ff       	callq  a6f3 <transparent_crc>
   17bbd:	83 7d fc 00          	cmpl   $0x0,-0x4(%rbp)
   17bc1:	74 19                	je     17bdc <main+0xa11>
   17bc3:	8b 55 f4             	mov    -0xc(%rbp),%edx
   17bc6:	8b 45 f0             	mov    -0x10(%rbp),%eax
   17bc9:	89 c6                	mov    %eax,%esi
   17bcb:	48 8d 3d 39 2c 00 00 	lea    0x2c39(%rip),%rdi        # 1a80b <g_1290+0x17a3>
   17bd2:	b8 00 00 00 00       	mov    $0x0,%eax
   17bd7:	e8 a4 14 ff ff       	callq  9080 <printf@plt>
   17bdc:	83 45 f4 01          	addl   $0x1,-0xc(%rbp)
   17be0:	83 7d f4 09          	cmpl   $0x9,-0xc(%rbp)
   17be4:	7e 95                	jle    17b7b <main+0x9b0>
   17be6:	83 45 f0 01          	addl   $0x1,-0x10(%rbp)
   17bea:	83 7d f0 02          	cmpl   $0x2,-0x10(%rbp)
   17bee:	7e 82                	jle    17b72 <main+0x9a7>
   17bf0:	c7 45 f0 00 00 00 00 	movl   $0x0,-0x10(%rbp)
   17bf7:	e9 1e 02 00 00       	jmpq   17e1a <main+0xc4f>
   17bfc:	c7 45 f4 00 00 00 00 	movl   $0x0,-0xc(%rbp)
   17c03:	e9 04 02 00 00       	jmpq   17e0c <main+0xc41>
   17c08:	c7 45 f8 00 00 00 00 	movl   $0x0,-0x8(%rbp)
   17c0f:	e9 ea 01 00 00       	jmpq   17dfe <main+0xc33>
   17c14:	8b 45 f8             	mov    -0x8(%rbp),%eax
   17c17:	48 98                	cltq   
   17c19:	8b 55 f4             	mov    -0xc(%rbp),%edx
   17c1c:	48 63 ca             	movslq %edx,%rcx
   17c1f:	8b 55 f0             	mov    -0x10(%rbp),%edx
   17c22:	48 63 f2             	movslq %edx,%rsi
   17c25:	48 89 c2             	mov    %rax,%rdx
   17c28:	48 c1 e2 04          	shl    $0x4,%rdx
   17c2c:	48 29 c2             	sub    %rax,%rdx
   17c2f:	48 89 c8             	mov    %rcx,%rax
   17c32:	48 c1 e0 04          	shl    $0x4,%rax
   17c36:	48 29 c8             	sub    %rcx,%rax
   17c39:	48 c1 e0 02          	shl    $0x2,%rax
   17c3d:	48 01 c2             	add    %rax,%rdx
   17c40:	48 69 c6 a4 01 00 00 	imul   $0x1a4,%rsi,%rax
   17c47:	48 01 c2             	add    %rax,%rdx
   17c4a:	48 8d 05 4f 75 00 00 	lea    0x754f(%rip),%rax        # 1f1a0 <g_795>
   17c51:	48 01 d0             	add    %rdx,%rax
   17c54:	0f b6 10             	movzbl (%rax),%edx
   17c57:	0f b6 48 01          	movzbl 0x1(%rax),%ecx
   17c5b:	48 c1 e1 08          	shl    $0x8,%rcx
   17c5f:	48 09 d1             	or     %rdx,%rcx
   17c62:	0f b6 50 02          	movzbl 0x2(%rax),%edx
   17c66:	48 c1 e2 10          	shl    $0x10,%rdx
   17c6a:	48 09 ca             	or     %rcx,%rdx
   17c6d:	0f b6 40 03          	movzbl 0x3(%rax),%eax
   17c71:	83 e0 07             	and    $0x7,%eax
   17c74:	48 c1 e0 18          	shl    $0x18,%rax
   17c78:	48 09 d0             	or     %rdx,%rax
   17c7b:	48 c1 e0 25          	shl    $0x25,%rax
   17c7f:	48 c1 f8 25          	sar    $0x25,%rax
   17c83:	48 98                	cltq   
   17c85:	8b 55 fc             	mov    -0x4(%rbp),%edx
   17c88:	48 8d 35 e1 2c 00 00 	lea    0x2ce1(%rip),%rsi        # 1a970 <g_1290+0x1908>
   17c8f:	48 89 c7             	mov    %rax,%rdi
   17c92:	e8 5c 2a ff ff       	callq  a6f3 <transparent_crc>
   17c97:	8b 45 f8             	mov    -0x8(%rbp),%eax
   17c9a:	48 98                	cltq   
   17c9c:	8b 55 f4             	mov    -0xc(%rbp),%edx
   17c9f:	48 63 ca             	movslq %edx,%rcx
   17ca2:	8b 55 f0             	mov    -0x10(%rbp),%edx
   17ca5:	48 63 f2             	movslq %edx,%rsi
   17ca8:	48 89 c2             	mov    %rax,%rdx
   17cab:	48 c1 e2 04          	shl    $0x4,%rdx
   17caf:	48 29 c2             	sub    %rax,%rdx
   17cb2:	48 89 c8             	mov    %rcx,%rax
   17cb5:	48 c1 e0 04          	shl    $0x4,%rax
   17cb9:	48 29 c8             	sub    %rcx,%rax
   17cbc:	48 c1 e0 02          	shl    $0x2,%rax
   17cc0:	48 01 c2             	add    %rax,%rdx
   17cc3:	48 69 c6 a4 01 00 00 	imul   $0x1a4,%rsi,%rax
   17cca:	48 01 c2             	add    %rax,%rdx
   17ccd:	48 8d 05 cc 74 00 00 	lea    0x74cc(%rip),%rax        # 1f1a0 <g_795>
   17cd4:	48 01 d0             	add    %rdx,%rax
   17cd7:	0f b6 40 03          	movzbl 0x3(%rax),%eax
   17cdb:	c0 e8 03             	shr    $0x3,%al
   17cde:	83 e0 0f             	and    $0xf,%eax
   17ce1:	0f b6 c0             	movzbl %al,%eax
   17ce4:	8b 55 fc             	mov    -0x4(%rbp),%edx
   17ce7:	48 8d 35 94 2c 00 00 	lea    0x2c94(%rip),%rsi        # 1a982 <g_1290+0x191a>
   17cee:	48 89 c7             	mov    %rax,%rdi
   17cf1:	e8 fd 29 ff ff       	callq  a6f3 <transparent_crc>
   17cf6:	8b 45 f8             	mov    -0x8(%rbp),%eax
   17cf9:	48 98                	cltq   
   17cfb:	8b 55 f4             	mov    -0xc(%rbp),%edx
   17cfe:	48 63 ca             	movslq %edx,%rcx
   17d01:	8b 55 f0             	mov    -0x10(%rbp),%edx
   17d04:	48 63 f2             	movslq %edx,%rsi
   17d07:	48 89 c2             	mov    %rax,%rdx
   17d0a:	48 c1 e2 04          	shl    $0x4,%rdx
   17d0e:	48 29 c2             	sub    %rax,%rdx
   17d11:	48 89 c8             	mov    %rcx,%rax
   17d14:	48 c1 e0 04          	shl    $0x4,%rax
   17d18:	48 29 c8             	sub    %rcx,%rax
   17d1b:	48 c1 e0 02          	shl    $0x2,%rax
   17d1f:	48 01 c2             	add    %rax,%rdx
   17d22:	48 69 c6 a4 01 00 00 	imul   $0x1a4,%rsi,%rax
   17d29:	48 01 c2             	add    %rax,%rdx
   17d2c:	48 8d 05 6d 74 00 00 	lea    0x746d(%rip),%rax        # 1f1a0 <g_795>
   17d33:	48 01 d0             	add    %rdx,%rax
   17d36:	0f b6 50 03          	movzbl 0x3(%rax),%edx
   17d3a:	c0 ea 07             	shr    $0x7,%dl
   17d3d:	0f b6 d2             	movzbl %dl,%edx
   17d40:	0f b6 48 04          	movzbl 0x4(%rax),%ecx
   17d44:	0f b6 c9             	movzbl %cl,%ecx
   17d47:	48 01 c9             	add    %rcx,%rcx
   17d4a:	48 09 d1             	or     %rdx,%rcx
   17d4d:	0f b6 50 05          	movzbl 0x5(%rax),%edx
   17d51:	0f b6 d2             	movzbl %dl,%edx
   17d54:	48 c1 e2 09          	shl    $0x9,%rdx
   17d58:	48 09 ca             	or     %rcx,%rdx
   17d5b:	0f b6 40 06          	movzbl 0x6(%rax),%eax
   17d5f:	0f b6 c0             	movzbl %al,%eax
   17d62:	83 e0 1f             	and    $0x1f,%eax
   17d65:	48 c1 e0 11          	shl    $0x11,%rax
   17d69:	48 09 d0             	or     %rdx,%rax
   17d6c:	89 c1                	mov    %eax,%ecx
   17d6e:	8b 45 fc             	mov    -0x4(%rbp),%eax
   17d71:	89 c2                	mov    %eax,%edx
   17d73:	48 8d 35 1a 2c 00 00 	lea    0x2c1a(%rip),%rsi        # 1a994 <g_1290+0x192c>
   17d7a:	48 89 cf             	mov    %rcx,%rdi
   17d7d:	e8 71 29 ff ff       	callq  a6f3 <transparent_crc>
   17d82:	8b 45 f8             	mov    -0x8(%rbp),%eax
   17d85:	48 98                	cltq   
   17d87:	8b 55 f4             	mov    -0xc(%rbp),%edx
   17d8a:	48 63 ca             	movslq %edx,%rcx
   17d8d:	8b 55 f0             	mov    -0x10(%rbp),%edx
   17d90:	48 63 f2             	movslq %edx,%rsi
   17d93:	48 89 c2             	mov    %rax,%rdx
   17d96:	48 c1 e2 04          	shl    $0x4,%rdx
   17d9a:	48 29 c2             	sub    %rax,%rdx
   17d9d:	48 89 c8             	mov    %rcx,%rax
   17da0:	48 c1 e0 04          	shl    $0x4,%rax
   17da4:	48 29 c8             	sub    %rcx,%rax
   17da7:	48 c1 e0 02          	shl    $0x2,%rax
   17dab:	48 01 c2             	add    %rax,%rdx
   17dae:	48 69 c6 a4 01 00 00 	imul   $0x1a4,%rsi,%rax
   17db5:	48 01 c2             	add    %rax,%rdx
   17db8:	48 8d 05 e1 73 00 00 	lea    0x73e1(%rip),%rax        # 1f1a0 <g_795>
   17dbf:	48 01 d0             	add    %rdx,%rax
   17dc2:	48 8b 40 07          	mov    0x7(%rax),%rax
   17dc6:	8b 55 fc             	mov    -0x4(%rbp),%edx
   17dc9:	48 8d 35 d6 2b 00 00 	lea    0x2bd6(%rip),%rsi        # 1a9a6 <g_1290+0x193e>
   17dd0:	48 89 c7             	mov    %rax,%rdi
   17dd3:	e8 1b 29 ff ff       	callq  a6f3 <transparent_crc>
   17dd8:	83 7d fc 00          	cmpl   $0x0,-0x4(%rbp)
   17ddc:	74 1c                	je     17dfa <main+0xc2f>
   17dde:	8b 4d f8             	mov    -0x8(%rbp),%ecx
   17de1:	8b 55 f4             	mov    -0xc(%rbp),%edx
   17de4:	8b 45 f0             	mov    -0x10(%rbp),%eax
   17de7:	89 c6                	mov    %eax,%esi
   17de9:	48 8d 3d 59 2a 00 00 	lea    0x2a59(%rip),%rdi        # 1a849 <g_1290+0x17e1>
   17df0:	b8 00 00 00 00       	mov    $0x0,%eax
   17df5:	e8 86 12 ff ff       	callq  9080 <printf@plt>
   17dfa:	83 45 f8 01          	addl   $0x1,-0x8(%rbp)
   17dfe:	83 7d f8 03          	cmpl   $0x3,-0x8(%rbp)
   17e02:	0f 8e 0c fe ff ff    	jle    17c14 <main+0xa49>
   17e08:	83 45 f4 01          	addl   $0x1,-0xc(%rbp)
   17e0c:	83 7d f4 06          	cmpl   $0x6,-0xc(%rbp)
   17e10:	0f 8e f2 fd ff ff    	jle    17c08 <main+0xa3d>
   17e16:	83 45 f0 01          	addl   $0x1,-0x10(%rbp)
   17e1a:	83 7d f0 08          	cmpl   $0x8,-0x10(%rbp)
   17e1e:	0f 8e d8 fd ff ff    	jle    17bfc <main+0xa31>
   17e24:	48 8b 05 3d 82 00 00 	mov    0x823d(%rip),%rax        # 20068 <g_863>
   17e2b:	c1 e0 05             	shl    $0x5,%eax
   17e2e:	c1 f8 05             	sar    $0x5,%eax
   17e31:	48 98                	cltq   
   17e33:	8b 55 fc             	mov    -0x4(%rbp),%edx
   17e36:	48 8d 35 7b 2b 00 00 	lea    0x2b7b(%rip),%rsi        # 1a9b8 <g_1290+0x1950>
   17e3d:	48 89 c7             	mov    %rax,%rdi
   17e40:	e8 ae 28 ff ff       	callq  a6f3 <transparent_crc>
   17e45:	48 8b 05 1c 82 00 00 	mov    0x821c(%rip),%rax        # 20068 <g_863>
   17e4c:	48 c1 e8 1b          	shr    $0x1b,%rax
   17e50:	83 e0 0f             	and    $0xf,%eax
   17e53:	0f b6 c0             	movzbl %al,%eax
   17e56:	8b 55 fc             	mov    -0x4(%rbp),%edx
   17e59:	48 8d 35 61 2b 00 00 	lea    0x2b61(%rip),%rsi        # 1a9c1 <g_1290+0x1959>
   17e60:	48 89 c7             	mov    %rax,%rdi
   17e63:	e8 8b 28 ff ff       	callq  a6f3 <transparent_crc>
   17e68:	48 8b 05 f9 81 00 00 	mov    0x81f9(%rip),%rax        # 20068 <g_863>
   17e6f:	48 c1 e8 1f          	shr    $0x1f,%rax
   17e73:	25 ff ff 3f 00       	and    $0x3fffff,%eax
   17e78:	89 c1                	mov    %eax,%ecx
   17e7a:	8b 45 fc             	mov    -0x4(%rbp),%eax
   17e7d:	89 c2                	mov    %eax,%edx
   17e7f:	48 8d 35 44 2b 00 00 	lea    0x2b44(%rip),%rsi        # 1a9ca <g_1290+0x1962>
   17e86:	48 89 cf             	mov    %rcx,%rdi
   17e89:	e8 65 28 ff ff       	callq  a6f3 <transparent_crc>
   17e8e:	48 8b 05 da 81 00 00 	mov    0x81da(%rip),%rax        # 2006f <g_863+0x7>
   17e95:	8b 55 fc             	mov    -0x4(%rbp),%edx
   17e98:	48 8d 35 34 2b 00 00 	lea    0x2b34(%rip),%rsi        # 1a9d3 <g_1290+0x196b>
   17e9f:	48 89 c7             	mov    %rax,%rdi
   17ea2:	e8 4c 28 ff ff       	callq  a6f3 <transparent_crc>
   17ea7:	8b 05 cb 81 00 00    	mov    0x81cb(%rip),%eax        # 20078 <g_897>
   17ead:	48 98                	cltq   
   17eaf:	8b 55 fc             	mov    -0x4(%rbp),%edx
   17eb2:	48 8d 35 23 2b 00 00 	lea    0x2b23(%rip),%rsi        # 1a9dc <g_1290+0x1974>
   17eb9:	48 89 c7             	mov    %rax,%rdi
   17ebc:	e8 32 28 ff ff       	callq  a6f3 <transparent_crc>
   17ec1:	8b 05 b5 81 00 00    	mov    0x81b5(%rip),%eax        # 2007c <g_943>
   17ec7:	89 c1                	mov    %eax,%ecx
   17ec9:	8b 45 fc             	mov    -0x4(%rbp),%eax
   17ecc:	89 c2                	mov    %eax,%edx
   17ece:	48 8d 35 0d 2b 00 00 	lea    0x2b0d(%rip),%rsi        # 1a9e2 <g_1290+0x197a>
   17ed5:	48 89 cf             	mov    %rcx,%rdi
   17ed8:	e8 16 28 ff ff       	callq  a6f3 <transparent_crc>
   17edd:	c7 45 f0 00 00 00 00 	movl   $0x0,-0x10(%rbp)
   17ee4:	eb 4d                	jmp    17f33 <main+0xd68>
   17ee6:	8b 45 f0             	mov    -0x10(%rbp),%eax
   17ee9:	48 98                	cltq   
   17eeb:	48 8d 14 85 00 00 00 	lea    0x0(,%rax,4),%rdx
   17ef2:	00 
   17ef3:	48 8d 05 86 81 00 00 	lea    0x8186(%rip),%rax        # 20080 <g_972>
   17efa:	8b 04 02             	mov    (%rdx,%rax,1),%eax
   17efd:	89 c1                	mov    %eax,%ecx
   17eff:	8b 45 fc             	mov    -0x4(%rbp),%eax
   17f02:	89 c2                	mov    %eax,%edx
   17f04:	48 8d 35 dd 2a 00 00 	lea    0x2add(%rip),%rsi        # 1a9e8 <g_1290+0x1980>
   17f0b:	48 89 cf             	mov    %rcx,%rdi
   17f0e:	e8 e0 27 ff ff       	callq  a6f3 <transparent_crc>
   17f13:	83 7d fc 00          	cmpl   $0x0,-0x4(%rbp)
   17f17:	74 16                	je     17f2f <main+0xd64>
   17f19:	8b 45 f0             	mov    -0x10(%rbp),%eax
   17f1c:	89 c6                	mov    %eax,%esi
   17f1e:	48 8d 3d 8c 28 00 00 	lea    0x288c(%rip),%rdi        # 1a7b1 <g_1290+0x1749>
   17f25:	b8 00 00 00 00       	mov    $0x0,%eax
   17f2a:	e8 51 11 ff ff       	callq  9080 <printf@plt>
   17f2f:	83 45 f0 01          	addl   $0x1,-0x10(%rbp)
   17f33:	83 7d f0 07          	cmpl   $0x7,-0x10(%rbp)
   17f37:	7e ad                	jle    17ee6 <main+0xd1b>
   17f39:	48 8b 05 60 81 00 00 	mov    0x8160(%rip),%rax        # 200a0 <g_1010>
   17f40:	c1 e0 05             	shl    $0x5,%eax
   17f43:	c1 f8 05             	sar    $0x5,%eax
   17f46:	48 98                	cltq   
   17f48:	8b 55 fc             	mov    -0x4(%rbp),%edx
   17f4b:	48 8d 35 9f 2a 00 00 	lea    0x2a9f(%rip),%rsi        # 1a9f1 <g_1290+0x1989>
   17f52:	48 89 c7             	mov    %rax,%rdi
   17f55:	e8 99 27 ff ff       	callq  a6f3 <transparent_crc>
   17f5a:	48 8b 05 3f 81 00 00 	mov    0x813f(%rip),%rax        # 200a0 <g_1010>
   17f61:	48 c1 e8 1b          	shr    $0x1b,%rax
   17f65:	83 e0 0f             	and    $0xf,%eax
   17f68:	0f b6 c0             	movzbl %al,%eax
   17f6b:	8b 55 fc             	mov    -0x4(%rbp),%edx
   17f6e:	48 8d 35 86 2a 00 00 	lea    0x2a86(%rip),%rsi        # 1a9fb <g_1290+0x1993>
   17f75:	48 89 c7             	mov    %rax,%rdi
   17f78:	e8 76 27 ff ff       	callq  a6f3 <transparent_crc>
   17f7d:	48 8b 05 1c 81 00 00 	mov    0x811c(%rip),%rax        # 200a0 <g_1010>
   17f84:	48 c1 e8 1f          	shr    $0x1f,%rax
   17f88:	25 ff ff 3f 00       	and    $0x3fffff,%eax
   17f8d:	89 c1                	mov    %eax,%ecx
   17f8f:	8b 45 fc             	mov    -0x4(%rbp),%eax
   17f92:	89 c2                	mov    %eax,%edx
   17f94:	48 8d 35 6a 2a 00 00 	lea    0x2a6a(%rip),%rsi        # 1aa05 <g_1290+0x199d>
   17f9b:	48 89 cf             	mov    %rcx,%rdi
   17f9e:	e8 50 27 ff ff       	callq  a6f3 <transparent_crc>
   17fa3:	48 8b 05 fd 80 00 00 	mov    0x80fd(%rip),%rax        # 200a7 <g_1010+0x7>
   17faa:	8b 55 fc             	mov    -0x4(%rbp),%edx
   17fad:	48 8d 35 5b 2a 00 00 	lea    0x2a5b(%rip),%rsi        # 1aa0f <g_1290+0x19a7>
   17fb4:	48 89 c7             	mov    %rax,%rdi
   17fb7:	e8 37 27 ff ff       	callq  a6f3 <transparent_crc>
   17fbc:	8b 05 ee 80 00 00    	mov    0x80ee(%rip),%eax        # 200b0 <g_1096>
   17fc2:	89 c1                	mov    %eax,%ecx
   17fc4:	8b 45 fc             	mov    -0x4(%rbp),%eax
   17fc7:	89 c2                	mov    %eax,%edx
   17fc9:	48 8d 35 49 2a 00 00 	lea    0x2a49(%rip),%rsi        # 1aa19 <g_1290+0x19b1>
   17fd0:	48 89 cf             	mov    %rcx,%rdi
   17fd3:	e8 1b 27 ff ff       	callq  a6f3 <transparent_crc>
   17fd8:	0f b7 05 d5 80 00 00 	movzwl 0x80d5(%rip),%eax        # 200b4 <g_1153>
   17fdf:	0f b7 c0             	movzwl %ax,%eax
   17fe2:	8b 55 fc             	mov    -0x4(%rbp),%edx
   17fe5:	48 8d 35 34 2a 00 00 	lea    0x2a34(%rip),%rsi        # 1aa20 <g_1290+0x19b8>
   17fec:	48 89 c7             	mov    %rax,%rdi
   17fef:	e8 ff 26 ff ff       	callq  a6f3 <transparent_crc>
   17ff4:	48 8b 05 bd 80 00 00 	mov    0x80bd(%rip),%rax        # 200b8 <g_1196>
   17ffb:	48 89 c1             	mov    %rax,%rcx
   17ffe:	8b 45 fc             	mov    -0x4(%rbp),%eax
   18001:	89 c2                	mov    %eax,%edx
   18003:	48 8d 35 1d 2a 00 00 	lea    0x2a1d(%rip),%rsi        # 1aa27 <g_1290+0x19bf>
   1800a:	48 89 cf             	mov    %rcx,%rdi
   1800d:	e8 e1 26 ff ff       	callq  a6f3 <transparent_crc>
   18012:	48 8b 05 a7 80 00 00 	mov    0x80a7(%rip),%rax        # 200c0 <g_1197>
   18019:	8b 55 fc             	mov    -0x4(%rbp),%edx
   1801c:	48 8d 35 0b 2a 00 00 	lea    0x2a0b(%rip),%rsi        # 1aa2e <g_1290+0x19c6>
   18023:	48 89 c7             	mov    %rax,%rdi
   18026:	e8 c8 26 ff ff       	callq  a6f3 <transparent_crc>
   1802b:	c7 45 f0 00 00 00 00 	movl   $0x0,-0x10(%rbp)
   18032:	e9 02 02 00 00       	jmpq   18239 <main+0x106e>
   18037:	c7 45 f4 00 00 00 00 	movl   $0x0,-0xc(%rbp)
   1803e:	e9 e8 01 00 00       	jmpq   1822b <main+0x1060>
   18043:	c7 45 f8 00 00 00 00 	movl   $0x0,-0x8(%rbp)
   1804a:	e9 ce 01 00 00       	jmpq   1821d <main+0x1052>
   1804f:	8b 45 f8             	mov    -0x8(%rbp),%eax
   18052:	48 63 d0             	movslq %eax,%rdx
   18055:	8b 45 f4             	mov    -0xc(%rbp),%eax
   18058:	48 98                	cltq   
   1805a:	48 01 d0             	add    %rdx,%rax
   1805d:	8b 55 f0             	mov    -0x10(%rbp),%edx
   18060:	48 63 ca             	movslq %edx,%rcx
   18063:	48 89 c2             	mov    %rax,%rdx
   18066:	48 c1 e2 04          	shl    $0x4,%rdx
   1806a:	48 29 c2             	sub    %rax,%rdx
   1806d:	48 89 c8             	mov    %rcx,%rax
   18070:	48 c1 e0 04          	shl    $0x4,%rax
   18074:	48 29 c8             	sub    %rcx,%rax
   18077:	48 c1 e0 02          	shl    $0x2,%rax
   1807b:	48 01 c2             	add    %rax,%rdx
   1807e:	48 8d 05 5b 80 00 00 	lea    0x805b(%rip),%rax        # 200e0 <g_1243>
   18085:	48 01 d0             	add    %rdx,%rax
   18088:	0f b6 10             	movzbl (%rax),%edx
   1808b:	0f b6 48 01          	movzbl 0x1(%rax),%ecx
   1808f:	48 c1 e1 08          	shl    $0x8,%rcx
   18093:	48 09 d1             	or     %rdx,%rcx
   18096:	0f b6 50 02          	movzbl 0x2(%rax),%edx
   1809a:	48 c1 e2 10          	shl    $0x10,%rdx
   1809e:	48 09 ca             	or     %rcx,%rdx
   180a1:	0f b6 40 03          	movzbl 0x3(%rax),%eax
   180a5:	83 e0 07             	and    $0x7,%eax
   180a8:	48 c1 e0 18          	shl    $0x18,%rax
   180ac:	48 09 d0             	or     %rdx,%rax
   180af:	48 c1 e0 25          	shl    $0x25,%rax
   180b3:	48 c1 f8 25          	sar    $0x25,%rax
   180b7:	48 98                	cltq   
   180b9:	8b 55 fc             	mov    -0x4(%rbp),%edx
   180bc:	48 8d 35 72 29 00 00 	lea    0x2972(%rip),%rsi        # 1aa35 <g_1290+0x19cd>
   180c3:	48 89 c7             	mov    %rax,%rdi
   180c6:	e8 28 26 ff ff       	callq  a6f3 <transparent_crc>
   180cb:	8b 45 f8             	mov    -0x8(%rbp),%eax
   180ce:	48 63 d0             	movslq %eax,%rdx
   180d1:	8b 45 f4             	mov    -0xc(%rbp),%eax
   180d4:	48 98                	cltq   
   180d6:	48 01 d0             	add    %rdx,%rax
   180d9:	8b 55 f0             	mov    -0x10(%rbp),%edx
   180dc:	48 63 ca             	movslq %edx,%rcx
   180df:	48 89 c2             	mov    %rax,%rdx
   180e2:	48 c1 e2 04          	shl    $0x4,%rdx
   180e6:	48 29 c2             	sub    %rax,%rdx
   180e9:	48 89 c8             	mov    %rcx,%rax
   180ec:	48 c1 e0 04          	shl    $0x4,%rax
   180f0:	48 29 c8             	sub    %rcx,%rax
   180f3:	48 c1 e0 02          	shl    $0x2,%rax
   180f7:	48 01 c2             	add    %rax,%rdx
   180fa:	48 8d 05 df 7f 00 00 	lea    0x7fdf(%rip),%rax        # 200e0 <g_1243>
   18101:	48 01 d0             	add    %rdx,%rax
   18104:	0f b6 40 03          	movzbl 0x3(%rax),%eax
   18108:	c0 e8 03             	shr    $0x3,%al
   1810b:	83 e0 0f             	and    $0xf,%eax
   1810e:	0f b6 c0             	movzbl %al,%eax
   18111:	8b 55 fc             	mov    -0x4(%rbp),%edx
   18114:	48 8d 35 2d 29 00 00 	lea    0x292d(%rip),%rsi        # 1aa48 <g_1290+0x19e0>
   1811b:	48 89 c7             	mov    %rax,%rdi
   1811e:	e8 d0 25 ff ff       	callq  a6f3 <transparent_crc>
   18123:	8b 45 f8             	mov    -0x8(%rbp),%eax
   18126:	48 63 d0             	movslq %eax,%rdx
   18129:	8b 45 f4             	mov    -0xc(%rbp),%eax
   1812c:	48 98                	cltq   
   1812e:	48 01 d0             	add    %rdx,%rax
   18131:	8b 55 f0             	mov    -0x10(%rbp),%edx
   18134:	48 63 ca             	movslq %edx,%rcx
   18137:	48 89 c2             	mov    %rax,%rdx
   1813a:	48 c1 e2 04          	shl    $0x4,%rdx
   1813e:	48 29 c2             	sub    %rax,%rdx
   18141:	48 89 c8             	mov    %rcx,%rax
   18144:	48 c1 e0 04          	shl    $0x4,%rax
   18148:	48 29 c8             	sub    %rcx,%rax
   1814b:	48 c1 e0 02          	shl    $0x2,%rax
   1814f:	48 01 c2             	add    %rax,%rdx
   18152:	48 8d 05 87 7f 00 00 	lea    0x7f87(%rip),%rax        # 200e0 <g_1243>
   18159:	48 01 d0             	add    %rdx,%rax
   1815c:	0f b6 50 03          	movzbl 0x3(%rax),%edx
   18160:	c0 ea 07             	shr    $0x7,%dl
   18163:	0f b6 d2             	movzbl %dl,%edx
   18166:	0f b6 48 04          	movzbl 0x4(%rax),%ecx
   1816a:	0f b6 c9             	movzbl %cl,%ecx
   1816d:	48 01 c9             	add    %rcx,%rcx
   18170:	48 09 d1             	or     %rdx,%rcx
   18173:	0f b6 50 05          	movzbl 0x5(%rax),%edx
   18177:	0f b6 d2             	movzbl %dl,%edx
   1817a:	48 c1 e2 09          	shl    $0x9,%rdx
   1817e:	48 09 ca             	or     %rcx,%rdx
   18181:	0f b6 40 06          	movzbl 0x6(%rax),%eax
   18185:	0f b6 c0             	movzbl %al,%eax
   18188:	83 e0 1f             	and    $0x1f,%eax
   1818b:	48 c1 e0 11          	shl    $0x11,%rax
   1818f:	48 09 d0             	or     %rdx,%rax
   18192:	89 c1                	mov    %eax,%ecx
   18194:	8b 45 fc             	mov    -0x4(%rbp),%eax
   18197:	89 c2                	mov    %eax,%edx
   18199:	48 8d 35 bb 28 00 00 	lea    0x28bb(%rip),%rsi        # 1aa5b <g_1290+0x19f3>
   181a0:	48 89 cf             	mov    %rcx,%rdi
   181a3:	e8 4b 25 ff ff       	callq  a6f3 <transparent_crc>
   181a8:	8b 45 f8             	mov    -0x8(%rbp),%eax
   181ab:	48 63 d0             	movslq %eax,%rdx
   181ae:	8b 45 f4             	mov    -0xc(%rbp),%eax
   181b1:	48 98                	cltq   
   181b3:	48 01 d0             	add    %rdx,%rax
   181b6:	8b 55 f0             	mov    -0x10(%rbp),%edx
   181b9:	48 63 ca             	movslq %edx,%rcx
   181bc:	48 89 c2             	mov    %rax,%rdx
   181bf:	48 c1 e2 04          	shl    $0x4,%rdx
   181c3:	48 29 c2             	sub    %rax,%rdx
   181c6:	48 89 c8             	mov    %rcx,%rax
   181c9:	48 c1 e0 04          	shl    $0x4,%rax
   181cd:	48 29 c8             	sub    %rcx,%rax
   181d0:	48 c1 e0 02          	shl    $0x2,%rax
   181d4:	48 01 c2             	add    %rax,%rdx
   181d7:	48 8d 05 02 7f 00 00 	lea    0x7f02(%rip),%rax        # 200e0 <g_1243>
   181de:	48 01 d0             	add    %rdx,%rax
   181e1:	48 8b 40 07          	mov    0x7(%rax),%rax
   181e5:	8b 55 fc             	mov    -0x4(%rbp),%edx
   181e8:	48 8d 35 7f 28 00 00 	lea    0x287f(%rip),%rsi        # 1aa6e <g_1290+0x1a06>
   181ef:	48 89 c7             	mov    %rax,%rdi
   181f2:	e8 fc 24 ff ff       	callq  a6f3 <transparent_crc>
   181f7:	83 7d fc 00          	cmpl   $0x0,-0x4(%rbp)
   181fb:	74 1c                	je     18219 <main+0x104e>
   181fd:	8b 4d f8             	mov    -0x8(%rbp),%ecx
   18200:	8b 55 f4             	mov    -0xc(%rbp),%edx
   18203:	8b 45 f0             	mov    -0x10(%rbp),%eax
   18206:	89 c6                	mov    %eax,%esi
   18208:	48 8d 3d 3a 26 00 00 	lea    0x263a(%rip),%rdi        # 1a849 <g_1290+0x17e1>
   1820f:	b8 00 00 00 00       	mov    $0x0,%eax
   18214:	e8 67 0e ff ff       	callq  9080 <printf@plt>
   18219:	83 45 f8 01          	addl   $0x1,-0x8(%rbp)
   1821d:	83 7d f8 00          	cmpl   $0x0,-0x8(%rbp)
   18221:	0f 8e 28 fe ff ff    	jle    1804f <main+0xe84>
   18227:	83 45 f4 01          	addl   $0x1,-0xc(%rbp)
   1822b:	83 7d f4 03          	cmpl   $0x3,-0xc(%rbp)
   1822f:	0f 8e 0e fe ff ff    	jle    18043 <main+0xe78>
   18235:	83 45 f0 01          	addl   $0x1,-0x10(%rbp)
   18239:	83 7d f0 06          	cmpl   $0x6,-0x10(%rbp)
   1823d:	0f 8e f4 fd ff ff    	jle    18037 <main+0xe6c>
   18243:	48 8b 05 3e 80 00 00 	mov    0x803e(%rip),%rax        # 20288 <g_1273>
   1824a:	8b 55 fc             	mov    -0x4(%rbp),%edx
   1824d:	48 8d 35 2d 28 00 00 	lea    0x282d(%rip),%rsi        # 1aa81 <g_1290+0x1a19>
   18254:	48 89 c7             	mov    %rax,%rdi
   18257:	e8 97 24 ff ff       	callq  a6f3 <transparent_crc>
   1825c:	c7 45 f0 00 00 00 00 	movl   $0x0,-0x10(%rbp)
   18263:	e9 57 01 00 00       	jmpq   183bf <main+0x11f4>
   18268:	8b 45 f0             	mov    -0x10(%rbp),%eax
   1826b:	48 63 d0             	movslq %eax,%rdx
   1826e:	48 89 d0             	mov    %rdx,%rax
   18271:	48 c1 e0 04          	shl    $0x4,%rax
   18275:	48 29 d0             	sub    %rdx,%rax
   18278:	48 89 c2             	mov    %rax,%rdx
   1827b:	48 8d 05 e6 0d 00 00 	lea    0xde6(%rip),%rax        # 19068 <g_1290>
   18282:	0f b6 0c 02          	movzbl (%rdx,%rax,1),%ecx
   18286:	0f b6 74 02 01       	movzbl 0x1(%rdx,%rax,1),%esi
   1828b:	48 c1 e6 08          	shl    $0x8,%rsi
   1828f:	48 09 ce             	or     %rcx,%rsi
   18292:	0f b6 4c 02 02       	movzbl 0x2(%rdx,%rax,1),%ecx
   18297:	48 c1 e1 10          	shl    $0x10,%rcx
   1829b:	48 09 f1             	or     %rsi,%rcx
   1829e:	0f b6 44 02 03       	movzbl 0x3(%rdx,%rax,1),%eax
   182a3:	83 e0 07             	and    $0x7,%eax
   182a6:	48 c1 e0 18          	shl    $0x18,%rax
   182aa:	48 09 c8             	or     %rcx,%rax
   182ad:	48 c1 e0 25          	shl    $0x25,%rax
   182b1:	48 c1 f8 25          	sar    $0x25,%rax
   182b5:	48 98                	cltq   
   182b7:	8b 55 fc             	mov    -0x4(%rbp),%edx
   182ba:	48 8d 35 c7 27 00 00 	lea    0x27c7(%rip),%rsi        # 1aa88 <g_1290+0x1a20>
   182c1:	48 89 c7             	mov    %rax,%rdi
   182c4:	e8 2a 24 ff ff       	callq  a6f3 <transparent_crc>
   182c9:	8b 45 f0             	mov    -0x10(%rbp),%eax
   182cc:	48 63 d0             	movslq %eax,%rdx
   182cf:	48 89 d0             	mov    %rdx,%rax
   182d2:	48 c1 e0 04          	shl    $0x4,%rax
   182d6:	48 29 d0             	sub    %rdx,%rax
   182d9:	48 89 c2             	mov    %rax,%rdx
   182dc:	48 8d 05 85 0d 00 00 	lea    0xd85(%rip),%rax        # 19068 <g_1290>
   182e3:	0f b6 44 02 03       	movzbl 0x3(%rdx,%rax,1),%eax
   182e8:	c0 e8 03             	shr    $0x3,%al
   182eb:	83 e0 0f             	and    $0xf,%eax
   182ee:	0f b6 c0             	movzbl %al,%eax
   182f1:	8b 55 fc             	mov    -0x4(%rbp),%edx
   182f4:	48 8d 35 9a 27 00 00 	lea    0x279a(%rip),%rsi        # 1aa95 <g_1290+0x1a2d>
   182fb:	48 89 c7             	mov    %rax,%rdi
   182fe:	e8 f0 23 ff ff       	callq  a6f3 <transparent_crc>
   18303:	8b 45 f0             	mov    -0x10(%rbp),%eax
   18306:	48 63 d0             	movslq %eax,%rdx
   18309:	48 89 d0             	mov    %rdx,%rax
   1830c:	48 c1 e0 04          	shl    $0x4,%rax
   18310:	48 29 d0             	sub    %rdx,%rax
   18313:	48 89 c2             	mov    %rax,%rdx
   18316:	48 8d 05 4b 0d 00 00 	lea    0xd4b(%rip),%rax        # 19068 <g_1290>
   1831d:	0f b6 4c 02 03       	movzbl 0x3(%rdx,%rax,1),%ecx
   18322:	c0 e9 07             	shr    $0x7,%cl
   18325:	0f b6 c9             	movzbl %cl,%ecx
   18328:	0f b6 74 02 04       	movzbl 0x4(%rdx,%rax,1),%esi
   1832d:	40 0f b6 f6          	movzbl %sil,%esi
   18331:	48 01 f6             	add    %rsi,%rsi
   18334:	48 09 ce             	or     %rcx,%rsi
   18337:	0f b6 4c 02 05       	movzbl 0x5(%rdx,%rax,1),%ecx
   1833c:	0f b6 c9             	movzbl %cl,%ecx
   1833f:	48 c1 e1 09          	shl    $0x9,%rcx
   18343:	48 09 f1             	or     %rsi,%rcx
   18346:	0f b6 44 02 06       	movzbl 0x6(%rdx,%rax,1),%eax
   1834b:	0f b6 c0             	movzbl %al,%eax
   1834e:	83 e0 1f             	and    $0x1f,%eax
   18351:	48 c1 e0 11          	shl    $0x11,%rax
   18355:	48 09 c8             	or     %rcx,%rax
   18358:	89 c1                	mov    %eax,%ecx
   1835a:	8b 45 fc             	mov    -0x4(%rbp),%eax
   1835d:	89 c2                	mov    %eax,%edx
   1835f:	48 8d 35 3c 27 00 00 	lea    0x273c(%rip),%rsi        # 1aaa2 <g_1290+0x1a3a>
   18366:	48 89 cf             	mov    %rcx,%rdi
   18369:	e8 85 23 ff ff       	callq  a6f3 <transparent_crc>
   1836e:	8b 45 f0             	mov    -0x10(%rbp),%eax
   18371:	48 63 d0             	movslq %eax,%rdx
   18374:	48 89 d0             	mov    %rdx,%rax
   18377:	48 c1 e0 04          	shl    $0x4,%rax
   1837b:	48 29 d0             	sub    %rdx,%rax
   1837e:	48 89 c2             	mov    %rax,%rdx
   18381:	48 8d 05 e0 0c 00 00 	lea    0xce0(%rip),%rax        # 19068 <g_1290>
   18388:	48 8b 44 02 07       	mov    0x7(%rdx,%rax,1),%rax
   1838d:	8b 55 fc             	mov    -0x4(%rbp),%edx
   18390:	48 8d 35 18 27 00 00 	lea    0x2718(%rip),%rsi        # 1aaaf <g_1290+0x1a47>
   18397:	48 89 c7             	mov    %rax,%rdi
   1839a:	e8 54 23 ff ff       	callq  a6f3 <transparent_crc>
   1839f:	83 7d fc 00          	cmpl   $0x0,-0x4(%rbp)
   183a3:	74 16                	je     183bb <main+0x11f0>
   183a5:	8b 45 f0             	mov    -0x10(%rbp),%eax
   183a8:	89 c6                	mov    %eax,%esi
   183aa:	48 8d 3d 00 24 00 00 	lea    0x2400(%rip),%rdi        # 1a7b1 <g_1290+0x1749>
   183b1:	b8 00 00 00 00       	mov    $0x0,%eax
   183b6:	e8 c5 0c ff ff       	callq  9080 <printf@plt>
   183bb:	83 45 f0 01          	addl   $0x1,-0x10(%rbp)
   183bf:	83 7d f0 00          	cmpl   $0x0,-0x10(%rbp)
   183c3:	0f 8e 9f fe ff ff    	jle    18268 <main+0x109d>
   183c9:	8b 05 c1 7e 00 00    	mov    0x7ec1(%rip),%eax        # 20290 <g_1330>
   183cf:	c1 e0 05             	shl    $0x5,%eax
   183d2:	c1 f8 05             	sar    $0x5,%eax
   183d5:	48 98                	cltq   
   183d7:	8b 55 fc             	mov    -0x4(%rbp),%edx
   183da:	48 8d 35 db 26 00 00 	lea    0x26db(%rip),%rsi        # 1aabc <g_1290+0x1a54>
   183e1:	48 89 c7             	mov    %rax,%rdi
   183e4:	e8 0a 23 ff ff       	callq  a6f3 <transparent_crc>
   183e9:	0f b6 05 a3 7e 00 00 	movzbl 0x7ea3(%rip),%eax        # 20293 <g_1330+0x3>
   183f0:	c0 e8 03             	shr    $0x3,%al
   183f3:	83 e0 0f             	and    $0xf,%eax
   183f6:	0f b6 c0             	movzbl %al,%eax
   183f9:	8b 55 fc             	mov    -0x4(%rbp),%edx
   183fc:	48 8d 35 c3 26 00 00 	lea    0x26c3(%rip),%rsi        # 1aac6 <g_1290+0x1a5e>
   18403:	48 89 c7             	mov    %rax,%rdi
   18406:	e8 e8 22 ff ff       	callq  a6f3 <transparent_crc>
   1840b:	48 8b 05 7e 7e 00 00 	mov    0x7e7e(%rip),%rax        # 20290 <g_1330>
   18412:	48 c1 e8 1f          	shr    $0x1f,%rax
   18416:	25 ff ff 3f 00       	and    $0x3fffff,%eax
   1841b:	89 c1                	mov    %eax,%ecx
   1841d:	8b 45 fc             	mov    -0x4(%rbp),%eax
   18420:	89 c2                	mov    %eax,%edx
   18422:	48 8d 35 a7 26 00 00 	lea    0x26a7(%rip),%rsi        # 1aad0 <g_1290+0x1a68>
   18429:	48 89 cf             	mov    %rcx,%rdi
   1842c:	e8 c2 22 ff ff       	callq  a6f3 <transparent_crc>
   18431:	48 8b 05 5f 7e 00 00 	mov    0x7e5f(%rip),%rax        # 20297 <g_1330+0x7>
   18438:	8b 55 fc             	mov    -0x4(%rbp),%edx
   1843b:	48 8d 35 98 26 00 00 	lea    0x2698(%rip),%rsi        # 1aada <g_1290+0x1a72>
   18442:	48 89 c7             	mov    %rax,%rdi
   18445:	e8 a9 22 ff ff       	callq  a6f3 <transparent_crc>
   1844a:	0f b6 05 4e 7e 00 00 	movzbl 0x7e4e(%rip),%eax        # 2029f <g_1340>
   18451:	0f b6 c0             	movzbl %al,%eax
   18454:	8b 55 fc             	mov    -0x4(%rbp),%edx
   18457:	48 8d 35 86 26 00 00 	lea    0x2686(%rip),%rsi        # 1aae4 <g_1290+0x1a7c>
   1845e:	48 89 c7             	mov    %rax,%rdi
   18461:	e8 8d 22 ff ff       	callq  a6f3 <transparent_crc>
   18466:	8b 05 34 7e 00 00    	mov    0x7e34(%rip),%eax        # 202a0 <g_1350>
   1846c:	c1 e0 05             	shl    $0x5,%eax
   1846f:	c1 f8 05             	sar    $0x5,%eax
   18472:	48 98                	cltq   
   18474:	8b 55 fc             	mov    -0x4(%rbp),%edx
   18477:	48 8d 35 6d 26 00 00 	lea    0x266d(%rip),%rsi        # 1aaeb <g_1290+0x1a83>
   1847e:	48 89 c7             	mov    %rax,%rdi
   18481:	e8 6d 22 ff ff       	callq  a6f3 <transparent_crc>
   18486:	0f b6 05 16 7e 00 00 	movzbl 0x7e16(%rip),%eax        # 202a3 <g_1350+0x3>
   1848d:	c0 e8 03             	shr    $0x3,%al
   18490:	83 e0 0f             	and    $0xf,%eax
   18493:	0f b6 c0             	movzbl %al,%eax
   18496:	8b 55 fc             	mov    -0x4(%rbp),%edx
   18499:	48 8d 35 55 26 00 00 	lea    0x2655(%rip),%rsi        # 1aaf5 <g_1290+0x1a8d>
   184a0:	48 89 c7             	mov    %rax,%rdi
   184a3:	e8 4b 22 ff ff       	callq  a6f3 <transparent_crc>
   184a8:	48 8b 05 f1 7d 00 00 	mov    0x7df1(%rip),%rax        # 202a0 <g_1350>
   184af:	48 c1 e8 1f          	shr    $0x1f,%rax
   184b3:	25 ff ff 3f 00       	and    $0x3fffff,%eax
   184b8:	89 c1                	mov    %eax,%ecx
   184ba:	8b 45 fc             	mov    -0x4(%rbp),%eax
   184bd:	89 c2                	mov    %eax,%edx
   184bf:	48 8d 35 39 26 00 00 	lea    0x2639(%rip),%rsi        # 1aaff <g_1290+0x1a97>
   184c6:	48 89 cf             	mov    %rcx,%rdi
   184c9:	e8 25 22 ff ff       	callq  a6f3 <transparent_crc>
   184ce:	48 8b 05 d2 7d 00 00 	mov    0x7dd2(%rip),%rax        # 202a7 <g_1350+0x7>
   184d5:	8b 55 fc             	mov    -0x4(%rbp),%edx
   184d8:	48 8d 35 2a 26 00 00 	lea    0x262a(%rip),%rsi        # 1ab09 <g_1290+0x1aa1>
   184df:	48 89 c7             	mov    %rax,%rdi
   184e2:	e8 0c 22 ff ff       	callq  a6f3 <transparent_crc>
   184e7:	8b 05 c3 7d 00 00    	mov    0x7dc3(%rip),%eax        # 202b0 <g_1429>
   184ed:	89 c1                	mov    %eax,%ecx
   184ef:	8b 45 fc             	mov    -0x4(%rbp),%eax
   184f2:	89 c2                	mov    %eax,%edx
   184f4:	48 8d 35 18 26 00 00 	lea    0x2618(%rip),%rsi        # 1ab13 <g_1290+0x1aab>
   184fb:	48 89 cf             	mov    %rcx,%rdi
   184fe:	e8 f0 21 ff ff       	callq  a6f3 <transparent_crc>
   18503:	48 8b 05 ae 7d 00 00 	mov    0x7dae(%rip),%rax        # 202b8 <g_1488>
   1850a:	c1 e0 05             	shl    $0x5,%eax
   1850d:	c1 f8 05             	sar    $0x5,%eax
   18510:	48 98                	cltq   
   18512:	8b 55 fc             	mov    -0x4(%rbp),%edx
   18515:	48 8d 35 fe 25 00 00 	lea    0x25fe(%rip),%rsi        # 1ab1a <g_1290+0x1ab2>
   1851c:	48 89 c7             	mov    %rax,%rdi
   1851f:	e8 cf 21 ff ff       	callq  a6f3 <transparent_crc>
   18524:	48 8b 05 8d 7d 00 00 	mov    0x7d8d(%rip),%rax        # 202b8 <g_1488>
   1852b:	48 c1 e8 1b          	shr    $0x1b,%rax
   1852f:	83 e0 0f             	and    $0xf,%eax
   18532:	0f b6 c0             	movzbl %al,%eax
   18535:	8b 55 fc             	mov    -0x4(%rbp),%edx
   18538:	48 8d 35 e5 25 00 00 	lea    0x25e5(%rip),%rsi        # 1ab24 <g_1290+0x1abc>
   1853f:	48 89 c7             	mov    %rax,%rdi
   18542:	e8 ac 21 ff ff       	callq  a6f3 <transparent_crc>
   18547:	48 8b 05 6a 7d 00 00 	mov    0x7d6a(%rip),%rax        # 202b8 <g_1488>
   1854e:	48 c1 e8 1f          	shr    $0x1f,%rax
   18552:	25 ff ff 3f 00       	and    $0x3fffff,%eax
   18557:	89 c1                	mov    %eax,%ecx
   18559:	8b 45 fc             	mov    -0x4(%rbp),%eax
   1855c:	89 c2                	mov    %eax,%edx
   1855e:	48 8d 35 c9 25 00 00 	lea    0x25c9(%rip),%rsi        # 1ab2e <g_1290+0x1ac6>
   18565:	48 89 cf             	mov    %rcx,%rdi
   18568:	e8 86 21 ff ff       	callq  a6f3 <transparent_crc>
   1856d:	48 8b 05 4b 7d 00 00 	mov    0x7d4b(%rip),%rax        # 202bf <g_1488+0x7>
   18574:	8b 55 fc             	mov    -0x4(%rbp),%edx
   18577:	48 8d 35 ba 25 00 00 	lea    0x25ba(%rip),%rsi        # 1ab38 <g_1290+0x1ad0>
   1857e:	48 89 c7             	mov    %rax,%rdi
   18581:	e8 6d 21 ff ff       	callq  a6f3 <transparent_crc>
   18586:	48 8b 05 3b 7d 00 00 	mov    0x7d3b(%rip),%rax        # 202c8 <g_1511>
   1858d:	c1 e0 05             	shl    $0x5,%eax
   18590:	c1 f8 05             	sar    $0x5,%eax
   18593:	48 98                	cltq   
   18595:	8b 55 fc             	mov    -0x4(%rbp),%edx
   18598:	48 8d 35 a3 25 00 00 	lea    0x25a3(%rip),%rsi        # 1ab42 <g_1290+0x1ada>
   1859f:	48 89 c7             	mov    %rax,%rdi
   185a2:	e8 4c 21 ff ff       	callq  a6f3 <transparent_crc>
   185a7:	48 8b 05 1a 7d 00 00 	mov    0x7d1a(%rip),%rax        # 202c8 <g_1511>
   185ae:	48 c1 e8 1b          	shr    $0x1b,%rax
   185b2:	83 e0 0f             	and    $0xf,%eax
   185b5:	0f b6 c0             	movzbl %al,%eax
   185b8:	8b 55 fc             	mov    -0x4(%rbp),%edx
   185bb:	48 8d 35 8a 25 00 00 	lea    0x258a(%rip),%rsi        # 1ab4c <g_1290+0x1ae4>
   185c2:	48 89 c7             	mov    %rax,%rdi
   185c5:	e8 29 21 ff ff       	callq  a6f3 <transparent_crc>
   185ca:	48 8b 05 f7 7c 00 00 	mov    0x7cf7(%rip),%rax        # 202c8 <g_1511>
   185d1:	48 c1 e8 1f          	shr    $0x1f,%rax
   185d5:	25 ff ff 3f 00       	and    $0x3fffff,%eax
   185da:	89 c1                	mov    %eax,%ecx
   185dc:	8b 45 fc             	mov    -0x4(%rbp),%eax
   185df:	89 c2                	mov    %eax,%edx
   185e1:	48 8d 35 6e 25 00 00 	lea    0x256e(%rip),%rsi        # 1ab56 <g_1290+0x1aee>
   185e8:	48 89 cf             	mov    %rcx,%rdi
   185eb:	e8 03 21 ff ff       	callq  a6f3 <transparent_crc>
   185f0:	48 8b 05 d8 7c 00 00 	mov    0x7cd8(%rip),%rax        # 202cf <g_1511+0x7>
   185f7:	8b 55 fc             	mov    -0x4(%rbp),%edx
   185fa:	48 8d 35 5f 25 00 00 	lea    0x255f(%rip),%rsi        # 1ab60 <g_1290+0x1af8>
   18601:	48 89 c7             	mov    %rax,%rdi
   18604:	e8 ea 20 ff ff       	callq  a6f3 <transparent_crc>
   18609:	48 8b 05 c8 7c 00 00 	mov    0x7cc8(%rip),%rax        # 202d8 <g_1522>
   18610:	c1 e0 05             	shl    $0x5,%eax
   18613:	c1 f8 05             	sar    $0x5,%eax
   18616:	48 98                	cltq   
   18618:	8b 55 fc             	mov    -0x4(%rbp),%edx
   1861b:	48 8d 35 48 25 00 00 	lea    0x2548(%rip),%rsi        # 1ab6a <g_1290+0x1b02>
   18622:	48 89 c7             	mov    %rax,%rdi
   18625:	e8 c9 20 ff ff       	callq  a6f3 <transparent_crc>
   1862a:	48 8b 05 a7 7c 00 00 	mov    0x7ca7(%rip),%rax        # 202d8 <g_1522>
   18631:	48 c1 e8 1b          	shr    $0x1b,%rax
   18635:	83 e0 0f             	and    $0xf,%eax
   18638:	0f b6 c0             	movzbl %al,%eax
   1863b:	8b 55 fc             	mov    -0x4(%rbp),%edx
   1863e:	48 8d 35 2f 25 00 00 	lea    0x252f(%rip),%rsi        # 1ab74 <g_1290+0x1b0c>
   18645:	48 89 c7             	mov    %rax,%rdi
   18648:	e8 a6 20 ff ff       	callq  a6f3 <transparent_crc>
   1864d:	48 8b 05 84 7c 00 00 	mov    0x7c84(%rip),%rax        # 202d8 <g_1522>
   18654:	48 c1 e8 1f          	shr    $0x1f,%rax
   18658:	25 ff ff 3f 00       	and    $0x3fffff,%eax
   1865d:	89 c1                	mov    %eax,%ecx
   1865f:	8b 45 fc             	mov    -0x4(%rbp),%eax
   18662:	89 c2                	mov    %eax,%edx
   18664:	48 8d 35 13 25 00 00 	lea    0x2513(%rip),%rsi        # 1ab7e <g_1290+0x1b16>
   1866b:	48 89 cf             	mov    %rcx,%rdi
   1866e:	e8 80 20 ff ff       	callq  a6f3 <transparent_crc>
   18673:	48 8b 05 65 7c 00 00 	mov    0x7c65(%rip),%rax        # 202df <g_1522+0x7>
   1867a:	8b 55 fc             	mov    -0x4(%rbp),%edx
   1867d:	48 8d 35 04 25 00 00 	lea    0x2504(%rip),%rsi        # 1ab88 <g_1290+0x1b20>
   18684:	48 89 c7             	mov    %rax,%rdi
   18687:	e8 67 20 ff ff       	callq  a6f3 <transparent_crc>
   1868c:	0f b6 05 54 7c 00 00 	movzbl 0x7c54(%rip),%eax        # 202e7 <g_1563>
   18693:	0f b6 c0             	movzbl %al,%eax
   18696:	8b 55 fc             	mov    -0x4(%rbp),%edx
   18699:	48 8d 35 f2 24 00 00 	lea    0x24f2(%rip),%rsi        # 1ab92 <g_1290+0x1b2a>
   186a0:	48 89 c7             	mov    %rax,%rdi
   186a3:	e8 4b 20 ff ff       	callq  a6f3 <transparent_crc>
   186a8:	c7 45 f0 00 00 00 00 	movl   $0x0,-0x10(%rbp)
   186af:	e9 3a 02 00 00       	jmpq   188ee <main+0x1723>
   186b4:	c7 45 f4 00 00 00 00 	movl   $0x0,-0xc(%rbp)
   186bb:	e9 20 02 00 00       	jmpq   188e0 <main+0x1715>
   186c0:	c7 45 f8 00 00 00 00 	movl   $0x0,-0x8(%rbp)
   186c7:	e9 06 02 00 00       	jmpq   188d2 <main+0x1707>
   186cc:	8b 45 f8             	mov    -0x8(%rbp),%eax
   186cf:	48 98                	cltq   
   186d1:	8b 55 f4             	mov    -0xc(%rbp),%edx
   186d4:	48 63 f2             	movslq %edx,%rsi
   186d7:	8b 55 f0             	mov    -0x10(%rbp),%edx
   186da:	48 63 ca             	movslq %edx,%rcx
   186dd:	48 89 c2             	mov    %rax,%rdx
   186e0:	48 c1 e2 04          	shl    $0x4,%rdx
   186e4:	48 29 c2             	sub    %rax,%rdx
   186e7:	48 89 f0             	mov    %rsi,%rax
   186ea:	48 c1 e0 04          	shl    $0x4,%rax
   186ee:	48 29 f0             	sub    %rsi,%rax
   186f1:	48 c1 e0 03          	shl    $0x3,%rax
   186f5:	48 01 c2             	add    %rax,%rdx
   186f8:	48 89 c8             	mov    %rcx,%rax
   186fb:	48 c1 e0 04          	shl    $0x4,%rax
   186ff:	48 29 c8             	sub    %rcx,%rax
   18702:	48 c1 e0 05          	shl    $0x5,%rax
   18706:	48 01 c2             	add    %rax,%rdx
   18709:	48 8d 05 f0 7b 00 00 	lea    0x7bf0(%rip),%rax        # 20300 <g_1725>
   18710:	48 01 d0             	add    %rdx,%rax
   18713:	0f b6 10             	movzbl (%rax),%edx
   18716:	0f b6 48 01          	movzbl 0x1(%rax),%ecx
   1871a:	48 c1 e1 08          	shl    $0x8,%rcx
   1871e:	48 09 d1             	or     %rdx,%rcx
   18721:	0f b6 50 02          	movzbl 0x2(%rax),%edx
   18725:	48 c1 e2 10          	shl    $0x10,%rdx
   18729:	48 09 ca             	or     %rcx,%rdx
   1872c:	0f b6 40 03          	movzbl 0x3(%rax),%eax
   18730:	83 e0 07             	and    $0x7,%eax
   18733:	48 c1 e0 18          	shl    $0x18,%rax
   18737:	48 09 d0             	or     %rdx,%rax
   1873a:	48 c1 e0 25          	shl    $0x25,%rax
   1873e:	48 c1 f8 25          	sar    $0x25,%rax
   18742:	48 98                	cltq   
   18744:	8b 55 fc             	mov    -0x4(%rbp),%edx
   18747:	48 8d 35 4b 24 00 00 	lea    0x244b(%rip),%rsi        # 1ab99 <g_1290+0x1b31>
   1874e:	48 89 c7             	mov    %rax,%rdi
   18751:	e8 9d 1f ff ff       	callq  a6f3 <transparent_crc>
   18756:	8b 45 f8             	mov    -0x8(%rbp),%eax
   18759:	48 98                	cltq   
   1875b:	8b 55 f4             	mov    -0xc(%rbp),%edx
   1875e:	48 63 f2             	movslq %edx,%rsi
   18761:	8b 55 f0             	mov    -0x10(%rbp),%edx
   18764:	48 63 ca             	movslq %edx,%rcx
   18767:	48 89 c2             	mov    %rax,%rdx
   1876a:	48 c1 e2 04          	shl    $0x4,%rdx
   1876e:	48 29 c2             	sub    %rax,%rdx
   18771:	48 89 f0             	mov    %rsi,%rax
   18774:	48 c1 e0 04          	shl    $0x4,%rax
   18778:	48 29 f0             	sub    %rsi,%rax
   1877b:	48 c1 e0 03          	shl    $0x3,%rax
   1877f:	48 01 c2             	add    %rax,%rdx
   18782:	48 89 c8             	mov    %rcx,%rax
   18785:	48 c1 e0 04          	shl    $0x4,%rax
   18789:	48 29 c8             	sub    %rcx,%rax
   1878c:	48 c1 e0 05          	shl    $0x5,%rax
   18790:	48 01 c2             	add    %rax,%rdx
   18793:	48 8d 05 66 7b 00 00 	lea    0x7b66(%rip),%rax        # 20300 <g_1725>
   1879a:	48 01 d0             	add    %rdx,%rax
   1879d:	0f b6 40 03          	movzbl 0x3(%rax),%eax
   187a1:	c0 e8 03             	shr    $0x3,%al
   187a4:	83 e0 0f             	and    $0xf,%eax
   187a7:	0f b6 c0             	movzbl %al,%eax
   187aa:	8b 55 fc             	mov    -0x4(%rbp),%edx
   187ad:	48 8d 35 f8 23 00 00 	lea    0x23f8(%rip),%rsi        # 1abac <g_1290+0x1b44>
   187b4:	48 89 c7             	mov    %rax,%rdi
   187b7:	e8 37 1f ff ff       	callq  a6f3 <transparent_crc>
   187bc:	8b 45 f8             	mov    -0x8(%rbp),%eax
   187bf:	48 98                	cltq   
   187c1:	8b 55 f4             	mov    -0xc(%rbp),%edx
   187c4:	48 63 f2             	movslq %edx,%rsi
   187c7:	8b 55 f0             	mov    -0x10(%rbp),%edx
   187ca:	48 63 ca             	movslq %edx,%rcx
   187cd:	48 89 c2             	mov    %rax,%rdx
   187d0:	48 c1 e2 04          	shl    $0x4,%rdx
   187d4:	48 29 c2             	sub    %rax,%rdx
   187d7:	48 89 f0             	mov    %rsi,%rax
   187da:	48 c1 e0 04          	shl    $0x4,%rax
   187de:	48 29 f0             	sub    %rsi,%rax
   187e1:	48 c1 e0 03          	shl    $0x3,%rax
   187e5:	48 01 c2             	add    %rax,%rdx
   187e8:	48 89 c8             	mov    %rcx,%rax
   187eb:	48 c1 e0 04          	shl    $0x4,%rax
   187ef:	48 29 c8             	sub    %rcx,%rax
   187f2:	48 c1 e0 05          	shl    $0x5,%rax
   187f6:	48 01 c2             	add    %rax,%rdx
   187f9:	48 8d 05 00 7b 00 00 	lea    0x7b00(%rip),%rax        # 20300 <g_1725>
   18800:	48 01 d0             	add    %rdx,%rax
   18803:	0f b6 50 03          	movzbl 0x3(%rax),%edx
   18807:	c0 ea 07             	shr    $0x7,%dl
   1880a:	0f b6 d2             	movzbl %dl,%edx
   1880d:	0f b6 48 04          	movzbl 0x4(%rax),%ecx
   18811:	0f b6 c9             	movzbl %cl,%ecx
   18814:	48 01 c9             	add    %rcx,%rcx
   18817:	48 09 d1             	or     %rdx,%rcx
   1881a:	0f b6 50 05          	movzbl 0x5(%rax),%edx
   1881e:	0f b6 d2             	movzbl %dl,%edx
   18821:	48 c1 e2 09          	shl    $0x9,%rdx
   18825:	48 09 ca             	or     %rcx,%rdx
   18828:	0f b6 40 06          	movzbl 0x6(%rax),%eax
   1882c:	0f b6 c0             	movzbl %al,%eax
   1882f:	83 e0 1f             	and    $0x1f,%eax
   18832:	48 c1 e0 11          	shl    $0x11,%rax
   18836:	48 09 d0             	or     %rdx,%rax
   18839:	89 c1                	mov    %eax,%ecx
   1883b:	8b 45 fc             	mov    -0x4(%rbp),%eax
   1883e:	89 c2                	mov    %eax,%edx
   18840:	48 8d 35 78 23 00 00 	lea    0x2378(%rip),%rsi        # 1abbf <g_1290+0x1b57>
   18847:	48 89 cf             	mov    %rcx,%rdi
   1884a:	e8 a4 1e ff ff       	callq  a6f3 <transparent_crc>
   1884f:	8b 45 f8             	mov    -0x8(%rbp),%eax
   18852:	48 98                	cltq   
   18854:	8b 55 f4             	mov    -0xc(%rbp),%edx
   18857:	48 63 f2             	movslq %edx,%rsi
   1885a:	8b 55 f0             	mov    -0x10(%rbp),%edx
   1885d:	48 63 ca             	movslq %edx,%rcx
   18860:	48 89 c2             	mov    %rax,%rdx
   18863:	48 c1 e2 04          	shl    $0x4,%rdx
   18867:	48 29 c2             	sub    %rax,%rdx
   1886a:	48 89 f0             	mov    %rsi,%rax
   1886d:	48 c1 e0 04          	shl    $0x4,%rax
   18871:	48 29 f0             	sub    %rsi,%rax
   18874:	48 c1 e0 03          	shl    $0x3,%rax
   18878:	48 01 c2             	add    %rax,%rdx
   1887b:	48 89 c8             	mov    %rcx,%rax
   1887e:	48 c1 e0 04          	shl    $0x4,%rax
   18882:	48 29 c8             	sub    %rcx,%rax
   18885:	48 c1 e0 05          	shl    $0x5,%rax
   18889:	48 01 c2             	add    %rax,%rdx
   1888c:	48 8d 05 6d 7a 00 00 	lea    0x7a6d(%rip),%rax        # 20300 <g_1725>
   18893:	48 01 d0             	add    %rdx,%rax
   18896:	48 8b 40 07          	mov    0x7(%rax),%rax
   1889a:	8b 55 fc             	mov    -0x4(%rbp),%edx
   1889d:	48 8d 35 2e 23 00 00 	lea    0x232e(%rip),%rsi        # 1abd2 <g_1290+0x1b6a>
   188a4:	48 89 c7             	mov    %rax,%rdi
   188a7:	e8 47 1e ff ff       	callq  a6f3 <transparent_crc>
   188ac:	83 7d fc 00          	cmpl   $0x0,-0x4(%rbp)
   188b0:	74 1c                	je     188ce <main+0x1703>
   188b2:	8b 4d f8             	mov    -0x8(%rbp),%ecx
   188b5:	8b 55 f4             	mov    -0xc(%rbp),%edx
   188b8:	8b 45 f0             	mov    -0x10(%rbp),%eax
   188bb:	89 c6                	mov    %eax,%esi
   188bd:	48 8d 3d 85 1f 00 00 	lea    0x1f85(%rip),%rdi        # 1a849 <g_1290+0x17e1>
   188c4:	b8 00 00 00 00       	mov    $0x0,%eax
   188c9:	e8 b2 07 ff ff       	callq  9080 <printf@plt>
   188ce:	83 45 f8 01          	addl   $0x1,-0x8(%rbp)
   188d2:	83 7d f8 07          	cmpl   $0x7,-0x8(%rbp)
   188d6:	0f 8e f0 fd ff ff    	jle    186cc <main+0x1501>
   188dc:	83 45 f4 01          	addl   $0x1,-0xc(%rbp)
   188e0:	83 7d f4 03          	cmpl   $0x3,-0xc(%rbp)
   188e4:	0f 8e d6 fd ff ff    	jle    186c0 <main+0x14f5>
   188ea:	83 45 f0 01          	addl   $0x1,-0x10(%rbp)
   188ee:	83 7d f0 03          	cmpl   $0x3,-0x10(%rbp)
   188f2:	0f 8e bc fd ff ff    	jle    186b4 <main+0x14e9>
   188f8:	48 8b 05 81 81 00 00 	mov    0x8181(%rip),%rax        # 20a80 <g_1748>
   188ff:	c1 e0 05             	shl    $0x5,%eax
   18902:	c1 f8 05             	sar    $0x5,%eax
   18905:	48 98                	cltq   
   18907:	8b 55 fc             	mov    -0x4(%rbp),%edx
   1890a:	48 8d 35 d4 22 00 00 	lea    0x22d4(%rip),%rsi        # 1abe5 <g_1290+0x1b7d>
   18911:	48 89 c7             	mov    %rax,%rdi
   18914:	e8 da 1d ff ff       	callq  a6f3 <transparent_crc>
   18919:	48 8b 05 60 81 00 00 	mov    0x8160(%rip),%rax        # 20a80 <g_1748>
   18920:	48 c1 e8 1b          	shr    $0x1b,%rax
   18924:	83 e0 0f             	and    $0xf,%eax
   18927:	0f b6 c0             	movzbl %al,%eax
   1892a:	8b 55 fc             	mov    -0x4(%rbp),%edx
   1892d:	48 8d 35 bb 22 00 00 	lea    0x22bb(%rip),%rsi        # 1abef <g_1290+0x1b87>
   18934:	48 89 c7             	mov    %rax,%rdi
   18937:	e8 b7 1d ff ff       	callq  a6f3 <transparent_crc>
   1893c:	48 8b 05 3d 81 00 00 	mov    0x813d(%rip),%rax        # 20a80 <g_1748>
   18943:	48 c1 e8 1f          	shr    $0x1f,%rax
   18947:	25 ff ff 3f 00       	and    $0x3fffff,%eax
   1894c:	89 c1                	mov    %eax,%ecx
   1894e:	8b 45 fc             	mov    -0x4(%rbp),%eax
   18951:	89 c2                	mov    %eax,%edx
   18953:	48 8d 35 9f 22 00 00 	lea    0x229f(%rip),%rsi        # 1abf9 <g_1290+0x1b91>
   1895a:	48 89 cf             	mov    %rcx,%rdi
   1895d:	e8 91 1d ff ff       	callq  a6f3 <transparent_crc>
   18962:	48 8b 05 1e 81 00 00 	mov    0x811e(%rip),%rax        # 20a87 <g_1748+0x7>
   18969:	8b 55 fc             	mov    -0x4(%rbp),%edx
   1896c:	48 8d 35 90 22 00 00 	lea    0x2290(%rip),%rsi        # 1ac03 <g_1290+0x1b9b>
   18973:	48 89 c7             	mov    %rax,%rdi
   18976:	e8 78 1d ff ff       	callq  a6f3 <transparent_crc>
   1897b:	48 8b 05 0e 81 00 00 	mov    0x810e(%rip),%rax        # 20a90 <g_1796>
   18982:	8b 55 fc             	mov    -0x4(%rbp),%edx
   18985:	48 8d 35 81 22 00 00 	lea    0x2281(%rip),%rsi        # 1ac0d <g_1290+0x1ba5>
   1898c:	48 89 c7             	mov    %rax,%rdi
   1898f:	e8 5f 1d ff ff       	callq  a6f3 <transparent_crc>
   18994:	c7 45 f0 00 00 00 00 	movl   $0x0,-0x10(%rbp)
   1899b:	e9 2a 02 00 00       	jmpq   18bca <main+0x19ff>
   189a0:	c7 45 f4 00 00 00 00 	movl   $0x0,-0xc(%rbp)
   189a7:	e9 10 02 00 00       	jmpq   18bbc <main+0x19f1>
   189ac:	c7 45 f8 00 00 00 00 	movl   $0x0,-0x8(%rbp)
   189b3:	e9 f6 01 00 00       	jmpq   18bae <main+0x19e3>
   189b8:	8b 45 f8             	mov    -0x8(%rbp),%eax
   189bb:	48 98                	cltq   
   189bd:	8b 55 f4             	mov    -0xc(%rbp),%edx
   189c0:	48 63 ca             	movslq %edx,%rcx
   189c3:	8b 55 f0             	mov    -0x10(%rbp),%edx
   189c6:	48 63 f2             	movslq %edx,%rsi
   189c9:	48 89 c2             	mov    %rax,%rdx
   189cc:	48 c1 e2 04          	shl    $0x4,%rdx
   189d0:	48 29 c2             	sub    %rax,%rdx
   189d3:	48 89 c8             	mov    %rcx,%rax
   189d6:	48 c1 e0 04          	shl    $0x4,%rax
   189da:	48 29 c8             	sub    %rcx,%rax
   189dd:	48 c1 e0 02          	shl    $0x2,%rax
   189e1:	48 01 c2             	add    %rax,%rdx
   189e4:	48 69 c6 58 02 00 00 	imul   $0x258,%rsi,%rax
   189eb:	48 01 c2             	add    %rax,%rdx
   189ee:	48 8d 05 ab 80 00 00 	lea    0x80ab(%rip),%rax        # 20aa0 <g_1807>
   189f5:	48 01 d0             	add    %rdx,%rax
   189f8:	0f b6 10             	movzbl (%rax),%edx
   189fb:	0f b6 d2             	movzbl %dl,%edx
   189fe:	0f b6 48 01          	movzbl 0x1(%rax),%ecx
   18a02:	0f b6 c9             	movzbl %cl,%ecx
   18a05:	48 c1 e1 08          	shl    $0x8,%rcx
   18a09:	48 09 d1             	or     %rdx,%rcx
   18a0c:	0f b6 50 02          	movzbl 0x2(%rax),%edx
   18a10:	0f b6 d2             	movzbl %dl,%edx
   18a13:	48 c1 e2 10          	shl    $0x10,%rdx
   18a17:	48 09 ca             	or     %rcx,%rdx
   18a1a:	0f b6 40 03          	movzbl 0x3(%rax),%eax
   18a1e:	0f b6 c0             	movzbl %al,%eax
   18a21:	83 e0 07             	and    $0x7,%eax
   18a24:	48 c1 e0 18          	shl    $0x18,%rax
   18a28:	48 09 d0             	or     %rdx,%rax
   18a2b:	48 c1 e0 25          	shl    $0x25,%rax
   18a2f:	48 c1 f8 25          	sar    $0x25,%rax
   18a33:	48 98                	cltq   
   18a35:	8b 55 fc             	mov    -0x4(%rbp),%edx
   18a38:	48 8d 35 d5 21 00 00 	lea    0x21d5(%rip),%rsi        # 1ac14 <g_1290+0x1bac>
   18a3f:	48 89 c7             	mov    %rax,%rdi
   18a42:	e8 ac 1c ff ff       	callq  a6f3 <transparent_crc>
   18a47:	8b 45 f8             	mov    -0x8(%rbp),%eax
   18a4a:	48 98                	cltq   
   18a4c:	8b 55 f4             	mov    -0xc(%rbp),%edx
   18a4f:	48 63 ca             	movslq %edx,%rcx
   18a52:	8b 55 f0             	mov    -0x10(%rbp),%edx
   18a55:	48 63 f2             	movslq %edx,%rsi
   18a58:	48 89 c2             	mov    %rax,%rdx
   18a5b:	48 c1 e2 04          	shl    $0x4,%rdx
   18a5f:	48 29 c2             	sub    %rax,%rdx
   18a62:	48 89 c8             	mov    %rcx,%rax
   18a65:	48 c1 e0 04          	shl    $0x4,%rax
   18a69:	48 29 c8             	sub    %rcx,%rax
   18a6c:	48 c1 e0 02          	shl    $0x2,%rax
   18a70:	48 01 c2             	add    %rax,%rdx
   18a73:	48 69 c6 58 02 00 00 	imul   $0x258,%rsi,%rax
   18a7a:	48 01 c2             	add    %rax,%rdx
   18a7d:	48 8d 05 1c 80 00 00 	lea    0x801c(%rip),%rax        # 20aa0 <g_1807>
   18a84:	48 01 d0             	add    %rdx,%rax
   18a87:	0f b6 40 03          	movzbl 0x3(%rax),%eax
   18a8b:	c0 e8 03             	shr    $0x3,%al
   18a8e:	83 e0 0f             	and    $0xf,%eax
   18a91:	0f b6 c0             	movzbl %al,%eax
   18a94:	8b 55 fc             	mov    -0x4(%rbp),%edx
   18a97:	48 8d 35 89 21 00 00 	lea    0x2189(%rip),%rsi        # 1ac27 <g_1290+0x1bbf>
   18a9e:	48 89 c7             	mov    %rax,%rdi
   18aa1:	e8 4d 1c ff ff       	callq  a6f3 <transparent_crc>
   18aa6:	8b 45 f8             	mov    -0x8(%rbp),%eax
   18aa9:	48 98                	cltq   
   18aab:	8b 55 f4             	mov    -0xc(%rbp),%edx
   18aae:	48 63 ca             	movslq %edx,%rcx
   18ab1:	8b 55 f0             	mov    -0x10(%rbp),%edx
   18ab4:	48 63 f2             	movslq %edx,%rsi
   18ab7:	48 89 c2             	mov    %rax,%rdx
   18aba:	48 c1 e2 04          	shl    $0x4,%rdx
   18abe:	48 29 c2             	sub    %rax,%rdx
   18ac1:	48 89 c8             	mov    %rcx,%rax
   18ac4:	48 c1 e0 04          	shl    $0x4,%rax
   18ac8:	48 29 c8             	sub    %rcx,%rax
   18acb:	48 c1 e0 02          	shl    $0x2,%rax
   18acf:	48 01 c2             	add    %rax,%rdx
   18ad2:	48 69 c6 58 02 00 00 	imul   $0x258,%rsi,%rax
   18ad9:	48 01 c2             	add    %rax,%rdx
   18adc:	48 8d 05 bd 7f 00 00 	lea    0x7fbd(%rip),%rax        # 20aa0 <g_1807>
   18ae3:	48 01 d0             	add    %rdx,%rax
   18ae6:	0f b6 50 03          	movzbl 0x3(%rax),%edx
   18aea:	c0 ea 07             	shr    $0x7,%dl
   18aed:	0f b6 d2             	movzbl %dl,%edx
   18af0:	0f b6 48 04          	movzbl 0x4(%rax),%ecx
   18af4:	0f b6 c9             	movzbl %cl,%ecx
   18af7:	48 01 c9             	add    %rcx,%rcx
   18afa:	48 09 d1             	or     %rdx,%rcx
   18afd:	0f b6 50 05          	movzbl 0x5(%rax),%edx
   18b01:	0f b6 d2             	movzbl %dl,%edx
   18b04:	48 c1 e2 09          	shl    $0x9,%rdx
   18b08:	48 09 ca             	or     %rcx,%rdx
   18b0b:	0f b6 40 06          	movzbl 0x6(%rax),%eax
   18b0f:	0f b6 c0             	movzbl %al,%eax
   18b12:	83 e0 1f             	and    $0x1f,%eax
   18b15:	48 c1 e0 11          	shl    $0x11,%rax
   18b19:	48 09 d0             	or     %rdx,%rax
   18b1c:	89 c1                	mov    %eax,%ecx
   18b1e:	8b 45 fc             	mov    -0x4(%rbp),%eax
   18b21:	89 c2                	mov    %eax,%edx
   18b23:	48 8d 35 10 21 00 00 	lea    0x2110(%rip),%rsi        # 1ac3a <g_1290+0x1bd2>
   18b2a:	48 89 cf             	mov    %rcx,%rdi
   18b2d:	e8 c1 1b ff ff       	callq  a6f3 <transparent_crc>
   18b32:	8b 45 f8             	mov    -0x8(%rbp),%eax
   18b35:	48 98                	cltq   
   18b37:	8b 55 f4             	mov    -0xc(%rbp),%edx
   18b3a:	48 63 ca             	movslq %edx,%rcx
   18b3d:	8b 55 f0             	mov    -0x10(%rbp),%edx
   18b40:	48 63 f2             	movslq %edx,%rsi
   18b43:	48 89 c2             	mov    %rax,%rdx
   18b46:	48 c1 e2 04          	shl    $0x4,%rdx
   18b4a:	48 29 c2             	sub    %rax,%rdx
   18b4d:	48 89 c8             	mov    %rcx,%rax
   18b50:	48 c1 e0 04          	shl    $0x4,%rax
   18b54:	48 29 c8             	sub    %rcx,%rax
   18b57:	48 c1 e0 02          	shl    $0x2,%rax
   18b5b:	48 01 c2             	add    %rax,%rdx
   18b5e:	48 69 c6 58 02 00 00 	imul   $0x258,%rsi,%rax
   18b65:	48 01 c2             	add    %rax,%rdx
   18b68:	48 8d 05 31 7f 00 00 	lea    0x7f31(%rip),%rax        # 20aa0 <g_1807>
   18b6f:	48 01 d0             	add    %rdx,%rax
   18b72:	48 8b 40 07          	mov    0x7(%rax),%rax
   18b76:	8b 55 fc             	mov    -0x4(%rbp),%edx
   18b79:	48 8d 35 cd 20 00 00 	lea    0x20cd(%rip),%rsi        # 1ac4d <g_1290+0x1be5>
   18b80:	48 89 c7             	mov    %rax,%rdi
   18b83:	e8 6b 1b ff ff       	callq  a6f3 <transparent_crc>
   18b88:	83 7d fc 00          	cmpl   $0x0,-0x4(%rbp)
   18b8c:	74 1c                	je     18baa <main+0x19df>
   18b8e:	8b 4d f8             	mov    -0x8(%rbp),%ecx
   18b91:	8b 55 f4             	mov    -0xc(%rbp),%edx
   18b94:	8b 45 f0             	mov    -0x10(%rbp),%eax
   18b97:	89 c6                	mov    %eax,%esi
   18b99:	48 8d 3d a9 1c 00 00 	lea    0x1ca9(%rip),%rdi        # 1a849 <g_1290+0x17e1>
   18ba0:	b8 00 00 00 00       	mov    $0x0,%eax
   18ba5:	e8 d6 04 ff ff       	callq  9080 <printf@plt>
   18baa:	83 45 f8 01          	addl   $0x1,-0x8(%rbp)
   18bae:	83 7d f8 03          	cmpl   $0x3,-0x8(%rbp)
   18bb2:	0f 8e 00 fe ff ff    	jle    189b8 <main+0x17ed>
   18bb8:	83 45 f4 01          	addl   $0x1,-0xc(%rbp)
   18bbc:	83 7d f4 09          	cmpl   $0x9,-0xc(%rbp)
   18bc0:	0f 8e e6 fd ff ff    	jle    189ac <main+0x17e1>
   18bc6:	83 45 f0 01          	addl   $0x1,-0x10(%rbp)
   18bca:	83 7d f0 02          	cmpl   $0x2,-0x10(%rbp)
   18bce:	0f 8e cc fd ff ff    	jle    189a0 <main+0x17d5>
   18bd4:	8b 05 ce 85 00 00    	mov    0x85ce(%rip),%eax        # 211a8 <g_1852>
   18bda:	89 c1                	mov    %eax,%ecx
   18bdc:	8b 45 fc             	mov    -0x4(%rbp),%eax
   18bdf:	89 c2                	mov    %eax,%edx
   18be1:	48 8d 35 78 20 00 00 	lea    0x2078(%rip),%rsi        # 1ac60 <g_1290+0x1bf8>
   18be8:	48 89 cf             	mov    %rcx,%rdi
   18beb:	e8 03 1b ff ff       	callq  a6f3 <transparent_crc>
   18bf0:	8b 05 2a 54 00 00    	mov    0x542a(%rip),%eax        # 1e020 <crc32_context>
   18bf6:	f7 d0                	not    %eax
   18bf8:	89 c2                	mov    %eax,%edx
   18bfa:	8b 45 fc             	mov    -0x4(%rbp),%eax
   18bfd:	89 c6                	mov    %eax,%esi
   18bff:	89 d7                	mov    %edx,%edi
   18c01:	e8 8e 05 ff ff       	callq  9194 <platform_main_end>
   18c06:	b8 00 00 00 00       	mov    $0x0,%eax
   18c0b:	c9                   	leaveq 
   18c0c:	c3                   	retq   
   18c0d:	0f 1f 00             	nopl   (%rax)

0000000000018c10 <__libc_csu_init>:
   18c10:	f3 0f 1e fa          	endbr64 
   18c14:	41 57                	push   %r15
   18c16:	4c 8d 3d 8b 51 00 00 	lea    0x518b(%rip),%r15        # 1dda8 <__frame_dummy_init_array_entry>
   18c1d:	41 56                	push   %r14
   18c1f:	49 89 d6             	mov    %rdx,%r14
   18c22:	41 55                	push   %r13
   18c24:	49 89 f5             	mov    %rsi,%r13
   18c27:	41 54                	push   %r12
   18c29:	41 89 fc             	mov    %edi,%r12d
   18c2c:	55                   	push   %rbp
   18c2d:	48 8d 2d 7c 51 00 00 	lea    0x517c(%rip),%rbp        # 1ddb0 <__do_global_dtors_aux_fini_array_entry>
   18c34:	53                   	push   %rbx
   18c35:	4c 29 fd             	sub    %r15,%rbp
   18c38:	48 83 ec 08          	sub    $0x8,%rsp
   18c3c:	e8 bf 03 ff ff       	callq  9000 <_init>
   18c41:	48 c1 fd 03          	sar    $0x3,%rbp
   18c45:	74 1f                	je     18c66 <__libc_csu_init+0x56>
   18c47:	31 db                	xor    %ebx,%ebx
   18c49:	0f 1f 80 00 00 00 00 	nopl   0x0(%rax)
   18c50:	4c 89 f2             	mov    %r14,%rdx
   18c53:	4c 89 ee             	mov    %r13,%rsi
   18c56:	44 89 e7             	mov    %r12d,%edi
   18c59:	41 ff 14 df          	callq  *(%r15,%rbx,8)
   18c5d:	48 83 c3 01          	add    $0x1,%rbx
   18c61:	48 39 dd             	cmp    %rbx,%rbp
   18c64:	75 ea                	jne    18c50 <__libc_csu_init+0x40>
   18c66:	48 83 c4 08          	add    $0x8,%rsp
   18c6a:	5b                   	pop    %rbx
   18c6b:	5d                   	pop    %rbp
   18c6c:	41 5c                	pop    %r12
   18c6e:	41 5d                	pop    %r13
   18c70:	41 5e                	pop    %r14
   18c72:	41 5f                	pop    %r15
   18c74:	c3                   	retq   
   18c75:	66 66 2e 0f 1f 84 00 	data16 nopw %cs:0x0(%rax,%rax,1)
   18c7c:	00 00 00 00 

0000000000018c80 <__libc_csu_fini>:
   18c80:	f3 0f 1e fa          	endbr64 
   18c84:	c3                   	retq   
