


Disassembly of section .text:

00000000000080a0 <_start>:
    80a0:	f3 0f 1e fa          	endbr64 
    80a4:	31 ed                	xor    %ebp,%ebp
    80a6:	49 89 d1             	mov    %rdx,%r9
    80a9:	5e                   	pop    %rsi
    80aa:	48 89 e2             	mov    %rsp,%rdx
    80ad:	48 83 e4 f0          	and    $0xfffffffffffffff0,%rsp
    80b1:	50                   	push   %rax
    80b2:	54                   	push   %rsp
    80b3:	4c 8d 05 56 04 01 00 	lea    0x10456(%rip),%r8        # 18510 <__libc_csu_fini>
    80ba:	48 8d 0d df 03 01 00 	lea    0x103df(%rip),%rcx        # 184a0 <__libc_csu_init>
    80c1:	48 8d 3d de f3 00 00 	lea    0xf3de(%rip),%rdi        # 174a6 <main>
    80c8:	ff 15 0a 4f 01 00    	callq  *0x14f0a(%rip)        # 1cfd8 <__libc_start_main@GLIBC_2.2.5>
    80ce:	f4                   	hlt    
    80cf:	90                   	nop

00000000000080d0 <deregister_tm_clones>:
    80d0:	48 8d 3d 31 86 01 00 	lea    0x18631(%rip),%rdi        # 20708 <__TMC_END__>
    80d7:	48 8d 05 2a 86 01 00 	lea    0x1862a(%rip),%rax        # 20708 <__TMC_END__>
    80de:	48 39 f8             	cmp    %rdi,%rax
    80e1:	74 15                	je     80f8 <deregister_tm_clones+0x28>
    80e3:	48 8b 05 e6 4e 01 00 	mov    0x14ee6(%rip),%rax        # 1cfd0 <_ITM_deregisterTMCloneTable>
    80ea:	48 85 c0             	test   %rax,%rax
    80ed:	74 09                	je     80f8 <deregister_tm_clones+0x28>
    80ef:	ff e0                	jmpq   *%rax
    80f1:	0f 1f 80 00 00 00 00 	nopl   0x0(%rax)
    80f8:	c3                   	retq   
    80f9:	0f 1f 80 00 00 00 00 	nopl   0x0(%rax)

0000000000008100 <register_tm_clones>:
    8100:	48 8d 3d 01 86 01 00 	lea    0x18601(%rip),%rdi        # 20708 <__TMC_END__>
    8107:	48 8d 35 fa 85 01 00 	lea    0x185fa(%rip),%rsi        # 20708 <__TMC_END__>
    810e:	48 29 fe             	sub    %rdi,%rsi
    8111:	48 89 f0             	mov    %rsi,%rax
    8114:	48 c1 ee 3f          	shr    $0x3f,%rsi
    8118:	48 c1 f8 03          	sar    $0x3,%rax
    811c:	48 01 c6             	add    %rax,%rsi
    811f:	48 d1 fe             	sar    %rsi
    8122:	74 14                	je     8138 <register_tm_clones+0x38>
    8124:	48 8b 05 bd 4e 01 00 	mov    0x14ebd(%rip),%rax        # 1cfe8 <_ITM_registerTMCloneTable>
    812b:	48 85 c0             	test   %rax,%rax
    812e:	74 08                	je     8138 <register_tm_clones+0x38>
    8130:	ff e0                	jmpq   *%rax
    8132:	66 0f 1f 44 00 00    	nopw   0x0(%rax,%rax,1)
    8138:	c3                   	retq   
    8139:	0f 1f 80 00 00 00 00 	nopl   0x0(%rax)

0000000000008140 <__do_global_dtors_aux>:
    8140:	f3 0f 1e fa          	endbr64 
    8144:	80 3d d5 85 01 00 00 	cmpb   $0x0,0x185d5(%rip)        # 20720 <completed.8061>
    814b:	75 2b                	jne    8178 <__do_global_dtors_aux+0x38>
    814d:	55                   	push   %rbp
    814e:	48 83 3d 9a 4e 01 00 	cmpq   $0x0,0x14e9a(%rip)        # 1cff0 <__cxa_finalize@GLIBC_2.2.5>
    8155:	00 
    8156:	48 89 e5             	mov    %rsp,%rbp
    8159:	74 0c                	je     8167 <__do_global_dtors_aux+0x27>
    815b:	48 8b 3d a6 4e 01 00 	mov    0x14ea6(%rip),%rdi        # 1d008 <__dso_handle>
    8162:	e8 f9 fe ff ff       	callq  8060 <__cxa_finalize@plt>
    8167:	e8 64 ff ff ff       	callq  80d0 <deregister_tm_clones>
    816c:	c6 05 ad 85 01 00 01 	movb   $0x1,0x185ad(%rip)        # 20720 <completed.8061>
    8173:	5d                   	pop    %rbp
    8174:	c3                   	retq   
    8175:	0f 1f 00             	nopl   (%rax)
    8178:	c3                   	retq   
    8179:	0f 1f 80 00 00 00 00 	nopl   0x0(%rax)

0000000000008180 <frame_dummy>:
    8180:	f3 0f 1e fa          	endbr64 
    8184:	e9 77 ff ff ff       	jmpq   8100 <register_tm_clones>

0000000000008189 <platform_main_begin>:
    8189:	f3 0f 1e fa          	endbr64 
    818d:	55                   	push   %rbp
    818e:	48 89 e5             	mov    %rsp,%rbp
    8191:	90                   	nop
    8192:	5d                   	pop    %rbp
    8193:	c3                   	retq   

0000000000008194 <platform_main_end>:
    8194:	f3 0f 1e fa          	endbr64 
    8198:	55                   	push   %rbp
    8199:	48 89 e5             	mov    %rsp,%rbp
    819c:	48 83 ec 10          	sub    $0x10,%rsp
    81a0:	89 7d fc             	mov    %edi,-0x4(%rbp)
    81a3:	89 75 f8             	mov    %esi,-0x8(%rbp)
    81a6:	8b 45 fc             	mov    -0x4(%rbp),%eax
    81a9:	89 c6                	mov    %eax,%esi
    81ab:	48 8d 3d 6e 0e 01 00 	lea    0x10e6e(%rip),%rdi        # 19020 <_IO_stdin_used+0x20>
    81b2:	b8 00 00 00 00       	mov    $0x0,%eax
    81b7:	e8 c4 fe ff ff       	callq  8080 <printf@plt>
    81bc:	90                   	nop
    81bd:	c9                   	leaveq 
    81be:	c3                   	retq   

00000000000081bf <safe_unary_minus_func_int8_t_s>:
    81bf:	f3 0f 1e fa          	endbr64 
    81c3:	55                   	push   %rbp
    81c4:	48 89 e5             	mov    %rsp,%rbp
    81c7:	89 f8                	mov    %edi,%eax
    81c9:	88 45 fc             	mov    %al,-0x4(%rbp)
    81cc:	0f b6 45 fc          	movzbl -0x4(%rbp),%eax
    81d0:	f7 d8                	neg    %eax
    81d2:	5d                   	pop    %rbp
    81d3:	c3                   	retq   

00000000000081d4 <safe_add_func_int8_t_s_s>:
    81d4:	f3 0f 1e fa          	endbr64 
    81d8:	55                   	push   %rbp
    81d9:	48 89 e5             	mov    %rsp,%rbp
    81dc:	89 fa                	mov    %edi,%edx
    81de:	89 f0                	mov    %esi,%eax
    81e0:	88 55 fc             	mov    %dl,-0x4(%rbp)
    81e3:	88 45 f8             	mov    %al,-0x8(%rbp)
    81e6:	0f b6 55 fc          	movzbl -0x4(%rbp),%edx
    81ea:	0f b6 45 f8          	movzbl -0x8(%rbp),%eax
    81ee:	01 d0                	add    %edx,%eax
    81f0:	5d                   	pop    %rbp
    81f1:	c3                   	retq   

00000000000081f2 <safe_sub_func_int8_t_s_s>:
    81f2:	f3 0f 1e fa          	endbr64 
    81f6:	55                   	push   %rbp
    81f7:	48 89 e5             	mov    %rsp,%rbp
    81fa:	89 fa                	mov    %edi,%edx
    81fc:	89 f0                	mov    %esi,%eax
    81fe:	88 55 fc             	mov    %dl,-0x4(%rbp)
    8201:	88 45 f8             	mov    %al,-0x8(%rbp)
    8204:	0f b6 55 fc          	movzbl -0x4(%rbp),%edx
    8208:	0f b6 45 f8          	movzbl -0x8(%rbp),%eax
    820c:	29 c2                	sub    %eax,%edx
    820e:	89 d0                	mov    %edx,%eax
    8210:	5d                   	pop    %rbp
    8211:	c3                   	retq   

0000000000008212 <safe_mul_func_int8_t_s_s>:
    8212:	f3 0f 1e fa          	endbr64 
    8216:	55                   	push   %rbp
    8217:	48 89 e5             	mov    %rsp,%rbp
    821a:	89 fa                	mov    %edi,%edx
    821c:	89 f0                	mov    %esi,%eax
    821e:	88 55 fc             	mov    %dl,-0x4(%rbp)
    8221:	88 45 f8             	mov    %al,-0x8(%rbp)
    8224:	0f b6 45 fc          	movzbl -0x4(%rbp),%eax
    8228:	0f b6 55 f8          	movzbl -0x8(%rbp),%edx
    822c:	0f af c2             	imul   %edx,%eax
    822f:	5d                   	pop    %rbp
    8230:	c3                   	retq   

0000000000008231 <safe_mod_func_int8_t_s_s>:
    8231:	f3 0f 1e fa          	endbr64 
    8235:	55                   	push   %rbp
    8236:	48 89 e5             	mov    %rsp,%rbp
    8239:	89 fa                	mov    %edi,%edx
    823b:	89 f0                	mov    %esi,%eax
    823d:	88 55 fc             	mov    %dl,-0x4(%rbp)
    8240:	88 45 f8             	mov    %al,-0x8(%rbp)
    8243:	80 7d f8 00          	cmpb   $0x0,-0x8(%rbp)
    8247:	74 1b                	je     8264 <safe_mod_func_int8_t_s_s+0x33>
    8249:	80 7d fc 80          	cmpb   $0x80,-0x4(%rbp)
    824d:	75 06                	jne    8255 <safe_mod_func_int8_t_s_s+0x24>
    824f:	80 7d f8 ff          	cmpb   $0xff,-0x8(%rbp)
    8253:	74 0f                	je     8264 <safe_mod_func_int8_t_s_s+0x33>
    8255:	0f be 45 fc          	movsbl -0x4(%rbp),%eax
    8259:	0f be 4d f8          	movsbl -0x8(%rbp),%ecx
    825d:	99                   	cltd   
    825e:	f7 f9                	idiv   %ecx
    8260:	89 d0                	mov    %edx,%eax
    8262:	eb 04                	jmp    8268 <safe_mod_func_int8_t_s_s+0x37>
    8264:	0f b6 45 fc          	movzbl -0x4(%rbp),%eax
    8268:	5d                   	pop    %rbp
    8269:	c3                   	retq   

000000000000826a <safe_div_func_int8_t_s_s>:
    826a:	f3 0f 1e fa          	endbr64 
    826e:	55                   	push   %rbp
    826f:	48 89 e5             	mov    %rsp,%rbp
    8272:	89 fa                	mov    %edi,%edx
    8274:	89 f0                	mov    %esi,%eax
    8276:	88 55 fc             	mov    %dl,-0x4(%rbp)
    8279:	88 45 f8             	mov    %al,-0x8(%rbp)
    827c:	80 7d f8 00          	cmpb   $0x0,-0x8(%rbp)
    8280:	74 19                	je     829b <safe_div_func_int8_t_s_s+0x31>
    8282:	80 7d fc 80          	cmpb   $0x80,-0x4(%rbp)
    8286:	75 06                	jne    828e <safe_div_func_int8_t_s_s+0x24>
    8288:	80 7d f8 ff          	cmpb   $0xff,-0x8(%rbp)
    828c:	74 0d                	je     829b <safe_div_func_int8_t_s_s+0x31>
    828e:	0f be 45 fc          	movsbl -0x4(%rbp),%eax
    8292:	0f be 4d f8          	movsbl -0x8(%rbp),%ecx
    8296:	99                   	cltd   
    8297:	f7 f9                	idiv   %ecx
    8299:	eb 04                	jmp    829f <safe_div_func_int8_t_s_s+0x35>
    829b:	0f b6 45 fc          	movzbl -0x4(%rbp),%eax
    829f:	5d                   	pop    %rbp
    82a0:	c3                   	retq   

00000000000082a1 <safe_lshift_func_int8_t_s_s>:
    82a1:	f3 0f 1e fa          	endbr64 
    82a5:	55                   	push   %rbp
    82a6:	48 89 e5             	mov    %rsp,%rbp
    82a9:	89 f8                	mov    %edi,%eax
    82ab:	89 75 f8             	mov    %esi,-0x8(%rbp)
    82ae:	88 45 fc             	mov    %al,-0x4(%rbp)
    82b1:	80 7d fc 00          	cmpb   $0x0,-0x4(%rbp)
    82b5:	78 31                	js     82e8 <safe_lshift_func_int8_t_s_s+0x47>
    82b7:	83 7d f8 00          	cmpl   $0x0,-0x8(%rbp)
    82bb:	78 2b                	js     82e8 <safe_lshift_func_int8_t_s_s+0x47>
    82bd:	83 7d f8 1f          	cmpl   $0x1f,-0x8(%rbp)
    82c1:	7f 25                	jg     82e8 <safe_lshift_func_int8_t_s_s+0x47>
    82c3:	0f be 55 fc          	movsbl -0x4(%rbp),%edx
    82c7:	8b 45 f8             	mov    -0x8(%rbp),%eax
    82ca:	be 7f 00 00 00       	mov    $0x7f,%esi
    82cf:	89 c1                	mov    %eax,%ecx
    82d1:	d3 fe                	sar    %cl,%esi
    82d3:	89 f0                	mov    %esi,%eax
    82d5:	39 c2                	cmp    %eax,%edx
    82d7:	7f 0f                	jg     82e8 <safe_lshift_func_int8_t_s_s+0x47>
    82d9:	0f be 55 fc          	movsbl -0x4(%rbp),%edx
    82dd:	8b 45 f8             	mov    -0x8(%rbp),%eax
    82e0:	89 c1                	mov    %eax,%ecx
    82e2:	d3 e2                	shl    %cl,%edx
    82e4:	89 d0                	mov    %edx,%eax
    82e6:	eb 04                	jmp    82ec <safe_lshift_func_int8_t_s_s+0x4b>
    82e8:	0f b6 45 fc          	movzbl -0x4(%rbp),%eax
    82ec:	5d                   	pop    %rbp
    82ed:	c3                   	retq   

00000000000082ee <safe_lshift_func_int8_t_s_u>:
    82ee:	f3 0f 1e fa          	endbr64 
    82f2:	55                   	push   %rbp
    82f3:	48 89 e5             	mov    %rsp,%rbp
    82f6:	89 f8                	mov    %edi,%eax
    82f8:	89 75 f8             	mov    %esi,-0x8(%rbp)
    82fb:	88 45 fc             	mov    %al,-0x4(%rbp)
    82fe:	80 7d fc 00          	cmpb   $0x0,-0x4(%rbp)
    8302:	78 2b                	js     832f <safe_lshift_func_int8_t_s_u+0x41>
    8304:	83 7d f8 1f          	cmpl   $0x1f,-0x8(%rbp)
    8308:	77 25                	ja     832f <safe_lshift_func_int8_t_s_u+0x41>
    830a:	0f be 55 fc          	movsbl -0x4(%rbp),%edx
    830e:	8b 45 f8             	mov    -0x8(%rbp),%eax
    8311:	be 7f 00 00 00       	mov    $0x7f,%esi
    8316:	89 c1                	mov    %eax,%ecx
    8318:	d3 fe                	sar    %cl,%esi
    831a:	89 f0                	mov    %esi,%eax
    831c:	39 c2                	cmp    %eax,%edx
    831e:	7f 0f                	jg     832f <safe_lshift_func_int8_t_s_u+0x41>
    8320:	0f be 55 fc          	movsbl -0x4(%rbp),%edx
    8324:	8b 45 f8             	mov    -0x8(%rbp),%eax
    8327:	89 c1                	mov    %eax,%ecx
    8329:	d3 e2                	shl    %cl,%edx
    832b:	89 d0                	mov    %edx,%eax
    832d:	eb 04                	jmp    8333 <safe_lshift_func_int8_t_s_u+0x45>
    832f:	0f b6 45 fc          	movzbl -0x4(%rbp),%eax
    8333:	5d                   	pop    %rbp
    8334:	c3                   	retq   

0000000000008335 <safe_rshift_func_int8_t_s_s>:
    8335:	f3 0f 1e fa          	endbr64 
    8339:	55                   	push   %rbp
    833a:	48 89 e5             	mov    %rsp,%rbp
    833d:	89 f8                	mov    %edi,%eax
    833f:	89 75 f8             	mov    %esi,-0x8(%rbp)
    8342:	88 45 fc             	mov    %al,-0x4(%rbp)
    8345:	80 7d fc 00          	cmpb   $0x0,-0x4(%rbp)
    8349:	78 1b                	js     8366 <safe_rshift_func_int8_t_s_s+0x31>
    834b:	83 7d f8 00          	cmpl   $0x0,-0x8(%rbp)
    834f:	78 15                	js     8366 <safe_rshift_func_int8_t_s_s+0x31>
    8351:	83 7d f8 1f          	cmpl   $0x1f,-0x8(%rbp)
    8355:	7f 0f                	jg     8366 <safe_rshift_func_int8_t_s_s+0x31>
    8357:	0f be 55 fc          	movsbl -0x4(%rbp),%edx
    835b:	8b 45 f8             	mov    -0x8(%rbp),%eax
    835e:	89 c1                	mov    %eax,%ecx
    8360:	d3 fa                	sar    %cl,%edx
    8362:	89 d0                	mov    %edx,%eax
    8364:	eb 04                	jmp    836a <safe_rshift_func_int8_t_s_s+0x35>
    8366:	0f b6 45 fc          	movzbl -0x4(%rbp),%eax
    836a:	5d                   	pop    %rbp
    836b:	c3                   	retq   

000000000000836c <safe_rshift_func_int8_t_s_u>:
    836c:	f3 0f 1e fa          	endbr64 
    8370:	55                   	push   %rbp
    8371:	48 89 e5             	mov    %rsp,%rbp
    8374:	89 f8                	mov    %edi,%eax
    8376:	89 75 f8             	mov    %esi,-0x8(%rbp)
    8379:	88 45 fc             	mov    %al,-0x4(%rbp)
    837c:	80 7d fc 00          	cmpb   $0x0,-0x4(%rbp)
    8380:	78 15                	js     8397 <safe_rshift_func_int8_t_s_u+0x2b>
    8382:	83 7d f8 1f          	cmpl   $0x1f,-0x8(%rbp)
    8386:	77 0f                	ja     8397 <safe_rshift_func_int8_t_s_u+0x2b>
    8388:	0f be 55 fc          	movsbl -0x4(%rbp),%edx
    838c:	8b 45 f8             	mov    -0x8(%rbp),%eax
    838f:	89 c1                	mov    %eax,%ecx
    8391:	d3 fa                	sar    %cl,%edx
    8393:	89 d0                	mov    %edx,%eax
    8395:	eb 04                	jmp    839b <safe_rshift_func_int8_t_s_u+0x2f>
    8397:	0f b6 45 fc          	movzbl -0x4(%rbp),%eax
    839b:	5d                   	pop    %rbp
    839c:	c3                   	retq   

000000000000839d <safe_unary_minus_func_int16_t_s>:
    839d:	f3 0f 1e fa          	endbr64 
    83a1:	55                   	push   %rbp
    83a2:	48 89 e5             	mov    %rsp,%rbp
    83a5:	89 f8                	mov    %edi,%eax
    83a7:	66 89 45 fc          	mov    %ax,-0x4(%rbp)
    83ab:	0f b7 45 fc          	movzwl -0x4(%rbp),%eax
    83af:	f7 d8                	neg    %eax
    83b1:	5d                   	pop    %rbp
    83b2:	c3                   	retq   

00000000000083b3 <safe_add_func_int16_t_s_s>:
    83b3:	f3 0f 1e fa          	endbr64 
    83b7:	55                   	push   %rbp
    83b8:	48 89 e5             	mov    %rsp,%rbp
    83bb:	89 fa                	mov    %edi,%edx
    83bd:	89 f0                	mov    %esi,%eax
    83bf:	66 89 55 fc          	mov    %dx,-0x4(%rbp)
    83c3:	66 89 45 f8          	mov    %ax,-0x8(%rbp)
    83c7:	0f b7 55 fc          	movzwl -0x4(%rbp),%edx
    83cb:	0f b7 45 f8          	movzwl -0x8(%rbp),%eax
    83cf:	01 d0                	add    %edx,%eax
    83d1:	5d                   	pop    %rbp
    83d2:	c3                   	retq   

00000000000083d3 <safe_sub_func_int16_t_s_s>:
    83d3:	f3 0f 1e fa          	endbr64 
    83d7:	55                   	push   %rbp
    83d8:	48 89 e5             	mov    %rsp,%rbp
    83db:	89 fa                	mov    %edi,%edx
    83dd:	89 f0                	mov    %esi,%eax
    83df:	66 89 55 fc          	mov    %dx,-0x4(%rbp)
    83e3:	66 89 45 f8          	mov    %ax,-0x8(%rbp)
    83e7:	0f b7 55 fc          	movzwl -0x4(%rbp),%edx
    83eb:	0f b7 45 f8          	movzwl -0x8(%rbp),%eax
    83ef:	29 c2                	sub    %eax,%edx
    83f1:	89 d0                	mov    %edx,%eax
    83f3:	5d                   	pop    %rbp
    83f4:	c3                   	retq   

00000000000083f5 <safe_mul_func_int16_t_s_s>:
    83f5:	f3 0f 1e fa          	endbr64 
    83f9:	55                   	push   %rbp
    83fa:	48 89 e5             	mov    %rsp,%rbp
    83fd:	89 fa                	mov    %edi,%edx
    83ff:	89 f0                	mov    %esi,%eax
    8401:	66 89 55 fc          	mov    %dx,-0x4(%rbp)
    8405:	66 89 45 f8          	mov    %ax,-0x8(%rbp)
    8409:	0f b7 55 fc          	movzwl -0x4(%rbp),%edx
    840d:	0f b7 45 f8          	movzwl -0x8(%rbp),%eax
    8411:	0f af c2             	imul   %edx,%eax
    8414:	5d                   	pop    %rbp
    8415:	c3                   	retq   

0000000000008416 <safe_mod_func_int16_t_s_s>:
    8416:	f3 0f 1e fa          	endbr64 
    841a:	55                   	push   %rbp
    841b:	48 89 e5             	mov    %rsp,%rbp
    841e:	89 fa                	mov    %edi,%edx
    8420:	89 f0                	mov    %esi,%eax
    8422:	66 89 55 fc          	mov    %dx,-0x4(%rbp)
    8426:	66 89 45 f8          	mov    %ax,-0x8(%rbp)
    842a:	66 83 7d f8 00       	cmpw   $0x0,-0x8(%rbp)
    842f:	74 1e                	je     844f <safe_mod_func_int16_t_s_s+0x39>
    8431:	66 81 7d fc 00 80    	cmpw   $0x8000,-0x4(%rbp)
    8437:	75 07                	jne    8440 <safe_mod_func_int16_t_s_s+0x2a>
    8439:	66 83 7d f8 ff       	cmpw   $0xffff,-0x8(%rbp)
    843e:	74 0f                	je     844f <safe_mod_func_int16_t_s_s+0x39>
    8440:	0f bf 45 fc          	movswl -0x4(%rbp),%eax
    8444:	0f bf 4d f8          	movswl -0x8(%rbp),%ecx
    8448:	99                   	cltd   
    8449:	f7 f9                	idiv   %ecx
    844b:	89 d0                	mov    %edx,%eax
    844d:	eb 04                	jmp    8453 <safe_mod_func_int16_t_s_s+0x3d>
    844f:	0f b7 45 fc          	movzwl -0x4(%rbp),%eax
    8453:	5d                   	pop    %rbp
    8454:	c3                   	retq   

0000000000008455 <safe_div_func_int16_t_s_s>:
    8455:	f3 0f 1e fa          	endbr64 
    8459:	55                   	push   %rbp
    845a:	48 89 e5             	mov    %rsp,%rbp
    845d:	89 fa                	mov    %edi,%edx
    845f:	89 f0                	mov    %esi,%eax
    8461:	66 89 55 fc          	mov    %dx,-0x4(%rbp)
    8465:	66 89 45 f8          	mov    %ax,-0x8(%rbp)
    8469:	66 83 7d f8 00       	cmpw   $0x0,-0x8(%rbp)
    846e:	74 1c                	je     848c <safe_div_func_int16_t_s_s+0x37>
    8470:	66 81 7d fc 00 80    	cmpw   $0x8000,-0x4(%rbp)
    8476:	75 07                	jne    847f <safe_div_func_int16_t_s_s+0x2a>
    8478:	66 83 7d f8 ff       	cmpw   $0xffff,-0x8(%rbp)
    847d:	74 0d                	je     848c <safe_div_func_int16_t_s_s+0x37>
    847f:	0f bf 45 fc          	movswl -0x4(%rbp),%eax
    8483:	0f bf 4d f8          	movswl -0x8(%rbp),%ecx
    8487:	99                   	cltd   
    8488:	f7 f9                	idiv   %ecx
    848a:	eb 04                	jmp    8490 <safe_div_func_int16_t_s_s+0x3b>
    848c:	0f b7 45 fc          	movzwl -0x4(%rbp),%eax
    8490:	5d                   	pop    %rbp
    8491:	c3                   	retq   

0000000000008492 <safe_lshift_func_int16_t_s_s>:
    8492:	f3 0f 1e fa          	endbr64 
    8496:	55                   	push   %rbp
    8497:	48 89 e5             	mov    %rsp,%rbp
    849a:	89 f8                	mov    %edi,%eax
    849c:	89 75 f8             	mov    %esi,-0x8(%rbp)
    849f:	66 89 45 fc          	mov    %ax,-0x4(%rbp)
    84a3:	66 83 7d fc 00       	cmpw   $0x0,-0x4(%rbp)
    84a8:	78 31                	js     84db <safe_lshift_func_int16_t_s_s+0x49>
    84aa:	83 7d f8 00          	cmpl   $0x0,-0x8(%rbp)
    84ae:	78 2b                	js     84db <safe_lshift_func_int16_t_s_s+0x49>
    84b0:	83 7d f8 1f          	cmpl   $0x1f,-0x8(%rbp)
    84b4:	7f 25                	jg     84db <safe_lshift_func_int16_t_s_s+0x49>
    84b6:	0f bf 55 fc          	movswl -0x4(%rbp),%edx
    84ba:	8b 45 f8             	mov    -0x8(%rbp),%eax
    84bd:	be ff 7f 00 00       	mov    $0x7fff,%esi
    84c2:	89 c1                	mov    %eax,%ecx
    84c4:	d3 fe                	sar    %cl,%esi
    84c6:	89 f0                	mov    %esi,%eax
    84c8:	39 c2                	cmp    %eax,%edx
    84ca:	7f 0f                	jg     84db <safe_lshift_func_int16_t_s_s+0x49>
    84cc:	0f bf 55 fc          	movswl -0x4(%rbp),%edx
    84d0:	8b 45 f8             	mov    -0x8(%rbp),%eax
    84d3:	89 c1                	mov    %eax,%ecx
    84d5:	d3 e2                	shl    %cl,%edx
    84d7:	89 d0                	mov    %edx,%eax
    84d9:	eb 04                	jmp    84df <safe_lshift_func_int16_t_s_s+0x4d>
    84db:	0f b7 45 fc          	movzwl -0x4(%rbp),%eax
    84df:	5d                   	pop    %rbp
    84e0:	c3                   	retq   

00000000000084e1 <safe_lshift_func_int16_t_s_u>:
    84e1:	f3 0f 1e fa          	endbr64 
    84e5:	55                   	push   %rbp
    84e6:	48 89 e5             	mov    %rsp,%rbp
    84e9:	89 f8                	mov    %edi,%eax
    84eb:	89 75 f8             	mov    %esi,-0x8(%rbp)
    84ee:	66 89 45 fc          	mov    %ax,-0x4(%rbp)
    84f2:	66 83 7d fc 00       	cmpw   $0x0,-0x4(%rbp)
    84f7:	78 2b                	js     8524 <safe_lshift_func_int16_t_s_u+0x43>
    84f9:	83 7d f8 1f          	cmpl   $0x1f,-0x8(%rbp)
    84fd:	77 25                	ja     8524 <safe_lshift_func_int16_t_s_u+0x43>
    84ff:	0f bf 55 fc          	movswl -0x4(%rbp),%edx
    8503:	8b 45 f8             	mov    -0x8(%rbp),%eax
    8506:	be ff 7f 00 00       	mov    $0x7fff,%esi
    850b:	89 c1                	mov    %eax,%ecx
    850d:	d3 fe                	sar    %cl,%esi
    850f:	89 f0                	mov    %esi,%eax
    8511:	39 c2                	cmp    %eax,%edx
    8513:	7f 0f                	jg     8524 <safe_lshift_func_int16_t_s_u+0x43>
    8515:	0f bf 55 fc          	movswl -0x4(%rbp),%edx
    8519:	8b 45 f8             	mov    -0x8(%rbp),%eax
    851c:	89 c1                	mov    %eax,%ecx
    851e:	d3 e2                	shl    %cl,%edx
    8520:	89 d0                	mov    %edx,%eax
    8522:	eb 04                	jmp    8528 <safe_lshift_func_int16_t_s_u+0x47>
    8524:	0f b7 45 fc          	movzwl -0x4(%rbp),%eax
    8528:	5d                   	pop    %rbp
    8529:	c3                   	retq   

000000000000852a <safe_rshift_func_int16_t_s_s>:
    852a:	f3 0f 1e fa          	endbr64 
    852e:	55                   	push   %rbp
    852f:	48 89 e5             	mov    %rsp,%rbp
    8532:	89 f8                	mov    %edi,%eax
    8534:	89 75 f8             	mov    %esi,-0x8(%rbp)
    8537:	66 89 45 fc          	mov    %ax,-0x4(%rbp)
    853b:	66 83 7d fc 00       	cmpw   $0x0,-0x4(%rbp)
    8540:	78 1b                	js     855d <safe_rshift_func_int16_t_s_s+0x33>
    8542:	83 7d f8 00          	cmpl   $0x0,-0x8(%rbp)
    8546:	78 15                	js     855d <safe_rshift_func_int16_t_s_s+0x33>
    8548:	83 7d f8 1f          	cmpl   $0x1f,-0x8(%rbp)
    854c:	7f 0f                	jg     855d <safe_rshift_func_int16_t_s_s+0x33>
    854e:	0f bf 55 fc          	movswl -0x4(%rbp),%edx
    8552:	8b 45 f8             	mov    -0x8(%rbp),%eax
    8555:	89 c1                	mov    %eax,%ecx
    8557:	d3 fa                	sar    %cl,%edx
    8559:	89 d0                	mov    %edx,%eax
    855b:	eb 04                	jmp    8561 <safe_rshift_func_int16_t_s_s+0x37>
    855d:	0f b7 45 fc          	movzwl -0x4(%rbp),%eax
    8561:	5d                   	pop    %rbp
    8562:	c3                   	retq   

0000000000008563 <safe_rshift_func_int16_t_s_u>:
    8563:	f3 0f 1e fa          	endbr64 
    8567:	55                   	push   %rbp
    8568:	48 89 e5             	mov    %rsp,%rbp
    856b:	89 f8                	mov    %edi,%eax
    856d:	89 75 f8             	mov    %esi,-0x8(%rbp)
    8570:	66 89 45 fc          	mov    %ax,-0x4(%rbp)
    8574:	66 83 7d fc 00       	cmpw   $0x0,-0x4(%rbp)
    8579:	78 15                	js     8590 <safe_rshift_func_int16_t_s_u+0x2d>
    857b:	83 7d f8 1f          	cmpl   $0x1f,-0x8(%rbp)
    857f:	77 0f                	ja     8590 <safe_rshift_func_int16_t_s_u+0x2d>
    8581:	0f bf 55 fc          	movswl -0x4(%rbp),%edx
    8585:	8b 45 f8             	mov    -0x8(%rbp),%eax
    8588:	89 c1                	mov    %eax,%ecx
    858a:	d3 fa                	sar    %cl,%edx
    858c:	89 d0                	mov    %edx,%eax
    858e:	eb 04                	jmp    8594 <safe_rshift_func_int16_t_s_u+0x31>
    8590:	0f b7 45 fc          	movzwl -0x4(%rbp),%eax
    8594:	5d                   	pop    %rbp
    8595:	c3                   	retq   

0000000000008596 <safe_unary_minus_func_int32_t_s>:
    8596:	f3 0f 1e fa          	endbr64 
    859a:	55                   	push   %rbp
    859b:	48 89 e5             	mov    %rsp,%rbp
    859e:	89 7d fc             	mov    %edi,-0x4(%rbp)
    85a1:	81 7d fc 00 00 00 80 	cmpl   $0x80000000,-0x4(%rbp)
    85a8:	74 07                	je     85b1 <safe_unary_minus_func_int32_t_s+0x1b>
    85aa:	8b 45 fc             	mov    -0x4(%rbp),%eax
    85ad:	f7 d8                	neg    %eax
    85af:	eb 03                	jmp    85b4 <safe_unary_minus_func_int32_t_s+0x1e>
    85b1:	8b 45 fc             	mov    -0x4(%rbp),%eax
    85b4:	5d                   	pop    %rbp
    85b5:	c3                   	retq   

00000000000085b6 <safe_add_func_int32_t_s_s>:
    85b6:	f3 0f 1e fa          	endbr64 
    85ba:	55                   	push   %rbp
    85bb:	48 89 e5             	mov    %rsp,%rbp
    85be:	89 7d fc             	mov    %edi,-0x4(%rbp)
    85c1:	89 75 f8             	mov    %esi,-0x8(%rbp)
    85c4:	83 7d fc 00          	cmpl   $0x0,-0x4(%rbp)
    85c8:	7e 13                	jle    85dd <safe_add_func_int32_t_s_s+0x27>
    85ca:	83 7d f8 00          	cmpl   $0x0,-0x8(%rbp)
    85ce:	7e 0d                	jle    85dd <safe_add_func_int32_t_s_s+0x27>
    85d0:	b8 ff ff ff 7f       	mov    $0x7fffffff,%eax
    85d5:	2b 45 f8             	sub    -0x8(%rbp),%eax
    85d8:	39 45 fc             	cmp    %eax,-0x4(%rbp)
    85db:	7f 23                	jg     8600 <safe_add_func_int32_t_s_s+0x4a>
    85dd:	83 7d fc 00          	cmpl   $0x0,-0x4(%rbp)
    85e1:	79 13                	jns    85f6 <safe_add_func_int32_t_s_s+0x40>
    85e3:	83 7d f8 00          	cmpl   $0x0,-0x8(%rbp)
    85e7:	79 0d                	jns    85f6 <safe_add_func_int32_t_s_s+0x40>
    85e9:	b8 00 00 00 80       	mov    $0x80000000,%eax
    85ee:	2b 45 f8             	sub    -0x8(%rbp),%eax
    85f1:	39 45 fc             	cmp    %eax,-0x4(%rbp)
    85f4:	7c 0a                	jl     8600 <safe_add_func_int32_t_s_s+0x4a>
    85f6:	8b 55 fc             	mov    -0x4(%rbp),%edx
    85f9:	8b 45 f8             	mov    -0x8(%rbp),%eax
    85fc:	01 d0                	add    %edx,%eax
    85fe:	eb 03                	jmp    8603 <safe_add_func_int32_t_s_s+0x4d>
    8600:	8b 45 fc             	mov    -0x4(%rbp),%eax
    8603:	5d                   	pop    %rbp
    8604:	c3                   	retq   

0000000000008605 <safe_sub_func_int32_t_s_s>:
    8605:	f3 0f 1e fa          	endbr64 
    8609:	55                   	push   %rbp
    860a:	48 89 e5             	mov    %rsp,%rbp
    860d:	89 7d fc             	mov    %edi,-0x4(%rbp)
    8610:	89 75 f8             	mov    %esi,-0x8(%rbp)
    8613:	8b 45 fc             	mov    -0x4(%rbp),%eax
    8616:	33 45 f8             	xor    -0x8(%rbp),%eax
    8619:	89 c2                	mov    %eax,%edx
    861b:	8b 45 fc             	mov    -0x4(%rbp),%eax
    861e:	33 45 f8             	xor    -0x8(%rbp),%eax
    8621:	25 00 00 00 80       	and    $0x80000000,%eax
    8626:	33 45 fc             	xor    -0x4(%rbp),%eax
    8629:	2b 45 f8             	sub    -0x8(%rbp),%eax
    862c:	33 45 f8             	xor    -0x8(%rbp),%eax
    862f:	21 d0                	and    %edx,%eax
    8631:	85 c0                	test   %eax,%eax
    8633:	78 08                	js     863d <safe_sub_func_int32_t_s_s+0x38>
    8635:	8b 45 fc             	mov    -0x4(%rbp),%eax
    8638:	2b 45 f8             	sub    -0x8(%rbp),%eax
    863b:	eb 03                	jmp    8640 <safe_sub_func_int32_t_s_s+0x3b>
    863d:	8b 45 fc             	mov    -0x4(%rbp),%eax
    8640:	5d                   	pop    %rbp
    8641:	c3                   	retq   

0000000000008642 <safe_mul_func_int32_t_s_s>:
    8642:	f3 0f 1e fa          	endbr64 
    8646:	55                   	push   %rbp
    8647:	48 89 e5             	mov    %rsp,%rbp
    864a:	89 7d fc             	mov    %edi,-0x4(%rbp)
    864d:	89 75 f8             	mov    %esi,-0x8(%rbp)
    8650:	83 7d fc 00          	cmpl   $0x0,-0x4(%rbp)
    8654:	7e 14                	jle    866a <safe_mul_func_int32_t_s_s+0x28>
    8656:	83 7d f8 00          	cmpl   $0x0,-0x8(%rbp)
    865a:	7e 0e                	jle    866a <safe_mul_func_int32_t_s_s+0x28>
    865c:	b8 ff ff ff 7f       	mov    $0x7fffffff,%eax
    8661:	99                   	cltd   
    8662:	f7 7d f8             	idivl  -0x8(%rbp)
    8665:	39 45 fc             	cmp    %eax,-0x4(%rbp)
    8668:	7f 5d                	jg     86c7 <safe_mul_func_int32_t_s_s+0x85>
    866a:	83 7d fc 00          	cmpl   $0x0,-0x4(%rbp)
    866e:	7e 14                	jle    8684 <safe_mul_func_int32_t_s_s+0x42>
    8670:	83 7d f8 00          	cmpl   $0x0,-0x8(%rbp)
    8674:	7f 0e                	jg     8684 <safe_mul_func_int32_t_s_s+0x42>
    8676:	b8 00 00 00 80       	mov    $0x80000000,%eax
    867b:	99                   	cltd   
    867c:	f7 7d fc             	idivl  -0x4(%rbp)
    867f:	39 45 f8             	cmp    %eax,-0x8(%rbp)
    8682:	7c 43                	jl     86c7 <safe_mul_func_int32_t_s_s+0x85>
    8684:	83 7d fc 00          	cmpl   $0x0,-0x4(%rbp)
    8688:	7f 14                	jg     869e <safe_mul_func_int32_t_s_s+0x5c>
    868a:	83 7d f8 00          	cmpl   $0x0,-0x8(%rbp)
    868e:	7e 0e                	jle    869e <safe_mul_func_int32_t_s_s+0x5c>
    8690:	b8 00 00 00 80       	mov    $0x80000000,%eax
    8695:	99                   	cltd   
    8696:	f7 7d f8             	idivl  -0x8(%rbp)
    8699:	39 45 fc             	cmp    %eax,-0x4(%rbp)
    869c:	7c 29                	jl     86c7 <safe_mul_func_int32_t_s_s+0x85>
    869e:	83 7d fc 00          	cmpl   $0x0,-0x4(%rbp)
    86a2:	7f 1a                	jg     86be <safe_mul_func_int32_t_s_s+0x7c>
    86a4:	83 7d f8 00          	cmpl   $0x0,-0x8(%rbp)
    86a8:	7f 14                	jg     86be <safe_mul_func_int32_t_s_s+0x7c>
    86aa:	83 7d fc 00          	cmpl   $0x0,-0x4(%rbp)
    86ae:	74 0e                	je     86be <safe_mul_func_int32_t_s_s+0x7c>
    86b0:	b8 ff ff ff 7f       	mov    $0x7fffffff,%eax
    86b5:	99                   	cltd   
    86b6:	f7 7d fc             	idivl  -0x4(%rbp)
    86b9:	39 45 f8             	cmp    %eax,-0x8(%rbp)
    86bc:	7c 09                	jl     86c7 <safe_mul_func_int32_t_s_s+0x85>
    86be:	8b 45 fc             	mov    -0x4(%rbp),%eax
    86c1:	0f af 45 f8          	imul   -0x8(%rbp),%eax
    86c5:	eb 03                	jmp    86ca <safe_mul_func_int32_t_s_s+0x88>
    86c7:	8b 45 fc             	mov    -0x4(%rbp),%eax
    86ca:	5d                   	pop    %rbp
    86cb:	c3                   	retq   

00000000000086cc <safe_mod_func_int32_t_s_s>:
    86cc:	f3 0f 1e fa          	endbr64 
    86d0:	55                   	push   %rbp
    86d1:	48 89 e5             	mov    %rsp,%rbp
    86d4:	89 7d fc             	mov    %edi,-0x4(%rbp)
    86d7:	89 75 f8             	mov    %esi,-0x8(%rbp)
    86da:	83 7d f8 00          	cmpl   $0x0,-0x8(%rbp)
    86de:	74 1a                	je     86fa <safe_mod_func_int32_t_s_s+0x2e>
    86e0:	81 7d fc 00 00 00 80 	cmpl   $0x80000000,-0x4(%rbp)
    86e7:	75 06                	jne    86ef <safe_mod_func_int32_t_s_s+0x23>
    86e9:	83 7d f8 ff          	cmpl   $0xffffffff,-0x8(%rbp)
    86ed:	74 0b                	je     86fa <safe_mod_func_int32_t_s_s+0x2e>
    86ef:	8b 45 fc             	mov    -0x4(%rbp),%eax
    86f2:	99                   	cltd   
    86f3:	f7 7d f8             	idivl  -0x8(%rbp)
    86f6:	89 d0                	mov    %edx,%eax
    86f8:	eb 03                	jmp    86fd <safe_mod_func_int32_t_s_s+0x31>
    86fa:	8b 45 fc             	mov    -0x4(%rbp),%eax
    86fd:	5d                   	pop    %rbp
    86fe:	c3                   	retq   

00000000000086ff <safe_div_func_int32_t_s_s>:
    86ff:	f3 0f 1e fa          	endbr64 
    8703:	55                   	push   %rbp
    8704:	48 89 e5             	mov    %rsp,%rbp
    8707:	89 7d fc             	mov    %edi,-0x4(%rbp)
    870a:	89 75 f8             	mov    %esi,-0x8(%rbp)
    870d:	83 7d f8 00          	cmpl   $0x0,-0x8(%rbp)
    8711:	74 18                	je     872b <safe_div_func_int32_t_s_s+0x2c>
    8713:	81 7d fc 00 00 00 80 	cmpl   $0x80000000,-0x4(%rbp)
    871a:	75 06                	jne    8722 <safe_div_func_int32_t_s_s+0x23>
    871c:	83 7d f8 ff          	cmpl   $0xffffffff,-0x8(%rbp)
    8720:	74 09                	je     872b <safe_div_func_int32_t_s_s+0x2c>
    8722:	8b 45 fc             	mov    -0x4(%rbp),%eax
    8725:	99                   	cltd   
    8726:	f7 7d f8             	idivl  -0x8(%rbp)
    8729:	eb 03                	jmp    872e <safe_div_func_int32_t_s_s+0x2f>
    872b:	8b 45 fc             	mov    -0x4(%rbp),%eax
    872e:	5d                   	pop    %rbp
    872f:	c3                   	retq   

0000000000008730 <safe_lshift_func_int32_t_s_s>:
    8730:	f3 0f 1e fa          	endbr64 
    8734:	55                   	push   %rbp
    8735:	48 89 e5             	mov    %rsp,%rbp
    8738:	89 7d fc             	mov    %edi,-0x4(%rbp)
    873b:	89 75 f8             	mov    %esi,-0x8(%rbp)
    873e:	83 7d fc 00          	cmpl   $0x0,-0x4(%rbp)
    8742:	78 2d                	js     8771 <safe_lshift_func_int32_t_s_s+0x41>
    8744:	83 7d f8 00          	cmpl   $0x0,-0x8(%rbp)
    8748:	78 27                	js     8771 <safe_lshift_func_int32_t_s_s+0x41>
    874a:	83 7d f8 1f          	cmpl   $0x1f,-0x8(%rbp)
    874e:	7f 21                	jg     8771 <safe_lshift_func_int32_t_s_s+0x41>
    8750:	8b 45 f8             	mov    -0x8(%rbp),%eax
    8753:	ba ff ff ff 7f       	mov    $0x7fffffff,%edx
    8758:	89 c1                	mov    %eax,%ecx
    875a:	d3 fa                	sar    %cl,%edx
    875c:	89 d0                	mov    %edx,%eax
    875e:	39 45 fc             	cmp    %eax,-0x4(%rbp)
    8761:	7f 0e                	jg     8771 <safe_lshift_func_int32_t_s_s+0x41>
    8763:	8b 45 f8             	mov    -0x8(%rbp),%eax
    8766:	8b 55 fc             	mov    -0x4(%rbp),%edx
    8769:	89 c1                	mov    %eax,%ecx
    876b:	d3 e2                	shl    %cl,%edx
    876d:	89 d0                	mov    %edx,%eax
    876f:	eb 03                	jmp    8774 <safe_lshift_func_int32_t_s_s+0x44>
    8771:	8b 45 fc             	mov    -0x4(%rbp),%eax
    8774:	5d                   	pop    %rbp
    8775:	c3                   	retq   

0000000000008776 <safe_lshift_func_int32_t_s_u>:
    8776:	f3 0f 1e fa          	endbr64 
    877a:	55                   	push   %rbp
    877b:	48 89 e5             	mov    %rsp,%rbp
    877e:	89 7d fc             	mov    %edi,-0x4(%rbp)
    8781:	89 75 f8             	mov    %esi,-0x8(%rbp)
    8784:	83 7d fc 00          	cmpl   $0x0,-0x4(%rbp)
    8788:	78 27                	js     87b1 <safe_lshift_func_int32_t_s_u+0x3b>
    878a:	83 7d f8 1f          	cmpl   $0x1f,-0x8(%rbp)
    878e:	77 21                	ja     87b1 <safe_lshift_func_int32_t_s_u+0x3b>
    8790:	8b 45 f8             	mov    -0x8(%rbp),%eax
    8793:	ba ff ff ff 7f       	mov    $0x7fffffff,%edx
    8798:	89 c1                	mov    %eax,%ecx
    879a:	d3 fa                	sar    %cl,%edx
    879c:	89 d0                	mov    %edx,%eax
    879e:	39 45 fc             	cmp    %eax,-0x4(%rbp)
    87a1:	7f 0e                	jg     87b1 <safe_lshift_func_int32_t_s_u+0x3b>
    87a3:	8b 45 f8             	mov    -0x8(%rbp),%eax
    87a6:	8b 55 fc             	mov    -0x4(%rbp),%edx
    87a9:	89 c1                	mov    %eax,%ecx
    87ab:	d3 e2                	shl    %cl,%edx
    87ad:	89 d0                	mov    %edx,%eax
    87af:	eb 03                	jmp    87b4 <safe_lshift_func_int32_t_s_u+0x3e>
    87b1:	8b 45 fc             	mov    -0x4(%rbp),%eax
    87b4:	5d                   	pop    %rbp
    87b5:	c3                   	retq   

00000000000087b6 <safe_rshift_func_int32_t_s_s>:
    87b6:	f3 0f 1e fa          	endbr64 
    87ba:	55                   	push   %rbp
    87bb:	48 89 e5             	mov    %rsp,%rbp
    87be:	89 7d fc             	mov    %edi,-0x4(%rbp)
    87c1:	89 75 f8             	mov    %esi,-0x8(%rbp)
    87c4:	83 7d fc 00          	cmpl   $0x0,-0x4(%rbp)
    87c8:	78 1a                	js     87e4 <safe_rshift_func_int32_t_s_s+0x2e>
    87ca:	83 7d f8 00          	cmpl   $0x0,-0x8(%rbp)
    87ce:	78 14                	js     87e4 <safe_rshift_func_int32_t_s_s+0x2e>
    87d0:	83 7d f8 1f          	cmpl   $0x1f,-0x8(%rbp)
    87d4:	7f 0e                	jg     87e4 <safe_rshift_func_int32_t_s_s+0x2e>
    87d6:	8b 45 f8             	mov    -0x8(%rbp),%eax
    87d9:	8b 55 fc             	mov    -0x4(%rbp),%edx
    87dc:	89 c1                	mov    %eax,%ecx
    87de:	d3 fa                	sar    %cl,%edx
    87e0:	89 d0                	mov    %edx,%eax
    87e2:	eb 03                	jmp    87e7 <safe_rshift_func_int32_t_s_s+0x31>
    87e4:	8b 45 fc             	mov    -0x4(%rbp),%eax
    87e7:	5d                   	pop    %rbp
    87e8:	c3                   	retq   

00000000000087e9 <safe_rshift_func_int32_t_s_u>:
    87e9:	f3 0f 1e fa          	endbr64 
    87ed:	55                   	push   %rbp
    87ee:	48 89 e5             	mov    %rsp,%rbp
    87f1:	89 7d fc             	mov    %edi,-0x4(%rbp)
    87f4:	89 75 f8             	mov    %esi,-0x8(%rbp)
    87f7:	83 7d fc 00          	cmpl   $0x0,-0x4(%rbp)
    87fb:	78 14                	js     8811 <safe_rshift_func_int32_t_s_u+0x28>
    87fd:	83 7d f8 1f          	cmpl   $0x1f,-0x8(%rbp)
    8801:	77 0e                	ja     8811 <safe_rshift_func_int32_t_s_u+0x28>
    8803:	8b 45 f8             	mov    -0x8(%rbp),%eax
    8806:	8b 55 fc             	mov    -0x4(%rbp),%edx
    8809:	89 c1                	mov    %eax,%ecx
    880b:	d3 fa                	sar    %cl,%edx
    880d:	89 d0                	mov    %edx,%eax
    880f:	eb 03                	jmp    8814 <safe_rshift_func_int32_t_s_u+0x2b>
    8811:	8b 45 fc             	mov    -0x4(%rbp),%eax
    8814:	5d                   	pop    %rbp
    8815:	c3                   	retq   

0000000000008816 <safe_unary_minus_func_int64_t_s>:
    8816:	f3 0f 1e fa          	endbr64 
    881a:	55                   	push   %rbp
    881b:	48 89 e5             	mov    %rsp,%rbp
    881e:	48 89 7d f8          	mov    %rdi,-0x8(%rbp)
    8822:	48 b8 00 00 00 00 00 	movabs $0x8000000000000000,%rax
    8829:	00 00 80 
    882c:	48 39 45 f8          	cmp    %rax,-0x8(%rbp)
    8830:	74 09                	je     883b <safe_unary_minus_func_int64_t_s+0x25>
    8832:	48 8b 45 f8          	mov    -0x8(%rbp),%rax
    8836:	48 f7 d8             	neg    %rax
    8839:	eb 04                	jmp    883f <safe_unary_minus_func_int64_t_s+0x29>
    883b:	48 8b 45 f8          	mov    -0x8(%rbp),%rax
    883f:	5d                   	pop    %rbp
    8840:	c3                   	retq   

0000000000008841 <safe_add_func_int64_t_s_s>:
    8841:	f3 0f 1e fa          	endbr64 
    8845:	55                   	push   %rbp
    8846:	48 89 e5             	mov    %rsp,%rbp
    8849:	48 89 7d f8          	mov    %rdi,-0x8(%rbp)
    884d:	48 89 75 f0          	mov    %rsi,-0x10(%rbp)
    8851:	48 83 7d f8 00       	cmpq   $0x0,-0x8(%rbp)
    8856:	7e 1b                	jle    8873 <safe_add_func_int64_t_s_s+0x32>
    8858:	48 83 7d f0 00       	cmpq   $0x0,-0x10(%rbp)
    885d:	7e 14                	jle    8873 <safe_add_func_int64_t_s_s+0x32>
    885f:	48 b8 ff ff ff ff ff 	movabs $0x7fffffffffffffff,%rax
    8866:	ff ff 7f 
    8869:	48 2b 45 f0          	sub    -0x10(%rbp),%rax
    886d:	48 39 45 f8          	cmp    %rax,-0x8(%rbp)
    8871:	7f 2f                	jg     88a2 <safe_add_func_int64_t_s_s+0x61>
    8873:	48 83 7d f8 00       	cmpq   $0x0,-0x8(%rbp)
    8878:	79 1b                	jns    8895 <safe_add_func_int64_t_s_s+0x54>
    887a:	48 83 7d f0 00       	cmpq   $0x0,-0x10(%rbp)
    887f:	79 14                	jns    8895 <safe_add_func_int64_t_s_s+0x54>
    8881:	48 b8 00 00 00 00 00 	movabs $0x8000000000000000,%rax
    8888:	00 00 80 
    888b:	48 2b 45 f0          	sub    -0x10(%rbp),%rax
    888f:	48 39 45 f8          	cmp    %rax,-0x8(%rbp)
    8893:	7c 0d                	jl     88a2 <safe_add_func_int64_t_s_s+0x61>
    8895:	48 8b 55 f8          	mov    -0x8(%rbp),%rdx
    8899:	48 8b 45 f0          	mov    -0x10(%rbp),%rax
    889d:	48 01 d0             	add    %rdx,%rax
    88a0:	eb 04                	jmp    88a6 <safe_add_func_int64_t_s_s+0x65>
    88a2:	48 8b 45 f8          	mov    -0x8(%rbp),%rax
    88a6:	5d                   	pop    %rbp
    88a7:	c3                   	retq   

00000000000088a8 <safe_sub_func_int64_t_s_s>:
    88a8:	f3 0f 1e fa          	endbr64 
    88ac:	55                   	push   %rbp
    88ad:	48 89 e5             	mov    %rsp,%rbp
    88b0:	48 89 7d f8          	mov    %rdi,-0x8(%rbp)
    88b4:	48 89 75 f0          	mov    %rsi,-0x10(%rbp)
    88b8:	48 8b 45 f8          	mov    -0x8(%rbp),%rax
    88bc:	48 33 45 f0          	xor    -0x10(%rbp),%rax
    88c0:	48 89 c2             	mov    %rax,%rdx
    88c3:	48 8b 45 f8          	mov    -0x8(%rbp),%rax
    88c7:	48 33 45 f0          	xor    -0x10(%rbp),%rax
    88cb:	48 b9 00 00 00 00 00 	movabs $0x8000000000000000,%rcx
    88d2:	00 00 80 
    88d5:	48 21 c8             	and    %rcx,%rax
    88d8:	48 33 45 f8          	xor    -0x8(%rbp),%rax
    88dc:	48 2b 45 f0          	sub    -0x10(%rbp),%rax
    88e0:	48 33 45 f0          	xor    -0x10(%rbp),%rax
    88e4:	48 21 d0             	and    %rdx,%rax
    88e7:	48 85 c0             	test   %rax,%rax
    88ea:	78 0a                	js     88f6 <safe_sub_func_int64_t_s_s+0x4e>
    88ec:	48 8b 45 f8          	mov    -0x8(%rbp),%rax
    88f0:	48 2b 45 f0          	sub    -0x10(%rbp),%rax
    88f4:	eb 04                	jmp    88fa <safe_sub_func_int64_t_s_s+0x52>
    88f6:	48 8b 45 f8          	mov    -0x8(%rbp),%rax
    88fa:	5d                   	pop    %rbp
    88fb:	c3                   	retq   

00000000000088fc <safe_mul_func_int64_t_s_s>:
    88fc:	f3 0f 1e fa          	endbr64 
    8900:	55                   	push   %rbp
    8901:	48 89 e5             	mov    %rsp,%rbp
    8904:	48 89 7d f8          	mov    %rdi,-0x8(%rbp)
    8908:	48 89 75 f0          	mov    %rsi,-0x10(%rbp)
    890c:	48 83 7d f8 00       	cmpq   $0x0,-0x8(%rbp)
    8911:	7e 1d                	jle    8930 <safe_mul_func_int64_t_s_s+0x34>
    8913:	48 83 7d f0 00       	cmpq   $0x0,-0x10(%rbp)
    8918:	7e 16                	jle    8930 <safe_mul_func_int64_t_s_s+0x34>
    891a:	48 b8 ff ff ff ff ff 	movabs $0x7fffffffffffffff,%rax
    8921:	ff ff 7f 
    8924:	48 99                	cqto   
    8926:	48 f7 7d f0          	idivq  -0x10(%rbp)
    892a:	48 39 45 f8          	cmp    %rax,-0x8(%rbp)
    892e:	7f 7e                	jg     89ae <safe_mul_func_int64_t_s_s+0xb2>
    8930:	48 83 7d f8 00       	cmpq   $0x0,-0x8(%rbp)
    8935:	7e 1d                	jle    8954 <safe_mul_func_int64_t_s_s+0x58>
    8937:	48 83 7d f0 00       	cmpq   $0x0,-0x10(%rbp)
    893c:	7f 16                	jg     8954 <safe_mul_func_int64_t_s_s+0x58>
    893e:	48 b8 00 00 00 00 00 	movabs $0x8000000000000000,%rax
    8945:	00 00 80 
    8948:	48 99                	cqto   
    894a:	48 f7 7d f8          	idivq  -0x8(%rbp)
    894e:	48 39 45 f0          	cmp    %rax,-0x10(%rbp)
    8952:	7c 5a                	jl     89ae <safe_mul_func_int64_t_s_s+0xb2>
    8954:	48 83 7d f8 00       	cmpq   $0x0,-0x8(%rbp)
    8959:	7f 1d                	jg     8978 <safe_mul_func_int64_t_s_s+0x7c>
    895b:	48 83 7d f0 00       	cmpq   $0x0,-0x10(%rbp)
    8960:	7e 16                	jle    8978 <safe_mul_func_int64_t_s_s+0x7c>
    8962:	48 b8 00 00 00 00 00 	movabs $0x8000000000000000,%rax
    8969:	00 00 80 
    896c:	48 99                	cqto   
    896e:	48 f7 7d f0          	idivq  -0x10(%rbp)
    8972:	48 39 45 f8          	cmp    %rax,-0x8(%rbp)
    8976:	7c 36                	jl     89ae <safe_mul_func_int64_t_s_s+0xb2>
    8978:	48 83 7d f8 00       	cmpq   $0x0,-0x8(%rbp)
    897d:	7f 24                	jg     89a3 <safe_mul_func_int64_t_s_s+0xa7>
    897f:	48 83 7d f0 00       	cmpq   $0x0,-0x10(%rbp)
    8984:	7f 1d                	jg     89a3 <safe_mul_func_int64_t_s_s+0xa7>
    8986:	48 83 7d f8 00       	cmpq   $0x0,-0x8(%rbp)
    898b:	74 16                	je     89a3 <safe_mul_func_int64_t_s_s+0xa7>
    898d:	48 b8 ff ff ff ff ff 	movabs $0x7fffffffffffffff,%rax
    8994:	ff ff 7f 
    8997:	48 99                	cqto   
    8999:	48 f7 7d f8          	idivq  -0x8(%rbp)
    899d:	48 39 45 f0          	cmp    %rax,-0x10(%rbp)
    89a1:	7c 0b                	jl     89ae <safe_mul_func_int64_t_s_s+0xb2>
    89a3:	48 8b 45 f8          	mov    -0x8(%rbp),%rax
    89a7:	48 0f af 45 f0       	imul   -0x10(%rbp),%rax
    89ac:	eb 04                	jmp    89b2 <safe_mul_func_int64_t_s_s+0xb6>
    89ae:	48 8b 45 f8          	mov    -0x8(%rbp),%rax
    89b2:	5d                   	pop    %rbp
    89b3:	c3                   	retq   

00000000000089b4 <safe_mod_func_int64_t_s_s>:
    89b4:	f3 0f 1e fa          	endbr64 
    89b8:	55                   	push   %rbp
    89b9:	48 89 e5             	mov    %rsp,%rbp
    89bc:	48 89 7d f8          	mov    %rdi,-0x8(%rbp)
    89c0:	48 89 75 f0          	mov    %rsi,-0x10(%rbp)
    89c4:	48 83 7d f0 00       	cmpq   $0x0,-0x10(%rbp)
    89c9:	74 26                	je     89f1 <safe_mod_func_int64_t_s_s+0x3d>
    89cb:	48 b8 00 00 00 00 00 	movabs $0x8000000000000000,%rax
    89d2:	00 00 80 
    89d5:	48 39 45 f8          	cmp    %rax,-0x8(%rbp)
    89d9:	75 07                	jne    89e2 <safe_mod_func_int64_t_s_s+0x2e>
    89db:	48 83 7d f0 ff       	cmpq   $0xffffffffffffffff,-0x10(%rbp)
    89e0:	74 0f                	je     89f1 <safe_mod_func_int64_t_s_s+0x3d>
    89e2:	48 8b 45 f8          	mov    -0x8(%rbp),%rax
    89e6:	48 99                	cqto   
    89e8:	48 f7 7d f0          	idivq  -0x10(%rbp)
    89ec:	48 89 d0             	mov    %rdx,%rax
    89ef:	eb 04                	jmp    89f5 <safe_mod_func_int64_t_s_s+0x41>
    89f1:	48 8b 45 f8          	mov    -0x8(%rbp),%rax
    89f5:	5d                   	pop    %rbp
    89f6:	c3                   	retq   

00000000000089f7 <safe_div_func_int64_t_s_s>:
    89f7:	f3 0f 1e fa          	endbr64 
    89fb:	55                   	push   %rbp
    89fc:	48 89 e5             	mov    %rsp,%rbp
    89ff:	48 89 7d f8          	mov    %rdi,-0x8(%rbp)
    8a03:	48 89 75 f0          	mov    %rsi,-0x10(%rbp)
    8a07:	48 83 7d f0 00       	cmpq   $0x0,-0x10(%rbp)
    8a0c:	74 23                	je     8a31 <safe_div_func_int64_t_s_s+0x3a>
    8a0e:	48 b8 00 00 00 00 00 	movabs $0x8000000000000000,%rax
    8a15:	00 00 80 
    8a18:	48 39 45 f8          	cmp    %rax,-0x8(%rbp)
    8a1c:	75 07                	jne    8a25 <safe_div_func_int64_t_s_s+0x2e>
    8a1e:	48 83 7d f0 ff       	cmpq   $0xffffffffffffffff,-0x10(%rbp)
    8a23:	74 0c                	je     8a31 <safe_div_func_int64_t_s_s+0x3a>
    8a25:	48 8b 45 f8          	mov    -0x8(%rbp),%rax
    8a29:	48 99                	cqto   
    8a2b:	48 f7 7d f0          	idivq  -0x10(%rbp)
    8a2f:	eb 04                	jmp    8a35 <safe_div_func_int64_t_s_s+0x3e>
    8a31:	48 8b 45 f8          	mov    -0x8(%rbp),%rax
    8a35:	5d                   	pop    %rbp
    8a36:	c3                   	retq   

0000000000008a37 <safe_lshift_func_int64_t_s_s>:
    8a37:	f3 0f 1e fa          	endbr64 
    8a3b:	55                   	push   %rbp
    8a3c:	48 89 e5             	mov    %rsp,%rbp
    8a3f:	48 89 7d f8          	mov    %rdi,-0x8(%rbp)
    8a43:	89 75 f4             	mov    %esi,-0xc(%rbp)
    8a46:	48 83 7d f8 00       	cmpq   $0x0,-0x8(%rbp)
    8a4b:	78 38                	js     8a85 <safe_lshift_func_int64_t_s_s+0x4e>
    8a4d:	83 7d f4 00          	cmpl   $0x0,-0xc(%rbp)
    8a51:	78 32                	js     8a85 <safe_lshift_func_int64_t_s_s+0x4e>
    8a53:	83 7d f4 1f          	cmpl   $0x1f,-0xc(%rbp)
    8a57:	7f 2c                	jg     8a85 <safe_lshift_func_int64_t_s_s+0x4e>
    8a59:	8b 45 f4             	mov    -0xc(%rbp),%eax
    8a5c:	48 ba ff ff ff ff ff 	movabs $0x7fffffffffffffff,%rdx
    8a63:	ff ff 7f 
    8a66:	89 c1                	mov    %eax,%ecx
    8a68:	48 d3 fa             	sar    %cl,%rdx
    8a6b:	48 89 d0             	mov    %rdx,%rax
    8a6e:	48 39 45 f8          	cmp    %rax,-0x8(%rbp)
    8a72:	7f 11                	jg     8a85 <safe_lshift_func_int64_t_s_s+0x4e>
    8a74:	8b 45 f4             	mov    -0xc(%rbp),%eax
    8a77:	48 8b 55 f8          	mov    -0x8(%rbp),%rdx
    8a7b:	89 c1                	mov    %eax,%ecx
    8a7d:	48 d3 e2             	shl    %cl,%rdx
    8a80:	48 89 d0             	mov    %rdx,%rax
    8a83:	eb 04                	jmp    8a89 <safe_lshift_func_int64_t_s_s+0x52>
    8a85:	48 8b 45 f8          	mov    -0x8(%rbp),%rax
    8a89:	5d                   	pop    %rbp
    8a8a:	c3                   	retq   

0000000000008a8b <safe_lshift_func_int64_t_s_u>:
    8a8b:	f3 0f 1e fa          	endbr64 
    8a8f:	55                   	push   %rbp
    8a90:	48 89 e5             	mov    %rsp,%rbp
    8a93:	48 89 7d f8          	mov    %rdi,-0x8(%rbp)
    8a97:	89 75 f4             	mov    %esi,-0xc(%rbp)
    8a9a:	48 83 7d f8 00       	cmpq   $0x0,-0x8(%rbp)
    8a9f:	78 32                	js     8ad3 <safe_lshift_func_int64_t_s_u+0x48>
    8aa1:	83 7d f4 1f          	cmpl   $0x1f,-0xc(%rbp)
    8aa5:	77 2c                	ja     8ad3 <safe_lshift_func_int64_t_s_u+0x48>
    8aa7:	8b 45 f4             	mov    -0xc(%rbp),%eax
    8aaa:	48 ba ff ff ff ff ff 	movabs $0x7fffffffffffffff,%rdx
    8ab1:	ff ff 7f 
    8ab4:	89 c1                	mov    %eax,%ecx
    8ab6:	48 d3 fa             	sar    %cl,%rdx
    8ab9:	48 89 d0             	mov    %rdx,%rax
    8abc:	48 39 45 f8          	cmp    %rax,-0x8(%rbp)
    8ac0:	7f 11                	jg     8ad3 <safe_lshift_func_int64_t_s_u+0x48>
    8ac2:	8b 45 f4             	mov    -0xc(%rbp),%eax
    8ac5:	48 8b 55 f8          	mov    -0x8(%rbp),%rdx
    8ac9:	89 c1                	mov    %eax,%ecx
    8acb:	48 d3 e2             	shl    %cl,%rdx
    8ace:	48 89 d0             	mov    %rdx,%rax
    8ad1:	eb 04                	jmp    8ad7 <safe_lshift_func_int64_t_s_u+0x4c>
    8ad3:	48 8b 45 f8          	mov    -0x8(%rbp),%rax
    8ad7:	5d                   	pop    %rbp
    8ad8:	c3                   	retq   

0000000000008ad9 <safe_rshift_func_int64_t_s_s>:
    8ad9:	f3 0f 1e fa          	endbr64 
    8add:	55                   	push   %rbp
    8ade:	48 89 e5             	mov    %rsp,%rbp
    8ae1:	48 89 7d f8          	mov    %rdi,-0x8(%rbp)
    8ae5:	89 75 f4             	mov    %esi,-0xc(%rbp)
    8ae8:	48 83 7d f8 00       	cmpq   $0x0,-0x8(%rbp)
    8aed:	78 1d                	js     8b0c <safe_rshift_func_int64_t_s_s+0x33>
    8aef:	83 7d f4 00          	cmpl   $0x0,-0xc(%rbp)
    8af3:	78 17                	js     8b0c <safe_rshift_func_int64_t_s_s+0x33>
    8af5:	83 7d f4 1f          	cmpl   $0x1f,-0xc(%rbp)
    8af9:	7f 11                	jg     8b0c <safe_rshift_func_int64_t_s_s+0x33>
    8afb:	8b 45 f4             	mov    -0xc(%rbp),%eax
    8afe:	48 8b 55 f8          	mov    -0x8(%rbp),%rdx
    8b02:	89 c1                	mov    %eax,%ecx
    8b04:	48 d3 fa             	sar    %cl,%rdx
    8b07:	48 89 d0             	mov    %rdx,%rax
    8b0a:	eb 04                	jmp    8b10 <safe_rshift_func_int64_t_s_s+0x37>
    8b0c:	48 8b 45 f8          	mov    -0x8(%rbp),%rax
    8b10:	5d                   	pop    %rbp
    8b11:	c3                   	retq   

0000000000008b12 <safe_rshift_func_int64_t_s_u>:
    8b12:	f3 0f 1e fa          	endbr64 
    8b16:	55                   	push   %rbp
    8b17:	48 89 e5             	mov    %rsp,%rbp
    8b1a:	48 89 7d f8          	mov    %rdi,-0x8(%rbp)
    8b1e:	89 75 f4             	mov    %esi,-0xc(%rbp)
    8b21:	48 83 7d f8 00       	cmpq   $0x0,-0x8(%rbp)
    8b26:	78 17                	js     8b3f <safe_rshift_func_int64_t_s_u+0x2d>
    8b28:	83 7d f4 1f          	cmpl   $0x1f,-0xc(%rbp)
    8b2c:	77 11                	ja     8b3f <safe_rshift_func_int64_t_s_u+0x2d>
    8b2e:	8b 45 f4             	mov    -0xc(%rbp),%eax
    8b31:	48 8b 55 f8          	mov    -0x8(%rbp),%rdx
    8b35:	89 c1                	mov    %eax,%ecx
    8b37:	48 d3 fa             	sar    %cl,%rdx
    8b3a:	48 89 d0             	mov    %rdx,%rax
    8b3d:	eb 04                	jmp    8b43 <safe_rshift_func_int64_t_s_u+0x31>
    8b3f:	48 8b 45 f8          	mov    -0x8(%rbp),%rax
    8b43:	5d                   	pop    %rbp
    8b44:	c3                   	retq   

0000000000008b45 <safe_unary_minus_func_uint8_t_u>:
    8b45:	f3 0f 1e fa          	endbr64 
    8b49:	55                   	push   %rbp
    8b4a:	48 89 e5             	mov    %rsp,%rbp
    8b4d:	89 f8                	mov    %edi,%eax
    8b4f:	88 45 fc             	mov    %al,-0x4(%rbp)
    8b52:	0f b6 45 fc          	movzbl -0x4(%rbp),%eax
    8b56:	f7 d8                	neg    %eax
    8b58:	5d                   	pop    %rbp
    8b59:	c3                   	retq   

0000000000008b5a <safe_add_func_uint8_t_u_u>:
    8b5a:	f3 0f 1e fa          	endbr64 
    8b5e:	55                   	push   %rbp
    8b5f:	48 89 e5             	mov    %rsp,%rbp
    8b62:	89 fa                	mov    %edi,%edx
    8b64:	89 f0                	mov    %esi,%eax
    8b66:	88 55 fc             	mov    %dl,-0x4(%rbp)
    8b69:	88 45 f8             	mov    %al,-0x8(%rbp)
    8b6c:	0f b6 55 fc          	movzbl -0x4(%rbp),%edx
    8b70:	0f b6 45 f8          	movzbl -0x8(%rbp),%eax
    8b74:	01 d0                	add    %edx,%eax
    8b76:	5d                   	pop    %rbp
    8b77:	c3                   	retq   

0000000000008b78 <safe_sub_func_uint8_t_u_u>:
    8b78:	f3 0f 1e fa          	endbr64 
    8b7c:	55                   	push   %rbp
    8b7d:	48 89 e5             	mov    %rsp,%rbp
    8b80:	89 fa                	mov    %edi,%edx
    8b82:	89 f0                	mov    %esi,%eax
    8b84:	88 55 fc             	mov    %dl,-0x4(%rbp)
    8b87:	88 45 f8             	mov    %al,-0x8(%rbp)
    8b8a:	0f b6 45 fc          	movzbl -0x4(%rbp),%eax
    8b8e:	2a 45 f8             	sub    -0x8(%rbp),%al
    8b91:	5d                   	pop    %rbp
    8b92:	c3                   	retq   

0000000000008b93 <safe_mul_func_uint8_t_u_u>:
    8b93:	f3 0f 1e fa          	endbr64 
    8b97:	55                   	push   %rbp
    8b98:	48 89 e5             	mov    %rsp,%rbp
    8b9b:	89 fa                	mov    %edi,%edx
    8b9d:	89 f0                	mov    %esi,%eax
    8b9f:	88 55 fc             	mov    %dl,-0x4(%rbp)
    8ba2:	88 45 f8             	mov    %al,-0x8(%rbp)
    8ba5:	0f b6 45 fc          	movzbl -0x4(%rbp),%eax
    8ba9:	f6 65 f8             	mulb   -0x8(%rbp)
    8bac:	5d                   	pop    %rbp
    8bad:	c3                   	retq   

0000000000008bae <safe_mod_func_uint8_t_u_u>:
    8bae:	f3 0f 1e fa          	endbr64 
    8bb2:	55                   	push   %rbp
    8bb3:	48 89 e5             	mov    %rsp,%rbp
    8bb6:	89 fa                	mov    %edi,%edx
    8bb8:	89 f0                	mov    %esi,%eax
    8bba:	88 55 fc             	mov    %dl,-0x4(%rbp)
    8bbd:	88 45 f8             	mov    %al,-0x8(%rbp)
    8bc0:	80 7d f8 00          	cmpb   $0x0,-0x8(%rbp)
    8bc4:	74 0f                	je     8bd5 <safe_mod_func_uint8_t_u_u+0x27>
    8bc6:	0f b6 45 fc          	movzbl -0x4(%rbp),%eax
    8bca:	0f b6 c0             	movzbl %al,%eax
    8bcd:	f6 75 f8             	divb   -0x8(%rbp)
    8bd0:	0f b6 c4             	movzbl %ah,%eax
    8bd3:	eb 04                	jmp    8bd9 <safe_mod_func_uint8_t_u_u+0x2b>
    8bd5:	0f b6 45 fc          	movzbl -0x4(%rbp),%eax
    8bd9:	5d                   	pop    %rbp
    8bda:	c3                   	retq   

0000000000008bdb <safe_div_func_uint8_t_u_u>:
    8bdb:	f3 0f 1e fa          	endbr64 
    8bdf:	55                   	push   %rbp
    8be0:	48 89 e5             	mov    %rsp,%rbp
    8be3:	89 fa                	mov    %edi,%edx
    8be5:	89 f0                	mov    %esi,%eax
    8be7:	88 55 fc             	mov    %dl,-0x4(%rbp)
    8bea:	88 45 f8             	mov    %al,-0x8(%rbp)
    8bed:	80 7d f8 00          	cmpb   $0x0,-0x8(%rbp)
    8bf1:	74 0c                	je     8bff <safe_div_func_uint8_t_u_u+0x24>
    8bf3:	0f b6 45 fc          	movzbl -0x4(%rbp),%eax
    8bf7:	0f b6 c0             	movzbl %al,%eax
    8bfa:	f6 75 f8             	divb   -0x8(%rbp)
    8bfd:	eb 04                	jmp    8c03 <safe_div_func_uint8_t_u_u+0x28>
    8bff:	0f b6 45 fc          	movzbl -0x4(%rbp),%eax
    8c03:	5d                   	pop    %rbp
    8c04:	c3                   	retq   

0000000000008c05 <safe_lshift_func_uint8_t_u_s>:
    8c05:	f3 0f 1e fa          	endbr64 
    8c09:	55                   	push   %rbp
    8c0a:	48 89 e5             	mov    %rsp,%rbp
    8c0d:	89 f8                	mov    %edi,%eax
    8c0f:	89 75 f8             	mov    %esi,-0x8(%rbp)
    8c12:	88 45 fc             	mov    %al,-0x4(%rbp)
    8c15:	83 7d f8 00          	cmpl   $0x0,-0x8(%rbp)
    8c19:	78 2b                	js     8c46 <safe_lshift_func_uint8_t_u_s+0x41>
    8c1b:	83 7d f8 1f          	cmpl   $0x1f,-0x8(%rbp)
    8c1f:	7f 25                	jg     8c46 <safe_lshift_func_uint8_t_u_s+0x41>
    8c21:	0f b6 55 fc          	movzbl -0x4(%rbp),%edx
    8c25:	8b 45 f8             	mov    -0x8(%rbp),%eax
    8c28:	be ff 00 00 00       	mov    $0xff,%esi
    8c2d:	89 c1                	mov    %eax,%ecx
    8c2f:	d3 fe                	sar    %cl,%esi
    8c31:	89 f0                	mov    %esi,%eax
    8c33:	39 c2                	cmp    %eax,%edx
    8c35:	7f 0f                	jg     8c46 <safe_lshift_func_uint8_t_u_s+0x41>
    8c37:	0f b6 55 fc          	movzbl -0x4(%rbp),%edx
    8c3b:	8b 45 f8             	mov    -0x8(%rbp),%eax
    8c3e:	89 c1                	mov    %eax,%ecx
    8c40:	d3 e2                	shl    %cl,%edx
    8c42:	89 d0                	mov    %edx,%eax
    8c44:	eb 04                	jmp    8c4a <safe_lshift_func_uint8_t_u_s+0x45>
    8c46:	0f b6 45 fc          	movzbl -0x4(%rbp),%eax
    8c4a:	5d                   	pop    %rbp
    8c4b:	c3                   	retq   

0000000000008c4c <safe_lshift_func_uint8_t_u_u>:
    8c4c:	f3 0f 1e fa          	endbr64 
    8c50:	55                   	push   %rbp
    8c51:	48 89 e5             	mov    %rsp,%rbp
    8c54:	89 f8                	mov    %edi,%eax
    8c56:	89 75 f8             	mov    %esi,-0x8(%rbp)
    8c59:	88 45 fc             	mov    %al,-0x4(%rbp)
    8c5c:	83 7d f8 1f          	cmpl   $0x1f,-0x8(%rbp)
    8c60:	77 25                	ja     8c87 <safe_lshift_func_uint8_t_u_u+0x3b>
    8c62:	0f b6 55 fc          	movzbl -0x4(%rbp),%edx
    8c66:	8b 45 f8             	mov    -0x8(%rbp),%eax
    8c69:	be ff 00 00 00       	mov    $0xff,%esi
    8c6e:	89 c1                	mov    %eax,%ecx
    8c70:	d3 fe                	sar    %cl,%esi
    8c72:	89 f0                	mov    %esi,%eax
    8c74:	39 c2                	cmp    %eax,%edx
    8c76:	7f 0f                	jg     8c87 <safe_lshift_func_uint8_t_u_u+0x3b>
    8c78:	0f b6 55 fc          	movzbl -0x4(%rbp),%edx
    8c7c:	8b 45 f8             	mov    -0x8(%rbp),%eax
    8c7f:	89 c1                	mov    %eax,%ecx
    8c81:	d3 e2                	shl    %cl,%edx
    8c83:	89 d0                	mov    %edx,%eax
    8c85:	eb 04                	jmp    8c8b <safe_lshift_func_uint8_t_u_u+0x3f>
    8c87:	0f b6 45 fc          	movzbl -0x4(%rbp),%eax
    8c8b:	5d                   	pop    %rbp
    8c8c:	c3                   	retq   

0000000000008c8d <safe_rshift_func_uint8_t_u_s>:
    8c8d:	f3 0f 1e fa          	endbr64 
    8c91:	55                   	push   %rbp
    8c92:	48 89 e5             	mov    %rsp,%rbp
    8c95:	89 f8                	mov    %edi,%eax
    8c97:	89 75 f8             	mov    %esi,-0x8(%rbp)
    8c9a:	88 45 fc             	mov    %al,-0x4(%rbp)
    8c9d:	83 7d f8 00          	cmpl   $0x0,-0x8(%rbp)
    8ca1:	78 15                	js     8cb8 <safe_rshift_func_uint8_t_u_s+0x2b>
    8ca3:	83 7d f8 1f          	cmpl   $0x1f,-0x8(%rbp)
    8ca7:	7f 0f                	jg     8cb8 <safe_rshift_func_uint8_t_u_s+0x2b>
    8ca9:	0f b6 55 fc          	movzbl -0x4(%rbp),%edx
    8cad:	8b 45 f8             	mov    -0x8(%rbp),%eax
    8cb0:	89 c1                	mov    %eax,%ecx
    8cb2:	d3 fa                	sar    %cl,%edx
    8cb4:	89 d0                	mov    %edx,%eax
    8cb6:	eb 04                	jmp    8cbc <safe_rshift_func_uint8_t_u_s+0x2f>
    8cb8:	0f b6 45 fc          	movzbl -0x4(%rbp),%eax
    8cbc:	5d                   	pop    %rbp
    8cbd:	c3                   	retq   

0000000000008cbe <safe_rshift_func_uint8_t_u_u>:
    8cbe:	f3 0f 1e fa          	endbr64 
    8cc2:	55                   	push   %rbp
    8cc3:	48 89 e5             	mov    %rsp,%rbp
    8cc6:	89 f8                	mov    %edi,%eax
    8cc8:	89 75 f8             	mov    %esi,-0x8(%rbp)
    8ccb:	88 45 fc             	mov    %al,-0x4(%rbp)
    8cce:	83 7d f8 1f          	cmpl   $0x1f,-0x8(%rbp)
    8cd2:	77 0f                	ja     8ce3 <safe_rshift_func_uint8_t_u_u+0x25>
    8cd4:	0f b6 55 fc          	movzbl -0x4(%rbp),%edx
    8cd8:	8b 45 f8             	mov    -0x8(%rbp),%eax
    8cdb:	89 c1                	mov    %eax,%ecx
    8cdd:	d3 fa                	sar    %cl,%edx
    8cdf:	89 d0                	mov    %edx,%eax
    8ce1:	eb 04                	jmp    8ce7 <safe_rshift_func_uint8_t_u_u+0x29>
    8ce3:	0f b6 45 fc          	movzbl -0x4(%rbp),%eax
    8ce7:	5d                   	pop    %rbp
    8ce8:	c3                   	retq   

0000000000008ce9 <safe_unary_minus_func_uint16_t_u>:
    8ce9:	f3 0f 1e fa          	endbr64 
    8ced:	55                   	push   %rbp
    8cee:	48 89 e5             	mov    %rsp,%rbp
    8cf1:	89 f8                	mov    %edi,%eax
    8cf3:	66 89 45 fc          	mov    %ax,-0x4(%rbp)
    8cf7:	0f b7 45 fc          	movzwl -0x4(%rbp),%eax
    8cfb:	f7 d8                	neg    %eax
    8cfd:	5d                   	pop    %rbp
    8cfe:	c3                   	retq   

0000000000008cff <safe_add_func_uint16_t_u_u>:
    8cff:	f3 0f 1e fa          	endbr64 
    8d03:	55                   	push   %rbp
    8d04:	48 89 e5             	mov    %rsp,%rbp
    8d07:	89 fa                	mov    %edi,%edx
    8d09:	89 f0                	mov    %esi,%eax
    8d0b:	66 89 55 fc          	mov    %dx,-0x4(%rbp)
    8d0f:	66 89 45 f8          	mov    %ax,-0x8(%rbp)
    8d13:	0f b7 55 fc          	movzwl -0x4(%rbp),%edx
    8d17:	0f b7 45 f8          	movzwl -0x8(%rbp),%eax
    8d1b:	01 d0                	add    %edx,%eax
    8d1d:	5d                   	pop    %rbp
    8d1e:	c3                   	retq   

0000000000008d1f <safe_sub_func_uint16_t_u_u>:
    8d1f:	f3 0f 1e fa          	endbr64 
    8d23:	55                   	push   %rbp
    8d24:	48 89 e5             	mov    %rsp,%rbp
    8d27:	89 fa                	mov    %edi,%edx
    8d29:	89 f0                	mov    %esi,%eax
    8d2b:	66 89 55 fc          	mov    %dx,-0x4(%rbp)
    8d2f:	66 89 45 f8          	mov    %ax,-0x8(%rbp)
    8d33:	0f b7 45 fc          	movzwl -0x4(%rbp),%eax
    8d37:	66 2b 45 f8          	sub    -0x8(%rbp),%ax
    8d3b:	5d                   	pop    %rbp
    8d3c:	c3                   	retq   

0000000000008d3d <safe_mul_func_uint16_t_u_u>:
    8d3d:	f3 0f 1e fa          	endbr64 
    8d41:	55                   	push   %rbp
    8d42:	48 89 e5             	mov    %rsp,%rbp
    8d45:	89 fa                	mov    %edi,%edx
    8d47:	89 f0                	mov    %esi,%eax
    8d49:	66 89 55 fc          	mov    %dx,-0x4(%rbp)
    8d4d:	66 89 45 f8          	mov    %ax,-0x8(%rbp)
    8d51:	0f b7 45 fc          	movzwl -0x4(%rbp),%eax
    8d55:	66 0f af 45 f8       	imul   -0x8(%rbp),%ax
    8d5a:	5d                   	pop    %rbp
    8d5b:	c3                   	retq   

0000000000008d5c <safe_mod_func_uint16_t_u_u>:
    8d5c:	f3 0f 1e fa          	endbr64 
    8d60:	55                   	push   %rbp
    8d61:	48 89 e5             	mov    %rsp,%rbp
    8d64:	89 fa                	mov    %edi,%edx
    8d66:	89 f0                	mov    %esi,%eax
    8d68:	66 89 55 fc          	mov    %dx,-0x4(%rbp)
    8d6c:	66 89 45 f8          	mov    %ax,-0x8(%rbp)
    8d70:	66 83 7d f8 00       	cmpw   $0x0,-0x8(%rbp)
    8d75:	74 11                	je     8d88 <safe_mod_func_uint16_t_u_u+0x2c>
    8d77:	0f b7 45 fc          	movzwl -0x4(%rbp),%eax
    8d7b:	ba 00 00 00 00       	mov    $0x0,%edx
    8d80:	66 f7 75 f8          	divw   -0x8(%rbp)
    8d84:	89 d0                	mov    %edx,%eax
    8d86:	eb 04                	jmp    8d8c <safe_mod_func_uint16_t_u_u+0x30>
    8d88:	0f b7 45 fc          	movzwl -0x4(%rbp),%eax
    8d8c:	5d                   	pop    %rbp
    8d8d:	c3                   	retq   

0000000000008d8e <safe_div_func_uint16_t_u_u>:
    8d8e:	f3 0f 1e fa          	endbr64 
    8d92:	55                   	push   %rbp
    8d93:	48 89 e5             	mov    %rsp,%rbp
    8d96:	89 fa                	mov    %edi,%edx
    8d98:	89 f0                	mov    %esi,%eax
    8d9a:	66 89 55 fc          	mov    %dx,-0x4(%rbp)
    8d9e:	66 89 45 f8          	mov    %ax,-0x8(%rbp)
    8da2:	66 83 7d f8 00       	cmpw   $0x0,-0x8(%rbp)
    8da7:	74 0f                	je     8db8 <safe_div_func_uint16_t_u_u+0x2a>
    8da9:	0f b7 45 fc          	movzwl -0x4(%rbp),%eax
    8dad:	ba 00 00 00 00       	mov    $0x0,%edx
    8db2:	66 f7 75 f8          	divw   -0x8(%rbp)
    8db6:	eb 04                	jmp    8dbc <safe_div_func_uint16_t_u_u+0x2e>
    8db8:	0f b7 45 fc          	movzwl -0x4(%rbp),%eax
    8dbc:	5d                   	pop    %rbp
    8dbd:	c3                   	retq   

0000000000008dbe <safe_lshift_func_uint16_t_u_s>:
    8dbe:	f3 0f 1e fa          	endbr64 
    8dc2:	55                   	push   %rbp
    8dc3:	48 89 e5             	mov    %rsp,%rbp
    8dc6:	89 f8                	mov    %edi,%eax
    8dc8:	89 75 f8             	mov    %esi,-0x8(%rbp)
    8dcb:	66 89 45 fc          	mov    %ax,-0x4(%rbp)
    8dcf:	83 7d f8 00          	cmpl   $0x0,-0x8(%rbp)
    8dd3:	78 2b                	js     8e00 <safe_lshift_func_uint16_t_u_s+0x42>
    8dd5:	83 7d f8 1f          	cmpl   $0x1f,-0x8(%rbp)
    8dd9:	7f 25                	jg     8e00 <safe_lshift_func_uint16_t_u_s+0x42>
    8ddb:	0f b7 55 fc          	movzwl -0x4(%rbp),%edx
    8ddf:	8b 45 f8             	mov    -0x8(%rbp),%eax
    8de2:	be ff ff 00 00       	mov    $0xffff,%esi
    8de7:	89 c1                	mov    %eax,%ecx
    8de9:	d3 fe                	sar    %cl,%esi
    8deb:	89 f0                	mov    %esi,%eax
    8ded:	39 c2                	cmp    %eax,%edx
    8def:	7f 0f                	jg     8e00 <safe_lshift_func_uint16_t_u_s+0x42>
    8df1:	0f b7 55 fc          	movzwl -0x4(%rbp),%edx
    8df5:	8b 45 f8             	mov    -0x8(%rbp),%eax
    8df8:	89 c1                	mov    %eax,%ecx
    8dfa:	d3 e2                	shl    %cl,%edx
    8dfc:	89 d0                	mov    %edx,%eax
    8dfe:	eb 04                	jmp    8e04 <safe_lshift_func_uint16_t_u_s+0x46>
    8e00:	0f b7 45 fc          	movzwl -0x4(%rbp),%eax
    8e04:	5d                   	pop    %rbp
    8e05:	c3                   	retq   

0000000000008e06 <safe_lshift_func_uint16_t_u_u>:
    8e06:	f3 0f 1e fa          	endbr64 
    8e0a:	55                   	push   %rbp
    8e0b:	48 89 e5             	mov    %rsp,%rbp
    8e0e:	89 f8                	mov    %edi,%eax
    8e10:	89 75 f8             	mov    %esi,-0x8(%rbp)
    8e13:	66 89 45 fc          	mov    %ax,-0x4(%rbp)
    8e17:	83 7d f8 1f          	cmpl   $0x1f,-0x8(%rbp)
    8e1b:	77 25                	ja     8e42 <safe_lshift_func_uint16_t_u_u+0x3c>
    8e1d:	0f b7 55 fc          	movzwl -0x4(%rbp),%edx
    8e21:	8b 45 f8             	mov    -0x8(%rbp),%eax
    8e24:	be ff ff 00 00       	mov    $0xffff,%esi
    8e29:	89 c1                	mov    %eax,%ecx
    8e2b:	d3 fe                	sar    %cl,%esi
    8e2d:	89 f0                	mov    %esi,%eax
    8e2f:	39 c2                	cmp    %eax,%edx
    8e31:	7f 0f                	jg     8e42 <safe_lshift_func_uint16_t_u_u+0x3c>
    8e33:	0f b7 55 fc          	movzwl -0x4(%rbp),%edx
    8e37:	8b 45 f8             	mov    -0x8(%rbp),%eax
    8e3a:	89 c1                	mov    %eax,%ecx
    8e3c:	d3 e2                	shl    %cl,%edx
    8e3e:	89 d0                	mov    %edx,%eax
    8e40:	eb 04                	jmp    8e46 <safe_lshift_func_uint16_t_u_u+0x40>
    8e42:	0f b7 45 fc          	movzwl -0x4(%rbp),%eax
    8e46:	5d                   	pop    %rbp
    8e47:	c3                   	retq   

0000000000008e48 <safe_rshift_func_uint16_t_u_s>:
    8e48:	f3 0f 1e fa          	endbr64 
    8e4c:	55                   	push   %rbp
    8e4d:	48 89 e5             	mov    %rsp,%rbp
    8e50:	89 f8                	mov    %edi,%eax
    8e52:	89 75 f8             	mov    %esi,-0x8(%rbp)
    8e55:	66 89 45 fc          	mov    %ax,-0x4(%rbp)
    8e59:	83 7d f8 00          	cmpl   $0x0,-0x8(%rbp)
    8e5d:	78 15                	js     8e74 <safe_rshift_func_uint16_t_u_s+0x2c>
    8e5f:	83 7d f8 1f          	cmpl   $0x1f,-0x8(%rbp)
    8e63:	7f 0f                	jg     8e74 <safe_rshift_func_uint16_t_u_s+0x2c>
    8e65:	0f b7 55 fc          	movzwl -0x4(%rbp),%edx
    8e69:	8b 45 f8             	mov    -0x8(%rbp),%eax
    8e6c:	89 c1                	mov    %eax,%ecx
    8e6e:	d3 fa                	sar    %cl,%edx
    8e70:	89 d0                	mov    %edx,%eax
    8e72:	eb 04                	jmp    8e78 <safe_rshift_func_uint16_t_u_s+0x30>
    8e74:	0f b7 45 fc          	movzwl -0x4(%rbp),%eax
    8e78:	5d                   	pop    %rbp
    8e79:	c3                   	retq   

0000000000008e7a <safe_rshift_func_uint16_t_u_u>:
    8e7a:	f3 0f 1e fa          	endbr64 
    8e7e:	55                   	push   %rbp
    8e7f:	48 89 e5             	mov    %rsp,%rbp
    8e82:	89 f8                	mov    %edi,%eax
    8e84:	89 75 f8             	mov    %esi,-0x8(%rbp)
    8e87:	66 89 45 fc          	mov    %ax,-0x4(%rbp)
    8e8b:	83 7d f8 1f          	cmpl   $0x1f,-0x8(%rbp)
    8e8f:	77 0f                	ja     8ea0 <safe_rshift_func_uint16_t_u_u+0x26>
    8e91:	0f b7 55 fc          	movzwl -0x4(%rbp),%edx
    8e95:	8b 45 f8             	mov    -0x8(%rbp),%eax
    8e98:	89 c1                	mov    %eax,%ecx
    8e9a:	d3 fa                	sar    %cl,%edx
    8e9c:	89 d0                	mov    %edx,%eax
    8e9e:	eb 04                	jmp    8ea4 <safe_rshift_func_uint16_t_u_u+0x2a>
    8ea0:	0f b7 45 fc          	movzwl -0x4(%rbp),%eax
    8ea4:	5d                   	pop    %rbp
    8ea5:	c3                   	retq   

0000000000008ea6 <safe_unary_minus_func_uint32_t_u>:
    8ea6:	f3 0f 1e fa          	endbr64 
    8eaa:	55                   	push   %rbp
    8eab:	48 89 e5             	mov    %rsp,%rbp
    8eae:	89 7d fc             	mov    %edi,-0x4(%rbp)
    8eb1:	8b 45 fc             	mov    -0x4(%rbp),%eax
    8eb4:	f7 d8                	neg    %eax
    8eb6:	5d                   	pop    %rbp
    8eb7:	c3                   	retq   

0000000000008eb8 <safe_add_func_uint32_t_u_u>:
    8eb8:	f3 0f 1e fa          	endbr64 
    8ebc:	55                   	push   %rbp
    8ebd:	48 89 e5             	mov    %rsp,%rbp
    8ec0:	89 7d fc             	mov    %edi,-0x4(%rbp)
    8ec3:	89 75 f8             	mov    %esi,-0x8(%rbp)
    8ec6:	8b 55 fc             	mov    -0x4(%rbp),%edx
    8ec9:	8b 45 f8             	mov    -0x8(%rbp),%eax
    8ecc:	01 d0                	add    %edx,%eax
    8ece:	5d                   	pop    %rbp
    8ecf:	c3                   	retq   

0000000000008ed0 <safe_sub_func_uint32_t_u_u>:
    8ed0:	f3 0f 1e fa          	endbr64 
    8ed4:	55                   	push   %rbp
    8ed5:	48 89 e5             	mov    %rsp,%rbp
    8ed8:	89 7d fc             	mov    %edi,-0x4(%rbp)
    8edb:	89 75 f8             	mov    %esi,-0x8(%rbp)
    8ede:	8b 45 fc             	mov    -0x4(%rbp),%eax
    8ee1:	2b 45 f8             	sub    -0x8(%rbp),%eax
    8ee4:	5d                   	pop    %rbp
    8ee5:	c3                   	retq   

0000000000008ee6 <safe_mul_func_uint32_t_u_u>:
    8ee6:	f3 0f 1e fa          	endbr64 
    8eea:	55                   	push   %rbp
    8eeb:	48 89 e5             	mov    %rsp,%rbp
    8eee:	89 7d fc             	mov    %edi,-0x4(%rbp)
    8ef1:	89 75 f8             	mov    %esi,-0x8(%rbp)
    8ef4:	8b 45 fc             	mov    -0x4(%rbp),%eax
    8ef7:	0f af 45 f8          	imul   -0x8(%rbp),%eax
    8efb:	5d                   	pop    %rbp
    8efc:	c3                   	retq   

0000000000008efd <safe_mod_func_uint32_t_u_u>:
    8efd:	f3 0f 1e fa          	endbr64 
    8f01:	55                   	push   %rbp
    8f02:	48 89 e5             	mov    %rsp,%rbp
    8f05:	89 7d fc             	mov    %edi,-0x4(%rbp)
    8f08:	89 75 f8             	mov    %esi,-0x8(%rbp)
    8f0b:	83 7d f8 00          	cmpl   $0x0,-0x8(%rbp)
    8f0f:	74 0f                	je     8f20 <safe_mod_func_uint32_t_u_u+0x23>
    8f11:	8b 45 fc             	mov    -0x4(%rbp),%eax
    8f14:	ba 00 00 00 00       	mov    $0x0,%edx
    8f19:	f7 75 f8             	divl   -0x8(%rbp)
    8f1c:	89 d0                	mov    %edx,%eax
    8f1e:	eb 03                	jmp    8f23 <safe_mod_func_uint32_t_u_u+0x26>
    8f20:	8b 45 fc             	mov    -0x4(%rbp),%eax
    8f23:	5d                   	pop    %rbp
    8f24:	c3                   	retq   

0000000000008f25 <safe_div_func_uint32_t_u_u>:
    8f25:	f3 0f 1e fa          	endbr64 
    8f29:	55                   	push   %rbp
    8f2a:	48 89 e5             	mov    %rsp,%rbp
    8f2d:	89 7d fc             	mov    %edi,-0x4(%rbp)
    8f30:	89 75 f8             	mov    %esi,-0x8(%rbp)
    8f33:	83 7d f8 00          	cmpl   $0x0,-0x8(%rbp)
    8f37:	74 0d                	je     8f46 <safe_div_func_uint32_t_u_u+0x21>
    8f39:	8b 45 fc             	mov    -0x4(%rbp),%eax
    8f3c:	ba 00 00 00 00       	mov    $0x0,%edx
    8f41:	f7 75 f8             	divl   -0x8(%rbp)
    8f44:	eb 03                	jmp    8f49 <safe_div_func_uint32_t_u_u+0x24>
    8f46:	8b 45 fc             	mov    -0x4(%rbp),%eax
    8f49:	5d                   	pop    %rbp
    8f4a:	c3                   	retq   

0000000000008f4b <safe_lshift_func_uint32_t_u_s>:
    8f4b:	f3 0f 1e fa          	endbr64 
    8f4f:	55                   	push   %rbp
    8f50:	48 89 e5             	mov    %rsp,%rbp
    8f53:	89 7d fc             	mov    %edi,-0x4(%rbp)
    8f56:	89 75 f8             	mov    %esi,-0x8(%rbp)
    8f59:	83 7d f8 00          	cmpl   $0x0,-0x8(%rbp)
    8f5d:	78 27                	js     8f86 <safe_lshift_func_uint32_t_u_s+0x3b>
    8f5f:	83 7d f8 1f          	cmpl   $0x1f,-0x8(%rbp)
    8f63:	7f 21                	jg     8f86 <safe_lshift_func_uint32_t_u_s+0x3b>
    8f65:	8b 45 f8             	mov    -0x8(%rbp),%eax
    8f68:	ba ff ff ff ff       	mov    $0xffffffff,%edx
    8f6d:	89 c1                	mov    %eax,%ecx
    8f6f:	d3 ea                	shr    %cl,%edx
    8f71:	89 d0                	mov    %edx,%eax
    8f73:	39 45 fc             	cmp    %eax,-0x4(%rbp)
    8f76:	77 0e                	ja     8f86 <safe_lshift_func_uint32_t_u_s+0x3b>
    8f78:	8b 45 f8             	mov    -0x8(%rbp),%eax
    8f7b:	8b 55 fc             	mov    -0x4(%rbp),%edx
    8f7e:	89 c1                	mov    %eax,%ecx
    8f80:	d3 e2                	shl    %cl,%edx
    8f82:	89 d0                	mov    %edx,%eax
    8f84:	eb 03                	jmp    8f89 <safe_lshift_func_uint32_t_u_s+0x3e>
    8f86:	8b 45 fc             	mov    -0x4(%rbp),%eax
    8f89:	5d                   	pop    %rbp
    8f8a:	c3                   	retq   

0000000000008f8b <safe_lshift_func_uint32_t_u_u>:
    8f8b:	f3 0f 1e fa          	endbr64 
    8f8f:	55                   	push   %rbp
    8f90:	48 89 e5             	mov    %rsp,%rbp
    8f93:	89 7d fc             	mov    %edi,-0x4(%rbp)
    8f96:	89 75 f8             	mov    %esi,-0x8(%rbp)
    8f99:	83 7d f8 1f          	cmpl   $0x1f,-0x8(%rbp)
    8f9d:	77 21                	ja     8fc0 <safe_lshift_func_uint32_t_u_u+0x35>
    8f9f:	8b 45 f8             	mov    -0x8(%rbp),%eax
    8fa2:	ba ff ff ff ff       	mov    $0xffffffff,%edx
    8fa7:	89 c1                	mov    %eax,%ecx
    8fa9:	d3 ea                	shr    %cl,%edx
    8fab:	89 d0                	mov    %edx,%eax
    8fad:	39 45 fc             	cmp    %eax,-0x4(%rbp)
    8fb0:	77 0e                	ja     8fc0 <safe_lshift_func_uint32_t_u_u+0x35>
    8fb2:	8b 45 f8             	mov    -0x8(%rbp),%eax
    8fb5:	8b 55 fc             	mov    -0x4(%rbp),%edx
    8fb8:	89 c1                	mov    %eax,%ecx
    8fba:	d3 e2                	shl    %cl,%edx
    8fbc:	89 d0                	mov    %edx,%eax
    8fbe:	eb 03                	jmp    8fc3 <safe_lshift_func_uint32_t_u_u+0x38>
    8fc0:	8b 45 fc             	mov    -0x4(%rbp),%eax
    8fc3:	5d                   	pop    %rbp
    8fc4:	c3                   	retq   

0000000000008fc5 <safe_rshift_func_uint32_t_u_s>:
    8fc5:	f3 0f 1e fa          	endbr64 
    8fc9:	55                   	push   %rbp
    8fca:	48 89 e5             	mov    %rsp,%rbp
    8fcd:	89 7d fc             	mov    %edi,-0x4(%rbp)
    8fd0:	89 75 f8             	mov    %esi,-0x8(%rbp)
    8fd3:	83 7d f8 00          	cmpl   $0x0,-0x8(%rbp)
    8fd7:	78 14                	js     8fed <safe_rshift_func_uint32_t_u_s+0x28>
    8fd9:	83 7d f8 1f          	cmpl   $0x1f,-0x8(%rbp)
    8fdd:	7f 0e                	jg     8fed <safe_rshift_func_uint32_t_u_s+0x28>
    8fdf:	8b 45 f8             	mov    -0x8(%rbp),%eax
    8fe2:	8b 55 fc             	mov    -0x4(%rbp),%edx
    8fe5:	89 c1                	mov    %eax,%ecx
    8fe7:	d3 ea                	shr    %cl,%edx
    8fe9:	89 d0                	mov    %edx,%eax
    8feb:	eb 03                	jmp    8ff0 <safe_rshift_func_uint32_t_u_s+0x2b>
    8fed:	8b 45 fc             	mov    -0x4(%rbp),%eax
    8ff0:	5d                   	pop    %rbp
    8ff1:	c3                   	retq   

0000000000008ff2 <safe_rshift_func_uint32_t_u_u>:
    8ff2:	f3 0f 1e fa          	endbr64 
    8ff6:	55                   	push   %rbp
    8ff7:	48 89 e5             	mov    %rsp,%rbp
    8ffa:	89 7d fc             	mov    %edi,-0x4(%rbp)
    8ffd:	89 75 f8             	mov    %esi,-0x8(%rbp)
    9000:	83 7d f8 1f          	cmpl   $0x1f,-0x8(%rbp)
    9004:	77 0e                	ja     9014 <safe_rshift_func_uint32_t_u_u+0x22>
    9006:	8b 45 f8             	mov    -0x8(%rbp),%eax
    9009:	8b 55 fc             	mov    -0x4(%rbp),%edx
    900c:	89 c1                	mov    %eax,%ecx
    900e:	d3 ea                	shr    %cl,%edx
    9010:	89 d0                	mov    %edx,%eax
    9012:	eb 03                	jmp    9017 <safe_rshift_func_uint32_t_u_u+0x25>
    9014:	8b 45 fc             	mov    -0x4(%rbp),%eax
    9017:	5d                   	pop    %rbp
    9018:	c3                   	retq   

0000000000009019 <safe_unary_minus_func_uint64_t_u>:
    9019:	f3 0f 1e fa          	endbr64 
    901d:	55                   	push   %rbp
    901e:	48 89 e5             	mov    %rsp,%rbp
    9021:	48 89 7d f8          	mov    %rdi,-0x8(%rbp)
    9025:	48 8b 45 f8          	mov    -0x8(%rbp),%rax
    9029:	48 f7 d8             	neg    %rax
    902c:	5d                   	pop    %rbp
    902d:	c3                   	retq   

000000000000902e <safe_add_func_uint64_t_u_u>:
    902e:	f3 0f 1e fa          	endbr64 
    9032:	55                   	push   %rbp
    9033:	48 89 e5             	mov    %rsp,%rbp
    9036:	48 89 7d f8          	mov    %rdi,-0x8(%rbp)
    903a:	48 89 75 f0          	mov    %rsi,-0x10(%rbp)
    903e:	48 8b 55 f8          	mov    -0x8(%rbp),%rdx
    9042:	48 8b 45 f0          	mov    -0x10(%rbp),%rax
    9046:	48 01 d0             	add    %rdx,%rax
    9049:	5d                   	pop    %rbp
    904a:	c3                   	retq   

000000000000904b <safe_sub_func_uint64_t_u_u>:
    904b:	f3 0f 1e fa          	endbr64 
    904f:	55                   	push   %rbp
    9050:	48 89 e5             	mov    %rsp,%rbp
    9053:	48 89 7d f8          	mov    %rdi,-0x8(%rbp)
    9057:	48 89 75 f0          	mov    %rsi,-0x10(%rbp)
    905b:	48 8b 45 f8          	mov    -0x8(%rbp),%rax
    905f:	48 2b 45 f0          	sub    -0x10(%rbp),%rax
    9063:	5d                   	pop    %rbp
    9064:	c3                   	retq   

0000000000009065 <safe_mul_func_uint64_t_u_u>:
    9065:	f3 0f 1e fa          	endbr64 
    9069:	55                   	push   %rbp
    906a:	48 89 e5             	mov    %rsp,%rbp
    906d:	48 89 7d f8          	mov    %rdi,-0x8(%rbp)
    9071:	48 89 75 f0          	mov    %rsi,-0x10(%rbp)
    9075:	48 8b 45 f8          	mov    -0x8(%rbp),%rax
    9079:	48 0f af 45 f0       	imul   -0x10(%rbp),%rax
    907e:	5d                   	pop    %rbp
    907f:	c3                   	retq   

0000000000009080 <safe_mod_func_uint64_t_u_u>:
    9080:	f3 0f 1e fa          	endbr64 
    9084:	55                   	push   %rbp
    9085:	48 89 e5             	mov    %rsp,%rbp
    9088:	48 89 7d f8          	mov    %rdi,-0x8(%rbp)
    908c:	48 89 75 f0          	mov    %rsi,-0x10(%rbp)
    9090:	48 83 7d f0 00       	cmpq   $0x0,-0x10(%rbp)
    9095:	74 12                	je     90a9 <safe_mod_func_uint64_t_u_u+0x29>
    9097:	48 8b 45 f8          	mov    -0x8(%rbp),%rax
    909b:	ba 00 00 00 00       	mov    $0x0,%edx
    90a0:	48 f7 75 f0          	divq   -0x10(%rbp)
    90a4:	48 89 d0             	mov    %rdx,%rax
    90a7:	eb 04                	jmp    90ad <safe_mod_func_uint64_t_u_u+0x2d>
    90a9:	48 8b 45 f8          	mov    -0x8(%rbp),%rax
    90ad:	5d                   	pop    %rbp
    90ae:	c3                   	retq   

00000000000090af <safe_div_func_uint64_t_u_u>:
    90af:	f3 0f 1e fa          	endbr64 
    90b3:	55                   	push   %rbp
    90b4:	48 89 e5             	mov    %rsp,%rbp
    90b7:	48 89 7d f8          	mov    %rdi,-0x8(%rbp)
    90bb:	48 89 75 f0          	mov    %rsi,-0x10(%rbp)
    90bf:	48 83 7d f0 00       	cmpq   $0x0,-0x10(%rbp)
    90c4:	74 0f                	je     90d5 <safe_div_func_uint64_t_u_u+0x26>
    90c6:	48 8b 45 f8          	mov    -0x8(%rbp),%rax
    90ca:	ba 00 00 00 00       	mov    $0x0,%edx
    90cf:	48 f7 75 f0          	divq   -0x10(%rbp)
    90d3:	eb 04                	jmp    90d9 <safe_div_func_uint64_t_u_u+0x2a>
    90d5:	48 8b 45 f8          	mov    -0x8(%rbp),%rax
    90d9:	5d                   	pop    %rbp
    90da:	c3                   	retq   

00000000000090db <safe_lshift_func_uint64_t_u_s>:
    90db:	f3 0f 1e fa          	endbr64 
    90df:	55                   	push   %rbp
    90e0:	48 89 e5             	mov    %rsp,%rbp
    90e3:	48 89 7d f8          	mov    %rdi,-0x8(%rbp)
    90e7:	89 75 f4             	mov    %esi,-0xc(%rbp)
    90ea:	83 7d f4 00          	cmpl   $0x0,-0xc(%rbp)
    90ee:	78 2f                	js     911f <safe_lshift_func_uint64_t_u_s+0x44>
    90f0:	83 7d f4 1f          	cmpl   $0x1f,-0xc(%rbp)
    90f4:	7f 29                	jg     911f <safe_lshift_func_uint64_t_u_s+0x44>
    90f6:	8b 45 f4             	mov    -0xc(%rbp),%eax
    90f9:	48 c7 c2 ff ff ff ff 	mov    $0xffffffffffffffff,%rdx
    9100:	89 c1                	mov    %eax,%ecx
    9102:	48 d3 ea             	shr    %cl,%rdx
    9105:	48 89 d0             	mov    %rdx,%rax
    9108:	48 39 45 f8          	cmp    %rax,-0x8(%rbp)
    910c:	77 11                	ja     911f <safe_lshift_func_uint64_t_u_s+0x44>
    910e:	8b 45 f4             	mov    -0xc(%rbp),%eax
    9111:	48 8b 55 f8          	mov    -0x8(%rbp),%rdx
    9115:	89 c1                	mov    %eax,%ecx
    9117:	48 d3 e2             	shl    %cl,%rdx
    911a:	48 89 d0             	mov    %rdx,%rax
    911d:	eb 04                	jmp    9123 <safe_lshift_func_uint64_t_u_s+0x48>
    911f:	48 8b 45 f8          	mov    -0x8(%rbp),%rax
    9123:	5d                   	pop    %rbp
    9124:	c3                   	retq   

0000000000009125 <safe_lshift_func_uint64_t_u_u>:
    9125:	f3 0f 1e fa          	endbr64 
    9129:	55                   	push   %rbp
    912a:	48 89 e5             	mov    %rsp,%rbp
    912d:	48 89 7d f8          	mov    %rdi,-0x8(%rbp)
    9131:	89 75 f4             	mov    %esi,-0xc(%rbp)
    9134:	83 7d f4 1f          	cmpl   $0x1f,-0xc(%rbp)
    9138:	77 29                	ja     9163 <safe_lshift_func_uint64_t_u_u+0x3e>
    913a:	8b 45 f4             	mov    -0xc(%rbp),%eax
    913d:	48 c7 c2 ff ff ff ff 	mov    $0xffffffffffffffff,%rdx
    9144:	89 c1                	mov    %eax,%ecx
    9146:	48 d3 ea             	shr    %cl,%rdx
    9149:	48 89 d0             	mov    %rdx,%rax
    914c:	48 39 45 f8          	cmp    %rax,-0x8(%rbp)
    9150:	77 11                	ja     9163 <safe_lshift_func_uint64_t_u_u+0x3e>
    9152:	8b 45 f4             	mov    -0xc(%rbp),%eax
    9155:	48 8b 55 f8          	mov    -0x8(%rbp),%rdx
    9159:	89 c1                	mov    %eax,%ecx
    915b:	48 d3 e2             	shl    %cl,%rdx
    915e:	48 89 d0             	mov    %rdx,%rax
    9161:	eb 04                	jmp    9167 <safe_lshift_func_uint64_t_u_u+0x42>
    9163:	48 8b 45 f8          	mov    -0x8(%rbp),%rax
    9167:	5d                   	pop    %rbp
    9168:	c3                   	retq   

0000000000009169 <safe_rshift_func_uint64_t_u_s>:
    9169:	f3 0f 1e fa          	endbr64 
    916d:	55                   	push   %rbp
    916e:	48 89 e5             	mov    %rsp,%rbp
    9171:	48 89 7d f8          	mov    %rdi,-0x8(%rbp)
    9175:	89 75 f4             	mov    %esi,-0xc(%rbp)
    9178:	83 7d f4 00          	cmpl   $0x0,-0xc(%rbp)
    917c:	78 17                	js     9195 <safe_rshift_func_uint64_t_u_s+0x2c>
    917e:	83 7d f4 1f          	cmpl   $0x1f,-0xc(%rbp)
    9182:	7f 11                	jg     9195 <safe_rshift_func_uint64_t_u_s+0x2c>
    9184:	8b 45 f4             	mov    -0xc(%rbp),%eax
    9187:	48 8b 55 f8          	mov    -0x8(%rbp),%rdx
    918b:	89 c1                	mov    %eax,%ecx
    918d:	48 d3 ea             	shr    %cl,%rdx
    9190:	48 89 d0             	mov    %rdx,%rax
    9193:	eb 04                	jmp    9199 <safe_rshift_func_uint64_t_u_s+0x30>
    9195:	48 8b 45 f8          	mov    -0x8(%rbp),%rax
    9199:	5d                   	pop    %rbp
    919a:	c3                   	retq   

000000000000919b <safe_rshift_func_uint64_t_u_u>:
    919b:	f3 0f 1e fa          	endbr64 
    919f:	55                   	push   %rbp
    91a0:	48 89 e5             	mov    %rsp,%rbp
    91a3:	48 89 7d f8          	mov    %rdi,-0x8(%rbp)
    91a7:	89 75 f4             	mov    %esi,-0xc(%rbp)
    91aa:	83 7d f4 1f          	cmpl   $0x1f,-0xc(%rbp)
    91ae:	77 11                	ja     91c1 <safe_rshift_func_uint64_t_u_u+0x26>
    91b0:	8b 45 f4             	mov    -0xc(%rbp),%eax
    91b3:	48 8b 55 f8          	mov    -0x8(%rbp),%rdx
    91b7:	89 c1                	mov    %eax,%ecx
    91b9:	48 d3 ea             	shr    %cl,%rdx
    91bc:	48 89 d0             	mov    %rdx,%rax
    91bf:	eb 04                	jmp    91c5 <safe_rshift_func_uint64_t_u_u+0x2a>
    91c1:	48 8b 45 f8          	mov    -0x8(%rbp),%rax
    91c5:	5d                   	pop    %rbp
    91c6:	c3                   	retq   

00000000000091c7 <safe_add_func_float_f_f>:
    91c7:	f3 0f 1e fa          	endbr64 
    91cb:	55                   	push   %rbp
    91cc:	48 89 e5             	mov    %rsp,%rbp
    91cf:	f3 0f 11 45 fc       	movss  %xmm0,-0x4(%rbp)
    91d4:	f3 0f 11 4d f8       	movss  %xmm1,-0x8(%rbp)
    91d9:	f3 0f 10 4d fc       	movss  -0x4(%rbp),%xmm1
    91de:	f3 0f 10 05 8a 09 01 	movss  0x1098a(%rip),%xmm0        # 19b70 <l_2682.4231+0xf0>
    91e5:	00 
    91e6:	f3 0f 59 c8          	mulss  %xmm0,%xmm1
    91ea:	f3 0f 10 55 f8       	movss  -0x8(%rbp),%xmm2
    91ef:	f3 0f 10 05 79 09 01 	movss  0x10979(%rip),%xmm0        # 19b70 <l_2682.4231+0xf0>
    91f6:	00 
    91f7:	f3 0f 59 c2          	mulss  %xmm2,%xmm0
    91fb:	f3 0f 58 c1          	addss  %xmm1,%xmm0
    91ff:	f3 0f 10 0d 79 09 01 	movss  0x10979(%rip),%xmm1        # 19b80 <l_2682.4231+0x100>
    9206:	00 
    9207:	0f 54 c1             	andps  %xmm1,%xmm0
    920a:	0f 2f 05 7f 09 01 00 	comiss 0x1097f(%rip),%xmm0        # 19b90 <l_2682.4231+0x110>
    9211:	76 07                	jbe    921a <safe_add_func_float_f_f+0x53>
    9213:	f3 0f 10 45 fc       	movss  -0x4(%rbp),%xmm0
    9218:	eb 0a                	jmp    9224 <safe_add_func_float_f_f+0x5d>
    921a:	f3 0f 10 45 fc       	movss  -0x4(%rbp),%xmm0
    921f:	f3 0f 58 45 f8       	addss  -0x8(%rbp),%xmm0
    9224:	5d                   	pop    %rbp
    9225:	c3                   	retq   

0000000000009226 <safe_sub_func_float_f_f>:
    9226:	f3 0f 1e fa          	endbr64 
    922a:	55                   	push   %rbp
    922b:	48 89 e5             	mov    %rsp,%rbp
    922e:	f3 0f 11 45 fc       	movss  %xmm0,-0x4(%rbp)
    9233:	f3 0f 11 4d f8       	movss  %xmm1,-0x8(%rbp)
    9238:	f3 0f 10 4d fc       	movss  -0x4(%rbp),%xmm1
    923d:	f3 0f 10 05 2b 09 01 	movss  0x1092b(%rip),%xmm0        # 19b70 <l_2682.4231+0xf0>
    9244:	00 
    9245:	f3 0f 59 c1          	mulss  %xmm1,%xmm0
    9249:	f3 0f 10 55 f8       	movss  -0x8(%rbp),%xmm2
    924e:	f3 0f 10 0d 1a 09 01 	movss  0x1091a(%rip),%xmm1        # 19b70 <l_2682.4231+0xf0>
    9255:	00 
    9256:	f3 0f 59 ca          	mulss  %xmm2,%xmm1
    925a:	f3 0f 5c c1          	subss  %xmm1,%xmm0
    925e:	f3 0f 10 0d 1a 09 01 	movss  0x1091a(%rip),%xmm1        # 19b80 <l_2682.4231+0x100>
    9265:	00 
    9266:	0f 54 c1             	andps  %xmm1,%xmm0
    9269:	0f 2f 05 20 09 01 00 	comiss 0x10920(%rip),%xmm0        # 19b90 <l_2682.4231+0x110>
    9270:	76 07                	jbe    9279 <safe_sub_func_float_f_f+0x53>
    9272:	f3 0f 10 45 fc       	movss  -0x4(%rbp),%xmm0
    9277:	eb 0a                	jmp    9283 <safe_sub_func_float_f_f+0x5d>
    9279:	f3 0f 10 45 fc       	movss  -0x4(%rbp),%xmm0
    927e:	f3 0f 5c 45 f8       	subss  -0x8(%rbp),%xmm0
    9283:	5d                   	pop    %rbp
    9284:	c3                   	retq   

0000000000009285 <safe_mul_func_float_f_f>:
    9285:	f3 0f 1e fa          	endbr64 
    9289:	55                   	push   %rbp
    928a:	48 89 e5             	mov    %rsp,%rbp
    928d:	f3 0f 11 45 fc       	movss  %xmm0,-0x4(%rbp)
    9292:	f3 0f 11 4d f8       	movss  %xmm1,-0x8(%rbp)
    9297:	f3 0f 10 4d fc       	movss  -0x4(%rbp),%xmm1
    929c:	f3 0f 10 05 f0 08 01 	movss  0x108f0(%rip),%xmm0        # 19b94 <l_2682.4231+0x114>
    92a3:	00 
    92a4:	f3 0f 59 c8          	mulss  %xmm0,%xmm1
    92a8:	f3 0f 10 55 f8       	movss  -0x8(%rbp),%xmm2
    92ad:	f3 0f 10 05 e3 08 01 	movss  0x108e3(%rip),%xmm0        # 19b98 <l_2682.4231+0x118>
    92b4:	00 
    92b5:	f3 0f 59 c2          	mulss  %xmm2,%xmm0
    92b9:	f3 0f 59 c1          	mulss  %xmm1,%xmm0
    92bd:	f3 0f 10 0d bb 08 01 	movss  0x108bb(%rip),%xmm1        # 19b80 <l_2682.4231+0x100>
    92c4:	00 
    92c5:	0f 54 c1             	andps  %xmm1,%xmm0
    92c8:	0f 2f 05 cd 08 01 00 	comiss 0x108cd(%rip),%xmm0        # 19b9c <l_2682.4231+0x11c>
    92cf:	76 07                	jbe    92d8 <safe_mul_func_float_f_f+0x53>
    92d1:	f3 0f 10 45 fc       	movss  -0x4(%rbp),%xmm0
    92d6:	eb 0a                	jmp    92e2 <safe_mul_func_float_f_f+0x5d>
    92d8:	f3 0f 10 45 fc       	movss  -0x4(%rbp),%xmm0
    92dd:	f3 0f 59 45 f8       	mulss  -0x8(%rbp),%xmm0
    92e2:	5d                   	pop    %rbp
    92e3:	c3                   	retq   

00000000000092e4 <safe_div_func_float_f_f>:
    92e4:	f3 0f 1e fa          	endbr64 
    92e8:	55                   	push   %rbp
    92e9:	48 89 e5             	mov    %rsp,%rbp
    92ec:	f3 0f 11 45 fc       	movss  %xmm0,-0x4(%rbp)
    92f1:	f3 0f 11 4d f8       	movss  %xmm1,-0x8(%rbp)
    92f6:	f3 0f 10 45 f8       	movss  -0x8(%rbp),%xmm0
    92fb:	f3 0f 10 0d 7d 08 01 	movss  0x1087d(%rip),%xmm1        # 19b80 <l_2682.4231+0x100>
    9302:	00 
    9303:	0f 54 c8             	andps  %xmm0,%xmm1
    9306:	f3 0f 10 05 92 08 01 	movss  0x10892(%rip),%xmm0        # 19ba0 <l_2682.4231+0x120>
    930d:	00 
    930e:	0f 2f c1             	comiss %xmm1,%xmm0
    9311:	0f 97 c0             	seta   %al
    9314:	83 f0 01             	xor    $0x1,%eax
    9317:	84 c0                	test   %al,%al
    9319:	75 56                	jne    9371 <safe_div_func_float_f_f+0x8d>
    931b:	66 0f ef c0          	pxor   %xmm0,%xmm0
    931f:	0f 2e 45 f8          	ucomiss -0x8(%rbp),%xmm0
    9323:	7a 0a                	jp     932f <safe_div_func_float_f_f+0x4b>
    9325:	66 0f ef c0          	pxor   %xmm0,%xmm0
    9329:	0f 2e 45 f8          	ucomiss -0x8(%rbp),%xmm0
    932d:	74 4e                	je     937d <safe_div_func_float_f_f+0x99>
    932f:	f3 0f 10 4d fc       	movss  -0x4(%rbp),%xmm1
    9334:	f3 0f 10 05 68 08 01 	movss  0x10868(%rip),%xmm0        # 19ba4 <l_2682.4231+0x124>
    933b:	00 
    933c:	f3 0f 59 c1          	mulss  %xmm1,%xmm0
    9340:	f3 0f 10 55 f8       	movss  -0x8(%rbp),%xmm2
    9345:	f3 0f 10 0d 5b 08 01 	movss  0x1085b(%rip),%xmm1        # 19ba8 <l_2682.4231+0x128>
    934c:	00 
    934d:	f3 0f 59 ca          	mulss  %xmm2,%xmm1
    9351:	f3 0f 5e c1          	divss  %xmm1,%xmm0
    9355:	f3 0f 10 0d 23 08 01 	movss  0x10823(%rip),%xmm1        # 19b80 <l_2682.4231+0x100>
    935c:	00 
    935d:	0f 54 c1             	andps  %xmm1,%xmm0
    9360:	0f 2f 05 45 08 01 00 	comiss 0x10845(%rip),%xmm0        # 19bac <l_2682.4231+0x12c>
    9367:	0f 97 c0             	seta   %al
    936a:	83 f0 01             	xor    $0x1,%eax
    936d:	84 c0                	test   %al,%al
    936f:	74 0c                	je     937d <safe_div_func_float_f_f+0x99>
    9371:	f3 0f 10 45 fc       	movss  -0x4(%rbp),%xmm0
    9376:	f3 0f 5e 45 f8       	divss  -0x8(%rbp),%xmm0
    937b:	eb 05                	jmp    9382 <safe_div_func_float_f_f+0x9e>
    937d:	f3 0f 10 45 fc       	movss  -0x4(%rbp),%xmm0
    9382:	5d                   	pop    %rbp
    9383:	c3                   	retq   

0000000000009384 <safe_add_func_double_f_f>:
    9384:	f3 0f 1e fa          	endbr64 
    9388:	55                   	push   %rbp
    9389:	48 89 e5             	mov    %rsp,%rbp
    938c:	f2 0f 11 45 f8       	movsd  %xmm0,-0x8(%rbp)
    9391:	f2 0f 11 4d f0       	movsd  %xmm1,-0x10(%rbp)
    9396:	f2 0f 10 4d f8       	movsd  -0x8(%rbp),%xmm1
    939b:	f2 0f 10 05 0d 08 01 	movsd  0x1080d(%rip),%xmm0        # 19bb0 <l_2682.4231+0x130>
    93a2:	00 
    93a3:	f2 0f 59 c8          	mulsd  %xmm0,%xmm1
    93a7:	f2 0f 10 55 f0       	movsd  -0x10(%rbp),%xmm2
    93ac:	f2 0f 10 05 fc 07 01 	movsd  0x107fc(%rip),%xmm0        # 19bb0 <l_2682.4231+0x130>
    93b3:	00 
    93b4:	f2 0f 59 c2          	mulsd  %xmm2,%xmm0
    93b8:	f2 0f 58 c1          	addsd  %xmm1,%xmm0
    93bc:	f3 0f 7e 0d fc 07 01 	movq   0x107fc(%rip),%xmm1        # 19bc0 <l_2682.4231+0x140>
    93c3:	00 
    93c4:	66 0f 54 c1          	andpd  %xmm1,%xmm0
    93c8:	66 0f 2f 05 00 08 01 	comisd 0x10800(%rip),%xmm0        # 19bd0 <l_2682.4231+0x150>
    93cf:	00 
    93d0:	76 07                	jbe    93d9 <safe_add_func_double_f_f+0x55>
    93d2:	f2 0f 10 45 f8       	movsd  -0x8(%rbp),%xmm0
    93d7:	eb 0a                	jmp    93e3 <safe_add_func_double_f_f+0x5f>
    93d9:	f2 0f 10 45 f8       	movsd  -0x8(%rbp),%xmm0
    93de:	f2 0f 58 45 f0       	addsd  -0x10(%rbp),%xmm0
    93e3:	5d                   	pop    %rbp
    93e4:	c3                   	retq   

00000000000093e5 <safe_sub_func_double_f_f>:
    93e5:	f3 0f 1e fa          	endbr64 
    93e9:	55                   	push   %rbp
    93ea:	48 89 e5             	mov    %rsp,%rbp
    93ed:	f2 0f 11 45 f8       	movsd  %xmm0,-0x8(%rbp)
    93f2:	f2 0f 11 4d f0       	movsd  %xmm1,-0x10(%rbp)
    93f7:	f2 0f 10 4d f8       	movsd  -0x8(%rbp),%xmm1
    93fc:	f2 0f 10 05 ac 07 01 	movsd  0x107ac(%rip),%xmm0        # 19bb0 <l_2682.4231+0x130>
    9403:	00 
    9404:	f2 0f 59 c1          	mulsd  %xmm1,%xmm0
    9408:	f2 0f 10 55 f0       	movsd  -0x10(%rbp),%xmm2
    940d:	f2 0f 10 0d 9b 07 01 	movsd  0x1079b(%rip),%xmm1        # 19bb0 <l_2682.4231+0x130>
    9414:	00 
    9415:	f2 0f 59 ca          	mulsd  %xmm2,%xmm1
    9419:	f2 0f 5c c1          	subsd  %xmm1,%xmm0
    941d:	f3 0f 7e 0d 9b 07 01 	movq   0x1079b(%rip),%xmm1        # 19bc0 <l_2682.4231+0x140>
    9424:	00 
    9425:	66 0f 54 c1          	andpd  %xmm1,%xmm0
    9429:	66 0f 2f 05 9f 07 01 	comisd 0x1079f(%rip),%xmm0        # 19bd0 <l_2682.4231+0x150>
    9430:	00 
    9431:	76 07                	jbe    943a <safe_sub_func_double_f_f+0x55>
    9433:	f2 0f 10 45 f8       	movsd  -0x8(%rbp),%xmm0
    9438:	eb 0a                	jmp    9444 <safe_sub_func_double_f_f+0x5f>
    943a:	f2 0f 10 45 f8       	movsd  -0x8(%rbp),%xmm0
    943f:	f2 0f 5c 45 f0       	subsd  -0x10(%rbp),%xmm0
    9444:	5d                   	pop    %rbp
    9445:	c3                   	retq   

0000000000009446 <safe_mul_func_double_f_f>:
    9446:	f3 0f 1e fa          	endbr64 
    944a:	55                   	push   %rbp
    944b:	48 89 e5             	mov    %rsp,%rbp
    944e:	f2 0f 11 45 f8       	movsd  %xmm0,-0x8(%rbp)
    9453:	f2 0f 11 4d f0       	movsd  %xmm1,-0x10(%rbp)
    9458:	f2 0f 10 4d f8       	movsd  -0x8(%rbp),%xmm1
    945d:	f2 0f 10 05 73 07 01 	movsd  0x10773(%rip),%xmm0        # 19bd8 <l_2682.4231+0x158>
    9464:	00 
    9465:	f2 0f 59 c8          	mulsd  %xmm0,%xmm1
    9469:	f2 0f 10 55 f0       	movsd  -0x10(%rbp),%xmm2
    946e:	f2 0f 10 05 6a 07 01 	movsd  0x1076a(%rip),%xmm0        # 19be0 <l_2682.4231+0x160>
    9475:	00 
    9476:	f2 0f 59 c2          	mulsd  %xmm2,%xmm0
    947a:	f2 0f 59 c1          	mulsd  %xmm1,%xmm0
    947e:	f3 0f 7e 0d 3a 07 01 	movq   0x1073a(%rip),%xmm1        # 19bc0 <l_2682.4231+0x140>
    9485:	00 
    9486:	66 0f 54 c1          	andpd  %xmm1,%xmm0
    948a:	66 0f 2f 05 56 07 01 	comisd 0x10756(%rip),%xmm0        # 19be8 <l_2682.4231+0x168>
    9491:	00 
    9492:	76 07                	jbe    949b <safe_mul_func_double_f_f+0x55>
    9494:	f2 0f 10 45 f8       	movsd  -0x8(%rbp),%xmm0
    9499:	eb 0a                	jmp    94a5 <safe_mul_func_double_f_f+0x5f>
    949b:	f2 0f 10 45 f8       	movsd  -0x8(%rbp),%xmm0
    94a0:	f2 0f 59 45 f0       	mulsd  -0x10(%rbp),%xmm0
    94a5:	5d                   	pop    %rbp
    94a6:	c3                   	retq   

00000000000094a7 <safe_div_func_double_f_f>:
    94a7:	f3 0f 1e fa          	endbr64 
    94ab:	55                   	push   %rbp
    94ac:	48 89 e5             	mov    %rsp,%rbp
    94af:	f2 0f 11 45 f8       	movsd  %xmm0,-0x8(%rbp)
    94b4:	f2 0f 11 4d f0       	movsd  %xmm1,-0x10(%rbp)
    94b9:	f2 0f 10 45 f0       	movsd  -0x10(%rbp),%xmm0
    94be:	f3 0f 7e 0d fa 06 01 	movq   0x106fa(%rip),%xmm1        # 19bc0 <l_2682.4231+0x140>
    94c5:	00 
    94c6:	66 0f 54 c8          	andpd  %xmm0,%xmm1
    94ca:	f2 0f 10 05 1e 07 01 	movsd  0x1071e(%rip),%xmm0        # 19bf0 <l_2682.4231+0x170>
    94d1:	00 
    94d2:	66 0f 2f c1          	comisd %xmm1,%xmm0
    94d6:	0f 97 c0             	seta   %al
    94d9:	83 f0 01             	xor    $0x1,%eax
    94dc:	84 c0                	test   %al,%al
    94de:	75 5a                	jne    953a <safe_div_func_double_f_f+0x93>
    94e0:	66 0f ef c0          	pxor   %xmm0,%xmm0
    94e4:	66 0f 2e 45 f0       	ucomisd -0x10(%rbp),%xmm0
    94e9:	7a 0b                	jp     94f6 <safe_div_func_double_f_f+0x4f>
    94eb:	66 0f ef c0          	pxor   %xmm0,%xmm0
    94ef:	66 0f 2e 45 f0       	ucomisd -0x10(%rbp),%xmm0
    94f4:	74 50                	je     9546 <safe_div_func_double_f_f+0x9f>
    94f6:	f2 0f 10 4d f8       	movsd  -0x8(%rbp),%xmm1
    94fb:	f2 0f 10 05 f5 06 01 	movsd  0x106f5(%rip),%xmm0        # 19bf8 <l_2682.4231+0x178>
    9502:	00 
    9503:	f2 0f 59 c1          	mulsd  %xmm1,%xmm0
    9507:	f2 0f 10 55 f0       	movsd  -0x10(%rbp),%xmm2
    950c:	f2 0f 10 0d ec 06 01 	movsd  0x106ec(%rip),%xmm1        # 19c00 <l_2682.4231+0x180>
    9513:	00 
    9514:	f2 0f 59 ca          	mulsd  %xmm2,%xmm1
    9518:	f2 0f 5e c1          	divsd  %xmm1,%xmm0
    951c:	f3 0f 7e 0d 9c 06 01 	movq   0x1069c(%rip),%xmm1        # 19bc0 <l_2682.4231+0x140>
    9523:	00 
    9524:	66 0f 54 c1          	andpd  %xmm1,%xmm0
    9528:	66 0f 2f 05 d8 06 01 	comisd 0x106d8(%rip),%xmm0        # 19c08 <l_2682.4231+0x188>
    952f:	00 
    9530:	0f 97 c0             	seta   %al
    9533:	83 f0 01             	xor    $0x1,%eax
    9536:	84 c0                	test   %al,%al
    9538:	74 0c                	je     9546 <safe_div_func_double_f_f+0x9f>
    953a:	f2 0f 10 45 f8       	movsd  -0x8(%rbp),%xmm0
    953f:	f2 0f 5e 45 f0       	divsd  -0x10(%rbp),%xmm0
    9544:	eb 05                	jmp    954b <safe_div_func_double_f_f+0xa4>
    9546:	f2 0f 10 45 f8       	movsd  -0x8(%rbp),%xmm0
    954b:	5d                   	pop    %rbp
    954c:	c3                   	retq   

000000000000954d <safe_convert_func_float_to_int32_t>:
    954d:	f3 0f 1e fa          	endbr64 
    9551:	55                   	push   %rbp
    9552:	48 89 e5             	mov    %rsp,%rbp
    9555:	f3 0f 11 45 fc       	movss  %xmm0,-0x4(%rbp)
    955a:	f3 0f 10 05 ae 06 01 	movss  0x106ae(%rip),%xmm0        # 19c10 <l_2682.4231+0x190>
    9561:	00 
    9562:	0f 2f 45 fc          	comiss -0x4(%rbp),%xmm0
    9566:	0f 93 c0             	setae  %al
    9569:	83 f0 01             	xor    $0x1,%eax
    956c:	84 c0                	test   %al,%al
    956e:	74 21                	je     9591 <safe_convert_func_float_to_int32_t+0x44>
    9570:	f3 0f 10 45 fc       	movss  -0x4(%rbp),%xmm0
    9575:	0f 2f 05 98 06 01 00 	comiss 0x10698(%rip),%xmm0        # 19c14 <l_2682.4231+0x194>
    957c:	0f 93 c0             	setae  %al
    957f:	83 f0 01             	xor    $0x1,%eax
    9582:	84 c0                	test   %al,%al
    9584:	74 0b                	je     9591 <safe_convert_func_float_to_int32_t+0x44>
    9586:	f3 0f 10 45 fc       	movss  -0x4(%rbp),%xmm0
    958b:	f3 0f 2c c0          	cvttss2si %xmm0,%eax
    958f:	eb 05                	jmp    9596 <safe_convert_func_float_to_int32_t+0x49>
    9591:	b8 ff ff ff 7f       	mov    $0x7fffffff,%eax
    9596:	5d                   	pop    %rbp
    9597:	c3                   	retq   

0000000000009598 <crc32_gentab>:
    9598:	f3 0f 1e fa          	endbr64 
    959c:	55                   	push   %rbp
    959d:	48 89 e5             	mov    %rsp,%rbp
    95a0:	c7 45 fc 20 83 b8 ed 	movl   $0xedb88320,-0x4(%rbp)
    95a7:	c7 45 f4 00 00 00 00 	movl   $0x0,-0xc(%rbp)
    95ae:	eb 51                	jmp    9601 <crc32_gentab+0x69>
    95b0:	8b 45 f4             	mov    -0xc(%rbp),%eax
    95b3:	89 45 f0             	mov    %eax,-0x10(%rbp)
    95b6:	c7 45 f8 08 00 00 00 	movl   $0x8,-0x8(%rbp)
    95bd:	eb 1e                	jmp    95dd <crc32_gentab+0x45>
    95bf:	8b 45 f0             	mov    -0x10(%rbp),%eax
    95c2:	83 e0 01             	and    $0x1,%eax
    95c5:	85 c0                	test   %eax,%eax
    95c7:	74 0d                	je     95d6 <crc32_gentab+0x3e>
    95c9:	8b 45 f0             	mov    -0x10(%rbp),%eax
    95cc:	d1 e8                	shr    %eax
    95ce:	33 45 fc             	xor    -0x4(%rbp),%eax
    95d1:	89 45 f0             	mov    %eax,-0x10(%rbp)
    95d4:	eb 03                	jmp    95d9 <crc32_gentab+0x41>
    95d6:	d1 6d f0             	shrl   -0x10(%rbp)
    95d9:	83 6d f8 01          	subl   $0x1,-0x8(%rbp)
    95dd:	83 7d f8 00          	cmpl   $0x0,-0x8(%rbp)
    95e1:	7f dc                	jg     95bf <crc32_gentab+0x27>
    95e3:	8b 45 f4             	mov    -0xc(%rbp),%eax
    95e6:	48 98                	cltq   
    95e8:	48 8d 0c 85 00 00 00 	lea    0x0(,%rax,4),%rcx
    95ef:	00 
    95f0:	48 8d 15 49 71 01 00 	lea    0x17149(%rip),%rdx        # 20740 <crc32_tab>
    95f7:	8b 45 f0             	mov    -0x10(%rbp),%eax
    95fa:	89 04 11             	mov    %eax,(%rcx,%rdx,1)
    95fd:	83 45 f4 01          	addl   $0x1,-0xc(%rbp)
    9601:	81 7d f4 ff 00 00 00 	cmpl   $0xff,-0xc(%rbp)
    9608:	7e a6                	jle    95b0 <crc32_gentab+0x18>
    960a:	90                   	nop
    960b:	90                   	nop
    960c:	5d                   	pop    %rbp
    960d:	c3                   	retq   

000000000000960e <crc32_byte>:
    960e:	f3 0f 1e fa          	endbr64 
    9612:	55                   	push   %rbp
    9613:	48 89 e5             	mov    %rsp,%rbp
    9616:	89 f8                	mov    %edi,%eax
    9618:	88 45 fc             	mov    %al,-0x4(%rbp)
    961b:	8b 05 ff 39 01 00    	mov    0x139ff(%rip),%eax        # 1d020 <crc32_context>
    9621:	c1 e8 08             	shr    $0x8,%eax
    9624:	89 c1                	mov    %eax,%ecx
    9626:	0f b6 55 fc          	movzbl -0x4(%rbp),%edx
    962a:	8b 05 f0 39 01 00    	mov    0x139f0(%rip),%eax        # 1d020 <crc32_context>
    9630:	31 d0                	xor    %edx,%eax
    9632:	0f b6 c0             	movzbl %al,%eax
    9635:	89 c0                	mov    %eax,%eax
    9637:	48 8d 14 85 00 00 00 	lea    0x0(,%rax,4),%rdx
    963e:	00 
    963f:	48 8d 05 fa 70 01 00 	lea    0x170fa(%rip),%rax        # 20740 <crc32_tab>
    9646:	8b 04 02             	mov    (%rdx,%rax,1),%eax
    9649:	31 c8                	xor    %ecx,%eax
    964b:	89 05 cf 39 01 00    	mov    %eax,0x139cf(%rip)        # 1d020 <crc32_context>
    9651:	90                   	nop
    9652:	5d                   	pop    %rbp
    9653:	c3                   	retq   

0000000000009654 <crc32_8bytes>:
    9654:	f3 0f 1e fa          	endbr64 
    9658:	55                   	push   %rbp
    9659:	48 89 e5             	mov    %rsp,%rbp
    965c:	48 83 ec 08          	sub    $0x8,%rsp
    9660:	48 89 7d f8          	mov    %rdi,-0x8(%rbp)
    9664:	48 8b 45 f8          	mov    -0x8(%rbp),%rax
    9668:	0f b6 c0             	movzbl %al,%eax
    966b:	89 c7                	mov    %eax,%edi
    966d:	e8 9c ff ff ff       	callq  960e <crc32_byte>
    9672:	48 8b 45 f8          	mov    -0x8(%rbp),%rax
    9676:	48 c1 e8 08          	shr    $0x8,%rax
    967a:	0f b6 c0             	movzbl %al,%eax
    967d:	89 c7                	mov    %eax,%edi
    967f:	e8 8a ff ff ff       	callq  960e <crc32_byte>
    9684:	48 8b 45 f8          	mov    -0x8(%rbp),%rax
    9688:	48 c1 e8 10          	shr    $0x10,%rax
    968c:	0f b6 c0             	movzbl %al,%eax
    968f:	89 c7                	mov    %eax,%edi
    9691:	e8 78 ff ff ff       	callq  960e <crc32_byte>
    9696:	48 8b 45 f8          	mov    -0x8(%rbp),%rax
    969a:	48 c1 e8 18          	shr    $0x18,%rax
    969e:	0f b6 c0             	movzbl %al,%eax
    96a1:	89 c7                	mov    %eax,%edi
    96a3:	e8 66 ff ff ff       	callq  960e <crc32_byte>
    96a8:	48 8b 45 f8          	mov    -0x8(%rbp),%rax
    96ac:	48 c1 e8 20          	shr    $0x20,%rax
    96b0:	0f b6 c0             	movzbl %al,%eax
    96b3:	89 c7                	mov    %eax,%edi
    96b5:	e8 54 ff ff ff       	callq  960e <crc32_byte>
    96ba:	48 8b 45 f8          	mov    -0x8(%rbp),%rax
    96be:	48 c1 e8 28          	shr    $0x28,%rax
    96c2:	0f b6 c0             	movzbl %al,%eax
    96c5:	89 c7                	mov    %eax,%edi
    96c7:	e8 42 ff ff ff       	callq  960e <crc32_byte>
    96cc:	48 8b 45 f8          	mov    -0x8(%rbp),%rax
    96d0:	48 c1 e8 30          	shr    $0x30,%rax
    96d4:	0f b6 c0             	movzbl %al,%eax
    96d7:	89 c7                	mov    %eax,%edi
    96d9:	e8 30 ff ff ff       	callq  960e <crc32_byte>
    96de:	48 8b 45 f8          	mov    -0x8(%rbp),%rax
    96e2:	48 c1 e8 38          	shr    $0x38,%rax
    96e6:	0f b6 c0             	movzbl %al,%eax
    96e9:	89 c7                	mov    %eax,%edi
    96eb:	e8 1e ff ff ff       	callq  960e <crc32_byte>
    96f0:	90                   	nop
    96f1:	c9                   	leaveq 
    96f2:	c3                   	retq   

00000000000096f3 <transparent_crc>:
    96f3:	f3 0f 1e fa          	endbr64 
    96f7:	55                   	push   %rbp
    96f8:	48 89 e5             	mov    %rsp,%rbp
    96fb:	48 83 ec 20          	sub    $0x20,%rsp
    96ff:	48 89 7d f8          	mov    %rdi,-0x8(%rbp)
    9703:	48 89 75 f0          	mov    %rsi,-0x10(%rbp)
    9707:	89 55 ec             	mov    %edx,-0x14(%rbp)
    970a:	48 8b 45 f8          	mov    -0x8(%rbp),%rax
    970e:	48 89 c7             	mov    %rax,%rdi
    9711:	e8 3e ff ff ff       	callq  9654 <crc32_8bytes>
    9716:	83 7d ec 00          	cmpl   $0x0,-0x14(%rbp)
    971a:	74 22                	je     973e <transparent_crc+0x4b>
    971c:	8b 05 fe 38 01 00    	mov    0x138fe(%rip),%eax        # 1d020 <crc32_context>
    9722:	f7 d0                	not    %eax
    9724:	89 c2                	mov    %eax,%edx
    9726:	48 8b 45 f0          	mov    -0x10(%rbp),%rax
    972a:	48 89 c6             	mov    %rax,%rsi
    972d:	48 8d 3d fc f8 00 00 	lea    0xf8fc(%rip),%rdi        # 19030 <_IO_stdin_used+0x30>
    9734:	b8 00 00 00 00       	mov    $0x0,%eax
    9739:	e8 42 e9 ff ff       	callq  8080 <printf@plt>
    973e:	90                   	nop
    973f:	c9                   	leaveq 
    9740:	c3                   	retq   

0000000000009741 <transparent_crc_bytes>:
    9741:	f3 0f 1e fa          	endbr64 
    9745:	55                   	push   %rbp
    9746:	48 89 e5             	mov    %rsp,%rbp
    9749:	48 83 ec 30          	sub    $0x30,%rsp
    974d:	48 89 7d e8          	mov    %rdi,-0x18(%rbp)
    9751:	89 75 e4             	mov    %esi,-0x1c(%rbp)
    9754:	48 89 55 d8          	mov    %rdx,-0x28(%rbp)
    9758:	89 4d e0             	mov    %ecx,-0x20(%rbp)
    975b:	c7 45 fc 00 00 00 00 	movl   $0x0,-0x4(%rbp)
    9762:	eb 1e                	jmp    9782 <transparent_crc_bytes+0x41>
    9764:	8b 45 fc             	mov    -0x4(%rbp),%eax
    9767:	48 63 d0             	movslq %eax,%rdx
    976a:	48 8b 45 e8          	mov    -0x18(%rbp),%rax
    976e:	48 01 d0             	add    %rdx,%rax
    9771:	0f b6 00             	movzbl (%rax),%eax
    9774:	0f b6 c0             	movzbl %al,%eax
    9777:	89 c7                	mov    %eax,%edi
    9779:	e8 90 fe ff ff       	callq  960e <crc32_byte>
    977e:	83 45 fc 01          	addl   $0x1,-0x4(%rbp)
    9782:	8b 45 fc             	mov    -0x4(%rbp),%eax
    9785:	3b 45 e4             	cmp    -0x1c(%rbp),%eax
    9788:	7c da                	jl     9764 <transparent_crc_bytes+0x23>
    978a:	83 7d e0 00          	cmpl   $0x0,-0x20(%rbp)
    978e:	74 22                	je     97b2 <transparent_crc_bytes+0x71>
    9790:	8b 05 8a 38 01 00    	mov    0x1388a(%rip),%eax        # 1d020 <crc32_context>
    9796:	f7 d0                	not    %eax
    9798:	89 c2                	mov    %eax,%edx
    979a:	48 8b 45 d8          	mov    -0x28(%rbp),%rax
    979e:	48 89 c6             	mov    %rax,%rsi
    97a1:	48 8d 3d 88 f8 00 00 	lea    0xf888(%rip),%rdi        # 19030 <_IO_stdin_used+0x30>
    97a8:	b8 00 00 00 00       	mov    $0x0,%eax
    97ad:	e8 ce e8 ff ff       	callq  8080 <printf@plt>
    97b2:	90                   	nop
    97b3:	c9                   	leaveq 
    97b4:	c3                   	retq   

00000000000097b5 <func_1>:
    97b5:	f3 0f 1e fa          	endbr64 
    97b9:	55                   	push   %rbp
    97ba:	48 89 e5             	mov    %rsp,%rbp
    97bd:	41 57                	push   %r15
    97bf:	41 56                	push   %r14
    97c1:	41 55                	push   %r13
    97c3:	41 54                	push   %r12
    97c5:	53                   	push   %rbx
    97c6:	48 81 ec 58 0e 00 00 	sub    $0xe58,%rsp
    97cd:	64 48 8b 04 25 28 00 	mov    %fs:0x28,%rax
    97d4:	00 00 
    97d6:	48 89 45 c8          	mov    %rax,-0x38(%rbp)
    97da:	31 c0                	xor    %eax,%eax
    97dc:	c7 85 d0 f1 ff ff 02 	movl   $0x2,-0xe30(%rbp)
    97e3:	00 00 00 
    97e6:	48 8d 05 3b 38 01 00 	lea    0x1383b(%rip),%rax        # 1d028 <g_41>
    97ed:	48 89 85 e0 f1 ff ff 	mov    %rax,-0xe20(%rbp)
    97f4:	48 c7 85 e8 f1 ff ff 	movq   $0x0,-0xe18(%rbp)
    97fb:	00 00 00 00 
    97ff:	c7 85 e8 f1 ff ff f7 	movl   $0xfffffff7,-0xe18(%rbp)
    9806:	ff ff ff 
    9809:	c6 85 bd f1 ff ff f5 	movb   $0xf5,-0xe43(%rbp)
    9810:	48 8d 05 21 38 01 00 	lea    0x13821(%rip),%rax        # 1d038 <g_91>
    9817:	48 89 85 b0 f2 ff ff 	mov    %rax,-0xd50(%rbp)
    981e:	48 8d 05 13 38 01 00 	lea    0x13813(%rip),%rax        # 1d038 <g_91>
    9825:	48 89 85 b8 f2 ff ff 	mov    %rax,-0xd48(%rbp)
    982c:	48 8d 05 05 38 01 00 	lea    0x13805(%rip),%rax        # 1d038 <g_91>
    9833:	48 89 85 c0 f2 ff ff 	mov    %rax,-0xd40(%rbp)
    983a:	48 8d 05 f7 37 01 00 	lea    0x137f7(%rip),%rax        # 1d038 <g_91>
    9841:	48 89 85 c8 f2 ff ff 	mov    %rax,-0xd38(%rbp)
    9848:	48 8d 05 e9 37 01 00 	lea    0x137e9(%rip),%rax        # 1d038 <g_91>
    984f:	48 89 85 d0 f2 ff ff 	mov    %rax,-0xd30(%rbp)
    9856:	48 8d 05 db 37 01 00 	lea    0x137db(%rip),%rax        # 1d038 <g_91>
    985d:	48 89 85 d8 f2 ff ff 	mov    %rax,-0xd28(%rbp)
    9864:	c7 85 d4 f1 ff ff c5 	movl   $0xfb796cc5,-0xe2c(%rbp)
    986b:	6c 79 fb 
    986e:	c7 85 c4 f1 ff ff 0b 	movl   $0xbf487c0b,-0xe3c(%rbp)
    9875:	7c 48 bf 
    9878:	c7 85 d8 f1 ff ff 11 	movl   $0x7020d111,-0xe28(%rbp)
    987f:	d1 20 70 
    9882:	48 8d 05 7b 3c 01 00 	lea    0x13c7b(%rip),%rax        # 1d504 <g_647>
    9889:	48 89 85 18 f2 ff ff 	mov    %rax,-0xde8(%rbp)
    9890:	66 c7 85 c0 f1 ff ff 	movw   $0x7,-0xe40(%rbp)
    9897:	07 00 
    9899:	48 8d 05 fc 3c 01 00 	lea    0x13cfc(%rip),%rax        # 1d59c <g_2224+0x1c>
    98a0:	48 89 85 20 f2 ff ff 	mov    %rax,-0xde0(%rbp)
    98a7:	48 8d 05 aa 64 01 00 	lea    0x164aa(%rip),%rax        # 1fd58 <g_701>
    98ae:	48 89 85 90 f2 ff ff 	mov    %rax,-0xd70(%rbp)
    98b5:	48 8d 05 9c 64 01 00 	lea    0x1649c(%rip),%rax        # 1fd58 <g_701>
    98bc:	48 89 85 98 f2 ff ff 	mov    %rax,-0xd68(%rbp)
    98c3:	48 8d 05 8e 64 01 00 	lea    0x1648e(%rip),%rax        # 1fd58 <g_701>
    98ca:	48 89 85 a0 f2 ff ff 	mov    %rax,-0xd60(%rbp)
    98d1:	48 8d 05 80 64 01 00 	lea    0x16480(%rip),%rax        # 1fd58 <g_701>
    98d8:	48 89 85 a8 f2 ff ff 	mov    %rax,-0xd58(%rbp)
    98df:	48 8d 85 90 f2 ff ff 	lea    -0xd70(%rbp),%rax
    98e6:	48 83 c0 08          	add    $0x8,%rax
    98ea:	48 89 85 80 f4 ff ff 	mov    %rax,-0xb80(%rbp)
    98f1:	48 8d 85 90 f2 ff ff 	lea    -0xd70(%rbp),%rax
    98f8:	48 83 c0 08          	add    $0x8,%rax
    98fc:	48 89 85 88 f4 ff ff 	mov    %rax,-0xb78(%rbp)
    9903:	48 8d 85 90 f2 ff ff 	lea    -0xd70(%rbp),%rax
    990a:	48 83 c0 08          	add    $0x8,%rax
    990e:	48 89 85 90 f4 ff ff 	mov    %rax,-0xb70(%rbp)
    9915:	48 8d 85 90 f2 ff ff 	lea    -0xd70(%rbp),%rax
    991c:	48 83 c0 08          	add    $0x8,%rax
    9920:	48 89 85 98 f4 ff ff 	mov    %rax,-0xb68(%rbp)
    9927:	48 8d 85 90 f2 ff ff 	lea    -0xd70(%rbp),%rax
    992e:	48 83 c0 08          	add    $0x8,%rax
    9932:	48 89 85 a0 f4 ff ff 	mov    %rax,-0xb60(%rbp)
    9939:	48 8d 85 90 f2 ff ff 	lea    -0xd70(%rbp),%rax
    9940:	48 83 c0 08          	add    $0x8,%rax
    9944:	48 89 85 a8 f4 ff ff 	mov    %rax,-0xb58(%rbp)
    994b:	48 8d 85 90 f2 ff ff 	lea    -0xd70(%rbp),%rax
    9952:	48 83 c0 08          	add    $0x8,%rax
    9956:	48 89 85 b0 f4 ff ff 	mov    %rax,-0xb50(%rbp)
    995d:	48 8d 85 90 f2 ff ff 	lea    -0xd70(%rbp),%rax
    9964:	48 83 c0 08          	add    $0x8,%rax
    9968:	48 89 85 b8 f4 ff ff 	mov    %rax,-0xb48(%rbp)
    996f:	48 8d 85 90 f2 ff ff 	lea    -0xd70(%rbp),%rax
    9976:	48 83 c0 08          	add    $0x8,%rax
    997a:	48 89 85 c0 f4 ff ff 	mov    %rax,-0xb40(%rbp)
    9981:	48 8d 85 90 f2 ff ff 	lea    -0xd70(%rbp),%rax
    9988:	48 83 c0 08          	add    $0x8,%rax
    998c:	48 89 85 c8 f4 ff ff 	mov    %rax,-0xb38(%rbp)
    9993:	48 8d 85 90 f2 ff ff 	lea    -0xd70(%rbp),%rax
    999a:	48 83 c0 08          	add    $0x8,%rax
    999e:	48 89 85 d0 f4 ff ff 	mov    %rax,-0xb30(%rbp)
    99a5:	48 8d 85 90 f2 ff ff 	lea    -0xd70(%rbp),%rax
    99ac:	48 83 c0 08          	add    $0x8,%rax
    99b0:	48 89 85 d8 f4 ff ff 	mov    %rax,-0xb28(%rbp)
    99b7:	48 8d 85 90 f2 ff ff 	lea    -0xd70(%rbp),%rax
    99be:	48 83 c0 08          	add    $0x8,%rax
    99c2:	48 89 85 e0 f4 ff ff 	mov    %rax,-0xb20(%rbp)
    99c9:	48 8d 85 90 f2 ff ff 	lea    -0xd70(%rbp),%rax
    99d0:	48 83 c0 08          	add    $0x8,%rax
    99d4:	48 89 85 e8 f4 ff ff 	mov    %rax,-0xb18(%rbp)
    99db:	48 8d 85 90 f2 ff ff 	lea    -0xd70(%rbp),%rax
    99e2:	48 83 c0 08          	add    $0x8,%rax
    99e6:	48 89 85 f0 f4 ff ff 	mov    %rax,-0xb10(%rbp)
    99ed:	48 8d 85 90 f2 ff ff 	lea    -0xd70(%rbp),%rax
    99f4:	48 83 c0 08          	add    $0x8,%rax
    99f8:	48 89 85 f8 f4 ff ff 	mov    %rax,-0xb08(%rbp)
    99ff:	48 8d 85 90 f2 ff ff 	lea    -0xd70(%rbp),%rax
    9a06:	48 83 c0 08          	add    $0x8,%rax
    9a0a:	48 89 85 00 f5 ff ff 	mov    %rax,-0xb00(%rbp)
    9a11:	48 8d 85 90 f2 ff ff 	lea    -0xd70(%rbp),%rax
    9a18:	48 83 c0 08          	add    $0x8,%rax
    9a1c:	48 89 85 08 f5 ff ff 	mov    %rax,-0xaf8(%rbp)
    9a23:	48 8d 85 90 f2 ff ff 	lea    -0xd70(%rbp),%rax
    9a2a:	48 83 c0 08          	add    $0x8,%rax
    9a2e:	48 89 85 10 f5 ff ff 	mov    %rax,-0xaf0(%rbp)
    9a35:	48 8d 85 90 f2 ff ff 	lea    -0xd70(%rbp),%rax
    9a3c:	48 83 c0 08          	add    $0x8,%rax
    9a40:	48 89 85 18 f5 ff ff 	mov    %rax,-0xae8(%rbp)
    9a47:	48 8d 85 90 f2 ff ff 	lea    -0xd70(%rbp),%rax
    9a4e:	48 83 c0 08          	add    $0x8,%rax
    9a52:	48 89 85 20 f5 ff ff 	mov    %rax,-0xae0(%rbp)
    9a59:	48 8d 85 90 f2 ff ff 	lea    -0xd70(%rbp),%rax
    9a60:	48 83 c0 08          	add    $0x8,%rax
    9a64:	48 89 85 28 f5 ff ff 	mov    %rax,-0xad8(%rbp)
    9a6b:	48 8d 85 90 f2 ff ff 	lea    -0xd70(%rbp),%rax
    9a72:	48 83 c0 08          	add    $0x8,%rax
    9a76:	48 89 85 30 f5 ff ff 	mov    %rax,-0xad0(%rbp)
    9a7d:	48 8d 85 90 f2 ff ff 	lea    -0xd70(%rbp),%rax
    9a84:	48 83 c0 08          	add    $0x8,%rax
    9a88:	48 89 85 38 f5 ff ff 	mov    %rax,-0xac8(%rbp)
    9a8f:	48 8d 85 90 f2 ff ff 	lea    -0xd70(%rbp),%rax
    9a96:	48 83 c0 08          	add    $0x8,%rax
    9a9a:	48 89 85 40 f5 ff ff 	mov    %rax,-0xac0(%rbp)
    9aa1:	48 8d 85 90 f2 ff ff 	lea    -0xd70(%rbp),%rax
    9aa8:	48 83 c0 08          	add    $0x8,%rax
    9aac:	48 89 85 48 f5 ff ff 	mov    %rax,-0xab8(%rbp)
    9ab3:	48 8d 85 90 f2 ff ff 	lea    -0xd70(%rbp),%rax
    9aba:	48 83 c0 08          	add    $0x8,%rax
    9abe:	48 89 85 50 f5 ff ff 	mov    %rax,-0xab0(%rbp)
    9ac5:	48 8d 85 90 f2 ff ff 	lea    -0xd70(%rbp),%rax
    9acc:	48 83 c0 08          	add    $0x8,%rax
    9ad0:	48 89 85 58 f5 ff ff 	mov    %rax,-0xaa8(%rbp)
    9ad7:	48 8d 85 90 f2 ff ff 	lea    -0xd70(%rbp),%rax
    9ade:	48 83 c0 08          	add    $0x8,%rax
    9ae2:	48 89 85 60 f5 ff ff 	mov    %rax,-0xaa0(%rbp)
    9ae9:	48 8d 85 90 f2 ff ff 	lea    -0xd70(%rbp),%rax
    9af0:	48 83 c0 08          	add    $0x8,%rax
    9af4:	48 89 85 68 f5 ff ff 	mov    %rax,-0xa98(%rbp)
    9afb:	48 8d 85 90 f2 ff ff 	lea    -0xd70(%rbp),%rax
    9b02:	48 83 c0 08          	add    $0x8,%rax
    9b06:	48 89 85 70 f5 ff ff 	mov    %rax,-0xa90(%rbp)
    9b0d:	48 8d 85 90 f2 ff ff 	lea    -0xd70(%rbp),%rax
    9b14:	48 83 c0 08          	add    $0x8,%rax
    9b18:	48 89 85 78 f5 ff ff 	mov    %rax,-0xa88(%rbp)
    9b1f:	48 8d 85 90 f2 ff ff 	lea    -0xd70(%rbp),%rax
    9b26:	48 83 c0 08          	add    $0x8,%rax
    9b2a:	48 89 85 80 f5 ff ff 	mov    %rax,-0xa80(%rbp)
    9b31:	48 8d 85 90 f2 ff ff 	lea    -0xd70(%rbp),%rax
    9b38:	48 83 c0 08          	add    $0x8,%rax
    9b3c:	48 89 85 88 f5 ff ff 	mov    %rax,-0xa78(%rbp)
    9b43:	48 8d 85 90 f2 ff ff 	lea    -0xd70(%rbp),%rax
    9b4a:	48 83 c0 08          	add    $0x8,%rax
    9b4e:	48 89 85 90 f5 ff ff 	mov    %rax,-0xa70(%rbp)
    9b55:	48 8d 85 90 f2 ff ff 	lea    -0xd70(%rbp),%rax
    9b5c:	48 83 c0 08          	add    $0x8,%rax
    9b60:	48 89 85 98 f5 ff ff 	mov    %rax,-0xa68(%rbp)
    9b67:	48 8d 85 90 f2 ff ff 	lea    -0xd70(%rbp),%rax
    9b6e:	48 83 c0 08          	add    $0x8,%rax
    9b72:	48 89 85 a0 f5 ff ff 	mov    %rax,-0xa60(%rbp)
    9b79:	48 8d 85 90 f2 ff ff 	lea    -0xd70(%rbp),%rax
    9b80:	48 83 c0 08          	add    $0x8,%rax
    9b84:	48 89 85 a8 f5 ff ff 	mov    %rax,-0xa58(%rbp)
    9b8b:	48 8d 85 90 f2 ff ff 	lea    -0xd70(%rbp),%rax
    9b92:	48 83 c0 08          	add    $0x8,%rax
    9b96:	48 89 85 b0 f5 ff ff 	mov    %rax,-0xa50(%rbp)
    9b9d:	48 8d 85 90 f2 ff ff 	lea    -0xd70(%rbp),%rax
    9ba4:	48 83 c0 08          	add    $0x8,%rax
    9ba8:	48 89 85 b8 f5 ff ff 	mov    %rax,-0xa48(%rbp)
    9baf:	48 8d 85 90 f2 ff ff 	lea    -0xd70(%rbp),%rax
    9bb6:	48 83 c0 08          	add    $0x8,%rax
    9bba:	48 89 85 c0 f5 ff ff 	mov    %rax,-0xa40(%rbp)
    9bc1:	48 8d 85 90 f2 ff ff 	lea    -0xd70(%rbp),%rax
    9bc8:	48 83 c0 08          	add    $0x8,%rax
    9bcc:	48 89 85 c8 f5 ff ff 	mov    %rax,-0xa38(%rbp)
    9bd3:	48 8d 85 90 f2 ff ff 	lea    -0xd70(%rbp),%rax
    9bda:	48 83 c0 08          	add    $0x8,%rax
    9bde:	48 89 85 d0 f5 ff ff 	mov    %rax,-0xa30(%rbp)
    9be5:	48 8d 85 90 f2 ff ff 	lea    -0xd70(%rbp),%rax
    9bec:	48 83 c0 08          	add    $0x8,%rax
    9bf0:	48 89 85 d8 f5 ff ff 	mov    %rax,-0xa28(%rbp)
    9bf7:	48 8d 85 90 f2 ff ff 	lea    -0xd70(%rbp),%rax
    9bfe:	48 83 c0 08          	add    $0x8,%rax
    9c02:	48 89 85 e0 f5 ff ff 	mov    %rax,-0xa20(%rbp)
    9c09:	48 8d 85 90 f2 ff ff 	lea    -0xd70(%rbp),%rax
    9c10:	48 83 c0 08          	add    $0x8,%rax
    9c14:	48 89 85 e8 f5 ff ff 	mov    %rax,-0xa18(%rbp)
    9c1b:	48 8d 85 90 f2 ff ff 	lea    -0xd70(%rbp),%rax
    9c22:	48 83 c0 08          	add    $0x8,%rax
    9c26:	48 89 85 f0 f5 ff ff 	mov    %rax,-0xa10(%rbp)
    9c2d:	48 8d 85 90 f2 ff ff 	lea    -0xd70(%rbp),%rax
    9c34:	48 83 c0 08          	add    $0x8,%rax
    9c38:	48 89 85 f8 f5 ff ff 	mov    %rax,-0xa08(%rbp)
    9c3f:	48 8d 85 90 f2 ff ff 	lea    -0xd70(%rbp),%rax
    9c46:	48 83 c0 08          	add    $0x8,%rax
    9c4a:	48 89 85 00 f6 ff ff 	mov    %rax,-0xa00(%rbp)
    9c51:	48 8d 85 90 f2 ff ff 	lea    -0xd70(%rbp),%rax
    9c58:	48 83 c0 08          	add    $0x8,%rax
    9c5c:	48 89 85 08 f6 ff ff 	mov    %rax,-0x9f8(%rbp)
    9c63:	48 8d 85 90 f2 ff ff 	lea    -0xd70(%rbp),%rax
    9c6a:	48 83 c0 08          	add    $0x8,%rax
    9c6e:	48 89 85 10 f6 ff ff 	mov    %rax,-0x9f0(%rbp)
    9c75:	48 8d 85 90 f2 ff ff 	lea    -0xd70(%rbp),%rax
    9c7c:	48 83 c0 08          	add    $0x8,%rax
    9c80:	48 89 85 18 f6 ff ff 	mov    %rax,-0x9e8(%rbp)
    9c87:	48 8d 85 90 f2 ff ff 	lea    -0xd70(%rbp),%rax
    9c8e:	48 83 c0 08          	add    $0x8,%rax
    9c92:	48 89 85 20 f6 ff ff 	mov    %rax,-0x9e0(%rbp)
    9c99:	48 8d 85 90 f2 ff ff 	lea    -0xd70(%rbp),%rax
    9ca0:	48 83 c0 08          	add    $0x8,%rax
    9ca4:	48 89 85 28 f6 ff ff 	mov    %rax,-0x9d8(%rbp)
    9cab:	48 8d 85 90 f2 ff ff 	lea    -0xd70(%rbp),%rax
    9cb2:	48 83 c0 08          	add    $0x8,%rax
    9cb6:	48 89 85 30 f6 ff ff 	mov    %rax,-0x9d0(%rbp)
    9cbd:	48 8d 85 90 f2 ff ff 	lea    -0xd70(%rbp),%rax
    9cc4:	48 83 c0 08          	add    $0x8,%rax
    9cc8:	48 89 85 38 f6 ff ff 	mov    %rax,-0x9c8(%rbp)
    9ccf:	48 8d 85 90 f2 ff ff 	lea    -0xd70(%rbp),%rax
    9cd6:	48 83 c0 08          	add    $0x8,%rax
    9cda:	48 89 85 40 f6 ff ff 	mov    %rax,-0x9c0(%rbp)
    9ce1:	48 8d 85 90 f2 ff ff 	lea    -0xd70(%rbp),%rax
    9ce8:	48 83 c0 08          	add    $0x8,%rax
    9cec:	48 89 85 48 f6 ff ff 	mov    %rax,-0x9b8(%rbp)
    9cf3:	48 8d 85 90 f2 ff ff 	lea    -0xd70(%rbp),%rax
    9cfa:	48 83 c0 08          	add    $0x8,%rax
    9cfe:	48 89 85 50 f6 ff ff 	mov    %rax,-0x9b0(%rbp)
    9d05:	48 8d 85 90 f2 ff ff 	lea    -0xd70(%rbp),%rax
    9d0c:	48 83 c0 08          	add    $0x8,%rax
    9d10:	48 89 85 58 f6 ff ff 	mov    %rax,-0x9a8(%rbp)
    9d17:	48 8d 85 90 f2 ff ff 	lea    -0xd70(%rbp),%rax
    9d1e:	48 83 c0 08          	add    $0x8,%rax
    9d22:	48 89 85 60 f6 ff ff 	mov    %rax,-0x9a0(%rbp)
    9d29:	48 8d 85 90 f2 ff ff 	lea    -0xd70(%rbp),%rax
    9d30:	48 83 c0 08          	add    $0x8,%rax
    9d34:	48 89 85 68 f6 ff ff 	mov    %rax,-0x998(%rbp)
    9d3b:	48 8d 85 90 f2 ff ff 	lea    -0xd70(%rbp),%rax
    9d42:	48 83 c0 08          	add    $0x8,%rax
    9d46:	48 89 85 70 f6 ff ff 	mov    %rax,-0x990(%rbp)
    9d4d:	48 8d 85 90 f2 ff ff 	lea    -0xd70(%rbp),%rax
    9d54:	48 83 c0 08          	add    $0x8,%rax
    9d58:	48 89 85 78 f6 ff ff 	mov    %rax,-0x988(%rbp)
    9d5f:	48 8d 85 90 f2 ff ff 	lea    -0xd70(%rbp),%rax
    9d66:	48 83 c0 08          	add    $0x8,%rax
    9d6a:	48 89 85 80 f6 ff ff 	mov    %rax,-0x980(%rbp)
    9d71:	48 8d 85 90 f2 ff ff 	lea    -0xd70(%rbp),%rax
    9d78:	48 83 c0 08          	add    $0x8,%rax
    9d7c:	48 89 85 88 f6 ff ff 	mov    %rax,-0x978(%rbp)
    9d83:	48 8d 85 90 f2 ff ff 	lea    -0xd70(%rbp),%rax
    9d8a:	48 83 c0 08          	add    $0x8,%rax
    9d8e:	48 89 85 90 f6 ff ff 	mov    %rax,-0x970(%rbp)
    9d95:	48 8d 85 90 f2 ff ff 	lea    -0xd70(%rbp),%rax
    9d9c:	48 83 c0 08          	add    $0x8,%rax
    9da0:	48 89 85 98 f6 ff ff 	mov    %rax,-0x968(%rbp)
    9da7:	48 8d 85 90 f2 ff ff 	lea    -0xd70(%rbp),%rax
    9dae:	48 83 c0 08          	add    $0x8,%rax
    9db2:	48 89 85 a0 f6 ff ff 	mov    %rax,-0x960(%rbp)
    9db9:	48 8d 85 90 f2 ff ff 	lea    -0xd70(%rbp),%rax
    9dc0:	48 83 c0 08          	add    $0x8,%rax
    9dc4:	48 89 85 a8 f6 ff ff 	mov    %rax,-0x958(%rbp)
    9dcb:	48 8d 85 90 f2 ff ff 	lea    -0xd70(%rbp),%rax
    9dd2:	48 83 c0 08          	add    $0x8,%rax
    9dd6:	48 89 85 b0 f6 ff ff 	mov    %rax,-0x950(%rbp)
    9ddd:	48 8d 85 90 f2 ff ff 	lea    -0xd70(%rbp),%rax
    9de4:	48 83 c0 08          	add    $0x8,%rax
    9de8:	48 89 85 b8 f6 ff ff 	mov    %rax,-0x948(%rbp)
    9def:	48 8d 85 90 f2 ff ff 	lea    -0xd70(%rbp),%rax
    9df6:	48 83 c0 08          	add    $0x8,%rax
    9dfa:	48 89 85 c0 f6 ff ff 	mov    %rax,-0x940(%rbp)
    9e01:	48 8d 85 90 f2 ff ff 	lea    -0xd70(%rbp),%rax
    9e08:	48 83 c0 08          	add    $0x8,%rax
    9e0c:	48 89 85 c8 f6 ff ff 	mov    %rax,-0x938(%rbp)
    9e13:	48 8d 85 90 f2 ff ff 	lea    -0xd70(%rbp),%rax
    9e1a:	48 83 c0 08          	add    $0x8,%rax
    9e1e:	48 89 85 d0 f6 ff ff 	mov    %rax,-0x930(%rbp)
    9e25:	48 8d 85 90 f2 ff ff 	lea    -0xd70(%rbp),%rax
    9e2c:	48 83 c0 08          	add    $0x8,%rax
    9e30:	48 89 85 d8 f6 ff ff 	mov    %rax,-0x928(%rbp)
    9e37:	48 8d 85 90 f2 ff ff 	lea    -0xd70(%rbp),%rax
    9e3e:	48 83 c0 08          	add    $0x8,%rax
    9e42:	48 89 85 e0 f6 ff ff 	mov    %rax,-0x920(%rbp)
    9e49:	48 8d 85 90 f2 ff ff 	lea    -0xd70(%rbp),%rax
    9e50:	48 83 c0 08          	add    $0x8,%rax
    9e54:	48 89 85 e8 f6 ff ff 	mov    %rax,-0x918(%rbp)
    9e5b:	48 8d 85 90 f2 ff ff 	lea    -0xd70(%rbp),%rax
    9e62:	48 83 c0 08          	add    $0x8,%rax
    9e66:	48 89 85 f0 f6 ff ff 	mov    %rax,-0x910(%rbp)
    9e6d:	48 8d 85 90 f2 ff ff 	lea    -0xd70(%rbp),%rax
    9e74:	48 83 c0 08          	add    $0x8,%rax
    9e78:	48 89 85 f8 f6 ff ff 	mov    %rax,-0x908(%rbp)
    9e7f:	48 8d 85 90 f2 ff ff 	lea    -0xd70(%rbp),%rax
    9e86:	48 83 c0 08          	add    $0x8,%rax
    9e8a:	48 89 85 00 f7 ff ff 	mov    %rax,-0x900(%rbp)
    9e91:	48 8d 85 90 f2 ff ff 	lea    -0xd70(%rbp),%rax
    9e98:	48 83 c0 08          	add    $0x8,%rax
    9e9c:	48 89 85 08 f7 ff ff 	mov    %rax,-0x8f8(%rbp)
    9ea3:	48 8d 85 90 f2 ff ff 	lea    -0xd70(%rbp),%rax
    9eaa:	48 83 c0 08          	add    $0x8,%rax
    9eae:	48 89 85 10 f7 ff ff 	mov    %rax,-0x8f0(%rbp)
    9eb5:	48 8d 85 90 f2 ff ff 	lea    -0xd70(%rbp),%rax
    9ebc:	48 83 c0 08          	add    $0x8,%rax
    9ec0:	48 89 85 18 f7 ff ff 	mov    %rax,-0x8e8(%rbp)
    9ec7:	48 8d 85 90 f2 ff ff 	lea    -0xd70(%rbp),%rax
    9ece:	48 83 c0 08          	add    $0x8,%rax
    9ed2:	48 89 85 20 f7 ff ff 	mov    %rax,-0x8e0(%rbp)
    9ed9:	48 8d 85 90 f2 ff ff 	lea    -0xd70(%rbp),%rax
    9ee0:	48 83 c0 08          	add    $0x8,%rax
    9ee4:	48 89 85 28 f7 ff ff 	mov    %rax,-0x8d8(%rbp)
    9eeb:	48 8d 85 90 f2 ff ff 	lea    -0xd70(%rbp),%rax
    9ef2:	48 83 c0 08          	add    $0x8,%rax
    9ef6:	48 89 85 30 f7 ff ff 	mov    %rax,-0x8d0(%rbp)
    9efd:	48 8d 85 90 f2 ff ff 	lea    -0xd70(%rbp),%rax
    9f04:	48 83 c0 08          	add    $0x8,%rax
    9f08:	48 89 85 38 f7 ff ff 	mov    %rax,-0x8c8(%rbp)
    9f0f:	48 8d 85 90 f2 ff ff 	lea    -0xd70(%rbp),%rax
    9f16:	48 83 c0 08          	add    $0x8,%rax
    9f1a:	48 89 85 40 f7 ff ff 	mov    %rax,-0x8c0(%rbp)
    9f21:	48 8d 85 90 f2 ff ff 	lea    -0xd70(%rbp),%rax
    9f28:	48 83 c0 08          	add    $0x8,%rax
    9f2c:	48 89 85 48 f7 ff ff 	mov    %rax,-0x8b8(%rbp)
    9f33:	48 8d 85 90 f2 ff ff 	lea    -0xd70(%rbp),%rax
    9f3a:	48 83 c0 08          	add    $0x8,%rax
    9f3e:	48 89 85 50 f7 ff ff 	mov    %rax,-0x8b0(%rbp)
    9f45:	48 8d 85 90 f2 ff ff 	lea    -0xd70(%rbp),%rax
    9f4c:	48 83 c0 08          	add    $0x8,%rax
    9f50:	48 89 85 58 f7 ff ff 	mov    %rax,-0x8a8(%rbp)
    9f57:	48 8d 85 90 f2 ff ff 	lea    -0xd70(%rbp),%rax
    9f5e:	48 83 c0 08          	add    $0x8,%rax
    9f62:	48 89 85 60 f7 ff ff 	mov    %rax,-0x8a0(%rbp)
    9f69:	48 8d 85 90 f2 ff ff 	lea    -0xd70(%rbp),%rax
    9f70:	48 83 c0 08          	add    $0x8,%rax
    9f74:	48 89 85 68 f7 ff ff 	mov    %rax,-0x898(%rbp)
    9f7b:	48 8d 85 90 f2 ff ff 	lea    -0xd70(%rbp),%rax
    9f82:	48 83 c0 08          	add    $0x8,%rax
    9f86:	48 89 85 70 f7 ff ff 	mov    %rax,-0x890(%rbp)
    9f8d:	48 8d 85 90 f2 ff ff 	lea    -0xd70(%rbp),%rax
    9f94:	48 83 c0 08          	add    $0x8,%rax
    9f98:	48 89 85 78 f7 ff ff 	mov    %rax,-0x888(%rbp)
    9f9f:	48 8d 85 90 f2 ff ff 	lea    -0xd70(%rbp),%rax
    9fa6:	48 83 c0 08          	add    $0x8,%rax
    9faa:	48 89 85 80 f7 ff ff 	mov    %rax,-0x880(%rbp)
    9fb1:	48 8d 85 90 f2 ff ff 	lea    -0xd70(%rbp),%rax
    9fb8:	48 83 c0 08          	add    $0x8,%rax
    9fbc:	48 89 85 88 f7 ff ff 	mov    %rax,-0x878(%rbp)
    9fc3:	48 8d 85 90 f2 ff ff 	lea    -0xd70(%rbp),%rax
    9fca:	48 83 c0 08          	add    $0x8,%rax
    9fce:	48 89 85 90 f7 ff ff 	mov    %rax,-0x870(%rbp)
    9fd5:	48 8d 85 90 f2 ff ff 	lea    -0xd70(%rbp),%rax
    9fdc:	48 83 c0 08          	add    $0x8,%rax
    9fe0:	48 89 85 98 f7 ff ff 	mov    %rax,-0x868(%rbp)
    9fe7:	48 8d 85 90 f2 ff ff 	lea    -0xd70(%rbp),%rax
    9fee:	48 83 c0 08          	add    $0x8,%rax
    9ff2:	48 89 85 a0 f7 ff ff 	mov    %rax,-0x860(%rbp)
    9ff9:	48 8d 85 90 f2 ff ff 	lea    -0xd70(%rbp),%rax
    a000:	48 83 c0 08          	add    $0x8,%rax
    a004:	48 89 85 a8 f7 ff ff 	mov    %rax,-0x858(%rbp)
    a00b:	48 8d 85 90 f2 ff ff 	lea    -0xd70(%rbp),%rax
    a012:	48 83 c0 08          	add    $0x8,%rax
    a016:	48 89 85 b0 f7 ff ff 	mov    %rax,-0x850(%rbp)
    a01d:	48 8d 85 90 f2 ff ff 	lea    -0xd70(%rbp),%rax
    a024:	48 83 c0 08          	add    $0x8,%rax
    a028:	48 89 85 b8 f7 ff ff 	mov    %rax,-0x848(%rbp)
    a02f:	48 8d 85 90 f2 ff ff 	lea    -0xd70(%rbp),%rax
    a036:	48 83 c0 08          	add    $0x8,%rax
    a03a:	48 89 85 c0 f7 ff ff 	mov    %rax,-0x840(%rbp)
    a041:	48 8d 85 90 f2 ff ff 	lea    -0xd70(%rbp),%rax
    a048:	48 83 c0 08          	add    $0x8,%rax
    a04c:	48 89 85 c8 f7 ff ff 	mov    %rax,-0x838(%rbp)
    a053:	48 8d 85 90 f2 ff ff 	lea    -0xd70(%rbp),%rax
    a05a:	48 83 c0 08          	add    $0x8,%rax
    a05e:	48 89 85 d0 f7 ff ff 	mov    %rax,-0x830(%rbp)
    a065:	48 8d 85 90 f2 ff ff 	lea    -0xd70(%rbp),%rax
    a06c:	48 83 c0 08          	add    $0x8,%rax
    a070:	48 89 85 d8 f7 ff ff 	mov    %rax,-0x828(%rbp)
    a077:	48 8d 85 90 f2 ff ff 	lea    -0xd70(%rbp),%rax
    a07e:	48 83 c0 08          	add    $0x8,%rax
    a082:	48 89 85 e0 f7 ff ff 	mov    %rax,-0x820(%rbp)
    a089:	48 8d 85 90 f2 ff ff 	lea    -0xd70(%rbp),%rax
    a090:	48 83 c0 08          	add    $0x8,%rax
    a094:	48 89 85 e8 f7 ff ff 	mov    %rax,-0x818(%rbp)
    a09b:	48 8d 85 90 f2 ff ff 	lea    -0xd70(%rbp),%rax
    a0a2:	48 83 c0 08          	add    $0x8,%rax
    a0a6:	48 89 85 f0 f7 ff ff 	mov    %rax,-0x810(%rbp)
    a0ad:	48 8d 85 90 f2 ff ff 	lea    -0xd70(%rbp),%rax
    a0b4:	48 83 c0 08          	add    $0x8,%rax
    a0b8:	48 89 85 f8 f7 ff ff 	mov    %rax,-0x808(%rbp)
    a0bf:	48 8d 85 90 f2 ff ff 	lea    -0xd70(%rbp),%rax
    a0c6:	48 83 c0 08          	add    $0x8,%rax
    a0ca:	48 89 85 00 f8 ff ff 	mov    %rax,-0x800(%rbp)
    a0d1:	48 8d 85 90 f2 ff ff 	lea    -0xd70(%rbp),%rax
    a0d8:	48 83 c0 08          	add    $0x8,%rax
    a0dc:	48 89 85 08 f8 ff ff 	mov    %rax,-0x7f8(%rbp)
    a0e3:	48 8d 85 90 f2 ff ff 	lea    -0xd70(%rbp),%rax
    a0ea:	48 83 c0 08          	add    $0x8,%rax
    a0ee:	48 89 85 10 f8 ff ff 	mov    %rax,-0x7f0(%rbp)
    a0f5:	48 8d 85 90 f2 ff ff 	lea    -0xd70(%rbp),%rax
    a0fc:	48 83 c0 08          	add    $0x8,%rax
    a100:	48 89 85 18 f8 ff ff 	mov    %rax,-0x7e8(%rbp)
    a107:	48 8d 85 90 f2 ff ff 	lea    -0xd70(%rbp),%rax
    a10e:	48 83 c0 08          	add    $0x8,%rax
    a112:	48 89 85 20 f8 ff ff 	mov    %rax,-0x7e0(%rbp)
    a119:	48 8d 85 90 f2 ff ff 	lea    -0xd70(%rbp),%rax
    a120:	48 83 c0 08          	add    $0x8,%rax
    a124:	48 89 85 28 f8 ff ff 	mov    %rax,-0x7d8(%rbp)
    a12b:	48 8d 85 90 f2 ff ff 	lea    -0xd70(%rbp),%rax
    a132:	48 83 c0 08          	add    $0x8,%rax
    a136:	48 89 85 30 f8 ff ff 	mov    %rax,-0x7d0(%rbp)
    a13d:	48 8d 85 90 f2 ff ff 	lea    -0xd70(%rbp),%rax
    a144:	48 83 c0 08          	add    $0x8,%rax
    a148:	48 89 85 38 f8 ff ff 	mov    %rax,-0x7c8(%rbp)
    a14f:	48 8d 85 90 f2 ff ff 	lea    -0xd70(%rbp),%rax
    a156:	48 83 c0 08          	add    $0x8,%rax
    a15a:	48 89 85 40 f8 ff ff 	mov    %rax,-0x7c0(%rbp)
    a161:	48 8d 85 90 f2 ff ff 	lea    -0xd70(%rbp),%rax
    a168:	48 83 c0 08          	add    $0x8,%rax
    a16c:	48 89 85 48 f8 ff ff 	mov    %rax,-0x7b8(%rbp)
    a173:	48 8d 85 90 f2 ff ff 	lea    -0xd70(%rbp),%rax
    a17a:	48 83 c0 08          	add    $0x8,%rax
    a17e:	48 89 85 50 f8 ff ff 	mov    %rax,-0x7b0(%rbp)
    a185:	48 8d 85 90 f2 ff ff 	lea    -0xd70(%rbp),%rax
    a18c:	48 83 c0 08          	add    $0x8,%rax
    a190:	48 89 85 58 f8 ff ff 	mov    %rax,-0x7a8(%rbp)
    a197:	48 8d 85 90 f2 ff ff 	lea    -0xd70(%rbp),%rax
    a19e:	48 83 c0 08          	add    $0x8,%rax
    a1a2:	48 89 85 60 f8 ff ff 	mov    %rax,-0x7a0(%rbp)
    a1a9:	48 8d 85 90 f2 ff ff 	lea    -0xd70(%rbp),%rax
    a1b0:	48 83 c0 08          	add    $0x8,%rax
    a1b4:	48 89 85 68 f8 ff ff 	mov    %rax,-0x798(%rbp)
    a1bb:	48 8d 85 90 f2 ff ff 	lea    -0xd70(%rbp),%rax
    a1c2:	48 83 c0 08          	add    $0x8,%rax
    a1c6:	48 89 85 70 f8 ff ff 	mov    %rax,-0x790(%rbp)
    a1cd:	48 8d 85 90 f2 ff ff 	lea    -0xd70(%rbp),%rax
    a1d4:	48 83 c0 08          	add    $0x8,%rax
    a1d8:	48 89 85 78 f8 ff ff 	mov    %rax,-0x788(%rbp)
    a1df:	48 8d 85 90 f2 ff ff 	lea    -0xd70(%rbp),%rax
    a1e6:	48 83 c0 08          	add    $0x8,%rax
    a1ea:	48 89 85 80 f8 ff ff 	mov    %rax,-0x780(%rbp)
    a1f1:	48 8d 85 90 f2 ff ff 	lea    -0xd70(%rbp),%rax
    a1f8:	48 83 c0 08          	add    $0x8,%rax
    a1fc:	48 89 85 88 f8 ff ff 	mov    %rax,-0x778(%rbp)
    a203:	48 8d 85 90 f2 ff ff 	lea    -0xd70(%rbp),%rax
    a20a:	48 83 c0 08          	add    $0x8,%rax
    a20e:	48 89 85 90 f8 ff ff 	mov    %rax,-0x770(%rbp)
    a215:	48 8d 85 90 f2 ff ff 	lea    -0xd70(%rbp),%rax
    a21c:	48 83 c0 08          	add    $0x8,%rax
    a220:	48 89 85 98 f8 ff ff 	mov    %rax,-0x768(%rbp)
    a227:	48 8d 85 90 f2 ff ff 	lea    -0xd70(%rbp),%rax
    a22e:	48 83 c0 08          	add    $0x8,%rax
    a232:	48 89 85 a0 f8 ff ff 	mov    %rax,-0x760(%rbp)
    a239:	48 8d 85 90 f2 ff ff 	lea    -0xd70(%rbp),%rax
    a240:	48 83 c0 08          	add    $0x8,%rax
    a244:	48 89 85 a8 f8 ff ff 	mov    %rax,-0x758(%rbp)
    a24b:	48 8d 85 90 f2 ff ff 	lea    -0xd70(%rbp),%rax
    a252:	48 83 c0 08          	add    $0x8,%rax
    a256:	48 89 85 b0 f8 ff ff 	mov    %rax,-0x750(%rbp)
    a25d:	48 8d 85 90 f2 ff ff 	lea    -0xd70(%rbp),%rax
    a264:	48 83 c0 08          	add    $0x8,%rax
    a268:	48 89 85 b8 f8 ff ff 	mov    %rax,-0x748(%rbp)
    a26f:	48 8d 85 90 f2 ff ff 	lea    -0xd70(%rbp),%rax
    a276:	48 83 c0 08          	add    $0x8,%rax
    a27a:	48 89 85 c0 f8 ff ff 	mov    %rax,-0x740(%rbp)
    a281:	48 8d 85 90 f2 ff ff 	lea    -0xd70(%rbp),%rax
    a288:	48 83 c0 08          	add    $0x8,%rax
    a28c:	48 89 85 c8 f8 ff ff 	mov    %rax,-0x738(%rbp)
    a293:	48 8d 85 90 f2 ff ff 	lea    -0xd70(%rbp),%rax
    a29a:	48 83 c0 08          	add    $0x8,%rax
    a29e:	48 89 85 d0 f8 ff ff 	mov    %rax,-0x730(%rbp)
    a2a5:	48 8d 85 90 f2 ff ff 	lea    -0xd70(%rbp),%rax
    a2ac:	48 83 c0 08          	add    $0x8,%rax
    a2b0:	48 89 85 d8 f8 ff ff 	mov    %rax,-0x728(%rbp)
    a2b7:	48 8d 85 90 f2 ff ff 	lea    -0xd70(%rbp),%rax
    a2be:	48 83 c0 08          	add    $0x8,%rax
    a2c2:	48 89 85 e0 f8 ff ff 	mov    %rax,-0x720(%rbp)
    a2c9:	48 8d 85 90 f2 ff ff 	lea    -0xd70(%rbp),%rax
    a2d0:	48 83 c0 08          	add    $0x8,%rax
    a2d4:	48 89 85 e8 f8 ff ff 	mov    %rax,-0x718(%rbp)
    a2db:	48 8d 85 90 f2 ff ff 	lea    -0xd70(%rbp),%rax
    a2e2:	48 83 c0 08          	add    $0x8,%rax
    a2e6:	48 89 85 f0 f8 ff ff 	mov    %rax,-0x710(%rbp)
    a2ed:	48 8d 85 90 f2 ff ff 	lea    -0xd70(%rbp),%rax
    a2f4:	48 83 c0 08          	add    $0x8,%rax
    a2f8:	48 89 85 f8 f8 ff ff 	mov    %rax,-0x708(%rbp)
    a2ff:	48 8d 85 90 f2 ff ff 	lea    -0xd70(%rbp),%rax
    a306:	48 83 c0 08          	add    $0x8,%rax
    a30a:	48 89 85 00 f9 ff ff 	mov    %rax,-0x700(%rbp)
    a311:	48 8d 85 90 f2 ff ff 	lea    -0xd70(%rbp),%rax
    a318:	48 83 c0 08          	add    $0x8,%rax
    a31c:	48 89 85 08 f9 ff ff 	mov    %rax,-0x6f8(%rbp)
    a323:	48 8d 85 90 f2 ff ff 	lea    -0xd70(%rbp),%rax
    a32a:	48 83 c0 08          	add    $0x8,%rax
    a32e:	48 89 85 10 f9 ff ff 	mov    %rax,-0x6f0(%rbp)
    a335:	48 8d 85 90 f2 ff ff 	lea    -0xd70(%rbp),%rax
    a33c:	48 83 c0 08          	add    $0x8,%rax
    a340:	48 89 85 18 f9 ff ff 	mov    %rax,-0x6e8(%rbp)
    a347:	48 8d 85 90 f2 ff ff 	lea    -0xd70(%rbp),%rax
    a34e:	48 83 c0 08          	add    $0x8,%rax
    a352:	48 89 85 20 f9 ff ff 	mov    %rax,-0x6e0(%rbp)
    a359:	48 8d 85 90 f2 ff ff 	lea    -0xd70(%rbp),%rax
    a360:	48 83 c0 08          	add    $0x8,%rax
    a364:	48 89 85 28 f9 ff ff 	mov    %rax,-0x6d8(%rbp)
    a36b:	48 8d 85 90 f2 ff ff 	lea    -0xd70(%rbp),%rax
    a372:	48 83 c0 08          	add    $0x8,%rax
    a376:	48 89 85 30 f9 ff ff 	mov    %rax,-0x6d0(%rbp)
    a37d:	48 8d 85 90 f2 ff ff 	lea    -0xd70(%rbp),%rax
    a384:	48 83 c0 08          	add    $0x8,%rax
    a388:	48 89 85 38 f9 ff ff 	mov    %rax,-0x6c8(%rbp)
    a38f:	48 8d 85 90 f2 ff ff 	lea    -0xd70(%rbp),%rax
    a396:	48 83 c0 08          	add    $0x8,%rax
    a39a:	48 89 85 40 f9 ff ff 	mov    %rax,-0x6c0(%rbp)
    a3a1:	48 8d 85 90 f2 ff ff 	lea    -0xd70(%rbp),%rax
    a3a8:	48 83 c0 08          	add    $0x8,%rax
    a3ac:	48 89 85 48 f9 ff ff 	mov    %rax,-0x6b8(%rbp)
    a3b3:	48 8d 85 90 f2 ff ff 	lea    -0xd70(%rbp),%rax
    a3ba:	48 83 c0 08          	add    $0x8,%rax
    a3be:	48 89 85 50 f9 ff ff 	mov    %rax,-0x6b0(%rbp)
    a3c5:	48 8d 85 90 f2 ff ff 	lea    -0xd70(%rbp),%rax
    a3cc:	48 83 c0 08          	add    $0x8,%rax
    a3d0:	48 89 85 58 f9 ff ff 	mov    %rax,-0x6a8(%rbp)
    a3d7:	48 8d 85 90 f2 ff ff 	lea    -0xd70(%rbp),%rax
    a3de:	48 83 c0 08          	add    $0x8,%rax
    a3e2:	48 89 85 60 f9 ff ff 	mov    %rax,-0x6a0(%rbp)
    a3e9:	48 8d 85 90 f2 ff ff 	lea    -0xd70(%rbp),%rax
    a3f0:	48 83 c0 08          	add    $0x8,%rax
    a3f4:	48 89 85 68 f9 ff ff 	mov    %rax,-0x698(%rbp)
    a3fb:	48 8d 85 90 f2 ff ff 	lea    -0xd70(%rbp),%rax
    a402:	48 83 c0 08          	add    $0x8,%rax
    a406:	48 89 85 70 f9 ff ff 	mov    %rax,-0x690(%rbp)
    a40d:	48 8d 85 90 f2 ff ff 	lea    -0xd70(%rbp),%rax
    a414:	48 83 c0 08          	add    $0x8,%rax
    a418:	48 89 85 78 f9 ff ff 	mov    %rax,-0x688(%rbp)
    a41f:	48 8d 85 90 f2 ff ff 	lea    -0xd70(%rbp),%rax
    a426:	48 83 c0 08          	add    $0x8,%rax
    a42a:	48 89 85 80 f9 ff ff 	mov    %rax,-0x680(%rbp)
    a431:	48 8d 85 90 f2 ff ff 	lea    -0xd70(%rbp),%rax
    a438:	48 83 c0 08          	add    $0x8,%rax
    a43c:	48 89 85 88 f9 ff ff 	mov    %rax,-0x678(%rbp)
    a443:	48 8d 85 90 f2 ff ff 	lea    -0xd70(%rbp),%rax
    a44a:	48 83 c0 08          	add    $0x8,%rax
    a44e:	48 89 85 90 f9 ff ff 	mov    %rax,-0x670(%rbp)
    a455:	48 8d 85 90 f2 ff ff 	lea    -0xd70(%rbp),%rax
    a45c:	48 83 c0 08          	add    $0x8,%rax
    a460:	48 89 85 98 f9 ff ff 	mov    %rax,-0x668(%rbp)
    a467:	48 8d 85 90 f2 ff ff 	lea    -0xd70(%rbp),%rax
    a46e:	48 83 c0 08          	add    $0x8,%rax
    a472:	48 89 85 a0 f9 ff ff 	mov    %rax,-0x660(%rbp)
    a479:	48 8d 85 90 f2 ff ff 	lea    -0xd70(%rbp),%rax
    a480:	48 83 c0 08          	add    $0x8,%rax
    a484:	48 89 85 a8 f9 ff ff 	mov    %rax,-0x658(%rbp)
    a48b:	48 8d 85 90 f2 ff ff 	lea    -0xd70(%rbp),%rax
    a492:	48 83 c0 08          	add    $0x8,%rax
    a496:	48 89 85 b0 f9 ff ff 	mov    %rax,-0x650(%rbp)
    a49d:	48 8d 85 90 f2 ff ff 	lea    -0xd70(%rbp),%rax
    a4a4:	48 83 c0 08          	add    $0x8,%rax
    a4a8:	48 89 85 b8 f9 ff ff 	mov    %rax,-0x648(%rbp)
    a4af:	48 8d 85 90 f2 ff ff 	lea    -0xd70(%rbp),%rax
    a4b6:	48 83 c0 08          	add    $0x8,%rax
    a4ba:	48 89 85 c0 f9 ff ff 	mov    %rax,-0x640(%rbp)
    a4c1:	48 8d 85 90 f2 ff ff 	lea    -0xd70(%rbp),%rax
    a4c8:	48 83 c0 08          	add    $0x8,%rax
    a4cc:	48 89 85 c8 f9 ff ff 	mov    %rax,-0x638(%rbp)
    a4d3:	48 8d 85 90 f2 ff ff 	lea    -0xd70(%rbp),%rax
    a4da:	48 83 c0 08          	add    $0x8,%rax
    a4de:	48 89 85 d0 f9 ff ff 	mov    %rax,-0x630(%rbp)
    a4e5:	48 8d 85 90 f2 ff ff 	lea    -0xd70(%rbp),%rax
    a4ec:	48 83 c0 08          	add    $0x8,%rax
    a4f0:	48 89 85 d8 f9 ff ff 	mov    %rax,-0x628(%rbp)
    a4f7:	48 8d 85 90 f2 ff ff 	lea    -0xd70(%rbp),%rax
    a4fe:	48 83 c0 08          	add    $0x8,%rax
    a502:	48 89 85 e0 f9 ff ff 	mov    %rax,-0x620(%rbp)
    a509:	48 8d 85 90 f2 ff ff 	lea    -0xd70(%rbp),%rax
    a510:	48 83 c0 08          	add    $0x8,%rax
    a514:	48 89 85 e8 f9 ff ff 	mov    %rax,-0x618(%rbp)
    a51b:	48 8d 85 90 f2 ff ff 	lea    -0xd70(%rbp),%rax
    a522:	48 83 c0 08          	add    $0x8,%rax
    a526:	48 89 85 f0 f9 ff ff 	mov    %rax,-0x610(%rbp)
    a52d:	48 8d 85 90 f2 ff ff 	lea    -0xd70(%rbp),%rax
    a534:	48 83 c0 08          	add    $0x8,%rax
    a538:	48 89 85 f8 f9 ff ff 	mov    %rax,-0x608(%rbp)
    a53f:	48 8d 85 90 f2 ff ff 	lea    -0xd70(%rbp),%rax
    a546:	48 83 c0 08          	add    $0x8,%rax
    a54a:	48 89 85 00 fa ff ff 	mov    %rax,-0x600(%rbp)
    a551:	48 8d 85 90 f2 ff ff 	lea    -0xd70(%rbp),%rax
    a558:	48 83 c0 08          	add    $0x8,%rax
    a55c:	48 89 85 08 fa ff ff 	mov    %rax,-0x5f8(%rbp)
    a563:	48 8d 85 90 f2 ff ff 	lea    -0xd70(%rbp),%rax
    a56a:	48 83 c0 08          	add    $0x8,%rax
    a56e:	48 89 85 10 fa ff ff 	mov    %rax,-0x5f0(%rbp)
    a575:	48 8d 85 90 f2 ff ff 	lea    -0xd70(%rbp),%rax
    a57c:	48 83 c0 08          	add    $0x8,%rax
    a580:	48 89 85 18 fa ff ff 	mov    %rax,-0x5e8(%rbp)
    a587:	48 c7 85 10 f3 ff ff 	movq   $0x0,-0xcf0(%rbp)
    a58e:	00 00 00 00 
    a592:	48 c7 85 18 f3 ff ff 	movq   $0x0,-0xce8(%rbp)
    a599:	00 00 00 00 
    a59d:	48 c7 85 20 f3 ff ff 	movq   $0x0,-0xce0(%rbp)
    a5a4:	00 00 00 00 
    a5a8:	48 c7 85 28 f3 ff ff 	movq   $0x0,-0xcd8(%rbp)
    a5af:	00 00 00 00 
    a5b3:	48 c7 85 30 f3 ff ff 	movq   $0x0,-0xcd0(%rbp)
    a5ba:	00 00 00 00 
    a5be:	48 c7 85 38 f3 ff ff 	movq   $0x0,-0xcc8(%rbp)
    a5c5:	00 00 00 00 
    a5c9:	48 c7 85 40 f3 ff ff 	movq   $0x0,-0xcc0(%rbp)
    a5d0:	00 00 00 00 
    a5d4:	48 c7 85 48 f3 ff ff 	movq   $0x0,-0xcb8(%rbp)
    a5db:	00 00 00 00 
    a5df:	48 c7 85 50 f3 ff ff 	movq   $0x0,-0xcb0(%rbp)
    a5e6:	00 00 00 00 
    a5ea:	48 8d 05 b7 57 01 00 	lea    0x157b7(%rip),%rax        # 1fda8 <g_775>
    a5f1:	48 89 85 28 f2 ff ff 	mov    %rax,-0xdd8(%rbp)
    a5f8:	48 8d 85 20 fa ff ff 	lea    -0x5e0(%rbp),%rax
    a5ff:	48 8d 15 1a 31 01 00 	lea    0x1311a(%rip),%rdx        # 1d720 <g_2683+0x18>
    a606:	b9 b4 00 00 00       	mov    $0xb4,%ecx
    a60b:	48 89 c7             	mov    %rax,%rdi
    a60e:	48 89 d6             	mov    %rdx,%rsi
    a611:	f3 48 a5             	rep movsq %ds:(%rsi),%es:(%rdi)
    a614:	48 8d 85 20 fa ff ff 	lea    -0x5e0(%rbp),%rax
    a61b:	48 05 98 05 00 00    	add    $0x598,%rax
    a621:	48 89 85 30 f2 ff ff 	mov    %rax,-0xdd0(%rbp)
    a628:	66 0f be 85 bd f1 ff 	movsbw -0xe43(%rbp),%ax
    a62f:	ff 
    a630:	44 0f b7 e0          	movzwl %ax,%r12d
    a634:	8b 85 d8 f1 ff ff    	mov    -0xe28(%rbp),%eax
    a63a:	0f be d8             	movsbl %al,%ebx
    a63d:	8b 85 d8 f1 ff ff    	mov    -0xe28(%rbp),%eax
    a643:	44 0f be f0          	movsbl %al,%r14d
    a647:	8b 85 e8 f1 ff ff    	mov    -0xe18(%rbp),%eax
    a64d:	44 0f b7 e8          	movzwl %ax,%r13d
    a651:	8b 05 61 2d 01 00    	mov    0x12d61(%rip),%eax        # 1d3b8 <g_199>
    a657:	89 85 ac f1 ff ff    	mov    %eax,-0xe54(%rbp)
    a65d:	8b 85 e8 f1 ff ff    	mov    -0xe18(%rbp),%eax
    a663:	89 c7                	mov    %eax,%edi
    a665:	48 89 bd a0 f1 ff ff 	mov    %rdi,-0xe60(%rbp)
    a66c:	8b 85 d8 f1 ff ff    	mov    -0xe28(%rbp),%eax
    a672:	4c 63 f8             	movslq %eax,%r15
    a675:	0f b7 05 64 2e 01 00 	movzwl 0x12e64(%rip),%eax        # 1d4e0 <g_255>
    a67c:	48 0f bf f0          	movswq %ax,%rsi
    a680:	48 89 b5 98 f1 ff ff 	mov    %rsi,-0xe68(%rbp)
    a687:	66 0f be 85 bd f1 ff 	movsbw -0xe43(%rbp),%ax
    a68e:	ff 
    a68f:	44 0f b7 c8          	movzwl %ax,%r9d
    a693:	44 89 8d a8 f1 ff ff 	mov    %r9d,-0xe58(%rbp)
    a69a:	0f b6 05 65 2e 01 00 	movzbl 0x12e65(%rip),%eax        # 1d506 <g_677>
    a6a1:	44 0f be d0          	movsbl %al,%r10d
    a6a5:	44 89 95 94 f1 ff ff 	mov    %r10d,-0xe6c(%rbp)
    a6ac:	0f b6 05 71 29 01 00 	movzbl 0x12971(%rip),%eax        # 1d024 <g_28>
    a6b3:	44 0f b6 d8          	movzbl %al,%r11d
    a6b7:	4c 89 9d 88 f1 ff ff 	mov    %r11,-0xe78(%rbp)
    a6be:	48 8b 85 e0 f1 ff ff 	mov    -0xe20(%rbp),%rax
    a6c5:	48 89 85 80 f1 ff ff 	mov    %rax,-0xe80(%rbp)
    a6cc:	0f b6 05 51 29 01 00 	movzbl 0x12951(%rip),%eax        # 1d024 <g_28>
    a6d3:	0f b6 f8             	movzbl %al,%edi
    a6d6:	89 bd 90 f1 ff ff    	mov    %edi,-0xe70(%rbp)
    a6dc:	8b 85 d0 f1 ff ff    	mov    -0xe30(%rbp),%eax
    a6e2:	0f be d0             	movsbl %al,%edx
    a6e5:	8b 85 d0 f1 ff ff    	mov    -0xe30(%rbp),%eax
    a6eb:	0f be c0             	movsbl %al,%eax
    a6ee:	89 d6                	mov    %edx,%esi
    a6f0:	89 c7                	mov    %eax,%edi
    a6f2:	e8 73 db ff ff       	callq  826a <safe_div_func_int8_t_s_s>
    a6f7:	0f be c0             	movsbl %al,%eax
    a6fa:	8b b5 90 f1 ff ff    	mov    -0xe70(%rbp),%esi
    a700:	89 c7                	mov    %eax,%edi
    a702:	e8 e7 db ff ff       	callq  82ee <safe_lshift_func_int8_t_s_u>
    a707:	0f b6 05 16 29 01 00 	movzbl 0x12916(%rip),%eax        # 1d024 <g_28>
    a70e:	0f b6 c0             	movzbl %al,%eax
    a711:	48 8b 95 88 f1 ff ff 	mov    -0xe78(%rbp),%rdx
    a718:	48 8b b5 80 f1 ff ff 	mov    -0xe80(%rbp),%rsi
    a71f:	89 c7                	mov    %eax,%edi
    a721:	e8 5f a2 00 00       	callq  14985 <func_45>
    a726:	be 08 00 00 00       	mov    $0x8,%esi
    a72b:	89 c7                	mov    %eax,%edi
    a72d:	e8 cb e7 ff ff       	callq  8efd <safe_mod_func_uint32_t_u_u>
    a732:	89 c2                	mov    %eax,%edx
    a734:	48 8b 85 e0 f1 ff ff 	mov    -0xe20(%rbp),%rax
    a73b:	8b 08                	mov    (%rax),%ecx
    a73d:	48 8b 85 e0 f1 ff ff 	mov    -0xe20(%rbp),%rax
    a744:	81 c9 83 e2 bd ef    	or     $0xefbde283,%ecx
    a74a:	89 08                	mov    %ecx,(%rax)
    a74c:	8b 00                	mov    (%rax),%eax
    a74e:	48 8b b5 e8 f1 ff ff 	mov    -0xe18(%rbp),%rsi
    a755:	44 8b 85 a8 f1 ff ff 	mov    -0xe58(%rbp),%r8d
    a75c:	8b 8d 94 f1 ff ff    	mov    -0xe6c(%rbp),%ecx
    a762:	89 c7                	mov    %eax,%edi
    a764:	e8 b1 a1 00 00       	callq  1491a <func_34>
    a769:	48 8b 15 48 2c 01 00 	mov    0x12c48(%rip),%rdx        # 1d3b8 <g_199>
    a770:	48 8b 05 41 2c 01 00 	mov    0x12c41(%rip),%rax        # 1d3b8 <g_199>
    a777:	48 8b 8d 98 f1 ff ff 	mov    -0xe68(%rbp),%rcx
    a77e:	48 89 c6             	mov    %rax,%rsi
    a781:	bf 5c 00 00 00       	mov    $0x5c,%edi
    a786:	e8 35 96 00 00       	callq  13dc0 <func_29>
    a78b:	89 c1                	mov    %eax,%ecx
    a78d:	0f b6 05 90 28 01 00 	movzbl 0x12890(%rip),%eax        # 1d024 <g_28>
    a794:	0f b6 d0             	movzbl %al,%edx
    a797:	0f b6 05 86 28 01 00 	movzbl 0x12886(%rip),%eax        # 1d024 <g_28>
    a79e:	0f be f0             	movsbl %al,%esi
    a7a1:	8b 85 d0 f1 ff ff    	mov    -0xe30(%rbp),%eax
    a7a7:	89 c7                	mov    %eax,%edi
    a7a9:	e8 97 95 00 00       	callq  13d45 <func_23>
    a7ae:	89 c2                	mov    %eax,%edx
    a7b0:	8b 85 d4 f1 ff ff    	mov    -0xe2c(%rbp),%eax
    a7b6:	31 d0                	xor    %edx,%eax
    a7b8:	89 85 d4 f1 ff ff    	mov    %eax,-0xe2c(%rbp)
    a7be:	8b 95 d4 f1 ff ff    	mov    -0xe2c(%rbp),%edx
    a7c4:	8b 85 c4 f1 ff ff    	mov    -0xe3c(%rbp),%eax
    a7ca:	21 d0                	and    %edx,%eax
    a7cc:	89 85 c4 f1 ff ff    	mov    %eax,-0xe3c(%rbp)
    a7d2:	8b 85 c4 f1 ff ff    	mov    -0xe3c(%rbp),%eax
    a7d8:	48 98                	cltq   
    a7da:	8b 8d ac f1 ff ff    	mov    -0xe54(%rbp),%ecx
    a7e0:	48 8b 95 a0 f1 ff ff 	mov    -0xe60(%rbp),%rdx
    a7e7:	4c 89 fe             	mov    %r15,%rsi
    a7ea:	48 89 c7             	mov    %rax,%rdi
    a7ed:	e8 49 92 00 00       	callq  13a3b <func_18>
    a7f2:	48 8b 95 18 f2 ff ff 	mov    -0xde8(%rbp),%rdx
    a7f9:	66 89 02             	mov    %ax,(%rdx)
    a7fc:	48 8b 85 18 f2 ff ff 	mov    -0xde8(%rbp),%rax
    a803:	0f b7 00             	movzwl (%rax),%eax
    a806:	98                   	cwtl   
    a807:	44 89 f2             	mov    %r14d,%edx
    a80a:	44 89 ee             	mov    %r13d,%esi
    a80d:	89 c7                	mov    %eax,%edi
    a80f:	e8 19 3b 00 00       	callq  e32d <func_14>
    a814:	83 c8 03             	or     $0x3,%eax
    a817:	98                   	cwtl   
    a818:	be 09 00 00 00       	mov    $0x9,%esi
    a81d:	89 c7                	mov    %eax,%edi
    a81f:	e8 8f db ff ff       	callq  83b3 <safe_add_func_int16_t_s_s>
    a824:	98                   	cwtl   
    a825:	be 31 99 b8 d4       	mov    $0xd4b89931,%esi
    a82a:	89 c7                	mov    %eax,%edi
    a82c:	e8 85 dd ff ff       	callq  85b6 <safe_add_func_int32_t_s_s>
    a831:	0f be d0             	movsbl %al,%edx
    a834:	8b 85 d0 f1 ff ff    	mov    -0xe30(%rbp),%eax
    a83a:	0f be c0             	movsbl %al,%eax
    a83d:	89 d6                	mov    %edx,%esi
    a83f:	89 c7                	mov    %eax,%edi
    a841:	e8 ac d9 ff ff       	callq  81f2 <safe_sub_func_int8_t_s_s>
    a846:	0f be c0             	movsbl %al,%eax
    a849:	48 8b 15 68 2b 01 00 	mov    0x12b68(%rip),%rdx        # 1d3b8 <g_199>
    a850:	44 89 e1             	mov    %r12d,%ecx
    a853:	89 de                	mov    %ebx,%esi
    a855:	89 c7                	mov    %eax,%edi
    a857:	e8 bc 07 00 00       	callq  b018 <func_2>
    a85c:	0f b7 85 c0 f1 ff ff 	movzwl -0xe40(%rbp),%eax
    a863:	0f b7 d0             	movzwl %ax,%edx
    a866:	48 8b 85 20 f2 ff ff 	mov    -0xde0(%rbp),%rax
    a86d:	89 10                	mov    %edx,(%rax)
    a86f:	c7 05 d3 62 01 00 1d 	movl   $0x1d,0x162d3(%rip)        # 20b4c <g_169>
    a876:	00 00 00 
    a879:	e9 5f 07 00 00       	jmpq   afdd <func_1+0x1828>
    a87e:	48 8d 05 bb 2c 01 00 	lea    0x12cbb(%rip),%rax        # 1d540 <g_1404>
    a885:	48 89 85 f0 f1 ff ff 	mov    %rax,-0xe10(%rbp)
    a88c:	c7 85 c8 f1 ff ff 00 	movl   $0x0,-0xe38(%rbp)
    a893:	00 00 00 
    a896:	66 c7 85 c2 f1 ff ff 	movw   $0x1,-0xe3e(%rbp)
    a89d:	01 00 
    a89f:	48 c7 85 f8 f1 ff ff 	movq   $0x0,-0xe08(%rbp)
    a8a6:	00 00 00 00 
    a8aa:	c7 85 f8 f1 ff ff ff 	movl   $0xffffffff,-0xe08(%rbp)
    a8b1:	ff ff ff 
    a8b4:	c6 85 be f1 ff ff 07 	movb   $0x7,-0xe42(%rbp)
    a8bb:	48 8b 85 48 f3 ff ff 	mov    -0xcb8(%rbp),%rax
    a8c2:	48 85 c0             	test   %rax,%rax
    a8c5:	0f 94 c0             	sete   %al
    a8c8:	0f b6 d0             	movzbl %al,%edx
    a8cb:	48 8b 85 20 f2 ff ff 	mov    -0xde0(%rbp),%rax
    a8d2:	89 10                	mov    %edx,(%rax)
    a8d4:	66 c7 05 d3 2a 01 00 	movw   $0x0,0x12ad3(%rip)        # 1d3b0 <g_184>
    a8db:	00 00 
    a8dd:	e9 00 03 00 00       	jmpq   abe2 <func_1+0x142d>
    a8e2:	48 8d 85 c4 f1 ff ff 	lea    -0xe3c(%rbp),%rax
    a8e9:	48 89 85 00 f2 ff ff 	mov    %rax,-0xe00(%rbp)
    a8f0:	48 8d 85 00 f2 ff ff 	lea    -0xe00(%rbp),%rax
    a8f7:	48 89 85 50 f2 ff ff 	mov    %rax,-0xdb0(%rbp)
    a8fe:	48 8d 85 f0 f1 ff ff 	lea    -0xe10(%rbp),%rax
    a905:	48 89 85 58 f2 ff ff 	mov    %rax,-0xda8(%rbp)
    a90c:	48 8d 05 ad 5a 01 00 	lea    0x15aad(%rip),%rax        # 203c0 <g_1177>
    a913:	48 89 85 08 f2 ff ff 	mov    %rax,-0xdf8(%rbp)
    a91a:	48 8d 85 08 f2 ff ff 	lea    -0xdf8(%rbp),%rax
    a921:	48 89 85 60 f2 ff ff 	mov    %rax,-0xda0(%rbp)
    a928:	48 c7 85 10 f2 ff ff 	movq   $0x0,-0xdf0(%rbp)
    a92f:	00 00 00 00 
    a933:	c7 85 10 f2 ff ff f1 	movl   $0xba812f1,-0xdf0(%rbp)
    a93a:	12 a8 0b 
    a93d:	48 8b 95 00 f2 ff ff 	mov    -0xe00(%rbp),%rdx
    a944:	48 8b 85 50 f2 ff ff 	mov    -0xdb0(%rbp),%rax
    a94b:	48 89 10             	mov    %rdx,(%rax)
    a94e:	48 8b 95 f0 f1 ff ff 	mov    -0xe10(%rbp),%rdx
    a955:	48 8b 85 58 f2 ff ff 	mov    -0xda8(%rbp),%rax
    a95c:	48 89 10             	mov    %rdx,(%rax)
    a95f:	66 c7 05 40 2a 01 00 	movw   $0x0,0x12a40(%rip)        # 1d3a8 <g_177>
    a966:	00 00 
    a968:	e9 9f 01 00 00       	jmpq   ab0c <func_1+0x1357>
    a96d:	48 8d 85 c0 f1 ff ff 	lea    -0xe40(%rbp),%rax
    a974:	48 89 85 68 f2 ff ff 	mov    %rax,-0xd98(%rbp)
    a97b:	48 8d 05 aa 26 01 00 	lea    0x126aa(%rip),%rax        # 1d02c <g_65>
    a982:	48 89 85 70 f2 ff ff 	mov    %rax,-0xd90(%rbp)
    a989:	48 c7 85 78 f2 ff ff 	movq   $0x0,-0xd88(%rbp)
    a990:	00 00 00 00 
    a994:	48 8d 85 10 f3 ff ff 	lea    -0xcf0(%rbp),%rax
    a99b:	48 83 c0 38          	add    $0x38,%rax
    a99f:	48 89 85 80 f2 ff ff 	mov    %rax,-0xd80(%rbp)
    a9a6:	48 c7 85 88 f2 ff ff 	movq   $0x0,-0xd78(%rbp)
    a9ad:	00 00 00 00 
    a9b1:	48 8b 85 68 f2 ff ff 	mov    -0xd98(%rbp),%rax
    a9b8:	0f b7 00             	movzwl (%rax),%eax
    a9bb:	8d 48 01             	lea    0x1(%rax),%ecx
    a9be:	48 8b 95 68 f2 ff ff 	mov    -0xd98(%rbp),%rdx
    a9c5:	66 89 0a             	mov    %cx,(%rdx)
    a9c8:	0f b7 d0             	movzwl %ax,%edx
    a9cb:	48 8b 85 20 f2 ff ff 	mov    -0xde0(%rbp),%rax
    a9d2:	8b 00                	mov    (%rax),%eax
    a9d4:	09 d0                	or     %edx,%eax
    a9d6:	85 c0                	test   %eax,%eax
    a9d8:	75 0d                	jne    a9e7 <func_1+0x1232>
    a9da:	48 8b 85 f0 f1 ff ff 	mov    -0xe10(%rbp),%rax
    a9e1:	8b 00                	mov    (%rax),%eax
    a9e3:	85 c0                	test   %eax,%eax
    a9e5:	74 08                	je     a9ef <func_1+0x123a>
    a9e7:	41 bc 01 00 00 00    	mov    $0x1,%r12d
    a9ed:	eb 06                	jmp    a9f5 <func_1+0x1240>
    a9ef:	41 bc 00 00 00 00    	mov    $0x0,%r12d
    a9f5:	48 8b 85 20 f2 ff ff 	mov    -0xde0(%rbp),%rax
    a9fc:	8b 18                	mov    (%rax),%ebx
    a9fe:	48 8b 05 3b 5a 01 00 	mov    0x15a3b(%rip),%rax        # 20440 <g_1618>
    aa05:	48 8b 00             	mov    (%rax),%rax
    aa08:	48 c7 c6 f7 ff ff ff 	mov    $0xfffffffffffffff7,%rsi
    aa0f:	48 89 c7             	mov    %rax,%rdi
    aa12:	e8 e0 df ff ff       	callq  89f7 <safe_div_func_int64_t_s_s>
    aa17:	0f b7 d0             	movzwl %ax,%edx
    aa1a:	48 8b 85 88 f2 ff ff 	mov    -0xd78(%rbp),%rax
    aa21:	48 3b 85 28 f2 ff ff 	cmp    -0xdd8(%rbp),%rax
    aa28:	0f 95 c0             	setne  %al
    aa2b:	0f b6 c0             	movzbl %al,%eax
    aa2e:	89 d6                	mov    %edx,%esi
    aa30:	89 c7                	mov    %eax,%edi
    aa32:	e8 25 e3 ff ff       	callq  8d5c <safe_mod_func_uint16_t_u_u>
    aa37:	0f be c0             	movsbl %al,%eax
    aa3a:	be 04 00 00 00       	mov    $0x4,%esi
    aa3f:	89 c7                	mov    %eax,%edi
    aa41:	e8 a8 d8 ff ff       	callq  82ee <safe_lshift_func_int8_t_s_u>
    aa46:	0f be d0             	movsbl %al,%edx
    aa49:	48 8b 0d 10 62 01 00 	mov    0x16210(%rip),%rcx        # 20c60 <g_2623>
    aa50:	48 8b 85 80 f2 ff ff 	mov    -0xd80(%rbp),%rax
    aa57:	48 89 08             	mov    %rcx,(%rax)
    aa5a:	48 8b 85 80 f2 ff ff 	mov    -0xd80(%rbp),%rax
    aa61:	48 8b 00             	mov    (%rax),%rax
    aa64:	48 8d 0d 95 5c 01 00 	lea    0x15c95(%rip),%rcx        # 20700 <g_2362>
    aa6b:	48 39 c8             	cmp    %rcx,%rax
    aa6e:	0f 95 c0             	setne  %al
    aa71:	0f b6 c0             	movzbl %al,%eax
    aa74:	89 d6                	mov    %edx,%esi
    aa76:	89 c7                	mov    %eax,%edi
    aa78:	e8 a8 e4 ff ff       	callq  8f25 <safe_div_func_uint32_t_u_u>
    aa7d:	0f be c0             	movsbl %al,%eax
    aa80:	89 de                	mov    %ebx,%esi
    aa82:	89 c7                	mov    %eax,%edi
    aa84:	e8 ac d8 ff ff       	callq  8335 <safe_rshift_func_int8_t_s_s>
    aa89:	0f be c0             	movsbl %al,%eax
    aa8c:	48 8b 95 70 f2 ff ff 	mov    -0xd90(%rbp),%rdx
    aa93:	c6 02 00             	movb   $0x0,(%rdx)
    aa96:	89 c6                	mov    %eax,%esi
    aa98:	bf 00 00 00 00       	mov    $0x0,%edi
    aa9d:	e8 1c e2 ff ff       	callq  8cbe <safe_rshift_func_uint8_t_u_u>
    aaa2:	48 8b 05 57 5c 01 00 	mov    0x15c57(%rip),%rax        # 20700 <g_2362>
    aaa9:	48 8b 00             	mov    (%rax),%rax
    aaac:	48 8b 00             	mov    (%rax),%rax
    aaaf:	48 8b 00             	mov    (%rax),%rax
    aab2:	48 85 c0             	test   %rax,%rax
    aab5:	74 07                	je     aabe <func_1+0x1309>
    aab7:	ba 01 00 00 00       	mov    $0x1,%edx
    aabc:	eb 05                	jmp    aac3 <func_1+0x130e>
    aabe:	ba 00 00 00 00       	mov    $0x0,%edx
    aac3:	48 8b 85 58 f2 ff ff 	mov    -0xda8(%rbp),%rax
    aaca:	48 8b 00             	mov    (%rax),%rax
    aacd:	8b 00                	mov    (%rax),%eax
    aacf:	31 d0                	xor    %edx,%eax
    aad1:	44 21 e0             	and    %r12d,%eax
    aad4:	48 63 d0             	movslq %eax,%rdx
    aad7:	48 8b 85 00 f2 ff ff 	mov    -0xe00(%rbp),%rax
    aade:	8b 00                	mov    (%rax),%eax
    aae0:	89 c1                	mov    %eax,%ecx
    aae2:	89 d0                	mov    %edx,%eax
    aae4:	21 c1                	and    %eax,%ecx
    aae6:	89 ca                	mov    %ecx,%edx
    aae8:	48 8b 85 00 f2 ff ff 	mov    -0xe00(%rbp),%rax
    aaef:	89 10                	mov    %edx,(%rax)
    aaf1:	0f b7 05 b0 28 01 00 	movzwl 0x128b0(%rip),%eax        # 1d3a8 <g_177>
    aaf8:	98                   	cwtl   
    aaf9:	be 01 00 00 00       	mov    $0x1,%esi
    aafe:	89 c7                	mov    %eax,%edi
    ab00:	e8 b3 e3 ff ff       	callq  8eb8 <safe_add_func_uint32_t_u_u>
    ab05:	66 89 05 9c 28 01 00 	mov    %ax,0x1289c(%rip)        # 1d3a8 <g_177>
    ab0c:	0f b7 05 95 28 01 00 	movzwl 0x12895(%rip),%eax        # 1d3a8 <g_177>
    ab13:	66 83 f8 0c          	cmp    $0xc,%ax
    ab17:	0f 8e 50 fe ff ff    	jle    a96d <func_1+0x11b8>
    ab1d:	48 8b 85 f0 f1 ff ff 	mov    -0xe10(%rbp),%rax
    ab24:	8b 00                	mov    (%rax),%eax
    ab26:	48 63 d0             	movslq %eax,%rdx
    ab29:	48 8b 85 20 f2 ff ff 	mov    -0xde0(%rbp),%rax
    ab30:	8b 08                	mov    (%rax),%ecx
    ab32:	8b 05 f0 24 01 00    	mov    0x124f0(%rip),%eax        # 1d028 <g_41>
    ab38:	39 c1                	cmp    %eax,%ecx
    ab3a:	0f 9c c0             	setl   %al
    ab3d:	0f b6 c0             	movzbl %al,%eax
    ab40:	48 89 d6             	mov    %rdx,%rsi
    ab43:	48 89 c7             	mov    %rax,%rdi
    ab46:	e8 ac de ff ff       	callq  89f7 <safe_div_func_int64_t_s_s>
    ab4b:	48 85 c0             	test   %rax,%rax
    ab4e:	74 0e                	je     ab5e <func_1+0x13a9>
    ab50:	48 8b 85 58 f2 ff ff 	mov    -0xda8(%rbp),%rax
    ab57:	48 8b 00             	mov    (%rax),%rax
    ab5a:	8b 00                	mov    (%rax),%eax
    ab5c:	85 c0                	test   %eax,%eax
    ab5e:	48 8b 85 f0 f1 ff ff 	mov    -0xe10(%rbp),%rax
    ab65:	8b 00                	mov    (%rax),%eax
    ab67:	98                   	cwtl   
    ab68:	be 01 00 00 00       	mov    $0x1,%esi
    ab6d:	89 c7                	mov    %eax,%edi
    ab6f:	e8 81 d8 ff ff       	callq  83f5 <safe_mul_func_int16_t_s_s>
    ab74:	89 c2                	mov    %eax,%edx
    ab76:	48 8b 85 50 f2 ff ff 	mov    -0xdb0(%rbp),%rax
    ab7d:	48 8b 00             	mov    (%rax),%rax
    ab80:	0f bf d2             	movswl %dx,%edx
    ab83:	89 10                	mov    %edx,(%rax)
    ab85:	8b 18                	mov    (%rax),%ebx
    ab87:	48 8b 85 20 f2 ff ff 	mov    -0xde0(%rbp),%rax
    ab8e:	8b 00                	mov    (%rax),%eax
    ab90:	98                   	cwtl   
    ab91:	89 c7                	mov    %eax,%edi
    ab93:	e8 05 d8 ff ff       	callq  839d <safe_unary_minus_func_int16_t_s>
    ab98:	98                   	cwtl   
    ab99:	89 de                	mov    %ebx,%esi
    ab9b:	89 c7                	mov    %eax,%edi
    ab9d:	e8 5d db ff ff       	callq  86ff <safe_div_func_int32_t_s_s>
    aba2:	89 c6                	mov    %eax,%esi
    aba4:	bf 00 00 00 00       	mov    $0x0,%edi
    aba9:	e8 be d7 ff ff       	callq  836c <safe_rshift_func_int8_t_s_u>
    abae:	0f be d0             	movsbl %al,%edx
    abb1:	48 8b 85 58 f2 ff ff 	mov    -0xda8(%rbp),%rax
    abb8:	48 8b 00             	mov    (%rax),%rax
    abbb:	8b 00                	mov    (%rax),%eax
    abbd:	39 c2                	cmp    %eax,%edx
    abbf:	0f 9c c2             	setl   %dl
    abc2:	48 8b 05 6f 58 01 00 	mov    0x1586f(%rip),%rax        # 20438 <g_1438>
    abc9:	48 8b 00             	mov    (%rax),%rax
    abcc:	0f b6 d2             	movzbl %dl,%edx
    abcf:	89 10                	mov    %edx,(%rax)
    abd1:	0f b7 05 d8 27 01 00 	movzwl 0x127d8(%rip),%eax        # 1d3b0 <g_184>
    abd8:	83 e8 01             	sub    $0x1,%eax
    abdb:	66 89 05 ce 27 01 00 	mov    %ax,0x127ce(%rip)        # 1d3b0 <g_184>
    abe2:	0f b7 05 c7 27 01 00 	movzwl 0x127c7(%rip),%eax        # 1d3b0 <g_184>
    abe9:	66 85 c0             	test   %ax,%ax
    abec:	0f 88 f0 fc ff ff    	js     a8e2 <func_1+0x112d>
    abf2:	66 c7 05 ed 28 01 00 	movw   $0x0,0x128ed(%rip)        # 1d4e8 <g_292>
    abf9:	00 00 
    abfb:	e9 bd 03 00 00       	jmpq   afbd <func_1+0x1808>
    ac00:	48 b8 73 bc 68 77 8a 	movabs $0xa23fa78a7768bc73,%rax
    ac07:	a7 3f a2 
    ac0a:	48 89 85 38 f2 ff ff 	mov    %rax,-0xdc8(%rbp)
    ac11:	c7 05 35 29 01 00 04 	movl   $0x4,0x12935(%rip)        # 1d550 <g_1572>
    ac18:	00 00 00 
    ac1b:	e9 7e 03 00 00       	jmpq   af9e <func_1+0x17e9>
    ac20:	48 8d 85 60 f3 ff ff 	lea    -0xca0(%rbp),%rax
    ac27:	48 8d 15 92 e4 00 00 	lea    0xe492(%rip),%rdx        # 190c0 <g_2294+0x1c>
    ac2e:	b9 23 00 00 00       	mov    $0x23,%ecx
    ac33:	48 89 c7             	mov    %rax,%rdi
    ac36:	48 89 d6             	mov    %rdx,%rsi
    ac39:	f3 48 a5             	rep movsq %ds:(%rsi),%es:(%rdi)
    ac3c:	c7 85 cc f1 ff ff 00 	movl   $0x0,-0xe34(%rbp)
    ac43:	00 00 00 
    ac46:	c6 05 af 28 01 00 03 	movb   $0x3,0x128af(%rip)        # 1d4fc <g_443>
    ac4d:	e9 2e 03 00 00       	jmpq   af80 <func_1+0x17cb>
    ac52:	c6 85 bf f1 ff ff f8 	movb   $0xf8,-0xe41(%rbp)
    ac59:	c6 85 bd f1 ff ff 00 	movb   $0x0,-0xe43(%rbp)
    ac60:	eb 69                	jmp    accb <func_1+0x1516>
    ac62:	48 8b 85 20 f2 ff ff 	mov    -0xde0(%rbp),%rax
    ac69:	8b 00                	mov    (%rax),%eax
    ac6b:	35 94 34 e1 3a       	xor    $0x3ae13494,%eax
    ac70:	89 c2                	mov    %eax,%edx
    ac72:	48 8b 85 20 f2 ff ff 	mov    -0xde0(%rbp),%rax
    ac79:	89 10                	mov    %edx,(%rax)
    ac7b:	48 8b 05 5e 5a 01 00 	mov    0x15a5e(%rip),%rax        # 206e0 <g_2165>
    ac82:	48 8b 00             	mov    (%rax),%rax
    ac85:	8b 00                	mov    (%rax),%eax
    ac87:	85 c0                	test   %eax,%eax
    ac89:	75 4b                	jne    acd6 <func_1+0x1521>
    ac8b:	48 8b 05 1e 57 01 00 	mov    0x1571e(%rip),%rax        # 203b0 <g_1134>
    ac92:	48 8b 00             	mov    (%rax),%rax
    ac95:	8b 08                	mov    (%rax),%ecx
    ac97:	0f b6 95 bf f1 ff ff 	movzbl -0xe41(%rbp),%edx
    ac9e:	09 ca                	or     %ecx,%edx
    aca0:	89 10                	mov    %edx,(%rax)
    aca2:	48 8b 05 8f 57 01 00 	mov    0x1578f(%rip),%rax        # 20438 <g_1438>
    aca9:	48 8b 00             	mov    (%rax),%rax
    acac:	8b 08                	mov    (%rax),%ecx
    acae:	48 8b 15 db 50 01 00 	mov    0x150db(%rip),%rdx        # 1fd90 <g_761>
    acb5:	8b 12                	mov    (%rdx),%edx
    acb7:	31 ca                	xor    %ecx,%edx
    acb9:	89 10                	mov    %edx,(%rax)
    acbb:	0f b6 85 bd f1 ff ff 	movzbl -0xe43(%rbp),%eax
    acc2:	83 c0 01             	add    $0x1,%eax
    acc5:	88 85 bd f1 ff ff    	mov    %al,-0xe43(%rbp)
    accb:	80 bd bd f1 ff ff 04 	cmpb   $0x4,-0xe43(%rbp)
    acd2:	7e 8e                	jle    ac62 <func_1+0x14ad>
    acd4:	eb 01                	jmp    acd7 <func_1+0x1522>
    acd6:	90                   	nop
    acd7:	66 c7 05 b0 5e 01 00 	movw   $0x0,0x15eb0(%rip)        # 20b90 <g_736>
    acde:	00 00 
    ace0:	e9 77 02 00 00       	jmpq   af5c <func_1+0x17a7>
    ace5:	c7 85 dc f1 ff ff ff 	movl   $0xffffffff,-0xe24(%rbp)
    acec:	ff ff ff 
    acef:	48 8d 05 36 23 01 00 	lea    0x12336(%rip),%rax        # 1d02c <g_65>
    acf6:	48 89 85 40 f2 ff ff 	mov    %rax,-0xdc0(%rbp)
    acfd:	48 8d 05 fc 27 01 00 	lea    0x127fc(%rip),%rax        # 1d500 <g_544>
    ad04:	48 89 85 48 f2 ff ff 	mov    %rax,-0xdb8(%rbp)
    ad0b:	48 8d 05 ee 29 01 00 	lea    0x129ee(%rip),%rax        # 1d700 <g_2667+0x10>
    ad12:	48 89 85 e0 f2 ff ff 	mov    %rax,-0xd20(%rbp)
    ad19:	48 8d 05 e0 29 01 00 	lea    0x129e0(%rip),%rax        # 1d700 <g_2667+0x10>
    ad20:	48 89 85 e8 f2 ff ff 	mov    %rax,-0xd18(%rbp)
    ad27:	48 8d 85 e8 f1 ff ff 	lea    -0xe18(%rbp),%rax
    ad2e:	48 89 85 f0 f2 ff ff 	mov    %rax,-0xd10(%rbp)
    ad35:	48 8d 05 c4 29 01 00 	lea    0x129c4(%rip),%rax        # 1d700 <g_2667+0x10>
    ad3c:	48 89 85 f8 f2 ff ff 	mov    %rax,-0xd08(%rbp)
    ad43:	48 8d 05 b6 29 01 00 	lea    0x129b6(%rip),%rax        # 1d700 <g_2667+0x10>
    ad4a:	48 89 85 00 f3 ff ff 	mov    %rax,-0xd00(%rbp)
    ad51:	48 8d 85 e8 f1 ff ff 	lea    -0xe18(%rbp),%rax
    ad58:	48 89 85 08 f3 ff ff 	mov    %rax,-0xcf8(%rbp)
    ad5f:	8b 05 77 29 01 00    	mov    0x12977(%rip),%eax        # 1d6dc <g_2652>
    ad65:	8b 85 dc f1 ff ff    	mov    -0xe24(%rbp),%eax
    ad6b:	89 c2                	mov    %eax,%edx
    ad6d:	48 8b 85 40 f2 ff ff 	mov    -0xdc0(%rbp),%rax
    ad74:	88 10                	mov    %dl,(%rax)
    ad76:	48 8b 85 f0 f1 ff ff 	mov    -0xe10(%rbp),%rax
    ad7d:	8b 00                	mov    (%rax),%eax
    ad7f:	41 89 c4             	mov    %eax,%r12d
    ad82:	48 8b 85 20 f2 ff ff 	mov    -0xde0(%rbp),%rax
    ad89:	8b 18                	mov    (%rax),%ebx
    ad8b:	8b 85 e0 f3 ff ff    	mov    -0xc20(%rbp),%eax
    ad91:	41 89 c5             	mov    %eax,%r13d
    ad94:	48 8b 85 38 f2 ff ff 	mov    -0xdc8(%rbp),%rax
    ad9b:	48 8b 95 48 f2 ff ff 	mov    -0xdb8(%rbp),%rdx
    ada2:	c7 02 c1 5f d3 71    	movl   $0x71d35fc1,(%rdx)
    ada8:	8b 15 32 29 01 00    	mov    0x12932(%rip),%edx        # 1d6e0 <g_2665>
    adae:	48 8b 95 38 f2 ff ff 	mov    -0xdc8(%rbp),%rdx
    adb5:	48 81 ca c1 5f d3 71 	or     $0x71d35fc1,%rdx
    adbc:	48 89 c6             	mov    %rax,%rsi
    adbf:	48 89 d7             	mov    %rdx,%rdi
    adc2:	e8 30 dc ff ff       	callq  89f7 <safe_div_func_int64_t_s_s>
    adc7:	48 39 85 38 f2 ff ff 	cmp    %rax,-0xdc8(%rbp)
    adce:	0f 97 c0             	seta   %al
    add1:	0f b6 c0             	movzbl %al,%eax
    add4:	be 07 00 00 00       	mov    $0x7,%esi
    add9:	89 c7                	mov    %eax,%edi
    addb:	e8 01 d7 ff ff       	callq  84e1 <safe_lshift_func_int16_t_s_u>
    ade0:	89 c2                	mov    %eax,%edx
    ade2:	48 8b 05 57 56 01 00 	mov    0x15657(%rip),%rax        # 20440 <g_1618>
    ade9:	48 0f bf d2          	movswq %dx,%rdx
    aded:	48 89 10             	mov    %rdx,(%rax)
    adf0:	48 8b 00             	mov    (%rax),%rax
    adf3:	21 85 c8 f1 ff ff    	and    %eax,-0xe38(%rbp)
    adf9:	83 bd c8 f1 ff ff f9 	cmpl   $0xfffffff9,-0xe38(%rbp)
    ae00:	0f 94 c0             	sete   %al
    ae03:	0f b6 c0             	movzbl %al,%eax
    ae06:	44 89 ee             	mov    %r13d,%esi
    ae09:	89 c7                	mov    %eax,%edi
    ae0b:	e8 bc d8 ff ff       	callq  86cc <safe_mod_func_int32_t_s_s>
    ae10:	39 c3                	cmp    %eax,%ebx
    ae12:	0f 94 c0             	sete   %al
    ae15:	0f b6 c0             	movzbl %al,%eax
    ae18:	44 89 e6             	mov    %r12d,%esi
    ae1b:	89 c7                	mov    %eax,%edi
    ae1d:	e8 2a de ff ff       	callq  8c4c <safe_lshift_func_uint8_t_u_u>
    ae22:	48 8b 85 20 f2 ff ff 	mov    -0xde0(%rbp),%rax
    ae29:	c7 00 01 00 00 00    	movl   $0x1,(%rax)
    ae2f:	0f be 9d be f1 ff ff 	movsbl -0xe42(%rbp),%ebx
    ae36:	48 8b 05 23 4f 01 00 	mov    0x14f23(%rip),%rax        # 1fd60 <g_700>
    ae3d:	48 8b 00             	mov    (%rax),%rax
    ae40:	48 8b 00             	mov    (%rax),%rax
    ae43:	21 85 cc f1 ff ff    	and    %eax,-0xe34(%rbp)
    ae49:	8b 85 2c f4 ff ff    	mov    -0xbd4(%rbp),%eax
    ae4f:	89 c0                	mov    %eax,%eax
    ae51:	48 39 85 38 f2 ff ff 	cmp    %rax,-0xdc8(%rbp)
    ae58:	0f 97 c0             	seta   %al
    ae5b:	0f b6 c0             	movzbl %al,%eax
    ae5e:	39 85 cc f1 ff ff    	cmp    %eax,-0xe34(%rbp)
    ae64:	0f 94 c0             	sete   %al
    ae67:	0f b6 c0             	movzbl %al,%eax
    ae6a:	48 39 85 38 f2 ff ff 	cmp    %rax,-0xdc8(%rbp)
    ae71:	40 0f 94 c6          	sete   %sil
    ae75:	0f b6 05 80 26 01 00 	movzbl 0x12680(%rip),%eax        # 1d4fc <g_443>
    ae7c:	0f be c0             	movsbl %al,%eax
    ae7f:	8d 48 01             	lea    0x1(%rax),%ecx
    ae82:	8b 05 c8 26 01 00    	mov    0x126c8(%rip),%eax        # 1d550 <g_1572>
    ae88:	0f b6 15 6d 26 01 00 	movzbl 0x1266d(%rip),%edx        # 1d4fc <g_443>
    ae8f:	0f be d2             	movsbl %dl,%edx
    ae92:	83 c2 03             	add    $0x3,%edx
    ae95:	40 0f b6 f6          	movzbl %sil,%esi
    ae99:	48 63 fa             	movslq %edx,%rdi
    ae9c:	48 63 d1             	movslq %ecx,%rdx
    ae9f:	48 63 c8             	movslq %eax,%rcx
    aea2:	48 89 d0             	mov    %rdx,%rax
    aea5:	48 c1 e0 03          	shl    $0x3,%rax
    aea9:	48 01 d0             	add    %rdx,%rax
    aeac:	48 c1 e0 02          	shl    $0x2,%rax
    aeb0:	48 29 d0             	sub    %rdx,%rax
    aeb3:	48 89 ca             	mov    %rcx,%rdx
    aeb6:	48 c1 e2 03          	shl    $0x3,%rdx
    aeba:	48 29 ca             	sub    %rcx,%rdx
    aebd:	48 01 d0             	add    %rdx,%rax
    aec0:	48 01 f8             	add    %rdi,%rax
    aec3:	48 8d 14 85 00 00 00 	lea    0x0(,%rax,4),%rdx
    aeca:	00 
    aecb:	48 8d 05 8e 21 01 00 	lea    0x1218e(%rip),%rax        # 1d060 <g_176>
    aed2:	89 34 02             	mov    %esi,(%rdx,%rax,1)
    aed5:	0f b7 85 c2 f1 ff ff 	movzwl -0xe3e(%rbp),%eax
    aedc:	0f b7 c0             	movzwl %ax,%eax
    aedf:	be ff ff 00 00       	mov    $0xffff,%esi
    aee4:	89 c7                	mov    %eax,%edi
    aee6:	e8 8f df ff ff       	callq  8e7a <safe_rshift_func_uint16_t_u_u>
    aeeb:	0f bf d0             	movswl %ax,%edx
    aeee:	48 8b 85 48 f2 ff ff 	mov    -0xdb8(%rbp),%rax
    aef5:	8b 00                	mov    (%rax),%eax
    aef7:	98                   	cwtl   
    aef8:	89 d6                	mov    %edx,%esi
    aefa:	89 c7                	mov    %eax,%edi
    aefc:	e8 15 d5 ff ff       	callq  8416 <safe_mod_func_int16_t_s_s>
    af01:	0f b6 c0             	movzbl %al,%eax
    af04:	89 de                	mov    %ebx,%esi
    af06:	89 c7                	mov    %eax,%edi
    af08:	e8 80 dd ff ff       	callq  8c8d <safe_rshift_func_uint8_t_u_s>
    af0d:	84 c0                	test   %al,%al
    af0f:	48 8b 85 f0 f1 ff ff 	mov    -0xe10(%rbp),%rax
    af16:	8b 00                	mov    (%rax),%eax
    af18:	85 c0                	test   %eax,%eax
    af1a:	0f 9f c0             	setg   %al
    af1d:	0f b6 d0             	movzbl %al,%edx
    af20:	48 8b 05 31 4e 01 00 	mov    0x14e31(%rip),%rax        # 1fd58 <g_701>
    af27:	48 8b 00             	mov    (%rax),%rax
    af2a:	48 89 d6             	mov    %rdx,%rsi
    af2d:	48 89 c7             	mov    %rax,%rdi
    af30:	e8 f9 e0 ff ff       	callq  902e <safe_add_func_uint64_t_u_u>
    af35:	89 c2                	mov    %eax,%edx
    af37:	48 8b 85 20 f2 ff ff 	mov    -0xde0(%rbp),%rax
    af3e:	89 10                	mov    %edx,(%rax)
    af40:	0f b6 05 af eb 00 00 	movzbl 0xebaf(%rip),%eax        # 19af6 <l_2682.4231+0x76>
    af47:	84 c0                	test   %al,%al
    af49:	75 24                	jne    af6f <func_1+0x17ba>
    af4b:	0f b7 05 3e 5c 01 00 	movzwl 0x15c3e(%rip),%eax        # 20b90 <g_736>
    af52:	83 c0 01             	add    $0x1,%eax
    af55:	66 89 05 34 5c 01 00 	mov    %ax,0x15c34(%rip)        # 20b90 <g_736>
    af5c:	0f b7 05 2d 5c 01 00 	movzwl 0x15c2d(%rip),%eax        # 20b90 <g_736>
    af63:	66 83 f8 04          	cmp    $0x4,%ax
    af67:	0f 8e 78 fd ff ff    	jle    ace5 <func_1+0x1530>
    af6d:	eb 01                	jmp    af70 <func_1+0x17bb>
    af6f:	90                   	nop
    af70:	0f b6 05 85 25 01 00 	movzbl 0x12585(%rip),%eax        # 1d4fc <g_443>
    af77:	83 e8 01             	sub    $0x1,%eax
    af7a:	88 05 7c 25 01 00    	mov    %al,0x1257c(%rip)        # 1d4fc <g_443>
    af80:	0f b6 05 75 25 01 00 	movzbl 0x12575(%rip),%eax        # 1d4fc <g_443>
    af87:	84 c0                	test   %al,%al
    af89:	0f 89 c3 fc ff ff    	jns    ac52 <func_1+0x149d>
    af8f:	8b 05 bb 25 01 00    	mov    0x125bb(%rip),%eax        # 1d550 <g_1572>
    af95:	83 e8 01             	sub    $0x1,%eax
    af98:	89 05 b2 25 01 00    	mov    %eax,0x125b2(%rip)        # 1d550 <g_1572>
    af9e:	8b 05 ac 25 01 00    	mov    0x125ac(%rip),%eax        # 1d550 <g_1572>
    afa4:	85 c0                	test   %eax,%eax
    afa6:	0f 89 74 fc ff ff    	jns    ac20 <func_1+0x146b>
    afac:	0f b7 05 35 25 01 00 	movzwl 0x12535(%rip),%eax        # 1d4e8 <g_292>
    afb3:	83 c0 01             	add    $0x1,%eax
    afb6:	66 89 05 2b 25 01 00 	mov    %ax,0x1252b(%rip)        # 1d4e8 <g_292>
    afbd:	0f b7 05 24 25 01 00 	movzwl 0x12524(%rip),%eax        # 1d4e8 <g_292>
    afc4:	66 83 f8 0b          	cmp    $0xb,%ax
    afc8:	0f 8f 32 fc ff ff    	jg     ac00 <func_1+0x144b>
    afce:	8b 05 78 5b 01 00    	mov    0x15b78(%rip),%eax        # 20b4c <g_169>
    afd4:	83 c0 01             	add    $0x1,%eax
    afd7:	89 05 6f 5b 01 00    	mov    %eax,0x15b6f(%rip)        # 20b4c <g_169>
    afdd:	8b 05 69 5b 01 00    	mov    0x15b69(%rip),%eax        # 20b4c <g_169>
    afe3:	83 f8 38             	cmp    $0x38,%eax
    afe6:	0f 85 92 f8 ff ff    	jne    a87e <func_1+0x10c9>
    afec:	8b 05 16 27 01 00    	mov    0x12716(%rip),%eax        # 1d708 <g_2683>
    aff2:	48 8b 5d c8          	mov    -0x38(%rbp),%rbx
    aff6:	64 48 33 1c 25 28 00 	xor    %fs:0x28,%rbx
    affd:	00 00 
    afff:	74 05                	je     b006 <func_1+0x1851>
    b001:	e8 6a d0 ff ff       	callq  8070 <__stack_chk_fail@plt>
    b006:	48 81 c4 58 0e 00 00 	add    $0xe58,%rsp
    b00d:	5b                   	pop    %rbx
    b00e:	41 5c                	pop    %r12
    b010:	41 5d                	pop    %r13
    b012:	41 5e                	pop    %r14
    b014:	41 5f                	pop    %r15
    b016:	5d                   	pop    %rbp
    b017:	c3                   	retq   

000000000000b018 <func_2>:
    b018:	f3 0f 1e fa          	endbr64 
    b01c:	55                   	push   %rbp
    b01d:	48 89 e5             	mov    %rsp,%rbp
    b020:	41 56                	push   %r14
    b022:	41 55                	push   %r13
    b024:	41 54                	push   %r12
    b026:	53                   	push   %rbx
    b027:	48 81 ec 60 0f 00 00 	sub    $0xf60,%rsp
    b02e:	89 bd 9c f0 ff ff    	mov    %edi,-0xf64(%rbp)
    b034:	48 89 95 90 f0 ff ff 	mov    %rdx,-0xf70(%rbp)
    b03b:	89 c8                	mov    %ecx,%eax
    b03d:	89 f2                	mov    %esi,%edx
    b03f:	88 95 98 f0 ff ff    	mov    %dl,-0xf68(%rbp)
    b045:	66 89 85 8c f0 ff ff 	mov    %ax,-0xf74(%rbp)
    b04c:	64 48 8b 04 25 28 00 	mov    %fs:0x28,%rax
    b053:	00 00 
    b055:	48 89 45 d8          	mov    %rax,-0x28(%rbp)
    b059:	31 c0                	xor    %eax,%eax
    b05b:	66 c7 85 a8 f0 ff ff 	movw   $0x3916,-0xf58(%rbp)
    b062:	16 39 
    b064:	48 8d 05 dd 5a 01 00 	lea    0x15add(%rip),%rax        # 20b48 <g_111>
    b06b:	48 89 85 e8 f1 ff ff 	mov    %rax,-0xe18(%rbp)
    b072:	48 8d 05 2f 5b 01 00 	lea    0x15b2f(%rip),%rax        # 20ba8 <g_796>
    b079:	48 89 85 88 f1 ff ff 	mov    %rax,-0xe78(%rbp)
    b080:	48 8d 85 88 f1 ff ff 	lea    -0xe78(%rbp),%rax
    b087:	48 89 85 f0 f1 ff ff 	mov    %rax,-0xe10(%rbp)
    b08e:	48 8d 85 c0 f6 ff ff 	lea    -0x940(%rbp),%rax
    b095:	48 8d 15 24 2c 01 00 	lea    0x12c24(%rip),%rdx        # 1dcc0 <g_2683+0x5b8>
    b09c:	b9 30 00 00 00       	mov    $0x30,%ecx
    b0a1:	48 89 c7             	mov    %rax,%rdi
    b0a4:	48 89 d6             	mov    %rdx,%rsi
    b0a7:	f3 48 a5             	rep movsq %ds:(%rsi),%es:(%rdi)
    b0aa:	c7 85 b4 f0 ff ff b3 	movl   $0xbc99a2b3,-0xf4c(%rbp)
    b0b1:	a2 99 bc 
    b0b4:	c7 85 d0 f4 ff ff fc 	movl   $0xfffffffc,-0xb30(%rbp)
    b0bb:	ff ff ff 
    b0be:	c7 85 d4 f4 ff ff 0d 	movl   $0xfabb190d,-0xb2c(%rbp)
    b0c5:	19 bb fa 
    b0c8:	c7 85 d8 f4 ff ff 53 	movl   $0x57566d53,-0xb28(%rbp)
    b0cf:	6d 56 57 
    b0d2:	c7 85 dc f4 ff ff 00 	movl   $0x0,-0xb24(%rbp)
    b0d9:	00 00 00 
    b0dc:	c7 85 e0 f4 ff ff 53 	movl   $0x57566d53,-0xb20(%rbp)
    b0e3:	6d 56 57 
    b0e6:	c7 85 e4 f4 ff ff 0d 	movl   $0xfabb190d,-0xb1c(%rbp)
    b0ed:	19 bb fa 
    b0f0:	c7 85 e8 f4 ff ff fc 	movl   $0xfffffffc,-0xb18(%rbp)
    b0f7:	ff ff ff 
    b0fa:	c7 85 ec f4 ff ff fc 	movl   $0xfffffffc,-0xb14(%rbp)
    b101:	ff ff ff 
    b104:	c7 85 f0 f4 ff ff 0d 	movl   $0xfabb190d,-0xb10(%rbp)
    b10b:	19 bb fa 
    b10e:	c7 85 f4 f4 ff ff 53 	movl   $0x57566d53,-0xb0c(%rbp)
    b115:	6d 56 57 
    b118:	c7 85 f8 f4 ff ff 0d 	movl   $0xfabb190d,-0xb08(%rbp)
    b11f:	19 bb fa 
    b122:	c7 85 fc f4 ff ff fc 	movl   $0xfffffffc,-0xb04(%rbp)
    b129:	ff ff ff 
    b12c:	c7 85 00 f5 ff ff fc 	movl   $0xfffffffc,-0xb00(%rbp)
    b133:	ff ff ff 
    b136:	c7 85 04 f5 ff ff 0d 	movl   $0xfabb190d,-0xafc(%rbp)
    b13d:	19 bb fa 
    b140:	c7 85 08 f5 ff ff 53 	movl   $0x57566d53,-0xaf8(%rbp)
    b147:	6d 56 57 
    b14a:	c7 85 0c f5 ff ff 00 	movl   $0x0,-0xaf4(%rbp)
    b151:	00 00 00 
    b154:	c7 85 10 f5 ff ff 53 	movl   $0x57566d53,-0xaf0(%rbp)
    b15b:	6d 56 57 
    b15e:	c7 85 14 f5 ff ff 0d 	movl   $0xfabb190d,-0xaec(%rbp)
    b165:	19 bb fa 
    b168:	c7 85 18 f5 ff ff fc 	movl   $0xfffffffc,-0xae8(%rbp)
    b16f:	ff ff ff 
    b172:	c7 85 1c f5 ff ff fc 	movl   $0xfffffffc,-0xae4(%rbp)
    b179:	ff ff ff 
    b17c:	c7 85 20 f5 ff ff 53 	movl   $0x57566d53,-0xae0(%rbp)
    b183:	6d 56 57 
    b186:	c7 85 24 f5 ff ff fc 	movl   $0xfffffffc,-0xadc(%rbp)
    b18d:	ff ff ff 
    b190:	c7 85 28 f5 ff ff 00 	movl   $0x0,-0xad8(%rbp)
    b197:	00 00 00 
    b19a:	c7 85 2c f5 ff ff 66 	movl   $0x110b3266,-0xad4(%rbp)
    b1a1:	32 0b 11 
    b1a4:	c7 85 30 f5 ff ff 66 	movl   $0x110b3266,-0xad0(%rbp)
    b1ab:	32 0b 11 
    b1ae:	c7 85 34 f5 ff ff 00 	movl   $0x0,-0xacc(%rbp)
    b1b5:	00 00 00 
    b1b8:	c7 85 38 f5 ff ff fc 	movl   $0xfffffffc,-0xac8(%rbp)
    b1bf:	ff ff ff 
    b1c2:	c7 85 3c f5 ff ff 53 	movl   $0x57566d53,-0xac4(%rbp)
    b1c9:	6d 56 57 
    b1cc:	c7 85 40 f5 ff ff fc 	movl   $0xfffffffc,-0xac0(%rbp)
    b1d3:	ff ff ff 
    b1d6:	c7 85 44 f5 ff ff 00 	movl   $0x0,-0xabc(%rbp)
    b1dd:	00 00 00 
    b1e0:	48 8d 05 79 59 01 00 	lea    0x15979(%rip),%rax        # 20b60 <g_300>
    b1e7:	48 89 85 00 f2 ff ff 	mov    %rax,-0xe00(%rbp)
    b1ee:	66 c7 85 a4 f0 ff ff 	movw   $0xc14e,-0xf5c(%rbp)
    b1f5:	4e c1 
    b1f7:	48 8d 05 c2 4a 01 00 	lea    0x14ac2(%rip),%rax        # 1fcc0 <g_89>
    b1fe:	48 89 85 08 f2 ff ff 	mov    %rax,-0xdf8(%rbp)
    b205:	48 8d 05 0c 52 01 00 	lea    0x1520c(%rip),%rax        # 20418 <g_1225>
    b20c:	48 89 85 f8 f1 ff ff 	mov    %rax,-0xe08(%rbp)
    b213:	c7 85 0c f1 ff ff 02 	movl   $0x2,-0xef4(%rbp)
    b21a:	00 00 00 
    b21d:	48 8d 85 30 f4 ff ff 	lea    -0xbd0(%rbp),%rax
    b224:	48 83 c0 28          	add    $0x28,%rax
    b228:	48 89 85 90 f1 ff ff 	mov    %rax,-0xe70(%rbp)
    b22f:	48 8d 85 90 f1 ff ff 	lea    -0xe70(%rbp),%rax
    b236:	48 89 85 40 f8 ff ff 	mov    %rax,-0x7c0(%rbp)
    b23d:	48 8d 85 90 f1 ff ff 	lea    -0xe70(%rbp),%rax
    b244:	48 89 85 48 f8 ff ff 	mov    %rax,-0x7b8(%rbp)
    b24b:	48 c7 85 50 f8 ff ff 	movq   $0x0,-0x7b0(%rbp)
    b252:	00 00 00 00 
    b256:	48 8d 85 90 f1 ff ff 	lea    -0xe70(%rbp),%rax
    b25d:	48 89 85 58 f8 ff ff 	mov    %rax,-0x7a8(%rbp)
    b264:	48 8d 85 90 f1 ff ff 	lea    -0xe70(%rbp),%rax
    b26b:	48 89 85 60 f8 ff ff 	mov    %rax,-0x7a0(%rbp)
    b272:	48 8d 85 90 f1 ff ff 	lea    -0xe70(%rbp),%rax
    b279:	48 89 85 68 f8 ff ff 	mov    %rax,-0x798(%rbp)
    b280:	48 8d 85 90 f1 ff ff 	lea    -0xe70(%rbp),%rax
    b287:	48 89 85 70 f8 ff ff 	mov    %rax,-0x790(%rbp)
    b28e:	48 8d 85 90 f1 ff ff 	lea    -0xe70(%rbp),%rax
    b295:	48 89 85 78 f8 ff ff 	mov    %rax,-0x788(%rbp)
    b29c:	48 c7 85 80 f8 ff ff 	movq   $0x0,-0x780(%rbp)
    b2a3:	00 00 00 00 
    b2a7:	48 8d 85 90 f1 ff ff 	lea    -0xe70(%rbp),%rax
    b2ae:	48 89 85 88 f8 ff ff 	mov    %rax,-0x778(%rbp)
    b2b5:	48 8d 85 90 f1 ff ff 	lea    -0xe70(%rbp),%rax
    b2bc:	48 89 85 90 f8 ff ff 	mov    %rax,-0x770(%rbp)
    b2c3:	48 c7 85 98 f8 ff ff 	movq   $0x0,-0x768(%rbp)
    b2ca:	00 00 00 00 
    b2ce:	48 c7 85 a0 f8 ff ff 	movq   $0x0,-0x760(%rbp)
    b2d5:	00 00 00 00 
    b2d9:	48 8d 85 90 f1 ff ff 	lea    -0xe70(%rbp),%rax
    b2e0:	48 89 85 a8 f8 ff ff 	mov    %rax,-0x758(%rbp)
    b2e7:	48 c7 85 b0 f8 ff ff 	movq   $0x0,-0x750(%rbp)
    b2ee:	00 00 00 00 
    b2f2:	48 8d 85 90 f1 ff ff 	lea    -0xe70(%rbp),%rax
    b2f9:	48 89 85 b8 f8 ff ff 	mov    %rax,-0x748(%rbp)
    b300:	48 8d 85 90 f1 ff ff 	lea    -0xe70(%rbp),%rax
    b307:	48 89 85 c0 f8 ff ff 	mov    %rax,-0x740(%rbp)
    b30e:	48 c7 85 c8 f8 ff ff 	movq   $0x0,-0x738(%rbp)
    b315:	00 00 00 00 
    b319:	48 8d 85 90 f1 ff ff 	lea    -0xe70(%rbp),%rax
    b320:	48 89 85 d0 f8 ff ff 	mov    %rax,-0x730(%rbp)
    b327:	48 c7 85 d8 f8 ff ff 	movq   $0x0,-0x728(%rbp)
    b32e:	00 00 00 00 
    b332:	48 8d 85 90 f1 ff ff 	lea    -0xe70(%rbp),%rax
    b339:	48 89 85 e0 f8 ff ff 	mov    %rax,-0x720(%rbp)
    b340:	48 8d 85 90 f1 ff ff 	lea    -0xe70(%rbp),%rax
    b347:	48 89 85 e8 f8 ff ff 	mov    %rax,-0x718(%rbp)
    b34e:	48 c7 85 f0 f8 ff ff 	movq   $0x0,-0x710(%rbp)
    b355:	00 00 00 00 
    b359:	48 8d 85 90 f1 ff ff 	lea    -0xe70(%rbp),%rax
    b360:	48 89 85 f8 f8 ff ff 	mov    %rax,-0x708(%rbp)
    b367:	48 c7 85 00 f9 ff ff 	movq   $0x0,-0x700(%rbp)
    b36e:	00 00 00 00 
    b372:	48 c7 85 08 f9 ff ff 	movq   $0x0,-0x6f8(%rbp)
    b379:	00 00 00 00 
    b37d:	48 8d 85 90 f1 ff ff 	lea    -0xe70(%rbp),%rax
    b384:	48 89 85 10 f9 ff ff 	mov    %rax,-0x6f0(%rbp)
    b38b:	48 8d 85 90 f1 ff ff 	lea    -0xe70(%rbp),%rax
    b392:	48 89 85 18 f9 ff ff 	mov    %rax,-0x6e8(%rbp)
    b399:	48 c7 85 20 f9 ff ff 	movq   $0x0,-0x6e0(%rbp)
    b3a0:	00 00 00 00 
    b3a4:	48 8d 85 90 f1 ff ff 	lea    -0xe70(%rbp),%rax
    b3ab:	48 89 85 28 f9 ff ff 	mov    %rax,-0x6d8(%rbp)
    b3b2:	48 8d 85 90 f1 ff ff 	lea    -0xe70(%rbp),%rax
    b3b9:	48 89 85 30 f9 ff ff 	mov    %rax,-0x6d0(%rbp)
    b3c0:	48 8d 85 90 f1 ff ff 	lea    -0xe70(%rbp),%rax
    b3c7:	48 89 85 38 f9 ff ff 	mov    %rax,-0x6c8(%rbp)
    b3ce:	48 8d 85 90 f1 ff ff 	lea    -0xe70(%rbp),%rax
    b3d5:	48 89 85 40 f9 ff ff 	mov    %rax,-0x6c0(%rbp)
    b3dc:	48 8d 85 90 f1 ff ff 	lea    -0xe70(%rbp),%rax
    b3e3:	48 89 85 48 f9 ff ff 	mov    %rax,-0x6b8(%rbp)
    b3ea:	48 c7 85 50 f9 ff ff 	movq   $0x0,-0x6b0(%rbp)
    b3f1:	00 00 00 00 
    b3f5:	48 8d 85 90 f1 ff ff 	lea    -0xe70(%rbp),%rax
    b3fc:	48 89 85 58 f9 ff ff 	mov    %rax,-0x6a8(%rbp)
    b403:	48 8d 85 90 f1 ff ff 	lea    -0xe70(%rbp),%rax
    b40a:	48 89 85 60 f9 ff ff 	mov    %rax,-0x6a0(%rbp)
    b411:	48 c7 85 68 f9 ff ff 	movq   $0x0,-0x698(%rbp)
    b418:	00 00 00 00 
    b41c:	48 c7 85 70 f9 ff ff 	movq   $0x0,-0x690(%rbp)
    b423:	00 00 00 00 
    b427:	48 8d 85 90 f1 ff ff 	lea    -0xe70(%rbp),%rax
    b42e:	48 89 85 78 f9 ff ff 	mov    %rax,-0x688(%rbp)
    b435:	48 c7 85 80 f9 ff ff 	movq   $0x0,-0x680(%rbp)
    b43c:	00 00 00 00 
    b440:	48 8d 85 90 f1 ff ff 	lea    -0xe70(%rbp),%rax
    b447:	48 89 85 88 f9 ff ff 	mov    %rax,-0x678(%rbp)
    b44e:	48 8d 85 90 f1 ff ff 	lea    -0xe70(%rbp),%rax
    b455:	48 89 85 90 f9 ff ff 	mov    %rax,-0x670(%rbp)
    b45c:	48 c7 85 98 f9 ff ff 	movq   $0x0,-0x668(%rbp)
    b463:	00 00 00 00 
    b467:	48 8d 85 90 f1 ff ff 	lea    -0xe70(%rbp),%rax
    b46e:	48 89 85 a0 f9 ff ff 	mov    %rax,-0x660(%rbp)
    b475:	48 c7 85 a8 f9 ff ff 	movq   $0x0,-0x658(%rbp)
    b47c:	00 00 00 00 
    b480:	48 8d 85 90 f1 ff ff 	lea    -0xe70(%rbp),%rax
    b487:	48 89 85 b0 f9 ff ff 	mov    %rax,-0x650(%rbp)
    b48e:	48 8d 85 90 f1 ff ff 	lea    -0xe70(%rbp),%rax
    b495:	48 89 85 b8 f9 ff ff 	mov    %rax,-0x648(%rbp)
    b49c:	48 c7 85 c0 f9 ff ff 	movq   $0x0,-0x640(%rbp)
    b4a3:	00 00 00 00 
    b4a7:	48 8d 85 90 f1 ff ff 	lea    -0xe70(%rbp),%rax
    b4ae:	48 89 85 c8 f9 ff ff 	mov    %rax,-0x638(%rbp)
    b4b5:	48 c7 85 d0 f9 ff ff 	movq   $0x0,-0x630(%rbp)
    b4bc:	00 00 00 00 
    b4c0:	48 c7 85 d8 f9 ff ff 	movq   $0x0,-0x628(%rbp)
    b4c7:	00 00 00 00 
    b4cb:	48 8d 85 90 f1 ff ff 	lea    -0xe70(%rbp),%rax
    b4d2:	48 89 85 e0 f9 ff ff 	mov    %rax,-0x620(%rbp)
    b4d9:	48 8d 85 90 f1 ff ff 	lea    -0xe70(%rbp),%rax
    b4e0:	48 89 85 e8 f9 ff ff 	mov    %rax,-0x618(%rbp)
    b4e7:	48 c7 85 f0 f9 ff ff 	movq   $0x0,-0x610(%rbp)
    b4ee:	00 00 00 00 
    b4f2:	48 8d 85 90 f1 ff ff 	lea    -0xe70(%rbp),%rax
    b4f9:	48 89 85 f8 f9 ff ff 	mov    %rax,-0x608(%rbp)
    b500:	48 8d 85 90 f1 ff ff 	lea    -0xe70(%rbp),%rax
    b507:	48 89 85 00 fa ff ff 	mov    %rax,-0x600(%rbp)
    b50e:	48 8d 85 90 f1 ff ff 	lea    -0xe70(%rbp),%rax
    b515:	48 89 85 08 fa ff ff 	mov    %rax,-0x5f8(%rbp)
    b51c:	48 8d 85 90 f1 ff ff 	lea    -0xe70(%rbp),%rax
    b523:	48 89 85 10 fa ff ff 	mov    %rax,-0x5f0(%rbp)
    b52a:	48 8d 85 90 f1 ff ff 	lea    -0xe70(%rbp),%rax
    b531:	48 89 85 18 fa ff ff 	mov    %rax,-0x5e8(%rbp)
    b538:	c7 85 10 f1 ff ff bb 	movl   $0x7c2624bb,-0xef0(%rbp)
    b53f:	24 26 7c 
    b542:	48 8d 05 8f 47 01 00 	lea    0x1478f(%rip),%rax        # 1fcd8 <g_208>
    b549:	48 89 85 10 f2 ff ff 	mov    %rax,-0xdf0(%rbp)
    b550:	c7 85 14 f1 ff ff 2b 	movl   $0x6c94782b,-0xeec(%rbp)
    b557:	78 94 6c 
    b55a:	48 c7 85 98 f1 ff ff 	movq   $0x0,-0xe68(%rbp)
    b561:	00 00 00 00 
    b565:	c7 85 98 f1 ff ff fc 	movl   $0x7f5207fc,-0xe68(%rbp)
    b56c:	07 52 7f 
    b56f:	66 c7 85 ac f0 ff ff 	movw   $0xdf9f,-0xf54(%rbp)
    b576:	9f df 
    b578:	66 c7 85 c0 f3 ff ff 	movw   $0xfff6,-0xc40(%rbp)
    b57f:	f6 ff 
    b581:	66 c7 85 c2 f3 ff ff 	movw   $0x23e9,-0xc3e(%rbp)
    b588:	e9 23 
    b58a:	66 c7 85 c4 f3 ff ff 	movw   $0xfff6,-0xc3c(%rbp)
    b591:	f6 ff 
    b593:	66 c7 85 c6 f3 ff ff 	movw   $0x23e9,-0xc3a(%rbp)
    b59a:	e9 23 
    b59c:	66 c7 85 c8 f3 ff ff 	movw   $0xfff6,-0xc38(%rbp)
    b5a3:	f6 ff 
    b5a5:	66 c7 85 ca f3 ff ff 	movw   $0x23e9,-0xc36(%rbp)
    b5ac:	e9 23 
    b5ae:	66 c7 85 cc f3 ff ff 	movw   $0xfff6,-0xc34(%rbp)
    b5b5:	f6 ff 
    b5b7:	66 c7 85 ce f3 ff ff 	movw   $0x23e9,-0xc32(%rbp)
    b5be:	e9 23 
    b5c0:	66 c7 85 d0 f3 ff ff 	movw   $0xfff6,-0xc30(%rbp)
    b5c7:	f6 ff 
    b5c9:	66 c7 85 d2 f3 ff ff 	movw   $0x23e9,-0xc2e(%rbp)
    b5d0:	e9 23 
    b5d2:	66 c7 85 d4 f3 ff ff 	movw   $0xfff6,-0xc2c(%rbp)
    b5d9:	f6 ff 
    b5db:	66 c7 85 d6 f3 ff ff 	movw   $0x23e9,-0xc2a(%rbp)
    b5e2:	e9 23 
    b5e4:	66 c7 85 d8 f3 ff ff 	movw   $0xfff6,-0xc28(%rbp)
    b5eb:	f6 ff 
    b5ed:	66 c7 85 da f3 ff ff 	movw   $0x23e9,-0xc26(%rbp)
    b5f4:	e9 23 
    b5f6:	66 c7 85 dc f3 ff ff 	movw   $0xfff6,-0xc24(%rbp)
    b5fd:	f6 ff 
    b5ff:	66 c7 85 de f3 ff ff 	movw   $0x23e9,-0xc22(%rbp)
    b606:	e9 23 
    b608:	66 c7 85 e0 f3 ff ff 	movw   $0xfff6,-0xc20(%rbp)
    b60f:	f6 ff 
    b611:	66 c7 85 e2 f3 ff ff 	movw   $0x23e9,-0xc1e(%rbp)
    b618:	e9 23 
    b61a:	66 c7 85 e4 f3 ff ff 	movw   $0xfff6,-0xc1c(%rbp)
    b621:	f6 ff 
    b623:	66 c7 85 e6 f3 ff ff 	movw   $0x23e9,-0xc1a(%rbp)
    b62a:	e9 23 
    b62c:	48 c7 85 18 f2 ff ff 	movq   $0x0,-0xde8(%rbp)
    b633:	00 00 00 00 
    b637:	c7 85 18 f1 ff ff 04 	movl   $0x4,-0xee8(%rbp)
    b63e:	00 00 00 
    b641:	48 c7 85 20 f2 ff ff 	movq   $0xffffffffffffffff,-0xde0(%rbp)
    b648:	ff ff ff ff 
    b64c:	c7 85 f0 f0 ff ff 00 	movl   $0x0,-0xf10(%rbp)
    b653:	00 00 00 
    b656:	eb 1e                	jmp    b676 <func_2+0x65e>
    b658:	8b 85 f0 f0 ff ff    	mov    -0xf10(%rbp),%eax
    b65e:	48 98                	cltq   
    b660:	48 8d 15 f9 1e 01 00 	lea    0x11ef9(%rip),%rdx        # 1d560 <g_1976>
    b667:	48 89 94 c5 30 f4 ff 	mov    %rdx,-0xbd0(%rbp,%rax,8)
    b66e:	ff 
    b66f:	83 85 f0 f0 ff ff 01 	addl   $0x1,-0xf10(%rbp)
    b676:	83 bd f0 f0 ff ff 08 	cmpl   $0x8,-0xf10(%rbp)
    b67d:	7e d9                	jle    b658 <func_2+0x640>
    b67f:	c7 85 f0 f0 ff ff 00 	movl   $0x0,-0xf10(%rbp)
    b686:	00 00 00 
    b689:	eb 22                	jmp    b6ad <func_2+0x695>
    b68b:	8b 85 f0 f0 ff ff    	mov    -0xf10(%rbp),%eax
    b691:	48 98                	cltq   
    b693:	48 8d 95 d0 f4 ff ff 	lea    -0xb30(%rbp),%rdx
    b69a:	48 83 c2 44          	add    $0x44,%rdx
    b69e:	48 89 94 c5 90 f3 ff 	mov    %rdx,-0xc70(%rbp,%rax,8)
    b6a5:	ff 
    b6a6:	83 85 f0 f0 ff ff 01 	addl   $0x1,-0xf10(%rbp)
    b6ad:	83 bd f0 f0 ff ff 04 	cmpl   $0x4,-0xf10(%rbp)
    b6b4:	7e d5                	jle    b68b <func_2+0x673>
    b6b6:	48 8b 05 0b 46 01 00 	mov    0x1460b(%rip),%rax        # 1fcc8 <g_180>
    b6bd:	c7 00 00 00 00 00    	movl   $0x0,(%rax)
    b6c3:	0f b7 95 a8 f0 ff ff 	movzwl -0xf58(%rbp),%edx
    b6ca:	48 8b 85 e8 f1 ff ff 	mov    -0xe18(%rbp),%rax
    b6d1:	66 89 10             	mov    %dx,(%rax)
    b6d4:	0f b7 85 8c f0 ff ff 	movzwl -0xf74(%rbp),%eax
    b6db:	0f b7 c0             	movzwl %ax,%eax
    b6de:	89 85 b4 f0 ff ff    	mov    %eax,-0xf4c(%rbp)
    b6e4:	44 8b ad b4 f0 ff ff 	mov    -0xf4c(%rbp),%r13d
    b6eb:	48 8b 05 d6 45 01 00 	mov    0x145d6(%rip),%rax        # 1fcc8 <g_180>
    b6f2:	c7 00 05 00 00 00    	movl   $0x5,(%rax)
    b6f8:	8b 00                	mov    (%rax),%eax
    b6fa:	89 c6                	mov    %eax,%esi
    b6fc:	bf 00 00 00 00       	mov    $0x0,%edi
    b701:	e8 ff ce ff ff       	callq  8605 <safe_sub_func_int32_t_s_s>
    b706:	41 89 c4             	mov    %eax,%r12d
    b709:	8b 85 90 f0 ff ff    	mov    -0xf70(%rbp),%eax
    b70f:	0f b7 d8             	movzwl %ax,%ebx
    b712:	0f bf 95 a8 f0 ff ff 	movswl -0xf58(%rbp),%edx
    b719:	0f bf 85 a8 f0 ff ff 	movswl -0xf58(%rbp),%eax
    b720:	89 d6                	mov    %edx,%esi
    b722:	89 c7                	mov    %eax,%edi
    b724:	e8 aa cc ff ff       	callq  83d3 <safe_sub_func_int16_t_s_s>
    b729:	0f b7 c0             	movzwl %ax,%eax
    b72c:	89 de                	mov    %ebx,%esi
    b72e:	89 c7                	mov    %eax,%edi
    b730:	e8 27 d6 ff ff       	callq  8d5c <safe_mod_func_uint16_t_u_u>
    b735:	0f b7 c0             	movzwl %ax,%eax
    b738:	44 89 e2             	mov    %r12d,%edx
    b73b:	09 c2                	or     %eax,%edx
    b73d:	0f bf 85 a8 f0 ff ff 	movswl -0xf58(%rbp),%eax
    b744:	39 c2                	cmp    %eax,%edx
    b746:	0f 94 c0             	sete   %al
    b749:	0f b6 c0             	movzbl %al,%eax
    b74c:	41 39 c5             	cmp    %eax,%r13d
    b74f:	0f 95 c0             	setne  %al
    b752:	0f b6 d0             	movzbl %al,%edx
    b755:	0f b7 85 8c f0 ff ff 	movzwl -0xf74(%rbp),%eax
    b75c:	0f b7 c0             	movzwl %ax,%eax
    b75f:	39 c2                	cmp    %eax,%edx
    b761:	0f 9c c0             	setl   %al
    b764:	0f b6 d8             	movzbl %al,%ebx
    b767:	0f b7 85 a8 f0 ff ff 	movzwl -0xf58(%rbp),%eax
    b76e:	44 0f be e0          	movsbl %al,%r12d
    b772:	48 8b 95 88 f1 ff ff 	mov    -0xe78(%rbp),%rdx
    b779:	48 8b 85 f0 f1 ff ff 	mov    -0xe10(%rbp),%rax
    b780:	48 89 10             	mov    %rdx,(%rax)
    b783:	48 8b 85 f0 f1 ff ff 	mov    -0xe10(%rbp),%rax
    b78a:	48 8b 00             	mov    (%rax),%rax
    b78d:	48 85 c0             	test   %rax,%rax
    b790:	0f 95 c0             	setne  %al
    b793:	0f b6 c0             	movzbl %al,%eax
    b796:	89 c6                	mov    %eax,%esi
    b798:	bf 01 00 00 00       	mov    $0x1,%edi
    b79d:	e8 d6 d3 ff ff       	callq  8b78 <safe_sub_func_uint8_t_u_u>
    b7a2:	0f be c0             	movsbl %al,%eax
    b7a5:	44 89 e6             	mov    %r12d,%esi
    b7a8:	89 c7                	mov    %eax,%edi
    b7aa:	e8 43 ca ff ff       	callq  81f2 <safe_sub_func_int8_t_s_s>
    b7af:	48 0f be c0          	movsbq %al,%rax
    b7b3:	48 89 de             	mov    %rbx,%rsi
    b7b6:	48 89 c7             	mov    %rax,%rdi
    b7b9:	e8 ea d0 ff ff       	callq  88a8 <safe_sub_func_int64_t_s_s>
    b7be:	89 c2                	mov    %eax,%edx
    b7c0:	8b 85 9c f0 ff ff    	mov    -0xf64(%rbp),%eax
    b7c6:	31 d0                	xor    %edx,%eax
    b7c8:	83 c8 fc             	or     $0xfffffffc,%eax
    b7cb:	89 85 2c f5 ff ff    	mov    %eax,-0xad4(%rbp)
    b7d1:	c7 05 65 1d 01 00 17 	movl   $0x17,0x11d65(%rip)        # 1d540 <g_1404>
    b7d8:	00 00 00 
    b7db:	e9 14 2b 00 00       	jmpq   e2f4 <func_2+0x32dc>
    b7e0:	66 c7 85 a6 f0 ff ff 	movw   $0xf5ec,-0xf5a(%rbp)
    b7e7:	ec f5 
    b7e9:	48 8d 05 f8 1c 01 00 	lea    0x11cf8(%rip),%rax        # 1d4e8 <g_292>
    b7f0:	48 89 85 a0 f1 ff ff 	mov    %rax,-0xe60(%rbp)
    b7f7:	48 8d 85 a0 f1 ff ff 	lea    -0xe60(%rbp),%rax
    b7fe:	48 89 85 28 f2 ff ff 	mov    %rax,-0xdd8(%rbp)
    b805:	c7 85 b8 f0 ff ff 00 	movl   $0x0,-0xf48(%rbp)
    b80c:	00 00 00 
    b80f:	c7 85 f4 f0 ff ff ac 	movl   $0x2935e1ac,-0xf0c(%rbp)
    b816:	e1 35 29 
    b819:	c7 85 1c f1 ff ff 46 	movl   $0xa30b3346,-0xee4(%rbp)
    b820:	33 0b a3 
    b823:	c7 85 bc f0 ff ff 1d 	movl   $0x7b10191d,-0xf44(%rbp)
    b82a:	19 10 7b 
    b82d:	c7 85 c0 f0 ff ff 0f 	movl   $0x4edc350f,-0xf40(%rbp)
    b834:	35 dc 4e 
    b837:	c7 85 c4 f0 ff ff 00 	movl   $0x0,-0xf3c(%rbp)
    b83e:	00 00 00 
    b841:	c7 85 c8 f0 ff ff 00 	movl   $0x0,-0xf38(%rbp)
    b848:	00 00 00 
    b84b:	c7 85 cc f0 ff ff 06 	movl   $0x6,-0xf34(%rbp)
    b852:	00 00 00 
    b855:	c7 85 d0 f0 ff ff f7 	movl   $0xfffffff7,-0xf30(%rbp)
    b85c:	ff ff ff 
    b85f:	c7 85 d4 f0 ff ff ff 	movl   $0xffffffff,-0xf2c(%rbp)
    b866:	ff ff ff 
    b869:	c7 85 d8 f0 ff ff f9 	movl   $0xfffffff9,-0xf28(%rbp)
    b870:	ff ff ff 
    b873:	c7 85 dc f0 ff ff fe 	movl   $0xfffffffe,-0xf24(%rbp)
    b87a:	ff ff ff 
    b87d:	c7 85 e0 f0 ff ff fa 	movl   $0xfffffffa,-0xf20(%rbp)
    b884:	ff ff ff 
    b887:	c7 85 e4 f0 ff ff c6 	movl   $0xb808d8c6,-0xf1c(%rbp)
    b88e:	d8 08 b8 
    b891:	c7 85 e8 f0 ff ff f0 	movl   $0xd9c654f0,-0xf18(%rbp)
    b898:	54 c6 d9 
    b89b:	c7 85 70 f3 ff ff 72 	movl   $0x5ed33072,-0xc90(%rbp)
    b8a2:	30 d3 5e 
    b8a5:	c7 85 74 f3 ff ff 00 	movl   $0x0,-0xc8c(%rbp)
    b8ac:	00 00 00 
    b8af:	c7 85 78 f3 ff ff 72 	movl   $0x5ed33072,-0xc88(%rbp)
    b8b6:	30 d3 5e 
    b8b9:	c7 85 7c f3 ff ff 00 	movl   $0x0,-0xc84(%rbp)
    b8c0:	00 00 00 
    b8c3:	c7 85 80 f3 ff ff 72 	movl   $0x5ed33072,-0xc80(%rbp)
    b8ca:	30 d3 5e 
    b8cd:	c7 85 84 f3 ff ff 00 	movl   $0x0,-0xc7c(%rbp)
    b8d4:	00 00 00 
    b8d7:	c7 85 88 f3 ff ff 72 	movl   $0x5ed33072,-0xc78(%rbp)
    b8de:	30 d3 5e 
    b8e1:	c7 85 8c f3 ff ff 00 	movl   $0x0,-0xc74(%rbp)
    b8e8:	00 00 00 
    b8eb:	48 c7 85 a8 f1 ff ff 	movq   $0x0,-0xe58(%rbp)
    b8f2:	00 00 00 00 
    b8f6:	48 8d 85 a8 f1 ff ff 	lea    -0xe58(%rbp),%rax
    b8fd:	48 89 85 30 f2 ff ff 	mov    %rax,-0xdd0(%rbp)
    b904:	48 c7 85 b0 f1 ff ff 	movq   $0x0,-0xe50(%rbp)
    b90b:	00 00 00 00 
    b90f:	48 c7 85 b8 f1 ff ff 	movq   $0x0,-0xe48(%rbp)
    b916:	00 00 00 00 
    b91a:	48 8d 85 b8 f1 ff ff 	lea    -0xe48(%rbp),%rax
    b921:	48 89 85 38 f2 ff ff 	mov    %rax,-0xdc8(%rbp)
    b928:	48 8d 05 79 1a 01 00 	lea    0x11a79(%rip),%rax        # 1d3a8 <g_177>
    b92f:	48 89 85 40 f2 ff ff 	mov    %rax,-0xdc0(%rbp)
    b936:	c7 85 20 f1 ff ff 00 	movl   $0x0,-0xee0(%rbp)
    b93d:	00 00 00 
    b940:	48 8d 05 09 1c 01 00 	lea    0x11c09(%rip),%rax        # 1d550 <g_1572>
    b947:	48 89 85 c0 f1 ff ff 	mov    %rax,-0xe40(%rbp)
    b94e:	48 8d 85 c0 f1 ff ff 	lea    -0xe40(%rbp),%rax
    b955:	48 89 85 80 f4 ff ff 	mov    %rax,-0xb80(%rbp)
    b95c:	48 8d 85 c0 f1 ff ff 	lea    -0xe40(%rbp),%rax
    b963:	48 89 85 88 f4 ff ff 	mov    %rax,-0xb78(%rbp)
    b96a:	48 8d 85 c0 f1 ff ff 	lea    -0xe40(%rbp),%rax
    b971:	48 89 85 90 f4 ff ff 	mov    %rax,-0xb70(%rbp)
    b978:	48 8d 85 c0 f1 ff ff 	lea    -0xe40(%rbp),%rax
    b97f:	48 89 85 98 f4 ff ff 	mov    %rax,-0xb68(%rbp)
    b986:	48 8d 85 c0 f1 ff ff 	lea    -0xe40(%rbp),%rax
    b98d:	48 89 85 a0 f4 ff ff 	mov    %rax,-0xb60(%rbp)
    b994:	48 8d 85 c0 f1 ff ff 	lea    -0xe40(%rbp),%rax
    b99b:	48 89 85 a8 f4 ff ff 	mov    %rax,-0xb58(%rbp)
    b9a2:	48 8d 85 c0 f1 ff ff 	lea    -0xe40(%rbp),%rax
    b9a9:	48 89 85 b0 f4 ff ff 	mov    %rax,-0xb50(%rbp)
    b9b0:	48 8d 85 c0 f1 ff ff 	lea    -0xe40(%rbp),%rax
    b9b7:	48 89 85 b8 f4 ff ff 	mov    %rax,-0xb48(%rbp)
    b9be:	48 8d 85 c0 f1 ff ff 	lea    -0xe40(%rbp),%rax
    b9c5:	48 89 85 c0 f4 ff ff 	mov    %rax,-0xb40(%rbp)
    b9cc:	48 8d 85 c0 f1 ff ff 	lea    -0xe40(%rbp),%rax
    b9d3:	48 89 85 c8 f4 ff ff 	mov    %rax,-0xb38(%rbp)
    b9da:	48 8d 85 20 fa ff ff 	lea    -0x5e0(%rbp),%rax
    b9e1:	48 8d 15 58 24 01 00 	lea    0x12458(%rip),%rdx        # 1de40 <g_2683+0x738>
    b9e8:	b9 51 00 00 00       	mov    $0x51,%ecx
    b9ed:	48 89 c7             	mov    %rax,%rdi
    b9f0:	48 89 d6             	mov    %rdx,%rsi
    b9f3:	f3 48 a5             	rep movsq %ds:(%rsi),%es:(%rdi)
    b9f6:	48 8d 85 20 fa ff ff 	lea    -0x5e0(%rbp),%rax
    b9fd:	48 05 58 01 00 00    	add    $0x158,%rax
    ba03:	48 89 85 48 f2 ff ff 	mov    %rax,-0xdb8(%rbp)
    ba0a:	48 8d 05 37 1b 01 00 	lea    0x11b37(%rip),%rax        # 1d548 <g_1457>
    ba11:	48 89 85 50 f2 ff ff 	mov    %rax,-0xdb0(%rbp)
    ba18:	80 bd 98 f0 ff ff 00 	cmpb   $0x0,-0xf68(%rbp)
    ba1f:	75 27                	jne    ba48 <func_2+0xa30>
    ba21:	0f b7 85 8c f0 ff ff 	movzwl -0xf74(%rbp),%eax
    ba28:	0f b7 c0             	movzwl %ax,%eax
    ba2b:	89 c6                	mov    %eax,%esi
    ba2d:	bf f9 ff ff ff       	mov    $0xfffffff9,%edi
    ba32:	e8 6a c8 ff ff       	callq  82a1 <safe_lshift_func_int8_t_s_s>
    ba37:	0f be d0             	movsbl %al,%edx
    ba3a:	0f b7 85 8c f0 ff ff 	movzwl -0xf74(%rbp),%eax
    ba41:	0f b7 c0             	movzwl %ax,%eax
    ba44:	39 c2                	cmp    %eax,%edx
    ba46:	7e 07                	jle    ba4f <func_2+0xa37>
    ba48:	b8 01 00 00 00       	mov    $0x1,%eax
    ba4d:	eb 05                	jmp    ba54 <func_2+0xa3c>
    ba4f:	b8 00 00 00 00       	mov    $0x0,%eax
    ba54:	0f b7 c0             	movzwl %ax,%eax
    ba57:	89 c6                	mov    %eax,%esi
    ba59:	bf f8 3d 00 00       	mov    $0x3df8,%edi
    ba5e:	e8 da d2 ff ff       	callq  8d3d <safe_mul_func_uint16_t_u_u>
    ba63:	66 85 c0             	test   %ax,%ax
    ba66:	0f 84 b0 05 00 00    	je     c01c <func_2+0x1004>
    ba6c:	48 8d 05 39 19 01 00 	lea    0x11939(%rip),%rax        # 1d3ac <g_181>
    ba73:	48 89 85 d8 f1 ff ff 	mov    %rax,-0xe28(%rbp)
    ba7a:	48 8d 05 6f 1a 01 00 	lea    0x11a6f(%rip),%rax        # 1d4f0 <g_397>
    ba81:	48 89 85 e0 f1 ff ff 	mov    %rax,-0xe20(%rbp)
    ba88:	c7 85 2c f1 ff ff 01 	movl   $0x1,-0xed4(%rbp)
    ba8f:	00 00 00 
    ba92:	48 c7 85 78 f2 ff ff 	movq   $0x0,-0xd88(%rbp)
    ba99:	00 00 00 00 
    ba9d:	c7 85 30 f1 ff ff 00 	movl   $0x0,-0xed0(%rbp)
    baa4:	00 00 00 
    baa7:	c7 85 34 f1 ff ff fa 	movl   $0xfffffffa,-0xecc(%rbp)
    baae:	ff ff ff 
    bab1:	c7 85 38 f1 ff ff 01 	movl   $0x1,-0xec8(%rbp)
    bab8:	00 00 00 
    babb:	c7 85 b0 fc ff ff bf 	movl   $0x47bb67bf,-0x350(%rbp)
    bac2:	67 bb 47 
    bac5:	c7 85 b4 fc ff ff f8 	movl   $0xfffffff8,-0x34c(%rbp)
    bacc:	ff ff ff 
    bacf:	c7 85 b8 fc ff ff bf 	movl   $0x47bb67bf,-0x348(%rbp)
    bad6:	67 bb 47 
    bad9:	c7 85 bc fc ff ff 01 	movl   $0x1,-0x344(%rbp)
    bae0:	00 00 00 
    bae3:	c7 85 c0 fc ff ff fe 	movl   $0xfffffffe,-0x340(%rbp)
    baea:	ff ff ff 
    baed:	c7 85 c4 fc ff ff e5 	movl   $0x888c53e5,-0x33c(%rbp)
    baf4:	53 8c 88 
    baf7:	c7 85 c8 fc ff ff bf 	movl   $0x47bb67bf,-0x338(%rbp)
    bafe:	67 bb 47 
    bb01:	c7 85 cc fc ff ff 01 	movl   $0x1,-0x334(%rbp)
    bb08:	00 00 00 
    bb0b:	c7 85 d0 fc ff ff fb 	movl   $0xfffffffb,-0x330(%rbp)
    bb12:	ff ff ff 
    bb15:	c7 85 d4 fc ff ff 01 	movl   $0x1,-0x32c(%rbp)
    bb1c:	00 00 00 
    bb1f:	c7 85 d8 fc ff ff 74 	movl   $0xe8d6a574,-0x328(%rbp)
    bb26:	a5 d6 e8 
    bb29:	c7 85 dc fc ff ff 01 	movl   $0x1,-0x324(%rbp)
    bb30:	00 00 00 
    bb33:	c7 85 e0 fc ff ff bf 	movl   $0x47bb67bf,-0x320(%rbp)
    bb3a:	67 bb 47 
    bb3d:	c7 85 e4 fc ff ff 01 	movl   $0x1,-0x31c(%rbp)
    bb44:	00 00 00 
    bb47:	c7 85 e8 fc ff ff 8d 	movl   $0xdb52e68d,-0x318(%rbp)
    bb4e:	e6 52 db 
    bb51:	c7 85 ec fc ff ff 01 	movl   $0x1,-0x314(%rbp)
    bb58:	00 00 00 
    bb5b:	c7 85 f0 fc ff ff ab 	movl   $0xa0010fab,-0x310(%rbp)
    bb62:	0f 01 a0 
    bb65:	c7 85 f4 fc ff ff 57 	movl   $0x205d3e57,-0x30c(%rbp)
    bb6c:	3e 5d 20 
    bb6f:	c7 85 f8 fc ff ff bf 	movl   $0x47bb67bf,-0x308(%rbp)
    bb76:	67 bb 47 
    bb79:	c7 85 fc fc ff ff f8 	movl   $0xfffffff8,-0x304(%rbp)
    bb80:	ff ff ff 
    bb83:	c7 85 00 fd ff ff bf 	movl   $0x47bb67bf,-0x300(%rbp)
    bb8a:	67 bb 47 
    bb8d:	c7 85 04 fd ff ff 01 	movl   $0x1,-0x2fc(%rbp)
    bb94:	00 00 00 
    bb97:	c7 85 08 fd ff ff fe 	movl   $0xfffffffe,-0x2f8(%rbp)
    bb9e:	ff ff ff 
    bba1:	c7 85 0c fd ff ff e5 	movl   $0x888c53e5,-0x2f4(%rbp)
    bba8:	53 8c 88 
    bbab:	c7 85 10 fd ff ff bf 	movl   $0x47bb67bf,-0x2f0(%rbp)
    bbb2:	67 bb 47 
    bbb5:	c7 85 14 fd ff ff 01 	movl   $0x1,-0x2ec(%rbp)
    bbbc:	00 00 00 
    bbbf:	c7 85 18 fd ff ff fb 	movl   $0xfffffffb,-0x2e8(%rbp)
    bbc6:	ff ff ff 
    bbc9:	c7 85 1c fd ff ff 01 	movl   $0x1,-0x2e4(%rbp)
    bbd0:	00 00 00 
    bbd3:	c7 85 20 fd ff ff 74 	movl   $0xe8d6a574,-0x2e0(%rbp)
    bbda:	a5 d6 e8 
    bbdd:	c7 85 24 fd ff ff 01 	movl   $0x1,-0x2dc(%rbp)
    bbe4:	00 00 00 
    bbe7:	c7 85 28 fd ff ff bf 	movl   $0x47bb67bf,-0x2d8(%rbp)
    bbee:	67 bb 47 
    bbf1:	c7 85 2c fd ff ff 01 	movl   $0x1,-0x2d4(%rbp)
    bbf8:	00 00 00 
    bbfb:	c7 85 30 fd ff ff 8d 	movl   $0xdb52e68d,-0x2d0(%rbp)
    bc02:	e6 52 db 
    bc05:	c7 85 34 fd ff ff 01 	movl   $0x1,-0x2cc(%rbp)
    bc0c:	00 00 00 
    bc0f:	c7 85 38 fd ff ff ab 	movl   $0xa0010fab,-0x2c8(%rbp)
    bc16:	0f 01 a0 
    bc19:	c7 85 3c fd ff ff 57 	movl   $0x205d3e57,-0x2c4(%rbp)
    bc20:	3e 5d 20 
    bc23:	c7 85 40 fd ff ff bf 	movl   $0x47bb67bf,-0x2c0(%rbp)
    bc2a:	67 bb 47 
    bc2d:	c7 85 44 fd ff ff f8 	movl   $0xfffffff8,-0x2bc(%rbp)
    bc34:	ff ff ff 
    bc37:	c7 85 48 fd ff ff bf 	movl   $0x47bb67bf,-0x2b8(%rbp)
    bc3e:	67 bb 47 
    bc41:	c7 85 4c fd ff ff 01 	movl   $0x1,-0x2b4(%rbp)
    bc48:	00 00 00 
    bc4b:	c7 85 50 fd ff ff fe 	movl   $0xfffffffe,-0x2b0(%rbp)
    bc52:	ff ff ff 
    bc55:	c7 85 54 fd ff ff e5 	movl   $0x888c53e5,-0x2ac(%rbp)
    bc5c:	53 8c 88 
    bc5f:	c7 85 58 fd ff ff bf 	movl   $0x47bb67bf,-0x2a8(%rbp)
    bc66:	67 bb 47 
    bc69:	c7 85 5c fd ff ff 01 	movl   $0x1,-0x2a4(%rbp)
    bc70:	00 00 00 
    bc73:	c7 85 60 fd ff ff fb 	movl   $0xfffffffb,-0x2a0(%rbp)
    bc7a:	ff ff ff 
    bc7d:	c7 85 64 fd ff ff 01 	movl   $0x1,-0x29c(%rbp)
    bc84:	00 00 00 
    bc87:	c7 85 68 fd ff ff 74 	movl   $0xe8d6a574,-0x298(%rbp)
    bc8e:	a5 d6 e8 
    bc91:	c7 85 6c fd ff ff 01 	movl   $0x1,-0x294(%rbp)
    bc98:	00 00 00 
    bc9b:	c7 85 70 fd ff ff bf 	movl   $0x47bb67bf,-0x290(%rbp)
    bca2:	67 bb 47 
    bca5:	c7 85 74 fd ff ff 01 	movl   $0x1,-0x28c(%rbp)
    bcac:	00 00 00 
    bcaf:	c7 85 78 fd ff ff 8d 	movl   $0xdb52e68d,-0x288(%rbp)
    bcb6:	e6 52 db 
    bcb9:	c7 85 7c fd ff ff 01 	movl   $0x1,-0x284(%rbp)
    bcc0:	00 00 00 
    bcc3:	c7 85 80 fd ff ff ab 	movl   $0xa0010fab,-0x280(%rbp)
    bcca:	0f 01 a0 
    bccd:	c7 85 84 fd ff ff 57 	movl   $0x205d3e57,-0x27c(%rbp)
    bcd4:	3e 5d 20 
    bcd7:	48 8d 05 e2 3f 01 00 	lea    0x13fe2(%rip),%rax        # 1fcc0 <g_89>
    bcde:	48 89 85 80 f2 ff ff 	mov    %rax,-0xd80(%rbp)
    bce5:	48 8d 05 d4 3f 01 00 	lea    0x13fd4(%rip),%rax        # 1fcc0 <g_89>
    bcec:	48 89 85 50 f5 ff ff 	mov    %rax,-0xab0(%rbp)
    bcf3:	48 8d 05 c6 3f 01 00 	lea    0x13fc6(%rip),%rax        # 1fcc0 <g_89>
    bcfa:	48 89 85 58 f5 ff ff 	mov    %rax,-0xaa8(%rbp)
    bd01:	48 8d 05 b8 3f 01 00 	lea    0x13fb8(%rip),%rax        # 1fcc0 <g_89>
    bd08:	48 89 85 60 f5 ff ff 	mov    %rax,-0xaa0(%rbp)
    bd0f:	48 8d 05 aa 3f 01 00 	lea    0x13faa(%rip),%rax        # 1fcc0 <g_89>
    bd16:	48 89 85 68 f5 ff ff 	mov    %rax,-0xa98(%rbp)
    bd1d:	48 8d 05 9c 3f 01 00 	lea    0x13f9c(%rip),%rax        # 1fcc0 <g_89>
    bd24:	48 89 85 70 f5 ff ff 	mov    %rax,-0xa90(%rbp)
    bd2b:	48 8d 05 8e 3f 01 00 	lea    0x13f8e(%rip),%rax        # 1fcc0 <g_89>
    bd32:	48 89 85 78 f5 ff ff 	mov    %rax,-0xa88(%rbp)
    bd39:	48 8d 05 80 3f 01 00 	lea    0x13f80(%rip),%rax        # 1fcc0 <g_89>
    bd40:	48 89 85 80 f5 ff ff 	mov    %rax,-0xa80(%rbp)
    bd47:	48 8d 05 d2 46 01 00 	lea    0x146d2(%rip),%rax        # 20420 <g_1224>
    bd4e:	48 89 85 d0 f5 ff ff 	mov    %rax,-0xa30(%rbp)
    bd55:	48 8d 05 c4 46 01 00 	lea    0x146c4(%rip),%rax        # 20420 <g_1224>
    bd5c:	48 89 85 d8 f5 ff ff 	mov    %rax,-0xa28(%rbp)
    bd63:	48 8d 05 b6 46 01 00 	lea    0x146b6(%rip),%rax        # 20420 <g_1224>
    bd6a:	48 89 85 e0 f5 ff ff 	mov    %rax,-0xa20(%rbp)
    bd71:	48 8d 05 a8 46 01 00 	lea    0x146a8(%rip),%rax        # 20420 <g_1224>
    bd78:	48 89 85 e8 f5 ff ff 	mov    %rax,-0xa18(%rbp)
    bd7f:	48 8d 05 9a 46 01 00 	lea    0x1469a(%rip),%rax        # 20420 <g_1224>
    bd86:	48 89 85 f0 f5 ff ff 	mov    %rax,-0xa10(%rbp)
    bd8d:	48 8d 05 8c 46 01 00 	lea    0x1468c(%rip),%rax        # 20420 <g_1224>
    bd94:	48 89 85 f8 f5 ff ff 	mov    %rax,-0xa08(%rbp)
    bd9b:	48 8d 05 7e 46 01 00 	lea    0x1467e(%rip),%rax        # 20420 <g_1224>
    bda2:	48 89 85 00 f6 ff ff 	mov    %rax,-0xa00(%rbp)
    bda9:	48 8d 05 70 46 01 00 	lea    0x14670(%rip),%rax        # 20420 <g_1224>
    bdb0:	48 89 85 08 f6 ff ff 	mov    %rax,-0x9f8(%rbp)
    bdb7:	48 8d 05 62 46 01 00 	lea    0x14662(%rip),%rax        # 20420 <g_1224>
    bdbe:	48 89 85 10 f6 ff ff 	mov    %rax,-0x9f0(%rbp)
    bdc5:	48 8b 05 14 49 01 00 	mov    0x14914(%rip),%rax        # 206e0 <g_2165>
    bdcc:	48 8b 95 d8 f1 ff ff 	mov    -0xe28(%rbp),%rdx
    bdd3:	48 89 10             	mov    %rdx,(%rax)
    bdd6:	c7 85 9c f0 ff ff 00 	movl   $0x0,-0xf64(%rbp)
    bddd:	00 00 00 
    bde0:	e9 7e 01 00 00       	jmpq   bf63 <func_2+0xf4b>
    bde5:	c7 85 3c f1 ff ff fc 	movl   $0xfffffffc,-0xec4(%rbp)
    bdec:	ff ff ff 
    bdef:	66 c7 85 ae f0 ff ff 	movw   $0xffff,-0xf52(%rbp)
    bdf6:	ff ff 
    bdf8:	c7 85 40 f1 ff ff ff 	movl   $0xffffffff,-0xec0(%rbp)
    bdff:	ff ff ff 
    be02:	c7 85 44 f1 ff ff 4e 	movl   $0xdafcf44e,-0xebc(%rbp)
    be09:	f4 fc da 
    be0c:	c7 85 f0 f3 ff ff f8 	movl   $0xfffffff8,-0xc10(%rbp)
    be13:	ff ff ff 
    be16:	c7 85 f4 f3 ff ff f8 	movl   $0xfffffff8,-0xc0c(%rbp)
    be1d:	ff ff ff 
    be20:	c7 85 f8 f3 ff ff f8 	movl   $0xfffffff8,-0xc08(%rbp)
    be27:	ff ff ff 
    be2a:	c7 85 fc f3 ff ff f8 	movl   $0xfffffff8,-0xc04(%rbp)
    be31:	ff ff ff 
    be34:	c7 85 00 f4 ff ff f8 	movl   $0xfffffff8,-0xc00(%rbp)
    be3b:	ff ff ff 
    be3e:	c7 85 04 f4 ff ff f8 	movl   $0xfffffff8,-0xbfc(%rbp)
    be45:	ff ff ff 
    be48:	c7 85 08 f4 ff ff f8 	movl   $0xfffffff8,-0xbf8(%rbp)
    be4f:	ff ff ff 
    be52:	c7 85 0c f4 ff ff f8 	movl   $0xfffffff8,-0xbf4(%rbp)
    be59:	ff ff ff 
    be5c:	8b 85 3c f1 ff ff    	mov    -0xec4(%rbp),%eax
    be62:	89 c6                	mov    %eax,%esi
    be64:	bf 01 00 00 00       	mov    $0x1,%edi
    be69:	e8 de cd ff ff       	callq  8c4c <safe_lshift_func_uint8_t_u_u>
    be6e:	84 c0                	test   %al,%al
    be70:	75 0a                	jne    be7c <func_2+0xe64>
    be72:	66 83 bd ae f0 ff ff 	cmpw   $0x0,-0xf52(%rbp)
    be79:	00 
    be7a:	74 07                	je     be83 <func_2+0xe6b>
    be7c:	b8 01 00 00 00       	mov    $0x1,%eax
    be81:	eb 05                	jmp    be88 <func_2+0xe70>
    be83:	b8 00 00 00 00       	mov    $0x0,%eax
    be88:	48 63 d0             	movslq %eax,%rdx
    be8b:	48 0f be 85 98 f0 ff 	movsbq -0xf68(%rbp),%rax
    be92:	ff 
    be93:	48 89 d6             	mov    %rdx,%rsi
    be96:	48 89 c7             	mov    %rax,%rdi
    be99:	e8 e2 d1 ff ff       	callq  9080 <safe_mod_func_uint64_t_u_u>
    be9e:	48 8b 05 9b 3e 01 00 	mov    0x13e9b(%rip),%rax        # 1fd40 <g_611>
    bea5:	48 8b 00             	mov    (%rax),%rax
    bea8:	48 85 c0             	test   %rax,%rax
    beab:	0f 95 c0             	setne  %al
    beae:	0f b6 c8             	movzbl %al,%ecx
    beb1:	48 8b 85 e0 f1 ff ff 	mov    -0xe20(%rbp),%rax
    beb8:	48 85 c0             	test   %rax,%rax
    bebb:	0f 95 c0             	setne  %al
    bebe:	0f b6 d0             	movzbl %al,%edx
    bec1:	48 8b 85 e0 f1 ff ff 	mov    -0xe20(%rbp),%rax
    bec8:	48 8b 30             	mov    (%rax),%rsi
    becb:	48 63 c9             	movslq %ecx,%rcx
    bece:	48 8b 85 e0 f1 ff ff 	mov    -0xe20(%rbp),%rax
    bed5:	48 21 f1             	and    %rsi,%rcx
    bed8:	48 89 08             	mov    %rcx,(%rax)
    bedb:	48 8b 00             	mov    (%rax),%rax
    bede:	48 39 c2             	cmp    %rax,%rdx
    bee1:	0f 95 c0             	setne  %al
    bee4:	0f b6 d0             	movzbl %al,%edx
    bee7:	48 8b 85 e8 f1 ff ff 	mov    -0xe18(%rbp),%rax
    beee:	66 89 10             	mov    %dx,(%rax)
    bef1:	48 8b 85 e8 f1 ff ff 	mov    -0xe18(%rbp),%rax
    bef8:	0f b7 00             	movzwl (%rax),%eax
    befb:	66 89 05 4a 11 01 00 	mov    %ax,0x1114a(%rip)        # 1d04c <g_113+0xc>
    bf02:	0f b7 85 8c f0 ff ff 	movzwl -0xf74(%rbp),%eax
    bf09:	66 85 c0             	test   %ax,%ax
    bf0c:	75 64                	jne    bf72 <func_2+0xf5a>
    bf0e:	80 bd 98 f0 ff ff 00 	cmpb   $0x0,-0xf68(%rbp)
    bf15:	75 32                	jne    bf49 <func_2+0xf31>
    bf17:	48 8b 05 aa 3d 01 00 	mov    0x13daa(%rip),%rax        # 1fcc8 <g_180>
    bf1e:	c7 00 00 00 00 00    	movl   $0x0,(%rax)
    bf24:	8b 08                	mov    (%rax),%ecx
    bf26:	48 8b 85 d8 f1 ff ff 	mov    -0xe28(%rbp),%rax
    bf2d:	8b 10                	mov    (%rax),%edx
    bf2f:	48 8b 85 d8 f1 ff ff 	mov    -0xe28(%rbp),%rax
    bf36:	09 ca                	or     %ecx,%edx
    bf38:	89 10                	mov    %edx,(%rax)
    bf3a:	8b 08                	mov    (%rax),%ecx
    bf3c:	48 8b 05 a5 47 01 00 	mov    0x147a5(%rip),%rax        # 206e8 <g_2223>
    bf43:	8b 10                	mov    (%rax),%edx
    bf45:	31 ca                	xor    %ecx,%edx
    bf47:	89 10                	mov    %edx,(%rax)
    bf49:	8b 85 9c f0 ff ff    	mov    -0xf64(%rbp),%eax
    bf4f:	98                   	cwtl   
    bf50:	be 04 00 00 00       	mov    $0x4,%esi
    bf55:	89 c7                	mov    %eax,%edi
    bf57:	e8 57 c4 ff ff       	callq  83b3 <safe_add_func_int16_t_s_s>
    bf5c:	98                   	cwtl   
    bf5d:	89 85 9c f0 ff ff    	mov    %eax,-0xf64(%rbp)
    bf63:	83 bd 9c f0 ff ff 2c 	cmpl   $0x2c,-0xf64(%rbp)
    bf6a:	0f 85 75 fe ff ff    	jne    bde5 <func_2+0xdcd>
    bf70:	eb 01                	jmp    bf73 <func_2+0xf5b>
    bf72:	90                   	nop
    bf73:	48 8b 05 de 3d 01 00 	mov    0x13dde(%rip),%rax        # 1fd58 <g_701>
    bf7a:	48 8b 00             	mov    (%rax),%rax
    bf7d:	49 89 c4             	mov    %rax,%r12
    bf80:	8b 05 2a 16 01 00    	mov    0x1162a(%rip),%eax        # 1d5b0 <g_2231+0x10>
    bf86:	8b 85 b4 f0 ff ff    	mov    -0xf4c(%rbp),%eax
    bf8c:	89 c6                	mov    %eax,%esi
    bf8e:	bf f6 ff ff ff       	mov    $0xfffffff6,%edi
    bf93:	e8 56 c3 ff ff       	callq  82ee <safe_lshift_func_int8_t_s_u>
    bf98:	48 8b 85 08 f2 ff ff 	mov    -0xdf8(%rbp),%rax
    bf9f:	48 89 85 80 f2 ff ff 	mov    %rax,-0xd80(%rbp)
    bfa6:	48 c7 85 f8 f1 ff ff 	movq   $0x0,-0xe08(%rbp)
    bfad:	00 00 00 00 
    bfb1:	48 8b 05 70 44 01 00 	mov    0x14470(%rip),%rax        # 20428 <g_1223>
    bfb8:	48 8b 00             	mov    (%rax),%rax
    bfbb:	48 39 85 f8 f1 ff ff 	cmp    %rax,-0xe08(%rbp)
    bfc2:	0f bf 9d a8 f0 ff ff 	movswl -0xf58(%rbp),%ebx
    bfc9:	66 0f be 85 98 f0 ff 	movsbw -0xf68(%rbp),%ax
    bfd0:	ff 
    bfd1:	0f b7 c0             	movzwl %ax,%eax
    bfd4:	89 c6                	mov    %eax,%esi
    bfd6:	bf 01 00 00 00       	mov    $0x1,%edi
    bfdb:	e8 5d cd ff ff       	callq  8d3d <safe_mul_func_uint16_t_u_u>
    bfe0:	0f b7 c0             	movzwl %ax,%eax
    bfe3:	89 de                	mov    %ebx,%esi
    bfe5:	89 c7                	mov    %eax,%edi
    bfe7:	e8 5c ce ff ff       	callq  8e48 <safe_rshift_func_uint16_t_u_s>
    bfec:	0f b7 c0             	movzwl %ax,%eax
    bfef:	4c 89 e6             	mov    %r12,%rsi
    bff2:	48 89 c7             	mov    %rax,%rdi
    bff5:	e8 ba c9 ff ff       	callq  89b4 <safe_mod_func_int64_t_s_s>
    bffa:	0f be c0             	movsbl %al,%eax
    bffd:	be 36 00 00 00       	mov    $0x36,%esi
    c002:	89 c7                	mov    %eax,%edi
    c004:	e8 e9 c1 ff ff       	callq  81f2 <safe_sub_func_int8_t_s_s>
    c009:	89 c2                	mov    %eax,%edx
    c00b:	48 8b 85 d8 f1 ff ff 	mov    -0xe28(%rbp),%rax
    c012:	0f be d2             	movsbl %dl,%edx
    c015:	89 10                	mov    %edx,(%rax)
    c017:	e9 a9 09 00 00       	jmpq   c9c5 <func_2+0x19ad>
    c01c:	48 8d 05 f5 43 01 00 	lea    0x143f5(%rip),%rax        # 20418 <g_1225>
    c023:	48 89 85 58 f2 ff ff 	mov    %rax,-0xda8(%rbp)
    c02a:	c7 85 d0 f5 ff ff 2f 	movl   $0xfb60b32f,-0xa30(%rbp)
    c031:	b3 60 fb 
    c034:	c7 85 d4 f5 ff ff 2f 	movl   $0xfb60b32f,-0xa2c(%rbp)
    c03b:	b3 60 fb 
    c03e:	c7 85 d8 f5 ff ff e0 	movl   $0xa30d47e0,-0xa28(%rbp)
    c045:	47 0d a3 
    c048:	c7 85 dc f5 ff ff 2f 	movl   $0xfb60b32f,-0xa24(%rbp)
    c04f:	b3 60 fb 
    c052:	c7 85 e0 f5 ff ff 2f 	movl   $0xfb60b32f,-0xa20(%rbp)
    c059:	b3 60 fb 
    c05c:	c7 85 e4 f5 ff ff e0 	movl   $0xa30d47e0,-0xa1c(%rbp)
    c063:	47 0d a3 
    c066:	c7 85 e8 f5 ff ff 2f 	movl   $0xfb60b32f,-0xa18(%rbp)
    c06d:	b3 60 fb 
    c070:	c7 85 ec f5 ff ff 2f 	movl   $0xfb60b32f,-0xa14(%rbp)
    c077:	b3 60 fb 
    c07a:	c7 85 f0 f5 ff ff e0 	movl   $0xa30d47e0,-0xa10(%rbp)
    c081:	47 0d a3 
    c084:	c7 85 f4 f5 ff ff 2f 	movl   $0xfb60b32f,-0xa0c(%rbp)
    c08b:	b3 60 fb 
    c08e:	c7 85 f8 f5 ff ff 2f 	movl   $0xfb60b32f,-0xa08(%rbp)
    c095:	b3 60 fb 
    c098:	c7 85 fc f5 ff ff e0 	movl   $0xa30d47e0,-0xa04(%rbp)
    c09f:	47 0d a3 
    c0a2:	c7 85 00 f6 ff ff 2f 	movl   $0xfb60b32f,-0xa00(%rbp)
    c0a9:	b3 60 fb 
    c0ac:	c7 85 04 f6 ff ff 2f 	movl   $0xfb60b32f,-0x9fc(%rbp)
    c0b3:	b3 60 fb 
    c0b6:	c7 85 08 f6 ff ff e0 	movl   $0xa30d47e0,-0x9f8(%rbp)
    c0bd:	47 0d a3 
    c0c0:	c7 85 0c f6 ff ff 2f 	movl   $0xfb60b32f,-0x9f4(%rbp)
    c0c7:	b3 60 fb 
    c0ca:	c7 85 10 f6 ff ff 2f 	movl   $0xfb60b32f,-0x9f0(%rbp)
    c0d1:	b3 60 fb 
    c0d4:	c7 85 14 f6 ff ff e0 	movl   $0xa30d47e0,-0x9ec(%rbp)
    c0db:	47 0d a3 
    c0de:	c7 85 18 f6 ff ff 2f 	movl   $0xfb60b32f,-0x9e8(%rbp)
    c0e5:	b3 60 fb 
    c0e8:	c7 85 1c f6 ff ff 2f 	movl   $0xfb60b32f,-0x9e4(%rbp)
    c0ef:	b3 60 fb 
    c0f2:	c7 85 20 f6 ff ff e0 	movl   $0xa30d47e0,-0x9e0(%rbp)
    c0f9:	47 0d a3 
    c0fc:	c7 85 24 f6 ff ff 2f 	movl   $0xfb60b32f,-0x9dc(%rbp)
    c103:	b3 60 fb 
    c106:	c7 85 28 f6 ff ff 2f 	movl   $0xfb60b32f,-0x9d8(%rbp)
    c10d:	b3 60 fb 
    c110:	c7 85 2c f6 ff ff e0 	movl   $0xa30d47e0,-0x9d4(%rbp)
    c117:	47 0d a3 
    c11a:	48 8d 85 a8 f1 ff ff 	lea    -0xe58(%rbp),%rax
    c121:	48 89 85 60 f2 ff ff 	mov    %rax,-0xda0(%rbp)
    c128:	c7 85 f8 f0 ff ff 00 	movl   $0x0,-0xf08(%rbp)
    c12f:	00 00 00 
    c132:	eb 1b                	jmp    c14f <func_2+0x1137>
    c134:	8b 85 f8 f0 ff ff    	mov    -0xf08(%rbp),%eax
    c13a:	48 98                	cltq   
    c13c:	48 c7 84 c5 50 f5 ff 	movq   $0x0,-0xab0(%rbp,%rax,8)
    c143:	ff 00 00 00 00 
    c148:	83 85 f8 f0 ff ff 01 	addl   $0x1,-0xf08(%rbp)
    c14f:	83 bd f8 f0 ff ff 02 	cmpl   $0x2,-0xf08(%rbp)
    c156:	7e dc                	jle    c134 <func_2+0x111c>
    c158:	c6 85 98 f0 ff ff 01 	movb   $0x1,-0xf68(%rbp)
    c15f:	e9 22 08 00 00       	jmpq   c986 <func_2+0x196e>
    c164:	c7 85 24 f1 ff ff 59 	movl   $0x6aafa259,-0xedc(%rbp)
    c16b:	a2 af 6a 
    c16e:	c7 85 fc f0 ff ff 98 	movl   $0x6dd39198,-0xf04(%rbp)
    c175:	91 d3 6d 
    c178:	c7 85 28 f1 ff ff fb 	movl   $0xfffffffb,-0xed8(%rbp)
    c17f:	ff ff ff 
    c182:	c7 85 c0 f0 ff ff 00 	movl   $0x0,-0xf40(%rbp)
    c189:	00 00 00 
    c18c:	e9 d6 07 00 00       	jmpq   c967 <func_2+0x194f>
    c191:	48 8d 05 f8 49 01 00 	lea    0x149f8(%rip),%rax        # 20b90 <g_736>
    c198:	48 89 85 68 f2 ff ff 	mov    %rax,-0xd98(%rbp)
    c19f:	c6 85 a2 f0 ff ff 9e 	movb   $0x9e,-0xf5e(%rbp)
    c1a6:	48 8d 85 d0 f5 ff ff 	lea    -0xa30(%rbp),%rax
    c1ad:	48 83 c0 18          	add    $0x18,%rax
    c1b1:	48 89 85 70 f2 ff ff 	mov    %rax,-0xd90(%rbp)
    c1b8:	48 8d 05 c9 13 01 00 	lea    0x113c9(%rip),%rax        # 1d588 <g_2224+0x8>
    c1bf:	48 89 85 b0 fc ff ff 	mov    %rax,-0x350(%rbp)
    c1c6:	48 8d 85 cc f0 ff ff 	lea    -0xf34(%rbp),%rax
    c1cd:	48 89 85 b8 fc ff ff 	mov    %rax,-0x348(%rbp)
    c1d4:	48 8d 05 b9 13 01 00 	lea    0x113b9(%rip),%rax        # 1d594 <g_2224+0x14>
    c1db:	48 89 85 c0 fc ff ff 	mov    %rax,-0x340(%rbp)
    c1e2:	48 8d 85 c0 f0 ff ff 	lea    -0xf40(%rbp),%rax
    c1e9:	48 89 85 c8 fc ff ff 	mov    %rax,-0x338(%rbp)
    c1f0:	48 c7 85 d0 fc ff ff 	movq   $0x0,-0x330(%rbp)
    c1f7:	00 00 00 00 
    c1fb:	48 8d 85 e0 f0 ff ff 	lea    -0xf20(%rbp),%rax
    c202:	48 89 85 d8 fc ff ff 	mov    %rax,-0x328(%rbp)
    c209:	48 8d 85 c0 f0 ff ff 	lea    -0xf40(%rbp),%rax
    c210:	48 89 85 e0 fc ff ff 	mov    %rax,-0x320(%rbp)
    c217:	48 8d 85 c0 f0 ff ff 	lea    -0xf40(%rbp),%rax
    c21e:	48 89 85 e8 fc ff ff 	mov    %rax,-0x318(%rbp)
    c225:	48 8d 85 e0 f0 ff ff 	lea    -0xf20(%rbp),%rax
    c22c:	48 89 85 f0 fc ff ff 	mov    %rax,-0x310(%rbp)
    c233:	48 8d 05 62 13 01 00 	lea    0x11362(%rip),%rax        # 1d59c <g_2224+0x1c>
    c23a:	48 89 85 f8 fc ff ff 	mov    %rax,-0x308(%rbp)
    c241:	48 8d 85 b8 f0 ff ff 	lea    -0xf48(%rbp),%rax
    c248:	48 89 85 00 fd ff ff 	mov    %rax,-0x300(%rbp)
    c24f:	48 8d 05 56 11 01 00 	lea    0x11156(%rip),%rax        # 1d3ac <g_181>
    c256:	48 89 85 08 fd ff ff 	mov    %rax,-0x2f8(%rbp)
    c25d:	48 8d 05 38 13 01 00 	lea    0x11338(%rip),%rax        # 1d59c <g_2224+0x1c>
    c264:	48 89 85 10 fd ff ff 	mov    %rax,-0x2f0(%rbp)
    c26b:	48 8d 85 b4 f0 ff ff 	lea    -0xf4c(%rbp),%rax
    c272:	48 89 85 18 fd ff ff 	mov    %rax,-0x2e8(%rbp)
    c279:	48 8d 85 70 f3 ff ff 	lea    -0xc90(%rbp),%rax
    c280:	48 83 c0 04          	add    $0x4,%rax
    c284:	48 89 85 20 fd ff ff 	mov    %rax,-0x2e0(%rbp)
    c28b:	48 8d 85 cc f0 ff ff 	lea    -0xf34(%rbp),%rax
    c292:	48 89 85 28 fd ff ff 	mov    %rax,-0x2d8(%rbp)
    c299:	48 8d 85 d0 f4 ff ff 	lea    -0xb30(%rbp),%rax
    c2a0:	48 83 c0 5c          	add    $0x5c,%rax
    c2a4:	48 89 85 30 fd ff ff 	mov    %rax,-0x2d0(%rbp)
    c2ab:	48 8d 85 d0 f4 ff ff 	lea    -0xb30(%rbp),%rax
    c2b2:	48 83 c0 5c          	add    $0x5c,%rax
    c2b6:	48 89 85 38 fd ff ff 	mov    %rax,-0x2c8(%rbp)
    c2bd:	48 8d 85 70 f3 ff ff 	lea    -0xc90(%rbp),%rax
    c2c4:	48 83 c0 04          	add    $0x4,%rax
    c2c8:	48 89 85 40 fd ff ff 	mov    %rax,-0x2c0(%rbp)
    c2cf:	48 8d 85 c0 f0 ff ff 	lea    -0xf40(%rbp),%rax
    c2d6:	48 89 85 48 fd ff ff 	mov    %rax,-0x2b8(%rbp)
    c2dd:	48 c7 85 50 fd ff ff 	movq   $0x0,-0x2b0(%rbp)
    c2e4:	00 00 00 00 
    c2e8:	48 8d 85 d0 f0 ff ff 	lea    -0xf30(%rbp),%rax
    c2ef:	48 89 85 58 fd ff ff 	mov    %rax,-0x2a8(%rbp)
    c2f6:	48 8d 85 70 f3 ff ff 	lea    -0xc90(%rbp),%rax
    c2fd:	48 83 c0 0c          	add    $0xc,%rax
    c301:	48 89 85 60 fd ff ff 	mov    %rax,-0x2a0(%rbp)
    c308:	48 8d 85 b4 f0 ff ff 	lea    -0xf4c(%rbp),%rax
    c30f:	48 89 85 68 fd ff ff 	mov    %rax,-0x298(%rbp)
    c316:	48 8d 05 8f 10 01 00 	lea    0x1108f(%rip),%rax        # 1d3ac <g_181>
    c31d:	48 89 85 70 fd ff ff 	mov    %rax,-0x290(%rbp)
    c324:	48 8d 85 d8 f0 ff ff 	lea    -0xf28(%rbp),%rax
    c32b:	48 89 85 78 fd ff ff 	mov    %rax,-0x288(%rbp)
    c332:	48 8d 05 5b 12 01 00 	lea    0x1125b(%rip),%rax        # 1d594 <g_2224+0x14>
    c339:	48 89 85 80 fd ff ff 	mov    %rax,-0x280(%rbp)
    c340:	48 8d 85 bc f0 ff ff 	lea    -0xf44(%rbp),%rax
    c347:	48 89 85 88 fd ff ff 	mov    %rax,-0x278(%rbp)
    c34e:	48 8d 85 e0 f0 ff ff 	lea    -0xf20(%rbp),%rax
    c355:	48 89 85 90 fd ff ff 	mov    %rax,-0x270(%rbp)
    c35c:	48 8d 85 d0 f4 ff ff 	lea    -0xb30(%rbp),%rax
    c363:	48 83 c0 5c          	add    $0x5c,%rax
    c367:	48 89 85 98 fd ff ff 	mov    %rax,-0x268(%rbp)
    c36e:	48 8d 85 d0 f5 ff ff 	lea    -0xa30(%rbp),%rax
    c375:	48 83 c0 0c          	add    $0xc,%rax
    c379:	48 89 85 a0 fd ff ff 	mov    %rax,-0x260(%rbp)
    c380:	48 8d 85 d0 f5 ff ff 	lea    -0xa30(%rbp),%rax
    c387:	48 83 c0 54          	add    $0x54,%rax
    c38b:	48 89 85 a8 fd ff ff 	mov    %rax,-0x258(%rbp)
    c392:	48 8d 85 d0 f4 ff ff 	lea    -0xb30(%rbp),%rax
    c399:	48 83 c0 5c          	add    $0x5c,%rax
    c39d:	48 89 85 b0 fd ff ff 	mov    %rax,-0x250(%rbp)
    c3a4:	48 8d 85 c0 f0 ff ff 	lea    -0xf40(%rbp),%rax
    c3ab:	48 89 85 b8 fd ff ff 	mov    %rax,-0x248(%rbp)
    c3b2:	48 8d 85 b4 f0 ff ff 	lea    -0xf4c(%rbp),%rax
    c3b9:	48 89 85 c0 fd ff ff 	mov    %rax,-0x240(%rbp)
    c3c0:	48 c7 85 c8 fd ff ff 	movq   $0x0,-0x238(%rbp)
    c3c7:	00 00 00 00 
    c3cb:	48 8d 85 e8 f0 ff ff 	lea    -0xf18(%rbp),%rax
    c3d2:	48 89 85 d0 fd ff ff 	mov    %rax,-0x230(%rbp)
    c3d9:	48 8d 85 d0 f5 ff ff 	lea    -0xa30(%rbp),%rax
    c3e0:	48 83 c0 54          	add    $0x54,%rax
    c3e4:	48 89 85 d8 fd ff ff 	mov    %rax,-0x228(%rbp)
    c3eb:	48 8d 85 bc f0 ff ff 	lea    -0xf44(%rbp),%rax
    c3f2:	48 89 85 e0 fd ff ff 	mov    %rax,-0x220(%rbp)
    c3f9:	48 8d 85 b8 f0 ff ff 	lea    -0xf48(%rbp),%rax
    c400:	48 89 85 e8 fd ff ff 	mov    %rax,-0x218(%rbp)
    c407:	48 8d 85 c0 f0 ff ff 	lea    -0xf40(%rbp),%rax
    c40e:	48 89 85 f0 fd ff ff 	mov    %rax,-0x210(%rbp)
    c415:	48 c7 85 f8 fd ff ff 	movq   $0x0,-0x208(%rbp)
    c41c:	00 00 00 00 
    c420:	48 8d 85 d0 f5 ff ff 	lea    -0xa30(%rbp),%rax
    c427:	48 83 c0 54          	add    $0x54,%rax
    c42b:	48 89 85 00 fe ff ff 	mov    %rax,-0x200(%rbp)
    c432:	48 8d 85 d8 f0 ff ff 	lea    -0xf28(%rbp),%rax
    c439:	48 89 85 08 fe ff ff 	mov    %rax,-0x1f8(%rbp)
    c440:	48 8d 85 c4 f0 ff ff 	lea    -0xf3c(%rbp),%rax
    c447:	48 89 85 10 fe ff ff 	mov    %rax,-0x1f0(%rbp)
    c44e:	48 8d 85 c4 f0 ff ff 	lea    -0xf3c(%rbp),%rax
    c455:	48 89 85 18 fe ff ff 	mov    %rax,-0x1e8(%rbp)
    c45c:	48 c7 85 20 fe ff ff 	movq   $0x0,-0x1e0(%rbp)
    c463:	00 00 00 00 
    c467:	48 8d 85 d0 f4 ff ff 	lea    -0xb30(%rbp),%rax
    c46e:	48 83 c0 5c          	add    $0x5c,%rax
    c472:	48 89 85 28 fe ff ff 	mov    %rax,-0x1d8(%rbp)
    c479:	48 8d 05 08 11 01 00 	lea    0x11108(%rip),%rax        # 1d588 <g_2224+0x8>
    c480:	48 89 85 30 fe ff ff 	mov    %rax,-0x1d0(%rbp)
    c487:	48 8d 85 d0 f4 ff ff 	lea    -0xb30(%rbp),%rax
    c48e:	48 83 c0 5c          	add    $0x5c,%rax
    c492:	48 89 85 38 fe ff ff 	mov    %rax,-0x1c8(%rbp)
    c499:	48 8d 85 e4 f0 ff ff 	lea    -0xf1c(%rbp),%rax
    c4a0:	48 89 85 40 fe ff ff 	mov    %rax,-0x1c0(%rbp)
    c4a7:	48 8d 85 e4 f0 ff ff 	lea    -0xf1c(%rbp),%rax
    c4ae:	48 89 85 48 fe ff ff 	mov    %rax,-0x1b8(%rbp)
    c4b5:	48 8d 85 bc f0 ff ff 	lea    -0xf44(%rbp),%rax
    c4bc:	48 89 85 50 fe ff ff 	mov    %rax,-0x1b0(%rbp)
    c4c3:	48 c7 85 58 fe ff ff 	movq   $0x0,-0x1a8(%rbp)
    c4ca:	00 00 00 00 
    c4ce:	48 8d 85 b8 f0 ff ff 	lea    -0xf48(%rbp),%rax
    c4d5:	48 89 85 60 fe ff ff 	mov    %rax,-0x1a0(%rbp)
    c4dc:	48 8d 85 c0 f0 ff ff 	lea    -0xf40(%rbp),%rax
    c4e3:	48 89 85 68 fe ff ff 	mov    %rax,-0x198(%rbp)
    c4ea:	48 8d 05 bb 0e 01 00 	lea    0x10ebb(%rip),%rax        # 1d3ac <g_181>
    c4f1:	48 89 85 70 fe ff ff 	mov    %rax,-0x190(%rbp)
    c4f8:	48 8d 85 70 f3 ff ff 	lea    -0xc90(%rbp),%rax
    c4ff:	48 83 c0 0c          	add    $0xc,%rax
    c503:	48 89 85 78 fe ff ff 	mov    %rax,-0x188(%rbp)
    c50a:	48 8d 85 e4 f0 ff ff 	lea    -0xf1c(%rbp),%rax
    c511:	48 89 85 80 fe ff ff 	mov    %rax,-0x180(%rbp)
    c518:	48 c7 85 88 fe ff ff 	movq   $0x0,-0x178(%rbp)
    c51f:	00 00 00 00 
    c523:	48 8d 85 e8 f0 ff ff 	lea    -0xf18(%rbp),%rax
    c52a:	48 89 85 90 fe ff ff 	mov    %rax,-0x170(%rbp)
    c531:	48 8d 85 b8 f0 ff ff 	lea    -0xf48(%rbp),%rax
    c538:	48 89 85 98 fe ff ff 	mov    %rax,-0x168(%rbp)
    c53f:	48 8d 85 d0 f4 ff ff 	lea    -0xb30(%rbp),%rax
    c546:	48 83 c0 5c          	add    $0x5c,%rax
    c54a:	48 89 85 a0 fe ff ff 	mov    %rax,-0x160(%rbp)
    c551:	48 8d 85 d0 f0 ff ff 	lea    -0xf30(%rbp),%rax
    c558:	48 89 85 a8 fe ff ff 	mov    %rax,-0x158(%rbp)
    c55f:	48 c7 85 b0 fe ff ff 	movq   $0x0,-0x150(%rbp)
    c566:	00 00 00 00 
    c56a:	48 8d 85 b8 f0 ff ff 	lea    -0xf48(%rbp),%rax
    c571:	48 89 85 b8 fe ff ff 	mov    %rax,-0x148(%rbp)
    c578:	48 8d 05 2d 0e 01 00 	lea    0x10e2d(%rip),%rax        # 1d3ac <g_181>
    c57f:	48 89 85 c0 fe ff ff 	mov    %rax,-0x140(%rbp)
    c586:	48 8d 05 0f 10 01 00 	lea    0x1100f(%rip),%rax        # 1d59c <g_2224+0x1c>
    c58d:	48 89 85 c8 fe ff ff 	mov    %rax,-0x138(%rbp)
    c594:	48 c7 85 d0 fe ff ff 	movq   $0x0,-0x130(%rbp)
    c59b:	00 00 00 00 
    c59f:	48 c7 85 d8 fe ff ff 	movq   $0x0,-0x128(%rbp)
    c5a6:	00 00 00 00 
    c5aa:	48 8d 85 dc f0 ff ff 	lea    -0xf24(%rbp),%rax
    c5b1:	48 89 85 e0 fe ff ff 	mov    %rax,-0x120(%rbp)
    c5b8:	48 8d 85 e4 f0 ff ff 	lea    -0xf1c(%rbp),%rax
    c5bf:	48 89 85 e8 fe ff ff 	mov    %rax,-0x118(%rbp)
    c5c6:	48 8d 85 c0 f0 ff ff 	lea    -0xf40(%rbp),%rax
    c5cd:	48 89 85 f0 fe ff ff 	mov    %rax,-0x110(%rbp)
    c5d4:	48 8d 85 c4 f0 ff ff 	lea    -0xf3c(%rbp),%rax
    c5db:	48 89 85 f8 fe ff ff 	mov    %rax,-0x108(%rbp)
    c5e2:	48 c7 85 00 ff ff ff 	movq   $0x0,-0x100(%rbp)
    c5e9:	00 00 00 00 
    c5ed:	48 8d 05 a8 0f 01 00 	lea    0x10fa8(%rip),%rax        # 1d59c <g_2224+0x1c>
    c5f4:	48 89 85 08 ff ff ff 	mov    %rax,-0xf8(%rbp)
    c5fb:	48 c7 85 10 ff ff ff 	movq   $0x0,-0xf0(%rbp)
    c602:	00 00 00 00 
    c606:	48 8d 05 87 0f 01 00 	lea    0x10f87(%rip),%rax        # 1d594 <g_2224+0x14>
    c60d:	48 89 85 18 ff ff ff 	mov    %rax,-0xe8(%rbp)
    c614:	48 c7 85 20 ff ff ff 	movq   $0x0,-0xe0(%rbp)
    c61b:	00 00 00 00 
    c61f:	48 8d 85 d4 f0 ff ff 	lea    -0xf2c(%rbp),%rax
    c626:	48 89 85 28 ff ff ff 	mov    %rax,-0xd8(%rbp)
    c62d:	48 8d 85 70 f3 ff ff 	lea    -0xc90(%rbp),%rax
    c634:	48 83 c0 0c          	add    $0xc,%rax
    c638:	48 89 85 30 ff ff ff 	mov    %rax,-0xd0(%rbp)
    c63f:	48 c7 85 38 ff ff ff 	movq   $0x0,-0xc8(%rbp)
    c646:	00 00 00 00 
    c64a:	48 8d 85 d0 f5 ff ff 	lea    -0xa30(%rbp),%rax
    c651:	48 83 c0 2c          	add    $0x2c,%rax
    c655:	48 89 85 40 ff ff ff 	mov    %rax,-0xc0(%rbp)
    c65c:	48 8d 05 39 0f 01 00 	lea    0x10f39(%rip),%rax        # 1d59c <g_2224+0x1c>
    c663:	48 89 85 48 ff ff ff 	mov    %rax,-0xb8(%rbp)
    c66a:	48 8d 05 17 0f 01 00 	lea    0x10f17(%rip),%rax        # 1d588 <g_2224+0x8>
    c671:	48 89 85 50 ff ff ff 	mov    %rax,-0xb0(%rbp)
    c678:	48 8d 85 70 f3 ff ff 	lea    -0xc90(%rbp),%rax
    c67f:	48 83 c0 0c          	add    $0xc,%rax
    c683:	48 89 85 58 ff ff ff 	mov    %rax,-0xa8(%rbp)
    c68a:	48 8d 85 e8 f0 ff ff 	lea    -0xf18(%rbp),%rax
    c691:	48 89 85 60 ff ff ff 	mov    %rax,-0xa0(%rbp)
    c698:	48 c7 85 68 ff ff ff 	movq   $0x0,-0x98(%rbp)
    c69f:	00 00 00 00 
    c6a3:	48 8d 05 f2 0e 01 00 	lea    0x10ef2(%rip),%rax        # 1d59c <g_2224+0x1c>
    c6aa:	48 89 85 70 ff ff ff 	mov    %rax,-0x90(%rbp)
    c6b1:	48 8d 85 c8 f0 ff ff 	lea    -0xf38(%rbp),%rax
    c6b8:	48 89 85 78 ff ff ff 	mov    %rax,-0x88(%rbp)
    c6bf:	48 8d 05 d6 0e 01 00 	lea    0x10ed6(%rip),%rax        # 1d59c <g_2224+0x1c>
    c6c6:	48 89 45 80          	mov    %rax,-0x80(%rbp)
    c6ca:	48 8d 85 d0 f5 ff ff 	lea    -0xa30(%rbp),%rax
    c6d1:	48 83 c0 54          	add    $0x54,%rax
    c6d5:	48 89 45 88          	mov    %rax,-0x78(%rbp)
    c6d9:	48 8d 85 b8 f0 ff ff 	lea    -0xf48(%rbp),%rax
    c6e0:	48 89 45 90          	mov    %rax,-0x70(%rbp)
    c6e4:	48 8d 85 d0 f5 ff ff 	lea    -0xa30(%rbp),%rax
    c6eb:	48 83 c0 54          	add    $0x54,%rax
    c6ef:	48 89 45 98          	mov    %rax,-0x68(%rbp)
    c6f3:	48 8d 05 a2 0e 01 00 	lea    0x10ea2(%rip),%rax        # 1d59c <g_2224+0x1c>
    c6fa:	48 89 45 a0          	mov    %rax,-0x60(%rbp)
    c6fe:	48 8d 85 dc f0 ff ff 	lea    -0xf24(%rbp),%rax
    c705:	48 89 45 a8          	mov    %rax,-0x58(%rbp)
    c709:	48 8d 05 84 0e 01 00 	lea    0x10e84(%rip),%rax        # 1d594 <g_2224+0x14>
    c710:	48 89 45 b0          	mov    %rax,-0x50(%rbp)
    c714:	48 c7 45 b8 00 00 00 	movq   $0x0,-0x48(%rbp)
    c71b:	00 
    c71c:	48 c7 45 c0 00 00 00 	movq   $0x0,-0x40(%rbp)
    c723:	00 
    c724:	48 8d 85 e4 f0 ff ff 	lea    -0xf1c(%rbp),%rax
    c72b:	48 89 45 c8          	mov    %rax,-0x38(%rbp)
    c72f:	8b 85 c0 f0 ff ff    	mov    -0xf40(%rbp),%eax
    c735:	0f be 95 98 f0 ff ff 	movsbl -0xf68(%rbp),%edx
    c73c:	8d 72 06             	lea    0x6(%rdx),%esi
    c73f:	0f be 95 98 f0 ff ff 	movsbl -0xf68(%rbp),%edx
    c746:	48 63 ca             	movslq %edx,%rcx
    c749:	48 63 d0             	movslq %eax,%rdx
    c74c:	48 63 f6             	movslq %esi,%rsi
    c74f:	48 89 d0             	mov    %rdx,%rax
    c752:	48 c1 e0 03          	shl    $0x3,%rax
    c756:	48 01 d0             	add    %rdx,%rax
    c759:	48 01 f0             	add    %rsi,%rax
    c75c:	48 01 c0             	add    %rax,%rax
    c75f:	48 01 c8             	add    %rcx,%rax
    c762:	48 8d 14 85 00 00 00 	lea    0x0(,%rax,4),%rdx
    c769:	00 
    c76a:	48 8d 05 4f 0c 01 00 	lea    0x10c4f(%rip),%rax        # 1d3c0 <g_215>
    c771:	8b 04 02             	mov    (%rdx,%rax,1),%eax
    c774:	48 8b 05 dd 35 01 00 	mov    0x135dd(%rip),%rax        # 1fd58 <g_701>
    c77b:	48 8b 00             	mov    (%rax),%rax
    c77e:	48 85 c0             	test   %rax,%rax
    c781:	0f 94 c0             	sete   %al
    c784:	0f b6 d0             	movzbl %al,%edx
    c787:	48 8b 85 68 f2 ff ff 	mov    -0xd98(%rbp),%rax
    c78e:	0f b7 00             	movzwl (%rax),%eax
    c791:	31 c2                	xor    %eax,%edx
    c793:	48 8b 85 68 f2 ff ff 	mov    -0xd98(%rbp),%rax
    c79a:	66 89 10             	mov    %dx,(%rax)
    c79d:	48 8b 85 68 f2 ff ff 	mov    -0xd98(%rbp),%rax
    c7a4:	0f b7 00             	movzwl (%rax),%eax
    c7a7:	66 85 c0             	test   %ax,%ax
    c7aa:	0f 94 c0             	sete   %al
    c7ad:	44 0f b6 e0          	movzbl %al,%r12d
    c7b1:	8b 85 9c f0 ff ff    	mov    -0xf64(%rbp),%eax
    c7b7:	0f bf d8             	movswl %ax,%ebx
    c7ba:	48 8b 85 f8 f1 ff ff 	mov    -0xe08(%rbp),%rax
    c7c1:	48 89 85 58 f2 ff ff 	mov    %rax,-0xda8(%rbp)
    c7c8:	bf 00 00 00 00       	mov    $0x0,%edi
    c7cd:	e8 17 c5 ff ff       	callq  8ce9 <safe_unary_minus_func_uint16_t_u>
    c7d2:	98                   	cwtl   
    c7d3:	89 de                	mov    %ebx,%esi
    c7d5:	89 c7                	mov    %eax,%edi
    c7d7:	e8 19 bc ff ff       	callq  83f5 <safe_mul_func_int16_t_s_s>
    c7dc:	66 83 f8 03          	cmp    $0x3,%ax
    c7e0:	0f 95 c0             	setne  %al
    c7e3:	0f b6 d0             	movzbl %al,%edx
    c7e6:	48 8b 05 53 3c 01 00 	mov    0x13c53(%rip),%rax        # 20440 <g_1618>
    c7ed:	48 8b 00             	mov    (%rax),%rax
    c7f0:	48 31 c2             	xor    %rax,%rdx
    c7f3:	8b 85 24 f6 ff ff    	mov    -0x9dc(%rbp),%eax
    c7f9:	48 98                	cltq   
    c7fb:	48 09 c2             	or     %rax,%rdx
    c7fe:	8b 85 24 f1 ff ff    	mov    -0xedc(%rbp),%eax
    c804:	48 98                	cltq   
    c806:	48 39 c2             	cmp    %rax,%rdx
    c809:	0f 9c c0             	setl   %al
    c80c:	0f b6 d0             	movzbl %al,%edx
    c80f:	8b 85 24 f6 ff ff    	mov    -0x9dc(%rbp),%eax
    c815:	31 d0                	xor    %edx,%eax
    c817:	41 39 c4             	cmp    %eax,%r12d
    c81a:	0f 95 c0             	setne  %al
    c81d:	0f b6 c0             	movzbl %al,%eax
    c820:	be 04 00 00 00       	mov    $0x4,%esi
    c825:	89 c7                	mov    %eax,%edi
    c827:	e8 09 bb ff ff       	callq  8335 <safe_rshift_func_int8_t_s_s>
    c82c:	0f be c0             	movsbl %al,%eax
    c82f:	be f9 ff ff ff       	mov    $0xfffffff9,%esi
    c834:	89 c7                	mov    %eax,%edi
    c836:	e8 b7 b9 ff ff       	callq  81f2 <safe_sub_func_int8_t_s_s>
    c83b:	48 8b 85 30 f2 ff ff 	mov    -0xdd0(%rbp),%rax
    c842:	48 89 85 60 f2 ff ff 	mov    %rax,-0xda0(%rbp)
    c849:	0f b6 05 78 0d 01 00 	movzbl 0x10d78(%rip),%eax        # 1d5c8 <g_2264>
    c850:	83 e8 01             	sub    $0x1,%eax
    c853:	88 05 6f 0d 01 00    	mov    %al,0x10d6f(%rip)        # 1d5c8 <g_2264>
    c859:	0f b7 85 8c f0 ff ff 	movzwl -0xf74(%rbp),%eax
    c860:	0f be d8             	movsbl %al,%ebx
    c863:	48 8b 85 50 f5 ff ff 	mov    -0xab0(%rbp),%rax
    c86a:	48 89 85 b0 f1 ff ff 	mov    %rax,-0xe50(%rbp)
    c871:	81 bd 28 f1 ff ff c3 	cmpl   $0x692fd0c3,-0xed8(%rbp)
    c878:	d0 2f 69 
    c87b:	0f 9e c0             	setle  %al
    c87e:	44 0f b6 e8          	movzbl %al,%r13d
    c882:	8b 85 9c f0 ff ff    	mov    -0xf64(%rbp),%eax
    c888:	44 0f bf e0          	movswl %ax,%r12d
    c88c:	83 bd 28 f1 ff ff 00 	cmpl   $0x0,-0xed8(%rbp)
    c893:	74 2f                	je     c8c4 <func_2+0x18ac>
    c895:	8b 85 24 f1 ff ff    	mov    -0xedc(%rbp),%eax
    c89b:	0f be c0             	movsbl %al,%eax
    c89e:	be 01 00 00 00       	mov    $0x1,%esi
    c8a3:	89 c7                	mov    %eax,%edi
    c8a5:	e8 48 b9 ff ff       	callq  81f2 <safe_sub_func_int8_t_s_s>
    c8aa:	84 c0                	test   %al,%al
    c8ac:	74 16                	je     c8c4 <func_2+0x18ac>
    c8ae:	48 8b 05 8b 3b 01 00 	mov    0x13b8b(%rip),%rax        # 20440 <g_1618>
    c8b5:	48 8b 00             	mov    (%rax),%rax
    c8b8:	48 85 c0             	test   %rax,%rax
    c8bb:	74 07                	je     c8c4 <func_2+0x18ac>
    c8bd:	b8 01 00 00 00       	mov    $0x1,%eax
    c8c2:	eb 05                	jmp    c8c9 <func_2+0x18b1>
    c8c4:	b8 00 00 00 00       	mov    $0x0,%eax
    c8c9:	f7 d0                	not    %eax
    c8cb:	89 c2                	mov    %eax,%edx
    c8cd:	48 8b 05 6c 3b 01 00 	mov    0x13b6c(%rip),%rax        # 20440 <g_1618>
    c8d4:	48 63 d2             	movslq %edx,%rdx
    c8d7:	48 89 10             	mov    %rdx,(%rax)
    c8da:	48 8b 10             	mov    (%rax),%rdx
    c8dd:	8b 85 c8 f0 ff ff    	mov    -0xf38(%rbp),%eax
    c8e3:	48 98                	cltq   
    c8e5:	48 39 c2             	cmp    %rax,%rdx
    c8e8:	0f 9d c0             	setge  %al
    c8eb:	0f b6 c0             	movzbl %al,%eax
    c8ee:	44 89 e6             	mov    %r12d,%esi
    c8f1:	89 c7                	mov    %eax,%edi
    c8f3:	e8 5d bb ff ff       	callq  8455 <safe_div_func_int16_t_s_s>
    c8f8:	98                   	cwtl   
    c8f9:	41 39 c5             	cmp    %eax,%r13d
    c8fc:	0f 95 c0             	setne  %al
    c8ff:	0f b6 c0             	movzbl %al,%eax
    c902:	89 c7                	mov    %eax,%edi
    c904:	e8 8d bc ff ff       	callq  8596 <safe_unary_minus_func_int32_t_s>
    c909:	89 c2                	mov    %eax,%edx
    c90b:	48 8b 85 68 f2 ff ff 	mov    -0xd98(%rbp),%rax
    c912:	66 89 10             	mov    %dx,(%rax)
    c915:	48 8b 85 68 f2 ff ff 	mov    -0xd98(%rbp),%rax
    c91c:	0f b7 00             	movzwl (%rax),%eax
    c91f:	66 85 c0             	test   %ax,%ax
    c922:	75 09                	jne    c92d <func_2+0x1915>
    c924:	83 bd 9c f0 ff ff 00 	cmpl   $0x0,-0xf64(%rbp)
    c92b:	74 07                	je     c934 <func_2+0x191c>
    c92d:	b8 01 00 00 00       	mov    $0x1,%eax
    c932:	eb 05                	jmp    c939 <func_2+0x1921>
    c934:	b8 00 00 00 00       	mov    $0x0,%eax
    c939:	89 c2                	mov    %eax,%edx
    c93b:	8b 85 fc f5 ff ff    	mov    -0xa04(%rbp),%eax
    c941:	21 d0                	and    %edx,%eax
    c943:	0f be c0             	movsbl %al,%eax
    c946:	89 de                	mov    %ebx,%esi
    c948:	89 c7                	mov    %eax,%edi
    c94a:	e8 e2 b8 ff ff       	callq  8231 <safe_mod_func_int8_t_s_s>
    c94f:	0f be c0             	movsbl %al,%eax
    c952:	31 85 fc f0 ff ff    	xor    %eax,-0xf04(%rbp)
    c958:	8b 85 c0 f0 ff ff    	mov    -0xf40(%rbp),%eax
    c95e:	83 c0 01             	add    $0x1,%eax
    c961:	89 85 c0 f0 ff ff    	mov    %eax,-0xf40(%rbp)
    c967:	8b 85 c0 f0 ff ff    	mov    -0xf40(%rbp),%eax
    c96d:	83 f8 02             	cmp    $0x2,%eax
    c970:	0f 8e 1b f8 ff ff    	jle    c191 <func_2+0x1179>
    c976:	0f b6 85 98 f0 ff ff 	movzbl -0xf68(%rbp),%eax
    c97d:	83 e8 01             	sub    $0x1,%eax
    c980:	88 85 98 f0 ff ff    	mov    %al,-0xf68(%rbp)
    c986:	80 bd 98 f0 ff ff 00 	cmpb   $0x0,-0xf68(%rbp)
    c98d:	0f 89 d1 f7 ff ff    	jns    c164 <func_2+0x114c>
    c993:	0f b7 85 8c f0 ff ff 	movzwl -0xf74(%rbp),%eax
    c99a:	66 85 c0             	test   %ax,%ax
    c99d:	74 05                	je     c9a4 <func_2+0x198c>
    c99f:	e9 1f ed ff ff       	jmpq   b6c3 <func_2+0x6ab>
    c9a4:	48 8b 05 35 3d 01 00 	mov    0x13d35(%rip),%rax        # 206e0 <g_2165>
    c9ab:	48 8b 00             	mov    (%rax),%rax
    c9ae:	8b 00                	mov    (%rax),%eax
    c9b0:	85 c0                	test   %eax,%eax
    c9b2:	0f 85 1a 19 00 00    	jne    e2d2 <func_2+0x32ba>
    c9b8:	80 bd 98 f0 ff ff 00 	cmpb   $0x0,-0xf68(%rbp)
    c9bf:	0f 85 10 19 00 00    	jne    e2d5 <func_2+0x32bd>
    c9c5:	66 c7 05 92 0b 01 00 	movw   $0x8,0x10b92(%rip)        # 1d560 <g_1976>
    c9cc:	08 00 
    c9ce:	90                   	nop
    c9cf:	0f b7 05 8a 0b 01 00 	movzwl 0x10b8a(%rip),%eax        # 1d560 <g_1976>
    c9d6:	66 83 f8 fe          	cmp    $0xfffe,%ax
    c9da:	0f 8c b6 09 00 00    	jl     d396 <func_2+0x237e>
    c9e0:	66 c7 85 b0 f0 ff ff 	movw   $0x3fe1,-0xf50(%rbp)
    c9e7:	e1 3f 
    c9e9:	48 8d 85 b0 f1 ff ff 	lea    -0xe50(%rbp),%rax
    c9f0:	48 89 85 c8 f1 ff ff 	mov    %rax,-0xe38(%rbp)
    c9f7:	48 8d 85 c8 f1 ff ff 	lea    -0xe38(%rbp),%rax
    c9fe:	48 89 85 f0 f3 ff ff 	mov    %rax,-0xc10(%rbp)
    ca05:	48 8d 85 c8 f1 ff ff 	lea    -0xe38(%rbp),%rax
    ca0c:	48 89 85 f8 f3 ff ff 	mov    %rax,-0xc08(%rbp)
    ca13:	48 8d 85 c8 f1 ff ff 	lea    -0xe38(%rbp),%rax
    ca1a:	48 89 85 00 f4 ff ff 	mov    %rax,-0xc00(%rbp)
    ca21:	48 8d 85 c8 f1 ff ff 	lea    -0xe38(%rbp),%rax
    ca28:	48 89 85 08 f4 ff ff 	mov    %rax,-0xbf8(%rbp)
    ca2f:	48 8d 85 c8 f1 ff ff 	lea    -0xe38(%rbp),%rax
    ca36:	48 89 85 10 f4 ff ff 	mov    %rax,-0xbf0(%rbp)
    ca3d:	48 8d 85 c8 f1 ff ff 	lea    -0xe38(%rbp),%rax
    ca44:	48 89 85 18 f4 ff ff 	mov    %rax,-0xbe8(%rbp)
    ca4b:	48 8d 85 c8 f1 ff ff 	lea    -0xe38(%rbp),%rax
    ca52:	48 89 85 20 f4 ff ff 	mov    %rax,-0xbe0(%rbp)
    ca59:	c7 85 68 f1 ff ff f7 	movl   $0xfffffff7,-0xe98(%rbp)
    ca60:	ff ff ff 
    ca63:	c7 85 ec f0 ff ff 6f 	movl   $0x27586c6f,-0xf14(%rbp)
    ca6a:	6c 58 27 
    ca6d:	c7 85 6c f1 ff ff 01 	movl   $0x1,-0xe94(%rbp)
    ca74:	00 00 00 
    ca77:	c7 85 70 f1 ff ff 71 	movl   $0xbe25dc71,-0xe90(%rbp)
    ca7e:	dc 25 be 
    ca81:	8b 85 e4 f0 ff ff    	mov    -0xf1c(%rbp),%eax
    ca87:	66 89 85 b0 f0 ff ff 	mov    %ax,-0xf50(%rbp)
    ca8e:	c7 85 c0 f0 ff ff 00 	movl   $0x0,-0xf40(%rbp)
    ca95:	00 00 00 
    ca98:	e9 db 08 00 00       	jmpq   d378 <func_2+0x2360>
    ca9d:	48 8d 05 8c 38 01 00 	lea    0x1388c(%rip),%rax        # 20330 <g_942+0xf0>
    caa4:	48 89 85 50 f5 ff ff 	mov    %rax,-0xab0(%rbp)
    caab:	48 8d 05 56 38 01 00 	lea    0x13856(%rip),%rax        # 20308 <g_942+0xc8>
    cab2:	48 89 85 58 f5 ff ff 	mov    %rax,-0xaa8(%rbp)
    cab9:	48 8d 05 70 38 01 00 	lea    0x13870(%rip),%rax        # 20330 <g_942+0xf0>
    cac0:	48 89 85 60 f5 ff ff 	mov    %rax,-0xaa0(%rbp)
    cac7:	48 8d 05 3a 38 01 00 	lea    0x1383a(%rip),%rax        # 20308 <g_942+0xc8>
    cace:	48 89 85 68 f5 ff ff 	mov    %rax,-0xa98(%rbp)
    cad5:	48 8d 05 54 38 01 00 	lea    0x13854(%rip),%rax        # 20330 <g_942+0xf0>
    cadc:	48 89 85 70 f5 ff ff 	mov    %rax,-0xa90(%rbp)
    cae3:	48 8d 05 1e 38 01 00 	lea    0x1381e(%rip),%rax        # 20308 <g_942+0xc8>
    caea:	48 89 85 78 f5 ff ff 	mov    %rax,-0xa88(%rbp)
    caf1:	48 8d 05 38 38 01 00 	lea    0x13838(%rip),%rax        # 20330 <g_942+0xf0>
    caf8:	48 89 85 80 f5 ff ff 	mov    %rax,-0xa80(%rbp)
    caff:	48 8d 05 02 38 01 00 	lea    0x13802(%rip),%rax        # 20308 <g_942+0xc8>
    cb06:	48 89 85 88 f5 ff ff 	mov    %rax,-0xa78(%rbp)
    cb0d:	48 8d 05 1c 38 01 00 	lea    0x1381c(%rip),%rax        # 20330 <g_942+0xf0>
    cb14:	48 89 85 90 f5 ff ff 	mov    %rax,-0xa70(%rbp)
    cb1b:	48 8d 05 82 c5 00 00 	lea    0xc582(%rip),%rax        # 190a4 <g_2294>
    cb22:	48 89 85 d0 f1 ff ff 	mov    %rax,-0xe30(%rbp)
    cb29:	48 8d 85 d0 f1 ff ff 	lea    -0xe30(%rbp),%rax
    cb30:	48 89 85 d0 f2 ff ff 	mov    %rax,-0xd30(%rbp)
    cb37:	48 8d 85 a8 f1 ff ff 	lea    -0xe58(%rbp),%rax
    cb3e:	48 89 85 d8 f2 ff ff 	mov    %rax,-0xd28(%rbp)
    cb45:	66 c7 85 50 f3 ff ff 	movw   $0xe0a1,-0xcb0(%rbp)
    cb4c:	a1 e0 
    cb4e:	66 c7 85 52 f3 ff ff 	movw   $0xe0a1,-0xcae(%rbp)
    cb55:	a1 e0 
    cb57:	66 c7 85 54 f3 ff ff 	movw   $0xe0a1,-0xcac(%rbp)
    cb5e:	a1 e0 
    cb60:	66 c7 85 56 f3 ff ff 	movw   $0xe0a1,-0xcaa(%rbp)
    cb67:	a1 e0 
    cb69:	66 c7 85 58 f3 ff ff 	movw   $0xe0a1,-0xca8(%rbp)
    cb70:	a1 e0 
    cb72:	66 c7 85 5a f3 ff ff 	movw   $0xd4c5,-0xca6(%rbp)
    cb79:	c5 d4 
    cb7b:	66 c7 85 5c f3 ff ff 	movw   $0x844,-0xca4(%rbp)
    cb82:	44 08 
    cb84:	66 c7 85 5e f3 ff ff 	movw   $0xd4c5,-0xca2(%rbp)
    cb8b:	c5 d4 
    cb8d:	66 c7 85 60 f3 ff ff 	movw   $0x844,-0xca0(%rbp)
    cb94:	44 08 
    cb96:	66 c7 85 62 f3 ff ff 	movw   $0xd4c5,-0xc9e(%rbp)
    cb9d:	c5 d4 
    cb9f:	c6 85 a1 f0 ff ff af 	movb   $0xaf,-0xf5f(%rbp)
    cba6:	48 8b 05 9b 31 01 00 	mov    0x1319b(%rip),%rax        # 1fd48 <g_636>
    cbad:	48 8d 95 d0 f4 ff ff 	lea    -0xb30(%rbp),%rdx
    cbb4:	48 83 c2 5c          	add    $0x5c,%rdx
    cbb8:	48 89 10             	mov    %rdx,(%rax)
    cbbb:	0f b7 85 a4 f0 ff ff 	movzwl -0xf5c(%rbp),%eax
    cbc2:	0f b6 d8             	movzbl %al,%ebx
    cbc5:	48 8b 85 d0 f2 ff ff 	mov    -0xd30(%rbp),%rax
    cbcc:	48 c7 00 00 00 00 00 	movq   $0x0,(%rax)
    cbd3:	48 8b 05 56 01 01 00 	mov    0x10156(%rip),%rax        # 1cd30 <l_2291.4406+0xd0>
    cbda:	48 85 c0             	test   %rax,%rax
    cbdd:	0f 95 c0             	setne  %al
    cbe0:	44 0f b6 e0          	movzbl %al,%r12d
    cbe4:	0f b7 85 b0 f0 ff ff 	movzwl -0xf50(%rbp),%eax
    cbeb:	98                   	cwtl   
    cbec:	be 0c 00 00 00       	mov    $0xc,%esi
    cbf1:	89 c7                	mov    %eax,%edi
    cbf3:	e8 32 b9 ff ff       	callq  852a <safe_rshift_func_int16_t_s_s>
    cbf8:	98                   	cwtl   
    cbf9:	8b 95 9c f0 ff ff    	mov    -0xf64(%rbp),%edx
    cbff:	f7 d2                	not    %edx
    cc01:	21 d0                	and    %edx,%eax
    cc03:	41 39 c4             	cmp    %eax,%r12d
    cc06:	0f 94 c0             	sete   %al
    cc09:	0f b6 d0             	movzbl %al,%edx
    cc0c:	0f b7 85 8c f0 ff ff 	movzwl -0xf74(%rbp),%eax
    cc13:	0f b7 c0             	movzwl %ax,%eax
    cc16:	39 c2                	cmp    %eax,%edx
    cc18:	0f 95 c0             	setne  %al
    cc1b:	0f b6 c0             	movzbl %al,%eax
    cc1e:	89 de                	mov    %ebx,%esi
    cc20:	89 c7                	mov    %eax,%edi
    cc22:	e8 6c bf ff ff       	callq  8b93 <safe_mul_func_uint8_t_u_u>
    cc27:	0f be c0             	movsbl %al,%eax
    cc2a:	be 3c 00 00 00       	mov    $0x3c,%esi
    cc2f:	89 c7                	mov    %eax,%edi
    cc31:	e8 dc b5 ff ff       	callq  8212 <safe_mul_func_int8_t_s_s>
    cc36:	0f be d0             	movsbl %al,%edx
    cc39:	8b 85 2c f5 ff ff    	mov    -0xad4(%rbp),%eax
    cc3f:	39 c2                	cmp    %eax,%edx
    cc41:	75 0d                	jne    cc50 <func_2+0x1c38>
    cc43:	80 bd 98 f0 ff ff 00 	cmpb   $0x0,-0xf68(%rbp)
    cc4a:	0f 84 36 05 00 00    	je     d186 <func_2+0x216e>
    cc50:	48 b8 59 60 fa f3 81 	movabs $0xaff4a981f3fa6059,%rax
    cc57:	a9 f4 af 
    cc5a:	48 89 85 d0 f5 ff ff 	mov    %rax,-0xa30(%rbp)
    cc61:	48 89 85 d8 f5 ff ff 	mov    %rax,-0xa28(%rbp)
    cc68:	48 89 85 e0 f5 ff ff 	mov    %rax,-0xa20(%rbp)
    cc6f:	48 89 85 e8 f5 ff ff 	mov    %rax,-0xa18(%rbp)
    cc76:	48 89 85 f0 f5 ff ff 	mov    %rax,-0xa10(%rbp)
    cc7d:	48 89 85 f8 f5 ff ff 	mov    %rax,-0xa08(%rbp)
    cc84:	48 89 85 00 f6 ff ff 	mov    %rax,-0xa00(%rbp)
    cc8b:	48 89 85 08 f6 ff ff 	mov    %rax,-0x9f8(%rbp)
    cc92:	48 89 85 10 f6 ff ff 	mov    %rax,-0x9f0(%rbp)
    cc99:	48 c7 85 18 f6 ff ff 	movq   $0xffffffffffffffff,-0x9e8(%rbp)
    cca0:	ff ff ff ff 
    cca4:	48 c7 85 20 f6 ff ff 	movq   $0xffffffffffffffff,-0x9e0(%rbp)
    ccab:	ff ff ff ff 
    ccaf:	48 c7 85 28 f6 ff ff 	movq   $0xffffffffffffffff,-0x9d8(%rbp)
    ccb6:	ff ff ff ff 
    ccba:	48 c7 85 30 f6 ff ff 	movq   $0xffffffffffffffff,-0x9d0(%rbp)
    ccc1:	ff ff ff ff 
    ccc5:	48 c7 85 38 f6 ff ff 	movq   $0xffffffffffffffff,-0x9c8(%rbp)
    cccc:	ff ff ff ff 
    ccd0:	48 c7 85 40 f6 ff ff 	movq   $0xffffffffffffffff,-0x9c0(%rbp)
    ccd7:	ff ff ff ff 
    ccdb:	48 c7 85 48 f6 ff ff 	movq   $0xffffffffffffffff,-0x9b8(%rbp)
    cce2:	ff ff ff ff 
    cce6:	48 c7 85 50 f6 ff ff 	movq   $0xffffffffffffffff,-0x9b0(%rbp)
    cced:	ff ff ff ff 
    ccf1:	48 c7 85 58 f6 ff ff 	movq   $0xffffffffffffffff,-0x9a8(%rbp)
    ccf8:	ff ff ff ff 
    ccfc:	c7 85 00 f1 ff ff 00 	movl   $0x0,-0xf00(%rbp)
    cd03:	00 00 00 
    cd06:	48 8d 85 a8 f1 ff ff 	lea    -0xe58(%rbp),%rax
    cd0d:	48 89 85 10 f3 ff ff 	mov    %rax,-0xcf0(%rbp)
    cd14:	48 8d 85 a4 f0 ff ff 	lea    -0xf5c(%rbp),%rax
    cd1b:	48 89 85 18 f3 ff ff 	mov    %rax,-0xce8(%rbp)
    cd22:	48 8b 85 d0 f5 ff ff 	mov    -0xa30(%rbp),%rax
    cd29:	48 83 c0 01          	add    $0x1,%rax
    cd2d:	48 89 85 d0 f5 ff ff 	mov    %rax,-0xa30(%rbp)
    cd34:	c7 05 fa 07 01 00 00 	movl   $0x0,0x107fa(%rip)        # 1d538 <g_1148>
    cd3b:	00 00 00 
    cd3e:	e9 f2 01 00 00       	jmpq   cf35 <func_2+0x1f1d>
    cd43:	c7 45 d1 83 01 83 83 	movl   $0x83830183,-0x2f(%rbp)
    cd4a:	66 c7 45 d5 01 83    	movw   $0x8301,-0x2b(%rbp)
    cd50:	c6 45 d7 83          	movb   $0x83,-0x29(%rbp)
    cd54:	48 8d 05 fd 07 01 00 	lea    0x107fd(%rip),%rax        # 1d558 <g_1820>
    cd5b:	48 89 85 28 f3 ff ff 	mov    %rax,-0xcd8(%rbp)
    cd62:	48 8d 05 47 06 01 00 	lea    0x10647(%rip),%rax        # 1d3b0 <g_184>
    cd69:	48 89 85 30 f3 ff ff 	mov    %rax,-0xcd0(%rbp)
    cd70:	48 8d 05 e9 07 01 00 	lea    0x107e9(%rip),%rax        # 1d560 <g_1976>
    cd77:	48 89 85 e0 f1 ff ff 	mov    %rax,-0xe20(%rbp)
    cd7e:	48 8d 85 e0 f1 ff ff 	lea    -0xe20(%rbp),%rax
    cd85:	48 89 85 b0 fc ff ff 	mov    %rax,-0x350(%rbp)
    cd8c:	48 8d 85 e0 f1 ff ff 	lea    -0xe20(%rbp),%rax
    cd93:	48 89 85 b8 fc ff ff 	mov    %rax,-0x348(%rbp)
    cd9a:	48 8d 85 e0 f1 ff ff 	lea    -0xe20(%rbp),%rax
    cda1:	48 89 85 c0 fc ff ff 	mov    %rax,-0x340(%rbp)
    cda8:	48 8d 85 e0 f1 ff ff 	lea    -0xe20(%rbp),%rax
    cdaf:	48 89 85 c8 fc ff ff 	mov    %rax,-0x338(%rbp)
    cdb6:	48 8d 85 e0 f1 ff ff 	lea    -0xe20(%rbp),%rax
    cdbd:	48 89 85 d0 fc ff ff 	mov    %rax,-0x330(%rbp)
    cdc4:	48 8d 85 e0 f1 ff ff 	lea    -0xe20(%rbp),%rax
    cdcb:	48 89 85 d8 fc ff ff 	mov    %rax,-0x328(%rbp)
    cdd2:	48 8d 85 e0 f1 ff ff 	lea    -0xe20(%rbp),%rax
    cdd9:	48 89 85 e0 fc ff ff 	mov    %rax,-0x320(%rbp)
    cde0:	48 8d 85 e0 f1 ff ff 	lea    -0xe20(%rbp),%rax
    cde7:	48 89 85 e8 fc ff ff 	mov    %rax,-0x318(%rbp)
    cdee:	48 8d 85 e0 f1 ff ff 	lea    -0xe20(%rbp),%rax
    cdf5:	48 89 85 f0 fc ff ff 	mov    %rax,-0x310(%rbp)
    cdfc:	48 8d 85 e0 f1 ff ff 	lea    -0xe20(%rbp),%rax
    ce03:	48 89 85 f8 fc ff ff 	mov    %rax,-0x308(%rbp)
    ce0a:	48 8d 85 e0 f1 ff ff 	lea    -0xe20(%rbp),%rax
    ce11:	48 89 85 00 fd ff ff 	mov    %rax,-0x300(%rbp)
    ce18:	48 8d 85 e0 f1 ff ff 	lea    -0xe20(%rbp),%rax
    ce1f:	48 89 85 08 fd ff ff 	mov    %rax,-0x2f8(%rbp)
    ce26:	48 8d 85 e0 f1 ff ff 	lea    -0xe20(%rbp),%rax
    ce2d:	48 89 85 10 fd ff ff 	mov    %rax,-0x2f0(%rbp)
    ce34:	48 8d 85 e0 f1 ff ff 	lea    -0xe20(%rbp),%rax
    ce3b:	48 89 85 18 fd ff ff 	mov    %rax,-0x2e8(%rbp)
    ce42:	48 8d 85 e0 f1 ff ff 	lea    -0xe20(%rbp),%rax
    ce49:	48 89 85 20 fd ff ff 	mov    %rax,-0x2e0(%rbp)
    ce50:	48 8d 85 e0 f1 ff ff 	lea    -0xe20(%rbp),%rax
    ce57:	48 89 85 28 fd ff ff 	mov    %rax,-0x2d8(%rbp)
    ce5e:	48 8d 85 e0 f1 ff ff 	lea    -0xe20(%rbp),%rax
    ce65:	48 89 85 30 fd ff ff 	mov    %rax,-0x2d0(%rbp)
    ce6c:	48 8d 85 e0 f1 ff ff 	lea    -0xe20(%rbp),%rax
    ce73:	48 89 85 38 fd ff ff 	mov    %rax,-0x2c8(%rbp)
    ce7a:	48 8d 85 e0 f1 ff ff 	lea    -0xe20(%rbp),%rax
    ce81:	48 89 85 40 fd ff ff 	mov    %rax,-0x2c0(%rbp)
    ce88:	48 8d 85 e0 f1 ff ff 	lea    -0xe20(%rbp),%rax
    ce8f:	48 89 85 48 fd ff ff 	mov    %rax,-0x2b8(%rbp)
    ce96:	48 8d 85 e0 f1 ff ff 	lea    -0xe20(%rbp),%rax
    ce9d:	48 89 85 50 fd ff ff 	mov    %rax,-0x2b0(%rbp)
    cea4:	48 8d 85 e0 f1 ff ff 	lea    -0xe20(%rbp),%rax
    ceab:	48 89 85 58 fd ff ff 	mov    %rax,-0x2a8(%rbp)
    ceb2:	48 8d 85 e0 f1 ff ff 	lea    -0xe20(%rbp),%rax
    ceb9:	48 89 85 60 fd ff ff 	mov    %rax,-0x2a0(%rbp)
    cec0:	48 8d 85 e0 f1 ff ff 	lea    -0xe20(%rbp),%rax
    cec7:	48 89 85 68 fd ff ff 	mov    %rax,-0x298(%rbp)
    cece:	48 8d 85 e0 f1 ff ff 	lea    -0xe20(%rbp),%rax
    ced5:	48 89 85 70 fd ff ff 	mov    %rax,-0x290(%rbp)
    cedc:	48 8d 85 e0 f1 ff ff 	lea    -0xe20(%rbp),%rax
    cee3:	48 89 85 78 fd ff ff 	mov    %rax,-0x288(%rbp)
    ceea:	48 8d 85 e0 f1 ff ff 	lea    -0xe20(%rbp),%rax
    cef1:	48 89 85 80 fd ff ff 	mov    %rax,-0x280(%rbp)
    cef8:	48 8d 85 b0 fc ff ff 	lea    -0x350(%rbp),%rax
    ceff:	48 83 c0 10          	add    $0x10,%rax
    cf03:	48 89 85 38 f3 ff ff 	mov    %rax,-0xcc8(%rbp)
    cf0a:	48 8d 05 f5 05 01 00 	lea    0x105f5(%rip),%rax        # 1d506 <g_677>
    cf11:	48 89 85 40 f3 ff ff 	mov    %rax,-0xcc0(%rbp)
    cf18:	48 8d 05 d1 34 01 00 	lea    0x134d1(%rip),%rax        # 203f0 <g_1177+0x30>
    cf1f:	48 89 85 48 f3 ff ff 	mov    %rax,-0xcb8(%rbp)
    cf26:	8b 05 0c 06 01 00    	mov    0x1060c(%rip),%eax        # 1d538 <g_1148>
    cf2c:	83 c0 01             	add    $0x1,%eax
    cf2f:	89 05 03 06 01 00    	mov    %eax,0x10603(%rip)        # 1d538 <g_1148>
    cf35:	8b 05 fd 05 01 00    	mov    0x105fd(%rip),%eax        # 1d538 <g_1148>
    cf3b:	83 f8 2c             	cmp    $0x2c,%eax
    cf3e:	0f 84 ff fd ff ff    	je     cd43 <func_2+0x1d2b>
    cf44:	c7 85 00 f1 ff ff 11 	movl   $0x11,-0xf00(%rbp)
    cf4b:	00 00 00 
    cf4e:	eb 74                	jmp    cfc4 <func_2+0x1fac>
    cf50:	48 8d 05 a9 37 01 00 	lea    0x137a9(%rip),%rax        # 20700 <g_2362>
    cf57:	48 89 85 20 f3 ff ff 	mov    %rax,-0xce0(%rbp)
    cf5e:	48 8b 15 9b 37 01 00 	mov    0x1379b(%rip),%rdx        # 20700 <g_2362>
    cf65:	48 8b 85 20 f3 ff ff 	mov    -0xce0(%rbp),%rax
    cf6c:	48 89 10             	mov    %rdx,(%rax)
    cf6f:	48 8b 85 20 f3 ff ff 	mov    -0xce0(%rbp),%rax
    cf76:	48 8b 00             	mov    (%rax),%rax
    cf79:	48 8d 15 e0 2d 01 00 	lea    0x12de0(%rip),%rdx        # 1fd60 <g_700>
    cf80:	48 39 d0             	cmp    %rdx,%rax
    cf83:	0f 95 c0             	setne  %al
    cf86:	0f b6 c8             	movzbl %al,%ecx
    cf89:	48 8b 05 38 2d 01 00 	mov    0x12d38(%rip),%rax        # 1fcc8 <g_180>
    cf90:	8b 10                	mov    (%rax),%edx
    cf92:	48 8b 05 2f 2d 01 00 	mov    0x12d2f(%rip),%rax        # 1fcc8 <g_180>
    cf99:	31 ca                	xor    %ecx,%edx
    cf9b:	89 10                	mov    %edx,(%rax)
    cf9d:	0f b7 85 8c f0 ff ff 	movzwl -0xf74(%rbp),%eax
    cfa4:	66 85 c0             	test   %ax,%ax
    cfa7:	75 26                	jne    cfcf <func_2+0x1fb7>
    cfa9:	8b 85 00 f1 ff ff    	mov    -0xf00(%rbp),%eax
    cfaf:	48 98                	cltq   
    cfb1:	be 02 00 00 00       	mov    $0x2,%esi
    cfb6:	48 89 c7             	mov    %rax,%rdi
    cfb9:	e8 8d c0 ff ff       	callq  904b <safe_sub_func_uint64_t_u_u>
    cfbe:	89 85 00 f1 ff ff    	mov    %eax,-0xf00(%rbp)
    cfc4:	83 bd 00 f1 ff ff eb 	cmpl   $0xffffffeb,-0xf00(%rbp)
    cfcb:	75 83                	jne    cf50 <func_2+0x1f38>
    cfcd:	eb 01                	jmp    cfd0 <func_2+0x1fb8>
    cfcf:	90                   	nop
    cfd0:	c7 05 d6 03 01 00 04 	movl   $0x4,0x103d6(%rip)        # 1d3b0 <g_184>
    cfd7:	00 00 00 
    cfda:	e9 93 01 00 00       	jmpq   d172 <func_2+0x215a>
    cfdf:	c7 85 84 f1 ff ff fc 	movl   $0xfffffffc,-0xe7c(%rbp)
    cfe6:	ff ff ff 
    cfe9:	48 8d 85 b0 fc ff ff 	lea    -0x350(%rbp),%rax
    cff0:	48 8d 15 e9 10 01 00 	lea    0x110e9(%rip),%rdx        # 1e0e0 <g_2683+0x9d8>
    cff7:	b9 5a 00 00 00       	mov    $0x5a,%ecx
    cffc:	48 89 c7             	mov    %rax,%rdi
    cfff:	48 89 d6             	mov    %rdx,%rsi
    d002:	f3 48 a5             	rep movsq %ds:(%rsi),%es:(%rdi)
    d005:	48 8b 05 bc 2c 01 00 	mov    0x12cbc(%rip),%rax        # 1fcc8 <g_180>
    d00c:	8b 00                	mov    (%rax),%eax
    d00e:	85 c0                	test   %eax,%eax
    d010:	74 06                	je     d018 <func_2+0x2000>
    d012:	90                   	nop
    d013:	e9 42 03 00 00       	jmpq   d35a <func_2+0x2342>
    d018:	48 0f be 9d 98 f0 ff 	movsbq -0xf68(%rbp),%rbx
    d01f:	ff 
    d020:	8b 85 cc f0 ff ff    	mov    -0xf34(%rbp),%eax
    d026:	44 0f b7 e0          	movzwl %ax,%r12d
    d02a:	44 0f b7 ad b0 f0 ff 	movzwl -0xf50(%rbp),%r13d
    d031:	ff 
    d032:	44 8b b5 9c f0 ff ff 	mov    -0xf64(%rbp),%r14d
    d039:	8b 85 90 f0 ff ff    	mov    -0xf70(%rbp),%eax
    d03f:	89 c2                	mov    %eax,%edx
    d041:	0f be 85 98 f0 ff ff 	movsbl -0xf68(%rbp),%eax
    d048:	89 85 00 f1 ff ff    	mov    %eax,-0xf00(%rbp)
    d04e:	8b 85 00 f1 ff ff    	mov    -0xf00(%rbp),%eax
    d054:	98                   	cwtl   
    d055:	89 d6                	mov    %edx,%esi
    d057:	89 c7                	mov    %eax,%edi
    d059:	e8 34 b4 ff ff       	callq  8492 <safe_lshift_func_int16_t_s_s>
    d05e:	48 8d 85 8c f0 ff ff 	lea    -0xf74(%rbp),%rax
    d065:	48 39 85 18 f3 ff ff 	cmp    %rax,-0xce8(%rbp)
    d06c:	0f 94 c0             	sete   %al
    d06f:	0f b6 c0             	movzbl %al,%eax
    d072:	44 89 f6             	mov    %r14d,%esi
    d075:	89 c7                	mov    %eax,%edi
    d077:	e8 ae b4 ff ff       	callq  852a <safe_rshift_func_int16_t_s_s>
    d07c:	66 83 f8 09          	cmp    $0x9,%ax
    d080:	0f 9e c0             	setle  %al
    d083:	0f b6 c0             	movzbl %al,%eax
    d086:	23 85 9c f0 ff ff    	and    -0xf64(%rbp),%eax
    d08c:	83 f8 07             	cmp    $0x7,%eax
    d08f:	0f 96 c0             	setbe  %al
    d092:	0f b6 c0             	movzbl %al,%eax
    d095:	44 89 ee             	mov    %r13d,%esi
    d098:	89 c7                	mov    %eax,%edi
    d09a:	e8 9e bc ff ff       	callq  8d3d <safe_mul_func_uint16_t_u_u>
    d09f:	0f b6 05 23 05 01 00 	movzbl 0x10523(%rip),%eax        # 1d5c9 <g_2389>
    d0a6:	3c ff                	cmp    $0xff,%al
    d0a8:	0f 9d c0             	setge  %al
    d0ab:	0f b6 c0             	movzbl %al,%eax
    d0ae:	44 89 e6             	mov    %r12d,%esi
    d0b1:	89 c7                	mov    %eax,%edi
    d0b3:	e8 a4 bc ff ff       	callq  8d5c <safe_mod_func_uint16_t_u_u>
    d0b8:	8b 95 90 f0 ff ff    	mov    -0xf70(%rbp),%edx
    d0be:	0f b7 85 8c f0 ff ff 	movzwl -0xf74(%rbp),%eax
    d0c5:	0f b7 c0             	movzwl %ax,%eax
    d0c8:	21 d0                	and    %edx,%eax
    d0ca:	85 c0                	test   %eax,%eax
    d0cc:	75 0e                	jne    d0dc <func_2+0x20c4>
    d0ce:	48 8b 05 db 32 01 00 	mov    0x132db(%rip),%rax        # 203b0 <g_1134>
    d0d5:	48 8b 00             	mov    (%rax),%rax
    d0d8:	8b 00                	mov    (%rax),%eax
    d0da:	85 c0                	test   %eax,%eax
    d0dc:	bf fa 00 00 00       	mov    $0xfa,%edi
    d0e1:	e8 5f ba ff ff       	callq  8b45 <safe_unary_minus_func_uint8_t_u>
    d0e6:	0f b6 c0             	movzbl %al,%eax
    d0e9:	be 00 00 00 00       	mov    $0x0,%esi
    d0ee:	89 c7                	mov    %eax,%edi
    d0f0:	e8 65 ba ff ff       	callq  8b5a <safe_add_func_uint8_t_u_u>
    d0f5:	84 c0                	test   %al,%al
    d0f7:	48 8b 05 e2 35 01 00 	mov    0x135e2(%rip),%rax        # 206e0 <g_2165>
    d0fe:	48 8b 05 3b 33 01 00 	mov    0x1333b(%rip),%rax        # 20440 <g_1618>
    d105:	48 c7 00 ff ff ff ff 	movq   $0xffffffffffffffff,(%rax)
    d10c:	48 8b 00             	mov    (%rax),%rax
    d10f:	48 89 de             	mov    %rbx,%rsi
    d112:	48 89 c7             	mov    %rax,%rdi
    d115:	e8 27 b7 ff ff       	callq  8841 <safe_add_func_int64_t_s_s>
    d11a:	48 8b 15 a7 2b 01 00 	mov    0x12ba7(%rip),%rdx        # 1fcc8 <g_180>
    d121:	8b 12                	mov    (%rdx),%edx
    d123:	89 c1                	mov    %eax,%ecx
    d125:	48 8b 05 9c 2b 01 00 	mov    0x12b9c(%rip),%rax        # 1fcc8 <g_180>
    d12c:	21 ca                	and    %ecx,%edx
    d12e:	89 10                	mov    %edx,(%rax)
    d130:	48 8b 05 91 2b 01 00 	mov    0x12b91(%rip),%rax        # 1fcc8 <g_180>
    d137:	0f be 95 98 f0 ff ff 	movsbl -0xf68(%rbp),%edx
    d13e:	89 10                	mov    %edx,(%rax)
    d140:	8b 10                	mov    (%rax),%edx
    d142:	8b 85 dc f0 ff ff    	mov    -0xf24(%rbp),%eax
    d148:	31 d0                	xor    %edx,%eax
    d14a:	89 85 dc f0 ff ff    	mov    %eax,-0xf24(%rbp)
    d150:	80 85 a1 f0 ff ff 01 	addb   $0x1,-0xf5f(%rbp)
    d157:	8b 05 53 02 01 00    	mov    0x10253(%rip),%eax        # 1d3b0 <g_184>
    d15d:	89 c0                	mov    %eax,%eax
    d15f:	be 03 00 00 00       	mov    $0x3,%esi
    d164:	48 89 c7             	mov    %rax,%rdi
    d167:	e8 c2 be ff ff       	callq  902e <safe_add_func_uint64_t_u_u>
    d16c:	89 05 3e 02 01 00    	mov    %eax,0x1023e(%rip)        # 1d3b0 <g_184>
    d172:	8b 05 38 02 01 00    	mov    0x10238(%rip),%eax        # 1d3b0 <g_184>
    d178:	83 f8 21             	cmp    $0x21,%eax
    d17b:	0f 87 5e fe ff ff    	ja     cfdf <func_2+0x1fc7>
    d181:	e9 d4 01 00 00       	jmpq   d35a <func_2+0x2342>
    d186:	48 c7 85 e0 f2 ff ff 	movq   $0x0,-0xd20(%rbp)
    d18d:	00 00 00 00 
    d191:	c7 85 74 f1 ff ff f9 	movl   $0xfffffff9,-0xe8c(%rbp)
    d198:	ff ff ff 
    d19b:	48 b8 7a 1a 3a cd d8 	movabs $0x7168a8d8cd3a1a7a,%rax
    d1a2:	a8 68 71 
    d1a5:	48 89 85 e8 f2 ff ff 	mov    %rax,-0xd18(%rbp)
    d1ac:	48 8d 85 ec f0 ff ff 	lea    -0xf14(%rbp),%rax
    d1b3:	48 89 85 d8 f1 ff ff 	mov    %rax,-0xe28(%rbp)
    d1ba:	66 c7 85 aa f0 ff ff 	movw   $0xfff7,-0xf56(%rbp)
    d1c1:	f7 ff 
    d1c3:	48 8d 85 d0 f4 ff ff 	lea    -0xb30(%rbp),%rax
    d1ca:	48 83 c0 58          	add    $0x58,%rax
    d1ce:	48 89 85 f0 f2 ff ff 	mov    %rax,-0xd10(%rbp)
    d1d5:	c6 05 ed 03 01 00 06 	movb   $0x6,0x103ed(%rip)        # 1d5c9 <g_2389>
    d1dc:	e9 85 00 00 00       	jmpq   d266 <func_2+0x224e>
    d1e1:	48 c7 85 08 f3 ff ff 	movq   $0x0,-0xcf8(%rbp)
    d1e8:	00 00 00 00 
    d1ec:	48 8b 85 e8 f1 ff ff 	mov    -0xe18(%rbp),%rax
    d1f3:	66 c7 00 20 51       	movw   $0x5120,(%rax)
    d1f8:	be 0c 00 00 00       	mov    $0xc,%esi
    d1fd:	bf 20 51 00 00       	mov    $0x5120,%edi
    d202:	e8 73 bc ff ff       	callq  8e7a <safe_rshift_func_uint16_t_u_u>
    d207:	0f b7 c0             	movzwl %ax,%eax
    d20a:	0f b6 15 b8 03 01 00 	movzbl 0x103b8(%rip),%edx        # 1d5c9 <g_2389>
    d211:	0f be d2             	movsbl %dl,%edx
    d214:	83 c2 01             	add    $0x1,%edx
    d217:	83 e0 01             	and    $0x1,%eax
    d21a:	89 c1                	mov    %eax,%ecx
    d21c:	48 63 c2             	movslq %edx,%rax
    d21f:	48 8d 14 85 00 00 00 	lea    0x0(,%rax,4),%rdx
    d226:	00 
    d227:	48 8d 05 52 03 01 00 	lea    0x10352(%rip),%rax        # 1d580 <g_2224>
    d22e:	89 0c 02             	mov    %ecx,(%rdx,%rax,1)
    d231:	0f b6 05 91 03 01 00 	movzbl 0x10391(%rip),%eax        # 1d5c9 <g_2389>
    d238:	0f be c0             	movsbl %al,%eax
    d23b:	48 98                	cltq   
    d23d:	48 8d 14 85 00 00 00 	lea    0x0(,%rax,4),%rdx
    d244:	00 
    d245:	48 8d 05 34 03 01 00 	lea    0x10334(%rip),%rax        # 1d580 <g_2224>
    d24c:	48 01 d0             	add    %rdx,%rax
    d24f:	48 89 85 08 f3 ff ff 	mov    %rax,-0xcf8(%rbp)
    d256:	0f b6 05 6c 03 01 00 	movzbl 0x1036c(%rip),%eax        # 1d5c9 <g_2389>
    d25d:	83 e8 01             	sub    $0x1,%eax
    d260:	88 05 63 03 01 00    	mov    %al,0x10363(%rip)        # 1d5c9 <g_2389>
    d266:	0f b6 05 5c 03 01 00 	movzbl 0x1035c(%rip),%eax        # 1d5c9 <g_2389>
    d26d:	84 c0                	test   %al,%al
    d26f:	0f 89 6c ff ff ff    	jns    d1e1 <func_2+0x21c9>
    d275:	c7 05 ad 02 01 00 f9 	movl   $0xfffffff9,0x102ad(%rip)        # 1d52c <g_975>
    d27c:	ff ff ff 
    d27f:	eb 45                	jmp    d2c6 <func_2+0x22ae>
    d281:	48 b8 8a 01 8c fb 6f 	movabs $0x626aba6ffb8c018a,%rax
    d288:	ba 6a 62 
    d28b:	48 89 85 f8 f2 ff ff 	mov    %rax,-0xd08(%rbp)
    d292:	48 8d 05 8f 02 01 00 	lea    0x1028f(%rip),%rax        # 1d528 <g_900>
    d299:	48 89 85 e0 f1 ff ff 	mov    %rax,-0xe20(%rbp)
    d2a0:	48 8d 85 e0 f1 ff ff 	lea    -0xe20(%rbp),%rax
    d2a7:	48 89 85 00 f3 ff ff 	mov    %rax,-0xd00(%rbp)
    d2ae:	8b 05 78 02 01 00    	mov    0x10278(%rip),%eax        # 1d52c <g_975>
    d2b4:	be 07 00 00 00       	mov    $0x7,%esi
    d2b9:	89 c7                	mov    %eax,%edi
    d2bb:	e8 f8 bb ff ff       	callq  8eb8 <safe_add_func_uint32_t_u_u>
    d2c0:	89 05 66 02 01 00    	mov    %eax,0x10266(%rip)        # 1d52c <g_975>
    d2c6:	8b 05 60 02 01 00    	mov    0x10260(%rip),%eax        # 1d52c <g_975>
    d2cc:	83 f8 2a             	cmp    $0x2a,%eax
    d2cf:	75 b0                	jne    d281 <func_2+0x2269>
    d2d1:	66 0f be 85 98 f0 ff 	movsbw -0xf68(%rbp),%ax
    d2d8:	ff 
    d2d9:	0f b7 c0             	movzwl %ax,%eax
    d2dc:	be 07 00 00 00       	mov    $0x7,%esi
    d2e1:	89 c7                	mov    %eax,%edi
    d2e3:	e8 1e bb ff ff       	callq  8e06 <safe_lshift_func_uint16_t_u_u>
    d2e8:	0f b7 c0             	movzwl %ax,%eax
    d2eb:	89 85 d0 f0 ff ff    	mov    %eax,-0xf30(%rbp)
    d2f1:	66 c7 85 a6 f0 ff ff 	movw   $0x0,-0xf5a(%rbp)
    d2f8:	00 00 
    d2fa:	eb 51                	jmp    d34d <func_2+0x2335>
    d2fc:	66 c7 85 b2 f0 ff ff 	movw   $0x717d,-0xf4e(%rbp)
    d303:	7d 71 
    d305:	c7 85 78 f1 ff ff ea 	movl   $0xa75ebeea,-0xe88(%rbp)
    d30c:	be 5e a7 
    d30f:	c7 85 7c f1 ff ff 02 	movl   $0x2,-0xe84(%rbp)
    d316:	00 00 00 
    d319:	c7 85 80 f1 ff ff 2e 	movl   $0x5c62ee2e,-0xe80(%rbp)
    d320:	ee 62 5c 
    d323:	0f b7 85 aa f0 ff ff 	movzwl -0xf56(%rbp),%eax
    d32a:	83 e8 01             	sub    $0x1,%eax
    d32d:	66 89 85 aa f0 ff ff 	mov    %ax,-0xf56(%rbp)
    d334:	8b 85 90 f0 ff ff    	mov    -0xf70(%rbp),%eax
    d33a:	85 c0                	test   %eax,%eax
    d33c:	0f b7 85 a6 f0 ff ff 	movzwl -0xf5a(%rbp),%eax
    d343:	83 e8 01             	sub    $0x1,%eax
    d346:	66 89 85 a6 f0 ff ff 	mov    %ax,-0xf5a(%rbp)
    d34d:	0f b7 85 a6 f0 ff ff 	movzwl -0xf5a(%rbp),%eax
    d354:	66 83 f8 f5          	cmp    $0xfff5,%ax
    d358:	75 a2                	jne    d2fc <func_2+0x22e4>
    d35a:	8b 85 c0 f0 ff ff    	mov    -0xf40(%rbp),%eax
    d360:	0f b7 c0             	movzwl %ax,%eax
    d363:	be 04 00 00 00       	mov    $0x4,%esi
    d368:	89 c7                	mov    %eax,%edi
    d36a:	e8 90 b9 ff ff       	callq  8cff <safe_add_func_uint16_t_u_u>
    d36f:	0f b7 c0             	movzwl %ax,%eax
    d372:	89 85 c0 f0 ff ff    	mov    %eax,-0xf40(%rbp)
    d378:	8b 85 c0 f0 ff ff    	mov    -0xf40(%rbp),%eax
    d37e:	83 f8 07             	cmp    $0x7,%eax
    d381:	0f 8e 16 f7 ff ff    	jle    ca9d <func_2+0x1a85>
    d387:	48 8b 05 da 29 01 00 	mov    0x129da(%rip),%rax        # 1fd68 <g_706>
    d38e:	0f b6 00             	movzbl (%rax),%eax
    d391:	e9 73 0f 00 00       	jmpq   e309 <func_2+0x32f1>
    d396:	c7 85 e4 f0 ff ff 13 	movl   $0x13,-0xf1c(%rbp)
    d39d:	00 00 00 
    d3a0:	e9 1c 0f 00 00       	jmpq   e2c1 <func_2+0x32a9>
    d3a5:	66 c7 85 50 f5 ff ff 	movw   $0x960f,-0xab0(%rbp)
    d3ac:	0f 96 
    d3ae:	66 c7 85 52 f5 ff ff 	movw   $0x960f,-0xaae(%rbp)
    d3b5:	0f 96 
    d3b7:	66 c7 85 54 f5 ff ff 	movw   $0x7c76,-0xaac(%rbp)
    d3be:	76 7c 
    d3c0:	66 c7 85 56 f5 ff ff 	movw   $0x7c76,-0xaaa(%rbp)
    d3c7:	76 7c 
    d3c9:	66 c7 85 58 f5 ff ff 	movw   $0x960f,-0xaa8(%rbp)
    d3d0:	0f 96 
    d3d2:	66 c7 85 5a f5 ff ff 	movw   $0x960f,-0xaa6(%rbp)
    d3d9:	0f 96 
    d3db:	66 c7 85 5c f5 ff ff 	movw   $0x960f,-0xaa4(%rbp)
    d3e2:	0f 96 
    d3e4:	66 c7 85 5e f5 ff ff 	movw   $0x7c76,-0xaa2(%rbp)
    d3eb:	76 7c 
    d3ed:	66 c7 85 60 f5 ff ff 	movw   $0x7c76,-0xaa0(%rbp)
    d3f4:	76 7c 
    d3f6:	66 c7 85 62 f5 ff ff 	movw   $0x960f,-0xa9e(%rbp)
    d3fd:	0f 96 
    d3ff:	66 c7 85 64 f5 ff ff 	movw   $0x960f,-0xa9c(%rbp)
    d406:	0f 96 
    d408:	66 c7 85 66 f5 ff ff 	movw   $0x7c76,-0xa9a(%rbp)
    d40f:	76 7c 
    d411:	66 c7 85 68 f5 ff ff 	movw   $0x960f,-0xa98(%rbp)
    d418:	0f 96 
    d41a:	66 c7 85 6a f5 ff ff 	movw   $0x960f,-0xa96(%rbp)
    d421:	0f 96 
    d423:	66 c7 85 6c f5 ff ff 	movw   $0x7c76,-0xa94(%rbp)
    d42a:	76 7c 
    d42c:	66 c7 85 6e f5 ff ff 	movw   $0x7c76,-0xa92(%rbp)
    d433:	76 7c 
    d435:	66 c7 85 70 f5 ff ff 	movw   $0x960f,-0xa90(%rbp)
    d43c:	0f 96 
    d43e:	66 c7 85 72 f5 ff ff 	movw   $0x960f,-0xa8e(%rbp)
    d445:	0f 96 
    d447:	66 c7 85 74 f5 ff ff 	movw   $0x960f,-0xa8c(%rbp)
    d44e:	0f 96 
    d450:	66 c7 85 76 f5 ff ff 	movw   $0x7c76,-0xa8a(%rbp)
    d457:	76 7c 
    d459:	66 c7 85 78 f5 ff ff 	movw   $0x7c76,-0xa88(%rbp)
    d460:	76 7c 
    d462:	66 c7 85 7a f5 ff ff 	movw   $0x960f,-0xa86(%rbp)
    d469:	0f 96 
    d46b:	66 c7 85 7c f5 ff ff 	movw   $0x960f,-0xa84(%rbp)
    d472:	0f 96 
    d474:	66 c7 85 7e f5 ff ff 	movw   $0x7c76,-0xa82(%rbp)
    d47b:	76 7c 
    d47d:	66 c7 85 80 f5 ff ff 	movw   $0x960f,-0xa80(%rbp)
    d484:	0f 96 
    d486:	66 c7 85 82 f5 ff ff 	movw   $0x960f,-0xa7e(%rbp)
    d48d:	0f 96 
    d48f:	66 c7 85 84 f5 ff ff 	movw   $0x7c76,-0xa7c(%rbp)
    d496:	76 7c 
    d498:	66 c7 85 86 f5 ff ff 	movw   $0x7c76,-0xa7a(%rbp)
    d49f:	76 7c 
    d4a1:	66 c7 85 88 f5 ff ff 	movw   $0x960f,-0xa78(%rbp)
    d4a8:	0f 96 
    d4aa:	66 c7 85 8a f5 ff ff 	movw   $0x960f,-0xa76(%rbp)
    d4b1:	0f 96 
    d4b3:	66 c7 85 8c f5 ff ff 	movw   $0x960f,-0xa74(%rbp)
    d4ba:	0f 96 
    d4bc:	66 c7 85 8e f5 ff ff 	movw   $0x7c76,-0xa72(%rbp)
    d4c3:	76 7c 
    d4c5:	66 c7 85 90 f5 ff ff 	movw   $0x7c76,-0xa70(%rbp)
    d4cc:	76 7c 
    d4ce:	66 c7 85 92 f5 ff ff 	movw   $0x960f,-0xa6e(%rbp)
    d4d5:	0f 96 
    d4d7:	66 c7 85 94 f5 ff ff 	movw   $0x960f,-0xa6c(%rbp)
    d4de:	0f 96 
    d4e0:	66 c7 85 96 f5 ff ff 	movw   $0x7c76,-0xa6a(%rbp)
    d4e7:	76 7c 
    d4e9:	66 c7 85 98 f5 ff ff 	movw   $0x960f,-0xa68(%rbp)
    d4f0:	0f 96 
    d4f2:	66 c7 85 9a f5 ff ff 	movw   $0x960f,-0xa66(%rbp)
    d4f9:	0f 96 
    d4fb:	66 c7 85 9c f5 ff ff 	movw   $0x7c76,-0xa64(%rbp)
    d502:	76 7c 
    d504:	66 c7 85 9e f5 ff ff 	movw   $0x7c76,-0xa62(%rbp)
    d50b:	76 7c 
    d50d:	66 c7 85 a0 f5 ff ff 	movw   $0x960f,-0xa60(%rbp)
    d514:	0f 96 
    d516:	66 c7 85 a2 f5 ff ff 	movw   $0x960f,-0xa5e(%rbp)
    d51d:	0f 96 
    d51f:	66 c7 85 a4 f5 ff ff 	movw   $0x960f,-0xa5c(%rbp)
    d526:	0f 96 
    d528:	66 c7 85 a6 f5 ff ff 	movw   $0x7c76,-0xa5a(%rbp)
    d52f:	76 7c 
    d531:	66 c7 85 a8 f5 ff ff 	movw   $0x7c76,-0xa58(%rbp)
    d538:	76 7c 
    d53a:	66 c7 85 aa f5 ff ff 	movw   $0x960f,-0xa56(%rbp)
    d541:	0f 96 
    d543:	66 c7 85 ac f5 ff ff 	movw   $0x960f,-0xa54(%rbp)
    d54a:	0f 96 
    d54c:	66 c7 85 ae f5 ff ff 	movw   $0x7c76,-0xa52(%rbp)
    d553:	76 7c 
    d555:	66 c7 85 b0 f5 ff ff 	movw   $0x960f,-0xa50(%rbp)
    d55c:	0f 96 
    d55e:	66 c7 85 b2 f5 ff ff 	movw   $0x960f,-0xa4e(%rbp)
    d565:	0f 96 
    d567:	66 c7 85 b4 f5 ff ff 	movw   $0x7c76,-0xa4c(%rbp)
    d56e:	76 7c 
    d570:	66 c7 85 b6 f5 ff ff 	movw   $0x7c76,-0xa4a(%rbp)
    d577:	76 7c 
    d579:	66 c7 85 b8 f5 ff ff 	movw   $0x960f,-0xa48(%rbp)
    d580:	0f 96 
    d582:	66 c7 85 ba f5 ff ff 	movw   $0x960f,-0xa46(%rbp)
    d589:	0f 96 
    d58b:	66 c7 85 bc f5 ff ff 	movw   $0x960f,-0xa44(%rbp)
    d592:	0f 96 
    d594:	66 c7 85 be f5 ff ff 	movw   $0x7c76,-0xa42(%rbp)
    d59b:	76 7c 
    d59d:	66 c7 85 c0 f5 ff ff 	movw   $0x7c76,-0xa40(%rbp)
    d5a4:	76 7c 
    d5a6:	66 c7 85 c2 f5 ff ff 	movw   $0x960f,-0xa3e(%rbp)
    d5ad:	0f 96 
    d5af:	66 c7 85 c4 f5 ff ff 	movw   $0x960f,-0xa3c(%rbp)
    d5b6:	0f 96 
    d5b8:	66 c7 85 c6 f5 ff ff 	movw   $0x7c76,-0xa3a(%rbp)
    d5bf:	76 7c 
    d5c1:	48 8d 05 7e fa 00 00 	lea    0xfa7e(%rip),%rax        # 1d046 <g_113+0x6>
    d5c8:	48 89 85 b0 fc ff ff 	mov    %rax,-0x350(%rbp)
    d5cf:	48 c7 85 b8 fc ff ff 	movq   $0x0,-0x348(%rbp)
    d5d6:	00 00 00 00 
    d5da:	48 8d 85 50 f5 ff ff 	lea    -0xab0(%rbp),%rax
    d5e1:	48 83 c0 1a          	add    $0x1a,%rax
    d5e5:	48 89 85 c0 fc ff ff 	mov    %rax,-0x340(%rbp)
    d5ec:	48 c7 85 c8 fc ff ff 	movq   $0x0,-0x338(%rbp)
    d5f3:	00 00 00 00 
    d5f7:	48 c7 85 d0 fc ff ff 	movq   $0x0,-0x330(%rbp)
    d5fe:	00 00 00 00 
    d602:	48 8d 05 39 fa 00 00 	lea    0xfa39(%rip),%rax        # 1d042 <g_113+0x2>
    d609:	48 89 85 d8 fc ff ff 	mov    %rax,-0x328(%rbp)
    d610:	48 8d 05 2f fa 00 00 	lea    0xfa2f(%rip),%rax        # 1d046 <g_113+0x6>
    d617:	48 89 85 e0 fc ff ff 	mov    %rax,-0x320(%rbp)
    d61e:	48 8d 05 1d fa 00 00 	lea    0xfa1d(%rip),%rax        # 1d042 <g_113+0x2>
    d625:	48 89 85 e8 fc ff ff 	mov    %rax,-0x318(%rbp)
    d62c:	48 c7 85 f0 fc ff ff 	movq   $0x0,-0x310(%rbp)
    d633:	00 00 00 00 
    d637:	48 c7 85 f8 fc ff ff 	movq   $0x0,-0x308(%rbp)
    d63e:	00 00 00 00 
    d642:	48 8d 85 50 f5 ff ff 	lea    -0xab0(%rbp),%rax
    d649:	48 83 c0 1a          	add    $0x1a,%rax
    d64d:	48 89 85 00 fd ff ff 	mov    %rax,-0x300(%rbp)
    d654:	48 c7 85 08 fd ff ff 	movq   $0x0,-0x2f8(%rbp)
    d65b:	00 00 00 00 
    d65f:	48 8d 05 e0 f9 00 00 	lea    0xf9e0(%rip),%rax        # 1d046 <g_113+0x6>
    d666:	48 89 85 10 fd ff ff 	mov    %rax,-0x2f0(%rbp)
    d66d:	48 8d 85 a4 f0 ff ff 	lea    -0xf5c(%rbp),%rax
    d674:	48 89 85 18 fd ff ff 	mov    %rax,-0x2e8(%rbp)
    d67b:	48 c7 85 20 fd ff ff 	movq   $0x0,-0x2e0(%rbp)
    d682:	00 00 00 00 
    d686:	48 c7 85 28 fd ff ff 	movq   $0x0,-0x2d8(%rbp)
    d68d:	00 00 00 00 
    d691:	48 8d 05 aa f9 00 00 	lea    0xf9aa(%rip),%rax        # 1d042 <g_113+0x2>
    d698:	48 89 85 30 fd ff ff 	mov    %rax,-0x2d0(%rbp)
    d69f:	48 c7 85 38 fd ff ff 	movq   $0x0,-0x2c8(%rbp)
    d6a6:	00 00 00 00 
    d6aa:	48 8d 05 95 f9 00 00 	lea    0xf995(%rip),%rax        # 1d046 <g_113+0x6>
    d6b1:	48 89 85 40 fd ff ff 	mov    %rax,-0x2c0(%rbp)
    d6b8:	48 8d 05 87 f9 00 00 	lea    0xf987(%rip),%rax        # 1d046 <g_113+0x6>
    d6bf:	48 89 85 48 fd ff ff 	mov    %rax,-0x2b8(%rbp)
    d6c6:	48 8d 05 79 f9 00 00 	lea    0xf979(%rip),%rax        # 1d046 <g_113+0x6>
    d6cd:	48 89 85 50 fd ff ff 	mov    %rax,-0x2b0(%rbp)
    d6d4:	48 c7 85 58 fd ff ff 	movq   $0x0,-0x2a8(%rbp)
    d6db:	00 00 00 00 
    d6df:	48 8d 05 5c f9 00 00 	lea    0xf95c(%rip),%rax        # 1d042 <g_113+0x2>
    d6e6:	48 89 85 60 fd ff ff 	mov    %rax,-0x2a0(%rbp)
    d6ed:	48 c7 85 68 fd ff ff 	movq   $0x0,-0x298(%rbp)
    d6f4:	00 00 00 00 
    d6f8:	48 c7 85 70 fd ff ff 	movq   $0x0,-0x290(%rbp)
    d6ff:	00 00 00 00 
    d703:	48 8d 85 a4 f0 ff ff 	lea    -0xf5c(%rbp),%rax
    d70a:	48 89 85 78 fd ff ff 	mov    %rax,-0x288(%rbp)
    d711:	48 8d 05 2e f9 00 00 	lea    0xf92e(%rip),%rax        # 1d046 <g_113+0x6>
    d718:	48 89 85 80 fd ff ff 	mov    %rax,-0x280(%rbp)
    d71f:	48 c7 85 88 fd ff ff 	movq   $0x0,-0x278(%rbp)
    d726:	00 00 00 00 
    d72a:	48 8d 85 50 f5 ff ff 	lea    -0xab0(%rbp),%rax
    d731:	48 83 c0 1a          	add    $0x1a,%rax
    d735:	48 89 85 90 fd ff ff 	mov    %rax,-0x270(%rbp)
    d73c:	48 c7 85 98 fd ff ff 	movq   $0x0,-0x268(%rbp)
    d743:	00 00 00 00 
    d747:	48 c7 85 a0 fd ff ff 	movq   $0x0,-0x260(%rbp)
    d74e:	00 00 00 00 
    d752:	48 8d 05 e9 f8 00 00 	lea    0xf8e9(%rip),%rax        # 1d042 <g_113+0x2>
    d759:	48 89 85 a8 fd ff ff 	mov    %rax,-0x258(%rbp)
    d760:	48 8d 05 df f8 00 00 	lea    0xf8df(%rip),%rax        # 1d046 <g_113+0x6>
    d767:	48 89 85 b0 fd ff ff 	mov    %rax,-0x250(%rbp)
    d76e:	48 8d 05 cd f8 00 00 	lea    0xf8cd(%rip),%rax        # 1d042 <g_113+0x2>
    d775:	48 89 85 b8 fd ff ff 	mov    %rax,-0x248(%rbp)
    d77c:	48 c7 85 c0 fd ff ff 	movq   $0x0,-0x240(%rbp)
    d783:	00 00 00 00 
    d787:	48 c7 85 c8 fd ff ff 	movq   $0x0,-0x238(%rbp)
    d78e:	00 00 00 00 
    d792:	48 8d 85 50 f5 ff ff 	lea    -0xab0(%rbp),%rax
    d799:	48 83 c0 1a          	add    $0x1a,%rax
    d79d:	48 89 85 d0 fd ff ff 	mov    %rax,-0x230(%rbp)
    d7a4:	48 c7 85 d8 fd ff ff 	movq   $0x0,-0x228(%rbp)
    d7ab:	00 00 00 00 
    d7af:	48 8d 05 90 f8 00 00 	lea    0xf890(%rip),%rax        # 1d046 <g_113+0x6>
    d7b6:	48 89 85 e0 fd ff ff 	mov    %rax,-0x220(%rbp)
    d7bd:	48 8d 85 a4 f0 ff ff 	lea    -0xf5c(%rbp),%rax
    d7c4:	48 89 85 e8 fd ff ff 	mov    %rax,-0x218(%rbp)
    d7cb:	48 c7 85 f0 fd ff ff 	movq   $0x0,-0x210(%rbp)
    d7d2:	00 00 00 00 
    d7d6:	48 c7 85 f8 fd ff ff 	movq   $0x0,-0x208(%rbp)
    d7dd:	00 00 00 00 
    d7e1:	48 8d 05 5a f8 00 00 	lea    0xf85a(%rip),%rax        # 1d042 <g_113+0x2>
    d7e8:	48 89 85 00 fe ff ff 	mov    %rax,-0x200(%rbp)
    d7ef:	48 c7 85 08 fe ff ff 	movq   $0x0,-0x1f8(%rbp)
    d7f6:	00 00 00 00 
    d7fa:	48 8d 05 45 f8 00 00 	lea    0xf845(%rip),%rax        # 1d046 <g_113+0x6>
    d801:	48 89 85 10 fe ff ff 	mov    %rax,-0x1f0(%rbp)
    d808:	48 8d 05 37 f8 00 00 	lea    0xf837(%rip),%rax        # 1d046 <g_113+0x6>
    d80f:	48 89 85 18 fe ff ff 	mov    %rax,-0x1e8(%rbp)
    d816:	48 8d 05 29 f8 00 00 	lea    0xf829(%rip),%rax        # 1d046 <g_113+0x6>
    d81d:	48 89 85 20 fe ff ff 	mov    %rax,-0x1e0(%rbp)
    d824:	48 c7 85 28 fe ff ff 	movq   $0x0,-0x1d8(%rbp)
    d82b:	00 00 00 00 
    d82f:	48 8d 05 0c f8 00 00 	lea    0xf80c(%rip),%rax        # 1d042 <g_113+0x2>
    d836:	48 89 85 30 fe ff ff 	mov    %rax,-0x1d0(%rbp)
    d83d:	48 c7 85 38 fe ff ff 	movq   $0x0,-0x1c8(%rbp)
    d844:	00 00 00 00 
    d848:	48 c7 85 40 fe ff ff 	movq   $0x0,-0x1c0(%rbp)
    d84f:	00 00 00 00 
    d853:	48 8d 85 a4 f0 ff ff 	lea    -0xf5c(%rbp),%rax
    d85a:	48 89 85 48 fe ff ff 	mov    %rax,-0x1b8(%rbp)
    d861:	48 8d 05 de f7 00 00 	lea    0xf7de(%rip),%rax        # 1d046 <g_113+0x6>
    d868:	48 89 85 50 fe ff ff 	mov    %rax,-0x1b0(%rbp)
    d86f:	48 c7 85 58 fe ff ff 	movq   $0x0,-0x1a8(%rbp)
    d876:	00 00 00 00 
    d87a:	48 8d 85 50 f5 ff ff 	lea    -0xab0(%rbp),%rax
    d881:	48 83 c0 1a          	add    $0x1a,%rax
    d885:	48 89 85 60 fe ff ff 	mov    %rax,-0x1a0(%rbp)
    d88c:	48 c7 85 68 fe ff ff 	movq   $0x0,-0x198(%rbp)
    d893:	00 00 00 00 
    d897:	48 c7 85 70 fe ff ff 	movq   $0x0,-0x190(%rbp)
    d89e:	00 00 00 00 
    d8a2:	48 8d 05 99 f7 00 00 	lea    0xf799(%rip),%rax        # 1d042 <g_113+0x2>
    d8a9:	48 89 85 78 fe ff ff 	mov    %rax,-0x188(%rbp)
    d8b0:	48 8d 05 8f f7 00 00 	lea    0xf78f(%rip),%rax        # 1d046 <g_113+0x6>
    d8b7:	48 89 85 80 fe ff ff 	mov    %rax,-0x180(%rbp)
    d8be:	48 8d 05 7d f7 00 00 	lea    0xf77d(%rip),%rax        # 1d042 <g_113+0x2>
    d8c5:	48 89 85 88 fe ff ff 	mov    %rax,-0x178(%rbp)
    d8cc:	48 c7 85 90 fe ff ff 	movq   $0x0,-0x170(%rbp)
    d8d3:	00 00 00 00 
    d8d7:	48 c7 85 98 fe ff ff 	movq   $0x0,-0x168(%rbp)
    d8de:	00 00 00 00 
    d8e2:	48 8d 85 50 f5 ff ff 	lea    -0xab0(%rbp),%rax
    d8e9:	48 83 c0 1a          	add    $0x1a,%rax
    d8ed:	48 89 85 a0 fe ff ff 	mov    %rax,-0x160(%rbp)
    d8f4:	48 c7 85 a8 fe ff ff 	movq   $0x0,-0x158(%rbp)
    d8fb:	00 00 00 00 
    d8ff:	c7 85 48 f1 ff ff f0 	movl   $0x13bd44f0,-0xeb8(%rbp)
    d906:	44 bd 13 
    d909:	c7 85 4c f1 ff ff 07 	movl   $0x7,-0xeb4(%rbp)
    d910:	00 00 00 
    d913:	c7 85 50 f1 ff ff 01 	movl   $0x1,-0xeb0(%rbp)
    d91a:	00 00 00 
    d91d:	c7 85 04 f1 ff ff f3 	movl   $0xd94fe5f3,-0xefc(%rbp)
    d924:	e5 4f d9 
    d927:	c7 85 54 f1 ff ff 01 	movl   $0x1,-0xeac(%rbp)
    d92e:	00 00 00 
    d931:	48 c7 85 88 f2 ff ff 	movq   $0x0,-0xd78(%rbp)
    d938:	00 00 00 00 
    d93c:	48 c7 85 90 f2 ff ff 	movq   $0xffffffffffffffff,-0xd70(%rbp)
    d943:	ff ff ff ff 
    d947:	48 8b 85 e8 f1 ff ff 	mov    -0xe18(%rbp),%rax
    d94e:	66 c7 00 fb ff       	movw   $0xfffb,(%rax)
    d953:	48 83 bd 18 f2 ff ff 	cmpq   $0x0,-0xde8(%rbp)
    d95a:	00 
    d95b:	0f 95 c0             	setne  %al
    d95e:	0f b6 c0             	movzbl %al,%eax
    d961:	be 01 00 00 00       	mov    $0x1,%esi
    d966:	89 c7                	mov    %eax,%edi
    d968:	e8 f6 ab ff ff       	callq  8563 <safe_rshift_func_int16_t_s_u>
    d96d:	be 0e 00 00 00       	mov    $0xe,%esi
    d972:	bf 01 00 00 00       	mov    $0x1,%edi
    d977:	e8 ae ab ff ff       	callq  852a <safe_rshift_func_int16_t_s_s>
    d97c:	0f b7 85 a6 f5 ff ff 	movzwl -0xa5a(%rbp),%eax
    d983:	66 85 c0             	test   %ax,%ax
    d986:	0f 95 c0             	setne  %al
    d989:	0f b6 d0             	movzbl %al,%edx
    d98c:	8b 85 d4 f0 ff ff    	mov    -0xf2c(%rbp),%eax
    d992:	66 89 05 b3 f6 00 00 	mov    %ax,0xf6b3(%rip)        # 1d04c <g_113+0xc>
    d999:	0f b7 05 ac f6 00 00 	movzwl 0xf6ac(%rip),%eax        # 1d04c <g_113+0xc>
    d9a0:	0f b7 c0             	movzwl %ax,%eax
    d9a3:	39 c2                	cmp    %eax,%edx
    d9a5:	0f 95 c0             	setne  %al
    d9a8:	0f b6 d0             	movzbl %al,%edx
    d9ab:	0f b7 85 52 f5 ff ff 	movzwl -0xaae(%rbp),%eax
    d9b2:	0f b7 c0             	movzwl %ax,%eax
    d9b5:	89 d1                	mov    %edx,%ecx
    d9b7:	31 c1                	xor    %eax,%ecx
    d9b9:	48 8b 05 08 23 01 00 	mov    0x12308(%rip),%rax        # 1fcc8 <g_180>
    d9c0:	8b 10                	mov    (%rax),%edx
    d9c2:	48 8b 05 ff 22 01 00 	mov    0x122ff(%rip),%rax        # 1fcc8 <g_180>
    d9c9:	09 ca                	or     %ecx,%edx
    d9cb:	89 10                	mov    %edx,(%rax)
    d9cd:	83 ad 54 f1 ff ff 01 	subl   $0x1,-0xeac(%rbp)
    d9d4:	0f b7 85 8c f0 ff ff 	movzwl -0xf74(%rbp),%eax
    d9db:	66 85 c0             	test   %ax,%ax
    d9de:	74 0d                	je     d9ed <func_2+0x29d5>
    d9e0:	83 bd 18 f1 ff ff 00 	cmpl   $0x0,-0xee8(%rbp)
    d9e7:	0f 85 8b 00 00 00    	jne    da78 <func_2+0x2a60>
    d9ed:	48 0f be 9d 98 f0 ff 	movsbq -0xf68(%rbp),%rbx
    d9f4:	ff 
    d9f5:	48 8b 85 20 f2 ff ff 	mov    -0xde0(%rbp),%rax
    d9fc:	44 0f b6 e0          	movzbl %al,%r12d
    da00:	0f b7 05 a1 f9 00 00 	movzwl 0xf9a1(%rip),%eax        # 1d3a8 <g_177>
    da07:	44 0f bf e8          	movswl %ax,%r13d
    da0b:	8b 85 48 f1 ff ff    	mov    -0xeb8(%rbp),%eax
    da11:	0f be c0             	movsbl %al,%eax
    da14:	be 11 00 00 00       	mov    $0x11,%esi
    da19:	89 c7                	mov    %eax,%edi
    da1b:	e8 4a a8 ff ff       	callq  826a <safe_div_func_int8_t_s_s>
    da20:	0f be c0             	movsbl %al,%eax
    da23:	44 89 ee             	mov    %r13d,%esi
    da26:	89 c7                	mov    %eax,%edi
    da28:	e8 8b b4 ff ff       	callq  8eb8 <safe_add_func_uint32_t_u_u>
    da2d:	44 89 e6             	mov    %r12d,%esi
    da30:	bf 37 00 00 00       	mov    $0x37,%edi
    da35:	e8 3e b1 ff ff       	callq  8b78 <safe_sub_func_uint8_t_u_u>
    da3a:	0f b6 c0             	movzbl %al,%eax
    da3d:	48 be 58 c4 58 e4 13 	movabs $0x617a9413e458c458,%rsi
    da44:	94 7a 61 
    da47:	48 89 c7             	mov    %rax,%rdi
    da4a:	e8 31 b6 ff ff       	callq  9080 <safe_mod_func_uint64_t_u_u>
    da4f:	89 c2                	mov    %eax,%edx
    da51:	0f b6 05 58 f9 00 00 	movzbl 0xf958(%rip),%eax        # 1d3b0 <g_184>
    da58:	0f be c0             	movsbl %al,%eax
    da5b:	89 d6                	mov    %edx,%esi
    da5d:	89 c7                	mov    %eax,%edi
    da5f:	e8 6c b4 ff ff       	callq  8ed0 <safe_sub_func_uint32_t_u_u>
    da64:	89 c0                	mov    %eax,%eax
    da66:	48 89 de             	mov    %rbx,%rsi
    da69:	48 89 c7             	mov    %rax,%rdi
    da6c:	e8 da b5 ff ff       	callq  904b <safe_sub_func_uint64_t_u_u>
    da71:	b8 00 00 00 00       	mov    $0x0,%eax
    da76:	eb 05                	jmp    da7d <func_2+0x2a65>
    da78:	b8 01 00 00 00       	mov    $0x1,%eax
    da7d:	0f be d0             	movsbl %al,%edx
    da80:	0f b7 85 8c f0 ff ff 	movzwl -0xf74(%rbp),%eax
    da87:	83 f0 3f             	xor    $0x3f,%eax
    da8a:	0f be c0             	movsbl %al,%eax
    da8d:	89 d6                	mov    %edx,%esi
    da8f:	89 c7                	mov    %eax,%edi
    da91:	e8 5c a7 ff ff       	callq  81f2 <safe_sub_func_int8_t_s_s>
    da96:	0f be c0             	movsbl %al,%eax
    da99:	f7 d0                	not    %eax
    da9b:	89 c1                	mov    %eax,%ecx
    da9d:	48 8b 05 24 22 01 00 	mov    0x12224(%rip),%rax        # 1fcc8 <g_180>
    daa4:	8b 10                	mov    (%rax),%edx
    daa6:	48 8b 05 1b 22 01 00 	mov    0x1221b(%rip),%rax        # 1fcc8 <g_180>
    daad:	21 ca                	and    %ecx,%edx
    daaf:	89 10                	mov    %edx,(%rax)
    dab1:	be 0a 00 00 00       	mov    $0xa,%esi
    dab6:	bf 01 00 00 00       	mov    $0x1,%edi
    dabb:	e8 d2 a9 ff ff       	callq  8492 <safe_lshift_func_int16_t_s_s>
    dac0:	66 85 c0             	test   %ax,%ax
    dac3:	74 0b                	je     dad0 <func_2+0x2ab8>
    dac5:	8b 85 e0 f0 ff ff    	mov    -0xf20(%rbp),%eax
    dacb:	e9 39 08 00 00       	jmpq   e309 <func_2+0x32f1>
    dad0:	c7 45 d1 fc f9 f9 fc 	movl   $0xfcf9f9fc,-0x2f(%rbp)
    dad7:	66 c7 45 d5 f9 f9    	movw   $0xf9f9,-0x2b(%rbp)
    dadd:	48 c7 85 e0 f1 ff ff 	movq   $0x0,-0xe20(%rbp)
    dae4:	00 00 00 00 
    dae8:	c7 85 e0 f1 ff ff 69 	movl   $0x2d1ec869,-0xe20(%rbp)
    daef:	c8 1e 2d 
    daf2:	c7 05 64 fa 00 00 00 	movl   $0x0,0xfa64(%rip)        # 1d560 <g_1976>
    daf9:	00 00 00 
    dafc:	e9 93 07 00 00       	jmpq   e294 <func_2+0x327c>
    db01:	48 8d 05 a0 30 01 00 	lea    0x130a0(%rip),%rax        # 20ba8 <g_796>
    db08:	48 89 85 98 f2 ff ff 	mov    %rax,-0xd68(%rbp)
    db0f:	48 8d 85 c0 f1 ff ff 	lea    -0xe40(%rbp),%rax
    db16:	48 89 85 a0 f2 ff ff 	mov    %rax,-0xd60(%rbp)
    db1d:	c7 85 58 f1 ff ff fc 	movl   $0xfffffffc,-0xea8(%rbp)
    db24:	ff ff ff 
    db27:	c6 85 a3 f0 ff ff d5 	movb   $0xd5,-0xf5d(%rbp)
    db2e:	66 c7 05 79 f8 00 00 	movw   $0x2,0xf879(%rip)        # 1d3b0 <g_184>
    db35:	02 00 
    db37:	e9 92 03 00 00       	jmpq   dece <func_2+0x2eb6>
    db3c:	48 c7 85 d0 f5 ff ff 	movq   $0x0,-0xa30(%rbp)
    db43:	00 00 00 00 
    db47:	48 c7 85 d8 f5 ff ff 	movq   $0x0,-0xa28(%rbp)
    db4e:	00 00 00 00 
    db52:	48 8d 05 07 fa 00 00 	lea    0xfa07(%rip),%rax        # 1d560 <g_1976>
    db59:	48 89 85 e0 f5 ff ff 	mov    %rax,-0xa20(%rbp)
    db60:	48 8d 05 49 f8 00 00 	lea    0xf849(%rip),%rax        # 1d3b0 <g_184>
    db67:	48 89 85 e8 f5 ff ff 	mov    %rax,-0xa18(%rbp)
    db6e:	48 c7 85 f0 f5 ff ff 	movq   $0x0,-0xa10(%rbp)
    db75:	00 00 00 00 
    db79:	48 c7 85 f8 f5 ff ff 	movq   $0x0,-0xa08(%rbp)
    db80:	00 00 00 00 
    db84:	48 8d 05 d5 f9 00 00 	lea    0xf9d5(%rip),%rax        # 1d560 <g_1976>
    db8b:	48 89 85 00 f6 ff ff 	mov    %rax,-0xa00(%rbp)
    db92:	48 8d 05 0f f8 00 00 	lea    0xf80f(%rip),%rax        # 1d3a8 <g_177>
    db99:	48 89 85 08 f6 ff ff 	mov    %rax,-0x9f8(%rbp)
    dba0:	48 8d 05 57 f9 00 00 	lea    0xf957(%rip),%rax        # 1d4fe <g_502>
    dba7:	48 89 85 10 f6 ff ff 	mov    %rax,-0x9f0(%rbp)
    dbae:	48 8d 05 fb f7 00 00 	lea    0xf7fb(%rip),%rax        # 1d3b0 <g_184>
    dbb5:	48 89 85 18 f6 ff ff 	mov    %rax,-0x9e8(%rbp)
    dbbc:	48 8d 05 95 f9 00 00 	lea    0xf995(%rip),%rax        # 1d558 <g_1820>
    dbc3:	48 89 85 20 f6 ff ff 	mov    %rax,-0x9e0(%rbp)
    dbca:	48 8d 05 df f7 00 00 	lea    0xf7df(%rip),%rax        # 1d3b0 <g_184>
    dbd1:	48 89 85 28 f6 ff ff 	mov    %rax,-0x9d8(%rbp)
    dbd8:	48 c7 85 30 f6 ff ff 	movq   $0x0,-0x9d0(%rbp)
    dbdf:	00 00 00 00 
    dbe3:	48 8d 05 76 f9 00 00 	lea    0xf976(%rip),%rax        # 1d560 <g_1976>
    dbea:	48 89 85 38 f6 ff ff 	mov    %rax,-0x9c8(%rbp)
    dbf1:	48 8d 05 06 f9 00 00 	lea    0xf906(%rip),%rax        # 1d4fe <g_502>
    dbf8:	48 89 85 40 f6 ff ff 	mov    %rax,-0x9c0(%rbp)
    dbff:	48 8d 05 da f8 00 00 	lea    0xf8da(%rip),%rax        # 1d4e0 <g_255>
    dc06:	48 89 85 48 f6 ff ff 	mov    %rax,-0x9b8(%rbp)
    dc0d:	48 8d 05 cc f8 00 00 	lea    0xf8cc(%rip),%rax        # 1d4e0 <g_255>
    dc14:	48 89 85 50 f6 ff ff 	mov    %rax,-0x9b0(%rbp)
    dc1b:	48 c7 85 58 f6 ff ff 	movq   $0x0,-0x9a8(%rbp)
    dc22:	00 00 00 00 
    dc26:	48 8d 05 63 2f 01 00 	lea    0x12f63(%rip),%rax        # 20b90 <g_736>
    dc2d:	48 89 85 60 f6 ff ff 	mov    %rax,-0x9a0(%rbp)
    dc34:	48 8d 05 25 f9 00 00 	lea    0xf925(%rip),%rax        # 1d560 <g_1976>
    dc3b:	48 89 85 68 f6 ff ff 	mov    %rax,-0x998(%rbp)
    dc42:	48 8d 05 17 f9 00 00 	lea    0xf917(%rip),%rax        # 1d560 <g_1976>
    dc49:	48 89 85 70 f6 ff ff 	mov    %rax,-0x990(%rbp)
    dc50:	48 c7 85 78 f6 ff ff 	movq   $0x0,-0x988(%rbp)
    dc57:	00 00 00 00 
    dc5b:	48 8d 05 f6 f8 00 00 	lea    0xf8f6(%rip),%rax        # 1d558 <g_1820>
    dc62:	48 89 85 80 f6 ff ff 	mov    %rax,-0x980(%rbp)
    dc69:	48 c7 85 88 f6 ff ff 	movq   $0x0,-0x978(%rbp)
    dc70:	00 00 00 00 
    dc74:	48 8d 05 15 2f 01 00 	lea    0x12f15(%rip),%rax        # 20b90 <g_736>
    dc7b:	48 89 85 90 f6 ff ff 	mov    %rax,-0x970(%rbp)
    dc82:	48 8d 05 1f f7 00 00 	lea    0xf71f(%rip),%rax        # 1d3a8 <g_177>
    dc89:	48 89 85 98 f6 ff ff 	mov    %rax,-0x968(%rbp)
    dc90:	48 8d 05 f9 2e 01 00 	lea    0x12ef9(%rip),%rax        # 20b90 <g_736>
    dc97:	48 89 85 a0 f6 ff ff 	mov    %rax,-0x960(%rbp)
    dc9e:	48 8d 05 3b f8 00 00 	lea    0xf83b(%rip),%rax        # 1d4e0 <g_255>
    dca5:	48 89 85 a8 f6 ff ff 	mov    %rax,-0x958(%rbp)
    dcac:	48 c7 85 b0 f6 ff ff 	movq   $0x0,-0x950(%rbp)
    dcb3:	00 00 00 00 
    dcb7:	48 c7 85 b8 f6 ff ff 	movq   $0x0,-0x948(%rbp)
    dcbe:	00 00 00 00 
    dcc2:	8b 15 98 f8 00 00    	mov    0xf898(%rip),%edx        # 1d560 <g_1976>
    dcc8:	8b 0d 92 f8 00 00    	mov    0xf892(%rip),%ecx        # 1d560 <g_1976>
    dcce:	8b 05 8c f8 00 00    	mov    0xf88c(%rip),%eax        # 1d560 <g_1976>
    dcd4:	83 c0 02             	add    $0x2,%eax
    dcd7:	89 c6                	mov    %eax,%esi
    dcd9:	89 d2                	mov    %edx,%edx
    dcdb:	89 c9                	mov    %ecx,%ecx
    dcdd:	48 89 d0             	mov    %rdx,%rax
    dce0:	48 c1 e0 03          	shl    $0x3,%rax
    dce4:	48 01 d0             	add    %rdx,%rax
    dce7:	48 c1 e0 02          	shl    $0x2,%rax
    dceb:	48 29 d0             	sub    %rdx,%rax
    dcee:	48 89 ca             	mov    %rcx,%rdx
    dcf1:	48 c1 e2 03          	shl    $0x3,%rdx
    dcf5:	48 29 ca             	sub    %rcx,%rdx
    dcf8:	48 01 d0             	add    %rdx,%rax
    dcfb:	48 01 f0             	add    %rsi,%rax
    dcfe:	48 8d 14 85 00 00 00 	lea    0x0(,%rax,4),%rdx
    dd05:	00 
    dd06:	48 8d 05 53 f3 00 00 	lea    0xf353(%rip),%rax        # 1d060 <g_176>
    dd0d:	8b 1c 02             	mov    (%rdx,%rax,1),%ebx
    dd10:	8b 15 4a f8 00 00    	mov    0xf84a(%rip),%edx        # 1d560 <g_1976>
    dd16:	8b 0d 44 f8 00 00    	mov    0xf844(%rip),%ecx        # 1d560 <g_1976>
    dd1c:	8b 05 3e f8 00 00    	mov    0xf83e(%rip),%eax        # 1d560 <g_1976>
    dd22:	83 c0 02             	add    $0x2,%eax
    dd25:	89 c6                	mov    %eax,%esi
    dd27:	89 d2                	mov    %edx,%edx
    dd29:	89 c9                	mov    %ecx,%ecx
    dd2b:	48 89 d0             	mov    %rdx,%rax
    dd2e:	48 c1 e0 03          	shl    $0x3,%rax
    dd32:	48 01 d0             	add    %rdx,%rax
    dd35:	48 c1 e0 02          	shl    $0x2,%rax
    dd39:	48 29 d0             	sub    %rdx,%rax
    dd3c:	48 89 ca             	mov    %rcx,%rdx
    dd3f:	48 c1 e2 03          	shl    $0x3,%rdx
    dd43:	48 29 ca             	sub    %rcx,%rdx
    dd46:	48 01 d0             	add    %rdx,%rax
    dd49:	48 01 f0             	add    %rsi,%rax
    dd4c:	48 8d 14 85 00 00 00 	lea    0x0(,%rax,4),%rdx
    dd53:	00 
    dd54:	48 8d 05 05 f3 00 00 	lea    0xf305(%rip),%rax        # 1d060 <g_176>
    dd5b:	8b 04 02             	mov    (%rdx,%rax,1),%eax
    dd5e:	0f b7 c0             	movzwl %ax,%eax
    dd61:	89 c6                	mov    %eax,%esi
    dd63:	bf fc ff 00 00       	mov    $0xfffc,%edi
    dd68:	e8 21 b0 ff ff       	callq  8d8e <safe_div_func_uint16_t_u_u>
    dd6d:	66 85 c0             	test   %ax,%ax
    dd70:	75 40                	jne    ddb2 <func_2+0x2d9a>
    dd72:	8b 05 e8 f7 00 00    	mov    0xf7e8(%rip),%eax        # 1d560 <g_1976>
    dd78:	83 c0 02             	add    $0x2,%eax
    dd7b:	89 c0                	mov    %eax,%eax
    dd7d:	48 8d 14 00          	lea    (%rax,%rax,1),%rdx
    dd81:	48 8d 05 b8 f2 00 00 	lea    0xf2b8(%rip),%rax        # 1d040 <g_113>
    dd88:	0f b7 04 02          	movzwl (%rdx,%rax,1),%eax
    dd8c:	66 85 c0             	test   %ax,%ax
    dd8f:	74 11                	je     dda2 <func_2+0x2d8a>
    dd91:	be 06 00 00 00       	mov    $0x6,%esi
    dd96:	bf 01 00 00 00       	mov    $0x1,%edi
    dd9b:	e8 65 ae ff ff       	callq  8c05 <safe_lshift_func_uint8_t_u_s>
    dda0:	84 c0                	test   %al,%al
    dda2:	48 8b 85 88 f2 ff ff 	mov    -0xd78(%rbp),%rax
    dda9:	48 3b 85 98 f2 ff ff 	cmp    -0xd68(%rbp),%rax
    ddb0:	75 07                	jne    ddb9 <func_2+0x2da1>
    ddb2:	b8 01 00 00 00       	mov    $0x1,%eax
    ddb7:	eb 05                	jmp    ddbe <func_2+0x2da6>
    ddb9:	b8 00 00 00 00       	mov    $0x0,%eax
    ddbe:	0f b7 c0             	movzwl %ax,%eax
    ddc1:	be 74 cf 00 00       	mov    $0xcf74,%esi
    ddc6:	89 c7                	mov    %eax,%edi
    ddc8:	e8 c1 af ff ff       	callq  8d8e <safe_div_func_uint16_t_u_u>
    ddcd:	8b 15 8d f7 00 00    	mov    0xf78d(%rip),%edx        # 1d560 <g_1976>
    ddd3:	8b 05 87 f7 00 00    	mov    0xf787(%rip),%eax        # 1d560 <g_1976>
    ddd9:	8d 48 02             	lea    0x2(%rax),%ecx
    dddc:	8b 05 7e f7 00 00    	mov    0xf77e(%rip),%eax        # 1d560 <g_1976>
    dde2:	83 c0 05             	add    $0x5,%eax
    dde5:	89 c6                	mov    %eax,%esi
    dde7:	89 d2                	mov    %edx,%edx
    dde9:	89 c9                	mov    %ecx,%ecx
    ddeb:	48 89 d0             	mov    %rdx,%rax
    ddee:	48 c1 e0 03          	shl    $0x3,%rax
    ddf2:	48 01 d0             	add    %rdx,%rax
    ddf5:	48 c1 e0 02          	shl    $0x2,%rax
    ddf9:	48 29 d0             	sub    %rdx,%rax
    ddfc:	48 89 ca             	mov    %rcx,%rdx
    ddff:	48 c1 e2 03          	shl    $0x3,%rdx
    de03:	48 29 ca             	sub    %rcx,%rdx
    de06:	48 01 d0             	add    %rdx,%rax
    de09:	48 01 f0             	add    %rsi,%rax
    de0c:	48 8d 14 85 00 00 00 	lea    0x0(,%rax,4),%rdx
    de13:	00 
    de14:	48 8d 05 45 f2 00 00 	lea    0xf245(%rip),%rax        # 1d060 <g_176>
    de1b:	8b 14 02             	mov    (%rdx,%rax,1),%edx
    de1e:	8b 85 58 f1 ff ff    	mov    -0xea8(%rbp),%eax
    de24:	09 d0                	or     %edx,%eax
    de26:	89 85 70 f3 ff ff    	mov    %eax,-0xc90(%rbp)
    de2c:	8b 85 70 f3 ff ff    	mov    -0xc90(%rbp),%eax
    de32:	98                   	cwtl   
    de33:	be d2 23 00 00       	mov    $0x23d2,%esi
    de38:	89 c7                	mov    %eax,%edi
    de3a:	e8 b6 a5 ff ff       	callq  83f5 <safe_mul_func_int16_t_s_s>
    de3f:	8b 85 54 f1 ff ff    	mov    -0xeac(%rbp),%eax
    de45:	0f b7 c0             	movzwl %ax,%eax
    de48:	be 06 00 00 00       	mov    $0x6,%esi
    de4d:	89 c7                	mov    %eax,%edi
    de4f:	e8 f4 af ff ff       	callq  8e48 <safe_rshift_func_uint16_t_u_s>
    de54:	83 f0 04             	xor    $0x4,%eax
    de57:	0f be c0             	movsbl %al,%eax
    de5a:	89 de                	mov    %ebx,%esi
    de5c:	89 c7                	mov    %eax,%edi
    de5e:	e8 09 a5 ff ff       	callq  836c <safe_rshift_func_int8_t_s_u>
    de63:	66 98                	cbtw   
    de65:	0f b7 c0             	movzwl %ax,%eax
    de68:	be 01 00 00 00       	mov    $0x1,%esi
    de6d:	89 c7                	mov    %eax,%edi
    de6f:	e8 e8 ae ff ff       	callq  8d5c <safe_mod_func_uint16_t_u_u>
    de74:	89 c2                	mov    %eax,%edx
    de76:	48 8b 05 4b 1e 01 00 	mov    0x11e4b(%rip),%rax        # 1fcc8 <g_180>
    de7d:	0f b7 d2             	movzwl %dx,%edx
    de80:	89 10                	mov    %edx,(%rax)
    de82:	48 8b 05 b7 1f 01 00 	mov    0x11fb7(%rip),%rax        # 1fe40 <g_779>
    de89:	48 8b 00             	mov    (%rax),%rax
    de8c:	8b 10                	mov    (%rax),%edx
    de8e:	0b 95 9c f0 ff ff    	or     -0xf64(%rbp),%edx
    de94:	89 10                	mov    %edx,(%rax)
    de96:	48 c7 c7 1f ff ff ff 	mov    $0xffffffffffffff1f,%rdi
    de9d:	e8 74 a9 ff ff       	callq  8816 <safe_unary_minus_func_int64_t_s>
    dea2:	48 83 bd 48 f2 ff ff 	cmpq   $0x0,-0xdb8(%rbp)
    dea9:	00 
    deaa:	0f 95 c0             	setne  %al
    dead:	0f b6 c8             	movzbl %al,%ecx
    deb0:	48 8b 05 31 28 01 00 	mov    0x12831(%rip),%rax        # 206e8 <g_2223>
    deb7:	8b 10                	mov    (%rax),%edx
    deb9:	09 ca                	or     %ecx,%edx
    debb:	89 10                	mov    %edx,(%rax)
    debd:	0f b7 05 ec f4 00 00 	movzwl 0xf4ec(%rip),%eax        # 1d3b0 <g_184>
    dec4:	83 c0 01             	add    $0x1,%eax
    dec7:	66 89 05 e2 f4 00 00 	mov    %ax,0xf4e2(%rip)        # 1d3b0 <g_184>
    dece:	0f b7 05 db f4 00 00 	movzwl 0xf4db(%rip),%eax        # 1d3b0 <g_184>
    ded5:	66 83 f8 08          	cmp    $0x8,%ax
    ded9:	0f 8e 5d fc ff ff    	jle    db3c <func_2+0x2b24>
    dedf:	c7 05 03 f6 00 00 00 	movl   $0x0,0xf603(%rip)        # 1d4ec <g_388>
    dee6:	00 00 00 
    dee9:	e9 88 03 00 00       	jmpq   e276 <func_2+0x325e>
    deee:	c7 85 5c f1 ff ff f8 	movl   $0xfffffff8,-0xea4(%rbp)
    def5:	ff ff ff 
    def8:	c7 85 60 f1 ff ff f9 	movl   $0xfffffff9,-0xea0(%rbp)
    deff:	ff ff ff 
    df02:	c7 85 64 f1 ff ff 40 	movl   $0x5dcb7840,-0xe9c(%rbp)
    df09:	78 cb 5d 
    df0c:	48 c7 85 a8 f2 ff ff 	movq   $0x0,-0xd58(%rbp)
    df13:	00 00 00 00 
    df17:	48 c7 85 b0 f2 ff ff 	movq   $0x0,-0xd50(%rbp)
    df1e:	00 00 00 00 
    df22:	48 8d 05 7f f4 00 00 	lea    0xf47f(%rip),%rax        # 1d3a8 <g_177>
    df29:	48 89 85 b8 f2 ff ff 	mov    %rax,-0xd48(%rbp)
    df30:	48 c7 85 c0 f2 ff ff 	movq   $0x0,-0xd40(%rbp)
    df37:	00 00 00 00 
    df3b:	48 8d 85 90 f3 ff ff 	lea    -0xc70(%rbp),%rax
    df42:	48 89 85 c8 f2 ff ff 	mov    %rax,-0xd38(%rbp)
    df49:	c7 85 08 f1 ff ff 00 	movl   $0x0,-0xef8(%rbp)
    df50:	00 00 00 
    df53:	eb 1a                	jmp    df6f <func_2+0x2f57>
    df55:	8b 85 08 f1 ff ff    	mov    -0xef8(%rbp),%eax
    df5b:	48 98                	cltq   
    df5d:	c7 84 85 d0 f5 ff ff 	movl   $0xffffffff,-0xa30(%rbp,%rax,4)
    df64:	ff ff ff ff 
    df68:	83 85 08 f1 ff ff 01 	addl   $0x1,-0xef8(%rbp)
    df6f:	83 bd 08 f1 ff ff 00 	cmpl   $0x0,-0xef8(%rbp)
    df76:	7e dd                	jle    df55 <func_2+0x2f3d>
    df78:	0f b7 85 8c f0 ff ff 	movzwl -0xf74(%rbp),%eax
    df7f:	0f b7 d8             	movzwl %ax,%ebx
    df82:	8b 85 e4 f0 ff ff    	mov    -0xf1c(%rbp),%eax
    df88:	44 0f b6 e0          	movzbl %al,%r12d
    df8c:	0f b7 85 8c f0 ff ff 	movzwl -0xf74(%rbp),%eax
    df93:	66 85 c0             	test   %ax,%ax
    df96:	75 62                	jne    dffa <func_2+0x2fe2>
    df98:	8b 05 b2 2c 01 00    	mov    0x12cb2(%rip),%eax        # 20c50 <g_2560>
    df9e:	0f b6 45 d5          	movzbl -0x2b(%rbp),%eax
    dfa2:	0f be c0             	movsbl %al,%eax
    dfa5:	f7 d0                	not    %eax
    dfa7:	41 89 c5             	mov    %eax,%r13d
    dfaa:	8b 95 9c f0 ff ff    	mov    -0xf64(%rbp),%edx
    dfb0:	0f be 85 98 f0 ff ff 	movsbl -0xf68(%rbp),%eax
    dfb7:	39 85 5c f1 ff ff    	cmp    %eax,-0xea4(%rbp)
    dfbd:	0f 96 c0             	setbe  %al
    dfc0:	0f b6 c8             	movzbl %al,%ecx
    dfc3:	0f be 85 98 f0 ff ff 	movsbl -0xf68(%rbp),%eax
    dfca:	21 c8                	and    %ecx,%eax
    dfcc:	48 98                	cltq   
    dfce:	48 89 d6             	mov    %rdx,%rsi
    dfd1:	48 89 c7             	mov    %rax,%rdi
    dfd4:	e8 72 b0 ff ff       	callq  904b <safe_sub_func_uint64_t_u_u>
    dfd9:	8b 15 49 f0 00 00    	mov    0xf049(%rip),%edx        # 1d028 <g_41>
    dfdf:	48 63 d2             	movslq %edx,%rdx
    dfe2:	48 39 d0             	cmp    %rdx,%rax
    dfe5:	0f 94 c0             	sete   %al
    dfe8:	0f b6 c0             	movzbl %al,%eax
    dfeb:	44 09 e8             	or     %r13d,%eax
    dfee:	48 98                	cltq   
    dff0:	48 0b 85 90 f2 ff ff 	or     -0xd70(%rbp),%rax
    dff7:	48 85 c0             	test   %rax,%rax
    dffa:	48 8b 05 6f 1d 01 00 	mov    0x11d6f(%rip),%rax        # 1fd70 <g_705>
    e001:	48 8b 00             	mov    (%rax),%rax
    e004:	0f b6 00             	movzbl (%rax),%eax
    e007:	0f b6 c0             	movzbl %al,%eax
    e00a:	44 89 e6             	mov    %r12d,%esi
    e00d:	89 c7                	mov    %eax,%edi
    e00f:	e8 7f ab ff ff       	callq  8b93 <safe_mul_func_uint8_t_u_u>
    e014:	0f b6 c0             	movzbl %al,%eax
    e017:	89 c6                	mov    %eax,%esi
    e019:	bf 00 00 00 00       	mov    $0x0,%edi
    e01e:	e8 6f a4 ff ff       	callq  8492 <safe_lshift_func_int16_t_s_s>
    e023:	be 01 00 00 00       	mov    $0x1,%esi
    e028:	bf 06 00 00 00       	mov    $0x6,%edi
    e02d:	e8 61 ab ff ff       	callq  8b93 <safe_mul_func_uint8_t_u_u>
    e032:	89 de                	mov    %ebx,%esi
    e034:	bf 08 00 00 00       	mov    $0x8,%edi
    e039:	e8 0e ac ff ff       	callq  8c4c <safe_lshift_func_uint8_t_u_u>
    e03e:	0f b6 c0             	movzbl %al,%eax
    e041:	be 01 00 00 00       	mov    $0x1,%esi
    e046:	89 c7                	mov    %eax,%edi
    e048:	e8 45 a4 ff ff       	callq  8492 <safe_lshift_func_int16_t_s_s>
    e04d:	48 c7 c6 f8 ff ff ff 	mov    $0xfffffffffffffff8,%rsi
    e054:	bf 00 00 00 00       	mov    $0x0,%edi
    e059:	e8 e3 a7 ff ff       	callq  8841 <safe_add_func_int64_t_s_s>
    e05e:	48 8b 05 c3 23 01 00 	mov    0x123c3(%rip),%rax        # 20428 <g_1223>
    e065:	48 c7 85 90 f3 ff ff 	movq   $0x0,-0xc70(%rbp)
    e06c:	00 00 00 00 
    e070:	8b 05 7a f5 00 00    	mov    0xf57a(%rip),%eax        # 1d5f0 <g_2580+0x10>
    e076:	0f be d8             	movsbl %al,%ebx
    e079:	0f be 85 98 f0 ff ff 	movsbl -0xf68(%rbp),%eax
    e080:	c7 85 60 f1 ff ff 00 	movl   $0x0,-0xea0(%rbp)
    e087:	00 00 00 
    e08a:	89 c6                	mov    %eax,%esi
    e08c:	bf 00 00 00 00       	mov    $0x0,%edi
    e091:	e8 3a ae ff ff       	callq  8ed0 <safe_sub_func_uint32_t_u_u>
    e096:	c7 85 48 f1 ff ff 1c 	movl   $0x1c,-0xeb8(%rbp)
    e09d:	00 00 00 
    e0a0:	8b 85 48 f1 ff ff    	mov    -0xeb8(%rbp),%eax
    e0a6:	21 85 04 f1 ff ff    	and    %eax,-0xefc(%rbp)
    e0ac:	48 8b 05 b5 1c 01 00 	mov    0x11cb5(%rip),%rax        # 1fd68 <g_706>
    e0b3:	0f b6 00             	movzbl (%rax),%eax
    e0b6:	0f be c8             	movsbl %al,%ecx
    e0b9:	48 83 bd 50 f2 ff ff 	cmpq   $0x0,-0xdb0(%rbp)
    e0c0:	00 
    e0c1:	0f 95 c2             	setne  %dl
    e0c4:	8b 3d 96 f4 00 00    	mov    0xf496(%rip),%edi        # 1d560 <g_1976>
    e0ca:	8b 05 1c f4 00 00    	mov    0xf41c(%rip),%eax        # 1d4ec <g_388>
    e0d0:	44 8d 48 01          	lea    0x1(%rax),%r9d
    e0d4:	8b 05 86 f4 00 00    	mov    0xf486(%rip),%eax        # 1d560 <g_1976>
    e0da:	83 c0 04             	add    $0x4,%eax
    e0dd:	0f b6 f2             	movzbl %dl,%esi
    e0e0:	41 89 c0             	mov    %eax,%r8d
    e0e3:	89 fa                	mov    %edi,%edx
    e0e5:	44 89 cf             	mov    %r9d,%edi
    e0e8:	48 89 d0             	mov    %rdx,%rax
    e0eb:	48 c1 e0 03          	shl    $0x3,%rax
    e0ef:	48 01 d0             	add    %rdx,%rax
    e0f2:	48 c1 e0 02          	shl    $0x2,%rax
    e0f6:	48 29 d0             	sub    %rdx,%rax
    e0f9:	48 89 fa             	mov    %rdi,%rdx
    e0fc:	48 c1 e2 03          	shl    $0x3,%rdx
    e100:	48 29 fa             	sub    %rdi,%rdx
    e103:	48 01 d0             	add    %rdx,%rax
    e106:	4c 01 c0             	add    %r8,%rax
    e109:	48 8d 14 85 00 00 00 	lea    0x0(,%rax,4),%rdx
    e110:	00 
    e111:	48 8d 05 48 ef 00 00 	lea    0xef48(%rip),%rax        # 1d060 <g_176>
    e118:	89 34 02             	mov    %esi,(%rdx,%rax,1)
    e11b:	89 ce                	mov    %ecx,%esi
    e11d:	bf 01 00 00 00       	mov    $0x1,%edi
    e122:	e8 43 a1 ff ff       	callq  826a <safe_div_func_int8_t_s_s>
    e127:	38 85 a3 f0 ff ff    	cmp    %al,-0xf5d(%rbp)
    e12d:	c6 85 98 f0 ff ff 01 	movb   $0x1,-0xf68(%rbp)
    e134:	0f be 85 98 f0 ff ff 	movsbl -0xf68(%rbp),%eax
    e13b:	39 85 54 f1 ff ff    	cmp    %eax,-0xeac(%rbp)
    e141:	0f 96 c0             	setbe  %al
    e144:	0f b6 d0             	movzbl %al,%edx
    e147:	0f b7 85 8c f0 ff ff 	movzwl -0xf74(%rbp),%eax
    e14e:	98                   	cwtl   
    e14f:	89 d6                	mov    %edx,%esi
    e151:	89 c7                	mov    %eax,%edi
    e153:	e8 9d a2 ff ff       	callq  83f5 <safe_mul_func_int16_t_s_s>
    e158:	f7 d0                	not    %eax
    e15a:	83 e0 fe             	and    $0xfffffffe,%eax
    e15d:	0f be c0             	movsbl %al,%eax
    e160:	89 de                	mov    %ebx,%esi
    e162:	89 c7                	mov    %eax,%edi
    e164:	e8 89 a0 ff ff       	callq  81f2 <safe_sub_func_int8_t_s_s>
    e169:	84 c0                	test   %al,%al
    e16b:	75 09                	jne    e176 <func_2+0x315e>
    e16d:	83 bd 9c f0 ff ff 00 	cmpl   $0x0,-0xf64(%rbp)
    e174:	74 07                	je     e17d <func_2+0x3165>
    e176:	b8 01 00 00 00       	mov    $0x1,%eax
    e17b:	eb 05                	jmp    e182 <func_2+0x316a>
    e17d:	b8 00 00 00 00       	mov    $0x0,%eax
    e182:	89 85 d0 f5 ff ff    	mov    %eax,-0xa30(%rbp)
    e188:	0f be 85 98 f0 ff ff 	movsbl -0xf68(%rbp),%eax
    e18f:	f7 d0                	not    %eax
    e191:	89 c3                	mov    %eax,%ebx
    e193:	8b 85 9c f0 ff ff    	mov    -0xf64(%rbp),%eax
    e199:	0f be c0             	movsbl %al,%eax
    e19c:	be 00 00 00 00       	mov    $0x0,%esi
    e1a1:	89 c7                	mov    %eax,%edi
    e1a3:	e8 8d a1 ff ff       	callq  8335 <safe_rshift_func_int8_t_s_s>
    e1a8:	8b 85 58 f1 ff ff    	mov    -0xea8(%rbp),%eax
    e1ae:	0f bf d0             	movswl %ax,%edx
    e1b1:	48 8b 85 b8 f2 ff ff 	mov    -0xd48(%rbp),%rax
    e1b8:	0f b7 08             	movzwl (%rax),%ecx
    e1bb:	66 0f be 85 98 f0 ff 	movsbw -0xf68(%rbp),%ax
    e1c2:	ff 
    e1c3:	31 c1                	xor    %eax,%ecx
    e1c5:	48 8b 85 b8 f2 ff ff 	mov    -0xd48(%rbp),%rax
    e1cc:	66 89 08             	mov    %cx,(%rax)
    e1cf:	48 8b 85 b8 f2 ff ff 	mov    -0xd48(%rbp),%rax
    e1d6:	0f b7 00             	movzwl (%rax),%eax
    e1d9:	98                   	cwtl   
    e1da:	89 d6                	mov    %edx,%esi
    e1dc:	89 c7                	mov    %eax,%edi
    e1de:	e8 12 a2 ff ff       	callq  83f5 <safe_mul_func_int16_t_s_s>
    e1e3:	48 0f bf d0          	movswq %ax,%rdx
    e1e7:	48 8b 85 50 f2 ff ff 	mov    -0xdb0(%rbp),%rax
    e1ee:	48 89 10             	mov    %rdx,(%rax)
    e1f1:	b8 01 00 00 00       	mov    $0x1,%eax
    e1f6:	0b 85 9c f0 ff ff    	or     -0xf64(%rbp),%eax
    e1fc:	8b 95 70 f3 ff ff    	mov    -0xc90(%rbp),%edx
    e202:	39 d0                	cmp    %edx,%eax
    e204:	0f 93 c0             	setae  %al
    e207:	0f b6 c0             	movzbl %al,%eax
    e20a:	be 0d 00 00 00       	mov    $0xd,%esi
    e20f:	89 c7                	mov    %eax,%edi
    e211:	e8 32 ac ff ff       	callq  8e48 <safe_rshift_func_uint16_t_u_s>
    e216:	0f b7 c0             	movzwl %ax,%eax
    e219:	39 c3                	cmp    %eax,%ebx
    e21b:	0f 9c c0             	setl   %al
    e21e:	0f b6 c0             	movzbl %al,%eax
    e221:	48 be ba 83 36 2d cc 	movabs $0xece1f0cc2d3683ba,%rsi
    e228:	f0 e1 ec 
    e22b:	48 89 c7             	mov    %rax,%rdi
    e22e:	e8 7c ae ff ff       	callq  90af <safe_div_func_uint64_t_u_u>
    e233:	83 e0 01             	and    $0x1,%eax
    e236:	48 89 c2             	mov    %rax,%rdx
    e239:	48 0f be 85 98 f0 ff 	movsbq -0xf68(%rbp),%rax
    e240:	ff 
    e241:	48 39 c2             	cmp    %rax,%rdx
    e244:	0f 97 c2             	seta   %dl
    e247:	48 8b 05 9a 24 01 00 	mov    0x1249a(%rip),%rax        # 206e8 <g_2223>
    e24e:	0f b6 d2             	movzbl %dl,%edx
    e251:	89 10                	mov    %edx,(%rax)
    e253:	48 8b 05 56 21 01 00 	mov    0x12156(%rip),%rax        # 203b0 <g_1134>
    e25a:	48 8b 10             	mov    (%rax),%rdx
    e25d:	48 8b 85 c8 f2 ff ff 	mov    -0xd38(%rbp),%rax
    e264:	48 89 10             	mov    %rdx,(%rax)
    e267:	8b 05 7f f2 00 00    	mov    0xf27f(%rip),%eax        # 1d4ec <g_388>
    e26d:	83 c0 01             	add    $0x1,%eax
    e270:	89 05 76 f2 00 00    	mov    %eax,0xf276(%rip)        # 1d4ec <g_388>
    e276:	8b 05 70 f2 00 00    	mov    0xf270(%rip),%eax        # 1d4ec <g_388>
    e27c:	83 f8 01             	cmp    $0x1,%eax
    e27f:	0f 86 69 fc ff ff    	jbe    deee <func_2+0x2ed6>
    e285:	8b 05 d5 f2 00 00    	mov    0xf2d5(%rip),%eax        # 1d560 <g_1976>
    e28b:	83 c0 01             	add    $0x1,%eax
    e28e:	89 05 cc f2 00 00    	mov    %eax,0xf2cc(%rip)        # 1d560 <g_1976>
    e294:	8b 05 c6 f2 00 00    	mov    0xf2c6(%rip),%eax        # 1d560 <g_1976>
    e29a:	83 f8 01             	cmp    $0x1,%eax
    e29d:	0f 86 5e f8 ff ff    	jbe    db01 <func_2+0x2ae9>
    e2a3:	8b 85 e4 f0 ff ff    	mov    -0xf1c(%rbp),%eax
    e2a9:	0f b7 c0             	movzwl %ax,%eax
    e2ac:	be 09 00 00 00       	mov    $0x9,%esi
    e2b1:	89 c7                	mov    %eax,%edi
    e2b3:	e8 47 aa ff ff       	callq  8cff <safe_add_func_uint16_t_u_u>
    e2b8:	0f b7 c0             	movzwl %ax,%eax
    e2bb:	89 85 e4 f0 ff ff    	mov    %eax,-0xf1c(%rbp)
    e2c1:	8b 85 e4 f0 ff ff    	mov    -0xf1c(%rbp),%eax
    e2c7:	83 f8 13             	cmp    $0x13,%eax
    e2ca:	0f 85 d5 f0 ff ff    	jne    d3a5 <func_2+0x238d>
    e2d0:	eb 04                	jmp    e2d6 <func_2+0x32be>
    e2d2:	90                   	nop
    e2d3:	eb 01                	jmp    e2d6 <func_2+0x32be>
    e2d5:	90                   	nop
    e2d6:	8b 05 64 f2 00 00    	mov    0xf264(%rip),%eax        # 1d540 <g_1404>
    e2dc:	0f b7 c0             	movzwl %ax,%eax
    e2df:	be 05 00 00 00       	mov    $0x5,%esi
    e2e4:	89 c7                	mov    %eax,%edi
    e2e6:	e8 14 aa ff ff       	callq  8cff <safe_add_func_uint16_t_u_u>
    e2eb:	0f b7 c0             	movzwl %ax,%eax
    e2ee:	89 05 4c f2 00 00    	mov    %eax,0xf24c(%rip)        # 1d540 <g_1404>
    e2f4:	8b 05 46 f2 00 00    	mov    0xf246(%rip),%eax        # 1d540 <g_1404>
    e2fa:	83 f8 32             	cmp    $0x32,%eax
    e2fd:	0f 86 dd d4 ff ff    	jbe    b7e0 <func_2+0x7c8>
    e303:	8b 85 9c f0 ff ff    	mov    -0xf64(%rbp),%eax
    e309:	48 8b 5d d8          	mov    -0x28(%rbp),%rbx
    e30d:	64 48 33 1c 25 28 00 	xor    %fs:0x28,%rbx
    e314:	00 00 
    e316:	74 05                	je     e31d <func_2+0x3305>
    e318:	e8 53 9d ff ff       	callq  8070 <__stack_chk_fail@plt>
    e31d:	48 81 c4 60 0f 00 00 	add    $0xf60,%rsp
    e324:	5b                   	pop    %rbx
    e325:	41 5c                	pop    %r12
    e327:	41 5d                	pop    %r13
    e329:	41 5e                	pop    %r14
    e32b:	5d                   	pop    %rbp
    e32c:	c3                   	retq   

000000000000e32d <func_14>:
    e32d:	f3 0f 1e fa          	endbr64 
    e331:	55                   	push   %rbp
    e332:	48 89 e5             	mov    %rsp,%rbp
    e335:	41 57                	push   %r15
    e337:	41 56                	push   %r14
    e339:	41 55                	push   %r13
    e33b:	41 54                	push   %r12
    e33d:	53                   	push   %rbx
    e33e:	48 81 ec 00 10 00 00 	sub    $0x1000,%rsp
    e345:	48 83 0c 24 00       	orq    $0x0,(%rsp)
    e34a:	48 81 ec f8 0a 00 00 	sub    $0xaf8,%rsp
    e351:	89 f9                	mov    %edi,%ecx
    e353:	89 f0                	mov    %esi,%eax
    e355:	66 89 8d fc e4 ff ff 	mov    %cx,-0x1b04(%rbp)
    e35c:	66 89 85 f8 e4 ff ff 	mov    %ax,-0x1b08(%rbp)
    e363:	89 d0                	mov    %edx,%eax
    e365:	88 85 f4 e4 ff ff    	mov    %al,-0x1b0c(%rbp)
    e36b:	64 48 8b 04 25 28 00 	mov    %fs:0x28,%rax
    e372:	00 00 
    e374:	48 89 45 c8          	mov    %rax,-0x38(%rbp)
    e378:	31 c0                	xor    %eax,%eax
    e37a:	48 8d 05 5f 19 01 00 	lea    0x1195f(%rip),%rax        # 1fce0 <g_207>
    e381:	48 89 85 38 e6 ff ff 	mov    %rax,-0x19c8(%rbp)
    e388:	c7 85 20 e9 ff ff 55 	movl   $0xc1bbdc55,-0x16e0(%rbp)
    e38f:	dc bb c1 
    e392:	c7 85 24 e9 ff ff 55 	movl   $0xc1bbdc55,-0x16dc(%rbp)
    e399:	dc bb c1 
    e39c:	c7 85 28 e9 ff ff 55 	movl   $0xc1bbdc55,-0x16d8(%rbp)
    e3a3:	dc bb c1 
    e3a6:	c7 85 2c e9 ff ff 55 	movl   $0xc1bbdc55,-0x16d4(%rbp)
    e3ad:	dc bb c1 
    e3b0:	c7 85 30 e9 ff ff 55 	movl   $0xc1bbdc55,-0x16d0(%rbp)
    e3b7:	dc bb c1 
    e3ba:	c7 85 34 e9 ff ff 55 	movl   $0xc1bbdc55,-0x16cc(%rbp)
    e3c1:	dc bb c1 
    e3c4:	c7 85 38 e9 ff ff 55 	movl   $0xc1bbdc55,-0x16c8(%rbp)
    e3cb:	dc bb c1 
    e3ce:	c7 85 3c e9 ff ff 55 	movl   $0xc1bbdc55,-0x16c4(%rbp)
    e3d5:	dc bb c1 
    e3d8:	c7 85 40 e9 ff ff 55 	movl   $0xc1bbdc55,-0x16c0(%rbp)
    e3df:	dc bb c1 
    e3e2:	66 c7 85 0e e5 ff ff 	movw   $0xdc48,-0x1af2(%rbp)
    e3e9:	48 dc 
    e3eb:	c7 85 20 e5 ff ff 98 	movl   $0x18ab2f98,-0x1ae0(%rbp)
    e3f2:	2f ab 18 
    e3f5:	48 c7 85 b8 e5 ff ff 	movq   $0x0,-0x1a48(%rbp)
    e3fc:	00 00 00 00 
    e400:	c7 85 b8 e5 ff ff 06 	movl   $0x6,-0x1a48(%rbp)
    e407:	00 00 00 
    e40a:	48 8d 85 20 e9 ff ff 	lea    -0x16e0(%rbp),%rax
    e411:	48 83 c0 20          	add    $0x20,%rax
    e415:	48 89 85 c0 e5 ff ff 	mov    %rax,-0x1a40(%rbp)
    e41c:	48 8d 85 70 ed ff ff 	lea    -0x1290(%rbp),%rax
    e423:	48 8d 15 b6 ad 00 00 	lea    0xadb6(%rip),%rdx        # 191e0 <g_2294+0x13c>
    e42a:	b9 24 00 00 00       	mov    $0x24,%ecx
    e42f:	48 89 c7             	mov    %rax,%rdi
    e432:	48 89 d6             	mov    %rdx,%rsi
    e435:	f3 48 a5             	rep movsq %ds:(%rsi),%es:(%rdi)
    e438:	48 c7 85 c8 e5 ff ff 	movq   $0x0,-0x1a38(%rbp)
    e43f:	00 00 00 00 
    e443:	48 8d 85 c8 e5 ff ff 	lea    -0x1a38(%rbp),%rax
    e44a:	48 89 85 20 eb ff ff 	mov    %rax,-0x14e0(%rbp)
    e451:	48 8d 85 c8 e5 ff ff 	lea    -0x1a38(%rbp),%rax
    e458:	48 89 85 28 eb ff ff 	mov    %rax,-0x14d8(%rbp)
    e45f:	48 8d 85 c8 e5 ff ff 	lea    -0x1a38(%rbp),%rax
    e466:	48 89 85 30 eb ff ff 	mov    %rax,-0x14d0(%rbp)
    e46d:	48 8d 85 c8 e5 ff ff 	lea    -0x1a38(%rbp),%rax
    e474:	48 89 85 38 eb ff ff 	mov    %rax,-0x14c8(%rbp)
    e47b:	48 8d 85 c8 e5 ff ff 	lea    -0x1a38(%rbp),%rax
    e482:	48 89 85 40 eb ff ff 	mov    %rax,-0x14c0(%rbp)
    e489:	48 8d 85 c8 e5 ff ff 	lea    -0x1a38(%rbp),%rax
    e490:	48 89 85 48 eb ff ff 	mov    %rax,-0x14b8(%rbp)
    e497:	48 8d 85 c8 e5 ff ff 	lea    -0x1a38(%rbp),%rax
    e49e:	48 89 85 50 eb ff ff 	mov    %rax,-0x14b0(%rbp)
    e4a5:	48 8d 85 c8 e5 ff ff 	lea    -0x1a38(%rbp),%rax
    e4ac:	48 89 85 58 eb ff ff 	mov    %rax,-0x14a8(%rbp)
    e4b3:	48 8d 85 c8 e5 ff ff 	lea    -0x1a38(%rbp),%rax
    e4ba:	48 89 85 60 eb ff ff 	mov    %rax,-0x14a0(%rbp)
    e4c1:	48 8d 85 c8 e5 ff ff 	lea    -0x1a38(%rbp),%rax
    e4c8:	48 89 85 68 eb ff ff 	mov    %rax,-0x1498(%rbp)
    e4cf:	48 8d 85 c8 e5 ff ff 	lea    -0x1a38(%rbp),%rax
    e4d6:	48 89 85 70 eb ff ff 	mov    %rax,-0x1490(%rbp)
    e4dd:	48 8d 85 c8 e5 ff ff 	lea    -0x1a38(%rbp),%rax
    e4e4:	48 89 85 78 eb ff ff 	mov    %rax,-0x1488(%rbp)
    e4eb:	48 8d 85 c8 e5 ff ff 	lea    -0x1a38(%rbp),%rax
    e4f2:	48 89 85 80 eb ff ff 	mov    %rax,-0x1480(%rbp)
    e4f9:	48 8d 85 c8 e5 ff ff 	lea    -0x1a38(%rbp),%rax
    e500:	48 89 85 88 eb ff ff 	mov    %rax,-0x1478(%rbp)
    e507:	48 8d 85 c8 e5 ff ff 	lea    -0x1a38(%rbp),%rax
    e50e:	48 89 85 90 eb ff ff 	mov    %rax,-0x1470(%rbp)
    e515:	48 8d 05 0c 1d 01 00 	lea    0x11d0c(%rip),%rax        # 20228 <g_852>
    e51c:	48 89 85 d0 e5 ff ff 	mov    %rax,-0x1a30(%rbp)
    e523:	48 8d 85 d0 e5 ff ff 	lea    -0x1a30(%rbp),%rax
    e52a:	48 89 85 d8 e5 ff ff 	mov    %rax,-0x1a28(%rbp)
    e531:	48 c7 85 30 e6 ff ff 	movq   $0x0,-0x19d0(%rbp)
    e538:	00 00 00 00 
    e53c:	66 c7 85 10 e5 ff ff 	movw   $0xfffd,-0x1af0(%rbp)
    e543:	fd ff 
    e545:	c7 85 70 e5 ff ff 01 	movl   $0x1,-0x1a90(%rbp)
    e54c:	00 00 00 
    e54f:	48 c7 85 40 e6 ff ff 	movq   $0x0,-0x19c0(%rbp)
    e556:	00 00 00 00 
    e55a:	48 8d 05 d7 ef 00 00 	lea    0xefd7(%rip),%rax        # 1d538 <g_1148>
    e561:	48 89 85 e0 e9 ff ff 	mov    %rax,-0x1620(%rbp)
    e568:	48 8d 05 c9 ef 00 00 	lea    0xefc9(%rip),%rax        # 1d538 <g_1148>
    e56f:	48 89 85 e8 e9 ff ff 	mov    %rax,-0x1618(%rbp)
    e576:	48 8d 05 bb ef 00 00 	lea    0xefbb(%rip),%rax        # 1d538 <g_1148>
    e57d:	48 89 85 f0 e9 ff ff 	mov    %rax,-0x1610(%rbp)
    e584:	48 8d 05 ad ef 00 00 	lea    0xefad(%rip),%rax        # 1d538 <g_1148>
    e58b:	48 89 85 f8 e9 ff ff 	mov    %rax,-0x1608(%rbp)
    e592:	48 8d 05 9f ef 00 00 	lea    0xef9f(%rip),%rax        # 1d538 <g_1148>
    e599:	48 89 85 00 ea ff ff 	mov    %rax,-0x1600(%rbp)
    e5a0:	48 8d 05 91 ef 00 00 	lea    0xef91(%rip),%rax        # 1d538 <g_1148>
    e5a7:	48 89 85 08 ea ff ff 	mov    %rax,-0x15f8(%rbp)
    e5ae:	48 8d 05 83 ef 00 00 	lea    0xef83(%rip),%rax        # 1d538 <g_1148>
    e5b5:	48 89 85 10 ea ff ff 	mov    %rax,-0x15f0(%rbp)
    e5bc:	66 c7 85 12 e5 ff ff 	movw   $0xfffd,-0x1aee(%rbp)
    e5c3:	fd ff 
    e5c5:	48 c7 85 e0 e5 ff ff 	movq   $0x0,-0x1a20(%rbp)
    e5cc:	00 00 00 00 
    e5d0:	c7 85 34 e5 ff ff 00 	movl   $0x0,-0x1acc(%rbp)
    e5d7:	00 00 00 
    e5da:	eb 1b                	jmp    e5f7 <func_14+0x2ca>
    e5dc:	8b 85 34 e5 ff ff    	mov    -0x1acc(%rbp),%eax
    e5e2:	48 98                	cltq   
    e5e4:	48 c7 84 c5 b0 e9 ff 	movq   $0x0,-0x1650(%rbp,%rax,8)
    e5eb:	ff 00 00 00 00 
    e5f0:	83 85 34 e5 ff ff 01 	addl   $0x1,-0x1acc(%rbp)
    e5f7:	83 bd 34 e5 ff ff 05 	cmpl   $0x5,-0x1acc(%rbp)
    e5fe:	7e dc                	jle    e5dc <func_14+0x2af>
    e600:	48 83 bd 38 e6 ff ff 	cmpq   $0x0,-0x19c8(%rbp)
    e607:	00 
    e608:	0f 85 97 26 00 00    	jne    10ca5 <func_14+0x2978>
    e60e:	48 8d 05 eb ee 00 00 	lea    0xeeeb(%rip),%rax        # 1d500 <g_544>
    e615:	48 89 85 e8 e5 ff ff 	mov    %rax,-0x1a18(%rbp)
    e61c:	48 8d 85 90 ee ff ff 	lea    -0x1170(%rbp),%rax
    e623:	48 8d 15 d6 ac 00 00 	lea    0xacd6(%rip),%rdx        # 19300 <g_2294+0x25c>
    e62a:	b9 70 00 00 00       	mov    $0x70,%ecx
    e62f:	48 89 c7             	mov    %rax,%rdi
    e632:	48 89 d6             	mov    %rdx,%rsi
    e635:	f3 48 a5             	rep movsq %ds:(%rsi),%es:(%rdi)
    e638:	48 8d 05 81 16 01 00 	lea    0x11681(%rip),%rax        # 1fcc0 <g_89>
    e63f:	48 89 85 70 e8 ff ff 	mov    %rax,-0x1790(%rbp)
    e646:	c6 85 30 e5 ff ff f7 	movb   $0xf7,-0x1ad0(%rbp)
    e64d:	48 8d 05 d8 e9 00 00 	lea    0xe9d8(%rip),%rax        # 1d02c <g_65>
    e654:	48 89 85 f0 e5 ff ff 	mov    %rax,-0x1a10(%rbp)
    e65b:	48 8d 85 f0 e5 ff ff 	lea    -0x1a10(%rbp),%rax
    e662:	48 89 85 f8 e5 ff ff 	mov    %rax,-0x1a08(%rbp)
    e669:	48 8d 85 f8 e5 ff ff 	lea    -0x1a08(%rbp),%rax
    e670:	48 89 85 78 e8 ff ff 	mov    %rax,-0x1788(%rbp)
    e677:	48 c7 85 00 e6 ff ff 	movq   $0x0,-0x1a00(%rbp)
    e67e:	00 00 00 00 
    e682:	c7 85 00 e6 ff ff fb 	movl   $0xfffffffb,-0x1a00(%rbp)
    e689:	ff ff ff 
    e68c:	48 8d 05 4d ee 00 00 	lea    0xee4d(%rip),%rax        # 1d4e0 <g_255>
    e693:	48 89 85 08 e6 ff ff 	mov    %rax,-0x19f8(%rbp)
    e69a:	48 8d 85 08 e6 ff ff 	lea    -0x19f8(%rbp),%rax
    e6a1:	48 89 85 80 ec ff ff 	mov    %rax,-0x1380(%rbp)
    e6a8:	48 8d 85 08 e6 ff ff 	lea    -0x19f8(%rbp),%rax
    e6af:	48 89 85 88 ec ff ff 	mov    %rax,-0x1378(%rbp)
    e6b6:	48 8d 85 08 e6 ff ff 	lea    -0x19f8(%rbp),%rax
    e6bd:	48 89 85 90 ec ff ff 	mov    %rax,-0x1370(%rbp)
    e6c4:	48 8d 85 08 e6 ff ff 	lea    -0x19f8(%rbp),%rax
    e6cb:	48 89 85 98 ec ff ff 	mov    %rax,-0x1368(%rbp)
    e6d2:	48 8d 85 08 e6 ff ff 	lea    -0x19f8(%rbp),%rax
    e6d9:	48 89 85 a0 ec ff ff 	mov    %rax,-0x1360(%rbp)
    e6e0:	48 8d 85 08 e6 ff ff 	lea    -0x19f8(%rbp),%rax
    e6e7:	48 89 85 a8 ec ff ff 	mov    %rax,-0x1358(%rbp)
    e6ee:	48 8d 85 08 e6 ff ff 	lea    -0x19f8(%rbp),%rax
    e6f5:	48 89 85 b0 ec ff ff 	mov    %rax,-0x1350(%rbp)
    e6fc:	48 8d 85 08 e6 ff ff 	lea    -0x19f8(%rbp),%rax
    e703:	48 89 85 b8 ec ff ff 	mov    %rax,-0x1348(%rbp)
    e70a:	48 8d 85 08 e6 ff ff 	lea    -0x19f8(%rbp),%rax
    e711:	48 89 85 c0 ec ff ff 	mov    %rax,-0x1340(%rbp)
    e718:	48 8d 85 08 e6 ff ff 	lea    -0x19f8(%rbp),%rax
    e71f:	48 89 85 c8 ec ff ff 	mov    %rax,-0x1338(%rbp)
    e726:	48 8d 85 08 e6 ff ff 	lea    -0x19f8(%rbp),%rax
    e72d:	48 89 85 d0 ec ff ff 	mov    %rax,-0x1330(%rbp)
    e734:	48 8d 85 08 e6 ff ff 	lea    -0x19f8(%rbp),%rax
    e73b:	48 89 85 d8 ec ff ff 	mov    %rax,-0x1328(%rbp)
    e742:	48 8d 85 08 e6 ff ff 	lea    -0x19f8(%rbp),%rax
    e749:	48 89 85 e0 ec ff ff 	mov    %rax,-0x1320(%rbp)
    e750:	48 8d 85 08 e6 ff ff 	lea    -0x19f8(%rbp),%rax
    e757:	48 89 85 e8 ec ff ff 	mov    %rax,-0x1318(%rbp)
    e75e:	48 8d 85 08 e6 ff ff 	lea    -0x19f8(%rbp),%rax
    e765:	48 89 85 f0 ec ff ff 	mov    %rax,-0x1310(%rbp)
    e76c:	48 8d 85 08 e6 ff ff 	lea    -0x19f8(%rbp),%rax
    e773:	48 89 85 f8 ec ff ff 	mov    %rax,-0x1308(%rbp)
    e77a:	48 8d 85 08 e6 ff ff 	lea    -0x19f8(%rbp),%rax
    e781:	48 89 85 00 ed ff ff 	mov    %rax,-0x1300(%rbp)
    e788:	48 8d 85 08 e6 ff ff 	lea    -0x19f8(%rbp),%rax
    e78f:	48 89 85 08 ed ff ff 	mov    %rax,-0x12f8(%rbp)
    e796:	48 8d 85 08 e6 ff ff 	lea    -0x19f8(%rbp),%rax
    e79d:	48 89 85 10 ed ff ff 	mov    %rax,-0x12f0(%rbp)
    e7a4:	48 8d 85 08 e6 ff ff 	lea    -0x19f8(%rbp),%rax
    e7ab:	48 89 85 18 ed ff ff 	mov    %rax,-0x12e8(%rbp)
    e7b2:	48 8d 05 2f ed 00 00 	lea    0xed2f(%rip),%rax        # 1d4e8 <g_292>
    e7b9:	48 89 85 a0 eb ff ff 	mov    %rax,-0x1460(%rbp)
    e7c0:	48 c7 85 a8 eb ff ff 	movq   $0x0,-0x1458(%rbp)
    e7c7:	00 00 00 00 
    e7cb:	48 8d 05 16 ed 00 00 	lea    0xed16(%rip),%rax        # 1d4e8 <g_292>
    e7d2:	48 89 85 b0 eb ff ff 	mov    %rax,-0x1450(%rbp)
    e7d9:	48 c7 85 b8 eb ff ff 	movq   $0x0,-0x1448(%rbp)
    e7e0:	00 00 00 00 
    e7e4:	48 8d 05 fd ec 00 00 	lea    0xecfd(%rip),%rax        # 1d4e8 <g_292>
    e7eb:	48 89 85 c0 eb ff ff 	mov    %rax,-0x1440(%rbp)
    e7f2:	48 c7 85 c8 eb ff ff 	movq   $0x0,-0x1438(%rbp)
    e7f9:	00 00 00 00 
    e7fd:	48 8d 05 e4 ec 00 00 	lea    0xece4(%rip),%rax        # 1d4e8 <g_292>
    e804:	48 89 85 d0 eb ff ff 	mov    %rax,-0x1430(%rbp)
    e80b:	48 c7 85 d8 eb ff ff 	movq   $0x0,-0x1428(%rbp)
    e812:	00 00 00 00 
    e816:	48 8d 05 cb ec 00 00 	lea    0xeccb(%rip),%rax        # 1d4e8 <g_292>
    e81d:	48 89 85 e0 eb ff ff 	mov    %rax,-0x1420(%rbp)
    e824:	48 c7 85 e8 eb ff ff 	movq   $0x0,-0x1418(%rbp)
    e82b:	00 00 00 00 
    e82f:	48 8d 05 b2 ec 00 00 	lea    0xecb2(%rip),%rax        # 1d4e8 <g_292>
    e836:	48 89 85 f0 eb ff ff 	mov    %rax,-0x1410(%rbp)
    e83d:	48 c7 85 f8 eb ff ff 	movq   $0x0,-0x1408(%rbp)
    e844:	00 00 00 00 
    e848:	48 8d 05 99 ec 00 00 	lea    0xec99(%rip),%rax        # 1d4e8 <g_292>
    e84f:	48 89 85 00 ec ff ff 	mov    %rax,-0x1400(%rbp)
    e856:	48 c7 85 08 ec ff ff 	movq   $0x0,-0x13f8(%rbp)
    e85d:	00 00 00 00 
    e861:	48 8d 05 80 ec 00 00 	lea    0xec80(%rip),%rax        # 1d4e8 <g_292>
    e868:	48 89 85 10 ec ff ff 	mov    %rax,-0x13f0(%rbp)
    e86f:	48 c7 85 18 ec ff ff 	movq   $0x0,-0x13e8(%rbp)
    e876:	00 00 00 00 
    e87a:	c7 85 38 e5 ff ff 00 	movl   $0x0,-0x1ac8(%rbp)
    e881:	00 00 00 
    e884:	eb 1a                	jmp    e8a0 <func_14+0x573>
    e886:	8b 85 38 e5 ff ff    	mov    -0x1ac8(%rbp),%eax
    e88c:	48 98                	cltq   
    e88e:	c7 84 85 20 ea ff ff 	movl   $0xda3e2c8b,-0x15e0(%rbp,%rax,4)
    e895:	8b 2c 3e da 
    e899:	83 85 38 e5 ff ff 01 	addl   $0x1,-0x1ac8(%rbp)
    e8a0:	83 bd 38 e5 ff ff 02 	cmpl   $0x2,-0x1ac8(%rbp)
    e8a7:	7e dd                	jle    e886 <func_14+0x559>
    e8a9:	48 8b 05 88 1b 01 00 	mov    0x11b88(%rip),%rax        # 20438 <g_1438>
    e8b0:	48 8b 95 e8 e5 ff ff 	mov    -0x1a18(%rbp),%rdx
    e8b7:	48 89 10             	mov    %rdx,(%rax)
    e8ba:	48 8b 05 07 14 01 00 	mov    0x11407(%rip),%rax        # 1fcc8 <g_180>
    e8c1:	8b 08                	mov    (%rax),%ecx
    e8c3:	0f b6 85 f4 e4 ff ff 	movzbl -0x1b0c(%rbp),%eax
    e8ca:	0f be d0             	movsbl %al,%edx
    e8cd:	48 8b 05 f4 13 01 00 	mov    0x113f4(%rip),%rax        # 1fcc8 <g_180>
    e8d4:	31 ca                	xor    %ecx,%edx
    e8d6:	89 10                	mov    %edx,(%rax)
    e8d8:	8b 85 3c e9 ff ff    	mov    -0x16c4(%rbp),%eax
    e8de:	3d fa 00 00 00       	cmp    $0xfa,%eax
    e8e3:	0f 84 65 23 00 00    	je     10c4e <func_14+0x2921>
    e8e9:	48 c7 85 80 e8 ff ff 	movq   $0x0,-0x1780(%rbp)
    e8f0:	00 00 00 00 
    e8f4:	48 c7 85 10 f2 ff ff 	movq   $0x0,-0xdf0(%rbp)
    e8fb:	00 00 00 00 
    e8ff:	48 8d 05 c2 13 01 00 	lea    0x113c2(%rip),%rax        # 1fcc8 <g_180>
    e906:	48 89 85 18 f2 ff ff 	mov    %rax,-0xde8(%rbp)
    e90d:	48 c7 85 20 f2 ff ff 	movq   $0x0,-0xde0(%rbp)
    e914:	00 00 00 00 
    e918:	48 8d 05 71 1a 01 00 	lea    0x11a71(%rip),%rax        # 20390 <g_942+0x150>
    e91f:	48 89 85 28 f2 ff ff 	mov    %rax,-0xdd8(%rbp)
    e926:	48 8d 05 9b 13 01 00 	lea    0x1139b(%rip),%rax        # 1fcc8 <g_180>
    e92d:	48 89 85 30 f2 ff ff 	mov    %rax,-0xdd0(%rbp)
    e934:	48 8d 05 1d 1a 01 00 	lea    0x11a1d(%rip),%rax        # 20358 <g_942+0x118>
    e93b:	48 89 85 38 f2 ff ff 	mov    %rax,-0xdc8(%rbp)
    e942:	48 8d 05 0f 1a 01 00 	lea    0x11a0f(%rip),%rax        # 20358 <g_942+0x118>
    e949:	48 89 85 40 f2 ff ff 	mov    %rax,-0xdc0(%rbp)
    e950:	48 8d 05 71 13 01 00 	lea    0x11371(%rip),%rax        # 1fcc8 <g_180>
    e957:	48 89 85 48 f2 ff ff 	mov    %rax,-0xdb8(%rbp)
    e95e:	48 8d 05 2b 1a 01 00 	lea    0x11a2b(%rip),%rax        # 20390 <g_942+0x150>
    e965:	48 89 85 50 f2 ff ff 	mov    %rax,-0xdb0(%rbp)
    e96c:	48 c7 85 58 f2 ff ff 	movq   $0x0,-0xda8(%rbp)
    e973:	00 00 00 00 
    e977:	48 8d 05 4a 13 01 00 	lea    0x1134a(%rip),%rax        # 1fcc8 <g_180>
    e97e:	48 89 85 60 f2 ff ff 	mov    %rax,-0xda0(%rbp)
    e985:	48 c7 85 68 f2 ff ff 	movq   $0x0,-0xd98(%rbp)
    e98c:	00 00 00 00 
    e990:	48 8d 05 c1 19 01 00 	lea    0x119c1(%rip),%rax        # 20358 <g_942+0x118>
    e997:	48 89 85 70 f2 ff ff 	mov    %rax,-0xd90(%rbp)
    e99e:	48 8d 85 e8 e5 ff ff 	lea    -0x1a18(%rbp),%rax
    e9a5:	48 89 85 78 f2 ff ff 	mov    %rax,-0xd88(%rbp)
    e9ac:	48 c7 85 80 f2 ff ff 	movq   $0x0,-0xd80(%rbp)
    e9b3:	00 00 00 00 
    e9b7:	48 8d 05 d2 19 01 00 	lea    0x119d2(%rip),%rax        # 20390 <g_942+0x150>
    e9be:	48 89 85 88 f2 ff ff 	mov    %rax,-0xd78(%rbp)
    e9c5:	48 8d 05 fc 12 01 00 	lea    0x112fc(%rip),%rax        # 1fcc8 <g_180>
    e9cc:	48 89 85 90 f2 ff ff 	mov    %rax,-0xd70(%rbp)
    e9d3:	48 8d 05 b6 19 01 00 	lea    0x119b6(%rip),%rax        # 20390 <g_942+0x150>
    e9da:	48 89 85 98 f2 ff ff 	mov    %rax,-0xd68(%rbp)
    e9e1:	48 c7 85 a0 f2 ff ff 	movq   $0x0,-0xd60(%rbp)
    e9e8:	00 00 00 00 
    e9ec:	48 8d 85 e8 e5 ff ff 	lea    -0x1a18(%rbp),%rax
    e9f3:	48 89 85 a8 f2 ff ff 	mov    %rax,-0xd58(%rbp)
    e9fa:	48 8d 05 57 19 01 00 	lea    0x11957(%rip),%rax        # 20358 <g_942+0x118>
    ea01:	48 89 85 b0 f2 ff ff 	mov    %rax,-0xd50(%rbp)
    ea08:	48 c7 85 b8 f2 ff ff 	movq   $0x0,-0xd48(%rbp)
    ea0f:	00 00 00 00 
    ea13:	48 8d 05 ae 12 01 00 	lea    0x112ae(%rip),%rax        # 1fcc8 <g_180>
    ea1a:	48 89 85 c0 f2 ff ff 	mov    %rax,-0xd40(%rbp)
    ea21:	48 c7 85 c8 f2 ff ff 	movq   $0x0,-0xd38(%rbp)
    ea28:	00 00 00 00 
    ea2c:	48 8d 05 5d 19 01 00 	lea    0x1195d(%rip),%rax        # 20390 <g_942+0x150>
    ea33:	48 89 85 d0 f2 ff ff 	mov    %rax,-0xd30(%rbp)
    ea3a:	48 8d 05 87 12 01 00 	lea    0x11287(%rip),%rax        # 1fcc8 <g_180>
    ea41:	48 89 85 d8 f2 ff ff 	mov    %rax,-0xd28(%rbp)
    ea48:	48 8d 05 09 19 01 00 	lea    0x11909(%rip),%rax        # 20358 <g_942+0x118>
    ea4f:	48 89 85 e0 f2 ff ff 	mov    %rax,-0xd20(%rbp)
    ea56:	48 8d 05 fb 18 01 00 	lea    0x118fb(%rip),%rax        # 20358 <g_942+0x118>
    ea5d:	48 89 85 e8 f2 ff ff 	mov    %rax,-0xd18(%rbp)
    ea64:	48 8d 05 5d 12 01 00 	lea    0x1125d(%rip),%rax        # 1fcc8 <g_180>
    ea6b:	48 89 85 f0 f2 ff ff 	mov    %rax,-0xd10(%rbp)
    ea72:	48 8d 05 17 19 01 00 	lea    0x11917(%rip),%rax        # 20390 <g_942+0x150>
    ea79:	48 89 85 f8 f2 ff ff 	mov    %rax,-0xd08(%rbp)
    ea80:	48 c7 85 00 f3 ff ff 	movq   $0x0,-0xd00(%rbp)
    ea87:	00 00 00 00 
    ea8b:	48 8d 05 36 12 01 00 	lea    0x11236(%rip),%rax        # 1fcc8 <g_180>
    ea92:	48 89 85 08 f3 ff ff 	mov    %rax,-0xcf8(%rbp)
    ea99:	48 c7 85 10 f3 ff ff 	movq   $0x0,-0xcf0(%rbp)
    eaa0:	00 00 00 00 
    eaa4:	48 8d 05 ad 18 01 00 	lea    0x118ad(%rip),%rax        # 20358 <g_942+0x118>
    eaab:	48 89 85 18 f3 ff ff 	mov    %rax,-0xce8(%rbp)
    eab2:	48 8d 85 e8 e5 ff ff 	lea    -0x1a18(%rbp),%rax
    eab9:	48 89 85 20 f3 ff ff 	mov    %rax,-0xce0(%rbp)
    eac0:	48 c7 85 28 f3 ff ff 	movq   $0x0,-0xcd8(%rbp)
    eac7:	00 00 00 00 
    eacb:	48 8d 05 be 18 01 00 	lea    0x118be(%rip),%rax        # 20390 <g_942+0x150>
    ead2:	48 89 85 30 f3 ff ff 	mov    %rax,-0xcd0(%rbp)
    ead9:	48 8d 05 e8 11 01 00 	lea    0x111e8(%rip),%rax        # 1fcc8 <g_180>
    eae0:	48 89 85 38 f3 ff ff 	mov    %rax,-0xcc8(%rbp)
    eae7:	48 8d 05 a2 18 01 00 	lea    0x118a2(%rip),%rax        # 20390 <g_942+0x150>
    eaee:	48 89 85 40 f3 ff ff 	mov    %rax,-0xcc0(%rbp)
    eaf5:	48 c7 85 48 f3 ff ff 	movq   $0x0,-0xcb8(%rbp)
    eafc:	00 00 00 00 
    eb00:	48 8d 85 e8 e5 ff ff 	lea    -0x1a18(%rbp),%rax
    eb07:	48 89 85 50 f3 ff ff 	mov    %rax,-0xcb0(%rbp)
    eb0e:	48 8d 05 43 18 01 00 	lea    0x11843(%rip),%rax        # 20358 <g_942+0x118>
    eb15:	48 89 85 58 f3 ff ff 	mov    %rax,-0xca8(%rbp)
    eb1c:	48 c7 85 60 f3 ff ff 	movq   $0x0,-0xca0(%rbp)
    eb23:	00 00 00 00 
    eb27:	48 8d 05 9a 11 01 00 	lea    0x1119a(%rip),%rax        # 1fcc8 <g_180>
    eb2e:	48 89 85 68 f3 ff ff 	mov    %rax,-0xc98(%rbp)
    eb35:	48 c7 85 70 f3 ff ff 	movq   $0x0,-0xc90(%rbp)
    eb3c:	00 00 00 00 
    eb40:	48 8d 05 49 18 01 00 	lea    0x11849(%rip),%rax        # 20390 <g_942+0x150>
    eb47:	48 89 85 78 f3 ff ff 	mov    %rax,-0xc88(%rbp)
    eb4e:	48 8d 05 73 11 01 00 	lea    0x11173(%rip),%rax        # 1fcc8 <g_180>
    eb55:	48 89 85 80 f3 ff ff 	mov    %rax,-0xc80(%rbp)
    eb5c:	48 8d 05 f5 17 01 00 	lea    0x117f5(%rip),%rax        # 20358 <g_942+0x118>
    eb63:	48 89 85 88 f3 ff ff 	mov    %rax,-0xc78(%rbp)
    eb6a:	48 8d 05 e7 17 01 00 	lea    0x117e7(%rip),%rax        # 20358 <g_942+0x118>
    eb71:	48 89 85 90 f3 ff ff 	mov    %rax,-0xc70(%rbp)
    eb78:	48 8d 05 49 11 01 00 	lea    0x11149(%rip),%rax        # 1fcc8 <g_180>
    eb7f:	48 89 85 98 f3 ff ff 	mov    %rax,-0xc68(%rbp)
    eb86:	48 8d 05 03 18 01 00 	lea    0x11803(%rip),%rax        # 20390 <g_942+0x150>
    eb8d:	48 89 85 a0 f3 ff ff 	mov    %rax,-0xc60(%rbp)
    eb94:	48 c7 85 a8 f3 ff ff 	movq   $0x0,-0xc58(%rbp)
    eb9b:	00 00 00 00 
    eb9f:	48 8d 05 22 11 01 00 	lea    0x11122(%rip),%rax        # 1fcc8 <g_180>
    eba6:	48 89 85 b0 f3 ff ff 	mov    %rax,-0xc50(%rbp)
    ebad:	48 c7 85 b8 f3 ff ff 	movq   $0x0,-0xc48(%rbp)
    ebb4:	00 00 00 00 
    ebb8:	48 8d 05 99 17 01 00 	lea    0x11799(%rip),%rax        # 20358 <g_942+0x118>
    ebbf:	48 89 85 c0 f3 ff ff 	mov    %rax,-0xc40(%rbp)
    ebc6:	48 8d 85 e8 e5 ff ff 	lea    -0x1a18(%rbp),%rax
    ebcd:	48 89 85 c8 f3 ff ff 	mov    %rax,-0xc38(%rbp)
    ebd4:	48 c7 85 d0 f3 ff ff 	movq   $0x0,-0xc30(%rbp)
    ebdb:	00 00 00 00 
    ebdf:	48 8d 05 aa 17 01 00 	lea    0x117aa(%rip),%rax        # 20390 <g_942+0x150>
    ebe6:	48 89 85 d8 f3 ff ff 	mov    %rax,-0xc28(%rbp)
    ebed:	48 8d 05 d4 10 01 00 	lea    0x110d4(%rip),%rax        # 1fcc8 <g_180>
    ebf4:	48 89 85 e0 f3 ff ff 	mov    %rax,-0xc20(%rbp)
    ebfb:	48 8d 05 c6 10 01 00 	lea    0x110c6(%rip),%rax        # 1fcc8 <g_180>
    ec02:	48 89 85 e8 f3 ff ff 	mov    %rax,-0xc18(%rbp)
    ec09:	48 8d 05 b8 10 01 00 	lea    0x110b8(%rip),%rax        # 1fcc8 <g_180>
    ec10:	48 89 85 f0 f3 ff ff 	mov    %rax,-0xc10(%rbp)
    ec17:	48 8d 05 6a 16 01 00 	lea    0x1166a(%rip),%rax        # 20288 <g_942+0x48>
    ec1e:	48 89 85 f8 f3 ff ff 	mov    %rax,-0xc08(%rbp)
    ec25:	48 c7 85 00 f4 ff ff 	movq   $0x0,-0xc00(%rbp)
    ec2c:	00 00 00 00 
    ec30:	48 8d 05 91 10 01 00 	lea    0x11091(%rip),%rax        # 1fcc8 <g_180>
    ec37:	48 89 85 08 f4 ff ff 	mov    %rax,-0xbf8(%rbp)
    ec3e:	48 8d 85 e8 e5 ff ff 	lea    -0x1a18(%rbp),%rax
    ec45:	48 89 85 10 f4 ff ff 	mov    %rax,-0xbf0(%rbp)
    ec4c:	48 c7 85 18 f4 ff ff 	movq   $0x0,-0xbe8(%rbp)
    ec53:	00 00 00 00 
    ec57:	48 8d 05 6a 10 01 00 	lea    0x1106a(%rip),%rax        # 1fcc8 <g_180>
    ec5e:	48 89 85 20 f4 ff ff 	mov    %rax,-0xbe0(%rbp)
    ec65:	48 c7 85 28 f4 ff ff 	movq   $0x0,-0xbd8(%rbp)
    ec6c:	00 00 00 00 
    ec70:	48 c7 85 30 f4 ff ff 	movq   $0x0,-0xbd0(%rbp)
    ec77:	00 00 00 00 
    ec7b:	48 c7 85 38 f4 ff ff 	movq   $0x0,-0xbc8(%rbp)
    ec82:	00 00 00 00 
    ec86:	48 c7 85 40 f4 ff ff 	movq   $0x0,-0xbc0(%rbp)
    ec8d:	00 00 00 00 
    ec91:	48 8d 05 30 10 01 00 	lea    0x11030(%rip),%rax        # 1fcc8 <g_180>
    ec98:	48 89 85 48 f4 ff ff 	mov    %rax,-0xbb8(%rbp)
    ec9f:	48 c7 85 50 f4 ff ff 	movq   $0x0,-0xbb0(%rbp)
    eca6:	00 00 00 00 
    ecaa:	48 8d 85 e8 e5 ff ff 	lea    -0x1a18(%rbp),%rax
    ecb1:	48 89 85 58 f4 ff ff 	mov    %rax,-0xba8(%rbp)
    ecb8:	48 8d 05 09 10 01 00 	lea    0x11009(%rip),%rax        # 1fcc8 <g_180>
    ecbf:	48 89 85 60 f4 ff ff 	mov    %rax,-0xba0(%rbp)
    ecc6:	48 c7 85 68 f4 ff ff 	movq   $0x0,-0xb98(%rbp)
    eccd:	00 00 00 00 
    ecd1:	48 8d 05 b0 15 01 00 	lea    0x115b0(%rip),%rax        # 20288 <g_942+0x48>
    ecd8:	48 89 85 70 f4 ff ff 	mov    %rax,-0xb90(%rbp)
    ecdf:	48 8d 05 e2 0f 01 00 	lea    0x10fe2(%rip),%rax        # 1fcc8 <g_180>
    ece6:	48 89 85 78 f4 ff ff 	mov    %rax,-0xb88(%rbp)
    eced:	48 8d 05 d4 0f 01 00 	lea    0x10fd4(%rip),%rax        # 1fcc8 <g_180>
    ecf4:	48 89 85 80 f4 ff ff 	mov    %rax,-0xb80(%rbp)
    ecfb:	48 c7 85 88 f4 ff ff 	movq   $0x0,-0xb78(%rbp)
    ed02:	00 00 00 00 
    ed06:	48 8d 05 bb 0f 01 00 	lea    0x10fbb(%rip),%rax        # 1fcc8 <g_180>
    ed0d:	48 89 85 90 f4 ff ff 	mov    %rax,-0xb70(%rbp)
    ed14:	48 8d 05 ad 0f 01 00 	lea    0x10fad(%rip),%rax        # 1fcc8 <g_180>
    ed1b:	48 89 85 98 f4 ff ff 	mov    %rax,-0xb68(%rbp)
    ed22:	48 8d 05 5f 15 01 00 	lea    0x1155f(%rip),%rax        # 20288 <g_942+0x48>
    ed29:	48 89 85 a0 f4 ff ff 	mov    %rax,-0xb60(%rbp)
    ed30:	48 c7 85 a8 f4 ff ff 	movq   $0x0,-0xb58(%rbp)
    ed37:	00 00 00 00 
    ed3b:	48 8d 05 86 0f 01 00 	lea    0x10f86(%rip),%rax        # 1fcc8 <g_180>
    ed42:	48 89 85 b0 f4 ff ff 	mov    %rax,-0xb50(%rbp)
    ed49:	48 8d 85 e8 e5 ff ff 	lea    -0x1a18(%rbp),%rax
    ed50:	48 89 85 b8 f4 ff ff 	mov    %rax,-0xb48(%rbp)
    ed57:	48 c7 85 c0 f4 ff ff 	movq   $0x0,-0xb40(%rbp)
    ed5e:	00 00 00 00 
    ed62:	48 8d 05 5f 0f 01 00 	lea    0x10f5f(%rip),%rax        # 1fcc8 <g_180>
    ed69:	48 89 85 c8 f4 ff ff 	mov    %rax,-0xb38(%rbp)
    ed70:	48 c7 85 d0 f4 ff ff 	movq   $0x0,-0xb30(%rbp)
    ed77:	00 00 00 00 
    ed7b:	48 c7 85 d8 f4 ff ff 	movq   $0x0,-0xb28(%rbp)
    ed82:	00 00 00 00 
    ed86:	48 c7 85 e0 f4 ff ff 	movq   $0x0,-0xb20(%rbp)
    ed8d:	00 00 00 00 
    ed91:	48 c7 85 e8 f4 ff ff 	movq   $0x0,-0xb18(%rbp)
    ed98:	00 00 00 00 
    ed9c:	48 8d 05 25 0f 01 00 	lea    0x10f25(%rip),%rax        # 1fcc8 <g_180>
    eda3:	48 89 85 f0 f4 ff ff 	mov    %rax,-0xb10(%rbp)
    edaa:	48 c7 85 f8 f4 ff ff 	movq   $0x0,-0xb08(%rbp)
    edb1:	00 00 00 00 
    edb5:	48 8d 85 e8 e5 ff ff 	lea    -0x1a18(%rbp),%rax
    edbc:	48 89 85 00 f5 ff ff 	mov    %rax,-0xb00(%rbp)
    edc3:	48 8d 05 fe 0e 01 00 	lea    0x10efe(%rip),%rax        # 1fcc8 <g_180>
    edca:	48 89 85 08 f5 ff ff 	mov    %rax,-0xaf8(%rbp)
    edd1:	48 c7 85 10 f5 ff ff 	movq   $0x0,-0xaf0(%rbp)
    edd8:	00 00 00 00 
    eddc:	48 8d 05 a5 14 01 00 	lea    0x114a5(%rip),%rax        # 20288 <g_942+0x48>
    ede3:	48 89 85 18 f5 ff ff 	mov    %rax,-0xae8(%rbp)
    edea:	48 8d 05 d7 0e 01 00 	lea    0x10ed7(%rip),%rax        # 1fcc8 <g_180>
    edf1:	48 89 85 20 f5 ff ff 	mov    %rax,-0xae0(%rbp)
    edf8:	48 8d 05 c9 0e 01 00 	lea    0x10ec9(%rip),%rax        # 1fcc8 <g_180>
    edff:	48 89 85 28 f5 ff ff 	mov    %rax,-0xad8(%rbp)
    ee06:	48 c7 85 30 f5 ff ff 	movq   $0x0,-0xad0(%rbp)
    ee0d:	00 00 00 00 
    ee11:	48 8d 05 b0 0e 01 00 	lea    0x10eb0(%rip),%rax        # 1fcc8 <g_180>
    ee18:	48 89 85 38 f5 ff ff 	mov    %rax,-0xac8(%rbp)
    ee1f:	48 8d 05 a2 0e 01 00 	lea    0x10ea2(%rip),%rax        # 1fcc8 <g_180>
    ee26:	48 89 85 40 f5 ff ff 	mov    %rax,-0xac0(%rbp)
    ee2d:	48 8d 05 54 14 01 00 	lea    0x11454(%rip),%rax        # 20288 <g_942+0x48>
    ee34:	48 89 85 48 f5 ff ff 	mov    %rax,-0xab8(%rbp)
    ee3b:	48 c7 85 50 f5 ff ff 	movq   $0x0,-0xab0(%rbp)
    ee42:	00 00 00 00 
    ee46:	48 8d 05 7b 0e 01 00 	lea    0x10e7b(%rip),%rax        # 1fcc8 <g_180>
    ee4d:	48 89 85 58 f5 ff ff 	mov    %rax,-0xaa8(%rbp)
    ee54:	48 8d 85 e8 e5 ff ff 	lea    -0x1a18(%rbp),%rax
    ee5b:	48 89 85 60 f5 ff ff 	mov    %rax,-0xaa0(%rbp)
    ee62:	48 c7 85 68 f5 ff ff 	movq   $0x0,-0xa98(%rbp)
    ee69:	00 00 00 00 
    ee6d:	48 8d 05 54 0e 01 00 	lea    0x10e54(%rip),%rax        # 1fcc8 <g_180>
    ee74:	48 89 85 70 f5 ff ff 	mov    %rax,-0xa90(%rbp)
    ee7b:	48 c7 85 78 f5 ff ff 	movq   $0x0,-0xa88(%rbp)
    ee82:	00 00 00 00 
    ee86:	48 c7 85 80 f5 ff ff 	movq   $0x0,-0xa80(%rbp)
    ee8d:	00 00 00 00 
    ee91:	48 c7 85 88 f5 ff ff 	movq   $0x0,-0xa78(%rbp)
    ee98:	00 00 00 00 
    ee9c:	48 c7 85 90 f5 ff ff 	movq   $0x0,-0xa70(%rbp)
    eea3:	00 00 00 00 
    eea7:	48 8d 05 1a 0e 01 00 	lea    0x10e1a(%rip),%rax        # 1fcc8 <g_180>
    eeae:	48 89 85 98 f5 ff ff 	mov    %rax,-0xa68(%rbp)
    eeb5:	48 c7 85 a0 f5 ff ff 	movq   $0x0,-0xa60(%rbp)
    eebc:	00 00 00 00 
    eec0:	48 8d 85 e8 e5 ff ff 	lea    -0x1a18(%rbp),%rax
    eec7:	48 89 85 a8 f5 ff ff 	mov    %rax,-0xa58(%rbp)
    eece:	48 8d 05 f3 0d 01 00 	lea    0x10df3(%rip),%rax        # 1fcc8 <g_180>
    eed5:	48 89 85 b0 f5 ff ff 	mov    %rax,-0xa50(%rbp)
    eedc:	48 c7 85 b8 f5 ff ff 	movq   $0x0,-0xa48(%rbp)
    eee3:	00 00 00 00 
    eee7:	48 8d 05 9a 13 01 00 	lea    0x1139a(%rip),%rax        # 20288 <g_942+0x48>
    eeee:	48 89 85 c0 f5 ff ff 	mov    %rax,-0xa40(%rbp)
    eef5:	48 8d 05 cc 0d 01 00 	lea    0x10dcc(%rip),%rax        # 1fcc8 <g_180>
    eefc:	48 89 85 c8 f5 ff ff 	mov    %rax,-0xa38(%rbp)
    ef03:	48 8d 05 be 0d 01 00 	lea    0x10dbe(%rip),%rax        # 1fcc8 <g_180>
    ef0a:	48 89 85 d0 f5 ff ff 	mov    %rax,-0xa30(%rbp)
    ef11:	48 c7 85 d8 f5 ff ff 	movq   $0x0,-0xa28(%rbp)
    ef18:	00 00 00 00 
    ef1c:	48 8d 05 a5 0d 01 00 	lea    0x10da5(%rip),%rax        # 1fcc8 <g_180>
    ef23:	48 89 85 e0 f5 ff ff 	mov    %rax,-0xa20(%rbp)
    ef2a:	48 8d 05 97 0d 01 00 	lea    0x10d97(%rip),%rax        # 1fcc8 <g_180>
    ef31:	48 89 85 e8 f5 ff ff 	mov    %rax,-0xa18(%rbp)
    ef38:	48 8d 05 49 13 01 00 	lea    0x11349(%rip),%rax        # 20288 <g_942+0x48>
    ef3f:	48 89 85 f0 f5 ff ff 	mov    %rax,-0xa10(%rbp)
    ef46:	48 c7 85 f8 f5 ff ff 	movq   $0x0,-0xa08(%rbp)
    ef4d:	00 00 00 00 
    ef51:	48 8d 05 70 0d 01 00 	lea    0x10d70(%rip),%rax        # 1fcc8 <g_180>
    ef58:	48 89 85 00 f6 ff ff 	mov    %rax,-0xa00(%rbp)
    ef5f:	48 8d 85 e8 e5 ff ff 	lea    -0x1a18(%rbp),%rax
    ef66:	48 89 85 08 f6 ff ff 	mov    %rax,-0x9f8(%rbp)
    ef6d:	48 c7 85 10 f6 ff ff 	movq   $0x0,-0x9f0(%rbp)
    ef74:	00 00 00 00 
    ef78:	48 8d 05 49 0d 01 00 	lea    0x10d49(%rip),%rax        # 1fcc8 <g_180>
    ef7f:	48 89 85 18 f6 ff ff 	mov    %rax,-0x9e8(%rbp)
    ef86:	48 c7 85 20 f6 ff ff 	movq   $0x0,-0x9e0(%rbp)
    ef8d:	00 00 00 00 
    ef91:	48 c7 85 28 f6 ff ff 	movq   $0x0,-0x9d8(%rbp)
    ef98:	00 00 00 00 
    ef9c:	48 c7 85 30 f6 ff ff 	movq   $0x0,-0x9d0(%rbp)
    efa3:	00 00 00 00 
    efa7:	48 c7 85 38 f6 ff ff 	movq   $0x0,-0x9c8(%rbp)
    efae:	00 00 00 00 
    efb2:	48 8d 05 0f 0d 01 00 	lea    0x10d0f(%rip),%rax        # 1fcc8 <g_180>
    efb9:	48 89 85 40 f6 ff ff 	mov    %rax,-0x9c0(%rbp)
    efc0:	48 c7 85 48 f6 ff ff 	movq   $0x0,-0x9b8(%rbp)
    efc7:	00 00 00 00 
    efcb:	48 8d 85 e8 e5 ff ff 	lea    -0x1a18(%rbp),%rax
    efd2:	48 89 85 50 f6 ff ff 	mov    %rax,-0x9b0(%rbp)
    efd9:	48 8d 05 e8 0c 01 00 	lea    0x10ce8(%rip),%rax        # 1fcc8 <g_180>
    efe0:	48 89 85 58 f6 ff ff 	mov    %rax,-0x9a8(%rbp)
    efe7:	48 c7 85 60 f6 ff ff 	movq   $0x0,-0x9a0(%rbp)
    efee:	00 00 00 00 
    eff2:	48 8d 05 8f 12 01 00 	lea    0x1128f(%rip),%rax        # 20288 <g_942+0x48>
    eff9:	48 89 85 68 f6 ff ff 	mov    %rax,-0x998(%rbp)
    f000:	48 8d 05 c1 0c 01 00 	lea    0x10cc1(%rip),%rax        # 1fcc8 <g_180>
    f007:	48 89 85 70 f6 ff ff 	mov    %rax,-0x990(%rbp)
    f00e:	48 8d 05 b3 0c 01 00 	lea    0x10cb3(%rip),%rax        # 1fcc8 <g_180>
    f015:	48 89 85 78 f6 ff ff 	mov    %rax,-0x988(%rbp)
    f01c:	48 c7 85 80 f6 ff ff 	movq   $0x0,-0x980(%rbp)
    f023:	00 00 00 00 
    f027:	48 8d 05 9a 0c 01 00 	lea    0x10c9a(%rip),%rax        # 1fcc8 <g_180>
    f02e:	48 89 85 88 f6 ff ff 	mov    %rax,-0x978(%rbp)
    f035:	48 8d 05 8c 0c 01 00 	lea    0x10c8c(%rip),%rax        # 1fcc8 <g_180>
    f03c:	48 89 85 90 f6 ff ff 	mov    %rax,-0x970(%rbp)
    f043:	48 8d 05 3e 12 01 00 	lea    0x1123e(%rip),%rax        # 20288 <g_942+0x48>
    f04a:	48 89 85 98 f6 ff ff 	mov    %rax,-0x968(%rbp)
    f051:	48 c7 85 a0 f6 ff ff 	movq   $0x0,-0x960(%rbp)
    f058:	00 00 00 00 
    f05c:	48 8d 05 65 0c 01 00 	lea    0x10c65(%rip),%rax        # 1fcc8 <g_180>
    f063:	48 89 85 a8 f6 ff ff 	mov    %rax,-0x958(%rbp)
    f06a:	48 8d 85 e8 e5 ff ff 	lea    -0x1a18(%rbp),%rax
    f071:	48 89 85 b0 f6 ff ff 	mov    %rax,-0x950(%rbp)
    f078:	48 c7 85 b8 f6 ff ff 	movq   $0x0,-0x948(%rbp)
    f07f:	00 00 00 00 
    f083:	48 8d 05 3e 0c 01 00 	lea    0x10c3e(%rip),%rax        # 1fcc8 <g_180>
    f08a:	48 89 85 c0 f6 ff ff 	mov    %rax,-0x940(%rbp)
    f091:	48 c7 85 c8 f6 ff ff 	movq   $0x0,-0x938(%rbp)
    f098:	00 00 00 00 
    f09c:	48 c7 85 d0 f6 ff ff 	movq   $0x0,-0x930(%rbp)
    f0a3:	00 00 00 00 
    f0a7:	48 c7 85 d8 f6 ff ff 	movq   $0x0,-0x928(%rbp)
    f0ae:	00 00 00 00 
    f0b2:	48 c7 85 e0 f6 ff ff 	movq   $0x0,-0x920(%rbp)
    f0b9:	00 00 00 00 
    f0bd:	48 8d 05 04 0c 01 00 	lea    0x10c04(%rip),%rax        # 1fcc8 <g_180>
    f0c4:	48 89 85 e8 f6 ff ff 	mov    %rax,-0x918(%rbp)
    f0cb:	48 c7 85 f0 f6 ff ff 	movq   $0x0,-0x910(%rbp)
    f0d2:	00 00 00 00 
    f0d6:	48 8d 85 e8 e5 ff ff 	lea    -0x1a18(%rbp),%rax
    f0dd:	48 89 85 f8 f6 ff ff 	mov    %rax,-0x908(%rbp)
    f0e4:	48 8d 05 dd 0b 01 00 	lea    0x10bdd(%rip),%rax        # 1fcc8 <g_180>
    f0eb:	48 89 85 00 f7 ff ff 	mov    %rax,-0x900(%rbp)
    f0f2:	48 c7 85 08 f7 ff ff 	movq   $0x0,-0x8f8(%rbp)
    f0f9:	00 00 00 00 
    f0fd:	48 8d 05 84 11 01 00 	lea    0x11184(%rip),%rax        # 20288 <g_942+0x48>
    f104:	48 89 85 10 f7 ff ff 	mov    %rax,-0x8f0(%rbp)
    f10b:	48 8d 05 b6 0b 01 00 	lea    0x10bb6(%rip),%rax        # 1fcc8 <g_180>
    f112:	48 89 85 18 f7 ff ff 	mov    %rax,-0x8e8(%rbp)
    f119:	48 8d 05 a8 0b 01 00 	lea    0x10ba8(%rip),%rax        # 1fcc8 <g_180>
    f120:	48 89 85 20 f7 ff ff 	mov    %rax,-0x8e0(%rbp)
    f127:	48 c7 85 28 f7 ff ff 	movq   $0x0,-0x8d8(%rbp)
    f12e:	00 00 00 00 
    f132:	48 8d 05 8f 0b 01 00 	lea    0x10b8f(%rip),%rax        # 1fcc8 <g_180>
    f139:	48 89 85 30 f7 ff ff 	mov    %rax,-0x8d0(%rbp)
    f140:	48 8d 05 81 0b 01 00 	lea    0x10b81(%rip),%rax        # 1fcc8 <g_180>
    f147:	48 89 85 38 f7 ff ff 	mov    %rax,-0x8c8(%rbp)
    f14e:	48 8d 05 33 11 01 00 	lea    0x11133(%rip),%rax        # 20288 <g_942+0x48>
    f155:	48 89 85 40 f7 ff ff 	mov    %rax,-0x8c0(%rbp)
    f15c:	48 c7 85 48 f7 ff ff 	movq   $0x0,-0x8b8(%rbp)
    f163:	00 00 00 00 
    f167:	48 8d 05 5a 0b 01 00 	lea    0x10b5a(%rip),%rax        # 1fcc8 <g_180>
    f16e:	48 89 85 50 f7 ff ff 	mov    %rax,-0x8b0(%rbp)
    f175:	48 8d 85 e8 e5 ff ff 	lea    -0x1a18(%rbp),%rax
    f17c:	48 89 85 58 f7 ff ff 	mov    %rax,-0x8a8(%rbp)
    f183:	48 c7 85 60 f7 ff ff 	movq   $0x0,-0x8a0(%rbp)
    f18a:	00 00 00 00 
    f18e:	48 8d 05 33 0b 01 00 	lea    0x10b33(%rip),%rax        # 1fcc8 <g_180>
    f195:	48 89 85 68 f7 ff ff 	mov    %rax,-0x898(%rbp)
    f19c:	48 c7 85 70 f7 ff ff 	movq   $0x0,-0x890(%rbp)
    f1a3:	00 00 00 00 
    f1a7:	48 c7 85 78 f7 ff ff 	movq   $0x0,-0x888(%rbp)
    f1ae:	00 00 00 00 
    f1b2:	48 c7 85 80 f7 ff ff 	movq   $0x0,-0x880(%rbp)
    f1b9:	00 00 00 00 
    f1bd:	48 c7 85 88 f7 ff ff 	movq   $0x0,-0x878(%rbp)
    f1c4:	00 00 00 00 
    f1c8:	48 8d 05 f9 0a 01 00 	lea    0x10af9(%rip),%rax        # 1fcc8 <g_180>
    f1cf:	48 89 85 90 f7 ff ff 	mov    %rax,-0x870(%rbp)
    f1d6:	48 c7 85 98 f7 ff ff 	movq   $0x0,-0x868(%rbp)
    f1dd:	00 00 00 00 
    f1e1:	48 8d 85 e8 e5 ff ff 	lea    -0x1a18(%rbp),%rax
    f1e8:	48 89 85 a0 f7 ff ff 	mov    %rax,-0x860(%rbp)
    f1ef:	48 8d 05 d2 0a 01 00 	lea    0x10ad2(%rip),%rax        # 1fcc8 <g_180>
    f1f6:	48 89 85 a8 f7 ff ff 	mov    %rax,-0x858(%rbp)
    f1fd:	48 c7 85 10 e6 ff ff 	movq   $0x0,-0x19f0(%rbp)
    f204:	00 00 00 00 
    f208:	48 c7 85 18 e6 ff ff 	movq   $0x0,-0x19e8(%rbp)
    f20f:	00 00 00 00 
    f213:	48 8d 05 16 e3 00 00 	lea    0xe316(%rip),%rax        # 1d530 <g_1071>
    f21a:	48 89 85 88 e8 ff ff 	mov    %rax,-0x1778(%rbp)
    f221:	48 8d 05 98 0a 01 00 	lea    0x10a98(%rip),%rax        # 1fcc0 <g_89>
    f228:	48 89 85 20 e6 ff ff 	mov    %rax,-0x19e0(%rbp)
    f22f:	48 8d 85 20 e6 ff ff 	lea    -0x19e0(%rbp),%rax
    f236:	48 89 85 90 e8 ff ff 	mov    %rax,-0x1770(%rbp)
    f23d:	48 c7 85 b0 ea ff ff 	movq   $0x0,-0x1550(%rbp)
    f244:	00 00 00 00 
    f248:	48 c7 85 b8 ea ff ff 	movq   $0x0,-0x1548(%rbp)
    f24f:	00 00 00 00 
    f253:	48 c7 85 c0 ea ff ff 	movq   $0x0,-0x1540(%rbp)
    f25a:	00 00 00 00 
    f25e:	48 c7 85 c8 ea ff ff 	movq   $0x0,-0x1538(%rbp)
    f265:	00 00 00 00 
    f269:	48 c7 85 d0 ea ff ff 	movq   $0x0,-0x1530(%rbp)
    f270:	00 00 00 00 
    f274:	48 c7 85 d8 ea ff ff 	movq   $0x0,-0x1528(%rbp)
    f27b:	00 00 00 00 
    f27f:	c7 85 b0 ea ff ff fb 	movl   $0xfffffffb,-0x1550(%rbp)
    f286:	ff ff ff 
    f289:	c7 85 b8 ea ff ff fb 	movl   $0xfffffffb,-0x1548(%rbp)
    f290:	ff ff ff 
    f293:	c7 85 c0 ea ff ff fb 	movl   $0xfffffffb,-0x1540(%rbp)
    f29a:	ff ff ff 
    f29d:	c7 85 c8 ea ff ff fb 	movl   $0xfffffffb,-0x1538(%rbp)
    f2a4:	ff ff ff 
    f2a7:	c7 85 d0 ea ff ff fb 	movl   $0xfffffffb,-0x1530(%rbp)
    f2ae:	ff ff ff 
    f2b1:	c7 85 d8 ea ff ff fb 	movl   $0xfffffffb,-0x1528(%rbp)
    f2b8:	ff ff ff 
    f2bb:	c7 85 3c e5 ff ff 00 	movl   $0x0,-0x1ac4(%rbp)
    f2c2:	00 00 00 
    f2c5:	eb 1e                	jmp    f2e5 <func_14+0xfb8>
    f2c7:	8b 85 3c e5 ff ff    	mov    -0x1ac4(%rbp),%eax
    f2cd:	48 98                	cltq   
    f2cf:	48 8d 15 30 e2 00 00 	lea    0xe230(%rip),%rdx        # 1d506 <g_677>
    f2d6:	48 89 94 c5 60 ea ff 	mov    %rdx,-0x15a0(%rbp,%rax,8)
    f2dd:	ff 
    f2de:	83 85 3c e5 ff ff 01 	addl   $0x1,-0x1ac4(%rbp)
    f2e5:	83 bd 3c e5 ff ff 03 	cmpl   $0x3,-0x1ac4(%rbp)
    f2ec:	7e d9                	jle    f2c7 <func_14+0xf9a>
    f2ee:	8b 85 d0 ee ff ff    	mov    -0x1130(%rbp),%eax
    f2f4:	48 63 d0             	movslq %eax,%rdx
    f2f7:	8b 05 e3 df 00 00    	mov    0xdfe3(%rip),%eax        # 1d2e0 <g_176+0x280>
    f2fd:	89 05 35 e2 00 00    	mov    %eax,0xe235(%rip)        # 1d538 <g_1148>
    f303:	8b 05 2f e2 00 00    	mov    0xe22f(%rip),%eax        # 1d538 <g_1148>
    f309:	89 c1                	mov    %eax,%ecx
    f30b:	48 8b 05 26 dd 00 00 	mov    0xdd26(%rip),%rax        # 1d038 <g_91>
    f312:	48 21 c8             	and    %rcx,%rax
    f315:	48 39 c2             	cmp    %rax,%rdx
    f318:	0f 95 c2             	setne  %dl
    f31b:	48 8b 05 a6 09 01 00 	mov    0x109a6(%rip),%rax        # 1fcc8 <g_180>
    f322:	0f b6 d2             	movzbl %dl,%edx
    f325:	89 10                	mov    %edx,(%rax)
    f327:	8b 10                	mov    (%rax),%edx
    f329:	8b 85 3c e9 ff ff    	mov    -0x16c4(%rbp),%eax
    f32f:	89 d6                	mov    %edx,%esi
    f331:	89 c7                	mov    %eax,%edi
    f333:	e8 0a 93 ff ff       	callq  8642 <safe_mul_func_int32_t_s_s>
    f338:	89 c2                	mov    %eax,%edx
    f33a:	8b 85 30 e9 ff ff    	mov    -0x16d0(%rbp),%eax
    f340:	f7 d0                	not    %eax
    f342:	0f be c0             	movsbl %al,%eax
    f345:	89 d6                	mov    %edx,%esi
    f347:	89 c7                	mov    %eax,%edi
    f349:	e8 53 8f ff ff       	callq  82a1 <safe_lshift_func_int8_t_s_s>
    f34e:	0f b6 85 f4 e4 ff ff 	movzbl -0x1b0c(%rbp),%eax
    f355:	0f b6 d0             	movzbl %al,%edx
    f358:	48 8b 05 09 0a 01 00 	mov    0x10a09(%rip),%rax        # 1fd68 <g_706>
    f35f:	0f b6 00             	movzbl (%rax),%eax
    f362:	0f b6 c0             	movzbl %al,%eax
    f365:	89 d6                	mov    %edx,%esi
    f367:	89 c7                	mov    %eax,%edi
    f369:	e8 6d 98 ff ff       	callq  8bdb <safe_div_func_uint8_t_u_u>
    f36e:	0f b6 c0             	movzbl %al,%eax
    f371:	be 00 00 00 00       	mov    $0x0,%esi
    f376:	89 c7                	mov    %eax,%edi
    f378:	e8 88 92 ff ff       	callq  8605 <safe_sub_func_int32_t_s_s>
    f37d:	48 8d 85 20 e9 ff ff 	lea    -0x16e0(%rbp),%rax
    f384:	48 83 c0 1c          	add    $0x1c,%rax
    f388:	48 89 85 e8 e5 ff ff 	mov    %rax,-0x1a18(%rbp)
    f38f:	48 8b 85 e8 e5 ff ff 	mov    -0x1a18(%rbp),%rax
    f396:	48 8d 95 20 e9 ff ff 	lea    -0x16e0(%rbp),%rdx
    f39d:	48 83 c2 1c          	add    $0x1c,%rdx
    f3a1:	48 39 d0             	cmp    %rdx,%rax
    f3a4:	0f 94 c0             	sete   %al
    f3a7:	0f b6 c0             	movzbl %al,%eax
    f3aa:	89 85 2c e9 ff ff    	mov    %eax,-0x16d4(%rbp)
    f3b0:	c7 05 2a e1 00 00 00 	movl   $0x0,0xe12a(%rip)        # 1d4e4 <g_264>
    f3b7:	00 00 00 
    f3ba:	eb 6c                	jmp    f428 <func_14+0x10fb>
    f3bc:	48 8d 85 20 e9 ff ff 	lea    -0x16e0(%rbp),%rax
    f3c3:	48 83 c0 1c          	add    $0x1c,%rax
    f3c7:	48 89 85 e8 e8 ff ff 	mov    %rax,-0x1718(%rbp)
    f3ce:	48 8d 05 c3 09 01 00 	lea    0x109c3(%rip),%rax        # 1fd98 <g_764>
    f3d5:	48 89 85 f0 e8 ff ff 	mov    %rax,-0x1710(%rbp)
    f3dc:	48 8b 85 f0 e8 ff ff 	mov    -0x1710(%rbp),%rax
    f3e3:	48 8b 95 e8 e8 ff ff 	mov    -0x1718(%rbp),%rdx
    f3ea:	48 89 10             	mov    %rdx,(%rax)
    f3ed:	48 8b 85 e8 e5 ff ff 	mov    -0x1a18(%rbp),%rax
    f3f4:	8b 00                	mov    (%rax),%eax
    f3f6:	89 c2                	mov    %eax,%edx
    f3f8:	48 8b 05 49 e1 00 00 	mov    0xe149(%rip),%rax        # 1d548 <g_1457>
    f3ff:	09 c2                	or     %eax,%edx
    f401:	48 8b 85 e8 e5 ff ff 	mov    -0x1a18(%rbp),%rax
    f408:	89 10                	mov    %edx,(%rax)
    f40a:	8b 05 d4 e0 00 00    	mov    0xe0d4(%rip),%eax        # 1d4e4 <g_264>
    f410:	0f b6 c0             	movzbl %al,%eax
    f413:	be 03 00 00 00       	mov    $0x3,%esi
    f418:	89 c7                	mov    %eax,%edi
    f41a:	e8 3b 97 ff ff       	callq  8b5a <safe_add_func_uint8_t_u_u>
    f41f:	0f b6 c0             	movzbl %al,%eax
    f422:	89 05 bc e0 00 00    	mov    %eax,0xe0bc(%rip)        # 1d4e4 <g_264>
    f428:	8b 05 b6 e0 00 00    	mov    0xe0b6(%rip),%eax        # 1d4e4 <g_264>
    f42e:	83 f8 15             	cmp    $0x15,%eax
    f431:	75 89                	jne    f3bc <func_14+0x108f>
    f433:	48 8b 95 e8 e5 ff ff 	mov    -0x1a18(%rbp),%rdx
    f43a:	48 8b 85 e8 e5 ff ff 	mov    -0x1a18(%rbp),%rax
    f441:	8b 12                	mov    (%rdx),%edx
    f443:	89 10                	mov    %edx,(%rax)
    f445:	48 8b 85 88 e8 ff ff 	mov    -0x1778(%rbp),%rax
    f44c:	0f b6 00             	movzbl (%rax),%eax
    f44f:	8d 50 ff             	lea    -0x1(%rax),%edx
    f452:	48 8b 85 88 e8 ff ff 	mov    -0x1778(%rbp),%rax
    f459:	88 10                	mov    %dl,(%rax)
    f45b:	0f b7 85 0e e5 ff ff 	movzwl -0x1af2(%rbp),%eax
    f462:	0f b6 c0             	movzbl %al,%eax
    f465:	89 c7                	mov    %eax,%edi
    f467:	e8 d9 96 ff ff       	callq  8b45 <safe_unary_minus_func_uint8_t_u>
    f46c:	84 c0                	test   %al,%al
    f46e:	0f 85 bf 00 00 00    	jne    f533 <func_14+0x1206>
    f474:	48 8b 85 e8 e5 ff ff 	mov    -0x1a18(%rbp),%rax
    f47b:	8b 00                	mov    (%rax),%eax
    f47d:	0f b7 d8             	movzwl %ax,%ebx
    f480:	8b 85 40 e9 ff ff    	mov    -0x16c0(%rbp),%eax
    f486:	41 89 c4             	mov    %eax,%r12d
    f489:	48 8b 05 d0 08 01 00 	mov    0x108d0(%rip),%rax        # 1fd60 <g_700>
    f490:	48 8b 00             	mov    (%rax),%rax
    f493:	0f b6 85 f4 e4 ff ff 	movzbl -0x1b0c(%rbp),%eax
    f49a:	0f be c0             	movsbl %al,%eax
    f49d:	48 8b 95 e8 e5 ff ff 	mov    -0x1a18(%rbp),%rdx
    f4a4:	8b 0a                	mov    (%rdx),%ecx
    f4a6:	0f b6 95 f4 e4 ff ff 	movzbl -0x1b0c(%rbp),%edx
    f4ad:	0f be d2             	movsbl %dl,%edx
    f4b0:	39 d1                	cmp    %edx,%ecx
    f4b2:	0f 95 c2             	setne  %dl
    f4b5:	0f b6 ca             	movzbl %dl,%ecx
    f4b8:	0f b7 95 f8 e4 ff ff 	movzwl -0x1b08(%rbp),%edx
    f4bf:	31 ca                	xor    %ecx,%edx
    f4c1:	89 c6                	mov    %eax,%esi
    f4c3:	89 d7                	mov    %edx,%edi
    f4c5:	e8 33 9a ff ff       	callq  8efd <safe_mod_func_uint32_t_u_u>
    f4ca:	0f b7 c0             	movzwl %ax,%eax
    f4cd:	44 89 e6             	mov    %r12d,%esi
    f4d0:	89 c7                	mov    %eax,%edi
    f4d2:	e8 a3 99 ff ff       	callq  8e7a <safe_rshift_func_uint16_t_u_u>
    f4d7:	0f b7 c0             	movzwl %ax,%eax
    f4da:	89 de                	mov    %ebx,%esi
    f4dc:	89 c7                	mov    %eax,%edi
    f4de:	e8 5a 98 ff ff       	callq  8d3d <safe_mul_func_uint16_t_u_u>
    f4e3:	48 8b 05 46 0f 01 00 	mov    0x10f46(%rip),%rax        # 20430 <g_1246>
    f4ea:	48 8b 00             	mov    (%rax),%rax
    f4ed:	48 8b 00             	mov    (%rax),%rax
    f4f0:	48 8b 95 70 e8 ff ff 	mov    -0x1790(%rbp),%rdx
    f4f7:	48 89 10             	mov    %rdx,(%rax)
    f4fa:	48 8b 08             	mov    (%rax),%rcx
    f4fd:	48 8b 85 90 e8 ff ff 	mov    -0x1770(%rbp),%rax
    f504:	48 8b 95 70 e8 ff ff 	mov    -0x1790(%rbp),%rdx
    f50b:	48 89 10             	mov    %rdx,(%rax)
    f50e:	48 8b 85 90 e8 ff ff 	mov    -0x1770(%rbp),%rax
    f515:	48 8b 00             	mov    (%rax),%rax
    f518:	48 39 c1             	cmp    %rax,%rcx
    f51b:	0f 95 c0             	setne  %al
    f51e:	0f b6 d0             	movzbl %al,%edx
    f521:	48 8b 05 48 16 01 00 	mov    0x11648(%rip),%rax        # 20b70 <g_300+0x10>
    f528:	48 85 c0             	test   %rax,%rax
    f52b:	0f 95 c0             	setne  %al
    f52e:	0f b6 c0             	movzbl %al,%eax
    f531:	39 c2                	cmp    %eax,%edx
    f533:	b8 01 00 00 00       	mov    $0x1,%eax
    f538:	48 98                	cltq   
    f53a:	48 be 1b bb 11 09 2d 	movabs $0xafd6092d0911bb1b,%rsi
    f541:	09 d6 af 
    f544:	48 89 c7             	mov    %rax,%rdi
    f547:	e8 ab 94 ff ff       	callq  89f7 <safe_div_func_int64_t_s_s>
    f54c:	89 85 20 e5 ff ff    	mov    %eax,-0x1ae0(%rbp)
    f552:	66 c7 05 85 df 00 00 	movw   $0x17,0xdf85(%rip)        # 1d4e0 <g_255>
    f559:	17 00 
    f55b:	e9 db 16 00 00       	jmpq   10c3b <func_14+0x290e>
    f560:	48 b8 9c f3 91 1f e2 	movabs $0x66364ce21f91f39c,%rax
    f567:	4c 36 66 
    f56a:	48 89 85 98 e8 ff ff 	mov    %rax,-0x1768(%rbp)
    f571:	48 8d 85 30 e5 ff ff 	lea    -0x1ad0(%rbp),%rax
    f578:	48 89 85 a0 e8 ff ff 	mov    %rax,-0x1760(%rbp)
    f57f:	c6 85 09 e5 ff ff 01 	movb   $0x1,-0x1af7(%rbp)
    f586:	48 8b 05 13 08 01 00 	mov    0x10813(%rip),%rax        # 1fda0 <g_763>
    f58d:	48 8b 00             	mov    (%rax),%rax
    f590:	8b 00                	mov    (%rax),%eax
    f592:	85 c0                	test   %eax,%eax
    f594:	0f 85 c7 16 00 00    	jne    10c61 <func_14+0x2934>
    f59a:	48 8b 85 e8 e5 ff ff 	mov    -0x1a18(%rbp),%rax
    f5a1:	8b 00                	mov    (%rax),%eax
    f5a3:	85 c0                	test   %eax,%eax
    f5a5:	0f 85 74 16 00 00    	jne    10c1f <func_14+0x28f2>
    f5ab:	48 8b 85 c0 e5 ff ff 	mov    -0x1a40(%rbp),%rax
    f5b2:	48 8d 95 90 ee ff ff 	lea    -0x1170(%rbp),%rdx
    f5b9:	48 83 c2 40          	add    $0x40,%rdx
    f5bd:	48 39 d0             	cmp    %rdx,%rax
    f5c0:	0f 95 c0             	setne  %al
    f5c3:	89 c2                	mov    %eax,%edx
    f5c5:	0f b6 85 30 e5 ff ff 	movzbl -0x1ad0(%rbp),%eax
    f5cc:	31 d0                	xor    %edx,%eax
    f5ce:	88 85 30 e5 ff ff    	mov    %al,-0x1ad0(%rbp)
    f5d4:	0f b6 85 30 e5 ff ff 	movzbl -0x1ad0(%rbp),%eax
    f5db:	0f be d0             	movsbl %al,%edx
    f5de:	48 8b 85 98 e8 ff ff 	mov    -0x1768(%rbp),%rax
    f5e5:	0f be c0             	movsbl %al,%eax
    f5e8:	89 d6                	mov    %edx,%esi
    f5ea:	89 c7                	mov    %eax,%edi
    f5ec:	e8 79 8c ff ff       	callq  826a <safe_div_func_int8_t_s_s>
    f5f1:	48 8b 05 68 07 01 00 	mov    0x10768(%rip),%rax        # 1fd60 <g_700>
    f5f8:	48 8b 00             	mov    (%rax),%rax
    f5fb:	48 8b 00             	mov    (%rax),%rax
    f5fe:	89 c2                	mov    %eax,%edx
    f600:	0f bf 85 fc e4 ff ff 	movswl -0x1b04(%rbp),%eax
    f607:	89 d3                	mov    %edx,%ebx
    f609:	31 c3                	xor    %eax,%ebx
    f60b:	48 8b 85 c0 e5 ff ff 	mov    -0x1a40(%rbp),%rax
    f612:	8b 00                	mov    (%rax),%eax
    f614:	0f b6 c0             	movzbl %al,%eax
    f617:	be cc 00 00 00       	mov    $0xcc,%esi
    f61c:	89 c7                	mov    %eax,%edi
    f61e:	e8 37 95 ff ff       	callq  8b5a <safe_add_func_uint8_t_u_u>
    f623:	0f b6 c0             	movzbl %al,%eax
    f626:	89 de                	mov    %ebx,%esi
    f628:	89 c7                	mov    %eax,%edi
    f62a:	e8 89 98 ff ff       	callq  8eb8 <safe_add_func_uint32_t_u_u>
    f62f:	89 c2                	mov    %eax,%edx
    f631:	48 8b 85 c0 e5 ff ff 	mov    -0x1a40(%rbp),%rax
    f638:	89 10                	mov    %edx,(%rax)
    f63a:	8b 00                	mov    (%rax),%eax
    f63c:	85 c0                	test   %eax,%eax
    f63e:	0f 84 47 10 00 00    	je     1068b <func_14+0x235e>
    f644:	48 c7 85 d8 e8 ff ff 	movq   $0x0,-0x1728(%rbp)
    f64b:	00 00 00 00 
    f64f:	48 8d 05 22 15 01 00 	lea    0x11522(%rip),%rax        # 20b78 <g_474>
    f656:	48 89 85 e0 e8 ff ff 	mov    %rax,-0x1720(%rbp)
    f65d:	48 8d 85 60 ea ff ff 	lea    -0x15a0(%rbp),%rax
    f664:	48 83 c0 18          	add    $0x18,%rax
    f668:	48 89 85 b0 f7 ff ff 	mov    %rax,-0x850(%rbp)
    f66f:	48 8d 85 60 ea ff ff 	lea    -0x15a0(%rbp),%rax
    f676:	48 83 c0 08          	add    $0x8,%rax
    f67a:	48 89 85 b8 f7 ff ff 	mov    %rax,-0x848(%rbp)
    f681:	48 8d 85 60 ea ff ff 	lea    -0x15a0(%rbp),%rax
    f688:	48 83 c0 18          	add    $0x18,%rax
    f68c:	48 89 85 c0 f7 ff ff 	mov    %rax,-0x840(%rbp)
    f693:	48 8d 85 60 ea ff ff 	lea    -0x15a0(%rbp),%rax
    f69a:	48 83 c0 18          	add    $0x18,%rax
    f69e:	48 89 85 c8 f7 ff ff 	mov    %rax,-0x838(%rbp)
    f6a5:	48 8d 85 60 ea ff ff 	lea    -0x15a0(%rbp),%rax
    f6ac:	48 83 c0 18          	add    $0x18,%rax
    f6b0:	48 89 85 d0 f7 ff ff 	mov    %rax,-0x830(%rbp)
    f6b7:	48 c7 85 d8 f7 ff ff 	movq   $0x0,-0x828(%rbp)
    f6be:	00 00 00 00 
    f6c2:	48 8d 85 10 e6 ff ff 	lea    -0x19f0(%rbp),%rax
    f6c9:	48 89 85 e0 f7 ff ff 	mov    %rax,-0x820(%rbp)
    f6d0:	48 c7 85 e8 f7 ff ff 	movq   $0x0,-0x818(%rbp)
    f6d7:	00 00 00 00 
    f6db:	48 8d 85 10 e6 ff ff 	lea    -0x19f0(%rbp),%rax
    f6e2:	48 89 85 f0 f7 ff ff 	mov    %rax,-0x810(%rbp)
    f6e9:	48 8d 85 60 ea ff ff 	lea    -0x15a0(%rbp),%rax
    f6f0:	48 83 c0 08          	add    $0x8,%rax
    f6f4:	48 89 85 f8 f7 ff ff 	mov    %rax,-0x808(%rbp)
    f6fb:	48 8d 85 10 e6 ff ff 	lea    -0x19f0(%rbp),%rax
    f702:	48 89 85 00 f8 ff ff 	mov    %rax,-0x800(%rbp)
    f709:	48 8d 85 10 e6 ff ff 	lea    -0x19f0(%rbp),%rax
    f710:	48 89 85 08 f8 ff ff 	mov    %rax,-0x7f8(%rbp)
    f717:	48 8d 85 60 ea ff ff 	lea    -0x15a0(%rbp),%rax
    f71e:	48 83 c0 08          	add    $0x8,%rax
    f722:	48 89 85 10 f8 ff ff 	mov    %rax,-0x7f0(%rbp)
    f729:	48 c7 85 18 f8 ff ff 	movq   $0x0,-0x7e8(%rbp)
    f730:	00 00 00 00 
    f734:	48 8d 85 60 ea ff ff 	lea    -0x15a0(%rbp),%rax
    f73b:	48 83 c0 18          	add    $0x18,%rax
    f73f:	48 89 85 20 f8 ff ff 	mov    %rax,-0x7e0(%rbp)
    f746:	48 8d 85 10 e6 ff ff 	lea    -0x19f0(%rbp),%rax
    f74d:	48 89 85 28 f8 ff ff 	mov    %rax,-0x7d8(%rbp)
    f754:	48 8d 85 60 ea ff ff 	lea    -0x15a0(%rbp),%rax
    f75b:	48 83 c0 18          	add    $0x18,%rax
    f75f:	48 89 85 30 f8 ff ff 	mov    %rax,-0x7d0(%rbp)
    f766:	48 8d 85 60 ea ff ff 	lea    -0x15a0(%rbp),%rax
    f76d:	48 83 c0 18          	add    $0x18,%rax
    f771:	48 89 85 38 f8 ff ff 	mov    %rax,-0x7c8(%rbp)
    f778:	48 8d 85 10 e6 ff ff 	lea    -0x19f0(%rbp),%rax
    f77f:	48 89 85 40 f8 ff ff 	mov    %rax,-0x7c0(%rbp)
    f786:	48 c7 85 48 f8 ff ff 	movq   $0x0,-0x7b8(%rbp)
    f78d:	00 00 00 00 
    f791:	48 8d 85 60 ea ff ff 	lea    -0x15a0(%rbp),%rax
    f798:	48 83 c0 18          	add    $0x18,%rax
    f79c:	48 89 85 50 f8 ff ff 	mov    %rax,-0x7b0(%rbp)
    f7a3:	48 c7 85 58 f8 ff ff 	movq   $0x0,-0x7a8(%rbp)
    f7aa:	00 00 00 00 
    f7ae:	48 8d 85 60 ea ff ff 	lea    -0x15a0(%rbp),%rax
    f7b5:	48 83 c0 18          	add    $0x18,%rax
    f7b9:	48 89 85 60 f8 ff ff 	mov    %rax,-0x7a0(%rbp)
    f7c0:	48 8d 85 60 ea ff ff 	lea    -0x15a0(%rbp),%rax
    f7c7:	48 83 c0 18          	add    $0x18,%rax
    f7cb:	48 89 85 68 f8 ff ff 	mov    %rax,-0x798(%rbp)
    f7d2:	48 8d 85 60 ea ff ff 	lea    -0x15a0(%rbp),%rax
    f7d9:	48 83 c0 18          	add    $0x18,%rax
    f7dd:	48 89 85 70 f8 ff ff 	mov    %rax,-0x790(%rbp)
    f7e4:	48 8d 85 60 ea ff ff 	lea    -0x15a0(%rbp),%rax
    f7eb:	48 83 c0 08          	add    $0x8,%rax
    f7ef:	48 89 85 78 f8 ff ff 	mov    %rax,-0x788(%rbp)
    f7f6:	48 8d 85 60 ea ff ff 	lea    -0x15a0(%rbp),%rax
    f7fd:	48 83 c0 08          	add    $0x8,%rax
    f801:	48 89 85 80 f8 ff ff 	mov    %rax,-0x780(%rbp)
    f808:	48 8d 85 60 ea ff ff 	lea    -0x15a0(%rbp),%rax
    f80f:	48 83 c0 18          	add    $0x18,%rax
    f813:	48 89 85 88 f8 ff ff 	mov    %rax,-0x778(%rbp)
    f81a:	48 8d 85 10 e6 ff ff 	lea    -0x19f0(%rbp),%rax
    f821:	48 89 85 90 f8 ff ff 	mov    %rax,-0x770(%rbp)
    f828:	48 8d 85 60 ea ff ff 	lea    -0x15a0(%rbp),%rax
    f82f:	48 83 c0 18          	add    $0x18,%rax
    f833:	48 89 85 98 f8 ff ff 	mov    %rax,-0x768(%rbp)
    f83a:	48 8d 85 10 e6 ff ff 	lea    -0x19f0(%rbp),%rax
    f841:	48 89 85 a0 f8 ff ff 	mov    %rax,-0x760(%rbp)
    f848:	48 8d 85 60 ea ff ff 	lea    -0x15a0(%rbp),%rax
    f84f:	48 83 c0 18          	add    $0x18,%rax
    f853:	48 89 85 a8 f8 ff ff 	mov    %rax,-0x758(%rbp)
    f85a:	48 8d 85 60 ea ff ff 	lea    -0x15a0(%rbp),%rax
    f861:	48 89 85 b0 f8 ff ff 	mov    %rax,-0x750(%rbp)
    f868:	48 c7 85 b8 f8 ff ff 	movq   $0x0,-0x748(%rbp)
    f86f:	00 00 00 00 
    f873:	48 8d 85 60 ea ff ff 	lea    -0x15a0(%rbp),%rax
    f87a:	48 83 c0 10          	add    $0x10,%rax
    f87e:	48 89 85 c0 f8 ff ff 	mov    %rax,-0x740(%rbp)
    f885:	48 8d 85 60 ea ff ff 	lea    -0x15a0(%rbp),%rax
    f88c:	48 83 c0 08          	add    $0x8,%rax
    f890:	48 89 85 c8 f8 ff ff 	mov    %rax,-0x738(%rbp)
    f897:	48 8d 85 10 e6 ff ff 	lea    -0x19f0(%rbp),%rax
    f89e:	48 89 85 d0 f8 ff ff 	mov    %rax,-0x730(%rbp)
    f8a5:	48 8d 85 60 ea ff ff 	lea    -0x15a0(%rbp),%rax
    f8ac:	48 83 c0 08          	add    $0x8,%rax
    f8b0:	48 89 85 d8 f8 ff ff 	mov    %rax,-0x728(%rbp)
    f8b7:	48 8d 85 10 e6 ff ff 	lea    -0x19f0(%rbp),%rax
    f8be:	48 89 85 e0 f8 ff ff 	mov    %rax,-0x720(%rbp)
    f8c5:	48 8d 85 60 ea ff ff 	lea    -0x15a0(%rbp),%rax
    f8cc:	48 83 c0 18          	add    $0x18,%rax
    f8d0:	48 89 85 e8 f8 ff ff 	mov    %rax,-0x718(%rbp)
    f8d7:	48 8d 85 60 ea ff ff 	lea    -0x15a0(%rbp),%rax
    f8de:	48 83 c0 08          	add    $0x8,%rax
    f8e2:	48 89 85 f0 f8 ff ff 	mov    %rax,-0x710(%rbp)
    f8e9:	48 8d 85 60 ea ff ff 	lea    -0x15a0(%rbp),%rax
    f8f0:	48 83 c0 18          	add    $0x18,%rax
    f8f4:	48 89 85 f8 f8 ff ff 	mov    %rax,-0x708(%rbp)
    f8fb:	48 8d 85 10 e6 ff ff 	lea    -0x19f0(%rbp),%rax
    f902:	48 89 85 00 f9 ff ff 	mov    %rax,-0x700(%rbp)
    f909:	48 c7 85 08 f9 ff ff 	movq   $0x0,-0x6f8(%rbp)
    f910:	00 00 00 00 
    f914:	48 8d 85 10 e6 ff ff 	lea    -0x19f0(%rbp),%rax
    f91b:	48 89 85 10 f9 ff ff 	mov    %rax,-0x6f0(%rbp)
    f922:	48 8d 85 60 ea ff ff 	lea    -0x15a0(%rbp),%rax
    f929:	48 83 c0 10          	add    $0x10,%rax
    f92d:	48 89 85 18 f9 ff ff 	mov    %rax,-0x6e8(%rbp)
    f934:	48 c7 85 20 f9 ff ff 	movq   $0x0,-0x6e0(%rbp)
    f93b:	00 00 00 00 
    f93f:	48 c7 85 28 f9 ff ff 	movq   $0x0,-0x6d8(%rbp)
    f946:	00 00 00 00 
    f94a:	48 8d 85 10 e6 ff ff 	lea    -0x19f0(%rbp),%rax
    f951:	48 89 85 30 f9 ff ff 	mov    %rax,-0x6d0(%rbp)
    f958:	48 8d 85 60 ea ff ff 	lea    -0x15a0(%rbp),%rax
    f95f:	48 83 c0 18          	add    $0x18,%rax
    f963:	48 89 85 38 f9 ff ff 	mov    %rax,-0x6c8(%rbp)
    f96a:	48 c7 85 40 f9 ff ff 	movq   $0x0,-0x6c0(%rbp)
    f971:	00 00 00 00 
    f975:	48 c7 85 48 f9 ff ff 	movq   $0x0,-0x6b8(%rbp)
    f97c:	00 00 00 00 
    f980:	48 8d 85 60 ea ff ff 	lea    -0x15a0(%rbp),%rax
    f987:	48 83 c0 18          	add    $0x18,%rax
    f98b:	48 89 85 50 f9 ff ff 	mov    %rax,-0x6b0(%rbp)
    f992:	48 8d 85 60 ea ff ff 	lea    -0x15a0(%rbp),%rax
    f999:	48 89 85 58 f9 ff ff 	mov    %rax,-0x6a8(%rbp)
    f9a0:	48 8d 85 60 ea ff ff 	lea    -0x15a0(%rbp),%rax
    f9a7:	48 83 c0 08          	add    $0x8,%rax
    f9ab:	48 89 85 60 f9 ff ff 	mov    %rax,-0x6a0(%rbp)
    f9b2:	48 8d 85 10 e6 ff ff 	lea    -0x19f0(%rbp),%rax
    f9b9:	48 89 85 68 f9 ff ff 	mov    %rax,-0x698(%rbp)
    f9c0:	48 8d 85 10 e6 ff ff 	lea    -0x19f0(%rbp),%rax
    f9c7:	48 89 85 70 f9 ff ff 	mov    %rax,-0x690(%rbp)
    f9ce:	48 c7 85 78 f9 ff ff 	movq   $0x0,-0x688(%rbp)
    f9d5:	00 00 00 00 
    f9d9:	48 8d 85 60 ea ff ff 	lea    -0x15a0(%rbp),%rax
    f9e0:	48 89 85 80 f9 ff ff 	mov    %rax,-0x680(%rbp)
    f9e7:	48 8d 85 10 e6 ff ff 	lea    -0x19f0(%rbp),%rax
    f9ee:	48 89 85 88 f9 ff ff 	mov    %rax,-0x678(%rbp)
    f9f5:	48 c7 85 90 f9 ff ff 	movq   $0x0,-0x670(%rbp)
    f9fc:	00 00 00 00 
    fa00:	48 c7 85 98 f9 ff ff 	movq   $0x0,-0x668(%rbp)
    fa07:	00 00 00 00 
    fa0b:	48 8d 85 60 ea ff ff 	lea    -0x15a0(%rbp),%rax
    fa12:	48 83 c0 18          	add    $0x18,%rax
    fa16:	48 89 85 a0 f9 ff ff 	mov    %rax,-0x660(%rbp)
    fa1d:	48 8d 85 60 ea ff ff 	lea    -0x15a0(%rbp),%rax
    fa24:	48 83 c0 18          	add    $0x18,%rax
    fa28:	48 89 85 a8 f9 ff ff 	mov    %rax,-0x658(%rbp)
    fa2f:	48 c7 85 b0 f9 ff ff 	movq   $0x0,-0x650(%rbp)
    fa36:	00 00 00 00 
    fa3a:	48 8d 85 60 ea ff ff 	lea    -0x15a0(%rbp),%rax
    fa41:	48 83 c0 18          	add    $0x18,%rax
    fa45:	48 89 85 b8 f9 ff ff 	mov    %rax,-0x648(%rbp)
    fa4c:	48 8d 85 60 ea ff ff 	lea    -0x15a0(%rbp),%rax
    fa53:	48 89 85 c0 f9 ff ff 	mov    %rax,-0x640(%rbp)
    fa5a:	48 8d 85 60 ea ff ff 	lea    -0x15a0(%rbp),%rax
    fa61:	48 83 c0 18          	add    $0x18,%rax
    fa65:	48 89 85 c8 f9 ff ff 	mov    %rax,-0x638(%rbp)
    fa6c:	48 8d 85 10 e6 ff ff 	lea    -0x19f0(%rbp),%rax
    fa73:	48 89 85 d0 f9 ff ff 	mov    %rax,-0x630(%rbp)
    fa7a:	48 8d 85 60 ea ff ff 	lea    -0x15a0(%rbp),%rax
    fa81:	48 83 c0 08          	add    $0x8,%rax
    fa85:	48 89 85 d8 f9 ff ff 	mov    %rax,-0x628(%rbp)
    fa8c:	48 8d 85 60 ea ff ff 	lea    -0x15a0(%rbp),%rax
    fa93:	48 83 c0 18          	add    $0x18,%rax
    fa97:	48 89 85 e0 f9 ff ff 	mov    %rax,-0x620(%rbp)
    fa9e:	48 8d 85 10 e6 ff ff 	lea    -0x19f0(%rbp),%rax
    faa5:	48 89 85 e8 f9 ff ff 	mov    %rax,-0x618(%rbp)
    faac:	48 c7 85 f0 f9 ff ff 	movq   $0x0,-0x610(%rbp)
    fab3:	00 00 00 00 
    fab7:	48 8d 85 10 e6 ff ff 	lea    -0x19f0(%rbp),%rax
    fabe:	48 89 85 f8 f9 ff ff 	mov    %rax,-0x608(%rbp)
    fac5:	48 8d 85 60 ea ff ff 	lea    -0x15a0(%rbp),%rax
    facc:	48 83 c0 18          	add    $0x18,%rax
    fad0:	48 89 85 00 fa ff ff 	mov    %rax,-0x600(%rbp)
    fad7:	48 8d 85 60 ea ff ff 	lea    -0x15a0(%rbp),%rax
    fade:	48 83 c0 18          	add    $0x18,%rax
    fae2:	48 89 85 08 fa ff ff 	mov    %rax,-0x5f8(%rbp)
    fae9:	48 8d 85 10 e6 ff ff 	lea    -0x19f0(%rbp),%rax
    faf0:	48 89 85 10 fa ff ff 	mov    %rax,-0x5f0(%rbp)
    faf7:	48 8d 85 10 e6 ff ff 	lea    -0x19f0(%rbp),%rax
    fafe:	48 89 85 18 fa ff ff 	mov    %rax,-0x5e8(%rbp)
    fb05:	48 c7 85 20 fa ff ff 	movq   $0x0,-0x5e0(%rbp)
    fb0c:	00 00 00 00 
    fb10:	48 8d 85 10 e6 ff ff 	lea    -0x19f0(%rbp),%rax
    fb17:	48 89 85 28 fa ff ff 	mov    %rax,-0x5d8(%rbp)
    fb1e:	48 8d 85 10 e6 ff ff 	lea    -0x19f0(%rbp),%rax
    fb25:	48 89 85 30 fa ff ff 	mov    %rax,-0x5d0(%rbp)
    fb2c:	48 c7 85 38 fa ff ff 	movq   $0x0,-0x5c8(%rbp)
    fb33:	00 00 00 00 
    fb37:	48 8d 85 10 e6 ff ff 	lea    -0x19f0(%rbp),%rax
    fb3e:	48 89 85 40 fa ff ff 	mov    %rax,-0x5c0(%rbp)
    fb45:	48 8d 85 10 e6 ff ff 	lea    -0x19f0(%rbp),%rax
    fb4c:	48 89 85 48 fa ff ff 	mov    %rax,-0x5b8(%rbp)
    fb53:	48 8d 85 60 ea ff ff 	lea    -0x15a0(%rbp),%rax
    fb5a:	48 83 c0 18          	add    $0x18,%rax
    fb5e:	48 89 85 50 fa ff ff 	mov    %rax,-0x5b0(%rbp)
    fb65:	48 c7 85 58 fa ff ff 	movq   $0x0,-0x5a8(%rbp)
    fb6c:	00 00 00 00 
    fb70:	48 8d 85 60 ea ff ff 	lea    -0x15a0(%rbp),%rax
    fb77:	48 83 c0 18          	add    $0x18,%rax
    fb7b:	48 89 85 60 fa ff ff 	mov    %rax,-0x5a0(%rbp)
    fb82:	48 c7 85 68 fa ff ff 	movq   $0x0,-0x598(%rbp)
    fb89:	00 00 00 00 
    fb8d:	48 8d 85 10 e6 ff ff 	lea    -0x19f0(%rbp),%rax
    fb94:	48 89 85 70 fa ff ff 	mov    %rax,-0x590(%rbp)
    fb9b:	48 8d 85 60 ea ff ff 	lea    -0x15a0(%rbp),%rax
    fba2:	48 83 c0 18          	add    $0x18,%rax
    fba6:	48 89 85 78 fa ff ff 	mov    %rax,-0x588(%rbp)
    fbad:	48 8d 85 60 ea ff ff 	lea    -0x15a0(%rbp),%rax
    fbb4:	48 83 c0 18          	add    $0x18,%rax
    fbb8:	48 89 85 80 fa ff ff 	mov    %rax,-0x580(%rbp)
    fbbf:	48 c7 85 88 fa ff ff 	movq   $0x0,-0x578(%rbp)
    fbc6:	00 00 00 00 
    fbca:	48 8d 85 60 ea ff ff 	lea    -0x15a0(%rbp),%rax
    fbd1:	48 89 85 90 fa ff ff 	mov    %rax,-0x570(%rbp)
    fbd8:	48 c7 85 98 fa ff ff 	movq   $0x0,-0x568(%rbp)
    fbdf:	00 00 00 00 
    fbe3:	48 8d 85 10 e6 ff ff 	lea    -0x19f0(%rbp),%rax
    fbea:	48 89 85 a0 fa ff ff 	mov    %rax,-0x560(%rbp)
    fbf1:	48 c7 85 a8 fa ff ff 	movq   $0x0,-0x558(%rbp)
    fbf8:	00 00 00 00 
    fbfc:	48 8d 85 10 e6 ff ff 	lea    -0x19f0(%rbp),%rax
    fc03:	48 89 85 b0 fa ff ff 	mov    %rax,-0x550(%rbp)
    fc0a:	48 8d 85 10 e6 ff ff 	lea    -0x19f0(%rbp),%rax
    fc11:	48 89 85 b8 fa ff ff 	mov    %rax,-0x548(%rbp)
    fc18:	48 c7 85 c0 fa ff ff 	movq   $0x0,-0x540(%rbp)
    fc1f:	00 00 00 00 
    fc23:	48 8d 85 10 e6 ff ff 	lea    -0x19f0(%rbp),%rax
    fc2a:	48 89 85 c8 fa ff ff 	mov    %rax,-0x538(%rbp)
    fc31:	48 8d 85 60 ea ff ff 	lea    -0x15a0(%rbp),%rax
    fc38:	48 83 c0 18          	add    $0x18,%rax
    fc3c:	48 89 85 d0 fa ff ff 	mov    %rax,-0x530(%rbp)
    fc43:	48 c7 85 d8 fa ff ff 	movq   $0x0,-0x528(%rbp)
    fc4a:	00 00 00 00 
    fc4e:	48 c7 85 e0 fa ff ff 	movq   $0x0,-0x520(%rbp)
    fc55:	00 00 00 00 
    fc59:	48 8d 85 60 ea ff ff 	lea    -0x15a0(%rbp),%rax
    fc60:	48 83 c0 18          	add    $0x18,%rax
    fc64:	48 89 85 e8 fa ff ff 	mov    %rax,-0x518(%rbp)
    fc6b:	48 8d 85 10 e6 ff ff 	lea    -0x19f0(%rbp),%rax
    fc72:	48 89 85 f0 fa ff ff 	mov    %rax,-0x510(%rbp)
    fc79:	48 c7 85 f8 fa ff ff 	movq   $0x0,-0x508(%rbp)
    fc80:	00 00 00 00 
    fc84:	48 8d 85 60 ea ff ff 	lea    -0x15a0(%rbp),%rax
    fc8b:	48 83 c0 18          	add    $0x18,%rax
    fc8f:	48 89 85 00 fb ff ff 	mov    %rax,-0x500(%rbp)
    fc96:	48 8d 85 60 ea ff ff 	lea    -0x15a0(%rbp),%rax
    fc9d:	48 83 c0 18          	add    $0x18,%rax
    fca1:	48 89 85 08 fb ff ff 	mov    %rax,-0x4f8(%rbp)
    fca8:	48 8d 85 60 ea ff ff 	lea    -0x15a0(%rbp),%rax
    fcaf:	48 83 c0 18          	add    $0x18,%rax
    fcb3:	48 89 85 10 fb ff ff 	mov    %rax,-0x4f0(%rbp)
    fcba:	48 8d 85 10 e6 ff ff 	lea    -0x19f0(%rbp),%rax
    fcc1:	48 89 85 18 fb ff ff 	mov    %rax,-0x4e8(%rbp)
    fcc8:	48 8d 85 10 e6 ff ff 	lea    -0x19f0(%rbp),%rax
    fccf:	48 89 85 20 fb ff ff 	mov    %rax,-0x4e0(%rbp)
    fcd6:	48 8d 85 10 e6 ff ff 	lea    -0x19f0(%rbp),%rax
    fcdd:	48 89 85 28 fb ff ff 	mov    %rax,-0x4d8(%rbp)
    fce4:	48 c7 85 30 fb ff ff 	movq   $0x0,-0x4d0(%rbp)
    fceb:	00 00 00 00 
    fcef:	48 8d 85 60 ea ff ff 	lea    -0x15a0(%rbp),%rax
    fcf6:	48 83 c0 18          	add    $0x18,%rax
    fcfa:	48 89 85 38 fb ff ff 	mov    %rax,-0x4c8(%rbp)
    fd01:	48 c7 85 40 fb ff ff 	movq   $0x0,-0x4c0(%rbp)
    fd08:	00 00 00 00 
    fd0c:	48 8d 85 60 ea ff ff 	lea    -0x15a0(%rbp),%rax
    fd13:	48 83 c0 18          	add    $0x18,%rax
    fd17:	48 89 85 48 fb ff ff 	mov    %rax,-0x4b8(%rbp)
    fd1e:	48 8d 85 10 e6 ff ff 	lea    -0x19f0(%rbp),%rax
    fd25:	48 89 85 50 fb ff ff 	mov    %rax,-0x4b0(%rbp)
    fd2c:	48 8d 85 60 ea ff ff 	lea    -0x15a0(%rbp),%rax
    fd33:	48 83 c0 18          	add    $0x18,%rax
    fd37:	48 89 85 58 fb ff ff 	mov    %rax,-0x4a8(%rbp)
    fd3e:	48 c7 85 60 fb ff ff 	movq   $0x0,-0x4a0(%rbp)
    fd45:	00 00 00 00 
    fd49:	48 8d 85 10 e6 ff ff 	lea    -0x19f0(%rbp),%rax
    fd50:	48 89 85 68 fb ff ff 	mov    %rax,-0x498(%rbp)
    fd57:	48 8d 85 10 e6 ff ff 	lea    -0x19f0(%rbp),%rax
    fd5e:	48 89 85 70 fb ff ff 	mov    %rax,-0x490(%rbp)
    fd65:	48 8d 85 10 e6 ff ff 	lea    -0x19f0(%rbp),%rax
    fd6c:	48 89 85 78 fb ff ff 	mov    %rax,-0x488(%rbp)
    fd73:	48 8d 85 60 ea ff ff 	lea    -0x15a0(%rbp),%rax
    fd7a:	48 83 c0 08          	add    $0x8,%rax
    fd7e:	48 89 85 80 fb ff ff 	mov    %rax,-0x480(%rbp)
    fd85:	48 8d 85 10 e6 ff ff 	lea    -0x19f0(%rbp),%rax
    fd8c:	48 89 85 88 fb ff ff 	mov    %rax,-0x478(%rbp)
    fd93:	48 8d 85 10 e6 ff ff 	lea    -0x19f0(%rbp),%rax
    fd9a:	48 89 85 90 fb ff ff 	mov    %rax,-0x470(%rbp)
    fda1:	48 8d 85 60 ea ff ff 	lea    -0x15a0(%rbp),%rax
    fda8:	48 83 c0 08          	add    $0x8,%rax
    fdac:	48 89 85 98 fb ff ff 	mov    %rax,-0x468(%rbp)
    fdb3:	48 8d 85 10 e6 ff ff 	lea    -0x19f0(%rbp),%rax
    fdba:	48 89 85 a0 fb ff ff 	mov    %rax,-0x460(%rbp)
    fdc1:	48 8d 85 10 e6 ff ff 	lea    -0x19f0(%rbp),%rax
    fdc8:	48 89 85 a8 fb ff ff 	mov    %rax,-0x458(%rbp)
    fdcf:	48 8d 85 10 e6 ff ff 	lea    -0x19f0(%rbp),%rax
    fdd6:	48 89 85 b0 fb ff ff 	mov    %rax,-0x450(%rbp)
    fddd:	48 8d 85 60 ea ff ff 	lea    -0x15a0(%rbp),%rax
    fde4:	48 89 85 b8 fb ff ff 	mov    %rax,-0x448(%rbp)
    fdeb:	48 8d 85 60 ea ff ff 	lea    -0x15a0(%rbp),%rax
    fdf2:	48 83 c0 08          	add    $0x8,%rax
    fdf6:	48 89 85 c0 fb ff ff 	mov    %rax,-0x440(%rbp)
    fdfd:	48 8d 85 60 ea ff ff 	lea    -0x15a0(%rbp),%rax
    fe04:	48 83 c0 18          	add    $0x18,%rax
    fe08:	48 89 85 c8 fb ff ff 	mov    %rax,-0x438(%rbp)
    fe0f:	48 c7 85 d0 fb ff ff 	movq   $0x0,-0x430(%rbp)
    fe16:	00 00 00 00 
    fe1a:	48 8d 85 60 ea ff ff 	lea    -0x15a0(%rbp),%rax
    fe21:	48 83 c0 18          	add    $0x18,%rax
    fe25:	48 89 85 d8 fb ff ff 	mov    %rax,-0x428(%rbp)
    fe2c:	48 c7 85 e0 fb ff ff 	movq   $0x0,-0x420(%rbp)
    fe33:	00 00 00 00 
    fe37:	48 c7 85 e8 fb ff ff 	movq   $0x0,-0x418(%rbp)
    fe3e:	00 00 00 00 
    fe42:	48 8d 85 10 e6 ff ff 	lea    -0x19f0(%rbp),%rax
    fe49:	48 89 85 f0 fb ff ff 	mov    %rax,-0x410(%rbp)
    fe50:	48 8d 85 10 e6 ff ff 	lea    -0x19f0(%rbp),%rax
    fe57:	48 89 85 f8 fb ff ff 	mov    %rax,-0x408(%rbp)
    fe5e:	48 8d 85 10 e6 ff ff 	lea    -0x19f0(%rbp),%rax
    fe65:	48 89 85 00 fc ff ff 	mov    %rax,-0x400(%rbp)
    fe6c:	48 8d 85 60 ea ff ff 	lea    -0x15a0(%rbp),%rax
    fe73:	48 89 85 08 fc ff ff 	mov    %rax,-0x3f8(%rbp)
    fe7a:	48 8d 85 60 ea ff ff 	lea    -0x15a0(%rbp),%rax
    fe81:	48 83 c0 18          	add    $0x18,%rax
    fe85:	48 89 85 10 fc ff ff 	mov    %rax,-0x3f0(%rbp)
    fe8c:	48 8d 85 60 ea ff ff 	lea    -0x15a0(%rbp),%rax
    fe93:	48 83 c0 10          	add    $0x10,%rax
    fe97:	48 89 85 18 fc ff ff 	mov    %rax,-0x3e8(%rbp)
    fe9e:	48 8d 85 10 e6 ff ff 	lea    -0x19f0(%rbp),%rax
    fea5:	48 89 85 20 fc ff ff 	mov    %rax,-0x3e0(%rbp)
    feac:	48 c7 85 28 fc ff ff 	movq   $0x0,-0x3d8(%rbp)
    feb3:	00 00 00 00 
    feb7:	48 8d 85 60 ea ff ff 	lea    -0x15a0(%rbp),%rax
    febe:	48 83 c0 18          	add    $0x18,%rax
    fec2:	48 89 85 30 fc ff ff 	mov    %rax,-0x3d0(%rbp)
    fec9:	48 8d 85 60 ea ff ff 	lea    -0x15a0(%rbp),%rax
    fed0:	48 83 c0 18          	add    $0x18,%rax
    fed4:	48 89 85 38 fc ff ff 	mov    %rax,-0x3c8(%rbp)
    fedb:	48 c7 85 40 fc ff ff 	movq   $0x0,-0x3c0(%rbp)
    fee2:	00 00 00 00 
    fee6:	48 8d 85 60 ea ff ff 	lea    -0x15a0(%rbp),%rax
    feed:	48 83 c0 18          	add    $0x18,%rax
    fef1:	48 89 85 48 fc ff ff 	mov    %rax,-0x3b8(%rbp)
    fef8:	48 8d 85 60 ea ff ff 	lea    -0x15a0(%rbp),%rax
    feff:	48 83 c0 18          	add    $0x18,%rax
    ff03:	48 89 85 50 fc ff ff 	mov    %rax,-0x3b0(%rbp)
    ff0a:	48 8d 85 10 e6 ff ff 	lea    -0x19f0(%rbp),%rax
    ff11:	48 89 85 58 fc ff ff 	mov    %rax,-0x3a8(%rbp)
    ff18:	48 8d 85 60 ea ff ff 	lea    -0x15a0(%rbp),%rax
    ff1f:	48 83 c0 08          	add    $0x8,%rax
    ff23:	48 89 85 60 fc ff ff 	mov    %rax,-0x3a0(%rbp)
    ff2a:	48 8d 85 10 e6 ff ff 	lea    -0x19f0(%rbp),%rax
    ff31:	48 89 85 68 fc ff ff 	mov    %rax,-0x398(%rbp)
    ff38:	48 8d 85 10 e6 ff ff 	lea    -0x19f0(%rbp),%rax
    ff3f:	48 89 85 70 fc ff ff 	mov    %rax,-0x390(%rbp)
    ff46:	48 8d 85 60 ea ff ff 	lea    -0x15a0(%rbp),%rax
    ff4d:	48 83 c0 18          	add    $0x18,%rax
    ff51:	48 89 85 78 fc ff ff 	mov    %rax,-0x388(%rbp)
    ff58:	48 8d 85 10 e6 ff ff 	lea    -0x19f0(%rbp),%rax
    ff5f:	48 89 85 80 fc ff ff 	mov    %rax,-0x380(%rbp)
    ff66:	48 8d 85 10 e6 ff ff 	lea    -0x19f0(%rbp),%rax
    ff6d:	48 89 85 88 fc ff ff 	mov    %rax,-0x378(%rbp)
    ff74:	48 8d 85 60 ea ff ff 	lea    -0x15a0(%rbp),%rax
    ff7b:	48 83 c0 18          	add    $0x18,%rax
    ff7f:	48 89 85 90 fc ff ff 	mov    %rax,-0x370(%rbp)
    ff86:	48 8d 85 10 e6 ff ff 	lea    -0x19f0(%rbp),%rax
    ff8d:	48 89 85 98 fc ff ff 	mov    %rax,-0x368(%rbp)
    ff94:	48 c7 85 a0 fc ff ff 	movq   $0x0,-0x360(%rbp)
    ff9b:	00 00 00 00 
    ff9f:	48 8d 85 60 ea ff ff 	lea    -0x15a0(%rbp),%rax
    ffa6:	48 83 c0 18          	add    $0x18,%rax
    ffaa:	48 89 85 a8 fc ff ff 	mov    %rax,-0x358(%rbp)
    ffb1:	48 8d 85 60 ea ff ff 	lea    -0x15a0(%rbp),%rax
    ffb8:	48 89 85 b0 fc ff ff 	mov    %rax,-0x350(%rbp)
    ffbf:	48 8d 85 10 e6 ff ff 	lea    -0x19f0(%rbp),%rax
    ffc6:	48 89 85 b8 fc ff ff 	mov    %rax,-0x348(%rbp)
    ffcd:	48 c7 85 c0 fc ff ff 	movq   $0x0,-0x340(%rbp)
    ffd4:	00 00 00 00 
    ffd8:	48 8d 85 60 ea ff ff 	lea    -0x15a0(%rbp),%rax
    ffdf:	48 83 c0 18          	add    $0x18,%rax
    ffe3:	48 89 85 c8 fc ff ff 	mov    %rax,-0x338(%rbp)
    ffea:	48 8d 85 60 ea ff ff 	lea    -0x15a0(%rbp),%rax
    fff1:	48 89 85 d0 fc ff ff 	mov    %rax,-0x330(%rbp)
    fff8:	48 8d 85 60 ea ff ff 	lea    -0x15a0(%rbp),%rax
    ffff:	48 83 c0 18          	add    $0x18,%rax
   10003:	48 89 85 d8 fc ff ff 	mov    %rax,-0x328(%rbp)
   1000a:	48 8d 85 10 e6 ff ff 	lea    -0x19f0(%rbp),%rax
   10011:	48 89 85 e0 fc ff ff 	mov    %rax,-0x320(%rbp)
   10018:	48 8d 85 60 ea ff ff 	lea    -0x15a0(%rbp),%rax
   1001f:	48 83 c0 08          	add    $0x8,%rax
   10023:	48 89 85 e8 fc ff ff 	mov    %rax,-0x318(%rbp)
   1002a:	48 8d 85 60 ea ff ff 	lea    -0x15a0(%rbp),%rax
   10031:	48 83 c0 18          	add    $0x18,%rax
   10035:	48 89 85 f0 fc ff ff 	mov    %rax,-0x310(%rbp)
   1003c:	48 8d 85 10 e6 ff ff 	lea    -0x19f0(%rbp),%rax
   10043:	48 89 85 f8 fc ff ff 	mov    %rax,-0x308(%rbp)
   1004a:	48 c7 85 00 fd ff ff 	movq   $0x0,-0x300(%rbp)
   10051:	00 00 00 00 
   10055:	48 8d 85 10 e6 ff ff 	lea    -0x19f0(%rbp),%rax
   1005c:	48 89 85 08 fd ff ff 	mov    %rax,-0x2f8(%rbp)
   10063:	48 8d 85 60 ea ff ff 	lea    -0x15a0(%rbp),%rax
   1006a:	48 83 c0 18          	add    $0x18,%rax
   1006e:	48 89 85 10 fd ff ff 	mov    %rax,-0x2f0(%rbp)
   10075:	48 8d 85 60 ea ff ff 	lea    -0x15a0(%rbp),%rax
   1007c:	48 83 c0 18          	add    $0x18,%rax
   10080:	48 89 85 18 fd ff ff 	mov    %rax,-0x2e8(%rbp)
   10087:	48 8d 85 10 e6 ff ff 	lea    -0x19f0(%rbp),%rax
   1008e:	48 89 85 20 fd ff ff 	mov    %rax,-0x2e0(%rbp)
   10095:	48 8d 85 10 e6 ff ff 	lea    -0x19f0(%rbp),%rax
   1009c:	48 89 85 28 fd ff ff 	mov    %rax,-0x2d8(%rbp)
   100a3:	48 c7 85 30 fd ff ff 	movq   $0x0,-0x2d0(%rbp)
   100aa:	00 00 00 00 
   100ae:	48 8d 85 10 e6 ff ff 	lea    -0x19f0(%rbp),%rax
   100b5:	48 89 85 38 fd ff ff 	mov    %rax,-0x2c8(%rbp)
   100bc:	48 8d 85 10 e6 ff ff 	lea    -0x19f0(%rbp),%rax
   100c3:	48 89 85 40 fd ff ff 	mov    %rax,-0x2c0(%rbp)
   100ca:	48 c7 85 48 fd ff ff 	movq   $0x0,-0x2b8(%rbp)
   100d1:	00 00 00 00 
   100d5:	48 8d 85 10 e6 ff ff 	lea    -0x19f0(%rbp),%rax
   100dc:	48 89 85 50 fd ff ff 	mov    %rax,-0x2b0(%rbp)
   100e3:	48 8d 85 10 e6 ff ff 	lea    -0x19f0(%rbp),%rax
   100ea:	48 89 85 58 fd ff ff 	mov    %rax,-0x2a8(%rbp)
   100f1:	48 8d 85 60 ea ff ff 	lea    -0x15a0(%rbp),%rax
   100f8:	48 83 c0 18          	add    $0x18,%rax
   100fc:	48 89 85 60 fd ff ff 	mov    %rax,-0x2a0(%rbp)
   10103:	48 c7 85 68 fd ff ff 	movq   $0x0,-0x298(%rbp)
   1010a:	00 00 00 00 
   1010e:	48 8d 85 60 ea ff ff 	lea    -0x15a0(%rbp),%rax
   10115:	48 83 c0 18          	add    $0x18,%rax
   10119:	48 89 85 70 fd ff ff 	mov    %rax,-0x290(%rbp)
   10120:	48 c7 85 78 fd ff ff 	movq   $0x0,-0x288(%rbp)
   10127:	00 00 00 00 
   1012b:	48 8d 85 10 e6 ff ff 	lea    -0x19f0(%rbp),%rax
   10132:	48 89 85 80 fd ff ff 	mov    %rax,-0x280(%rbp)
   10139:	48 8d 85 60 ea ff ff 	lea    -0x15a0(%rbp),%rax
   10140:	48 83 c0 18          	add    $0x18,%rax
   10144:	48 89 85 88 fd ff ff 	mov    %rax,-0x278(%rbp)
   1014b:	48 8d 85 60 ea ff ff 	lea    -0x15a0(%rbp),%rax
   10152:	48 83 c0 18          	add    $0x18,%rax
   10156:	48 89 85 90 fd ff ff 	mov    %rax,-0x270(%rbp)
   1015d:	48 c7 85 98 fd ff ff 	movq   $0x0,-0x268(%rbp)
   10164:	00 00 00 00 
   10168:	48 8d 85 60 ea ff ff 	lea    -0x15a0(%rbp),%rax
   1016f:	48 89 85 a0 fd ff ff 	mov    %rax,-0x260(%rbp)
   10176:	48 c7 85 a8 fd ff ff 	movq   $0x0,-0x258(%rbp)
   1017d:	00 00 00 00 
   10181:	48 8d 85 10 e6 ff ff 	lea    -0x19f0(%rbp),%rax
   10188:	48 89 85 b0 fd ff ff 	mov    %rax,-0x250(%rbp)
   1018f:	48 c7 85 b8 fd ff ff 	movq   $0x0,-0x248(%rbp)
   10196:	00 00 00 00 
   1019a:	48 8d 85 10 e6 ff ff 	lea    -0x19f0(%rbp),%rax
   101a1:	48 89 85 c0 fd ff ff 	mov    %rax,-0x240(%rbp)
   101a8:	48 8d 85 10 e6 ff ff 	lea    -0x19f0(%rbp),%rax
   101af:	48 89 85 c8 fd ff ff 	mov    %rax,-0x238(%rbp)
   101b6:	48 c7 85 d0 fd ff ff 	movq   $0x0,-0x230(%rbp)
   101bd:	00 00 00 00 
   101c1:	48 8d 85 10 e6 ff ff 	lea    -0x19f0(%rbp),%rax
   101c8:	48 89 85 d8 fd ff ff 	mov    %rax,-0x228(%rbp)
   101cf:	48 8d 85 60 ea ff ff 	lea    -0x15a0(%rbp),%rax
   101d6:	48 83 c0 18          	add    $0x18,%rax
   101da:	48 89 85 e0 fd ff ff 	mov    %rax,-0x220(%rbp)
   101e1:	48 c7 85 e8 fd ff ff 	movq   $0x0,-0x218(%rbp)
   101e8:	00 00 00 00 
   101ec:	48 c7 85 f0 fd ff ff 	movq   $0x0,-0x210(%rbp)
   101f3:	00 00 00 00 
   101f7:	48 8d 85 60 ea ff ff 	lea    -0x15a0(%rbp),%rax
   101fe:	48 83 c0 18          	add    $0x18,%rax
   10202:	48 89 85 f8 fd ff ff 	mov    %rax,-0x208(%rbp)
   10209:	48 8d 85 10 e6 ff ff 	lea    -0x19f0(%rbp),%rax
   10210:	48 89 85 00 fe ff ff 	mov    %rax,-0x200(%rbp)
   10217:	48 c7 85 08 fe ff ff 	movq   $0x0,-0x1f8(%rbp)
   1021e:	00 00 00 00 
   10222:	48 8d 85 60 ea ff ff 	lea    -0x15a0(%rbp),%rax
   10229:	48 83 c0 18          	add    $0x18,%rax
   1022d:	48 89 85 10 fe ff ff 	mov    %rax,-0x1f0(%rbp)
   10234:	48 8d 85 60 ea ff ff 	lea    -0x15a0(%rbp),%rax
   1023b:	48 83 c0 18          	add    $0x18,%rax
   1023f:	48 89 85 18 fe ff ff 	mov    %rax,-0x1e8(%rbp)
   10246:	48 8d 85 60 ea ff ff 	lea    -0x15a0(%rbp),%rax
   1024d:	48 83 c0 18          	add    $0x18,%rax
   10251:	48 89 85 20 fe ff ff 	mov    %rax,-0x1e0(%rbp)
   10258:	48 8d 85 10 e6 ff ff 	lea    -0x19f0(%rbp),%rax
   1025f:	48 89 85 28 fe ff ff 	mov    %rax,-0x1d8(%rbp)
   10266:	48 8d 85 10 e6 ff ff 	lea    -0x19f0(%rbp),%rax
   1026d:	48 89 85 30 fe ff ff 	mov    %rax,-0x1d0(%rbp)
   10274:	48 8d 85 10 e6 ff ff 	lea    -0x19f0(%rbp),%rax
   1027b:	48 89 85 38 fe ff ff 	mov    %rax,-0x1c8(%rbp)
   10282:	48 c7 85 40 fe ff ff 	movq   $0x0,-0x1c0(%rbp)
   10289:	00 00 00 00 
   1028d:	48 8d 85 60 ea ff ff 	lea    -0x15a0(%rbp),%rax
   10294:	48 83 c0 18          	add    $0x18,%rax
   10298:	48 89 85 48 fe ff ff 	mov    %rax,-0x1b8(%rbp)
   1029f:	48 c7 85 50 fe ff ff 	movq   $0x0,-0x1b0(%rbp)
   102a6:	00 00 00 00 
   102aa:	48 8d 85 60 ea ff ff 	lea    -0x15a0(%rbp),%rax
   102b1:	48 83 c0 18          	add    $0x18,%rax
   102b5:	48 89 85 58 fe ff ff 	mov    %rax,-0x1a8(%rbp)
   102bc:	48 8d 85 10 e6 ff ff 	lea    -0x19f0(%rbp),%rax
   102c3:	48 89 85 60 fe ff ff 	mov    %rax,-0x1a0(%rbp)
   102ca:	48 8d 85 60 ea ff ff 	lea    -0x15a0(%rbp),%rax
   102d1:	48 83 c0 18          	add    $0x18,%rax
   102d5:	48 89 85 68 fe ff ff 	mov    %rax,-0x198(%rbp)
   102dc:	48 c7 85 70 fe ff ff 	movq   $0x0,-0x190(%rbp)
   102e3:	00 00 00 00 
   102e7:	48 8d 85 10 e6 ff ff 	lea    -0x19f0(%rbp),%rax
   102ee:	48 89 85 78 fe ff ff 	mov    %rax,-0x188(%rbp)
   102f5:	48 8d 85 10 e6 ff ff 	lea    -0x19f0(%rbp),%rax
   102fc:	48 89 85 80 fe ff ff 	mov    %rax,-0x180(%rbp)
   10303:	48 8d 85 10 e6 ff ff 	lea    -0x19f0(%rbp),%rax
   1030a:	48 89 85 88 fe ff ff 	mov    %rax,-0x178(%rbp)
   10311:	48 8d 85 60 ea ff ff 	lea    -0x15a0(%rbp),%rax
   10318:	48 83 c0 08          	add    $0x8,%rax
   1031c:	48 89 85 90 fe ff ff 	mov    %rax,-0x170(%rbp)
   10323:	48 8d 85 10 e6 ff ff 	lea    -0x19f0(%rbp),%rax
   1032a:	48 89 85 98 fe ff ff 	mov    %rax,-0x168(%rbp)
   10331:	48 8d 85 10 e6 ff ff 	lea    -0x19f0(%rbp),%rax
   10338:	48 89 85 a0 fe ff ff 	mov    %rax,-0x160(%rbp)
   1033f:	48 8d 85 60 ea ff ff 	lea    -0x15a0(%rbp),%rax
   10346:	48 83 c0 08          	add    $0x8,%rax
   1034a:	48 89 85 a8 fe ff ff 	mov    %rax,-0x158(%rbp)
   10351:	48 8d 85 10 e6 ff ff 	lea    -0x19f0(%rbp),%rax
   10358:	48 89 85 b0 fe ff ff 	mov    %rax,-0x150(%rbp)
   1035f:	48 8d 85 10 e6 ff ff 	lea    -0x19f0(%rbp),%rax
   10366:	48 89 85 b8 fe ff ff 	mov    %rax,-0x148(%rbp)
   1036d:	48 8d 85 10 e6 ff ff 	lea    -0x19f0(%rbp),%rax
   10374:	48 89 85 c0 fe ff ff 	mov    %rax,-0x140(%rbp)
   1037b:	48 8d 85 60 ea ff ff 	lea    -0x15a0(%rbp),%rax
   10382:	48 89 85 c8 fe ff ff 	mov    %rax,-0x138(%rbp)
   10389:	48 8d 85 60 ea ff ff 	lea    -0x15a0(%rbp),%rax
   10390:	48 83 c0 08          	add    $0x8,%rax
   10394:	48 89 85 d0 fe ff ff 	mov    %rax,-0x130(%rbp)
   1039b:	48 8d 85 60 ea ff ff 	lea    -0x15a0(%rbp),%rax
   103a2:	48 83 c0 18          	add    $0x18,%rax
   103a6:	48 89 85 d8 fe ff ff 	mov    %rax,-0x128(%rbp)
   103ad:	48 c7 85 e0 fe ff ff 	movq   $0x0,-0x120(%rbp)
   103b4:	00 00 00 00 
   103b8:	48 8d 85 60 ea ff ff 	lea    -0x15a0(%rbp),%rax
   103bf:	48 83 c0 18          	add    $0x18,%rax
   103c3:	48 89 85 e8 fe ff ff 	mov    %rax,-0x118(%rbp)
   103ca:	48 c7 85 f0 fe ff ff 	movq   $0x0,-0x110(%rbp)
   103d1:	00 00 00 00 
   103d5:	48 c7 85 f8 fe ff ff 	movq   $0x0,-0x108(%rbp)
   103dc:	00 00 00 00 
   103e0:	48 8d 85 10 e6 ff ff 	lea    -0x19f0(%rbp),%rax
   103e7:	48 89 85 00 ff ff ff 	mov    %rax,-0x100(%rbp)
   103ee:	48 8d 85 10 e6 ff ff 	lea    -0x19f0(%rbp),%rax
   103f5:	48 89 85 08 ff ff ff 	mov    %rax,-0xf8(%rbp)
   103fc:	48 8d 85 10 e6 ff ff 	lea    -0x19f0(%rbp),%rax
   10403:	48 89 85 10 ff ff ff 	mov    %rax,-0xf0(%rbp)
   1040a:	48 8d 85 60 ea ff ff 	lea    -0x15a0(%rbp),%rax
   10411:	48 89 85 18 ff ff ff 	mov    %rax,-0xe8(%rbp)
   10418:	48 8d 85 60 ea ff ff 	lea    -0x15a0(%rbp),%rax
   1041f:	48 83 c0 18          	add    $0x18,%rax
   10423:	48 89 85 20 ff ff ff 	mov    %rax,-0xe0(%rbp)
   1042a:	48 8d 85 60 ea ff ff 	lea    -0x15a0(%rbp),%rax
   10431:	48 83 c0 10          	add    $0x10,%rax
   10435:	48 89 85 28 ff ff ff 	mov    %rax,-0xd8(%rbp)
   1043c:	48 8d 85 10 e6 ff ff 	lea    -0x19f0(%rbp),%rax
   10443:	48 89 85 30 ff ff ff 	mov    %rax,-0xd0(%rbp)
   1044a:	48 c7 85 38 ff ff ff 	movq   $0x0,-0xc8(%rbp)
   10451:	00 00 00 00 
   10455:	48 8d 85 60 ea ff ff 	lea    -0x15a0(%rbp),%rax
   1045c:	48 83 c0 18          	add    $0x18,%rax
   10460:	48 89 85 40 ff ff ff 	mov    %rax,-0xc0(%rbp)
   10467:	48 8d 85 60 ea ff ff 	lea    -0x15a0(%rbp),%rax
   1046e:	48 83 c0 18          	add    $0x18,%rax
   10472:	48 89 85 48 ff ff ff 	mov    %rax,-0xb8(%rbp)
   10479:	48 c7 85 50 ff ff ff 	movq   $0x0,-0xb0(%rbp)
   10480:	00 00 00 00 
   10484:	48 8d 85 60 ea ff ff 	lea    -0x15a0(%rbp),%rax
   1048b:	48 83 c0 18          	add    $0x18,%rax
   1048f:	48 89 85 58 ff ff ff 	mov    %rax,-0xa8(%rbp)
   10496:	48 8d 85 60 ea ff ff 	lea    -0x15a0(%rbp),%rax
   1049d:	48 83 c0 18          	add    $0x18,%rax
   104a1:	48 89 85 60 ff ff ff 	mov    %rax,-0xa0(%rbp)
   104a8:	48 8d 85 10 e6 ff ff 	lea    -0x19f0(%rbp),%rax
   104af:	48 89 85 68 ff ff ff 	mov    %rax,-0x98(%rbp)
   104b6:	48 8d 85 60 ea ff ff 	lea    -0x15a0(%rbp),%rax
   104bd:	48 83 c0 08          	add    $0x8,%rax
   104c1:	48 89 85 70 ff ff ff 	mov    %rax,-0x90(%rbp)
   104c8:	48 8d 85 10 e6 ff ff 	lea    -0x19f0(%rbp),%rax
   104cf:	48 89 85 78 ff ff ff 	mov    %rax,-0x88(%rbp)
   104d6:	48 8d 85 10 e6 ff ff 	lea    -0x19f0(%rbp),%rax
   104dd:	48 89 45 80          	mov    %rax,-0x80(%rbp)
   104e1:	48 8d 85 60 ea ff ff 	lea    -0x15a0(%rbp),%rax
   104e8:	48 83 c0 18          	add    $0x18,%rax
   104ec:	48 89 45 88          	mov    %rax,-0x78(%rbp)
   104f0:	c7 85 b4 e5 ff ff 97 	movl   $0xeedd2097,-0x1a4c(%rbp)
   104f7:	20 dd ee 
   104fa:	0f b7 85 fc e4 ff ff 	movzwl -0x1b04(%rbp),%eax
   10501:	0f be d8             	movsbl %al,%ebx
   10504:	bf ff ff ff ff       	mov    $0xffffffff,%edi
   10509:	e8 88 80 ff ff       	callq  8596 <safe_unary_minus_func_int32_t_s>
   1050e:	41 89 c6             	mov    %eax,%r14d
   10511:	44 0f b7 a5 f8 e4 ff 	movzwl -0x1b08(%rbp),%r12d
   10518:	ff 
   10519:	48 8b 05 20 f8 00 00 	mov    0xf820(%rip),%rax        # 1fd40 <g_611>
   10520:	48 8b 10             	mov    (%rax),%rdx
   10523:	48 8b 85 e0 e8 ff ff 	mov    -0x1720(%rbp),%rax
   1052a:	48 89 10             	mov    %rdx,(%rax)
   1052d:	48 8b 85 e0 e8 ff ff 	mov    -0x1720(%rbp),%rax
   10534:	48 8b 00             	mov    (%rax),%rax
   10537:	48 8d 15 7a ce 00 00 	lea    0xce7a(%rip),%rdx        # 1d3b8 <g_199>
   1053e:	48 39 d0             	cmp    %rdx,%rax
   10541:	0f 94 c0             	sete   %al
   10544:	44 0f b6 f8          	movzbl %al,%r15d
   10548:	48 8b 85 98 e8 ff ff 	mov    -0x1768(%rbp),%rax
   1054f:	89 85 f0 e4 ff ff    	mov    %eax,-0x1b10(%rbp)
   10555:	0f b6 85 f4 e4 ff ff 	movzbl -0x1b0c(%rbp),%eax
   1055c:	4c 0f be e8          	movsbq %al,%r13
   10560:	48 8b 85 e8 e5 ff ff 	mov    -0x1a18(%rbp),%rax
   10567:	8b 00                	mov    (%rax),%eax
   10569:	83 e0 fb             	and    $0xfffffffb,%eax
   1056c:	89 c2                	mov    %eax,%edx
   1056e:	0f b6 85 f4 e4 ff ff 	movzbl -0x1b0c(%rbp),%eax
   10575:	0f be c0             	movsbl %al,%eax
   10578:	39 c2                	cmp    %eax,%edx
   1057a:	0f 9d c0             	setge  %al
   1057d:	0f b6 c0             	movzbl %al,%eax
   10580:	89 c6                	mov    %eax,%esi
   10582:	bf 3a 00 00 00       	mov    $0x3a,%edi
   10587:	e8 79 86 ff ff       	callq  8c05 <safe_lshift_func_uint8_t_u_s>
   1058c:	0f b6 d0             	movzbl %al,%edx
   1058f:	48 8d 85 f4 e4 ff ff 	lea    -0x1b0c(%rbp),%rax
   10596:	48 89 85 a0 e8 ff ff 	mov    %rax,-0x1760(%rbp)
   1059d:	48 8d 85 30 e5 ff ff 	lea    -0x1ad0(%rbp),%rax
   105a4:	48 39 85 a0 e8 ff ff 	cmp    %rax,-0x1760(%rbp)
   105ab:	0f 94 c0             	sete   %al
   105ae:	0f b6 c0             	movzbl %al,%eax
   105b1:	89 d6                	mov    %edx,%esi
   105b3:	89 c7                	mov    %eax,%edi
   105b5:	e8 19 7e ff ff       	callq  83d3 <safe_sub_func_int16_t_s_s>
   105ba:	48 0f bf c0          	movswq %ax,%rax
   105be:	4c 89 ee             	mov    %r13,%rsi
   105c1:	48 89 c7             	mov    %rax,%rdi
   105c4:	e8 65 8a ff ff       	callq  902e <safe_add_func_uint64_t_u_u>
   105c9:	0f b7 85 fc e4 ff ff 	movzwl -0x1b04(%rbp),%eax
   105d0:	89 c2                	mov    %eax,%edx
   105d2:	0f b6 85 f4 e4 ff ff 	movzbl -0x1b0c(%rbp),%eax
   105d9:	09 d0                	or     %edx,%eax
   105db:	88 85 f4 e4 ff ff    	mov    %al,-0x1b0c(%rbp)
   105e1:	0f b6 85 f4 e4 ff ff 	movzbl -0x1b0c(%rbp),%eax
   105e8:	66 98                	cbtw   
   105ea:	66 39 85 fc e4 ff ff 	cmp    %ax,-0x1b04(%rbp)
   105f1:	0f 9f c0             	setg   %al
   105f4:	0f b6 c0             	movzbl %al,%eax
   105f7:	be 0b 00 00 00       	mov    $0xb,%esi
   105fc:	89 c7                	mov    %eax,%edi
   105fe:	e8 45 88 ff ff       	callq  8e48 <safe_rshift_func_uint16_t_u_s>
   10603:	8b b5 f0 e4 ff ff    	mov    -0x1b10(%rbp),%esi
   10609:	bf 01 00 00 00       	mov    $0x1,%edi
   1060e:	e8 f2 7f ff ff       	callq  8605 <safe_sub_func_int32_t_s_s>
   10613:	be fb ff ff ff       	mov    $0xfffffffb,%esi
   10618:	89 c7                	mov    %eax,%edi
   1061a:	e8 99 88 ff ff       	callq  8eb8 <safe_add_func_uint32_t_u_u>
   1061f:	89 c2                	mov    %eax,%edx
   10621:	8b 85 24 ea ff ff    	mov    -0x15dc(%rbp),%eax
   10627:	0f b6 c0             	movzbl %al,%eax
   1062a:	89 d6                	mov    %edx,%esi
   1062c:	89 c7                	mov    %eax,%edi
   1062e:	e8 8b 86 ff ff       	callq  8cbe <safe_rshift_func_uint8_t_u_u>
   10633:	0f b6 c0             	movzbl %al,%eax
   10636:	41 39 c7             	cmp    %eax,%r15d
   10639:	0f 9c c0             	setl   %al
   1063c:	0f b6 c0             	movzbl %al,%eax
   1063f:	21 85 b4 e5 ff ff    	and    %eax,-0x1a4c(%rbp)
   10645:	44 89 e6             	mov    %r12d,%esi
   10648:	bf 01 00 00 00       	mov    $0x1,%edi
   1064d:	e8 3c 87 ff ff       	callq  8d8e <safe_div_func_uint16_t_u_u>
   10652:	0f b7 d0             	movzwl %ax,%edx
   10655:	48 8b 85 c0 e5 ff ff 	mov    -0x1a40(%rbp),%rax
   1065c:	44 21 f2             	and    %r14d,%edx
   1065f:	89 10                	mov    %edx,(%rax)
   10661:	8b 00                	mov    (%rax),%eax
   10663:	0f be c0             	movsbl %al,%eax
   10666:	89 de                	mov    %ebx,%esi
   10668:	89 c7                	mov    %eax,%edi
   1066a:	e8 a3 7b ff ff       	callq  8212 <safe_mul_func_int8_t_s_s>
   1066f:	48 8b 15 52 f6 00 00 	mov    0xf652(%rip),%rdx        # 1fcc8 <g_180>
   10676:	8b 0a                	mov    (%rdx),%ecx
   10678:	0f be d0             	movsbl %al,%edx
   1067b:	48 8b 05 46 f6 00 00 	mov    0xf646(%rip),%rax        # 1fcc8 <g_180>
   10682:	09 ca                	or     %ecx,%edx
   10684:	89 10                	mov    %edx,(%rax)
   10686:	e9 95 05 00 00       	jmpq   10c20 <func_14+0x28f3>
   1068b:	c7 85 ac e5 ff ff f9 	movl   $0xfffffff9,-0x1a54(%rbp)
   10692:	ff ff ff 
   10695:	48 8d 05 0c cd 00 00 	lea    0xcd0c(%rip),%rax        # 1d3a8 <g_177>
   1069c:	48 89 85 a8 e8 ff ff 	mov    %rax,-0x1758(%rbp)
   106a3:	48 c7 85 b0 e8 ff ff 	movq   $0x0,-0x1750(%rbp)
   106aa:	00 00 00 00 
   106ae:	48 c7 85 b8 e8 ff ff 	movq   $0x0,-0x1748(%rbp)
   106b5:	00 00 00 00 
   106b9:	48 c7 85 c0 e8 ff ff 	movq   $0x0,-0x1740(%rbp)
   106c0:	00 00 00 00 
   106c4:	48 8d 05 19 ce 00 00 	lea    0xce19(%rip),%rax        # 1d4e4 <g_264>
   106cb:	48 89 85 c8 e8 ff ff 	mov    %rax,-0x1738(%rbp)
   106d2:	48 c7 85 28 e6 ff ff 	movq   $0x0,-0x19d8(%rbp)
   106d9:	00 00 00 00 
   106dd:	c7 85 28 e6 ff ff ff 	movl   $0xffffffff,-0x19d8(%rbp)
   106e4:	ff ff ff 
   106e7:	c7 85 b0 e5 ff ff fc 	movl   $0xfffffffc,-0x1a50(%rbp)
   106ee:	ff ff ff 
   106f1:	48 8d 85 b0 ea ff ff 	lea    -0x1550(%rbp),%rax
   106f8:	48 83 c0 28          	add    $0x28,%rax
   106fc:	48 89 85 d0 e8 ff ff 	mov    %rax,-0x1730(%rbp)
   10703:	8b 85 ac e5 ff ff    	mov    -0x1a54(%rbp),%eax
   10709:	0f b6 d0             	movzbl %al,%edx
   1070c:	48 83 bd 78 e8 ff ff 	cmpq   $0x0,-0x1788(%rbp)
   10713:	00 
   10714:	0f 94 c0             	sete   %al
   10717:	0f b6 c0             	movzbl %al,%eax
   1071a:	89 d6                	mov    %edx,%esi
   1071c:	89 c7                	mov    %eax,%edi
   1071e:	e8 b8 84 ff ff       	callq  8bdb <safe_div_func_uint8_t_u_u>
   10723:	0f b6 c0             	movzbl %al,%eax
   10726:	89 c6                	mov    %eax,%esi
   10728:	bf 01 00 00 00       	mov    $0x1,%edi
   1072d:	e8 23 7d ff ff       	callq  8455 <safe_div_func_int16_t_s_s>
   10732:	66 85 c0             	test   %ax,%ax
   10735:	75 16                	jne    1074d <func_14+0x2420>
   10737:	48 8b 85 78 e8 ff ff 	mov    -0x1788(%rbp),%rax
   1073e:	48 8b 10             	mov    (%rax),%rdx
   10741:	48 8d 85 18 e6 ff ff 	lea    -0x19e8(%rbp),%rax
   10748:	48 39 c2             	cmp    %rax,%rdx
   1074b:	75 07                	jne    10754 <func_14+0x2427>
   1074d:	ba 01 00 00 00       	mov    $0x1,%edx
   10752:	eb 05                	jmp    10759 <func_14+0x242c>
   10754:	ba 00 00 00 00       	mov    $0x0,%edx
   10759:	48 8b 85 c0 e5 ff ff 	mov    -0x1a40(%rbp),%rax
   10760:	8b 00                	mov    (%rax),%eax
   10762:	89 d3                	mov    %edx,%ebx
   10764:	31 c3                	xor    %eax,%ebx
   10766:	48 0f bf 85 fc e4 ff 	movswq -0x1b04(%rbp),%rax
   1076d:	ff 
   1076e:	48 be 08 2c 2f c0 a5 	movabs $0x3ef1a0a5c02f2c08,%rsi
   10775:	a0 f1 3e 
   10778:	48 89 c7             	mov    %rax,%rdi
   1077b:	e8 00 89 ff ff       	callq  9080 <safe_mod_func_uint64_t_u_u>
   10780:	48 8b 95 c8 e8 ff ff 	mov    -0x1738(%rbp),%rdx
   10787:	8b 12                	mov    (%rdx),%edx
   10789:	89 d9                	mov    %ebx,%ecx
   1078b:	21 d1                	and    %edx,%ecx
   1078d:	48 8b 95 c8 e8 ff ff 	mov    -0x1738(%rbp),%rdx
   10794:	89 0a                	mov    %ecx,(%rdx)
   10796:	48 8b 95 c8 e8 ff ff 	mov    -0x1738(%rbp),%rdx
   1079d:	8b 12                	mov    (%rdx),%edx
   1079f:	89 d2                	mov    %edx,%edx
   107a1:	48 39 d0             	cmp    %rdx,%rax
   107a4:	0f 94 c0             	sete   %al
   107a7:	f7 d0                	not    %eax
   107a9:	0f be d0             	movsbl %al,%edx
   107ac:	0f b6 8d f4 e4 ff ff 	movzbl -0x1b0c(%rbp),%ecx
   107b3:	48 8b 85 a0 e8 ff ff 	mov    -0x1760(%rbp),%rax
   107ba:	88 08                	mov    %cl,(%rax)
   107bc:	48 8b 85 a0 e8 ff ff 	mov    -0x1760(%rbp),%rax
   107c3:	0f b6 00             	movzbl (%rax),%eax
   107c6:	0f be c0             	movsbl %al,%eax
   107c9:	89 d6                	mov    %edx,%esi
   107cb:	89 c7                	mov    %eax,%edi
   107cd:	e8 40 7a ff ff       	callq  8212 <safe_mul_func_int8_t_s_s>
   107d2:	3c 07                	cmp    $0x7,%al
   107d4:	0f 9e c0             	setle  %al
   107d7:	0f b6 c0             	movzbl %al,%eax
   107da:	48 39 85 98 e8 ff ff 	cmp    %rax,-0x1768(%rbp)
   107e1:	0f 84 67 02 00 00    	je     10a4e <func_14+0x2721>
   107e7:	66 c7 85 1e e5 ff ff 	movw   $0x650a,-0x1ae2(%rbp)
   107ee:	0a 65 
   107f0:	0f b7 95 f8 e4 ff ff 	movzwl -0x1b08(%rbp),%edx
   107f7:	48 8b 85 e8 e5 ff ff 	mov    -0x1a18(%rbp),%rax
   107fe:	8b 00                	mov    (%rax),%eax
   10800:	98                   	cwtl   
   10801:	89 d6                	mov    %edx,%esi
   10803:	89 c7                	mov    %eax,%edi
   10805:	e8 88 7c ff ff       	callq  8492 <safe_lshift_func_int16_t_s_s>
   1080a:	0f b6 85 f4 e4 ff ff 	movzbl -0x1b0c(%rbp),%eax
   10811:	48 0f be d8          	movsbq %al,%rbx
   10815:	0f b7 85 fc e4 ff ff 	movzwl -0x1b04(%rbp),%eax
   1081c:	0f be c0             	movsbl %al,%eax
   1081f:	be 04 00 00 00       	mov    $0x4,%esi
   10824:	89 c7                	mov    %eax,%edi
   10826:	e8 76 7a ff ff       	callq  82a1 <safe_lshift_func_int8_t_s_s>
   1082b:	0f be d0             	movsbl %al,%edx
   1082e:	66 81 bd f8 e4 ff ff 	cmpw   $0xff,-0x1b08(%rbp)
   10835:	ff 00 
   10837:	0f 97 c0             	seta   %al
   1083a:	0f b6 c0             	movzbl %al,%eax
   1083d:	39 85 ac e5 ff ff    	cmp    %eax,-0x1a54(%rbp)
   10843:	0f 97 c0             	seta   %al
   10846:	0f b6 c0             	movzbl %al,%eax
   10849:	09 c2                	or     %eax,%edx
   1084b:	41 89 d4             	mov    %edx,%r12d
   1084e:	0f b7 85 1e e5 ff ff 	movzwl -0x1ae2(%rbp),%eax
   10855:	0f b7 c0             	movzwl %ax,%eax
   10858:	be 06 00 00 00       	mov    $0x6,%esi
   1085d:	89 c7                	mov    %eax,%edi
   1085f:	e8 a2 85 ff ff       	callq  8e06 <safe_lshift_func_uint16_t_u_u>
   10864:	0f b7 c0             	movzwl %ax,%eax
   10867:	44 31 e0             	xor    %r12d,%eax
   1086a:	83 f8 01             	cmp    $0x1,%eax
   1086d:	0f 9e c0             	setle  %al
   10870:	0f b6 c0             	movzbl %al,%eax
   10873:	48 89 de             	mov    %rbx,%rsi
   10876:	48 89 c7             	mov    %rax,%rdi
   10879:	e8 36 81 ff ff       	callq  89b4 <safe_mod_func_int64_t_s_s>
   1087e:	48 8b 15 d3 f4 00 00 	mov    0xf4d3(%rip),%rdx        # 1fd58 <g_701>
   10885:	48 8b 12             	mov    (%rdx),%rdx
   10888:	48 89 c1             	mov    %rax,%rcx
   1088b:	48 8b 05 c6 f4 00 00 	mov    0xf4c6(%rip),%rax        # 1fd58 <g_701>
   10892:	48 21 ca             	and    %rcx,%rdx
   10895:	48 89 10             	mov    %rdx,(%rax)
   10898:	48 8b 10             	mov    (%rax),%rdx
   1089b:	0f b6 85 f4 e4 ff ff 	movzbl -0x1b0c(%rbp),%eax
   108a2:	48 0f be c0          	movsbq %al,%rax
   108a6:	48 09 c2             	or     %rax,%rdx
   108a9:	48 8b 05 18 f4 00 00 	mov    0xf418(%rip),%rax        # 1fcc8 <g_180>
   108b0:	8b 00                	mov    (%rax),%eax
   108b2:	89 c1                	mov    %eax,%ecx
   108b4:	89 d0                	mov    %edx,%eax
   108b6:	09 c1                	or     %eax,%ecx
   108b8:	89 ca                	mov    %ecx,%edx
   108ba:	48 8b 05 07 f4 00 00 	mov    0xf407(%rip),%rax        # 1fcc8 <g_180>
   108c1:	89 10                	mov    %edx,(%rax)
   108c3:	48 b8 59 b4 85 51 23 	movabs $0xa6dd0a235185b459,%rax
   108ca:	0a dd a6 
   108cd:	0f bf d8             	movswl %ax,%ebx
   108d0:	48 8b 85 e8 e5 ff ff 	mov    -0x1a18(%rbp),%rax
   108d7:	8b 00                	mov    (%rax),%eax
   108d9:	41 89 c6             	mov    %eax,%r14d
   108dc:	8b 05 4e c7 00 00    	mov    0xc74e(%rip),%eax        # 1d030 <g_85>
   108e2:	41 89 c7             	mov    %eax,%r15d
   108e5:	4c 0f bf a5 fc e4 ff 	movswq -0x1b04(%rbp),%r12
   108ec:	ff 
   108ed:	8b 85 ac e5 ff ff    	mov    -0x1a54(%rbp),%eax
   108f3:	44 0f bf e8          	movswl %ax,%r13d
   108f7:	48 8b 85 c0 e5 ff ff 	mov    -0x1a40(%rbp),%rax
   108fe:	8b 00                	mov    (%rax),%eax
   10900:	0f be c0             	movsbl %al,%eax
   10903:	48 8b 95 a0 e8 ff ff 	mov    -0x1760(%rbp),%rdx
   1090a:	c6 02 01             	movb   $0x1,(%rdx)
   1090d:	89 c6                	mov    %eax,%esi
   1090f:	bf 00 00 00 00       	mov    $0x0,%edi
   10914:	e8 51 79 ff ff       	callq  826a <safe_div_func_int8_t_s_s>
   10919:	48 0f be c0          	movsbq %al,%rax
   1091d:	48 ba 8c 19 b4 f6 5a 	movabs $0xa23e4d5af6b4198c,%rdx
   10924:	4d 3e a2 
   10927:	48 21 d0             	and    %rdx,%rax
   1092a:	48 85 c0             	test   %rax,%rax
   1092d:	75 07                	jne    10936 <func_14+0x2609>
   1092f:	b8 01 00 00 00       	mov    $0x1,%eax
   10934:	eb 05                	jmp    1093b <func_14+0x260e>
   10936:	b8 00 00 00 00       	mov    $0x0,%eax
   1093b:	0f b7 c0             	movzwl %ax,%eax
   1093e:	be 07 00 00 00       	mov    $0x7,%esi
   10943:	89 c7                	mov    %eax,%edi
   10945:	e8 74 84 ff ff       	callq  8dbe <safe_lshift_func_uint16_t_u_s>
   1094a:	48 8b 05 ff f3 00 00 	mov    0xf3ff(%rip),%rax        # 1fd50 <g_688>
   10951:	8b 00                	mov    (%rax),%eax
   10953:	31 85 b0 e5 ff ff    	xor    %eax,-0x1a50(%rbp)
   10959:	83 bd b0 e5 ff ff 00 	cmpl   $0x0,-0x1a50(%rbp)
   10960:	74 13                	je     10975 <func_14+0x2648>
   10962:	48 8b 05 87 02 01 00 	mov    0x10287(%rip),%rax        # 20bf0 <g_1211>
   10969:	48 85 c0             	test   %rax,%rax
   1096c:	74 07                	je     10975 <func_14+0x2648>
   1096e:	b8 01 00 00 00       	mov    $0x1,%eax
   10973:	eb 05                	jmp    1097a <func_14+0x264d>
   10975:	b8 00 00 00 00       	mov    $0x0,%eax
   1097a:	98                   	cwtl   
   1097b:	44 89 ee             	mov    %r13d,%esi
   1097e:	89 c7                	mov    %eax,%edi
   10980:	e8 d0 7a ff ff       	callq  8455 <safe_div_func_int16_t_s_s>
   10985:	48 0f bf c0          	movswq %ax,%rax
   10989:	48 39 85 98 e8 ff ff 	cmp    %rax,-0x1768(%rbp)
   10990:	0f 9c c0             	setl   %al
   10993:	0f b6 c0             	movzbl %al,%eax
   10996:	89 c6                	mov    %eax,%esi
   10998:	bf 31 48 00 00       	mov    $0x4831,%edi
   1099d:	e8 11 7a ff ff       	callq  83b3 <safe_add_func_int16_t_s_s>
   109a2:	0f b7 c0             	movzwl %ax,%eax
   109a5:	be 01 00 00 00       	mov    $0x1,%esi
   109aa:	89 c7                	mov    %eax,%edi
   109ac:	e8 dd 83 ff ff       	callq  8d8e <safe_div_func_uint16_t_u_u>
   109b1:	0f b7 85 fc e4 ff ff 	movzwl -0x1b04(%rbp),%eax
   109b8:	0f b6 c0             	movzbl %al,%eax
   109bb:	89 c7                	mov    %eax,%edi
   109bd:	e8 83 81 ff ff       	callq  8b45 <safe_unary_minus_func_uint8_t_u>
   109c2:	4c 89 e6             	mov    %r12,%rsi
   109c5:	bf 00 00 00 00       	mov    $0x0,%edi
   109ca:	e8 d9 7e ff ff       	callq  88a8 <safe_sub_func_int64_t_s_s>
   109cf:	0f b7 15 12 cb 00 00 	movzwl 0xcb12(%rip),%edx        # 1d4e8 <g_292>
   109d6:	48 0f bf d2          	movswq %dx,%rdx
   109da:	48 39 d0             	cmp    %rdx,%rax
   109dd:	7f 08                	jg     109e7 <func_14+0x26ba>
   109df:	66 83 bd f8 e4 ff ff 	cmpw   $0x0,-0x1b08(%rbp)
   109e6:	00 
   109e7:	48 8b 85 e8 e5 ff ff 	mov    -0x1a18(%rbp),%rax
   109ee:	8b 10                	mov    (%rax),%edx
   109f0:	48 8b 85 c0 e5 ff ff 	mov    -0x1a40(%rbp),%rax
   109f7:	8b 00                	mov    (%rax),%eax
   109f9:	39 c2                	cmp    %eax,%edx
   109fb:	7f 08                	jg     10a05 <func_14+0x26d8>
   109fd:	66 83 bd f8 e4 ff ff 	cmpw   $0x0,-0x1b08(%rbp)
   10a04:	00 
   10a05:	44 89 fe             	mov    %r15d,%esi
   10a08:	bf 20 84 c7 4f       	mov    $0x4fc78420,%edi
   10a0d:	e8 13 85 ff ff       	callq  8f25 <safe_div_func_uint32_t_u_u>
   10a12:	83 e0 2b             	and    $0x2b,%eax
   10a15:	44 89 f6             	mov    %r14d,%esi
   10a18:	89 c7                	mov    %eax,%edi
   10a1a:	e8 de 84 ff ff       	callq  8efd <safe_mod_func_uint32_t_u_u>
   10a1f:	98                   	cwtl   
   10a20:	89 de                	mov    %ebx,%esi
   10a22:	89 c7                	mov    %eax,%edi
   10a24:	e8 2c 7a ff ff       	callq  8455 <safe_div_func_int16_t_s_s>
   10a29:	48 8b 05 f8 f2 00 00 	mov    0xf2f8(%rip),%rax        # 1fd28 <g_410>
   10a30:	48 8b 10             	mov    (%rax),%rdx
   10a33:	48 8b 05 8e f2 00 00 	mov    0xf28e(%rip),%rax        # 1fcc8 <g_180>
   10a3a:	8b 12                	mov    (%rdx),%edx
   10a3c:	89 10                	mov    %edx,(%rax)
   10a3e:	0f b6 85 f4 e4 ff ff 	movzbl -0x1b0c(%rbp),%eax
   10a45:	84 c0                	test   %al,%al
   10a47:	74 12                	je     10a5b <func_14+0x272e>
   10a49:	e9 14 02 00 00       	jmpq   10c62 <func_14+0x2935>
   10a4e:	66 0f be 85 09 e5 ff 	movsbw -0x1af7(%rbp),%ax
   10a55:	ff 
   10a56:	e9 ba 2f 00 00       	jmpq   13a15 <func_14+0x56e8>
   10a5b:	8b 9d b0 e5 ff ff    	mov    -0x1a50(%rbp),%ebx
   10a61:	44 0f b7 a5 f8 e4 ff 	movzwl -0x1b08(%rbp),%r12d
   10a68:	ff 
   10a69:	48 8b 95 00 ed ff ff 	mov    -0x1300(%rbp),%rdx
   10a70:	48 8b 05 b1 f9 00 00 	mov    0xf9b1(%rip),%rax        # 20428 <g_1223>
   10a77:	48 8b 00             	mov    (%rax),%rax
   10a7a:	48 8b 00             	mov    (%rax),%rax
   10a7d:	48 39 c2             	cmp    %rax,%rdx
   10a80:	0f 95 c0             	setne  %al
   10a83:	0f b6 c0             	movzbl %al,%eax
   10a86:	89 85 f0 e4 ff ff    	mov    %eax,-0x1b10(%rbp)
   10a8c:	0f b6 85 f4 e4 ff ff 	movzbl -0x1b0c(%rbp),%eax
   10a93:	44 0f b6 e8          	movzbl %al,%r13d
   10a97:	44 0f b7 b5 f8 e4 ff 	movzwl -0x1b08(%rbp),%r14d
   10a9e:	ff 
   10a9f:	0f b7 85 f8 e4 ff ff 	movzwl -0x1b08(%rbp),%eax
   10aa6:	44 0f b6 f8          	movzbl %al,%r15d
   10aaa:	0f b6 85 f4 e4 ff ff 	movzbl -0x1b0c(%rbp),%eax
   10ab1:	0f be c0             	movsbl %al,%eax
   10ab4:	89 85 ec e4 ff ff    	mov    %eax,-0x1b14(%rbp)
   10aba:	0f b7 85 fc e4 ff ff 	movzwl -0x1b04(%rbp),%eax
   10ac1:	0f be d0             	movsbl %al,%edx
   10ac4:	66 81 bd f8 e4 ff ff 	cmpw   $0x83,-0x1b08(%rbp)
   10acb:	83 00 
   10acd:	0f 97 c0             	seta   %al
   10ad0:	0f b6 c0             	movzbl %al,%eax
   10ad3:	89 d6                	mov    %edx,%esi
   10ad5:	89 c7                	mov    %eax,%edi
   10ad7:	e8 36 77 ff ff       	callq  8212 <safe_mul_func_int8_t_s_s>
   10adc:	84 c0                	test   %al,%al
   10ade:	75 0a                	jne    10aea <func_14+0x27bd>
   10ae0:	66 83 bd f8 e4 ff ff 	cmpw   $0x0,-0x1b08(%rbp)
   10ae7:	00 
   10ae8:	74 07                	je     10af1 <func_14+0x27c4>
   10aea:	b8 01 00 00 00       	mov    $0x1,%eax
   10aef:	eb 05                	jmp    10af6 <func_14+0x27c9>
   10af1:	b8 00 00 00 00       	mov    $0x0,%eax
   10af6:	3b 85 ec e4 ff ff    	cmp    -0x1b14(%rbp),%eax
   10afc:	0f 9c c0             	setl   %al
   10aff:	0f b6 c0             	movzbl %al,%eax
   10b02:	f7 d0                	not    %eax
   10b04:	89 85 ec e4 ff ff    	mov    %eax,-0x1b14(%rbp)
   10b0a:	48 8b 85 c0 e5 ff ff 	mov    -0x1a40(%rbp),%rax
   10b11:	8b 00                	mov    (%rax),%eax
   10b13:	0f b6 c0             	movzbl %al,%eax
   10b16:	89 c6                	mov    %eax,%esi
   10b18:	bf 01 00 00 00       	mov    $0x1,%edi
   10b1d:	e8 71 80 ff ff       	callq  8b93 <safe_mul_func_uint8_t_u_u>
   10b22:	0f b6 d0             	movzbl %al,%edx
   10b25:	48 8b 85 d0 e8 ff ff 	mov    -0x1730(%rbp),%rax
   10b2c:	48 c7 00 fe ff ff ff 	movq   $0xfffffffffffffffe,(%rax)
   10b33:	48 8b 85 d0 e8 ff ff 	mov    -0x1730(%rbp),%rax
   10b3a:	48 8b 00             	mov    (%rax),%rax
   10b3d:	48 89 d6             	mov    %rdx,%rsi
   10b40:	48 89 c7             	mov    %rax,%rdi
   10b43:	e8 af 7e ff ff       	callq  89f7 <safe_div_func_int64_t_s_s>
   10b48:	0f b7 c0             	movzwl %ax,%eax
   10b4b:	8b b5 ec e4 ff ff    	mov    -0x1b14(%rbp),%esi
   10b51:	89 c7                	mov    %eax,%edi
   10b53:	e8 66 82 ff ff       	callq  8dbe <safe_lshift_func_uint16_t_u_s>
   10b58:	0f b7 85 f8 e4 ff ff 	movzwl -0x1b08(%rbp),%eax
   10b5f:	0f b6 c0             	movzbl %al,%eax
   10b62:	44 89 fe             	mov    %r15d,%esi
   10b65:	89 c7                	mov    %eax,%edi
   10b67:	e8 ee 7f ff ff       	callq  8b5a <safe_add_func_uint8_t_u_u>
   10b6c:	0f b6 c0             	movzbl %al,%eax
   10b6f:	66 0b 85 fc e4 ff ff 	or     -0x1b04(%rbp),%ax
   10b76:	0f b7 c0             	movzwl %ax,%eax
   10b79:	44 89 f6             	mov    %r14d,%esi
   10b7c:	89 c7                	mov    %eax,%edi
   10b7e:	e8 c5 82 ff ff       	callq  8e48 <safe_rshift_func_uint16_t_u_s>
   10b83:	0f b6 c0             	movzbl %al,%eax
   10b86:	44 89 ee             	mov    %r13d,%esi
   10b89:	89 c7                	mov    %eax,%edi
   10b8b:	e8 03 80 ff ff       	callq  8b93 <safe_mul_func_uint8_t_u_u>
   10b90:	0f b6 d0             	movzbl %al,%edx
   10b93:	0f be 85 09 e5 ff ff 	movsbl -0x1af7(%rbp),%eax
   10b9a:	39 c2                	cmp    %eax,%edx
   10b9c:	0f 9e c0             	setle  %al
   10b9f:	0f b6 c0             	movzbl %al,%eax
   10ba2:	be 0d 00 00 00       	mov    $0xd,%esi
   10ba7:	89 c7                	mov    %eax,%edi
   10ba9:	e8 33 79 ff ff       	callq  84e1 <safe_lshift_func_int16_t_s_u>
   10bae:	98                   	cwtl   
   10baf:	39 85 f0 e4 ff ff    	cmp    %eax,-0x1b10(%rbp)
   10bb5:	0f 9f c0             	setg   %al
   10bb8:	0f b6 d0             	movzbl %al,%edx
   10bbb:	0f b7 05 3c c9 00 00 	movzwl 0xc93c(%rip),%eax        # 1d4fe <g_502>
   10bc2:	98                   	cwtl   
   10bc3:	39 c2                	cmp    %eax,%edx
   10bc5:	0f 94 c0             	sete   %al
   10bc8:	0f b6 d0             	movzbl %al,%edx
   10bcb:	48 8b 85 c0 e5 ff ff 	mov    -0x1a40(%rbp),%rax
   10bd2:	8b 00                	mov    (%rax),%eax
   10bd4:	39 c2                	cmp    %eax,%edx
   10bd6:	0f 9c c0             	setl   %al
   10bd9:	0f b6 c0             	movzbl %al,%eax
   10bdc:	44 89 e6             	mov    %r12d,%esi
   10bdf:	89 c7                	mov    %eax,%edi
   10be1:	e8 1f 80 ff ff       	callq  8c05 <safe_lshift_func_uint8_t_u_s>
   10be6:	0f b6 c0             	movzbl %al,%eax
   10be9:	89 de                	mov    %ebx,%esi
   10beb:	89 c7                	mov    %eax,%edi
   10bed:	e8 14 82 ff ff       	callq  8e06 <safe_lshift_func_uint16_t_u_u>
   10bf2:	89 c2                	mov    %eax,%edx
   10bf4:	48 8b 05 cd f0 00 00 	mov    0xf0cd(%rip),%rax        # 1fcc8 <g_180>
   10bfb:	0f b7 d2             	movzwl %dx,%edx
   10bfe:	89 10                	mov    %edx,(%rax)
   10c00:	48 8b 95 c0 e5 ff ff 	mov    -0x1a40(%rbp),%rdx
   10c07:	8b 00                	mov    (%rax),%eax
   10c09:	89 02                	mov    %eax,(%rdx)
   10c0b:	48 8d 85 20 e9 ff ff 	lea    -0x16e0(%rbp),%rax
   10c12:	48 83 c0 10          	add    $0x10,%rax
   10c16:	48 89 85 c0 e5 ff ff 	mov    %rax,-0x1a40(%rbp)
   10c1d:	eb 01                	jmp    10c20 <func_14+0x28f3>
   10c1f:	90                   	nop
   10c20:	0f b7 05 b9 c8 00 00 	movzwl 0xc8b9(%rip),%eax        # 1d4e0 <g_255>
   10c27:	98                   	cwtl   
   10c28:	be 01 00 00 00       	mov    $0x1,%esi
   10c2d:	89 c7                	mov    %eax,%edi
   10c2f:	e8 9c 82 ff ff       	callq  8ed0 <safe_sub_func_uint32_t_u_u>
   10c34:	66 89 05 a5 c8 00 00 	mov    %ax,0xc8a5(%rip)        # 1d4e0 <g_255>
   10c3b:	0f b7 05 9e c8 00 00 	movzwl 0xc89e(%rip),%eax        # 1d4e0 <g_255>
   10c42:	66 83 f8 0b          	cmp    $0xb,%ax
   10c46:	0f 8e 14 e9 ff ff    	jle    f560 <func_14+0x1233>
   10c4c:	eb 14                	jmp    10c62 <func_14+0x2935>
   10c4e:	48 8b 05 fb f1 00 00 	mov    0xf1fb(%rip),%rax        # 1fe50 <g_786>
   10c55:	48 8b 95 b0 eb ff ff 	mov    -0x1450(%rbp),%rdx
   10c5c:	48 89 10             	mov    %rdx,(%rax)
   10c5f:	eb 01                	jmp    10c62 <func_14+0x2935>
   10c61:	90                   	nop
   10c62:	66 c7 05 d1 c8 00 00 	movw   $0x0,0xc8d1(%rip)        # 1d53c <g_1244>
   10c69:	00 00 
   10c6b:	eb 26                	jmp    10c93 <func_14+0x2966>
   10c6d:	0f b7 05 c8 c8 00 00 	movzwl 0xc8c8(%rip),%eax        # 1d53c <g_1244>
   10c74:	98                   	cwtl   
   10c75:	48 98                	cltq   
   10c77:	c7 84 85 20 ea ff ff 	movl   $0x7093157a,-0x15e0(%rbp,%rax,4)
   10c7e:	7a 15 93 70 
   10c82:	0f b7 05 b3 c8 00 00 	movzwl 0xc8b3(%rip),%eax        # 1d53c <g_1244>
   10c89:	83 c0 01             	add    $0x1,%eax
   10c8c:	66 89 05 a9 c8 00 00 	mov    %ax,0xc8a9(%rip)        # 1d53c <g_1244>
   10c93:	0f b7 05 a2 c8 00 00 	movzwl 0xc8a2(%rip),%eax        # 1d53c <g_1244>
   10c9a:	66 83 f8 02          	cmp    $0x2,%ax
   10c9e:	7e cd                	jle    10c6d <func_14+0x2940>
   10ca0:	e9 51 2d 00 00       	jmpq   139f6 <func_14+0x56c9>
   10ca5:	48 8d 05 6c f7 00 00 	lea    0xf76c(%rip),%rax        # 20418 <g_1225>
   10cac:	48 89 85 48 e6 ff ff 	mov    %rax,-0x19b8(%rbp)
   10cb3:	48 8d 85 b8 e5 ff ff 	lea    -0x1a48(%rbp),%rax
   10cba:	48 89 85 e8 e5 ff ff 	mov    %rax,-0x1a18(%rbp)
   10cc1:	c7 85 24 e5 ff ff ff 	movl   $0xffffffff,-0x1adc(%rbp)
   10cc8:	ff ff ff 
   10ccb:	66 c7 85 b0 ea ff ff 	movw   $0x1,-0x1550(%rbp)
   10cd2:	01 00 
   10cd4:	66 c7 85 b2 ea ff ff 	movw   $0x0,-0x154e(%rbp)
   10cdb:	00 00 
   10cdd:	66 c7 85 b4 ea ff ff 	movw   $0x0,-0x154c(%rbp)
   10ce4:	00 00 
   10ce6:	66 c7 85 b6 ea ff ff 	movw   $0x0,-0x154a(%rbp)
   10ced:	00 00 
   10cef:	66 c7 85 b8 ea ff ff 	movw   $0xffff,-0x1548(%rbp)
   10cf6:	ff ff 
   10cf8:	66 c7 85 ba ea ff ff 	movw   $0x3a82,-0x1546(%rbp)
   10cff:	82 3a 
   10d01:	66 c7 85 bc ea ff ff 	movw   $0xffff,-0x1544(%rbp)
   10d08:	ff ff 
   10d0a:	66 c7 85 be ea ff ff 	movw   $0x0,-0x1542(%rbp)
   10d11:	00 00 
   10d13:	66 c7 85 c0 ea ff ff 	movw   $0x0,-0x1540(%rbp)
   10d1a:	00 00 
   10d1c:	66 c7 85 c2 ea ff ff 	movw   $0xffff,-0x153e(%rbp)
   10d23:	ff ff 
   10d25:	66 c7 85 c4 ea ff ff 	movw   $0x3a82,-0x153c(%rbp)
   10d2c:	82 3a 
   10d2e:	66 c7 85 c6 ea ff ff 	movw   $0xffff,-0x153a(%rbp)
   10d35:	ff ff 
   10d37:	66 c7 85 c8 ea ff ff 	movw   $0x0,-0x1538(%rbp)
   10d3e:	00 00 
   10d40:	66 c7 85 ca ea ff ff 	movw   $0x0,-0x1536(%rbp)
   10d47:	00 00 
   10d49:	66 c7 85 cc ea ff ff 	movw   $0xffff,-0x1534(%rbp)
   10d50:	ff ff 
   10d52:	66 c7 85 ce ea ff ff 	movw   $0x3a82,-0x1532(%rbp)
   10d59:	82 3a 
   10d5b:	66 c7 85 d0 ea ff ff 	movw   $0xffff,-0x1530(%rbp)
   10d62:	ff ff 
   10d64:	66 c7 85 d2 ea ff ff 	movw   $0x0,-0x152e(%rbp)
   10d6b:	00 00 
   10d6d:	66 c7 85 d4 ea ff ff 	movw   $0x0,-0x152c(%rbp)
   10d74:	00 00 
   10d76:	66 c7 85 d6 ea ff ff 	movw   $0xffff,-0x152a(%rbp)
   10d7d:	ff ff 
   10d7f:	66 c7 85 d8 ea ff ff 	movw   $0x3a82,-0x1528(%rbp)
   10d86:	82 3a 
   10d88:	66 c7 85 da ea ff ff 	movw   $0xffff,-0x1526(%rbp)
   10d8f:	ff ff 
   10d91:	66 c7 85 dc ea ff ff 	movw   $0x0,-0x1524(%rbp)
   10d98:	00 00 
   10d9a:	66 c7 85 de ea ff ff 	movw   $0x0,-0x1522(%rbp)
   10da1:	00 00 
   10da3:	66 c7 85 e0 ea ff ff 	movw   $0xffff,-0x1520(%rbp)
   10daa:	ff ff 
   10dac:	66 c7 85 e2 ea ff ff 	movw   $0x3a82,-0x151e(%rbp)
   10db3:	82 3a 
   10db5:	66 c7 85 e4 ea ff ff 	movw   $0xffff,-0x151c(%rbp)
   10dbc:	ff ff 
   10dbe:	66 c7 85 e6 ea ff ff 	movw   $0x0,-0x151a(%rbp)
   10dc5:	00 00 
   10dc7:	66 c7 85 e8 ea ff ff 	movw   $0x0,-0x1518(%rbp)
   10dce:	00 00 
   10dd0:	66 c7 85 ea ea ff ff 	movw   $0xffff,-0x1516(%rbp)
   10dd7:	ff ff 
   10dd9:	66 c7 85 ec ea ff ff 	movw   $0x3a82,-0x1514(%rbp)
   10de0:	82 3a 
   10de2:	66 c7 85 ee ea ff ff 	movw   $0xffff,-0x1512(%rbp)
   10de9:	ff ff 
   10deb:	66 c7 85 f0 ea ff ff 	movw   $0x0,-0x1510(%rbp)
   10df2:	00 00 
   10df4:	66 c7 85 f2 ea ff ff 	movw   $0x0,-0x150e(%rbp)
   10dfb:	00 00 
   10dfd:	66 c7 85 f4 ea ff ff 	movw   $0xffff,-0x150c(%rbp)
   10e04:	ff ff 
   10e06:	66 c7 85 f6 ea ff ff 	movw   $0x3a82,-0x150a(%rbp)
   10e0d:	82 3a 
   10e0f:	66 c7 85 f8 ea ff ff 	movw   $0xffff,-0x1508(%rbp)
   10e16:	ff ff 
   10e18:	66 c7 85 fa ea ff ff 	movw   $0x0,-0x1506(%rbp)
   10e1f:	00 00 
   10e21:	66 c7 85 fc ea ff ff 	movw   $0x0,-0x1504(%rbp)
   10e28:	00 00 
   10e2a:	66 c7 85 fe ea ff ff 	movw   $0xffff,-0x1502(%rbp)
   10e31:	ff ff 
   10e33:	66 c7 85 00 eb ff ff 	movw   $0x3a82,-0x1500(%rbp)
   10e3a:	82 3a 
   10e3c:	66 c7 85 02 eb ff ff 	movw   $0xffff,-0x14fe(%rbp)
   10e43:	ff ff 
   10e45:	66 c7 85 04 eb ff ff 	movw   $0x0,-0x14fc(%rbp)
   10e4c:	00 00 
   10e4e:	66 c7 85 06 eb ff ff 	movw   $0x0,-0x14fa(%rbp)
   10e55:	00 00 
   10e57:	66 c7 85 08 eb ff ff 	movw   $0xffff,-0x14f8(%rbp)
   10e5e:	ff ff 
   10e60:	66 c7 85 0a eb ff ff 	movw   $0x3a82,-0x14f6(%rbp)
   10e67:	82 3a 
   10e69:	66 c7 85 0c eb ff ff 	movw   $0xffff,-0x14f4(%rbp)
   10e70:	ff ff 
   10e72:	66 c7 85 0e eb ff ff 	movw   $0x0,-0x14f2(%rbp)
   10e79:	00 00 
   10e7b:	66 c7 85 10 eb ff ff 	movw   $0x0,-0x14f0(%rbp)
   10e82:	00 00 
   10e84:	66 c7 85 12 eb ff ff 	movw   $0xffff,-0x14ee(%rbp)
   10e8b:	ff ff 
   10e8d:	48 8d 05 34 ee 00 00 	lea    0xee34(%rip),%rax        # 1fcc8 <g_180>
   10e94:	48 89 85 50 e6 ff ff 	mov    %rax,-0x19b0(%rbp)
   10e9b:	48 8d 85 f8 e8 ff ff 	lea    -0x1708(%rbp),%rax
   10ea2:	48 89 85 20 ea ff ff 	mov    %rax,-0x15e0(%rbp)
   10ea9:	48 8d 85 f8 e8 ff ff 	lea    -0x1708(%rbp),%rax
   10eb0:	48 89 85 28 ea ff ff 	mov    %rax,-0x15d8(%rbp)
   10eb7:	48 8d 85 f8 e8 ff ff 	lea    -0x1708(%rbp),%rax
   10ebe:	48 89 85 30 ea ff ff 	mov    %rax,-0x15d0(%rbp)
   10ec5:	48 8d 85 f8 e8 ff ff 	lea    -0x1708(%rbp),%rax
   10ecc:	48 89 85 38 ea ff ff 	mov    %rax,-0x15c8(%rbp)
   10ed3:	48 8d 85 f8 e8 ff ff 	lea    -0x1708(%rbp),%rax
   10eda:	48 89 85 40 ea ff ff 	mov    %rax,-0x15c0(%rbp)
   10ee1:	48 8d 85 f8 e8 ff ff 	lea    -0x1708(%rbp),%rax
   10ee8:	48 89 85 48 ea ff ff 	mov    %rax,-0x15b8(%rbp)
   10eef:	48 8d 85 f8 e8 ff ff 	lea    -0x1708(%rbp),%rax
   10ef6:	48 89 85 50 ea ff ff 	mov    %rax,-0x15b0(%rbp)
   10efd:	48 b8 89 82 2c e0 00 	movabs $0x6d09a000e02c8289,%rax
   10f04:	a0 09 6d 
   10f07:	48 89 85 58 e6 ff ff 	mov    %rax,-0x19a8(%rbp)
   10f0e:	48 8d 05 17 c6 00 00 	lea    0xc617(%rip),%rax        # 1d52c <g_975>
   10f15:	48 89 85 f0 e5 ff ff 	mov    %rax,-0x1a10(%rbp)
   10f1c:	48 8d 85 f0 e5 ff ff 	lea    -0x1a10(%rbp),%rax
   10f23:	48 89 85 60 e6 ff ff 	mov    %rax,-0x19a0(%rbp)
   10f2a:	48 8d 05 07 c6 00 00 	lea    0xc607(%rip),%rax        # 1d538 <g_1148>
   10f31:	48 89 85 68 e6 ff ff 	mov    %rax,-0x1998(%rbp)
   10f38:	c6 85 02 e5 ff ff b3 	movb   $0xb3,-0x1afe(%rbp)
   10f3f:	48 8d 05 f2 c5 00 00 	lea    0xc5f2(%rip),%rax        # 1d538 <g_1148>
   10f46:	48 89 85 70 e6 ff ff 	mov    %rax,-0x1990(%rbp)
   10f4d:	48 c7 85 78 e6 ff ff 	movq   $0x0,-0x1988(%rbp)
   10f54:	00 00 00 00 
   10f58:	48 c7 85 80 e6 ff ff 	movq   $0x0,-0x1980(%rbp)
   10f5f:	00 00 00 00 
   10f63:	c7 85 40 e5 ff ff 00 	movl   $0x0,-0x1ac0(%rbp)
   10f6a:	00 00 00 
   10f6d:	eb 1a                	jmp    10f89 <func_14+0x2c5c>
   10f6f:	8b 85 40 e5 ff ff    	mov    -0x1ac0(%rbp),%eax
   10f75:	48 98                	cltq   
   10f77:	c7 84 85 50 e9 ff ff 	movl   $0x0,-0x16b0(%rbp,%rax,4)
   10f7e:	00 00 00 00 
   10f82:	83 85 40 e5 ff ff 01 	addl   $0x1,-0x1ac0(%rbp)
   10f89:	83 bd 40 e5 ff ff 08 	cmpl   $0x8,-0x1ac0(%rbp)
   10f90:	7e dd                	jle    10f6f <func_14+0x2c42>
   10f92:	c7 85 40 e5 ff ff 00 	movl   $0x0,-0x1ac0(%rbp)
   10f99:	00 00 00 
   10f9c:	eb 1b                	jmp    10fb9 <func_14+0x2c8c>
   10f9e:	8b 85 40 e5 ff ff    	mov    -0x1ac0(%rbp),%eax
   10fa4:	48 98                	cltq   
   10fa6:	48 c7 84 c5 f8 e8 ff 	movq   $0x0,-0x1708(%rbp,%rax,8)
   10fad:	ff 00 00 00 00 
   10fb2:	83 85 40 e5 ff ff 01 	addl   $0x1,-0x1ac0(%rbp)
   10fb9:	83 bd 40 e5 ff ff 00 	cmpl   $0x0,-0x1ac0(%rbp)
   10fc0:	7e dc                	jle    10f9e <func_14+0x2c71>
   10fc2:	c7 85 40 e5 ff ff 00 	movl   $0x0,-0x1ac0(%rbp)
   10fc9:	00 00 00 
   10fcc:	eb 55                	jmp    11023 <func_14+0x2cf6>
   10fce:	c7 85 44 e5 ff ff 00 	movl   $0x0,-0x1abc(%rbp)
   10fd5:	00 00 00 
   10fd8:	eb 39                	jmp    11013 <func_14+0x2ce6>
   10fda:	8b 85 44 e5 ff ff    	mov    -0x1abc(%rbp),%eax
   10fe0:	48 63 c8             	movslq %eax,%rcx
   10fe3:	8b 85 40 e5 ff ff    	mov    -0x1ac0(%rbp),%eax
   10fe9:	48 63 d0             	movslq %eax,%rdx
   10fec:	48 89 d0             	mov    %rdx,%rax
   10fef:	48 c1 e0 02          	shl    $0x2,%rax
   10ff3:	48 01 d0             	add    %rdx,%rax
   10ff6:	48 01 c8             	add    %rcx,%rax
   10ff9:	48 8d 95 20 e9 ff ff 	lea    -0x16e0(%rbp),%rdx
   11000:	48 83 c2 1c          	add    $0x1c,%rdx
   11004:	48 89 94 c5 90 ee ff 	mov    %rdx,-0x1170(%rbp,%rax,8)
   1100b:	ff 
   1100c:	83 85 44 e5 ff ff 01 	addl   $0x1,-0x1abc(%rbp)
   11013:	83 bd 44 e5 ff ff 04 	cmpl   $0x4,-0x1abc(%rbp)
   1101a:	7e be                	jle    10fda <func_14+0x2cad>
   1101c:	83 85 40 e5 ff ff 01 	addl   $0x1,-0x1ac0(%rbp)
   11023:	83 bd 40 e5 ff ff 08 	cmpl   $0x8,-0x1ac0(%rbp)
   1102a:	7e a2                	jle    10fce <func_14+0x2ca1>
   1102c:	c7 85 40 e5 ff ff 00 	movl   $0x0,-0x1ac0(%rbp)
   11033:	00 00 00 
   11036:	eb 71                	jmp    110a9 <func_14+0x2d7c>
   11038:	c7 85 44 e5 ff ff 00 	movl   $0x0,-0x1abc(%rbp)
   1103f:	00 00 00 
   11042:	eb 55                	jmp    11099 <func_14+0x2d6c>
   11044:	c7 85 48 e5 ff ff 00 	movl   $0x0,-0x1ab8(%rbp)
   1104b:	00 00 00 
   1104e:	eb 39                	jmp    11089 <func_14+0x2d5c>
   11050:	8b 85 48 e5 ff ff    	mov    -0x1ab8(%rbp),%eax
   11056:	48 63 d0             	movslq %eax,%rdx
   11059:	8b 85 44 e5 ff ff    	mov    -0x1abc(%rbp),%eax
   1105f:	48 98                	cltq   
   11061:	8b 8d 40 e5 ff ff    	mov    -0x1ac0(%rbp),%ecx
   11067:	48 63 c9             	movslq %ecx,%rcx
   1106a:	48 01 c9             	add    %rcx,%rcx
   1106d:	48 01 ca             	add    %rcx,%rdx
   11070:	48 01 c2             	add    %rax,%rdx
   11073:	48 8d 85 d0 e5 ff ff 	lea    -0x1a30(%rbp),%rax
   1107a:	48 89 84 d5 00 e9 ff 	mov    %rax,-0x1700(%rbp,%rdx,8)
   11081:	ff 
   11082:	83 85 48 e5 ff ff 01 	addl   $0x1,-0x1ab8(%rbp)
   11089:	83 bd 48 e5 ff ff 00 	cmpl   $0x0,-0x1ab8(%rbp)
   11090:	7e be                	jle    11050 <func_14+0x2d23>
   11092:	83 85 44 e5 ff ff 01 	addl   $0x1,-0x1abc(%rbp)
   11099:	83 bd 44 e5 ff ff 01 	cmpl   $0x1,-0x1abc(%rbp)
   110a0:	7e a2                	jle    11044 <func_14+0x2d17>
   110a2:	83 85 40 e5 ff ff 01 	addl   $0x1,-0x1ac0(%rbp)
   110a9:	83 bd 40 e5 ff ff 00 	cmpl   $0x0,-0x1ac0(%rbp)
   110b0:	7e 86                	jle    11038 <func_14+0x2d0b>
   110b2:	0f b7 9d f8 e4 ff ff 	movzwl -0x1b08(%rbp),%ebx
   110b9:	0f b7 05 f0 c2 00 00 	movzwl 0xc2f0(%rip),%eax        # 1d3b0 <g_184>
   110c0:	44 0f b7 e0          	movzwl %ax,%r12d
   110c4:	8b 85 00 ee ff ff    	mov    -0x1200(%rbp),%eax
   110ca:	85 c0                	test   %eax,%eax
   110cc:	0f 94 c0             	sete   %al
   110cf:	44 0f b6 e8          	movzbl %al,%r13d
   110d3:	0f b7 85 f8 e4 ff ff 	movzwl -0x1b08(%rbp),%eax
   110da:	98                   	cwtl   
   110db:	be 85 d4 ff ff       	mov    $0xffffd485,%esi
   110e0:	89 c7                	mov    %eax,%edi
   110e2:	e8 6e 73 ff ff       	callq  8455 <safe_div_func_int16_t_s_s>
   110e7:	0f be c0             	movsbl %al,%eax
   110ea:	be 06 00 00 00       	mov    $0x6,%esi
   110ef:	89 c7                	mov    %eax,%edi
   110f1:	e8 76 72 ff ff       	callq  836c <safe_rshift_func_int8_t_s_u>
   110f6:	48 8b 95 c0 e5 ff ff 	mov    -0x1a40(%rbp),%rdx
   110fd:	8b 0a                	mov    (%rdx),%ecx
   110ff:	0f be d0             	movsbl %al,%edx
   11102:	48 8b 85 c0 e5 ff ff 	mov    -0x1a40(%rbp),%rax
   11109:	09 ca                	or     %ecx,%edx
   1110b:	89 10                	mov    %edx,(%rax)
   1110d:	8b 10                	mov    (%rax),%edx
   1110f:	0f b6 85 f4 e4 ff ff 	movzbl -0x1b0c(%rbp),%eax
   11116:	0f be c0             	movsbl %al,%eax
   11119:	39 c2                	cmp    %eax,%edx
   1111b:	0f 9e c0             	setle  %al
   1111e:	f7 d0                	not    %eax
   11120:	0f be d0             	movsbl %al,%edx
   11123:	48 83 bd 48 e6 ff ff 	cmpq   $0x0,-0x19b8(%rbp)
   1112a:	00 
   1112b:	0f 94 c0             	sete   %al
   1112e:	0f b6 c0             	movzbl %al,%eax
   11131:	89 d6                	mov    %edx,%esi
   11133:	89 c7                	mov    %eax,%edi
   11135:	e8 d8 70 ff ff       	callq  8212 <safe_mul_func_int8_t_s_s>
   1113a:	83 f0 07             	xor    $0x7,%eax
   1113d:	0f be c0             	movsbl %al,%eax
   11140:	41 39 c5             	cmp    %eax,%r13d
   11143:	0f 92 c0             	setb   %al
   11146:	0f b6 c0             	movzbl %al,%eax
   11149:	41 39 c4             	cmp    %eax,%r12d
   1114c:	0f 9c c0             	setl   %al
   1114f:	0f b6 c0             	movzbl %al,%eax
   11152:	89 de                	mov    %ebx,%esi
   11154:	89 c7                	mov    %eax,%edi
   11156:	e8 f1 7a ff ff       	callq  8c4c <safe_lshift_func_uint8_t_u_u>
   1115b:	0f b6 c0             	movzbl %al,%eax
   1115e:	48 89 c6             	mov    %rax,%rsi
   11161:	48 c7 c7 ff ff ff ff 	mov    $0xffffffffffffffff,%rdi
   11168:	e8 47 78 ff ff       	callq  89b4 <safe_mod_func_int64_t_s_s>
   1116d:	48 83 f8 01          	cmp    $0x1,%rax
   11171:	0f 94 c2             	sete   %dl
   11174:	48 8b 05 4d eb 00 00 	mov    0xeb4d(%rip),%rax        # 1fcc8 <g_180>
   1117b:	0f b6 d2             	movzbl %dl,%edx
   1117e:	89 10                	mov    %edx,(%rax)
   11180:	66 c7 05 57 c3 00 00 	movw   $0xffff,0xc357(%rip)        # 1d4e0 <g_255>
   11187:	ff ff 
   11189:	e9 e5 23 00 00       	jmpq   13573 <func_14+0x5246>
   1118e:	48 8d 05 db f2 00 00 	lea    0xf2db(%rip),%rax        # 20470 <g_1617+0x10>
   11195:	48 89 85 b0 e6 ff ff 	mov    %rax,-0x1950(%rbp)
   1119c:	48 8d 05 9d f2 00 00 	lea    0xf29d(%rip),%rax        # 20440 <g_1618>
   111a3:	48 89 85 f8 e5 ff ff 	mov    %rax,-0x1a08(%rbp)
   111aa:	48 8d 85 f8 e5 ff ff 	lea    -0x1a08(%rbp),%rax
   111b1:	48 89 85 b8 e6 ff ff 	mov    %rax,-0x1948(%rbp)
   111b8:	c7 85 4c e5 ff ff 00 	movl   $0x0,-0x1ab4(%rbp)
   111bf:	00 00 00 
   111c2:	c7 85 28 e5 ff ff 05 	movl   $0x5,-0x1ad8(%rbp)
   111c9:	00 00 00 
   111cc:	48 8d 05 75 be 00 00 	lea    0xbe75(%rip),%rax        # 1d048 <g_113+0x8>
   111d3:	48 89 85 c0 e6 ff ff 	mov    %rax,-0x1940(%rbp)
   111da:	48 8d 05 ff c0 00 00 	lea    0xc0ff(%rip),%rax        # 1d2e0 <g_176+0x280>
   111e1:	48 89 85 c8 e6 ff ff 	mov    %rax,-0x1938(%rbp)
   111e8:	c7 85 2c e5 ff ff 00 	movl   $0x0,-0x1ad4(%rbp)
   111ef:	00 00 00 
   111f2:	c7 85 30 e5 ff ff 35 	movl   $0xfcc39135,-0x1ad0(%rbp)
   111f9:	91 c3 fc 
   111fc:	c7 45 c1 ff 00 00 ff 	movl   $0xff0000ff,-0x3f(%rbp)
   11203:	66 c7 45 c5 00 00    	movw   $0x0,-0x3b(%rbp)
   11209:	c6 45 c7 ff          	movb   $0xff,-0x39(%rbp)
   1120d:	c7 85 50 e5 ff ff f9 	movl   $0xfffffff9,-0x1ab0(%rbp)
   11214:	ff ff ff 
   11217:	66 c7 85 0a e5 ff ff 	movw   $0xffff,-0x1af6(%rbp)
   1121e:	ff ff 
   11220:	48 c7 85 00 e6 ff ff 	movq   $0x0,-0x1a00(%rbp)
   11227:	00 00 00 00 
   1122b:	c7 85 00 e6 ff ff ff 	movl   $0xffffffff,-0x1a00(%rbp)
   11232:	ff ff ff 
   11235:	66 c7 85 14 e5 ff ff 	movw   $0xf1f,-0x1aec(%rbp)
   1123c:	1f 0f 
   1123e:	48 8d 05 d3 f1 00 00 	lea    0xf1d3(%rip),%rax        # 20418 <g_1225>
   11245:	48 89 85 d0 e6 ff ff 	mov    %rax,-0x1930(%rbp)
   1124c:	48 8d 05 11 c3 00 00 	lea    0xc311(%rip),%rax        # 1d564 <g_1978>
   11253:	48 89 85 d8 e6 ff ff 	mov    %rax,-0x1928(%rbp)
   1125a:	48 c7 85 e0 e6 ff ff 	movq   $0x0,-0x1920(%rbp)
   11261:	00 00 00 00 
   11265:	48 8d 85 e8 e5 ff ff 	lea    -0x1a18(%rbp),%rax
   1126c:	48 89 85 80 ec ff ff 	mov    %rax,-0x1380(%rbp)
   11273:	48 8d 85 e8 e5 ff ff 	lea    -0x1a18(%rbp),%rax
   1127a:	48 89 85 88 ec ff ff 	mov    %rax,-0x1378(%rbp)
   11281:	48 8d 85 e8 e5 ff ff 	lea    -0x1a18(%rbp),%rax
   11288:	48 89 85 90 ec ff ff 	mov    %rax,-0x1370(%rbp)
   1128f:	48 8d 85 e8 e5 ff ff 	lea    -0x1a18(%rbp),%rax
   11296:	48 89 85 98 ec ff ff 	mov    %rax,-0x1368(%rbp)
   1129d:	48 8d 85 e8 e5 ff ff 	lea    -0x1a18(%rbp),%rax
   112a4:	48 89 85 a0 ec ff ff 	mov    %rax,-0x1360(%rbp)
   112ab:	48 8d 85 e8 e5 ff ff 	lea    -0x1a18(%rbp),%rax
   112b2:	48 89 85 a8 ec ff ff 	mov    %rax,-0x1358(%rbp)
   112b9:	48 8d 85 e8 e5 ff ff 	lea    -0x1a18(%rbp),%rax
   112c0:	48 89 85 b0 ec ff ff 	mov    %rax,-0x1350(%rbp)
   112c7:	48 8d 85 e8 e5 ff ff 	lea    -0x1a18(%rbp),%rax
   112ce:	48 89 85 b8 ec ff ff 	mov    %rax,-0x1348(%rbp)
   112d5:	48 8d 85 e8 e5 ff ff 	lea    -0x1a18(%rbp),%rax
   112dc:	48 89 85 c0 ec ff ff 	mov    %rax,-0x1340(%rbp)
   112e3:	48 8d 85 e8 e5 ff ff 	lea    -0x1a18(%rbp),%rax
   112ea:	48 89 85 c8 ec ff ff 	mov    %rax,-0x1338(%rbp)
   112f1:	48 8d 85 e8 e5 ff ff 	lea    -0x1a18(%rbp),%rax
   112f8:	48 89 85 d0 ec ff ff 	mov    %rax,-0x1330(%rbp)
   112ff:	48 8d 85 e8 e5 ff ff 	lea    -0x1a18(%rbp),%rax
   11306:	48 89 85 d8 ec ff ff 	mov    %rax,-0x1328(%rbp)
   1130d:	48 8d 05 64 f8 00 00 	lea    0xf864(%rip),%rax        # 20b78 <g_474>
   11314:	48 89 85 e0 ec ff ff 	mov    %rax,-0x1320(%rbp)
   1131b:	48 8d 85 e8 e5 ff ff 	lea    -0x1a18(%rbp),%rax
   11322:	48 89 85 e8 ec ff ff 	mov    %rax,-0x1318(%rbp)
   11329:	48 8d 85 e8 e5 ff ff 	lea    -0x1a18(%rbp),%rax
   11330:	48 89 85 f0 ec ff ff 	mov    %rax,-0x1310(%rbp)
   11337:	48 c7 85 f8 ec ff ff 	movq   $0x0,-0x1308(%rbp)
   1133e:	00 00 00 00 
   11342:	48 8d 85 e8 e5 ff ff 	lea    -0x1a18(%rbp),%rax
   11349:	48 89 85 00 ed ff ff 	mov    %rax,-0x1300(%rbp)
   11350:	48 8d 85 e8 e5 ff ff 	lea    -0x1a18(%rbp),%rax
   11357:	48 89 85 08 ed ff ff 	mov    %rax,-0x12f8(%rbp)
   1135e:	48 8d 05 13 f8 00 00 	lea    0xf813(%rip),%rax        # 20b78 <g_474>
   11365:	48 89 85 10 ed ff ff 	mov    %rax,-0x12f0(%rbp)
   1136c:	48 8d 85 e8 e5 ff ff 	lea    -0x1a18(%rbp),%rax
   11373:	48 89 85 18 ed ff ff 	mov    %rax,-0x12e8(%rbp)
   1137a:	48 8d 85 e8 e5 ff ff 	lea    -0x1a18(%rbp),%rax
   11381:	48 89 85 20 ed ff ff 	mov    %rax,-0x12e0(%rbp)
   11388:	48 8d 85 e8 e5 ff ff 	lea    -0x1a18(%rbp),%rax
   1138f:	48 89 85 28 ed ff ff 	mov    %rax,-0x12d8(%rbp)
   11396:	48 8d 85 e8 e5 ff ff 	lea    -0x1a18(%rbp),%rax
   1139d:	48 89 85 30 ed ff ff 	mov    %rax,-0x12d0(%rbp)
   113a4:	48 8d 85 e8 e5 ff ff 	lea    -0x1a18(%rbp),%rax
   113ab:	48 89 85 38 ed ff ff 	mov    %rax,-0x12c8(%rbp)
   113b2:	48 8d 85 e8 e5 ff ff 	lea    -0x1a18(%rbp),%rax
   113b9:	48 89 85 40 ed ff ff 	mov    %rax,-0x12c0(%rbp)
   113c0:	48 8d 85 e8 e5 ff ff 	lea    -0x1a18(%rbp),%rax
   113c7:	48 89 85 48 ed ff ff 	mov    %rax,-0x12b8(%rbp)
   113ce:	48 8d 85 e8 e5 ff ff 	lea    -0x1a18(%rbp),%rax
   113d5:	48 89 85 50 ed ff ff 	mov    %rax,-0x12b0(%rbp)
   113dc:	48 8d 85 e8 e5 ff ff 	lea    -0x1a18(%rbp),%rax
   113e3:	48 89 85 58 ed ff ff 	mov    %rax,-0x12a8(%rbp)
   113ea:	48 8d 85 e8 e5 ff ff 	lea    -0x1a18(%rbp),%rax
   113f1:	48 89 85 60 ed ff ff 	mov    %rax,-0x12a0(%rbp)
   113f8:	48 8d 85 e8 e5 ff ff 	lea    -0x1a18(%rbp),%rax
   113ff:	48 89 85 68 ed ff ff 	mov    %rax,-0x1298(%rbp)
   11406:	66 c7 85 16 e5 ff ff 	movw   $0xffff,-0x1aea(%rbp)
   1140d:	ff ff 
   1140f:	66 c7 85 18 e5 ff ff 	movw   $0xd485,-0x1ae8(%rbp)
   11416:	85 d4 
   11418:	48 8b 15 51 f0 00 00 	mov    0xf051(%rip),%rdx        # 20470 <g_1617+0x10>
   1141f:	48 8b 85 b0 e6 ff ff 	mov    -0x1950(%rbp),%rax
   11426:	48 89 10             	mov    %rdx,(%rax)
   11429:	48 8b 85 b0 e6 ff ff 	mov    -0x1950(%rbp),%rax
   11430:	48 8b 10             	mov    (%rax),%rdx
   11433:	48 8b 85 b8 e6 ff ff 	mov    -0x1948(%rbp),%rax
   1143a:	48 89 10             	mov    %rdx,(%rax)
   1143d:	c7 05 e5 c0 00 00 09 	movl   $0x9,0xc0e5(%rip)        # 1d52c <g_975>
   11444:	00 00 00 
   11447:	e9 2a 08 00 00       	jmpq   11c76 <func_14+0x3949>
   1144c:	48 8d 05 d9 bb 00 00 	lea    0xbbd9(%rip),%rax        # 1d02c <g_65>
   11453:	48 89 85 e8 e6 ff ff 	mov    %rax,-0x1918(%rbp)
   1145a:	c7 85 84 e5 ff ff 54 	movl   $0xe2a91254,-0x1a7c(%rbp)
   11461:	12 a9 e2 
   11464:	48 8d 05 d5 c0 00 00 	lea    0xc0d5(%rip),%rax        # 1d540 <g_1404>
   1146b:	48 89 85 f0 e6 ff ff 	mov    %rax,-0x1910(%rbp)
   11472:	48 8d 85 c8 e5 ff ff 	lea    -0x1a38(%rbp),%rax
   11479:	48 89 85 f8 e6 ff ff 	mov    %rax,-0x1908(%rbp)
   11480:	48 8d 85 b0 f7 ff ff 	lea    -0x850(%rbp),%rax
   11487:	48 8d 15 32 cf 00 00 	lea    0xcf32(%rip),%rdx        # 1e3c0 <g_2683+0xcb8>
   1148e:	b9 24 00 00 00       	mov    $0x24,%ecx
   11493:	48 89 c7             	mov    %rax,%rdi
   11496:	48 89 d6             	mov    %rdx,%rsi
   11499:	f3 48 a5             	rep movsq %ds:(%rsi),%es:(%rdi)
   1149c:	48 c7 85 00 e7 ff ff 	movq   $0x0,-0x1900(%rbp)
   114a3:	00 00 00 00 
   114a7:	48 8d 05 92 c0 00 00 	lea    0xc092(%rip),%rax        # 1d540 <g_1404>
   114ae:	48 89 85 08 e7 ff ff 	mov    %rax,-0x18f8(%rbp)
   114b5:	48 8d 05 f4 be 00 00 	lea    0xbef4(%rip),%rax        # 1d3b0 <g_184>
   114bc:	48 89 85 10 e7 ff ff 	mov    %rax,-0x18f0(%rbp)
   114c3:	48 c7 85 18 e7 ff ff 	movq   $0x0,-0x18e8(%rbp)
   114ca:	00 00 00 00 
   114ce:	48 8d 05 db be 00 00 	lea    0xbedb(%rip),%rax        # 1d3b0 <g_184>
   114d5:	48 89 85 20 e7 ff ff 	mov    %rax,-0x18e0(%rbp)
   114dc:	48 8d 05 55 c0 00 00 	lea    0xc055(%rip),%rax        # 1d538 <g_1148>
   114e3:	48 89 85 28 e7 ff ff 	mov    %rax,-0x18d8(%rbp)
   114ea:	c7 85 a0 eb ff ff b2 	movl   $0x1ace67b2,-0x1460(%rbp)
   114f1:	67 ce 1a 
   114f4:	c7 85 a4 eb ff ff 01 	movl   $0x1,-0x145c(%rbp)
   114fb:	00 00 00 
   114fe:	c7 85 a8 eb ff ff bf 	movl   $0x8aafd7bf,-0x1458(%rbp)
   11505:	d7 af 8a 
   11508:	c7 85 ac eb ff ff b2 	movl   $0x1ace67b2,-0x1454(%rbp)
   1150f:	67 ce 1a 
   11512:	c7 85 b0 eb ff ff e3 	movl   $0xe0c4eae3,-0x1450(%rbp)
   11519:	ea c4 e0 
   1151c:	c7 85 b4 eb ff ff 69 	movl   $0x7ecf1969,-0x144c(%rbp)
   11523:	19 cf 7e 
   11526:	c7 85 b8 eb ff ff b2 	movl   $0x1ace67b2,-0x1448(%rbp)
   1152d:	67 ce 1a 
   11530:	c7 85 bc eb ff ff 01 	movl   $0x1,-0x1444(%rbp)
   11537:	00 00 00 
   1153a:	c7 85 c0 eb ff ff b2 	movl   $0x1ace67b2,-0x1440(%rbp)
   11541:	67 ce 1a 
   11544:	c7 85 c4 eb ff ff b2 	movl   $0x1ace67b2,-0x143c(%rbp)
   1154b:	67 ce 1a 
   1154e:	c7 85 c8 eb ff ff 01 	movl   $0x1,-0x1438(%rbp)
   11555:	00 00 00 
   11558:	c7 85 cc eb ff ff bf 	movl   $0x8aafd7bf,-0x1434(%rbp)
   1155f:	d7 af 8a 
   11562:	c7 85 d0 eb ff ff b2 	movl   $0x1ace67b2,-0x1430(%rbp)
   11569:	67 ce 1a 
   1156c:	c7 85 d4 eb ff ff e3 	movl   $0xe0c4eae3,-0x142c(%rbp)
   11573:	ea c4 e0 
   11576:	c7 85 d8 eb ff ff 69 	movl   $0x7ecf1969,-0x1428(%rbp)
   1157d:	19 cf 7e 
   11580:	c7 85 dc eb ff ff b2 	movl   $0x1ace67b2,-0x1424(%rbp)
   11587:	67 ce 1a 
   1158a:	c7 85 e0 eb ff ff 01 	movl   $0x1,-0x1420(%rbp)
   11591:	00 00 00 
   11594:	c7 85 e4 eb ff ff b2 	movl   $0x1ace67b2,-0x141c(%rbp)
   1159b:	67 ce 1a 
   1159e:	48 8d 85 d8 e5 ff ff 	lea    -0x1a28(%rbp),%rax
   115a5:	48 89 85 30 e7 ff ff 	mov    %rax,-0x18d0(%rbp)
   115ac:	c7 85 88 e5 ff ff 9e 	movl   $0x18562c9e,-0x1a78(%rbp)
   115b3:	2c 56 18 
   115b6:	48 8d 05 03 ee 00 00 	lea    0xee03(%rip),%rax        # 203c0 <g_1177>
   115bd:	48 89 85 38 e7 ff ff 	mov    %rax,-0x18c8(%rbp)
   115c4:	48 8d 05 25 bf 00 00 	lea    0xbf25(%rip),%rax        # 1d4f0 <g_397>
   115cb:	48 89 85 40 e7 ff ff 	mov    %rax,-0x18c0(%rbp)
   115d2:	48 c7 85 48 e7 ff ff 	movq   $0x0,-0x18b8(%rbp)
   115d9:	00 00 00 00 
   115dd:	c7 85 54 e5 ff ff 00 	movl   $0x0,-0x1aac(%rbp)
   115e4:	00 00 00 
   115e7:	eb 6e                	jmp    11657 <func_14+0x332a>
   115e9:	c7 85 58 e5 ff ff 00 	movl   $0x0,-0x1aa8(%rbp)
   115f0:	00 00 00 
   115f3:	eb 52                	jmp    11647 <func_14+0x331a>
   115f5:	c7 85 5c e5 ff ff 00 	movl   $0x0,-0x1aa4(%rbp)
   115fc:	00 00 00 
   115ff:	eb 36                	jmp    11637 <func_14+0x330a>
   11601:	8b 85 5c e5 ff ff    	mov    -0x1aa4(%rbp),%eax
   11607:	48 63 c8             	movslq %eax,%rcx
   1160a:	8b 85 58 e5 ff ff    	mov    -0x1aa8(%rbp),%eax
   11610:	48 63 d0             	movslq %eax,%rdx
   11613:	8b 85 54 e5 ff ff    	mov    -0x1aac(%rbp),%eax
   11619:	48 98                	cltq   
   1161b:	48 01 ca             	add    %rcx,%rdx
   1161e:	48 01 d0             	add    %rdx,%rax
   11621:	48 8d 15 10 bf 00 00 	lea    0xbf10(%rip),%rdx        # 1d538 <g_1148>
   11628:	48 89 94 c5 60 ea ff 	mov    %rdx,-0x15a0(%rbp,%rax,8)
   1162f:	ff 
   11630:	83 85 5c e5 ff ff 01 	addl   $0x1,-0x1aa4(%rbp)
   11637:	83 bd 5c e5 ff ff 00 	cmpl   $0x0,-0x1aa4(%rbp)
   1163e:	7e c1                	jle    11601 <func_14+0x32d4>
   11640:	83 85 58 e5 ff ff 01 	addl   $0x1,-0x1aa8(%rbp)
   11647:	83 bd 58 e5 ff ff 00 	cmpl   $0x0,-0x1aa8(%rbp)
   1164e:	7e a5                	jle    115f5 <func_14+0x32c8>
   11650:	83 85 54 e5 ff ff 01 	addl   $0x1,-0x1aac(%rbp)
   11657:	83 bd 54 e5 ff ff 08 	cmpl   $0x8,-0x1aac(%rbp)
   1165e:	7e 89                	jle    115e9 <func_14+0x32bc>
   11660:	c7 85 54 e5 ff ff 00 	movl   $0x0,-0x1aac(%rbp)
   11667:	00 00 00 
   1166a:	eb 14                	jmp    11680 <func_14+0x3353>
   1166c:	8b 85 54 e5 ff ff    	mov    -0x1aac(%rbp),%eax
   11672:	48 98                	cltq   
   11674:	c6 44 05 bb 38       	movb   $0x38,-0x45(%rbp,%rax,1)
   11679:	83 85 54 e5 ff ff 01 	addl   $0x1,-0x1aac(%rbp)
   11680:	83 bd 54 e5 ff ff 00 	cmpl   $0x0,-0x1aac(%rbp)
   11687:	7e e3                	jle    1166c <func_14+0x333f>
   11689:	48 8b 05 d8 e6 00 00 	mov    0xe6d8(%rip),%rax        # 1fd68 <g_706>
   11690:	0f b6 00             	movzbl (%rax),%eax
   11693:	0f be c0             	movsbl %al,%eax
   11696:	89 c6                	mov    %eax,%esi
   11698:	bf 01 00 00 00       	mov    $0x1,%edi
   1169d:	e8 c8 6b ff ff       	callq  826a <safe_div_func_int8_t_s_s>
   116a2:	48 8b 85 e8 e6 ff ff 	mov    -0x1918(%rbp),%rax
   116a9:	0f b6 00             	movzbl (%rax),%eax
   116ac:	8d 50 01             	lea    0x1(%rax),%edx
   116af:	48 8b 85 e8 e6 ff ff 	mov    -0x1918(%rbp),%rax
   116b6:	88 10                	mov    %dl,(%rax)
   116b8:	48 8b 85 e8 e6 ff ff 	mov    -0x1918(%rbp),%rax
   116bf:	0f b6 00             	movzbl (%rax),%eax
   116c2:	0f b6 d8             	movzbl %al,%ebx
   116c5:	48 8b 85 b0 e6 ff ff 	mov    -0x1950(%rbp),%rax
   116cc:	48 8b 00             	mov    (%rax),%rax
   116cf:	48 8b 00             	mov    (%rax),%rax
   116d2:	48 0f bf 95 fc e4 ff 	movswq -0x1b04(%rbp),%rdx
   116d9:	ff 
   116da:	48 89 10             	mov    %rdx,(%rax)
   116dd:	48 8b 00             	mov    (%rax),%rax
   116e0:	48 85 c0             	test   %rax,%rax
   116e3:	0f 84 85 00 00 00    	je     1176e <func_14+0x3441>
   116e9:	0f b7 85 f8 e4 ff ff 	movzwl -0x1b08(%rbp),%eax
   116f0:	48 89 c6             	mov    %rax,%rsi
   116f3:	bf 00 00 00 00       	mov    $0x0,%edi
   116f8:	e8 fa 72 ff ff       	callq  89f7 <safe_div_func_int64_t_s_s>
   116fd:	48 89 c2             	mov    %rax,%rdx
   11700:	48 b8 21 3f 2a e1 1c 	movabs $0xb7f08e1ce12a3f21,%rax
   11707:	8e f0 b7 
   1170a:	48 39 c2             	cmp    %rax,%rdx
   1170d:	0f 97 c0             	seta   %al
   11710:	0f b6 d0             	movzbl %al,%edx
   11713:	0f b6 85 f4 e4 ff ff 	movzbl -0x1b0c(%rbp),%eax
   1171a:	0f be c0             	movsbl %al,%eax
   1171d:	39 c2                	cmp    %eax,%edx
   1171f:	0f 9c c0             	setl   %al
   11722:	0f b6 d0             	movzbl %al,%edx
   11725:	48 8b 85 c0 e5 ff ff 	mov    -0x1a40(%rbp),%rax
   1172c:	8b 00                	mov    (%rax),%eax
   1172e:	39 c2                	cmp    %eax,%edx
   11730:	0f 95 c2             	setne  %dl
   11733:	48 8b 85 f8 e5 ff ff 	mov    -0x1a08(%rbp),%rax
   1173a:	48 8b 00             	mov    (%rax),%rax
   1173d:	0f b6 d2             	movzbl %dl,%edx
   11740:	48 89 10             	mov    %rdx,(%rax)
   11743:	8b 85 4c e5 ff ff    	mov    -0x1ab4(%rbp),%eax
   11749:	39 85 84 e5 ff ff    	cmp    %eax,-0x1a7c(%rbp)
   1174f:	0f 92 c2             	setb   %dl
   11752:	48 8b 05 ff e5 00 00 	mov    0xe5ff(%rip),%rax        # 1fd58 <g_701>
   11759:	0f b6 d2             	movzbl %dl,%edx
   1175c:	48 89 10             	mov    %rdx,(%rax)
   1175f:	48 8b 00             	mov    (%rax),%rax
   11762:	48 85 c0             	test   %rax,%rax
   11765:	74 07                	je     1176e <func_14+0x3441>
   11767:	b8 01 00 00 00       	mov    $0x1,%eax
   1176c:	eb 05                	jmp    11773 <func_14+0x3446>
   1176e:	b8 00 00 00 00       	mov    $0x0,%eax
   11773:	39 d8                	cmp    %ebx,%eax
   11775:	0f 94 c0             	sete   %al
   11778:	0f b6 c0             	movzbl %al,%eax
   1177b:	f7 d0                	not    %eax
   1177d:	89 c2                	mov    %eax,%edx
   1177f:	48 8b 85 f0 e6 ff ff 	mov    -0x1910(%rbp),%rax
   11786:	66 89 10             	mov    %dx,(%rax)
   11789:	48 ba ff 37 58 53 76 	movabs $0xb648d876535837ff,%rdx
   11790:	d8 48 b6 
   11793:	48 8b 05 2e e5 00 00 	mov    0xe52e(%rip),%rax        # 1fcc8 <g_180>
   1179a:	8b 00                	mov    (%rax),%eax
   1179c:	89 c1                	mov    %eax,%ecx
   1179e:	89 d0                	mov    %edx,%eax
   117a0:	09 c1                	or     %eax,%ecx
   117a2:	89 ca                	mov    %ecx,%edx
   117a4:	48 8b 05 1d e5 00 00 	mov    0xe51d(%rip),%rax        # 1fcc8 <g_180>
   117ab:	89 10                	mov    %edx,(%rax)
   117ad:	0f b6 85 f4 e4 ff ff 	movzbl -0x1b0c(%rbp),%eax
   117b4:	44 0f be e8          	movsbl %al,%r13d
   117b8:	48 8b 85 c0 e5 ff ff 	mov    -0x1a40(%rbp),%rax
   117bf:	8b 00                	mov    (%rax),%eax
   117c1:	0f b6 d8             	movzbl %al,%ebx
   117c4:	8b 85 d4 eb ff ff    	mov    -0x142c(%rbp),%eax
   117ca:	44 0f b6 e0          	movzbl %al,%r12d
   117ce:	8b 95 5c e9 ff ff    	mov    -0x16a4(%rbp),%edx
   117d4:	0f b7 85 f8 e4 ff ff 	movzwl -0x1b08(%rbp),%eax
   117db:	21 d0                	and    %edx,%eax
   117dd:	89 85 5c e9 ff ff    	mov    %eax,-0x16a4(%rbp)
   117e3:	8b 85 5c e9 ff ff    	mov    -0x16a4(%rbp),%eax
   117e9:	0f be c0             	movsbl %al,%eax
   117ec:	be 01 00 00 00       	mov    $0x1,%esi
   117f1:	89 c7                	mov    %eax,%edi
   117f3:	e8 39 6a ff ff       	callq  8231 <safe_mod_func_int8_t_s_s>
   117f8:	4c 0f be f0          	movsbq %al,%r14
   117fc:	8b 05 e2 bc 00 00    	mov    0xbce2(%rip),%eax        # 1d4e4 <g_264>
   11802:	8d 50 ff             	lea    -0x1(%rax),%edx
   11805:	89 15 d9 bc 00 00    	mov    %edx,0xbcd9(%rip)        # 1d4e4 <g_264>
   1180b:	48 8b 95 08 e7 ff ff 	mov    -0x18f8(%rbp),%rdx
   11812:	89 02                	mov    %eax,(%rdx)
   11814:	48 8b 85 08 e7 ff ff 	mov    -0x18f8(%rbp),%rax
   1181b:	8b 00                	mov    (%rax),%eax
   1181d:	89 85 24 e5 ff ff    	mov    %eax,-0x1adc(%rbp)
   11823:	48 8b 95 d8 e5 ff ff 	mov    -0x1a28(%rbp),%rdx
   1182a:	48 8b 85 30 e7 ff ff 	mov    -0x18d0(%rbp),%rax
   11831:	48 89 10             	mov    %rdx,(%rax)
   11834:	48 8b 85 30 e7 ff ff 	mov    -0x18d0(%rbp),%rax
   1183b:	48 8b 00             	mov    (%rax),%rax
   1183e:	48 85 c0             	test   %rax,%rax
   11841:	0f 95 c0             	setne  %al
   11844:	0f b6 d0             	movzbl %al,%edx
   11847:	48 8b 85 e8 e5 ff ff 	mov    -0x1a18(%rbp),%rax
   1184e:	48 85 c0             	test   %rax,%rax
   11851:	0f 95 c0             	setne  %al
   11854:	0f b6 c0             	movzbl %al,%eax
   11857:	48 89 d6             	mov    %rdx,%rsi
   1185a:	48 89 c7             	mov    %rax,%rdi
   1185d:	e8 46 70 ff ff       	callq  88a8 <safe_sub_func_int64_t_s_s>
   11862:	49 39 c6             	cmp    %rax,%r14
   11865:	0f 9f c0             	setg   %al
   11868:	0f b6 c0             	movzbl %al,%eax
   1186b:	44 89 e6             	mov    %r12d,%esi
   1186e:	89 c7                	mov    %eax,%edi
   11870:	e8 1e 73 ff ff       	callq  8b93 <safe_mul_func_uint8_t_u_u>
   11875:	0f b6 c0             	movzbl %al,%eax
   11878:	89 de                	mov    %ebx,%esi
   1187a:	89 c7                	mov    %eax,%edi
   1187c:	e8 5a 73 ff ff       	callq  8bdb <safe_div_func_uint8_t_u_u>
   11881:	0f b6 c0             	movzbl %al,%eax
   11884:	be 05 00 00 00       	mov    $0x5,%esi
   11889:	89 c7                	mov    %eax,%edi
   1188b:	e8 ea 75 ff ff       	callq  8e7a <safe_rshift_func_uint16_t_u_u>
   11890:	48 8b 95 c0 e5 ff ff 	mov    -0x1a40(%rbp),%rdx
   11897:	48 8b 85 c0 e5 ff ff 	mov    -0x1a40(%rbp),%rax
   1189e:	8b 12                	mov    (%rdx),%edx
   118a0:	89 10                	mov    %edx,(%rax)
   118a2:	8b 00                	mov    (%rax),%eax
   118a4:	41 39 c5             	cmp    %eax,%r13d
   118a7:	0f 84 86 02 00 00    	je     11b33 <func_14+0x3806>
   118ad:	c7 85 8c e5 ff ff 01 	movl   $0x1,-0x1a74(%rbp)
   118b4:	00 00 00 
   118b7:	48 8d 05 88 b7 00 00 	lea    0xb788(%rip),%rax        # 1d046 <g_113+0x6>
   118be:	48 89 85 50 e7 ff ff 	mov    %rax,-0x18b0(%rbp)
   118c5:	48 8d 05 1c eb 00 00 	lea    0xeb1c(%rip),%rax        # 203e8 <g_1177+0x28>
   118cc:	48 89 85 58 e7 ff ff 	mov    %rax,-0x18a8(%rbp)
   118d3:	48 8d 05 16 bc 00 00 	lea    0xbc16(%rip),%rax        # 1d4f0 <g_397>
   118da:	48 89 85 60 e7 ff ff 	mov    %rax,-0x18a0(%rbp)
   118e1:	c7 85 60 e5 ff ff 00 	movl   $0x0,-0x1aa0(%rbp)
   118e8:	00 00 00 
   118eb:	eb 1b                	jmp    11908 <func_14+0x35db>
   118ed:	8b 85 60 e5 ff ff    	mov    -0x1aa0(%rbp),%eax
   118f3:	48 98                	cltq   
   118f5:	48 c7 84 c5 10 f2 ff 	movq   $0x0,-0xdf0(%rbp,%rax,8)
   118fc:	ff 00 00 00 00 
   11901:	83 85 60 e5 ff ff 01 	addl   $0x1,-0x1aa0(%rbp)
   11908:	83 bd 60 e5 ff ff 09 	cmpl   $0x9,-0x1aa0(%rbp)
   1190f:	7e dc                	jle    118ed <func_14+0x35c0>
   11911:	0f b7 9d f8 e4 ff ff 	movzwl -0x1b08(%rbp),%ebx
   11918:	0f b6 45 bb          	movzbl -0x45(%rbp),%eax
   1191c:	44 0f b6 e0          	movzbl %al,%r12d
   11920:	0f b6 85 f4 e4 ff ff 	movzbl -0x1b0c(%rbp),%eax
   11927:	0f be d0             	movsbl %al,%edx
   1192a:	48 8b 05 37 e4 00 00 	mov    0xe437(%rip),%rax        # 1fd68 <g_706>
   11931:	0f b6 30             	movzbl (%rax),%esi
   11934:	0f b7 8d fc e4 ff ff 	movzwl -0x1b04(%rbp),%ecx
   1193b:	48 8b 85 50 e7 ff ff 	mov    -0x18b0(%rbp),%rax
   11942:	66 89 08             	mov    %cx,(%rax)
   11945:	48 8b 85 50 e7 ff ff 	mov    -0x18b0(%rbp),%rax
   1194c:	0f b7 00             	movzwl (%rax),%eax
   1194f:	66 33 85 f8 e4 ff ff 	xor    -0x1b08(%rbp),%ax
   11956:	0f b7 c0             	movzwl %ax,%eax
   11959:	23 85 8c e5 ff ff    	and    -0x1a74(%rbp),%eax
   1195f:	89 c1                	mov    %eax,%ecx
   11961:	8b 85 ac eb ff ff    	mov    -0x1454(%rbp),%eax
   11967:	21 c8                	and    %ecx,%eax
   11969:	89 85 ac eb ff ff    	mov    %eax,-0x1454(%rbp)
   1196f:	8b bd ac eb ff ff    	mov    -0x1454(%rbp),%edi
   11975:	48 8b 05 4c e3 00 00 	mov    0xe34c(%rip),%rax        # 1fcc8 <g_180>
   1197c:	8b 08                	mov    (%rax),%ecx
   1197e:	48 8b 05 43 e3 00 00 	mov    0xe343(%rip),%rax        # 1fcc8 <g_180>
   11985:	31 f9                	xor    %edi,%ecx
   11987:	89 08                	mov    %ecx,(%rax)
   11989:	8b 00                	mov    (%rax),%eax
   1198b:	39 85 8c e5 ff ff    	cmp    %eax,-0x1a74(%rbp)
   11991:	7e 08                	jle    1199b <func_14+0x366e>
   11993:	66 83 bd f8 e4 ff ff 	cmpw   $0x0,-0x1b08(%rbp)
   1199a:	00 
   1199b:	48 8b 85 c0 e5 ff ff 	mov    -0x1a40(%rbp),%rax
   119a2:	8b 00                	mov    (%rax),%eax
   119a4:	89 c1                	mov    %eax,%ecx
   119a6:	48 8b 85 e8 e6 ff ff 	mov    -0x1918(%rbp),%rax
   119ad:	88 08                	mov    %cl,(%rax)
   119af:	48 8b 85 e8 e6 ff ff 	mov    -0x1918(%rbp),%rax
   119b6:	0f b6 00             	movzbl (%rax),%eax
   119b9:	40 38 c6             	cmp    %al,%sil
   119bc:	0f 97 c0             	seta   %al
   119bf:	0f b6 c0             	movzbl %al,%eax
   119c2:	21 85 88 e5 ff ff    	and    %eax,-0x1a78(%rbp)
   119c8:	8b 85 88 e5 ff ff    	mov    -0x1a78(%rbp),%eax
   119ce:	89 d6                	mov    %edx,%esi
   119d0:	89 c7                	mov    %eax,%edi
   119d2:	e8 28 6d ff ff       	callq  86ff <safe_div_func_int32_t_s_s>
   119d7:	0f bf 95 fc e4 ff ff 	movswl -0x1b04(%rbp),%edx
   119de:	66 83 bd fc e4 ff ff 	cmpw   $0x0,-0x1b04(%rbp)
   119e5:	00 
   119e6:	0f 9f c0             	setg   %al
   119e9:	0f b6 c0             	movzbl %al,%eax
   119ec:	39 85 4c e5 ff ff    	cmp    %eax,-0x1ab4(%rbp)
   119f2:	0f 9c c0             	setl   %al
   119f5:	0f b6 c0             	movzbl %al,%eax
   119f8:	39 c2                	cmp    %eax,%edx
   119fa:	75 0a                	jne    11a06 <func_14+0x36d9>
   119fc:	66 83 bd f8 e4 ff ff 	cmpw   $0x0,-0x1b08(%rbp)
   11a03:	00 
   11a04:	74 07                	je     11a0d <func_14+0x36e0>
   11a06:	b8 01 00 00 00       	mov    $0x1,%eax
   11a0b:	eb 05                	jmp    11a12 <func_14+0x36e5>
   11a0d:	b8 00 00 00 00       	mov    $0x0,%eax
   11a12:	0f b6 c0             	movzbl %al,%eax
   11a15:	44 89 e6             	mov    %r12d,%esi
   11a18:	89 c7                	mov    %eax,%edi
   11a1a:	e8 74 71 ff ff       	callq  8b93 <safe_mul_func_uint8_t_u_u>
   11a1f:	0f b6 c0             	movzbl %al,%eax
   11a22:	89 de                	mov    %ebx,%esi
   11a24:	89 c7                	mov    %eax,%edi
   11a26:	e8 38 6b ff ff       	callq  8563 <safe_rshift_func_int16_t_s_u>
   11a2b:	89 c2                	mov    %eax,%edx
   11a2d:	48 8b 85 c0 e5 ff ff 	mov    -0x1a40(%rbp),%rax
   11a34:	0f bf d2             	movswl %dx,%edx
   11a37:	89 10                	mov    %edx,(%rax)
   11a39:	66 83 bd fc e4 ff ff 	cmpw   $0x0,-0x1b04(%rbp)
   11a40:	00 
   11a41:	0f 85 15 02 00 00    	jne    11c5c <func_14+0x392f>
   11a47:	48 8b 95 40 f2 ff ff 	mov    -0xdc0(%rbp),%rdx
   11a4e:	48 8d 85 24 e5 ff ff 	lea    -0x1adc(%rbp),%rax
   11a55:	48 39 c2             	cmp    %rax,%rdx
   11a58:	0f 94 c2             	sete   %dl
   11a5b:	48 8b 85 58 e7 ff ff 	mov    -0x18a8(%rbp),%rax
   11a62:	48 3b 85 38 e7 ff ff 	cmp    -0x18c8(%rbp),%rax
   11a69:	0f 94 c0             	sete   %al
   11a6c:	31 d0                	xor    %edx,%eax
   11a6e:	84 c0                	test   %al,%al
   11a70:	75 47                	jne    11ab9 <func_14+0x378c>
   11a72:	0f b7 85 b0 ea ff ff 	movzwl -0x1550(%rbp),%eax
   11a79:	8d 50 01             	lea    0x1(%rax),%edx
   11a7c:	66 89 95 b0 ea ff ff 	mov    %dx,-0x1550(%rbp)
   11a83:	0f b7 c8             	movzwl %ax,%ecx
   11a86:	48 8b 85 60 e7 ff ff 	mov    -0x18a0(%rbp),%rax
   11a8d:	48 89 85 30 e6 ff ff 	mov    %rax,-0x19d0(%rbp)
   11a94:	48 8b 85 f8 e5 ff ff 	mov    -0x1a08(%rbp),%rax
   11a9b:	48 8b 95 30 e6 ff ff 	mov    -0x19d0(%rbp),%rdx
   11aa2:	48 89 10             	mov    %rdx,(%rax)
   11aa5:	48 8b 00             	mov    (%rax),%rax
   11aa8:	48 39 85 40 e7 ff ff 	cmp    %rax,-0x18c0(%rbp)
   11aaf:	0f 95 c0             	setne  %al
   11ab2:	0f b6 c0             	movzbl %al,%eax
   11ab5:	39 c1                	cmp    %eax,%ecx
   11ab7:	7e 07                	jle    11ac0 <func_14+0x3793>
   11ab9:	ba 01 00 00 00       	mov    $0x1,%edx
   11abe:	eb 05                	jmp    11ac5 <func_14+0x3798>
   11ac0:	ba 00 00 00 00       	mov    $0x0,%edx
   11ac5:	48 8b 05 fc e1 00 00 	mov    0xe1fc(%rip),%rax        # 1fcc8 <g_180>
   11acc:	89 10                	mov    %edx,(%rax)
   11ace:	c7 05 78 ba 00 00 f8 	movl   $0xfffffff8,0xba78(%rip)        # 1d550 <g_1572>
   11ad5:	ff ff ff 
   11ad8:	eb 49                	jmp    11b23 <func_14+0x37f6>
   11ada:	66 c7 85 1a e5 ff ff 	movw   $0xdfb5,-0x1ae6(%rbp)
   11ae1:	b5 df 
   11ae3:	0f b7 95 fc e4 ff ff 	movzwl -0x1b04(%rbp),%edx
   11aea:	48 8b 85 50 e7 ff ff 	mov    -0x18b0(%rbp),%rax
   11af1:	66 89 10             	mov    %dx,(%rax)
   11af4:	48 8b 85 50 e7 ff ff 	mov    -0x18b0(%rbp),%rax
   11afb:	0f b7 00             	movzwl (%rax),%eax
   11afe:	0f b7 c0             	movzwl %ax,%eax
   11b01:	be 06 00 00 00       	mov    $0x6,%esi
   11b06:	89 c7                	mov    %eax,%edi
   11b08:	e8 6d 73 ff ff       	callq  8e7a <safe_rshift_func_uint16_t_u_u>
   11b0d:	66 09 85 1a e5 ff ff 	or     %ax,-0x1ae6(%rbp)
   11b14:	8b 05 36 ba 00 00    	mov    0xba36(%rip),%eax        # 1d550 <g_1572>
   11b1a:	83 c0 01             	add    $0x1,%eax
   11b1d:	89 05 2d ba 00 00    	mov    %eax,0xba2d(%rip)        # 1d550 <g_1572>
   11b23:	8b 05 27 ba 00 00    	mov    0xba27(%rip),%eax        # 1d550 <g_1572>
   11b29:	83 f8 16             	cmp    $0x16,%eax
   11b2c:	7f ac                	jg     11ada <func_14+0x37ad>
   11b2e:	e9 29 01 00 00       	jmpq   11c5c <func_14+0x392f>
   11b33:	66 83 bd fc e4 ff ff 	cmpw   $0x0,-0x1b04(%rbp)
   11b3a:	00 
   11b3b:	0f 85 46 01 00 00    	jne    11c87 <func_14+0x395a>
   11b41:	48 8b 05 28 e2 00 00 	mov    0xe228(%rip),%rax        # 1fd70 <g_705>
   11b48:	48 8b 00             	mov    (%rax),%rax
   11b4b:	0f b6 00             	movzbl (%rax),%eax
   11b4e:	0f be d8             	movsbl %al,%ebx
   11b51:	be 01 00 00 00       	mov    $0x1,%esi
   11b56:	bf ff 94 ff ff       	mov    $0xffff94ff,%edi
   11b5b:	e8 95 68 ff ff       	callq  83f5 <safe_mul_func_int16_t_s_s>
   11b60:	0f be c0             	movsbl %al,%eax
   11b63:	89 de                	mov    %ebx,%esi
   11b65:	89 c7                	mov    %eax,%edi
   11b67:	e8 a6 66 ff ff       	callq  8212 <safe_mul_func_int8_t_s_s>
   11b6c:	be 02 00 00 00       	mov    $0x2,%esi
   11b71:	bf 5a 78 00 00       	mov    $0x785a,%edi
   11b76:	e8 17 69 ff ff       	callq  8492 <safe_lshift_func_int16_t_s_s>
   11b7b:	98                   	cwtl   
   11b7c:	be 01 00 00 00       	mov    $0x1,%esi
   11b81:	89 c7                	mov    %eax,%edi
   11b83:	e8 4b 68 ff ff       	callq  83d3 <safe_sub_func_int16_t_s_s>
   11b88:	89 c2                	mov    %eax,%edx
   11b8a:	0f b7 85 fc e4 ff ff 	movzwl -0x1b04(%rbp),%eax
   11b91:	09 c2                	or     %eax,%edx
   11b93:	48 8b 85 48 e6 ff ff 	mov    -0x19b8(%rbp),%rax
   11b9a:	48 3b 85 48 e7 ff ff 	cmp    -0x18b8(%rbp),%rax
   11ba1:	0f 94 c0             	sete   %al
   11ba4:	21 d0                	and    %edx,%eax
   11ba6:	0f be c0             	movsbl %al,%eax
   11ba9:	89 c6                	mov    %eax,%esi
   11bab:	bf 0c 00 00 00       	mov    $0xc,%edi
   11bb0:	e8 5d 66 ff ff       	callq  8212 <safe_mul_func_int8_t_s_s>
   11bb5:	66 98                	cbtw   
   11bb7:	0f b7 c0             	movzwl %ax,%eax
   11bba:	be 12 ec 00 00       	mov    $0xec12,%esi
   11bbf:	89 c7                	mov    %eax,%edi
   11bc1:	e8 77 71 ff ff       	callq  8d3d <safe_mul_func_uint16_t_u_u>
   11bc6:	48 0f bf 85 fc e4 ff 	movswq -0x1b04(%rbp),%rax
   11bcd:	ff 
   11bce:	48 25 f9 05 ff ff    	and    $0xffffffffffff05f9,%rax
   11bd4:	48 89 c7             	mov    %rax,%rdi
   11bd7:	e8 3d 74 ff ff       	callq  9019 <safe_unary_minus_func_uint64_t_u>
   11bdc:	f7 d0                	not    %eax
   11bde:	89 c6                	mov    %eax,%esi
   11be0:	bf e3 ae 13 ba       	mov    $0xba13aee3,%edi
   11be5:	e8 3b 73 ff ff       	callq  8f25 <safe_div_func_uint32_t_u_u>
   11bea:	8b 95 4c e5 ff ff    	mov    -0x1ab4(%rbp),%edx
   11bf0:	09 d0                	or     %edx,%eax
   11bf2:	89 85 4c e5 ff ff    	mov    %eax,-0x1ab4(%rbp)
   11bf8:	0f bf 85 fc e4 ff ff 	movswl -0x1b04(%rbp),%eax
   11bff:	39 85 4c e5 ff ff    	cmp    %eax,-0x1ab4(%rbp)
   11c05:	0f 95 c0             	setne  %al
   11c08:	0f b6 d0             	movzbl %al,%edx
   11c0b:	0f bf 85 fc e4 ff ff 	movswl -0x1b04(%rbp),%eax
   11c12:	39 c2                	cmp    %eax,%edx
   11c14:	0f 9d c0             	setge  %al
   11c17:	0f b6 d0             	movzbl %al,%edx
   11c1a:	8b 85 28 e5 ff ff    	mov    -0x1ad8(%rbp),%eax
   11c20:	39 c2                	cmp    %eax,%edx
   11c22:	74 0a                	je     11c2e <func_14+0x3901>
   11c24:	8b 85 64 e9 ff ff    	mov    -0x169c(%rbp),%eax
   11c2a:	85 c0                	test   %eax,%eax
   11c2c:	75 0a                	jne    11c38 <func_14+0x390b>
   11c2e:	8b 85 5c e9 ff ff    	mov    -0x16a4(%rbp),%eax
   11c34:	85 c0                	test   %eax,%eax
   11c36:	74 07                	je     11c3f <func_14+0x3912>
   11c38:	ba 01 00 00 00       	mov    $0x1,%edx
   11c3d:	eb 05                	jmp    11c44 <func_14+0x3917>
   11c3f:	ba 00 00 00 00       	mov    $0x0,%edx
   11c44:	0f b7 85 f8 e4 ff ff 	movzwl -0x1b08(%rbp),%eax
   11c4b:	39 c2                	cmp    %eax,%edx
   11c4d:	0f 9c c2             	setl   %dl
   11c50:	48 8b 85 c0 e5 ff ff 	mov    -0x1a40(%rbp),%rax
   11c57:	0f b6 d2             	movzbl %dl,%edx
   11c5a:	89 10                	mov    %edx,(%rax)
   11c5c:	8b 05 ca b8 00 00    	mov    0xb8ca(%rip),%eax        # 1d52c <g_975>
   11c62:	98                   	cwtl   
   11c63:	be 05 00 00 00       	mov    $0x5,%esi
   11c68:	89 c7                	mov    %eax,%edi
   11c6a:	e8 44 67 ff ff       	callq  83b3 <safe_add_func_int16_t_s_s>
   11c6f:	98                   	cwtl   
   11c70:	89 05 b6 b8 00 00    	mov    %eax,0xb8b6(%rip)        # 1d52c <g_975>
   11c76:	8b 05 b0 b8 00 00    	mov    0xb8b0(%rip),%eax        # 1d52c <g_975>
   11c7c:	83 f8 25             	cmp    $0x25,%eax
   11c7f:	0f 84 c7 f7 ff ff    	je     1144c <func_14+0x311f>
   11c85:	eb 01                	jmp    11c88 <func_14+0x395b>
   11c87:	90                   	nop
   11c88:	0f b7 95 fc e4 ff ff 	movzwl -0x1b04(%rbp),%edx
   11c8f:	48 8b 85 c0 e6 ff ff 	mov    -0x1940(%rbp),%rax
   11c96:	66 89 10             	mov    %dx,(%rax)
   11c99:	48 8b 85 c0 e6 ff ff 	mov    -0x1940(%rbp),%rax
   11ca0:	0f b7 00             	movzwl (%rax),%eax
   11ca3:	0f b7 c0             	movzwl %ax,%eax
   11ca6:	be fd ff 00 00       	mov    $0xfffd,%esi
   11cab:	89 c7                	mov    %eax,%edi
   11cad:	e8 aa 70 ff ff       	callq  8d5c <safe_mod_func_uint16_t_u_u>
   11cb2:	66 85 c0             	test   %ax,%ax
   11cb5:	0f 84 2f 11 00 00    	je     12dea <func_14+0x4abd>
   11cbb:	48 8d 85 b0 f7 ff ff 	lea    -0x850(%rbp),%rax
   11cc2:	48 8d 15 17 c8 00 00 	lea    0xc817(%rip),%rdx        # 1e4e0 <g_2683+0xdd8>
   11cc9:	b9 6c 00 00 00       	mov    $0x6c,%ecx
   11cce:	48 89 c7             	mov    %rax,%rdi
   11cd1:	48 89 d6             	mov    %rdx,%rsi
   11cd4:	f3 48 a5             	rep movsq %ds:(%rsi),%es:(%rdi)
   11cd7:	48 8d 05 74 b3 00 00 	lea    0xb374(%rip),%rax        # 1d052 <g_126>
   11cde:	48 89 85 68 e7 ff ff 	mov    %rax,-0x1898(%rbp)
   11ce5:	48 8d 05 12 b8 00 00 	lea    0xb812(%rip),%rax        # 1d4fe <g_502>
   11cec:	48 89 85 70 e7 ff ff 	mov    %rax,-0x1890(%rbp)
   11cf3:	c7 85 80 e9 ff ff b5 	movl   $0xcd154bb5,-0x1680(%rbp)
   11cfa:	4b 15 cd 
   11cfd:	c7 85 84 e9 ff ff b5 	movl   $0xcd154bb5,-0x167c(%rbp)
   11d04:	4b 15 cd 
   11d07:	c7 85 88 e9 ff ff b5 	movl   $0xcd154bb5,-0x1678(%rbp)
   11d0e:	4b 15 cd 
   11d11:	c7 85 8c e9 ff ff b5 	movl   $0xcd154bb5,-0x1674(%rbp)
   11d18:	4b 15 cd 
   11d1b:	c7 85 90 e9 ff ff b5 	movl   $0xcd154bb5,-0x1670(%rbp)
   11d22:	4b 15 cd 
   11d25:	c7 85 94 e9 ff ff b5 	movl   $0xcd154bb5,-0x166c(%rbp)
   11d2c:	4b 15 cd 
   11d2f:	c7 85 98 e9 ff ff b5 	movl   $0xcd154bb5,-0x1668(%rbp)
   11d36:	4b 15 cd 
   11d39:	c7 85 9c e9 ff ff b5 	movl   $0xcd154bb5,-0x1664(%rbp)
   11d40:	4b 15 cd 
   11d43:	c7 85 a0 e9 ff ff b5 	movl   $0xcd154bb5,-0x1660(%rbp)
   11d4a:	4b 15 cd 
   11d4d:	66 c7 85 0c e5 ff ff 	movw   $0x6926,-0x1af4(%rbp)
   11d54:	26 69 
   11d56:	48 8d 85 b8 e5 ff ff 	lea    -0x1a48(%rbp),%rax
   11d5d:	48 89 85 78 e7 ff ff 	mov    %rax,-0x1888(%rbp)
   11d64:	48 8d 85 30 e5 ff ff 	lea    -0x1ad0(%rbp),%rax
   11d6b:	48 89 85 80 e7 ff ff 	mov    %rax,-0x1880(%rbp)
   11d72:	48 8d 85 50 e9 ff ff 	lea    -0x16b0(%rbp),%rax
   11d79:	48 83 c0 0c          	add    $0xc,%rax
   11d7d:	48 89 85 a0 eb ff ff 	mov    %rax,-0x1460(%rbp)
   11d84:	48 8d 85 50 e9 ff ff 	lea    -0x16b0(%rbp),%rax
   11d8b:	48 83 c0 0c          	add    $0xc,%rax
   11d8f:	48 89 85 a8 eb ff ff 	mov    %rax,-0x1458(%rbp)
   11d96:	48 8d 85 50 e9 ff ff 	lea    -0x16b0(%rbp),%rax
   11d9d:	48 83 c0 0c          	add    $0xc,%rax
   11da1:	48 89 85 b0 eb ff ff 	mov    %rax,-0x1450(%rbp)
   11da8:	48 8d 85 50 e9 ff ff 	lea    -0x16b0(%rbp),%rax
   11daf:	48 83 c0 0c          	add    $0xc,%rax
   11db3:	48 89 85 b8 eb ff ff 	mov    %rax,-0x1448(%rbp)
   11dba:	48 8d 85 50 e9 ff ff 	lea    -0x16b0(%rbp),%rax
   11dc1:	48 83 c0 0c          	add    $0xc,%rax
   11dc5:	48 89 85 c0 eb ff ff 	mov    %rax,-0x1440(%rbp)
   11dcc:	48 8d 85 50 e9 ff ff 	lea    -0x16b0(%rbp),%rax
   11dd3:	48 83 c0 0c          	add    $0xc,%rax
   11dd7:	48 89 85 c8 eb ff ff 	mov    %rax,-0x1438(%rbp)
   11dde:	48 8d 85 50 e9 ff ff 	lea    -0x16b0(%rbp),%rax
   11de5:	48 83 c0 0c          	add    $0xc,%rax
   11de9:	48 89 85 d0 eb ff ff 	mov    %rax,-0x1430(%rbp)
   11df0:	48 8d 85 50 e9 ff ff 	lea    -0x16b0(%rbp),%rax
   11df7:	48 83 c0 0c          	add    $0xc,%rax
   11dfb:	48 89 85 d8 eb ff ff 	mov    %rax,-0x1428(%rbp)
   11e02:	48 8d 85 50 e9 ff ff 	lea    -0x16b0(%rbp),%rax
   11e09:	48 83 c0 0c          	add    $0xc,%rax
   11e0d:	48 89 85 e0 eb ff ff 	mov    %rax,-0x1420(%rbp)
   11e14:	c6 85 04 e5 ff ff e5 	movb   $0xe5,-0x1afc(%rbp)
   11e1b:	48 8d 05 36 b7 00 00 	lea    0xb736(%rip),%rax        # 1d558 <g_1820>
   11e22:	48 89 85 88 e7 ff ff 	mov    %rax,-0x1878(%rbp)
   11e29:	48 8d 05 bc b6 00 00 	lea    0xb6bc(%rip),%rax        # 1d4ec <g_388>
   11e30:	48 89 85 90 e7 ff ff 	mov    %rax,-0x1870(%rbp)
   11e37:	48 83 bd 68 e7 ff ff 	cmpq   $0x0,-0x1898(%rbp)
   11e3e:	00 
   11e3f:	0f 94 c0             	sete   %al
   11e42:	0f b6 d0             	movzbl %al,%edx
   11e45:	48 8b 85 70 e7 ff ff 	mov    -0x1890(%rbp),%rax
   11e4c:	66 89 10             	mov    %dx,(%rax)
   11e4f:	48 8b 85 70 e7 ff ff 	mov    -0x1890(%rbp),%rax
   11e56:	0f b7 00             	movzwl (%rax),%eax
   11e59:	0f bf d8             	movswl %ax,%ebx
   11e5c:	0f b7 85 f8 e4 ff ff 	movzwl -0x1b08(%rbp),%eax
   11e63:	0f b6 c0             	movzbl %al,%eax
   11e66:	be 05 00 00 00       	mov    $0x5,%esi
   11e6b:	89 c7                	mov    %eax,%edi
   11e6d:	e8 93 6d ff ff       	callq  8c05 <safe_lshift_func_uint8_t_u_s>
   11e72:	0f b6 c0             	movzbl %al,%eax
   11e75:	39 c3                	cmp    %eax,%ebx
   11e77:	7d 07                	jge    11e80 <func_14+0x3b53>
   11e79:	b9 f7 ff ff ff       	mov    $0xfffffff7,%ecx
   11e7e:	eb 05                	jmp    11e85 <func_14+0x3b58>
   11e80:	b9 f6 ff ff ff       	mov    $0xfffffff6,%ecx
   11e85:	48 8b 95 70 f8 ff ff 	mov    -0x790(%rbp),%rdx
   11e8c:	48 8b 85 78 f8 ff ff 	mov    -0x788(%rbp),%rax
   11e93:	48 39 c2             	cmp    %rax,%rdx
   11e96:	0f 94 c0             	sete   %al
   11e99:	0f b6 c0             	movzbl %al,%eax
   11e9c:	89 ce                	mov    %ecx,%esi
   11e9e:	89 c7                	mov    %eax,%edi
   11ea0:	e8 19 6e ff ff       	callq  8cbe <safe_rshift_func_uint8_t_u_u>
   11ea5:	89 c2                	mov    %eax,%edx
   11ea7:	48 8b 85 c0 e5 ff ff 	mov    -0x1a40(%rbp),%rax
   11eae:	0f b6 d2             	movzbl %dl,%edx
   11eb1:	89 10                	mov    %edx,(%rax)
   11eb3:	48 8b 05 de de 00 00 	mov    0xdede(%rip),%rax        # 1fd98 <g_764>
   11eba:	8b 00                	mov    (%rax),%eax
   11ebc:	83 c8 05             	or     $0x5,%eax
   11ebf:	0f b6 d0             	movzbl %al,%edx
   11ec2:	48 8b 05 8f df 00 00 	mov    0xdf8f(%rip),%rax        # 1fe58 <g_785>
   11ec9:	48 8b 00             	mov    (%rax),%rax
   11ecc:	48 8b 00             	mov    (%rax),%rax
   11ecf:	48 8b 05 9a de 00 00 	mov    0xde9a(%rip),%rax        # 1fd70 <g_705>
   11ed6:	48 8b 00             	mov    (%rax),%rax
   11ed9:	0f b6 00             	movzbl (%rax),%eax
   11edc:	0f b6 c0             	movzbl %al,%eax
   11edf:	89 d6                	mov    %edx,%esi
   11ee1:	89 c7                	mov    %eax,%edi
   11ee3:	e8 72 6c ff ff       	callq  8b5a <safe_add_func_uint8_t_u_u>
   11ee8:	0f b6 c0             	movzbl %al,%eax
   11eeb:	89 c7                	mov    %eax,%edi
   11eed:	e8 ab 64 ff ff       	callq  839d <safe_unary_minus_func_int16_t_s>
   11ef2:	0f b7 c0             	movzwl %ax,%eax
   11ef5:	be 08 00 00 00       	mov    $0x8,%esi
   11efa:	89 c7                	mov    %eax,%edi
   11efc:	e8 47 6f ff ff       	callq  8e48 <safe_rshift_func_uint16_t_u_s>
   11f01:	48 8b 85 c0 e5 ff ff 	mov    -0x1a40(%rbp),%rax
   11f08:	8b 00                	mov    (%rax),%eax
   11f0a:	85 c0                	test   %eax,%eax
   11f0c:	0f 95 c0             	setne  %al
   11f0f:	0f b6 c0             	movzbl %al,%eax
   11f12:	be 06 00 00 00       	mov    $0x6,%esi
   11f17:	89 c7                	mov    %eax,%edi
   11f19:	e8 6f 6d ff ff       	callq  8c8d <safe_rshift_func_uint8_t_u_s>
   11f1e:	0f b6 d0             	movzbl %al,%edx
   11f21:	0f b7 85 f8 e4 ff ff 	movzwl -0x1b08(%rbp),%eax
   11f28:	39 c2                	cmp    %eax,%edx
   11f2a:	0f 9c c0             	setl   %al
   11f2d:	0f b6 d0             	movzbl %al,%edx
   11f30:	0f bf 85 fc e4 ff ff 	movswl -0x1b04(%rbp),%eax
   11f37:	39 c2                	cmp    %eax,%edx
   11f39:	0f 9c c0             	setl   %al
   11f3c:	0f b6 c0             	movzbl %al,%eax
   11f3f:	89 c6                	mov    %eax,%esi
   11f41:	bf 00 00 00 00       	mov    $0x0,%edi
   11f46:	e8 bb 6e ff ff       	callq  8e06 <safe_lshift_func_uint16_t_u_u>
   11f4b:	66 85 c0             	test   %ax,%ax
   11f4e:	0f 95 c0             	setne  %al
   11f51:	0f b6 d0             	movzbl %al,%edx
   11f54:	8b 85 28 e5 ff ff    	mov    -0x1ad8(%rbp),%eax
   11f5a:	39 c2                	cmp    %eax,%edx
   11f5c:	0f 85 76 05 00 00    	jne    124d8 <func_14+0x41ab>
   11f62:	c6 85 06 e5 ff ff fb 	movb   $0xfb,-0x1afa(%rbp)
   11f69:	48 c7 85 e0 e7 ff ff 	movq   $0x0,-0x1820(%rbp)
   11f70:	00 00 00 00 
   11f74:	48 8d 05 75 b5 00 00 	lea    0xb575(%rip),%rax        # 1d4f0 <g_397>
   11f7b:	48 89 85 e8 e7 ff ff 	mov    %rax,-0x1818(%rbp)
   11f82:	be 0b 00 00 00       	mov    $0xb,%esi
   11f87:	bf 52 54 00 00       	mov    $0x5452,%edi
   11f8c:	e8 e9 6e ff ff       	callq  8e7a <safe_rshift_func_uint16_t_u_u>
   11f91:	88 85 06 e5 ff ff    	mov    %al,-0x1afa(%rbp)
   11f97:	0f be 85 06 e5 ff ff 	movsbl -0x1afa(%rbp),%eax
   11f9e:	89 85 4c e5 ff ff    	mov    %eax,-0x1ab4(%rbp)
   11fa4:	66 c7 05 3f b5 00 00 	movw   $0x0,0xb53f(%rip)        # 1d4ec <g_388>
   11fab:	00 00 
   11fad:	e9 9b 02 00 00       	jmpq   1224d <func_14+0x3f20>
   11fb2:	66 c7 85 10 f2 ff ff 	movw   $0xe54e,-0xdf0(%rbp)
   11fb9:	4e e5 
   11fbb:	66 c7 85 12 f2 ff ff 	movw   $0xb642,-0xdee(%rbp)
   11fc2:	42 b6 
   11fc4:	66 c7 85 14 f2 ff ff 	movw   $0xe54e,-0xdec(%rbp)
   11fcb:	4e e5 
   11fcd:	66 c7 85 16 f2 ff ff 	movw   $0xe54e,-0xdea(%rbp)
   11fd4:	4e e5 
   11fd6:	66 c7 85 18 f2 ff ff 	movw   $0xb642,-0xde8(%rbp)
   11fdd:	42 b6 
   11fdf:	66 c7 85 1a f2 ff ff 	movw   $0xe54e,-0xde6(%rbp)
   11fe6:	4e e5 
   11fe8:	66 c7 85 1c f2 ff ff 	movw   $0xe54e,-0xde4(%rbp)
   11fef:	4e e5 
   11ff1:	66 c7 85 1e f2 ff ff 	movw   $0xb642,-0xde2(%rbp)
   11ff8:	42 b6 
   11ffa:	66 c7 85 20 f2 ff ff 	movw   $0xe54e,-0xde0(%rbp)
   12001:	4e e5 
   12003:	66 c7 85 22 f2 ff ff 	movw   $0xe54e,-0xdde(%rbp)
   1200a:	4e e5 
   1200c:	66 c7 85 24 f2 ff ff 	movw   $0xb642,-0xddc(%rbp)
   12013:	42 b6 
   12015:	66 c7 85 26 f2 ff ff 	movw   $0xe54e,-0xdda(%rbp)
   1201c:	4e e5 
   1201e:	66 c7 85 28 f2 ff ff 	movw   $0xe54e,-0xdd8(%rbp)
   12025:	4e e5 
   12027:	66 c7 85 2a f2 ff ff 	movw   $0xb642,-0xdd6(%rbp)
   1202e:	42 b6 
   12030:	66 c7 85 2c f2 ff ff 	movw   $0xe54e,-0xdd4(%rbp)
   12037:	4e e5 
   12039:	48 8d 05 80 e3 00 00 	lea    0xe380(%rip),%rax        # 203c0 <g_1177>
   12040:	48 89 85 28 e6 ff ff 	mov    %rax,-0x19d8(%rbp)
   12047:	48 8d 85 28 e6 ff ff 	lea    -0x19d8(%rbp),%rax
   1204e:	48 89 85 10 e8 ff ff 	mov    %rax,-0x17f0(%rbp)
   12055:	48 8b 05 0c dd 00 00 	mov    0xdd0c(%rip),%rax        # 1fd68 <g_706>
   1205c:	0f b6 00             	movzbl (%rax),%eax
   1205f:	0f b6 d8             	movzbl %al,%ebx
   12062:	44 0f bf a5 fc e4 ff 	movswl -0x1b04(%rbp),%r12d
   12069:	ff 
   1206a:	48 8b 85 c0 e5 ff ff 	mov    -0x1a40(%rbp),%rax
   12071:	8b 00                	mov    (%rax),%eax
   12073:	44 0f b7 e8          	movzwl %ax,%r13d
   12077:	0f b6 85 f4 e4 ff ff 	movzbl -0x1b0c(%rbp),%eax
   1207e:	0f be d0             	movsbl %al,%edx
   12081:	0f bf 85 fc e4 ff ff 	movswl -0x1b04(%rbp),%eax
   12088:	89 d6                	mov    %edx,%esi
   1208a:	89 c7                	mov    %eax,%edi
   1208c:	e8 42 63 ff ff       	callq  83d3 <safe_sub_func_int16_t_s_s>
   12091:	48 83 bd 10 e8 ff ff 	cmpq   $0x0,-0x17f0(%rbp)
   12098:	00 
   12099:	75 42                	jne    120dd <func_14+0x3db0>
   1209b:	48 8b 85 30 e6 ff ff 	mov    -0x19d0(%rbp),%rax
   120a2:	48 3b 85 e8 e7 ff ff 	cmp    -0x1818(%rbp),%rax
   120a9:	0f 95 c0             	setne  %al
   120ac:	0f b6 c0             	movzbl %al,%eax
   120af:	be 05 00 00 00       	mov    $0x5,%esi
   120b4:	89 c7                	mov    %eax,%edi
   120b6:	e8 6f 64 ff ff       	callq  852a <safe_rshift_func_int16_t_s_s>
   120bb:	0f bf d0             	movswl %ax,%edx
   120be:	0f b7 85 da ea ff ff 	movzwl -0x1526(%rbp),%eax
   120c5:	0f b7 c0             	movzwl %ax,%eax
   120c8:	39 c2                	cmp    %eax,%edx
   120ca:	0f 9c c0             	setl   %al
   120cd:	0f b6 c0             	movzbl %al,%eax
   120d0:	89 85 a0 e9 ff ff    	mov    %eax,-0x1660(%rbp)
   120d6:	b8 01 00 00 00       	mov    $0x1,%eax
   120db:	eb 05                	jmp    120e2 <func_14+0x3db5>
   120dd:	b8 00 00 00 00       	mov    $0x0,%eax
   120e2:	66 89 85 f8 e4 ff ff 	mov    %ax,-0x1b08(%rbp)
   120e9:	0f b7 85 f8 e4 ff ff 	movzwl -0x1b08(%rbp),%eax
   120f0:	0f bf d0             	movswl %ax,%edx
   120f3:	8b 85 28 e5 ff ff    	mov    -0x1ad8(%rbp),%eax
   120f9:	98                   	cwtl   
   120fa:	89 d6                	mov    %edx,%esi
   120fc:	89 c7                	mov    %eax,%edi
   120fe:	e8 f2 62 ff ff       	callq  83f5 <safe_mul_func_int16_t_s_s>
   12103:	0f b6 95 f4 e4 ff ff 	movzbl -0x1b0c(%rbp),%edx
   1210a:	66 0f be d2          	movsbw %dl,%dx
   1210e:	66 39 d0             	cmp    %dx,%ax
   12111:	7c 07                	jl     1211a <func_14+0x3ded>
   12113:	ba 01 00 00 00       	mov    $0x1,%edx
   12118:	eb 05                	jmp    1211f <func_14+0x3df2>
   1211a:	ba 00 00 00 00       	mov    $0x0,%edx
   1211f:	48 8b 85 70 e7 ff ff 	mov    -0x1890(%rbp),%rax
   12126:	0f b7 00             	movzwl (%rax),%eax
   12129:	31 c2                	xor    %eax,%edx
   1212b:	48 8b 85 70 e7 ff ff 	mov    -0x1890(%rbp),%rax
   12132:	66 89 10             	mov    %dx,(%rax)
   12135:	48 8b 85 70 e7 ff ff 	mov    -0x1890(%rbp),%rax
   1213c:	0f b7 00             	movzwl (%rax),%eax
   1213f:	0f bf d0             	movswl %ax,%edx
   12142:	0f b7 85 24 f2 ff ff 	movzwl -0xddc(%rbp),%eax
   12149:	0f b7 c0             	movzwl %ax,%eax
   1214c:	39 c2                	cmp    %eax,%edx
   1214e:	0f 9d c0             	setge  %al
   12151:	0f b6 c0             	movzbl %al,%eax
   12154:	44 89 ee             	mov    %r13d,%esi
   12157:	89 c7                	mov    %eax,%edi
   12159:	e8 c1 6b ff ff       	callq  8d1f <safe_sub_func_uint16_t_u_u>
   1215e:	0f b7 d0             	movzwl %ax,%edx
   12161:	8b 05 e5 e9 00 00    	mov    0xe9e5(%rip),%eax        # 20b4c <g_169>
   12167:	39 c2                	cmp    %eax,%edx
   12169:	0f 97 c0             	seta   %al
   1216c:	0f b6 d0             	movzbl %al,%edx
   1216f:	0f b6 85 f4 e4 ff ff 	movzbl -0x1b0c(%rbp),%eax
   12176:	66 98                	cbtw   
   12178:	31 d0                	xor    %edx,%eax
   1217a:	98                   	cwtl   
   1217b:	44 89 e6             	mov    %r12d,%esi
   1217e:	89 c7                	mov    %eax,%edi
   12180:	e8 4e 62 ff ff       	callq  83d3 <safe_sub_func_int16_t_s_s>
   12185:	0f be c0             	movsbl %al,%eax
   12188:	89 de                	mov    %ebx,%esi
   1218a:	89 c7                	mov    %eax,%edi
   1218c:	e8 5d 61 ff ff       	callq  82ee <safe_lshift_func_int8_t_s_u>
   12191:	0f be c0             	movsbl %al,%eax
   12194:	be 00 00 00 00       	mov    $0x0,%esi
   12199:	89 c7                	mov    %eax,%edi
   1219b:	e8 72 60 ff ff       	callq  8212 <safe_mul_func_int8_t_s_s>
   121a0:	b9 00 00 00 00       	mov    $0x0,%ecx
   121a5:	48 8b 05 1c db 00 00 	mov    0xdb1c(%rip),%rax        # 1fcc8 <g_180>
   121ac:	8b 00                	mov    (%rax),%eax
   121ae:	89 c2                	mov    %eax,%edx
   121b0:	89 c8                	mov    %ecx,%eax
   121b2:	09 c2                	or     %eax,%edx
   121b4:	48 8b 05 0d db 00 00 	mov    0xdb0d(%rip),%rax        # 1fcc8 <g_180>
   121bb:	89 10                	mov    %edx,(%rax)
   121bd:	8b 85 28 e5 ff ff    	mov    -0x1ad8(%rbp),%eax
   121c3:	89 c2                	mov    %eax,%edx
   121c5:	48 8b 85 68 e7 ff ff 	mov    -0x1898(%rbp),%rax
   121cc:	88 10                	mov    %dl,(%rax)
   121ce:	48 8b 85 68 e7 ff ff 	mov    -0x1898(%rbp),%rax
   121d5:	0f b6 00             	movzbl (%rax),%eax
   121d8:	0f be d0             	movsbl %al,%edx
   121db:	8b 85 84 e9 ff ff    	mov    -0x167c(%rbp),%eax
   121e1:	0f be c0             	movsbl %al,%eax
   121e4:	89 d6                	mov    %edx,%esi
   121e6:	89 c7                	mov    %eax,%edi
   121e8:	e8 b4 60 ff ff       	callq  82a1 <safe_lshift_func_int8_t_s_s>
   121ed:	0f b6 95 f4 e4 ff ff 	movzbl -0x1b0c(%rbp),%edx
   121f4:	31 d0                	xor    %edx,%eax
   121f6:	0f be d0             	movsbl %al,%edx
   121f9:	0f b7 85 fc e4 ff ff 	movzwl -0x1b04(%rbp),%eax
   12200:	0f be c0             	movsbl %al,%eax
   12203:	89 d6                	mov    %edx,%esi
   12205:	89 c7                	mov    %eax,%edi
   12207:	e8 06 60 ff ff       	callq  8212 <safe_mul_func_int8_t_s_s>
   1220c:	be 03 00 00 00       	mov    $0x3,%esi
   12211:	bf d4 ff ff ff       	mov    $0xffffffd4,%edi
   12216:	e8 51 61 ff ff       	callq  836c <safe_rshift_func_int8_t_s_u>
   1221b:	0f be d0             	movsbl %al,%edx
   1221e:	8b 85 a0 e9 ff ff    	mov    -0x1660(%rbp),%eax
   12224:	89 d1                	mov    %edx,%ecx
   12226:	21 c1                	and    %eax,%ecx
   12228:	48 8b 85 c0 e5 ff ff 	mov    -0x1a40(%rbp),%rax
   1222f:	8b 10                	mov    (%rax),%edx
   12231:	48 8b 85 c0 e5 ff ff 	mov    -0x1a40(%rbp),%rax
   12238:	21 ca                	and    %ecx,%edx
   1223a:	89 10                	mov    %edx,(%rax)
   1223c:	0f b7 05 a9 b2 00 00 	movzwl 0xb2a9(%rip),%eax        # 1d4ec <g_388>
   12243:	83 e8 01             	sub    $0x1,%eax
   12246:	66 89 05 9f b2 00 00 	mov    %ax,0xb29f(%rip)        # 1d4ec <g_388>
   1224d:	0f b7 05 98 b2 00 00 	movzwl 0xb298(%rip),%eax        # 1d4ec <g_388>
   12254:	66 83 f8 f3          	cmp    $0xfff3,%ax
   12258:	0f 85 54 fd ff ff    	jne    11fb2 <func_14+0x3c85>
   1225e:	c7 05 c8 ad 00 00 00 	movl   $0x0,0xadc8(%rip)        # 1d030 <g_85>
   12265:	00 00 00 
   12268:	e9 57 02 00 00       	jmpq   124c4 <func_14+0x4197>
   1226d:	48 8d 85 b0 e9 ff ff 	lea    -0x1650(%rbp),%rax
   12274:	48 83 c0 28          	add    $0x28,%rax
   12278:	48 89 85 f0 e7 ff ff 	mov    %rax,-0x1810(%rbp)
   1227f:	48 8d 85 28 e5 ff ff 	lea    -0x1ad8(%rbp),%rax
   12286:	48 89 85 f8 e7 ff ff 	mov    %rax,-0x1808(%rbp)
   1228d:	48 8d 85 20 e5 ff ff 	lea    -0x1ae0(%rbp),%rax
   12294:	48 89 85 00 e8 ff ff 	mov    %rax,-0x1800(%rbp)
   1229b:	48 8d 05 0a b1 00 00 	lea    0xb10a(%rip),%rax        # 1d3ac <g_181>
   122a2:	48 89 85 10 f2 ff ff 	mov    %rax,-0xdf0(%rbp)
   122a9:	48 8d 05 fc b0 00 00 	lea    0xb0fc(%rip),%rax        # 1d3ac <g_181>
   122b0:	48 89 85 18 f2 ff ff 	mov    %rax,-0xde8(%rbp)
   122b7:	48 8d 05 ee b0 00 00 	lea    0xb0ee(%rip),%rax        # 1d3ac <g_181>
   122be:	48 89 85 20 f2 ff ff 	mov    %rax,-0xde0(%rbp)
   122c5:	48 8d 05 e0 b0 00 00 	lea    0xb0e0(%rip),%rax        # 1d3ac <g_181>
   122cc:	48 89 85 28 f2 ff ff 	mov    %rax,-0xdd8(%rbp)
   122d3:	48 8d 05 d2 b0 00 00 	lea    0xb0d2(%rip),%rax        # 1d3ac <g_181>
   122da:	48 89 85 30 f2 ff ff 	mov    %rax,-0xdd0(%rbp)
   122e1:	48 8d 05 c4 b0 00 00 	lea    0xb0c4(%rip),%rax        # 1d3ac <g_181>
   122e8:	48 89 85 38 f2 ff ff 	mov    %rax,-0xdc8(%rbp)
   122ef:	48 8d 05 b6 b0 00 00 	lea    0xb0b6(%rip),%rax        # 1d3ac <g_181>
   122f6:	48 89 85 40 f2 ff ff 	mov    %rax,-0xdc0(%rbp)
   122fd:	48 8d 05 a8 b0 00 00 	lea    0xb0a8(%rip),%rax        # 1d3ac <g_181>
   12304:	48 89 85 48 f2 ff ff 	mov    %rax,-0xdb8(%rbp)
   1230b:	48 8d 05 9a b0 00 00 	lea    0xb09a(%rip),%rax        # 1d3ac <g_181>
   12312:	48 89 85 50 f2 ff ff 	mov    %rax,-0xdb0(%rbp)
   12319:	48 8d 05 8c b0 00 00 	lea    0xb08c(%rip),%rax        # 1d3ac <g_181>
   12320:	48 89 85 58 f2 ff ff 	mov    %rax,-0xda8(%rbp)
   12327:	48 8d 05 7e b0 00 00 	lea    0xb07e(%rip),%rax        # 1d3ac <g_181>
   1232e:	48 89 85 60 f2 ff ff 	mov    %rax,-0xda0(%rbp)
   12335:	48 8d 05 70 b0 00 00 	lea    0xb070(%rip),%rax        # 1d3ac <g_181>
   1233c:	48 89 85 68 f2 ff ff 	mov    %rax,-0xd98(%rbp)
   12343:	48 8d 05 62 b0 00 00 	lea    0xb062(%rip),%rax        # 1d3ac <g_181>
   1234a:	48 89 85 70 f2 ff ff 	mov    %rax,-0xd90(%rbp)
   12351:	48 8d 05 54 b0 00 00 	lea    0xb054(%rip),%rax        # 1d3ac <g_181>
   12358:	48 89 85 78 f2 ff ff 	mov    %rax,-0xd88(%rbp)
   1235f:	48 8d 05 46 b0 00 00 	lea    0xb046(%rip),%rax        # 1d3ac <g_181>
   12366:	48 89 85 80 f2 ff ff 	mov    %rax,-0xd80(%rbp)
   1236d:	48 8d 05 38 b0 00 00 	lea    0xb038(%rip),%rax        # 1d3ac <g_181>
   12374:	48 89 85 88 f2 ff ff 	mov    %rax,-0xd78(%rbp)
   1237b:	48 8d 05 2a b0 00 00 	lea    0xb02a(%rip),%rax        # 1d3ac <g_181>
   12382:	48 89 85 90 f2 ff ff 	mov    %rax,-0xd70(%rbp)
   12389:	48 8d 05 1c b0 00 00 	lea    0xb01c(%rip),%rax        # 1d3ac <g_181>
   12390:	48 89 85 98 f2 ff ff 	mov    %rax,-0xd68(%rbp)
   12397:	48 8d 05 1a b0 00 00 	lea    0xb01a(%rip),%rax        # 1d3b8 <g_199>
   1239e:	48 89 85 08 e8 ff ff 	mov    %rax,-0x17f8(%rbp)
   123a5:	48 8b 95 b8 e9 ff ff 	mov    -0x1648(%rbp),%rdx
   123ac:	48 8b 85 f0 e7 ff ff 	mov    -0x1810(%rbp),%rax
   123b3:	48 89 10             	mov    %rdx,(%rax)
   123b6:	66 83 ad 0c e5 ff ff 	subw   $0x1,-0x1af4(%rbp)
   123bd:	01 
   123be:	44 8b ad a0 e9 ff ff 	mov    -0x1660(%rbp),%r13d
   123c5:	48 8b 85 c0 e5 ff ff 	mov    -0x1a40(%rbp),%rax
   123cc:	8b 00                	mov    (%rax),%eax
   123ce:	0f b6 d8             	movzbl %al,%ebx
   123d1:	44 0f b7 a5 f8 e4 ff 	movzwl -0x1b08(%rbp),%r12d
   123d8:	ff 
   123d9:	48 8b 05 50 e0 00 00 	mov    0xe050(%rip),%rax        # 20430 <g_1246>
   123e0:	48 8b 10             	mov    (%rax),%rdx
   123e3:	48 8b 05 46 e0 00 00 	mov    0xe046(%rip),%rax        # 20430 <g_1246>
   123ea:	48 8b 00             	mov    (%rax),%rax
   123ed:	48 8b 12             	mov    (%rdx),%rdx
   123f0:	48 89 10             	mov    %rdx,(%rax)
   123f3:	66 83 bd f8 e4 ff ff 	cmpw   $0x0,-0x1b08(%rbp)
   123fa:	00 
   123fb:	0f 95 c0             	setne  %al
   123fe:	0f b6 d0             	movzbl %al,%edx
   12401:	48 8b 05 30 d9 00 00 	mov    0xd930(%rip),%rax        # 1fd38 <g_543>
   12408:	8b 00                	mov    (%rax),%eax
   1240a:	39 c2                	cmp    %eax,%edx
   1240c:	be 01 00 00 00       	mov    $0x1,%esi
   12411:	bf 01 00 00 00       	mov    $0x1,%edi
   12416:	e8 da 5f ff ff       	callq  83f5 <safe_mul_func_int16_t_s_s>
   1241b:	0f be c0             	movsbl %al,%eax
   1241e:	be 02 00 00 00       	mov    $0x2,%esi
   12423:	89 c7                	mov    %eax,%edi
   12425:	e8 77 5e ff ff       	callq  82a1 <safe_lshift_func_int8_t_s_s>
   1242a:	48 0f be c0          	movsbq %al,%rax
   1242e:	4c 89 e6             	mov    %r12,%rsi
   12431:	48 89 c7             	mov    %rax,%rdi
   12434:	e8 6f 64 ff ff       	callq  88a8 <safe_sub_func_int64_t_s_s>
   12439:	0f b6 c0             	movzbl %al,%eax
   1243c:	89 de                	mov    %ebx,%esi
   1243e:	89 c7                	mov    %eax,%edi
   12440:	e8 4e 67 ff ff       	callq  8b93 <safe_mul_func_uint8_t_u_u>
   12445:	0f b6 d8             	movzbl %al,%ebx
   12448:	0f b6 85 06 e5 ff ff 	movzbl -0x1afa(%rbp),%eax
   1244f:	0f b6 c0             	movzbl %al,%eax
   12452:	be 04 00 00 00       	mov    $0x4,%esi
   12457:	89 c7                	mov    %eax,%edi
   12459:	e8 a7 67 ff ff       	callq  8c05 <safe_lshift_func_uint8_t_u_s>
   1245e:	0f b6 c0             	movzbl %al,%eax
   12461:	89 de                	mov    %ebx,%esi
   12463:	89 c7                	mov    %eax,%edi
   12465:	e8 ac 5f ff ff       	callq  8416 <safe_mod_func_int16_t_s_s>
   1246a:	66 c1 e8 0f          	shr    $0xf,%ax
   1246e:	0f b6 d0             	movzbl %al,%edx
   12471:	0f b6 85 f4 e4 ff ff 	movzbl -0x1b0c(%rbp),%eax
   12478:	0f be c0             	movsbl %al,%eax
   1247b:	39 c2                	cmp    %eax,%edx
   1247d:	0f 94 c0             	sete   %al
   12480:	0f b6 c0             	movzbl %al,%eax
   12483:	be 08 00 00 00       	mov    $0x8,%esi
   12488:	89 c7                	mov    %eax,%edi
   1248a:	e8 ae 68 ff ff       	callq  8d3d <safe_mul_func_uint16_t_u_u>
   1248f:	0f b7 c0             	movzwl %ax,%eax
   12492:	41 39 c5             	cmp    %eax,%r13d
   12495:	0f 95 c2             	setne  %dl
   12498:	48 8b 85 c0 e5 ff ff 	mov    -0x1a40(%rbp),%rax
   1249f:	0f b6 d2             	movzbl %dl,%edx
   124a2:	89 10                	mov    %edx,(%rax)
   124a4:	48 8b 85 38 e6 ff ff 	mov    -0x19c8(%rbp),%rax
   124ab:	48 8b 00             	mov    (%rax),%rax
   124ae:	48 c7 00 00 00 00 00 	movq   $0x0,(%rax)
   124b5:	8b 05 75 ab 00 00    	mov    0xab75(%rip),%eax        # 1d030 <g_85>
   124bb:	83 c0 01             	add    $0x1,%eax
   124be:	89 05 6c ab 00 00    	mov    %eax,0xab6c(%rip)        # 1d030 <g_85>
   124c4:	8b 05 66 ab 00 00    	mov    0xab66(%rip),%eax        # 1d030 <g_85>
   124ca:	83 f8 0b             	cmp    $0xb,%eax
   124cd:	0f 84 9a fd ff ff    	je     1226d <func_14+0x3f40>
   124d3:	e9 37 05 00 00       	jmpq   12a0f <func_14+0x46e2>
   124d8:	c6 85 05 e5 ff ff 5a 	movb   $0x5a,-0x1afb(%rbp)
   124df:	c7 85 10 f2 ff ff 05 	movl   $0x5,-0xdf0(%rbp)
   124e6:	00 00 00 
   124e9:	c7 85 14 f2 ff ff ff 	movl   $0xffffffff,-0xdec(%rbp)
   124f0:	ff ff ff 
   124f3:	c7 85 18 f2 ff ff fe 	movl   $0xfffffffe,-0xde8(%rbp)
   124fa:	ff ff ff 
   124fd:	c7 85 1c f2 ff ff fe 	movl   $0xfffffffe,-0xde4(%rbp)
   12504:	ff ff ff 
   12507:	c7 85 20 f2 ff ff ff 	movl   $0xffffffff,-0xde0(%rbp)
   1250e:	ff ff ff 
   12511:	c7 85 24 f2 ff ff 05 	movl   $0x5,-0xddc(%rbp)
   12518:	00 00 00 
   1251b:	c7 85 28 f2 ff ff 81 	movl   $0xe84a9c81,-0xdd8(%rbp)
   12522:	9c 4a e8 
   12525:	c7 85 2c f2 ff ff 81 	movl   $0xe84a9c81,-0xdd4(%rbp)
   1252c:	9c 4a e8 
   1252f:	c7 85 30 f2 ff ff 05 	movl   $0x5,-0xdd0(%rbp)
   12536:	00 00 00 
   12539:	c7 85 34 f2 ff ff ff 	movl   $0xffffffff,-0xdcc(%rbp)
   12540:	ff ff ff 
   12543:	c7 85 38 f2 ff ff fe 	movl   $0xfffffffe,-0xdc8(%rbp)
   1254a:	ff ff ff 
   1254d:	c7 85 3c f2 ff ff fe 	movl   $0xfffffffe,-0xdc4(%rbp)
   12554:	ff ff ff 
   12557:	c7 85 40 f2 ff ff ff 	movl   $0xffffffff,-0xdc0(%rbp)
   1255e:	ff ff ff 
   12561:	c7 85 44 f2 ff ff 05 	movl   $0x5,-0xdbc(%rbp)
   12568:	00 00 00 
   1256b:	c7 85 48 f2 ff ff 81 	movl   $0xe84a9c81,-0xdb8(%rbp)
   12572:	9c 4a e8 
   12575:	c7 85 4c f2 ff ff 81 	movl   $0xe84a9c81,-0xdb4(%rbp)
   1257c:	9c 4a e8 
   1257f:	c7 85 50 f2 ff ff 05 	movl   $0x5,-0xdb0(%rbp)
   12586:	00 00 00 
   12589:	c7 85 54 f2 ff ff ff 	movl   $0xffffffff,-0xdac(%rbp)
   12590:	ff ff ff 
   12593:	c7 85 58 f2 ff ff fe 	movl   $0xfffffffe,-0xda8(%rbp)
   1259a:	ff ff ff 
   1259d:	c7 85 5c f2 ff ff fe 	movl   $0xfffffffe,-0xda4(%rbp)
   125a4:	ff ff ff 
   125a7:	c7 85 60 f2 ff ff ff 	movl   $0xffffffff,-0xda0(%rbp)
   125ae:	ff ff ff 
   125b1:	c7 85 64 f2 ff ff 05 	movl   $0x5,-0xd9c(%rbp)
   125b8:	00 00 00 
   125bb:	c7 85 68 f2 ff ff 81 	movl   $0xe84a9c81,-0xd98(%rbp)
   125c2:	9c 4a e8 
   125c5:	c7 85 6c f2 ff ff 81 	movl   $0xe84a9c81,-0xd94(%rbp)
   125cc:	9c 4a e8 
   125cf:	c7 85 70 f2 ff ff 05 	movl   $0x5,-0xd90(%rbp)
   125d6:	00 00 00 
   125d9:	c7 85 74 f2 ff ff ff 	movl   $0xffffffff,-0xd8c(%rbp)
   125e0:	ff ff ff 
   125e3:	c7 85 78 f2 ff ff fe 	movl   $0xfffffffe,-0xd88(%rbp)
   125ea:	ff ff ff 
   125ed:	c7 85 7c f2 ff ff fe 	movl   $0xfffffffe,-0xd84(%rbp)
   125f4:	ff ff ff 
   125f7:	c7 85 80 f2 ff ff ff 	movl   $0xffffffff,-0xd80(%rbp)
   125fe:	ff ff ff 
   12601:	c7 85 84 f2 ff ff 05 	movl   $0x5,-0xd7c(%rbp)
   12608:	00 00 00 
   1260b:	c7 85 88 f2 ff ff 81 	movl   $0xe84a9c81,-0xd78(%rbp)
   12612:	9c 4a e8 
   12615:	c7 85 8c f2 ff ff 81 	movl   $0xe84a9c81,-0xd74(%rbp)
   1261c:	9c 4a e8 
   1261f:	c7 85 90 f2 ff ff 05 	movl   $0x5,-0xd70(%rbp)
   12626:	00 00 00 
   12629:	c7 85 94 f2 ff ff ff 	movl   $0xffffffff,-0xd6c(%rbp)
   12630:	ff ff ff 
   12633:	c7 85 98 f2 ff ff fe 	movl   $0xfffffffe,-0xd68(%rbp)
   1263a:	ff ff ff 
   1263d:	c7 85 9c f2 ff ff fe 	movl   $0xfffffffe,-0xd64(%rbp)
   12644:	ff ff ff 
   12647:	c7 85 a0 f2 ff ff ff 	movl   $0xffffffff,-0xd60(%rbp)
   1264e:	ff ff ff 
   12651:	c7 85 a4 f2 ff ff 05 	movl   $0x5,-0xd5c(%rbp)
   12658:	00 00 00 
   1265b:	c7 85 a8 f2 ff ff 81 	movl   $0xe84a9c81,-0xd58(%rbp)
   12662:	9c 4a e8 
   12665:	c7 85 ac f2 ff ff 81 	movl   $0xe84a9c81,-0xd54(%rbp)
   1266c:	9c 4a e8 
   1266f:	c7 85 b0 f2 ff ff 05 	movl   $0x5,-0xd50(%rbp)
   12676:	00 00 00 
   12679:	c7 85 b4 f2 ff ff ff 	movl   $0xffffffff,-0xd4c(%rbp)
   12680:	ff ff ff 
   12683:	c7 85 b8 f2 ff ff fe 	movl   $0xfffffffe,-0xd48(%rbp)
   1268a:	ff ff ff 
   1268d:	c7 85 bc f2 ff ff fe 	movl   $0xfffffffe,-0xd44(%rbp)
   12694:	ff ff ff 
   12697:	c7 85 c0 f2 ff ff ff 	movl   $0xffffffff,-0xd40(%rbp)
   1269e:	ff ff ff 
   126a1:	c7 85 c4 f2 ff ff 05 	movl   $0x5,-0xd3c(%rbp)
   126a8:	00 00 00 
   126ab:	c7 85 c8 f2 ff ff 81 	movl   $0xe84a9c81,-0xd38(%rbp)
   126b2:	9c 4a e8 
   126b5:	c7 85 cc f2 ff ff 81 	movl   $0xe84a9c81,-0xd34(%rbp)
   126bc:	9c 4a e8 
   126bf:	c7 85 d0 f2 ff ff 05 	movl   $0x5,-0xd30(%rbp)
   126c6:	00 00 00 
   126c9:	c7 85 d4 f2 ff ff ff 	movl   $0xffffffff,-0xd2c(%rbp)
   126d0:	ff ff ff 
   126d3:	c7 85 d8 f2 ff ff fe 	movl   $0xfffffffe,-0xd28(%rbp)
   126da:	ff ff ff 
   126dd:	c7 85 dc f2 ff ff fe 	movl   $0xfffffffe,-0xd24(%rbp)
   126e4:	ff ff ff 
   126e7:	c7 85 e0 f2 ff ff ff 	movl   $0xffffffff,-0xd20(%rbp)
   126ee:	ff ff ff 
   126f1:	c7 85 e4 f2 ff ff 05 	movl   $0x5,-0xd1c(%rbp)
   126f8:	00 00 00 
   126fb:	c7 85 e8 f2 ff ff 81 	movl   $0xe84a9c81,-0xd18(%rbp)
   12702:	9c 4a e8 
   12705:	c7 85 ec f2 ff ff 81 	movl   $0xe84a9c81,-0xd14(%rbp)
   1270c:	9c 4a e8 
   1270f:	c7 85 f0 f2 ff ff 05 	movl   $0x5,-0xd10(%rbp)
   12716:	00 00 00 
   12719:	c7 85 f4 f2 ff ff ff 	movl   $0xffffffff,-0xd0c(%rbp)
   12720:	ff ff ff 
   12723:	c7 85 f8 f2 ff ff fe 	movl   $0xfffffffe,-0xd08(%rbp)
   1272a:	ff ff ff 
   1272d:	c7 85 fc f2 ff ff fe 	movl   $0xfffffffe,-0xd04(%rbp)
   12734:	ff ff ff 
   12737:	c7 85 00 f3 ff ff ff 	movl   $0xffffffff,-0xd00(%rbp)
   1273e:	ff ff ff 
   12741:	c7 85 04 f3 ff ff 05 	movl   $0x5,-0xcfc(%rbp)
   12748:	00 00 00 
   1274b:	c7 85 08 f3 ff ff 81 	movl   $0xe84a9c81,-0xcf8(%rbp)
   12752:	9c 4a e8 
   12755:	c7 85 0c f3 ff ff 81 	movl   $0xe84a9c81,-0xcf4(%rbp)
   1275c:	9c 4a e8 
   1275f:	48 8d 85 b0 e9 ff ff 	lea    -0x1650(%rbp),%rax
   12766:	48 83 c0 10          	add    $0x10,%rax
   1276a:	48 89 85 98 e7 ff ff 	mov    %rax,-0x1868(%rbp)
   12771:	48 c7 85 28 e6 ff ff 	movq   $0x0,-0x19d8(%rbp)
   12778:	00 00 00 00 
   1277c:	c7 85 28 e6 ff ff ff 	movl   $0xffffffff,-0x19d8(%rbp)
   12783:	ff ff ff 
   12786:	c7 85 4c e5 ff ff e6 	movl   $0xffffffe6,-0x1ab4(%rbp)
   1278d:	ff ff ff 
   12790:	e9 6d 02 00 00       	jmpq   12a02 <func_14+0x46d5>
   12795:	48 8d 85 20 e9 ff ff 	lea    -0x16e0(%rbp),%rax
   1279c:	48 83 c0 1c          	add    $0x1c,%rax
   127a0:	48 89 85 a0 e7 ff ff 	mov    %rax,-0x1860(%rbp)
   127a7:	48 8d 85 80 e9 ff ff 	lea    -0x1680(%rbp),%rax
   127ae:	48 83 c0 20          	add    $0x20,%rax
   127b2:	48 89 85 a8 e7 ff ff 	mov    %rax,-0x1858(%rbp)
   127b9:	48 8d 85 20 e5 ff ff 	lea    -0x1ae0(%rbp),%rax
   127c0:	48 89 85 b0 e7 ff ff 	mov    %rax,-0x1850(%rbp)
   127c7:	48 8d 85 24 e5 ff ff 	lea    -0x1adc(%rbp),%rax
   127ce:	48 89 85 b8 e7 ff ff 	mov    %rax,-0x1848(%rbp)
   127d5:	48 8d 85 20 e9 ff ff 	lea    -0x16e0(%rbp),%rax
   127dc:	48 83 c0 08          	add    $0x8,%rax
   127e0:	48 89 85 c0 e7 ff ff 	mov    %rax,-0x1840(%rbp)
   127e7:	48 8d 85 50 e9 ff ff 	lea    -0x16b0(%rbp),%rax
   127ee:	48 83 c0 0c          	add    $0xc,%rax
   127f2:	48 89 85 c8 e7 ff ff 	mov    %rax,-0x1838(%rbp)
   127f9:	48 8d 85 50 e9 ff ff 	lea    -0x16b0(%rbp),%rax
   12800:	48 83 c0 10          	add    $0x10,%rax
   12804:	48 89 85 d0 e7 ff ff 	mov    %rax,-0x1830(%rbp)
   1280b:	48 8d 85 80 e9 ff ff 	lea    -0x1680(%rbp),%rax
   12812:	48 83 c0 20          	add    $0x20,%rax
   12816:	48 89 85 d8 e7 ff ff 	mov    %rax,-0x1828(%rbp)
   1281d:	48 8d 85 80 e9 ff ff 	lea    -0x1680(%rbp),%rax
   12824:	48 83 c0 20          	add    $0x20,%rax
   12828:	48 89 85 60 ea ff ff 	mov    %rax,-0x15a0(%rbp)
   1282f:	48 8d 85 80 e9 ff ff 	lea    -0x1680(%rbp),%rax
   12836:	48 83 c0 20          	add    $0x20,%rax
   1283a:	48 89 85 68 ea ff ff 	mov    %rax,-0x1598(%rbp)
   12841:	48 8d 85 80 e9 ff ff 	lea    -0x1680(%rbp),%rax
   12848:	48 83 c0 20          	add    $0x20,%rax
   1284c:	48 89 85 70 ea ff ff 	mov    %rax,-0x1590(%rbp)
   12853:	48 8d 85 80 e9 ff ff 	lea    -0x1680(%rbp),%rax
   1285a:	48 83 c0 20          	add    $0x20,%rax
   1285e:	48 89 85 78 ea ff ff 	mov    %rax,-0x1588(%rbp)
   12865:	48 8d 85 80 e9 ff ff 	lea    -0x1680(%rbp),%rax
   1286c:	48 83 c0 20          	add    $0x20,%rax
   12870:	48 89 85 80 ea ff ff 	mov    %rax,-0x1580(%rbp)
   12877:	48 8d 85 80 e9 ff ff 	lea    -0x1680(%rbp),%rax
   1287e:	48 83 c0 20          	add    $0x20,%rax
   12882:	48 89 85 88 ea ff ff 	mov    %rax,-0x1578(%rbp)
   12889:	48 8d 85 80 e9 ff ff 	lea    -0x1680(%rbp),%rax
   12890:	48 83 c0 20          	add    $0x20,%rax
   12894:	48 89 85 90 ea ff ff 	mov    %rax,-0x1570(%rbp)
   1289b:	48 8d 85 80 e9 ff ff 	lea    -0x1680(%rbp),%rax
   128a2:	48 83 c0 20          	add    $0x20,%rax
   128a6:	48 89 85 98 ea ff ff 	mov    %rax,-0x1568(%rbp)
   128ad:	83 85 50 e5 ff ff 01 	addl   $0x1,-0x1ab0(%rbp)
   128b4:	66 83 ad 0a e5 ff ff 	subw   $0x1,-0x1af6(%rbp)
   128bb:	01 
   128bc:	48 8b 05 7d d4 00 00 	mov    0xd47d(%rip),%rax        # 1fd40 <g_611>
   128c3:	48 c7 00 00 00 00 00 	movq   $0x0,(%rax)
   128ca:	48 8b 85 c0 e7 ff ff 	mov    -0x1840(%rbp),%rax
   128d1:	8b 00                	mov    (%rax),%eax
   128d3:	0f bf d8             	movswl %ax,%ebx
   128d6:	44 0f b7 a5 f8 e4 ff 	movzwl -0x1b08(%rbp),%r12d
   128dd:	ff 
   128de:	48 83 bd 50 e6 ff ff 	cmpq   $0x0,-0x19b0(%rbp)
   128e5:	00 
   128e6:	0f 94 c0             	sete   %al
   128e9:	0f b6 c0             	movzbl %al,%eax
   128ec:	48 89 c6             	mov    %rax,%rsi
   128ef:	bf 00 00 00 00       	mov    $0x0,%edi
   128f4:	e8 52 67 ff ff       	callq  904b <safe_sub_func_uint64_t_u_u>
   128f9:	49 89 c5             	mov    %rax,%r13
   128fc:	48 83 bd 98 e7 ff ff 	cmpq   $0x0,-0x1868(%rbp)
   12903:	00 
   12904:	0f 94 c0             	sete   %al
   12907:	0f b6 d0             	movzbl %al,%edx
   1290a:	48 8b 85 a8 e7 ff ff 	mov    -0x1858(%rbp),%rax
   12911:	89 10                	mov    %edx,(%rax)
   12913:	48 8b 85 a8 e7 ff ff 	mov    -0x1858(%rbp),%rax
   1291a:	44 8b 30             	mov    (%rax),%r14d
   1291d:	8b 85 2c e5 ff ff    	mov    -0x1ad4(%rbp),%eax
   12923:	0f b6 d0             	movzbl %al,%edx
   12926:	48 8b 85 78 e7 ff ff 	mov    -0x1888(%rbp),%rax
   1292d:	48 89 85 e8 e5 ff ff 	mov    %rax,-0x1a18(%rbp)
   12934:	48 8b 85 e8 e5 ff ff 	mov    -0x1a18(%rbp),%rax
   1293b:	48 8d 0d 76 aa 00 00 	lea    0xaa76(%rip),%rcx        # 1d3b8 <g_199>
   12942:	48 39 c8             	cmp    %rcx,%rax
   12945:	0f 95 c0             	setne  %al
   12948:	0f b6 c0             	movzbl %al,%eax
   1294b:	89 d6                	mov    %edx,%esi
   1294d:	89 c7                	mov    %eax,%edi
   1294f:	e8 87 62 ff ff       	callq  8bdb <safe_div_func_uint8_t_u_u>
   12954:	0f b6 c0             	movzbl %al,%eax
   12957:	41 39 c6             	cmp    %eax,%r14d
   1295a:	0f 95 c0             	setne  %al
   1295d:	0f b6 d0             	movzbl %al,%edx
   12960:	48 8b 85 50 e6 ff ff 	mov    -0x19b0(%rbp),%rax
   12967:	48 8b 00             	mov    (%rax),%rax
   1296a:	8b 00                	mov    (%rax),%eax
   1296c:	39 c2                	cmp    %eax,%edx
   1296e:	0f 9f c0             	setg   %al
   12971:	0f b6 d0             	movzbl %al,%edx
   12974:	0f b7 05 65 ab 00 00 	movzwl 0xab65(%rip),%eax        # 1d4e0 <g_255>
   1297b:	98                   	cwtl   
   1297c:	39 c2                	cmp    %eax,%edx
   1297e:	0f 9d c0             	setge  %al
   12981:	0f b6 c0             	movzbl %al,%eax
   12984:	4c 09 e8             	or     %r13,%rax
   12987:	48 85 c0             	test   %rax,%rax
   1298a:	75 0a                	jne    12996 <func_14+0x4669>
   1298c:	66 83 bd f8 e4 ff ff 	cmpw   $0x0,-0x1b08(%rbp)
   12993:	00 
   12994:	74 07                	je     1299d <func_14+0x4670>
   12996:	ba 01 00 00 00       	mov    $0x1,%edx
   1299b:	eb 05                	jmp    129a2 <func_14+0x4675>
   1299d:	ba 00 00 00 00       	mov    $0x0,%edx
   129a2:	48 8b 85 50 e6 ff ff 	mov    -0x19b0(%rbp),%rax
   129a9:	48 8b 00             	mov    (%rax),%rax
   129ac:	f7 d2                	not    %edx
   129ae:	89 10                	mov    %edx,(%rax)
   129b0:	8b 10                	mov    (%rax),%edx
   129b2:	0f b7 85 0c e5 ff ff 	movzwl -0x1af4(%rbp),%eax
   129b9:	39 c2                	cmp    %eax,%edx
   129bb:	0f 9f c0             	setg   %al
   129be:	0f b6 c0             	movzbl %al,%eax
   129c1:	44 89 e6             	mov    %r12d,%esi
   129c4:	89 c7                	mov    %eax,%edi
   129c6:	e8 91 63 ff ff       	callq  8d5c <safe_mod_func_uint16_t_u_u>
   129cb:	48 8b 85 c8 f9 ff ff 	mov    -0x638(%rbp),%rax
   129d2:	48 85 c0             	test   %rax,%rax
   129d5:	0f 95 c0             	setne  %al
   129d8:	0f b6 c0             	movzbl %al,%eax
   129db:	89 de                	mov    %ebx,%esi
   129dd:	89 c7                	mov    %eax,%edi
   129df:	e8 cf 59 ff ff       	callq  83b3 <safe_add_func_int16_t_s_s>
   129e4:	0f bf d0             	movswl %ax,%edx
   129e7:	48 8b 85 b8 e7 ff ff 	mov    -0x1848(%rbp),%rax
   129ee:	8b 00                	mov    (%rax),%eax
   129f0:	31 c2                	xor    %eax,%edx
   129f2:	48 8b 85 c8 e7 ff ff 	mov    -0x1838(%rbp),%rax
   129f9:	89 10                	mov    %edx,(%rax)
   129fb:	83 85 4c e5 ff ff 01 	addl   $0x1,-0x1ab4(%rbp)
   12a02:	83 bd 4c e5 ff ff 12 	cmpl   $0x12,-0x1ab4(%rbp)
   12a09:	0f 8e 86 fd ff ff    	jle    12795 <func_14+0x4468>
   12a0f:	0f b6 45 c3          	movzbl -0x3d(%rbp),%eax
   12a13:	66 98                	cbtw   
   12a15:	44 0f b7 f0          	movzwl %ax,%r14d
   12a19:	8b 85 2c e5 ff ff    	mov    -0x1ad4(%rbp),%eax
   12a1f:	44 0f bf e0          	movswl %ax,%r12d
   12a23:	0f b6 05 02 a6 00 00 	movzbl 0xa602(%rip),%eax        # 1d02c <g_65>
   12a2a:	0f b6 d8             	movzbl %al,%ebx
   12a2d:	48 8b 85 50 e6 ff ff 	mov    -0x19b0(%rbp),%rax
   12a34:	48 8b 00             	mov    (%rax),%rax
   12a37:	8b 00                	mov    (%rax),%eax
   12a39:	4c 63 e8             	movslq %eax,%r13
   12a3c:	66 83 bd f8 e4 ff ff 	cmpw   $0xfff9,-0x1b08(%rbp)
   12a43:	f9 
   12a44:	0f 97 c0             	seta   %al
   12a47:	0f b6 d0             	movzbl %al,%edx
   12a4a:	8b 05 0c ab 00 00    	mov    0xab0c(%rip),%eax        # 1d55c <g_1834>
   12a50:	98                   	cwtl   
   12a51:	89 d6                	mov    %edx,%esi
   12a53:	89 c7                	mov    %eax,%edi
   12a55:	e8 9b 59 ff ff       	callq  83f5 <safe_mul_func_int16_t_s_s>
   12a5a:	48 8b 85 50 e6 ff ff 	mov    -0x19b0(%rbp),%rax
   12a61:	48 8b 00             	mov    (%rax),%rax
   12a64:	8b 00                	mov    (%rax),%eax
   12a66:	85 c0                	test   %eax,%eax
   12a68:	74 08                	je     12a72 <func_14+0x4745>
   12a6a:	8b 85 9c e9 ff ff    	mov    -0x1664(%rbp),%eax
   12a70:	85 c0                	test   %eax,%eax
   12a72:	66 83 bd fc e4 ff ff 	cmpw   $0x0,-0x1b04(%rbp)
   12a79:	00 
   12a7a:	74 07                	je     12a83 <func_14+0x4756>
   12a7c:	ba 01 00 00 00       	mov    $0x1,%edx
   12a81:	eb 05                	jmp    12a88 <func_14+0x475b>
   12a83:	ba 00 00 00 00       	mov    $0x0,%edx
   12a88:	0f b7 85 f8 e4 ff ff 	movzwl -0x1b08(%rbp),%eax
   12a8f:	39 c2                	cmp    %eax,%edx
   12a91:	0f 94 c0             	sete   %al
   12a94:	0f b6 c0             	movzbl %al,%eax
   12a97:	89 85 4c e5 ff ff    	mov    %eax,-0x1ab4(%rbp)
   12a9d:	83 bd 4c e5 ff ff 00 	cmpl   $0x0,-0x1ab4(%rbp)
   12aa4:	74 12                	je     12ab8 <func_14+0x478b>
   12aa6:	0f b6 85 f4 e4 ff ff 	movzbl -0x1b0c(%rbp),%eax
   12aad:	84 c0                	test   %al,%al
   12aaf:	74 07                	je     12ab8 <func_14+0x478b>
   12ab1:	ba 01 00 00 00       	mov    $0x1,%edx
   12ab6:	eb 05                	jmp    12abd <func_14+0x4790>
   12ab8:	ba 00 00 00 00       	mov    $0x0,%edx
   12abd:	0f b7 85 f8 e4 ff ff 	movzwl -0x1b08(%rbp),%eax
   12ac4:	39 c2                	cmp    %eax,%edx
   12ac6:	0f 94 c0             	sete   %al
   12ac9:	0f b6 d0             	movzbl %al,%edx
   12acc:	48 8b 85 80 e7 ff ff 	mov    -0x1880(%rbp),%rax
   12ad3:	89 10                	mov    %edx,(%rax)
   12ad5:	48 8b 85 80 e7 ff ff 	mov    -0x1880(%rbp),%rax
   12adc:	8b 00                	mov    (%rax),%eax
   12ade:	89 c2                	mov    %eax,%edx
   12ae0:	0f b7 85 f8 e4 ff ff 	movzwl -0x1b08(%rbp),%eax
   12ae7:	31 d0                	xor    %edx,%eax
   12ae9:	98                   	cwtl   
   12aea:	89 c6                	mov    %eax,%esi
   12aec:	bf 01 00 00 00       	mov    $0x1,%edi
   12af1:	e8 20 59 ff ff       	callq  8416 <safe_mod_func_int16_t_s_s>
   12af6:	98                   	cwtl   
   12af7:	48 8b 95 c0 e5 ff ff 	mov    -0x1a40(%rbp),%rdx
   12afe:	c7 02 00 00 00 00    	movl   $0x0,(%rdx)
   12b04:	89 c6                	mov    %eax,%esi
   12b06:	bf 01 00 00 00       	mov    $0x1,%edi
   12b0b:	e8 c3 58 ff ff       	callq  83d3 <safe_sub_func_int16_t_s_s>
   12b10:	0f b7 d0             	movzwl %ax,%edx
   12b13:	8b 85 28 e5 ff ff    	mov    -0x1ad8(%rbp),%eax
   12b19:	25 34 9c 00 00       	and    $0x9c34,%eax
   12b1e:	89 85 28 e5 ff ff    	mov    %eax,-0x1ad8(%rbp)
   12b24:	8b 85 28 e5 ff ff    	mov    -0x1ad8(%rbp),%eax
   12b2a:	0f b7 c0             	movzwl %ax,%eax
   12b2d:	89 d6                	mov    %edx,%esi
   12b2f:	89 c7                	mov    %eax,%edi
   12b31:	e8 07 62 ff ff       	callq  8d3d <safe_mul_func_uint16_t_u_u>
   12b36:	0f b7 c0             	movzwl %ax,%eax
   12b39:	49 39 c5             	cmp    %rax,%r13
   12b3c:	0f 9c c0             	setl   %al
   12b3f:	0f b6 c0             	movzbl %al,%eax
   12b42:	48 8b b5 00 e6 ff ff 	mov    -0x1a00(%rbp),%rsi
   12b49:	45 89 f0             	mov    %r14d,%r8d
   12b4c:	44 89 e1             	mov    %r12d,%ecx
   12b4f:	89 da                	mov    %ebx,%edx
   12b51:	89 c7                	mov    %eax,%edi
   12b53:	e8 c2 1d 00 00       	callq  1491a <func_34>
   12b58:	0f b7 05 49 a8 00 00 	movzwl 0xa849(%rip),%eax        # 1d3a8 <g_177>
   12b5f:	66 39 85 10 e5 ff ff 	cmp    %ax,-0x1af0(%rbp)
   12b66:	0f 92 c0             	setb   %al
   12b69:	0f b6 d0             	movzbl %al,%edx
   12b6c:	8b 85 a0 e9 ff ff    	mov    -0x1660(%rbp),%eax
   12b72:	39 c2                	cmp    %eax,%edx
   12b74:	0f 94 c0             	sete   %al
   12b77:	0f b6 c0             	movzbl %al,%eax
   12b7a:	be b0 ff ff ff       	mov    $0xffffffb0,%esi
   12b7f:	89 c7                	mov    %eax,%edi
   12b81:	e8 8c 56 ff ff       	callq  8212 <safe_mul_func_int8_t_s_s>
   12b86:	48 0f be c0          	movsbq %al,%rax
   12b8a:	48 0d 17 81 00 00    	or     $0x8117,%rax
   12b90:	30 85 04 e5 ff ff    	xor    %al,-0x1afc(%rbp)
   12b96:	80 bd 04 e5 ff ff 00 	cmpb   $0x0,-0x1afc(%rbp)
   12b9d:	74 51                	je     12bf0 <func_14+0x48c3>
   12b9f:	c7 85 94 e5 ff ff f7 	movl   $0xfffffff7,-0x1a6c(%rbp)
   12ba6:	ff ff ff 
   12ba9:	66 c7 05 de df 00 00 	movw   $0xffe4,0xdfde(%rip)        # 20b90 <g_736>
   12bb0:	e4 ff 
   12bb2:	90                   	nop
   12bb3:	0f b7 05 d6 df 00 00 	movzwl 0xdfd6(%rip),%eax        # 20b90 <g_736>
   12bba:	66 83 f8 02          	cmp    $0x2,%ax
   12bbe:	0f 8f fb 00 00 00    	jg     12cbf <func_14+0x4992>
   12bc4:	c7 85 98 e5 ff ff 04 	movl   $0x4,-0x1a68(%rbp)
   12bcb:	00 00 00 
   12bce:	c7 85 9c e5 ff ff cc 	movl   $0x37c001cc,-0x1a64(%rbp)
   12bd5:	01 c0 37 
   12bd8:	83 ad 94 e5 ff ff 01 	subl   $0x1,-0x1a6c(%rbp)
   12bdf:	48 8b 85 50 e6 ff ff 	mov    -0x19b0(%rbp),%rax
   12be6:	48 8b 00             	mov    (%rax),%rax
   12be9:	8b 00                	mov    (%rax),%eax
   12beb:	e9 25 0e 00 00       	jmpq   13a15 <func_14+0x56e8>
   12bf0:	c7 05 36 a4 00 00 00 	movl   $0x0,0xa436(%rip)        # 1d030 <g_85>
   12bf7:	00 00 00 
   12bfa:	e9 b1 00 00 00       	jmpq   12cb0 <func_14+0x4983>
   12bff:	c7 45 bb 00 00 00 00 	movl   $0x0,-0x45(%rbp)
   12c06:	66 c7 45 bf 00 00    	movw   $0x0,-0x41(%rbp)
   12c0c:	c7 85 90 e5 ff ff 01 	movl   $0x1,-0x1a70(%rbp)
   12c13:	00 00 00 
   12c16:	48 8b 05 1b d8 00 00 	mov    0xd81b(%rip),%rax        # 20438 <g_1438>
   12c1d:	48 8b 00             	mov    (%rax),%rax
   12c20:	8b 08                	mov    (%rax),%ecx
   12c22:	48 8b 85 c0 e5 ff ff 	mov    -0x1a40(%rbp),%rax
   12c29:	8b 10                	mov    (%rax),%edx
   12c2b:	48 8b 85 c0 e5 ff ff 	mov    -0x1a40(%rbp),%rax
   12c32:	21 ca                	and    %ecx,%edx
   12c34:	89 10                	mov    %edx,(%rax)
   12c36:	48 8b 05 1b d1 00 00 	mov    0xd11b(%rip),%rax        # 1fd58 <g_701>
   12c3d:	48 8b 08             	mov    (%rax),%rcx
   12c40:	48 0f bf 95 14 e5 ff 	movswq -0x1aec(%rbp),%rdx
   12c47:	ff 
   12c48:	48 8b 05 09 d1 00 00 	mov    0xd109(%rip),%rax        # 1fd58 <g_701>
   12c4f:	48 09 ca             	or     %rcx,%rdx
   12c52:	48 89 10             	mov    %rdx,(%rax)
   12c55:	48 8b 10             	mov    (%rax),%rdx
   12c58:	0f b6 85 f4 e4 ff ff 	movzbl -0x1b0c(%rbp),%eax
   12c5f:	48 0f be c0          	movsbq %al,%rax
   12c63:	48 89 d6             	mov    %rdx,%rsi
   12c66:	48 89 c7             	mov    %rax,%rdi
   12c69:	e8 c0 63 ff ff       	callq  902e <safe_add_func_uint64_t_u_u>
   12c6e:	48 8b 95 c0 e5 ff ff 	mov    -0x1a40(%rbp),%rdx
   12c75:	8b 12                	mov    (%rdx),%edx
   12c77:	31 c2                	xor    %eax,%edx
   12c79:	48 8b 85 c0 e5 ff ff 	mov    -0x1a40(%rbp),%rax
   12c80:	89 10                	mov    %edx,(%rax)
   12c82:	0f b6 45 c0          	movzbl -0x40(%rbp),%eax
   12c86:	0f b6 c0             	movzbl %al,%eax
   12c89:	89 85 90 e5 ff ff    	mov    %eax,-0x1a70(%rbp)
   12c8f:	48 8b 15 32 d0 00 00 	mov    0xd032(%rip),%rdx        # 1fcc8 <g_180>
   12c96:	48 8b 85 c0 e5 ff ff 	mov    -0x1a40(%rbp),%rax
   12c9d:	8b 12                	mov    (%rdx),%edx
   12c9f:	89 10                	mov    %edx,(%rax)
   12ca1:	8b 05 89 a3 00 00    	mov    0xa389(%rip),%eax        # 1d030 <g_85>
   12ca7:	83 c0 01             	add    $0x1,%eax
   12caa:	89 05 80 a3 00 00    	mov    %eax,0xa380(%rip)        # 1d030 <g_85>
   12cb0:	8b 05 7a a3 00 00    	mov    0xa37a(%rip),%eax        # 1d030 <g_85>
   12cb6:	83 f8 03             	cmp    $0x3,%eax
   12cb9:	0f 8e 40 ff ff ff    	jle    12bff <func_14+0x48d2>
   12cbf:	48 8b 85 70 e7 ff ff 	mov    -0x1890(%rbp),%rax
   12cc6:	0f b7 10             	movzwl (%rax),%edx
   12cc9:	48 8b 8d 20 ea ff ff 	mov    -0x15e0(%rbp),%rcx
   12cd0:	48 8b 05 09 d0 00 00 	mov    0xd009(%rip),%rax        # 1fce0 <g_207>
   12cd7:	48 8b 00             	mov    (%rax),%rax
   12cda:	48 39 c1             	cmp    %rax,%rcx
   12cdd:	0f 94 c0             	sete   %al
   12ce0:	0f b6 c0             	movzbl %al,%eax
   12ce3:	21 c2                	and    %eax,%edx
   12ce5:	48 8b 85 70 e7 ff ff 	mov    -0x1890(%rbp),%rax
   12cec:	66 89 10             	mov    %dx,(%rax)
   12cef:	48 8b 85 70 e7 ff ff 	mov    -0x1890(%rbp),%rax
   12cf6:	0f b7 00             	movzwl (%rax),%eax
   12cf9:	98                   	cwtl   
   12cfa:	be 39 a6 ff ff       	mov    $0xffffa639,%esi
   12cff:	89 c7                	mov    %eax,%edi
   12d01:	e8 cd 56 ff ff       	callq  83d3 <safe_sub_func_int16_t_s_s>
   12d06:	66 85 c0             	test   %ax,%ax
   12d09:	74 11                	je     12d1c <func_14+0x49ef>
   12d0b:	66 83 bd fc e4 ff ff 	cmpw   $0x0,-0x1b04(%rbp)
   12d12:	00 
   12d13:	74 07                	je     12d1c <func_14+0x49ef>
   12d15:	b8 01 00 00 00       	mov    $0x1,%eax
   12d1a:	eb 05                	jmp    12d21 <func_14+0x49f4>
   12d1c:	b8 00 00 00 00       	mov    $0x0,%eax
   12d21:	89 c3                	mov    %eax,%ebx
   12d23:	48 8b 15 16 d7 00 00 	mov    0xd716(%rip),%rdx        # 20440 <g_1618>
   12d2a:	48 8b 85 b0 e6 ff ff 	mov    -0x1950(%rbp),%rax
   12d31:	48 8b 00             	mov    (%rax),%rax
   12d34:	48 8b 00             	mov    (%rax),%rax
   12d37:	48 8b 12             	mov    (%rdx),%rdx
   12d3a:	48 89 10             	mov    %rdx,(%rax)
   12d3d:	48 8b 85 50 e6 ff ff 	mov    -0x19b0(%rbp),%rax
   12d44:	48 8b 00             	mov    (%rax),%rax
   12d47:	8b 00                	mov    (%rax),%eax
   12d49:	89 c1                	mov    %eax,%ecx
   12d4b:	48 8b 05 d6 d6 00 00 	mov    0xd6d6(%rip),%rax        # 20428 <g_1223>
   12d52:	48 8b 95 d0 e6 ff ff 	mov    -0x1930(%rbp),%rdx
   12d59:	48 89 10             	mov    %rdx,(%rax)
   12d5c:	48 8b 00             	mov    (%rax),%rax
   12d5f:	48 39 85 48 e6 ff ff 	cmp    %rax,-0x19b8(%rbp)
   12d66:	0f 94 c0             	sete   %al
   12d69:	0f b6 d0             	movzbl %al,%edx
   12d6c:	8b 85 2c e5 ff ff    	mov    -0x1ad4(%rbp),%eax
   12d72:	09 d0                	or     %edx,%eax
   12d74:	89 85 2c e5 ff ff    	mov    %eax,-0x1ad4(%rbp)
   12d7a:	8b 85 2c e5 ff ff    	mov    -0x1ad4(%rbp),%eax
   12d80:	89 ce                	mov    %ecx,%esi
   12d82:	89 c7                	mov    %eax,%edi
   12d84:	e8 47 61 ff ff       	callq  8ed0 <safe_sub_func_uint32_t_u_u>
   12d89:	0f b7 95 f8 e4 ff ff 	movzwl -0x1b08(%rbp),%edx
   12d90:	39 95 4c e5 ff ff    	cmp    %edx,-0x1ab4(%rbp)
   12d96:	0f 9e c2             	setle  %dl
   12d99:	0f b6 d2             	movzbl %dl,%edx
   12d9c:	31 c2                	xor    %eax,%edx
   12d9e:	0f b6 85 f4 e4 ff ff 	movzbl -0x1b0c(%rbp),%eax
   12da5:	0f be c0             	movsbl %al,%eax
   12da8:	39 c2                	cmp    %eax,%edx
   12daa:	0f 92 c0             	setb   %al
   12dad:	0f b6 c0             	movzbl %al,%eax
   12db0:	89 de                	mov    %ebx,%esi
   12db2:	89 c7                	mov    %eax,%edi
   12db4:	e8 6c 61 ff ff       	callq  8f25 <safe_div_func_uint32_t_u_u>
   12db9:	0f b6 05 6c a2 00 00 	movzbl 0xa26c(%rip),%eax        # 1d02c <g_65>
   12dc0:	0f b6 d0             	movzbl %al,%edx
   12dc3:	48 8b 05 fe ce 00 00 	mov    0xcefe(%rip),%rax        # 1fcc8 <g_180>
   12dca:	8b 00                	mov    (%rax),%eax
   12dcc:	39 c2                	cmp    %eax,%edx
   12dce:	0f 9f c0             	setg   %al
   12dd1:	0f b6 c8             	movzbl %al,%ecx
   12dd4:	48 8b 85 c0 e5 ff ff 	mov    -0x1a40(%rbp),%rax
   12ddb:	8b 10                	mov    (%rax),%edx
   12ddd:	48 8b 85 c0 e5 ff ff 	mov    -0x1a40(%rbp),%rax
   12de4:	31 ca                	xor    %ecx,%edx
   12de6:	89 10                	mov    %edx,(%rax)
   12de8:	eb 0e                	jmp    12df8 <func_14+0x4acb>
   12dea:	c6 85 03 e5 ff ff df 	movb   $0xdf,-0x1afd(%rbp)
   12df1:	80 85 03 e5 ff ff 01 	addb   $0x1,-0x1afd(%rbp)
   12df8:	48 c7 85 b8 e5 ff ff 	movq   $0xfffffffffffffff3,-0x1a48(%rbp)
   12dff:	f3 ff ff ff 
   12e03:	e9 3f 07 00 00       	jmpq   13547 <func_14+0x521a>
   12e08:	48 c7 85 08 e6 ff ff 	movq   $0x0,-0x19f8(%rbp)
   12e0f:	00 00 00 00 
   12e13:	48 8d 85 08 e6 ff ff 	lea    -0x19f8(%rbp),%rax
   12e1a:	48 89 85 18 e8 ff ff 	mov    %rax,-0x17e8(%rbp)
   12e21:	48 8d 85 2c e5 ff ff 	lea    -0x1ad4(%rbp),%rax
   12e28:	48 89 85 20 e8 ff ff 	mov    %rax,-0x17e0(%rbp)
   12e2f:	48 8d 85 b0 f7 ff ff 	lea    -0x850(%rbp),%rax
   12e36:	48 8d 15 03 ba 00 00 	lea    0xba03(%rip),%rdx        # 1e840 <g_2683+0x1138>
   12e3d:	b9 00 01 00 00       	mov    $0x100,%ecx
   12e42:	48 89 c7             	mov    %rax,%rdi
   12e45:	48 89 d6             	mov    %rdx,%rsi
   12e48:	f3 48 a5             	rep movsq %ds:(%rsi),%es:(%rdi)
   12e4b:	48 8d 85 b0 f7 ff ff 	lea    -0x850(%rbp),%rax
   12e52:	48 05 f0 02 00 00    	add    $0x2f0,%rax
   12e58:	48 89 85 28 e8 ff ff 	mov    %rax,-0x17d8(%rbp)
   12e5f:	c7 85 a0 e5 ff ff ff 	movl   $0xffffffff,-0x1a60(%rbp)
   12e66:	ff ff ff 
   12e69:	c7 85 a4 e5 ff ff 01 	movl   $0x1,-0x1a5c(%rbp)
   12e70:	00 00 00 
   12e73:	c7 85 80 e9 ff ff a7 	movl   $0xdd9e27a7,-0x1680(%rbp)
   12e7a:	27 9e dd 
   12e7d:	c7 85 84 e9 ff ff a7 	movl   $0xdd9e27a7,-0x167c(%rbp)
   12e84:	27 9e dd 
   12e87:	c7 85 88 e9 ff ff ff 	movl   $0xffffffff,-0x1678(%rbp)
   12e8e:	ff ff ff 
   12e91:	c7 85 8c e9 ff ff a7 	movl   $0xdd9e27a7,-0x1674(%rbp)
   12e98:	27 9e dd 
   12e9b:	c7 85 90 e9 ff ff a7 	movl   $0xdd9e27a7,-0x1670(%rbp)
   12ea2:	27 9e dd 
   12ea5:	c7 85 94 e9 ff ff ff 	movl   $0xffffffff,-0x166c(%rbp)
   12eac:	ff ff ff 
   12eaf:	c7 85 98 e9 ff ff a7 	movl   $0xdd9e27a7,-0x1668(%rbp)
   12eb6:	27 9e dd 
   12eb9:	c7 85 9c e9 ff ff a7 	movl   $0xdd9e27a7,-0x1664(%rbp)
   12ec0:	27 9e dd 
   12ec3:	c7 85 a0 e9 ff ff ff 	movl   $0xffffffff,-0x1660(%rbp)
   12eca:	ff ff ff 
   12ecd:	c7 85 a4 e9 ff ff a7 	movl   $0xdd9e27a7,-0x165c(%rbp)
   12ed4:	27 9e dd 
   12ed7:	66 c7 85 1c e5 ff ff 	movw   $0xee72,-0x1ae4(%rbp)
   12ede:	72 ee 
   12ee0:	48 8d 85 70 ed ff ff 	lea    -0x1290(%rbp),%rax
   12ee7:	48 83 c0 24          	add    $0x24,%rax
   12eeb:	48 89 85 10 e6 ff ff 	mov    %rax,-0x19f0(%rbp)
   12ef2:	48 8d 85 10 e6 ff ff 	lea    -0x19f0(%rbp),%rax
   12ef9:	48 89 85 30 e8 ff ff 	mov    %rax,-0x17d0(%rbp)
   12f00:	48 c7 85 38 e8 ff ff 	movq   $0xfffffffffffffffc,-0x17c8(%rbp)
   12f07:	fc ff ff ff 
   12f0b:	48 c7 85 18 e6 ff ff 	movq   $0x0,-0x19e8(%rbp)
   12f12:	00 00 00 00 
   12f16:	c7 85 18 e6 ff ff 02 	movl   $0x94a11a02,-0x19e8(%rbp)
   12f1d:	1a a1 94 
   12f20:	48 8d 05 b9 cd 00 00 	lea    0xcdb9(%rip),%rax        # 1fce0 <g_207>
   12f27:	48 89 85 40 e8 ff ff 	mov    %rax,-0x17c0(%rbp)
   12f2e:	c6 85 07 e5 ff ff 09 	movb   $0x9,-0x1af9(%rbp)
   12f35:	c7 05 a5 a5 00 00 00 	movl   $0x0,0xa5a5(%rip)        # 1d4e4 <g_264>
   12f3c:	00 00 00 
   12f3f:	e9 bc 05 00 00       	jmpq   13500 <func_14+0x51d3>
   12f44:	48 8d 05 5d dc 00 00 	lea    0xdc5d(%rip),%rax        # 20ba8 <g_796>
   12f4b:	48 89 85 20 e6 ff ff 	mov    %rax,-0x19e0(%rbp)
   12f52:	48 8d 85 20 e6 ff ff 	lea    -0x19e0(%rbp),%rax
   12f59:	48 89 85 10 f2 ff ff 	mov    %rax,-0xdf0(%rbp)
   12f60:	48 8d 85 20 e6 ff ff 	lea    -0x19e0(%rbp),%rax
   12f67:	48 89 85 18 f2 ff ff 	mov    %rax,-0xde8(%rbp)
   12f6e:	48 8d 85 20 e6 ff ff 	lea    -0x19e0(%rbp),%rax
   12f75:	48 89 85 20 f2 ff ff 	mov    %rax,-0xde0(%rbp)
   12f7c:	48 8d 85 20 e6 ff ff 	lea    -0x19e0(%rbp),%rax
   12f83:	48 89 85 28 f2 ff ff 	mov    %rax,-0xdd8(%rbp)
   12f8a:	48 8d 85 20 e6 ff ff 	lea    -0x19e0(%rbp),%rax
   12f91:	48 89 85 30 f2 ff ff 	mov    %rax,-0xdd0(%rbp)
   12f98:	48 8d 85 20 e6 ff ff 	lea    -0x19e0(%rbp),%rax
   12f9f:	48 89 85 38 f2 ff ff 	mov    %rax,-0xdc8(%rbp)
   12fa6:	48 8d 85 20 e6 ff ff 	lea    -0x19e0(%rbp),%rax
   12fad:	48 89 85 40 f2 ff ff 	mov    %rax,-0xdc0(%rbp)
   12fb4:	48 8d 85 20 e6 ff ff 	lea    -0x19e0(%rbp),%rax
   12fbb:	48 89 85 48 f2 ff ff 	mov    %rax,-0xdb8(%rbp)
   12fc2:	48 8d 85 20 e6 ff ff 	lea    -0x19e0(%rbp),%rax
   12fc9:	48 89 85 50 f2 ff ff 	mov    %rax,-0xdb0(%rbp)
   12fd0:	48 8d 85 20 e6 ff ff 	lea    -0x19e0(%rbp),%rax
   12fd7:	48 89 85 58 f2 ff ff 	mov    %rax,-0xda8(%rbp)
   12fde:	48 8d 85 20 e6 ff ff 	lea    -0x19e0(%rbp),%rax
   12fe5:	48 89 85 60 f2 ff ff 	mov    %rax,-0xda0(%rbp)
   12fec:	48 8d 85 20 e6 ff ff 	lea    -0x19e0(%rbp),%rax
   12ff3:	48 89 85 68 f2 ff ff 	mov    %rax,-0xd98(%rbp)
   12ffa:	48 8d 85 20 e6 ff ff 	lea    -0x19e0(%rbp),%rax
   13001:	48 89 85 70 f2 ff ff 	mov    %rax,-0xd90(%rbp)
   13008:	48 8d 85 20 e6 ff ff 	lea    -0x19e0(%rbp),%rax
   1300f:	48 89 85 78 f2 ff ff 	mov    %rax,-0xd88(%rbp)
   13016:	48 8d 85 20 e6 ff ff 	lea    -0x19e0(%rbp),%rax
   1301d:	48 89 85 80 f2 ff ff 	mov    %rax,-0xd80(%rbp)
   13024:	48 8d 85 20 e6 ff ff 	lea    -0x19e0(%rbp),%rax
   1302b:	48 89 85 88 f2 ff ff 	mov    %rax,-0xd78(%rbp)
   13032:	48 8d 85 20 e6 ff ff 	lea    -0x19e0(%rbp),%rax
   13039:	48 89 85 90 f2 ff ff 	mov    %rax,-0xd70(%rbp)
   13040:	48 8d 85 20 e6 ff ff 	lea    -0x19e0(%rbp),%rax
   13047:	48 89 85 98 f2 ff ff 	mov    %rax,-0xd68(%rbp)
   1304e:	48 8d 85 20 e6 ff ff 	lea    -0x19e0(%rbp),%rax
   13055:	48 89 85 a0 f2 ff ff 	mov    %rax,-0xd60(%rbp)
   1305c:	48 8d 85 20 e6 ff ff 	lea    -0x19e0(%rbp),%rax
   13063:	48 89 85 a8 f2 ff ff 	mov    %rax,-0xd58(%rbp)
   1306a:	48 8d 85 20 e6 ff ff 	lea    -0x19e0(%rbp),%rax
   13071:	48 89 85 b0 f2 ff ff 	mov    %rax,-0xd50(%rbp)
   13078:	48 8d 85 20 e6 ff ff 	lea    -0x19e0(%rbp),%rax
   1307f:	48 89 85 b8 f2 ff ff 	mov    %rax,-0xd48(%rbp)
   13086:	48 8d 85 20 e6 ff ff 	lea    -0x19e0(%rbp),%rax
   1308d:	48 89 85 c0 f2 ff ff 	mov    %rax,-0xd40(%rbp)
   13094:	48 8d 85 20 e6 ff ff 	lea    -0x19e0(%rbp),%rax
   1309b:	48 89 85 c8 f2 ff ff 	mov    %rax,-0xd38(%rbp)
   130a2:	48 8d 85 20 e6 ff ff 	lea    -0x19e0(%rbp),%rax
   130a9:	48 89 85 d0 f2 ff ff 	mov    %rax,-0xd30(%rbp)
   130b0:	48 8d 85 20 e6 ff ff 	lea    -0x19e0(%rbp),%rax
   130b7:	48 89 85 d8 f2 ff ff 	mov    %rax,-0xd28(%rbp)
   130be:	48 8d 85 20 e6 ff ff 	lea    -0x19e0(%rbp),%rax
   130c5:	48 89 85 e0 f2 ff ff 	mov    %rax,-0xd20(%rbp)
   130cc:	48 8d 85 20 e6 ff ff 	lea    -0x19e0(%rbp),%rax
   130d3:	48 89 85 e8 f2 ff ff 	mov    %rax,-0xd18(%rbp)
   130da:	48 8d 85 20 e6 ff ff 	lea    -0x19e0(%rbp),%rax
   130e1:	48 89 85 f0 f2 ff ff 	mov    %rax,-0xd10(%rbp)
   130e8:	48 8d 85 20 e6 ff ff 	lea    -0x19e0(%rbp),%rax
   130ef:	48 89 85 f8 f2 ff ff 	mov    %rax,-0xd08(%rbp)
   130f6:	48 8d 85 20 e6 ff ff 	lea    -0x19e0(%rbp),%rax
   130fd:	48 89 85 00 f3 ff ff 	mov    %rax,-0xd00(%rbp)
   13104:	48 8d 85 20 e6 ff ff 	lea    -0x19e0(%rbp),%rax
   1310b:	48 89 85 08 f3 ff ff 	mov    %rax,-0xcf8(%rbp)
   13112:	48 8d 85 20 e6 ff ff 	lea    -0x19e0(%rbp),%rax
   13119:	48 89 85 10 f3 ff ff 	mov    %rax,-0xcf0(%rbp)
   13120:	48 8d 85 20 e6 ff ff 	lea    -0x19e0(%rbp),%rax
   13127:	48 89 85 18 f3 ff ff 	mov    %rax,-0xce8(%rbp)
   1312e:	48 8d 85 20 e6 ff ff 	lea    -0x19e0(%rbp),%rax
   13135:	48 89 85 20 f3 ff ff 	mov    %rax,-0xce0(%rbp)
   1313c:	48 8d 85 20 e6 ff ff 	lea    -0x19e0(%rbp),%rax
   13143:	48 89 85 28 f3 ff ff 	mov    %rax,-0xcd8(%rbp)
   1314a:	48 8d 85 20 e6 ff ff 	lea    -0x19e0(%rbp),%rax
   13151:	48 89 85 30 f3 ff ff 	mov    %rax,-0xcd0(%rbp)
   13158:	48 8d 85 20 e6 ff ff 	lea    -0x19e0(%rbp),%rax
   1315f:	48 89 85 38 f3 ff ff 	mov    %rax,-0xcc8(%rbp)
   13166:	48 8d 85 20 e6 ff ff 	lea    -0x19e0(%rbp),%rax
   1316d:	48 89 85 40 f3 ff ff 	mov    %rax,-0xcc0(%rbp)
   13174:	48 8d 85 20 e6 ff ff 	lea    -0x19e0(%rbp),%rax
   1317b:	48 89 85 48 f3 ff ff 	mov    %rax,-0xcb8(%rbp)
   13182:	48 8d 85 20 e6 ff ff 	lea    -0x19e0(%rbp),%rax
   13189:	48 89 85 50 f3 ff ff 	mov    %rax,-0xcb0(%rbp)
   13190:	48 8d 85 20 e6 ff ff 	lea    -0x19e0(%rbp),%rax
   13197:	48 89 85 58 f3 ff ff 	mov    %rax,-0xca8(%rbp)
   1319e:	48 8d 85 20 e6 ff ff 	lea    -0x19e0(%rbp),%rax
   131a5:	48 89 85 60 f3 ff ff 	mov    %rax,-0xca0(%rbp)
   131ac:	48 8d 85 20 e6 ff ff 	lea    -0x19e0(%rbp),%rax
   131b3:	48 89 85 68 f3 ff ff 	mov    %rax,-0xc98(%rbp)
   131ba:	48 8d 85 20 e6 ff ff 	lea    -0x19e0(%rbp),%rax
   131c1:	48 89 85 70 f3 ff ff 	mov    %rax,-0xc90(%rbp)
   131c8:	48 8d 85 20 e6 ff ff 	lea    -0x19e0(%rbp),%rax
   131cf:	48 89 85 78 f3 ff ff 	mov    %rax,-0xc88(%rbp)
   131d6:	48 8d 85 20 e6 ff ff 	lea    -0x19e0(%rbp),%rax
   131dd:	48 89 85 80 f3 ff ff 	mov    %rax,-0xc80(%rbp)
   131e4:	48 8d 85 20 e6 ff ff 	lea    -0x19e0(%rbp),%rax
   131eb:	48 89 85 88 f3 ff ff 	mov    %rax,-0xc78(%rbp)
   131f2:	48 8d 85 20 e6 ff ff 	lea    -0x19e0(%rbp),%rax
   131f9:	48 89 85 90 f3 ff ff 	mov    %rax,-0xc70(%rbp)
   13200:	48 8d 85 20 e6 ff ff 	lea    -0x19e0(%rbp),%rax
   13207:	48 89 85 98 f3 ff ff 	mov    %rax,-0xc68(%rbp)
   1320e:	48 8d 85 20 e6 ff ff 	lea    -0x19e0(%rbp),%rax
   13215:	48 89 85 a0 f3 ff ff 	mov    %rax,-0xc60(%rbp)
   1321c:	48 8d 85 20 e6 ff ff 	lea    -0x19e0(%rbp),%rax
   13223:	48 89 85 a8 f3 ff ff 	mov    %rax,-0xc58(%rbp)
   1322a:	48 8d 85 20 e6 ff ff 	lea    -0x19e0(%rbp),%rax
   13231:	48 89 85 b0 f3 ff ff 	mov    %rax,-0xc50(%rbp)
   13238:	48 8d 85 20 e6 ff ff 	lea    -0x19e0(%rbp),%rax
   1323f:	48 89 85 b8 f3 ff ff 	mov    %rax,-0xc48(%rbp)
   13246:	48 8d 85 20 e6 ff ff 	lea    -0x19e0(%rbp),%rax
   1324d:	48 89 85 c0 f3 ff ff 	mov    %rax,-0xc40(%rbp)
   13254:	48 8d 85 20 e6 ff ff 	lea    -0x19e0(%rbp),%rax
   1325b:	48 89 85 c8 f3 ff ff 	mov    %rax,-0xc38(%rbp)
   13262:	48 c7 85 48 e8 ff ff 	movq   $0x0,-0x17b8(%rbp)
   13269:	00 00 00 00 
   1326d:	48 8d 05 34 a1 00 00 	lea    0xa134(%rip),%rax        # 1d3a8 <g_177>
   13274:	48 89 85 50 e8 ff ff 	mov    %rax,-0x17b0(%rbp)
   1327b:	48 c7 85 58 e8 ff ff 	movq   $0x0,-0x17a8(%rbp)
   13282:	00 00 00 00 
   13286:	48 8d 05 9f a2 00 00 	lea    0xa29f(%rip),%rax        # 1d52c <g_975>
   1328d:	48 89 85 60 e8 ff ff 	mov    %rax,-0x17a0(%rbp)
   13294:	c7 85 a8 e5 ff ff 06 	movl   $0x6,-0x1a58(%rbp)
   1329b:	00 00 00 
   1329e:	48 c7 85 28 e6 ff ff 	movq   $0x0,-0x19d8(%rbp)
   132a5:	00 00 00 00 
   132a9:	c7 85 28 e6 ff ff 93 	movl   $0x2c72db93,-0x19d8(%rbp)
   132b0:	db 72 2c 
   132b3:	48 c7 85 68 e8 ff ff 	movq   $0x0,-0x1798(%rbp)
   132ba:	00 00 00 00 
   132be:	48 8d 05 67 9d 00 00 	lea    0x9d67(%rip),%rax        # 1d02c <g_65>
   132c5:	48 89 85 60 ea ff ff 	mov    %rax,-0x15a0(%rbp)
   132cc:	48 8d 05 59 9d 00 00 	lea    0x9d59(%rip),%rax        # 1d02c <g_65>
   132d3:	48 89 85 68 ea ff ff 	mov    %rax,-0x1598(%rbp)
   132da:	48 8d 05 4b 9d 00 00 	lea    0x9d4b(%rip),%rax        # 1d02c <g_65>
   132e1:	48 89 85 70 ea ff ff 	mov    %rax,-0x1590(%rbp)
   132e8:	48 8d 05 3d 9d 00 00 	lea    0x9d3d(%rip),%rax        # 1d02c <g_65>
   132ef:	48 89 85 78 ea ff ff 	mov    %rax,-0x1588(%rbp)
   132f6:	48 8d 05 2f 9d 00 00 	lea    0x9d2f(%rip),%rax        # 1d02c <g_65>
   132fd:	48 89 85 80 ea ff ff 	mov    %rax,-0x1580(%rbp)
   13304:	48 8d 05 21 9d 00 00 	lea    0x9d21(%rip),%rax        # 1d02c <g_65>
   1330b:	48 89 85 88 ea ff ff 	mov    %rax,-0x1578(%rbp)
   13312:	48 8d 05 13 9d 00 00 	lea    0x9d13(%rip),%rax        # 1d02c <g_65>
   13319:	48 89 85 90 ea ff ff 	mov    %rax,-0x1570(%rbp)
   13320:	c6 85 08 e5 ff ff 58 	movb   $0x58,-0x1af8(%rbp)
   13327:	48 8d 85 10 e6 ff ff 	lea    -0x19f0(%rbp),%rax
   1332e:	48 89 85 a0 eb ff ff 	mov    %rax,-0x1460(%rbp)
   13335:	48 8d 05 84 c9 00 00 	lea    0xc984(%rip),%rax        # 1fcc0 <g_89>
   1333c:	48 89 85 a8 eb ff ff 	mov    %rax,-0x1458(%rbp)
   13343:	48 8d 05 76 c9 00 00 	lea    0xc976(%rip),%rax        # 1fcc0 <g_89>
   1334a:	48 89 85 b0 eb ff ff 	mov    %rax,-0x1450(%rbp)
   13351:	48 8d 85 10 e6 ff ff 	lea    -0x19f0(%rbp),%rax
   13358:	48 89 85 b8 eb ff ff 	mov    %rax,-0x1448(%rbp)
   1335f:	48 8d 85 10 e6 ff ff 	lea    -0x19f0(%rbp),%rax
   13366:	48 89 85 c0 eb ff ff 	mov    %rax,-0x1440(%rbp)
   1336d:	48 8d 85 10 e6 ff ff 	lea    -0x19f0(%rbp),%rax
   13374:	48 89 85 c8 eb ff ff 	mov    %rax,-0x1438(%rbp)
   1337b:	48 8d 85 10 e6 ff ff 	lea    -0x19f0(%rbp),%rax
   13382:	48 89 85 d0 eb ff ff 	mov    %rax,-0x1430(%rbp)
   13389:	48 8d 85 10 e6 ff ff 	lea    -0x19f0(%rbp),%rax
   13390:	48 89 85 d8 eb ff ff 	mov    %rax,-0x1428(%rbp)
   13397:	48 8d 05 22 c9 00 00 	lea    0xc922(%rip),%rax        # 1fcc0 <g_89>
   1339e:	48 89 85 e0 eb ff ff 	mov    %rax,-0x1420(%rbp)
   133a5:	48 8d 05 14 c9 00 00 	lea    0xc914(%rip),%rax        # 1fcc0 <g_89>
   133ac:	48 89 85 e8 eb ff ff 	mov    %rax,-0x1418(%rbp)
   133b3:	48 8d 85 10 e6 ff ff 	lea    -0x19f0(%rbp),%rax
   133ba:	48 89 85 f0 eb ff ff 	mov    %rax,-0x1410(%rbp)
   133c1:	48 8d 85 10 e6 ff ff 	lea    -0x19f0(%rbp),%rax
   133c8:	48 89 85 f8 eb ff ff 	mov    %rax,-0x1408(%rbp)
   133cf:	48 8d 85 10 e6 ff ff 	lea    -0x19f0(%rbp),%rax
   133d6:	48 89 85 00 ec ff ff 	mov    %rax,-0x1400(%rbp)
   133dd:	48 8d 85 10 e6 ff ff 	lea    -0x19f0(%rbp),%rax
   133e4:	48 89 85 08 ec ff ff 	mov    %rax,-0x13f8(%rbp)
   133eb:	48 8d 85 10 e6 ff ff 	lea    -0x19f0(%rbp),%rax
   133f2:	48 89 85 10 ec ff ff 	mov    %rax,-0x13f0(%rbp)
   133f9:	48 8d 05 c0 c8 00 00 	lea    0xc8c0(%rip),%rax        # 1fcc0 <g_89>
   13400:	48 89 85 18 ec ff ff 	mov    %rax,-0x13e8(%rbp)
   13407:	48 8d 05 b2 c8 00 00 	lea    0xc8b2(%rip),%rax        # 1fcc0 <g_89>
   1340e:	48 89 85 20 ec ff ff 	mov    %rax,-0x13e0(%rbp)
   13415:	48 8d 85 10 e6 ff ff 	lea    -0x19f0(%rbp),%rax
   1341c:	48 89 85 28 ec ff ff 	mov    %rax,-0x13d8(%rbp)
   13423:	48 8d 85 10 e6 ff ff 	lea    -0x19f0(%rbp),%rax
   1342a:	48 89 85 30 ec ff ff 	mov    %rax,-0x13d0(%rbp)
   13431:	48 8d 85 10 e6 ff ff 	lea    -0x19f0(%rbp),%rax
   13438:	48 89 85 38 ec ff ff 	mov    %rax,-0x13c8(%rbp)
   1343f:	48 8d 85 10 e6 ff ff 	lea    -0x19f0(%rbp),%rax
   13446:	48 89 85 40 ec ff ff 	mov    %rax,-0x13c0(%rbp)
   1344d:	48 8d 85 10 e6 ff ff 	lea    -0x19f0(%rbp),%rax
   13454:	48 89 85 48 ec ff ff 	mov    %rax,-0x13b8(%rbp)
   1345b:	48 8d 05 5e c8 00 00 	lea    0xc85e(%rip),%rax        # 1fcc0 <g_89>
   13462:	48 89 85 50 ec ff ff 	mov    %rax,-0x13b0(%rbp)
   13469:	48 8d 05 50 c8 00 00 	lea    0xc850(%rip),%rax        # 1fcc0 <g_89>
   13470:	48 89 85 58 ec ff ff 	mov    %rax,-0x13a8(%rbp)
   13477:	48 8d 85 10 e6 ff ff 	lea    -0x19f0(%rbp),%rax
   1347e:	48 89 85 60 ec ff ff 	mov    %rax,-0x13a0(%rbp)
   13485:	48 8d 85 10 e6 ff ff 	lea    -0x19f0(%rbp),%rax
   1348c:	48 89 85 68 ec ff ff 	mov    %rax,-0x1398(%rbp)
   13493:	48 8d 85 10 e6 ff ff 	lea    -0x19f0(%rbp),%rax
   1349a:	48 89 85 70 ec ff ff 	mov    %rax,-0x1390(%rbp)
   134a1:	48 8d 85 10 e6 ff ff 	lea    -0x19f0(%rbp),%rax
   134a8:	48 89 85 78 ec ff ff 	mov    %rax,-0x1388(%rbp)
   134af:	c7 85 64 e5 ff ff 00 	movl   $0x0,-0x1a9c(%rbp)
   134b6:	00 00 00 
   134b9:	eb 1e                	jmp    134d9 <func_14+0x51ac>
   134bb:	8b 85 64 e5 ff ff    	mov    -0x1a9c(%rbp),%eax
   134c1:	48 98                	cltq   
   134c3:	48 8d 15 32 a0 00 00 	lea    0xa032(%rip),%rdx        # 1d4fc <g_443>
   134ca:	48 89 94 c5 10 e9 ff 	mov    %rdx,-0x16f0(%rbp,%rax,8)
   134d1:	ff 
   134d2:	83 85 64 e5 ff ff 01 	addl   $0x1,-0x1a9c(%rbp)
   134d9:	83 bd 64 e5 ff ff 01 	cmpl   $0x1,-0x1a9c(%rbp)
   134e0:	7e d9                	jle    134bb <func_14+0x518e>
   134e2:	8b 05 fc 9f 00 00    	mov    0x9ffc(%rip),%eax        # 1d4e4 <g_264>
   134e8:	0f b7 c0             	movzwl %ax,%eax
   134eb:	be 07 00 00 00       	mov    $0x7,%esi
   134f0:	89 c7                	mov    %eax,%edi
   134f2:	e8 08 58 ff ff       	callq  8cff <safe_add_func_uint16_t_u_u>
   134f7:	0f b7 c0             	movzwl %ax,%eax
   134fa:	89 05 e4 9f 00 00    	mov    %eax,0x9fe4(%rip)        # 1d4e4 <g_264>
   13500:	8b 05 de 9f 00 00    	mov    0x9fde(%rip),%eax        # 1d4e4 <g_264>
   13506:	83 f8 0b             	cmp    $0xb,%eax
   13509:	0f 87 35 fa ff ff    	ja     12f44 <func_14+0x4c17>
   1350f:	48 8b 85 c8 e6 ff ff 	mov    -0x1938(%rbp),%rax
   13516:	8b 00                	mov    (%rax),%eax
   13518:	8d 50 ff             	lea    -0x1(%rax),%edx
   1351b:	48 8b 85 c8 e6 ff ff 	mov    -0x1938(%rbp),%rax
   13522:	89 10                	mov    %edx,(%rax)
   13524:	48 8b 05 25 c9 00 00 	mov    0xc925(%rip),%rax        # 1fe50 <g_786>
   1352b:	48 8b 95 70 e6 ff ff 	mov    -0x1990(%rbp),%rdx
   13532:	48 89 10             	mov    %rdx,(%rax)
   13535:	48 8b 85 b8 e5 ff ff 	mov    -0x1a48(%rbp),%rax
   1353c:	48 83 e8 01          	sub    $0x1,%rax
   13540:	48 89 85 b8 e5 ff ff 	mov    %rax,-0x1a48(%rbp)
   13547:	48 8b 85 b8 e5 ff ff 	mov    -0x1a48(%rbp),%rax
   1354e:	48 83 f8 ee          	cmp    $0xffffffffffffffee,%rax
   13552:	0f 85 b0 f8 ff ff    	jne    12e08 <func_14+0x4adb>
   13558:	0f b7 05 81 9f 00 00 	movzwl 0x9f81(%rip),%eax        # 1d4e0 <g_255>
   1355f:	98                   	cwtl   
   13560:	be 06 00 00 00       	mov    $0x6,%esi
   13565:	89 c7                	mov    %eax,%edi
   13567:	e8 4c 59 ff ff       	callq  8eb8 <safe_add_func_uint32_t_u_u>
   1356c:	66 89 05 6d 9f 00 00 	mov    %ax,0x9f6d(%rip)        # 1d4e0 <g_255>
   13573:	0f b7 05 66 9f 00 00 	movzwl 0x9f66(%rip),%eax        # 1d4e0 <g_255>
   1357a:	66 83 f8 17          	cmp    $0x17,%ax
   1357e:	0f 85 0a dc ff ff    	jne    1118e <func_14+0x2e61>
   13584:	0f b6 05 dd 9f 00 00 	movzbl 0x9fdd(%rip),%eax        # 1d568 <g_2078>
   1358b:	83 c0 01             	add    $0x1,%eax
   1358e:	88 05 d4 9f 00 00    	mov    %al,0x9fd4(%rip)        # 1d568 <g_2078>
   13594:	66 c7 05 43 9f 00 00 	movw   $0xfffb,0x9f43(%rip)        # 1d4e0 <g_255>
   1359b:	fb ff 
   1359d:	e9 43 04 00 00       	jmpq   139e5 <func_14+0x56b8>
   135a2:	48 b8 30 22 99 be 10 	movabs $0x34c8c810be992230,%rax
   135a9:	c8 c8 34 
   135ac:	48 89 85 88 e6 ff ff 	mov    %rax,-0x1978(%rbp)
   135b3:	48 83 85 88 e6 ff ff 	addq   $0x1,-0x1978(%rbp)
   135ba:	01 
   135bb:	48 8b 05 66 c7 00 00 	mov    0xc766(%rip),%rax        # 1fd28 <g_410>
   135c2:	48 8b 00             	mov    (%rax),%rax
   135c5:	48 8b 95 88 e6 ff ff 	mov    -0x1978(%rbp),%rdx
   135cc:	89 10                	mov    %edx,(%rax)
   135ce:	66 c7 05 81 9f 00 00 	movw   $0x6,0x9f81(%rip)        # 1d558 <g_1820>
   135d5:	06 00 
   135d7:	90                   	nop
   135d8:	0f b7 05 79 9f 00 00 	movzwl 0x9f79(%rip),%eax        # 1d558 <g_1820>
   135df:	66 83 f8 11          	cmp    $0x11,%ax
   135e3:	0f 85 a6 03 00 00    	jne    1398f <func_14+0x5662>
   135e9:	48 8d 05 f8 9e 00 00 	lea    0x9ef8(%rip),%rax        # 1d4e8 <g_292>
   135f0:	48 89 85 18 e6 ff ff 	mov    %rax,-0x19e8(%rbp)
   135f7:	48 8d 85 18 e6 ff ff 	lea    -0x19e8(%rbp),%rax
   135fe:	48 89 85 b0 f7 ff ff 	mov    %rax,-0x850(%rbp)
   13605:	48 8d 85 18 e6 ff ff 	lea    -0x19e8(%rbp),%rax
   1360c:	48 89 85 b8 f7 ff ff 	mov    %rax,-0x848(%rbp)
   13613:	48 8d 85 18 e6 ff ff 	lea    -0x19e8(%rbp),%rax
   1361a:	48 89 85 c0 f7 ff ff 	mov    %rax,-0x840(%rbp)
   13621:	48 8d 85 18 e6 ff ff 	lea    -0x19e8(%rbp),%rax
   13628:	48 89 85 c8 f7 ff ff 	mov    %rax,-0x838(%rbp)
   1362f:	48 8d 85 18 e6 ff ff 	lea    -0x19e8(%rbp),%rax
   13636:	48 89 85 d0 f7 ff ff 	mov    %rax,-0x830(%rbp)
   1363d:	48 8d 85 b0 f7 ff ff 	lea    -0x850(%rbp),%rax
   13644:	48 83 c0 10          	add    $0x10,%rax
   13648:	48 89 85 90 e6 ff ff 	mov    %rax,-0x1970(%rbp)
   1364f:	c7 85 78 e5 ff ff fd 	movl   $0xfffffffd,-0x1a88(%rbp)
   13656:	ff ff ff 
   13659:	c7 05 45 9d 00 00 00 	movl   $0x0,0x9d45(%rip)        # 1d3a8 <g_177>
   13660:	00 00 00 
   13663:	e9 0c 03 00 00       	jmpq   13974 <func_14+0x5647>
   13668:	c7 85 7c e5 ff ff 00 	movl   $0x0,-0x1a84(%rbp)
   1366f:	00 00 00 
   13672:	48 8d 85 d0 e5 ff ff 	lea    -0x1a30(%rbp),%rax
   13679:	48 89 85 98 e6 ff ff 	mov    %rax,-0x1968(%rbp)
   13680:	66 c7 05 7b 9e 00 00 	movw   $0x0,0x9e7b(%rip)        # 1d504 <g_647>
   13687:	00 00 
   13689:	e9 bd 02 00 00       	jmpq   1394b <func_14+0x561e>
   1368e:	48 b8 0e e2 04 a3 e4 	movabs $0xdc744fe4a304e20e,%rax
   13695:	4f 74 dc 
   13698:	48 89 85 a0 e6 ff ff 	mov    %rax,-0x1960(%rbp)
   1369f:	c7 85 80 e5 ff ff 00 	movl   $0x0,-0x1a80(%rbp)
   136a6:	00 00 00 
   136a9:	48 8d 85 10 f2 ff ff 	lea    -0xdf0(%rbp),%rax
   136b0:	48 89 85 20 e6 ff ff 	mov    %rax,-0x19e0(%rbp)
   136b7:	48 8d 85 20 e6 ff ff 	lea    -0x19e0(%rbp),%rax
   136be:	48 89 85 28 e6 ff ff 	mov    %rax,-0x19d8(%rbp)
   136c5:	48 8d 85 28 e6 ff ff 	lea    -0x19d8(%rbp),%rax
   136cc:	48 89 85 a8 e6 ff ff 	mov    %rax,-0x1958(%rbp)
   136d3:	c7 85 68 e5 ff ff 00 	movl   $0x0,-0x1a98(%rbp)
   136da:	00 00 00 
   136dd:	eb 50                	jmp    1372f <func_14+0x5402>
   136df:	c7 85 6c e5 ff ff 00 	movl   $0x0,-0x1a94(%rbp)
   136e6:	00 00 00 
   136e9:	eb 34                	jmp    1371f <func_14+0x53f2>
   136eb:	8b 85 6c e5 ff ff    	mov    -0x1a94(%rbp),%eax
   136f1:	48 63 c8             	movslq %eax,%rcx
   136f4:	8b 85 68 e5 ff ff    	mov    -0x1a98(%rbp),%eax
   136fa:	48 63 d0             	movslq %eax,%rdx
   136fd:	48 89 d0             	mov    %rdx,%rax
   13700:	48 01 c0             	add    %rax,%rax
   13703:	48 01 d0             	add    %rdx,%rax
   13706:	48 01 c8             	add    %rcx,%rax
   13709:	48 8d 15 90 d4 00 00 	lea    0xd490(%rip),%rdx        # 20ba0 <g_776>
   13710:	48 89 94 c5 10 f2 ff 	mov    %rdx,-0xdf0(%rbp,%rax,8)
   13717:	ff 
   13718:	83 85 6c e5 ff ff 01 	addl   $0x1,-0x1a94(%rbp)
   1371f:	83 bd 6c e5 ff ff 02 	cmpl   $0x2,-0x1a94(%rbp)
   13726:	7e c3                	jle    136eb <func_14+0x53be>
   13728:	83 85 68 e5 ff ff 01 	addl   $0x1,-0x1a98(%rbp)
   1372f:	83 bd 68 e5 ff ff 00 	cmpl   $0x0,-0x1a98(%rbp)
   13736:	7e a7                	jle    136df <func_14+0x53b2>
   13738:	8b 85 7c e5 ff ff    	mov    -0x1a84(%rbp),%eax
   1373e:	be 72 0f 43 0a       	mov    $0xa430f72,%esi
   13743:	89 c7                	mov    %eax,%edi
   13745:	e8 6e 57 ff ff       	callq  8eb8 <safe_add_func_uint32_t_u_u>
   1374a:	85 c0                	test   %eax,%eax
   1374c:	0f 94 c2             	sete   %dl
   1374f:	48 8b 05 ea cc 00 00 	mov    0xccea(%rip),%rax        # 20440 <g_1618>
   13756:	0f b6 d2             	movzbl %dl,%edx
   13759:	48 89 10             	mov    %rdx,(%rax)
   1375c:	48 8b 85 a0 e6 ff ff 	mov    -0x1960(%rbp),%rax
   13763:	89 c6                	mov    %eax,%esi
   13765:	bf 01 00 00 00       	mov    $0x1,%edi
   1376a:	e8 47 4e ff ff       	callq  85b6 <safe_add_func_int32_t_s_s>
   1376f:	0f b6 c0             	movzbl %al,%eax
   13772:	be 02 00 00 00       	mov    $0x2,%esi
   13777:	89 c7                	mov    %eax,%edi
   13779:	e8 dc 53 ff ff       	callq  8b5a <safe_add_func_uint8_t_u_u>
   1377e:	0f b6 c0             	movzbl %al,%eax
   13781:	83 f0 fa             	xor    $0xfffffffa,%eax
   13784:	89 85 78 e5 ff ff    	mov    %eax,-0x1a88(%rbp)
   1378a:	0f bf 85 fc e4 ff ff 	movswl -0x1b04(%rbp),%eax
   13791:	39 85 78 e5 ff ff    	cmp    %eax,-0x1a88(%rbp)
   13797:	74 11                	je     137aa <func_14+0x547d>
   13799:	48 83 bd 88 e6 ff ff 	cmpq   $0x0,-0x1978(%rbp)
   137a0:	00 
   137a1:	74 07                	je     137aa <func_14+0x547d>
   137a3:	b8 01 00 00 00       	mov    $0x1,%eax
   137a8:	eb 05                	jmp    137af <func_14+0x5482>
   137aa:	b8 00 00 00 00       	mov    $0x0,%eax
   137af:	0f bf d0             	movswl %ax,%edx
   137b2:	48 8d 85 e0 e5 ff ff 	lea    -0x1a20(%rbp),%rax
   137b9:	48 39 85 90 e6 ff ff 	cmp    %rax,-0x1970(%rbp)
   137c0:	0f 95 c0             	setne  %al
   137c3:	0f b6 c0             	movzbl %al,%eax
   137c6:	89 d6                	mov    %edx,%esi
   137c8:	89 c7                	mov    %eax,%edi
   137ca:	e8 86 4c ff ff       	callq  8455 <safe_div_func_int16_t_s_s>
   137cf:	48 8b 15 f2 c4 00 00 	mov    0xc4f2(%rip),%rdx        # 1fcc8 <g_180>
   137d6:	8b 0a                	mov    (%rdx),%ecx
   137d8:	0f bf d0             	movswl %ax,%edx
   137db:	48 8b 05 e6 c4 00 00 	mov    0xc4e6(%rip),%rax        # 1fcc8 <g_180>
   137e2:	09 ca                	or     %ecx,%edx
   137e4:	89 10                	mov    %edx,(%rax)
   137e6:	0f b6 05 43 9d 00 00 	movzbl 0x9d43(%rip),%eax        # 1d530 <g_1071>
   137ed:	0f b6 d8             	movzbl %al,%ebx
   137f0:	48 8b 85 88 e6 ff ff 	mov    -0x1978(%rbp),%rax
   137f7:	89 c2                	mov    %eax,%edx
   137f9:	48 8b 05 50 c5 00 00 	mov    0xc550(%rip),%rax        # 1fd50 <g_688>
   13800:	8b 00                	mov    (%rax),%eax
   13802:	89 d6                	mov    %edx,%esi
   13804:	89 c7                	mov    %eax,%edi
   13806:	e8 c1 4e ff ff       	callq  86cc <safe_mod_func_int32_t_s_s>
   1380b:	85 c0                	test   %eax,%eax
   1380d:	0f 84 ad 00 00 00    	je     138c0 <func_14+0x5593>
   13813:	8b 85 78 e5 ff ff    	mov    -0x1a88(%rbp),%eax
   13819:	0f b7 c0             	movzwl %ax,%eax
   1381c:	89 85 f0 e4 ff ff    	mov    %eax,-0x1b10(%rbp)
   13822:	0f b7 85 f8 e4 ff ff 	movzwl -0x1b08(%rbp),%eax
   13829:	44 0f bf e8          	movswl %ax,%r13d
   1382d:	44 0f b7 a5 f8 e4 ff 	movzwl -0x1b08(%rbp),%r12d
   13834:	ff 
   13835:	4c 8b bd e8 e5 ff ff 	mov    -0x1a18(%rbp),%r15
   1383c:	0f b7 05 6d 9b 00 00 	movzwl 0x9b6d(%rip),%eax        # 1d3b0 <g_184>
   13843:	44 0f b7 f0          	movzwl %ax,%r14d
   13847:	48 8b 05 12 c5 00 00 	mov    0xc512(%rip),%rax        # 1fd60 <g_700>
   1384e:	48 8b 00             	mov    (%rax),%rax
   13851:	48 8b 00             	mov    (%rax),%rax
   13854:	48 be 5c 6b 9b ff 66 	movabs $0x82185266ff9b6b5c,%rsi
   1385b:	52 18 82 
   1385e:	48 89 c7             	mov    %rax,%rdi
   13861:	e8 c8 57 ff ff       	callq  902e <safe_add_func_uint64_t_u_u>
   13866:	0f b7 c0             	movzwl %ax,%eax
   13869:	44 89 f6             	mov    %r14d,%esi
   1386c:	89 c7                	mov    %eax,%edi
   1386e:	e8 ac 54 ff ff       	callq  8d1f <safe_sub_func_uint16_t_u_u>
   13873:	0f b7 c0             	movzwl %ax,%eax
   13876:	09 85 80 e5 ff ff    	or     %eax,-0x1a80(%rbp)
   1387c:	83 bd 80 e5 ff ff 00 	cmpl   $0x0,-0x1a80(%rbp)
   13883:	0f 94 c0             	sete   %al
   13886:	0f b6 c0             	movzbl %al,%eax
   13889:	44 8b 85 f0 e4 ff ff 	mov    -0x1b10(%rbp),%r8d
   13890:	44 89 e9             	mov    %r13d,%ecx
   13893:	44 89 e2             	mov    %r12d,%edx
   13896:	49 8b 37             	mov    (%r15),%rsi
   13899:	89 c7                	mov    %eax,%edi
   1389b:	e8 7a 10 00 00       	callq  1491a <func_34>
   138a0:	48 8b 15 91 97 00 00 	mov    0x9791(%rip),%rdx        # 1d038 <g_91>
   138a7:	48 8b 85 60 e6 ff ff 	mov    -0x19a0(%rbp),%rax
   138ae:	48 8b 00             	mov    (%rax),%rax
   138b1:	89 10                	mov    %edx,(%rax)
   138b3:	8b 00                	mov    (%rax),%eax
   138b5:	85 c0                	test   %eax,%eax
   138b7:	74 07                	je     138c0 <func_14+0x5593>
   138b9:	b8 01 00 00 00       	mov    $0x1,%eax
   138be:	eb 05                	jmp    138c5 <func_14+0x5598>
   138c0:	b8 00 00 00 00       	mov    $0x0,%eax
   138c5:	66 33 85 fc e4 ff ff 	xor    -0x1b04(%rbp),%ax
   138cc:	0f b7 d0             	movzwl %ax,%edx
   138cf:	8b 85 78 e5 ff ff    	mov    -0x1a88(%rbp),%eax
   138d5:	0f b7 c0             	movzwl %ax,%eax
   138d8:	89 d6                	mov    %edx,%esi
   138da:	89 c7                	mov    %eax,%edi
   138dc:	e8 ad 54 ff ff       	callq  8d8e <safe_div_func_uint16_t_u_u>
   138e1:	83 c8 08             	or     $0x8,%eax
   138e4:	0f b6 c0             	movzbl %al,%eax
   138e7:	89 de                	mov    %ebx,%esi
   138e9:	89 c7                	mov    %eax,%edi
   138eb:	e8 eb 52 ff ff       	callq  8bdb <safe_div_func_uint8_t_u_u>
   138f0:	0f b6 c0             	movzbl %al,%eax
   138f3:	66 39 85 f8 e4 ff ff 	cmp    %ax,-0x1b08(%rbp)
   138fa:	0f 92 c2             	setb   %dl
   138fd:	48 8b 85 c0 e5 ff ff 	mov    -0x1a40(%rbp),%rax
   13904:	0f b6 d2             	movzbl %dl,%edx
   13907:	89 10                	mov    %edx,(%rax)
   13909:	48 8b 05 88 cc 00 00 	mov    0xcc88(%rip),%rax        # 20598 <g_2117+0xf8>
   13910:	48 8b 85 00 e9 ff ff 	mov    -0x1700(%rbp),%rax
   13917:	48 89 85 98 e6 ff ff 	mov    %rax,-0x1968(%rbp)
   1391e:	48 8b 85 a8 e6 ff ff 	mov    -0x1958(%rbp),%rax
   13925:	48 89 05 14 d3 00 00 	mov    %rax,0xd314(%rip)        # 20c40 <g_2126>
   1392c:	0f b7 05 d1 9b 00 00 	movzwl 0x9bd1(%rip),%eax        # 1d504 <g_647>
   13933:	0f be c0             	movsbl %al,%eax
   13936:	be 07 00 00 00       	mov    $0x7,%esi
   1393b:	89 c7                	mov    %eax,%edi
   1393d:	e8 92 48 ff ff       	callq  81d4 <safe_add_func_int8_t_s_s>
   13942:	66 98                	cbtw   
   13944:	66 89 05 b9 9b 00 00 	mov    %ax,0x9bb9(%rip)        # 1d504 <g_647>
   1394b:	0f b7 05 b2 9b 00 00 	movzwl 0x9bb2(%rip),%eax        # 1d504 <g_647>
   13952:	66 83 f8 09          	cmp    $0x9,%ax
   13956:	0f 8f 32 fd ff ff    	jg     1368e <func_14+0x5361>
   1395c:	8b 05 46 9a 00 00    	mov    0x9a46(%rip),%eax        # 1d3a8 <g_177>
   13962:	be 02 00 00 00       	mov    $0x2,%esi
   13967:	89 c7                	mov    %eax,%edi
   13969:	e8 4a 55 ff ff       	callq  8eb8 <safe_add_func_uint32_t_u_u>
   1396e:	89 05 34 9a 00 00    	mov    %eax,0x9a34(%rip)        # 1d3a8 <g_177>
   13974:	8b 05 2e 9a 00 00    	mov    0x9a2e(%rip),%eax        # 1d3a8 <g_177>
   1397a:	83 f8 0d             	cmp    $0xd,%eax
   1397d:	0f 87 e5 fc ff ff    	ja     13668 <func_14+0x533b>
   13983:	0f b7 85 fc e4 ff ff 	movzwl -0x1b04(%rbp),%eax
   1398a:	e9 86 00 00 00       	jmpq   13a15 <func_14+0x56e8>
   1398f:	48 c7 85 b8 e5 ff ff 	movq   $0x5,-0x1a48(%rbp)
   13996:	05 00 00 00 
   1399a:	eb 1c                	jmp    139b8 <func_14+0x568b>
   1399c:	c7 85 74 e5 ff ff fa 	movl   $0xfffffffa,-0x1a8c(%rbp)
   139a3:	ff ff ff 
   139a6:	48 8b 85 b8 e5 ff ff 	mov    -0x1a48(%rbp),%rax
   139ad:	48 83 e8 01          	sub    $0x1,%rax
   139b1:	48 89 85 b8 e5 ff ff 	mov    %rax,-0x1a48(%rbp)
   139b8:	48 8b 85 b8 e5 ff ff 	mov    -0x1a48(%rbp),%rax
   139bf:	48 83 f8 f4          	cmp    $0xfffffffffffffff4,%rax
   139c3:	7d d7                	jge    1399c <func_14+0x566f>
   139c5:	0f b7 05 14 9b 00 00 	movzwl 0x9b14(%rip),%eax        # 1d4e0 <g_255>
   139cc:	0f b6 c0             	movzbl %al,%eax
   139cf:	be 01 00 00 00       	mov    $0x1,%esi
   139d4:	89 c7                	mov    %eax,%edi
   139d6:	e8 7f 51 ff ff       	callq  8b5a <safe_add_func_uint8_t_u_u>
   139db:	0f b6 c0             	movzbl %al,%eax
   139de:	66 89 05 fb 9a 00 00 	mov    %ax,0x9afb(%rip)        # 1d4e0 <g_255>
   139e5:	0f b7 05 f4 9a 00 00 	movzwl 0x9af4(%rip),%eax        # 1d4e0 <g_255>
   139ec:	66 83 f8 fc          	cmp    $0xfffc,%ax
   139f0:	0f 8c ac fb ff ff    	jl     135a2 <func_14+0x5275>
   139f6:	48 8b 05 cb c2 00 00 	mov    0xc2cb(%rip),%rax        # 1fcc8 <g_180>
   139fd:	8b 10                	mov    (%rax),%edx
   139ff:	48 8b 05 c2 c2 00 00 	mov    0xc2c2(%rip),%rax        # 1fcc8 <g_180>
   13a06:	81 f2 60 72 b9 05    	xor    $0x5b97260,%edx
   13a0c:	89 10                	mov    %edx,(%rax)
   13a0e:	0f b7 85 f8 e4 ff ff 	movzwl -0x1b08(%rbp),%eax
   13a15:	48 8b 5d c8          	mov    -0x38(%rbp),%rbx
   13a19:	64 48 33 1c 25 28 00 	xor    %fs:0x28,%rbx
   13a20:	00 00 
   13a22:	74 05                	je     13a29 <func_14+0x56fc>
   13a24:	e8 47 46 ff ff       	callq  8070 <__stack_chk_fail@plt>
   13a29:	48 81 c4 f8 1a 00 00 	add    $0x1af8,%rsp
   13a30:	5b                   	pop    %rbx
   13a31:	41 5c                	pop    %r12
   13a33:	41 5d                	pop    %r13
   13a35:	41 5e                	pop    %r14
   13a37:	41 5f                	pop    %r15
   13a39:	5d                   	pop    %rbp
   13a3a:	c3                   	retq   

0000000000013a3b <func_18>:
   13a3b:	f3 0f 1e fa          	endbr64 
   13a3f:	55                   	push   %rbp
   13a40:	48 89 e5             	mov    %rsp,%rbp
   13a43:	48 81 ec 70 01 00 00 	sub    $0x170,%rsp
   13a4a:	48 89 bd a8 fe ff ff 	mov    %rdi,-0x158(%rbp)
   13a51:	48 89 b5 a0 fe ff ff 	mov    %rsi,-0x160(%rbp)
   13a58:	48 89 95 98 fe ff ff 	mov    %rdx,-0x168(%rbp)
   13a5f:	89 8d 94 fe ff ff    	mov    %ecx,-0x16c(%rbp)
   13a65:	64 48 8b 04 25 28 00 	mov    %fs:0x28,%rax
   13a6c:	00 00 
   13a6e:	48 89 45 f8          	mov    %rax,-0x8(%rbp)
   13a72:	31 c0                	xor    %eax,%eax
   13a74:	48 c7 85 f0 fe ff ff 	movq   $0x1,-0x110(%rbp)
   13a7b:	01 00 00 00 
   13a7f:	48 c7 85 f8 fe ff ff 	movq   $0x0,-0x108(%rbp)
   13a86:	00 00 00 00 
   13a8a:	48 8d 05 0f d1 00 00 	lea    0xd10f(%rip),%rax        # 20ba0 <g_776>
   13a91:	48 89 85 00 ff ff ff 	mov    %rax,-0x100(%rbp)
   13a98:	c7 45 b0 01 00 00 00 	movl   $0x1,-0x50(%rbp)
   13a9f:	c7 45 b4 01 00 00 00 	movl   $0x1,-0x4c(%rbp)
   13aa6:	c7 45 b8 01 00 00 00 	movl   $0x1,-0x48(%rbp)
   13aad:	c7 45 bc 04 00 00 00 	movl   $0x4,-0x44(%rbp)
   13ab4:	c7 45 c0 04 00 00 00 	movl   $0x4,-0x40(%rbp)
   13abb:	c7 45 c4 04 00 00 00 	movl   $0x4,-0x3c(%rbp)
   13ac2:	c7 45 c8 01 00 00 00 	movl   $0x1,-0x38(%rbp)
   13ac9:	c7 45 cc 01 00 00 00 	movl   $0x1,-0x34(%rbp)
   13ad0:	c7 45 d0 01 00 00 00 	movl   $0x1,-0x30(%rbp)
   13ad7:	c7 45 d4 04 00 00 00 	movl   $0x4,-0x2c(%rbp)
   13ade:	c7 45 d8 04 00 00 00 	movl   $0x4,-0x28(%rbp)
   13ae5:	c7 45 dc 04 00 00 00 	movl   $0x4,-0x24(%rbp)
   13aec:	c7 45 e0 01 00 00 00 	movl   $0x1,-0x20(%rbp)
   13af3:	c7 45 e4 01 00 00 00 	movl   $0x1,-0x1c(%rbp)
   13afa:	c7 45 e8 01 00 00 00 	movl   $0x1,-0x18(%rbp)
   13b01:	c7 85 c0 fe ff ff 91 	movl   $0x6e0a9991,-0x140(%rbp)
   13b08:	99 0a 6e 
   13b0b:	c6 85 b7 fe ff ff 8e 	movb   $0x8e,-0x149(%rbp)
   13b12:	48 8d 05 3f c2 00 00 	lea    0xc23f(%rip),%rax        # 1fd58 <g_701>
   13b19:	48 89 85 08 ff ff ff 	mov    %rax,-0xf8(%rbp)
   13b20:	48 8d 05 99 c1 00 00 	lea    0xc199(%rip),%rax        # 1fcc0 <g_89>
   13b27:	48 89 85 c8 fe ff ff 	mov    %rax,-0x138(%rbp)
   13b2e:	48 8d 85 c8 fe ff ff 	lea    -0x138(%rbp),%rax
   13b35:	48 89 85 d0 fe ff ff 	mov    %rax,-0x130(%rbp)
   13b3c:	48 8d 85 d0 fe ff ff 	lea    -0x130(%rbp),%rax
   13b43:	48 89 85 d8 fe ff ff 	mov    %rax,-0x128(%rbp)
   13b4a:	48 b8 52 be dc 40 91 	movabs $0x28f1e79140dcbe52,%rax
   13b51:	e7 f1 28 
   13b54:	48 89 85 10 ff ff ff 	mov    %rax,-0xf0(%rbp)
   13b5b:	c7 85 b8 fe ff ff 00 	movl   $0x0,-0x148(%rbp)
   13b62:	00 00 00 
   13b65:	eb 17                	jmp    13b7e <func_18+0x143>
   13b67:	8b 85 b8 fe ff ff    	mov    -0x148(%rbp),%eax
   13b6d:	48 98                	cltq   
   13b6f:	c7 44 85 80 12 75 31 	movl   $0xa9317512,-0x80(%rbp,%rax,4)
   13b76:	a9 
   13b77:	83 85 b8 fe ff ff 01 	addl   $0x1,-0x148(%rbp)
   13b7e:	83 bd b8 fe ff ff 08 	cmpl   $0x8,-0x148(%rbp)
   13b85:	7e e0                	jle    13b67 <func_18+0x12c>
   13b87:	c7 85 b8 fe ff ff 00 	movl   $0x0,-0x148(%rbp)
   13b8e:	00 00 00 
   13b91:	eb 1e                	jmp    13bb1 <func_18+0x176>
   13b93:	8b 85 b8 fe ff ff    	mov    -0x148(%rbp),%eax
   13b99:	48 98                	cltq   
   13b9b:	48 8d 95 d8 fe ff ff 	lea    -0x128(%rbp),%rdx
   13ba2:	48 89 94 c5 48 ff ff 	mov    %rdx,-0xb8(%rbp,%rax,8)
   13ba9:	ff 
   13baa:	83 85 b8 fe ff ff 01 	addl   $0x1,-0x148(%rbp)
   13bb1:	83 bd b8 fe ff ff 00 	cmpl   $0x0,-0x148(%rbp)
   13bb8:	7e d9                	jle    13b93 <func_18+0x158>
   13bba:	90                   	nop
   13bbb:	48 8d 05 46 99 00 00 	lea    0x9946(%rip),%rax        # 1d508 <g_702>
   13bc2:	48 39 85 f8 fe ff ff 	cmp    %rax,-0x108(%rbp)
   13bc9:	0f 95 c0             	setne  %al
   13bcc:	0f b6 c0             	movzbl %al,%eax
   13bcf:	48 39 85 a0 fe ff ff 	cmp    %rax,-0x160(%rbp)
   13bd6:	0f 9f c2             	setg   %dl
   13bd9:	48 8b 05 e8 c0 00 00 	mov    0xc0e8(%rip),%rax        # 1fcc8 <g_180>
   13be0:	0f b6 d2             	movzbl %dl,%edx
   13be3:	89 10                	mov    %edx,(%rax)
   13be5:	66 c7 05 10 99 00 00 	movw   $0x8,0x9910(%rip)        # 1d4fe <g_502>
   13bec:	08 00 
   13bee:	e9 15 01 00 00       	jmpq   13d08 <func_18+0x2cd>
   13bf3:	48 c7 85 e0 fe ff ff 	movq   $0x0,-0x120(%rbp)
   13bfa:	00 00 00 00 
   13bfe:	48 8d 85 e0 fe ff ff 	lea    -0x120(%rbp),%rax
   13c05:	48 89 85 e8 fe ff ff 	mov    %rax,-0x118(%rbp)
   13c0c:	48 8d 85 e8 fe ff ff 	lea    -0x118(%rbp),%rax
   13c13:	48 89 85 18 ff ff ff 	mov    %rax,-0xe8(%rbp)
   13c1a:	48 8d 05 bf c0 00 00 	lea    0xc0bf(%rip),%rax        # 1fce0 <g_207>
   13c21:	48 89 85 20 ff ff ff 	mov    %rax,-0xe0(%rbp)
   13c28:	c7 85 c4 fe ff ff ec 	movl   $0xfdcc6ec,-0x13c(%rbp)
   13c2f:	c6 dc 0f 
   13c32:	c7 85 60 ff ff ff eb 	movl   $0x87ec50eb,-0xa0(%rbp)
   13c39:	50 ec 87 
   13c3c:	c7 85 64 ff ff ff 01 	movl   $0x1,-0x9c(%rbp)
   13c43:	00 00 00 
   13c46:	c7 85 68 ff ff ff 01 	movl   $0x1,-0x98(%rbp)
   13c4d:	00 00 00 
   13c50:	c7 85 6c ff ff ff 01 	movl   $0x1,-0x94(%rbp)
   13c57:	00 00 00 
   13c5a:	c7 85 70 ff ff ff ff 	movl   $0xffffffff,-0x90(%rbp)
   13c61:	ff ff ff 
   13c64:	c7 85 74 ff ff ff ff 	movl   $0xffffffff,-0x8c(%rbp)
   13c6b:	ff ff ff 
   13c6e:	c7 85 78 ff ff ff 01 	movl   $0x1,-0x88(%rbp)
   13c75:	00 00 00 
   13c78:	48 c7 85 50 ff ff ff 	movq   $0x0,-0xb0(%rbp)
   13c7f:	00 00 00 00 
   13c83:	48 c7 85 58 ff ff ff 	movq   $0x0,-0xa8(%rbp)
   13c8a:	00 00 00 00 
   13c8e:	c7 85 50 ff ff ff 92 	movl   $0x82ace792,-0xb0(%rbp)
   13c95:	e7 ac 82 
   13c98:	c7 85 58 ff ff ff 92 	movl   $0x82ace792,-0xa8(%rbp)
   13c9f:	e7 ac 82 
   13ca2:	48 8d 05 17 c7 00 00 	lea    0xc717(%rip),%rax        # 203c0 <g_1177>
   13ca9:	48 89 85 28 ff ff ff 	mov    %rax,-0xd8(%rbp)
   13cb0:	48 c7 85 30 ff ff ff 	movq   $0x0,-0xd0(%rbp)
   13cb7:	00 00 00 00 
   13cbb:	48 8d 05 b6 ce 00 00 	lea    0xceb6(%rip),%rax        # 20b78 <g_474>
   13cc2:	48 89 85 38 ff ff ff 	mov    %rax,-0xc8(%rbp)
   13cc9:	c7 85 bc fe ff ff 00 	movl   $0x0,-0x144(%rbp)
   13cd0:	00 00 00 
   13cd3:	eb 19                	jmp    13cee <func_18+0x2b3>
   13cd5:	8b 85 bc fe ff ff    	mov    -0x144(%rbp),%eax
   13cdb:	48 98                	cltq   
   13cdd:	66 c7 84 45 44 ff ff 	movw   $0xfff6,-0xbc(%rbp,%rax,2)
   13ce4:	ff f6 ff 
   13ce7:	83 85 bc fe ff ff 01 	addl   $0x1,-0x144(%rbp)
   13cee:	83 bd bc fe ff ff 01 	cmpl   $0x1,-0x144(%rbp)
   13cf5:	7e de                	jle    13cd5 <func_18+0x29a>
   13cf7:	0f b7 05 00 98 00 00 	movzwl 0x9800(%rip),%eax        # 1d4fe <g_502>
   13cfe:	83 e8 01             	sub    $0x1,%eax
   13d01:	66 89 05 f6 97 00 00 	mov    %ax,0x97f6(%rip)        # 1d4fe <g_502>
   13d08:	0f b7 05 ef 97 00 00 	movzwl 0x97ef(%rip),%eax        # 1d4fe <g_502>
   13d0f:	66 83 f8 01          	cmp    $0x1,%ax
   13d13:	0f 8f da fe ff ff    	jg     13bf3 <func_18+0x1b8>
   13d19:	48 83 bd f0 fe ff ff 	cmpq   $0x0,-0x110(%rbp)
   13d20:	00 
   13d21:	74 05                	je     13d28 <func_18+0x2ed>
   13d23:	e9 93 fe ff ff       	jmpq   13bbb <func_18+0x180>
   13d28:	48 8b 85 10 ff ff ff 	mov    -0xf0(%rbp),%rax
   13d2f:	48 8b 4d f8          	mov    -0x8(%rbp),%rcx
   13d33:	64 48 33 0c 25 28 00 	xor    %fs:0x28,%rcx
   13d3a:	00 00 
   13d3c:	74 05                	je     13d43 <func_18+0x308>
   13d3e:	e8 2d 43 ff ff       	callq  8070 <__stack_chk_fail@plt>
   13d43:	c9                   	leaveq 
   13d44:	c3                   	retq   

0000000000013d45 <func_23>:
   13d45:	f3 0f 1e fa          	endbr64 
   13d49:	55                   	push   %rbp
   13d4a:	48 89 e5             	mov    %rsp,%rbp
   13d4d:	48 83 ec 70          	sub    $0x70,%rsp
   13d51:	89 7d 9c             	mov    %edi,-0x64(%rbp)
   13d54:	89 f0                	mov    %esi,%eax
   13d56:	89 55 94             	mov    %edx,-0x6c(%rbp)
   13d59:	89 4d 90             	mov    %ecx,-0x70(%rbp)
   13d5c:	88 45 98             	mov    %al,-0x68(%rbp)
   13d5f:	64 48 8b 04 25 28 00 	mov    %fs:0x28,%rax
   13d66:	00 00 
   13d68:	48 89 45 f8          	mov    %rax,-0x8(%rbp)
   13d6c:	31 c0                	xor    %eax,%eax
   13d6e:	c7 45 ac 00 00 00 00 	movl   $0x0,-0x54(%rbp)
   13d75:	eb 15                	jmp    13d8c <func_23+0x47>
   13d77:	8b 45 ac             	mov    -0x54(%rbp),%eax
   13d7a:	48 98                	cltq   
   13d7c:	48 8d 15 7d 97 00 00 	lea    0x977d(%rip),%rdx        # 1d500 <g_544>
   13d83:	48 89 54 c5 b0       	mov    %rdx,-0x50(%rbp,%rax,8)
   13d88:	83 45 ac 01          	addl   $0x1,-0x54(%rbp)
   13d8c:	83 7d ac 08          	cmpl   $0x8,-0x54(%rbp)
   13d90:	7e e5                	jle    13d77 <func_23+0x32>
   13d92:	48 8b 05 a7 c0 00 00 	mov    0xc0a7(%rip),%rax        # 1fe40 <g_779>
   13d99:	48 8b 55 e0          	mov    -0x20(%rbp),%rdx
   13d9d:	48 89 10             	mov    %rdx,(%rax)
   13da0:	48 8b 05 b1 bf 00 00 	mov    0xbfb1(%rip),%rax        # 1fd58 <g_701>
   13da7:	48 8b 00             	mov    (%rax),%rax
   13daa:	48 8b 4d f8          	mov    -0x8(%rbp),%rcx
   13dae:	64 48 33 0c 25 28 00 	xor    %fs:0x28,%rcx
   13db5:	00 00 
   13db7:	74 05                	je     13dbe <func_23+0x79>
   13db9:	e8 b2 42 ff ff       	callq  8070 <__stack_chk_fail@plt>
   13dbe:	c9                   	leaveq 
   13dbf:	c3                   	retq   

0000000000013dc0 <func_29>:
   13dc0:	f3 0f 1e fa          	endbr64 
   13dc4:	55                   	push   %rbp
   13dc5:	48 89 e5             	mov    %rsp,%rbp
   13dc8:	48 81 ec 30 05 00 00 	sub    $0x530,%rsp
   13dcf:	89 f8                	mov    %edi,%eax
   13dd1:	48 89 b5 e0 fa ff ff 	mov    %rsi,-0x520(%rbp)
   13dd8:	48 89 95 d8 fa ff ff 	mov    %rdx,-0x528(%rbp)
   13ddf:	48 89 8d d0 fa ff ff 	mov    %rcx,-0x530(%rbp)
   13de6:	88 85 ec fa ff ff    	mov    %al,-0x514(%rbp)
   13dec:	64 48 8b 04 25 28 00 	mov    %fs:0x28,%rax
   13df3:	00 00 
   13df5:	48 89 45 f8          	mov    %rax,-0x8(%rbp)
   13df9:	31 c0                	xor    %eax,%eax
   13dfb:	48 8d 05 ea 96 00 00 	lea    0x96ea(%rip),%rax        # 1d4ec <g_388>
   13e02:	48 89 85 18 fb ff ff 	mov    %rax,-0x4e8(%rbp)
   13e09:	48 8d 85 18 fb ff ff 	lea    -0x4e8(%rbp),%rax
   13e10:	48 89 85 20 fb ff ff 	mov    %rax,-0x4e0(%rbp)
   13e17:	48 8d 85 20 fb ff ff 	lea    -0x4e0(%rbp),%rax
   13e1e:	48 89 85 28 fb ff ff 	mov    %rax,-0x4d8(%rbp)
   13e25:	48 8d 05 7c cd 00 00 	lea    0xcd7c(%rip),%rax        # 20ba8 <g_796>
   13e2c:	48 89 85 10 fc ff ff 	mov    %rax,-0x3f0(%rbp)
   13e33:	48 c7 85 18 fc ff ff 	movq   $0x0,-0x3e8(%rbp)
   13e3a:	00 00 00 00 
   13e3e:	48 8d 05 63 cd 00 00 	lea    0xcd63(%rip),%rax        # 20ba8 <g_796>
   13e45:	48 89 85 20 fc ff ff 	mov    %rax,-0x3e0(%rbp)
   13e4c:	48 8d 05 55 cd 00 00 	lea    0xcd55(%rip),%rax        # 20ba8 <g_796>
   13e53:	48 89 85 28 fc ff ff 	mov    %rax,-0x3d8(%rbp)
   13e5a:	48 c7 85 30 fc ff ff 	movq   $0x0,-0x3d0(%rbp)
   13e61:	00 00 00 00 
   13e65:	48 8d 05 3c cd 00 00 	lea    0xcd3c(%rip),%rax        # 20ba8 <g_796>
   13e6c:	48 89 85 38 fc ff ff 	mov    %rax,-0x3c8(%rbp)
   13e73:	c7 85 00 fb ff ff 00 	movl   $0x0,-0x500(%rbp)
   13e7a:	00 00 00 
   13e7d:	48 b8 ec 23 74 23 ec 	movabs $0x7423ecec237423ec,%rax
   13e84:	ec 23 74 
   13e87:	48 89 85 80 fc ff ff 	mov    %rax,-0x380(%rbp)
   13e8e:	66 c7 85 88 fc ff ff 	movw   $0xec23,-0x378(%rbp)
   13e95:	23 ec 
   13e97:	48 89 85 8a fc ff ff 	mov    %rax,-0x376(%rbp)
   13e9e:	66 c7 85 92 fc ff ff 	movw   $0xec23,-0x36e(%rbp)
   13ea5:	23 ec 
   13ea7:	48 89 85 94 fc ff ff 	mov    %rax,-0x36c(%rbp)
   13eae:	66 c7 85 9c fc ff ff 	movw   $0xec23,-0x364(%rbp)
   13eb5:	23 ec 
   13eb7:	48 89 85 9e fc ff ff 	mov    %rax,-0x362(%rbp)
   13ebe:	66 c7 85 a6 fc ff ff 	movw   $0xec23,-0x35a(%rbp)
   13ec5:	23 ec 
   13ec7:	48 89 85 a8 fc ff ff 	mov    %rax,-0x358(%rbp)
   13ece:	66 c7 85 b0 fc ff ff 	movw   $0xec23,-0x350(%rbp)
   13ed5:	23 ec 
   13ed7:	48 89 85 b2 fc ff ff 	mov    %rax,-0x34e(%rbp)
   13ede:	66 c7 85 ba fc ff ff 	movw   $0xec23,-0x346(%rbp)
   13ee5:	23 ec 
   13ee7:	48 89 85 bc fc ff ff 	mov    %rax,-0x344(%rbp)
   13eee:	66 c7 85 c4 fc ff ff 	movw   $0xec23,-0x33c(%rbp)
   13ef5:	23 ec 
   13ef7:	48 8d 05 ae 94 00 00 	lea    0x94ae(%rip),%rax        # 1d3ac <g_181>
   13efe:	48 89 85 58 fb ff ff 	mov    %rax,-0x4a8(%rbp)
   13f05:	48 b8 bf d2 f1 e5 0d 	movabs $0xacaa7a0de5f1d2bf,%rax
   13f0c:	7a aa ac 
   13f0f:	48 89 85 60 fb ff ff 	mov    %rax,-0x4a0(%rbp)
   13f16:	48 8d 05 9b 94 00 00 	lea    0x949b(%rip),%rax        # 1d3b8 <g_199>
   13f1d:	48 89 85 68 fb ff ff 	mov    %rax,-0x498(%rbp)
   13f24:	c6 85 f1 fa ff ff c6 	movb   $0xc6,-0x50f(%rbp)
   13f2b:	48 8d 05 8e bd 00 00 	lea    0xbd8e(%rip),%rax        # 1fcc0 <g_89>
   13f32:	48 89 85 70 fb ff ff 	mov    %rax,-0x490(%rbp)
   13f39:	48 c7 85 78 fb ff ff 	movq   $0x0,-0x488(%rbp)
   13f40:	00 00 00 00 
   13f44:	48 c7 85 80 fb ff ff 	movq   $0xfffffffffffffff9,-0x480(%rbp)
   13f4b:	f9 ff ff ff 
   13f4f:	48 c7 85 88 fb ff ff 	movq   $0x0,-0x478(%rbp)
   13f56:	00 00 00 00 
   13f5a:	48 b8 e9 4a f8 25 ab 	movabs $0xe69e45ab25f84ae9,%rax
   13f61:	45 9e e6 
   13f64:	48 89 85 90 fb ff ff 	mov    %rax,-0x470(%rbp)
   13f6b:	48 8b 05 d6 bd 00 00 	mov    0xbdd6(%rip),%rax        # 1fd48 <g_636>
   13f72:	48 8b 15 e7 8d 00 00 	mov    0x8de7(%rip),%rdx        # 1cd60 <l_689.4969>
   13f79:	48 89 10             	mov    %rdx,(%rax)
   13f7c:	48 8b 05 a5 bd 00 00 	mov    0xbda5(%rip),%rax        # 1fd28 <g_410>
   13f83:	48 8b 00             	mov    (%rax),%rax
   13f86:	8b 00                	mov    (%rax),%eax
   13f88:	89 c6                	mov    %eax,%esi
   13f8a:	bf 08 50 5b cb       	mov    $0xcb5b5008,%edi
   13f8f:	e8 69 4f ff ff       	callq  8efd <safe_mod_func_uint32_t_u_u>
   13f94:	85 c0                	test   %eax,%eax
   13f96:	0f 84 bf 00 00 00    	je     1405b <func_29+0x29b>
   13f9c:	48 c7 85 b8 fb ff ff 	movq   $0x0,-0x448(%rbp)
   13fa3:	00 00 00 00 
   13fa7:	48 8d 05 98 90 00 00 	lea    0x9098(%rip),%rax        # 1d046 <g_113+0x6>
   13fae:	48 89 85 00 fe ff ff 	mov    %rax,-0x200(%rbp)
   13fb5:	48 8d 05 8a 90 00 00 	lea    0x908a(%rip),%rax        # 1d046 <g_113+0x6>
   13fbc:	48 89 85 08 fe ff ff 	mov    %rax,-0x1f8(%rbp)
   13fc3:	48 8d 05 7c 90 00 00 	lea    0x907c(%rip),%rax        # 1d046 <g_113+0x6>
   13fca:	48 89 85 10 fe ff ff 	mov    %rax,-0x1f0(%rbp)
   13fd1:	48 8d 05 6e 90 00 00 	lea    0x906e(%rip),%rax        # 1d046 <g_113+0x6>
   13fd8:	48 89 85 18 fe ff ff 	mov    %rax,-0x1e8(%rbp)
   13fdf:	48 8d 05 60 90 00 00 	lea    0x9060(%rip),%rax        # 1d046 <g_113+0x6>
   13fe6:	48 89 85 20 fe ff ff 	mov    %rax,-0x1e0(%rbp)
   13fed:	48 c7 85 50 fb ff ff 	movq   $0x0,-0x4b0(%rbp)
   13ff4:	00 00 00 00 
   13ff8:	48 8d 85 50 fb ff ff 	lea    -0x4b0(%rbp),%rax
   13fff:	48 89 85 c0 fb ff ff 	mov    %rax,-0x440(%rbp)
   14006:	0f b7 05 39 90 00 00 	movzwl 0x9039(%rip),%eax        # 1d046 <g_113+0x6>
   1400d:	83 e8 01             	sub    $0x1,%eax
   14010:	66 89 05 2f 90 00 00 	mov    %ax,0x902f(%rip)        # 1d046 <g_113+0x6>
   14017:	48 8b 05 42 bd 00 00 	mov    0xbd42(%rip),%rax        # 1fd60 <g_700>
   1401e:	48 39 85 c0 fb ff ff 	cmp    %rax,-0x440(%rbp)
   14025:	0f 94 c0             	sete   %al
   14028:	0f b6 c0             	movzbl %al,%eax
   1402b:	be 00 00 00 00       	mov    $0x0,%esi
   14030:	89 c7                	mov    %eax,%edi
   14032:	e8 5b 44 ff ff       	callq  8492 <safe_lshift_func_int16_t_s_s>
   14037:	89 c2                	mov    %eax,%edx
   14039:	48 8b 05 88 bc 00 00 	mov    0xbc88(%rip),%rax        # 1fcc8 <g_180>
   14040:	0f bf d2             	movswl %dx,%edx
   14043:	89 10                	mov    %edx,(%rax)
   14045:	48 8b 05 3c bd 00 00 	mov    0xbd3c(%rip),%rax        # 1fd88 <g_708>
   1404c:	48 8b 15 b5 94 00 00 	mov    0x94b5(%rip),%rdx        # 1d508 <g_702>
   14053:	48 89 10             	mov    %rdx,(%rax)
   14056:	e9 4f 01 00 00       	jmpq   141aa <func_29+0x3ea>
   1405b:	c6 85 f2 fa ff ff 04 	movb   $0x4,-0x50e(%rbp)
   14062:	48 c7 85 38 fb ff ff 	movq   $0x0,-0x4c8(%rbp)
   14069:	00 00 00 00 
   1406d:	48 8d 85 38 fb ff ff 	lea    -0x4c8(%rbp),%rax
   14074:	48 89 85 98 fb ff ff 	mov    %rax,-0x468(%rbp)
   1407b:	c7 85 04 fb ff ff cc 	movl   $0x146269cc,-0x4fc(%rbp)
   14082:	69 62 14 
   14085:	48 8d 05 20 93 00 00 	lea    0x9320(%rip),%rax        # 1d3ac <g_181>
   1408c:	48 89 85 30 fb ff ff 	mov    %rax,-0x4d0(%rbp)
   14093:	48 8d 05 aa 8f 00 00 	lea    0x8faa(%rip),%rax        # 1d044 <g_113+0x4>
   1409a:	48 89 85 40 fb ff ff 	mov    %rax,-0x4c0(%rbp)
   140a1:	48 8d 85 40 fb ff ff 	lea    -0x4c0(%rbp),%rax
   140a8:	48 89 85 a0 fb ff ff 	mov    %rax,-0x460(%rbp)
   140af:	c7 85 08 fb ff ff 67 	movl   $0xfe4e6167,-0x4f8(%rbp)
   140b6:	61 4e fe 
   140b9:	0f b6 85 f2 fa ff ff 	movzbl -0x50e(%rbp),%eax
   140c0:	83 e8 01             	sub    $0x1,%eax
   140c3:	88 85 f2 fa ff ff    	mov    %al,-0x50e(%rbp)
   140c9:	c7 05 2d 94 00 00 00 	movl   $0x0,0x942d(%rip)        # 1d500 <g_544>
   140d0:	00 00 00 
   140d3:	e9 c4 00 00 00       	jmpq   1419c <func_29+0x3dc>
   140d8:	48 c7 85 48 fb ff ff 	movq   $0x0,-0x4b8(%rbp)
   140df:	00 00 00 00 
   140e3:	c7 85 48 fb ff ff 38 	movl   $0x8eb2d438,-0x4b8(%rbp)
   140ea:	d4 b2 8e 
   140ed:	48 8d 85 70 fd ff ff 	lea    -0x290(%rbp),%rax
   140f4:	48 89 85 a8 fb ff ff 	mov    %rax,-0x458(%rbp)
   140fb:	48 8d 05 2e bc 00 00 	lea    0xbc2e(%rip),%rax        # 1fd30 <g_451>
   14102:	48 89 85 50 fb ff ff 	mov    %rax,-0x4b0(%rbp)
   14109:	48 8d 85 50 fb ff ff 	lea    -0x4b0(%rbp),%rax
   14110:	48 89 85 00 fe ff ff 	mov    %rax,-0x200(%rbp)
   14117:	48 8d 85 50 fb ff ff 	lea    -0x4b0(%rbp),%rax
   1411e:	48 89 85 08 fe ff ff 	mov    %rax,-0x1f8(%rbp)
   14125:	48 8d 85 50 fb ff ff 	lea    -0x4b0(%rbp),%rax
   1412c:	48 89 85 10 fe ff ff 	mov    %rax,-0x1f0(%rbp)
   14133:	48 8d 85 50 fb ff ff 	lea    -0x4b0(%rbp),%rax
   1413a:	48 89 85 18 fe ff ff 	mov    %rax,-0x1e8(%rbp)
   14141:	48 8d 85 00 fe ff ff 	lea    -0x200(%rbp),%rax
   14148:	48 83 c0 08          	add    $0x8,%rax
   1414c:	48 89 85 b0 fb ff ff 	mov    %rax,-0x450(%rbp)
   14153:	c7 85 0c fb ff ff 05 	movl   $0x33eda105,-0x4f4(%rbp)
   1415a:	a1 ed 33 
   1415d:	c7 85 f8 fa ff ff 00 	movl   $0x0,-0x508(%rbp)
   14164:	00 00 00 
   14167:	eb 1b                	jmp    14184 <func_29+0x3c4>
   14169:	8b 85 f8 fa ff ff    	mov    -0x508(%rbp),%eax
   1416f:	48 98                	cltq   
   14171:	48 c7 84 c5 70 fd ff 	movq   $0x0,-0x290(%rbp,%rax,8)
   14178:	ff 00 00 00 00 
   1417d:	83 85 f8 fa ff ff 01 	addl   $0x1,-0x508(%rbp)
   14184:	83 bd f8 fa ff ff 01 	cmpl   $0x1,-0x508(%rbp)
   1418b:	7e dc                	jle    14169 <func_29+0x3a9>
   1418d:	8b 05 6d 93 00 00    	mov    0x936d(%rip),%eax        # 1d500 <g_544>
   14193:	83 c0 01             	add    $0x1,%eax
   14196:	89 05 64 93 00 00    	mov    %eax,0x9364(%rip)        # 1d500 <g_544>
   1419c:	8b 05 5e 93 00 00    	mov    0x935e(%rip),%eax        # 1d500 <g_544>
   141a2:	85 c0                	test   %eax,%eax
   141a4:	0f 8e 2e ff ff ff    	jle    140d8 <func_29+0x318>
   141aa:	48 8b 05 a7 bc 00 00 	mov    0xbca7(%rip),%rax        # 1fe58 <g_785>
   141b1:	48 89 05 90 be 00 00 	mov    %rax,0xbe90(%rip)        # 20048 <g_788+0x1e8>
   141b8:	c6 85 ec fa ff ff 00 	movb   $0x0,-0x514(%rbp)
   141bf:	e9 2d 07 00 00       	jmpq   148f1 <func_29+0xb31>
   141c4:	48 8d 85 28 fb ff ff 	lea    -0x4d8(%rbp),%rax
   141cb:	48 89 85 c8 fb ff ff 	mov    %rax,-0x438(%rbp)
   141d2:	c7 85 d0 fc ff ff 88 	movl   $0x97bcd588,-0x330(%rbp)
   141d9:	d5 bc 97 
   141dc:	c7 85 d4 fc ff ff 01 	movl   $0x1,-0x32c(%rbp)
   141e3:	00 00 00 
   141e6:	c7 85 d8 fc ff ff 5e 	movl   $0x9913e85e,-0x328(%rbp)
   141ed:	e8 13 99 
   141f0:	c7 85 dc fc ff ff 02 	movl   $0x2,-0x324(%rbp)
   141f7:	00 00 00 
   141fa:	c7 85 e0 fc ff ff 02 	movl   $0x2,-0x320(%rbp)
   14201:	00 00 00 
   14204:	c7 85 e4 fc ff ff 5e 	movl   $0x9913e85e,-0x31c(%rbp)
   1420b:	e8 13 99 
   1420e:	c7 85 e8 fc ff ff 02 	movl   $0x2,-0x318(%rbp)
   14215:	00 00 00 
   14218:	c7 85 ec fc ff ff 02 	movl   $0x2,-0x314(%rbp)
   1421f:	00 00 00 
   14222:	c7 85 f0 fc ff ff 5e 	movl   $0x9913e85e,-0x310(%rbp)
   14229:	e8 13 99 
   1422c:	c7 85 f4 fc ff ff 01 	movl   $0x1,-0x30c(%rbp)
   14233:	00 00 00 
   14236:	c7 85 f8 fc ff ff 88 	movl   $0x97bcd588,-0x308(%rbp)
   1423d:	d5 bc 97 
   14240:	c7 85 fc fc ff ff 5e 	movl   $0x9913e85e,-0x304(%rbp)
   14247:	e8 13 99 
   1424a:	c7 85 00 fd ff ff 01 	movl   $0x1,-0x300(%rbp)
   14251:	00 00 00 
   14254:	c7 85 04 fd ff ff 88 	movl   $0x97bcd588,-0x2fc(%rbp)
   1425b:	d5 bc 97 
   1425e:	c7 85 08 fd ff ff 5e 	movl   $0x9913e85e,-0x2f8(%rbp)
   14265:	e8 13 99 
   14268:	c7 85 0c fd ff ff 88 	movl   $0x97bcd588,-0x2f4(%rbp)
   1426f:	d5 bc 97 
   14272:	c7 85 10 fd ff ff 01 	movl   $0x1,-0x2f0(%rbp)
   14279:	00 00 00 
   1427c:	c7 85 14 fd ff ff 5e 	movl   $0x9913e85e,-0x2ec(%rbp)
   14283:	e8 13 99 
   14286:	48 8d 05 5f 92 00 00 	lea    0x925f(%rip),%rax        # 1d4ec <g_388>
   1428d:	48 89 85 40 fc ff ff 	mov    %rax,-0x3c0(%rbp)
   14294:	48 8d 05 f5 c8 00 00 	lea    0xc8f5(%rip),%rax        # 20b90 <g_736>
   1429b:	48 89 85 48 fc ff ff 	mov    %rax,-0x3b8(%rbp)
   142a2:	48 8d 05 43 92 00 00 	lea    0x9243(%rip),%rax        # 1d4ec <g_388>
   142a9:	48 89 85 50 fc ff ff 	mov    %rax,-0x3b0(%rbp)
   142b0:	48 8d 05 d9 c8 00 00 	lea    0xc8d9(%rip),%rax        # 20b90 <g_736>
   142b7:	48 89 85 58 fc ff ff 	mov    %rax,-0x3a8(%rbp)
   142be:	48 8d 05 27 92 00 00 	lea    0x9227(%rip),%rax        # 1d4ec <g_388>
   142c5:	48 89 85 60 fc ff ff 	mov    %rax,-0x3a0(%rbp)
   142cc:	48 8d 05 bd c8 00 00 	lea    0xc8bd(%rip),%rax        # 20b90 <g_736>
   142d3:	48 89 85 68 fc ff ff 	mov    %rax,-0x398(%rbp)
   142da:	48 8d 05 0b 92 00 00 	lea    0x920b(%rip),%rax        # 1d4ec <g_388>
   142e1:	48 89 85 70 fc ff ff 	mov    %rax,-0x390(%rbp)
   142e8:	48 8d 05 a1 c8 00 00 	lea    0xc8a1(%rip),%rax        # 20b90 <g_736>
   142ef:	48 89 85 78 fc ff ff 	mov    %rax,-0x388(%rbp)
   142f6:	48 8d 85 40 fc ff ff 	lea    -0x3c0(%rbp),%rax
   142fd:	48 83 c0 08          	add    $0x8,%rax
   14301:	48 89 85 d0 fb ff ff 	mov    %rax,-0x430(%rbp)
   14308:	c7 85 00 fc ff ff e7 	movl   $0xf0a349e7,-0x400(%rbp)
   1430f:	49 a3 f0 
   14312:	c7 85 04 fc ff ff e7 	movl   $0xf0a349e7,-0x3fc(%rbp)
   14319:	49 a3 f0 
   1431c:	c7 85 08 fc ff ff e7 	movl   $0xf0a349e7,-0x3f8(%rbp)
   14323:	49 a3 f0 
   14326:	c7 85 0c fc ff ff e7 	movl   $0xf0a349e7,-0x3f4(%rbp)
   1432d:	49 a3 f0 
   14330:	c7 85 10 fb ff ff e5 	movl   $0x54b5c8e5,-0x4f0(%rbp)
   14337:	c8 b5 54 
   1433a:	66 c7 85 f4 fa ff ff 	movw   $0x7,-0x50c(%rbp)
   14341:	07 00 
   14343:	48 8d 05 16 4d 00 00 	lea    0x4d16(%rip),%rax        # 19060 <g_468>
   1434a:	48 89 85 38 fb ff ff 	mov    %rax,-0x4c8(%rbp)
   14351:	48 8d 85 38 fb ff ff 	lea    -0x4c8(%rbp),%rax
   14358:	48 89 85 00 fe ff ff 	mov    %rax,-0x200(%rbp)
   1435f:	48 8d 85 38 fb ff ff 	lea    -0x4c8(%rbp),%rax
   14366:	48 89 85 08 fe ff ff 	mov    %rax,-0x1f8(%rbp)
   1436d:	48 8d 85 38 fb ff ff 	lea    -0x4c8(%rbp),%rax
   14374:	48 89 85 10 fe ff ff 	mov    %rax,-0x1f0(%rbp)
   1437b:	48 8d 85 38 fb ff ff 	lea    -0x4c8(%rbp),%rax
   14382:	48 89 85 18 fe ff ff 	mov    %rax,-0x1e8(%rbp)
   14389:	48 8d 85 38 fb ff ff 	lea    -0x4c8(%rbp),%rax
   14390:	48 89 85 20 fe ff ff 	mov    %rax,-0x1e0(%rbp)
   14397:	48 8d 85 38 fb ff ff 	lea    -0x4c8(%rbp),%rax
   1439e:	48 89 85 28 fe ff ff 	mov    %rax,-0x1d8(%rbp)
   143a5:	48 8d 85 38 fb ff ff 	lea    -0x4c8(%rbp),%rax
   143ac:	48 89 85 30 fe ff ff 	mov    %rax,-0x1d0(%rbp)
   143b3:	48 8d 85 38 fb ff ff 	lea    -0x4c8(%rbp),%rax
   143ba:	48 89 85 38 fe ff ff 	mov    %rax,-0x1c8(%rbp)
   143c1:	48 8d 85 38 fb ff ff 	lea    -0x4c8(%rbp),%rax
   143c8:	48 89 85 40 fe ff ff 	mov    %rax,-0x1c0(%rbp)
   143cf:	48 8d 85 38 fb ff ff 	lea    -0x4c8(%rbp),%rax
   143d6:	48 89 85 48 fe ff ff 	mov    %rax,-0x1b8(%rbp)
   143dd:	48 8d 85 38 fb ff ff 	lea    -0x4c8(%rbp),%rax
   143e4:	48 89 85 50 fe ff ff 	mov    %rax,-0x1b0(%rbp)
   143eb:	48 8d 85 38 fb ff ff 	lea    -0x4c8(%rbp),%rax
   143f2:	48 89 85 58 fe ff ff 	mov    %rax,-0x1a8(%rbp)
   143f9:	48 8d 85 38 fb ff ff 	lea    -0x4c8(%rbp),%rax
   14400:	48 89 85 60 fe ff ff 	mov    %rax,-0x1a0(%rbp)
   14407:	48 8d 85 38 fb ff ff 	lea    -0x4c8(%rbp),%rax
   1440e:	48 89 85 68 fe ff ff 	mov    %rax,-0x198(%rbp)
   14415:	48 8d 85 38 fb ff ff 	lea    -0x4c8(%rbp),%rax
   1441c:	48 89 85 70 fe ff ff 	mov    %rax,-0x190(%rbp)
   14423:	48 8d 85 38 fb ff ff 	lea    -0x4c8(%rbp),%rax
   1442a:	48 89 85 78 fe ff ff 	mov    %rax,-0x188(%rbp)
   14431:	48 8d 85 38 fb ff ff 	lea    -0x4c8(%rbp),%rax
   14438:	48 89 85 80 fe ff ff 	mov    %rax,-0x180(%rbp)
   1443f:	48 8d 85 38 fb ff ff 	lea    -0x4c8(%rbp),%rax
   14446:	48 89 85 88 fe ff ff 	mov    %rax,-0x178(%rbp)
   1444d:	48 8d 85 38 fb ff ff 	lea    -0x4c8(%rbp),%rax
   14454:	48 89 85 90 fe ff ff 	mov    %rax,-0x170(%rbp)
   1445b:	48 c7 85 98 fe ff ff 	movq   $0x0,-0x168(%rbp)
   14462:	00 00 00 00 
   14466:	48 8d 85 38 fb ff ff 	lea    -0x4c8(%rbp),%rax
   1446d:	48 89 85 a0 fe ff ff 	mov    %rax,-0x160(%rbp)
   14474:	48 8d 85 38 fb ff ff 	lea    -0x4c8(%rbp),%rax
   1447b:	48 89 85 a8 fe ff ff 	mov    %rax,-0x158(%rbp)
   14482:	48 8d 85 38 fb ff ff 	lea    -0x4c8(%rbp),%rax
   14489:	48 89 85 b0 fe ff ff 	mov    %rax,-0x150(%rbp)
   14490:	48 8d 85 38 fb ff ff 	lea    -0x4c8(%rbp),%rax
   14497:	48 89 85 b8 fe ff ff 	mov    %rax,-0x148(%rbp)
   1449e:	48 c7 85 c0 fe ff ff 	movq   $0x0,-0x140(%rbp)
   144a5:	00 00 00 00 
   144a9:	48 8d 85 38 fb ff ff 	lea    -0x4c8(%rbp),%rax
   144b0:	48 89 85 c8 fe ff ff 	mov    %rax,-0x138(%rbp)
   144b7:	48 c7 85 d0 fe ff ff 	movq   $0x0,-0x130(%rbp)
   144be:	00 00 00 00 
   144c2:	48 8d 85 38 fb ff ff 	lea    -0x4c8(%rbp),%rax
   144c9:	48 89 85 d8 fe ff ff 	mov    %rax,-0x128(%rbp)
   144d0:	48 8d 85 38 fb ff ff 	lea    -0x4c8(%rbp),%rax
   144d7:	48 89 85 e0 fe ff ff 	mov    %rax,-0x120(%rbp)
   144de:	48 8d 85 38 fb ff ff 	lea    -0x4c8(%rbp),%rax
   144e5:	48 89 85 e8 fe ff ff 	mov    %rax,-0x118(%rbp)
   144ec:	48 8d 85 38 fb ff ff 	lea    -0x4c8(%rbp),%rax
   144f3:	48 89 85 f0 fe ff ff 	mov    %rax,-0x110(%rbp)
   144fa:	48 c7 85 f8 fe ff ff 	movq   $0x0,-0x108(%rbp)
   14501:	00 00 00 00 
   14505:	48 8d 85 38 fb ff ff 	lea    -0x4c8(%rbp),%rax
   1450c:	48 89 85 00 ff ff ff 	mov    %rax,-0x100(%rbp)
   14513:	48 c7 85 08 ff ff ff 	movq   $0x0,-0xf8(%rbp)
   1451a:	00 00 00 00 
   1451e:	48 c7 85 10 ff ff ff 	movq   $0x0,-0xf0(%rbp)
   14525:	00 00 00 00 
   14529:	48 8d 85 38 fb ff ff 	lea    -0x4c8(%rbp),%rax
   14530:	48 89 85 18 ff ff ff 	mov    %rax,-0xe8(%rbp)
   14537:	48 8d 85 38 fb ff ff 	lea    -0x4c8(%rbp),%rax
   1453e:	48 89 85 20 ff ff ff 	mov    %rax,-0xe0(%rbp)
   14545:	48 8d 85 38 fb ff ff 	lea    -0x4c8(%rbp),%rax
   1454c:	48 89 85 28 ff ff ff 	mov    %rax,-0xd8(%rbp)
   14553:	48 8d 85 38 fb ff ff 	lea    -0x4c8(%rbp),%rax
   1455a:	48 89 85 30 ff ff ff 	mov    %rax,-0xd0(%rbp)
   14561:	48 8d 85 38 fb ff ff 	lea    -0x4c8(%rbp),%rax
   14568:	48 89 85 38 ff ff ff 	mov    %rax,-0xc8(%rbp)
   1456f:	48 8d 85 38 fb ff ff 	lea    -0x4c8(%rbp),%rax
   14576:	48 89 85 40 ff ff ff 	mov    %rax,-0xc0(%rbp)
   1457d:	48 8d 85 38 fb ff ff 	lea    -0x4c8(%rbp),%rax
   14584:	48 89 85 48 ff ff ff 	mov    %rax,-0xb8(%rbp)
   1458b:	48 8d 85 38 fb ff ff 	lea    -0x4c8(%rbp),%rax
   14592:	48 89 85 50 ff ff ff 	mov    %rax,-0xb0(%rbp)
   14599:	48 8d 85 38 fb ff ff 	lea    -0x4c8(%rbp),%rax
   145a0:	48 89 85 58 ff ff ff 	mov    %rax,-0xa8(%rbp)
   145a7:	48 c7 85 60 ff ff ff 	movq   $0x0,-0xa0(%rbp)
   145ae:	00 00 00 00 
   145b2:	48 8d 85 38 fb ff ff 	lea    -0x4c8(%rbp),%rax
   145b9:	48 89 85 68 ff ff ff 	mov    %rax,-0x98(%rbp)
   145c0:	48 8d 85 38 fb ff ff 	lea    -0x4c8(%rbp),%rax
   145c7:	48 89 85 70 ff ff ff 	mov    %rax,-0x90(%rbp)
   145ce:	48 8d 85 38 fb ff ff 	lea    -0x4c8(%rbp),%rax
   145d5:	48 89 85 78 ff ff ff 	mov    %rax,-0x88(%rbp)
   145dc:	48 8d 85 38 fb ff ff 	lea    -0x4c8(%rbp),%rax
   145e3:	48 89 45 80          	mov    %rax,-0x80(%rbp)
   145e7:	48 8d 85 38 fb ff ff 	lea    -0x4c8(%rbp),%rax
   145ee:	48 89 45 88          	mov    %rax,-0x78(%rbp)
   145f2:	48 8d 85 38 fb ff ff 	lea    -0x4c8(%rbp),%rax
   145f9:	48 89 45 90          	mov    %rax,-0x70(%rbp)
   145fd:	48 8d 85 38 fb ff ff 	lea    -0x4c8(%rbp),%rax
   14604:	48 89 45 98          	mov    %rax,-0x68(%rbp)
   14608:	48 8d 85 38 fb ff ff 	lea    -0x4c8(%rbp),%rax
   1460f:	48 89 45 a0          	mov    %rax,-0x60(%rbp)
   14613:	48 8d 85 38 fb ff ff 	lea    -0x4c8(%rbp),%rax
   1461a:	48 89 45 a8          	mov    %rax,-0x58(%rbp)
   1461e:	48 8d 85 38 fb ff ff 	lea    -0x4c8(%rbp),%rax
   14625:	48 89 45 b0          	mov    %rax,-0x50(%rbp)
   14629:	48 8d 85 38 fb ff ff 	lea    -0x4c8(%rbp),%rax
   14630:	48 89 45 b8          	mov    %rax,-0x48(%rbp)
   14634:	48 8d 85 38 fb ff ff 	lea    -0x4c8(%rbp),%rax
   1463b:	48 89 45 c0          	mov    %rax,-0x40(%rbp)
   1463f:	48 c7 45 c8 00 00 00 	movq   $0x0,-0x38(%rbp)
   14646:	00 
   14647:	48 8d 85 38 fb ff ff 	lea    -0x4c8(%rbp),%rax
   1464e:	48 89 45 d0          	mov    %rax,-0x30(%rbp)
   14652:	48 8d 85 38 fb ff ff 	lea    -0x4c8(%rbp),%rax
   14659:	48 89 45 d8          	mov    %rax,-0x28(%rbp)
   1465d:	48 8d 85 38 fb ff ff 	lea    -0x4c8(%rbp),%rax
   14664:	48 89 45 e0          	mov    %rax,-0x20(%rbp)
   14668:	48 8d 85 38 fb ff ff 	lea    -0x4c8(%rbp),%rax
   1466f:	48 89 45 e8          	mov    %rax,-0x18(%rbp)
   14673:	48 c7 45 f0 00 00 00 	movq   $0x0,-0x10(%rbp)
   1467a:	00 
   1467b:	48 c7 85 40 fb ff ff 	movq   $0x0,-0x4c0(%rbp)
   14682:	00 00 00 00 
   14686:	48 8d 85 20 fd ff ff 	lea    -0x2e0(%rbp),%rax
   1468d:	48 83 c0 08          	add    $0x8,%rax
   14691:	48 89 85 48 fb ff ff 	mov    %rax,-0x4b8(%rbp)
   14698:	48 8d 85 48 fb ff ff 	lea    -0x4b8(%rbp),%rax
   1469f:	48 89 85 d8 fb ff ff 	mov    %rax,-0x428(%rbp)
   146a6:	48 8d 05 7b bb 00 00 	lea    0xbb7b(%rip),%rax        # 20228 <g_852>
   146ad:	48 89 85 50 fb ff ff 	mov    %rax,-0x4b0(%rbp)
   146b4:	48 8d 85 50 fb ff ff 	lea    -0x4b0(%rbp),%rax
   146bb:	48 89 85 e0 fb ff ff 	mov    %rax,-0x420(%rbp)
   146c2:	48 b8 a6 17 00 34 d2 	movabs $0xf1f41ed2340017a6,%rax
   146c9:	1e f4 f1 
   146cc:	48 89 85 e8 fb ff ff 	mov    %rax,-0x418(%rbp)
   146d3:	48 c7 85 f0 fb ff ff 	movq   $0x0,-0x410(%rbp)
   146da:	00 00 00 00 
   146de:	c7 85 70 fd ff ff 5d 	movl   $0x7636dc5d,-0x290(%rbp)
   146e5:	dc 36 76 
   146e8:	c7 85 74 fd ff ff 5d 	movl   $0x7636dc5d,-0x28c(%rbp)
   146ef:	dc 36 76 
   146f2:	c7 85 78 fd ff ff ff 	movl   $0xffffffff,-0x288(%rbp)
   146f9:	ff ff ff 
   146fc:	c7 85 7c fd ff ff ff 	movl   $0xffffffff,-0x284(%rbp)
   14703:	ff ff ff 
   14706:	c7 85 80 fd ff ff 01 	movl   $0x1,-0x280(%rbp)
   1470d:	00 00 00 
   14710:	c7 85 84 fd ff ff b3 	movl   $0x60869cb3,-0x27c(%rbp)
   14717:	9c 86 60 
   1471a:	c7 85 88 fd ff ff 01 	movl   $0x1,-0x278(%rbp)
   14721:	00 00 00 
   14724:	c7 85 8c fd ff ff ff 	movl   $0xffffffff,-0x274(%rbp)
   1472b:	ff ff ff 
   1472e:	c7 85 90 fd ff ff b3 	movl   $0x60869cb3,-0x270(%rbp)
   14735:	9c 86 60 
   14738:	c7 85 94 fd ff ff 95 	movl   $0x93bdb095,-0x26c(%rbp)
   1473f:	b0 bd 93 
   14742:	c7 85 98 fd ff ff 95 	movl   $0x93bdb095,-0x268(%rbp)
   14749:	b0 bd 93 
   1474c:	c7 85 9c fd ff ff b3 	movl   $0x60869cb3,-0x264(%rbp)
   14753:	9c 86 60 
   14756:	c7 85 a0 fd ff ff ff 	movl   $0xffffffff,-0x260(%rbp)
   1475d:	ff ff ff 
   14760:	c7 85 a4 fd ff ff 01 	movl   $0x1,-0x25c(%rbp)
   14767:	00 00 00 
   1476a:	c7 85 a8 fd ff ff b3 	movl   $0x60869cb3,-0x258(%rbp)
   14771:	9c 86 60 
   14774:	c7 85 ac fd ff ff 01 	movl   $0x1,-0x254(%rbp)
   1477b:	00 00 00 
   1477e:	c7 85 b0 fd ff ff ff 	movl   $0xffffffff,-0x250(%rbp)
   14785:	ff ff ff 
   14788:	c7 85 b4 fd ff ff b3 	movl   $0x60869cb3,-0x24c(%rbp)
   1478f:	9c 86 60 
   14792:	c7 85 b8 fd ff ff 95 	movl   $0x93bdb095,-0x248(%rbp)
   14799:	b0 bd 93 
   1479c:	c7 85 bc fd ff ff 95 	movl   $0x93bdb095,-0x244(%rbp)
   147a3:	b0 bd 93 
   147a6:	c7 85 c0 fd ff ff b3 	movl   $0x60869cb3,-0x240(%rbp)
   147ad:	9c 86 60 
   147b0:	c7 85 c4 fd ff ff ff 	movl   $0xffffffff,-0x23c(%rbp)
   147b7:	ff ff ff 
   147ba:	c7 85 c8 fd ff ff 01 	movl   $0x1,-0x238(%rbp)
   147c1:	00 00 00 
   147c4:	c7 85 cc fd ff ff b3 	movl   $0x60869cb3,-0x234(%rbp)
   147cb:	9c 86 60 
   147ce:	c7 85 d0 fd ff ff 01 	movl   $0x1,-0x230(%rbp)
   147d5:	00 00 00 
   147d8:	c7 85 d4 fd ff ff ff 	movl   $0xffffffff,-0x22c(%rbp)
   147df:	ff ff ff 
   147e2:	c7 85 d8 fd ff ff b3 	movl   $0x60869cb3,-0x228(%rbp)
   147e9:	9c 86 60 
   147ec:	c7 85 dc fd ff ff 95 	movl   $0x93bdb095,-0x224(%rbp)
   147f3:	b0 bd 93 
   147f6:	c7 85 e0 fd ff ff 95 	movl   $0x93bdb095,-0x220(%rbp)
   147fd:	b0 bd 93 
   14800:	c7 85 e4 fd ff ff b3 	movl   $0x60869cb3,-0x21c(%rbp)
   14807:	9c 86 60 
   1480a:	c7 85 e8 fd ff ff ff 	movl   $0xffffffff,-0x218(%rbp)
   14811:	ff ff ff 
   14814:	c7 85 ec fd ff ff 01 	movl   $0x1,-0x214(%rbp)
   1481b:	00 00 00 
   1481e:	c7 85 f0 fd ff ff b3 	movl   $0x60869cb3,-0x210(%rbp)
   14825:	9c 86 60 
   14828:	c7 85 f4 fd ff ff 01 	movl   $0x1,-0x20c(%rbp)
   1482f:	00 00 00 
   14832:	c7 85 f8 fd ff ff ff 	movl   $0xffffffff,-0x208(%rbp)
   14839:	ff ff ff 
   1483c:	c7 85 14 fb ff ff a1 	movl   $0xf99f90a1,-0x4ec(%rbp)
   14843:	90 9f f9 
   14846:	66 c7 85 f6 fa ff ff 	movw   $0xfffa,-0x50a(%rbp)
   1484d:	fa ff 
   1484f:	c6 85 f3 fa ff ff 27 	movb   $0x27,-0x50d(%rbp)
   14856:	c7 85 fc fa ff ff 00 	movl   $0x0,-0x504(%rbp)
   1485d:	00 00 00 
   14860:	eb 1e                	jmp    14880 <func_29+0xac0>
   14862:	8b 85 fc fa ff ff    	mov    -0x504(%rbp),%eax
   14868:	48 98                	cltq   
   1486a:	48 8d 15 95 8c 00 00 	lea    0x8c95(%rip),%rdx        # 1d506 <g_677>
   14871:	48 89 94 c5 f8 fb ff 	mov    %rdx,-0x408(%rbp,%rax,8)
   14878:	ff 
   14879:	83 85 fc fa ff ff 01 	addl   $0x1,-0x504(%rbp)
   14880:	83 bd fc fa ff ff 00 	cmpl   $0x0,-0x504(%rbp)
   14887:	7e d9                	jle    14862 <func_29+0xaa2>
   14889:	c7 85 fc fa ff ff 00 	movl   $0x0,-0x504(%rbp)
   14890:	00 00 00 
   14893:	eb 1e                	jmp    148b3 <func_29+0xaf3>
   14895:	8b 85 fc fa ff ff    	mov    -0x504(%rbp),%eax
   1489b:	48 98                	cltq   
   1489d:	48 8d 95 40 fb ff ff 	lea    -0x4c0(%rbp),%rdx
   148a4:	48 89 94 c5 20 fd ff 	mov    %rdx,-0x2e0(%rbp,%rax,8)
   148ab:	ff 
   148ac:	83 85 fc fa ff ff 01 	addl   $0x1,-0x504(%rbp)
   148b3:	83 bd fc fa ff ff 08 	cmpl   $0x8,-0x504(%rbp)
   148ba:	7e d9                	jle    14895 <func_29+0xad5>
   148bc:	48 8b 95 28 fb ff ff 	mov    -0x4d8(%rbp),%rdx
   148c3:	48 8b 85 c8 fb ff ff 	mov    -0x438(%rbp),%rax
   148ca:	48 89 10             	mov    %rdx,(%rax)
   148cd:	48 8b 05 4c b9 00 00 	mov    0xb94c(%rip),%rax        # 20220 <g_795>
   148d4:	48 8b 95 c8 fb ff ff 	mov    -0x438(%rbp),%rdx
   148db:	48 8b 12             	mov    (%rdx),%rdx
   148de:	48 89 10             	mov    %rdx,(%rax)
   148e1:	0f b6 85 ec fa ff ff 	movzbl -0x514(%rbp),%eax
   148e8:	83 c0 01             	add    $0x1,%eax
   148eb:	88 85 ec fa ff ff    	mov    %al,-0x514(%rbp)
   148f1:	80 bd ec fa ff ff 05 	cmpb   $0x5,-0x514(%rbp)
   148f8:	0f 8f c6 f8 ff ff    	jg     141c4 <func_29+0x404>
   148fe:	8b 85 e0 fa ff ff    	mov    -0x520(%rbp),%eax
   14904:	48 8b 4d f8          	mov    -0x8(%rbp),%rcx
   14908:	64 48 33 0c 25 28 00 	xor    %fs:0x28,%rcx
   1490f:	00 00 
   14911:	74 05                	je     14918 <func_29+0xb58>
   14913:	e8 58 37 ff ff       	callq  8070 <__stack_chk_fail@plt>
   14918:	c9                   	leaveq 
   14919:	c3                   	retq   

000000000001491a <func_34>:
   1491a:	f3 0f 1e fa          	endbr64 
   1491e:	55                   	push   %rbp
   1491f:	48 89 e5             	mov    %rsp,%rbp
   14922:	48 83 ec 18          	sub    $0x18,%rsp
   14926:	89 7d fc             	mov    %edi,-0x4(%rbp)
   14929:	48 89 75 f0          	mov    %rsi,-0x10(%rbp)
   1492d:	89 55 f8             	mov    %edx,-0x8(%rbp)
   14930:	89 c8                	mov    %ecx,%eax
   14932:	44 89 c2             	mov    %r8d,%edx
   14935:	66 89 45 ec          	mov    %ax,-0x14(%rbp)
   14939:	89 d0                	mov    %edx,%eax
   1493b:	66 89 45 e8          	mov    %ax,-0x18(%rbp)
   1493f:	48 c7 45 f0 00 00 00 	movq   $0x0,-0x10(%rbp)
   14946:	00 
   14947:	eb 2c                	jmp    14975 <func_34+0x5b>
   14949:	48 8b 05 00 b4 00 00 	mov    0xb400(%rip),%rax        # 1fd50 <g_688>
   14950:	8b 10                	mov    (%rax),%edx
   14952:	89 d1                	mov    %edx,%ecx
   14954:	8b 55 f0             	mov    -0x10(%rbp),%edx
   14957:	09 ca                	or     %ecx,%edx
   14959:	89 10                	mov    %edx,(%rax)
   1495b:	48 8b 45 f0          	mov    -0x10(%rbp),%rax
   1495f:	0f b7 c0             	movzwl %ax,%eax
   14962:	be 09 00 00 00       	mov    $0x9,%esi
   14967:	89 c7                	mov    %eax,%edi
   14969:	e8 b1 43 ff ff       	callq  8d1f <safe_sub_func_uint16_t_u_u>
   1496e:	0f b7 c0             	movzwl %ax,%eax
   14971:	48 89 45 f0          	mov    %rax,-0x10(%rbp)
   14975:	48 8b 45 f0          	mov    -0x10(%rbp),%rax
   14979:	48 83 f8 e2          	cmp    $0xffffffffffffffe2,%rax
   1497d:	7c ca                	jl     14949 <func_34+0x2f>
   1497f:	48 8b 45 f0          	mov    -0x10(%rbp),%rax
   14983:	c9                   	leaveq 
   14984:	c3                   	retq   

0000000000014985 <func_45>:
   14985:	f3 0f 1e fa          	endbr64 
   14989:	55                   	push   %rbp
   1498a:	48 89 e5             	mov    %rsp,%rbp
   1498d:	41 54                	push   %r12
   1498f:	53                   	push   %rbx
   14990:	48 81 ec d0 0f 00 00 	sub    $0xfd0,%rsp
   14997:	89 bd 3c f0 ff ff    	mov    %edi,-0xfc4(%rbp)
   1499d:	48 89 b5 30 f0 ff ff 	mov    %rsi,-0xfd0(%rbp)
   149a4:	48 89 95 28 f0 ff ff 	mov    %rdx,-0xfd8(%rbp)
   149ab:	64 48 8b 04 25 28 00 	mov    %fs:0x28,%rax
   149b2:	00 00 
   149b4:	48 89 45 e8          	mov    %rax,-0x18(%rbp)
   149b8:	31 c0                	xor    %eax,%eax
   149ba:	48 c7 85 98 f0 ff ff 	movq   $0x0,-0xf68(%rbp)
   149c1:	00 00 00 00 
   149c5:	c7 85 54 f0 ff ff c5 	movl   $0x8f5d08c5,-0xfac(%rbp)
   149cc:	08 5d 8f 
   149cf:	c7 85 58 f0 ff ff 01 	movl   $0x1,-0xfa8(%rbp)
   149d6:	00 00 00 
   149d9:	48 c7 85 a0 f0 ff ff 	movq   $0x0,-0xf60(%rbp)
   149e0:	00 00 00 00 
   149e4:	48 c7 85 88 f0 ff ff 	movq   $0x0,-0xf78(%rbp)
   149eb:	00 00 00 00 
   149ef:	48 8d 05 42 86 00 00 	lea    0x8642(%rip),%rax        # 1d038 <g_91>
   149f6:	48 89 85 a8 f0 ff ff 	mov    %rax,-0xf58(%rbp)
   149fd:	c7 85 5c f0 ff ff 0b 	movl   $0xcae8350b,-0xfa4(%rbp)
   14a04:	35 e8 ca 
   14a07:	48 8d 85 58 f0 ff ff 	lea    -0xfa8(%rbp),%rax
   14a0e:	48 89 85 b0 f0 ff ff 	mov    %rax,-0xf50(%rbp)
   14a15:	66 c7 85 50 f0 ff ff 	movw   $0x77b1,-0xfb0(%rbp)
   14a1c:	b1 77 
   14a1e:	c7 85 60 f0 ff ff 00 	movl   $0x0,-0xfa0(%rbp)
   14a25:	00 00 00 
   14a28:	eb 1a                	jmp    14a44 <func_45+0xbf>
   14a2a:	8b 85 60 f0 ff ff    	mov    -0xfa0(%rbp),%eax
   14a30:	48 98                	cltq   
   14a32:	c7 84 85 58 f1 ff ff 	movl   $0x1,-0xea8(%rbp,%rax,4)
   14a39:	01 00 00 00 
   14a3d:	83 85 60 f0 ff ff 01 	addl   $0x1,-0xfa0(%rbp)
   14a44:	83 bd 60 f0 ff ff 01 	cmpl   $0x1,-0xfa0(%rbp)
   14a4b:	7e dd                	jle    14a2a <func_45+0xa5>
   14a4d:	48 c7 85 28 f0 ff ff 	movq   $0x0,-0xfd8(%rbp)
   14a54:	00 00 00 00 
   14a58:	e9 89 17 00 00       	jmpq   161e6 <func_45+0x1861>
   14a5d:	48 8d 05 e2 85 00 00 	lea    0x85e2(%rip),%rax        # 1d046 <g_113+0x6>
   14a64:	48 89 85 e8 f0 ff ff 	mov    %rax,-0xf18(%rbp)
   14a6b:	48 8d 05 7e 8a 00 00 	lea    0x8a7e(%rip),%rax        # 1d4f0 <g_397>
   14a72:	48 89 85 f0 f0 ff ff 	mov    %rax,-0xf10(%rbp)
   14a79:	48 8d 85 60 f8 ff ff 	lea    -0x7a0(%rbp),%rax
   14a80:	48 8d 15 b9 a5 00 00 	lea    0xa5b9(%rip),%rdx        # 1f040 <g_2683+0x1938>
   14a87:	b9 f0 00 00 00       	mov    $0xf0,%ecx
   14a8c:	48 89 c7             	mov    %rax,%rdi
   14a8f:	48 89 d6             	mov    %rdx,%rsi
   14a92:	f3 48 a5             	rep movsq %ds:(%rsi),%es:(%rdi)
   14a95:	48 8d 05 4c 8a 00 00 	lea    0x8a4c(%rip),%rax        # 1d4e8 <g_292>
   14a9c:	48 89 85 f8 f0 ff ff 	mov    %rax,-0xf08(%rbp)
   14aa3:	48 8d 05 a8 85 00 00 	lea    0x85a8(%rip),%rax        # 1d052 <g_126>
   14aaa:	48 89 85 00 f1 ff ff 	mov    %rax,-0xf00(%rbp)
   14ab1:	48 8d 05 44 8a 00 00 	lea    0x8a44(%rip),%rax        # 1d4fc <g_443>
   14ab8:	48 89 85 08 f1 ff ff 	mov    %rax,-0xef8(%rbp)
   14abf:	c7 85 64 f0 ff ff 02 	movl   $0x2,-0xf9c(%rbp)
   14ac6:	00 00 00 
   14ac9:	c7 85 78 f0 ff ff 13 	movl   $0x41aad813,-0xf88(%rbp)
   14ad0:	d8 aa 41 
   14ad3:	c7 85 7c f0 ff ff 00 	movl   $0x0,-0xf84(%rbp)
   14ada:	00 00 00 
   14add:	48 8b 85 28 f0 ff ff 	mov    -0xfd8(%rbp),%rax
   14ae4:	8b 84 85 58 f1 ff ff 	mov    -0xea8(%rbp,%rax,4),%eax
   14aeb:	89 c2                	mov    %eax,%edx
   14aed:	48 8b 85 e8 f0 ff ff 	mov    -0xf18(%rbp),%rax
   14af4:	66 89 10             	mov    %dx,(%rax)
   14af7:	8b 05 83 89 00 00    	mov    0x8983(%rip),%eax        # 1d480 <g_215+0xc0>
   14afd:	0f b7 c0             	movzwl %ax,%eax
   14b00:	be 01 00 00 00       	mov    $0x1,%esi
   14b05:	89 c7                	mov    %eax,%edi
   14b07:	e8 6e 43 ff ff       	callq  8e7a <safe_rshift_func_uint16_t_u_u>
   14b0c:	0f b7 d8             	movzwl %ax,%ebx
   14b0f:	48 c7 c0 ff ff ff ff 	mov    $0xffffffffffffffff,%rax
   14b16:	41 89 c4             	mov    %eax,%r12d
   14b19:	bf 48 00 00 00       	mov    $0x48,%edi
   14b1e:	e8 9c 36 ff ff       	callq  81bf <safe_unary_minus_func_int8_t_s>
   14b23:	48 0f be d0          	movsbq %al,%rdx
   14b27:	48 8b 05 c2 89 00 00 	mov    0x89c2(%rip),%rax        # 1d4f0 <g_397>
   14b2e:	48 39 c2             	cmp    %rax,%rdx
   14b31:	0f 9e c0             	setle  %al
   14b34:	0f b6 c0             	movzbl %al,%eax
   14b37:	be 6f d5 00 00       	mov    $0xd56f,%esi
   14b3c:	89 c7                	mov    %eax,%edi
   14b3e:	e8 fa 41 ff ff       	callq  8d3d <safe_mul_func_uint16_t_u_u>
   14b43:	66 85 c0             	test   %ax,%ax
   14b46:	74 07                	je     14b4f <func_45+0x1ca>
   14b48:	b8 01 00 00 00       	mov    $0x1,%eax
   14b4d:	eb 05                	jmp    14b54 <func_45+0x1cf>
   14b4f:	b8 00 00 00 00       	mov    $0x0,%eax
   14b54:	89 c2                	mov    %eax,%edx
   14b56:	8b 85 5c f1 ff ff    	mov    -0xea4(%rbp),%eax
   14b5c:	09 d0                	or     %edx,%eax
   14b5e:	0f b6 d0             	movzbl %al,%edx
   14b61:	8b 85 3c f0 ff ff    	mov    -0xfc4(%rbp),%eax
   14b67:	0f b6 c0             	movzbl %al,%eax
   14b6a:	89 d6                	mov    %edx,%esi
   14b6c:	89 c7                	mov    %eax,%edi
   14b6e:	e8 e7 3f ff ff       	callq  8b5a <safe_add_func_uint8_t_u_u>
   14b73:	0f b6 c0             	movzbl %al,%eax
   14b76:	44 89 e6             	mov    %r12d,%esi
   14b79:	89 c7                	mov    %eax,%edi
   14b7b:	e8 86 42 ff ff       	callq  8e06 <safe_lshift_func_uint16_t_u_u>
   14b80:	0f b7 d0             	movzwl %ax,%edx
   14b83:	48 8b 85 28 f0 ff ff 	mov    -0xfd8(%rbp),%rax
   14b8a:	48 89 d6             	mov    %rdx,%rsi
   14b8d:	48 89 c7             	mov    %rax,%rdi
   14b90:	e8 b6 44 ff ff       	callq  904b <safe_sub_func_uint64_t_u_u>
   14b95:	48 f7 d0             	not    %rax
   14b98:	48 21 c3             	and    %rax,%rbx
   14b9b:	48 89 da             	mov    %rbx,%rdx
   14b9e:	8b 85 3c f0 ff ff    	mov    -0xfc4(%rbp),%eax
   14ba4:	48 98                	cltq   
   14ba6:	48 39 c2             	cmp    %rax,%rdx
   14ba9:	0f 94 c0             	sete   %al
   14bac:	0f b6 d0             	movzbl %al,%edx
   14baf:	8b 85 5c f1 ff ff    	mov    -0xea4(%rbp),%eax
   14bb5:	39 c2                	cmp    %eax,%edx
   14bb7:	48 8b 85 28 f0 ff ff 	mov    -0xfd8(%rbp),%rax
   14bbe:	8b 84 85 58 f1 ff ff 	mov    -0xea8(%rbp,%rax,4),%eax
   14bc5:	89 c7                	mov    %eax,%edi
   14bc7:	e8 e4 19 00 00       	callq  165b0 <func_54>
   14bcc:	48 8b 05 15 b1 00 00 	mov    0xb115(%rip),%rax        # 1fce8 <g_258>
   14bd3:	48 8d 95 3c f0 ff ff 	lea    -0xfc4(%rbp),%rdx
   14bda:	48 89 10             	mov    %rdx,(%rax)
   14bdd:	8b 85 64 f0 ff ff    	mov    -0xf9c(%rbp),%eax
   14be3:	0f be d8             	movsbl %al,%ebx
   14be6:	8b 05 0c 89 00 00    	mov    0x890c(%rip),%eax        # 1d4f8 <g_429>
   14bec:	48 8b 85 28 f0 ff ff 	mov    -0xfd8(%rbp),%rax
   14bf3:	41 89 c4             	mov    %eax,%r12d
   14bf6:	be 3e f9 a0 03       	mov    $0x3a0f93e,%esi
   14bfb:	bf 8d a5 b5 95       	mov    $0x95b5a58d,%edi
   14c00:	e8 b1 39 ff ff       	callq  85b6 <safe_add_func_int32_t_s_s>
   14c05:	48 8b 85 28 f0 ff ff 	mov    -0xfd8(%rbp),%rax
   14c0c:	8b 84 85 58 f1 ff ff 	mov    -0xea8(%rbp,%rax,4),%eax
   14c13:	83 c8 01             	or     $0x1,%eax
   14c16:	48 63 d0             	movslq %eax,%rdx
   14c19:	48 8b 85 f0 f0 ff ff 	mov    -0xf10(%rbp),%rax
   14c20:	48 89 10             	mov    %rdx,(%rax)
   14c23:	48 8b 85 f0 f0 ff ff 	mov    -0xf10(%rbp),%rax
   14c2a:	48 8b 00             	mov    (%rax),%rax
   14c2d:	48 39 85 28 f0 ff ff 	cmp    %rax,-0xfd8(%rbp)
   14c34:	0f 9d c0             	setge  %al
   14c37:	0f b6 d0             	movzbl %al,%edx
   14c3a:	8b 85 3c f0 ff ff    	mov    -0xfc4(%rbp),%eax
   14c40:	39 c2                	cmp    %eax,%edx
   14c42:	0f 94 c0             	sete   %al
   14c45:	0f b6 d0             	movzbl %al,%edx
   14c48:	0f b7 05 59 87 00 00 	movzwl 0x8759(%rip),%eax        # 1d3a8 <g_177>
   14c4f:	98                   	cwtl   
   14c50:	39 c2                	cmp    %eax,%edx
   14c52:	0f 9f c0             	setg   %al
   14c55:	0f b6 c0             	movzbl %al,%eax
   14c58:	44 89 e6             	mov    %r12d,%esi
   14c5b:	89 c7                	mov    %eax,%edi
   14c5d:	e8 7f 38 ff ff       	callq  84e1 <safe_lshift_func_int16_t_s_u>
   14c62:	0f bf d0             	movswl %ax,%edx
   14c65:	8b 85 54 f0 ff ff    	mov    -0xfac(%rbp),%eax
   14c6b:	31 d0                	xor    %edx,%eax
   14c6d:	89 85 54 f0 ff ff    	mov    %eax,-0xfac(%rbp)
   14c73:	8b 85 54 f0 ff ff    	mov    -0xfac(%rbp),%eax
   14c79:	85 c0                	test   %eax,%eax
   14c7b:	74 11                	je     14c8e <func_45+0x309>
   14c7d:	8b 85 3c f0 ff ff    	mov    -0xfc4(%rbp),%eax
   14c83:	85 c0                	test   %eax,%eax
   14c85:	74 07                	je     14c8e <func_45+0x309>
   14c87:	b8 01 00 00 00       	mov    $0x1,%eax
   14c8c:	eb 05                	jmp    14c93 <func_45+0x30e>
   14c8e:	b8 00 00 00 00       	mov    $0x0,%eax
   14c93:	89 85 58 f0 ff ff    	mov    %eax,-0xfa8(%rbp)
   14c99:	8b 85 58 f0 ff ff    	mov    -0xfa8(%rbp),%eax
   14c9f:	89 c2                	mov    %eax,%edx
   14ca1:	8b 85 5c f1 ff ff    	mov    -0xea4(%rbp),%eax
   14ca7:	09 d0                	or     %edx,%eax
   14ca9:	0f be d0             	movsbl %al,%edx
   14cac:	48 8b 85 28 f0 ff ff 	mov    -0xfd8(%rbp),%rax
   14cb3:	0f be c0             	movsbl %al,%eax
   14cb6:	89 d6                	mov    %edx,%esi
   14cb8:	89 c7                	mov    %eax,%edi
   14cba:	e8 72 35 ff ff       	callq  8231 <safe_mod_func_int8_t_s_s>
   14cbf:	66 0f be d0          	movsbw %al,%dx
   14cc3:	48 8b 85 f8 f0 ff ff 	mov    -0xf08(%rbp),%rax
   14cca:	66 89 10             	mov    %dx,(%rax)
   14ccd:	48 8b 85 f8 f0 ff ff 	mov    -0xf08(%rbp),%rax
   14cd4:	0f b7 00             	movzwl (%rax),%eax
   14cd7:	66 c1 e8 0f          	shr    $0xf,%ax
   14cdb:	0f b6 c0             	movzbl %al,%eax
   14cde:	48 39 85 28 f0 ff ff 	cmp    %rax,-0xfd8(%rbp)
   14ce5:	0f 9c c0             	setl   %al
   14ce8:	0f b6 c0             	movzbl %al,%eax
   14ceb:	48 39 85 28 f0 ff ff 	cmp    %rax,-0xfd8(%rbp)
   14cf2:	0f 9f c2             	setg   %dl
   14cf5:	48 8b 05 cc af 00 00 	mov    0xafcc(%rip),%rax        # 1fcc8 <g_180>
   14cfc:	0f b6 d2             	movzbl %dl,%edx
   14cff:	89 10                	mov    %edx,(%rax)
   14d01:	48 8b 85 00 f1 ff ff 	mov    -0xf00(%rbp),%rax
   14d08:	c6 00 f9             	movb   $0xf9,(%rax)
   14d0b:	48 8b 85 00 f1 ff ff 	mov    -0xf00(%rbp),%rax
   14d12:	0f b6 10             	movzbl (%rax),%edx
   14d15:	48 8b 85 08 f1 ff ff 	mov    -0xef8(%rbp),%rax
   14d1c:	88 10                	mov    %dl,(%rax)
   14d1e:	48 8b 85 08 f1 ff ff 	mov    -0xef8(%rbp),%rax
   14d25:	0f b6 00             	movzbl (%rax),%eax
   14d28:	0f be c0             	movsbl %al,%eax
   14d2b:	89 de                	mov    %ebx,%esi
   14d2d:	89 c7                	mov    %eax,%edi
   14d2f:	e8 de 34 ff ff       	callq  8212 <safe_mul_func_int8_t_s_s>
   14d34:	48 0f be c0          	movsbq %al,%rax
   14d38:	48 39 85 28 f0 ff ff 	cmp    %rax,-0xfd8(%rbp)
   14d3f:	7f 2f                	jg     14d70 <func_45+0x3eb>
   14d41:	48 8d 05 f0 82 00 00 	lea    0x82f0(%rip),%rax        # 1d038 <g_91>
   14d48:	48 89 85 90 f0 ff ff 	mov    %rax,-0xf70(%rbp)
   14d4f:	48 8d 85 90 f0 ff ff 	lea    -0xf70(%rbp),%rax
   14d56:	48 89 85 30 f1 ff ff 	mov    %rax,-0xed0(%rbp)
   14d5d:	48 8b 85 30 f1 ff ff 	mov    -0xed0(%rbp),%rax
   14d64:	48 89 85 a0 f0 ff ff 	mov    %rax,-0xf60(%rbp)
   14d6b:	e9 d2 06 00 00       	jmpq   15442 <func_45+0xabd>
   14d70:	c7 85 80 f0 ff ff 04 	movl   $0x4,-0xf80(%rbp)
   14d77:	00 00 00 
   14d7a:	66 c7 05 25 86 00 00 	movw   $0x0,0x8625(%rip)        # 1d3a8 <g_177>
   14d81:	00 00 
   14d83:	e9 a9 06 00 00       	jmpq   15431 <func_45+0xaac>
   14d88:	48 8d 05 e9 bd 00 00 	lea    0xbde9(%rip),%rax        # 20b78 <g_474>
   14d8f:	48 89 85 10 f1 ff ff 	mov    %rax,-0xef0(%rbp)
   14d96:	c7 85 64 f0 ff ff 00 	movl   $0x0,-0xf9c(%rbp)
   14d9d:	00 00 00 
   14da0:	e9 60 06 00 00       	jmpq   15405 <func_45+0xa80>
   14da5:	48 8d 85 60 f8 ff ff 	lea    -0x7a0(%rbp),%rax
   14dac:	48 05 78 05 00 00    	add    $0x578,%rax
   14db2:	48 89 85 a0 f1 ff ff 	mov    %rax,-0xe60(%rbp)
   14db9:	48 8d 85 60 f8 ff ff 	lea    -0x7a0(%rbp),%rax
   14dc0:	48 05 78 05 00 00    	add    $0x578,%rax
   14dc6:	48 89 85 a8 f1 ff ff 	mov    %rax,-0xe58(%rbp)
   14dcd:	48 8d 85 60 f8 ff ff 	lea    -0x7a0(%rbp),%rax
   14dd4:	48 05 98 00 00 00    	add    $0x98,%rax
   14dda:	48 89 85 b0 f1 ff ff 	mov    %rax,-0xe50(%rbp)
   14de1:	48 c7 85 b8 f1 ff ff 	movq   $0x0,-0xe48(%rbp)
   14de8:	00 00 00 00 
   14dec:	48 8d 85 60 f8 ff ff 	lea    -0x7a0(%rbp),%rax
   14df3:	48 05 98 00 00 00    	add    $0x98,%rax
   14df9:	48 89 85 c0 f1 ff ff 	mov    %rax,-0xe40(%rbp)
   14e00:	48 8d 85 60 f8 ff ff 	lea    -0x7a0(%rbp),%rax
   14e07:	48 05 78 05 00 00    	add    $0x578,%rax
   14e0d:	48 89 85 c8 f1 ff ff 	mov    %rax,-0xe38(%rbp)
   14e14:	48 8d 85 60 f8 ff ff 	lea    -0x7a0(%rbp),%rax
   14e1b:	48 05 78 05 00 00    	add    $0x578,%rax
   14e21:	48 89 85 d0 f1 ff ff 	mov    %rax,-0xe30(%rbp)
   14e28:	48 8d 85 60 f8 ff ff 	lea    -0x7a0(%rbp),%rax
   14e2f:	48 05 98 00 00 00    	add    $0x98,%rax
   14e35:	48 89 85 d8 f1 ff ff 	mov    %rax,-0xe28(%rbp)
   14e3c:	48 c7 85 e0 f1 ff ff 	movq   $0x0,-0xe20(%rbp)
   14e43:	00 00 00 00 
   14e47:	48 8d 85 60 f8 ff ff 	lea    -0x7a0(%rbp),%rax
   14e4e:	48 05 98 00 00 00    	add    $0x98,%rax
   14e54:	48 89 85 e8 f1 ff ff 	mov    %rax,-0xe18(%rbp)
   14e5b:	48 8d 85 60 f8 ff ff 	lea    -0x7a0(%rbp),%rax
   14e62:	48 05 78 05 00 00    	add    $0x578,%rax
   14e68:	48 89 85 f0 f1 ff ff 	mov    %rax,-0xe10(%rbp)
   14e6f:	48 8d 85 60 f8 ff ff 	lea    -0x7a0(%rbp),%rax
   14e76:	48 05 78 05 00 00    	add    $0x578,%rax
   14e7c:	48 89 85 f8 f1 ff ff 	mov    %rax,-0xe08(%rbp)
   14e83:	48 8d 85 60 f8 ff ff 	lea    -0x7a0(%rbp),%rax
   14e8a:	48 05 98 00 00 00    	add    $0x98,%rax
   14e90:	48 89 85 00 f2 ff ff 	mov    %rax,-0xe00(%rbp)
   14e97:	48 c7 85 08 f2 ff ff 	movq   $0x0,-0xdf8(%rbp)
   14e9e:	00 00 00 00 
   14ea2:	48 8d 85 60 f8 ff ff 	lea    -0x7a0(%rbp),%rax
   14ea9:	48 05 98 00 00 00    	add    $0x98,%rax
   14eaf:	48 89 85 10 f2 ff ff 	mov    %rax,-0xdf0(%rbp)
   14eb6:	48 8d 85 60 f8 ff ff 	lea    -0x7a0(%rbp),%rax
   14ebd:	48 05 78 05 00 00    	add    $0x578,%rax
   14ec3:	48 89 85 18 f2 ff ff 	mov    %rax,-0xde8(%rbp)
   14eca:	48 8d 85 60 f8 ff ff 	lea    -0x7a0(%rbp),%rax
   14ed1:	48 05 78 05 00 00    	add    $0x578,%rax
   14ed7:	48 89 85 20 f2 ff ff 	mov    %rax,-0xde0(%rbp)
   14ede:	48 8d 85 60 f8 ff ff 	lea    -0x7a0(%rbp),%rax
   14ee5:	48 05 98 00 00 00    	add    $0x98,%rax
   14eeb:	48 89 85 28 f2 ff ff 	mov    %rax,-0xdd8(%rbp)
   14ef2:	48 c7 85 30 f2 ff ff 	movq   $0x0,-0xdd0(%rbp)
   14ef9:	00 00 00 00 
   14efd:	48 8d 85 60 f8 ff ff 	lea    -0x7a0(%rbp),%rax
   14f04:	48 05 98 00 00 00    	add    $0x98,%rax
   14f0a:	48 89 85 38 f2 ff ff 	mov    %rax,-0xdc8(%rbp)
   14f11:	48 8d 85 60 f8 ff ff 	lea    -0x7a0(%rbp),%rax
   14f18:	48 05 78 05 00 00    	add    $0x578,%rax
   14f1e:	48 89 85 40 f2 ff ff 	mov    %rax,-0xdc0(%rbp)
   14f25:	48 8d 85 60 f8 ff ff 	lea    -0x7a0(%rbp),%rax
   14f2c:	48 05 78 05 00 00    	add    $0x578,%rax
   14f32:	48 89 85 48 f2 ff ff 	mov    %rax,-0xdb8(%rbp)
   14f39:	48 8d 85 60 f8 ff ff 	lea    -0x7a0(%rbp),%rax
   14f40:	48 05 98 00 00 00    	add    $0x98,%rax
   14f46:	48 89 85 50 f2 ff ff 	mov    %rax,-0xdb0(%rbp)
   14f4d:	48 c7 85 58 f2 ff ff 	movq   $0x0,-0xda8(%rbp)
   14f54:	00 00 00 00 
   14f58:	48 8d 85 60 f8 ff ff 	lea    -0x7a0(%rbp),%rax
   14f5f:	48 05 98 00 00 00    	add    $0x98,%rax
   14f65:	48 89 85 60 f2 ff ff 	mov    %rax,-0xda0(%rbp)
   14f6c:	48 8d 85 60 f8 ff ff 	lea    -0x7a0(%rbp),%rax
   14f73:	48 05 78 05 00 00    	add    $0x578,%rax
   14f79:	48 89 85 68 f2 ff ff 	mov    %rax,-0xd98(%rbp)
   14f80:	48 8d 85 60 f8 ff ff 	lea    -0x7a0(%rbp),%rax
   14f87:	48 05 78 05 00 00    	add    $0x578,%rax
   14f8d:	48 89 85 70 f2 ff ff 	mov    %rax,-0xd90(%rbp)
   14f94:	48 8d 85 60 f8 ff ff 	lea    -0x7a0(%rbp),%rax
   14f9b:	48 05 98 00 00 00    	add    $0x98,%rax
   14fa1:	48 89 85 78 f2 ff ff 	mov    %rax,-0xd88(%rbp)
   14fa8:	48 c7 85 80 f2 ff ff 	movq   $0x0,-0xd80(%rbp)
   14faf:	00 00 00 00 
   14fb3:	48 8d 85 60 f8 ff ff 	lea    -0x7a0(%rbp),%rax
   14fba:	48 05 98 00 00 00    	add    $0x98,%rax
   14fc0:	48 89 85 88 f2 ff ff 	mov    %rax,-0xd78(%rbp)
   14fc7:	48 8d 85 60 f8 ff ff 	lea    -0x7a0(%rbp),%rax
   14fce:	48 05 78 05 00 00    	add    $0x578,%rax
   14fd4:	48 89 85 90 f2 ff ff 	mov    %rax,-0xd70(%rbp)
   14fdb:	48 8d 85 60 f8 ff ff 	lea    -0x7a0(%rbp),%rax
   14fe2:	48 05 78 05 00 00    	add    $0x578,%rax
   14fe8:	48 89 85 98 f2 ff ff 	mov    %rax,-0xd68(%rbp)
   14fef:	48 8d 85 60 f8 ff ff 	lea    -0x7a0(%rbp),%rax
   14ff6:	48 05 98 00 00 00    	add    $0x98,%rax
   14ffc:	48 89 85 a0 f2 ff ff 	mov    %rax,-0xd60(%rbp)
   15003:	48 c7 85 a8 f2 ff ff 	movq   $0x0,-0xd58(%rbp)
   1500a:	00 00 00 00 
   1500e:	48 8d 85 60 f8 ff ff 	lea    -0x7a0(%rbp),%rax
   15015:	48 05 98 00 00 00    	add    $0x98,%rax
   1501b:	48 89 85 b0 f2 ff ff 	mov    %rax,-0xd50(%rbp)
   15022:	48 8d 85 60 f8 ff ff 	lea    -0x7a0(%rbp),%rax
   15029:	48 05 78 05 00 00    	add    $0x578,%rax
   1502f:	48 89 85 b8 f2 ff ff 	mov    %rax,-0xd48(%rbp)
   15036:	48 8d 85 60 f8 ff ff 	lea    -0x7a0(%rbp),%rax
   1503d:	48 05 78 05 00 00    	add    $0x578,%rax
   15043:	48 89 85 c0 f2 ff ff 	mov    %rax,-0xd40(%rbp)
   1504a:	48 8d 85 60 f8 ff ff 	lea    -0x7a0(%rbp),%rax
   15051:	48 05 98 00 00 00    	add    $0x98,%rax
   15057:	48 89 85 c8 f2 ff ff 	mov    %rax,-0xd38(%rbp)
   1505e:	48 c7 85 d0 f2 ff ff 	movq   $0x0,-0xd30(%rbp)
   15065:	00 00 00 00 
   15069:	48 8d 85 60 f8 ff ff 	lea    -0x7a0(%rbp),%rax
   15070:	48 05 98 00 00 00    	add    $0x98,%rax
   15076:	48 89 85 d8 f2 ff ff 	mov    %rax,-0xd28(%rbp)
   1507d:	48 c7 05 a8 ac 00 00 	movq   $0x0,0xaca8(%rip)        # 1fd30 <g_451>
   15084:	00 00 00 00 
   15088:	0f b6 05 69 84 00 00 	movzbl 0x8469(%rip),%eax        # 1d4f8 <g_429>
   1508f:	0f be d0             	movsbl %al,%edx
   15092:	48 8b 05 ff 7c 00 00 	mov    0x7cff(%rip),%rax        # 1cd98 <l_452.5093+0x18>
   15099:	48 85 c0             	test   %rax,%rax
   1509c:	0f 94 c0             	sete   %al
   1509f:	0f b6 c8             	movzbl %al,%ecx
   150a2:	8b 85 54 f0 ff ff    	mov    -0xfac(%rbp),%eax
   150a8:	83 f8 04             	cmp    $0x4,%eax
   150ab:	0f 95 c0             	setne  %al
   150ae:	0f b6 c0             	movzbl %al,%eax
   150b1:	39 c1                	cmp    %eax,%ecx
   150b3:	0f 9e c0             	setle  %al
   150b6:	0f b6 c0             	movzbl %al,%eax
   150b9:	89 d3                	mov    %edx,%ebx
   150bb:	09 c3                	or     %eax,%ebx
   150bd:	8b 85 3c f0 ff ff    	mov    -0xfc4(%rbp),%eax
   150c3:	41 89 c4             	mov    %eax,%r12d
   150c6:	48 8b 85 28 f0 ff ff 	mov    -0xfd8(%rbp),%rax
   150cd:	48 83 c0 04          	add    $0x4,%rax
   150d1:	48 8d 14 00          	lea    (%rax,%rax,1),%rdx
   150d5:	48 8d 05 64 7f 00 00 	lea    0x7f64(%rip),%rax        # 1d040 <g_113>
   150dc:	0f b7 04 02          	movzwl (%rdx,%rax,1),%eax
   150e0:	0f b7 d0             	movzwl %ax,%edx
   150e3:	0f b6 05 3a 7f 00 00 	movzbl 0x7f3a(%rip),%eax        # 1d024 <g_28>
   150ea:	84 c0                	test   %al,%al
   150ec:	74 07                	je     150f5 <func_45+0x770>
   150ee:	b8 01 00 00 00       	mov    $0x1,%eax
   150f3:	eb 05                	jmp    150fa <func_45+0x775>
   150f5:	b8 00 00 00 00       	mov    $0x0,%eax
   150fa:	48 98                	cltq   
   150fc:	48 89 d6             	mov    %rdx,%rsi
   150ff:	48 89 c7             	mov    %rax,%rdi
   15102:	e8 a8 3f ff ff       	callq  90af <safe_div_func_uint64_t_u_u>
   15107:	44 31 e0             	xor    %r12d,%eax
   1510a:	0f be c0             	movsbl %al,%eax
   1510d:	be 01 00 00 00       	mov    $0x1,%esi
   15112:	89 c7                	mov    %eax,%edi
   15114:	e8 d9 30 ff ff       	callq  81f2 <safe_sub_func_int8_t_s_s>
   15119:	0f be d0             	movsbl %al,%edx
   1511c:	0f b7 05 23 7f 00 00 	movzwl 0x7f23(%rip),%eax        # 1d046 <g_113+0x6>
   15123:	0f b7 c0             	movzwl %ax,%eax
   15126:	39 c2                	cmp    %eax,%edx
   15128:	0f 9d c0             	setge  %al
   1512b:	0f b6 c0             	movzbl %al,%eax
   1512e:	39 c3                	cmp    %eax,%ebx
   15130:	0f 95 c0             	setne  %al
   15133:	0f b6 d0             	movzbl %al,%edx
   15136:	0f b7 05 0b ba 00 00 	movzwl 0xba0b(%rip),%eax        # 20b48 <g_111>
   1513d:	0f b7 c0             	movzwl %ax,%eax
   15140:	39 c2                	cmp    %eax,%edx
   15142:	0f 9f c0             	setg   %al
   15145:	0f b6 d0             	movzbl %al,%edx
   15148:	48 8b 85 28 f0 ff ff 	mov    -0xfd8(%rbp),%rax
   1514f:	48 83 c0 04          	add    $0x4,%rax
   15153:	48 8d 0c 00          	lea    (%rax,%rax,1),%rcx
   15157:	48 8d 05 e2 7e 00 00 	lea    0x7ee2(%rip),%rax        # 1d040 <g_113>
   1515e:	0f b7 04 01          	movzwl (%rcx,%rax,1),%eax
   15162:	0f b7 c0             	movzwl %ax,%eax
   15165:	89 d6                	mov    %edx,%esi
   15167:	89 c7                	mov    %eax,%edi
   15169:	e8 62 3d ff ff       	callq  8ed0 <safe_sub_func_uint32_t_u_u>
   1516e:	89 c2                	mov    %eax,%edx
   15170:	48 8b 05 51 ab 00 00 	mov    0xab51(%rip),%rax        # 1fcc8 <g_180>
   15177:	89 10                	mov    %edx,(%rax)
   15179:	c7 05 69 83 00 00 00 	movl   $0x0,0x8369(%rip)        # 1d4ec <g_388>
   15180:	00 00 00 
   15183:	e9 67 02 00 00       	jmpq   153ef <func_45+0xa6a>
   15188:	48 8d 05 d1 3e 00 00 	lea    0x3ed1(%rip),%rax        # 19060 <g_468>
   1518f:	48 89 85 90 f0 ff ff 	mov    %rax,-0xf70(%rbp)
   15196:	48 8d 85 90 f0 ff ff 	lea    -0xf70(%rbp),%rax
   1519d:	48 89 85 18 f1 ff ff 	mov    %rax,-0xee8(%rbp)
   151a4:	c7 85 84 f0 ff ff f6 	movl   $0x5233b3f6,-0xf7c(%rbp)
   151ab:	b3 33 52 
   151ae:	48 c7 85 20 f1 ff ff 	movq   $0x0,-0xee0(%rbp)
   151b5:	00 00 00 00 
   151b9:	48 8d 85 58 f0 ff ff 	lea    -0xfa8(%rbp),%rax
   151c0:	48 89 85 28 f1 ff ff 	mov    %rax,-0xed8(%rbp)
   151c7:	48 8b 85 28 f0 ff ff 	mov    -0xfd8(%rbp),%rax
   151ce:	48 83 c0 04          	add    $0x4,%rax
   151d2:	48 8d 14 00          	lea    (%rax,%rax,1),%rdx
   151d6:	48 8d 05 63 7e 00 00 	lea    0x7e63(%rip),%rax        # 1d040 <g_113>
   151dd:	0f b7 04 02          	movzwl (%rdx,%rax,1),%eax
   151e1:	44 0f b7 e0          	movzwl %ax,%r12d
   151e5:	8b 05 01 83 00 00    	mov    0x8301(%rip),%eax        # 1d4ec <g_388>
   151eb:	0f bf d8             	movswl %ax,%ebx
   151ee:	48 8b 85 18 f1 ff ff 	mov    -0xee8(%rbp),%rax
   151f5:	48 8d 15 3c 7e 00 00 	lea    0x7e3c(%rip),%rdx        # 1d038 <g_91>
   151fc:	48 89 10             	mov    %rdx,(%rax)
   151ff:	8b 85 88 f0 ff ff    	mov    -0xf78(%rbp),%eax
   15205:	66 0d bc a4          	or     $0xa4bc,%ax
   15209:	98                   	cwtl   
   1520a:	be 01 00 00 00       	mov    $0x1,%esi
   1520f:	89 c7                	mov    %eax,%edi
   15211:	e8 9d 31 ff ff       	callq  83b3 <safe_add_func_int16_t_s_s>
   15216:	66 85 c0             	test   %ax,%ax
   15219:	75 08                	jne    15223 <func_45+0x89e>
   1521b:	48 83 bd 28 f0 ff ff 	cmpq   $0x0,-0xfd8(%rbp)
   15222:	00 
   15223:	8b 85 3c f0 ff ff    	mov    -0xfc4(%rbp),%eax
   15229:	85 c0                	test   %eax,%eax
   1522b:	74 10                	je     1523d <func_45+0x8b8>
   1522d:	83 bd 80 f0 ff ff 00 	cmpl   $0x0,-0xf80(%rbp)
   15234:	74 07                	je     1523d <func_45+0x8b8>
   15236:	ba 01 00 00 00       	mov    $0x1,%edx
   1523b:	eb 05                	jmp    15242 <func_45+0x8bd>
   1523d:	ba 00 00 00 00       	mov    $0x0,%edx
   15242:	48 8b 85 28 f0 ff ff 	mov    -0xfd8(%rbp),%rax
   15249:	21 d0                	and    %edx,%eax
   1524b:	89 c7                	mov    %eax,%edi
   1524d:	e8 54 3c ff ff       	callq  8ea6 <safe_unary_minus_func_uint32_t_u>
   15252:	98                   	cwtl   
   15253:	89 de                	mov    %ebx,%esi
   15255:	89 c7                	mov    %eax,%edi
   15257:	e8 f9 31 ff ff       	callq  8455 <safe_div_func_int16_t_s_s>
   1525c:	98                   	cwtl   
   1525d:	41 39 c4             	cmp    %eax,%r12d
   15260:	48 8b 85 20 f1 ff ff 	mov    -0xee0(%rbp),%rax
   15267:	0f b6 c0             	movzbl %al,%eax
   1526a:	be 07 00 00 00       	mov    $0x7,%esi
   1526f:	89 c7                	mov    %eax,%edi
   15271:	e8 17 3a ff ff       	callq  8c8d <safe_rshift_func_uint8_t_u_s>
   15276:	84 c0                	test   %al,%al
   15278:	0f 94 c0             	sete   %al
   1527b:	0f b6 d0             	movzbl %al,%edx
   1527e:	48 8b 85 28 f1 ff ff 	mov    -0xed8(%rbp),%rax
   15285:	8b 00                	mov    (%rax),%eax
   15287:	21 c2                	and    %eax,%edx
   15289:	48 8b 85 28 f1 ff ff 	mov    -0xed8(%rbp),%rax
   15290:	89 10                	mov    %edx,(%rax)
   15292:	48 8d 85 88 f0 ff ff 	lea    -0xf78(%rbp),%rax
   15299:	48 89 05 d8 b8 00 00 	mov    %rax,0xb8d8(%rip)        # 20b78 <g_474>
   152a0:	48 8b 85 28 f0 ff ff 	mov    -0xfd8(%rbp),%rax
   152a7:	89 c2                	mov    %eax,%edx
   152a9:	48 8b 85 28 f1 ff ff 	mov    -0xed8(%rbp),%rax
   152b0:	89 10                	mov    %edx,(%rax)
   152b2:	8b 85 3c f0 ff ff    	mov    -0xfc4(%rbp),%eax
   152b8:	0f b6 d8             	movzbl %al,%ebx
   152bb:	8b 05 2b 82 00 00    	mov    0x822b(%rip),%eax        # 1d4ec <g_388>
   152c1:	85 c0                	test   %eax,%eax
   152c3:	0f 84 8f 00 00 00    	je     15358 <func_45+0x9d3>
   152c9:	8b 85 64 f0 ff ff    	mov    -0xf9c(%rbp),%eax
   152cf:	0f bf d0             	movswl %ax,%edx
   152d2:	48 8b 85 28 f0 ff ff 	mov    -0xfd8(%rbp),%rax
   152d9:	8b 8c 85 58 f1 ff ff 	mov    -0xea8(%rbp,%rax,4),%ecx
   152e0:	8b 85 3c f0 ff ff    	mov    -0xfc4(%rbp),%eax
   152e6:	39 c1                	cmp    %eax,%ecx
   152e8:	0f 9d c0             	setge  %al
   152eb:	0f b6 c8             	movzbl %al,%ecx
   152ee:	48 83 bd 28 f0 ff ff 	cmpq   $0x0,-0xfd8(%rbp)
   152f5:	00 
   152f6:	0f 9f c0             	setg   %al
   152f9:	0f b6 c0             	movzbl %al,%eax
   152fc:	48 0b 85 28 f0 ff ff 	or     -0xfd8(%rbp),%rax
   15303:	48 c1 e8 3f          	shr    $0x3f,%rax
   15307:	0f b6 c0             	movzbl %al,%eax
   1530a:	39 c1                	cmp    %eax,%ecx
   1530c:	0f 9f c0             	setg   %al
   1530f:	0f b6 c8             	movzbl %al,%ecx
   15312:	0f b6 05 cf 81 00 00 	movzbl 0x81cf(%rip),%eax        # 1d4e8 <g_292>
   15319:	0f be c0             	movsbl %al,%eax
   1531c:	39 c1                	cmp    %eax,%ecx
   1531e:	0f 9e c0             	setle  %al
   15321:	0f b6 c8             	movzbl %al,%ecx
   15324:	0f b6 05 d1 81 00 00 	movzbl 0x81d1(%rip),%eax        # 1d4fc <g_443>
   1532b:	66 98                	cbtw   
   1532d:	21 c8                	and    %ecx,%eax
   1532f:	98                   	cwtl   
   15330:	89 d6                	mov    %edx,%esi
   15332:	89 c7                	mov    %eax,%edi
   15334:	e8 9a 30 ff ff       	callq  83d3 <safe_sub_func_int16_t_s_s>
   15339:	98                   	cwtl   
   1533a:	89 c6                	mov    %eax,%esi
   1533c:	bf fc ff ff ff       	mov    $0xfffffffc,%edi
   15341:	e8 df 3b ff ff       	callq  8f25 <safe_div_func_uint32_t_u_u>
   15346:	89 c0                	mov    %eax,%eax
   15348:	48 39 85 28 f0 ff ff 	cmp    %rax,-0xfd8(%rbp)
   1534f:	7c 07                	jl     15358 <func_45+0x9d3>
   15351:	b8 01 00 00 00       	mov    $0x1,%eax
   15356:	eb 05                	jmp    1535d <func_45+0x9d8>
   15358:	b8 00 00 00 00       	mov    $0x0,%eax
   1535d:	f7 d0                	not    %eax
   1535f:	89 c2                	mov    %eax,%edx
   15361:	8b 85 3c f0 ff ff    	mov    -0xfc4(%rbp),%eax
   15367:	31 c2                	xor    %eax,%edx
   15369:	48 8b 05 58 a9 00 00 	mov    0xa958(%rip),%rax        # 1fcc8 <g_180>
   15370:	8b 00                	mov    (%rax),%eax
   15372:	39 c2                	cmp    %eax,%edx
   15374:	0f 9d c0             	setge  %al
   15377:	0f b6 c0             	movzbl %al,%eax
   1537a:	89 de                	mov    %ebx,%esi
   1537c:	89 c7                	mov    %eax,%edi
   1537e:	e8 10 38 ff ff       	callq  8b93 <safe_mul_func_uint8_t_u_u>
   15383:	84 c0                	test   %al,%al
   15385:	75 0c                	jne    15393 <func_45+0xa0e>
   15387:	0f b7 05 52 81 00 00 	movzwl 0x8152(%rip),%eax        # 1d4e0 <g_255>
   1538e:	66 85 c0             	test   %ax,%ax
   15391:	74 07                	je     1539a <func_45+0xa15>
   15393:	b8 01 00 00 00       	mov    $0x1,%eax
   15398:	eb 05                	jmp    1539f <func_45+0xa1a>
   1539a:	b8 00 00 00 00       	mov    $0x0,%eax
   1539f:	0f bf d0             	movswl %ax,%edx
   153a2:	0f b7 05 3f 81 00 00 	movzwl 0x813f(%rip),%eax        # 1d4e8 <g_292>
   153a9:	98                   	cwtl   
   153aa:	89 d6                	mov    %edx,%esi
   153ac:	89 c7                	mov    %eax,%edi
   153ae:	e8 20 30 ff ff       	callq  83d3 <safe_sub_func_int16_t_s_s>
   153b3:	0f bf d0             	movswl %ax,%edx
   153b6:	48 8b 85 28 f0 ff ff 	mov    -0xfd8(%rbp),%rax
   153bd:	8b 84 85 58 f1 ff ff 	mov    -0xea8(%rbp,%rax,4),%eax
   153c4:	39 c2                	cmp    %eax,%edx
   153c6:	0f 9f c0             	setg   %al
   153c9:	0f b6 d0             	movzbl %al,%edx
   153cc:	48 8b 85 28 f1 ff ff 	mov    -0xed8(%rbp),%rax
   153d3:	8b 00                	mov    (%rax),%eax
   153d5:	09 c2                	or     %eax,%edx
   153d7:	48 8b 85 28 f1 ff ff 	mov    -0xed8(%rbp),%rax
   153de:	89 10                	mov    %edx,(%rax)
   153e0:	8b 05 06 81 00 00    	mov    0x8106(%rip),%eax        # 1d4ec <g_388>
   153e6:	83 c0 01             	add    $0x1,%eax
   153e9:	89 05 fd 80 00 00    	mov    %eax,0x80fd(%rip)        # 1d4ec <g_388>
   153ef:	8b 05 f7 80 00 00    	mov    0x80f7(%rip),%eax        # 1d4ec <g_388>
   153f5:	83 f8 01             	cmp    $0x1,%eax
   153f8:	0f 86 8a fd ff ff    	jbe    15188 <func_45+0x803>
   153fe:	83 85 64 f0 ff ff 01 	addl   $0x1,-0xf9c(%rbp)
   15405:	83 bd 64 f0 ff ff 08 	cmpl   $0x8,-0xf9c(%rbp)
   1540c:	0f 86 93 f9 ff ff    	jbe    14da5 <func_45+0x420>
   15412:	48 8b 85 10 f1 ff ff 	mov    -0xef0(%rbp),%rax
   15419:	48 c7 00 00 00 00 00 	movq   $0x0,(%rax)
   15420:	0f b7 05 81 7f 00 00 	movzwl 0x7f81(%rip),%eax        # 1d3a8 <g_177>
   15427:	83 c0 01             	add    $0x1,%eax
   1542a:	66 89 05 77 7f 00 00 	mov    %ax,0x7f77(%rip)        # 1d3a8 <g_177>
   15431:	0f b7 05 70 7f 00 00 	movzwl 0x7f70(%rip),%eax        # 1d3a8 <g_177>
   15438:	66 83 f8 01          	cmp    $0x1,%ax
   1543c:	0f 8e 46 f9 ff ff    	jle    14d88 <func_45+0x403>
   15442:	48 8b 85 28 f0 ff ff 	mov    -0xfd8(%rbp),%rax
   15449:	8b 84 85 58 f1 ff ff 	mov    -0xea8(%rbp,%rax,4),%eax
   15450:	85 c0                	test   %eax,%eax
   15452:	0f 85 85 0d 00 00    	jne    161dd <func_45+0x1858>
   15458:	c6 05 9d 80 00 00 00 	movb   $0x0,0x809d(%rip)        # 1d4fc <g_443>
   1545f:	eb 3a                	jmp    1549b <func_45+0xb16>
   15461:	48 8d 85 54 f0 ff ff 	lea    -0xfac(%rbp),%rax
   15468:	48 89 85 90 f0 ff ff 	mov    %rax,-0xf70(%rbp)
   1546f:	48 8d 85 90 f0 ff ff 	lea    -0xf70(%rbp),%rax
   15476:	48 89 85 50 f1 ff ff 	mov    %rax,-0xeb0(%rbp)
   1547d:	48 8b 85 50 f1 ff ff 	mov    -0xeb0(%rbp),%rax
   15484:	48 c7 00 00 00 00 00 	movq   $0x0,(%rax)
   1548b:	0f b6 05 6a 80 00 00 	movzbl 0x806a(%rip),%eax        # 1d4fc <g_443>
   15492:	83 c0 01             	add    $0x1,%eax
   15495:	88 05 61 80 00 00    	mov    %al,0x8061(%rip)        # 1d4fc <g_443>
   1549b:	0f b6 05 5a 80 00 00 	movzbl 0x805a(%rip),%eax        # 1d4fc <g_443>
   154a2:	3c 01                	cmp    $0x1,%al
   154a4:	7e bb                	jle    15461 <func_45+0xadc>
   154a6:	c7 85 58 f0 ff ff 01 	movl   $0x1,-0xfa8(%rbp)
   154ad:	00 00 00 
   154b0:	e9 18 0d 00 00       	jmpq   161cd <func_45+0x1848>
   154b5:	48 c7 85 38 f1 ff ff 	movq   $0x0,-0xec8(%rbp)
   154bc:	00 00 00 00 
   154c0:	48 8d 85 54 f0 ff ff 	lea    -0xfac(%rbp),%rax
   154c7:	48 89 85 40 f1 ff ff 	mov    %rax,-0xec0(%rbp)
   154ce:	48 8d 05 d7 7e 00 00 	lea    0x7ed7(%rip),%rax        # 1d3ac <g_181>
   154d5:	48 89 85 48 f1 ff ff 	mov    %rax,-0xeb8(%rbp)
   154dc:	48 8d 85 58 f0 ff ff 	lea    -0xfa8(%rbp),%rax
   154e3:	48 89 85 a0 f1 ff ff 	mov    %rax,-0xe60(%rbp)
   154ea:	48 8d 85 54 f0 ff ff 	lea    -0xfac(%rbp),%rax
   154f1:	48 89 85 a8 f1 ff ff 	mov    %rax,-0xe58(%rbp)
   154f8:	48 8d 85 54 f0 ff ff 	lea    -0xfac(%rbp),%rax
   154ff:	48 89 85 b0 f1 ff ff 	mov    %rax,-0xe50(%rbp)
   15506:	48 8d 85 58 f0 ff ff 	lea    -0xfa8(%rbp),%rax
   1550d:	48 89 85 b8 f1 ff ff 	mov    %rax,-0xe48(%rbp)
   15514:	48 c7 85 c0 f1 ff ff 	movq   $0x0,-0xe40(%rbp)
   1551b:	00 00 00 00 
   1551f:	48 c7 85 c8 f1 ff ff 	movq   $0x0,-0xe38(%rbp)
   15526:	00 00 00 00 
   1552a:	48 8d 05 7b 7e 00 00 	lea    0x7e7b(%rip),%rax        # 1d3ac <g_181>
   15531:	48 89 85 d0 f1 ff ff 	mov    %rax,-0xe30(%rbp)
   15538:	48 8d 85 58 f0 ff ff 	lea    -0xfa8(%rbp),%rax
   1553f:	48 89 85 d8 f1 ff ff 	mov    %rax,-0xe28(%rbp)
   15546:	48 8d 05 5f 7e 00 00 	lea    0x7e5f(%rip),%rax        # 1d3ac <g_181>
   1554d:	48 89 85 e0 f1 ff ff 	mov    %rax,-0xe20(%rbp)
   15554:	48 c7 85 e8 f1 ff ff 	movq   $0x0,-0xe18(%rbp)
   1555b:	00 00 00 00 
   1555f:	48 8d 85 58 f0 ff ff 	lea    -0xfa8(%rbp),%rax
   15566:	48 89 85 f0 f1 ff ff 	mov    %rax,-0xe10(%rbp)
   1556d:	48 8d 05 38 7e 00 00 	lea    0x7e38(%rip),%rax        # 1d3ac <g_181>
   15574:	48 89 85 f8 f1 ff ff 	mov    %rax,-0xe08(%rbp)
   1557b:	48 8d 85 54 f0 ff ff 	lea    -0xfac(%rbp),%rax
   15582:	48 89 85 00 f2 ff ff 	mov    %rax,-0xe00(%rbp)
   15589:	48 c7 85 08 f2 ff ff 	movq   $0x0,-0xdf8(%rbp)
   15590:	00 00 00 00 
   15594:	48 8d 85 54 f0 ff ff 	lea    -0xfac(%rbp),%rax
   1559b:	48 89 85 10 f2 ff ff 	mov    %rax,-0xdf0(%rbp)
   155a2:	48 8d 85 58 f0 ff ff 	lea    -0xfa8(%rbp),%rax
   155a9:	48 89 85 18 f2 ff ff 	mov    %rax,-0xde8(%rbp)
   155b0:	48 8d 85 54 f0 ff ff 	lea    -0xfac(%rbp),%rax
   155b7:	48 89 85 20 f2 ff ff 	mov    %rax,-0xde0(%rbp)
   155be:	48 8d 85 58 f0 ff ff 	lea    -0xfa8(%rbp),%rax
   155c5:	48 89 85 28 f2 ff ff 	mov    %rax,-0xdd8(%rbp)
   155cc:	48 c7 85 30 f2 ff ff 	movq   $0x0,-0xdd0(%rbp)
   155d3:	00 00 00 00 
   155d7:	48 c7 85 38 f2 ff ff 	movq   $0x0,-0xdc8(%rbp)
   155de:	00 00 00 00 
   155e2:	48 c7 85 40 f2 ff ff 	movq   $0x0,-0xdc0(%rbp)
   155e9:	00 00 00 00 
   155ed:	48 8d 85 54 f0 ff ff 	lea    -0xfac(%rbp),%rax
   155f4:	48 89 85 48 f2 ff ff 	mov    %rax,-0xdb8(%rbp)
   155fb:	48 c7 85 50 f2 ff ff 	movq   $0x0,-0xdb0(%rbp)
   15602:	00 00 00 00 
   15606:	48 8d 85 54 f0 ff ff 	lea    -0xfac(%rbp),%rax
   1560d:	48 89 85 58 f2 ff ff 	mov    %rax,-0xda8(%rbp)
   15614:	48 8d 05 91 7d 00 00 	lea    0x7d91(%rip),%rax        # 1d3ac <g_181>
   1561b:	48 89 85 60 f2 ff ff 	mov    %rax,-0xda0(%rbp)
   15622:	48 8d 05 83 7d 00 00 	lea    0x7d83(%rip),%rax        # 1d3ac <g_181>
   15629:	48 89 85 68 f2 ff ff 	mov    %rax,-0xd98(%rbp)
   15630:	48 c7 85 70 f2 ff ff 	movq   $0x0,-0xd90(%rbp)
   15637:	00 00 00 00 
   1563b:	48 8d 05 6a 7d 00 00 	lea    0x7d6a(%rip),%rax        # 1d3ac <g_181>
   15642:	48 89 85 78 f2 ff ff 	mov    %rax,-0xd88(%rbp)
   15649:	48 8d 85 54 f0 ff ff 	lea    -0xfac(%rbp),%rax
   15650:	48 89 85 80 f2 ff ff 	mov    %rax,-0xd80(%rbp)
   15657:	48 8d 85 58 f0 ff ff 	lea    -0xfa8(%rbp),%rax
   1565e:	48 89 85 88 f2 ff ff 	mov    %rax,-0xd78(%rbp)
   15665:	48 8d 85 58 f0 ff ff 	lea    -0xfa8(%rbp),%rax
   1566c:	48 89 85 90 f2 ff ff 	mov    %rax,-0xd70(%rbp)
   15673:	48 8d 85 54 f0 ff ff 	lea    -0xfac(%rbp),%rax
   1567a:	48 89 85 98 f2 ff ff 	mov    %rax,-0xd68(%rbp)
   15681:	48 8d 85 54 f0 ff ff 	lea    -0xfac(%rbp),%rax
   15688:	48 89 85 a0 f2 ff ff 	mov    %rax,-0xd60(%rbp)
   1568f:	48 8d 85 54 f0 ff ff 	lea    -0xfac(%rbp),%rax
   15696:	48 89 85 a8 f2 ff ff 	mov    %rax,-0xd58(%rbp)
   1569d:	48 8d 85 58 f0 ff ff 	lea    -0xfa8(%rbp),%rax
   156a4:	48 89 85 b0 f2 ff ff 	mov    %rax,-0xd50(%rbp)
   156ab:	48 8d 85 58 f0 ff ff 	lea    -0xfa8(%rbp),%rax
   156b2:	48 89 85 b8 f2 ff ff 	mov    %rax,-0xd48(%rbp)
   156b9:	48 8d 85 58 f0 ff ff 	lea    -0xfa8(%rbp),%rax
   156c0:	48 89 85 c0 f2 ff ff 	mov    %rax,-0xd40(%rbp)
   156c7:	48 c7 85 c8 f2 ff ff 	movq   $0x0,-0xd38(%rbp)
   156ce:	00 00 00 00 
   156d2:	48 8d 85 58 f0 ff ff 	lea    -0xfa8(%rbp),%rax
   156d9:	48 89 85 d0 f2 ff ff 	mov    %rax,-0xd30(%rbp)
   156e0:	48 8d 05 c5 7c 00 00 	lea    0x7cc5(%rip),%rax        # 1d3ac <g_181>
   156e7:	48 89 85 d8 f2 ff ff 	mov    %rax,-0xd28(%rbp)
   156ee:	48 c7 85 e0 f2 ff ff 	movq   $0x0,-0xd20(%rbp)
   156f5:	00 00 00 00 
   156f9:	48 8d 05 ac 7c 00 00 	lea    0x7cac(%rip),%rax        # 1d3ac <g_181>
   15700:	48 89 85 e8 f2 ff ff 	mov    %rax,-0xd18(%rbp)
   15707:	48 8d 05 9e 7c 00 00 	lea    0x7c9e(%rip),%rax        # 1d3ac <g_181>
   1570e:	48 89 85 f0 f2 ff ff 	mov    %rax,-0xd10(%rbp)
   15715:	48 8d 05 90 7c 00 00 	lea    0x7c90(%rip),%rax        # 1d3ac <g_181>
   1571c:	48 89 85 f8 f2 ff ff 	mov    %rax,-0xd08(%rbp)
   15723:	48 8d 85 58 f0 ff ff 	lea    -0xfa8(%rbp),%rax
   1572a:	48 89 85 00 f3 ff ff 	mov    %rax,-0xd00(%rbp)
   15731:	48 8d 85 54 f0 ff ff 	lea    -0xfac(%rbp),%rax
   15738:	48 89 85 08 f3 ff ff 	mov    %rax,-0xcf8(%rbp)
   1573f:	48 8d 05 66 7c 00 00 	lea    0x7c66(%rip),%rax        # 1d3ac <g_181>
   15746:	48 89 85 10 f3 ff ff 	mov    %rax,-0xcf0(%rbp)
   1574d:	48 c7 85 18 f3 ff ff 	movq   $0x0,-0xce8(%rbp)
   15754:	00 00 00 00 
   15758:	48 c7 85 20 f3 ff ff 	movq   $0x0,-0xce0(%rbp)
   1575f:	00 00 00 00 
   15763:	48 8d 05 42 7c 00 00 	lea    0x7c42(%rip),%rax        # 1d3ac <g_181>
   1576a:	48 89 85 28 f3 ff ff 	mov    %rax,-0xcd8(%rbp)
   15771:	48 8d 85 58 f0 ff ff 	lea    -0xfa8(%rbp),%rax
   15778:	48 89 85 30 f3 ff ff 	mov    %rax,-0xcd0(%rbp)
   1577f:	48 8d 85 58 f0 ff ff 	lea    -0xfa8(%rbp),%rax
   15786:	48 89 85 38 f3 ff ff 	mov    %rax,-0xcc8(%rbp)
   1578d:	48 8d 85 58 f0 ff ff 	lea    -0xfa8(%rbp),%rax
   15794:	48 89 85 40 f3 ff ff 	mov    %rax,-0xcc0(%rbp)
   1579b:	48 8d 05 0a 7c 00 00 	lea    0x7c0a(%rip),%rax        # 1d3ac <g_181>
   157a2:	48 89 85 48 f3 ff ff 	mov    %rax,-0xcb8(%rbp)
   157a9:	48 8d 85 54 f0 ff ff 	lea    -0xfac(%rbp),%rax
   157b0:	48 89 85 50 f3 ff ff 	mov    %rax,-0xcb0(%rbp)
   157b7:	48 c7 85 58 f3 ff ff 	movq   $0x0,-0xca8(%rbp)
   157be:	00 00 00 00 
   157c2:	48 c7 85 60 f3 ff ff 	movq   $0x0,-0xca0(%rbp)
   157c9:	00 00 00 00 
   157cd:	48 c7 85 68 f3 ff ff 	movq   $0x0,-0xc98(%rbp)
   157d4:	00 00 00 00 
   157d8:	48 8d 85 58 f0 ff ff 	lea    -0xfa8(%rbp),%rax
   157df:	48 89 85 70 f3 ff ff 	mov    %rax,-0xc90(%rbp)
   157e6:	48 c7 85 78 f3 ff ff 	movq   $0x0,-0xc88(%rbp)
   157ed:	00 00 00 00 
   157f1:	48 8d 05 b4 7b 00 00 	lea    0x7bb4(%rip),%rax        # 1d3ac <g_181>
   157f8:	48 89 85 80 f3 ff ff 	mov    %rax,-0xc80(%rbp)
   157ff:	48 c7 85 88 f3 ff ff 	movq   $0x0,-0xc78(%rbp)
   15806:	00 00 00 00 
   1580a:	48 8d 05 9b 7b 00 00 	lea    0x7b9b(%rip),%rax        # 1d3ac <g_181>
   15811:	48 89 85 90 f3 ff ff 	mov    %rax,-0xc70(%rbp)
   15818:	48 8d 85 58 f0 ff ff 	lea    -0xfa8(%rbp),%rax
   1581f:	48 89 85 98 f3 ff ff 	mov    %rax,-0xc68(%rbp)
   15826:	48 8d 85 54 f0 ff ff 	lea    -0xfac(%rbp),%rax
   1582d:	48 89 85 a0 f3 ff ff 	mov    %rax,-0xc60(%rbp)
   15834:	48 8d 85 54 f0 ff ff 	lea    -0xfac(%rbp),%rax
   1583b:	48 89 85 a8 f3 ff ff 	mov    %rax,-0xc58(%rbp)
   15842:	48 c7 85 b0 f3 ff ff 	movq   $0x0,-0xc50(%rbp)
   15849:	00 00 00 00 
   1584d:	48 8d 85 58 f0 ff ff 	lea    -0xfa8(%rbp),%rax
   15854:	48 89 85 b8 f3 ff ff 	mov    %rax,-0xc48(%rbp)
   1585b:	48 8d 85 54 f0 ff ff 	lea    -0xfac(%rbp),%rax
   15862:	48 89 85 c0 f3 ff ff 	mov    %rax,-0xc40(%rbp)
   15869:	48 8d 05 3c 7b 00 00 	lea    0x7b3c(%rip),%rax        # 1d3ac <g_181>
   15870:	48 89 85 c8 f3 ff ff 	mov    %rax,-0xc38(%rbp)
   15877:	48 8d 85 58 f0 ff ff 	lea    -0xfa8(%rbp),%rax
   1587e:	48 89 85 d0 f3 ff ff 	mov    %rax,-0xc30(%rbp)
   15885:	48 8d 85 58 f0 ff ff 	lea    -0xfa8(%rbp),%rax
   1588c:	48 89 85 d8 f3 ff ff 	mov    %rax,-0xc28(%rbp)
   15893:	48 8d 85 54 f0 ff ff 	lea    -0xfac(%rbp),%rax
   1589a:	48 89 85 e0 f3 ff ff 	mov    %rax,-0xc20(%rbp)
   158a1:	48 8d 85 54 f0 ff ff 	lea    -0xfac(%rbp),%rax
   158a8:	48 89 85 e8 f3 ff ff 	mov    %rax,-0xc18(%rbp)
   158af:	48 8d 85 58 f0 ff ff 	lea    -0xfa8(%rbp),%rax
   158b6:	48 89 85 f0 f3 ff ff 	mov    %rax,-0xc10(%rbp)
   158bd:	48 8d 05 e8 7a 00 00 	lea    0x7ae8(%rip),%rax        # 1d3ac <g_181>
   158c4:	48 89 85 f8 f3 ff ff 	mov    %rax,-0xc08(%rbp)
   158cb:	48 8d 85 58 f0 ff ff 	lea    -0xfa8(%rbp),%rax
   158d2:	48 89 85 00 f4 ff ff 	mov    %rax,-0xc00(%rbp)
   158d9:	48 8d 85 58 f0 ff ff 	lea    -0xfa8(%rbp),%rax
   158e0:	48 89 85 08 f4 ff ff 	mov    %rax,-0xbf8(%rbp)
   158e7:	48 c7 85 10 f4 ff ff 	movq   $0x0,-0xbf0(%rbp)
   158ee:	00 00 00 00 
   158f2:	48 c7 85 18 f4 ff ff 	movq   $0x0,-0xbe8(%rbp)
   158f9:	00 00 00 00 
   158fd:	48 8d 85 58 f0 ff ff 	lea    -0xfa8(%rbp),%rax
   15904:	48 89 85 20 f4 ff ff 	mov    %rax,-0xbe0(%rbp)
   1590b:	48 8d 85 58 f0 ff ff 	lea    -0xfa8(%rbp),%rax
   15912:	48 89 85 28 f4 ff ff 	mov    %rax,-0xbd8(%rbp)
   15919:	48 8d 85 58 f0 ff ff 	lea    -0xfa8(%rbp),%rax
   15920:	48 89 85 30 f4 ff ff 	mov    %rax,-0xbd0(%rbp)
   15927:	48 8d 85 58 f0 ff ff 	lea    -0xfa8(%rbp),%rax
   1592e:	48 89 85 38 f4 ff ff 	mov    %rax,-0xbc8(%rbp)
   15935:	48 8d 85 54 f0 ff ff 	lea    -0xfac(%rbp),%rax
   1593c:	48 89 85 40 f4 ff ff 	mov    %rax,-0xbc0(%rbp)
   15943:	48 c7 85 48 f4 ff ff 	movq   $0x0,-0xbb8(%rbp)
   1594a:	00 00 00 00 
   1594e:	48 c7 85 50 f4 ff ff 	movq   $0x0,-0xbb0(%rbp)
   15955:	00 00 00 00 
   15959:	48 8d 85 58 f0 ff ff 	lea    -0xfa8(%rbp),%rax
   15960:	48 89 85 58 f4 ff ff 	mov    %rax,-0xba8(%rbp)
   15967:	48 8d 85 58 f0 ff ff 	lea    -0xfa8(%rbp),%rax
   1596e:	48 89 85 60 f4 ff ff 	mov    %rax,-0xba0(%rbp)
   15975:	48 8d 85 54 f0 ff ff 	lea    -0xfac(%rbp),%rax
   1597c:	48 89 85 68 f4 ff ff 	mov    %rax,-0xb98(%rbp)
   15983:	48 8d 85 54 f0 ff ff 	lea    -0xfac(%rbp),%rax
   1598a:	48 89 85 70 f4 ff ff 	mov    %rax,-0xb90(%rbp)
   15991:	48 8d 85 54 f0 ff ff 	lea    -0xfac(%rbp),%rax
   15998:	48 89 85 78 f4 ff ff 	mov    %rax,-0xb88(%rbp)
   1599f:	48 8d 85 54 f0 ff ff 	lea    -0xfac(%rbp),%rax
   159a6:	48 89 85 80 f4 ff ff 	mov    %rax,-0xb80(%rbp)
   159ad:	48 8d 85 54 f0 ff ff 	lea    -0xfac(%rbp),%rax
   159b4:	48 89 85 88 f4 ff ff 	mov    %rax,-0xb78(%rbp)
   159bb:	48 8d 85 58 f0 ff ff 	lea    -0xfa8(%rbp),%rax
   159c2:	48 89 85 90 f4 ff ff 	mov    %rax,-0xb70(%rbp)
   159c9:	48 c7 85 98 f4 ff ff 	movq   $0x0,-0xb68(%rbp)
   159d0:	00 00 00 00 
   159d4:	48 8d 05 d1 79 00 00 	lea    0x79d1(%rip),%rax        # 1d3ac <g_181>
   159db:	48 89 85 a0 f4 ff ff 	mov    %rax,-0xb60(%rbp)
   159e2:	48 8d 85 58 f0 ff ff 	lea    -0xfa8(%rbp),%rax
   159e9:	48 89 85 a8 f4 ff ff 	mov    %rax,-0xb58(%rbp)
   159f0:	48 8d 85 54 f0 ff ff 	lea    -0xfac(%rbp),%rax
   159f7:	48 89 85 b0 f4 ff ff 	mov    %rax,-0xb50(%rbp)
   159fe:	48 8d 85 54 f0 ff ff 	lea    -0xfac(%rbp),%rax
   15a05:	48 89 85 b8 f4 ff ff 	mov    %rax,-0xb48(%rbp)
   15a0c:	48 8d 85 54 f0 ff ff 	lea    -0xfac(%rbp),%rax
   15a13:	48 89 85 c0 f4 ff ff 	mov    %rax,-0xb40(%rbp)
   15a1a:	48 8d 05 8b 79 00 00 	lea    0x798b(%rip),%rax        # 1d3ac <g_181>
   15a21:	48 89 85 c8 f4 ff ff 	mov    %rax,-0xb38(%rbp)
   15a28:	48 8d 85 58 f0 ff ff 	lea    -0xfa8(%rbp),%rax
   15a2f:	48 89 85 d0 f4 ff ff 	mov    %rax,-0xb30(%rbp)
   15a36:	48 8d 85 58 f0 ff ff 	lea    -0xfa8(%rbp),%rax
   15a3d:	48 89 85 d8 f4 ff ff 	mov    %rax,-0xb28(%rbp)
   15a44:	48 8d 85 58 f0 ff ff 	lea    -0xfa8(%rbp),%rax
   15a4b:	48 89 85 e0 f4 ff ff 	mov    %rax,-0xb20(%rbp)
   15a52:	48 8d 85 54 f0 ff ff 	lea    -0xfac(%rbp),%rax
   15a59:	48 89 85 e8 f4 ff ff 	mov    %rax,-0xb18(%rbp)
   15a60:	48 8d 85 54 f0 ff ff 	lea    -0xfac(%rbp),%rax
   15a67:	48 89 85 f0 f4 ff ff 	mov    %rax,-0xb10(%rbp)
   15a6e:	48 c7 85 f8 f4 ff ff 	movq   $0x0,-0xb08(%rbp)
   15a75:	00 00 00 00 
   15a79:	48 8d 85 54 f0 ff ff 	lea    -0xfac(%rbp),%rax
   15a80:	48 89 85 00 f5 ff ff 	mov    %rax,-0xb00(%rbp)
   15a87:	48 8d 85 54 f0 ff ff 	lea    -0xfac(%rbp),%rax
   15a8e:	48 89 85 08 f5 ff ff 	mov    %rax,-0xaf8(%rbp)
   15a95:	48 8d 85 54 f0 ff ff 	lea    -0xfac(%rbp),%rax
   15a9c:	48 89 85 10 f5 ff ff 	mov    %rax,-0xaf0(%rbp)
   15aa3:	48 8d 85 58 f0 ff ff 	lea    -0xfa8(%rbp),%rax
   15aaa:	48 89 85 18 f5 ff ff 	mov    %rax,-0xae8(%rbp)
   15ab1:	48 8d 85 54 f0 ff ff 	lea    -0xfac(%rbp),%rax
   15ab8:	48 89 85 20 f5 ff ff 	mov    %rax,-0xae0(%rbp)
   15abf:	48 8d 85 58 f0 ff ff 	lea    -0xfa8(%rbp),%rax
   15ac6:	48 89 85 28 f5 ff ff 	mov    %rax,-0xad8(%rbp)
   15acd:	48 8d 85 54 f0 ff ff 	lea    -0xfac(%rbp),%rax
   15ad4:	48 89 85 30 f5 ff ff 	mov    %rax,-0xad0(%rbp)
   15adb:	48 c7 85 38 f5 ff ff 	movq   $0x0,-0xac8(%rbp)
   15ae2:	00 00 00 00 
   15ae6:	48 c7 85 40 f5 ff ff 	movq   $0x0,-0xac0(%rbp)
   15aed:	00 00 00 00 
   15af1:	48 8d 05 b4 78 00 00 	lea    0x78b4(%rip),%rax        # 1d3ac <g_181>
   15af8:	48 89 85 48 f5 ff ff 	mov    %rax,-0xab8(%rbp)
   15aff:	48 8d 85 58 f0 ff ff 	lea    -0xfa8(%rbp),%rax
   15b06:	48 89 85 50 f5 ff ff 	mov    %rax,-0xab0(%rbp)
   15b0d:	48 8d 05 98 78 00 00 	lea    0x7898(%rip),%rax        # 1d3ac <g_181>
   15b14:	48 89 85 58 f5 ff ff 	mov    %rax,-0xaa8(%rbp)
   15b1b:	48 8d 85 54 f0 ff ff 	lea    -0xfac(%rbp),%rax
   15b22:	48 89 85 60 f5 ff ff 	mov    %rax,-0xaa0(%rbp)
   15b29:	48 8d 85 54 f0 ff ff 	lea    -0xfac(%rbp),%rax
   15b30:	48 89 85 68 f5 ff ff 	mov    %rax,-0xa98(%rbp)
   15b37:	48 c7 85 70 f5 ff ff 	movq   $0x0,-0xa90(%rbp)
   15b3e:	00 00 00 00 
   15b42:	48 8d 85 54 f0 ff ff 	lea    -0xfac(%rbp),%rax
   15b49:	48 89 85 78 f5 ff ff 	mov    %rax,-0xa88(%rbp)
   15b50:	48 8d 85 58 f0 ff ff 	lea    -0xfa8(%rbp),%rax
   15b57:	48 89 85 80 f5 ff ff 	mov    %rax,-0xa80(%rbp)
   15b5e:	48 8d 85 54 f0 ff ff 	lea    -0xfac(%rbp),%rax
   15b65:	48 89 85 88 f5 ff ff 	mov    %rax,-0xa78(%rbp)
   15b6c:	48 8d 85 58 f0 ff ff 	lea    -0xfa8(%rbp),%rax
   15b73:	48 89 85 90 f5 ff ff 	mov    %rax,-0xa70(%rbp)
   15b7a:	48 8d 85 58 f0 ff ff 	lea    -0xfa8(%rbp),%rax
   15b81:	48 89 85 98 f5 ff ff 	mov    %rax,-0xa68(%rbp)
   15b88:	48 8d 85 54 f0 ff ff 	lea    -0xfac(%rbp),%rax
   15b8f:	48 89 85 a0 f5 ff ff 	mov    %rax,-0xa60(%rbp)
   15b96:	48 8d 85 54 f0 ff ff 	lea    -0xfac(%rbp),%rax
   15b9d:	48 89 85 a8 f5 ff ff 	mov    %rax,-0xa58(%rbp)
   15ba4:	48 8d 05 01 78 00 00 	lea    0x7801(%rip),%rax        # 1d3ac <g_181>
   15bab:	48 89 85 b0 f5 ff ff 	mov    %rax,-0xa50(%rbp)
   15bb2:	48 8d 85 54 f0 ff ff 	lea    -0xfac(%rbp),%rax
   15bb9:	48 89 85 b8 f5 ff ff 	mov    %rax,-0xa48(%rbp)
   15bc0:	48 8d 85 58 f0 ff ff 	lea    -0xfa8(%rbp),%rax
   15bc7:	48 89 85 c0 f5 ff ff 	mov    %rax,-0xa40(%rbp)
   15bce:	48 8d 85 58 f0 ff ff 	lea    -0xfa8(%rbp),%rax
   15bd5:	48 89 85 c8 f5 ff ff 	mov    %rax,-0xa38(%rbp)
   15bdc:	48 8d 85 54 f0 ff ff 	lea    -0xfac(%rbp),%rax
   15be3:	48 89 85 d0 f5 ff ff 	mov    %rax,-0xa30(%rbp)
   15bea:	48 c7 85 d8 f5 ff ff 	movq   $0x0,-0xa28(%rbp)
   15bf1:	00 00 00 00 
   15bf5:	48 8d 85 54 f0 ff ff 	lea    -0xfac(%rbp),%rax
   15bfc:	48 89 85 e0 f5 ff ff 	mov    %rax,-0xa20(%rbp)
   15c03:	48 8d 85 54 f0 ff ff 	lea    -0xfac(%rbp),%rax
   15c0a:	48 89 85 e8 f5 ff ff 	mov    %rax,-0xa18(%rbp)
   15c11:	48 8d 05 94 77 00 00 	lea    0x7794(%rip),%rax        # 1d3ac <g_181>
   15c18:	48 89 85 f0 f5 ff ff 	mov    %rax,-0xa10(%rbp)
   15c1f:	48 8d 85 54 f0 ff ff 	lea    -0xfac(%rbp),%rax
   15c26:	48 89 85 f8 f5 ff ff 	mov    %rax,-0xa08(%rbp)
   15c2d:	48 c7 85 00 f6 ff ff 	movq   $0x0,-0xa00(%rbp)
   15c34:	00 00 00 00 
   15c38:	48 8d 85 54 f0 ff ff 	lea    -0xfac(%rbp),%rax
   15c3f:	48 89 85 08 f6 ff ff 	mov    %rax,-0x9f8(%rbp)
   15c46:	48 8d 85 54 f0 ff ff 	lea    -0xfac(%rbp),%rax
   15c4d:	48 89 85 10 f6 ff ff 	mov    %rax,-0x9f0(%rbp)
   15c54:	48 8d 05 51 77 00 00 	lea    0x7751(%rip),%rax        # 1d3ac <g_181>
   15c5b:	48 89 85 18 f6 ff ff 	mov    %rax,-0x9e8(%rbp)
   15c62:	48 8d 05 43 77 00 00 	lea    0x7743(%rip),%rax        # 1d3ac <g_181>
   15c69:	48 89 85 20 f6 ff ff 	mov    %rax,-0x9e0(%rbp)
   15c70:	48 8d 85 58 f0 ff ff 	lea    -0xfa8(%rbp),%rax
   15c77:	48 89 85 28 f6 ff ff 	mov    %rax,-0x9d8(%rbp)
   15c7e:	48 c7 85 30 f6 ff ff 	movq   $0x0,-0x9d0(%rbp)
   15c85:	00 00 00 00 
   15c89:	48 c7 85 38 f6 ff ff 	movq   $0x0,-0x9c8(%rbp)
   15c90:	00 00 00 00 
   15c94:	48 c7 85 40 f6 ff ff 	movq   $0x0,-0x9c0(%rbp)
   15c9b:	00 00 00 00 
   15c9f:	48 8d 85 58 f0 ff ff 	lea    -0xfa8(%rbp),%rax
   15ca6:	48 89 85 48 f6 ff ff 	mov    %rax,-0x9b8(%rbp)
   15cad:	48 8d 85 58 f0 ff ff 	lea    -0xfa8(%rbp),%rax
   15cb4:	48 89 85 50 f6 ff ff 	mov    %rax,-0x9b0(%rbp)
   15cbb:	48 8d 85 58 f0 ff ff 	lea    -0xfa8(%rbp),%rax
   15cc2:	48 89 85 58 f6 ff ff 	mov    %rax,-0x9a8(%rbp)
   15cc9:	48 8d 85 54 f0 ff ff 	lea    -0xfac(%rbp),%rax
   15cd0:	48 89 85 60 f6 ff ff 	mov    %rax,-0x9a0(%rbp)
   15cd7:	48 8d 85 58 f0 ff ff 	lea    -0xfa8(%rbp),%rax
   15cde:	48 89 85 68 f6 ff ff 	mov    %rax,-0x998(%rbp)
   15ce5:	48 c7 85 70 f6 ff ff 	movq   $0x0,-0x990(%rbp)
   15cec:	00 00 00 00 
   15cf0:	48 c7 85 78 f6 ff ff 	movq   $0x0,-0x988(%rbp)
   15cf7:	00 00 00 00 
   15cfb:	48 8d 85 58 f0 ff ff 	lea    -0xfa8(%rbp),%rax
   15d02:	48 89 85 80 f6 ff ff 	mov    %rax,-0x980(%rbp)
   15d09:	48 c7 85 88 f6 ff ff 	movq   $0x0,-0x978(%rbp)
   15d10:	00 00 00 00 
   15d14:	48 8d 85 58 f0 ff ff 	lea    -0xfa8(%rbp),%rax
   15d1b:	48 89 85 90 f6 ff ff 	mov    %rax,-0x970(%rbp)
   15d22:	48 8d 05 83 76 00 00 	lea    0x7683(%rip),%rax        # 1d3ac <g_181>
   15d29:	48 89 85 98 f6 ff ff 	mov    %rax,-0x968(%rbp)
   15d30:	48 8d 85 58 f0 ff ff 	lea    -0xfa8(%rbp),%rax
   15d37:	48 89 85 a0 f6 ff ff 	mov    %rax,-0x960(%rbp)
   15d3e:	48 8d 05 67 76 00 00 	lea    0x7667(%rip),%rax        # 1d3ac <g_181>
   15d45:	48 89 85 a8 f6 ff ff 	mov    %rax,-0x958(%rbp)
   15d4c:	48 c7 85 b0 f6 ff ff 	movq   $0x0,-0x950(%rbp)
   15d53:	00 00 00 00 
   15d57:	48 c7 85 b8 f6 ff ff 	movq   $0x0,-0x948(%rbp)
   15d5e:	00 00 00 00 
   15d62:	48 8d 85 54 f0 ff ff 	lea    -0xfac(%rbp),%rax
   15d69:	48 89 85 c0 f6 ff ff 	mov    %rax,-0x940(%rbp)
   15d70:	48 8d 85 58 f0 ff ff 	lea    -0xfa8(%rbp),%rax
   15d77:	48 89 85 c8 f6 ff ff 	mov    %rax,-0x938(%rbp)
   15d7e:	48 8d 85 58 f0 ff ff 	lea    -0xfa8(%rbp),%rax
   15d85:	48 89 85 d0 f6 ff ff 	mov    %rax,-0x930(%rbp)
   15d8c:	48 c7 85 d8 f6 ff ff 	movq   $0x0,-0x928(%rbp)
   15d93:	00 00 00 00 
   15d97:	48 8d 85 54 f0 ff ff 	lea    -0xfac(%rbp),%rax
   15d9e:	48 89 85 e0 f6 ff ff 	mov    %rax,-0x920(%rbp)
   15da5:	48 8d 85 54 f0 ff ff 	lea    -0xfac(%rbp),%rax
   15dac:	48 89 85 e8 f6 ff ff 	mov    %rax,-0x918(%rbp)
   15db3:	48 8d 85 54 f0 ff ff 	lea    -0xfac(%rbp),%rax
   15dba:	48 89 85 f0 f6 ff ff 	mov    %rax,-0x910(%rbp)
   15dc1:	48 c7 85 f8 f6 ff ff 	movq   $0x0,-0x908(%rbp)
   15dc8:	00 00 00 00 
   15dcc:	48 8d 85 54 f0 ff ff 	lea    -0xfac(%rbp),%rax
   15dd3:	48 89 85 00 f7 ff ff 	mov    %rax,-0x900(%rbp)
   15dda:	48 8d 85 54 f0 ff ff 	lea    -0xfac(%rbp),%rax
   15de1:	48 89 85 08 f7 ff ff 	mov    %rax,-0x8f8(%rbp)
   15de8:	48 8d 85 54 f0 ff ff 	lea    -0xfac(%rbp),%rax
   15def:	48 89 85 10 f7 ff ff 	mov    %rax,-0x8f0(%rbp)
   15df6:	48 8d 85 54 f0 ff ff 	lea    -0xfac(%rbp),%rax
   15dfd:	48 89 85 18 f7 ff ff 	mov    %rax,-0x8e8(%rbp)
   15e04:	48 c7 85 20 f7 ff ff 	movq   $0x0,-0x8e0(%rbp)
   15e0b:	00 00 00 00 
   15e0f:	48 8d 85 54 f0 ff ff 	lea    -0xfac(%rbp),%rax
   15e16:	48 89 85 28 f7 ff ff 	mov    %rax,-0x8d8(%rbp)
   15e1d:	48 8d 85 58 f0 ff ff 	lea    -0xfa8(%rbp),%rax
   15e24:	48 89 85 30 f7 ff ff 	mov    %rax,-0x8d0(%rbp)
   15e2b:	48 8d 85 58 f0 ff ff 	lea    -0xfa8(%rbp),%rax
   15e32:	48 89 85 38 f7 ff ff 	mov    %rax,-0x8c8(%rbp)
   15e39:	48 8d 05 6c 75 00 00 	lea    0x756c(%rip),%rax        # 1d3ac <g_181>
   15e40:	48 89 85 40 f7 ff ff 	mov    %rax,-0x8c0(%rbp)
   15e47:	48 8d 05 5e 75 00 00 	lea    0x755e(%rip),%rax        # 1d3ac <g_181>
   15e4e:	48 89 85 48 f7 ff ff 	mov    %rax,-0x8b8(%rbp)
   15e55:	48 8d 85 58 f0 ff ff 	lea    -0xfa8(%rbp),%rax
   15e5c:	48 89 85 50 f7 ff ff 	mov    %rax,-0x8b0(%rbp)
   15e63:	48 8d 85 54 f0 ff ff 	lea    -0xfac(%rbp),%rax
   15e6a:	48 89 85 58 f7 ff ff 	mov    %rax,-0x8a8(%rbp)
   15e71:	48 8d 85 58 f0 ff ff 	lea    -0xfa8(%rbp),%rax
   15e78:	48 89 85 60 f7 ff ff 	mov    %rax,-0x8a0(%rbp)
   15e7f:	48 8d 85 58 f0 ff ff 	lea    -0xfa8(%rbp),%rax
   15e86:	48 89 85 68 f7 ff ff 	mov    %rax,-0x898(%rbp)
   15e8d:	48 8d 85 54 f0 ff ff 	lea    -0xfac(%rbp),%rax
   15e94:	48 89 85 70 f7 ff ff 	mov    %rax,-0x890(%rbp)
   15e9b:	48 8d 85 58 f0 ff ff 	lea    -0xfa8(%rbp),%rax
   15ea2:	48 89 85 78 f7 ff ff 	mov    %rax,-0x888(%rbp)
   15ea9:	48 8d 85 58 f0 ff ff 	lea    -0xfa8(%rbp),%rax
   15eb0:	48 89 85 80 f7 ff ff 	mov    %rax,-0x880(%rbp)
   15eb7:	48 c7 85 88 f7 ff ff 	movq   $0x0,-0x878(%rbp)
   15ebe:	00 00 00 00 
   15ec2:	48 8d 85 54 f0 ff ff 	lea    -0xfac(%rbp),%rax
   15ec9:	48 89 85 90 f7 ff ff 	mov    %rax,-0x870(%rbp)
   15ed0:	48 8d 85 58 f0 ff ff 	lea    -0xfa8(%rbp),%rax
   15ed7:	48 89 85 98 f7 ff ff 	mov    %rax,-0x868(%rbp)
   15ede:	48 8d 85 54 f0 ff ff 	lea    -0xfac(%rbp),%rax
   15ee5:	48 89 85 a0 f7 ff ff 	mov    %rax,-0x860(%rbp)
   15eec:	48 8d 85 58 f0 ff ff 	lea    -0xfa8(%rbp),%rax
   15ef3:	48 89 85 a8 f7 ff ff 	mov    %rax,-0x858(%rbp)
   15efa:	48 8d 85 54 f0 ff ff 	lea    -0xfac(%rbp),%rax
   15f01:	48 89 85 b0 f7 ff ff 	mov    %rax,-0x850(%rbp)
   15f08:	48 8d 85 58 f0 ff ff 	lea    -0xfa8(%rbp),%rax
   15f0f:	48 89 85 b8 f7 ff ff 	mov    %rax,-0x848(%rbp)
   15f16:	48 c7 85 c0 f7 ff ff 	movq   $0x0,-0x840(%rbp)
   15f1d:	00 00 00 00 
   15f21:	48 8d 85 54 f0 ff ff 	lea    -0xfac(%rbp),%rax
   15f28:	48 89 85 c8 f7 ff ff 	mov    %rax,-0x838(%rbp)
   15f2f:	48 c7 85 d0 f7 ff ff 	movq   $0x0,-0x830(%rbp)
   15f36:	00 00 00 00 
   15f3a:	48 8d 85 54 f0 ff ff 	lea    -0xfac(%rbp),%rax
   15f41:	48 89 85 d8 f7 ff ff 	mov    %rax,-0x828(%rbp)
   15f48:	48 8d 85 54 f0 ff ff 	lea    -0xfac(%rbp),%rax
   15f4f:	48 89 85 e0 f7 ff ff 	mov    %rax,-0x820(%rbp)
   15f56:	48 8d 05 4f 74 00 00 	lea    0x744f(%rip),%rax        # 1d3ac <g_181>
   15f5d:	48 89 85 e8 f7 ff ff 	mov    %rax,-0x818(%rbp)
   15f64:	48 8d 85 54 f0 ff ff 	lea    -0xfac(%rbp),%rax
   15f6b:	48 89 85 f0 f7 ff ff 	mov    %rax,-0x810(%rbp)
   15f72:	48 c7 85 f8 f7 ff ff 	movq   $0x0,-0x808(%rbp)
   15f79:	00 00 00 00 
   15f7d:	48 8d 85 58 f0 ff ff 	lea    -0xfa8(%rbp),%rax
   15f84:	48 89 85 00 f8 ff ff 	mov    %rax,-0x800(%rbp)
   15f8b:	48 8d 85 54 f0 ff ff 	lea    -0xfac(%rbp),%rax
   15f92:	48 89 85 08 f8 ff ff 	mov    %rax,-0x7f8(%rbp)
   15f99:	48 c7 85 10 f8 ff ff 	movq   $0x0,-0x7f0(%rbp)
   15fa0:	00 00 00 00 
   15fa4:	48 8d 85 58 f0 ff ff 	lea    -0xfa8(%rbp),%rax
   15fab:	48 89 85 18 f8 ff ff 	mov    %rax,-0x7e8(%rbp)
   15fb2:	48 8d 85 58 f0 ff ff 	lea    -0xfa8(%rbp),%rax
   15fb9:	48 89 85 20 f8 ff ff 	mov    %rax,-0x7e0(%rbp)
   15fc0:	48 8d 85 54 f0 ff ff 	lea    -0xfac(%rbp),%rax
   15fc7:	48 89 85 28 f8 ff ff 	mov    %rax,-0x7d8(%rbp)
   15fce:	48 8d 85 58 f0 ff ff 	lea    -0xfa8(%rbp),%rax
   15fd5:	48 89 85 30 f8 ff ff 	mov    %rax,-0x7d0(%rbp)
   15fdc:	48 8d 85 54 f0 ff ff 	lea    -0xfac(%rbp),%rax
   15fe3:	48 89 85 38 f8 ff ff 	mov    %rax,-0x7c8(%rbp)
   15fea:	48 8d 85 54 f0 ff ff 	lea    -0xfac(%rbp),%rax
   15ff1:	48 89 85 40 f8 ff ff 	mov    %rax,-0x7c0(%rbp)
   15ff8:	48 c7 85 48 f8 ff ff 	movq   $0x0,-0x7b8(%rbp)
   15fff:	00 00 00 00 
   16003:	48 8d 85 58 f0 ff ff 	lea    -0xfa8(%rbp),%rax
   1600a:	48 89 85 50 f8 ff ff 	mov    %rax,-0x7b0(%rbp)
   16011:	48 8d 85 54 f0 ff ff 	lea    -0xfac(%rbp),%rax
   16018:	48 89 85 58 f8 ff ff 	mov    %rax,-0x7a8(%rbp)
   1601f:	8b 85 3c f0 ff ff    	mov    -0xfc4(%rbp),%eax
   16025:	89 c3                	mov    %eax,%ebx
   16027:	8b 85 58 f0 ff ff    	mov    -0xfa8(%rbp),%eax
   1602d:	89 c6                	mov    %eax,%esi
   1602f:	bf 47 1d 91 10       	mov    $0x10911d47,%edi
   16034:	e8 ec 2e ff ff       	callq  8f25 <safe_div_func_uint32_t_u_u>
   16039:	8b 85 3c f0 ff ff    	mov    -0xfc4(%rbp),%eax
   1603f:	85 c0                	test   %eax,%eax
   16041:	74 12                	je     16055 <func_45+0x16d0>
   16043:	8b 85 3c f0 ff ff    	mov    -0xfc4(%rbp),%eax
   16049:	83 f8 fc             	cmp    $0xfffffffc,%eax
   1604c:	7c 07                	jl     16055 <func_45+0x16d0>
   1604e:	b8 01 00 00 00       	mov    $0x1,%eax
   16053:	eb 05                	jmp    1605a <func_45+0x16d5>
   16055:	b8 00 00 00 00       	mov    $0x0,%eax
   1605a:	0f be c0             	movsbl %al,%eax
   1605d:	be 00 00 00 00       	mov    $0x0,%esi
   16062:	89 c7                	mov    %eax,%edi
   16064:	e8 cc 22 ff ff       	callq  8335 <safe_rshift_func_int8_t_s_s>
   16069:	84 c0                	test   %al,%al
   1606b:	0f b7 05 8c 74 00 00 	movzwl 0x748c(%rip),%eax        # 1d4fe <g_502>
   16072:	98                   	cwtl   
   16073:	8b 95 78 f0 ff ff    	mov    -0xf88(%rbp),%edx
   16079:	81 ca fa ff 00 00    	or     $0xfffa,%edx
   1607f:	89 c6                	mov    %eax,%esi
   16081:	89 d7                	mov    %edx,%edi
   16083:	e8 9d 2e ff ff       	callq  8f25 <safe_div_func_uint32_t_u_u>
   16088:	8b 95 54 f0 ff ff    	mov    -0xfac(%rbp),%edx
   1608e:	39 d0                	cmp    %edx,%eax
   16090:	0f 95 c0             	setne  %al
   16093:	0f b6 c0             	movzbl %al,%eax
   16096:	48 8b 95 28 f0 ff ff 	mov    -0xfd8(%rbp),%rdx
   1609d:	09 d0                	or     %edx,%eax
   1609f:	0f b7 c0             	movzwl %ax,%eax
   160a2:	89 de                	mov    %ebx,%esi
   160a4:	89 c7                	mov    %eax,%edi
   160a6:	e8 cf 2d ff ff       	callq  8e7a <safe_rshift_func_uint16_t_u_u>
   160ab:	0f b7 c0             	movzwl %ax,%eax
   160ae:	48 39 85 28 f0 ff ff 	cmp    %rax,-0xfd8(%rbp)
   160b5:	0f 9e c0             	setle  %al
   160b8:	0f b6 c0             	movzbl %al,%eax
   160bb:	be a0 92 00 00       	mov    $0x92a0,%esi
   160c0:	89 c7                	mov    %eax,%edi
   160c2:	e8 38 2c ff ff       	callq  8cff <safe_add_func_uint16_t_u_u>
   160c7:	0f b6 d8             	movzbl %al,%ebx
   160ca:	0f b6 05 17 74 00 00 	movzbl 0x7417(%rip),%eax        # 1d4e8 <g_292>
   160d1:	0f be c0             	movsbl %al,%eax
   160d4:	be d4 9f ff ff       	mov    $0xffff9fd4,%esi
   160d9:	89 c7                	mov    %eax,%edi
   160db:	e8 d3 22 ff ff       	callq  83b3 <safe_add_func_int16_t_s_s>
   160e0:	0f b6 c0             	movzbl %al,%eax
   160e3:	89 de                	mov    %ebx,%esi
   160e5:	89 c7                	mov    %eax,%edi
   160e7:	e8 c2 2a ff ff       	callq  8bae <safe_mod_func_uint8_t_u_u>
   160ec:	0f b6 d0             	movzbl %al,%edx
   160ef:	8b 05 b7 72 00 00    	mov    0x72b7(%rip),%eax        # 1d3ac <g_181>
   160f5:	09 d0                	or     %edx,%eax
   160f7:	89 05 af 72 00 00    	mov    %eax,0x72af(%rip)        # 1d3ac <g_181>
   160fd:	c7 05 e1 73 00 00 00 	movl   $0x0,0x73e1(%rip)        # 1d4e8 <g_292>
   16104:	00 00 00 
   16107:	eb 7e                	jmp    16187 <func_45+0x1802>
   16109:	c7 05 d1 73 00 00 00 	movl   $0x0,0x73d1(%rip)        # 1d4e4 <g_264>
   16110:	00 00 00 
   16113:	90                   	nop
   16114:	8b 05 ca 73 00 00    	mov    0x73ca(%rip),%eax        # 1d4e4 <g_264>
   1611a:	83 f8 01             	cmp    $0x1,%eax
   1611d:	77 59                	ja     16178 <func_45+0x17f3>
   1611f:	48 8b 85 28 f0 ff ff 	mov    -0xfd8(%rbp),%rax
   16126:	48 8d 50 02          	lea    0x2(%rax),%rdx
   1612a:	8b 05 b8 73 00 00    	mov    0x73b8(%rip),%eax        # 1d4e8 <g_292>
   16130:	8d 48 02             	lea    0x2(%rax),%ecx
   16133:	8b 05 ab 73 00 00    	mov    0x73ab(%rip),%eax        # 1d4e4 <g_264>
   16139:	83 c0 05             	add    $0x5,%eax
   1613c:	89 c6                	mov    %eax,%esi
   1613e:	89 c9                	mov    %ecx,%ecx
   16140:	48 89 d0             	mov    %rdx,%rax
   16143:	48 c1 e0 03          	shl    $0x3,%rax
   16147:	48 01 d0             	add    %rdx,%rax
   1614a:	48 c1 e0 02          	shl    $0x2,%rax
   1614e:	48 29 d0             	sub    %rdx,%rax
   16151:	48 89 ca             	mov    %rcx,%rdx
   16154:	48 c1 e2 03          	shl    $0x3,%rdx
   16158:	48 29 ca             	sub    %rcx,%rdx
   1615b:	48 01 d0             	add    %rdx,%rax
   1615e:	48 01 f0             	add    %rsi,%rax
   16161:	48 8d 14 85 00 00 00 	lea    0x0(,%rax,4),%rdx
   16168:	00 
   16169:	48 8d 05 f0 6e 00 00 	lea    0x6ef0(%rip),%rax        # 1d060 <g_176>
   16170:	8b 04 02             	mov    (%rdx,%rax,1),%eax
   16173:	e9 18 04 00 00       	jmpq   16590 <func_45+0x1c0b>
   16178:	8b 05 6a 73 00 00    	mov    0x736a(%rip),%eax        # 1d4e8 <g_292>
   1617e:	83 c0 01             	add    $0x1,%eax
   16181:	89 05 61 73 00 00    	mov    %eax,0x7361(%rip)        # 1d4e8 <g_292>
   16187:	8b 05 5b 73 00 00    	mov    0x735b(%rip),%eax        # 1d4e8 <g_292>
   1618d:	83 f8 01             	cmp    $0x1,%eax
   16190:	0f 86 73 ff ff ff    	jbe    16109 <func_45+0x1784>
   16196:	c7 85 88 f0 ff ff 00 	movl   $0x0,-0xf78(%rbp)
   1619d:	00 00 00 
   161a0:	90                   	nop
   161a1:	8b 85 88 f0 ff ff    	mov    -0xf78(%rbp),%eax
   161a7:	83 f8 01             	cmp    $0x1,%eax
   161aa:	77 0b                	ja     161b7 <func_45+0x1832>
   161ac:	8b 05 f2 72 00 00    	mov    0x72f2(%rip),%eax        # 1d4a4 <g_215+0xe4>
   161b2:	e9 d9 03 00 00       	jmpq   16590 <func_45+0x1c0b>
   161b7:	83 85 5c f0 ff ff 01 	addl   $0x1,-0xfa4(%rbp)
   161be:	8b 85 58 f0 ff ff    	mov    -0xfa8(%rbp),%eax
   161c4:	83 e8 01             	sub    $0x1,%eax
   161c7:	89 85 58 f0 ff ff    	mov    %eax,-0xfa8(%rbp)
   161cd:	8b 85 58 f0 ff ff    	mov    -0xfa8(%rbp),%eax
   161d3:	85 c0                	test   %eax,%eax
   161d5:	0f 89 da f2 ff ff    	jns    154b5 <func_45+0xb30>
   161db:	eb 01                	jmp    161de <func_45+0x1859>
   161dd:	90                   	nop
   161de:	48 83 85 28 f0 ff ff 	addq   $0x1,-0xfd8(%rbp)
   161e5:	01 
   161e6:	48 83 bd 28 f0 ff ff 	cmpq   $0x1,-0xfd8(%rbp)
   161ed:	01 
   161ee:	0f 8e 69 e8 ff ff    	jle    14a5d <func_45+0xd8>
   161f4:	90                   	nop
   161f5:	48 8b 05 ec 9a 00 00 	mov    0x9aec(%rip),%rax        # 1fce8 <g_258>
   161fc:	48 8b 00             	mov    (%rax),%rax
   161ff:	48 89 85 b0 f0 ff ff 	mov    %rax,-0xf50(%rbp)
   16206:	c6 05 45 6e 00 00 00 	movb   $0x0,0x6e45(%rip)        # 1d052 <g_126>
   1620d:	e9 68 03 00 00       	jmpq   1657a <func_45+0x1bf5>
   16212:	c7 85 60 f1 ff ff 89 	movl   $0xd4c40589,-0xea0(%rbp)
   16219:	05 c4 d4 
   1621c:	c7 85 64 f1 ff ff 89 	movl   $0xd4c40589,-0xe9c(%rbp)
   16223:	05 c4 d4 
   16226:	c7 85 68 f1 ff ff 89 	movl   $0xd4c40589,-0xe98(%rbp)
   1622d:	05 c4 d4 
   16230:	c7 85 6c f1 ff ff 89 	movl   $0xd4c40589,-0xe94(%rbp)
   16237:	05 c4 d4 
   1623a:	c7 85 70 f1 ff ff 89 	movl   $0xd4c40589,-0xe90(%rbp)
   16241:	05 c4 d4 
   16244:	c7 85 74 f1 ff ff 89 	movl   $0xd4c40589,-0xe8c(%rbp)
   1624b:	05 c4 d4 
   1624e:	66 c7 85 52 f0 ff ff 	movw   $0xf377,-0xfae(%rbp)
   16255:	77 f3 
   16257:	c7 85 90 f0 ff ff f9 	movl   $0xfffffff9,-0xf70(%rbp)
   1625e:	ff ff ff 
   16261:	48 8d 05 48 71 00 00 	lea    0x7148(%rip),%rax        # 1d3b0 <g_184>
   16268:	48 89 85 b8 f0 ff ff 	mov    %rax,-0xf48(%rbp)
   1626f:	48 c7 85 c0 f0 ff ff 	movq   $0x0,-0xf40(%rbp)
   16276:	00 00 00 00 
   1627a:	48 8d 05 7b 72 00 00 	lea    0x727b(%rip),%rax        # 1d4fc <g_443>
   16281:	48 89 85 c8 f0 ff ff 	mov    %rax,-0xf38(%rbp)
   16288:	48 8d 05 6f 72 00 00 	lea    0x726f(%rip),%rax        # 1d4fe <g_502>
   1628f:	48 89 85 d0 f0 ff ff 	mov    %rax,-0xf30(%rbp)
   16296:	48 8d 85 54 f0 ff ff 	lea    -0xfac(%rbp),%rax
   1629d:	48 89 85 d8 f0 ff ff 	mov    %rax,-0xf28(%rbp)
   162a4:	c7 85 68 f0 ff ff 00 	movl   $0x0,-0xf98(%rbp)
   162ab:	00 00 00 
   162ae:	eb 1e                	jmp    162ce <func_45+0x1949>
   162b0:	8b 85 68 f0 ff ff    	mov    -0xf98(%rbp),%eax
   162b6:	48 98                	cltq   
   162b8:	48 8d 15 47 72 00 00 	lea    0x7247(%rip),%rdx        # 1d506 <g_677>
   162bf:	48 89 94 c5 a0 f1 ff 	mov    %rdx,-0xe60(%rbp,%rax,8)
   162c6:	ff 
   162c7:	83 85 68 f0 ff ff 01 	addl   $0x1,-0xf98(%rbp)
   162ce:	83 bd 68 f0 ff ff 06 	cmpl   $0x6,-0xf98(%rbp)
   162d5:	7e d9                	jle    162b0 <func_45+0x192b>
   162d7:	c7 05 4f 6d 00 00 04 	movl   $0x4,0x6d4f(%rip)        # 1d030 <g_85>
   162de:	00 00 00 
   162e1:	e9 d0 00 00 00       	jmpq   163b6 <func_45+0x1a31>
   162e6:	48 c7 85 e0 f0 ff ff 	movq   $0x2,-0xf20(%rbp)
   162ed:	02 00 00 00 
   162f1:	c6 85 4f f0 ff ff ff 	movb   $0xff,-0xfb1(%rbp)
   162f8:	c7 85 70 f0 ff ff fc 	movl   $0xfffffffc,-0xf90(%rbp)
   162ff:	ff ff ff 
   16302:	48 c7 85 60 f8 ff ff 	movq   $0x0,-0x7a0(%rbp)
   16309:	00 00 00 00 
   1630d:	48 c7 85 68 f8 ff ff 	movq   $0x0,-0x798(%rbp)
   16314:	00 00 00 00 
   16318:	48 8d 05 91 70 00 00 	lea    0x7091(%rip),%rax        # 1d3b0 <g_184>
   1631f:	48 89 85 70 f8 ff ff 	mov    %rax,-0x790(%rbp)
   16326:	48 c7 85 78 f8 ff ff 	movq   $0x0,-0x788(%rbp)
   1632d:	00 00 00 00 
   16331:	48 c7 85 80 f8 ff ff 	movq   $0x0,-0x780(%rbp)
   16338:	00 00 00 00 
   1633c:	48 8d 05 6d 70 00 00 	lea    0x706d(%rip),%rax        # 1d3b0 <g_184>
   16343:	48 89 85 88 f8 ff ff 	mov    %rax,-0x778(%rbp)
   1634a:	48 c7 85 90 f8 ff ff 	movq   $0x0,-0x770(%rbp)
   16351:	00 00 00 00 
   16355:	48 c7 85 98 f8 ff ff 	movq   $0x0,-0x768(%rbp)
   1635c:	00 00 00 00 
   16360:	48 8d 05 49 70 00 00 	lea    0x7049(%rip),%rax        # 1d3b0 <g_184>
   16367:	48 89 85 a0 f8 ff ff 	mov    %rax,-0x760(%rbp)
   1636e:	c7 85 74 f0 ff ff f9 	movl   $0xfffffff9,-0xf8c(%rbp)
   16375:	ff ff ff 
   16378:	c7 85 6c f0 ff ff 00 	movl   $0x0,-0xf94(%rbp)
   1637f:	00 00 00 
   16382:	eb 1a                	jmp    1639e <func_45+0x1a19>
   16384:	8b 85 6c f0 ff ff    	mov    -0xf94(%rbp),%eax
   1638a:	48 98                	cltq   
   1638c:	c7 84 85 80 f1 ff ff 	movl   $0xb37fd4a8,-0xe80(%rbp,%rax,4)
   16393:	a8 d4 7f b3 
   16397:	83 85 6c f0 ff ff 01 	addl   $0x1,-0xf94(%rbp)
   1639e:	83 bd 6c f0 ff ff 06 	cmpl   $0x6,-0xf94(%rbp)
   163a5:	7e dd                	jle    16384 <func_45+0x19ff>
   163a7:	8b 05 83 6c 00 00    	mov    0x6c83(%rip),%eax        # 1d030 <g_85>
   163ad:	83 e8 01             	sub    $0x1,%eax
   163b0:	89 05 7a 6c 00 00    	mov    %eax,0x6c7a(%rip)        # 1d030 <g_85>
   163b6:	8b 05 74 6c 00 00    	mov    0x6c74(%rip),%eax        # 1d030 <g_85>
   163bc:	85 c0                	test   %eax,%eax
   163be:	0f 89 22 ff ff ff    	jns    162e6 <func_45+0x1961>
   163c4:	8b 85 88 f0 ff ff    	mov    -0xf78(%rbp),%eax
   163ca:	85 c0                	test   %eax,%eax
   163cc:	74 05                	je     163d3 <func_45+0x1a4e>
   163ce:	e9 22 fe ff ff       	jmpq   161f5 <func_45+0x1870>
   163d3:	48 8b 85 b0 f0 ff ff 	mov    -0xf50(%rbp),%rax
   163da:	8b 00                	mov    (%rax),%eax
   163dc:	85 c0                	test   %eax,%eax
   163de:	74 12                	je     163f2 <func_45+0x1a6d>
   163e0:	8b 85 3c f0 ff ff    	mov    -0xfc4(%rbp),%eax
   163e6:	83 f8 01             	cmp    $0x1,%eax
   163e9:	74 07                	je     163f2 <func_45+0x1a6d>
   163eb:	b8 01 00 00 00       	mov    $0x1,%eax
   163f0:	eb 05                	jmp    163f7 <func_45+0x1a72>
   163f2:	b8 00 00 00 00       	mov    $0x0,%eax
   163f7:	89 85 6c f1 ff ff    	mov    %eax,-0xe94(%rbp)
   163fd:	48 8b 85 b0 f0 ff ff 	mov    -0xf50(%rbp),%rax
   16404:	8b 00                	mov    (%rax),%eax
   16406:	48 63 d8             	movslq %eax,%rbx
   16409:	48 8b 05 d0 98 00 00 	mov    0x98d0(%rip),%rax        # 1fce0 <g_207>
   16410:	48 8b 00             	mov    (%rax),%rax
   16413:	48 85 c0             	test   %rax,%rax
   16416:	0f 94 c0             	sete   %al
   16419:	0f b6 d0             	movzbl %al,%edx
   1641c:	48 8b 85 b0 f0 ff ff 	mov    -0xf50(%rbp),%rax
   16423:	8b 00                	mov    (%rax),%eax
   16425:	39 c2                	cmp    %eax,%edx
   16427:	0f 9d c0             	setge  %al
   1642a:	0f b6 d0             	movzbl %al,%edx
   1642d:	48 8b 85 c8 f0 ff ff 	mov    -0xf38(%rbp),%rax
   16434:	0f b6 00             	movzbl (%rax),%eax
   16437:	8b 8d 3c f0 ff ff    	mov    -0xfc4(%rbp),%ecx
   1643d:	31 c1                	xor    %eax,%ecx
   1643f:	48 8b 85 c8 f0 ff ff 	mov    -0xf38(%rbp),%rax
   16446:	88 08                	mov    %cl,(%rax)
   16448:	48 8b 85 c8 f0 ff ff 	mov    -0xf38(%rbp),%rax
   1644f:	0f b6 00             	movzbl (%rax),%eax
   16452:	66 98                	cbtw   
   16454:	f7 d0                	not    %eax
   16456:	0f b7 c0             	movzwl %ax,%eax
   16459:	89 d6                	mov    %edx,%esi
   1645b:	89 c7                	mov    %eax,%edi
   1645d:	e8 bd 28 ff ff       	callq  8d1f <safe_sub_func_uint16_t_u_u>
   16462:	0f b7 c0             	movzwl %ax,%eax
   16465:	48 89 de             	mov    %rbx,%rsi
   16468:	48 89 c7             	mov    %rax,%rdi
   1646b:	e8 be 2b ff ff       	callq  902e <safe_add_func_uint64_t_u_u>
   16470:	8b 85 3c f0 ff ff    	mov    -0xfc4(%rbp),%eax
   16476:	0f b6 d0             	movzbl %al,%edx
   16479:	48 8b 85 b0 f0 ff ff 	mov    -0xf50(%rbp),%rax
   16480:	8b 00                	mov    (%rax),%eax
   16482:	0f b6 c0             	movzbl %al,%eax
   16485:	89 d6                	mov    %edx,%esi
   16487:	89 c7                	mov    %eax,%edi
   16489:	e8 05 27 ff ff       	callq  8b93 <safe_mul_func_uint8_t_u_u>
   1648e:	0f b6 d0             	movzbl %al,%edx
   16491:	0f bf 85 52 f0 ff ff 	movswl -0xfae(%rbp),%eax
   16498:	31 c2                	xor    %eax,%edx
   1649a:	48 8b 85 b0 f0 ff ff 	mov    -0xf50(%rbp),%rax
   164a1:	89 10                	mov    %edx,(%rax)
   164a3:	48 8b 85 b0 f0 ff ff 	mov    -0xf50(%rbp),%rax
   164aa:	8b 10                	mov    (%rax),%edx
   164ac:	8b 85 90 f0 ff ff    	mov    -0xf70(%rbp),%eax
   164b2:	21 d0                	and    %edx,%eax
   164b4:	89 85 90 f0 ff ff    	mov    %eax,-0xf70(%rbp)
   164ba:	48 8b 85 b0 f0 ff ff 	mov    -0xf50(%rbp),%rax
   164c1:	8b 00                	mov    (%rax),%eax
   164c3:	48 63 d0             	movslq %eax,%rdx
   164c6:	0f b6 05 1f 70 00 00 	movzbl 0x701f(%rip),%eax        # 1d4ec <g_388>
   164cd:	48 0f be c0          	movsbq %al,%rax
   164d1:	48 89 d6             	mov    %rdx,%rsi
   164d4:	48 89 c7             	mov    %rax,%rdi
   164d7:	e8 a4 2b ff ff       	callq  9080 <safe_mod_func_uint64_t_u_u>
   164dc:	48 85 c0             	test   %rax,%rax
   164df:	0f 94 c0             	sete   %al
   164e2:	0f b6 d0             	movzbl %al,%edx
   164e5:	48 8b 85 b0 f0 ff ff 	mov    -0xf50(%rbp),%rax
   164ec:	8b 00                	mov    (%rax),%eax
   164ee:	39 c2                	cmp    %eax,%edx
   164f0:	0f 9c c0             	setl   %al
   164f3:	0f b6 d0             	movzbl %al,%edx
   164f6:	48 8b 85 d0 f0 ff ff 	mov    -0xf30(%rbp),%rax
   164fd:	0f b7 08             	movzwl (%rax),%ecx
   16500:	48 8b 85 b0 f0 ff ff 	mov    -0xf50(%rbp),%rax
   16507:	8b 00                	mov    (%rax),%eax
   16509:	31 c1                	xor    %eax,%ecx
   1650b:	48 8b 85 d0 f0 ff ff 	mov    -0xf30(%rbp),%rax
   16512:	66 89 08             	mov    %cx,(%rax)
   16515:	48 8b 85 d0 f0 ff ff 	mov    -0xf30(%rbp),%rax
   1651c:	0f b7 00             	movzwl (%rax),%eax
   1651f:	0f bf c8             	movswl %ax,%ecx
   16522:	8b 85 64 f1 ff ff    	mov    -0xe9c(%rbp),%eax
   16528:	21 c8                	and    %ecx,%eax
   1652a:	85 c0                	test   %eax,%eax
   1652c:	0f 95 c0             	setne  %al
   1652f:	0f b6 c0             	movzbl %al,%eax
   16532:	39 c2                	cmp    %eax,%edx
   16534:	0f 9e c0             	setle  %al
   16537:	0f b6 c0             	movzbl %al,%eax
   1653a:	48 8b 95 28 f0 ff ff 	mov    -0xfd8(%rbp),%rdx
   16541:	31 d0                	xor    %edx,%eax
   16543:	0f b7 c0             	movzwl %ax,%eax
   16546:	89 c6                	mov    %eax,%esi
   16548:	bf fd ff 00 00       	mov    $0xfffd,%edi
   1654d:	e8 3c 28 ff ff       	callq  8d8e <safe_div_func_uint16_t_u_u>
   16552:	48 8b 05 6f 97 00 00 	mov    0x976f(%rip),%rax        # 1fcc8 <g_180>
   16559:	c7 00 01 00 00 00    	movl   $0x1,(%rax)
   1655f:	8b 10                	mov    (%rax),%edx
   16561:	48 8b 85 d8 f0 ff ff 	mov    -0xf28(%rbp),%rax
   16568:	89 10                	mov    %edx,(%rax)
   1656a:	0f b6 05 e1 6a 00 00 	movzbl 0x6ae1(%rip),%eax        # 1d052 <g_126>
   16571:	83 c0 01             	add    $0x1,%eax
   16574:	88 05 d8 6a 00 00    	mov    %al,0x6ad8(%rip)        # 1d052 <g_126>
   1657a:	0f b6 05 d1 6a 00 00 	movzbl 0x6ad1(%rip),%eax        # 1d052 <g_126>
   16581:	3c 10                	cmp    $0x10,%al
   16583:	0f 84 89 fc ff ff    	je     16212 <func_45+0x188d>
   16589:	48 8b 85 28 f0 ff ff 	mov    -0xfd8(%rbp),%rax
   16590:	48 8b 5d e8          	mov    -0x18(%rbp),%rbx
   16594:	64 48 33 1c 25 28 00 	xor    %fs:0x28,%rbx
   1659b:	00 00 
   1659d:	74 05                	je     165a4 <func_45+0x1c1f>
   1659f:	e8 cc 1a ff ff       	callq  8070 <__stack_chk_fail@plt>
   165a4:	48 81 c4 d0 0f 00 00 	add    $0xfd0,%rsp
   165ab:	5b                   	pop    %rbx
   165ac:	41 5c                	pop    %r12
   165ae:	5d                   	pop    %rbp
   165af:	c3                   	retq   

00000000000165b0 <func_54>:
   165b0:	f3 0f 1e fa          	endbr64 
   165b4:	55                   	push   %rbp
   165b5:	48 89 e5             	mov    %rsp,%rbp
   165b8:	48 81 ec 50 03 00 00 	sub    $0x350,%rsp
   165bf:	89 bd bc fc ff ff    	mov    %edi,-0x344(%rbp)
   165c5:	64 48 8b 04 25 28 00 	mov    %fs:0x28,%rax
   165cc:	00 00 
   165ce:	48 89 45 f8          	mov    %rax,-0x8(%rbp)
   165d2:	31 c0                	xor    %eax,%eax
   165d4:	48 c7 85 c8 fc ff ff 	movq   $0x0,-0x338(%rbp)
   165db:	00 00 00 00 
   165df:	c7 85 c8 fc ff ff fe 	movl   $0xfffffffe,-0x338(%rbp)
   165e6:	ff ff ff 
   165e9:	48 8d 85 c8 fc ff ff 	lea    -0x338(%rbp),%rax
   165f0:	48 89 85 d0 fc ff ff 	mov    %rax,-0x330(%rbp)
   165f7:	48 8d 05 4a a5 00 00 	lea    0xa54a(%rip),%rax        # 20b48 <g_111>
   165fe:	48 89 85 d8 fc ff ff 	mov    %rax,-0x328(%rbp)
   16605:	48 8d 85 f0 fc ff ff 	lea    -0x310(%rbp),%rax
   1660c:	48 8d 15 ad 91 00 00 	lea    0x91ad(%rip),%rdx        # 1f7c0 <g_2683+0x20b8>
   16613:	b9 60 00 00 00       	mov    $0x60,%ecx
   16618:	48 89 c7             	mov    %rax,%rdi
   1661b:	48 89 d6             	mov    %rdx,%rsi
   1661e:	f3 48 a5             	rep movsq %ds:(%rsi),%es:(%rdi)
   16621:	c7 85 c4 fc ff ff 77 	movl   $0x39dcd777,-0x33c(%rbp)
   16628:	d7 dc 39 
   1662b:	48 c7 85 e0 fc ff ff 	movq   $0x4,-0x320(%rbp)
   16632:	04 00 00 00 
   16636:	c6 85 c3 fc ff ff 03 	movb   $0x3,-0x33d(%rbp)
   1663d:	48 8d 05 ac 6e 00 00 	lea    0x6eac(%rip),%rax        # 1d4f0 <g_397>
   16644:	48 89 85 e8 fc ff ff 	mov    %rax,-0x318(%rbp)
   1664b:	8b 85 bc fc ff ff    	mov    -0x344(%rbp),%eax
   16651:	48 8b 55 f8          	mov    -0x8(%rbp),%rdx
   16655:	64 48 33 14 25 28 00 	xor    %fs:0x28,%rdx
   1665c:	00 00 
   1665e:	74 05                	je     16665 <func_54+0xb5>
   16660:	e8 0b 1a ff ff       	callq  8070 <__stack_chk_fail@plt>
   16665:	c9                   	leaveq 
   16666:	c3                   	retq   

0000000000016667 <func_56>:
   16667:	f3 0f 1e fa          	endbr64 
   1666b:	55                   	push   %rbp
   1666c:	48 89 e5             	mov    %rsp,%rbp
   1666f:	41 55                	push   %r13
   16671:	41 54                	push   %r12
   16673:	53                   	push   %rbx
   16674:	48 81 ec d8 03 00 00 	sub    $0x3d8,%rsp
   1667b:	89 bd 1c fc ff ff    	mov    %edi,-0x3e4(%rbp)
   16681:	89 f0                	mov    %esi,%eax
   16683:	48 89 95 10 fc ff ff 	mov    %rdx,-0x3f0(%rbp)
   1668a:	88 85 18 fc ff ff    	mov    %al,-0x3e8(%rbp)
   16690:	64 48 8b 04 25 28 00 	mov    %fs:0x28,%rax
   16697:	00 00 
   16699:	48 89 45 d8          	mov    %rax,-0x28(%rbp)
   1669d:	31 c0                	xor    %eax,%eax
   1669f:	48 8d 05 86 69 00 00 	lea    0x6986(%rip),%rax        # 1d02c <g_65>
   166a6:	48 89 85 78 fc ff ff 	mov    %rax,-0x388(%rbp)
   166ad:	c7 85 40 fc ff ff 02 	movl   $0x2,-0x3c0(%rbp)
   166b4:	00 00 00 
   166b7:	48 8d 05 72 69 00 00 	lea    0x6972(%rip),%rax        # 1d030 <g_85>
   166be:	48 89 85 50 fc ff ff 	mov    %rax,-0x3b0(%rbp)
   166c5:	48 8d 85 50 fc ff ff 	lea    -0x3b0(%rbp),%rax
   166cc:	48 89 85 80 fc ff ff 	mov    %rax,-0x380(%rbp)
   166d3:	48 8d 05 56 69 00 00 	lea    0x6956(%rip),%rax        # 1d030 <g_85>
   166da:	48 89 85 58 fc ff ff 	mov    %rax,-0x3a8(%rbp)
   166e1:	48 8d 85 58 fc ff ff 	lea    -0x3a8(%rbp),%rax
   166e8:	48 89 85 60 fc ff ff 	mov    %rax,-0x3a0(%rbp)
   166ef:	48 8d 05 42 69 00 00 	lea    0x6942(%rip),%rax        # 1d038 <g_91>
   166f6:	48 89 85 88 fc ff ff 	mov    %rax,-0x378(%rbp)
   166fd:	c7 85 30 fc ff ff 00 	movl   $0x0,-0x3d0(%rbp)
   16704:	00 00 00 
   16707:	48 8d 05 ba 95 00 00 	lea    0x95ba(%rip),%rax        # 1fcc8 <g_180>
   1670e:	48 89 85 90 fc ff ff 	mov    %rax,-0x370(%rbp)
   16715:	c7 85 34 fc ff ff 00 	movl   $0x0,-0x3cc(%rbp)
   1671c:	00 00 00 
   1671f:	eb 1a                	jmp    1673b <func_56+0xd4>
   16721:	8b 85 34 fc ff ff    	mov    -0x3cc(%rbp),%eax
   16727:	48 98                	cltq   
   16729:	c7 84 85 40 fd ff ff 	movl   $0x2d8d86f2,-0x2c0(%rbp,%rax,4)
   16730:	f2 86 8d 2d 
   16734:	83 85 34 fc ff ff 01 	addl   $0x1,-0x3cc(%rbp)
   1673b:	83 bd 34 fc ff ff 08 	cmpl   $0x8,-0x3cc(%rbp)
   16742:	7e dd                	jle    16721 <func_56+0xba>
   16744:	48 8b 95 50 fc ff ff 	mov    -0x3b0(%rbp),%rdx
   1674b:	48 8b 85 80 fc ff ff 	mov    -0x380(%rbp),%rax
   16752:	48 89 10             	mov    %rdx,(%rax)
   16755:	48 8b 85 80 fc ff ff 	mov    -0x380(%rbp),%rax
   1675c:	48 8b 08             	mov    (%rax),%rcx
   1675f:	48 8b 85 60 fc ff ff 	mov    -0x3a0(%rbp),%rax
   16766:	48 8b 95 58 fc ff ff 	mov    -0x3a8(%rbp),%rdx
   1676d:	48 89 10             	mov    %rdx,(%rax)
   16770:	48 8b 00             	mov    (%rax),%rax
   16773:	48 89 05 46 95 00 00 	mov    %rax,0x9546(%rip)        # 1fcc0 <g_89>
   1677a:	48 8b 05 3f 95 00 00 	mov    0x953f(%rip),%rax        # 1fcc0 <g_89>
   16781:	48 39 c1             	cmp    %rax,%rcx
   16784:	0f 94 c0             	sete   %al
   16787:	0f b6 c0             	movzbl %al,%eax
   1678a:	8b 95 40 fc ff ff    	mov    -0x3c0(%rbp),%edx
   16790:	89 d6                	mov    %edx,%esi
   16792:	89 c7                	mov    %eax,%edi
   16794:	e8 91 1d ff ff       	callq  852a <safe_rshift_func_int16_t_s_s>
   16799:	48 0f bf d0          	movswq %ax,%rdx
   1679d:	48 8b 85 88 fc ff ff 	mov    -0x378(%rbp),%rax
   167a4:	48 89 10             	mov    %rdx,(%rax)
   167a7:	8b 85 40 fc ff ff    	mov    -0x3c0(%rbp),%eax
   167ad:	0f bf d8             	movswl %ax,%ebx
   167b0:	bf 00 00 00 00       	mov    $0x0,%edi
   167b5:	e8 dc 1d ff ff       	callq  8596 <safe_unary_minus_func_int32_t_s>
   167ba:	f7 d0                	not    %eax
   167bc:	98                   	cwtl   
   167bd:	89 de                	mov    %ebx,%esi
   167bf:	89 c7                	mov    %eax,%edi
   167c1:	e8 0d 1c ff ff       	callq  83d3 <safe_sub_func_int16_t_s_s>
   167c6:	0f bf d0             	movswl %ax,%edx
   167c9:	8b 85 40 fc ff ff    	mov    -0x3c0(%rbp),%eax
   167cf:	0f b7 c0             	movzwl %ax,%eax
   167d2:	89 d6                	mov    %edx,%esi
   167d4:	89 c7                	mov    %eax,%edi
   167d6:	e8 9f 26 ff ff       	callq  8e7a <safe_rshift_func_uint16_t_u_u>
   167db:	0f be c0             	movsbl %al,%eax
   167de:	be f7 ff ff ff       	mov    $0xfffffff7,%esi
   167e3:	89 c7                	mov    %eax,%edi
   167e5:	e8 ea 19 ff ff       	callq  81d4 <safe_add_func_int8_t_s_s>
   167ea:	84 c0                	test   %al,%al
   167ec:	0f 9e c0             	setle  %al
   167ef:	0f b6 c0             	movzbl %al,%eax
   167f2:	be cf ff ff ff       	mov    $0xffffffcf,%esi
   167f7:	89 c7                	mov    %eax,%edi
   167f9:	e8 14 1a ff ff       	callq  8212 <safe_mul_func_int8_t_s_s>
   167fe:	0f be c0             	movsbl %al,%eax
   16801:	39 85 40 fc ff ff    	cmp    %eax,-0x3c0(%rbp)
   16807:	0f 95 c0             	setne  %al
   1680a:	0f b6 c0             	movzbl %al,%eax
   1680d:	be 07 00 00 00       	mov    $0x7,%esi
   16812:	89 c7                	mov    %eax,%edi
   16814:	e8 c8 1c ff ff       	callq  84e1 <safe_lshift_func_int16_t_s_u>
   16819:	0f b6 d0             	movzbl %al,%edx
   1681c:	48 8b 85 78 fc ff ff 	mov    -0x388(%rbp),%rax
   16823:	0f b6 00             	movzbl (%rax),%eax
   16826:	83 c8 fd             	or     $0xfffffffd,%eax
   16829:	89 c1                	mov    %eax,%ecx
   1682b:	48 8b 85 78 fc ff ff 	mov    -0x388(%rbp),%rax
   16832:	88 08                	mov    %cl,(%rax)
   16834:	48 8b 85 78 fc ff ff 	mov    -0x388(%rbp),%rax
   1683b:	0f b6 00             	movzbl (%rax),%eax
   1683e:	0f b6 c0             	movzbl %al,%eax
   16841:	89 d6                	mov    %edx,%esi
   16843:	89 c7                	mov    %eax,%edi
   16845:	e8 64 23 ff ff       	callq  8bae <safe_mod_func_uint8_t_u_u>
   1684a:	84 c0                	test   %al,%al
   1684c:	0f 84 d5 06 00 00    	je     16f27 <func_56+0x8c0>
   16852:	48 b8 0c 6b cc 86 a0 	movabs $0xfb55e8a086cc6b0c,%rax
   16859:	e8 55 fb 
   1685c:	48 89 85 e8 fc ff ff 	mov    %rax,-0x318(%rbp)
   16863:	48 8d 05 de a2 00 00 	lea    0xa2de(%rip),%rax        # 20b48 <g_111>
   1686a:	48 89 85 f0 fc ff ff 	mov    %rax,-0x310(%rbp)
   16871:	48 8d 85 d0 fd ff ff 	lea    -0x230(%rbp),%rax
   16878:	48 8d 15 41 92 00 00 	lea    0x9241(%rip),%rdx        # 1fac0 <g_2683+0x23b8>
   1687f:	b9 40 00 00 00       	mov    $0x40,%ecx
   16884:	48 89 c7             	mov    %rax,%rdi
   16887:	48 89 d6             	mov    %rdx,%rsi
   1688a:	f3 48 a5             	rep movsq %ds:(%rsi),%es:(%rdi)
   1688d:	c7 85 4c fc ff ff 06 	movl   $0x6,-0x3b4(%rbp)
   16894:	00 00 00 
   16897:	66 c7 85 2c fc ff ff 	movw   $0xfffb,-0x3d4(%rbp)
   1689e:	fb ff 
   168a0:	8b 05 8a 67 00 00    	mov    0x678a(%rip),%eax        # 1d030 <g_85>
   168a6:	85 c0                	test   %eax,%eax
   168a8:	0f 85 1a 01 00 00    	jne    169c8 <func_56+0x361>
   168ae:	0f b6 05 6f 67 00 00 	movzbl 0x676f(%rip),%eax        # 1d024 <g_28>
   168b5:	0f b6 d8             	movzbl %al,%ebx
   168b8:	8b 85 40 fc ff ff    	mov    -0x3c0(%rbp),%eax
   168be:	44 0f b6 e0          	movzbl %al,%r12d
   168c2:	44 8b ad 1c fc ff ff 	mov    -0x3e4(%rbp),%r13d
   168c9:	8b 85 10 fc ff ff    	mov    -0x3f0(%rbp),%eax
   168cf:	85 c0                	test   %eax,%eax
   168d1:	74 45                	je     16918 <func_56+0x2b1>
   168d3:	48 8b 85 e8 fc ff ff 	mov    -0x318(%rbp),%rax
   168da:	0f be d0             	movsbl %al,%edx
   168dd:	0f b6 05 48 67 00 00 	movzbl 0x6748(%rip),%eax        # 1d02c <g_65>
   168e4:	0f be c0             	movsbl %al,%eax
   168e7:	89 d6                	mov    %edx,%esi
   168e9:	89 c7                	mov    %eax,%edi
   168eb:	e8 41 19 ff ff       	callq  8231 <safe_mod_func_int8_t_s_s>
   168f0:	84 c0                	test   %al,%al
   168f2:	0f 94 c0             	sete   %al
   168f5:	0f b6 c0             	movzbl %al,%eax
   168f8:	89 c7                	mov    %eax,%edi
   168fa:	e8 9e 1a ff ff       	callq  839d <safe_unary_minus_func_int16_t_s>
   168ff:	8b 05 2b 67 00 00    	mov    0x672b(%rip),%eax        # 1d030 <g_85>
   16905:	89 c2                	mov    %eax,%edx
   16907:	48 8b 85 f0 fc ff ff 	mov    -0x310(%rbp),%rax
   1690e:	66 89 10             	mov    %dx,(%rax)
   16911:	b8 01 00 00 00       	mov    $0x1,%eax
   16916:	eb 05                	jmp    1691d <func_56+0x2b6>
   16918:	b8 00 00 00 00       	mov    $0x0,%eax
   1691d:	0f b6 c0             	movzbl %al,%eax
   16920:	44 89 ee             	mov    %r13d,%esi
   16923:	89 c7                	mov    %eax,%edi
   16925:	e8 63 23 ff ff       	callq  8c8d <safe_rshift_func_uint8_t_u_s>
   1692a:	0f be 85 18 fc ff ff 	movsbl -0x3e8(%rbp),%eax
   16931:	be 04 00 00 00       	mov    $0x4,%esi
   16936:	89 c7                	mov    %eax,%edi
   16938:	e8 f8 19 ff ff       	callq  8335 <safe_rshift_func_int8_t_s_s>
   1693d:	0f be d0             	movsbl %al,%edx
   16940:	0f b6 05 e5 66 00 00 	movzbl 0x66e5(%rip),%eax        # 1d02c <g_65>
   16947:	0f b6 c0             	movzbl %al,%eax
   1694a:	39 c2                	cmp    %eax,%edx
   1694c:	0f 9d c0             	setge  %al
   1694f:	0f b6 c0             	movzbl %al,%eax
   16952:	44 89 e6             	mov    %r12d,%esi
   16955:	89 c7                	mov    %eax,%edi
   16957:	e8 1c 22 ff ff       	callq  8b78 <safe_sub_func_uint8_t_u_u>
   1695c:	0f b6 d0             	movzbl %al,%edx
   1695f:	8b 05 cb 66 00 00    	mov    0x66cb(%rip),%eax        # 1d030 <g_85>
   16965:	48 63 c8             	movslq %eax,%rcx
   16968:	48 8b 85 88 fc ff ff 	mov    -0x378(%rbp),%rax
   1696f:	48 89 08             	mov    %rcx,(%rax)
   16972:	48 8b 85 88 fc ff ff 	mov    -0x378(%rbp),%rax
   16979:	48 8b 00             	mov    (%rax),%rax
   1697c:	48 89 d6             	mov    %rdx,%rsi
   1697f:	48 89 c7             	mov    %rax,%rdi
   16982:	e8 f9 26 ff ff       	callq  9080 <safe_mod_func_uint64_t_u_u>
   16987:	89 c2                	mov    %eax,%edx
   16989:	8b 85 30 fc ff ff    	mov    -0x3d0(%rbp),%eax
   1698f:	31 d0                	xor    %edx,%eax
   16991:	89 85 30 fc ff ff    	mov    %eax,-0x3d0(%rbp)
   16997:	0f b6 15 8e 66 00 00 	movzbl 0x668e(%rip),%edx        # 1d02c <g_65>
   1699e:	48 8b 85 78 fc ff ff 	mov    -0x388(%rbp),%rax
   169a5:	88 10                	mov    %dl,(%rax)
   169a7:	48 8b 85 78 fc ff ff 	mov    -0x388(%rbp),%rax
   169ae:	0f b6 00             	movzbl (%rax),%eax
   169b1:	0f b6 c0             	movzbl %al,%eax
   169b4:	89 de                	mov    %ebx,%esi
   169b6:	89 c7                	mov    %eax,%edi
   169b8:	e8 f1 21 ff ff       	callq  8bae <safe_mod_func_uint8_t_u_u>
   169bd:	0f b6 05 60 66 00 00 	movzbl 0x6660(%rip),%eax        # 1d024 <g_28>
   169c4:	84 c0                	test   %al,%al
   169c6:	74 07                	je     169cf <func_56+0x368>
   169c8:	b8 01 00 00 00       	mov    $0x1,%eax
   169cd:	eb 05                	jmp    169d4 <func_56+0x36d>
   169cf:	b8 00 00 00 00       	mov    $0x0,%eax
   169d4:	66 35 7c ca          	xor    $0xca7c,%ax
   169d8:	0f b7 c0             	movzwl %ax,%eax
   169db:	89 c6                	mov    %eax,%esi
   169dd:	bf 03 00 00 00       	mov    $0x3,%edi
   169e2:	e8 56 23 ff ff       	callq  8d3d <safe_mul_func_uint16_t_u_u>
   169e7:	83 bd 40 fc ff ff 00 	cmpl   $0x0,-0x3c0(%rbp)
   169ee:	0f 84 4c 04 00 00    	je     16e40 <func_56+0x7d9>
   169f4:	48 8d 85 60 fc ff ff 	lea    -0x3a0(%rbp),%rax
   169fb:	48 89 85 f8 fc ff ff 	mov    %rax,-0x308(%rbp)
   16a02:	48 c7 85 00 fd ff ff 	movq   $0x0,-0x300(%rbp)
   16a09:	00 00 00 00 
   16a0d:	48 8d 05 3e 66 00 00 	lea    0x663e(%rip),%rax        # 1d052 <g_126>
   16a14:	48 89 85 08 fd ff ff 	mov    %rax,-0x2f8(%rbp)
   16a1b:	48 c7 85 10 fd ff ff 	movq   $0x0,-0x2f0(%rbp)
   16a22:	00 00 00 00 
   16a26:	48 8d 85 30 fc ff ff 	lea    -0x3d0(%rbp),%rax
   16a2d:	48 89 85 70 fd ff ff 	mov    %rax,-0x290(%rbp)
   16a34:	48 c7 85 78 fd ff ff 	movq   $0x0,-0x288(%rbp)
   16a3b:	00 00 00 00 
   16a3f:	48 8d 85 30 fc ff ff 	lea    -0x3d0(%rbp),%rax
   16a46:	48 89 85 80 fd ff ff 	mov    %rax,-0x280(%rbp)
   16a4d:	48 8d 85 30 fc ff ff 	lea    -0x3d0(%rbp),%rax
   16a54:	48 89 85 88 fd ff ff 	mov    %rax,-0x278(%rbp)
   16a5b:	48 c7 85 90 fd ff ff 	movq   $0x0,-0x270(%rbp)
   16a62:	00 00 00 00 
   16a66:	48 8d 85 30 fc ff ff 	lea    -0x3d0(%rbp),%rax
   16a6d:	48 89 85 98 fd ff ff 	mov    %rax,-0x268(%rbp)
   16a74:	48 8d 85 30 fc ff ff 	lea    -0x3d0(%rbp),%rax
   16a7b:	48 89 85 a0 fd ff ff 	mov    %rax,-0x260(%rbp)
   16a82:	48 c7 85 a8 fd ff ff 	movq   $0x0,-0x258(%rbp)
   16a89:	00 00 00 00 
   16a8d:	48 8d 85 30 fc ff ff 	lea    -0x3d0(%rbp),%rax
   16a94:	48 89 85 b0 fd ff ff 	mov    %rax,-0x250(%rbp)
   16a9b:	48 8d 85 30 fc ff ff 	lea    -0x3d0(%rbp),%rax
   16aa2:	48 89 85 b8 fd ff ff 	mov    %rax,-0x248(%rbp)
   16aa9:	48 c7 85 c0 fd ff ff 	movq   $0x0,-0x240(%rbp)
   16ab0:	00 00 00 00 
   16ab4:	48 8d 85 30 fc ff ff 	lea    -0x3d0(%rbp),%rax
   16abb:	48 89 85 c8 fd ff ff 	mov    %rax,-0x238(%rbp)
   16ac2:	48 8d 85 70 fd ff ff 	lea    -0x290(%rbp),%rax
   16ac9:	48 89 85 18 fd ff ff 	mov    %rax,-0x2e8(%rbp)
   16ad0:	8b 85 40 fd ff ff    	mov    -0x2c0(%rbp),%eax
   16ad6:	41 89 c4             	mov    %eax,%r12d
   16ad9:	48 8b 85 e8 fc ff ff 	mov    -0x318(%rbp),%rax
   16ae0:	be 01 00 00 00       	mov    $0x1,%esi
   16ae5:	48 89 c7             	mov    %rax,%rdi
   16ae8:	e8 5e 25 ff ff       	callq  904b <safe_sub_func_uint64_t_u_u>
   16aed:	48 8b 85 f8 fc ff ff 	mov    -0x308(%rbp),%rax
   16af4:	48 8d 95 58 fc ff ff 	lea    -0x3a8(%rbp),%rdx
   16afb:	48 89 10             	mov    %rdx,(%rax)
   16afe:	48 8b 85 f8 fc ff ff 	mov    -0x308(%rbp),%rax
   16b05:	48 8b 10             	mov    (%rax),%rdx
   16b08:	48 8d 85 50 fc ff ff 	lea    -0x3b0(%rbp),%rax
   16b0f:	48 39 c2             	cmp    %rax,%rdx
   16b12:	0f 95 c0             	setne  %al
   16b15:	0f b6 c0             	movzbl %al,%eax
   16b18:	48 be 71 60 fa c5 a6 	movabs $0x60b9f0a6c5fa6071,%rsi
   16b1f:	f0 b9 60 
   16b22:	48 89 c7             	mov    %rax,%rdi
   16b25:	e8 17 1d ff ff       	callq  8841 <safe_add_func_int64_t_s_s>
   16b2a:	ba 00 00 00 00       	mov    $0x0,%edx
   16b2f:	48 8b 85 08 fd ff ff 	mov    -0x2f8(%rbp),%rax
   16b36:	0f b6 00             	movzbl (%rax),%eax
   16b39:	09 c2                	or     %eax,%edx
   16b3b:	48 8b 85 08 fd ff ff 	mov    -0x2f8(%rbp),%rax
   16b42:	88 10                	mov    %dl,(%rax)
   16b44:	48 8b 85 08 fd ff ff 	mov    -0x2f8(%rbp),%rax
   16b4b:	0f b6 00             	movzbl (%rax),%eax
   16b4e:	66 0f be d8          	movsbw %al,%bx
   16b52:	8b 85 1c fc ff ff    	mov    -0x3e4(%rbp),%eax
   16b58:	0f be d0             	movsbl %al,%edx
   16b5b:	0f b6 05 ca 64 00 00 	movzbl 0x64ca(%rip),%eax        # 1d02c <g_65>
   16b62:	84 c0                	test   %al,%al
   16b64:	0f 95 c0             	setne  %al
   16b67:	0f b6 c0             	movzbl %al,%eax
   16b6a:	89 d6                	mov    %edx,%esi
   16b6c:	89 c7                	mov    %eax,%edi
   16b6e:	e8 be 16 ff ff       	callq  8231 <safe_mod_func_int8_t_s_s>
   16b73:	66 98                	cbtw   
   16b75:	48 8b 95 e8 fc ff ff 	mov    -0x318(%rbp),%rdx
   16b7c:	09 d0                	or     %edx,%eax
   16b7e:	31 d8                	xor    %ebx,%eax
   16b80:	98                   	cwtl   
   16b81:	be 04 00 00 00       	mov    $0x4,%esi
   16b86:	89 c7                	mov    %eax,%edi
   16b88:	e8 9d 19 ff ff       	callq  852a <safe_rshift_func_int16_t_s_s>
   16b8d:	48 0f bf c0          	movswq %ax,%rax
   16b91:	4c 89 e6             	mov    %r12,%rsi
   16b94:	48 89 c7             	mov    %rax,%rdi
   16b97:	e8 a5 1c ff ff       	callq  8841 <safe_add_func_int64_t_s_s>
   16b9c:	ba 01 00 00 00       	mov    $0x1,%edx
   16ba1:	8b 85 30 fc ff ff    	mov    -0x3d0(%rbp),%eax
   16ba7:	09 d0                	or     %edx,%eax
   16ba9:	89 85 30 fc ff ff    	mov    %eax,-0x3d0(%rbp)
   16baf:	0f b6 05 9c 64 00 00 	movzbl 0x649c(%rip),%eax        # 1d052 <g_126>
   16bb6:	0f be d8             	movsbl %al,%ebx
   16bb9:	8b 85 1c fc ff ff    	mov    -0x3e4(%rbp),%eax
   16bbf:	44 0f be e0          	movsbl %al,%r12d
   16bc3:	81 a5 4c fc ff ff a5 	andl   $0x7f8006a5,-0x3b4(%rbp)
   16bca:	06 80 7f 
   16bcd:	be 09 1b b0 1c       	mov    $0x1cb01b09,%esi
   16bd2:	bf ee 00 00 00       	mov    $0xee,%edi
   16bd7:	e8 29 1a ff ff       	callq  8605 <safe_sub_func_int32_t_s_s>
   16bdc:	bf 00 00 00 00       	mov    $0x0,%edi
   16be1:	e8 d9 15 ff ff       	callq  81bf <safe_unary_minus_func_int8_t_s>
   16be6:	0f be d0             	movsbl %al,%edx
   16be9:	0f b6 05 3c 64 00 00 	movzbl 0x643c(%rip),%eax        # 1d02c <g_65>
   16bf0:	89 c1                	mov    %eax,%ecx
   16bf2:	8b 85 1c fc ff ff    	mov    -0x3e4(%rbp),%eax
   16bf8:	21 c8                	and    %ecx,%eax
   16bfa:	0f be c0             	movsbl %al,%eax
   16bfd:	89 d6                	mov    %edx,%esi
   16bff:	89 c7                	mov    %eax,%edi
   16c01:	e8 64 16 ff ff       	callq  826a <safe_div_func_int8_t_s_s>
   16c06:	44 0f be e8          	movsbl %al,%r13d
   16c0a:	0f b7 05 35 64 00 00 	movzwl 0x6435(%rip),%eax        # 1d046 <g_113+0x6>
   16c11:	0f b7 d0             	movzwl %ax,%edx
   16c14:	8b 05 16 64 00 00    	mov    0x6416(%rip),%eax        # 1d030 <g_85>
   16c1a:	85 c0                	test   %eax,%eax
   16c1c:	0f 94 c0             	sete   %al
   16c1f:	0f b6 c0             	movzbl %al,%eax
   16c22:	48 89 d6             	mov    %rdx,%rsi
   16c25:	48 89 c7             	mov    %rax,%rdi
   16c28:	e8 53 24 ff ff       	callq  9080 <safe_mod_func_uint64_t_u_u>
   16c2d:	48 3d cf 00 00 00    	cmp    $0xcf,%rax
   16c33:	0f 97 c0             	seta   %al
   16c36:	0f b6 c0             	movzbl %al,%eax
   16c39:	44 89 ee             	mov    %r13d,%esi
   16c3c:	89 c7                	mov    %eax,%edi
   16c3e:	e8 8d 22 ff ff       	callq  8ed0 <safe_sub_func_uint32_t_u_u>
   16c43:	8b 85 48 fd ff ff    	mov    -0x2b8(%rbp),%eax
   16c49:	0f be c0             	movsbl %al,%eax
   16c4c:	44 89 e6             	mov    %r12d,%esi
   16c4f:	89 c7                	mov    %eax,%edi
   16c51:	e8 bc 15 ff ff       	callq  8212 <safe_mul_func_int8_t_s_s>
   16c56:	0f b6 c0             	movzbl %al,%eax
   16c59:	be 06 00 00 00       	mov    $0x6,%esi
   16c5e:	89 c7                	mov    %eax,%edi
   16c60:	e8 e7 1f ff ff       	callq  8c4c <safe_lshift_func_uint8_t_u_u>
   16c65:	0a 85 18 fc ff ff    	or     -0x3e8(%rbp),%al
   16c6b:	83 f0 23             	xor    $0x23,%eax
   16c6e:	0f be c0             	movsbl %al,%eax
   16c71:	89 de                	mov    %ebx,%esi
   16c73:	89 c7                	mov    %eax,%edi
   16c75:	e8 27 16 ff ff       	callq  82a1 <safe_lshift_func_int8_t_s_s>
   16c7a:	0f be d0             	movsbl %al,%edx
   16c7d:	8b 85 30 fc ff ff    	mov    -0x3d0(%rbp),%eax
   16c83:	31 d0                	xor    %edx,%eax
   16c85:	89 85 30 fc ff ff    	mov    %eax,-0x3d0(%rbp)
   16c8b:	0f b6 05 c0 63 00 00 	movzbl 0x63c0(%rip),%eax        # 1d052 <g_126>
   16c92:	0f be d8             	movsbl %al,%ebx
   16c95:	8b 85 10 fc ff ff    	mov    -0x3f0(%rbp),%eax
   16c9b:	44 0f b7 e0          	movzwl %ax,%r12d
   16c9f:	48 8b 85 18 fd ff ff 	mov    -0x2e8(%rbp),%rax
   16ca6:	48 8d 95 30 fc ff ff 	lea    -0x3d0(%rbp),%rdx
   16cad:	48 89 10             	mov    %rdx,(%rax)
   16cb0:	48 8b 85 18 fd ff ff 	mov    -0x2e8(%rbp),%rax
   16cb7:	48 8b 10             	mov    (%rax),%rdx
   16cba:	48 8b 05 ff 8f 00 00 	mov    0x8fff(%rip),%rax        # 1fcc0 <g_89>
   16cc1:	48 39 c2             	cmp    %rax,%rdx
   16cc4:	0f bf 95 2c fc ff ff 	movswl -0x3d4(%rbp),%edx
   16ccb:	8b 05 7b 9e 00 00    	mov    0x9e7b(%rip),%eax        # 20b4c <g_169>
   16cd1:	09 d0                	or     %edx,%eax
   16cd3:	89 05 73 9e 00 00    	mov    %eax,0x9e73(%rip)        # 20b4c <g_169>
   16cd9:	8b 05 6d 9e 00 00    	mov    0x9e6d(%rip),%eax        # 20b4c <g_169>
   16cdf:	0f bf 8d 2c fc ff ff 	movswl -0x3d4(%rbp),%ecx
   16ce6:	8b 95 30 fc ff ff    	mov    -0x3d0(%rbp),%edx
   16cec:	09 ca                	or     %ecx,%edx
   16cee:	39 d0                	cmp    %edx,%eax
   16cf0:	0f 94 c0             	sete   %al
   16cf3:	0f b6 c0             	movzbl %al,%eax
   16cf6:	be fa ff 00 00       	mov    $0xfffa,%esi
   16cfb:	89 c7                	mov    %eax,%edi
   16cfd:	e8 3b 20 ff ff       	callq  8d3d <safe_mul_func_uint16_t_u_u>
   16d02:	0f b6 05 49 63 00 00 	movzbl 0x6349(%rip),%eax        # 1d052 <g_126>
   16d09:	66 98                	cbtw   
   16d0b:	0f b7 c0             	movzwl %ax,%eax
   16d0e:	44 89 e6             	mov    %r12d,%esi
   16d11:	89 c7                	mov    %eax,%edi
   16d13:	e8 25 20 ff ff       	callq  8d3d <safe_mul_func_uint16_t_u_u>
   16d18:	44 0f b7 e0          	movzwl %ax,%r12d
   16d1c:	0f b6 85 18 fc ff ff 	movzbl -0x3e8(%rbp),%eax
   16d23:	0f b6 d0             	movzbl %al,%edx
   16d26:	8b 05 04 63 00 00    	mov    0x6304(%rip),%eax        # 1d030 <g_85>
   16d2c:	0f b6 c0             	movzbl %al,%eax
   16d2f:	89 d6                	mov    %edx,%esi
   16d31:	89 c7                	mov    %eax,%edi
   16d33:	e8 22 1e ff ff       	callq  8b5a <safe_add_func_uint8_t_u_u>
   16d38:	44 0f b6 e8          	movzbl %al,%r13d
   16d3c:	48 8b 85 78 fc ff ff 	mov    -0x388(%rbp),%rax
   16d43:	0f b6 00             	movzbl (%rax),%eax
   16d46:	8d 48 01             	lea    0x1(%rax),%ecx
   16d49:	48 8b 95 78 fc ff ff 	mov    -0x388(%rbp),%rdx
   16d50:	88 0a                	mov    %cl,(%rdx)
   16d52:	0f b6 c0             	movzbl %al,%eax
   16d55:	89 c6                	mov    %eax,%esi
   16d57:	bf 00 00 00 00       	mov    $0x0,%edi
   16d5c:	e8 eb 1e ff ff       	callq  8c4c <safe_lshift_func_uint8_t_u_u>
   16d61:	0f b6 c0             	movzbl %al,%eax
   16d64:	44 89 ee             	mov    %r13d,%esi
   16d67:	89 c7                	mov    %eax,%edi
   16d69:	e8 b1 1f ff ff       	callq  8d1f <safe_sub_func_uint16_t_u_u>
   16d6e:	0f b7 d0             	movzwl %ax,%edx
   16d71:	0f b7 05 ce 62 00 00 	movzwl 0x62ce(%rip),%eax        # 1d046 <g_113+0x6>
   16d78:	66 3d f9 00          	cmp    $0xf9,%ax
   16d7c:	0f 97 c0             	seta   %al
   16d7f:	0f b6 c0             	movzbl %al,%eax
   16d82:	09 d0                	or     %edx,%eax
   16d84:	48 98                	cltq   
   16d86:	4c 89 e6             	mov    %r12,%rsi
   16d89:	48 89 c7             	mov    %rax,%rdi
   16d8c:	e8 b0 1a ff ff       	callq  8841 <safe_add_func_int64_t_s_s>
   16d91:	89 c2                	mov    %eax,%edx
   16d93:	0f b7 85 2c fc ff ff 	movzwl -0x3d4(%rbp),%eax
   16d9a:	31 d0                	xor    %edx,%eax
   16d9c:	0f be c0             	movsbl %al,%eax
   16d9f:	be 03 00 00 00       	mov    $0x3,%esi
   16da4:	89 c7                	mov    %eax,%edi
   16da6:	e8 f6 14 ff ff       	callq  82a1 <safe_lshift_func_int8_t_s_s>
   16dab:	0f be c0             	movsbl %al,%eax
   16dae:	89 de                	mov    %ebx,%esi
   16db0:	89 c7                	mov    %eax,%edi
   16db2:	e8 15 19 ff ff       	callq  86cc <safe_mod_func_int32_t_s_s>
   16db7:	89 85 4c fc ff ff    	mov    %eax,-0x3b4(%rbp)
   16dbd:	48 c7 05 70 62 00 00 	movq   $0xffffffffffffffe9,0x6270(%rip)        # 1d038 <g_91>
   16dc4:	e9 ff ff ff 
   16dc8:	eb 64                	jmp    16e2e <func_56+0x7c7>
   16dca:	8b 05 7c 9d 00 00    	mov    0x9d7c(%rip),%eax        # 20b4c <g_169>
   16dd0:	85 c0                	test   %eax,%eax
   16dd2:	0f 85 29 01 00 00    	jne    16f01 <func_56+0x89a>
   16dd8:	c7 05 4e 62 00 00 01 	movl   $0x1,0x624e(%rip)        # 1d030 <g_85>
   16ddf:	00 00 00 
   16de2:	90                   	nop
   16de3:	8b 05 47 62 00 00    	mov    0x6247(%rip),%eax        # 1d030 <g_85>
   16de9:	85 c0                	test   %eax,%eax
   16deb:	78 2f                	js     16e1c <func_56+0x7b5>
   16ded:	66 c7 85 2e fc ff ff 	movw   $0xfffc,-0x3d2(%rbp)
   16df4:	fc ff 
   16df6:	c7 85 1c fc ff ff 00 	movl   $0x0,-0x3e4(%rbp)
   16dfd:	00 00 00 
   16e00:	48 8b 15 b9 8e 00 00 	mov    0x8eb9(%rip),%rdx        # 1fcc0 <g_89>
   16e07:	48 8b 85 18 fd ff ff 	mov    -0x2e8(%rbp),%rax
   16e0e:	48 89 10             	mov    %rdx,(%rax)
   16e11:	8b 05 91 65 00 00    	mov    0x6591(%rip),%eax        # 1d3a8 <g_177>
   16e17:	e9 68 06 00 00       	jmpq   17484 <func_56+0xe1d>
   16e1c:	48 8b 05 15 62 00 00 	mov    0x6215(%rip),%rax        # 1d038 <g_91>
   16e23:	48 83 c0 01          	add    $0x1,%rax
   16e27:	48 89 05 0a 62 00 00 	mov    %rax,0x620a(%rip)        # 1d038 <g_91>
   16e2e:	48 8b 05 03 62 00 00 	mov    0x6203(%rip),%rax        # 1d038 <g_91>
   16e35:	48 83 f8 0a          	cmp    $0xa,%rax
   16e39:	77 8f                	ja     16dca <func_56+0x763>
   16e3b:	e9 c2 00 00 00       	jmpq   16f02 <func_56+0x89b>
   16e40:	48 8d 85 20 fd ff ff 	lea    -0x2e0(%rbp),%rax
   16e47:	48 89 85 70 fd ff ff 	mov    %rax,-0x290(%rbp)
   16e4e:	48 8d 85 20 fd ff ff 	lea    -0x2e0(%rbp),%rax
   16e55:	48 89 85 78 fd ff ff 	mov    %rax,-0x288(%rbp)
   16e5c:	48 8d 85 20 fd ff ff 	lea    -0x2e0(%rbp),%rax
   16e63:	48 89 85 80 fd ff ff 	mov    %rax,-0x280(%rbp)
   16e6a:	48 8d 85 20 fd ff ff 	lea    -0x2e0(%rbp),%rax
   16e71:	48 89 85 88 fd ff ff 	mov    %rax,-0x278(%rbp)
   16e78:	48 8d 85 20 fd ff ff 	lea    -0x2e0(%rbp),%rax
   16e7f:	48 89 85 90 fd ff ff 	mov    %rax,-0x270(%rbp)
   16e86:	48 8d 85 20 fd ff ff 	lea    -0x2e0(%rbp),%rax
   16e8d:	48 89 85 98 fd ff ff 	mov    %rax,-0x268(%rbp)
   16e94:	48 8d 85 20 fd ff ff 	lea    -0x2e0(%rbp),%rax
   16e9b:	48 89 85 a0 fd ff ff 	mov    %rax,-0x260(%rbp)
   16ea2:	48 8d 85 20 fd ff ff 	lea    -0x2e0(%rbp),%rax
   16ea9:	48 89 85 a8 fd ff ff 	mov    %rax,-0x258(%rbp)
   16eb0:	48 8d 85 20 fd ff ff 	lea    -0x2e0(%rbp),%rax
   16eb7:	48 89 85 b0 fd ff ff 	mov    %rax,-0x250(%rbp)
   16ebe:	c7 85 38 fc ff ff 00 	movl   $0x0,-0x3c8(%rbp)
   16ec5:	00 00 00 
   16ec8:	eb 1e                	jmp    16ee8 <func_56+0x881>
   16eca:	8b 85 38 fc ff ff    	mov    -0x3c8(%rbp),%eax
   16ed0:	48 98                	cltq   
   16ed2:	48 8d 95 30 fc ff ff 	lea    -0x3d0(%rbp),%rdx
   16ed9:	48 89 94 c5 20 fd ff 	mov    %rdx,-0x2e0(%rbp,%rax,8)
   16ee0:	ff 
   16ee1:	83 85 38 fc ff ff 01 	addl   $0x1,-0x3c8(%rbp)
   16ee8:	83 bd 38 fc ff ff 03 	cmpl   $0x3,-0x3c8(%rbp)
   16eef:	7e d9                	jle    16eca <func_56+0x863>
   16ef1:	48 8d 85 1c fc ff ff 	lea    -0x3e4(%rbp),%rax
   16ef8:	48 89 05 c9 8d 00 00 	mov    %rax,0x8dc9(%rip)        # 1fcc8 <g_180>
   16eff:	eb 01                	jmp    16f02 <func_56+0x89b>
   16f01:	90                   	nop
   16f02:	c7 05 24 61 00 00 11 	movl   $0x11,0x6124(%rip)        # 1d030 <g_85>
   16f09:	00 00 00 
   16f0c:	90                   	nop
   16f0d:	8b 05 1d 61 00 00    	mov    0x611d(%rip),%eax        # 1d030 <g_85>
   16f13:	83 f8 09             	cmp    $0x9,%eax
   16f16:	0f 8f 62 05 00 00    	jg     1747e <func_56+0xe17>
   16f1c:	8b 05 8e 64 00 00    	mov    0x648e(%rip),%eax        # 1d3b0 <g_184>
   16f22:	e9 5d 05 00 00       	jmpq   17484 <func_56+0xe1d>
   16f27:	48 8d 85 60 fc ff ff 	lea    -0x3a0(%rbp),%rax
   16f2e:	48 89 85 68 fc ff ff 	mov    %rax,-0x398(%rbp)
   16f35:	48 8d 85 68 fc ff ff 	lea    -0x398(%rbp),%rax
   16f3c:	48 89 85 98 fc ff ff 	mov    %rax,-0x368(%rbp)
   16f43:	48 8d 05 7e 8d 00 00 	lea    0x8d7e(%rip),%rax        # 1fcc8 <g_180>
   16f4a:	48 89 85 d0 fd ff ff 	mov    %rax,-0x230(%rbp)
   16f51:	48 c7 85 d8 fd ff ff 	movq   $0x0,-0x228(%rbp)
   16f58:	00 00 00 00 
   16f5c:	48 8d 05 65 8d 00 00 	lea    0x8d65(%rip),%rax        # 1fcc8 <g_180>
   16f63:	48 89 85 e0 fd ff ff 	mov    %rax,-0x220(%rbp)
   16f6a:	48 c7 85 e8 fd ff ff 	movq   $0x0,-0x218(%rbp)
   16f71:	00 00 00 00 
   16f75:	48 8d 05 4c 8d 00 00 	lea    0x8d4c(%rip),%rax        # 1fcc8 <g_180>
   16f7c:	48 89 85 a0 fc ff ff 	mov    %rax,-0x360(%rbp)
   16f83:	c6 85 18 fc ff ff 04 	movb   $0x4,-0x3e8(%rbp)
   16f8a:	e9 97 04 00 00       	jmpq   17426 <func_56+0xdbf>
   16f8f:	48 8d 05 bc 60 00 00 	lea    0x60bc(%rip),%rax        # 1d052 <g_126>
   16f96:	48 89 85 70 fc ff ff 	mov    %rax,-0x390(%rbp)
   16f9d:	48 c7 85 a8 fc ff ff 	movq   $0x0,-0x358(%rbp)
   16fa4:	00 00 00 00 
   16fa8:	48 c7 85 b0 fc ff ff 	movq   $0x0,-0x350(%rbp)
   16faf:	00 00 00 00 
   16fb3:	48 8d 85 70 fc ff ff 	lea    -0x390(%rbp),%rax
   16fba:	48 89 85 b8 fc ff ff 	mov    %rax,-0x348(%rbp)
   16fc1:	c7 85 44 fc ff ff 38 	movl   $0xd69ad938,-0x3bc(%rbp)
   16fc8:	d9 9a d6 
   16fcb:	48 8d 05 da 63 00 00 	lea    0x63da(%rip),%rax        # 1d3ac <g_181>
   16fd2:	48 89 85 c0 fc ff ff 	mov    %rax,-0x340(%rbp)
   16fd9:	48 c7 85 c8 fc ff ff 	movq   $0x0,-0x338(%rbp)
   16fe0:	00 00 00 00 
   16fe4:	0f be 85 18 fc ff ff 	movsbl -0x3e8(%rbp),%eax
   16feb:	83 c0 01             	add    $0x1,%eax
   16fee:	48 98                	cltq   
   16ff0:	48 8d 14 00          	lea    (%rax,%rax,1),%rdx
   16ff4:	48 8d 05 45 60 00 00 	lea    0x6045(%rip),%rax        # 1d040 <g_113>
   16ffb:	0f b7 04 02          	movzwl (%rdx,%rax,1),%eax
   16fff:	66 85 c0             	test   %ax,%ax
   17002:	0f 85 2d 04 00 00    	jne    17435 <func_56+0xdce>
   17008:	8b 9d 1c fc ff ff    	mov    -0x3e4(%rbp),%ebx
   1700e:	0f be 85 18 fc ff ff 	movsbl -0x3e8(%rbp),%eax
   17015:	83 c0 02             	add    $0x2,%eax
   17018:	48 98                	cltq   
   1701a:	48 8d 14 00          	lea    (%rax,%rax,1),%rdx
   1701e:	48 8d 05 1b 60 00 00 	lea    0x601b(%rip),%rax        # 1d040 <g_113>
   17025:	0f b7 04 02          	movzwl (%rdx,%rax,1),%eax
   17029:	44 0f b7 e0          	movzwl %ax,%r12d
   1702d:	be 0c 00 00 00       	mov    $0xc,%esi
   17032:	bf 01 00 00 00       	mov    $0x1,%edi
   17037:	e8 ee 14 ff ff       	callq  852a <safe_rshift_func_int16_t_s_s>
   1703c:	98                   	cwtl   
   1703d:	41 39 c4             	cmp    %eax,%r12d
   17040:	0f 9e c0             	setle  %al
   17043:	0f b6 c0             	movzbl %al,%eax
   17046:	89 c6                	mov    %eax,%esi
   17048:	bf aa 5a 00 00       	mov    $0x5aaa,%edi
   1704d:	e8 0a 1d ff ff       	callq  8d5c <safe_mod_func_uint16_t_u_u>
   17052:	0f b7 05 57 63 00 00 	movzwl 0x6357(%rip),%eax        # 1d3b0 <g_184>
   17059:	0f be c0             	movsbl %al,%eax
   1705c:	be fb ff ff ff       	mov    $0xfffffffb,%esi
   17061:	89 c7                	mov    %eax,%edi
   17063:	e8 aa 11 ff ff       	callq  8212 <safe_mul_func_int8_t_s_s>
   17068:	0f b6 c0             	movzbl %al,%eax
   1706b:	be 04 00 00 00       	mov    $0x4,%esi
   17070:	89 c7                	mov    %eax,%edi
   17072:	e8 47 1c ff ff       	callq  8cbe <safe_rshift_func_uint8_t_u_u>
   17077:	0f b6 c8             	movzbl %al,%ecx
   1707a:	48 8b 95 70 fc ff ff 	mov    -0x390(%rbp),%rdx
   17081:	48 8b 85 b8 fc ff ff 	mov    -0x348(%rbp),%rax
   17088:	48 89 10             	mov    %rdx,(%rax)
   1708b:	48 8b 85 b8 fc ff ff 	mov    -0x348(%rbp),%rax
   17092:	48 8b 00             	mov    (%rax),%rax
   17095:	48 8d 15 b6 5f 00 00 	lea    0x5fb6(%rip),%rdx        # 1d052 <g_126>
   1709c:	48 39 d0             	cmp    %rdx,%rax
   1709f:	0f 94 c0             	sete   %al
   170a2:	0f b6 c0             	movzbl %al,%eax
   170a5:	39 c1                	cmp    %eax,%ecx
   170a7:	0f 9c c0             	setl   %al
   170aa:	0f b6 c0             	movzbl %al,%eax
   170ad:	89 de                	mov    %ebx,%esi
   170af:	89 c7                	mov    %eax,%edi
   170b1:	e8 92 1d ff ff       	callq  8e48 <safe_rshift_func_uint16_t_u_s>
   170b6:	98                   	cwtl   
   170b7:	be fa 07 00 00       	mov    $0x7fa,%esi
   170bc:	89 c7                	mov    %eax,%edi
   170be:	e8 f0 12 ff ff       	callq  83b3 <safe_add_func_int16_t_s_s>
   170c3:	89 c2                	mov    %eax,%edx
   170c5:	48 8b 05 fc 8b 00 00 	mov    0x8bfc(%rip),%rax        # 1fcc8 <g_180>
   170cc:	0f bf d2             	movswl %dx,%edx
   170cf:	89 10                	mov    %edx,(%rax)
   170d1:	66 c7 05 ce 62 00 00 	movw   $0x0,0x62ce(%rip)        # 1d3a8 <g_177>
   170d8:	00 00 
   170da:	e9 26 03 00 00       	jmpq   17405 <func_56+0xd9e>
   170df:	c7 85 3c fc ff ff 00 	movl   $0x0,-0x3c4(%rbp)
   170e6:	00 00 00 
   170e9:	eb 1a                	jmp    17105 <func_56+0xa9e>
   170eb:	8b 85 3c fc ff ff    	mov    -0x3c4(%rbp),%eax
   170f1:	48 98                	cltq   
   170f3:	c7 84 85 70 fd ff ff 	movl   $0x8,-0x290(%rbp,%rax,4)
   170fa:	08 00 00 00 
   170fe:	83 85 3c fc ff ff 01 	addl   $0x1,-0x3c4(%rbp)
   17105:	83 bd 3c fc ff ff 00 	cmpl   $0x0,-0x3c4(%rbp)
   1710c:	7e dd                	jle    170eb <func_56+0xa84>
   1710e:	c7 05 a0 62 00 00 00 	movl   $0x0,0x62a0(%rip)        # 1d3b8 <g_199>
   17115:	00 00 00 
   17118:	eb 19                	jmp    17133 <func_56+0xacc>
   1711a:	c7 85 44 fc ff ff 01 	movl   $0x1,-0x3bc(%rbp)
   17121:	00 00 00 
   17124:	8b 05 8e 62 00 00    	mov    0x628e(%rip),%eax        # 1d3b8 <g_199>
   1712a:	83 c0 01             	add    $0x1,%eax
   1712d:	89 05 85 62 00 00    	mov    %eax,0x6285(%rip)        # 1d3b8 <g_199>
   17133:	8b 05 7f 62 00 00    	mov    0x627f(%rip),%eax        # 1d3b8 <g_199>
   17139:	83 f8 08             	cmp    $0x8,%eax
   1713c:	76 dc                	jbe    1711a <func_56+0xab3>
   1713e:	c7 05 e8 5e 00 00 00 	movl   $0x0,0x5ee8(%rip)        # 1d030 <g_85>
   17145:	00 00 00 
   17148:	e9 98 02 00 00       	jmpq   173e5 <func_56+0xd7e>
   1714d:	c7 85 48 fc ff ff 01 	movl   $0x1,-0x3b8(%rbp)
   17154:	00 00 00 
   17157:	0f be 85 18 fc ff ff 	movsbl -0x3e8(%rbp),%eax
   1715e:	8d 48 01             	lea    0x1(%rax),%ecx
   17161:	0f be 85 18 fc ff ff 	movsbl -0x3e8(%rbp),%eax
   17168:	0f be 95 18 fc ff ff 	movsbl -0x3e8(%rbp),%edx
   1716f:	48 63 f2             	movslq %edx,%rsi
   17172:	48 63 d1             	movslq %ecx,%rdx
   17175:	48 63 c8             	movslq %eax,%rcx
   17178:	48 89 d0             	mov    %rdx,%rax
   1717b:	48 c1 e0 03          	shl    $0x3,%rax
   1717f:	48 01 d0             	add    %rdx,%rax
   17182:	48 c1 e0 02          	shl    $0x2,%rax
   17186:	48 29 d0             	sub    %rdx,%rax
   17189:	48 89 ca             	mov    %rcx,%rdx
   1718c:	48 c1 e2 03          	shl    $0x3,%rdx
   17190:	48 29 ca             	sub    %rcx,%rdx
   17193:	48 01 d0             	add    %rdx,%rax
   17196:	48 01 f0             	add    %rsi,%rax
   17199:	48 8d 14 85 00 00 00 	lea    0x0(,%rax,4),%rdx
   171a0:	00 
   171a1:	48 8d 05 b8 5e 00 00 	lea    0x5eb8(%rip),%rax        # 1d060 <g_176>
   171a8:	8b 04 02             	mov    (%rdx,%rax,1),%eax
   171ab:	85 c0                	test   %eax,%eax
   171ad:	74 10                	je     171bf <func_56+0xb58>
   171af:	48 8b 85 98 fc ff ff 	mov    -0x368(%rbp),%rax
   171b6:	48 89 05 23 8b 00 00 	mov    %rax,0x8b23(%rip)        # 1fce0 <g_207>
   171bd:	eb 0e                	jmp    171cd <func_56+0xb66>
   171bf:	48 8d 05 e6 61 00 00 	lea    0x61e6(%rip),%rax        # 1d3ac <g_181>
   171c6:	48 89 85 c0 fc ff ff 	mov    %rax,-0x340(%rbp)
   171cd:	48 c7 05 60 5e 00 00 	movq   $0x0,0x5e60(%rip)        # 1d038 <g_91>
   171d4:	00 00 00 00 
   171d8:	e9 e8 01 00 00       	jmpq   173c5 <func_56+0xd5e>
   171dd:	48 8d 05 54 5e 00 00 	lea    0x5e54(%rip),%rax        # 1d038 <g_91>
   171e4:	48 89 85 d0 fc ff ff 	mov    %rax,-0x330(%rbp)
   171eb:	48 8d 05 56 99 00 00 	lea    0x9956(%rip),%rax        # 20b48 <g_111>
   171f2:	48 89 85 d8 fc ff ff 	mov    %rax,-0x328(%rbp)
   171f9:	48 8d 85 40 fd ff ff 	lea    -0x2c0(%rbp),%rax
   17200:	48 89 85 e0 fc ff ff 	mov    %rax,-0x320(%rbp)
   17207:	48 8b 85 e8 fd ff ff 	mov    -0x218(%rbp),%rax
   1720e:	48 89 85 d8 fd ff ff 	mov    %rax,-0x228(%rbp)
   17215:	48 8b 85 a0 fc ff ff 	mov    -0x360(%rbp),%rax
   1721c:	48 89 05 2d 99 00 00 	mov    %rax,0x992d(%rip)        # 20b50 <g_213>
   17223:	b9 01 00 00 00       	mov    $0x1,%ecx
   17228:	48 8b 85 90 fc ff ff 	mov    -0x370(%rbp),%rax
   1722f:	48 8b 00             	mov    (%rax),%rax
   17232:	8b 10                	mov    (%rax),%edx
   17234:	48 8b 85 90 fc ff ff 	mov    -0x370(%rbp),%rax
   1723b:	48 8b 00             	mov    (%rax),%rax
   1723e:	31 ca                	xor    %ecx,%edx
   17240:	89 10                	mov    %edx,(%rax)
   17242:	8b 85 70 fd ff ff    	mov    -0x290(%rbp),%eax
   17248:	83 e8 01             	sub    $0x1,%eax
   1724b:	89 85 70 fd ff ff    	mov    %eax,-0x290(%rbp)
   17251:	0f b7 05 50 61 00 00 	movzwl 0x6150(%rip),%eax        # 1d3a8 <g_177>
   17258:	0f b7 d8             	movzwl %ax,%ebx
   1725b:	8b 95 10 fc ff ff    	mov    -0x3f0(%rbp),%edx
   17261:	8b 85 48 fc ff ff    	mov    -0x3b8(%rbp),%eax
   17267:	f7 d0                	not    %eax
   17269:	0f b7 c0             	movzwl %ax,%eax
   1726c:	89 d6                	mov    %edx,%esi
   1726e:	89 c7                	mov    %eax,%edi
   17270:	e8 05 1c ff ff       	callq  8e7a <safe_rshift_func_uint16_t_u_u>
   17275:	be 3c 97 00 00       	mov    $0x973c,%esi
   1727a:	bf f6 ff 00 00       	mov    $0xfff6,%edi
   1727f:	e8 0a 1b ff ff       	callq  8d8e <safe_div_func_uint16_t_u_u>
   17284:	b9 01 00 00 00       	mov    $0x1,%ecx
   17289:	0f be 85 18 fc ff ff 	movsbl -0x3e8(%rbp),%eax
   17290:	83 c0 02             	add    $0x2,%eax
   17293:	48 98                	cltq   
   17295:	48 8d 14 00          	lea    (%rax,%rax,1),%rdx
   17299:	48 8d 05 a0 5d 00 00 	lea    0x5da0(%rip),%rax        # 1d040 <g_113>
   172a0:	0f b7 04 02          	movzwl (%rdx,%rax,1),%eax
   172a4:	89 c2                	mov    %eax,%edx
   172a6:	89 c8                	mov    %ecx,%eax
   172a8:	21 c2                	and    %eax,%edx
   172aa:	0f be 85 18 fc ff ff 	movsbl -0x3e8(%rbp),%eax
   172b1:	83 c0 02             	add    $0x2,%eax
   172b4:	89 d6                	mov    %edx,%esi
   172b6:	48 63 d0             	movslq %eax,%rdx
   172b9:	48 8d 0c 12          	lea    (%rdx,%rdx,1),%rcx
   172bd:	48 8d 15 7c 5d 00 00 	lea    0x5d7c(%rip),%rdx        # 1d040 <g_113>
   172c4:	66 89 34 11          	mov    %si,(%rcx,%rdx,1)
   172c8:	48 98                	cltq   
   172ca:	48 8d 14 00          	lea    (%rax,%rax,1),%rdx
   172ce:	48 8d 05 6b 5d 00 00 	lea    0x5d6b(%rip),%rax        # 1d040 <g_113>
   172d5:	0f b7 14 02          	movzwl (%rdx,%rax,1),%edx
   172d9:	48 8b 85 d8 fc ff ff 	mov    -0x328(%rbp),%rax
   172e0:	0f b7 00             	movzwl (%rax),%eax
   172e3:	09 c2                	or     %eax,%edx
   172e5:	48 8b 85 d8 fc ff ff 	mov    -0x328(%rbp),%rax
   172ec:	66 89 10             	mov    %dx,(%rax)
   172ef:	0f b7 05 b2 60 00 00 	movzwl 0x60b2(%rip),%eax        # 1d3a8 <g_177>
   172f6:	0f bf d0             	movswl %ax,%edx
   172f9:	48 8b 85 c8 fc ff ff 	mov    -0x338(%rbp),%rax
   17300:	48 3b 85 d0 fc ff ff 	cmp    -0x330(%rbp),%rax
   17307:	0f 94 c0             	sete   %al
   1730a:	0f b6 c0             	movzbl %al,%eax
   1730d:	39 c2                	cmp    %eax,%edx
   1730f:	0f 9d c0             	setge  %al
   17312:	0f b6 d0             	movzbl %al,%edx
   17315:	8b 85 70 fd ff ff    	mov    -0x290(%rbp),%eax
   1731b:	39 c2                	cmp    %eax,%edx
   1731d:	89 de                	mov    %ebx,%esi
   1731f:	bf 00 00 00 00       	mov    $0x0,%edi
   17324:	e8 8f 1b ff ff       	callq  8eb8 <safe_add_func_uint32_t_u_u>
   17329:	8b 95 1c fc ff ff    	mov    -0x3e4(%rbp),%edx
   1732f:	39 d0                	cmp    %edx,%eax
   17331:	77 0a                	ja     1733d <func_56+0xcd6>
   17333:	8b 85 10 fc ff ff    	mov    -0x3f0(%rbp),%eax
   17339:	85 c0                	test   %eax,%eax
   1733b:	74 07                	je     17344 <func_56+0xcdd>
   1733d:	ba 01 00 00 00       	mov    $0x1,%edx
   17342:	eb 05                	jmp    17349 <func_56+0xce2>
   17344:	ba 00 00 00 00       	mov    $0x0,%edx
   17349:	66 0f be 85 18 fc ff 	movsbw -0x3e8(%rbp),%ax
   17350:	ff 
   17351:	0f b7 c0             	movzwl %ax,%eax
   17354:	89 d6                	mov    %edx,%esi
   17356:	89 c7                	mov    %eax,%edi
   17358:	e8 eb 1a ff ff       	callq  8e48 <safe_rshift_func_uint16_t_u_s>
   1735d:	48 8b 95 e0 fc ff ff 	mov    -0x320(%rbp),%rdx
   17364:	8b 12                	mov    (%rdx),%edx
   17366:	0f b7 c0             	movzwl %ax,%eax
   17369:	21 c2                	and    %eax,%edx
   1736b:	48 8b 85 e0 fc ff ff 	mov    -0x320(%rbp),%rax
   17372:	89 10                	mov    %edx,(%rax)
   17374:	48 8b 85 90 fc ff ff 	mov    -0x370(%rbp),%rax
   1737b:	48 8b 00             	mov    (%rax),%rax
   1737e:	8b 10                	mov    (%rax),%edx
   17380:	48 8b 85 90 fc ff ff 	mov    -0x370(%rbp),%rax
   17387:	48 8b 00             	mov    (%rax),%rax
   1738a:	83 f2 04             	xor    $0x4,%edx
   1738d:	89 10                	mov    %edx,(%rax)
   1738f:	8b 10                	mov    (%rax),%edx
   17391:	0f b7 05 10 60 00 00 	movzwl 0x6010(%rip),%eax        # 1d3a8 <g_177>
   17398:	66 83 f8 01          	cmp    $0x1,%ax
   1739c:	0f 95 c0             	setne  %al
   1739f:	0f b6 c0             	movzbl %al,%eax
   173a2:	31 c2                	xor    %eax,%edx
   173a4:	0f be 85 18 fc ff ff 	movsbl -0x3e8(%rbp),%eax
   173ab:	21 d0                	and    %edx,%eax
   173ad:	89 05 c1 60 00 00    	mov    %eax,0x60c1(%rip)        # 1d474 <g_215+0xb4>
   173b3:	48 8b 05 7e 5c 00 00 	mov    0x5c7e(%rip),%rax        # 1d038 <g_91>
   173ba:	48 83 c0 01          	add    $0x1,%rax
   173be:	48 89 05 73 5c 00 00 	mov    %rax,0x5c73(%rip)        # 1d038 <g_91>
   173c5:	48 8b 05 6c 5c 00 00 	mov    0x5c6c(%rip),%rax        # 1d038 <g_91>
   173cc:	48 83 f8 08          	cmp    $0x8,%rax
   173d0:	0f 86 07 fe ff ff    	jbe    171dd <func_56+0xb76>
   173d6:	8b 05 54 5c 00 00    	mov    0x5c54(%rip),%eax        # 1d030 <g_85>
   173dc:	83 c0 01             	add    $0x1,%eax
   173df:	89 05 4b 5c 00 00    	mov    %eax,0x5c4b(%rip)        # 1d030 <g_85>
   173e5:	8b 05 45 5c 00 00    	mov    0x5c45(%rip),%eax        # 1d030 <g_85>
   173eb:	83 f8 08             	cmp    $0x8,%eax
   173ee:	0f 8e 59 fd ff ff    	jle    1714d <func_56+0xae6>
   173f4:	0f b7 05 ad 5f 00 00 	movzwl 0x5fad(%rip),%eax        # 1d3a8 <g_177>
   173fb:	83 c0 01             	add    $0x1,%eax
   173fe:	66 89 05 a3 5f 00 00 	mov    %ax,0x5fa3(%rip)        # 1d3a8 <g_177>
   17405:	0f b7 05 9c 5f 00 00 	movzwl 0x5f9c(%rip),%eax        # 1d3a8 <g_177>
   1740c:	66 83 f8 08          	cmp    $0x8,%ax
   17410:	0f 8e c9 fc ff ff    	jle    170df <func_56+0xa78>
   17416:	0f b6 85 18 fc ff ff 	movzbl -0x3e8(%rbp),%eax
   1741d:	83 e8 01             	sub    $0x1,%eax
   17420:	88 85 18 fc ff ff    	mov    %al,-0x3e8(%rbp)
   17426:	80 bd 18 fc ff ff 00 	cmpb   $0x0,-0x3e8(%rbp)
   1742d:	0f 89 5c fb ff ff    	jns    16f8f <func_56+0x928>
   17433:	eb 01                	jmp    17436 <func_56+0xdcf>
   17435:	90                   	nop
   17436:	48 c7 05 f7 5b 00 00 	movq   $0x0,0x5bf7(%rip)        # 1d038 <g_91>
   1743d:	00 00 00 00 
   17441:	eb 2b                	jmp    1746e <func_56+0xe07>
   17443:	8b 85 10 fc ff ff    	mov    -0x3f0(%rbp),%eax
   17449:	85 c0                	test   %eax,%eax
   1744b:	75 30                	jne    1747d <func_56+0xe16>
   1744d:	48 8b 05 e4 5b 00 00 	mov    0x5be4(%rip),%rax        # 1d038 <g_91>
   17454:	0f be c0             	movsbl %al,%eax
   17457:	be 06 00 00 00       	mov    $0x6,%esi
   1745c:	89 c7                	mov    %eax,%edi
   1745e:	e8 71 0d ff ff       	callq  81d4 <safe_add_func_int8_t_s_s>
   17463:	48 0f be c0          	movsbq %al,%rax
   17467:	48 89 05 ca 5b 00 00 	mov    %rax,0x5bca(%rip)        # 1d038 <g_91>
   1746e:	48 8b 05 c3 5b 00 00 	mov    0x5bc3(%rip),%rax        # 1d038 <g_91>
   17475:	48 83 f8 31          	cmp    $0x31,%rax
   17479:	77 c8                	ja     17443 <func_56+0xddc>
   1747b:	eb 01                	jmp    1747e <func_56+0xe17>
   1747d:	90                   	nop
   1747e:	8b 05 2c 5f 00 00    	mov    0x5f2c(%rip),%eax        # 1d3b0 <g_184>
   17484:	48 8b 5d d8          	mov    -0x28(%rbp),%rbx
   17488:	64 48 33 1c 25 28 00 	xor    %fs:0x28,%rbx
   1748f:	00 00 
   17491:	74 05                	je     17498 <func_56+0xe31>
   17493:	e8 d8 0b ff ff       	callq  8070 <__stack_chk_fail@plt>
   17498:	48 81 c4 d8 03 00 00 	add    $0x3d8,%rsp
   1749f:	5b                   	pop    %rbx
   174a0:	41 5c                	pop    %r12
   174a2:	41 5d                	pop    %r13
   174a4:	5d                   	pop    %rbp
   174a5:	c3                   	retq   

00000000000174a6 <main>:
   174a6:	f3 0f 1e fa          	endbr64 
   174aa:	55                   	push   %rbp
   174ab:	48 89 e5             	mov    %rsp,%rbp
   174ae:	48 83 ec 20          	sub    $0x20,%rsp
   174b2:	89 7d ec             	mov    %edi,-0x14(%rbp)
   174b5:	48 89 75 e0          	mov    %rsi,-0x20(%rbp)
   174b9:	c7 45 fc 00 00 00 00 	movl   $0x0,-0x4(%rbp)
   174c0:	83 7d ec 02          	cmpl   $0x2,-0x14(%rbp)
   174c4:	75 25                	jne    174eb <main+0x45>
   174c6:	48 8b 45 e0          	mov    -0x20(%rbp),%rax
   174ca:	48 83 c0 08          	add    $0x8,%rax
   174ce:	48 8b 00             	mov    (%rax),%rax
   174d1:	48 8d 35 a8 21 00 00 	lea    0x21a8(%rip),%rsi        # 19680 <g_2294+0x5dc>
   174d8:	48 89 c7             	mov    %rax,%rdi
   174db:	e8 b0 0b ff ff       	callq  8090 <strcmp@plt>
   174e0:	85 c0                	test   %eax,%eax
   174e2:	75 07                	jne    174eb <main+0x45>
   174e4:	c7 45 fc 01 00 00 00 	movl   $0x1,-0x4(%rbp)
   174eb:	e8 99 0c ff ff       	callq  8189 <platform_main_begin>
   174f0:	e8 a3 20 ff ff       	callq  9598 <crc32_gentab>
   174f5:	e8 bb 22 ff ff       	callq  97b5 <func_1>
   174fa:	0f b6 05 23 5b 00 00 	movzbl 0x5b23(%rip),%eax        # 1d024 <g_28>
   17501:	0f b6 c0             	movzbl %al,%eax
   17504:	8b 55 fc             	mov    -0x4(%rbp),%edx
   17507:	48 8d 35 74 21 00 00 	lea    0x2174(%rip),%rsi        # 19682 <g_2294+0x5de>
   1750e:	48 89 c7             	mov    %rax,%rdi
   17511:	e8 dd 21 ff ff       	callq  96f3 <transparent_crc>
   17516:	8b 05 0c 5b 00 00    	mov    0x5b0c(%rip),%eax        # 1d028 <g_41>
   1751c:	48 98                	cltq   
   1751e:	8b 55 fc             	mov    -0x4(%rbp),%edx
   17521:	48 8d 35 5f 21 00 00 	lea    0x215f(%rip),%rsi        # 19687 <g_2294+0x5e3>
   17528:	48 89 c7             	mov    %rax,%rdi
   1752b:	e8 c3 21 ff ff       	callq  96f3 <transparent_crc>
   17530:	c7 45 f0 00 00 00 00 	movl   $0x0,-0x10(%rbp)
   17537:	eb 45                	jmp    1757e <main+0xd8>
   17539:	8b 45 f0             	mov    -0x10(%rbp),%eax
   1753c:	48 98                	cltq   
   1753e:	48 8d 15 e7 5a 00 00 	lea    0x5ae7(%rip),%rdx        # 1d02c <g_65>
   17545:	0f b6 04 10          	movzbl (%rax,%rdx,1),%eax
   17549:	0f b6 c0             	movzbl %al,%eax
   1754c:	8b 55 fc             	mov    -0x4(%rbp),%edx
   1754f:	48 8d 35 36 21 00 00 	lea    0x2136(%rip),%rsi        # 1968c <g_2294+0x5e8>
   17556:	48 89 c7             	mov    %rax,%rdi
   17559:	e8 95 21 ff ff       	callq  96f3 <transparent_crc>
   1755e:	83 7d fc 00          	cmpl   $0x0,-0x4(%rbp)
   17562:	74 16                	je     1757a <main+0xd4>
   17564:	8b 45 f0             	mov    -0x10(%rbp),%eax
   17567:	89 c6                	mov    %eax,%esi
   17569:	48 8d 3d 24 21 00 00 	lea    0x2124(%rip),%rdi        # 19694 <g_2294+0x5f0>
   17570:	b8 00 00 00 00       	mov    $0x0,%eax
   17575:	e8 06 0b ff ff       	callq  8080 <printf@plt>
   1757a:	83 45 f0 01          	addl   $0x1,-0x10(%rbp)
   1757e:	83 7d f0 00          	cmpl   $0x0,-0x10(%rbp)
   17582:	7e b5                	jle    17539 <main+0x93>
   17584:	8b 05 a6 5a 00 00    	mov    0x5aa6(%rip),%eax        # 1d030 <g_85>
   1758a:	48 98                	cltq   
   1758c:	8b 55 fc             	mov    -0x4(%rbp),%edx
   1758f:	48 8d 35 0c 21 00 00 	lea    0x210c(%rip),%rsi        # 196a2 <g_2294+0x5fe>
   17596:	48 89 c7             	mov    %rax,%rdi
   17599:	e8 55 21 ff ff       	callq  96f3 <transparent_crc>
   1759e:	48 8b 05 93 5a 00 00 	mov    0x5a93(%rip),%rax        # 1d038 <g_91>
   175a5:	8b 55 fc             	mov    -0x4(%rbp),%edx
   175a8:	48 8d 35 f8 20 00 00 	lea    0x20f8(%rip),%rsi        # 196a7 <g_2294+0x603>
   175af:	48 89 c7             	mov    %rax,%rdi
   175b2:	e8 3c 21 ff ff       	callq  96f3 <transparent_crc>
   175b7:	0f b7 05 8a 95 00 00 	movzwl 0x958a(%rip),%eax        # 20b48 <g_111>
   175be:	0f b7 c0             	movzwl %ax,%eax
   175c1:	8b 55 fc             	mov    -0x4(%rbp),%edx
   175c4:	48 8d 35 e1 20 00 00 	lea    0x20e1(%rip),%rsi        # 196ac <g_2294+0x608>
   175cb:	48 89 c7             	mov    %rax,%rdi
   175ce:	e8 20 21 ff ff       	callq  96f3 <transparent_crc>
   175d3:	c7 45 f0 00 00 00 00 	movl   $0x0,-0x10(%rbp)
   175da:	eb 49                	jmp    17625 <main+0x17f>
   175dc:	8b 45 f0             	mov    -0x10(%rbp),%eax
   175df:	48 98                	cltq   
   175e1:	48 8d 14 00          	lea    (%rax,%rax,1),%rdx
   175e5:	48 8d 05 54 5a 00 00 	lea    0x5a54(%rip),%rax        # 1d040 <g_113>
   175ec:	0f b7 04 02          	movzwl (%rdx,%rax,1),%eax
   175f0:	0f b7 c0             	movzwl %ax,%eax
   175f3:	8b 55 fc             	mov    -0x4(%rbp),%edx
   175f6:	48 8d 35 b5 20 00 00 	lea    0x20b5(%rip),%rsi        # 196b2 <g_2294+0x60e>
   175fd:	48 89 c7             	mov    %rax,%rdi
   17600:	e8 ee 20 ff ff       	callq  96f3 <transparent_crc>
   17605:	83 7d fc 00          	cmpl   $0x0,-0x4(%rbp)
   17609:	74 16                	je     17621 <main+0x17b>
   1760b:	8b 45 f0             	mov    -0x10(%rbp),%eax
   1760e:	89 c6                	mov    %eax,%esi
   17610:	48 8d 3d 7d 20 00 00 	lea    0x207d(%rip),%rdi        # 19694 <g_2294+0x5f0>
   17617:	b8 00 00 00 00       	mov    $0x0,%eax
   1761c:	e8 5f 0a ff ff       	callq  8080 <printf@plt>
   17621:	83 45 f0 01          	addl   $0x1,-0x10(%rbp)
   17625:	83 7d f0 08          	cmpl   $0x8,-0x10(%rbp)
   17629:	7e b1                	jle    175dc <main+0x136>
   1762b:	0f b6 05 20 5a 00 00 	movzbl 0x5a20(%rip),%eax        # 1d052 <g_126>
   17632:	48 0f be c0          	movsbq %al,%rax
   17636:	8b 55 fc             	mov    -0x4(%rbp),%edx
   17639:	48 8d 35 7b 20 00 00 	lea    0x207b(%rip),%rsi        # 196bb <g_2294+0x617>
   17640:	48 89 c7             	mov    %rax,%rdi
   17643:	e8 ab 20 ff ff       	callq  96f3 <transparent_crc>
   17648:	8b 05 fe 94 00 00    	mov    0x94fe(%rip),%eax        # 20b4c <g_169>
   1764e:	89 c1                	mov    %eax,%ecx
   17650:	8b 45 fc             	mov    -0x4(%rbp),%eax
   17653:	89 c2                	mov    %eax,%edx
   17655:	48 8d 35 65 20 00 00 	lea    0x2065(%rip),%rsi        # 196c1 <g_2294+0x61d>
   1765c:	48 89 cf             	mov    %rcx,%rdi
   1765f:	e8 8f 20 ff ff       	callq  96f3 <transparent_crc>
   17664:	c7 45 f0 00 00 00 00 	movl   $0x0,-0x10(%rbp)
   1766b:	e9 b5 00 00 00       	jmpq   17725 <main+0x27f>
   17670:	c7 45 f4 00 00 00 00 	movl   $0x0,-0xc(%rbp)
   17677:	e9 9b 00 00 00       	jmpq   17717 <main+0x271>
   1767c:	c7 45 f8 00 00 00 00 	movl   $0x0,-0x8(%rbp)
   17683:	e9 81 00 00 00       	jmpq   17709 <main+0x263>
   17688:	8b 45 f8             	mov    -0x8(%rbp),%eax
   1768b:	48 63 f0             	movslq %eax,%rsi
   1768e:	8b 45 f0             	mov    -0x10(%rbp),%eax
   17691:	48 63 d0             	movslq %eax,%rdx
   17694:	8b 45 f4             	mov    -0xc(%rbp),%eax
   17697:	48 63 c8             	movslq %eax,%rcx
   1769a:	48 89 d0             	mov    %rdx,%rax
   1769d:	48 c1 e0 03          	shl    $0x3,%rax
   176a1:	48 01 d0             	add    %rdx,%rax
   176a4:	48 c1 e0 02          	shl    $0x2,%rax
   176a8:	48 29 d0             	sub    %rdx,%rax
   176ab:	48 89 ca             	mov    %rcx,%rdx
   176ae:	48 c1 e2 03          	shl    $0x3,%rdx
   176b2:	48 29 ca             	sub    %rcx,%rdx
   176b5:	48 01 d0             	add    %rdx,%rax
   176b8:	48 01 f0             	add    %rsi,%rax
   176bb:	48 8d 14 85 00 00 00 	lea    0x0(,%rax,4),%rdx
   176c2:	00 
   176c3:	48 8d 05 96 59 00 00 	lea    0x5996(%rip),%rax        # 1d060 <g_176>
   176ca:	8b 04 02             	mov    (%rdx,%rax,1),%eax
   176cd:	89 c1                	mov    %eax,%ecx
   176cf:	8b 45 fc             	mov    -0x4(%rbp),%eax
   176d2:	89 c2                	mov    %eax,%edx
   176d4:	48 8d 35 ec 1f 00 00 	lea    0x1fec(%rip),%rsi        # 196c7 <g_2294+0x623>
   176db:	48 89 cf             	mov    %rcx,%rdi
   176de:	e8 10 20 ff ff       	callq  96f3 <transparent_crc>
   176e3:	83 7d fc 00          	cmpl   $0x0,-0x4(%rbp)
   176e7:	74 1c                	je     17705 <main+0x25f>
   176e9:	8b 4d f8             	mov    -0x8(%rbp),%ecx
   176ec:	8b 55 f4             	mov    -0xc(%rbp),%edx
   176ef:	8b 45 f0             	mov    -0x10(%rbp),%eax
   176f2:	89 c6                	mov    %eax,%esi
   176f4:	48 8d 3d db 1f 00 00 	lea    0x1fdb(%rip),%rdi        # 196d6 <g_2294+0x632>
   176fb:	b8 00 00 00 00       	mov    $0x0,%eax
   17700:	e8 7b 09 ff ff       	callq  8080 <printf@plt>
   17705:	83 45 f8 01          	addl   $0x1,-0x8(%rbp)
   17709:	83 7d f8 06          	cmpl   $0x6,-0x8(%rbp)
   1770d:	0f 8e 75 ff ff ff    	jle    17688 <main+0x1e2>
   17713:	83 45 f4 01          	addl   $0x1,-0xc(%rbp)
   17717:	83 7d f4 04          	cmpl   $0x4,-0xc(%rbp)
   1771b:	0f 8e 5b ff ff ff    	jle    1767c <main+0x1d6>
   17721:	83 45 f0 01          	addl   $0x1,-0x10(%rbp)
   17725:	83 7d f0 05          	cmpl   $0x5,-0x10(%rbp)
   17729:	0f 8e 41 ff ff ff    	jle    17670 <main+0x1ca>
   1772f:	0f b7 05 72 5c 00 00 	movzwl 0x5c72(%rip),%eax        # 1d3a8 <g_177>
   17736:	48 0f bf c0          	movswq %ax,%rax
   1773a:	8b 55 fc             	mov    -0x4(%rbp),%edx
   1773d:	48 8d 35 a8 1f 00 00 	lea    0x1fa8(%rip),%rsi        # 196ec <g_2294+0x648>
   17744:	48 89 c7             	mov    %rax,%rdi
   17747:	e8 a7 1f ff ff       	callq  96f3 <transparent_crc>
   1774c:	0f b6 05 55 5c 00 00 	movzbl 0x5c55(%rip),%eax        # 1d3a8 <g_177>
   17753:	48 0f be c0          	movsbq %al,%rax
   17757:	8b 55 fc             	mov    -0x4(%rbp),%edx
   1775a:	48 8d 35 94 1f 00 00 	lea    0x1f94(%rip),%rsi        # 196f5 <g_2294+0x651>
   17761:	48 89 c7             	mov    %rax,%rdi
   17764:	e8 8a 1f ff ff       	callq  96f3 <transparent_crc>
   17769:	0f b7 05 38 5c 00 00 	movzwl 0x5c38(%rip),%eax        # 1d3a8 <g_177>
   17770:	0f b7 c0             	movzwl %ax,%eax
   17773:	8b 55 fc             	mov    -0x4(%rbp),%edx
   17776:	48 8d 35 81 1f 00 00 	lea    0x1f81(%rip),%rsi        # 196fe <g_2294+0x65a>
   1777d:	48 89 c7             	mov    %rax,%rdi
   17780:	e8 6e 1f ff ff       	callq  96f3 <transparent_crc>
   17785:	8b 05 21 5c 00 00    	mov    0x5c21(%rip),%eax        # 1d3ac <g_181>
   1778b:	48 98                	cltq   
   1778d:	8b 55 fc             	mov    -0x4(%rbp),%edx
   17790:	48 8d 35 70 1f 00 00 	lea    0x1f70(%rip),%rsi        # 19707 <g_2294+0x663>
   17797:	48 89 c7             	mov    %rax,%rdi
   1779a:	e8 54 1f ff ff       	callq  96f3 <transparent_crc>
   1779f:	0f b7 05 0a 5c 00 00 	movzwl 0x5c0a(%rip),%eax        # 1d3b0 <g_184>
   177a6:	48 0f bf c0          	movswq %ax,%rax
   177aa:	8b 55 fc             	mov    -0x4(%rbp),%edx
   177ad:	48 8d 35 59 1f 00 00 	lea    0x1f59(%rip),%rsi        # 1970d <g_2294+0x669>
   177b4:	48 89 c7             	mov    %rax,%rdi
   177b7:	e8 37 1f ff ff       	callq  96f3 <transparent_crc>
   177bc:	0f b6 05 ed 5b 00 00 	movzbl 0x5bed(%rip),%eax        # 1d3b0 <g_184>
   177c3:	48 0f be c0          	movsbq %al,%rax
   177c7:	8b 55 fc             	mov    -0x4(%rbp),%edx
   177ca:	48 8d 35 45 1f 00 00 	lea    0x1f45(%rip),%rsi        # 19716 <g_2294+0x672>
   177d1:	48 89 c7             	mov    %rax,%rdi
   177d4:	e8 1a 1f ff ff       	callq  96f3 <transparent_crc>
   177d9:	0f b7 05 d0 5b 00 00 	movzwl 0x5bd0(%rip),%eax        # 1d3b0 <g_184>
   177e0:	0f b7 c0             	movzwl %ax,%eax
   177e3:	8b 55 fc             	mov    -0x4(%rbp),%edx
   177e6:	48 8d 35 32 1f 00 00 	lea    0x1f32(%rip),%rsi        # 1971f <g_2294+0x67b>
   177ed:	48 89 c7             	mov    %rax,%rdi
   177f0:	e8 fe 1e ff ff       	callq  96f3 <transparent_crc>
   177f5:	8b 05 bd 5b 00 00    	mov    0x5bbd(%rip),%eax        # 1d3b8 <g_199>
   177fb:	89 c1                	mov    %eax,%ecx
   177fd:	8b 45 fc             	mov    -0x4(%rbp),%eax
   17800:	89 c2                	mov    %eax,%edx
   17802:	48 8d 35 1f 1f 00 00 	lea    0x1f1f(%rip),%rsi        # 19728 <g_2294+0x684>
   17809:	48 89 cf             	mov    %rcx,%rdi
   1780c:	e8 e2 1e ff ff       	callq  96f3 <transparent_crc>
   17811:	c7 45 f0 00 00 00 00 	movl   $0x0,-0x10(%rbp)
   17818:	e9 9e 00 00 00       	jmpq   178bb <main+0x415>
   1781d:	c7 45 f4 00 00 00 00 	movl   $0x0,-0xc(%rbp)
   17824:	e9 84 00 00 00       	jmpq   178ad <main+0x407>
   17829:	c7 45 f8 00 00 00 00 	movl   $0x0,-0x8(%rbp)
   17830:	eb 71                	jmp    178a3 <main+0x3fd>
   17832:	8b 45 f8             	mov    -0x8(%rbp),%eax
   17835:	48 63 c8             	movslq %eax,%rcx
   17838:	8b 45 f0             	mov    -0x10(%rbp),%eax
   1783b:	48 63 d0             	movslq %eax,%rdx
   1783e:	8b 45 f4             	mov    -0xc(%rbp),%eax
   17841:	48 63 f0             	movslq %eax,%rsi
   17844:	48 89 d0             	mov    %rdx,%rax
   17847:	48 c1 e0 03          	shl    $0x3,%rax
   1784b:	48 01 d0             	add    %rdx,%rax
   1784e:	48 01 f0             	add    %rsi,%rax
   17851:	48 01 c0             	add    %rax,%rax
   17854:	48 01 c8             	add    %rcx,%rax
   17857:	48 8d 14 85 00 00 00 	lea    0x0(,%rax,4),%rdx
   1785e:	00 
   1785f:	48 8d 05 5a 5b 00 00 	lea    0x5b5a(%rip),%rax        # 1d3c0 <g_215>
   17866:	8b 04 02             	mov    (%rdx,%rax,1),%eax
   17869:	48 98                	cltq   
   1786b:	8b 55 fc             	mov    -0x4(%rbp),%edx
   1786e:	48 8d 35 bc 1e 00 00 	lea    0x1ebc(%rip),%rsi        # 19731 <g_2294+0x68d>
   17875:	48 89 c7             	mov    %rax,%rdi
   17878:	e8 76 1e ff ff       	callq  96f3 <transparent_crc>
   1787d:	83 7d fc 00          	cmpl   $0x0,-0x4(%rbp)
   17881:	74 1c                	je     1789f <main+0x3f9>
   17883:	8b 4d f8             	mov    -0x8(%rbp),%ecx
   17886:	8b 55 f4             	mov    -0xc(%rbp),%edx
   17889:	8b 45 f0             	mov    -0x10(%rbp),%eax
   1788c:	89 c6                	mov    %eax,%esi
   1788e:	48 8d 3d 41 1e 00 00 	lea    0x1e41(%rip),%rdi        # 196d6 <g_2294+0x632>
   17895:	b8 00 00 00 00       	mov    $0x0,%eax
   1789a:	e8 e1 07 ff ff       	callq  8080 <printf@plt>
   1789f:	83 45 f8 01          	addl   $0x1,-0x8(%rbp)
   178a3:	83 7d f8 01          	cmpl   $0x1,-0x8(%rbp)
   178a7:	7e 89                	jle    17832 <main+0x38c>
   178a9:	83 45 f4 01          	addl   $0x1,-0xc(%rbp)
   178ad:	83 7d f4 08          	cmpl   $0x8,-0xc(%rbp)
   178b1:	0f 8e 72 ff ff ff    	jle    17829 <main+0x383>
   178b7:	83 45 f0 01          	addl   $0x1,-0x10(%rbp)
   178bb:	83 7d f0 03          	cmpl   $0x3,-0x10(%rbp)
   178bf:	0f 8e 58 ff ff ff    	jle    1781d <main+0x377>
   178c5:	0f b7 05 14 5c 00 00 	movzwl 0x5c14(%rip),%eax        # 1d4e0 <g_255>
   178cc:	48 0f bf c0          	movswq %ax,%rax
   178d0:	8b 55 fc             	mov    -0x4(%rbp),%edx
   178d3:	48 8d 35 66 1e 00 00 	lea    0x1e66(%rip),%rsi        # 19740 <g_2294+0x69c>
   178da:	48 89 c7             	mov    %rax,%rdi
   178dd:	e8 11 1e ff ff       	callq  96f3 <transparent_crc>
   178e2:	8b 05 fc 5b 00 00    	mov    0x5bfc(%rip),%eax        # 1d4e4 <g_264>
   178e8:	89 c1                	mov    %eax,%ecx
   178ea:	8b 45 fc             	mov    -0x4(%rbp),%eax
   178ed:	89 c2                	mov    %eax,%edx
   178ef:	48 8d 35 50 1e 00 00 	lea    0x1e50(%rip),%rsi        # 19746 <g_2294+0x6a2>
   178f6:	48 89 cf             	mov    %rcx,%rdi
   178f9:	e8 f5 1d ff ff       	callq  96f3 <transparent_crc>
   178fe:	0f b7 05 e3 5b 00 00 	movzwl 0x5be3(%rip),%eax        # 1d4e8 <g_292>
   17905:	48 0f bf c0          	movswq %ax,%rax
   17909:	8b 55 fc             	mov    -0x4(%rbp),%edx
   1790c:	48 8d 35 39 1e 00 00 	lea    0x1e39(%rip),%rsi        # 1974c <g_2294+0x6a8>
   17913:	48 89 c7             	mov    %rax,%rdi
   17916:	e8 d8 1d ff ff       	callq  96f3 <transparent_crc>
   1791b:	0f b6 05 c6 5b 00 00 	movzbl 0x5bc6(%rip),%eax        # 1d4e8 <g_292>
   17922:	48 0f be c0          	movsbq %al,%rax
   17926:	8b 55 fc             	mov    -0x4(%rbp),%edx
   17929:	48 8d 35 25 1e 00 00 	lea    0x1e25(%rip),%rsi        # 19755 <g_2294+0x6b1>
   17930:	48 89 c7             	mov    %rax,%rdi
   17933:	e8 bb 1d ff ff       	callq  96f3 <transparent_crc>
   17938:	0f b7 05 a9 5b 00 00 	movzwl 0x5ba9(%rip),%eax        # 1d4e8 <g_292>
   1793f:	0f b7 c0             	movzwl %ax,%eax
   17942:	8b 55 fc             	mov    -0x4(%rbp),%edx
   17945:	48 8d 35 12 1e 00 00 	lea    0x1e12(%rip),%rsi        # 1975e <g_2294+0x6ba>
   1794c:	48 89 c7             	mov    %rax,%rdi
   1794f:	e8 9f 1d ff ff       	callq  96f3 <transparent_crc>
   17954:	0f b7 05 91 5b 00 00 	movzwl 0x5b91(%rip),%eax        # 1d4ec <g_388>
   1795b:	48 0f bf c0          	movswq %ax,%rax
   1795f:	8b 55 fc             	mov    -0x4(%rbp),%edx
   17962:	48 8d 35 fe 1d 00 00 	lea    0x1dfe(%rip),%rsi        # 19767 <g_2294+0x6c3>
   17969:	48 89 c7             	mov    %rax,%rdi
   1796c:	e8 82 1d ff ff       	callq  96f3 <transparent_crc>
   17971:	0f b6 05 74 5b 00 00 	movzbl 0x5b74(%rip),%eax        # 1d4ec <g_388>
   17978:	48 0f be c0          	movsbq %al,%rax
   1797c:	8b 55 fc             	mov    -0x4(%rbp),%edx
   1797f:	48 8d 35 ea 1d 00 00 	lea    0x1dea(%rip),%rsi        # 19770 <g_2294+0x6cc>
   17986:	48 89 c7             	mov    %rax,%rdi
   17989:	e8 65 1d ff ff       	callq  96f3 <transparent_crc>
   1798e:	0f b7 05 57 5b 00 00 	movzwl 0x5b57(%rip),%eax        # 1d4ec <g_388>
   17995:	0f b7 c0             	movzwl %ax,%eax
   17998:	8b 55 fc             	mov    -0x4(%rbp),%edx
   1799b:	48 8d 35 d7 1d 00 00 	lea    0x1dd7(%rip),%rsi        # 19779 <g_2294+0x6d5>
   179a2:	48 89 c7             	mov    %rax,%rdi
   179a5:	e8 49 1d ff ff       	callq  96f3 <transparent_crc>
   179aa:	48 8b 05 3f 5b 00 00 	mov    0x5b3f(%rip),%rax        # 1d4f0 <g_397>
   179b1:	48 89 c1             	mov    %rax,%rcx
   179b4:	8b 45 fc             	mov    -0x4(%rbp),%eax
   179b7:	89 c2                	mov    %eax,%edx
   179b9:	48 8d 35 c2 1d 00 00 	lea    0x1dc2(%rip),%rsi        # 19782 <g_2294+0x6de>
   179c0:	48 89 cf             	mov    %rcx,%rdi
   179c3:	e8 2b 1d ff ff       	callq  96f3 <transparent_crc>
   179c8:	48 c7 c0 ff ff ff ff 	mov    $0xffffffffffffffff,%rax
   179cf:	48 89 c1             	mov    %rax,%rcx
   179d2:	8b 45 fc             	mov    -0x4(%rbp),%eax
   179d5:	89 c2                	mov    %eax,%edx
   179d7:	48 8d 35 aa 1d 00 00 	lea    0x1daa(%rip),%rsi        # 19788 <g_2294+0x6e4>
   179de:	48 89 cf             	mov    %rcx,%rdi
   179e1:	e8 0d 1d ff ff       	callq  96f3 <transparent_crc>
   179e6:	0f b7 05 0b 5b 00 00 	movzwl 0x5b0b(%rip),%eax        # 1d4f8 <g_429>
   179ed:	48 0f bf c0          	movswq %ax,%rax
   179f1:	8b 55 fc             	mov    -0x4(%rbp),%edx
   179f4:	48 8d 35 93 1d 00 00 	lea    0x1d93(%rip),%rsi        # 1978e <g_2294+0x6ea>
   179fb:	48 89 c7             	mov    %rax,%rdi
   179fe:	e8 f0 1c ff ff       	callq  96f3 <transparent_crc>
   17a03:	0f b6 05 ee 5a 00 00 	movzbl 0x5aee(%rip),%eax        # 1d4f8 <g_429>
   17a0a:	48 0f be c0          	movsbq %al,%rax
   17a0e:	8b 55 fc             	mov    -0x4(%rbp),%edx
   17a11:	48 8d 35 7f 1d 00 00 	lea    0x1d7f(%rip),%rsi        # 19797 <g_2294+0x6f3>
   17a18:	48 89 c7             	mov    %rax,%rdi
   17a1b:	e8 d3 1c ff ff       	callq  96f3 <transparent_crc>
   17a20:	0f b7 05 d1 5a 00 00 	movzwl 0x5ad1(%rip),%eax        # 1d4f8 <g_429>
   17a27:	0f b7 c0             	movzwl %ax,%eax
   17a2a:	8b 55 fc             	mov    -0x4(%rbp),%edx
   17a2d:	48 8d 35 6c 1d 00 00 	lea    0x1d6c(%rip),%rsi        # 197a0 <g_2294+0x6fc>
   17a34:	48 89 c7             	mov    %rax,%rdi
   17a37:	e8 b7 1c ff ff       	callq  96f3 <transparent_crc>
   17a3c:	0f b6 05 b9 5a 00 00 	movzbl 0x5ab9(%rip),%eax        # 1d4fc <g_443>
   17a43:	48 0f be c0          	movsbq %al,%rax
   17a47:	8b 55 fc             	mov    -0x4(%rbp),%edx
   17a4a:	48 8d 35 58 1d 00 00 	lea    0x1d58(%rip),%rsi        # 197a9 <g_2294+0x705>
   17a51:	48 89 c7             	mov    %rax,%rdi
   17a54:	e8 9a 1c ff ff       	callq  96f3 <transparent_crc>
   17a59:	48 b9 d0 27 21 1f 08 	movabs $0x57ceae081f2127d0,%rcx
   17a60:	ae ce 57 
   17a63:	8b 45 fc             	mov    -0x4(%rbp),%eax
   17a66:	89 c2                	mov    %eax,%edx
   17a68:	48 8d 35 40 1d 00 00 	lea    0x1d40(%rip),%rsi        # 197af <g_2294+0x70b>
   17a6f:	48 89 cf             	mov    %rcx,%rdi
   17a72:	e8 7c 1c ff ff       	callq  96f3 <transparent_crc>
   17a77:	0f b7 05 80 5a 00 00 	movzwl 0x5a80(%rip),%eax        # 1d4fe <g_502>
   17a7e:	48 0f bf c0          	movswq %ax,%rax
   17a82:	8b 55 fc             	mov    -0x4(%rbp),%edx
   17a85:	48 8d 35 29 1d 00 00 	lea    0x1d29(%rip),%rsi        # 197b5 <g_2294+0x711>
   17a8c:	48 89 c7             	mov    %rax,%rdi
   17a8f:	e8 5f 1c ff ff       	callq  96f3 <transparent_crc>
   17a94:	8b 05 66 5a 00 00    	mov    0x5a66(%rip),%eax        # 1d500 <g_544>
   17a9a:	48 98                	cltq   
   17a9c:	8b 55 fc             	mov    -0x4(%rbp),%edx
   17a9f:	48 8d 35 15 1d 00 00 	lea    0x1d15(%rip),%rsi        # 197bb <g_2294+0x717>
   17aa6:	48 89 c7             	mov    %rax,%rdi
   17aa9:	e8 45 1c ff ff       	callq  96f3 <transparent_crc>
   17aae:	0f b7 05 4f 5a 00 00 	movzwl 0x5a4f(%rip),%eax        # 1d504 <g_647>
   17ab5:	48 0f bf c0          	movswq %ax,%rax
   17ab9:	8b 55 fc             	mov    -0x4(%rbp),%edx
   17abc:	48 8d 35 fe 1c 00 00 	lea    0x1cfe(%rip),%rsi        # 197c1 <g_2294+0x71d>
   17ac3:	48 89 c7             	mov    %rax,%rdi
   17ac6:	e8 28 1c ff ff       	callq  96f3 <transparent_crc>
   17acb:	0f b6 05 34 5a 00 00 	movzbl 0x5a34(%rip),%eax        # 1d506 <g_677>
   17ad2:	48 0f be c0          	movsbq %al,%rax
   17ad6:	8b 55 fc             	mov    -0x4(%rbp),%edx
   17ad9:	48 8d 35 e7 1c 00 00 	lea    0x1ce7(%rip),%rsi        # 197c7 <g_2294+0x723>
   17ae0:	48 89 c7             	mov    %rax,%rdi
   17ae3:	e8 0b 1c ff ff       	callq  96f3 <transparent_crc>
   17ae8:	0f b6 05 21 5a 00 00 	movzbl 0x5a21(%rip),%eax        # 1d510 <g_707>
   17aef:	0f b6 c0             	movzbl %al,%eax
   17af2:	8b 55 fc             	mov    -0x4(%rbp),%edx
   17af5:	48 8d 35 d1 1c 00 00 	lea    0x1cd1(%rip),%rsi        # 197cd <g_2294+0x729>
   17afc:	48 89 c7             	mov    %rax,%rdi
   17aff:	e8 ef 1b ff ff       	callq  96f3 <transparent_crc>
   17b04:	0f b7 05 85 90 00 00 	movzwl 0x9085(%rip),%eax        # 20b90 <g_736>
   17b0b:	48 0f bf c0          	movswq %ax,%rax
   17b0f:	8b 55 fc             	mov    -0x4(%rbp),%edx
   17b12:	48 8d 35 ba 1c 00 00 	lea    0x1cba(%rip),%rsi        # 197d3 <g_2294+0x72f>
   17b19:	48 89 c7             	mov    %rax,%rdi
   17b1c:	e8 d2 1b ff ff       	callq  96f3 <transparent_crc>
   17b21:	b8 82 1f 09 be       	mov    $0xbe091f82,%eax
   17b26:	48 98                	cltq   
   17b28:	8b 55 fc             	mov    -0x4(%rbp),%edx
   17b2b:	48 8d 35 a7 1c 00 00 	lea    0x1ca7(%rip),%rsi        # 197d9 <g_2294+0x735>
   17b32:	48 89 c7             	mov    %rax,%rdi
   17b35:	e8 b9 1b ff ff       	callq  96f3 <transparent_crc>
   17b3a:	8b 05 e0 59 00 00    	mov    0x59e0(%rip),%eax        # 1d520 <g_820>
   17b40:	48 98                	cltq   
   17b42:	8b 55 fc             	mov    -0x4(%rbp),%edx
   17b45:	48 8d 35 93 1c 00 00 	lea    0x1c93(%rip),%rsi        # 197df <g_2294+0x73b>
   17b4c:	48 89 c7             	mov    %rax,%rdi
   17b4f:	e8 9f 1b ff ff       	callq  96f3 <transparent_crc>
   17b54:	8b 05 ca 59 00 00    	mov    0x59ca(%rip),%eax        # 1d524 <g_868>
   17b5a:	89 c1                	mov    %eax,%ecx
   17b5c:	8b 45 fc             	mov    -0x4(%rbp),%eax
   17b5f:	89 c2                	mov    %eax,%edx
   17b61:	48 8d 35 7d 1c 00 00 	lea    0x1c7d(%rip),%rsi        # 197e5 <g_2294+0x741>
   17b68:	48 89 cf             	mov    %rcx,%rdi
   17b6b:	e8 83 1b ff ff       	callq  96f3 <transparent_crc>
   17b70:	0f b6 05 b1 59 00 00 	movzbl 0x59b1(%rip),%eax        # 1d528 <g_900>
   17b77:	48 0f be c0          	movsbq %al,%rax
   17b7b:	8b 55 fc             	mov    -0x4(%rbp),%edx
   17b7e:	48 8d 35 66 1c 00 00 	lea    0x1c66(%rip),%rsi        # 197eb <g_2294+0x747>
   17b85:	48 89 c7             	mov    %rax,%rdi
   17b88:	e8 66 1b ff ff       	callq  96f3 <transparent_crc>
   17b8d:	8b 05 99 59 00 00    	mov    0x5999(%rip),%eax        # 1d52c <g_975>
   17b93:	89 c1                	mov    %eax,%ecx
   17b95:	8b 45 fc             	mov    -0x4(%rbp),%eax
   17b98:	89 c2                	mov    %eax,%edx
   17b9a:	48 8d 35 50 1c 00 00 	lea    0x1c50(%rip),%rsi        # 197f1 <g_2294+0x74d>
   17ba1:	48 89 cf             	mov    %rcx,%rdi
   17ba4:	e8 4a 1b ff ff       	callq  96f3 <transparent_crc>
   17ba9:	0f b6 05 80 59 00 00 	movzbl 0x5980(%rip),%eax        # 1d530 <g_1071>
   17bb0:	0f b6 c0             	movzbl %al,%eax
   17bb3:	8b 55 fc             	mov    -0x4(%rbp),%edx
   17bb6:	48 8d 35 3a 1c 00 00 	lea    0x1c3a(%rip),%rsi        # 197f7 <g_2294+0x753>
   17bbd:	48 89 c7             	mov    %rax,%rdi
   17bc0:	e8 2e 1b ff ff       	callq  96f3 <transparent_crc>
   17bc5:	8b 05 69 59 00 00    	mov    0x5969(%rip),%eax        # 1d534 <g_1120>
   17bcb:	89 c1                	mov    %eax,%ecx
   17bcd:	8b 45 fc             	mov    -0x4(%rbp),%eax
   17bd0:	89 c2                	mov    %eax,%edx
   17bd2:	48 8d 35 25 1c 00 00 	lea    0x1c25(%rip),%rsi        # 197fe <g_2294+0x75a>
   17bd9:	48 89 cf             	mov    %rcx,%rdi
   17bdc:	e8 12 1b ff ff       	callq  96f3 <transparent_crc>
   17be1:	0f b7 05 50 59 00 00 	movzwl 0x5950(%rip),%eax        # 1d538 <g_1148>
   17be8:	48 0f bf c0          	movswq %ax,%rax
   17bec:	8b 55 fc             	mov    -0x4(%rbp),%edx
   17bef:	48 8d 35 0f 1c 00 00 	lea    0x1c0f(%rip),%rsi        # 19805 <g_2294+0x761>
   17bf6:	48 89 c7             	mov    %rax,%rdi
   17bf9:	e8 f5 1a ff ff       	callq  96f3 <transparent_crc>
   17bfe:	0f b6 05 33 59 00 00 	movzbl 0x5933(%rip),%eax        # 1d538 <g_1148>
   17c05:	48 0f be c0          	movsbq %al,%rax
   17c09:	8b 55 fc             	mov    -0x4(%rbp),%edx
   17c0c:	48 8d 35 fc 1b 00 00 	lea    0x1bfc(%rip),%rsi        # 1980f <g_2294+0x76b>
   17c13:	48 89 c7             	mov    %rax,%rdi
   17c16:	e8 d8 1a ff ff       	callq  96f3 <transparent_crc>
   17c1b:	0f b7 05 16 59 00 00 	movzwl 0x5916(%rip),%eax        # 1d538 <g_1148>
   17c22:	0f b7 c0             	movzwl %ax,%eax
   17c25:	8b 55 fc             	mov    -0x4(%rbp),%edx
   17c28:	48 8d 35 ea 1b 00 00 	lea    0x1bea(%rip),%rsi        # 19819 <g_2294+0x775>
   17c2f:	48 89 c7             	mov    %rax,%rdi
   17c32:	e8 bc 1a ff ff       	callq  96f3 <transparent_crc>
   17c37:	0f b7 05 aa 8f 00 00 	movzwl 0x8faa(%rip),%eax        # 20be8 <g_1203>
   17c3e:	0f b7 c0             	movzwl %ax,%eax
   17c41:	8b 55 fc             	mov    -0x4(%rbp),%edx
   17c44:	48 8d 35 d8 1b 00 00 	lea    0x1bd8(%rip),%rsi        # 19823 <g_2294+0x77f>
   17c4b:	48 89 c7             	mov    %rax,%rdi
   17c4e:	e8 a0 1a ff ff       	callq  96f3 <transparent_crc>
   17c53:	48 8b 05 96 8f 00 00 	mov    0x8f96(%rip),%rax        # 20bf0 <g_1211>
   17c5a:	8b 55 fc             	mov    -0x4(%rbp),%edx
   17c5d:	48 8d 35 c6 1b 00 00 	lea    0x1bc6(%rip),%rsi        # 1982a <g_2294+0x786>
   17c64:	48 89 c7             	mov    %rax,%rdi
   17c67:	e8 87 1a ff ff       	callq  96f3 <transparent_crc>
   17c6c:	0f b7 05 c9 58 00 00 	movzwl 0x58c9(%rip),%eax        # 1d53c <g_1244>
   17c73:	48 0f bf c0          	movswq %ax,%rax
   17c77:	8b 55 fc             	mov    -0x4(%rbp),%edx
   17c7a:	48 8d 35 b0 1b 00 00 	lea    0x1bb0(%rip),%rsi        # 19831 <g_2294+0x78d>
   17c81:	48 89 c7             	mov    %rax,%rdi
   17c84:	e8 6a 1a ff ff       	callq  96f3 <transparent_crc>
   17c89:	0f b6 05 ac 58 00 00 	movzbl 0x58ac(%rip),%eax        # 1d53c <g_1244>
   17c90:	48 0f be c0          	movsbq %al,%rax
   17c94:	8b 55 fc             	mov    -0x4(%rbp),%edx
   17c97:	48 8d 35 9d 1b 00 00 	lea    0x1b9d(%rip),%rsi        # 1983b <g_2294+0x797>
   17c9e:	48 89 c7             	mov    %rax,%rdi
   17ca1:	e8 4d 1a ff ff       	callq  96f3 <transparent_crc>
   17ca6:	0f b7 05 8f 58 00 00 	movzwl 0x588f(%rip),%eax        # 1d53c <g_1244>
   17cad:	0f b7 c0             	movzwl %ax,%eax
   17cb0:	8b 55 fc             	mov    -0x4(%rbp),%edx
   17cb3:	48 8d 35 8b 1b 00 00 	lea    0x1b8b(%rip),%rsi        # 19845 <g_2294+0x7a1>
   17cba:	48 89 c7             	mov    %rax,%rdi
   17cbd:	e8 31 1a ff ff       	callq  96f3 <transparent_crc>
   17cc2:	0f b7 05 77 58 00 00 	movzwl 0x5877(%rip),%eax        # 1d540 <g_1404>
   17cc9:	48 0f bf c0          	movswq %ax,%rax
   17ccd:	8b 55 fc             	mov    -0x4(%rbp),%edx
   17cd0:	48 8d 35 78 1b 00 00 	lea    0x1b78(%rip),%rsi        # 1984f <g_2294+0x7ab>
   17cd7:	48 89 c7             	mov    %rax,%rdi
   17cda:	e8 14 1a ff ff       	callq  96f3 <transparent_crc>
   17cdf:	8b 05 5b 58 00 00    	mov    0x585b(%rip),%eax        # 1d540 <g_1404>
   17ce5:	48 98                	cltq   
   17ce7:	8b 55 fc             	mov    -0x4(%rbp),%edx
   17cea:	48 8d 35 68 1b 00 00 	lea    0x1b68(%rip),%rsi        # 19859 <g_2294+0x7b5>
   17cf1:	48 89 c7             	mov    %rax,%rdi
   17cf4:	e8 fa 19 ff ff       	callq  96f3 <transparent_crc>
   17cf9:	0f b6 05 40 58 00 00 	movzbl 0x5840(%rip),%eax        # 1d540 <g_1404>
   17d00:	48 0f be c0          	movsbq %al,%rax
   17d04:	8b 55 fc             	mov    -0x4(%rbp),%edx
   17d07:	48 8d 35 55 1b 00 00 	lea    0x1b55(%rip),%rsi        # 19863 <g_2294+0x7bf>
   17d0e:	48 89 c7             	mov    %rax,%rdi
   17d11:	e8 dd 19 ff ff       	callq  96f3 <transparent_crc>
   17d16:	8b 05 24 58 00 00    	mov    0x5824(%rip),%eax        # 1d540 <g_1404>
   17d1c:	89 c1                	mov    %eax,%ecx
   17d1e:	8b 45 fc             	mov    -0x4(%rbp),%eax
   17d21:	89 c2                	mov    %eax,%edx
   17d23:	48 8d 35 43 1b 00 00 	lea    0x1b43(%rip),%rsi        # 1986d <g_2294+0x7c9>
   17d2a:	48 89 cf             	mov    %rcx,%rdi
   17d2d:	e8 c1 19 ff ff       	callq  96f3 <transparent_crc>
   17d32:	0f b7 05 07 58 00 00 	movzwl 0x5807(%rip),%eax        # 1d540 <g_1404>
   17d39:	0f b7 c0             	movzwl %ax,%eax
   17d3c:	8b 55 fc             	mov    -0x4(%rbp),%edx
   17d3f:	48 8d 35 31 1b 00 00 	lea    0x1b31(%rip),%rsi        # 19877 <g_2294+0x7d3>
   17d46:	48 89 c7             	mov    %rax,%rdi
   17d49:	e8 a5 19 ff ff       	callq  96f3 <transparent_crc>
   17d4e:	48 8b 05 f3 57 00 00 	mov    0x57f3(%rip),%rax        # 1d548 <g_1457>
   17d55:	8b 55 fc             	mov    -0x4(%rbp),%edx
   17d58:	48 8d 35 22 1b 00 00 	lea    0x1b22(%rip),%rsi        # 19881 <g_2294+0x7dd>
   17d5f:	48 89 c7             	mov    %rax,%rdi
   17d62:	e8 8c 19 ff ff       	callq  96f3 <transparent_crc>
   17d67:	8b 05 e3 57 00 00    	mov    0x57e3(%rip),%eax        # 1d550 <g_1572>
   17d6d:	48 98                	cltq   
   17d6f:	8b 55 fc             	mov    -0x4(%rbp),%edx
   17d72:	48 8d 35 0f 1b 00 00 	lea    0x1b0f(%rip),%rsi        # 19888 <g_2294+0x7e4>
   17d79:	48 89 c7             	mov    %rax,%rdi
   17d7c:	e8 72 19 ff ff       	callq  96f3 <transparent_crc>
   17d81:	48 b8 59 b4 85 51 23 	movabs $0xa6dd0a235185b459,%rax
   17d88:	0a dd a6 
   17d8b:	48 89 c1             	mov    %rax,%rcx
   17d8e:	8b 45 fc             	mov    -0x4(%rbp),%eax
   17d91:	89 c2                	mov    %eax,%edx
   17d93:	48 8d 35 f5 1a 00 00 	lea    0x1af5(%rip),%rsi        # 1988f <g_2294+0x7eb>
   17d9a:	48 89 cf             	mov    %rcx,%rdi
   17d9d:	e8 51 19 ff ff       	callq  96f3 <transparent_crc>
   17da2:	8b 05 ac 57 00 00    	mov    0x57ac(%rip),%eax        # 1d554 <g_1767>
   17da8:	48 98                	cltq   
   17daa:	8b 55 fc             	mov    -0x4(%rbp),%edx
   17dad:	48 8d 35 e2 1a 00 00 	lea    0x1ae2(%rip),%rsi        # 19896 <g_2294+0x7f2>
   17db4:	48 89 c7             	mov    %rax,%rdi
   17db7:	e8 37 19 ff ff       	callq  96f3 <transparent_crc>
   17dbc:	0f b7 05 95 57 00 00 	movzwl 0x5795(%rip),%eax        # 1d558 <g_1820>
   17dc3:	48 0f bf c0          	movswq %ax,%rax
   17dc7:	8b 55 fc             	mov    -0x4(%rbp),%edx
   17dca:	48 8d 35 cc 1a 00 00 	lea    0x1acc(%rip),%rsi        # 1989d <g_2294+0x7f9>
   17dd1:	48 89 c7             	mov    %rax,%rdi
   17dd4:	e8 1a 19 ff ff       	callq  96f3 <transparent_crc>
   17dd9:	0f b6 05 78 57 00 00 	movzbl 0x5778(%rip),%eax        # 1d558 <g_1820>
   17de0:	48 0f be c0          	movsbq %al,%rax
   17de4:	8b 55 fc             	mov    -0x4(%rbp),%edx
   17de7:	48 8d 35 b9 1a 00 00 	lea    0x1ab9(%rip),%rsi        # 198a7 <g_2294+0x803>
   17dee:	48 89 c7             	mov    %rax,%rdi
   17df1:	e8 fd 18 ff ff       	callq  96f3 <transparent_crc>
   17df6:	0f b7 05 5b 57 00 00 	movzwl 0x575b(%rip),%eax        # 1d558 <g_1820>
   17dfd:	0f b7 c0             	movzwl %ax,%eax
   17e00:	8b 55 fc             	mov    -0x4(%rbp),%edx
   17e03:	48 8d 35 a7 1a 00 00 	lea    0x1aa7(%rip),%rsi        # 198b1 <g_2294+0x80d>
   17e0a:	48 89 c7             	mov    %rax,%rdi
   17e0d:	e8 e1 18 ff ff       	callq  96f3 <transparent_crc>
   17e12:	b8 04 04 00 00       	mov    $0x404,%eax
   17e17:	48 0f bf c0          	movswq %ax,%rax
   17e1b:	8b 55 fc             	mov    -0x4(%rbp),%edx
   17e1e:	48 8d 35 96 1a 00 00 	lea    0x1a96(%rip),%rsi        # 198bb <g_2294+0x817>
   17e25:	48 89 c7             	mov    %rax,%rdi
   17e28:	e8 c6 18 ff ff       	callq  96f3 <transparent_crc>
   17e2d:	0f b6 05 44 12 00 00 	movzbl 0x1244(%rip),%eax        # 19078 <g_1831>
   17e34:	48 0f be c0          	movsbq %al,%rax
   17e38:	8b 55 fc             	mov    -0x4(%rbp),%edx
   17e3b:	48 8d 35 83 1a 00 00 	lea    0x1a83(%rip),%rsi        # 198c5 <g_2294+0x821>
   17e42:	48 89 c7             	mov    %rax,%rdi
   17e45:	e8 a9 18 ff ff       	callq  96f3 <transparent_crc>
   17e4a:	b8 04 04 00 00       	mov    $0x404,%eax
   17e4f:	0f b7 c0             	movzwl %ax,%eax
   17e52:	8b 55 fc             	mov    -0x4(%rbp),%edx
   17e55:	48 8d 35 73 1a 00 00 	lea    0x1a73(%rip),%rsi        # 198cf <g_2294+0x82b>
   17e5c:	48 89 c7             	mov    %rax,%rdi
   17e5f:	e8 8f 18 ff ff       	callq  96f3 <transparent_crc>
   17e64:	8b 05 f2 56 00 00    	mov    0x56f2(%rip),%eax        # 1d55c <g_1834>
   17e6a:	89 c1                	mov    %eax,%ecx
   17e6c:	8b 45 fc             	mov    -0x4(%rbp),%eax
   17e6f:	89 c2                	mov    %eax,%edx
   17e71:	48 8d 35 61 1a 00 00 	lea    0x1a61(%rip),%rsi        # 198d9 <g_2294+0x835>
   17e78:	48 89 cf             	mov    %rcx,%rdi
   17e7b:	e8 73 18 ff ff       	callq  96f3 <transparent_crc>
   17e80:	0f b7 05 d9 56 00 00 	movzwl 0x56d9(%rip),%eax        # 1d560 <g_1976>
   17e87:	48 0f bf c0          	movswq %ax,%rax
   17e8b:	8b 55 fc             	mov    -0x4(%rbp),%edx
   17e8e:	48 8d 35 4b 1a 00 00 	lea    0x1a4b(%rip),%rsi        # 198e0 <g_2294+0x83c>
   17e95:	48 89 c7             	mov    %rax,%rdi
   17e98:	e8 56 18 ff ff       	callq  96f3 <transparent_crc>
   17e9d:	0f b6 05 bc 56 00 00 	movzbl 0x56bc(%rip),%eax        # 1d560 <g_1976>
   17ea4:	48 0f be c0          	movsbq %al,%rax
   17ea8:	8b 55 fc             	mov    -0x4(%rbp),%edx
   17eab:	48 8d 35 38 1a 00 00 	lea    0x1a38(%rip),%rsi        # 198ea <g_2294+0x846>
   17eb2:	48 89 c7             	mov    %rax,%rdi
   17eb5:	e8 39 18 ff ff       	callq  96f3 <transparent_crc>
   17eba:	0f b7 05 9f 56 00 00 	movzwl 0x569f(%rip),%eax        # 1d560 <g_1976>
   17ec1:	0f b7 c0             	movzwl %ax,%eax
   17ec4:	8b 55 fc             	mov    -0x4(%rbp),%edx
   17ec7:	48 8d 35 26 1a 00 00 	lea    0x1a26(%rip),%rsi        # 198f4 <g_2294+0x850>
   17ece:	48 89 c7             	mov    %rax,%rdi
   17ed1:	e8 1d 18 ff ff       	callq  96f3 <transparent_crc>
   17ed6:	0f b7 05 87 56 00 00 	movzwl 0x5687(%rip),%eax        # 1d564 <g_1978>
   17edd:	48 0f bf c0          	movswq %ax,%rax
   17ee1:	8b 55 fc             	mov    -0x4(%rbp),%edx
   17ee4:	48 8d 35 13 1a 00 00 	lea    0x1a13(%rip),%rsi        # 198fe <g_2294+0x85a>
   17eeb:	48 89 c7             	mov    %rax,%rdi
   17eee:	e8 00 18 ff ff       	callq  96f3 <transparent_crc>
   17ef3:	0f b6 05 6a 56 00 00 	movzbl 0x566a(%rip),%eax        # 1d564 <g_1978>
   17efa:	48 0f be c0          	movsbq %al,%rax
   17efe:	8b 55 fc             	mov    -0x4(%rbp),%edx
   17f01:	48 8d 35 00 1a 00 00 	lea    0x1a00(%rip),%rsi        # 19908 <g_2294+0x864>
   17f08:	48 89 c7             	mov    %rax,%rdi
   17f0b:	e8 e3 17 ff ff       	callq  96f3 <transparent_crc>
   17f10:	0f b7 05 4d 56 00 00 	movzwl 0x564d(%rip),%eax        # 1d564 <g_1978>
   17f17:	0f b7 c0             	movzwl %ax,%eax
   17f1a:	8b 55 fc             	mov    -0x4(%rbp),%edx
   17f1d:	48 8d 35 ee 19 00 00 	lea    0x19ee(%rip),%rsi        # 19912 <g_2294+0x86e>
   17f24:	48 89 c7             	mov    %rax,%rdi
   17f27:	e8 c7 17 ff ff       	callq  96f3 <transparent_crc>
   17f2c:	0f b6 05 fd 8c 00 00 	movzbl 0x8cfd(%rip),%eax        # 20c30 <g_2038>
   17f33:	0f b6 c0             	movzbl %al,%eax
   17f36:	8b 55 fc             	mov    -0x4(%rbp),%edx
   17f39:	48 8d 35 dc 19 00 00 	lea    0x19dc(%rip),%rsi        # 1991c <g_2294+0x878>
   17f40:	48 89 c7             	mov    %rax,%rdi
   17f43:	e8 ab 17 ff ff       	callq  96f3 <transparent_crc>
   17f48:	c7 45 f0 00 00 00 00 	movl   $0x0,-0x10(%rbp)
   17f4f:	e9 e1 00 00 00       	jmpq   18035 <main+0xb8f>
   17f54:	c7 45 f4 00 00 00 00 	movl   $0x0,-0xc(%rbp)
   17f5b:	e9 c7 00 00 00       	jmpq   18027 <main+0xb81>
   17f60:	8b 45 f4             	mov    -0xc(%rbp),%eax
   17f63:	48 63 d0             	movslq %eax,%rdx
   17f66:	8b 45 f0             	mov    -0x10(%rbp),%eax
   17f69:	48 98                	cltq   
   17f6b:	48 01 d0             	add    %rdx,%rax
   17f6e:	48 8d 14 85 00 00 00 	lea    0x0(,%rax,4),%rdx
   17f75:	00 
   17f76:	48 8d 05 03 11 00 00 	lea    0x1103(%rip),%rax        # 19080 <g_2054>
   17f7d:	0f b7 04 02          	movzwl (%rdx,%rax,1),%eax
   17f81:	48 0f bf c0          	movswq %ax,%rax
   17f85:	8b 55 fc             	mov    -0x4(%rbp),%edx
   17f88:	48 8d 35 94 19 00 00 	lea    0x1994(%rip),%rsi        # 19923 <g_2294+0x87f>
   17f8f:	48 89 c7             	mov    %rax,%rdi
   17f92:	e8 5c 17 ff ff       	callq  96f3 <transparent_crc>
   17f97:	8b 45 f4             	mov    -0xc(%rbp),%eax
   17f9a:	48 63 d0             	movslq %eax,%rdx
   17f9d:	8b 45 f0             	mov    -0x10(%rbp),%eax
   17fa0:	48 98                	cltq   
   17fa2:	48 01 d0             	add    %rdx,%rax
   17fa5:	48 8d 14 85 00 00 00 	lea    0x0(,%rax,4),%rdx
   17fac:	00 
   17fad:	48 8d 05 cc 10 00 00 	lea    0x10cc(%rip),%rax        # 19080 <g_2054>
   17fb4:	0f b6 04 02          	movzbl (%rdx,%rax,1),%eax
   17fb8:	48 0f be c0          	movsbq %al,%rax
   17fbc:	8b 55 fc             	mov    -0x4(%rbp),%edx
   17fbf:	48 8d 35 6d 19 00 00 	lea    0x196d(%rip),%rsi        # 19933 <g_2294+0x88f>
   17fc6:	48 89 c7             	mov    %rax,%rdi
   17fc9:	e8 25 17 ff ff       	callq  96f3 <transparent_crc>
   17fce:	8b 45 f4             	mov    -0xc(%rbp),%eax
   17fd1:	48 63 d0             	movslq %eax,%rdx
   17fd4:	8b 45 f0             	mov    -0x10(%rbp),%eax
   17fd7:	48 98                	cltq   
   17fd9:	48 01 d0             	add    %rdx,%rax
   17fdc:	48 8d 14 85 00 00 00 	lea    0x0(,%rax,4),%rdx
   17fe3:	00 
   17fe4:	48 8d 05 95 10 00 00 	lea    0x1095(%rip),%rax        # 19080 <g_2054>
   17feb:	0f b7 04 02          	movzwl (%rdx,%rax,1),%eax
   17fef:	0f b7 c0             	movzwl %ax,%eax
   17ff2:	8b 55 fc             	mov    -0x4(%rbp),%edx
   17ff5:	48 8d 35 47 19 00 00 	lea    0x1947(%rip),%rsi        # 19943 <g_2294+0x89f>
   17ffc:	48 89 c7             	mov    %rax,%rdi
   17fff:	e8 ef 16 ff ff       	callq  96f3 <transparent_crc>
   18004:	83 7d fc 00          	cmpl   $0x0,-0x4(%rbp)
   18008:	74 19                	je     18023 <main+0xb7d>
   1800a:	8b 55 f4             	mov    -0xc(%rbp),%edx
   1800d:	8b 45 f0             	mov    -0x10(%rbp),%eax
   18010:	89 c6                	mov    %eax,%esi
   18012:	48 8d 3d 3a 19 00 00 	lea    0x193a(%rip),%rdi        # 19953 <g_2294+0x8af>
   18019:	b8 00 00 00 00       	mov    $0x0,%eax
   1801e:	e8 5d 00 ff ff       	callq  8080 <printf@plt>
   18023:	83 45 f4 01          	addl   $0x1,-0xc(%rbp)
   18027:	83 7d f4 00          	cmpl   $0x0,-0xc(%rbp)
   1802b:	0f 8e 2f ff ff ff    	jle    17f60 <main+0xaba>
   18031:	83 45 f0 01          	addl   $0x1,-0x10(%rbp)
   18035:	83 7d f0 08          	cmpl   $0x8,-0x10(%rbp)
   18039:	0f 8e 15 ff ff ff    	jle    17f54 <main+0xaae>
   1803f:	0f b6 05 22 55 00 00 	movzbl 0x5522(%rip),%eax        # 1d568 <g_2078>
   18046:	0f b6 c0             	movzbl %al,%eax
   18049:	8b 55 fc             	mov    -0x4(%rbp),%edx
   1804c:	48 8d 35 12 19 00 00 	lea    0x1912(%rip),%rsi        # 19965 <g_2294+0x8c1>
   18053:	48 89 c7             	mov    %rax,%rdi
   18056:	e8 98 16 ff ff       	callq  96f3 <transparent_crc>
   1805b:	c7 45 f0 00 00 00 00 	movl   $0x0,-0x10(%rbp)
   18062:	eb 4b                	jmp    180af <main+0xc09>
   18064:	8b 45 f0             	mov    -0x10(%rbp),%eax
   18067:	48 98                	cltq   
   18069:	48 8d 14 85 00 00 00 	lea    0x0(,%rax,4),%rdx
   18070:	00 
   18071:	48 8d 05 08 55 00 00 	lea    0x5508(%rip),%rax        # 1d580 <g_2224>
   18078:	8b 04 02             	mov    (%rdx,%rax,1),%eax
   1807b:	48 98                	cltq   
   1807d:	8b 55 fc             	mov    -0x4(%rbp),%edx
   18080:	48 8d 35 e5 18 00 00 	lea    0x18e5(%rip),%rsi        # 1996c <g_2294+0x8c8>
   18087:	48 89 c7             	mov    %rax,%rdi
   1808a:	e8 64 16 ff ff       	callq  96f3 <transparent_crc>
   1808f:	83 7d fc 00          	cmpl   $0x0,-0x4(%rbp)
   18093:	74 16                	je     180ab <main+0xc05>
   18095:	8b 45 f0             	mov    -0x10(%rbp),%eax
   18098:	89 c6                	mov    %eax,%esi
   1809a:	48 8d 3d f3 15 00 00 	lea    0x15f3(%rip),%rdi        # 19694 <g_2294+0x5f0>
   180a1:	b8 00 00 00 00       	mov    $0x0,%eax
   180a6:	e8 d5 ff fe ff       	callq  8080 <printf@plt>
   180ab:	83 45 f0 01          	addl   $0x1,-0x10(%rbp)
   180af:	83 7d f0 07          	cmpl   $0x7,-0x10(%rbp)
   180b3:	7e af                	jle    18064 <main+0xbbe>
   180b5:	c7 45 f0 00 00 00 00 	movl   $0x0,-0x10(%rbp)
   180bc:	e9 a9 00 00 00       	jmpq   1816a <main+0xcc4>
   180c1:	8b 45 f0             	mov    -0x10(%rbp),%eax
   180c4:	48 98                	cltq   
   180c6:	48 8d 14 85 00 00 00 	lea    0x0(,%rax,4),%rdx
   180cd:	00 
   180ce:	48 8d 05 cb 54 00 00 	lea    0x54cb(%rip),%rax        # 1d5a0 <g_2231>
   180d5:	0f b7 04 02          	movzwl (%rdx,%rax,1),%eax
   180d9:	48 0f bf c0          	movswq %ax,%rax
   180dd:	8b 55 fc             	mov    -0x4(%rbp),%edx
   180e0:	48 8d 35 8f 18 00 00 	lea    0x188f(%rip),%rsi        # 19976 <g_2294+0x8d2>
   180e7:	48 89 c7             	mov    %rax,%rdi
   180ea:	e8 04 16 ff ff       	callq  96f3 <transparent_crc>
   180ef:	8b 45 f0             	mov    -0x10(%rbp),%eax
   180f2:	48 98                	cltq   
   180f4:	48 8d 14 85 00 00 00 	lea    0x0(,%rax,4),%rdx
   180fb:	00 
   180fc:	48 8d 05 9d 54 00 00 	lea    0x549d(%rip),%rax        # 1d5a0 <g_2231>
   18103:	0f b6 04 02          	movzbl (%rdx,%rax,1),%eax
   18107:	48 0f be c0          	movsbq %al,%rax
   1810b:	8b 55 fc             	mov    -0x4(%rbp),%edx
   1810e:	48 8d 35 6e 18 00 00 	lea    0x186e(%rip),%rsi        # 19983 <g_2294+0x8df>
   18115:	48 89 c7             	mov    %rax,%rdi
   18118:	e8 d6 15 ff ff       	callq  96f3 <transparent_crc>
   1811d:	8b 45 f0             	mov    -0x10(%rbp),%eax
   18120:	48 98                	cltq   
   18122:	48 8d 14 85 00 00 00 	lea    0x0(,%rax,4),%rdx
   18129:	00 
   1812a:	48 8d 05 6f 54 00 00 	lea    0x546f(%rip),%rax        # 1d5a0 <g_2231>
   18131:	0f b7 04 02          	movzwl (%rdx,%rax,1),%eax
   18135:	0f b7 c0             	movzwl %ax,%eax
   18138:	8b 55 fc             	mov    -0x4(%rbp),%edx
   1813b:	48 8d 35 4e 18 00 00 	lea    0x184e(%rip),%rsi        # 19990 <g_2294+0x8ec>
   18142:	48 89 c7             	mov    %rax,%rdi
   18145:	e8 a9 15 ff ff       	callq  96f3 <transparent_crc>
   1814a:	83 7d fc 00          	cmpl   $0x0,-0x4(%rbp)
   1814e:	74 16                	je     18166 <main+0xcc0>
   18150:	8b 45 f0             	mov    -0x10(%rbp),%eax
   18153:	89 c6                	mov    %eax,%esi
   18155:	48 8d 3d 38 15 00 00 	lea    0x1538(%rip),%rdi        # 19694 <g_2294+0x5f0>
   1815c:	b8 00 00 00 00       	mov    $0x0,%eax
   18161:	e8 1a ff fe ff       	callq  8080 <printf@plt>
   18166:	83 45 f0 01          	addl   $0x1,-0x10(%rbp)
   1816a:	83 7d f0 09          	cmpl   $0x9,-0x10(%rbp)
   1816e:	0f 8e 4d ff ff ff    	jle    180c1 <main+0xc1b>
   18174:	0f b6 05 4d 54 00 00 	movzbl 0x544d(%rip),%eax        # 1d5c8 <g_2264>
   1817b:	0f b6 c0             	movzbl %al,%eax
   1817e:	8b 55 fc             	mov    -0x4(%rbp),%edx
   18181:	48 8d 35 15 18 00 00 	lea    0x1815(%rip),%rsi        # 1999d <g_2294+0x8f9>
   18188:	48 89 c7             	mov    %rax,%rdi
   1818b:	e8 63 15 ff ff       	callq  96f3 <transparent_crc>
   18190:	b8 12 56 5f 8f       	mov    $0x8f5f5612,%eax
   18195:	89 c1                	mov    %eax,%ecx
   18197:	8b 45 fc             	mov    -0x4(%rbp),%eax
   1819a:	89 c2                	mov    %eax,%edx
   1819c:	48 8d 35 01 18 00 00 	lea    0x1801(%rip),%rsi        # 199a4 <g_2294+0x900>
   181a3:	48 89 cf             	mov    %rcx,%rdi
   181a6:	e8 48 15 ff ff       	callq  96f3 <transparent_crc>
   181ab:	0f b6 05 17 54 00 00 	movzbl 0x5417(%rip),%eax        # 1d5c9 <g_2389>
   181b2:	48 0f be c0          	movsbq %al,%rax
   181b6:	8b 55 fc             	mov    -0x4(%rbp),%edx
   181b9:	48 8d 35 eb 17 00 00 	lea    0x17eb(%rip),%rsi        # 199ab <g_2294+0x907>
   181c0:	48 89 c7             	mov    %rax,%rdi
   181c3:	e8 2b 15 ff ff       	callq  96f3 <transparent_crc>
   181c8:	0f b6 05 fb 53 00 00 	movzbl 0x53fb(%rip),%eax        # 1d5ca <g_2418>
   181cf:	0f b6 c0             	movzbl %al,%eax
   181d2:	8b 55 fc             	mov    -0x4(%rbp),%edx
   181d5:	48 8d 35 d6 17 00 00 	lea    0x17d6(%rip),%rsi        # 199b2 <g_2294+0x90e>
   181dc:	48 89 c7             	mov    %rax,%rdi
   181df:	e8 0f 15 ff ff       	callq  96f3 <transparent_crc>
   181e4:	0f b7 05 e1 53 00 00 	movzwl 0x53e1(%rip),%eax        # 1d5cc <g_2492>
   181eb:	48 0f bf c0          	movswq %ax,%rax
   181ef:	8b 55 fc             	mov    -0x4(%rbp),%edx
   181f2:	48 8d 35 c0 17 00 00 	lea    0x17c0(%rip),%rsi        # 199b9 <g_2294+0x915>
   181f9:	48 89 c7             	mov    %rax,%rdi
   181fc:	e8 f2 14 ff ff       	callq  96f3 <transparent_crc>
   18201:	0f b6 05 c4 53 00 00 	movzbl 0x53c4(%rip),%eax        # 1d5cc <g_2492>
   18208:	48 0f be c0          	movsbq %al,%rax
   1820c:	8b 55 fc             	mov    -0x4(%rbp),%edx
   1820f:	48 8d 35 ad 17 00 00 	lea    0x17ad(%rip),%rsi        # 199c3 <g_2294+0x91f>
   18216:	48 89 c7             	mov    %rax,%rdi
   18219:	e8 d5 14 ff ff       	callq  96f3 <transparent_crc>
   1821e:	0f b7 05 a7 53 00 00 	movzwl 0x53a7(%rip),%eax        # 1d5cc <g_2492>
   18225:	0f b7 c0             	movzwl %ax,%eax
   18228:	8b 55 fc             	mov    -0x4(%rbp),%edx
   1822b:	48 8d 35 9b 17 00 00 	lea    0x179b(%rip),%rsi        # 199cd <g_2294+0x929>
   18232:	48 89 c7             	mov    %rax,%rdi
   18235:	e8 b9 14 ff ff       	callq  96f3 <transparent_crc>
   1823a:	0f b7 05 0f 8a 00 00 	movzwl 0x8a0f(%rip),%eax        # 20c50 <g_2560>
   18241:	48 0f bf c0          	movswq %ax,%rax
   18245:	8b 55 fc             	mov    -0x4(%rbp),%edx
   18248:	48 8d 35 88 17 00 00 	lea    0x1788(%rip),%rsi        # 199d7 <g_2294+0x933>
   1824f:	48 89 c7             	mov    %rax,%rdi
   18252:	e8 9c 14 ff ff       	callq  96f3 <transparent_crc>
   18257:	0f b6 05 f2 89 00 00 	movzbl 0x89f2(%rip),%eax        # 20c50 <g_2560>
   1825e:	48 0f be c0          	movsbq %al,%rax
   18262:	8b 55 fc             	mov    -0x4(%rbp),%edx
   18265:	48 8d 35 75 17 00 00 	lea    0x1775(%rip),%rsi        # 199e1 <g_2294+0x93d>
   1826c:	48 89 c7             	mov    %rax,%rdi
   1826f:	e8 7f 14 ff ff       	callq  96f3 <transparent_crc>
   18274:	0f b7 05 d5 89 00 00 	movzwl 0x89d5(%rip),%eax        # 20c50 <g_2560>
   1827b:	0f b7 c0             	movzwl %ax,%eax
   1827e:	8b 55 fc             	mov    -0x4(%rbp),%edx
   18281:	48 8d 35 63 17 00 00 	lea    0x1763(%rip),%rsi        # 199eb <g_2294+0x947>
   18288:	48 89 c7             	mov    %rax,%rdi
   1828b:	e8 63 14 ff ff       	callq  96f3 <transparent_crc>
   18290:	c7 45 f0 00 00 00 00 	movl   $0x0,-0x10(%rbp)
   18297:	eb 75                	jmp    1830e <main+0xe68>
   18299:	c7 45 f4 00 00 00 00 	movl   $0x0,-0xc(%rbp)
   182a0:	eb 62                	jmp    18304 <main+0xe5e>
   182a2:	8b 45 f4             	mov    -0xc(%rbp),%eax
   182a5:	48 63 c8             	movslq %eax,%rcx
   182a8:	8b 45 f0             	mov    -0x10(%rbp),%eax
   182ab:	48 63 d0             	movslq %eax,%rdx
   182ae:	48 89 d0             	mov    %rdx,%rax
   182b1:	48 c1 e0 03          	shl    $0x3,%rax
   182b5:	48 01 d0             	add    %rdx,%rax
   182b8:	48 01 c8             	add    %rcx,%rax
   182bb:	48 8d 14 85 00 00 00 	lea    0x0(,%rax,4),%rdx
   182c2:	00 
   182c3:	48 8d 05 16 53 00 00 	lea    0x5316(%rip),%rax        # 1d5e0 <g_2580>
   182ca:	8b 04 02             	mov    (%rdx,%rax,1),%eax
   182cd:	48 98                	cltq   
   182cf:	8b 55 fc             	mov    -0x4(%rbp),%edx
   182d2:	48 8d 35 1c 17 00 00 	lea    0x171c(%rip),%rsi        # 199f5 <g_2294+0x951>
   182d9:	48 89 c7             	mov    %rax,%rdi
   182dc:	e8 12 14 ff ff       	callq  96f3 <transparent_crc>
   182e1:	83 7d fc 00          	cmpl   $0x0,-0x4(%rbp)
   182e5:	74 19                	je     18300 <main+0xe5a>
   182e7:	8b 55 f4             	mov    -0xc(%rbp),%edx
   182ea:	8b 45 f0             	mov    -0x10(%rbp),%eax
   182ed:	89 c6                	mov    %eax,%esi
   182ef:	48 8d 3d 5d 16 00 00 	lea    0x165d(%rip),%rdi        # 19953 <g_2294+0x8af>
   182f6:	b8 00 00 00 00       	mov    $0x0,%eax
   182fb:	e8 80 fd fe ff       	callq  8080 <printf@plt>
   18300:	83 45 f4 01          	addl   $0x1,-0xc(%rbp)
   18304:	83 7d f4 08          	cmpl   $0x8,-0xc(%rbp)
   18308:	7e 98                	jle    182a2 <main+0xdfc>
   1830a:	83 45 f0 01          	addl   $0x1,-0x10(%rbp)
   1830e:	83 7d f0 06          	cmpl   $0x6,-0x10(%rbp)
   18312:	7e 85                	jle    18299 <main+0xdf3>
   18314:	0f b7 05 c1 53 00 00 	movzwl 0x53c1(%rip),%eax        # 1d6dc <g_2652>
   1831b:	48 0f bf c0          	movswq %ax,%rax
   1831f:	8b 55 fc             	mov    -0x4(%rbp),%edx
   18322:	48 8d 35 d9 16 00 00 	lea    0x16d9(%rip),%rsi        # 19a02 <g_2294+0x95e>
   18329:	48 89 c7             	mov    %rax,%rdi
   1832c:	e8 c2 13 ff ff       	callq  96f3 <transparent_crc>
   18331:	0f b6 05 a4 53 00 00 	movzbl 0x53a4(%rip),%eax        # 1d6dc <g_2652>
   18338:	48 0f be c0          	movsbq %al,%rax
   1833c:	8b 55 fc             	mov    -0x4(%rbp),%edx
   1833f:	48 8d 35 c6 16 00 00 	lea    0x16c6(%rip),%rsi        # 19a0c <g_2294+0x968>
   18346:	48 89 c7             	mov    %rax,%rdi
   18349:	e8 a5 13 ff ff       	callq  96f3 <transparent_crc>
   1834e:	0f b7 05 87 53 00 00 	movzwl 0x5387(%rip),%eax        # 1d6dc <g_2652>
   18355:	0f b7 c0             	movzwl %ax,%eax
   18358:	8b 55 fc             	mov    -0x4(%rbp),%edx
   1835b:	48 8d 35 b4 16 00 00 	lea    0x16b4(%rip),%rsi        # 19a16 <g_2294+0x972>
   18362:	48 89 c7             	mov    %rax,%rdi
   18365:	e8 89 13 ff ff       	callq  96f3 <transparent_crc>
   1836a:	0f b7 05 6f 53 00 00 	movzwl 0x536f(%rip),%eax        # 1d6e0 <g_2665>
   18371:	48 0f bf c0          	movswq %ax,%rax
   18375:	8b 55 fc             	mov    -0x4(%rbp),%edx
   18378:	48 8d 35 a1 16 00 00 	lea    0x16a1(%rip),%rsi        # 19a20 <g_2294+0x97c>
   1837f:	48 89 c7             	mov    %rax,%rdi
   18382:	e8 6c 13 ff ff       	callq  96f3 <transparent_crc>
   18387:	0f b6 05 52 53 00 00 	movzbl 0x5352(%rip),%eax        # 1d6e0 <g_2665>
   1838e:	48 0f be c0          	movsbq %al,%rax
   18392:	8b 55 fc             	mov    -0x4(%rbp),%edx
   18395:	48 8d 35 8e 16 00 00 	lea    0x168e(%rip),%rsi        # 19a2a <g_2294+0x986>
   1839c:	48 89 c7             	mov    %rax,%rdi
   1839f:	e8 4f 13 ff ff       	callq  96f3 <transparent_crc>
   183a4:	0f b7 05 35 53 00 00 	movzwl 0x5335(%rip),%eax        # 1d6e0 <g_2665>
   183ab:	0f b7 c0             	movzwl %ax,%eax
   183ae:	8b 55 fc             	mov    -0x4(%rbp),%edx
   183b1:	48 8d 35 7c 16 00 00 	lea    0x167c(%rip),%rsi        # 19a34 <g_2294+0x990>
   183b8:	48 89 c7             	mov    %rax,%rdi
   183bb:	e8 33 13 ff ff       	callq  96f3 <transparent_crc>
   183c0:	c7 45 f0 00 00 00 00 	movl   $0x0,-0x10(%rbp)
   183c7:	eb 4f                	jmp    18418 <main+0xf72>
   183c9:	8b 45 f0             	mov    -0x10(%rbp),%eax
   183cc:	48 98                	cltq   
   183ce:	48 8d 14 c5 00 00 00 	lea    0x0(,%rax,8),%rdx
   183d5:	00 
   183d6:	48 8d 05 13 53 00 00 	lea    0x5313(%rip),%rax        # 1d6f0 <g_2667>
   183dd:	48 8b 04 02          	mov    (%rdx,%rax,1),%rax
   183e1:	48 89 c1             	mov    %rax,%rcx
   183e4:	8b 45 fc             	mov    -0x4(%rbp),%eax
   183e7:	89 c2                	mov    %eax,%edx
   183e9:	48 8d 35 4e 16 00 00 	lea    0x164e(%rip),%rsi        # 19a3e <g_2294+0x99a>
   183f0:	48 89 cf             	mov    %rcx,%rdi
   183f3:	e8 fb 12 ff ff       	callq  96f3 <transparent_crc>
   183f8:	83 7d fc 00          	cmpl   $0x0,-0x4(%rbp)
   183fc:	74 16                	je     18414 <main+0xf6e>
   183fe:	8b 45 f0             	mov    -0x10(%rbp),%eax
   18401:	89 c6                	mov    %eax,%esi
   18403:	48 8d 3d 8a 12 00 00 	lea    0x128a(%rip),%rdi        # 19694 <g_2294+0x5f0>
   1840a:	b8 00 00 00 00       	mov    $0x0,%eax
   1840f:	e8 6c fc fe ff       	callq  8080 <printf@plt>
   18414:	83 45 f0 01          	addl   $0x1,-0x10(%rbp)
   18418:	83 7d f0 02          	cmpl   $0x2,-0x10(%rbp)
   1841c:	7e ab                	jle    183c9 <main+0xf23>
   1841e:	0f b7 05 e3 52 00 00 	movzwl 0x52e3(%rip),%eax        # 1d708 <g_2683>
   18425:	48 0f bf c0          	movswq %ax,%rax
   18429:	8b 55 fc             	mov    -0x4(%rbp),%edx
   1842c:	48 8d 35 15 16 00 00 	lea    0x1615(%rip),%rsi        # 19a48 <g_2294+0x9a4>
   18433:	48 89 c7             	mov    %rax,%rdi
   18436:	e8 b8 12 ff ff       	callq  96f3 <transparent_crc>
   1843b:	0f b6 05 c6 52 00 00 	movzbl 0x52c6(%rip),%eax        # 1d708 <g_2683>
   18442:	48 0f be c0          	movsbq %al,%rax
   18446:	8b 55 fc             	mov    -0x4(%rbp),%edx
   18449:	48 8d 35 02 16 00 00 	lea    0x1602(%rip),%rsi        # 19a52 <g_2294+0x9ae>
   18450:	48 89 c7             	mov    %rax,%rdi
   18453:	e8 9b 12 ff ff       	callq  96f3 <transparent_crc>
   18458:	0f b7 05 a9 52 00 00 	movzwl 0x52a9(%rip),%eax        # 1d708 <g_2683>
   1845f:	0f b7 c0             	movzwl %ax,%eax
   18462:	8b 55 fc             	mov    -0x4(%rbp),%edx
   18465:	48 8d 35 f0 15 00 00 	lea    0x15f0(%rip),%rsi        # 19a5c <g_2294+0x9b8>
   1846c:	48 89 c7             	mov    %rax,%rdi
   1846f:	e8 7f 12 ff ff       	callq  96f3 <transparent_crc>
   18474:	8b 05 a6 4b 00 00    	mov    0x4ba6(%rip),%eax        # 1d020 <crc32_context>
   1847a:	f7 d0                	not    %eax
   1847c:	89 c2                	mov    %eax,%edx
   1847e:	8b 45 fc             	mov    -0x4(%rbp),%eax
   18481:	89 c6                	mov    %eax,%esi
   18483:	89 d7                	mov    %edx,%edi
   18485:	e8 0a fd fe ff       	callq  8194 <platform_main_end>
   1848a:	b8 00 00 00 00       	mov    $0x0,%eax
   1848f:	c9                   	leaveq 
   18490:	c3                   	retq   
   18491:	66 2e 0f 1f 84 00 00 	nopw   %cs:0x0(%rax,%rax,1)
   18498:	00 00 00 
   1849b:	0f 1f 44 00 00       	nopl   0x0(%rax,%rax,1)

00000000000184a0 <__libc_csu_init>:
   184a0:	f3 0f 1e fa          	endbr64 
   184a4:	41 57                	push   %r15
   184a6:	4c 8d 3d a3 47 00 00 	lea    0x47a3(%rip),%r15        # 1cc50 <__frame_dummy_init_array_entry>
   184ad:	41 56                	push   %r14
   184af:	49 89 d6             	mov    %rdx,%r14
   184b2:	41 55                	push   %r13
   184b4:	49 89 f5             	mov    %rsi,%r13
   184b7:	41 54                	push   %r12
   184b9:	41 89 fc             	mov    %edi,%r12d
   184bc:	55                   	push   %rbp
   184bd:	48 8d 2d 94 47 00 00 	lea    0x4794(%rip),%rbp        # 1cc58 <__do_global_dtors_aux_fini_array_entry>
   184c4:	53                   	push   %rbx
   184c5:	4c 29 fd             	sub    %r15,%rbp
   184c8:	48 83 ec 08          	sub    $0x8,%rsp
   184cc:	e8 2f fb fe ff       	callq  8000 <_init>
   184d1:	48 c1 fd 03          	sar    $0x3,%rbp
   184d5:	74 1f                	je     184f6 <__libc_csu_init+0x56>
   184d7:	31 db                	xor    %ebx,%ebx
   184d9:	0f 1f 80 00 00 00 00 	nopl   0x0(%rax)
   184e0:	4c 89 f2             	mov    %r14,%rdx
   184e3:	4c 89 ee             	mov    %r13,%rsi
   184e6:	44 89 e7             	mov    %r12d,%edi
   184e9:	41 ff 14 df          	callq  *(%r15,%rbx,8)
   184ed:	48 83 c3 01          	add    $0x1,%rbx
   184f1:	48 39 dd             	cmp    %rbx,%rbp
   184f4:	75 ea                	jne    184e0 <__libc_csu_init+0x40>
   184f6:	48 83 c4 08          	add    $0x8,%rsp
   184fa:	5b                   	pop    %rbx
   184fb:	5d                   	pop    %rbp
   184fc:	41 5c                	pop    %r12
   184fe:	41 5d                	pop    %r13
   18500:	41 5e                	pop    %r14
   18502:	41 5f                	pop    %r15
   18504:	c3                   	retq   
   18505:	66 66 2e 0f 1f 84 00 	data16 nopw %cs:0x0(%rax,%rax,1)
   1850c:	00 00 00 00 

0000000000018510 <__libc_csu_fini>:
   18510:	f3 0f 1e fa          	endbr64 
   18514:	c3                   	retq   
